GAS LISTING /tmp/cck1qGYV.s 			page 1


   1              		.file	"interrupt.cpp"
   2              		.option pic
   3              		.option norelax
   4              		.text
   5              	.Ltext0:
   6              		.align	2
   7              		.globl	interrupt
   9              	interrupt:
  10              	.LFB0:
  11              		.file 1 "src/interrupt.cpp"
   1:src/interrupt.cpp **** //
   2:src/interrupt.cpp **** // Created by os on 4/12/22.
   3:src/interrupt.cpp **** //
   4:src/interrupt.cpp **** 
   5:src/interrupt.cpp **** #include "../h/interrupt.h"
   6:src/interrupt.cpp **** 
   7:src/interrupt.cpp **** const uint64 bntOne = 1UL << 63;
   8:src/interrupt.cpp **** const uint64 bntZero = 0;
   9:src/interrupt.cpp **** 
  10:src/interrupt.cpp **** const uint64 hwInterrupt = bntOne + 9UL;
  11:src/interrupt.cpp **** const uint64 operationInterrupt = bntZero + 2UL;
  12:src/interrupt.cpp **** const uint64 addrReadInterrupt = bntZero + 5UL;
  13:src/interrupt.cpp **** const uint64 addrWriteInterrupt = bntZero + 7UL;
  14:src/interrupt.cpp **** const uint64 ecallUserInterrupt = bntZero + 8UL;
  15:src/interrupt.cpp **** const uint64 ecallSystemInterupt = bntZero + 9UL;
  16:src/interrupt.cpp **** 
  17:src/interrupt.cpp **** extern "C" void interrupt() {
  12              		.loc 1 17 29
  13              		.cfi_startproc
  14 0000 130101FF 		addi	sp,sp,-16
  15              		.cfi_def_cfa_offset 16
  16 0004 23341100 		sd	ra,8(sp)
  17 0008 23308100 		sd	s0,0(sp)
  18              		.cfi_offset 1, -8
  19              		.cfi_offset 8, -16
  20 000c 13040101 		addi	s0,sp,16
  21              		.cfi_def_cfa 8, 0
  18:src/interrupt.cpp **** 
  19:src/interrupt.cpp ****     uint64 scause;
  22              		.loc 1 19 5
  20:src/interrupt.cpp ****     __asm__ volatile("csrr %0,scause":"=r"(scause));
  23              		.loc 1 20 5
  24              		.loc 1 20 52 is_stmt 0
  25              	#APP
  26              	# 20 "src/interrupt.cpp" 1
  21              	    switch(scause) {
  27              		csrr a4,scause
  28              	# 0 "" 2
  29              	.LVL0:
  30              		.loc 1 21 5 is_stmt 1
  31              	#NO_APP
  32              	.LBB2:
  33 0014 93079000 		li	a5,9
  34 0018 630EF700 		beq	a4,a5,.L5
  35              	.LVL1:
  36              	.L2:
  37              	.LBE2:
GAS LISTING /tmp/cck1qGYV.s 			page 2


  22:src/interrupt.cpp **** 
  23:src/interrupt.cpp ****         case hwInterrupt: // todo
  24:src/interrupt.cpp ****             break;
  25:src/interrupt.cpp **** 
  26:src/interrupt.cpp ****         case operationInterrupt: // todo
  27:src/interrupt.cpp ****             break;
  28:src/interrupt.cpp **** 
  29:src/interrupt.cpp ****         case addrReadInterrupt: // todo
  30:src/interrupt.cpp ****             break;
  31:src/interrupt.cpp **** 
  32:src/interrupt.cpp ****         case addrWriteInterrupt: // todo
  33:src/interrupt.cpp ****             break;
  34:src/interrupt.cpp **** 
  35:src/interrupt.cpp ****         case ecallUserInterrupt: // todo
  36:src/interrupt.cpp **** 
  37:src/interrupt.cpp ****             break;
  38:src/interrupt.cpp **** 
  39:src/interrupt.cpp ****         case ecallSystemInterupt:
  40:src/interrupt.cpp **** 
  41:src/interrupt.cpp ****             uint64 operation = 0;
  42:src/interrupt.cpp ****             __asm__ volatile("mv %0, a0" :  "=r"(operation));
  43:src/interrupt.cpp **** 
  44:src/interrupt.cpp ****             if(operation == (uint64)MEM_ALLOC) {
  45:src/interrupt.cpp ****                 size_t size;
  46:src/interrupt.cpp ****                 __asm__ volatile("mv %0, a1" : "=r"(size));
  47:src/interrupt.cpp ****                 size*=MEM_BLOCK_SIZE;
  48:src/interrupt.cpp ****                 void* allocatedAddr = tryToAllocateFragment(size);
  49:src/interrupt.cpp ****                 __asm__ volatile("mv a0,%0" : : "r"((uint64)allocatedAddr));
  50:src/interrupt.cpp ****             }
  51:src/interrupt.cpp ****             else if(operation == (uint64)MEM_FREE){
  52:src/interrupt.cpp ****                 uint64 addr = 0;
  53:src/interrupt.cpp ****                 __asm__ volatile("mv %0, a1" : "=r"(addr));
  54:src/interrupt.cpp ****                 tryToFreeSegment((void*)addr);
  55:src/interrupt.cpp ****             }
  56:src/interrupt.cpp ****             else if(operation == (uint64)0x11)
  57:src/interrupt.cpp ****             {
  58:src/interrupt.cpp ****                 //thread create
  59:src/interrupt.cpp **** 
  60:src/interrupt.cpp ****                 //__asm__ volatile("mv %0, a1" : "=r"(size));
  61:src/interrupt.cpp ****             }
  62:src/interrupt.cpp **** 
  63:src/interrupt.cpp **** 
  64:src/interrupt.cpp **** 
  65:src/interrupt.cpp **** 
  66:src/interrupt.cpp ****             //uint64 sepc;
  67:src/interrupt.cpp ****             //asm volatile("csrr %0, sepc" : "=r" (sepc));
  68:src/interrupt.cpp ****             //sepc+=4;
  69:src/interrupt.cpp ****             //asm volatile("csrw sepc, %0" : : "r" (sepc));
  70:src/interrupt.cpp **** 
  71:src/interrupt.cpp ****             break;
  72:src/interrupt.cpp ****     }
  73:src/interrupt.cpp **** 
  74:src/interrupt.cpp ****     //todo
  75:src/interrupt.cpp ****     //sta od ovoga treba da se uradi
  76:src/interrupt.cpp **** 
  77:src/interrupt.cpp ****     //uint64 sepc;
  78:src/interrupt.cpp ****     //asm volatile("csrr %0, sepc" : "=r" (sepc));
GAS LISTING /tmp/cck1qGYV.s 			page 3


  79:src/interrupt.cpp ****     //sepc+=4;
  80:src/interrupt.cpp ****     //asm volatile("csrw sepc, %0" : : "r" (sepc));
  81:src/interrupt.cpp **** 
  82:src/interrupt.cpp ****     //uint64 sip;
  83:src/interrupt.cpp ****     //asm volatile("csrr %0, sip" : "=r" (sip));
  84:src/interrupt.cpp ****     //sip &= ~2;
  85:src/interrupt.cpp ****     //asm volatile("csrw sip, %0" : : "r" (sip));
  86:src/interrupt.cpp **** 
  87:src/interrupt.cpp ****     //uint64 sie;
  88:src/interrupt.cpp ****     //asm volatile("csrr %0, sie" : "=r"(sie));
  89:src/interrupt.cpp ****     //sie &= ~2;
  90:src/interrupt.cpp ****     //asm volatile("csrw sie, %0" : : "r" (sie));
  91:src/interrupt.cpp **** 
  92:src/interrupt.cpp ****     console_handler();
  38              		.loc 1 92 5
  39              		.loc 1 92 20 is_stmt 0
  40 001c 97000000 		call	console_handler@plt
  40      E7800000 
  41              	.LVL2:
  93:src/interrupt.cpp **** }
  42              		.loc 1 93 1
  43 0024 83308100 		ld	ra,8(sp)
  44              		.cfi_remember_state
  45              		.cfi_restore 1
  46 0028 03340100 		ld	s0,0(sp)
  47              		.cfi_restore 8
  48              		.cfi_def_cfa 2, 16
  49 002c 13010101 		addi	sp,sp,16
  50              		.cfi_def_cfa_offset 0
  51 0030 67800000 		jr	ra
  52              	.LVL3:
  53              	.L5:
  54              		.cfi_restore_state
  55              	.LBB10:
  56              	.LBB3:
  39:src/interrupt.cpp **** 
  57              		.loc 1 39 9 is_stmt 1
  41:src/interrupt.cpp ****             __asm__ volatile("mv %0, a0" :  "=r"(operation));
  58              		.loc 1 41 13
  42:src/interrupt.cpp **** 
  59              		.loc 1 42 13
  42:src/interrupt.cpp **** 
  60              		.loc 1 42 61 is_stmt 0
  61              	#APP
  62              	# 42 "src/interrupt.cpp" 1
  63              		mv a5, a0
  64              	# 0 "" 2
  65              	.LVL4:
  44:src/interrupt.cpp ****                 size_t size;
  66              		.loc 1 44 13 is_stmt 1
  67              	#NO_APP
  68              	.LBB4:
  44:src/interrupt.cpp ****                 size_t size;
  69              		.loc 1 44 29 is_stmt 0
  70 0038 17070000 		la	a4,MEM_ALLOC
  70      03370700 
  71              	.LVL5:
GAS LISTING /tmp/cck1qGYV.s 			page 4


  72 0040 03270700 		lw	a4,0(a4)
  44:src/interrupt.cpp ****                 size_t size;
  73              		.loc 1 44 13
  74 0044 6302F702 		beq	a4,a5,.L6
  75              	.LBE4:
  76              	.LBE3:
  77              	.LBE10:
  51:src/interrupt.cpp ****                 uint64 addr = 0;
  78              		.loc 1 51 18 is_stmt 1
  79              	.LBB11:
  80              	.LBB9:
  81              	.LBB8:
  82              	.LBB5:
  51:src/interrupt.cpp ****                 uint64 addr = 0;
  83              		.loc 1 51 34 is_stmt 0
  84 0048 17070000 		la	a4,MEM_FREE
  84      03370700 
  85 0050 03270700 		lw	a4,0(a4)
  51:src/interrupt.cpp ****                 uint64 addr = 0;
  86              		.loc 1 51 18
  87 0054 E314F7FC 		bne	a4,a5,.L2
  88              	.LBB6:
  52:src/interrupt.cpp ****                 __asm__ volatile("mv %0, a1" : "=r"(addr));
  89              		.loc 1 52 17 is_stmt 1
  90              	.LVL6:
  53:src/interrupt.cpp ****                 tryToFreeSegment((void*)addr);
  91              		.loc 1 53 17
  53:src/interrupt.cpp ****                 tryToFreeSegment((void*)addr);
  92              		.loc 1 53 59 is_stmt 0
  93              	#APP
  94              	# 53 "src/interrupt.cpp" 1
  95              		mv a0, a1
  96              	# 0 "" 2
  97              	.LVL7:
  54:src/interrupt.cpp ****             }
  98              		.loc 1 54 17 is_stmt 1
  54:src/interrupt.cpp ****             }
  99              		.loc 1 54 33 is_stmt 0
 100              	#NO_APP
 101 005c 97000000 		call	tryToFreeSegment@plt
 101      E7800000 
 102              	.LVL8:
 103              	.LBE6:
 104 0064 6FF09FFB 		j	.L2
 105              	.LVL9:
 106              	.L6:
 107              	.LBE5:
 108              	.LBB7:
  45:src/interrupt.cpp ****                 __asm__ volatile("mv %0, a1" : "=r"(size));
 109              		.loc 1 45 17 is_stmt 1
  46:src/interrupt.cpp ****                 size*=MEM_BLOCK_SIZE;
 110              		.loc 1 46 17
  46:src/interrupt.cpp ****                 size*=MEM_BLOCK_SIZE;
 111              		.loc 1 46 59 is_stmt 0
 112              	#APP
 113              	# 46 "src/interrupt.cpp" 1
 114              		mv a0, a1
GAS LISTING /tmp/cck1qGYV.s 			page 5


 115              	# 0 "" 2
 116              	.LVL10:
  47:src/interrupt.cpp ****                 void* allocatedAddr = tryToAllocateFragment(size);
 117              		.loc 1 47 17 is_stmt 1
  48:src/interrupt.cpp ****                 __asm__ volatile("mv a0,%0" : : "r"((uint64)allocatedAddr));
 118              		.loc 1 48 17
  48:src/interrupt.cpp ****                 __asm__ volatile("mv a0,%0" : : "r"((uint64)allocatedAddr));
 119              		.loc 1 48 60 is_stmt 0
 120              	#NO_APP
 121 006c 13156500 		slli	a0,a0,6
 122              	.LVL11:
 123 0070 97000000 		call	tryToAllocateFragment@plt
 123      E7800000 
 124              	.LVL12:
  49:src/interrupt.cpp ****             }
 125              		.loc 1 49 17 is_stmt 1
  49:src/interrupt.cpp ****             }
 126              		.loc 1 49 76 is_stmt 0
 127              	#APP
 128              	# 49 "src/interrupt.cpp" 1
 129              		mv a0,a0
 130              	# 0 "" 2
 131              	#NO_APP
 132              	.LBE7:
 133 007c 6FF01FFA 		j	.L2
 134              	.LBE8:
 135              	.LBE9:
 136              	.LBE11:
 137              		.cfi_endproc
 138              	.LFE0:
 140              		.globl	ecallSystemInterupt
 141              		.globl	ecallUserInterrupt
 142              		.globl	addrWriteInterrupt
 143              		.globl	addrReadInterrupt
 144              		.globl	operationInterrupt
 145              		.globl	hwInterrupt
 146              		.globl	bntZero
 147              		.globl	bntOne
 148              		.section	.rodata
 149              		.align	3
 152              	ecallSystemInterupt:
 153 0000 09000000 		.dword	9
 153      00000000 
 156              	ecallUserInterrupt:
 157 0008 08000000 		.dword	8
 157      00000000 
 160              	addrWriteInterrupt:
 161 0010 07000000 		.dword	7
 161      00000000 
 164              	addrReadInterrupt:
 165 0018 05000000 		.dword	5
 165      00000000 
 168              	operationInterrupt:
 169 0020 02000000 		.dword	2
 169      00000000 
 172              	hwInterrupt:
 173 0028 09000000 		.dword	-9223372036854775799
GAS LISTING /tmp/cck1qGYV.s 			page 6


 173      00000080 
 176              	bntZero:
 177 0030 00000000 		.zero	8
 177      00000000 
 180              	bntOne:
 181 0038 00000000 		.dword	-9223372036854775808
 181      00000080 
 182              		.text
 183              	.Letext0:
 184              		.file 2 "src/../h/../h/../lib/hw.h"
 185              		.file 3 "src/../h/../h/memoryHandler.h"
 186              		.file 4 "src/../h/interrupt.h"
 187              		.file 5 "src/../h/../lib/console.h"
GAS LISTING /tmp/cck1qGYV.s 			page 7

