GAS LISTING /tmp/ccldldcq.s 			page 1


   1              		.file	"KConsole.cpp"
   2              		.option pic
   3              		.option norelax
   4              		.text
   5              	.Ltext0:
   6              		.align	2
   8              	_Z41__static_initialization_and_destruction_0ii:
   9              	.LFB26:
  10              		.file 1 "src/KConsole.cpp"
   1:src/KConsole.cpp **** //
   2:src/KConsole.cpp **** // Created by os on 5/19/22.
   3:src/KConsole.cpp **** //
   4:src/KConsole.cpp **** 
   5:src/KConsole.cpp **** 
   6:src/KConsole.cpp **** #include "../h/KConsole.hpp"
   7:src/KConsole.cpp **** 
   8:src/KConsole.cpp **** KConsole::Elem* KConsole::head = 0;
   9:src/KConsole.cpp **** KConsole::Elem* KConsole::tail = 0;
  10:src/KConsole.cpp **** KSemaphore* KConsole::hasCharacters = new KSemaphore(0);
  11:src/KConsole.cpp **** 
  12:src/KConsole.cpp **** void KConsole::putChar(char c)
  13:src/KConsole.cpp **** {
  14:src/KConsole.cpp ****     Elem* newElem = (Elem*)kmalloc(sizeof(Elem));
  15:src/KConsole.cpp ****     newElem->next = 0;
  16:src/KConsole.cpp ****     newElem->data = c;
  17:src/KConsole.cpp ****     if(head == 0)
  18:src/KConsole.cpp ****     {
  19:src/KConsole.cpp ****         head = tail = newElem;
  20:src/KConsole.cpp ****     }
  21:src/KConsole.cpp ****     else
  22:src/KConsole.cpp ****     {
  23:src/KConsole.cpp ****         tail->next = newElem;
  24:src/KConsole.cpp ****         tail = newElem;
  25:src/KConsole.cpp ****     }
  26:src/KConsole.cpp **** }
  27:src/KConsole.cpp **** 
  28:src/KConsole.cpp **** char KConsole::getChar()
  29:src/KConsole.cpp **** {
  30:src/KConsole.cpp ****     if(head == 0)
  31:src/KConsole.cpp ****         return 0;
  32:src/KConsole.cpp **** 
  33:src/KConsole.cpp ****     Elem* ret = head;
  34:src/KConsole.cpp ****     head = head->next;
  35:src/KConsole.cpp ****     if(head == 0)
  36:src/KConsole.cpp ****         tail = 0;
  37:src/KConsole.cpp **** 
  38:src/KConsole.cpp ****     char c = ret->data;
  39:src/KConsole.cpp ****     kfree(ret);
  40:src/KConsole.cpp ****     return c;
  41:src/KConsole.cpp **** }
  42:src/KConsole.cpp **** 
  43:src/KConsole.cpp **** void KConsole::putCharacter(char c)
  44:src/KConsole.cpp **** {
  45:src/KConsole.cpp ****     putChar(c);
  46:src/KConsole.cpp ****     hasCharacters->signal();
  47:src/KConsole.cpp **** }
  48:src/KConsole.cpp **** 
GAS LISTING /tmp/ccldldcq.s 			page 2


  49:src/KConsole.cpp **** char KConsole::getCharacter()
  50:src/KConsole.cpp **** {
  51:src/KConsole.cpp ****     KConsole::hasCharacters->wait();
  52:src/KConsole.cpp ****     return getChar();
  53:src/KConsole.cpp **** }
  54:src/KConsole.cpp **** 
  55:src/KConsole.cpp **** void KConsole::initialize() {
  56:src/KConsole.cpp ****     hasCharacters = new KSemaphore(0);
  57:src/KConsole.cpp **** 
  58:src/KConsole.cpp **** }
  11              		.loc 1 58 1
  12              		.cfi_startproc
  13              		.cfi_personality 0x9b,DW.ref.__gxx_personality_v0
  14              		.cfi_lsda 0x1b,.LLSDA26
  15              	.LVL0:
  16 0000 93071000 		li	a5,1
  17 0004 6304F500 		beq	a0,a5,.L9
  18              	.L6:
  19 0008 67800000 		ret
  20              	.L9:
  21              		.loc 1 58 1 is_stmt 0 discriminator 1
  22 000c B7070100 		li	a5,65536
  23 0010 9387F7FF 		addi	a5,a5,-1
  24 0014 E39AF5FE 		bne	a1,a5,.L6
  25              		.loc 1 58 1
  26 0018 130101FE 		addi	sp,sp,-32
  27              		.cfi_def_cfa_offset 32
  28 001c 233C1100 		sd	ra,24(sp)
  29 0020 23388100 		sd	s0,16(sp)
  30 0024 23349100 		sd	s1,8(sp)
  31 0028 23302101 		sd	s2,0(sp)
  32              		.cfi_offset 1, -8
  33              		.cfi_offset 8, -16
  34              		.cfi_offset 9, -24
  35              		.cfi_offset 18, -32
  36 002c 13040102 		addi	s0,sp,32
  37              		.cfi_def_cfa 8, 0
  10:src/KConsole.cpp **** 
  38              		.loc 1 10 55
  39 0030 13058001 		li	a0,24
  40              	.LVL1:
  41              	.LEHB0:
  42 0034 97000000 		call	_ZN10KSemaphorenwEm@plt
  42      E7800000 
  43              	.LVL2:
  44              	.LEHE0:
  45 003c 93040500 		mv	s1,a0
  46 0040 93050000 		li	a1,0
  47              	.LEHB1:
  48 0044 97000000 		call	_ZN10KSemaphoreC1Ei@plt
  48      E7800000 
  49              	.LVL3:
  50              	.LEHE1:
  10:src/KConsole.cpp **** 
  51              		.loc 1 10 13 discriminator 2
  52 004c 97070000 		sd	s1,.LANCHOR0,a5
  52      23B09700 
GAS LISTING /tmp/ccldldcq.s 			page 3


  53              		.loc 1 58 1 discriminator 2
  54 0054 83308101 		ld	ra,24(sp)
  55              		.cfi_remember_state
  56              		.cfi_restore 1
  57 0058 03340101 		ld	s0,16(sp)
  58              		.cfi_restore 8
  59              		.cfi_def_cfa 2, 32
  60 005c 83348100 		ld	s1,8(sp)
  61              		.cfi_restore 9
  62 0060 03390100 		ld	s2,0(sp)
  63              		.cfi_restore 18
  64 0064 13010102 		addi	sp,sp,32
  65              		.cfi_def_cfa_offset 0
  66 0068 67800000 		jr	ra
  67              	.L4:
  68              		.cfi_restore_state
  69 006c 13090500 		mv	s2,a0
  10:src/KConsole.cpp **** 
  70              		.loc 1 10 55
  71 0070 13850400 		mv	a0,s1
  72 0074 97000000 		call	_ZN10KSemaphoredlEPv@plt
  72      E7800000 
  73              	.LVL4:
  74 007c 13050900 		mv	a0,s2
  75              	.LEHB2:
  76 0080 97000000 		call	_Unwind_Resume@plt
  76      E7800000 
  77              	.LVL5:
  78              	.LEHE2:
  79              		.cfi_endproc
  80              	.LFE26:
  81              		.globl	__gxx_personality_v0
  82              		.section	.gcc_except_table,"a",@progbits
  83              	.LLSDA26:
  84 0000 FF       		.byte	0xff
  85 0001 FF       		.byte	0xff
  86 0002 03       		.byte	0x3
  87 0003 27       		.byte	0x27
  88 0004 00000000 		.4byte	.LEHB0-.LFB26
  89 0008 00000000 		.4byte	.LEHE0-.LEHB0
  90 000c 00000000 		.4byte	0
  91 0010 00       		.byte	0
  92 0011 00000000 		.4byte	.LEHB1-.LFB26
  93 0015 00000000 		.4byte	.LEHE1-.LEHB1
  94 0019 00000000 		.4byte	.L4-.LFB26
  95 001d 00       		.byte	0
  96 001e 00000000 		.4byte	.LEHB2-.LFB26
  97 0022 00000000 		.4byte	.LEHE2-.LEHB2
  98 0026 00000000 		.4byte	0
  99 002a 00       		.byte	0
 100              		.text
 102              		.align	2
 103              		.globl	_ZN8KConsole7putCharEc
 105              	_ZN8KConsole7putCharEc:
 106              	.LFB21:
  13:src/KConsole.cpp ****     Elem* newElem = (Elem*)kmalloc(sizeof(Elem));
 107              		.loc 1 13 1 is_stmt 1
GAS LISTING /tmp/ccldldcq.s 			page 4


 108              		.cfi_startproc
 109              	.LVL6:
 110 0088 130101FE 		addi	sp,sp,-32
 111              		.cfi_def_cfa_offset 32
 112 008c 233C1100 		sd	ra,24(sp)
 113 0090 23388100 		sd	s0,16(sp)
 114 0094 23349100 		sd	s1,8(sp)
 115              		.cfi_offset 1, -8
 116              		.cfi_offset 8, -16
 117              		.cfi_offset 9, -24
 118 0098 13040102 		addi	s0,sp,32
 119              		.cfi_def_cfa 8, 0
 120 009c 93040500 		mv	s1,a0
  14:src/KConsole.cpp ****     newElem->next = 0;
 121              		.loc 1 14 5
  14:src/KConsole.cpp ****     newElem->next = 0;
 122              		.loc 1 14 35 is_stmt 0
 123 00a0 13050001 		li	a0,16
 124              	.LVL7:
 125 00a4 97000000 		call	_Z7kmallocm@plt
 125      E7800000 
 126              	.LVL8:
  15:src/KConsole.cpp ****     newElem->data = c;
 127              		.loc 1 15 5 is_stmt 1
  15:src/KConsole.cpp ****     newElem->data = c;
 128              		.loc 1 15 19 is_stmt 0
 129 00ac 23300500 		sd	zero,0(a0)
  16:src/KConsole.cpp ****     if(head == 0)
 130              		.loc 1 16 5 is_stmt 1
  16:src/KConsole.cpp ****     if(head == 0)
 131              		.loc 1 16 19 is_stmt 0
 132 00b0 23049500 		sb	s1,8(a0)
  17:src/KConsole.cpp ****     {
 133              		.loc 1 17 5 is_stmt 1
  17:src/KConsole.cpp ****     {
 134              		.loc 1 17 13 is_stmt 0
 135 00b4 97070000 		ld	a5,.LANCHOR0+8
 135      83B70700 
  17:src/KConsole.cpp ****     {
 136              		.loc 1 17 5
 137 00bc 63860702 		beqz	a5,.L14
  23:src/KConsole.cpp ****         tail = newElem;
 138              		.loc 1 23 9 is_stmt 1
  23:src/KConsole.cpp ****         tail = newElem;
 139              		.loc 1 23 15 is_stmt 0
 140 00c0 97070000 		lla	a5,.LANCHOR0
 140      93870700 
 141 00c8 03B70701 		ld	a4,16(a5)
  23:src/KConsole.cpp ****         tail = newElem;
 142              		.loc 1 23 20
 143 00cc 2330A700 		sd	a0,0(a4)
  24:src/KConsole.cpp ****     }
 144              		.loc 1 24 9 is_stmt 1
  24:src/KConsole.cpp ****     }
 145              		.loc 1 24 14 is_stmt 0
 146 00d0 23B8A700 		sd	a0,16(a5)
 147              	.L10:
GAS LISTING /tmp/ccldldcq.s 			page 5


  26:src/KConsole.cpp **** 
 148              		.loc 1 26 1
 149 00d4 83308101 		ld	ra,24(sp)
 150              		.cfi_remember_state
 151              		.cfi_restore 1
 152 00d8 03340101 		ld	s0,16(sp)
 153              		.cfi_restore 8
 154              		.cfi_def_cfa 2, 32
 155 00dc 83348100 		ld	s1,8(sp)
 156              		.cfi_restore 9
 157 00e0 13010102 		addi	sp,sp,32
 158              		.cfi_def_cfa_offset 0
 159 00e4 67800000 		jr	ra
 160              	.L14:
 161              		.cfi_restore_state
  19:src/KConsole.cpp ****     }
 162              		.loc 1 19 9 is_stmt 1
  19:src/KConsole.cpp ****     }
 163              		.loc 1 19 21 is_stmt 0
 164 00e8 97070000 		lla	a5,.LANCHOR0
 164      93870700 
 165 00f0 23B8A700 		sd	a0,16(a5)
  19:src/KConsole.cpp ****     }
 166              		.loc 1 19 14
 167 00f4 23B4A700 		sd	a0,8(a5)
 168 00f8 6FF0DFFD 		j	.L10
 169              		.cfi_endproc
 170              	.LFE21:
 172              		.align	2
 173              		.globl	_ZN8KConsole7getCharEv
 175              	_ZN8KConsole7getCharEv:
 176              	.LFB22:
  29:src/KConsole.cpp ****     if(head == 0)
 177              		.loc 1 29 1 is_stmt 1
 178              		.cfi_startproc
 179 00fc 130101FE 		addi	sp,sp,-32
 180              		.cfi_def_cfa_offset 32
 181 0100 233C1100 		sd	ra,24(sp)
 182 0104 23388100 		sd	s0,16(sp)
 183 0108 23349100 		sd	s1,8(sp)
 184              		.cfi_offset 1, -8
 185              		.cfi_offset 8, -16
 186              		.cfi_offset 9, -24
 187 010c 13040102 		addi	s0,sp,32
 188              		.cfi_def_cfa 8, 0
  30:src/KConsole.cpp ****         return 0;
 189              		.loc 1 30 5
  30:src/KConsole.cpp ****         return 0;
 190              		.loc 1 30 13 is_stmt 0
 191 0110 17050000 		ld	a0,.LANCHOR0+8
 191      03350500 
  30:src/KConsole.cpp ****         return 0;
 192              		.loc 1 30 5
 193 0118 63020504 		beqz	a0,.L18
  33:src/KConsole.cpp ****     head = head->next;
 194              		.loc 1 33 5 is_stmt 1
 195              	.LVL9:
GAS LISTING /tmp/ccldldcq.s 			page 6


  34:src/KConsole.cpp ****     if(head == 0)
 196              		.loc 1 34 5
  34:src/KConsole.cpp ****     if(head == 0)
 197              		.loc 1 34 18 is_stmt 0
 198 011c 83370500 		ld	a5,0(a0)
  34:src/KConsole.cpp ****     if(head == 0)
 199              		.loc 1 34 10
 200 0120 17070000 		sd	a5,.LANCHOR0+8,a4
 200      2330F700 
  35:src/KConsole.cpp ****         tail = 0;
 201              		.loc 1 35 5 is_stmt 1
 202 0128 63840702 		beqz	a5,.L20
 203              	.L17:
  38:src/KConsole.cpp ****     kfree(ret);
 204              		.loc 1 38 5
  38:src/KConsole.cpp ****     kfree(ret);
 205              		.loc 1 38 10 is_stmt 0
 206 012c 83448500 		lbu	s1,8(a0)
 207              	.LVL10:
  39:src/KConsole.cpp ****     return c;
 208              		.loc 1 39 5 is_stmt 1
  39:src/KConsole.cpp ****     return c;
 209              		.loc 1 39 10 is_stmt 0
 210 0130 97000000 		call	_Z5kfreePv@plt
 210      E7800000 
 211              	.LVL11:
  40:src/KConsole.cpp **** }
 212              		.loc 1 40 5 is_stmt 1
 213              	.L16:
  41:src/KConsole.cpp **** 
 214              		.loc 1 41 1 is_stmt 0
 215 0138 13850400 		mv	a0,s1
 216 013c 83308101 		ld	ra,24(sp)
 217              		.cfi_remember_state
 218              		.cfi_restore 1
 219 0140 03340101 		ld	s0,16(sp)
 220              		.cfi_restore 8
 221              		.cfi_def_cfa 2, 32
 222 0144 83348100 		ld	s1,8(sp)
 223              		.cfi_restore 9
 224 0148 13010102 		addi	sp,sp,32
 225              		.cfi_def_cfa_offset 0
 226 014c 67800000 		jr	ra
 227              	.LVL12:
 228              	.L20:
 229              		.cfi_restore_state
  36:src/KConsole.cpp **** 
 230              		.loc 1 36 9 is_stmt 1
  36:src/KConsole.cpp **** 
 231              		.loc 1 36 14 is_stmt 0
 232 0150 97070000 		sd	zero,.LANCHOR0+16,a5
 232      23B00700 
 233 0158 6FF05FFD 		j	.L17
 234              	.LVL13:
 235              	.L18:
  31:src/KConsole.cpp **** 
 236              		.loc 1 31 16
GAS LISTING /tmp/ccldldcq.s 			page 7


 237 015c 93040000 		li	s1,0
 238 0160 6FF09FFD 		j	.L16
 239              		.cfi_endproc
 240              	.LFE22:
 242              		.align	2
 243              		.globl	_ZN8KConsole12putCharacterEc
 245              	_ZN8KConsole12putCharacterEc:
 246              	.LFB23:
  44:src/KConsole.cpp ****     putChar(c);
 247              		.loc 1 44 1 is_stmt 1
 248              		.cfi_startproc
 249              	.LVL14:
 250 0164 130101FF 		addi	sp,sp,-16
 251              		.cfi_def_cfa_offset 16
 252 0168 23341100 		sd	ra,8(sp)
 253 016c 23308100 		sd	s0,0(sp)
 254              		.cfi_offset 1, -8
 255              		.cfi_offset 8, -16
 256 0170 13040101 		addi	s0,sp,16
 257              		.cfi_def_cfa 8, 0
  45:src/KConsole.cpp ****     hasCharacters->signal();
 258              		.loc 1 45 5
  45:src/KConsole.cpp ****     hasCharacters->signal();
 259              		.loc 1 45 12 is_stmt 0
 260 0174 97000000 		call	_ZN8KConsole7putCharEc
 260      E7800000 
 261              	.LVL15:
  46:src/KConsole.cpp **** }
 262              		.loc 1 46 5 is_stmt 1
  46:src/KConsole.cpp **** }
 263              		.loc 1 46 26 is_stmt 0
 264 017c 17050000 		ld	a0,.LANCHOR0
 264      03350500 
 265 0184 97000000 		call	_ZN10KSemaphore6signalEv@plt
 265      E7800000 
 266              	.LVL16:
  47:src/KConsole.cpp **** 
 267              		.loc 1 47 1
 268 018c 83308100 		ld	ra,8(sp)
 269              		.cfi_restore 1
 270 0190 03340100 		ld	s0,0(sp)
 271              		.cfi_restore 8
 272              		.cfi_def_cfa 2, 16
 273 0194 13010101 		addi	sp,sp,16
 274              		.cfi_def_cfa_offset 0
 275 0198 67800000 		jr	ra
 276              		.cfi_endproc
 277              	.LFE23:
 279              		.align	2
 280              		.globl	_ZN8KConsole12getCharacterEv
 282              	_ZN8KConsole12getCharacterEv:
 283              	.LFB24:
  50:src/KConsole.cpp ****     KConsole::hasCharacters->wait();
 284              		.loc 1 50 1 is_stmt 1
 285              		.cfi_startproc
 286 019c 130101FF 		addi	sp,sp,-16
 287              		.cfi_def_cfa_offset 16
GAS LISTING /tmp/ccldldcq.s 			page 8


 288 01a0 23341100 		sd	ra,8(sp)
 289 01a4 23308100 		sd	s0,0(sp)
 290              		.cfi_offset 1, -8
 291              		.cfi_offset 8, -16
 292 01a8 13040101 		addi	s0,sp,16
 293              		.cfi_def_cfa 8, 0
  51:src/KConsole.cpp ****     return getChar();
 294              		.loc 1 51 5
  51:src/KConsole.cpp ****     return getChar();
 295              		.loc 1 51 34 is_stmt 0
 296 01ac 17050000 		ld	a0,.LANCHOR0
 296      03350500 
 297 01b4 97000000 		call	_ZN10KSemaphore4waitEv@plt
 297      E7800000 
 298              	.LVL17:
  52:src/KConsole.cpp **** }
 299              		.loc 1 52 5 is_stmt 1
  52:src/KConsole.cpp **** }
 300              		.loc 1 52 19 is_stmt 0
 301 01bc 97000000 		call	_ZN8KConsole7getCharEv
 301      E7800000 
 302              	.LVL18:
  53:src/KConsole.cpp **** 
 303              		.loc 1 53 1
 304 01c4 83308100 		ld	ra,8(sp)
 305              		.cfi_restore 1
 306 01c8 03340100 		ld	s0,0(sp)
 307              		.cfi_restore 8
 308              		.cfi_def_cfa 2, 16
 309 01cc 13010101 		addi	sp,sp,16
 310              		.cfi_def_cfa_offset 0
 311 01d0 67800000 		jr	ra
 312              		.cfi_endproc
 313              	.LFE24:
 315              		.align	2
 316              		.globl	_ZN8KConsole10initializeEv
 318              	_ZN8KConsole10initializeEv:
 319              	.LFB25:
  55:src/KConsole.cpp ****     hasCharacters = new KSemaphore(0);
 320              		.loc 1 55 29 is_stmt 1
 321              		.cfi_startproc
 322              		.cfi_personality 0x9b,DW.ref.__gxx_personality_v0
 323              		.cfi_lsda 0x1b,.LLSDA25
 324 01d4 130101FE 		addi	sp,sp,-32
 325              		.cfi_def_cfa_offset 32
 326 01d8 233C1100 		sd	ra,24(sp)
 327 01dc 23388100 		sd	s0,16(sp)
 328 01e0 23349100 		sd	s1,8(sp)
 329 01e4 23302101 		sd	s2,0(sp)
 330              		.cfi_offset 1, -8
 331              		.cfi_offset 8, -16
 332              		.cfi_offset 9, -24
 333              		.cfi_offset 18, -32
 334 01e8 13040102 		addi	s0,sp,32
 335              		.cfi_def_cfa 8, 0
  56:src/KConsole.cpp **** 
 336              		.loc 1 56 5
GAS LISTING /tmp/ccldldcq.s 			page 9


  56:src/KConsole.cpp **** 
 337              		.loc 1 56 37 is_stmt 0
 338 01ec 13058001 		li	a0,24
 339              	.LEHB3:
 340 01f0 97000000 		call	_ZN10KSemaphorenwEm@plt
 340      E7800000 
 341              	.LVL19:
 342              	.LEHE3:
 343 01f8 93040500 		mv	s1,a0
 344 01fc 93050000 		li	a1,0
 345              	.LEHB4:
 346 0200 97000000 		call	_ZN10KSemaphoreC1Ei@plt
 346      E7800000 
 347              	.LVL20:
 348              	.LEHE4:
  56:src/KConsole.cpp **** 
 349              		.loc 1 56 19 discriminator 2
 350 0208 97070000 		sd	s1,.LANCHOR0,a5
 350      23B09700 
 351              		.loc 1 58 1 discriminator 2
 352 0210 83308101 		ld	ra,24(sp)
 353              		.cfi_remember_state
 354              		.cfi_restore 1
 355 0214 03340101 		ld	s0,16(sp)
 356              		.cfi_restore 8
 357              		.cfi_def_cfa 2, 32
 358 0218 83348100 		ld	s1,8(sp)
 359              		.cfi_restore 9
 360 021c 03390100 		ld	s2,0(sp)
 361              		.cfi_restore 18
 362 0220 13010102 		addi	sp,sp,32
 363              		.cfi_def_cfa_offset 0
 364 0224 67800000 		jr	ra
 365              	.L27:
 366              		.cfi_restore_state
 367 0228 13090500 		mv	s2,a0
  56:src/KConsole.cpp **** 
 368              		.loc 1 56 37
 369 022c 13850400 		mv	a0,s1
 370 0230 97000000 		call	_ZN10KSemaphoredlEPv@plt
 370      E7800000 
 371              	.LVL21:
 372 0238 13050900 		mv	a0,s2
 373              	.LEHB5:
 374 023c 97000000 		call	_Unwind_Resume@plt
 374      E7800000 
 375              	.LVL22:
 376              	.LEHE5:
 377              		.cfi_endproc
 378              	.LFE25:
 379              		.section	.gcc_except_table
 380              	.LLSDA25:
 381 002b FF       		.byte	0xff
 382 002c FF       		.byte	0xff
 383 002d 03       		.byte	0x3
 384 002e 27       		.byte	0x27
 385 002f 00000000 		.4byte	.LEHB3-.LFB25
GAS LISTING /tmp/ccldldcq.s 			page 10


 386 0033 00000000 		.4byte	.LEHE3-.LEHB3
 387 0037 00000000 		.4byte	0
 388 003b 00       		.byte	0
 389 003c 00000000 		.4byte	.LEHB4-.LFB25
 390 0040 00000000 		.4byte	.LEHE4-.LEHB4
 391 0044 00000000 		.4byte	.L27-.LFB25
 392 0048 00       		.byte	0
 393 0049 00000000 		.4byte	.LEHB5-.LFB25
 394 004d 00000000 		.4byte	.LEHE5-.LEHB5
 395 0051 00000000 		.4byte	0
 396 0055 00       		.byte	0
 397              		.text
 399              		.align	2
 401              	_GLOBAL__sub_I__ZN8KConsole4headE:
 402              	.LFB27:
 403              		.loc 1 58 1 is_stmt 1
 404              		.cfi_startproc
 405 0244 130101FF 		addi	sp,sp,-16
 406              		.cfi_def_cfa_offset 16
 407 0248 23341100 		sd	ra,8(sp)
 408 024c 23308100 		sd	s0,0(sp)
 409              		.cfi_offset 1, -8
 410              		.cfi_offset 8, -16
 411 0250 13040101 		addi	s0,sp,16
 412              		.cfi_def_cfa 8, 0
 413              		.loc 1 58 1 is_stmt 0
 414 0254 B7050100 		li	a1,65536
 415 0258 9385F5FF 		addi	a1,a1,-1
 416 025c 13051000 		li	a0,1
 417 0260 97000000 		call	_Z41__static_initialization_and_destruction_0ii
 417      E7800000 
 418              	.LVL23:
 419 0268 83308100 		ld	ra,8(sp)
 420              		.cfi_restore 1
 421 026c 03340100 		ld	s0,0(sp)
 422              		.cfi_restore 8
 423              		.cfi_def_cfa 2, 16
 424 0270 13010101 		addi	sp,sp,16
 425              		.cfi_def_cfa_offset 0
 426 0274 67800000 		jr	ra
 427              		.cfi_endproc
 428              	.LFE27:
 430              		.section	.init_array,"aw"
 431              		.align	3
 432 0000 00000000 		.dword	_GLOBAL__sub_I__ZN8KConsole4headE
 432      00000000 
 433              		.globl	_ZN8KConsole13hasCharactersE
 434              		.globl	_ZN8KConsole4tailE
 435              		.globl	_ZN8KConsole4headE
 436              		.bss
 437              		.align	3
 438              		.set	.LANCHOR0,. + 0
 441              	_ZN8KConsole13hasCharactersE:
 442 0000 00000000 		.zero	8
 442      00000000 
 445              	_ZN8KConsole4headE:
 446 0008 00000000 		.zero	8
GAS LISTING /tmp/ccldldcq.s 			page 11


 446      00000000 
 449              	_ZN8KConsole4tailE:
 450 0010 00000000 		.zero	8
 450      00000000 
 451              		.text
 452              	.Letext0:
 453              		.file 2 "src/../h/../lib/hw.h"
 454              		.file 3 "src/../h/PCB.hpp"
 455              		.file 4 "src/../h/KSemaphore.hpp"
 456              		.file 5 "src/../h/KConsole.hpp"
 457              		.file 6 "src/../h/MemoryAllocator.hpp"
 2879              		.align	3
 2882              	DW.ref.__gxx_personality_v0:
 2883 0000 00000000 		.dword	__gxx_personality_v0
 2883      00000000 
 2884              		.ident	"GCC: (Ubuntu 9.3.0-17ubuntu1~20.04) 9.3.0"
 2885              		.section	.note.GNU-stack,"",@progbits
GAS LISTING /tmp/ccldldcq.s 			page 12


DEFINED SYMBOLS
                            *ABS*:0000000000000000 KConsole.cpp
     /tmp/ccldldcq.s:8      .text:0000000000000000 _Z41__static_initialization_and_destruction_0ii
     /tmp/ccldldcq.s:12     .text:0000000000000000 .L0 
     /tmp/ccldldcq.s:2882   .data.rel.local.DW.ref.__gxx_personality_v0:0000000000000000 DW.ref.__gxx_personality_v0
     /tmp/ccldldcq.s:16     .text:0000000000000000 .L0 
     /tmp/ccldldcq.s:22     .text:000000000000000c .L0 
     /tmp/ccldldcq.s:26     .text:0000000000000018 .L0 
     /tmp/ccldldcq.s:27     .text:000000000000001c .L0 
     /tmp/ccldldcq.s:32     .text:000000000000002c .L0 
     /tmp/ccldldcq.s:33     .text:000000000000002c .L0 
     /tmp/ccldldcq.s:34     .text:000000000000002c .L0 
     /tmp/ccldldcq.s:35     .text:000000000000002c .L0 
     /tmp/ccldldcq.s:37     .text:0000000000000030 .L0 
     /tmp/ccldldcq.s:39     .text:0000000000000030 .L0 
     /tmp/ccldldcq.s:52     .text:000000000000004c .L0 
     /tmp/ccldldcq.s:54     .text:0000000000000054 .L0 
     /tmp/ccldldcq.s:55     .text:0000000000000058 .L0 
     /tmp/ccldldcq.s:56     .text:0000000000000058 .L0 
     /tmp/ccldldcq.s:58     .text:000000000000005c .L0 
     /tmp/ccldldcq.s:59     .text:000000000000005c .L0 
     /tmp/ccldldcq.s:61     .text:0000000000000060 .L0 
     /tmp/ccldldcq.s:63     .text:0000000000000064 .L0 
     /tmp/ccldldcq.s:65     .text:0000000000000068 .L0 
     /tmp/ccldldcq.s:68     .text:000000000000006c .L0 
     /tmp/ccldldcq.s:71     .text:0000000000000070 .L0 
     /tmp/ccldldcq.s:79     .text:0000000000000088 .L0 
     /tmp/ccldldcq.s:105    .text:0000000000000088 _ZN8KConsole7putCharEc
     /tmp/ccldldcq.s:108    .text:0000000000000088 .L0 
     /tmp/ccldldcq.s:110    .text:0000000000000088 .L0 
     /tmp/ccldldcq.s:111    .text:000000000000008c .L0 
     /tmp/ccldldcq.s:115    .text:0000000000000098 .L0 
     /tmp/ccldldcq.s:116    .text:0000000000000098 .L0 
     /tmp/ccldldcq.s:117    .text:0000000000000098 .L0 
     /tmp/ccldldcq.s:119    .text:000000000000009c .L0 
     /tmp/ccldldcq.s:122    .text:00000000000000a0 .L0 
     /tmp/ccldldcq.s:123    .text:00000000000000a0 .L0 
     /tmp/ccldldcq.s:128    .text:00000000000000ac .L0 
     /tmp/ccldldcq.s:129    .text:00000000000000ac .L0 
     /tmp/ccldldcq.s:131    .text:00000000000000b0 .L0 
     /tmp/ccldldcq.s:132    .text:00000000000000b0 .L0 
     /tmp/ccldldcq.s:134    .text:00000000000000b4 .L0 
     /tmp/ccldldcq.s:135    .text:00000000000000b4 .L0 
     /tmp/ccldldcq.s:137    .text:00000000000000bc .L0 
     /tmp/ccldldcq.s:139    .text:00000000000000c0 .L0 
     /tmp/ccldldcq.s:140    .text:00000000000000c0 .L0 
     /tmp/ccldldcq.s:143    .text:00000000000000cc .L0 
     /tmp/ccldldcq.s:145    .text:00000000000000d0 .L0 
     /tmp/ccldldcq.s:146    .text:00000000000000d0 .L0 
     /tmp/ccldldcq.s:149    .text:00000000000000d4 .L0 
     /tmp/ccldldcq.s:150    .text:00000000000000d8 .L0 
     /tmp/ccldldcq.s:151    .text:00000000000000d8 .L0 
     /tmp/ccldldcq.s:153    .text:00000000000000dc .L0 
     /tmp/ccldldcq.s:154    .text:00000000000000dc .L0 
     /tmp/ccldldcq.s:156    .text:00000000000000e0 .L0 
     /tmp/ccldldcq.s:158    .text:00000000000000e4 .L0 
     /tmp/ccldldcq.s:161    .text:00000000000000e8 .L0 
GAS LISTING /tmp/ccldldcq.s 			page 13


     /tmp/ccldldcq.s:163    .text:00000000000000e8 .L0 
     /tmp/ccldldcq.s:164    .text:00000000000000e8 .L0 
     /tmp/ccldldcq.s:167    .text:00000000000000f4 .L0 
     /tmp/ccldldcq.s:169    .text:00000000000000fc .L0 
     /tmp/ccldldcq.s:175    .text:00000000000000fc _ZN8KConsole7getCharEv
     /tmp/ccldldcq.s:178    .text:00000000000000fc .L0 
     /tmp/ccldldcq.s:179    .text:00000000000000fc .L0 
     /tmp/ccldldcq.s:180    .text:0000000000000100 .L0 
     /tmp/ccldldcq.s:184    .text:000000000000010c .L0 
     /tmp/ccldldcq.s:185    .text:000000000000010c .L0 
     /tmp/ccldldcq.s:186    .text:000000000000010c .L0 
     /tmp/ccldldcq.s:188    .text:0000000000000110 .L0 
     /tmp/ccldldcq.s:190    .text:0000000000000110 .L0 
     /tmp/ccldldcq.s:191    .text:0000000000000110 .L0 
     /tmp/ccldldcq.s:193    .text:0000000000000118 .L0 
     /tmp/ccldldcq.s:196    .text:000000000000011c .L0 
     /tmp/ccldldcq.s:197    .text:000000000000011c .L0 
     /tmp/ccldldcq.s:198    .text:000000000000011c .L0 
     /tmp/ccldldcq.s:200    .text:0000000000000120 .L0 
     /tmp/ccldldcq.s:202    .text:0000000000000128 .L0 
     /tmp/ccldldcq.s:205    .text:000000000000012c .L0 
     /tmp/ccldldcq.s:206    .text:000000000000012c .L0 
     /tmp/ccldldcq.s:209    .text:0000000000000130 .L0 
     /tmp/ccldldcq.s:210    .text:0000000000000130 .L0 
     /tmp/ccldldcq.s:214    .text:0000000000000138 .L0 
     /tmp/ccldldcq.s:215    .text:0000000000000138 .L0 
     /tmp/ccldldcq.s:217    .text:0000000000000140 .L0 
     /tmp/ccldldcq.s:218    .text:0000000000000140 .L0 
     /tmp/ccldldcq.s:220    .text:0000000000000144 .L0 
     /tmp/ccldldcq.s:221    .text:0000000000000144 .L0 
     /tmp/ccldldcq.s:223    .text:0000000000000148 .L0 
     /tmp/ccldldcq.s:225    .text:000000000000014c .L0 
     /tmp/ccldldcq.s:229    .text:0000000000000150 .L0 
     /tmp/ccldldcq.s:231    .text:0000000000000150 .L0 
     /tmp/ccldldcq.s:232    .text:0000000000000150 .L0 
     /tmp/ccldldcq.s:237    .text:000000000000015c .L0 
     /tmp/ccldldcq.s:239    .text:0000000000000164 .L0 
     /tmp/ccldldcq.s:245    .text:0000000000000164 _ZN8KConsole12putCharacterEc
     /tmp/ccldldcq.s:248    .text:0000000000000164 .L0 
     /tmp/ccldldcq.s:250    .text:0000000000000164 .L0 
     /tmp/ccldldcq.s:251    .text:0000000000000168 .L0 
     /tmp/ccldldcq.s:254    .text:0000000000000170 .L0 
     /tmp/ccldldcq.s:255    .text:0000000000000170 .L0 
     /tmp/ccldldcq.s:257    .text:0000000000000174 .L0 
     /tmp/ccldldcq.s:259    .text:0000000000000174 .L0 
     /tmp/ccldldcq.s:260    .text:0000000000000174 .L0 
     /tmp/ccldldcq.s:263    .text:000000000000017c .L0 
     /tmp/ccldldcq.s:264    .text:000000000000017c .L0 
     /tmp/ccldldcq.s:268    .text:000000000000018c .L0 
     /tmp/ccldldcq.s:269    .text:0000000000000190 .L0 
     /tmp/ccldldcq.s:271    .text:0000000000000194 .L0 
     /tmp/ccldldcq.s:272    .text:0000000000000194 .L0 
     /tmp/ccldldcq.s:274    .text:0000000000000198 .L0 
     /tmp/ccldldcq.s:276    .text:000000000000019c .L0 
     /tmp/ccldldcq.s:282    .text:000000000000019c _ZN8KConsole12getCharacterEv
     /tmp/ccldldcq.s:285    .text:000000000000019c .L0 
     /tmp/ccldldcq.s:286    .text:000000000000019c .L0 
GAS LISTING /tmp/ccldldcq.s 			page 14


     /tmp/ccldldcq.s:287    .text:00000000000001a0 .L0 
     /tmp/ccldldcq.s:290    .text:00000000000001a8 .L0 
     /tmp/ccldldcq.s:291    .text:00000000000001a8 .L0 
     /tmp/ccldldcq.s:293    .text:00000000000001ac .L0 
     /tmp/ccldldcq.s:295    .text:00000000000001ac .L0 
     /tmp/ccldldcq.s:296    .text:00000000000001ac .L0 
     /tmp/ccldldcq.s:300    .text:00000000000001bc .L0 
     /tmp/ccldldcq.s:301    .text:00000000000001bc .L0 
     /tmp/ccldldcq.s:304    .text:00000000000001c4 .L0 
     /tmp/ccldldcq.s:305    .text:00000000000001c8 .L0 
     /tmp/ccldldcq.s:307    .text:00000000000001cc .L0 
     /tmp/ccldldcq.s:308    .text:00000000000001cc .L0 
     /tmp/ccldldcq.s:310    .text:00000000000001d0 .L0 
     /tmp/ccldldcq.s:312    .text:00000000000001d4 .L0 
     /tmp/ccldldcq.s:318    .text:00000000000001d4 _ZN8KConsole10initializeEv
     /tmp/ccldldcq.s:321    .text:00000000000001d4 .L0 
     /tmp/ccldldcq.s:324    .text:00000000000001d4 .L0 
     /tmp/ccldldcq.s:325    .text:00000000000001d8 .L0 
     /tmp/ccldldcq.s:330    .text:00000000000001e8 .L0 
     /tmp/ccldldcq.s:331    .text:00000000000001e8 .L0 
     /tmp/ccldldcq.s:332    .text:00000000000001e8 .L0 
     /tmp/ccldldcq.s:333    .text:00000000000001e8 .L0 
     /tmp/ccldldcq.s:335    .text:00000000000001ec .L0 
     /tmp/ccldldcq.s:337    .text:00000000000001ec .L0 
     /tmp/ccldldcq.s:338    .text:00000000000001ec .L0 
     /tmp/ccldldcq.s:350    .text:0000000000000208 .L0 
     /tmp/ccldldcq.s:352    .text:0000000000000210 .L0 
     /tmp/ccldldcq.s:353    .text:0000000000000214 .L0 
     /tmp/ccldldcq.s:354    .text:0000000000000214 .L0 
     /tmp/ccldldcq.s:356    .text:0000000000000218 .L0 
     /tmp/ccldldcq.s:357    .text:0000000000000218 .L0 
     /tmp/ccldldcq.s:359    .text:000000000000021c .L0 
     /tmp/ccldldcq.s:361    .text:0000000000000220 .L0 
     /tmp/ccldldcq.s:363    .text:0000000000000224 .L0 
     /tmp/ccldldcq.s:366    .text:0000000000000228 .L0 
     /tmp/ccldldcq.s:369    .text:000000000000022c .L0 
     /tmp/ccldldcq.s:377    .text:0000000000000244 .L0 
     /tmp/ccldldcq.s:401    .text:0000000000000244 _GLOBAL__sub_I__ZN8KConsole4headE
     /tmp/ccldldcq.s:404    .text:0000000000000244 .L0 
     /tmp/ccldldcq.s:405    .text:0000000000000244 .L0 
     /tmp/ccldldcq.s:406    .text:0000000000000248 .L0 
     /tmp/ccldldcq.s:409    .text:0000000000000250 .L0 
     /tmp/ccldldcq.s:410    .text:0000000000000250 .L0 
     /tmp/ccldldcq.s:412    .text:0000000000000254 .L0 
     /tmp/ccldldcq.s:414    .text:0000000000000254 .L0 
     /tmp/ccldldcq.s:420    .text:000000000000026c .L0 
     /tmp/ccldldcq.s:422    .text:0000000000000270 .L0 
     /tmp/ccldldcq.s:423    .text:0000000000000270 .L0 
     /tmp/ccldldcq.s:425    .text:0000000000000274 .L0 
     /tmp/ccldldcq.s:427    .text:0000000000000278 .L0 
     /tmp/ccldldcq.s:441    .bss:0000000000000000 _ZN8KConsole13hasCharactersE
     /tmp/ccldldcq.s:449    .bss:0000000000000010 _ZN8KConsole4tailE
     /tmp/ccldldcq.s:445    .bss:0000000000000008 _ZN8KConsole4headE
     /tmp/ccldldcq.s:438    .bss:0000000000000000 .LANCHOR0
     /tmp/ccldldcq.s:458    .text:0000000000000278 .L0 
     /tmp/ccldldcq.s:52     .text:000000000000004c .L0 
     /tmp/ccldldcq.s:135    .text:00000000000000b4 .L0 
GAS LISTING /tmp/ccldldcq.s 			page 15


     /tmp/ccldldcq.s:140    .text:00000000000000c0 .L0 
     /tmp/ccldldcq.s:164    .text:00000000000000e8 .L0 
     /tmp/ccldldcq.s:191    .text:0000000000000110 .L0 
     /tmp/ccldldcq.s:200    .text:0000000000000120 .L0 
     /tmp/ccldldcq.s:232    .text:0000000000000150 .L0 
     /tmp/ccldldcq.s:264    .text:000000000000017c .L0 
     /tmp/ccldldcq.s:296    .text:00000000000001ac .L0 
     /tmp/ccldldcq.s:350    .text:0000000000000208 .L0 
     /tmp/ccldldcq.s:20     .text:000000000000000c .L9
     /tmp/ccldldcq.s:18     .text:0000000000000008 .L6
     /tmp/ccldldcq.s:160    .text:00000000000000e8 .L14
     /tmp/ccldldcq.s:147    .text:00000000000000d4 .L10
     /tmp/ccldldcq.s:235    .text:000000000000015c .L18
     /tmp/ccldldcq.s:228    .text:0000000000000150 .L20
     /tmp/ccldldcq.s:203    .text:000000000000012c .L17
     /tmp/ccldldcq.s:213    .text:0000000000000138 .L16
     /tmp/ccldldcq.s:41     .text:0000000000000034 .LEHB0
     /tmp/ccldldcq.s:9      .text:0000000000000000 .LFB26
     /tmp/ccldldcq.s:44     .text:000000000000003c .LEHE0
     /tmp/ccldldcq.s:47     .text:0000000000000044 .LEHB1
     /tmp/ccldldcq.s:50     .text:000000000000004c .LEHE1
     /tmp/ccldldcq.s:67     .text:000000000000006c .L4
     /tmp/ccldldcq.s:75     .text:0000000000000080 .LEHB2
     /tmp/ccldldcq.s:78     .text:0000000000000088 .LEHE2
     /tmp/ccldldcq.s:339    .text:00000000000001f0 .LEHB3
     /tmp/ccldldcq.s:319    .text:00000000000001d4 .LFB25
     /tmp/ccldldcq.s:342    .text:00000000000001f8 .LEHE3
     /tmp/ccldldcq.s:345    .text:0000000000000200 .LEHB4
     /tmp/ccldldcq.s:348    .text:0000000000000208 .LEHE4
     /tmp/ccldldcq.s:365    .text:0000000000000228 .L27
     /tmp/ccldldcq.s:373    .text:000000000000023c .LEHB5
     /tmp/ccldldcq.s:376    .text:0000000000000244 .LEHE5
     /tmp/ccldldcq.s:1622   .debug_abbrev:0000000000000000 .Ldebug_abbrev0
     /tmp/ccldldcq.s:2622   .debug_str:00000000000000ea .LASF128
     /tmp/ccldldcq.s:2832   .debug_str:000000000000078c .LASF129
     /tmp/ccldldcq.s:2830   .debug_str:0000000000000769 .LASF130
     /tmp/ccldldcq.s:5      .text:0000000000000000 .Ltext0
     /tmp/ccldldcq.s:452    .text:0000000000000278 .Letext0
     /tmp/ccldldcq.s:2594   .debug_line:0000000000000000 .Ldebug_line0
     /tmp/ccldldcq.s:2688   .debug_str:0000000000000351 .LASF0
     /tmp/ccldldcq.s:2710   .debug_str:000000000000040a .LASF1
     /tmp/ccldldcq.s:2768   .debug_str:00000000000005b3 .LASF2
     /tmp/ccldldcq.s:2780   .debug_str:0000000000000613 .LASF4
     /tmp/ccldldcq.s:2696   .debug_str:0000000000000388 .LASF3
     /tmp/ccldldcq.s:2608   .debug_str:0000000000000050 .LASF5
     /tmp/ccldldcq.s:2758   .debug_str:0000000000000569 .LASF6
     /tmp/ccldldcq.s:2752   .debug_str:0000000000000537 .LASF7
     /tmp/ccldldcq.s:2702   .debug_str:00000000000003c9 .LASF8
     /tmp/ccldldcq.s:2674   .debug_str:00000000000002ec .LASF9
     /tmp/ccldldcq.s:2680   .debug_str:0000000000000328 .LASF10
     /tmp/ccldldcq.s:2634   .debug_str:0000000000000206 .LASF11
     /tmp/ccldldcq.s:2668   .debug_str:00000000000002ca .LASF12
     /tmp/ccldldcq.s:2646   .debug_str:0000000000000240 .LASF13
     /tmp/ccldldcq.s:2632   .debug_str:00000000000001f6 .LASF14
     /tmp/ccldldcq.s:2808   .debug_str:00000000000006e9 .LASF15
     /tmp/ccldldcq.s:2662   .debug_str:000000000000029b .LASF16
     /tmp/ccldldcq.s:2798   .debug_str:0000000000000697 .LASF17
GAS LISTING /tmp/ccldldcq.s 			page 16


     /tmp/ccldldcq.s:2822   .debug_str:0000000000000741 .LASF131
     /tmp/ccldldcq.s:2628   .debug_str:00000000000001d3 .LASF18
     /tmp/ccldldcq.s:2790   .debug_str:000000000000065f .LASF19
     /tmp/ccldldcq.s:2642   .debug_str:000000000000022c .LASF20
     /tmp/ccldldcq.s:2620   .debug_str:00000000000000e1 .LASF21
     /tmp/ccldldcq.s:2754   .debug_str:000000000000054a .LASF22
     /tmp/ccldldcq.s:2640   .debug_str:0000000000000223 .LASF23
     /tmp/ccldldcq.s:2816   .debug_str:0000000000000717 .LASF68
     /tmp/ccldldcq.s:2684   .debug_str:0000000000000345 .LASF24
     /tmp/ccldldcq.s:2836   .debug_str:00000000000007a5 .LASF132
     /tmp/ccldldcq.s:2744   .debug_str:00000000000004fc .LASF133
     /tmp/ccldldcq.s:2708   .debug_str:0000000000000405 .LASF25
     /tmp/ccldldcq.s:2864   .debug_str:0000000000000864 .LASF27
     /tmp/ccldldcq.s:2860   .debug_str:0000000000000848 .LASF26
     /tmp/ccldldcq.s:2826   .debug_str:000000000000074f .LASF28
     /tmp/ccldldcq.s:2654   .debug_str:0000000000000273 .LASF52
     /tmp/ccldldcq.s:2610   .debug_str:0000000000000057 .LASF54
     /tmp/ccldldcq.s:2714   .debug_str:0000000000000426 .LASF34
     /tmp/ccldldcq.s:2746   .debug_str:0000000000000501 .LASF36
     /tmp/ccldldcq.s:2824   .debug_str:0000000000000747 .LASF29
     /tmp/ccldldcq.s:2846   .debug_str:00000000000007f8 .LASF30
     /tmp/ccldldcq.s:2786   .debug_str:0000000000000645 .LASF31
     /tmp/ccldldcq.s:2716   .debug_str:000000000000042c .LASF38
     /tmp/ccldldcq.s:2718   .debug_str:0000000000000439 .LASF40
     /tmp/ccldldcq.s:2870   .debug_str:000000000000088e .LASF32
     /tmp/ccldldcq.s:2664   .debug_str:00000000000002b1 .LASF33
     /tmp/ccldldcq.s:2604   .debug_str:0000000000000038 .LASF35
     /tmp/ccldldcq.s:2692   .debug_str:0000000000000373 .LASF37
     /tmp/ccldldcq.s:2788   .debug_str:0000000000000656 .LASF39
     /tmp/ccldldcq.s:2728   .debug_str:000000000000048c .LASF41
     /tmp/ccldldcq.s:2774   .debug_str:00000000000005d9 .LASF42
     /tmp/ccldldcq.s:2804   .debug_str:00000000000006c8 .LASF43
     /tmp/ccldldcq.s:2730   .debug_str:000000000000049f .LASF44
     /tmp/ccldldcq.s:2600   .debug_str:0000000000000019 .LASF45
     /tmp/ccldldcq.s:2852   .debug_str:0000000000000812 .LASF46
     /tmp/ccldldcq.s:2750   .debug_str:000000000000051d .LASF47
     /tmp/ccldldcq.s:2796   .debug_str:0000000000000689 .LASF48
     /tmp/ccldldcq.s:2760   .debug_str:0000000000000570 .LASF49
     /tmp/ccldldcq.s:2652   .debug_str:0000000000000263 .LASF50
     /tmp/ccldldcq.s:2854   .debug_str:0000000000000821 .LASF51
     /tmp/ccldldcq.s:2698   .debug_str:000000000000039a .LASF56
     /tmp/ccldldcq.s:2794   .debug_str:000000000000067e .LASF53
     /tmp/ccldldcq.s:2862   .debug_str:000000000000084e .LASF55
     /tmp/ccldldcq.s:2784   .debug_str:000000000000063d .LASF57
     /tmp/ccldldcq.s:2828   .debug_str:000000000000075f .LASF58
     /tmp/ccldldcq.s:2748   .debug_str:0000000000000511 .LASF59
     /tmp/ccldldcq.s:2650   .debug_str:0000000000000255 .LASF60
     /tmp/ccldldcq.s:2614   .debug_str:0000000000000085 .LASF62
     /tmp/ccldldcq.s:2690   .debug_str:000000000000035e .LASF61
     /tmp/ccldldcq.s:2626   .debug_str:00000000000001a7 .LASF63
     /tmp/ccldldcq.s:2850   .debug_str:000000000000080b .LASF134
     /tmp/ccldldcq.s:2624   .debug_str:0000000000000196 .LASF135
     /tmp/ccldldcq.s:2602   .debug_str:0000000000000033 .LASF64
     /tmp/ccldldcq.s:2838   .debug_str:00000000000007bd .LASF65
     /tmp/ccldldcq.s:2722   .debug_str:000000000000046b .LASF66
     /tmp/ccldldcq.s:2658   .debug_str:0000000000000281 .LASF67
     /tmp/ccldldcq.s:2834   .debug_str:000000000000079d .LASF69
GAS LISTING /tmp/ccldldcq.s 			page 17


     /tmp/ccldldcq.s:2618   .debug_str:00000000000000d7 .LASF70
     /tmp/ccldldcq.s:2818   .debug_str:000000000000071f .LASF71
     /tmp/ccldldcq.s:2724   .debug_str:0000000000000473 .LASF72
     /tmp/ccldldcq.s:2762   .debug_str:000000000000057c .LASF73
     /tmp/ccldldcq.s:2676   .debug_str:00000000000002fc .LASF74
     /tmp/ccldldcq.s:2770   .debug_str:00000000000005c1 .LASF75
     /tmp/ccldldcq.s:2660   .debug_str:0000000000000287 .LASF76
     /tmp/ccldldcq.s:2656   .debug_str:000000000000027c .LASF77
     /tmp/ccldldcq.s:2792   .debug_str:0000000000000667 .LASF78
     /tmp/ccldldcq.s:2812   .debug_str:0000000000000708 .LASF79
     /tmp/ccldldcq.s:2734   .debug_str:00000000000004b7 .LASF80
     /tmp/ccldldcq.s:2598   .debug_str:000000000000000d .LASF81
     /tmp/ccldldcq.s:2772   .debug_str:00000000000005cd .LASF82
     /tmp/ccldldcq.s:2726   .debug_str:0000000000000478 .LASF83
     /tmp/ccldldcq.s:2764   .debug_str:0000000000000587 .LASF84
     /tmp/ccldldcq.s:2638   .debug_str:000000000000021a .LASF85
     /tmp/ccldldcq.s:2644   .debug_str:0000000000000236 .LASF86
     /tmp/ccldldcq.s:2732   .debug_str:00000000000004ae .LASF87
     /tmp/ccldldcq.s:2778   .debug_str:0000000000000608 .LASF88
     /tmp/ccldldcq.s:2712   .debug_str:000000000000041d .LASF89
     /tmp/ccldldcq.s:2686   .debug_str:000000000000034b .LASF90
     /tmp/ccldldcq.s:2874   .debug_str:00000000000008a6 .LASF91
     /tmp/ccldldcq.s:2606   .debug_str:0000000000000048 .LASF92
     /tmp/ccldldcq.s:2720   .debug_str:0000000000000451 .LASF93
     /tmp/ccldldcq.s:2868   .debug_str:000000000000087e .LASF94
     /tmp/ccldldcq.s:2782   .debug_str:000000000000061a .LASF95
     /tmp/ccldldcq.s:2810   .debug_str:00000000000006f5 .LASF96
     /tmp/ccldldcq.s:2776   .debug_str:00000000000005e2 .LASF97
     /tmp/ccldldcq.s:2596   .debug_str:0000000000000000 .LASF98
     /tmp/ccldldcq.s:2706   .debug_str:00000000000003e1 .LASF99
     /tmp/ccldldcq.s:2738   .debug_str:00000000000004d5 .LASF100
     /tmp/ccldldcq.s:2648   .debug_str:0000000000000250 .LASF101
     /tmp/ccldldcq.s:2636   .debug_str:0000000000000215 .LASF102
     /tmp/ccldldcq.s:2704   .debug_str:00000000000003dc .LASF103
     /tmp/ccldldcq.s:2806   .debug_str:00000000000006e4 .LASF104
     /tmp/ccldldcq.s:2736   .debug_str:00000000000004d0 .LASF105
     /tmp/ccldldcq.s:2866   .debug_str:0000000000000870 .LASF106
     /tmp/ccldldcq.s:2814   .debug_str:000000000000070f .LASF107
     /tmp/ccldldcq.s:2766   .debug_str:000000000000059c .LASF108
     /tmp/ccldldcq.s:2694   .debug_str:0000000000000380 .LASF109
     /tmp/ccldldcq.s:2756   .debug_str:0000000000000552 .LASF110
     /tmp/ccldldcq.s:2666   .debug_str:00000000000002bd .LASF111
     /tmp/ccldldcq.s:2840   .debug_str:00000000000007c2 .LASF112
     /tmp/ccldldcq.s:2842   .debug_str:00000000000007df .LASF136
     /tmp/ccldldcq.s:2630   .debug_str:00000000000001d9 .LASF137
     /tmp/ccldldcq.s:2672   .debug_str:00000000000002df .LASF113
     /tmp/ccldldcq.s:2856   .debug_str:000000000000082c .LASF114
     /tmp/ccldldcq.s:2612   .debug_str:000000000000006a .LASF115
     /tmp/ccldldcq.s:2742   .debug_str:00000000000004e9 .LASF116
     /tmp/ccldldcq.s:2802   .debug_str:00000000000006b5 .LASF117
     /tmp/ccldldcq.s:2820   .debug_str:0000000000000724 .LASF118
     /tmp/ccldldcq.s:2700   .debug_str:00000000000003a7 .LASF119
     /tmp/ccldldcq.s:402    .text:0000000000000244 .LFB27
     /tmp/ccldldcq.s:428    .text:0000000000000278 .LFE27
     /tmp/ccldldcq.s:418    .text:0000000000000268 .LVL23
     /tmp/ccldldcq.s:2616   .debug_str:00000000000000ad .LASF120
     /tmp/ccldldcq.s:80     .text:0000000000000088 .LFE26
GAS LISTING /tmp/ccldldcq.s 			page 18


     /tmp/ccldldcq.s:2682   .debug_str:0000000000000336 .LASF121
     /tmp/ccldldcq.s:2507   .debug_loc:0000000000000000 .LLST0
     /tmp/ccldldcq.s:2740   .debug_str:00000000000004de .LASF122
     /tmp/ccldldcq.s:2521   .debug_loc:0000000000000039 .LLST1
     /tmp/ccldldcq.s:43     .text:000000000000003c .LVL2
     /tmp/ccldldcq.s:49     .text:000000000000004c .LVL3
     /tmp/ccldldcq.s:73     .text:000000000000007c .LVL4
     /tmp/ccldldcq.s:77     .text:0000000000000088 .LVL5
     /tmp/ccldldcq.s:378    .text:0000000000000244 .LFE25
     /tmp/ccldldcq.s:341    .text:00000000000001f8 .LVL19
     /tmp/ccldldcq.s:347    .text:0000000000000208 .LVL20
     /tmp/ccldldcq.s:371    .text:0000000000000238 .LVL21
     /tmp/ccldldcq.s:375    .text:0000000000000244 .LVL22
     /tmp/ccldldcq.s:283    .text:000000000000019c .LFB24
     /tmp/ccldldcq.s:313    .text:00000000000001d4 .LFE24
     /tmp/ccldldcq.s:298    .text:00000000000001bc .LVL17
     /tmp/ccldldcq.s:302    .text:00000000000001c4 .LVL18
     /tmp/ccldldcq.s:246    .text:0000000000000164 .LFB23
     /tmp/ccldldcq.s:277    .text:000000000000019c .LFE23
     /tmp/ccldldcq.s:2535   .debug_loc:0000000000000072 .LLST5
     /tmp/ccldldcq.s:261    .text:000000000000017c .LVL15
     /tmp/ccldldcq.s:266    .text:000000000000018c .LVL16
     /tmp/ccldldcq.s:176    .text:00000000000000fc .LFB22
     /tmp/ccldldcq.s:240    .text:0000000000000164 .LFE22
     /tmp/ccldldcq.s:2549   .debug_loc:00000000000000ab .LLST3
     /tmp/ccldldcq.s:2560   .debug_loc:00000000000000e1 .LLST4
     /tmp/ccldldcq.s:211    .text:0000000000000138 .LVL11
     /tmp/ccldldcq.s:106    .text:0000000000000088 .LFB21
     /tmp/ccldldcq.s:170    .text:00000000000000fc .LFE21
     /tmp/ccldldcq.s:2567   .debug_loc:0000000000000104 .LLST2
     /tmp/ccldldcq.s:2800   .debug_str:00000000000006ad .LASF123
     /tmp/ccldldcq.s:126    .text:00000000000000ac .LVL8
     /tmp/ccldldcq.s:2858   .debug_str:0000000000000839 .LASF138
     /tmp/ccldldcq.s:2678   .debug_str:0000000000000310 .LASF139
     /tmp/ccldldcq.s:2872   .debug_str:000000000000089b .LASF124
     /tmp/ccldldcq.s:2670   .debug_str:00000000000002d9 .LASF126
     /tmp/ccldldcq.s:2844   .debug_str:00000000000007ec .LASF125
     /tmp/ccldldcq.s:2848   .debug_str:0000000000000803 .LASF127
     /tmp/ccldldcq.s:15     .text:0000000000000000 .LVL0
     /tmp/ccldldcq.s:40     .text:0000000000000034 .LVL1
     /tmp/ccldldcq.s:249    .text:0000000000000164 .LVL14
     /tmp/ccldldcq.s:195    .text:000000000000011c .LVL9
     /tmp/ccldldcq.s:227    .text:0000000000000150 .LVL12
     /tmp/ccldldcq.s:234    .text:000000000000015c .LVL13
     /tmp/ccldldcq.s:207    .text:0000000000000130 .LVL10
     /tmp/ccldldcq.s:109    .text:0000000000000088 .LVL6
     /tmp/ccldldcq.s:124    .text:00000000000000a4 .LVL7
     /tmp/ccldldcq.s:459    .debug_info:0000000000000000 .Ldebug_info0
     /tmp/ccldldcq.s:83     .gcc_except_table:0000000000000000 .LLSDA26
     /tmp/ccldldcq.s:380    .gcc_except_table:000000000000002b .LLSDA25

UNDEFINED SYMBOLS
_ZN10KSemaphorenwEm
_ZN10KSemaphoreC1Ei
_ZN10KSemaphoredlEPv
_Unwind_Resume
__gxx_personality_v0
GAS LISTING /tmp/ccldldcq.s 			page 19


_Z7kmallocm
_Z5kfreePv
_ZN10KSemaphore6signalEv
_ZN10KSemaphore4waitEv
