GAS LISTING /tmp/cclE0UL4.s 			page 1


   1              		.file	"KConsole.cpp"
   2              		.option pic
   3              		.option norelax
   4              		.text
   5              	.Ltext0:
   6              		.align	2
   7              		.globl	_ZN8KConsole10initializeEv
   9              	_ZN8KConsole10initializeEv:
  10              	.LFB25:
  11              		.file 1 "src/KConsole.cpp"
   1:src/KConsole.cpp **** //
   2:src/KConsole.cpp **** // Created by os on 5/19/22.
   3:src/KConsole.cpp **** //
   4:src/KConsole.cpp **** #include "../h/KConsole.hpp"
   5:src/KConsole.cpp **** #include "../h/syscall_c.h"
   6:src/KConsole.cpp **** #include "../h/Riscv.hpp"
   7:src/KConsole.cpp **** 
   8:src/KConsole.cpp **** uint64 KConsole::inputHead = 0;
   9:src/KConsole.cpp **** uint64 KConsole::inputTail = 0;
  10:src/KConsole.cpp **** uint64 KConsole::outputHead = 0;
  11:src/KConsole.cpp **** uint64 KConsole::outputTail = 0;
  12:src/KConsole.cpp **** KSemaphore* KConsole::hasCharactersOutput = 0;
  13:src/KConsole.cpp **** KSemaphore* KConsole::hasCharactersInput = 0;
  14:src/KConsole.cpp **** uint64 KConsole::pendingGetc = 0;
  15:src/KConsole.cpp **** char KConsole::inputBuffer[bufferSize];
  16:src/KConsole.cpp **** char KConsole::outputBuffer[bufferSize];
  17:src/KConsole.cpp **** uint64 KConsole::pendingPutc = 0;
  18:src/KConsole.cpp **** 
  19:src/KConsole.cpp **** void KConsole::initialize()
  20:src/KConsole.cpp **** {
  12              		.loc 1 20 1
  13              		.cfi_startproc
  14              		.cfi_personality 0x9b,DW.ref.__gxx_personality_v0
  15              		.cfi_lsda 0x1b,.LLSDA25
  16 0000 130101FE 		addi	sp,sp,-32
  17              		.cfi_def_cfa_offset 32
  18 0004 233C1100 		sd	ra,24(sp)
  19 0008 23388100 		sd	s0,16(sp)
  20 000c 23349100 		sd	s1,8(sp)
  21 0010 23302101 		sd	s2,0(sp)
  22              		.cfi_offset 1, -8
  23              		.cfi_offset 8, -16
  24              		.cfi_offset 9, -24
  25              		.cfi_offset 18, -32
  26 0014 13040102 		addi	s0,sp,32
  27              		.cfi_def_cfa 8, 0
  21:src/KConsole.cpp ****     hasCharactersInput = new KSemaphore(0);
  28              		.loc 1 21 5
  29              		.loc 1 21 42 is_stmt 0
  30 0018 13058001 		li	a0,24
  31              	.LEHB0:
  32 001c 97000000 		call	_ZN10KSemaphorenwEm@plt
  32      E7800000 
  33              	.LVL0:
  34              	.LEHE0:
  35 0024 93040500 		mv	s1,a0
  36 0028 93050000 		li	a1,0
GAS LISTING /tmp/cclE0UL4.s 			page 2


  37              	.LEHB1:
  38 002c 97000000 		call	_ZN10KSemaphoreC1Ei@plt
  38      E7800000 
  39              	.LVL1:
  40              	.LEHE1:
  41              		.loc 1 21 24 discriminator 2
  42 0034 97070000 		sd	s1,.LANCHOR0,a5
  42      23B09700 
  22:src/KConsole.cpp ****     hasCharactersOutput = new KSemaphore(0);
  43              		.loc 1 22 5 is_stmt 1 discriminator 2
  44              		.loc 1 22 43 is_stmt 0 discriminator 2
  45 003c 13058001 		li	a0,24
  46              	.LEHB2:
  47 0040 97000000 		call	_ZN10KSemaphorenwEm@plt
  47      E7800000 
  48              	.LVL2:
  49              	.LEHE2:
  50 0048 93040500 		mv	s1,a0
  51 004c 93050000 		li	a1,0
  52              	.LEHB3:
  53 0050 97000000 		call	_ZN10KSemaphoreC1Ei@plt
  53      E7800000 
  54              	.LVL3:
  55              	.LEHE3:
  56              		.loc 1 22 25 discriminator 2
  57 0058 97070000 		sd	s1,.LANCHOR0+8,a5
  57      23B09700 
  23:src/KConsole.cpp **** }
  58              		.loc 1 23 1 discriminator 2
  59 0060 83308101 		ld	ra,24(sp)
  60              		.cfi_remember_state
  61              		.cfi_restore 1
  62 0064 03340101 		ld	s0,16(sp)
  63              		.cfi_restore 8
  64              		.cfi_def_cfa 2, 32
  65 0068 83348100 		ld	s1,8(sp)
  66              		.cfi_restore 9
  67 006c 03390100 		ld	s2,0(sp)
  68              		.cfi_restore 18
  69 0070 13010102 		addi	sp,sp,32
  70              		.cfi_def_cfa_offset 0
  71 0074 67800000 		jr	ra
  72              	.L4:
  73              		.cfi_restore_state
  74 0078 13090500 		mv	s2,a0
  21:src/KConsole.cpp ****     hasCharactersInput = new KSemaphore(0);
  75              		.loc 1 21 42
  76 007c 13850400 		mv	a0,s1
  77 0080 97000000 		call	_ZN10KSemaphoredlEPv@plt
  77      E7800000 
  78              	.LVL4:
  79 0088 13050900 		mv	a0,s2
  80              	.LEHB4:
  81 008c 97000000 		call	_Unwind_Resume@plt
  81      E7800000 
  82              	.LVL5:
  83              	.LEHE4:
GAS LISTING /tmp/cclE0UL4.s 			page 3


  84              	.L5:
  85 0094 13090500 		mv	s2,a0
  22:src/KConsole.cpp ****     hasCharactersOutput = new KSemaphore(0);
  86              		.loc 1 22 43
  87 0098 13850400 		mv	a0,s1
  88 009c 97000000 		call	_ZN10KSemaphoredlEPv@plt
  88      E7800000 
  89              	.LVL6:
  90 00a4 13050900 		mv	a0,s2
  91              	.LEHB5:
  92 00a8 97000000 		call	_Unwind_Resume@plt
  92      E7800000 
  93              	.LVL7:
  94              	.LEHE5:
  95              		.cfi_endproc
  96              	.LFE25:
  97              		.globl	__gxx_personality_v0
  98              		.section	.gcc_except_table,"a",@progbits
  99              	.LLSDA25:
 100 0000 FF       		.byte	0xff
 101 0001 FF       		.byte	0xff
 102 0002 03       		.byte	0x3
 103 0003 4E       		.byte	0x4e
 104 0004 00000000 		.4byte	.LEHB0-.LFB25
 105 0008 00000000 		.4byte	.LEHE0-.LEHB0
 106 000c 00000000 		.4byte	0
 107 0010 00       		.byte	0
 108 0011 00000000 		.4byte	.LEHB1-.LFB25
 109 0015 00000000 		.4byte	.LEHE1-.LEHB1
 110 0019 00000000 		.4byte	.L4-.LFB25
 111 001d 00       		.byte	0
 112 001e 00000000 		.4byte	.LEHB2-.LFB25
 113 0022 00000000 		.4byte	.LEHE2-.LEHB2
 114 0026 00000000 		.4byte	0
 115 002a 00       		.byte	0
 116 002b 00000000 		.4byte	.LEHB3-.LFB25
 117 002f 00000000 		.4byte	.LEHE3-.LEHB3
 118 0033 00000000 		.4byte	.L5-.LFB25
 119 0037 00       		.byte	0
 120 0038 00000000 		.4byte	.LEHB4-.LFB25
 121 003c 00000000 		.4byte	.LEHE4-.LEHB4
 122 0040 00000000 		.4byte	0
 123 0044 00       		.byte	0
 124 0045 00000000 		.4byte	.LEHB5-.LFB25
 125 0049 00000000 		.4byte	.LEHE5-.LEHB5
 126 004d 00000000 		.4byte	0
 127 0051 00       		.byte	0
 128              		.text
 130              		.align	2
 131              		.globl	_ZN8KConsole17putCharacterInputEc
 133              	_ZN8KConsole17putCharacterInputEc:
 134              	.LFB28:
  24:src/KConsole.cpp **** 
  25:src/KConsole.cpp **** //extern const uint64 CONSOLE_STATUS;
  26:src/KConsole.cpp **** //extern const uint64 CONSOLE_TX_DATA;
  27:src/KConsole.cpp **** //extern const uint64 CONSOLE_RX_DATA;
  28:src/KConsole.cpp **** 
GAS LISTING /tmp/cclE0UL4.s 			page 4


  29:src/KConsole.cpp **** void KConsole::getCharactersFromConsole(void* p)
  30:src/KConsole.cpp **** {
  31:src/KConsole.cpp ****     while(true)
  32:src/KConsole.cpp ****     {
  33:src/KConsole.cpp ****         uint64 x = CONSOLE_STATUS;
  34:src/KConsole.cpp ****         __asm__ volatile("mv a0, %0"::"r"(x));
  35:src/KConsole.cpp ****         __asm__ volatile("lb a1, 0(a0)");
  36:src/KConsole.cpp ****         uint64 operation;
  37:src/KConsole.cpp ****         __asm__ volatile("mv %0, a1" :  "=r"(operation));
  38:src/KConsole.cpp ****         if(operation & STATUS_READ_MASK)
  39:src/KConsole.cpp ****         {
  40:src/KConsole.cpp ****             x = CONSOLE_TX_DATA;
  41:src/KConsole.cpp ****             __asm__ volatile("mv a0, %0"::"r"(x));
  42:src/KConsole.cpp ****             __asm__ volatile("lb a1,0(a0)");
  43:src/KConsole.cpp ****             char c;
  44:src/KConsole.cpp ****             __asm__ volatile("mv %0, a1" :  "=r"(c));
  45:src/KConsole.cpp **** 
  46:src/KConsole.cpp ****             putCharacterInput(c);
  47:src/KConsole.cpp ****             putCharacterOutput(c);
  48:src/KConsole.cpp ****         }
  49:src/KConsole.cpp ****         else
  50:src/KConsole.cpp ****             break;
  51:src/KConsole.cpp ****     }
  52:src/KConsole.cpp **** }
  53:src/KConsole.cpp **** 
  54:src/KConsole.cpp **** void KConsole::sendCharactersToConsole(void* p)
  55:src/KConsole.cpp **** {
  56:src/KConsole.cpp ****     while(true)
  57:src/KConsole.cpp ****     {
  58:src/KConsole.cpp ****             if(Riscv::finishSystem && KConsole::outputBufferEmpty() && pendingGetc == 0)
  59:src/KConsole.cpp ****                 thread_exit();
  60:src/KConsole.cpp **** 
  61:src/KConsole.cpp ****             uint64 x = CONSOLE_STATUS;
  62:src/KConsole.cpp ****             __asm__ volatile("mv a0, %0"::"r"(x));
  63:src/KConsole.cpp ****             __asm__ volatile("lb a1, 0(a0)");
  64:src/KConsole.cpp ****             uint64 operation;
  65:src/KConsole.cpp ****             __asm__ volatile("mv %0, a1" :  "=r"(operation));
  66:src/KConsole.cpp ****             if ((operation & STATUS_WRITE_MASK) && pendingPutc > 0)
  67:src/KConsole.cpp ****             {
  68:src/KConsole.cpp ****                 char volatile c = sysCallGetCharOutput();
  69:src/KConsole.cpp ****                 pendingPutc--;
  70:src/KConsole.cpp ****                 x = CONSOLE_RX_DATA;
  71:src/KConsole.cpp ****                 __asm__ volatile("mv a0, %0"::"r"(x));
  72:src/KConsole.cpp ****                 __asm__ volatile("mv a1, %0" :  :"r"((uint64)c));
  73:src/KConsole.cpp ****                 __asm__ volatile("sb a1,0(a0)");
  74:src/KConsole.cpp ****             }
  75:src/KConsole.cpp ****             else
  76:src/KConsole.cpp ****             {
  77:src/KConsole.cpp ****                 thread_dispatch();
  78:src/KConsole.cpp ****             }
  79:src/KConsole.cpp ****     }
  80:src/KConsole.cpp **** }
  81:src/KConsole.cpp **** 
  82:src/KConsole.cpp **** void KConsole::putCharacterInput(char c)
  83:src/KConsole.cpp **** {
 135              		.loc 1 83 1 is_stmt 1
 136              		.cfi_startproc
GAS LISTING /tmp/cclE0UL4.s 			page 5


 137              	.LVL8:
  84:src/KConsole.cpp ****     if((inputTail+1)%bufferSize == inputHead)
 138              		.loc 1 84 5
 139              		.loc 1 84 18 is_stmt 0
 140 00b0 97060000 		lla	a3,.LANCHOR0
 140      93860600 
 141 00b8 03B60601 		ld	a2,16(a3)
 142 00bc 93071600 		addi	a5,a2,1
 143              		.loc 1 84 21
 144 00c0 37270000 		li	a4,8192
 145 00c4 1307F7FF 		addi	a4,a4,-1
 146 00c8 B3F7E700 		and	a5,a5,a4
 147              		.loc 1 84 33
 148 00cc 03B78601 		ld	a4,24(a3)
 149              		.loc 1 84 5
 150 00d0 6382E704 		beq	a5,a4,.L11
  83:src/KConsole.cpp ****     if((inputTail+1)%bufferSize == inputHead)
 151              		.loc 1 83 1
 152 00d4 130101FF 		addi	sp,sp,-16
 153              		.cfi_def_cfa_offset 16
 154 00d8 23341100 		sd	ra,8(sp)
 155 00dc 23308100 		sd	s0,0(sp)
 156              		.cfi_offset 1, -8
 157              		.cfi_offset 8, -16
 158 00e0 13040101 		addi	s0,sp,16
 159              		.cfi_def_cfa 8, 0
  85:src/KConsole.cpp ****         return;
  86:src/KConsole.cpp ****     inputBuffer[inputTail] = c;
 160              		.loc 1 86 5 is_stmt 1
 161              		.loc 1 86 28 is_stmt 0
 162 00e4 17070000 		lla	a4,_ZN8KConsole11inputBufferE
 162      13070700 
 163 00ec 3306C700 		add	a2,a4,a2
 164 00f0 2300A600 		sb	a0,0(a2)
  87:src/KConsole.cpp ****     inputTail = (inputTail+1)%bufferSize;
 165              		.loc 1 87 5 is_stmt 1
 166              		.loc 1 87 15 is_stmt 0
 167 00f4 23B8F600 		sd	a5,16(a3)
  88:src/KConsole.cpp ****     hasCharactersInput->signal();
 168              		.loc 1 88 5 is_stmt 1
 169              		.loc 1 88 31 is_stmt 0
 170 00f8 03B50600 		ld	a0,0(a3)
 171              	.LVL9:
 172 00fc 97000000 		call	_ZN10KSemaphore6signalEv@plt
 172      E7800000 
 173              	.LVL10:
  89:src/KConsole.cpp **** }
 174              		.loc 1 89 1
 175 0104 83308100 		ld	ra,8(sp)
 176              		.cfi_restore 1
 177 0108 03340100 		ld	s0,0(sp)
 178              		.cfi_restore 8
 179              		.cfi_def_cfa 2, 16
 180 010c 13010101 		addi	sp,sp,16
 181              		.cfi_def_cfa_offset 0
 182 0110 67800000 		jr	ra
 183              	.LVL11:
GAS LISTING /tmp/cclE0UL4.s 			page 6


 184              	.L11:
 185 0114 67800000 		ret
 186              		.cfi_endproc
 187              	.LFE28:
 189              		.align	2
 190              		.globl	_ZN8KConsole17getCharacterInputEv
 192              	_ZN8KConsole17getCharacterInputEv:
 193              	.LFB29:
  90:src/KConsole.cpp **** 
  91:src/KConsole.cpp **** char KConsole::getCharacterInput()
  92:src/KConsole.cpp **** {
 194              		.loc 1 92 1 is_stmt 1
 195              		.cfi_startproc
 196 0118 130101FE 		addi	sp,sp,-32
 197              		.cfi_def_cfa_offset 32
 198 011c 233C1100 		sd	ra,24(sp)
 199 0120 23388100 		sd	s0,16(sp)
 200 0124 23349100 		sd	s1,8(sp)
 201              		.cfi_offset 1, -8
 202              		.cfi_offset 8, -16
 203              		.cfi_offset 9, -24
 204 0128 13040102 		addi	s0,sp,32
 205              		.cfi_def_cfa 8, 0
  93:src/KConsole.cpp ****     hasCharactersInput->wait();
 206              		.loc 1 93 5
 207              		.loc 1 93 29 is_stmt 0
 208 012c 97040000 		lla	s1,.LANCHOR0
 208      93840400 
 209 0134 03B50400 		ld	a0,0(s1)
 210 0138 97000000 		call	_ZN10KSemaphore4waitEv@plt
 210      E7800000 
 211              	.LVL12:
  94:src/KConsole.cpp ****     if(inputHead == inputTail)
 212              		.loc 1 94 5 is_stmt 1
 213              		.loc 1 94 18 is_stmt 0
 214 0140 83B78401 		ld	a5,24(s1)
 215 0144 03B70401 		ld	a4,16(s1)
 216              		.loc 1 94 5
 217 0148 6380E704 		beq	a5,a4,.L16
  95:src/KConsole.cpp ****         return -1;
  96:src/KConsole.cpp ****     char c = inputBuffer[inputHead];
 218              		.loc 1 96 5 is_stmt 1
 219              		.loc 1 96 10 is_stmt 0
 220 014c 17070000 		lla	a4,_ZN8KConsole11inputBufferE
 220      13070700 
 221 0154 3307F700 		add	a4,a4,a5
 222 0158 03450700 		lbu	a0,0(a4)
 223              	.LVL13:
  97:src/KConsole.cpp **** 
  98:src/KConsole.cpp ****     inputHead = (inputHead+1)%bufferSize;
 224              		.loc 1 98 5 is_stmt 1
 225              		.loc 1 98 27 is_stmt 0
 226 015c 93871700 		addi	a5,a5,1
 227              		.loc 1 98 30
 228 0160 37270000 		li	a4,8192
 229 0164 1307F7FF 		addi	a4,a4,-1
 230 0168 B3F7E700 		and	a5,a5,a4
GAS LISTING /tmp/cclE0UL4.s 			page 7


 231              		.loc 1 98 15
 232 016c 17070000 		sd	a5,.LANCHOR0+24,a4
 232      2330F700 
  99:src/KConsole.cpp **** 
 100:src/KConsole.cpp ****     return c;
 233              		.loc 1 100 5 is_stmt 1
 234              	.LVL14:
 235              	.L15:
 101:src/KConsole.cpp **** }
 236              		.loc 1 101 1 is_stmt 0
 237 0174 83308101 		ld	ra,24(sp)
 238              		.cfi_remember_state
 239              		.cfi_restore 1
 240 0178 03340101 		ld	s0,16(sp)
 241              		.cfi_restore 8
 242              		.cfi_def_cfa 2, 32
 243 017c 83348100 		ld	s1,8(sp)
 244              		.cfi_restore 9
 245 0180 13010102 		addi	sp,sp,32
 246              		.cfi_def_cfa_offset 0
 247 0184 67800000 		jr	ra
 248              	.L16:
 249              		.cfi_restore_state
  95:src/KConsole.cpp ****     char c = inputBuffer[inputHead];
 250              		.loc 1 95 17
 251 0188 1305F00F 		li	a0,255
 252 018c 6FF09FFE 		j	.L15
 253              		.cfi_endproc
 254              	.LFE29:
 256              		.align	2
 257              		.globl	_ZN8KConsole18putCharacterOutputEc
 259              	_ZN8KConsole18putCharacterOutputEc:
 260              	.LFB30:
 102:src/KConsole.cpp **** 
 103:src/KConsole.cpp **** void KConsole::putCharacterOutput(char c)
 104:src/KConsole.cpp **** {
 261              		.loc 1 104 1 is_stmt 1
 262              		.cfi_startproc
 263              	.LVL15:
 105:src/KConsole.cpp ****     if((outputTail+1)%bufferSize == outputHead)
 264              		.loc 1 105 5
 265              		.loc 1 105 19 is_stmt 0
 266 0190 97060000 		lla	a3,.LANCHOR0
 266      93860600 
 267 0198 03B60602 		ld	a2,32(a3)
 268 019c 93071600 		addi	a5,a2,1
 269              		.loc 1 105 22
 270 01a0 37270000 		li	a4,8192
 271 01a4 1307F7FF 		addi	a4,a4,-1
 272 01a8 B3F7E700 		and	a5,a5,a4
 273              		.loc 1 105 34
 274 01ac 03B78602 		ld	a4,40(a3)
 275              		.loc 1 105 5
 276 01b0 638AE704 		beq	a5,a4,.L21
 104:src/KConsole.cpp ****     if((outputTail+1)%bufferSize == outputHead)
 277              		.loc 1 104 1
 278 01b4 130101FF 		addi	sp,sp,-16
GAS LISTING /tmp/cclE0UL4.s 			page 8


 279              		.cfi_def_cfa_offset 16
 280 01b8 23341100 		sd	ra,8(sp)
 281 01bc 23308100 		sd	s0,0(sp)
 282              		.cfi_offset 1, -8
 283              		.cfi_offset 8, -16
 284 01c0 13040101 		addi	s0,sp,16
 285              		.cfi_def_cfa 8, 0
 106:src/KConsole.cpp ****         return;
 107:src/KConsole.cpp ****     pendingPutc++;
 286              		.loc 1 107 5 is_stmt 1
 287              		.loc 1 107 16 is_stmt 0
 288 01c4 13870600 		mv	a4,a3
 289 01c8 83B60603 		ld	a3,48(a3)
 290 01cc 93861600 		addi	a3,a3,1
 291 01d0 2338D702 		sd	a3,48(a4)
 108:src/KConsole.cpp ****     outputBuffer[outputTail] = c;
 292              		.loc 1 108 5 is_stmt 1
 293              		.loc 1 108 30 is_stmt 0
 294 01d4 97060000 		lla	a3,_ZN8KConsole12outputBufferE
 294      93860600 
 295 01dc 3386C600 		add	a2,a3,a2
 296 01e0 2300A600 		sb	a0,0(a2)
 109:src/KConsole.cpp ****     outputTail = (outputTail+1)%bufferSize;
 297              		.loc 1 109 5 is_stmt 1
 298              		.loc 1 109 16 is_stmt 0
 299 01e4 2330F702 		sd	a5,32(a4)
 110:src/KConsole.cpp ****     hasCharactersOutput->signal();
 300              		.loc 1 110 5 is_stmt 1
 301              		.loc 1 110 32 is_stmt 0
 302 01e8 03358700 		ld	a0,8(a4)
 303              	.LVL16:
 304 01ec 97000000 		call	_ZN10KSemaphore6signalEv@plt
 304      E7800000 
 305              	.LVL17:
 111:src/KConsole.cpp **** }
 306              		.loc 1 111 1
 307 01f4 83308100 		ld	ra,8(sp)
 308              		.cfi_restore 1
 309 01f8 03340100 		ld	s0,0(sp)
 310              		.cfi_restore 8
 311              		.cfi_def_cfa 2, 16
 312 01fc 13010101 		addi	sp,sp,16
 313              		.cfi_def_cfa_offset 0
 314 0200 67800000 		jr	ra
 315              	.LVL18:
 316              	.L21:
 317 0204 67800000 		ret
 318              		.cfi_endproc
 319              	.LFE30:
 321              		.align	2
 322              		.globl	_ZN8KConsole24getCharactersFromConsoleEPv
 324              	_ZN8KConsole24getCharactersFromConsoleEPv:
 325              	.LFB26:
  30:src/KConsole.cpp ****     while(true)
 326              		.loc 1 30 1 is_stmt 1
 327              		.cfi_startproc
 328              	.LVL19:
GAS LISTING /tmp/cclE0UL4.s 			page 9


  31:src/KConsole.cpp ****     {
 329              		.loc 1 31 5
 330              	.LBB2:
  33:src/KConsole.cpp ****         __asm__ volatile("mv a0, %0"::"r"(x));
 331              		.loc 1 33 9
  33:src/KConsole.cpp ****         __asm__ volatile("mv a0, %0"::"r"(x));
 332              		.loc 1 33 16 is_stmt 0
 333 0208 97070000 		la	a5,CONSOLE_STATUS
 333      83B70700 
 334 0210 83B70700 		ld	a5,0(a5)
 335              	.LVL20:
  34:src/KConsole.cpp ****         __asm__ volatile("lb a1, 0(a0)");
 336              		.loc 1 34 9 is_stmt 1
  34:src/KConsole.cpp ****         __asm__ volatile("lb a1, 0(a0)");
 337              		.loc 1 34 46 is_stmt 0
 338              	#APP
 339              	# 34 "src/KConsole.cpp" 1
  35:src/KConsole.cpp ****         uint64 operation;
 340              		mv a0, a5
 341              	# 0 "" 2
 342              		.loc 1 35 9 is_stmt 1
  35:src/KConsole.cpp ****         uint64 operation;
 343              		.loc 1 35 41 is_stmt 0
 344              	# 35 "src/KConsole.cpp" 1
  36:src/KConsole.cpp ****         __asm__ volatile("mv %0, a1" :  "=r"(operation));
 345              		lb a1, 0(a0)
 346              	# 0 "" 2
 347              		.loc 1 36 9 is_stmt 1
  37:src/KConsole.cpp ****         if(operation & STATUS_READ_MASK)
 348              		.loc 1 37 9
  37:src/KConsole.cpp ****         if(operation & STATUS_READ_MASK)
 349              		.loc 1 37 57 is_stmt 0
 350              	# 37 "src/KConsole.cpp" 1
 351              		mv a5, a1
 352              	# 0 "" 2
 353              	.LVL21:
  38:src/KConsole.cpp ****         {
 354              		.loc 1 38 9 is_stmt 1
 355              	#NO_APP
 356              	.LBB3:
  38:src/KConsole.cpp ****         {
 357              		.loc 1 38 22 is_stmt 0
 358 0220 93F71700 		andi	a5,a5,1
 359              	.LVL22:
  38:src/KConsole.cpp ****         {
 360              		.loc 1 38 9
 361 0224 63800708 		beqz	a5,.L32
 362              	.LBE3:
 363              	.LBE2:
  30:src/KConsole.cpp ****     while(true)
 364              		.loc 1 30 1
 365 0228 130101FE 		addi	sp,sp,-32
 366              		.cfi_def_cfa_offset 32
 367 022c 233C1100 		sd	ra,24(sp)
 368 0230 23388100 		sd	s0,16(sp)
 369 0234 23349100 		sd	s1,8(sp)
 370              		.cfi_offset 1, -8
GAS LISTING /tmp/cclE0UL4.s 			page 10


 371              		.cfi_offset 8, -16
 372              		.cfi_offset 9, -24
 373 0238 13040102 		addi	s0,sp,32
 374              		.cfi_def_cfa 8, 0
 375              	.LVL23:
 376              	.L28:
 377              	.LBB7:
 378              	.LBB5:
 379              	.LBB4:
  40:src/KConsole.cpp ****             __asm__ volatile("mv a0, %0"::"r"(x));
 380              		.loc 1 40 13 is_stmt 1
  40:src/KConsole.cpp ****             __asm__ volatile("mv a0, %0"::"r"(x));
 381              		.loc 1 40 15 is_stmt 0
 382 023c 97070000 		la	a5,CONSOLE_TX_DATA
 382      83B70700 
 383 0244 83B70700 		ld	a5,0(a5)
 384              	.LVL24:
  41:src/KConsole.cpp ****             __asm__ volatile("lb a1,0(a0)");
 385              		.loc 1 41 13 is_stmt 1
  41:src/KConsole.cpp ****             __asm__ volatile("lb a1,0(a0)");
 386              		.loc 1 41 50 is_stmt 0
 387              	#APP
 388              	# 41 "src/KConsole.cpp" 1
  42:src/KConsole.cpp ****             char c;
 389              		mv a0, a5
 390              	# 0 "" 2
 391              		.loc 1 42 13 is_stmt 1
  42:src/KConsole.cpp ****             char c;
 392              		.loc 1 42 44 is_stmt 0
 393              	# 42 "src/KConsole.cpp" 1
  43:src/KConsole.cpp ****             __asm__ volatile("mv %0, a1" :  "=r"(c));
 394              		lb a1,0(a0)
 395              	# 0 "" 2
 396              		.loc 1 43 13 is_stmt 1
  44:src/KConsole.cpp **** 
 397              		.loc 1 44 13
  44:src/KConsole.cpp **** 
 398              		.loc 1 44 53 is_stmt 0
 399              	# 44 "src/KConsole.cpp" 1
 400              		mv s1, a1
 401              	# 0 "" 2
 402              	#NO_APP
 403 0254 93F4F40F 		andi	s1,s1,0xff
 404              	.LVL25:
  46:src/KConsole.cpp ****             putCharacterOutput(c);
 405              		.loc 1 46 13 is_stmt 1
  46:src/KConsole.cpp ****             putCharacterOutput(c);
 406              		.loc 1 46 30 is_stmt 0
 407 0258 13850400 		mv	a0,s1
 408 025c 97000000 		call	_ZN8KConsole17putCharacterInputEc
 408      E7800000 
 409              	.LVL26:
  47:src/KConsole.cpp ****         }
 410              		.loc 1 47 13 is_stmt 1
  47:src/KConsole.cpp ****         }
 411              		.loc 1 47 31 is_stmt 0
 412 0264 13850400 		mv	a0,s1
GAS LISTING /tmp/cclE0UL4.s 			page 11


 413 0268 97000000 		call	_ZN8KConsole18putCharacterOutputEc
 413      E7800000 
 414              	.LVL27:
 415              	.LBE4:
 416              	.LBE5:
 417              	.LBE7:
  31:src/KConsole.cpp ****     {
 418              		.loc 1 31 5 is_stmt 1
  31:src/KConsole.cpp ****     {
 419              		.loc 1 31 5
 420              	.LBB8:
  33:src/KConsole.cpp ****         __asm__ volatile("mv a0, %0"::"r"(x));
 421              		.loc 1 33 9
  33:src/KConsole.cpp ****         __asm__ volatile("mv a0, %0"::"r"(x));
 422              		.loc 1 33 16 is_stmt 0
 423 0270 97070000 		la	a5,CONSOLE_STATUS
 423      83B70700 
 424 0278 83B70700 		ld	a5,0(a5)
 425              	.LVL28:
  34:src/KConsole.cpp ****         __asm__ volatile("lb a1, 0(a0)");
 426              		.loc 1 34 9 is_stmt 1
  34:src/KConsole.cpp ****         __asm__ volatile("lb a1, 0(a0)");
 427              		.loc 1 34 46 is_stmt 0
 428              	#APP
 429              	# 34 "src/KConsole.cpp" 1
  35:src/KConsole.cpp ****         uint64 operation;
 430              		mv a0, a5
 431              	# 0 "" 2
 432              		.loc 1 35 9 is_stmt 1
  35:src/KConsole.cpp ****         uint64 operation;
 433              		.loc 1 35 41 is_stmt 0
 434              	# 35 "src/KConsole.cpp" 1
  36:src/KConsole.cpp ****         __asm__ volatile("mv %0, a1" :  "=r"(operation));
 435              		lb a1, 0(a0)
 436              	# 0 "" 2
 437              		.loc 1 36 9 is_stmt 1
  37:src/KConsole.cpp ****         if(operation & STATUS_READ_MASK)
 438              		.loc 1 37 9
  37:src/KConsole.cpp ****         if(operation & STATUS_READ_MASK)
 439              		.loc 1 37 57 is_stmt 0
 440              	# 37 "src/KConsole.cpp" 1
 441              		mv a5, a1
 442              	# 0 "" 2
 443              	.LVL29:
  38:src/KConsole.cpp ****         {
 444              		.loc 1 38 9 is_stmt 1
 445              	#NO_APP
 446              	.LBB6:
  38:src/KConsole.cpp ****         {
 447              		.loc 1 38 22 is_stmt 0
 448 0288 93F71700 		andi	a5,a5,1
 449              	.LVL30:
  38:src/KConsole.cpp ****         {
 450              		.loc 1 38 9
 451 028c E39807FA 		bnez	a5,.L28
 452              	.LBE6:
 453              	.LBE8:
GAS LISTING /tmp/cclE0UL4.s 			page 12


  52:src/KConsole.cpp **** 
 454              		.loc 1 52 1
 455 0290 83308101 		ld	ra,24(sp)
 456              		.cfi_restore 1
 457 0294 03340101 		ld	s0,16(sp)
 458              		.cfi_restore 8
 459              		.cfi_def_cfa 2, 32
 460 0298 83348100 		ld	s1,8(sp)
 461              		.cfi_restore 9
 462              	.LVL31:
 463 029c 13010102 		addi	sp,sp,32
 464              		.cfi_def_cfa_offset 0
 465 02a0 67800000 		jr	ra
 466              	.LVL32:
 467              	.L32:
 468 02a4 67800000 		ret
 469              		.cfi_endproc
 470              	.LFE26:
 472              		.align	2
 473              		.globl	_ZN8KConsole18getCharacterOutputEv
 475              	_ZN8KConsole18getCharacterOutputEv:
 476              	.LFB31:
 112:src/KConsole.cpp **** 
 113:src/KConsole.cpp **** char KConsole::getCharacterOutput()
 114:src/KConsole.cpp **** {
 477              		.loc 1 114 1 is_stmt 1
 478              		.cfi_startproc
 479 02a8 130101FE 		addi	sp,sp,-32
 480              		.cfi_def_cfa_offset 32
 481 02ac 233C1100 		sd	ra,24(sp)
 482 02b0 23388100 		sd	s0,16(sp)
 483 02b4 23349100 		sd	s1,8(sp)
 484              		.cfi_offset 1, -8
 485              		.cfi_offset 8, -16
 486              		.cfi_offset 9, -24
 487 02b8 13040102 		addi	s0,sp,32
 488              		.cfi_def_cfa 8, 0
 115:src/KConsole.cpp ****     hasCharactersOutput->wait();
 489              		.loc 1 115 5
 490              		.loc 1 115 30 is_stmt 0
 491 02bc 97040000 		lla	s1,.LANCHOR0
 491      93840400 
 492 02c4 03B58400 		ld	a0,8(s1)
 493 02c8 97000000 		call	_ZN10KSemaphore4waitEv@plt
 493      E7800000 
 494              	.LVL33:
 116:src/KConsole.cpp ****     if(outputHead == outputTail)
 495              		.loc 1 116 5 is_stmt 1
 496              		.loc 1 116 19 is_stmt 0
 497 02d0 83B78402 		ld	a5,40(s1)
 498 02d4 03B70402 		ld	a4,32(s1)
 499              		.loc 1 116 5
 500 02d8 6380E704 		beq	a5,a4,.L35
 117:src/KConsole.cpp ****         return -1;
 118:src/KConsole.cpp **** 
 119:src/KConsole.cpp ****     char c = outputBuffer[outputHead];
 501              		.loc 1 119 5 is_stmt 1
GAS LISTING /tmp/cclE0UL4.s 			page 13


 502              		.loc 1 119 10 is_stmt 0
 503 02dc 17070000 		lla	a4,_ZN8KConsole12outputBufferE
 503      13070700 
 504 02e4 3307F700 		add	a4,a4,a5
 505 02e8 03450700 		lbu	a0,0(a4)
 506              	.LVL34:
 120:src/KConsole.cpp **** 
 121:src/KConsole.cpp ****     outputHead = (outputHead+1)%bufferSize;
 507              		.loc 1 121 5 is_stmt 1
 508              		.loc 1 121 29 is_stmt 0
 509 02ec 93871700 		addi	a5,a5,1
 510              		.loc 1 121 32
 511 02f0 37270000 		li	a4,8192
 512 02f4 1307F7FF 		addi	a4,a4,-1
 513 02f8 B3F7E700 		and	a5,a5,a4
 514              		.loc 1 121 16
 515 02fc 17070000 		sd	a5,.LANCHOR0+40,a4
 515      2330F700 
 122:src/KConsole.cpp **** 
 123:src/KConsole.cpp ****     return c;
 516              		.loc 1 123 5 is_stmt 1
 517              	.LVL35:
 518              	.L34:
 124:src/KConsole.cpp **** }
 519              		.loc 1 124 1 is_stmt 0
 520 0304 83308101 		ld	ra,24(sp)
 521              		.cfi_remember_state
 522              		.cfi_restore 1
 523 0308 03340101 		ld	s0,16(sp)
 524              		.cfi_restore 8
 525              		.cfi_def_cfa 2, 32
 526 030c 83348100 		ld	s1,8(sp)
 527              		.cfi_restore 9
 528 0310 13010102 		addi	sp,sp,32
 529              		.cfi_def_cfa_offset 0
 530 0314 67800000 		jr	ra
 531              	.L35:
 532              		.cfi_restore_state
 117:src/KConsole.cpp **** 
 533              		.loc 1 117 17
 534 0318 1305F00F 		li	a0,255
 535 031c 6FF09FFE 		j	.L34
 536              		.cfi_endproc
 537              	.LFE31:
 539              		.align	2
 540              		.globl	_ZN8KConsole11putcHandlerEv
 542              	_ZN8KConsole11putcHandlerEv:
 543              	.LFB32:
 125:src/KConsole.cpp **** 
 126:src/KConsole.cpp **** void KConsole::putcHandler()
 127:src/KConsole.cpp **** {
 544              		.loc 1 127 1 is_stmt 1
 545              		.cfi_startproc
 546 0320 130101FF 		addi	sp,sp,-16
 547              		.cfi_def_cfa_offset 16
 548 0324 23341100 		sd	ra,8(sp)
 549 0328 23308100 		sd	s0,0(sp)
GAS LISTING /tmp/cclE0UL4.s 			page 14


 550              		.cfi_offset 1, -8
 551              		.cfi_offset 8, -16
 552 032c 13040101 		addi	s0,sp,16
 553              		.cfi_def_cfa 8, 0
 128:src/KConsole.cpp ****     uint64 ch;
 554              		.loc 1 128 5
 129:src/KConsole.cpp ****     __asm__ volatile("mv %0, a1" : "=r"(ch));
 555              		.loc 1 129 5
 556              		.loc 1 129 45 is_stmt 0
 557              	#APP
 558              	# 129 "src/KConsole.cpp" 1
 130              	    putCharacterOutput((char)ch);
 559              		mv a0, a1
 560              	# 0 "" 2
 561              	.LVL36:
 562              		.loc 1 130 5 is_stmt 1
 563              		.loc 1 130 23 is_stmt 0
 564              	#NO_APP
 565 0334 1375F50F 		andi	a0,a0,0xff
 566              	.LVL37:
 567 0338 97000000 		call	_ZN8KConsole18putCharacterOutputEc
 567      E7800000 
 568              	.LVL38:
 131:src/KConsole.cpp **** }
 569              		.loc 1 131 1
 570 0340 83308100 		ld	ra,8(sp)
 571              		.cfi_restore 1
 572 0344 03340100 		ld	s0,0(sp)
 573              		.cfi_restore 8
 574              		.cfi_def_cfa 2, 16
 575 0348 13010101 		addi	sp,sp,16
 576              		.cfi_def_cfa_offset 0
 577 034c 67800000 		jr	ra
 578              		.cfi_endproc
 579              	.LFE32:
 581              		.align	2
 582              		.globl	_ZN8KConsole11getcHandlerEv
 584              	_ZN8KConsole11getcHandlerEv:
 585              	.LFB33:
 132:src/KConsole.cpp **** 
 133:src/KConsole.cpp **** void KConsole::getcHandler()
 134:src/KConsole.cpp **** {
 586              		.loc 1 134 1 is_stmt 1
 587              		.cfi_startproc
 588 0350 130101FE 		addi	sp,sp,-32
 589              		.cfi_def_cfa_offset 32
 590 0354 233C1100 		sd	ra,24(sp)
 591 0358 23388100 		sd	s0,16(sp)
 592 035c 23349100 		sd	s1,8(sp)
 593              		.cfi_offset 1, -8
 594              		.cfi_offset 8, -16
 595              		.cfi_offset 9, -24
 596 0360 13040102 		addi	s0,sp,32
 597              		.cfi_def_cfa 8, 0
 135:src/KConsole.cpp ****     pendingGetc++;
 598              		.loc 1 135 5
 599              		.loc 1 135 16 is_stmt 0
GAS LISTING /tmp/cclE0UL4.s 			page 15


 600 0364 17070000 		lla	a4,.LANCHOR0
 600      13070700 
 601 036c 83378703 		ld	a5,56(a4)
 602 0370 93871700 		addi	a5,a5,1
 603 0374 233CF702 		sd	a5,56(a4)
 136:src/KConsole.cpp ****     char ch;
 604              		.loc 1 136 5 is_stmt 1
 137:src/KConsole.cpp ****     ch = getCharacterInput();
 605              		.loc 1 137 5
 606              		.loc 1 137 27 is_stmt 0
 607 0378 97000000 		call	_ZN8KConsole17getCharacterInputEv
 607      E7800000 
 608              	.LVL39:
 609 0380 93040500 		mv	s1,a0
 610              	.LVL40:
 138:src/KConsole.cpp ****     if(ch!=0x01b)
 611              		.loc 1 138 5 is_stmt 1
 612 0384 9307B001 		li	a5,27
 613 0388 6316F502 		bne	a0,a5,.L43
 614              	.LVL41:
 615              	.L40:
 139:src/KConsole.cpp ****         putCharacterOutput(ch);
 140:src/KConsole.cpp **** 
 141:src/KConsole.cpp ****     if(ch==13)
 616              		.loc 1 141 5
 617 038c 9307D000 		li	a5,13
 618 0390 6388F402 		beq	s1,a5,.L44
 619              	.L41:
 142:src/KConsole.cpp ****     {
 143:src/KConsole.cpp ****         putCharacterOutput(13);
 144:src/KConsole.cpp ****         putCharacterOutput(10);
 145:src/KConsole.cpp ****     }
 146:src/KConsole.cpp **** 
 147:src/KConsole.cpp ****     __asm__ volatile("mv a0, %0" : :"r"((uint64)ch));
 620              		.loc 1 147 5
 621              		.loc 1 147 53 is_stmt 0
 622              	#APP
 623              	# 147 "src/KConsole.cpp" 1
 148              	    Riscv::w_a0_sscratch();
 624              		mv a0, s1
 625              	# 0 "" 2
 626              		.loc 1 148 5 is_stmt 1
 627              		.loc 1 148 25 is_stmt 0
 628              	#NO_APP
 629 0398 97000000 		call	_ZN5Riscv13w_a0_sscratchEv@plt
 629      E7800000 
 630              	.LVL42:
 149:src/KConsole.cpp **** }
 631              		.loc 1 149 1
 632 03a0 83308101 		ld	ra,24(sp)
 633              		.cfi_remember_state
 634              		.cfi_restore 1
 635 03a4 03340101 		ld	s0,16(sp)
 636              		.cfi_restore 8
 637              		.cfi_def_cfa 2, 32
 638 03a8 83348100 		ld	s1,8(sp)
 639              		.cfi_restore 9
GAS LISTING /tmp/cclE0UL4.s 			page 16


 640 03ac 13010102 		addi	sp,sp,32
 641              		.cfi_def_cfa_offset 0
 642 03b0 67800000 		jr	ra
 643              	.LVL43:
 644              	.L43:
 645              		.cfi_restore_state
 139:src/KConsole.cpp ****         putCharacterOutput(ch);
 646              		.loc 1 139 9 is_stmt 1
 139:src/KConsole.cpp ****         putCharacterOutput(ch);
 647              		.loc 1 139 27 is_stmt 0
 648 03b4 97000000 		call	_ZN8KConsole18putCharacterOutputEc
 648      E7800000 
 649              	.LVL44:
 650 03bc 6FF01FFD 		j	.L40
 651              	.L44:
 143:src/KConsole.cpp ****         putCharacterOutput(10);
 652              		.loc 1 143 9 is_stmt 1
 143:src/KConsole.cpp ****         putCharacterOutput(10);
 653              		.loc 1 143 27 is_stmt 0
 654 03c0 1305D000 		li	a0,13
 655 03c4 97000000 		call	_ZN8KConsole18putCharacterOutputEc
 655      E7800000 
 656              	.LVL45:
 144:src/KConsole.cpp ****     }
 657              		.loc 1 144 9 is_stmt 1
 144:src/KConsole.cpp ****     }
 658              		.loc 1 144 27 is_stmt 0
 659 03cc 1305A000 		li	a0,10
 660 03d0 97000000 		call	_ZN8KConsole18putCharacterOutputEc
 660      E7800000 
 661              	.LVL46:
 662 03d8 6FF0DFFB 		j	.L41
 663              		.cfi_endproc
 664              	.LFE33:
 666              		.align	2
 667              		.globl	_ZN8KConsole17outputBufferEmptyEv
 669              	_ZN8KConsole17outputBufferEmptyEv:
 670              	.LFB34:
 150:src/KConsole.cpp **** 
 151:src/KConsole.cpp **** bool KConsole::outputBufferEmpty()
 152:src/KConsole.cpp **** {
 671              		.loc 1 152 1 is_stmt 1
 672              		.cfi_startproc
 673 03dc 130101FF 		addi	sp,sp,-16
 674              		.cfi_def_cfa_offset 16
 675 03e0 23348100 		sd	s0,8(sp)
 676              		.cfi_offset 8, -8
 677 03e4 13040101 		addi	s0,sp,16
 678              		.cfi_def_cfa 8, 0
 153:src/KConsole.cpp ****     return pendingPutc == 0;
 679              		.loc 1 153 5
 154:src/KConsole.cpp **** }
 680              		.loc 1 154 1 is_stmt 0
 681 03e8 17050000 		ld	a0,.LANCHOR0+48
 681      03350500 
 682 03f0 13351500 		seqz	a0,a0
 683 03f4 03348100 		ld	s0,8(sp)
GAS LISTING /tmp/cclE0UL4.s 			page 17


 684              		.cfi_restore 8
 685              		.cfi_def_cfa 2, 16
 686 03f8 13010101 		addi	sp,sp,16
 687              		.cfi_def_cfa_offset 0
 688 03fc 67800000 		jr	ra
 689              		.cfi_endproc
 690              	.LFE34:
 692              		.align	2
 693              		.globl	_ZN8KConsole23sendCharactersToConsoleEPv
 695              	_ZN8KConsole23sendCharactersToConsoleEPv:
 696              	.LFB27:
  55:src/KConsole.cpp ****     while(true)
 697              		.loc 1 55 1 is_stmt 1
 698              		.cfi_startproc
 699              	.LVL47:
 700 0400 130101FE 		addi	sp,sp,-32
 701              		.cfi_def_cfa_offset 32
 702 0404 233C1100 		sd	ra,24(sp)
 703 0408 23388100 		sd	s0,16(sp)
 704              		.cfi_offset 1, -8
 705              		.cfi_offset 8, -16
 706 040c 13040102 		addi	s0,sp,32
 707              		.cfi_def_cfa 8, 0
 708 0410 6F008001 		j	.L48
 709              	.LVL48:
 710              	.L53:
 711              	.LBB9:
  59:src/KConsole.cpp **** 
 712              		.loc 1 59 17
  59:src/KConsole.cpp **** 
 713              		.loc 1 59 28 is_stmt 0
 714 0414 97000000 		call	thread_exit@plt
 714      E7800000 
 715              	.LVL49:
 716 041c 6F004003 		j	.L49
 717              	.LVL50:
 718              	.L50:
 719              	.LBB10:
  77:src/KConsole.cpp ****             }
 720              		.loc 1 77 17 is_stmt 1
  77:src/KConsole.cpp ****             }
 721              		.loc 1 77 32 is_stmt 0
 722 0420 97000000 		call	thread_dispatch@plt
 722      E7800000 
 723              	.LVL51:
 724              	.L48:
 725              	.LBE10:
 726              	.LBE9:
  56:src/KConsole.cpp ****     {
 727              		.loc 1 56 5 is_stmt 1
 728              	.LBB13:
  58:src/KConsole.cpp ****                 thread_exit();
 729              		.loc 1 58 13
  58:src/KConsole.cpp ****                 thread_exit();
 730              		.loc 1 58 69 is_stmt 0
 731 0428 97070000 		la	a5,_ZN5Riscv12finishSystemE
 731      83B70700 
GAS LISTING /tmp/cclE0UL4.s 			page 18


 732 0430 83C70700 		lbu	a5,0(a5)
 733 0434 638E0700 		beqz	a5,.L49
  58:src/KConsole.cpp ****                 thread_exit();
 734              		.loc 1 58 66 discriminator 1
 735 0438 97000000 		call	_ZN8KConsole17outputBufferEmptyEv
 735      E7800000 
 736              	.LVL52:
  58:src/KConsole.cpp ****                 thread_exit();
 737              		.loc 1 58 36 discriminator 1
 738 0440 63080500 		beqz	a0,.L49
  58:src/KConsole.cpp ****                 thread_exit();
 739              		.loc 1 58 84 discriminator 3
 740 0444 97070000 		ld	a5,.LANCHOR0+56
 740      83B70700 
  58:src/KConsole.cpp ****                 thread_exit();
 741              		.loc 1 58 69 discriminator 3
 742 044c E38407FC 		beqz	a5,.L53
 743              	.L49:
  61:src/KConsole.cpp ****             __asm__ volatile("mv a0, %0"::"r"(x));
 744              		.loc 1 61 13 is_stmt 1
  61:src/KConsole.cpp ****             __asm__ volatile("mv a0, %0"::"r"(x));
 745              		.loc 1 61 20 is_stmt 0
 746 0450 97070000 		la	a5,CONSOLE_STATUS
 746      83B70700 
 747 0458 83B70700 		ld	a5,0(a5)
 748              	.LVL53:
  62:src/KConsole.cpp ****             __asm__ volatile("lb a1, 0(a0)");
 749              		.loc 1 62 13 is_stmt 1
  62:src/KConsole.cpp ****             __asm__ volatile("lb a1, 0(a0)");
 750              		.loc 1 62 50 is_stmt 0
 751              	#APP
 752              	# 62 "src/KConsole.cpp" 1
  63:src/KConsole.cpp ****             uint64 operation;
 753              		mv a0, a5
 754              	# 0 "" 2
 755              		.loc 1 63 13 is_stmt 1
  63:src/KConsole.cpp ****             uint64 operation;
 756              		.loc 1 63 45 is_stmt 0
 757              	# 63 "src/KConsole.cpp" 1
  64:src/KConsole.cpp ****             __asm__ volatile("mv %0, a1" :  "=r"(operation));
 758              		lb a1, 0(a0)
 759              	# 0 "" 2
 760              		.loc 1 64 13 is_stmt 1
  65:src/KConsole.cpp ****             if ((operation & STATUS_WRITE_MASK) && pendingPutc > 0)
 761              		.loc 1 65 13
  65:src/KConsole.cpp ****             if ((operation & STATUS_WRITE_MASK) && pendingPutc > 0)
 762              		.loc 1 65 61 is_stmt 0
 763              	# 65 "src/KConsole.cpp" 1
 764              		mv a5, a1
 765              	# 0 "" 2
 766              	.LVL54:
  66:src/KConsole.cpp ****             {
 767              		.loc 1 66 13 is_stmt 1
 768              	#NO_APP
 769              	.LBB12:
  66:src/KConsole.cpp ****             {
 770              		.loc 1 66 28 is_stmt 0
GAS LISTING /tmp/cclE0UL4.s 			page 19


 771 0468 93F70702 		andi	a5,a5,32
 772              	.LVL55:
  66:src/KConsole.cpp ****             {
 773              		.loc 1 66 13
 774 046c E38A07FA 		beqz	a5,.L50
  66:src/KConsole.cpp ****             {
 775              		.loc 1 66 64 discriminator 1
 776 0470 97070000 		ld	a5,.LANCHOR0+48
 776      83B70700 
  66:src/KConsole.cpp ****             {
 777              		.loc 1 66 49 discriminator 1
 778 0478 E38407FA 		beqz	a5,.L50
 779              	.LBB11:
  68:src/KConsole.cpp ****                 pendingPutc--;
 780              		.loc 1 68 17 is_stmt 1
  68:src/KConsole.cpp ****                 pendingPutc--;
 781              		.loc 1 68 55 is_stmt 0
 782 047c 97000000 		call	sysCallGetCharOutput@plt
 782      E7800000 
 783              	.LVL56:
  68:src/KConsole.cpp ****                 pendingPutc--;
 784              		.loc 1 68 56
 785 0484 A307A4FE 		sb	a0,-17(s0)
  69:src/KConsole.cpp ****                 x = CONSOLE_RX_DATA;
 786              		.loc 1 69 17 is_stmt 1
  69:src/KConsole.cpp ****                 x = CONSOLE_RX_DATA;
 787              		.loc 1 69 28 is_stmt 0
 788 0488 17070000 		lla	a4,.LANCHOR0
 788      13070700 
 789 0490 83370703 		ld	a5,48(a4)
 790 0494 9387F7FF 		addi	a5,a5,-1
 791 0498 2338F702 		sd	a5,48(a4)
  70:src/KConsole.cpp ****                 __asm__ volatile("mv a0, %0"::"r"(x));
 792              		.loc 1 70 17 is_stmt 1
  70:src/KConsole.cpp ****                 __asm__ volatile("mv a0, %0"::"r"(x));
 793              		.loc 1 70 19 is_stmt 0
 794 049c 97070000 		la	a5,CONSOLE_RX_DATA
 794      83B70700 
 795 04a4 83B70700 		ld	a5,0(a5)
 796              	.LVL57:
  71:src/KConsole.cpp ****                 __asm__ volatile("mv a1, %0" :  :"r"((uint64)c));
 797              		.loc 1 71 17 is_stmt 1
  71:src/KConsole.cpp ****                 __asm__ volatile("mv a1, %0" :  :"r"((uint64)c));
 798              		.loc 1 71 54 is_stmt 0
 799              	#APP
 800              	# 71 "src/KConsole.cpp" 1
  72:src/KConsole.cpp ****                 __asm__ volatile("sb a1,0(a0)");
 801              		mv a0, a5
 802              	# 0 "" 2
 803              		.loc 1 72 17 is_stmt 1
  72:src/KConsole.cpp ****                 __asm__ volatile("sb a1,0(a0)");
 804              		.loc 1 72 54 is_stmt 0
 805              	#NO_APP
 806 04ac 8347F4FE 		lbu	a5,-17(s0)
 807              	.LVL58:
 808 04b0 93F7F70F 		andi	a5,a5,0xff
  72:src/KConsole.cpp ****                 __asm__ volatile("sb a1,0(a0)");
GAS LISTING /tmp/cclE0UL4.s 			page 20


 809              		.loc 1 72 65
 810              	#APP
 811              	# 72 "src/KConsole.cpp" 1
  73:src/KConsole.cpp ****             }
 812              		mv a1, a5
 813              	# 0 "" 2
 814              		.loc 1 73 17 is_stmt 1
  73:src/KConsole.cpp ****             }
 815              		.loc 1 73 48 is_stmt 0
 816              	# 73 "src/KConsole.cpp" 1
 817              		sb a1,0(a0)
 818              	# 0 "" 2
 819              	#NO_APP
 820              	.LBE11:
 821 04bc 6FF0DFF6 		j	.L48
 822              	.LBE12:
 823              	.LBE13:
 824              		.cfi_endproc
 825              	.LFE27:
 827              		.align	2
 828              		.globl	_ZN8KConsole14getCharHandlerEv
 830              	_ZN8KConsole14getCharHandlerEv:
 831              	.LFB35:
 155:src/KConsole.cpp **** 
 156:src/KConsole.cpp **** void KConsole::getCharHandler()
 157:src/KConsole.cpp **** {
 832              		.loc 1 157 1 is_stmt 1
 833              		.cfi_startproc
 834 04c0 130101FF 		addi	sp,sp,-16
 835              		.cfi_def_cfa_offset 16
 836 04c4 23341100 		sd	ra,8(sp)
 837 04c8 23308100 		sd	s0,0(sp)
 838              		.cfi_offset 1, -8
 839              		.cfi_offset 8, -16
 840 04cc 13040101 		addi	s0,sp,16
 841              		.cfi_def_cfa 8, 0
 158:src/KConsole.cpp ****     char ch;
 842              		.loc 1 158 5
 159:src/KConsole.cpp ****     ch = getCharacterOutput();
 843              		.loc 1 159 5
 844              		.loc 1 159 28 is_stmt 0
 845 04d0 97000000 		call	_ZN8KConsole18getCharacterOutputEv
 845      E7800000 
 846              	.LVL59:
 160:src/KConsole.cpp ****     __asm__ volatile("mv a0, %0" : :"r"((uint64)ch));
 847              		.loc 1 160 5 is_stmt 1
 848              		.loc 1 160 53 is_stmt 0
 849              	#APP
 850              	# 160 "src/KConsole.cpp" 1
 161              	    Riscv::w_a0_sscratch();
 851              		mv a0, a0
 852              	# 0 "" 2
 853              		.loc 1 161 5 is_stmt 1
 854              		.loc 1 161 25 is_stmt 0
 855              	#NO_APP
 856 04dc 97000000 		call	_ZN5Riscv13w_a0_sscratchEv@plt
 856      E7800000 
GAS LISTING /tmp/cclE0UL4.s 			page 21


 857              	.LVL60:
 162:src/KConsole.cpp **** }
 858              		.loc 1 162 1
 859 04e4 83308100 		ld	ra,8(sp)
 860              		.cfi_restore 1
 861 04e8 03340100 		ld	s0,0(sp)
 862              		.cfi_restore 8
 863              		.cfi_def_cfa 2, 16
 864 04ec 13010101 		addi	sp,sp,16
 865              		.cfi_def_cfa_offset 0
 866 04f0 67800000 		jr	ra
 867              		.cfi_endproc
 868              	.LFE35:
 870              		.align	2
 871              		.globl	_ZN8KConsole15trapPrintStringEPKc
 873              	_ZN8KConsole15trapPrintStringEPKc:
 874              	.LFB36:
 163:src/KConsole.cpp **** 
 164:src/KConsole.cpp **** void KConsole::trapPrintString(const char *string)
 165:src/KConsole.cpp **** {
 875              		.loc 1 165 1 is_stmt 1
 876              		.cfi_startproc
 877              	.LVL61:
 878 04f4 130101FE 		addi	sp,sp,-32
 879              		.cfi_def_cfa_offset 32
 880 04f8 233C1100 		sd	ra,24(sp)
 881 04fc 23388100 		sd	s0,16(sp)
 882 0500 23349100 		sd	s1,8(sp)
 883              		.cfi_offset 1, -8
 884              		.cfi_offset 8, -16
 885              		.cfi_offset 9, -24
 886 0504 13040102 		addi	s0,sp,32
 887              		.cfi_def_cfa 8, 0
 888 0508 93040500 		mv	s1,a0
 889              	.LVL62:
 890              	.L58:
 166:src/KConsole.cpp ****     while (*string != '\0')
 891              		.loc 1 166 5
 892              		.loc 1 166 20
 893              		.loc 1 166 12 is_stmt 0
 894 050c 03C50400 		lbu	a0,0(s1)
 895              		.loc 1 166 20
 896 0510 630A0500 		beqz	a0,.L56
 167:src/KConsole.cpp ****     {
 168:src/KConsole.cpp ****         KConsole::putCharacterOutput(*string);
 897              		.loc 1 168 9 is_stmt 1
 898              		.loc 1 168 37 is_stmt 0
 899 0514 97000000 		call	_ZN8KConsole18putCharacterOutputEc
 899      E7800000 
 900              	.LVL63:
 169:src/KConsole.cpp ****         string++;
 901              		.loc 1 169 9 is_stmt 1
 902              		.loc 1 169 15 is_stmt 0
 903 051c 93841400 		addi	s1,s1,1
 904              	.LVL64:
 166:src/KConsole.cpp ****     while (*string != '\0')
 905              		.loc 1 166 5
GAS LISTING /tmp/cclE0UL4.s 			page 22


 906 0520 6FF0DFFE 		j	.L58
 907              	.L56:
 170:src/KConsole.cpp ****     }
 171:src/KConsole.cpp **** }
 908              		.loc 1 171 1
 909 0524 83308101 		ld	ra,24(sp)
 910              		.cfi_restore 1
 911 0528 03340101 		ld	s0,16(sp)
 912              		.cfi_restore 8
 913              		.cfi_def_cfa 2, 32
 914 052c 83348100 		ld	s1,8(sp)
 915              		.cfi_restore 9
 916              	.LVL65:
 917 0530 13010102 		addi	sp,sp,32
 918              		.cfi_def_cfa_offset 0
 919 0534 67800000 		jr	ra
 920              		.cfi_endproc
 921              	.LFE36:
 923              		.section	.rodata.str1.8,"aMS",@progbits,1
 924              		.align	3
 925              	.LC0:
 926 0000 30313233 		.string	"0123456789ABCDEF"
 926      34353637 
 926      38394142 
 926      43444546 
 926      00
 927              		.text
 928              		.align	2
 929              		.globl	_ZN8KConsole8printIntEiii
 931              	_ZN8KConsole8printIntEiii:
 932              	.LFB37:
 172:src/KConsole.cpp **** 
 173:src/KConsole.cpp **** void KConsole::printInt(int xx, int base, int sgn)
 174:src/KConsole.cpp **** {
 933              		.loc 1 174 1 is_stmt 1
 934              		.cfi_startproc
 935              	.LVL66:
 936 0538 130101FB 		addi	sp,sp,-80
 937              		.cfi_def_cfa_offset 80
 938 053c 23341104 		sd	ra,72(sp)
 939 0540 23308104 		sd	s0,64(sp)
 940 0544 233C9102 		sd	s1,56(sp)
 941              		.cfi_offset 1, -8
 942              		.cfi_offset 8, -16
 943              		.cfi_offset 9, -24
 944 0548 13040105 		addi	s0,sp,80
 945              		.cfi_def_cfa 8, 0
 175:src/KConsole.cpp ****     char digits[] = "0123456789ABCDEF";
 946              		.loc 1 175 5
 947              		.loc 1 175 10 is_stmt 0
 948 054c 97070000 		lla	a5,.LC0
 948      93870700 
 949 0554 03B70700 		ld	a4,0(a5)
 950 0558 2334E4FC 		sd	a4,-56(s0)
 951 055c 03B78700 		ld	a4,8(a5)
 952 0560 2338E4FC 		sd	a4,-48(s0)
 953 0564 83C70701 		lbu	a5,16(a5)
GAS LISTING /tmp/cclE0UL4.s 			page 23


 954 0568 230CF4FC 		sb	a5,-40(s0)
 176:src/KConsole.cpp ****     char buf[16];
 955              		.loc 1 176 5 is_stmt 1
 177:src/KConsole.cpp ****     int i, neg;
 956              		.loc 1 177 5
 178:src/KConsole.cpp ****     uint x;
 957              		.loc 1 178 5
 179:src/KConsole.cpp **** 
 180:src/KConsole.cpp ****     neg = 0;
 958              		.loc 1 180 5
 959              	.LVL67:
 181:src/KConsole.cpp ****     if(sgn && xx < 0){
 960              		.loc 1 181 5
 961 056c 63040600 		beqz	a2,.L61
 962              		.loc 1 181 12 is_stmt 0 discriminator 1
 963 0570 63420508 		bltz	a0,.L68
 964              	.L61:
 182:src/KConsole.cpp ****         neg = 1;
 183:src/KConsole.cpp ****         x = -xx;
 184:src/KConsole.cpp ****     } else {
 185:src/KConsole.cpp ****         x = xx;
 965              		.loc 1 185 9 is_stmt 1
 966              		.loc 1 185 11 is_stmt 0
 967 0574 1B050500 		sext.w	a0,a0
 968              	.LVL68:
 180:src/KConsole.cpp ****     if(sgn && xx < 0){
 969              		.loc 1 180 9
 970 0578 13080000 		li	a6,0
 971              	.LVL69:
 972              	.L62:
 186:src/KConsole.cpp ****     }
 187:src/KConsole.cpp **** 
 188:src/KConsole.cpp ****     i = 0;
 973              		.loc 1 188 5 is_stmt 1
 974              		.loc 1 188 7 is_stmt 0
 975 057c 93040000 		li	s1,0
 976              	.LVL70:
 977              	.L63:
 189:src/KConsole.cpp ****     do{
 978              		.loc 1 189 5 is_stmt 1
 190:src/KConsole.cpp ****         buf[i++] = digits[x % base];
 979              		.loc 1 190 9
 980              		.loc 1 190 31 is_stmt 0
 981 0580 1B870500 		sext.w	a4,a1
 982              		.loc 1 190 29
 983 0584 BB77B502 		remuw	a5,a0,a1
 984 0588 93860400 		mv	a3,s1
 985              		.loc 1 190 14
 986 058c 9B841400 		addiw	s1,s1,1
 987              	.LVL71:
 988              		.loc 1 190 35
 989 0590 93970702 		slli	a5,a5,32
 990 0594 93D70702 		srli	a5,a5,32
 991 0598 130604FE 		addi	a2,s0,-32
 992 059c B307F600 		add	a5,a2,a5
 993 05a0 03C687FE 		lbu	a2,-24(a5)
 994              		.loc 1 190 18
GAS LISTING /tmp/cclE0UL4.s 			page 24


 995 05a4 930704FE 		addi	a5,s0,-32
 996 05a8 B387D700 		add	a5,a5,a3
 997 05ac 238CC7FC 		sb	a2,-40(a5)
 191:src/KConsole.cpp ****     }while((x /= base) != 0);
 998              		.loc 1 191 24 is_stmt 1
 999 05b0 1B060500 		sext.w	a2,a0
 1000              		.loc 1 191 15 is_stmt 0
 1001 05b4 3B55B502 		divuw	a0,a0,a1
 1002              	.LVL72:
 1003              		.loc 1 191 24
 1004 05b8 E374E6FC 		bleu	a4,a2,.L63
 192:src/KConsole.cpp ****     if(neg)
 1005              		.loc 1 192 5 is_stmt 1
 1006 05bc 630C0800 		beqz	a6,.L66
 193:src/KConsole.cpp ****         buf[i++] = '-';
 1007              		.loc 1 193 9
 1008              	.LVL73:
 1009              		.loc 1 193 18 is_stmt 0
 1010 05c0 930704FE 		addi	a5,s0,-32
 1011 05c4 B3849700 		add	s1,a5,s1
 1012 05c8 9307D002 		li	a5,45
 1013 05cc 238CF4FC 		sb	a5,-40(s1)
 1014              		.loc 1 193 14
 1015 05d0 9B842600 		addiw	s1,a3,2
 1016              	.LVL74:
 1017              	.L66:
 194:src/KConsole.cpp **** 
 195:src/KConsole.cpp ****     while(--i >= 0)
 1018              		.loc 1 195 5 is_stmt 1
 1019              		.loc 1 195 15
 1020 05d4 9B84F4FF 		addiw	s1,s1,-1
 1021              	.LVL75:
 1022 05d8 63C40402 		bltz	s1,.L60
 196:src/KConsole.cpp ****         KConsole::putCharacterOutput(buf[i]);
 1023              		.loc 1 196 9
 1024              		.loc 1 196 37 is_stmt 0
 1025 05dc 930704FE 		addi	a5,s0,-32
 1026 05e0 B3879700 		add	a5,a5,s1
 1027 05e4 03C587FD 		lbu	a0,-40(a5)
 1028 05e8 97000000 		call	_ZN8KConsole18putCharacterOutputEc
 1028      E7800000 
 1029              	.LVL76:
 1030 05f0 6FF05FFE 		j	.L66
 1031              	.LVL77:
 1032              	.L68:
 182:src/KConsole.cpp ****         x = -xx;
 1033              		.loc 1 182 9 is_stmt 1
 183:src/KConsole.cpp ****     } else {
 1034              		.loc 1 183 9
 183:src/KConsole.cpp ****     } else {
 1035              		.loc 1 183 11 is_stmt 0
 1036 05f4 3B05A040 		negw	a0,a0
 1037              	.LVL78:
 182:src/KConsole.cpp ****         x = -xx;
 1038              		.loc 1 182 13
 1039 05f8 13081000 		li	a6,1
 183:src/KConsole.cpp ****     } else {
GAS LISTING /tmp/cclE0UL4.s 			page 25


 1040              		.loc 1 183 11
 1041 05fc 6FF01FF8 		j	.L62
 1042              	.LVL79:
 1043              	.L60:
 197:src/KConsole.cpp **** }
 1044              		.loc 1 197 1
 1045 0600 83308104 		ld	ra,72(sp)
 1046              		.cfi_restore 1
 1047 0604 03340104 		ld	s0,64(sp)
 1048              		.cfi_restore 8
 1049              		.cfi_def_cfa 2, 80
 1050 0608 83348103 		ld	s1,56(sp)
 1051              		.cfi_restore 9
 1052 060c 13010105 		addi	sp,sp,80
 1053              		.cfi_def_cfa_offset 0
 1054 0610 67800000 		jr	ra
 1055              		.cfi_endproc
 1056              	.LFE37:
 1058              		.globl	_ZN8KConsole11pendingPutcE
 1059              		.globl	_ZN8KConsole12outputBufferE
 1060              		.globl	_ZN8KConsole11inputBufferE
 1061              		.globl	_ZN8KConsole11pendingGetcE
 1062              		.globl	_ZN8KConsole18hasCharactersInputE
 1063              		.globl	_ZN8KConsole19hasCharactersOutputE
 1064              		.globl	_ZN8KConsole10outputTailE
 1065              		.globl	_ZN8KConsole10outputHeadE
 1066              		.globl	_ZN8KConsole9inputTailE
 1067              		.globl	_ZN8KConsole9inputHeadE
 1068              		.bss
 1069              		.align	3
 1070              		.set	.LANCHOR0,. + 0
 1073              	_ZN8KConsole18hasCharactersInputE:
 1074 0000 00000000 		.zero	8
 1074      00000000 
 1077              	_ZN8KConsole19hasCharactersOutputE:
 1078 0008 00000000 		.zero	8
 1078      00000000 
 1081              	_ZN8KConsole9inputTailE:
 1082 0010 00000000 		.zero	8
 1082      00000000 
 1085              	_ZN8KConsole9inputHeadE:
 1086 0018 00000000 		.zero	8
 1086      00000000 
 1089              	_ZN8KConsole10outputTailE:
 1090 0020 00000000 		.zero	8
 1090      00000000 
 1093              	_ZN8KConsole10outputHeadE:
 1094 0028 00000000 		.zero	8
 1094      00000000 
 1097              	_ZN8KConsole11pendingPutcE:
 1098 0030 00000000 		.zero	8
 1098      00000000 
 1101              	_ZN8KConsole11pendingGetcE:
 1102 0038 00000000 		.zero	8
 1102      00000000 
 1105              	_ZN8KConsole12outputBufferE:
 1106 0040 00000000 		.zero	8192
GAS LISTING /tmp/cclE0UL4.s 			page 26


 1106      00000000 
 1106      00000000 
 1106      00000000 
 1106      00000000 
 1109              	_ZN8KConsole11inputBufferE:
 1110 2040 00000000 		.zero	8192
 1110      00000000 
 1110      00000000 
 1110      00000000 
 1110      00000000 
 1111              		.text
 1112              	.Letext0:
 1113              		.file 2 "src/../h/../lib/hw.h"
 1114              		.file 3 "src/../h/PCB.hpp"
 1115              		.file 4 "src/../h/KSemaphore.hpp"
 1116              		.file 5 "src/../h/KConsole.hpp"
 1117              		.file 6 "src/../h/Riscv.hpp"
 1118              		.file 7 "src/../h/syscall_c.h"
 4998              		.align	3
 5001              	DW.ref.__gxx_personality_v0:
 5002 0000 00000000 		.dword	__gxx_personality_v0
 5002      00000000 
 5003              		.ident	"GCC: (Ubuntu 9.3.0-17ubuntu1~20.04) 9.3.0"
 5004              		.section	.note.GNU-stack,"",@progbits
GAS LISTING /tmp/cclE0UL4.s 			page 27


DEFINED SYMBOLS
                            *ABS*:0000000000000000 KConsole.cpp
     /tmp/cclE0UL4.s:9      .text:0000000000000000 _ZN8KConsole10initializeEv
     /tmp/cclE0UL4.s:13     .text:0000000000000000 .L0 
     /tmp/cclE0UL4.s:5001   .data.rel.local.DW.ref.__gxx_personality_v0:0000000000000000 DW.ref.__gxx_personality_v0
     /tmp/cclE0UL4.s:16     .text:0000000000000000 .L0 
     /tmp/cclE0UL4.s:17     .text:0000000000000004 .L0 
     /tmp/cclE0UL4.s:22     .text:0000000000000014 .L0 
     /tmp/cclE0UL4.s:23     .text:0000000000000014 .L0 
     /tmp/cclE0UL4.s:24     .text:0000000000000014 .L0 
     /tmp/cclE0UL4.s:25     .text:0000000000000014 .L0 
     /tmp/cclE0UL4.s:27     .text:0000000000000018 .L0 
     /tmp/cclE0UL4.s:29     .text:0000000000000018 .L0 
     /tmp/cclE0UL4.s:30     .text:0000000000000018 .L0 
     /tmp/cclE0UL4.s:42     .text:0000000000000034 .L0 
     /tmp/cclE0UL4.s:44     .text:000000000000003c .L0 
     /tmp/cclE0UL4.s:45     .text:000000000000003c .L0 
     /tmp/cclE0UL4.s:57     .text:0000000000000058 .L0 
     /tmp/cclE0UL4.s:59     .text:0000000000000060 .L0 
     /tmp/cclE0UL4.s:60     .text:0000000000000064 .L0 
     /tmp/cclE0UL4.s:61     .text:0000000000000064 .L0 
     /tmp/cclE0UL4.s:63     .text:0000000000000068 .L0 
     /tmp/cclE0UL4.s:64     .text:0000000000000068 .L0 
     /tmp/cclE0UL4.s:66     .text:000000000000006c .L0 
     /tmp/cclE0UL4.s:68     .text:0000000000000070 .L0 
     /tmp/cclE0UL4.s:70     .text:0000000000000074 .L0 
     /tmp/cclE0UL4.s:73     .text:0000000000000078 .L0 
     /tmp/cclE0UL4.s:76     .text:000000000000007c .L0 
     /tmp/cclE0UL4.s:87     .text:0000000000000098 .L0 
     /tmp/cclE0UL4.s:95     .text:00000000000000b0 .L0 
     /tmp/cclE0UL4.s:133    .text:00000000000000b0 _ZN8KConsole17putCharacterInputEc
     /tmp/cclE0UL4.s:136    .text:00000000000000b0 .L0 
     /tmp/cclE0UL4.s:138    .text:00000000000000b0 .L0 
     /tmp/cclE0UL4.s:139    .text:00000000000000b0 .L0 
     /tmp/cclE0UL4.s:140    .text:00000000000000b0 .L0 
     /tmp/cclE0UL4.s:144    .text:00000000000000c0 .L0 
     /tmp/cclE0UL4.s:148    .text:00000000000000cc .L0 
     /tmp/cclE0UL4.s:150    .text:00000000000000d0 .L0 
     /tmp/cclE0UL4.s:152    .text:00000000000000d4 .L0 
     /tmp/cclE0UL4.s:153    .text:00000000000000d8 .L0 
     /tmp/cclE0UL4.s:156    .text:00000000000000e0 .L0 
     /tmp/cclE0UL4.s:157    .text:00000000000000e0 .L0 
     /tmp/cclE0UL4.s:159    .text:00000000000000e4 .L0 
     /tmp/cclE0UL4.s:161    .text:00000000000000e4 .L0 
     /tmp/cclE0UL4.s:1109   .bss:0000000000002040 _ZN8KConsole11inputBufferE
     /tmp/cclE0UL4.s:162    .text:00000000000000e4 .L0 
     /tmp/cclE0UL4.s:166    .text:00000000000000f4 .L0 
     /tmp/cclE0UL4.s:167    .text:00000000000000f4 .L0 
     /tmp/cclE0UL4.s:169    .text:00000000000000f8 .L0 
     /tmp/cclE0UL4.s:170    .text:00000000000000f8 .L0 
     /tmp/cclE0UL4.s:175    .text:0000000000000104 .L0 
     /tmp/cclE0UL4.s:176    .text:0000000000000108 .L0 
     /tmp/cclE0UL4.s:178    .text:000000000000010c .L0 
     /tmp/cclE0UL4.s:179    .text:000000000000010c .L0 
     /tmp/cclE0UL4.s:181    .text:0000000000000110 .L0 
     /tmp/cclE0UL4.s:186    .text:0000000000000118 .L0 
     /tmp/cclE0UL4.s:192    .text:0000000000000118 _ZN8KConsole17getCharacterInputEv
GAS LISTING /tmp/cclE0UL4.s 			page 28


     /tmp/cclE0UL4.s:195    .text:0000000000000118 .L0 
     /tmp/cclE0UL4.s:196    .text:0000000000000118 .L0 
     /tmp/cclE0UL4.s:197    .text:000000000000011c .L0 
     /tmp/cclE0UL4.s:201    .text:0000000000000128 .L0 
     /tmp/cclE0UL4.s:202    .text:0000000000000128 .L0 
     /tmp/cclE0UL4.s:203    .text:0000000000000128 .L0 
     /tmp/cclE0UL4.s:205    .text:000000000000012c .L0 
     /tmp/cclE0UL4.s:207    .text:000000000000012c .L0 
     /tmp/cclE0UL4.s:208    .text:000000000000012c .L0 
     /tmp/cclE0UL4.s:213    .text:0000000000000140 .L0 
     /tmp/cclE0UL4.s:214    .text:0000000000000140 .L0 
     /tmp/cclE0UL4.s:217    .text:0000000000000148 .L0 
     /tmp/cclE0UL4.s:219    .text:000000000000014c .L0 
     /tmp/cclE0UL4.s:220    .text:000000000000014c .L0 
     /tmp/cclE0UL4.s:225    .text:000000000000015c .L0 
     /tmp/cclE0UL4.s:226    .text:000000000000015c .L0 
     /tmp/cclE0UL4.s:228    .text:0000000000000160 .L0 
     /tmp/cclE0UL4.s:232    .text:000000000000016c .L0 
     /tmp/cclE0UL4.s:236    .text:0000000000000174 .L0 
     /tmp/cclE0UL4.s:237    .text:0000000000000174 .L0 
     /tmp/cclE0UL4.s:238    .text:0000000000000178 .L0 
     /tmp/cclE0UL4.s:239    .text:0000000000000178 .L0 
     /tmp/cclE0UL4.s:241    .text:000000000000017c .L0 
     /tmp/cclE0UL4.s:242    .text:000000000000017c .L0 
     /tmp/cclE0UL4.s:244    .text:0000000000000180 .L0 
     /tmp/cclE0UL4.s:246    .text:0000000000000184 .L0 
     /tmp/cclE0UL4.s:249    .text:0000000000000188 .L0 
     /tmp/cclE0UL4.s:251    .text:0000000000000188 .L0 
     /tmp/cclE0UL4.s:253    .text:0000000000000190 .L0 
     /tmp/cclE0UL4.s:259    .text:0000000000000190 _ZN8KConsole18putCharacterOutputEc
     /tmp/cclE0UL4.s:262    .text:0000000000000190 .L0 
     /tmp/cclE0UL4.s:264    .text:0000000000000190 .L0 
     /tmp/cclE0UL4.s:265    .text:0000000000000190 .L0 
     /tmp/cclE0UL4.s:266    .text:0000000000000190 .L0 
     /tmp/cclE0UL4.s:270    .text:00000000000001a0 .L0 
     /tmp/cclE0UL4.s:274    .text:00000000000001ac .L0 
     /tmp/cclE0UL4.s:276    .text:00000000000001b0 .L0 
     /tmp/cclE0UL4.s:278    .text:00000000000001b4 .L0 
     /tmp/cclE0UL4.s:279    .text:00000000000001b8 .L0 
     /tmp/cclE0UL4.s:282    .text:00000000000001c0 .L0 
     /tmp/cclE0UL4.s:283    .text:00000000000001c0 .L0 
     /tmp/cclE0UL4.s:285    .text:00000000000001c4 .L0 
     /tmp/cclE0UL4.s:287    .text:00000000000001c4 .L0 
     /tmp/cclE0UL4.s:288    .text:00000000000001c4 .L0 
     /tmp/cclE0UL4.s:293    .text:00000000000001d4 .L0 
     /tmp/cclE0UL4.s:1105   .bss:0000000000000040 _ZN8KConsole12outputBufferE
     /tmp/cclE0UL4.s:294    .text:00000000000001d4 .L0 
     /tmp/cclE0UL4.s:298    .text:00000000000001e4 .L0 
     /tmp/cclE0UL4.s:299    .text:00000000000001e4 .L0 
     /tmp/cclE0UL4.s:301    .text:00000000000001e8 .L0 
     /tmp/cclE0UL4.s:302    .text:00000000000001e8 .L0 
     /tmp/cclE0UL4.s:307    .text:00000000000001f4 .L0 
     /tmp/cclE0UL4.s:308    .text:00000000000001f8 .L0 
     /tmp/cclE0UL4.s:310    .text:00000000000001fc .L0 
     /tmp/cclE0UL4.s:311    .text:00000000000001fc .L0 
     /tmp/cclE0UL4.s:313    .text:0000000000000200 .L0 
     /tmp/cclE0UL4.s:318    .text:0000000000000208 .L0 
GAS LISTING /tmp/cclE0UL4.s 			page 29


     /tmp/cclE0UL4.s:324    .text:0000000000000208 _ZN8KConsole24getCharactersFromConsoleEPv
     /tmp/cclE0UL4.s:327    .text:0000000000000208 .L0 
     /tmp/cclE0UL4.s:329    .text:0000000000000208 .L0 
     /tmp/cclE0UL4.s:331    .text:0000000000000208 .L0 
     /tmp/cclE0UL4.s:332    .text:0000000000000208 .L0 
     /tmp/cclE0UL4.s:333    .text:0000000000000208 .L0 
     /tmp/cclE0UL4.s:337    .text:0000000000000214 .L0 
    src/KConsole.cpp:34     .text:0000000000000214 .L0 
     /tmp/cclE0UL4.s:343    .text:0000000000000218 .L0 
    src/KConsole.cpp:35     .text:0000000000000218 .L0 
     /tmp/cclE0UL4.s:348    .text:000000000000021c .L0 
     /tmp/cclE0UL4.s:349    .text:000000000000021c .L0 
    src/KConsole.cpp:37     .text:000000000000021c .L0 
     /tmp/cclE0UL4.s:357    .text:0000000000000220 .L0 
     /tmp/cclE0UL4.s:358    .text:0000000000000220 .L0 
     /tmp/cclE0UL4.s:361    .text:0000000000000224 .L0 
     /tmp/cclE0UL4.s:365    .text:0000000000000228 .L0 
     /tmp/cclE0UL4.s:366    .text:000000000000022c .L0 
     /tmp/cclE0UL4.s:370    .text:0000000000000238 .L0 
     /tmp/cclE0UL4.s:371    .text:0000000000000238 .L0 
     /tmp/cclE0UL4.s:372    .text:0000000000000238 .L0 
     /tmp/cclE0UL4.s:374    .text:000000000000023c .L0 
     /tmp/cclE0UL4.s:381    .text:000000000000023c .L0 
     /tmp/cclE0UL4.s:382    .text:000000000000023c .L0 
     /tmp/cclE0UL4.s:386    .text:0000000000000248 .L0 
    src/KConsole.cpp:41     .text:0000000000000248 .L0 
     /tmp/cclE0UL4.s:392    .text:000000000000024c .L0 
    src/KConsole.cpp:42     .text:000000000000024c .L0 
     /tmp/cclE0UL4.s:397    .text:0000000000000250 .L0 
     /tmp/cclE0UL4.s:398    .text:0000000000000250 .L0 
    src/KConsole.cpp:44     .text:0000000000000250 .L0 
     /tmp/cclE0UL4.s:406    .text:0000000000000258 .L0 
     /tmp/cclE0UL4.s:407    .text:0000000000000258 .L0 
     /tmp/cclE0UL4.s:411    .text:0000000000000264 .L0 
     /tmp/cclE0UL4.s:412    .text:0000000000000264 .L0 
     /tmp/cclE0UL4.s:419    .text:0000000000000270 .L0 
     /tmp/cclE0UL4.s:421    .text:0000000000000270 .L0 
     /tmp/cclE0UL4.s:422    .text:0000000000000270 .L0 
     /tmp/cclE0UL4.s:423    .text:0000000000000270 .L0 
     /tmp/cclE0UL4.s:427    .text:000000000000027c .L0 
    src/KConsole.cpp:34     .text:000000000000027c .L0 
     /tmp/cclE0UL4.s:433    .text:0000000000000280 .L0 
    src/KConsole.cpp:35     .text:0000000000000280 .L0 
     /tmp/cclE0UL4.s:438    .text:0000000000000284 .L0 
     /tmp/cclE0UL4.s:439    .text:0000000000000284 .L0 
    src/KConsole.cpp:37     .text:0000000000000284 .L0 
     /tmp/cclE0UL4.s:447    .text:0000000000000288 .L0 
     /tmp/cclE0UL4.s:448    .text:0000000000000288 .L0 
     /tmp/cclE0UL4.s:451    .text:000000000000028c .L0 
     /tmp/cclE0UL4.s:455    .text:0000000000000290 .L0 
     /tmp/cclE0UL4.s:456    .text:0000000000000294 .L0 
     /tmp/cclE0UL4.s:458    .text:0000000000000298 .L0 
     /tmp/cclE0UL4.s:459    .text:0000000000000298 .L0 
     /tmp/cclE0UL4.s:461    .text:000000000000029c .L0 
     /tmp/cclE0UL4.s:464    .text:00000000000002a0 .L0 
     /tmp/cclE0UL4.s:469    .text:00000000000002a8 .L0 
     /tmp/cclE0UL4.s:475    .text:00000000000002a8 _ZN8KConsole18getCharacterOutputEv
GAS LISTING /tmp/cclE0UL4.s 			page 30


     /tmp/cclE0UL4.s:478    .text:00000000000002a8 .L0 
     /tmp/cclE0UL4.s:479    .text:00000000000002a8 .L0 
     /tmp/cclE0UL4.s:480    .text:00000000000002ac .L0 
     /tmp/cclE0UL4.s:484    .text:00000000000002b8 .L0 
     /tmp/cclE0UL4.s:485    .text:00000000000002b8 .L0 
     /tmp/cclE0UL4.s:486    .text:00000000000002b8 .L0 
     /tmp/cclE0UL4.s:488    .text:00000000000002bc .L0 
     /tmp/cclE0UL4.s:490    .text:00000000000002bc .L0 
     /tmp/cclE0UL4.s:491    .text:00000000000002bc .L0 
     /tmp/cclE0UL4.s:496    .text:00000000000002d0 .L0 
     /tmp/cclE0UL4.s:497    .text:00000000000002d0 .L0 
     /tmp/cclE0UL4.s:500    .text:00000000000002d8 .L0 
     /tmp/cclE0UL4.s:502    .text:00000000000002dc .L0 
     /tmp/cclE0UL4.s:503    .text:00000000000002dc .L0 
     /tmp/cclE0UL4.s:508    .text:00000000000002ec .L0 
     /tmp/cclE0UL4.s:509    .text:00000000000002ec .L0 
     /tmp/cclE0UL4.s:511    .text:00000000000002f0 .L0 
     /tmp/cclE0UL4.s:515    .text:00000000000002fc .L0 
     /tmp/cclE0UL4.s:519    .text:0000000000000304 .L0 
     /tmp/cclE0UL4.s:520    .text:0000000000000304 .L0 
     /tmp/cclE0UL4.s:521    .text:0000000000000308 .L0 
     /tmp/cclE0UL4.s:522    .text:0000000000000308 .L0 
     /tmp/cclE0UL4.s:524    .text:000000000000030c .L0 
     /tmp/cclE0UL4.s:525    .text:000000000000030c .L0 
     /tmp/cclE0UL4.s:527    .text:0000000000000310 .L0 
     /tmp/cclE0UL4.s:529    .text:0000000000000314 .L0 
     /tmp/cclE0UL4.s:532    .text:0000000000000318 .L0 
     /tmp/cclE0UL4.s:534    .text:0000000000000318 .L0 
     /tmp/cclE0UL4.s:536    .text:0000000000000320 .L0 
     /tmp/cclE0UL4.s:542    .text:0000000000000320 _ZN8KConsole11putcHandlerEv
     /tmp/cclE0UL4.s:545    .text:0000000000000320 .L0 
     /tmp/cclE0UL4.s:546    .text:0000000000000320 .L0 
     /tmp/cclE0UL4.s:547    .text:0000000000000324 .L0 
     /tmp/cclE0UL4.s:550    .text:000000000000032c .L0 
     /tmp/cclE0UL4.s:551    .text:000000000000032c .L0 
     /tmp/cclE0UL4.s:553    .text:0000000000000330 .L0 
     /tmp/cclE0UL4.s:555    .text:0000000000000330 .L0 
     /tmp/cclE0UL4.s:556    .text:0000000000000330 .L0 
    src/KConsole.cpp:129    .text:0000000000000330 .L0 
     /tmp/cclE0UL4.s:563    .text:0000000000000334 .L0 
     /tmp/cclE0UL4.s:565    .text:0000000000000334 .L0 
     /tmp/cclE0UL4.s:570    .text:0000000000000340 .L0 
     /tmp/cclE0UL4.s:571    .text:0000000000000344 .L0 
     /tmp/cclE0UL4.s:573    .text:0000000000000348 .L0 
     /tmp/cclE0UL4.s:574    .text:0000000000000348 .L0 
     /tmp/cclE0UL4.s:576    .text:000000000000034c .L0 
     /tmp/cclE0UL4.s:578    .text:0000000000000350 .L0 
     /tmp/cclE0UL4.s:584    .text:0000000000000350 _ZN8KConsole11getcHandlerEv
     /tmp/cclE0UL4.s:587    .text:0000000000000350 .L0 
     /tmp/cclE0UL4.s:588    .text:0000000000000350 .L0 
     /tmp/cclE0UL4.s:589    .text:0000000000000354 .L0 
     /tmp/cclE0UL4.s:593    .text:0000000000000360 .L0 
     /tmp/cclE0UL4.s:594    .text:0000000000000360 .L0 
     /tmp/cclE0UL4.s:595    .text:0000000000000360 .L0 
     /tmp/cclE0UL4.s:597    .text:0000000000000364 .L0 
     /tmp/cclE0UL4.s:599    .text:0000000000000364 .L0 
     /tmp/cclE0UL4.s:600    .text:0000000000000364 .L0 
GAS LISTING /tmp/cclE0UL4.s 			page 31


     /tmp/cclE0UL4.s:605    .text:0000000000000378 .L0 
     /tmp/cclE0UL4.s:606    .text:0000000000000378 .L0 
     /tmp/cclE0UL4.s:607    .text:0000000000000378 .L0 
     /tmp/cclE0UL4.s:612    .text:0000000000000384 .L0 
     /tmp/cclE0UL4.s:617    .text:000000000000038c .L0 
     /tmp/cclE0UL4.s:621    .text:0000000000000394 .L0 
    src/KConsole.cpp:147    .text:0000000000000394 .L0 
     /tmp/cclE0UL4.s:627    .text:0000000000000398 .L0 
     /tmp/cclE0UL4.s:629    .text:0000000000000398 .L0 
     /tmp/cclE0UL4.s:632    .text:00000000000003a0 .L0 
     /tmp/cclE0UL4.s:633    .text:00000000000003a4 .L0 
     /tmp/cclE0UL4.s:634    .text:00000000000003a4 .L0 
     /tmp/cclE0UL4.s:636    .text:00000000000003a8 .L0 
     /tmp/cclE0UL4.s:637    .text:00000000000003a8 .L0 
     /tmp/cclE0UL4.s:639    .text:00000000000003ac .L0 
     /tmp/cclE0UL4.s:641    .text:00000000000003b0 .L0 
     /tmp/cclE0UL4.s:645    .text:00000000000003b4 .L0 
     /tmp/cclE0UL4.s:647    .text:00000000000003b4 .L0 
     /tmp/cclE0UL4.s:648    .text:00000000000003b4 .L0 
     /tmp/cclE0UL4.s:653    .text:00000000000003c0 .L0 
     /tmp/cclE0UL4.s:654    .text:00000000000003c0 .L0 
     /tmp/cclE0UL4.s:658    .text:00000000000003cc .L0 
     /tmp/cclE0UL4.s:659    .text:00000000000003cc .L0 
     /tmp/cclE0UL4.s:663    .text:00000000000003dc .L0 
     /tmp/cclE0UL4.s:669    .text:00000000000003dc _ZN8KConsole17outputBufferEmptyEv
     /tmp/cclE0UL4.s:672    .text:00000000000003dc .L0 
     /tmp/cclE0UL4.s:673    .text:00000000000003dc .L0 
     /tmp/cclE0UL4.s:674    .text:00000000000003e0 .L0 
     /tmp/cclE0UL4.s:676    .text:00000000000003e4 .L0 
     /tmp/cclE0UL4.s:678    .text:00000000000003e8 .L0 
     /tmp/cclE0UL4.s:680    .text:00000000000003e8 .L0 
     /tmp/cclE0UL4.s:681    .text:00000000000003e8 .L0 
     /tmp/cclE0UL4.s:684    .text:00000000000003f8 .L0 
     /tmp/cclE0UL4.s:685    .text:00000000000003f8 .L0 
     /tmp/cclE0UL4.s:687    .text:00000000000003fc .L0 
     /tmp/cclE0UL4.s:689    .text:0000000000000400 .L0 
     /tmp/cclE0UL4.s:695    .text:0000000000000400 _ZN8KConsole23sendCharactersToConsoleEPv
     /tmp/cclE0UL4.s:698    .text:0000000000000400 .L0 
     /tmp/cclE0UL4.s:700    .text:0000000000000400 .L0 
     /tmp/cclE0UL4.s:701    .text:0000000000000404 .L0 
     /tmp/cclE0UL4.s:704    .text:000000000000040c .L0 
     /tmp/cclE0UL4.s:705    .text:000000000000040c .L0 
     /tmp/cclE0UL4.s:707    .text:0000000000000410 .L0 
     /tmp/cclE0UL4.s:713    .text:0000000000000414 .L0 
     /tmp/cclE0UL4.s:714    .text:0000000000000414 .L0 
     /tmp/cclE0UL4.s:721    .text:0000000000000420 .L0 
     /tmp/cclE0UL4.s:722    .text:0000000000000420 .L0 
     /tmp/cclE0UL4.s:729    .text:0000000000000428 .L0 
     /tmp/cclE0UL4.s:730    .text:0000000000000428 .L0 
     /tmp/cclE0UL4.s:731    .text:0000000000000428 .L0 
     /tmp/cclE0UL4.s:735    .text:0000000000000438 .L0 
     /tmp/cclE0UL4.s:738    .text:0000000000000440 .L0 
     /tmp/cclE0UL4.s:740    .text:0000000000000444 .L0 
     /tmp/cclE0UL4.s:742    .text:000000000000044c .L0 
     /tmp/cclE0UL4.s:745    .text:0000000000000450 .L0 
     /tmp/cclE0UL4.s:746    .text:0000000000000450 .L0 
     /tmp/cclE0UL4.s:750    .text:000000000000045c .L0 
GAS LISTING /tmp/cclE0UL4.s 			page 32


    src/KConsole.cpp:62     .text:000000000000045c .L0 
     /tmp/cclE0UL4.s:756    .text:0000000000000460 .L0 
    src/KConsole.cpp:63     .text:0000000000000460 .L0 
     /tmp/cclE0UL4.s:761    .text:0000000000000464 .L0 
     /tmp/cclE0UL4.s:762    .text:0000000000000464 .L0 
    src/KConsole.cpp:65     .text:0000000000000464 .L0 
     /tmp/cclE0UL4.s:770    .text:0000000000000468 .L0 
     /tmp/cclE0UL4.s:771    .text:0000000000000468 .L0 
     /tmp/cclE0UL4.s:774    .text:000000000000046c .L0 
     /tmp/cclE0UL4.s:776    .text:0000000000000470 .L0 
     /tmp/cclE0UL4.s:778    .text:0000000000000478 .L0 
     /tmp/cclE0UL4.s:781    .text:000000000000047c .L0 
     /tmp/cclE0UL4.s:782    .text:000000000000047c .L0 
     /tmp/cclE0UL4.s:785    .text:0000000000000484 .L0 
     /tmp/cclE0UL4.s:787    .text:0000000000000488 .L0 
     /tmp/cclE0UL4.s:788    .text:0000000000000488 .L0 
     /tmp/cclE0UL4.s:793    .text:000000000000049c .L0 
     /tmp/cclE0UL4.s:794    .text:000000000000049c .L0 
     /tmp/cclE0UL4.s:798    .text:00000000000004a8 .L0 
    src/KConsole.cpp:71     .text:00000000000004a8 .L0 
     /tmp/cclE0UL4.s:804    .text:00000000000004ac .L0 
     /tmp/cclE0UL4.s:806    .text:00000000000004ac .L0 
    src/KConsole.cpp:72     .text:00000000000004b4 .L0 
     /tmp/cclE0UL4.s:815    .text:00000000000004b8 .L0 
    src/KConsole.cpp:73     .text:00000000000004b8 .L0 
     /tmp/cclE0UL4.s:824    .text:00000000000004c0 .L0 
     /tmp/cclE0UL4.s:830    .text:00000000000004c0 _ZN8KConsole14getCharHandlerEv
     /tmp/cclE0UL4.s:833    .text:00000000000004c0 .L0 
     /tmp/cclE0UL4.s:834    .text:00000000000004c0 .L0 
     /tmp/cclE0UL4.s:835    .text:00000000000004c4 .L0 
     /tmp/cclE0UL4.s:838    .text:00000000000004cc .L0 
     /tmp/cclE0UL4.s:839    .text:00000000000004cc .L0 
     /tmp/cclE0UL4.s:841    .text:00000000000004d0 .L0 
     /tmp/cclE0UL4.s:843    .text:00000000000004d0 .L0 
     /tmp/cclE0UL4.s:844    .text:00000000000004d0 .L0 
     /tmp/cclE0UL4.s:845    .text:00000000000004d0 .L0 
     /tmp/cclE0UL4.s:848    .text:00000000000004d8 .L0 
    src/KConsole.cpp:160    .text:00000000000004d8 .L0 
     /tmp/cclE0UL4.s:854    .text:00000000000004dc .L0 
     /tmp/cclE0UL4.s:856    .text:00000000000004dc .L0 
     /tmp/cclE0UL4.s:859    .text:00000000000004e4 .L0 
     /tmp/cclE0UL4.s:860    .text:00000000000004e8 .L0 
     /tmp/cclE0UL4.s:862    .text:00000000000004ec .L0 
     /tmp/cclE0UL4.s:863    .text:00000000000004ec .L0 
     /tmp/cclE0UL4.s:865    .text:00000000000004f0 .L0 
     /tmp/cclE0UL4.s:867    .text:00000000000004f4 .L0 
     /tmp/cclE0UL4.s:873    .text:00000000000004f4 _ZN8KConsole15trapPrintStringEPKc
     /tmp/cclE0UL4.s:876    .text:00000000000004f4 .L0 
     /tmp/cclE0UL4.s:878    .text:00000000000004f4 .L0 
     /tmp/cclE0UL4.s:879    .text:00000000000004f8 .L0 
     /tmp/cclE0UL4.s:883    .text:0000000000000504 .L0 
     /tmp/cclE0UL4.s:884    .text:0000000000000504 .L0 
     /tmp/cclE0UL4.s:885    .text:0000000000000504 .L0 
     /tmp/cclE0UL4.s:887    .text:0000000000000508 .L0 
     /tmp/cclE0UL4.s:892    .text:000000000000050c .L0 
     /tmp/cclE0UL4.s:893    .text:000000000000050c .L0 
     /tmp/cclE0UL4.s:894    .text:000000000000050c .L0 
GAS LISTING /tmp/cclE0UL4.s 			page 33


     /tmp/cclE0UL4.s:896    .text:0000000000000510 .L0 
     /tmp/cclE0UL4.s:898    .text:0000000000000514 .L0 
     /tmp/cclE0UL4.s:899    .text:0000000000000514 .L0 
     /tmp/cclE0UL4.s:902    .text:000000000000051c .L0 
     /tmp/cclE0UL4.s:903    .text:000000000000051c .L0 
     /tmp/cclE0UL4.s:906    .text:0000000000000520 .L0 
     /tmp/cclE0UL4.s:909    .text:0000000000000524 .L0 
     /tmp/cclE0UL4.s:910    .text:0000000000000528 .L0 
     /tmp/cclE0UL4.s:912    .text:000000000000052c .L0 
     /tmp/cclE0UL4.s:913    .text:000000000000052c .L0 
     /tmp/cclE0UL4.s:915    .text:0000000000000530 .L0 
     /tmp/cclE0UL4.s:918    .text:0000000000000534 .L0 
     /tmp/cclE0UL4.s:920    .text:0000000000000538 .L0 
     /tmp/cclE0UL4.s:931    .text:0000000000000538 _ZN8KConsole8printIntEiii
     /tmp/cclE0UL4.s:934    .text:0000000000000538 .L0 
     /tmp/cclE0UL4.s:936    .text:0000000000000538 .L0 
     /tmp/cclE0UL4.s:937    .text:000000000000053c .L0 
     /tmp/cclE0UL4.s:941    .text:0000000000000548 .L0 
     /tmp/cclE0UL4.s:942    .text:0000000000000548 .L0 
     /tmp/cclE0UL4.s:943    .text:0000000000000548 .L0 
     /tmp/cclE0UL4.s:945    .text:000000000000054c .L0 
     /tmp/cclE0UL4.s:947    .text:000000000000054c .L0 
     /tmp/cclE0UL4.s:948    .text:000000000000054c .L0 
     /tmp/cclE0UL4.s:956    .text:000000000000056c .L0 
     /tmp/cclE0UL4.s:957    .text:000000000000056c .L0 
     /tmp/cclE0UL4.s:958    .text:000000000000056c .L0 
     /tmp/cclE0UL4.s:960    .text:000000000000056c .L0 
     /tmp/cclE0UL4.s:961    .text:000000000000056c .L0 
     /tmp/cclE0UL4.s:963    .text:0000000000000570 .L0 
     /tmp/cclE0UL4.s:966    .text:0000000000000574 .L0 
     /tmp/cclE0UL4.s:967    .text:0000000000000574 .L0 
     /tmp/cclE0UL4.s:970    .text:0000000000000578 .L0 
     /tmp/cclE0UL4.s:974    .text:000000000000057c .L0 
     /tmp/cclE0UL4.s:975    .text:000000000000057c .L0 
     /tmp/cclE0UL4.s:979    .text:0000000000000580 .L0 
     /tmp/cclE0UL4.s:980    .text:0000000000000580 .L0 
     /tmp/cclE0UL4.s:981    .text:0000000000000580 .L0 
     /tmp/cclE0UL4.s:983    .text:0000000000000584 .L0 
     /tmp/cclE0UL4.s:986    .text:000000000000058c .L0 
     /tmp/cclE0UL4.s:989    .text:0000000000000590 .L0 
     /tmp/cclE0UL4.s:995    .text:00000000000005a4 .L0 
     /tmp/cclE0UL4.s:999    .text:00000000000005b0 .L0 
     /tmp/cclE0UL4.s:1001   .text:00000000000005b4 .L0 
     /tmp/cclE0UL4.s:1004   .text:00000000000005b8 .L0 
     /tmp/cclE0UL4.s:1006   .text:00000000000005bc .L0 
     /tmp/cclE0UL4.s:1009   .text:00000000000005c0 .L0 
     /tmp/cclE0UL4.s:1010   .text:00000000000005c0 .L0 
     /tmp/cclE0UL4.s:1015   .text:00000000000005d0 .L0 
     /tmp/cclE0UL4.s:1019   .text:00000000000005d4 .L0 
     /tmp/cclE0UL4.s:1020   .text:00000000000005d4 .L0 
     /tmp/cclE0UL4.s:1024   .text:00000000000005dc .L0 
     /tmp/cclE0UL4.s:1025   .text:00000000000005dc .L0 
     /tmp/cclE0UL4.s:1034   .text:00000000000005f4 .L0 
     /tmp/cclE0UL4.s:1035   .text:00000000000005f4 .L0 
     /tmp/cclE0UL4.s:1036   .text:00000000000005f4 .L0 
     /tmp/cclE0UL4.s:1039   .text:00000000000005f8 .L0 
     /tmp/cclE0UL4.s:1041   .text:00000000000005fc .L0 
GAS LISTING /tmp/cclE0UL4.s 			page 34


     /tmp/cclE0UL4.s:1045   .text:0000000000000600 .L0 
     /tmp/cclE0UL4.s:1046   .text:0000000000000604 .L0 
     /tmp/cclE0UL4.s:1048   .text:0000000000000608 .L0 
     /tmp/cclE0UL4.s:1049   .text:0000000000000608 .L0 
     /tmp/cclE0UL4.s:1051   .text:000000000000060c .L0 
     /tmp/cclE0UL4.s:1053   .text:0000000000000610 .L0 
     /tmp/cclE0UL4.s:1055   .text:0000000000000614 .L0 
     /tmp/cclE0UL4.s:1097   .bss:0000000000000030 _ZN8KConsole11pendingPutcE
     /tmp/cclE0UL4.s:1101   .bss:0000000000000038 _ZN8KConsole11pendingGetcE
     /tmp/cclE0UL4.s:1073   .bss:0000000000000000 _ZN8KConsole18hasCharactersInputE
     /tmp/cclE0UL4.s:1077   .bss:0000000000000008 _ZN8KConsole19hasCharactersOutputE
     /tmp/cclE0UL4.s:1089   .bss:0000000000000020 _ZN8KConsole10outputTailE
     /tmp/cclE0UL4.s:1093   .bss:0000000000000028 _ZN8KConsole10outputHeadE
     /tmp/cclE0UL4.s:1081   .bss:0000000000000010 _ZN8KConsole9inputTailE
     /tmp/cclE0UL4.s:1085   .bss:0000000000000018 _ZN8KConsole9inputHeadE
     /tmp/cclE0UL4.s:1070   .bss:0000000000000000 .LANCHOR0
     /tmp/cclE0UL4.s:1119   .text:0000000000000614 .L0 
     /tmp/cclE0UL4.s:42     .text:0000000000000034 .L0 
     /tmp/cclE0UL4.s:57     .text:0000000000000058 .L0 
     /tmp/cclE0UL4.s:140    .text:00000000000000b0 .L0 
     /tmp/cclE0UL4.s:162    .text:00000000000000e4 .L0 
     /tmp/cclE0UL4.s:208    .text:000000000000012c .L0 
     /tmp/cclE0UL4.s:220    .text:000000000000014c .L0 
     /tmp/cclE0UL4.s:232    .text:000000000000016c .L0 
     /tmp/cclE0UL4.s:266    .text:0000000000000190 .L0 
     /tmp/cclE0UL4.s:294    .text:00000000000001d4 .L0 
     /tmp/cclE0UL4.s:333    .text:0000000000000208 .L0 
     /tmp/cclE0UL4.s:382    .text:000000000000023c .L0 
     /tmp/cclE0UL4.s:423    .text:0000000000000270 .L0 
     /tmp/cclE0UL4.s:491    .text:00000000000002bc .L0 
     /tmp/cclE0UL4.s:503    .text:00000000000002dc .L0 
     /tmp/cclE0UL4.s:515    .text:00000000000002fc .L0 
     /tmp/cclE0UL4.s:600    .text:0000000000000364 .L0 
     /tmp/cclE0UL4.s:681    .text:00000000000003e8 .L0 
     /tmp/cclE0UL4.s:731    .text:0000000000000428 .L0 
     /tmp/cclE0UL4.s:740    .text:0000000000000444 .L0 
     /tmp/cclE0UL4.s:746    .text:0000000000000450 .L0 
     /tmp/cclE0UL4.s:776    .text:0000000000000470 .L0 
     /tmp/cclE0UL4.s:788    .text:0000000000000488 .L0 
     /tmp/cclE0UL4.s:794    .text:000000000000049c .L0 
     /tmp/cclE0UL4.s:925    .rodata.str1.8:0000000000000000 .LC0
     /tmp/cclE0UL4.s:948    .text:000000000000054c .L0 
     /tmp/cclE0UL4.s:184    .text:0000000000000114 .L11
     /tmp/cclE0UL4.s:248    .text:0000000000000188 .L16
     /tmp/cclE0UL4.s:235    .text:0000000000000174 .L15
     /tmp/cclE0UL4.s:316    .text:0000000000000204 .L21
     /tmp/cclE0UL4.s:467    .text:00000000000002a4 .L32
     /tmp/cclE0UL4.s:376    .text:000000000000023c .L28
     /tmp/cclE0UL4.s:531    .text:0000000000000318 .L35
     /tmp/cclE0UL4.s:518    .text:0000000000000304 .L34
     /tmp/cclE0UL4.s:644    .text:00000000000003b4 .L43
     /tmp/cclE0UL4.s:651    .text:00000000000003c0 .L44
     /tmp/cclE0UL4.s:615    .text:000000000000038c .L40
     /tmp/cclE0UL4.s:619    .text:0000000000000394 .L41
     /tmp/cclE0UL4.s:724    .text:0000000000000428 .L48
     /tmp/cclE0UL4.s:743    .text:0000000000000450 .L49
     /tmp/cclE0UL4.s:710    .text:0000000000000414 .L53
GAS LISTING /tmp/cclE0UL4.s 			page 35


     /tmp/cclE0UL4.s:718    .text:0000000000000420 .L50
     /tmp/cclE0UL4.s:907    .text:0000000000000524 .L56
     /tmp/cclE0UL4.s:890    .text:000000000000050c .L58
     /tmp/cclE0UL4.s:964    .text:0000000000000574 .L61
     /tmp/cclE0UL4.s:1032   .text:00000000000005f4 .L68
     /tmp/cclE0UL4.s:977    .text:0000000000000580 .L63
     /tmp/cclE0UL4.s:1017   .text:00000000000005d4 .L66
     /tmp/cclE0UL4.s:1043   .text:0000000000000600 .L60
     /tmp/cclE0UL4.s:972    .text:000000000000057c .L62
     /tmp/cclE0UL4.s:31     .text:000000000000001c .LEHB0
     /tmp/cclE0UL4.s:10     .text:0000000000000000 .LFB25
     /tmp/cclE0UL4.s:34     .text:0000000000000024 .LEHE0
     /tmp/cclE0UL4.s:37     .text:000000000000002c .LEHB1
     /tmp/cclE0UL4.s:40     .text:0000000000000034 .LEHE1
     /tmp/cclE0UL4.s:72     .text:0000000000000078 .L4
     /tmp/cclE0UL4.s:46     .text:0000000000000040 .LEHB2
     /tmp/cclE0UL4.s:49     .text:0000000000000048 .LEHE2
     /tmp/cclE0UL4.s:52     .text:0000000000000050 .LEHB3
     /tmp/cclE0UL4.s:55     .text:0000000000000058 .LEHE3
     /tmp/cclE0UL4.s:84     .text:0000000000000094 .L5
     /tmp/cclE0UL4.s:80     .text:000000000000008c .LEHB4
     /tmp/cclE0UL4.s:83     .text:0000000000000094 .LEHE4
     /tmp/cclE0UL4.s:91     .text:00000000000000a8 .LEHB5
     /tmp/cclE0UL4.s:94     .text:00000000000000b0 .LEHE5
     /tmp/cclE0UL4.s:3199   .debug_abbrev:0000000000000000 .Ldebug_abbrev0
     /tmp/cclE0UL4.s:4855   .debug_str:0000000000000e64 .LASF272
     /tmp/cclE0UL4.s:4899   .debug_str:0000000000001060 .LASF273
     /tmp/cclE0UL4.s:4897   .debug_str:000000000000103d .LASF274
     /tmp/cclE0UL4.s:5      .text:0000000000000000 .Ltext0
     /tmp/cclE0UL4.s:1112   .text:0000000000000614 .Letext0
     /tmp/cclE0UL4.s:4431   .debug_line:0000000000000000 .Ldebug_line0
     /tmp/cclE0UL4.s:4617   .debug_str:0000000000000640 .LASF0
     /tmp/cclE0UL4.s:4777   .debug_str:0000000000000bc3 .LASF3
     /tmp/cclE0UL4.s:4657   .debug_str:00000000000007a4 .LASF1
     /tmp/cclE0UL4.s:4791   .debug_str:0000000000000c1e .LASF2
     /tmp/cclE0UL4.s:4805   .debug_str:0000000000000c99 .LASF4
     /tmp/cclE0UL4.s:4635   .debug_str:00000000000006c4 .LASF5
     /tmp/cclE0UL4.s:4451   .debug_str:0000000000000084 .LASF6
     /tmp/cclE0UL4.s:4755   .debug_str:0000000000000b0d .LASF7
     /tmp/cclE0UL4.s:4747   .debug_str:0000000000000ad4 .LASF8
     /tmp/cclE0UL4.s:4643   .debug_str:000000000000070d .LASF9
     /tmp/cclE0UL4.s:4579   .debug_str:0000000000000500 .LASF10
     /tmp/cclE0UL4.s:4589   .debug_str:0000000000000563 .LASF11
     /tmp/cclE0UL4.s:4513   .debug_str:00000000000002df .LASF12
     /tmp/cclE0UL4.s:4571   .debug_str:00000000000004c0 .LASF13
     /tmp/cclE0UL4.s:4527   .debug_str:0000000000000334 .LASF14
     /tmp/cclE0UL4.s:4511   .debug_str:00000000000002cf .LASF15
     /tmp/cclE0UL4.s:4861   .debug_str:0000000000000f51 .LASF16
     /tmp/cclE0UL4.s:4561   .debug_str:0000000000000456 .LASF17
     /tmp/cclE0UL4.s:4841   .debug_str:0000000000000dc0 .LASF18
     /tmp/cclE0UL4.s:4883   .debug_str:0000000000000fe8 .LASF275
     /tmp/cclE0UL4.s:4503   .debug_str:0000000000000291 .LASF19
     /tmp/cclE0UL4.s:4827   .debug_str:0000000000000d4d .LASF20
     /tmp/cclE0UL4.s:4521   .debug_str:000000000000030a .LASF21
     /tmp/cclE0UL4.s:4491   .debug_str:00000000000001f7 .LASF22
     /tmp/cclE0UL4.s:4751   .debug_str:0000000000000af0 .LASF23
     /tmp/cclE0UL4.s:4519   .debug_str:0000000000000301 .LASF24
GAS LISTING /tmp/cclE0UL4.s 			page 36


     /tmp/cclE0UL4.s:4869   .debug_str:0000000000000f8d .LASF90
     /tmp/cclE0UL4.s:4603   .debug_str:00000000000005f3 .LASF25
     /tmp/cclE0UL4.s:4455   .debug_str:0000000000000096 .LASF31
     /tmp/cclE0UL4.s:4909   .debug_str:00000000000010b1 .LASF276
     /tmp/cclE0UL4.s:4735   .debug_str:0000000000000a7c .LASF26
     /tmp/cclE0UL4.s:4655   .debug_str:000000000000079f .LASF27
     /tmp/cclE0UL4.s:4979   .debug_str:0000000000001308 .LASF29
     /tmp/cclE0UL4.s:4975   .debug_str:00000000000012ec .LASF28
     /tmp/cclE0UL4.s:4891   .debug_str:000000000000100f .LASF30
     /tmp/cclE0UL4.s:4545   .debug_str:00000000000003f2 .LASF57
     /tmp/cclE0UL4.s:4463   .debug_str:00000000000000e5 .LASF59
     /tmp/cclE0UL4.s:4663   .debug_str:00000000000007cb .LASF36
     /tmp/cclE0UL4.s:4739   .debug_str:0000000000000a8b .LASF38
     /tmp/cclE0UL4.s:4889   .debug_str:0000000000001007 .LASF32
     /tmp/cclE0UL4.s:4819   .debug_str:0000000000000cf9 .LASF33
     /tmp/cclE0UL4.s:4665   .debug_str:00000000000007d1 .LASF40
     /tmp/cclE0UL4.s:4673   .debug_str:0000000000000830 .LASF42
     /tmp/cclE0UL4.s:4987   .debug_str:0000000000001365 .LASF34
     /tmp/cclE0UL4.s:4565   .debug_str:000000000000048e .LASF35
     /tmp/cclE0UL4.s:4443   .debug_str:000000000000004f .LASF37
     /tmp/cclE0UL4.s:4629   .debug_str:0000000000000698 .LASF39
     /tmp/cclE0UL4.s:4821   .debug_str:0000000000000d0a .LASF41
     /tmp/cclE0UL4.s:4709   .debug_str:0000000000000992 .LASF43
     /tmp/cclE0UL4.s:4801   .debug_str:0000000000000c6a .LASF44
     /tmp/cclE0UL4.s:4853   .debug_str:0000000000000e48 .LASF45
     /tmp/cclE0UL4.s:4711   .debug_str:00000000000009a5 .LASF46
     /tmp/cclE0UL4.s:4437   .debug_str:000000000000001b .LASF47
     /tmp/cclE0UL4.s:4961   .debug_str:000000000000127b .LASF48
     /tmp/cclE0UL4.s:4745   .debug_str:0000000000000aba .LASF49
     /tmp/cclE0UL4.s:4839   .debug_str:0000000000000db2 .LASF50
     /tmp/cclE0UL4.s:4761   .debug_str:0000000000000b2a .LASF51
     /tmp/cclE0UL4.s:4541   .debug_str:00000000000003d0 .LASF52
     /tmp/cclE0UL4.s:4575   .debug_str:00000000000004e3 .LASF53
     /tmp/cclE0UL4.s:4783   .debug_str:0000000000000bd9 .LASF54
     /tmp/cclE0UL4.s:4967   .debug_str:00000000000012a2 .LASF55
     /tmp/cclE0UL4.s:4637   .debug_str:00000000000006d6 .LASF56
     /tmp/cclE0UL4.s:4833   .debug_str:0000000000000d8e .LASF58
     /tmp/cclE0UL4.s:4977   .debug_str:00000000000012f2 .LASF60
     /tmp/cclE0UL4.s:4871   .debug_str:0000000000000f95 .LASF61
     /tmp/cclE0UL4.s:4537   .debug_str:00000000000003b4 .LASF62
     /tmp/cclE0UL4.s:4815   .debug_str:0000000000000ce3 .LASF63
     /tmp/cclE0UL4.s:4619   .debug_str:000000000000064d .LASF64
     /tmp/cclE0UL4.s:4721   .debug_str:00000000000009ec .LASF65
     /tmp/cclE0UL4.s:4533   .debug_str:0000000000000383 .LASF66
     /tmp/cclE0UL4.s:4767   .debug_str:0000000000000b60 .LASF67
     /tmp/cclE0UL4.s:4993   .debug_str:0000000000001397 .LASF68
     /tmp/cclE0UL4.s:4725   .debug_str:0000000000000a12 .LASF69
     /tmp/cclE0UL4.s:4799   .debug_str:0000000000000c57 .LASF70
     /tmp/cclE0UL4.s:4823   .debug_str:0000000000000d13 .LASF71
     /tmp/cclE0UL4.s:4925   .debug_str:0000000000001135 .LASF72
     /tmp/cclE0UL4.s:4695   .debug_str:0000000000000916 .LASF73
     /tmp/cclE0UL4.s:4911   .debug_str:00000000000010c9 .LASF74
     /tmp/cclE0UL4.s:4851   .debug_str:0000000000000e28 .LASF75
     /tmp/cclE0UL4.s:4551   .debug_str:0000000000000406 .LASF76
     /tmp/cclE0UL4.s:4621   .debug_str:0000000000000661 .LASF77
     /tmp/cclE0UL4.s:4895   .debug_str:0000000000001033 .LASF78
     /tmp/cclE0UL4.s:4741   .debug_str:0000000000000a9b .LASF79
GAS LISTING /tmp/cclE0UL4.s 			page 37


     /tmp/cclE0UL4.s:4973   .debug_str:00000000000012de .LASF80
     /tmp/cclE0UL4.s:4469   .debug_str:000000000000012f .LASF81
     /tmp/cclE0UL4.s:4567   .debug_str:000000000000049a .LASF82
     /tmp/cclE0UL4.s:4501   .debug_str:0000000000000265 .LASF83
     /tmp/cclE0UL4.s:4959   .debug_str:0000000000001274 .LASF84
     /tmp/cclE0UL4.s:4497   .debug_str:0000000000000246 .LASF85
     /tmp/cclE0UL4.s:4441   .debug_str:000000000000004a .LASF86
     /tmp/cclE0UL4.s:4921   .debug_str:0000000000001124 .LASF87
     /tmp/cclE0UL4.s:4679   .debug_str:0000000000000875 .LASF88
     /tmp/cclE0UL4.s:4549   .debug_str:0000000000000400 .LASF89
     /tmp/cclE0UL4.s:4907   .debug_str:00000000000010a9 .LASF91
     /tmp/cclE0UL4.s:4481   .debug_str:00000000000001b3 .LASF92
     /tmp/cclE0UL4.s:4685   .debug_str:00000000000008b8 .LASF93
     /tmp/cclE0UL4.s:4775   .debug_str:0000000000000bb8 .LASF94
     /tmp/cclE0UL4.s:4585   .debug_str:0000000000000533 .LASF95
     /tmp/cclE0UL4.s:4793   .debug_str:0000000000000c2c .LASF96
     /tmp/cclE0UL4.s:4773   .debug_str:0000000000000ba4 .LASF97
     /tmp/cclE0UL4.s:4547   .debug_str:00000000000003fb .LASF98
     /tmp/cclE0UL4.s:4831   .debug_str:0000000000000d77 .LASF99
     /tmp/cclE0UL4.s:4867   .debug_str:0000000000000f86 .LASF100
     /tmp/cclE0UL4.s:4717   .debug_str:00000000000009ca .LASF101
     /tmp/cclE0UL4.s:4435   .debug_str:000000000000000f .LASF102
     /tmp/cclE0UL4.s:4797   .debug_str:0000000000000c4b .LASF103
     /tmp/cclE0UL4.s:4689   .debug_str:00000000000008da .LASF104
     /tmp/cclE0UL4.s:4785   .debug_str:0000000000000be6 .LASF105
     /tmp/cclE0UL4.s:4515   .debug_str:00000000000002ee .LASF106
     /tmp/cclE0UL4.s:4523   .debug_str:0000000000000314 .LASF107
     /tmp/cclE0UL4.s:4715   .debug_str:00000000000009c1 .LASF108
     /tmp/cclE0UL4.s:4875   .debug_str:0000000000000fa5 .LASF109
     /tmp/cclE0UL4.s:4433   .debug_str:0000000000000000 .LASF110
     /tmp/cclE0UL4.s:4599   .debug_str:00000000000005bf .LASF111
     /tmp/cclE0UL4.s:4905   .debug_str:000000000000109a .LASF112
     /tmp/cclE0UL4.s:4859   .debug_str:0000000000000f2f .LASF113
     /tmp/cclE0UL4.s:4681   .debug_str:000000000000087d .LASF114
     /tmp/cclE0UL4.s:4531   .debug_str:000000000000035f .LASF115
     /tmp/cclE0UL4.s:4733   .debug_str:0000000000000a6c .LASF116
     /tmp/cclE0UL4.s:4765   .debug_str:0000000000000b3d .LASF117
     /tmp/cclE0UL4.s:4661   .debug_str:00000000000007c2 .LASF118
     /tmp/cclE0UL4.s:4615   .debug_str:000000000000063a .LASF119
     /tmp/cclE0UL4.s:4989   .debug_str:0000000000001372 .LASF120
     /tmp/cclE0UL4.s:4445   .debug_str:000000000000005f .LASF121
     /tmp/cclE0UL4.s:4677   .debug_str:000000000000085b .LASF122
     /tmp/cclE0UL4.s:4985   .debug_str:0000000000001355 .LASF123
     /tmp/cclE0UL4.s:4807   .debug_str:0000000000000ca0 .LASF124
     /tmp/cclE0UL4.s:4865   .debug_str:0000000000000f73 .LASF125
     /tmp/cclE0UL4.s:4803   .debug_str:0000000000000c73 .LASF126
     /tmp/cclE0UL4.s:4991   .debug_str:000000000000138a .LASF127
     /tmp/cclE0UL4.s:4653   .debug_str:000000000000077b .LASF128
     /tmp/cclE0UL4.s:4719   .debug_str:00000000000009e3 .LASF129
     /tmp/cclE0UL4.s:4743   .debug_str:0000000000000aa7 .LASF130
     /tmp/cclE0UL4.s:4699   .debug_str:0000000000000953 .LASF131
     /tmp/cclE0UL4.s:4737   .debug_str:0000000000000a81 .LASF132
     /tmp/cclE0UL4.s:4659   .debug_str:00000000000007b7 .LASF133
     /tmp/cclE0UL4.s:4759   .debug_str:0000000000000b20 .LASF134
     /tmp/cclE0UL4.s:4927   .debug_str:0000000000001148 .LASF135
     /tmp/cclE0UL4.s:4879   .debug_str:0000000000000fc2 .LASF136
     /tmp/cclE0UL4.s:4923   .debug_str:0000000000001129 .LASF137
GAS LISTING /tmp/cclE0UL4.s 			page 38


     /tmp/cclE0UL4.s:4937   .debug_str:00000000000011a1 .LASF138
     /tmp/cclE0UL4.s:4701   .debug_str:0000000000000967 .LASF139
     /tmp/cclE0UL4.s:4757   .debug_str:0000000000000b14 .LASF140
     /tmp/cclE0UL4.s:4835   .debug_str:0000000000000d99 .LASF143
     /tmp/cclE0UL4.s:4829   .debug_str:0000000000000d55 .LASF145
     /tmp/cclE0UL4.s:4917   .debug_str:00000000000010ff .LASF141
     /tmp/cclE0UL4.s:4957   .debug_str:0000000000001252 .LASF142
     /tmp/cclE0UL4.s:4915   .debug_str:00000000000010ed .LASF144
     /tmp/cclE0UL4.s:4457   .debug_str:00000000000000a1 .LASF146
     /tmp/cclE0UL4.s:4919   .debug_str:0000000000001111 .LASF147
     /tmp/cclE0UL4.s:4495   .debug_str:0000000000000223 .LASF148
     /tmp/cclE0UL4.s:4559   .debug_str:0000000000000443 .LASF149
     /tmp/cclE0UL4.s:4493   .debug_str:0000000000000200 .LASF150
     /tmp/cclE0UL4.s:4465   .debug_str:00000000000000f8 .LASF151
     /tmp/cclE0UL4.s:4933   .debug_str:0000000000001174 .LASF152
     /tmp/cclE0UL4.s:4697   .debug_str:0000000000000934 .LASF153
     /tmp/cclE0UL4.s:4955   .debug_str:0000000000001239 .LASF154
     /tmp/cclE0UL4.s:4683   .debug_str:000000000000088e .LASF155
     /tmp/cclE0UL4.s:4667   .debug_str:00000000000007de .LASF156
     /tmp/cclE0UL4.s:4981   .debug_str:0000000000001314 .LASF157
     /tmp/cclE0UL4.s:4569   .debug_str:00000000000004af .LASF158
     /tmp/cclE0UL4.s:4947   .debug_str:00000000000011ea .LASF159
     /tmp/cclE0UL4.s:4577   .debug_str:00000000000004f3 .LASF160
     /tmp/cclE0UL4.s:4969   .debug_str:00000000000012ad .LASF161
     /tmp/cclE0UL4.s:4597   .debug_str:00000000000005ae .LASF162
     /tmp/cclE0UL4.s:4461   .debug_str:00000000000000d9 .LASF163
     /tmp/cclE0UL4.s:4669   .debug_str:00000000000007f6 .LASF164
     /tmp/cclE0UL4.s:4729   .debug_str:0000000000000a4b .LASF165
     /tmp/cclE0UL4.s:4467   .debug_str:0000000000000113 .LASF166
     /tmp/cclE0UL4.s:4479   .debug_str:00000000000001a3 .LASF167
     /tmp/cclE0UL4.s:4901   .debug_str:0000000000001071 .LASF168
     /tmp/cclE0UL4.s:4749   .debug_str:0000000000000ae7 .LASF277
     /tmp/cclE0UL4.s:4941   .debug_str:00000000000011c0 .LASF278
     /tmp/cclE0UL4.s:4873   .debug_str:0000000000000fa0 .LASF169
     /tmp/cclE0UL4.s:4943   .debug_str:00000000000011da .LASF170
     /tmp/cclE0UL4.s:4611   .debug_str:0000000000000617 .LASF171
     /tmp/cclE0UL4.s:4849   .debug_str:0000000000000e10 .LASF172
     /tmp/cclE0UL4.s:4929   .debug_str:0000000000001153 .LASF173
     /tmp/cclE0UL4.s:4965   .debug_str:0000000000001293 .LASF174
     /tmp/cclE0UL4.s:4825   .debug_str:0000000000000d31 .LASF175
     /tmp/cclE0UL4.s:4477   .debug_str:0000000000000198 .LASF176
     /tmp/cclE0UL4.s:4691   .debug_str:00000000000008ee .LASF177
     /tmp/cclE0UL4.s:4557   .debug_str:0000000000000439 .LASF178
     /tmp/cclE0UL4.s:4863   .debug_str:0000000000000f5d .LASF179
     /tmp/cclE0UL4.s:4693   .debug_str:0000000000000906 .LASF180
     /tmp/cclE0UL4.s:4935   .debug_str:0000000000001183 .LASF181
     /tmp/cclE0UL4.s:4507   .debug_str:00000000000002ab .LASF182
     /tmp/cclE0UL4.s:4671   .debug_str:0000000000000812 .LASF183
     /tmp/cclE0UL4.s:4553   .debug_str:000000000000040f .LASF184
     /tmp/cclE0UL4.s:4971   .debug_str:00000000000012ba .LASF185
     /tmp/cclE0UL4.s:4627   .debug_str:0000000000000686 .LASF186
     /tmp/cclE0UL4.s:4535   .debug_str:0000000000000395 .LASF187
     /tmp/cclE0UL4.s:4483   .debug_str:00000000000001c4 .LASF188
     /tmp/cclE0UL4.s:4581   .debug_str:0000000000000510 .LASF189
     /tmp/cclE0UL4.s:4817   .debug_str:0000000000000ceb .LASF190
     /tmp/cclE0UL4.s:4529   .debug_str:0000000000000344 .LASF191
     /tmp/cclE0UL4.s:4713   .debug_str:00000000000009b4 .LASF192
GAS LISTING /tmp/cclE0UL4.s 			page 39


     /tmp/cclE0UL4.s:4949   .debug_str:00000000000011fc .LASF193
     /tmp/cclE0UL4.s:4963   .debug_str:000000000000128a .LASF194
     /tmp/cclE0UL4.s:4449   .debug_str:000000000000006f .LASF195
     /tmp/cclE0UL4.s:4647   .debug_str:000000000000073c .LASF196
     /tmp/cclE0UL4.s:4731   .debug_str:0000000000000a57 .LASF197
     /tmp/cclE0UL4.s:4763   .debug_str:0000000000000b36 .LASF198
     /tmp/cclE0UL4.s:4769   .debug_str:0000000000000b7d .LASF199
     /tmp/cclE0UL4.s:4723   .debug_str:0000000000000a0b .LASF200
     /tmp/cclE0UL4.s:4795   .debug_str:0000000000000c38 .LASF201
     /tmp/cclE0UL4.s:4951   .debug_str:0000000000001216 .LASF202
     /tmp/cclE0UL4.s:4893   .debug_str:000000000000101f .LASF203
     /tmp/cclE0UL4.s:4641   .debug_str:0000000000000705 .LASF204
     /tmp/cclE0UL4.s:4573   .debug_str:00000000000004cf .LASF205
     /tmp/cclE0UL4.s:4703   .debug_str:0000000000000973 .LASF206
     /tmp/cclE0UL4.s:4771   .debug_str:0000000000000b90 .LASF207
     /tmp/cclE0UL4.s:4845   .debug_str:0000000000000dee .LASF208
     /tmp/cclE0UL4.s:4625   .debug_str:0000000000000672 .LASF209
     /tmp/cclE0UL4.s:4607   .debug_str:0000000000000604 .LASF210
     /tmp/cclE0UL4.s:4857   .debug_str:0000000000000f28 .LASF211
     /tmp/cclE0UL4.s:4811   .debug_str:0000000000000cc9 .LASF212
     /tmp/cclE0UL4.s:4813   .debug_str:0000000000000cdc .LASF213
     /tmp/cclE0UL4.s:4555   .debug_str:0000000000000426 .LASF214
     /tmp/cclE0UL4.s:4809   .debug_str:0000000000000cc3 .LASF215
     /tmp/cclE0UL4.s:4877   .debug_str:0000000000000fb0 .LASF216
     /tmp/cclE0UL4.s:4623   .debug_str:000000000000066c .LASF217
     /tmp/cclE0UL4.s:4543   .debug_str:00000000000003e0 .LASF218
     /tmp/cclE0UL4.s:4499   .debug_str:0000000000000257 .LASF219
     /tmp/cclE0UL4.s:4953   .debug_str:000000000000121e .LASF220
     /tmp/cclE0UL4.s:4453   .debug_str:000000000000008b .LASF221
     /tmp/cclE0UL4.s:4843   .debug_str:0000000000000dd6 .LASF222
     /tmp/cclE0UL4.s:4789   .debug_str:0000000000000c13 .LASF223
     /tmp/cclE0UL4.s:4983   .debug_str:000000000000133d .LASF224
     /tmp/cclE0UL4.s:4593   .debug_str:0000000000000584 .LASF225
     /tmp/cclE0UL4.s:4509   .debug_str:00000000000002bc .LASF226
     /tmp/cclE0UL4.s:4837   .debug_str:0000000000000dab .LASF227
     /tmp/cclE0UL4.s:4675   .debug_str:0000000000000848 .LASF228
     /tmp/cclE0UL4.s:4945   .debug_str:00000000000011e0 .LASF229
     /tmp/cclE0UL4.s:4525   .debug_str:000000000000031e .LASF230
     /tmp/cclE0UL4.s:4517   .debug_str:00000000000002f7 .LASF231
     /tmp/cclE0UL4.s:4459   .debug_str:00000000000000c3 .LASF232
     /tmp/cclE0UL4.s:4539   .debug_str:00000000000003ca .LASF233
     /tmp/cclE0UL4.s:4601   .debug_str:00000000000005e1 .LASF234
     /tmp/cclE0UL4.s:4609   .debug_str:0000000000000611 .LASF235
     /tmp/cclE0UL4.s:4939   .debug_str:00000000000011ae .LASF236
     /tmp/cclE0UL4.s:4605   .debug_str:00000000000005f9 .LASF237
     /tmp/cclE0UL4.s:4613   .debug_str:0000000000000622 .LASF238
     /tmp/cclE0UL4.s:4913   .debug_str:00000000000010de .LASF239
     /tmp/cclE0UL4.s:4587   .debug_str:0000000000000547 .LASF240
     /tmp/cclE0UL4.s:4753   .debug_str:0000000000000af8 .LASF241
     /tmp/cclE0UL4.s:4639   .debug_str:00000000000006e3 .LASF242
     /tmp/cclE0UL4.s:4475   .debug_str:0000000000000189 .LASF243
     /tmp/cclE0UL4.s:4687   .debug_str:00000000000008bd .LASF244
     /tmp/cclE0UL4.s:4779   .debug_str:0000000000000bc8 .LASF245
     /tmp/cclE0UL4.s:4447   .debug_str:0000000000000067 .LASF246
     /tmp/cclE0UL4.s:4485   .debug_str:00000000000001ce .LASF247
     /tmp/cclE0UL4.s:4583   .debug_str:0000000000000527 .LASF248
     /tmp/cclE0UL4.s:4487   .debug_str:00000000000001dd .LASF249
GAS LISTING /tmp/cclE0UL4.s 			page 40


     /tmp/cclE0UL4.s:4707   .debug_str:0000000000000980 .LASF250
     /tmp/cclE0UL4.s:4591   .debug_str:0000000000000571 .LASF251
     /tmp/cclE0UL4.s:4633   .debug_str:00000000000006b1 .LASF252
     /tmp/cclE0UL4.s:4505   .debug_str:0000000000000297 .LASF253
     /tmp/cclE0UL4.s:4887   .debug_str:0000000000000ffd .LASF254
     /tmp/cclE0UL4.s:4727   .debug_str:0000000000000a33 .LASF255
     /tmp/cclE0UL4.s:4787   .debug_str:0000000000000bfb .LASF256
     /tmp/cclE0UL4.s:4473   .debug_str:000000000000016f .LASF257
     /tmp/cclE0UL4.s:4847   .debug_str:0000000000000df6 .LASF258
     /tmp/cclE0UL4.s:4595   .debug_str:000000000000058b .LASF259
     /tmp/cclE0UL4.s:4563   .debug_str:000000000000046c .LASF260
     /tmp/cclE0UL4.s:4649   .debug_str:0000000000000745 .LASF261
     /tmp/cclE0UL4.s:4651   .debug_str:0000000000000760 .LASF262
     /tmp/cclE0UL4.s:4645   .debug_str:0000000000000720 .LASF263
     /tmp/cclE0UL4.s:4881   .debug_str:0000000000000fcd .LASF264
     /tmp/cclE0UL4.s:932    .text:0000000000000538 .LFB37
     /tmp/cclE0UL4.s:1056   .text:0000000000000614 .LFE37
     /tmp/cclE0UL4.s:4079   .debug_loc:0000000000000000 .LLST15
     /tmp/cclE0UL4.s:4705   .debug_str:000000000000097b .LASF265
     /tmp/cclE0UL4.s:4104   .debug_loc:0000000000000062 .LLST16
     /tmp/cclE0UL4.s:4129   .debug_loc:00000000000000c4 .LLST17
     /tmp/cclE0UL4.s:4903   .debug_str:0000000000001093 .LASF266
     /tmp/cclE0UL4.s:4154   .debug_loc:0000000000000126 .LLST18
     /tmp/cclE0UL4.s:4176   .debug_loc:0000000000000185 .LLST19
     /tmp/cclE0UL4.s:4193   .debug_loc:00000000000001d0 .LLST20
     /tmp/cclE0UL4.s:1029   .text:00000000000005f0 .LVL76
     /tmp/cclE0UL4.s:874    .text:00000000000004f4 .LFB36
     /tmp/cclE0UL4.s:921    .text:0000000000000538 .LFE36
     /tmp/cclE0UL4.s:4489   .debug_str:00000000000001f0 .LASF267
     /tmp/cclE0UL4.s:4223   .debug_loc:0000000000000228 .LLST14
     /tmp/cclE0UL4.s:900    .text:000000000000051c .LVL63
     /tmp/cclE0UL4.s:831    .text:00000000000004c0 .LFB35
     /tmp/cclE0UL4.s:868    .text:00000000000004f4 .LFE35
     /tmp/cclE0UL4.s:4234   .debug_loc:000000000000025e .LLST13
     /tmp/cclE0UL4.s:846    .text:00000000000004d8 .LVL59
     /tmp/cclE0UL4.s:857    .text:00000000000004e4 .LVL60
     /tmp/cclE0UL4.s:670    .text:00000000000003dc .LFB34
     /tmp/cclE0UL4.s:690    .text:0000000000000400 .LFE34
     /tmp/cclE0UL4.s:585    .text:0000000000000350 .LFB33
     /tmp/cclE0UL4.s:664    .text:00000000000003dc .LFE33
     /tmp/cclE0UL4.s:4241   .debug_loc:0000000000000281 .LLST9
     /tmp/cclE0UL4.s:608    .text:0000000000000380 .LVL39
     /tmp/cclE0UL4.s:630    .text:00000000000003a0 .LVL42
     /tmp/cclE0UL4.s:649    .text:00000000000003bc .LVL44
     /tmp/cclE0UL4.s:656    .text:00000000000003cc .LVL45
     /tmp/cclE0UL4.s:661    .text:00000000000003d8 .LVL46
     /tmp/cclE0UL4.s:543    .text:0000000000000320 .LFB32
     /tmp/cclE0UL4.s:579    .text:0000000000000350 .LFE32
     /tmp/cclE0UL4.s:4252   .debug_loc:00000000000002b7 .LLST8
     /tmp/cclE0UL4.s:568    .text:0000000000000340 .LVL38
     /tmp/cclE0UL4.s:476    .text:00000000000002a8 .LFB31
     /tmp/cclE0UL4.s:537    .text:0000000000000320 .LFE31
     /tmp/cclE0UL4.s:4259   .debug_loc:00000000000002da .LLST7
     /tmp/cclE0UL4.s:494    .text:00000000000002d0 .LVL33
     /tmp/cclE0UL4.s:260    .text:0000000000000190 .LFB30
     /tmp/cclE0UL4.s:319    .text:0000000000000208 .LFE30
     /tmp/cclE0UL4.s:4266   .debug_loc:00000000000002fd .LLST2
GAS LISTING /tmp/cclE0UL4.s 			page 41


     /tmp/cclE0UL4.s:305    .text:00000000000001f4 .LVL17
     /tmp/cclE0UL4.s:193    .text:0000000000000118 .LFB29
     /tmp/cclE0UL4.s:254    .text:0000000000000190 .LFE29
     /tmp/cclE0UL4.s:4289   .debug_loc:000000000000035d .LLST1
     /tmp/cclE0UL4.s:211    .text:0000000000000140 .LVL12
     /tmp/cclE0UL4.s:134    .text:00000000000000b0 .LFB28
     /tmp/cclE0UL4.s:187    .text:0000000000000118 .LFE28
     /tmp/cclE0UL4.s:4296   .debug_loc:0000000000000380 .LLST0
     /tmp/cclE0UL4.s:173    .text:0000000000000104 .LVL10
     /tmp/cclE0UL4.s:696    .text:0000000000000400 .LFB27
     /tmp/cclE0UL4.s:825    .text:00000000000004c0 .LFE27
     /tmp/cclE0UL4.s:4319   .debug_loc:00000000000003e0 .LLST10
     /tmp/cclE0UL4.s:4415   .debug_ranges:0000000000000000 .Ldebug_ranges0
     /tmp/cclE0UL4.s:4333   .debug_loc:0000000000000419 .LLST11
     /tmp/cclE0UL4.s:4781   .debug_str:0000000000000bcf .LASF268
     /tmp/cclE0UL4.s:4344   .debug_loc:000000000000044f .LLST12
     /tmp/cclE0UL4.s:779    .text:000000000000047c .LBB11
     /tmp/cclE0UL4.s:820    .text:00000000000004bc .LBE11
     /tmp/cclE0UL4.s:783    .text:0000000000000484 .LVL56
     /tmp/cclE0UL4.s:715    .text:000000000000041c .LVL49
     /tmp/cclE0UL4.s:723    .text:0000000000000428 .LVL51
     /tmp/cclE0UL4.s:736    .text:0000000000000440 .LVL52
     /tmp/cclE0UL4.s:325    .text:0000000000000208 .LFB26
     /tmp/cclE0UL4.s:470    .text:00000000000002a8 .LFE26
     /tmp/cclE0UL4.s:4351   .debug_loc:0000000000000472 .LLST3
     /tmp/cclE0UL4.s:4369   .debug_loc:00000000000004be .LLST4
     /tmp/cclE0UL4.s:4384   .debug_loc:0000000000000507 .LLST5
     /tmp/cclE0UL4.s:379    .text:000000000000023c .LBB4
     /tmp/cclE0UL4.s:415    .text:0000000000000270 .LBE4
     /tmp/cclE0UL4.s:4395   .debug_loc:000000000000053d .LLST6
     /tmp/cclE0UL4.s:409    .text:0000000000000264 .LVL26
     /tmp/cclE0UL4.s:414    .text:0000000000000270 .LVL27
     /tmp/cclE0UL4.s:96     .text:00000000000000b0 .LFE25
     /tmp/cclE0UL4.s:33     .text:0000000000000024 .LVL0
     /tmp/cclE0UL4.s:39     .text:0000000000000034 .LVL1
     /tmp/cclE0UL4.s:48     .text:0000000000000048 .LVL2
     /tmp/cclE0UL4.s:54     .text:0000000000000058 .LVL3
     /tmp/cclE0UL4.s:78     .text:0000000000000088 .LVL4
     /tmp/cclE0UL4.s:82     .text:0000000000000094 .LVL5
     /tmp/cclE0UL4.s:89     .text:00000000000000a4 .LVL6
     /tmp/cclE0UL4.s:93     .text:00000000000000b0 .LVL7
     /tmp/cclE0UL4.s:4439   .debug_str:0000000000000035 .LASF269
     /tmp/cclE0UL4.s:4631   .debug_str:00000000000006a5 .LASF270
     /tmp/cclE0UL4.s:4931   .debug_str:0000000000001164 .LASF271
     /tmp/cclE0UL4.s:4885   .debug_str:0000000000000fee .LASF279
     /tmp/cclE0UL4.s:4471   .debug_str:0000000000000157 .LASF280
     /tmp/cclE0UL4.s:935    .text:0000000000000538 .LVL66
     /tmp/cclE0UL4.s:971    .text:000000000000057c .LVL69
     /tmp/cclE0UL4.s:1031   .text:00000000000005f4 .LVL77
     /tmp/cclE0UL4.s:1037   .text:00000000000005f8 .LVL78
     /tmp/cclE0UL4.s:1016   .text:00000000000005d4 .LVL74
     /tmp/cclE0UL4.s:1042   .text:0000000000000600 .LVL79
     /tmp/cclE0UL4.s:976    .text:0000000000000580 .LVL70
     /tmp/cclE0UL4.s:987    .text:0000000000000590 .LVL71
     /tmp/cclE0UL4.s:1008   .text:00000000000005c0 .LVL73
     /tmp/cclE0UL4.s:1021   .text:00000000000005d8 .LVL75
     /tmp/cclE0UL4.s:959    .text:000000000000056c .LVL67
GAS LISTING /tmp/cclE0UL4.s 			page 42


     /tmp/cclE0UL4.s:968    .text:0000000000000578 .LVL68
     /tmp/cclE0UL4.s:1002   .text:00000000000005b8 .LVL72
     /tmp/cclE0UL4.s:877    .text:00000000000004f4 .LVL61
     /tmp/cclE0UL4.s:889    .text:000000000000050c .LVL62
     /tmp/cclE0UL4.s:916    .text:0000000000000530 .LVL65
     /tmp/cclE0UL4.s:610    .text:0000000000000384 .LVL40
     /tmp/cclE0UL4.s:614    .text:000000000000038c .LVL41
     /tmp/cclE0UL4.s:643    .text:00000000000003b4 .LVL43
     /tmp/cclE0UL4.s:561    .text:0000000000000334 .LVL36
     /tmp/cclE0UL4.s:566    .text:0000000000000338 .LVL37
     /tmp/cclE0UL4.s:506    .text:00000000000002ec .LVL34
     /tmp/cclE0UL4.s:517    .text:0000000000000304 .LVL35
     /tmp/cclE0UL4.s:263    .text:0000000000000190 .LVL15
     /tmp/cclE0UL4.s:303    .text:00000000000001ec .LVL16
     /tmp/cclE0UL4.s:315    .text:0000000000000204 .LVL18
     /tmp/cclE0UL4.s:223    .text:000000000000015c .LVL13
     /tmp/cclE0UL4.s:234    .text:0000000000000174 .LVL14
     /tmp/cclE0UL4.s:137    .text:00000000000000b0 .LVL8
     /tmp/cclE0UL4.s:171    .text:00000000000000fc .LVL9
     /tmp/cclE0UL4.s:183    .text:0000000000000114 .LVL11
     /tmp/cclE0UL4.s:699    .text:0000000000000400 .LVL47
     /tmp/cclE0UL4.s:709    .text:0000000000000414 .LVL48
     /tmp/cclE0UL4.s:748    .text:000000000000045c .LVL53
     /tmp/cclE0UL4.s:766    .text:0000000000000468 .LVL54
     /tmp/cclE0UL4.s:796    .text:00000000000004a8 .LVL57
     /tmp/cclE0UL4.s:807    .text:00000000000004b0 .LVL58
     /tmp/cclE0UL4.s:772    .text:000000000000046c .LVL55
     /tmp/cclE0UL4.s:328    .text:0000000000000208 .LVL19
     /tmp/cclE0UL4.s:375    .text:000000000000023c .LVL23
     /tmp/cclE0UL4.s:466    .text:00000000000002a4 .LVL32
     /tmp/cclE0UL4.s:335    .text:0000000000000214 .LVL20
     /tmp/cclE0UL4.s:353    .text:0000000000000220 .LVL21
     /tmp/cclE0UL4.s:384    .text:0000000000000248 .LVL24
     /tmp/cclE0UL4.s:425    .text:000000000000027c .LVL28
     /tmp/cclE0UL4.s:443    .text:0000000000000288 .LVL29
     /tmp/cclE0UL4.s:359    .text:0000000000000224 .LVL22
     /tmp/cclE0UL4.s:449    .text:000000000000028c .LVL30
     /tmp/cclE0UL4.s:404    .text:0000000000000258 .LVL25
     /tmp/cclE0UL4.s:462    .text:000000000000029c .LVL31
     /tmp/cclE0UL4.s:1120   .debug_info:0000000000000000 .Ldebug_info0
     /tmp/cclE0UL4.s:330    .text:0000000000000208 .LBB2
     /tmp/cclE0UL4.s:363    .text:0000000000000228 .LBE2
     /tmp/cclE0UL4.s:377    .text:000000000000023c .LBB7
     /tmp/cclE0UL4.s:417    .text:0000000000000270 .LBE7
     /tmp/cclE0UL4.s:420    .text:0000000000000270 .LBB8
     /tmp/cclE0UL4.s:453    .text:0000000000000290 .LBE8
     /tmp/cclE0UL4.s:711    .text:0000000000000414 .LBB9
     /tmp/cclE0UL4.s:726    .text:0000000000000428 .LBE9
     /tmp/cclE0UL4.s:728    .text:0000000000000428 .LBB13
     /tmp/cclE0UL4.s:823    .text:00000000000004c0 .LBE13
     /tmp/cclE0UL4.s:99     .gcc_except_table:0000000000000000 .LLSDA25

UNDEFINED SYMBOLS
_ZN10KSemaphorenwEm
_ZN10KSemaphoreC1Ei
_ZN10KSemaphoredlEPv
_Unwind_Resume
GAS LISTING /tmp/cclE0UL4.s 			page 43


__gxx_personality_v0
_ZN10KSemaphore6signalEv
_ZN10KSemaphore4waitEv
CONSOLE_STATUS
CONSOLE_TX_DATA
_ZN5Riscv13w_a0_sscratchEv
thread_exit
thread_dispatch
_ZN5Riscv12finishSystemE
sysCallGetCharOutput
CONSOLE_RX_DATA
