GAS LISTING /tmp/ccOKE3MP.s 			page 1


   1              		.file	"KConsole.cpp"
   2              		.option pic
   3              		.option norelax
   4              		.text
   5              	.Ltext0:
   6              		.align	2
   7              		.globl	_ZN8KConsole10initializeEv
   9              	_ZN8KConsole10initializeEv:
  10              	.LFB25:
  11              		.file 1 "src/KConsole.cpp"
   1:src/KConsole.cpp **** //
   2:src/KConsole.cpp **** // Created by os on 5/19/22.
   3:src/KConsole.cpp **** //
   4:src/KConsole.cpp **** 
   5:src/KConsole.cpp **** 
   6:src/KConsole.cpp **** #include "../h/KConsole.hpp"
   7:src/KConsole.cpp **** #include "../h/syscall_c.h"
   8:src/KConsole.cpp **** 
   9:src/KConsole.cpp **** uint64 KConsole::inputHead = 0;
  10:src/KConsole.cpp **** uint64 KConsole::inputTail = 0;
  11:src/KConsole.cpp **** uint64 KConsole::outputHead = 0;
  12:src/KConsole.cpp **** uint64 KConsole::outputTail = 0;
  13:src/KConsole.cpp **** KSemaphore* KConsole::hasCharactersOutput = 0;
  14:src/KConsole.cpp **** KSemaphore* KConsole::hasCharactersInput = 0;
  15:src/KConsole.cpp **** uint64 KConsole::pendingGetc = 0;
  16:src/KConsole.cpp **** char KConsole::inputBuffer[bufferSize];
  17:src/KConsole.cpp **** char KConsole::outputBuffer[bufferSize];
  18:src/KConsole.cpp **** uint64 KConsole::pendingPutc = 0;
  19:src/KConsole.cpp **** 
  20:src/KConsole.cpp **** void KConsole::initialize()
  21:src/KConsole.cpp **** {
  12              		.loc 1 21 1
  13              		.cfi_startproc
  14              		.cfi_personality 0x9b,DW.ref.__gxx_personality_v0
  15              		.cfi_lsda 0x1b,.LLSDA25
  16 0000 130101FE 		addi	sp,sp,-32
  17              		.cfi_def_cfa_offset 32
  18 0004 233C1100 		sd	ra,24(sp)
  19 0008 23388100 		sd	s0,16(sp)
  20 000c 23349100 		sd	s1,8(sp)
  21 0010 23302101 		sd	s2,0(sp)
  22              		.cfi_offset 1, -8
  23              		.cfi_offset 8, -16
  24              		.cfi_offset 9, -24
  25              		.cfi_offset 18, -32
  26 0014 13040102 		addi	s0,sp,32
  27              		.cfi_def_cfa 8, 0
  22:src/KConsole.cpp ****     hasCharactersInput = new KSemaphore(0);
  28              		.loc 1 22 5
  29              		.loc 1 22 42 is_stmt 0
  30 0018 13058001 		li	a0,24
  31              	.LEHB0:
  32 001c 97000000 		call	_ZN10KSemaphorenwEm@plt
  32      E7800000 
  33              	.LVL0:
  34              	.LEHE0:
  35 0024 93040500 		mv	s1,a0
GAS LISTING /tmp/ccOKE3MP.s 			page 2


  36 0028 93050000 		li	a1,0
  37              	.LEHB1:
  38 002c 97000000 		call	_ZN10KSemaphoreC1Ei@plt
  38      E7800000 
  39              	.LVL1:
  40              	.LEHE1:
  41              		.loc 1 22 24 discriminator 2
  42 0034 97070000 		sd	s1,.LANCHOR0,a5
  42      23B09700 
  23:src/KConsole.cpp ****     hasCharactersOutput = new KSemaphore(0);
  43              		.loc 1 23 5 is_stmt 1 discriminator 2
  44              		.loc 1 23 43 is_stmt 0 discriminator 2
  45 003c 13058001 		li	a0,24
  46              	.LEHB2:
  47 0040 97000000 		call	_ZN10KSemaphorenwEm@plt
  47      E7800000 
  48              	.LVL2:
  49              	.LEHE2:
  50 0048 93040500 		mv	s1,a0
  51 004c 93050000 		li	a1,0
  52              	.LEHB3:
  53 0050 97000000 		call	_ZN10KSemaphoreC1Ei@plt
  53      E7800000 
  54              	.LVL3:
  55              	.LEHE3:
  56              		.loc 1 23 25 discriminator 2
  57 0058 97070000 		sd	s1,.LANCHOR0+8,a5
  57      23B09700 
  24:src/KConsole.cpp **** }
  58              		.loc 1 24 1 discriminator 2
  59 0060 83308101 		ld	ra,24(sp)
  60              		.cfi_remember_state
  61              		.cfi_restore 1
  62 0064 03340101 		ld	s0,16(sp)
  63              		.cfi_restore 8
  64              		.cfi_def_cfa 2, 32
  65 0068 83348100 		ld	s1,8(sp)
  66              		.cfi_restore 9
  67 006c 03390100 		ld	s2,0(sp)
  68              		.cfi_restore 18
  69 0070 13010102 		addi	sp,sp,32
  70              		.cfi_def_cfa_offset 0
  71 0074 67800000 		jr	ra
  72              	.L4:
  73              		.cfi_restore_state
  74 0078 13090500 		mv	s2,a0
  22:src/KConsole.cpp ****     hasCharactersInput = new KSemaphore(0);
  75              		.loc 1 22 42
  76 007c 13850400 		mv	a0,s1
  77 0080 97000000 		call	_ZN10KSemaphoredlEPv@plt
  77      E7800000 
  78              	.LVL4:
  79 0088 13050900 		mv	a0,s2
  80              	.LEHB4:
  81 008c 97000000 		call	_Unwind_Resume@plt
  81      E7800000 
  82              	.LVL5:
GAS LISTING /tmp/ccOKE3MP.s 			page 3


  83              	.LEHE4:
  84              	.L5:
  85 0094 13090500 		mv	s2,a0
  23:src/KConsole.cpp ****     hasCharactersOutput = new KSemaphore(0);
  86              		.loc 1 23 43
  87 0098 13850400 		mv	a0,s1
  88 009c 97000000 		call	_ZN10KSemaphoredlEPv@plt
  88      E7800000 
  89              	.LVL6:
  90 00a4 13050900 		mv	a0,s2
  91              	.LEHB5:
  92 00a8 97000000 		call	_Unwind_Resume@plt
  92      E7800000 
  93              	.LVL7:
  94              	.LEHE5:
  95              		.cfi_endproc
  96              	.LFE25:
  97              		.globl	__gxx_personality_v0
  98              		.section	.gcc_except_table,"a",@progbits
  99              	.LLSDA25:
 100 0000 FF       		.byte	0xff
 101 0001 FF       		.byte	0xff
 102 0002 03       		.byte	0x3
 103 0003 4E       		.byte	0x4e
 104 0004 00000000 		.4byte	.LEHB0-.LFB25
 105 0008 00000000 		.4byte	.LEHE0-.LEHB0
 106 000c 00000000 		.4byte	0
 107 0010 00       		.byte	0
 108 0011 00000000 		.4byte	.LEHB1-.LFB25
 109 0015 00000000 		.4byte	.LEHE1-.LEHB1
 110 0019 00000000 		.4byte	.L4-.LFB25
 111 001d 00       		.byte	0
 112 001e 00000000 		.4byte	.LEHB2-.LFB25
 113 0022 00000000 		.4byte	.LEHE2-.LEHB2
 114 0026 00000000 		.4byte	0
 115 002a 00       		.byte	0
 116 002b 00000000 		.4byte	.LEHB3-.LFB25
 117 002f 00000000 		.4byte	.LEHE3-.LEHB3
 118 0033 00000000 		.4byte	.L5-.LFB25
 119 0037 00       		.byte	0
 120 0038 00000000 		.4byte	.LEHB4-.LFB25
 121 003c 00000000 		.4byte	.LEHE4-.LEHB4
 122 0040 00000000 		.4byte	0
 123 0044 00       		.byte	0
 124 0045 00000000 		.4byte	.LEHB5-.LFB25
 125 0049 00000000 		.4byte	.LEHE5-.LEHB5
 126 004d 00000000 		.4byte	0
 127 0051 00       		.byte	0
 128              		.text
 130              		.align	2
 131              		.globl	_ZN8KConsole17putCharacterInputEc
 133              	_ZN8KConsole17putCharacterInputEc:
 134              	.LFB28:
  25:src/KConsole.cpp **** 
  26:src/KConsole.cpp **** //extern const uint64 CONSOLE_STATUS;
  27:src/KConsole.cpp **** //extern const uint64 CONSOLE_TX_DATA;
  28:src/KConsole.cpp **** //extern const uint64 CONSOLE_RX_DATA;
GAS LISTING /tmp/ccOKE3MP.s 			page 4


  29:src/KConsole.cpp **** 
  30:src/KConsole.cpp **** void KConsole::getCharactersFromConsole(void* p)
  31:src/KConsole.cpp **** {
  32:src/KConsole.cpp ****     while(true)
  33:src/KConsole.cpp ****     {
  34:src/KConsole.cpp ****         uint64 x = CONSOLE_STATUS;
  35:src/KConsole.cpp ****         __asm__ volatile("mv a0, %0"::"r"(x));
  36:src/KConsole.cpp ****         __asm__ volatile("lb a1, 0(a0)");
  37:src/KConsole.cpp ****         uint64 operation;
  38:src/KConsole.cpp ****         __asm__ volatile("mv %0, a1" :  "=r"(operation));
  39:src/KConsole.cpp ****         if(operation & STATUS_READ_MASK)
  40:src/KConsole.cpp ****         {
  41:src/KConsole.cpp ****             x = CONSOLE_TX_DATA;
  42:src/KConsole.cpp ****             __asm__ volatile("mv a0, %0"::"r"(x));
  43:src/KConsole.cpp ****             __asm__ volatile("lb a1,0(a0)");
  44:src/KConsole.cpp ****             char c;
  45:src/KConsole.cpp ****             __asm__ volatile("mv %0, a1" :  "=r"(c));
  46:src/KConsole.cpp **** 
  47:src/KConsole.cpp ****             putCharacterInput(c);
  48:src/KConsole.cpp ****             putCharacterOutput(c);
  49:src/KConsole.cpp ****         }
  50:src/KConsole.cpp ****         else
  51:src/KConsole.cpp ****             break;
  52:src/KConsole.cpp ****     }
  53:src/KConsole.cpp **** }
  54:src/KConsole.cpp **** 
  55:src/KConsole.cpp **** void KConsole::sendCharactersToConsole(void* p)
  56:src/KConsole.cpp **** {
  57:src/KConsole.cpp ****     uint64 sie = Riscv::r_sie();
  58:src/KConsole.cpp ****     Riscv::mc_sie(Riscv::SIP_SSIP);
  59:src/KConsole.cpp ****     while(true)
  60:src/KConsole.cpp ****     {
  61:src/KConsole.cpp ****             if(Riscv::finishSystem && KConsole::outputBufferEmpty() && pendingGetc == 0)
  62:src/KConsole.cpp ****                 thread_exit();
  63:src/KConsole.cpp **** 
  64:src/KConsole.cpp ****             uint64 x = CONSOLE_STATUS;
  65:src/KConsole.cpp ****             __asm__ volatile("mv a0, %0"::"r"(x));
  66:src/KConsole.cpp ****             __asm__ volatile("lb a1, 0(a0)");
  67:src/KConsole.cpp ****             uint64 operation;
  68:src/KConsole.cpp ****             __asm__ volatile("mv %0, a1" :  "=r"(operation));
  69:src/KConsole.cpp ****             if ((operation & STATUS_WRITE_MASK) && pendingPutc > 0)
  70:src/KConsole.cpp ****             {
  71:src/KConsole.cpp ****                 char volatile c = getCharacterOutput();
  72:src/KConsole.cpp ****                 pendingPutc--;
  73:src/KConsole.cpp ****                 x = CONSOLE_RX_DATA;
  74:src/KConsole.cpp ****                 __asm__ volatile("mv a0, %0"::"r"(x));
  75:src/KConsole.cpp ****                 __asm__ volatile("mv a1, %0" :  :"r"((uint64)c));
  76:src/KConsole.cpp ****                 __asm__ volatile("sb a1,0(a0)");
  77:src/KConsole.cpp ****             }
  78:src/KConsole.cpp ****             else
  79:src/KConsole.cpp ****             {
  80:src/KConsole.cpp ****                 Riscv::ms_sie(sie & Riscv::SIP_SSIP ? Riscv::SIP_SSIP : 0);
  81:src/KConsole.cpp ****                 thread_dispatch();
  82:src/KConsole.cpp ****                 sie = Riscv::r_sie();
  83:src/KConsole.cpp ****                 Riscv::mc_sie(Riscv::SIP_SSIP);
  84:src/KConsole.cpp ****             }
  85:src/KConsole.cpp ****     }
GAS LISTING /tmp/ccOKE3MP.s 			page 5


  86:src/KConsole.cpp **** }
  87:src/KConsole.cpp **** 
  88:src/KConsole.cpp **** void KConsole::putCharacterInput(char c)
  89:src/KConsole.cpp **** {
 135              		.loc 1 89 1 is_stmt 1
 136              		.cfi_startproc
 137              	.LVL8:
  90:src/KConsole.cpp ****     if((inputTail+1)%bufferSize == inputHead)
 138              		.loc 1 90 5
 139              		.loc 1 90 18 is_stmt 0
 140 00b0 97060000 		lla	a3,.LANCHOR0
 140      93860600 
 141 00b8 03B60601 		ld	a2,16(a3)
 142 00bc 93071600 		addi	a5,a2,1
 143              		.loc 1 90 21
 144 00c0 37270000 		li	a4,8192
 145 00c4 1307F7FF 		addi	a4,a4,-1
 146 00c8 B3F7E700 		and	a5,a5,a4
 147              		.loc 1 90 33
 148 00cc 03B78601 		ld	a4,24(a3)
 149              		.loc 1 90 5
 150 00d0 6382E704 		beq	a5,a4,.L11
  89:src/KConsole.cpp ****     if((inputTail+1)%bufferSize == inputHead)
 151              		.loc 1 89 1
 152 00d4 130101FF 		addi	sp,sp,-16
 153              		.cfi_def_cfa_offset 16
 154 00d8 23341100 		sd	ra,8(sp)
 155 00dc 23308100 		sd	s0,0(sp)
 156              		.cfi_offset 1, -8
 157              		.cfi_offset 8, -16
 158 00e0 13040101 		addi	s0,sp,16
 159              		.cfi_def_cfa 8, 0
  91:src/KConsole.cpp ****         return;
  92:src/KConsole.cpp ****     inputBuffer[inputTail] = c;
 160              		.loc 1 92 5 is_stmt 1
 161              		.loc 1 92 28 is_stmt 0
 162 00e4 17070000 		lla	a4,_ZN8KConsole11inputBufferE
 162      13070700 
 163 00ec 3306C700 		add	a2,a4,a2
 164 00f0 2300A600 		sb	a0,0(a2)
  93:src/KConsole.cpp ****     inputTail = (inputTail+1)%bufferSize;
 165              		.loc 1 93 5 is_stmt 1
 166              		.loc 1 93 15 is_stmt 0
 167 00f4 23B8F600 		sd	a5,16(a3)
  94:src/KConsole.cpp ****     hasCharactersInput->signal();
 168              		.loc 1 94 5 is_stmt 1
 169              		.loc 1 94 31 is_stmt 0
 170 00f8 03B50600 		ld	a0,0(a3)
 171              	.LVL9:
 172 00fc 97000000 		call	_ZN10KSemaphore6signalEv@plt
 172      E7800000 
 173              	.LVL10:
  95:src/KConsole.cpp **** }
 174              		.loc 1 95 1
 175 0104 83308100 		ld	ra,8(sp)
 176              		.cfi_restore 1
 177 0108 03340100 		ld	s0,0(sp)
GAS LISTING /tmp/ccOKE3MP.s 			page 6


 178              		.cfi_restore 8
 179              		.cfi_def_cfa 2, 16
 180 010c 13010101 		addi	sp,sp,16
 181              		.cfi_def_cfa_offset 0
 182 0110 67800000 		jr	ra
 183              	.LVL11:
 184              	.L11:
 185 0114 67800000 		ret
 186              		.cfi_endproc
 187              	.LFE28:
 189              		.align	2
 190              		.globl	_ZN8KConsole17getCharacterInputEv
 192              	_ZN8KConsole17getCharacterInputEv:
 193              	.LFB29:
  96:src/KConsole.cpp **** 
  97:src/KConsole.cpp **** char KConsole::getCharacterInput()
  98:src/KConsole.cpp **** {
 194              		.loc 1 98 1 is_stmt 1
 195              		.cfi_startproc
 196 0118 130101FE 		addi	sp,sp,-32
 197              		.cfi_def_cfa_offset 32
 198 011c 233C1100 		sd	ra,24(sp)
 199 0120 23388100 		sd	s0,16(sp)
 200 0124 23349100 		sd	s1,8(sp)
 201              		.cfi_offset 1, -8
 202              		.cfi_offset 8, -16
 203              		.cfi_offset 9, -24
 204 0128 13040102 		addi	s0,sp,32
 205              		.cfi_def_cfa 8, 0
  99:src/KConsole.cpp ****     hasCharactersInput->wait();
 206              		.loc 1 99 5
 207              		.loc 1 99 29 is_stmt 0
 208 012c 97040000 		lla	s1,.LANCHOR0
 208      93840400 
 209 0134 03B50400 		ld	a0,0(s1)
 210 0138 97000000 		call	_ZN10KSemaphore4waitEv@plt
 210      E7800000 
 211              	.LVL12:
 100:src/KConsole.cpp ****     if(inputHead == inputTail)
 212              		.loc 1 100 5 is_stmt 1
 213              		.loc 1 100 18 is_stmt 0
 214 0140 83B78401 		ld	a5,24(s1)
 215 0144 03B70401 		ld	a4,16(s1)
 216              		.loc 1 100 5
 217 0148 6380E704 		beq	a5,a4,.L16
 101:src/KConsole.cpp ****         return -1;
 102:src/KConsole.cpp ****     char c = inputBuffer[inputHead];
 218              		.loc 1 102 5 is_stmt 1
 219              		.loc 1 102 10 is_stmt 0
 220 014c 17070000 		lla	a4,_ZN8KConsole11inputBufferE
 220      13070700 
 221 0154 3307F700 		add	a4,a4,a5
 222 0158 03450700 		lbu	a0,0(a4)
 223              	.LVL13:
 103:src/KConsole.cpp **** 
 104:src/KConsole.cpp ****     inputHead = (inputHead+1)%bufferSize;
 224              		.loc 1 104 5 is_stmt 1
GAS LISTING /tmp/ccOKE3MP.s 			page 7


 225              		.loc 1 104 27 is_stmt 0
 226 015c 93871700 		addi	a5,a5,1
 227              		.loc 1 104 30
 228 0160 37270000 		li	a4,8192
 229 0164 1307F7FF 		addi	a4,a4,-1
 230 0168 B3F7E700 		and	a5,a5,a4
 231              		.loc 1 104 15
 232 016c 17070000 		sd	a5,.LANCHOR0+24,a4
 232      2330F700 
 105:src/KConsole.cpp **** 
 106:src/KConsole.cpp ****     return c;
 233              		.loc 1 106 5 is_stmt 1
 234              	.LVL14:
 235              	.L15:
 107:src/KConsole.cpp **** }
 236              		.loc 1 107 1 is_stmt 0
 237 0174 83308101 		ld	ra,24(sp)
 238              		.cfi_remember_state
 239              		.cfi_restore 1
 240 0178 03340101 		ld	s0,16(sp)
 241              		.cfi_restore 8
 242              		.cfi_def_cfa 2, 32
 243 017c 83348100 		ld	s1,8(sp)
 244              		.cfi_restore 9
 245 0180 13010102 		addi	sp,sp,32
 246              		.cfi_def_cfa_offset 0
 247 0184 67800000 		jr	ra
 248              	.L16:
 249              		.cfi_restore_state
 101:src/KConsole.cpp ****     char c = inputBuffer[inputHead];
 250              		.loc 1 101 17
 251 0188 1305F00F 		li	a0,255
 252 018c 6FF09FFE 		j	.L15
 253              		.cfi_endproc
 254              	.LFE29:
 256              		.align	2
 257              		.globl	_ZN8KConsole18putCharacterOutputEc
 259              	_ZN8KConsole18putCharacterOutputEc:
 260              	.LFB30:
 108:src/KConsole.cpp **** 
 109:src/KConsole.cpp **** void KConsole::putCharacterOutput(char c)
 110:src/KConsole.cpp **** {
 261              		.loc 1 110 1 is_stmt 1
 262              		.cfi_startproc
 263              	.LVL15:
 111:src/KConsole.cpp ****     if((outputTail+1)%bufferSize == outputHead)
 264              		.loc 1 111 5
 265              		.loc 1 111 19 is_stmt 0
 266 0190 97060000 		lla	a3,.LANCHOR0
 266      93860600 
 267 0198 03B60602 		ld	a2,32(a3)
 268 019c 93071600 		addi	a5,a2,1
 269              		.loc 1 111 22
 270 01a0 37270000 		li	a4,8192
 271 01a4 1307F7FF 		addi	a4,a4,-1
 272 01a8 B3F7E700 		and	a5,a5,a4
 273              		.loc 1 111 34
GAS LISTING /tmp/ccOKE3MP.s 			page 8


 274 01ac 03B78602 		ld	a4,40(a3)
 275              		.loc 1 111 5
 276 01b0 638AE704 		beq	a5,a4,.L21
 110:src/KConsole.cpp ****     if((outputTail+1)%bufferSize == outputHead)
 277              		.loc 1 110 1
 278 01b4 130101FF 		addi	sp,sp,-16
 279              		.cfi_def_cfa_offset 16
 280 01b8 23341100 		sd	ra,8(sp)
 281 01bc 23308100 		sd	s0,0(sp)
 282              		.cfi_offset 1, -8
 283              		.cfi_offset 8, -16
 284 01c0 13040101 		addi	s0,sp,16
 285              		.cfi_def_cfa 8, 0
 112:src/KConsole.cpp ****         return;
 113:src/KConsole.cpp ****     pendingPutc++;
 286              		.loc 1 113 5 is_stmt 1
 287              		.loc 1 113 16 is_stmt 0
 288 01c4 13870600 		mv	a4,a3
 289 01c8 83B60603 		ld	a3,48(a3)
 290 01cc 93861600 		addi	a3,a3,1
 291 01d0 2338D702 		sd	a3,48(a4)
 114:src/KConsole.cpp ****     outputBuffer[outputTail] = c;
 292              		.loc 1 114 5 is_stmt 1
 293              		.loc 1 114 30 is_stmt 0
 294 01d4 97060000 		lla	a3,_ZN8KConsole12outputBufferE
 294      93860600 
 295 01dc 3386C600 		add	a2,a3,a2
 296 01e0 2300A600 		sb	a0,0(a2)
 115:src/KConsole.cpp ****     outputTail = (outputTail+1)%bufferSize;
 297              		.loc 1 115 5 is_stmt 1
 298              		.loc 1 115 16 is_stmt 0
 299 01e4 2330F702 		sd	a5,32(a4)
 116:src/KConsole.cpp ****     hasCharactersOutput->signal();
 300              		.loc 1 116 5 is_stmt 1
 301              		.loc 1 116 32 is_stmt 0
 302 01e8 03358700 		ld	a0,8(a4)
 303              	.LVL16:
 304 01ec 97000000 		call	_ZN10KSemaphore6signalEv@plt
 304      E7800000 
 305              	.LVL17:
 117:src/KConsole.cpp **** }
 306              		.loc 1 117 1
 307 01f4 83308100 		ld	ra,8(sp)
 308              		.cfi_restore 1
 309 01f8 03340100 		ld	s0,0(sp)
 310              		.cfi_restore 8
 311              		.cfi_def_cfa 2, 16
 312 01fc 13010101 		addi	sp,sp,16
 313              		.cfi_def_cfa_offset 0
 314 0200 67800000 		jr	ra
 315              	.LVL18:
 316              	.L21:
 317 0204 67800000 		ret
 318              		.cfi_endproc
 319              	.LFE30:
 321              		.align	2
 322              		.globl	_ZN8KConsole24getCharactersFromConsoleEPv
GAS LISTING /tmp/ccOKE3MP.s 			page 9


 324              	_ZN8KConsole24getCharactersFromConsoleEPv:
 325              	.LFB26:
  31:src/KConsole.cpp ****     while(true)
 326              		.loc 1 31 1 is_stmt 1
 327              		.cfi_startproc
 328              	.LVL19:
  32:src/KConsole.cpp ****     {
 329              		.loc 1 32 5
 330              	.LBB15:
  34:src/KConsole.cpp ****         __asm__ volatile("mv a0, %0"::"r"(x));
 331              		.loc 1 34 9
  34:src/KConsole.cpp ****         __asm__ volatile("mv a0, %0"::"r"(x));
 332              		.loc 1 34 16 is_stmt 0
 333 0208 97070000 		la	a5,CONSOLE_STATUS
 333      83B70700 
 334 0210 83B70700 		ld	a5,0(a5)
 335              	.LVL20:
  35:src/KConsole.cpp ****         __asm__ volatile("lb a1, 0(a0)");
 336              		.loc 1 35 9 is_stmt 1
  35:src/KConsole.cpp ****         __asm__ volatile("lb a1, 0(a0)");
 337              		.loc 1 35 46 is_stmt 0
 338              	#APP
 339              	# 35 "src/KConsole.cpp" 1
  36:src/KConsole.cpp ****         uint64 operation;
 340              		mv a0, a5
 341              	# 0 "" 2
 342              		.loc 1 36 9 is_stmt 1
  36:src/KConsole.cpp ****         uint64 operation;
 343              		.loc 1 36 41 is_stmt 0
 344              	# 36 "src/KConsole.cpp" 1
  37:src/KConsole.cpp ****         __asm__ volatile("mv %0, a1" :  "=r"(operation));
 345              		lb a1, 0(a0)
 346              	# 0 "" 2
 347              		.loc 1 37 9 is_stmt 1
  38:src/KConsole.cpp ****         if(operation & STATUS_READ_MASK)
 348              		.loc 1 38 9
  38:src/KConsole.cpp ****         if(operation & STATUS_READ_MASK)
 349              		.loc 1 38 57 is_stmt 0
 350              	# 38 "src/KConsole.cpp" 1
 351              		mv a5, a1
 352              	# 0 "" 2
 353              	.LVL21:
  39:src/KConsole.cpp ****         {
 354              		.loc 1 39 9 is_stmt 1
 355              	#NO_APP
 356              	.LBB16:
  39:src/KConsole.cpp ****         {
 357              		.loc 1 39 22 is_stmt 0
 358 0220 93F71700 		andi	a5,a5,1
 359              	.LVL22:
  39:src/KConsole.cpp ****         {
 360              		.loc 1 39 9
 361 0224 63800708 		beqz	a5,.L32
 362              	.LBE16:
 363              	.LBE15:
  31:src/KConsole.cpp ****     while(true)
 364              		.loc 1 31 1
GAS LISTING /tmp/ccOKE3MP.s 			page 10


 365 0228 130101FE 		addi	sp,sp,-32
 366              		.cfi_def_cfa_offset 32
 367 022c 233C1100 		sd	ra,24(sp)
 368 0230 23388100 		sd	s0,16(sp)
 369 0234 23349100 		sd	s1,8(sp)
 370              		.cfi_offset 1, -8
 371              		.cfi_offset 8, -16
 372              		.cfi_offset 9, -24
 373 0238 13040102 		addi	s0,sp,32
 374              		.cfi_def_cfa 8, 0
 375              	.LVL23:
 376              	.L28:
 377              	.LBB20:
 378              	.LBB18:
 379              	.LBB17:
  41:src/KConsole.cpp ****             __asm__ volatile("mv a0, %0"::"r"(x));
 380              		.loc 1 41 13 is_stmt 1
  41:src/KConsole.cpp ****             __asm__ volatile("mv a0, %0"::"r"(x));
 381              		.loc 1 41 15 is_stmt 0
 382 023c 97070000 		la	a5,CONSOLE_TX_DATA
 382      83B70700 
 383 0244 83B70700 		ld	a5,0(a5)
 384              	.LVL24:
  42:src/KConsole.cpp ****             __asm__ volatile("lb a1,0(a0)");
 385              		.loc 1 42 13 is_stmt 1
  42:src/KConsole.cpp ****             __asm__ volatile("lb a1,0(a0)");
 386              		.loc 1 42 50 is_stmt 0
 387              	#APP
 388              	# 42 "src/KConsole.cpp" 1
  43:src/KConsole.cpp ****             char c;
 389              		mv a0, a5
 390              	# 0 "" 2
 391              		.loc 1 43 13 is_stmt 1
  43:src/KConsole.cpp ****             char c;
 392              		.loc 1 43 44 is_stmt 0
 393              	# 43 "src/KConsole.cpp" 1
  44:src/KConsole.cpp ****             __asm__ volatile("mv %0, a1" :  "=r"(c));
 394              		lb a1,0(a0)
 395              	# 0 "" 2
 396              		.loc 1 44 13 is_stmt 1
  45:src/KConsole.cpp **** 
 397              		.loc 1 45 13
  45:src/KConsole.cpp **** 
 398              		.loc 1 45 53 is_stmt 0
 399              	# 45 "src/KConsole.cpp" 1
 400              		mv s1, a1
 401              	# 0 "" 2
 402              	#NO_APP
 403 0254 93F4F40F 		andi	s1,s1,0xff
 404              	.LVL25:
  47:src/KConsole.cpp ****             putCharacterOutput(c);
 405              		.loc 1 47 13 is_stmt 1
  47:src/KConsole.cpp ****             putCharacterOutput(c);
 406              		.loc 1 47 30 is_stmt 0
 407 0258 13850400 		mv	a0,s1
 408 025c 97000000 		call	_ZN8KConsole17putCharacterInputEc
 408      E7800000 
GAS LISTING /tmp/ccOKE3MP.s 			page 11


 409              	.LVL26:
  48:src/KConsole.cpp ****         }
 410              		.loc 1 48 13 is_stmt 1
  48:src/KConsole.cpp ****         }
 411              		.loc 1 48 31 is_stmt 0
 412 0264 13850400 		mv	a0,s1
 413 0268 97000000 		call	_ZN8KConsole18putCharacterOutputEc
 413      E7800000 
 414              	.LVL27:
 415              	.LBE17:
 416              	.LBE18:
 417              	.LBE20:
  32:src/KConsole.cpp ****     {
 418              		.loc 1 32 5 is_stmt 1
  32:src/KConsole.cpp ****     {
 419              		.loc 1 32 5
 420              	.LBB21:
  34:src/KConsole.cpp ****         __asm__ volatile("mv a0, %0"::"r"(x));
 421              		.loc 1 34 9
  34:src/KConsole.cpp ****         __asm__ volatile("mv a0, %0"::"r"(x));
 422              		.loc 1 34 16 is_stmt 0
 423 0270 97070000 		la	a5,CONSOLE_STATUS
 423      83B70700 
 424 0278 83B70700 		ld	a5,0(a5)
 425              	.LVL28:
  35:src/KConsole.cpp ****         __asm__ volatile("lb a1, 0(a0)");
 426              		.loc 1 35 9 is_stmt 1
  35:src/KConsole.cpp ****         __asm__ volatile("lb a1, 0(a0)");
 427              		.loc 1 35 46 is_stmt 0
 428              	#APP
 429              	# 35 "src/KConsole.cpp" 1
  36:src/KConsole.cpp ****         uint64 operation;
 430              		mv a0, a5
 431              	# 0 "" 2
 432              		.loc 1 36 9 is_stmt 1
  36:src/KConsole.cpp ****         uint64 operation;
 433              		.loc 1 36 41 is_stmt 0
 434              	# 36 "src/KConsole.cpp" 1
  37:src/KConsole.cpp ****         __asm__ volatile("mv %0, a1" :  "=r"(operation));
 435              		lb a1, 0(a0)
 436              	# 0 "" 2
 437              		.loc 1 37 9 is_stmt 1
  38:src/KConsole.cpp ****         if(operation & STATUS_READ_MASK)
 438              		.loc 1 38 9
  38:src/KConsole.cpp ****         if(operation & STATUS_READ_MASK)
 439              		.loc 1 38 57 is_stmt 0
 440              	# 38 "src/KConsole.cpp" 1
 441              		mv a5, a1
 442              	# 0 "" 2
 443              	.LVL29:
  39:src/KConsole.cpp ****         {
 444              		.loc 1 39 9 is_stmt 1
 445              	#NO_APP
 446              	.LBB19:
  39:src/KConsole.cpp ****         {
 447              		.loc 1 39 22 is_stmt 0
 448 0288 93F71700 		andi	a5,a5,1
GAS LISTING /tmp/ccOKE3MP.s 			page 12


 449              	.LVL30:
  39:src/KConsole.cpp ****         {
 450              		.loc 1 39 9
 451 028c E39807FA 		bnez	a5,.L28
 452              	.LBE19:
 453              	.LBE21:
  53:src/KConsole.cpp **** 
 454              		.loc 1 53 1
 455 0290 83308101 		ld	ra,24(sp)
 456              		.cfi_restore 1
 457 0294 03340101 		ld	s0,16(sp)
 458              		.cfi_restore 8
 459              		.cfi_def_cfa 2, 32
 460 0298 83348100 		ld	s1,8(sp)
 461              		.cfi_restore 9
 462              	.LVL31:
 463 029c 13010102 		addi	sp,sp,32
 464              		.cfi_def_cfa_offset 0
 465 02a0 67800000 		jr	ra
 466              	.LVL32:
 467              	.L32:
 468 02a4 67800000 		ret
 469              		.cfi_endproc
 470              	.LFE26:
 472              		.align	2
 473              		.globl	_ZN8KConsole18getCharacterOutputEv
 475              	_ZN8KConsole18getCharacterOutputEv:
 476              	.LFB31:
 118:src/KConsole.cpp **** 
 119:src/KConsole.cpp **** char KConsole::getCharacterOutput()
 120:src/KConsole.cpp **** {
 477              		.loc 1 120 1 is_stmt 1
 478              		.cfi_startproc
 479 02a8 130101FE 		addi	sp,sp,-32
 480              		.cfi_def_cfa_offset 32
 481 02ac 233C1100 		sd	ra,24(sp)
 482 02b0 23388100 		sd	s0,16(sp)
 483 02b4 23349100 		sd	s1,8(sp)
 484              		.cfi_offset 1, -8
 485              		.cfi_offset 8, -16
 486              		.cfi_offset 9, -24
 487 02b8 13040102 		addi	s0,sp,32
 488              		.cfi_def_cfa 8, 0
 121:src/KConsole.cpp ****     hasCharactersOutput->wait();
 489              		.loc 1 121 5
 490              		.loc 1 121 30 is_stmt 0
 491 02bc 97040000 		lla	s1,.LANCHOR0
 491      93840400 
 492 02c4 03B58400 		ld	a0,8(s1)
 493 02c8 97000000 		call	_ZN10KSemaphore4waitEv@plt
 493      E7800000 
 494              	.LVL33:
 122:src/KConsole.cpp ****     if(outputHead == outputTail)
 495              		.loc 1 122 5 is_stmt 1
 496              		.loc 1 122 19 is_stmt 0
 497 02d0 83B78402 		ld	a5,40(s1)
 498 02d4 03B70402 		ld	a4,32(s1)
GAS LISTING /tmp/ccOKE3MP.s 			page 13


 499              		.loc 1 122 5
 500 02d8 6380E704 		beq	a5,a4,.L35
 123:src/KConsole.cpp ****         return -1;
 124:src/KConsole.cpp **** 
 125:src/KConsole.cpp ****     char c = outputBuffer[outputHead];
 501              		.loc 1 125 5 is_stmt 1
 502              		.loc 1 125 10 is_stmt 0
 503 02dc 17070000 		lla	a4,_ZN8KConsole12outputBufferE
 503      13070700 
 504 02e4 3307F700 		add	a4,a4,a5
 505 02e8 03450700 		lbu	a0,0(a4)
 506              	.LVL34:
 126:src/KConsole.cpp **** 
 127:src/KConsole.cpp ****     outputHead = (outputHead+1)%bufferSize;
 507              		.loc 1 127 5 is_stmt 1
 508              		.loc 1 127 29 is_stmt 0
 509 02ec 93871700 		addi	a5,a5,1
 510              		.loc 1 127 32
 511 02f0 37270000 		li	a4,8192
 512 02f4 1307F7FF 		addi	a4,a4,-1
 513 02f8 B3F7E700 		and	a5,a5,a4
 514              		.loc 1 127 16
 515 02fc 17070000 		sd	a5,.LANCHOR0+40,a4
 515      2330F700 
 128:src/KConsole.cpp **** 
 129:src/KConsole.cpp ****     return c;
 516              		.loc 1 129 5 is_stmt 1
 517              	.LVL35:
 518              	.L34:
 130:src/KConsole.cpp **** }
 519              		.loc 1 130 1 is_stmt 0
 520 0304 83308101 		ld	ra,24(sp)
 521              		.cfi_remember_state
 522              		.cfi_restore 1
 523 0308 03340101 		ld	s0,16(sp)
 524              		.cfi_restore 8
 525              		.cfi_def_cfa 2, 32
 526 030c 83348100 		ld	s1,8(sp)
 527              		.cfi_restore 9
 528 0310 13010102 		addi	sp,sp,32
 529              		.cfi_def_cfa_offset 0
 530 0314 67800000 		jr	ra
 531              	.L35:
 532              		.cfi_restore_state
 123:src/KConsole.cpp **** 
 533              		.loc 1 123 17
 534 0318 1305F00F 		li	a0,255
 535 031c 6FF09FFE 		j	.L34
 536              		.cfi_endproc
 537              	.LFE31:
 539              		.align	2
 540              		.globl	_ZN8KConsole11putcHandlerEv
 542              	_ZN8KConsole11putcHandlerEv:
 543              	.LFB32:
 131:src/KConsole.cpp **** 
 132:src/KConsole.cpp **** void KConsole::putcHandler()
 133:src/KConsole.cpp **** {
GAS LISTING /tmp/ccOKE3MP.s 			page 14


 544              		.loc 1 133 1 is_stmt 1
 545              		.cfi_startproc
 546 0320 130101FF 		addi	sp,sp,-16
 547              		.cfi_def_cfa_offset 16
 548 0324 23341100 		sd	ra,8(sp)
 549 0328 23308100 		sd	s0,0(sp)
 550              		.cfi_offset 1, -8
 551              		.cfi_offset 8, -16
 552 032c 13040101 		addi	s0,sp,16
 553              		.cfi_def_cfa 8, 0
 134:src/KConsole.cpp ****     uint64 ch;
 554              		.loc 1 134 5
 135:src/KConsole.cpp ****     __asm__ volatile("mv %0, a1" : "=r"(ch));
 555              		.loc 1 135 5
 556              		.loc 1 135 45 is_stmt 0
 557              	#APP
 558              	# 135 "src/KConsole.cpp" 1
 136              	    putCharacterOutput((char)ch);
 559              		mv a0, a1
 560              	# 0 "" 2
 561              	.LVL36:
 562              		.loc 1 136 5 is_stmt 1
 563              		.loc 1 136 23 is_stmt 0
 564              	#NO_APP
 565 0334 1375F50F 		andi	a0,a0,0xff
 566              	.LVL37:
 567 0338 97000000 		call	_ZN8KConsole18putCharacterOutputEc
 567      E7800000 
 568              	.LVL38:
 137:src/KConsole.cpp **** }
 569              		.loc 1 137 1
 570 0340 83308100 		ld	ra,8(sp)
 571              		.cfi_restore 1
 572 0344 03340100 		ld	s0,0(sp)
 573              		.cfi_restore 8
 574              		.cfi_def_cfa 2, 16
 575 0348 13010101 		addi	sp,sp,16
 576              		.cfi_def_cfa_offset 0
 577 034c 67800000 		jr	ra
 578              		.cfi_endproc
 579              	.LFE32:
 581              		.align	2
 582              		.globl	_ZN8KConsole11getcHandlerEv
 584              	_ZN8KConsole11getcHandlerEv:
 585              	.LFB33:
 138:src/KConsole.cpp **** 
 139:src/KConsole.cpp **** void KConsole::getcHandler()
 140:src/KConsole.cpp **** {
 586              		.loc 1 140 1 is_stmt 1
 587              		.cfi_startproc
 588 0350 130101FF 		addi	sp,sp,-16
 589              		.cfi_def_cfa_offset 16
 590 0354 23341100 		sd	ra,8(sp)
 591 0358 23308100 		sd	s0,0(sp)
 592              		.cfi_offset 1, -8
 593              		.cfi_offset 8, -16
 594 035c 13040101 		addi	s0,sp,16
GAS LISTING /tmp/ccOKE3MP.s 			page 15


 595              		.cfi_def_cfa 8, 0
 141:src/KConsole.cpp ****     char ch;
 596              		.loc 1 141 5
 142:src/KConsole.cpp ****     ch = getCharacterInput();
 597              		.loc 1 142 5
 598              		.loc 1 142 27 is_stmt 0
 599 0360 97000000 		call	_ZN8KConsole17getCharacterInputEv
 599      E7800000 
 600              	.LVL39:
 143:src/KConsole.cpp ****     __asm__ volatile("mv a0, %0" : :"r"((uint64)ch));
 601              		.loc 1 143 5 is_stmt 1
 602              		.loc 1 143 53 is_stmt 0
 603              	#APP
 604              	# 143 "src/KConsole.cpp" 1
 144              	    Riscv::w_a0_sscratch();
 605              		mv a0, a0
 606              	# 0 "" 2
 607              		.loc 1 144 5 is_stmt 1
 608              		.loc 1 144 25 is_stmt 0
 609              	#NO_APP
 610 036c 97000000 		call	_ZN5Riscv13w_a0_sscratchEv@plt
 610      E7800000 
 611              	.LVL40:
 145:src/KConsole.cpp **** }
 612              		.loc 1 145 1
 613 0374 83308100 		ld	ra,8(sp)
 614              		.cfi_restore 1
 615 0378 03340100 		ld	s0,0(sp)
 616              		.cfi_restore 8
 617              		.cfi_def_cfa 2, 16
 618 037c 13010101 		addi	sp,sp,16
 619              		.cfi_def_cfa_offset 0
 620 0380 67800000 		jr	ra
 621              		.cfi_endproc
 622              	.LFE33:
 624              		.align	2
 625              		.globl	_ZN8KConsole17outputBufferEmptyEv
 627              	_ZN8KConsole17outputBufferEmptyEv:
 628              	.LFB34:
 146:src/KConsole.cpp **** 
 147:src/KConsole.cpp **** bool KConsole::outputBufferEmpty()
 148:src/KConsole.cpp **** {
 629              		.loc 1 148 1 is_stmt 1
 630              		.cfi_startproc
 631 0384 130101FF 		addi	sp,sp,-16
 632              		.cfi_def_cfa_offset 16
 633 0388 23348100 		sd	s0,8(sp)
 634              		.cfi_offset 8, -8
 635 038c 13040101 		addi	s0,sp,16
 636              		.cfi_def_cfa 8, 0
 149:src/KConsole.cpp ****     return pendingPutc == 0;
 637              		.loc 1 149 5
 150:src/KConsole.cpp **** }
 638              		.loc 1 150 1 is_stmt 0
 639 0390 17050000 		ld	a0,.LANCHOR0+48
 639      03350500 
 640 0398 13351500 		seqz	a0,a0
GAS LISTING /tmp/ccOKE3MP.s 			page 16


 641 039c 03348100 		ld	s0,8(sp)
 642              		.cfi_restore 8
 643              		.cfi_def_cfa 2, 16
 644 03a0 13010101 		addi	sp,sp,16
 645              		.cfi_def_cfa_offset 0
 646 03a4 67800000 		jr	ra
 647              		.cfi_endproc
 648              	.LFE34:
 650              		.align	2
 651              		.globl	_ZN8KConsole23sendCharactersToConsoleEPv
 653              	_ZN8KConsole23sendCharactersToConsoleEPv:
 654              	.LFB27:
  56:src/KConsole.cpp ****     uint64 sie = Riscv::r_sie();
 655              		.loc 1 56 1 is_stmt 1
 656              		.cfi_startproc
 657              	.LVL41:
 658 03a8 130101FC 		addi	sp,sp,-64
 659              		.cfi_def_cfa_offset 64
 660 03ac 233C1102 		sd	ra,56(sp)
 661 03b0 23388102 		sd	s0,48(sp)
 662 03b4 23349102 		sd	s1,40(sp)
 663              		.cfi_offset 1, -8
 664              		.cfi_offset 8, -16
 665              		.cfi_offset 9, -24
 666 03b8 13040104 		addi	s0,sp,64
 667              		.cfi_def_cfa 8, 0
  57:src/KConsole.cpp ****     Riscv::mc_sie(Riscv::SIP_SSIP);
 668              		.loc 1 57 5
 669              	.LBB22:
 670              	.LBB23:
 671              		.file 2 "src/../h/Riscv.hpp"
   1:src/../h/Riscv.hpp **** //
   2:src/../h/Riscv.hpp **** // Created by os on 4/27/22.
   3:src/../h/Riscv.hpp **** //
   4:src/../h/Riscv.hpp **** 
   5:src/../h/Riscv.hpp **** #ifndef PROJECT_BASE_V1_0_RISCV_HPP
   6:src/../h/Riscv.hpp **** #define PROJECT_BASE_V1_0_RISCV_HPP
   7:src/../h/Riscv.hpp **** 
   8:src/../h/Riscv.hpp **** #include "../lib/hw.h"
   9:src/../h/Riscv.hpp **** #include "../test/printing.hpp"
  10:src/../h/Riscv.hpp **** 
  11:src/../h/Riscv.hpp **** class Riscv
  12:src/../h/Riscv.hpp **** {
  13:src/../h/Riscv.hpp **** public:
  14:src/../h/Riscv.hpp ****     static void kernelMain();
  15:src/../h/Riscv.hpp **** 
  16:src/../h/Riscv.hpp ****     static void changePrivMode();
  17:src/../h/Riscv.hpp **** 
  18:src/../h/Riscv.hpp ****     static void initSystem();
  19:src/../h/Riscv.hpp ****     static void endSystem();
  20:src/../h/Riscv.hpp **** 
  21:src/../h/Riscv.hpp ****     static void userMainWrapper(void* p);
  22:src/../h/Riscv.hpp **** 
  23:src/../h/Riscv.hpp ****     static void enableInterrupts();
  24:src/../h/Riscv.hpp **** 
  25:src/../h/Riscv.hpp ****     static void disableTimerInterrupts();
  26:src/../h/Riscv.hpp **** 
GAS LISTING /tmp/ccOKE3MP.s 			page 17


  27:src/../h/Riscv.hpp ****     static void disableInterrupts();
  28:src/../h/Riscv.hpp **** 
  29:src/../h/Riscv.hpp ****     static void idleRiscv(void* arg);
  30:src/../h/Riscv.hpp **** 
  31:src/../h/Riscv.hpp ****     static void pushRegisters();
  32:src/../h/Riscv.hpp ****     static void popRegisters();
  33:src/../h/Riscv.hpp **** 
  34:src/../h/Riscv.hpp ****     static uint64 r_scause();
  35:src/../h/Riscv.hpp ****     static void w_scause(uint64 scause);
  36:src/../h/Riscv.hpp **** 
  37:src/../h/Riscv.hpp ****     static uint64 r_sepc();
  38:src/../h/Riscv.hpp ****     static void w_sepc(uint64 sepc);
  39:src/../h/Riscv.hpp **** 
  40:src/../h/Riscv.hpp ****     static uint64 r_stvec();
  41:src/../h/Riscv.hpp ****     static void w_stvec(uint64 stvec);
  42:src/../h/Riscv.hpp **** 
  43:src/../h/Riscv.hpp ****     static uint64 r_stval();
  44:src/../h/Riscv.hpp ****     static void w_stval(uint64 stval);
  45:src/../h/Riscv.hpp **** 
  46:src/../h/Riscv.hpp ****     static bool finishSystem;
  47:src/../h/Riscv.hpp **** 
  48:src/../h/Riscv.hpp ****     enum BitMaskSip
  49:src/../h/Riscv.hpp ****     {
  50:src/../h/Riscv.hpp ****         SIP_SSIP = (1 << 1),
  51:src/../h/Riscv.hpp ****         SIP_STIP = (1 << 5),
  52:src/../h/Riscv.hpp ****         SIP_SEIP = (1 << 9),
  53:src/../h/Riscv.hpp ****     };
  54:src/../h/Riscv.hpp **** 
  55:src/../h/Riscv.hpp ****     static void ms_sip(uint64 mask);
  56:src/../h/Riscv.hpp **** 
  57:src/../h/Riscv.hpp ****     static void mc_sip(uint64 mask);
  58:src/../h/Riscv.hpp **** 
  59:src/../h/Riscv.hpp ****     static uint64 r_sip();
  60:src/../h/Riscv.hpp **** 
  61:src/../h/Riscv.hpp ****     static void w_sip(uint64 sip);
  62:src/../h/Riscv.hpp **** 
  63:src/../h/Riscv.hpp ****     enum BitMaskSstatus
  64:src/../h/Riscv.hpp ****     {
  65:src/../h/Riscv.hpp ****         SSTATUS_SIE = (1 << 1),
  66:src/../h/Riscv.hpp ****         SSTATUS_SPIE = (1 << 5),
  67:src/../h/Riscv.hpp ****         SSTATUS_SPP = (1 << 8),
  68:src/../h/Riscv.hpp ****     };
  69:src/../h/Riscv.hpp **** 
  70:src/../h/Riscv.hpp ****     static void w_a0_sscratch();
  71:src/../h/Riscv.hpp **** 
  72:src/../h/Riscv.hpp ****     static void ms_sstatus(uint64 mask);
  73:src/../h/Riscv.hpp **** 
  74:src/../h/Riscv.hpp ****     static void mc_sstatus(uint64 mask);
  75:src/../h/Riscv.hpp **** 
  76:src/../h/Riscv.hpp ****     static void mc_sie(uint64 mask);
  77:src/../h/Riscv.hpp **** 
  78:src/../h/Riscv.hpp ****     static void ms_sie(uint64 mask);
  79:src/../h/Riscv.hpp **** 
  80:src/../h/Riscv.hpp ****     static uint64 r_sstatus();
  81:src/../h/Riscv.hpp **** 
  82:src/../h/Riscv.hpp ****     static void w_sstatus(uint64 sstatus);
  83:src/../h/Riscv.hpp **** 
GAS LISTING /tmp/ccOKE3MP.s 			page 18


  84:src/../h/Riscv.hpp ****     static uint64 r_sie();
  85:src/../h/Riscv.hpp ****     static void w_sie(uint64 sie);
  86:src/../h/Riscv.hpp ****     static void popSppSpie();
  87:src/../h/Riscv.hpp **** 
  88:src/../h/Riscv.hpp ****     static void supervisorTrap();
  89:src/../h/Riscv.hpp ****     static void handleSupervisorTrap();
  90:src/../h/Riscv.hpp **** 
  91:src/../h/Riscv.hpp ****     static void myTestsWrapper(void* );
  92:src/../h/Riscv.hpp **** 
  93:src/../h/Riscv.hpp ****     static const uint64 bntOne = 1UL << 63;;
  94:src/../h/Riscv.hpp ****     static const uint64 bntZero = 0UL;
  95:src/../h/Riscv.hpp ****     static const uint64 timerInterrupt = bntOne + 1UL;
  96:src/../h/Riscv.hpp ****     static const uint64 hwInterrupt = bntOne + 9UL;
  97:src/../h/Riscv.hpp ****     static const uint64 operationInterrupt = bntZero + 2UL;
  98:src/../h/Riscv.hpp ****     static const uint64 addrReadInterrupt = bntZero + 5UL;
  99:src/../h/Riscv.hpp ****     static const uint64 addrWriteInterrupt = bntZero + 7UL;
 100:src/../h/Riscv.hpp ****     static const uint64 ecallUserInterrupt = bntZero + 8UL;
 101:src/../h/Riscv.hpp ****     static const uint64 ecallSystemInterupt = bntZero + 9UL;
 102:src/../h/Riscv.hpp **** 
 103:src/../h/Riscv.hpp ****     static uint64 totalTime;
 104:src/../h/Riscv.hpp **** };
 105:src/../h/Riscv.hpp **** 
 106:src/../h/Riscv.hpp **** inline void Riscv::mc_sie(uint64 mask)
 107:src/../h/Riscv.hpp **** {
 108:src/../h/Riscv.hpp ****     __asm__ volatile("csrc sie, %0" : :"r"(mask));
 109:src/../h/Riscv.hpp **** }
 110:src/../h/Riscv.hpp **** 
 111:src/../h/Riscv.hpp **** inline uint64 Riscv::r_scause() {
 112:src/../h/Riscv.hpp ****     uint64 volatile scause;
 113:src/../h/Riscv.hpp ****     __asm__ volatile("csrr %0, scause" : "=r"(scause));
 114:src/../h/Riscv.hpp ****     return scause;
 115:src/../h/Riscv.hpp **** }
 116:src/../h/Riscv.hpp **** 
 117:src/../h/Riscv.hpp **** inline void Riscv::w_scause(uint64 scause) {
 118:src/../h/Riscv.hpp ****     __asm__ volatile("csrw scause, %0" : :"r"(scause));
 119:src/../h/Riscv.hpp **** }
 120:src/../h/Riscv.hpp **** 
 121:src/../h/Riscv.hpp **** inline uint64 Riscv::r_sepc() {
 122:src/../h/Riscv.hpp ****     uint64 volatile sepc;
 123:src/../h/Riscv.hpp ****     __asm__ volatile("csrr %0, sepc" : "=r"(sepc));
 124:src/../h/Riscv.hpp ****     return sepc;
 125:src/../h/Riscv.hpp **** }
 126:src/../h/Riscv.hpp **** 
 127:src/../h/Riscv.hpp **** inline void Riscv::w_sepc(uint64 sepc) {
 128:src/../h/Riscv.hpp ****     __asm__ volatile("csrw sepc, %0" : :"r"(sepc));
 129:src/../h/Riscv.hpp **** }
 130:src/../h/Riscv.hpp **** 
 131:src/../h/Riscv.hpp **** inline uint64 Riscv::r_stvec() {
 132:src/../h/Riscv.hpp ****     uint64 volatile stvec;
 133:src/../h/Riscv.hpp ****     __asm__ volatile("csrr %0, stvec" : "=r"(stvec));
 134:src/../h/Riscv.hpp ****     return stvec;
 135:src/../h/Riscv.hpp **** }
 136:src/../h/Riscv.hpp **** 
 137:src/../h/Riscv.hpp **** inline void Riscv::w_stvec(uint64 stvec) {
 138:src/../h/Riscv.hpp ****     __asm__ volatile("csrw stvec, %0" : :"r"(stvec));
 139:src/../h/Riscv.hpp **** }
 140:src/../h/Riscv.hpp **** 
GAS LISTING /tmp/ccOKE3MP.s 			page 19


 141:src/../h/Riscv.hpp **** inline uint64 Riscv::r_stval() {
 142:src/../h/Riscv.hpp ****     uint64 volatile stval;
 143:src/../h/Riscv.hpp ****     __asm__ volatile("csrr %0, stval" : "=r"(stval));
 144:src/../h/Riscv.hpp ****     return stval;
 145:src/../h/Riscv.hpp **** }
 146:src/../h/Riscv.hpp **** 
 147:src/../h/Riscv.hpp **** inline void Riscv::w_sie(uint64 sie)
 148:src/../h/Riscv.hpp **** {
 149:src/../h/Riscv.hpp ****     __asm__ volatile("csrw sie, %0" : :"r"(sie));
 150:src/../h/Riscv.hpp **** }
 151:src/../h/Riscv.hpp **** 
 152:src/../h/Riscv.hpp **** inline void Riscv::w_stval(uint64 stval) {
 153:src/../h/Riscv.hpp ****     __asm__ volatile("csrw stval, %0" : :"r"(stval));
 154:src/../h/Riscv.hpp **** }
 155:src/../h/Riscv.hpp **** 
 156:src/../h/Riscv.hpp **** inline void Riscv::ms_sip(uint64 mask) {
 157:src/../h/Riscv.hpp ****     __asm__ volatile("csrs sip, %0" : :"r"(mask));
 158:src/../h/Riscv.hpp **** }
 159:src/../h/Riscv.hpp **** 
 160:src/../h/Riscv.hpp **** inline void Riscv::mc_sip(uint64 mask) {
 161:src/../h/Riscv.hpp ****     __asm__ volatile("csrc sip, %0" : :"r"(mask));
 162:src/../h/Riscv.hpp **** }
 163:src/../h/Riscv.hpp **** 
 164:src/../h/Riscv.hpp **** inline uint64 Riscv::r_sie()
 165:src/../h/Riscv.hpp **** {
 166:src/../h/Riscv.hpp ****     uint64 volatile sie;
 672              		.loc 2 166 5
 167:src/../h/Riscv.hpp ****     __asm__ volatile("csrr %0, sip" : "=r"(sie));
 673              		.loc 2 167 5
 674              		.loc 2 167 49 is_stmt 0
 675              	#APP
 676              	# 167 "src/../h/Riscv.hpp" 1
 168              	    return sie;
 677              		csrr a5, sip
 678              	# 0 "" 2
 679              	#NO_APP
 680 03c0 2338F4FC 		sd	a5,-48(s0)
 681              		.loc 2 168 5 is_stmt 1
 682              		.loc 2 168 12 is_stmt 0
 683 03c4 833404FD 		ld	s1,-48(s0)
 684              	.LVL42:
 685              	.LBE23:
 686              	.LBE22:
  58:src/KConsole.cpp ****     while(true)
 687              		.loc 1 58 5 is_stmt 1
 688              	.LBB24:
 689              	.LBB25:
 108:src/../h/Riscv.hpp **** }
 690              		.loc 2 108 5
 108:src/../h/Riscv.hpp **** }
 691              		.loc 2 108 50 is_stmt 0
 692 03c8 93072000 		li	a5,2
 693              	#APP
 694              	# 108 "src/../h/Riscv.hpp" 1
 109:src/../h/Riscv.hpp **** 
 695              		csrc sie, a5
 696              	# 0 "" 2
GAS LISTING /tmp/ccOKE3MP.s 			page 20


 697              		.loc 2 109 1
 698              	#NO_APP
 699 03d0 6F00C003 		j	.L44
 700              	.LVL43:
 701              	.L49:
 702              	.LBE25:
 703              	.LBE24:
 704              	.LBB26:
  62:src/KConsole.cpp **** 
 705              		.loc 1 62 17 is_stmt 1
  62:src/KConsole.cpp **** 
 706              		.loc 1 62 28 is_stmt 0
 707 03d4 97000000 		call	thread_exit@plt
 707      E7800000 
 708              	.LVL44:
 709 03dc 6F008005 		j	.L45
 710              	.LVL45:
 711              	.L46:
 712              	.LBB27:
  80:src/KConsole.cpp ****                 thread_dispatch();
 713              		.loc 1 80 17 is_stmt 1
  80:src/KConsole.cpp ****                 thread_dispatch();
 714              		.loc 1 80 53 is_stmt 0
 715 03e0 9B840400 		sext.w	s1,s1
 716              	.LVL46:
  80:src/KConsole.cpp ****                 thread_dispatch();
 717              		.loc 1 80 30
 718 03e4 93F42400 		andi	s1,s1,2
 719 03e8 9B840400 		sext.w	s1,s1
 720              	.LVL47:
 721              	.LBB28:
 722              	.LBB29:
 169:src/../h/Riscv.hpp **** }
 170:src/../h/Riscv.hpp **** 
 171:src/../h/Riscv.hpp **** inline void Riscv::ms_sie(uint64 mask)
 172:src/../h/Riscv.hpp **** {
 173:src/../h/Riscv.hpp ****     __asm__ volatile("csrs sie, %0" : :"r"(mask));
 723              		.loc 2 173 5 is_stmt 1
 724              		.loc 2 173 50 is_stmt 0
 725              	#APP
 726              	# 173 "src/../h/Riscv.hpp" 1
 174              	}
 727              		csrs sie, s1
 728              	# 0 "" 2
 729              	.LVL48:
 730              	#NO_APP
 731              	.LBE29:
 732              	.LBE28:
  81:src/KConsole.cpp ****                 sie = Riscv::r_sie();
 733              		.loc 1 81 17 is_stmt 1
  81:src/KConsole.cpp ****                 sie = Riscv::r_sie();
 734              		.loc 1 81 32 is_stmt 0
 735 03f0 97000000 		call	thread_dispatch@plt
 735      E7800000 
 736              	.LVL49:
  82:src/KConsole.cpp ****                 Riscv::mc_sie(Riscv::SIP_SSIP);
 737              		.loc 1 82 17 is_stmt 1
GAS LISTING /tmp/ccOKE3MP.s 			page 21


 738              	.LBB30:
 739              	.LBB31:
 166:src/../h/Riscv.hpp ****     __asm__ volatile("csrr %0, sip" : "=r"(sie));
 740              		.loc 2 166 5
 167:src/../h/Riscv.hpp ****     return sie;
 741              		.loc 2 167 5
 167:src/../h/Riscv.hpp ****     return sie;
 742              		.loc 2 167 49 is_stmt 0
 743              	#APP
 744              	# 167 "src/../h/Riscv.hpp" 1
 745              		csrr a5, sip
 746              	# 0 "" 2
 747              	#NO_APP
 748 03fc 233CF4FC 		sd	a5,-40(s0)
 168:src/../h/Riscv.hpp **** }
 749              		.loc 2 168 5 is_stmt 1
 168:src/../h/Riscv.hpp **** }
 750              		.loc 2 168 12 is_stmt 0
 751 0400 833484FD 		ld	s1,-40(s0)
 752              	.LVL50:
 753              	.LBE31:
 754              	.LBE30:
  83:src/KConsole.cpp ****             }
 755              		.loc 1 83 17 is_stmt 1
 756              	.LBB32:
 757              	.LBB33:
 108:src/../h/Riscv.hpp **** }
 758              		.loc 2 108 5
 108:src/../h/Riscv.hpp **** }
 759              		.loc 2 108 50 is_stmt 0
 760 0404 93072000 		li	a5,2
 761              	#APP
 762              	# 108 "src/../h/Riscv.hpp" 1
 763              		csrc sie, a5
 764              	# 0 "" 2
 765              	.LVL51:
 766              	#NO_APP
 767              	.L44:
 768              	.LBE33:
 769              	.LBE32:
 770              	.LBE27:
 771              	.LBE26:
  59:src/KConsole.cpp ****     {
 772              		.loc 1 59 5 is_stmt 1
 773              	.LBB36:
  61:src/KConsole.cpp ****                 thread_exit();
 774              		.loc 1 61 13
  61:src/KConsole.cpp ****                 thread_exit();
 775              		.loc 1 61 69 is_stmt 0
 776 040c 97070000 		la	a5,_ZN5Riscv12finishSystemE
 776      83B70700 
 777 0414 83C70700 		lbu	a5,0(a5)
 778 0418 638E0700 		beqz	a5,.L45
  61:src/KConsole.cpp ****                 thread_exit();
 779              		.loc 1 61 66 discriminator 1
 780 041c 97000000 		call	_ZN8KConsole17outputBufferEmptyEv
 780      E7800000 
GAS LISTING /tmp/ccOKE3MP.s 			page 22


 781              	.LVL52:
  61:src/KConsole.cpp ****                 thread_exit();
 782              		.loc 1 61 36 discriminator 1
 783 0424 63080500 		beqz	a0,.L45
  61:src/KConsole.cpp ****                 thread_exit();
 784              		.loc 1 61 84 discriminator 3
 785 0428 97070000 		ld	a5,.LANCHOR0+56
 785      83B70700 
  61:src/KConsole.cpp ****                 thread_exit();
 786              		.loc 1 61 69 discriminator 3
 787 0430 E38207FA 		beqz	a5,.L49
 788              	.L45:
  64:src/KConsole.cpp ****             __asm__ volatile("mv a0, %0"::"r"(x));
 789              		.loc 1 64 13 is_stmt 1
  64:src/KConsole.cpp ****             __asm__ volatile("mv a0, %0"::"r"(x));
 790              		.loc 1 64 20 is_stmt 0
 791 0434 97070000 		la	a5,CONSOLE_STATUS
 791      83B70700 
 792 043c 83B70700 		ld	a5,0(a5)
 793              	.LVL53:
  65:src/KConsole.cpp ****             __asm__ volatile("lb a1, 0(a0)");
 794              		.loc 1 65 13 is_stmt 1
  65:src/KConsole.cpp ****             __asm__ volatile("lb a1, 0(a0)");
 795              		.loc 1 65 50 is_stmt 0
 796              	#APP
 797              	# 65 "src/KConsole.cpp" 1
  66:src/KConsole.cpp ****             uint64 operation;
 798              		mv a0, a5
 799              	# 0 "" 2
 800              		.loc 1 66 13 is_stmt 1
  66:src/KConsole.cpp ****             uint64 operation;
 801              		.loc 1 66 45 is_stmt 0
 802              	# 66 "src/KConsole.cpp" 1
  67:src/KConsole.cpp ****             __asm__ volatile("mv %0, a1" :  "=r"(operation));
 803              		lb a1, 0(a0)
 804              	# 0 "" 2
 805              		.loc 1 67 13 is_stmt 1
  68:src/KConsole.cpp ****             if ((operation & STATUS_WRITE_MASK) && pendingPutc > 0)
 806              		.loc 1 68 13
  68:src/KConsole.cpp ****             if ((operation & STATUS_WRITE_MASK) && pendingPutc > 0)
 807              		.loc 1 68 61 is_stmt 0
 808              	# 68 "src/KConsole.cpp" 1
 809              		mv a5, a1
 810              	# 0 "" 2
 811              	.LVL54:
  69:src/KConsole.cpp ****             {
 812              		.loc 1 69 13 is_stmt 1
 813              	#NO_APP
 814              	.LBB35:
  69:src/KConsole.cpp ****             {
 815              		.loc 1 69 28 is_stmt 0
 816 044c 93F70702 		andi	a5,a5,32
 817              	.LVL55:
  69:src/KConsole.cpp ****             {
 818              		.loc 1 69 13
 819 0450 E38807F8 		beqz	a5,.L46
  69:src/KConsole.cpp ****             {
GAS LISTING /tmp/ccOKE3MP.s 			page 23


 820              		.loc 1 69 64 discriminator 1
 821 0454 97070000 		ld	a5,.LANCHOR0+48
 821      83B70700 
  69:src/KConsole.cpp ****             {
 822              		.loc 1 69 49 discriminator 1
 823 045c E38207F8 		beqz	a5,.L46
 824              	.LBB34:
  71:src/KConsole.cpp ****                 pendingPutc--;
 825              		.loc 1 71 17 is_stmt 1
  71:src/KConsole.cpp ****                 pendingPutc--;
 826              		.loc 1 71 53 is_stmt 0
 827 0460 97000000 		call	_ZN8KConsole18getCharacterOutputEv
 827      E7800000 
 828              	.LVL56:
  71:src/KConsole.cpp ****                 pendingPutc--;
 829              		.loc 1 71 54
 830 0468 A307A4FC 		sb	a0,-49(s0)
  72:src/KConsole.cpp ****                 x = CONSOLE_RX_DATA;
 831              		.loc 1 72 17 is_stmt 1
  72:src/KConsole.cpp ****                 x = CONSOLE_RX_DATA;
 832              		.loc 1 72 28 is_stmt 0
 833 046c 17070000 		lla	a4,.LANCHOR0
 833      13070700 
 834 0474 83370703 		ld	a5,48(a4)
 835 0478 9387F7FF 		addi	a5,a5,-1
 836 047c 2338F702 		sd	a5,48(a4)
  73:src/KConsole.cpp ****                 __asm__ volatile("mv a0, %0"::"r"(x));
 837              		.loc 1 73 17 is_stmt 1
  73:src/KConsole.cpp ****                 __asm__ volatile("mv a0, %0"::"r"(x));
 838              		.loc 1 73 19 is_stmt 0
 839 0480 97070000 		la	a5,CONSOLE_RX_DATA
 839      83B70700 
 840 0488 83B70700 		ld	a5,0(a5)
 841              	.LVL57:
  74:src/KConsole.cpp ****                 __asm__ volatile("mv a1, %0" :  :"r"((uint64)c));
 842              		.loc 1 74 17 is_stmt 1
  74:src/KConsole.cpp ****                 __asm__ volatile("mv a1, %0" :  :"r"((uint64)c));
 843              		.loc 1 74 54 is_stmt 0
 844              	#APP
 845              	# 74 "src/KConsole.cpp" 1
  75:src/KConsole.cpp ****                 __asm__ volatile("sb a1,0(a0)");
 846              		mv a0, a5
 847              	# 0 "" 2
 848              		.loc 1 75 17 is_stmt 1
  75:src/KConsole.cpp ****                 __asm__ volatile("sb a1,0(a0)");
 849              		.loc 1 75 54 is_stmt 0
 850              	#NO_APP
 851 0490 8347F4FC 		lbu	a5,-49(s0)
 852              	.LVL58:
 853 0494 93F7F70F 		andi	a5,a5,0xff
  75:src/KConsole.cpp ****                 __asm__ volatile("sb a1,0(a0)");
 854              		.loc 1 75 65
 855              	#APP
 856              	# 75 "src/KConsole.cpp" 1
  76:src/KConsole.cpp ****             }
 857              		mv a1, a5
 858              	# 0 "" 2
GAS LISTING /tmp/ccOKE3MP.s 			page 24


 859              		.loc 1 76 17 is_stmt 1
  76:src/KConsole.cpp ****             }
 860              		.loc 1 76 48 is_stmt 0
 861              	# 76 "src/KConsole.cpp" 1
 862              		sb a1,0(a0)
 863              	# 0 "" 2
 864              	#NO_APP
 865              	.LBE34:
 866 04a0 6FF0DFF6 		j	.L44
 867              	.LBE35:
 868              	.LBE36:
 869              		.cfi_endproc
 870              	.LFE27:
 872              		.globl	_ZN8KConsole11pendingPutcE
 873              		.globl	_ZN8KConsole12outputBufferE
 874              		.globl	_ZN8KConsole11inputBufferE
 875              		.globl	_ZN8KConsole11pendingGetcE
 876              		.globl	_ZN8KConsole18hasCharactersInputE
 877              		.globl	_ZN8KConsole19hasCharactersOutputE
 878              		.globl	_ZN8KConsole10outputTailE
 879              		.globl	_ZN8KConsole10outputHeadE
 880              		.globl	_ZN8KConsole9inputTailE
 881              		.globl	_ZN8KConsole9inputHeadE
 882              		.bss
 883              		.align	3
 884              		.set	.LANCHOR0,. + 0
 887              	_ZN8KConsole18hasCharactersInputE:
 888 0000 00000000 		.zero	8
 888      00000000 
 891              	_ZN8KConsole19hasCharactersOutputE:
 892 0008 00000000 		.zero	8
 892      00000000 
 895              	_ZN8KConsole9inputTailE:
 896 0010 00000000 		.zero	8
 896      00000000 
 899              	_ZN8KConsole9inputHeadE:
 900 0018 00000000 		.zero	8
 900      00000000 
 903              	_ZN8KConsole10outputTailE:
 904 0020 00000000 		.zero	8
 904      00000000 
 907              	_ZN8KConsole10outputHeadE:
 908 0028 00000000 		.zero	8
 908      00000000 
 911              	_ZN8KConsole11pendingPutcE:
 912 0030 00000000 		.zero	8
 912      00000000 
 915              	_ZN8KConsole11pendingGetcE:
 916 0038 00000000 		.zero	8
 916      00000000 
 919              	_ZN8KConsole12outputBufferE:
 920 0040 00000000 		.zero	8192
 920      00000000 
 920      00000000 
 920      00000000 
 920      00000000 
 923              	_ZN8KConsole11inputBufferE:
GAS LISTING /tmp/ccOKE3MP.s 			page 25


 924 2040 00000000 		.zero	8192
 924      00000000 
 924      00000000 
 924      00000000 
 924      00000000 
 925              		.text
 926              	.Letext0:
 927              		.file 3 "src/../h/../lib/hw.h"
 928              		.file 4 "src/../h/PCB.hpp"
 929              		.file 5 "src/../h/KSemaphore.hpp"
 930              		.file 6 "src/../h/KConsole.hpp"
 931              		.file 7 "src/../h/../test/../h/syscall_c.h"
 4869              		.align	3
 4872              	DW.ref.__gxx_personality_v0:
 4873 0000 00000000 		.dword	__gxx_personality_v0
 4873      00000000 
 4874              		.ident	"GCC: (Ubuntu 9.3.0-17ubuntu1~20.04) 9.3.0"
 4875              		.section	.note.GNU-stack,"",@progbits
GAS LISTING /tmp/ccOKE3MP.s 			page 26


DEFINED SYMBOLS
                            *ABS*:0000000000000000 KConsole.cpp
     /tmp/ccOKE3MP.s:9      .text:0000000000000000 _ZN8KConsole10initializeEv
     /tmp/ccOKE3MP.s:13     .text:0000000000000000 .L0 
     /tmp/ccOKE3MP.s:4872   .data.rel.local.DW.ref.__gxx_personality_v0:0000000000000000 DW.ref.__gxx_personality_v0
     /tmp/ccOKE3MP.s:16     .text:0000000000000000 .L0 
     /tmp/ccOKE3MP.s:17     .text:0000000000000004 .L0 
     /tmp/ccOKE3MP.s:22     .text:0000000000000014 .L0 
     /tmp/ccOKE3MP.s:23     .text:0000000000000014 .L0 
     /tmp/ccOKE3MP.s:24     .text:0000000000000014 .L0 
     /tmp/ccOKE3MP.s:25     .text:0000000000000014 .L0 
     /tmp/ccOKE3MP.s:27     .text:0000000000000018 .L0 
     /tmp/ccOKE3MP.s:29     .text:0000000000000018 .L0 
     /tmp/ccOKE3MP.s:30     .text:0000000000000018 .L0 
     /tmp/ccOKE3MP.s:42     .text:0000000000000034 .L0 
     /tmp/ccOKE3MP.s:44     .text:000000000000003c .L0 
     /tmp/ccOKE3MP.s:45     .text:000000000000003c .L0 
     /tmp/ccOKE3MP.s:57     .text:0000000000000058 .L0 
     /tmp/ccOKE3MP.s:59     .text:0000000000000060 .L0 
     /tmp/ccOKE3MP.s:60     .text:0000000000000064 .L0 
     /tmp/ccOKE3MP.s:61     .text:0000000000000064 .L0 
     /tmp/ccOKE3MP.s:63     .text:0000000000000068 .L0 
     /tmp/ccOKE3MP.s:64     .text:0000000000000068 .L0 
     /tmp/ccOKE3MP.s:66     .text:000000000000006c .L0 
     /tmp/ccOKE3MP.s:68     .text:0000000000000070 .L0 
     /tmp/ccOKE3MP.s:70     .text:0000000000000074 .L0 
     /tmp/ccOKE3MP.s:73     .text:0000000000000078 .L0 
     /tmp/ccOKE3MP.s:76     .text:000000000000007c .L0 
     /tmp/ccOKE3MP.s:87     .text:0000000000000098 .L0 
     /tmp/ccOKE3MP.s:95     .text:00000000000000b0 .L0 
     /tmp/ccOKE3MP.s:133    .text:00000000000000b0 _ZN8KConsole17putCharacterInputEc
     /tmp/ccOKE3MP.s:136    .text:00000000000000b0 .L0 
     /tmp/ccOKE3MP.s:138    .text:00000000000000b0 .L0 
     /tmp/ccOKE3MP.s:139    .text:00000000000000b0 .L0 
     /tmp/ccOKE3MP.s:140    .text:00000000000000b0 .L0 
     /tmp/ccOKE3MP.s:144    .text:00000000000000c0 .L0 
     /tmp/ccOKE3MP.s:148    .text:00000000000000cc .L0 
     /tmp/ccOKE3MP.s:150    .text:00000000000000d0 .L0 
     /tmp/ccOKE3MP.s:152    .text:00000000000000d4 .L0 
     /tmp/ccOKE3MP.s:153    .text:00000000000000d8 .L0 
     /tmp/ccOKE3MP.s:156    .text:00000000000000e0 .L0 
     /tmp/ccOKE3MP.s:157    .text:00000000000000e0 .L0 
     /tmp/ccOKE3MP.s:159    .text:00000000000000e4 .L0 
     /tmp/ccOKE3MP.s:161    .text:00000000000000e4 .L0 
     /tmp/ccOKE3MP.s:923    .bss:0000000000002040 _ZN8KConsole11inputBufferE
     /tmp/ccOKE3MP.s:162    .text:00000000000000e4 .L0 
     /tmp/ccOKE3MP.s:166    .text:00000000000000f4 .L0 
     /tmp/ccOKE3MP.s:167    .text:00000000000000f4 .L0 
     /tmp/ccOKE3MP.s:169    .text:00000000000000f8 .L0 
     /tmp/ccOKE3MP.s:170    .text:00000000000000f8 .L0 
     /tmp/ccOKE3MP.s:175    .text:0000000000000104 .L0 
     /tmp/ccOKE3MP.s:176    .text:0000000000000108 .L0 
     /tmp/ccOKE3MP.s:178    .text:000000000000010c .L0 
     /tmp/ccOKE3MP.s:179    .text:000000000000010c .L0 
     /tmp/ccOKE3MP.s:181    .text:0000000000000110 .L0 
     /tmp/ccOKE3MP.s:186    .text:0000000000000118 .L0 
     /tmp/ccOKE3MP.s:192    .text:0000000000000118 _ZN8KConsole17getCharacterInputEv
GAS LISTING /tmp/ccOKE3MP.s 			page 27


     /tmp/ccOKE3MP.s:195    .text:0000000000000118 .L0 
     /tmp/ccOKE3MP.s:196    .text:0000000000000118 .L0 
     /tmp/ccOKE3MP.s:197    .text:000000000000011c .L0 
     /tmp/ccOKE3MP.s:201    .text:0000000000000128 .L0 
     /tmp/ccOKE3MP.s:202    .text:0000000000000128 .L0 
     /tmp/ccOKE3MP.s:203    .text:0000000000000128 .L0 
     /tmp/ccOKE3MP.s:205    .text:000000000000012c .L0 
     /tmp/ccOKE3MP.s:207    .text:000000000000012c .L0 
     /tmp/ccOKE3MP.s:208    .text:000000000000012c .L0 
     /tmp/ccOKE3MP.s:213    .text:0000000000000140 .L0 
     /tmp/ccOKE3MP.s:214    .text:0000000000000140 .L0 
     /tmp/ccOKE3MP.s:217    .text:0000000000000148 .L0 
     /tmp/ccOKE3MP.s:219    .text:000000000000014c .L0 
     /tmp/ccOKE3MP.s:220    .text:000000000000014c .L0 
     /tmp/ccOKE3MP.s:225    .text:000000000000015c .L0 
     /tmp/ccOKE3MP.s:226    .text:000000000000015c .L0 
     /tmp/ccOKE3MP.s:228    .text:0000000000000160 .L0 
     /tmp/ccOKE3MP.s:232    .text:000000000000016c .L0 
     /tmp/ccOKE3MP.s:236    .text:0000000000000174 .L0 
     /tmp/ccOKE3MP.s:237    .text:0000000000000174 .L0 
     /tmp/ccOKE3MP.s:238    .text:0000000000000178 .L0 
     /tmp/ccOKE3MP.s:239    .text:0000000000000178 .L0 
     /tmp/ccOKE3MP.s:241    .text:000000000000017c .L0 
     /tmp/ccOKE3MP.s:242    .text:000000000000017c .L0 
     /tmp/ccOKE3MP.s:244    .text:0000000000000180 .L0 
     /tmp/ccOKE3MP.s:246    .text:0000000000000184 .L0 
     /tmp/ccOKE3MP.s:249    .text:0000000000000188 .L0 
     /tmp/ccOKE3MP.s:251    .text:0000000000000188 .L0 
     /tmp/ccOKE3MP.s:253    .text:0000000000000190 .L0 
     /tmp/ccOKE3MP.s:259    .text:0000000000000190 _ZN8KConsole18putCharacterOutputEc
     /tmp/ccOKE3MP.s:262    .text:0000000000000190 .L0 
     /tmp/ccOKE3MP.s:264    .text:0000000000000190 .L0 
     /tmp/ccOKE3MP.s:265    .text:0000000000000190 .L0 
     /tmp/ccOKE3MP.s:266    .text:0000000000000190 .L0 
     /tmp/ccOKE3MP.s:270    .text:00000000000001a0 .L0 
     /tmp/ccOKE3MP.s:274    .text:00000000000001ac .L0 
     /tmp/ccOKE3MP.s:276    .text:00000000000001b0 .L0 
     /tmp/ccOKE3MP.s:278    .text:00000000000001b4 .L0 
     /tmp/ccOKE3MP.s:279    .text:00000000000001b8 .L0 
     /tmp/ccOKE3MP.s:282    .text:00000000000001c0 .L0 
     /tmp/ccOKE3MP.s:283    .text:00000000000001c0 .L0 
     /tmp/ccOKE3MP.s:285    .text:00000000000001c4 .L0 
     /tmp/ccOKE3MP.s:287    .text:00000000000001c4 .L0 
     /tmp/ccOKE3MP.s:288    .text:00000000000001c4 .L0 
     /tmp/ccOKE3MP.s:293    .text:00000000000001d4 .L0 
     /tmp/ccOKE3MP.s:919    .bss:0000000000000040 _ZN8KConsole12outputBufferE
     /tmp/ccOKE3MP.s:294    .text:00000000000001d4 .L0 
     /tmp/ccOKE3MP.s:298    .text:00000000000001e4 .L0 
     /tmp/ccOKE3MP.s:299    .text:00000000000001e4 .L0 
     /tmp/ccOKE3MP.s:301    .text:00000000000001e8 .L0 
     /tmp/ccOKE3MP.s:302    .text:00000000000001e8 .L0 
     /tmp/ccOKE3MP.s:307    .text:00000000000001f4 .L0 
     /tmp/ccOKE3MP.s:308    .text:00000000000001f8 .L0 
     /tmp/ccOKE3MP.s:310    .text:00000000000001fc .L0 
     /tmp/ccOKE3MP.s:311    .text:00000000000001fc .L0 
     /tmp/ccOKE3MP.s:313    .text:0000000000000200 .L0 
     /tmp/ccOKE3MP.s:318    .text:0000000000000208 .L0 
GAS LISTING /tmp/ccOKE3MP.s 			page 28


     /tmp/ccOKE3MP.s:324    .text:0000000000000208 _ZN8KConsole24getCharactersFromConsoleEPv
     /tmp/ccOKE3MP.s:327    .text:0000000000000208 .L0 
     /tmp/ccOKE3MP.s:329    .text:0000000000000208 .L0 
     /tmp/ccOKE3MP.s:331    .text:0000000000000208 .L0 
     /tmp/ccOKE3MP.s:332    .text:0000000000000208 .L0 
     /tmp/ccOKE3MP.s:333    .text:0000000000000208 .L0 
     /tmp/ccOKE3MP.s:337    .text:0000000000000214 .L0 
    src/KConsole.cpp:35     .text:0000000000000214 .L0 
     /tmp/ccOKE3MP.s:343    .text:0000000000000218 .L0 
    src/KConsole.cpp:36     .text:0000000000000218 .L0 
     /tmp/ccOKE3MP.s:348    .text:000000000000021c .L0 
     /tmp/ccOKE3MP.s:349    .text:000000000000021c .L0 
    src/KConsole.cpp:38     .text:000000000000021c .L0 
     /tmp/ccOKE3MP.s:357    .text:0000000000000220 .L0 
     /tmp/ccOKE3MP.s:358    .text:0000000000000220 .L0 
     /tmp/ccOKE3MP.s:361    .text:0000000000000224 .L0 
     /tmp/ccOKE3MP.s:365    .text:0000000000000228 .L0 
     /tmp/ccOKE3MP.s:366    .text:000000000000022c .L0 
     /tmp/ccOKE3MP.s:370    .text:0000000000000238 .L0 
     /tmp/ccOKE3MP.s:371    .text:0000000000000238 .L0 
     /tmp/ccOKE3MP.s:372    .text:0000000000000238 .L0 
     /tmp/ccOKE3MP.s:374    .text:000000000000023c .L0 
     /tmp/ccOKE3MP.s:381    .text:000000000000023c .L0 
     /tmp/ccOKE3MP.s:382    .text:000000000000023c .L0 
     /tmp/ccOKE3MP.s:386    .text:0000000000000248 .L0 
    src/KConsole.cpp:42     .text:0000000000000248 .L0 
     /tmp/ccOKE3MP.s:392    .text:000000000000024c .L0 
    src/KConsole.cpp:43     .text:000000000000024c .L0 
     /tmp/ccOKE3MP.s:397    .text:0000000000000250 .L0 
     /tmp/ccOKE3MP.s:398    .text:0000000000000250 .L0 
    src/KConsole.cpp:45     .text:0000000000000250 .L0 
     /tmp/ccOKE3MP.s:406    .text:0000000000000258 .L0 
     /tmp/ccOKE3MP.s:407    .text:0000000000000258 .L0 
     /tmp/ccOKE3MP.s:411    .text:0000000000000264 .L0 
     /tmp/ccOKE3MP.s:412    .text:0000000000000264 .L0 
     /tmp/ccOKE3MP.s:419    .text:0000000000000270 .L0 
     /tmp/ccOKE3MP.s:421    .text:0000000000000270 .L0 
     /tmp/ccOKE3MP.s:422    .text:0000000000000270 .L0 
     /tmp/ccOKE3MP.s:423    .text:0000000000000270 .L0 
     /tmp/ccOKE3MP.s:427    .text:000000000000027c .L0 
    src/KConsole.cpp:35     .text:000000000000027c .L0 
     /tmp/ccOKE3MP.s:433    .text:0000000000000280 .L0 
    src/KConsole.cpp:36     .text:0000000000000280 .L0 
     /tmp/ccOKE3MP.s:438    .text:0000000000000284 .L0 
     /tmp/ccOKE3MP.s:439    .text:0000000000000284 .L0 
    src/KConsole.cpp:38     .text:0000000000000284 .L0 
     /tmp/ccOKE3MP.s:447    .text:0000000000000288 .L0 
     /tmp/ccOKE3MP.s:448    .text:0000000000000288 .L0 
     /tmp/ccOKE3MP.s:451    .text:000000000000028c .L0 
     /tmp/ccOKE3MP.s:455    .text:0000000000000290 .L0 
     /tmp/ccOKE3MP.s:456    .text:0000000000000294 .L0 
     /tmp/ccOKE3MP.s:458    .text:0000000000000298 .L0 
     /tmp/ccOKE3MP.s:459    .text:0000000000000298 .L0 
     /tmp/ccOKE3MP.s:461    .text:000000000000029c .L0 
     /tmp/ccOKE3MP.s:464    .text:00000000000002a0 .L0 
     /tmp/ccOKE3MP.s:469    .text:00000000000002a8 .L0 
     /tmp/ccOKE3MP.s:475    .text:00000000000002a8 _ZN8KConsole18getCharacterOutputEv
GAS LISTING /tmp/ccOKE3MP.s 			page 29


     /tmp/ccOKE3MP.s:478    .text:00000000000002a8 .L0 
     /tmp/ccOKE3MP.s:479    .text:00000000000002a8 .L0 
     /tmp/ccOKE3MP.s:480    .text:00000000000002ac .L0 
     /tmp/ccOKE3MP.s:484    .text:00000000000002b8 .L0 
     /tmp/ccOKE3MP.s:485    .text:00000000000002b8 .L0 
     /tmp/ccOKE3MP.s:486    .text:00000000000002b8 .L0 
     /tmp/ccOKE3MP.s:488    .text:00000000000002bc .L0 
     /tmp/ccOKE3MP.s:490    .text:00000000000002bc .L0 
     /tmp/ccOKE3MP.s:491    .text:00000000000002bc .L0 
     /tmp/ccOKE3MP.s:496    .text:00000000000002d0 .L0 
     /tmp/ccOKE3MP.s:497    .text:00000000000002d0 .L0 
     /tmp/ccOKE3MP.s:500    .text:00000000000002d8 .L0 
     /tmp/ccOKE3MP.s:502    .text:00000000000002dc .L0 
     /tmp/ccOKE3MP.s:503    .text:00000000000002dc .L0 
     /tmp/ccOKE3MP.s:508    .text:00000000000002ec .L0 
     /tmp/ccOKE3MP.s:509    .text:00000000000002ec .L0 
     /tmp/ccOKE3MP.s:511    .text:00000000000002f0 .L0 
     /tmp/ccOKE3MP.s:515    .text:00000000000002fc .L0 
     /tmp/ccOKE3MP.s:519    .text:0000000000000304 .L0 
     /tmp/ccOKE3MP.s:520    .text:0000000000000304 .L0 
     /tmp/ccOKE3MP.s:521    .text:0000000000000308 .L0 
     /tmp/ccOKE3MP.s:522    .text:0000000000000308 .L0 
     /tmp/ccOKE3MP.s:524    .text:000000000000030c .L0 
     /tmp/ccOKE3MP.s:525    .text:000000000000030c .L0 
     /tmp/ccOKE3MP.s:527    .text:0000000000000310 .L0 
     /tmp/ccOKE3MP.s:529    .text:0000000000000314 .L0 
     /tmp/ccOKE3MP.s:532    .text:0000000000000318 .L0 
     /tmp/ccOKE3MP.s:534    .text:0000000000000318 .L0 
     /tmp/ccOKE3MP.s:536    .text:0000000000000320 .L0 
     /tmp/ccOKE3MP.s:542    .text:0000000000000320 _ZN8KConsole11putcHandlerEv
     /tmp/ccOKE3MP.s:545    .text:0000000000000320 .L0 
     /tmp/ccOKE3MP.s:546    .text:0000000000000320 .L0 
     /tmp/ccOKE3MP.s:547    .text:0000000000000324 .L0 
     /tmp/ccOKE3MP.s:550    .text:000000000000032c .L0 
     /tmp/ccOKE3MP.s:551    .text:000000000000032c .L0 
     /tmp/ccOKE3MP.s:553    .text:0000000000000330 .L0 
     /tmp/ccOKE3MP.s:555    .text:0000000000000330 .L0 
     /tmp/ccOKE3MP.s:556    .text:0000000000000330 .L0 
    src/KConsole.cpp:135    .text:0000000000000330 .L0 
     /tmp/ccOKE3MP.s:563    .text:0000000000000334 .L0 
     /tmp/ccOKE3MP.s:565    .text:0000000000000334 .L0 
     /tmp/ccOKE3MP.s:570    .text:0000000000000340 .L0 
     /tmp/ccOKE3MP.s:571    .text:0000000000000344 .L0 
     /tmp/ccOKE3MP.s:573    .text:0000000000000348 .L0 
     /tmp/ccOKE3MP.s:574    .text:0000000000000348 .L0 
     /tmp/ccOKE3MP.s:576    .text:000000000000034c .L0 
     /tmp/ccOKE3MP.s:578    .text:0000000000000350 .L0 
     /tmp/ccOKE3MP.s:584    .text:0000000000000350 _ZN8KConsole11getcHandlerEv
     /tmp/ccOKE3MP.s:587    .text:0000000000000350 .L0 
     /tmp/ccOKE3MP.s:588    .text:0000000000000350 .L0 
     /tmp/ccOKE3MP.s:589    .text:0000000000000354 .L0 
     /tmp/ccOKE3MP.s:592    .text:000000000000035c .L0 
     /tmp/ccOKE3MP.s:593    .text:000000000000035c .L0 
     /tmp/ccOKE3MP.s:595    .text:0000000000000360 .L0 
     /tmp/ccOKE3MP.s:597    .text:0000000000000360 .L0 
     /tmp/ccOKE3MP.s:598    .text:0000000000000360 .L0 
     /tmp/ccOKE3MP.s:599    .text:0000000000000360 .L0 
GAS LISTING /tmp/ccOKE3MP.s 			page 30


     /tmp/ccOKE3MP.s:602    .text:0000000000000368 .L0 
    src/KConsole.cpp:143    .text:0000000000000368 .L0 
     /tmp/ccOKE3MP.s:608    .text:000000000000036c .L0 
     /tmp/ccOKE3MP.s:610    .text:000000000000036c .L0 
     /tmp/ccOKE3MP.s:613    .text:0000000000000374 .L0 
     /tmp/ccOKE3MP.s:614    .text:0000000000000378 .L0 
     /tmp/ccOKE3MP.s:616    .text:000000000000037c .L0 
     /tmp/ccOKE3MP.s:617    .text:000000000000037c .L0 
     /tmp/ccOKE3MP.s:619    .text:0000000000000380 .L0 
     /tmp/ccOKE3MP.s:621    .text:0000000000000384 .L0 
     /tmp/ccOKE3MP.s:627    .text:0000000000000384 _ZN8KConsole17outputBufferEmptyEv
     /tmp/ccOKE3MP.s:630    .text:0000000000000384 .L0 
     /tmp/ccOKE3MP.s:631    .text:0000000000000384 .L0 
     /tmp/ccOKE3MP.s:632    .text:0000000000000388 .L0 
     /tmp/ccOKE3MP.s:634    .text:000000000000038c .L0 
     /tmp/ccOKE3MP.s:636    .text:0000000000000390 .L0 
     /tmp/ccOKE3MP.s:638    .text:0000000000000390 .L0 
     /tmp/ccOKE3MP.s:639    .text:0000000000000390 .L0 
     /tmp/ccOKE3MP.s:642    .text:00000000000003a0 .L0 
     /tmp/ccOKE3MP.s:643    .text:00000000000003a0 .L0 
     /tmp/ccOKE3MP.s:645    .text:00000000000003a4 .L0 
     /tmp/ccOKE3MP.s:647    .text:00000000000003a8 .L0 
     /tmp/ccOKE3MP.s:653    .text:00000000000003a8 _ZN8KConsole23sendCharactersToConsoleEPv
     /tmp/ccOKE3MP.s:656    .text:00000000000003a8 .L0 
     /tmp/ccOKE3MP.s:658    .text:00000000000003a8 .L0 
     /tmp/ccOKE3MP.s:659    .text:00000000000003ac .L0 
     /tmp/ccOKE3MP.s:663    .text:00000000000003b8 .L0 
     /tmp/ccOKE3MP.s:664    .text:00000000000003b8 .L0 
     /tmp/ccOKE3MP.s:665    .text:00000000000003b8 .L0 
     /tmp/ccOKE3MP.s:667    .text:00000000000003bc .L0 
     /tmp/ccOKE3MP.s:672    .text:00000000000003bc .L0 
     /tmp/ccOKE3MP.s:673    .text:00000000000003bc .L0 
     /tmp/ccOKE3MP.s:674    .text:00000000000003bc .L0 
  src/../h/Riscv.hpp:167    .text:00000000000003bc .L0 
     /tmp/ccOKE3MP.s:682    .text:00000000000003c4 .L0 
     /tmp/ccOKE3MP.s:683    .text:00000000000003c4 .L0 
     /tmp/ccOKE3MP.s:690    .text:00000000000003c8 .L0 
     /tmp/ccOKE3MP.s:691    .text:00000000000003c8 .L0 
     /tmp/ccOKE3MP.s:692    .text:00000000000003c8 .L0 
     /tmp/ccOKE3MP.s:699    .text:00000000000003d0 .L0 
     /tmp/ccOKE3MP.s:706    .text:00000000000003d4 .L0 
     /tmp/ccOKE3MP.s:707    .text:00000000000003d4 .L0 
     /tmp/ccOKE3MP.s:714    .text:00000000000003e0 .L0 
     /tmp/ccOKE3MP.s:715    .text:00000000000003e0 .L0 
     /tmp/ccOKE3MP.s:718    .text:00000000000003e4 .L0 
     /tmp/ccOKE3MP.s:724    .text:00000000000003ec .L0 
  src/../h/Riscv.hpp:173    .text:00000000000003ec .L0 
     /tmp/ccOKE3MP.s:734    .text:00000000000003f0 .L0 
     /tmp/ccOKE3MP.s:735    .text:00000000000003f0 .L0 
     /tmp/ccOKE3MP.s:740    .text:00000000000003f8 .L0 
     /tmp/ccOKE3MP.s:741    .text:00000000000003f8 .L0 
     /tmp/ccOKE3MP.s:742    .text:00000000000003f8 .L0 
  src/../h/Riscv.hpp:167    .text:00000000000003f8 .L0 
     /tmp/ccOKE3MP.s:750    .text:0000000000000400 .L0 
     /tmp/ccOKE3MP.s:751    .text:0000000000000400 .L0 
     /tmp/ccOKE3MP.s:758    .text:0000000000000404 .L0 
     /tmp/ccOKE3MP.s:759    .text:0000000000000404 .L0 
GAS LISTING /tmp/ccOKE3MP.s 			page 31


     /tmp/ccOKE3MP.s:760    .text:0000000000000404 .L0 
     /tmp/ccOKE3MP.s:774    .text:000000000000040c .L0 
     /tmp/ccOKE3MP.s:775    .text:000000000000040c .L0 
     /tmp/ccOKE3MP.s:776    .text:000000000000040c .L0 
     /tmp/ccOKE3MP.s:780    .text:000000000000041c .L0 
     /tmp/ccOKE3MP.s:783    .text:0000000000000424 .L0 
     /tmp/ccOKE3MP.s:785    .text:0000000000000428 .L0 
     /tmp/ccOKE3MP.s:787    .text:0000000000000430 .L0 
     /tmp/ccOKE3MP.s:790    .text:0000000000000434 .L0 
     /tmp/ccOKE3MP.s:791    .text:0000000000000434 .L0 
     /tmp/ccOKE3MP.s:795    .text:0000000000000440 .L0 
    src/KConsole.cpp:65     .text:0000000000000440 .L0 
     /tmp/ccOKE3MP.s:801    .text:0000000000000444 .L0 
    src/KConsole.cpp:66     .text:0000000000000444 .L0 
     /tmp/ccOKE3MP.s:806    .text:0000000000000448 .L0 
     /tmp/ccOKE3MP.s:807    .text:0000000000000448 .L0 
    src/KConsole.cpp:68     .text:0000000000000448 .L0 
     /tmp/ccOKE3MP.s:815    .text:000000000000044c .L0 
     /tmp/ccOKE3MP.s:816    .text:000000000000044c .L0 
     /tmp/ccOKE3MP.s:819    .text:0000000000000450 .L0 
     /tmp/ccOKE3MP.s:821    .text:0000000000000454 .L0 
     /tmp/ccOKE3MP.s:823    .text:000000000000045c .L0 
     /tmp/ccOKE3MP.s:826    .text:0000000000000460 .L0 
     /tmp/ccOKE3MP.s:827    .text:0000000000000460 .L0 
     /tmp/ccOKE3MP.s:830    .text:0000000000000468 .L0 
     /tmp/ccOKE3MP.s:832    .text:000000000000046c .L0 
     /tmp/ccOKE3MP.s:833    .text:000000000000046c .L0 
     /tmp/ccOKE3MP.s:838    .text:0000000000000480 .L0 
     /tmp/ccOKE3MP.s:839    .text:0000000000000480 .L0 
     /tmp/ccOKE3MP.s:843    .text:000000000000048c .L0 
    src/KConsole.cpp:74     .text:000000000000048c .L0 
     /tmp/ccOKE3MP.s:849    .text:0000000000000490 .L0 
     /tmp/ccOKE3MP.s:851    .text:0000000000000490 .L0 
    src/KConsole.cpp:75     .text:0000000000000498 .L0 
     /tmp/ccOKE3MP.s:860    .text:000000000000049c .L0 
    src/KConsole.cpp:76     .text:000000000000049c .L0 
     /tmp/ccOKE3MP.s:869    .text:00000000000004a4 .L0 
     /tmp/ccOKE3MP.s:911    .bss:0000000000000030 _ZN8KConsole11pendingPutcE
     /tmp/ccOKE3MP.s:915    .bss:0000000000000038 _ZN8KConsole11pendingGetcE
     /tmp/ccOKE3MP.s:887    .bss:0000000000000000 _ZN8KConsole18hasCharactersInputE
     /tmp/ccOKE3MP.s:891    .bss:0000000000000008 _ZN8KConsole19hasCharactersOutputE
     /tmp/ccOKE3MP.s:903    .bss:0000000000000020 _ZN8KConsole10outputTailE
     /tmp/ccOKE3MP.s:907    .bss:0000000000000028 _ZN8KConsole10outputHeadE
     /tmp/ccOKE3MP.s:895    .bss:0000000000000010 _ZN8KConsole9inputTailE
     /tmp/ccOKE3MP.s:899    .bss:0000000000000018 _ZN8KConsole9inputHeadE
     /tmp/ccOKE3MP.s:884    .bss:0000000000000000 .LANCHOR0
     /tmp/ccOKE3MP.s:932    .text:00000000000004a4 .L0 
     /tmp/ccOKE3MP.s:42     .text:0000000000000034 .L0 
     /tmp/ccOKE3MP.s:57     .text:0000000000000058 .L0 
     /tmp/ccOKE3MP.s:140    .text:00000000000000b0 .L0 
     /tmp/ccOKE3MP.s:162    .text:00000000000000e4 .L0 
     /tmp/ccOKE3MP.s:208    .text:000000000000012c .L0 
     /tmp/ccOKE3MP.s:220    .text:000000000000014c .L0 
     /tmp/ccOKE3MP.s:232    .text:000000000000016c .L0 
     /tmp/ccOKE3MP.s:266    .text:0000000000000190 .L0 
     /tmp/ccOKE3MP.s:294    .text:00000000000001d4 .L0 
     /tmp/ccOKE3MP.s:333    .text:0000000000000208 .L0 
GAS LISTING /tmp/ccOKE3MP.s 			page 32


     /tmp/ccOKE3MP.s:382    .text:000000000000023c .L0 
     /tmp/ccOKE3MP.s:423    .text:0000000000000270 .L0 
     /tmp/ccOKE3MP.s:491    .text:00000000000002bc .L0 
     /tmp/ccOKE3MP.s:503    .text:00000000000002dc .L0 
     /tmp/ccOKE3MP.s:515    .text:00000000000002fc .L0 
     /tmp/ccOKE3MP.s:639    .text:0000000000000390 .L0 
     /tmp/ccOKE3MP.s:776    .text:000000000000040c .L0 
     /tmp/ccOKE3MP.s:785    .text:0000000000000428 .L0 
     /tmp/ccOKE3MP.s:791    .text:0000000000000434 .L0 
     /tmp/ccOKE3MP.s:821    .text:0000000000000454 .L0 
     /tmp/ccOKE3MP.s:833    .text:000000000000046c .L0 
     /tmp/ccOKE3MP.s:839    .text:0000000000000480 .L0 
     /tmp/ccOKE3MP.s:184    .text:0000000000000114 .L11
     /tmp/ccOKE3MP.s:248    .text:0000000000000188 .L16
     /tmp/ccOKE3MP.s:235    .text:0000000000000174 .L15
     /tmp/ccOKE3MP.s:316    .text:0000000000000204 .L21
     /tmp/ccOKE3MP.s:467    .text:00000000000002a4 .L32
     /tmp/ccOKE3MP.s:376    .text:000000000000023c .L28
     /tmp/ccOKE3MP.s:531    .text:0000000000000318 .L35
     /tmp/ccOKE3MP.s:518    .text:0000000000000304 .L34
     /tmp/ccOKE3MP.s:767    .text:000000000000040c .L44
     /tmp/ccOKE3MP.s:788    .text:0000000000000434 .L45
     /tmp/ccOKE3MP.s:701    .text:00000000000003d4 .L49
     /tmp/ccOKE3MP.s:711    .text:00000000000003e0 .L46
     /tmp/ccOKE3MP.s:31     .text:000000000000001c .LEHB0
     /tmp/ccOKE3MP.s:10     .text:0000000000000000 .LFB25
     /tmp/ccOKE3MP.s:34     .text:0000000000000024 .LEHE0
     /tmp/ccOKE3MP.s:37     .text:000000000000002c .LEHB1
     /tmp/ccOKE3MP.s:40     .text:0000000000000034 .LEHE1
     /tmp/ccOKE3MP.s:72     .text:0000000000000078 .L4
     /tmp/ccOKE3MP.s:46     .text:0000000000000040 .LEHB2
     /tmp/ccOKE3MP.s:49     .text:0000000000000048 .LEHE2
     /tmp/ccOKE3MP.s:52     .text:0000000000000050 .LEHB3
     /tmp/ccOKE3MP.s:55     .text:0000000000000058 .LEHE3
     /tmp/ccOKE3MP.s:84     .text:0000000000000094 .L5
     /tmp/ccOKE3MP.s:80     .text:000000000000008c .LEHB4
     /tmp/ccOKE3MP.s:83     .text:0000000000000094 .LEHE4
     /tmp/ccOKE3MP.s:91     .text:00000000000000a8 .LEHB5
     /tmp/ccOKE3MP.s:94     .text:00000000000000b0 .LEHE5
     /tmp/ccOKE3MP.s:3021   .debug_abbrev:0000000000000000 .Ldebug_abbrev0
     /tmp/ccOKE3MP.s:4380   .debug_str:00000000000001f7 .LASF263
     /tmp/ccOKE3MP.s:4774   .debug_str:0000000000000fea .LASF264
     /tmp/ccOKE3MP.s:4772   .debug_str:0000000000000fc7 .LASF265
     /tmp/ccOKE3MP.s:5      .text:0000000000000000 .Ltext0
     /tmp/ccOKE3MP.s:926    .text:00000000000004a4 .Letext0
     /tmp/ccOKE3MP.s:4320   .debug_line:0000000000000000 .Ldebug_line0
     /tmp/ccOKE3MP.s:4498   .debug_str:00000000000006b3 .LASF0
     /tmp/ccOKE3MP.s:4540   .debug_str:0000000000000844 .LASF1
     /tmp/ccOKE3MP.s:4672   .debug_str:0000000000000c92 .LASF2
     /tmp/ccOKE3MP.s:4690   .debug_str:0000000000000d2d .LASF4
     /tmp/ccOKE3MP.s:4518   .debug_str:0000000000000759 .LASF3
     /tmp/ccOKE3MP.s:4338   .debug_str:000000000000006f .LASF5
     /tmp/ccOKE3MP.s:4634   .debug_str:0000000000000b79 .LASF6
     /tmp/ccOKE3MP.s:4626   .debug_str:0000000000000b33 .LASF7
     /tmp/ccOKE3MP.s:4526   .debug_str:00000000000007a3 .LASF8
     /tmp/ccOKE3MP.s:4466   .debug_str:0000000000000597 .LASF9
     /tmp/ccOKE3MP.s:4474   .debug_str:00000000000005ee .LASF10
GAS LISTING /tmp/ccOKE3MP.s 			page 33


     /tmp/ccOKE3MP.s:4398   .debug_str:000000000000034e .LASF11
     /tmp/ccOKE3MP.s:4460   .debug_str:000000000000056b .LASF12
     /tmp/ccOKE3MP.s:4408   .debug_str:0000000000000383 .LASF13
     /tmp/ccOKE3MP.s:4396   .debug_str:000000000000033e .LASF14
     /tmp/ccOKE3MP.s:4740   .debug_str:0000000000000ef3 .LASF15
     /tmp/ccOKE3MP.s:4444   .debug_str:00000000000004bd .LASF16
     /tmp/ccOKE3MP.s:4726   .debug_str:0000000000000e46 .LASF17
     /tmp/ccOKE3MP.s:4758   .debug_str:0000000000000f72 .LASF89
     /tmp/ccOKE3MP.s:4390   .debug_str:0000000000000311 .LASF18
     /tmp/ccOKE3MP.s:4712   .debug_str:0000000000000de2 .LASF19
     /tmp/ccOKE3MP.s:4404   .debug_str:000000000000036f .LASF20
     /tmp/ccOKE3MP.s:4376   .debug_str:00000000000001cb .LASF21
     /tmp/ccOKE3MP.s:4630   .debug_str:0000000000000b5c .LASF22
     /tmp/ccOKE3MP.s:4402   .debug_str:0000000000000366 .LASF23
     /tmp/ccOKE3MP.s:4746   .debug_str:0000000000000f19 .LASF86
     /tmp/ccOKE3MP.s:4484   .debug_str:0000000000000666 .LASF24
     /tmp/ccOKE3MP.s:4342   .debug_str:0000000000000081 .LASF29
     /tmp/ccOKE3MP.s:4780   .debug_str:0000000000001012 .LASF266
     /tmp/ccOKE3MP.s:4614   .debug_str:0000000000000ae3 .LASF267
     /tmp/ccOKE3MP.s:4538   .debug_str:000000000000083f .LASF25
     /tmp/ccOKE3MP.s:4848   .debug_str:0000000000001231 .LASF27
     /tmp/ccOKE3MP.s:4842   .debug_str:0000000000001208 .LASF26
     /tmp/ccOKE3MP.s:4766   .debug_str:0000000000000f99 .LASF28
     /tmp/ccOKE3MP.s:4428   .debug_str:0000000000000459 .LASF54
     /tmp/ccOKE3MP.s:4352   .debug_str:00000000000000cd .LASF56
     /tmp/ccOKE3MP.s:4546   .debug_str:000000000000086b .LASF34
     /tmp/ccOKE3MP.s:4618   .debug_str:0000000000000af2 .LASF36
     /tmp/ccOKE3MP.s:4764   .debug_str:0000000000000f91 .LASF30
     /tmp/ccOKE3MP.s:4704   .debug_str:0000000000000d8e .LASF31
     /tmp/ccOKE3MP.s:4548   .debug_str:0000000000000871 .LASF38
     /tmp/ccOKE3MP.s:4556   .debug_str:00000000000008c4 .LASF40
     /tmp/ccOKE3MP.s:4856   .debug_str:000000000000128e .LASF32
     /tmp/ccOKE3MP.s:4452   .debug_str:0000000000000530 .LASF33
     /tmp/ccOKE3MP.s:4330   .debug_str:000000000000003a .LASF35
     /tmp/ccOKE3MP.s:4512   .debug_str:000000000000072d .LASF37
     /tmp/ccOKE3MP.s:4706   .debug_str:0000000000000d9f .LASF39
     /tmp/ccOKE3MP.s:4588   .debug_str:0000000000000a02 .LASF41
     /tmp/ccOKE3MP.s:4684   .debug_str:0000000000000cf3 .LASF42
     /tmp/ccOKE3MP.s:4734   .debug_str:0000000000000eae .LASF43
     /tmp/ccOKE3MP.s:4590   .debug_str:0000000000000a15 .LASF44
     /tmp/ccOKE3MP.s:4326   .debug_str:000000000000001b .LASF45
     /tmp/ccOKE3MP.s:4828   .debug_str:0000000000001190 .LASF46
     /tmp/ccOKE3MP.s:4624   .debug_str:0000000000000b19 .LASF47
     /tmp/ccOKE3MP.s:4724   .debug_str:0000000000000e38 .LASF48
     /tmp/ccOKE3MP.s:4640   .debug_str:0000000000000b96 .LASF49
     /tmp/ccOKE3MP.s:4424   .debug_str:0000000000000437 .LASF50
     /tmp/ccOKE3MP.s:4462   .debug_str:000000000000057a .LASF51
     /tmp/ccOKE3MP.s:4664   .debug_str:0000000000000c59 .LASF52
     /tmp/ccOKE3MP.s:4834   .debug_str:00000000000011be .LASF53
     /tmp/ccOKE3MP.s:4520   .debug_str:000000000000076b .LASF60
     /tmp/ccOKE3MP.s:4718   .debug_str:0000000000000e14 .LASF55
     /tmp/ccOKE3MP.s:4846   .debug_str:000000000000121b .LASF57
     /tmp/ccOKE3MP.s:4748   .debug_str:0000000000000f21 .LASF58
     /tmp/ccOKE3MP.s:4420   .debug_str:000000000000041b .LASF59
     /tmp/ccOKE3MP.s:4700   .debug_str:0000000000000d77 .LASF61
     /tmp/ccOKE3MP.s:4500   .debug_str:00000000000006c0 .LASF62
     /tmp/ccOKE3MP.s:4600   .debug_str:0000000000000a4b .LASF63
GAS LISTING /tmp/ccOKE3MP.s 			page 34


     /tmp/ccOKE3MP.s:4414   .debug_str:00000000000003d2 .LASF64
     /tmp/ccOKE3MP.s:4646   .debug_str:0000000000000bcc .LASF65
     /tmp/ccOKE3MP.s:4864   .debug_str:00000000000012c7 .LASF66
     /tmp/ccOKE3MP.s:4604   .debug_str:0000000000000a71 .LASF67
     /tmp/ccOKE3MP.s:4682   .debug_str:0000000000000ce0 .LASF68
     /tmp/ccOKE3MP.s:4708   .debug_str:0000000000000da8 .LASF69
     /tmp/ccOKE3MP.s:4796   .debug_str:000000000000108c .LASF70
     /tmp/ccOKE3MP.s:4578   .debug_str:00000000000009aa .LASF71
     /tmp/ccOKE3MP.s:4782   .debug_str:000000000000102a .LASF72
     /tmp/ccOKE3MP.s:4732   .debug_str:0000000000000e8e .LASF73
     /tmp/ccOKE3MP.s:4434   .debug_str:000000000000046d .LASF74
     /tmp/ccOKE3MP.s:4504   .debug_str:00000000000006f6 .LASF75
     /tmp/ccOKE3MP.s:4770   .debug_str:0000000000000fbd .LASF76
     /tmp/ccOKE3MP.s:4620   .debug_str:0000000000000b02 .LASF77
     /tmp/ccOKE3MP.s:4840   .debug_str:00000000000011fa .LASF78
     /tmp/ccOKE3MP.s:4360   .debug_str:0000000000000123 .LASF80
     /tmp/ccOKE3MP.s:4456   .debug_str:0000000000000545 .LASF79
     /tmp/ccOKE3MP.s:4388   .debug_str:00000000000002e5 .LASF81
     /tmp/ccOKE3MP.s:4826   .debug_str:0000000000001189 .LASF268
     /tmp/ccOKE3MP.s:4384   .debug_str:00000000000002c6 .LASF269
     /tmp/ccOKE3MP.s:4328   .debug_str:0000000000000035 .LASF82
     /tmp/ccOKE3MP.s:4792   .debug_str:000000000000107b .LASF83
     /tmp/ccOKE3MP.s:4562   .debug_str:0000000000000909 .LASF84
     /tmp/ccOKE3MP.s:4432   .debug_str:0000000000000467 .LASF85
     /tmp/ccOKE3MP.s:4778   .debug_str:000000000000100a .LASF87
     /tmp/ccOKE3MP.s:4812   .debug_str:000000000000110a .LASF88
     /tmp/ccOKE3MP.s:4654   .debug_str:0000000000000c1e .LASF90
     /tmp/ccOKE3MP.s:4522   .debug_str:0000000000000778 .LASF91
     /tmp/ccOKE3MP.s:4454   .debug_str:000000000000053c .LASF92
     /tmp/ccOKE3MP.s:4832   .debug_str:00000000000011b5 .LASF93
     /tmp/ccOKE3MP.s:4492   .debug_str:000000000000068a .LASF94
     /tmp/ccOKE3MP.s:4730   .debug_str:0000000000000e76 .LASF95
     /tmp/ccOKE3MP.s:4702   .debug_str:0000000000000d7f .LASF96
     /tmp/ccOKE3MP.s:4710   .debug_str:0000000000000dc6 .LASF97
     /tmp/ccOKE3MP.s:4622   .debug_str:0000000000000b0e .LASF98
     /tmp/ccOKE3MP.s:4574   .debug_str:0000000000000982 .LASF99
     /tmp/ccOKE3MP.s:4440   .debug_str:00000000000004a0 .LASF100
     /tmp/ccOKE3MP.s:4628   .debug_str:0000000000000b46 .LASF101
     /tmp/ccOKE3MP.s:4576   .debug_str:000000000000099a .LASF102
     /tmp/ccOKE3MP.s:4806   .debug_str:00000000000010d0 .LASF103
     /tmp/ccOKE3MP.s:4800   .debug_str:00000000000010aa .LASF104
     /tmp/ccOKE3MP.s:4554   .debug_str:00000000000008a6 .LASF105
     /tmp/ccOKE3MP.s:4436   .debug_str:0000000000000476 .LASF106
     /tmp/ccOKE3MP.s:4838   .debug_str:00000000000011d6 .LASF107
     /tmp/ccOKE3MP.s:4510   .debug_str:000000000000071b .LASF108
     /tmp/ccOKE3MP.s:4416   .debug_str:00000000000003e4 .LASF109
     /tmp/ccOKE3MP.s:4370   .debug_str:000000000000019f .LASF110
     /tmp/ccOKE3MP.s:4468   .debug_str:00000000000005a7 .LASF111
     /tmp/ccOKE3MP.s:4650   .debug_str:0000000000000bfc .LASF112
     /tmp/ccOKE3MP.s:4410   .debug_str:0000000000000393 .LASF113
     /tmp/ccOKE3MP.s:4592   .debug_str:0000000000000a24 .LASF114
     /tmp/ccOKE3MP.s:4818   .debug_str:000000000000112c .LASF115
     /tmp/ccOKE3MP.s:4790   .debug_str:0000000000001072 .LASF118
     /tmp/ccOKE3MP.s:4336   .debug_str:000000000000005a .LASF120
     /tmp/ccOKE3MP.s:4666   .debug_str:0000000000000c66 .LASF116
     /tmp/ccOKE3MP.s:4610   .debug_str:0000000000000abe .LASF117
     /tmp/ccOKE3MP.s:4642   .debug_str:0000000000000ba2 .LASF119
GAS LISTING /tmp/ccOKE3MP.s 			page 35


     /tmp/ccOKE3MP.s:4648   .debug_str:0000000000000be9 .LASF121
     /tmp/ccOKE3MP.s:4602   .debug_str:0000000000000a6a .LASF122
     /tmp/ccOKE3MP.s:4530   .debug_str:00000000000007d2 .LASF123
     /tmp/ccOKE3MP.s:4820   .debug_str:0000000000001146 .LASF124
     /tmp/ccOKE3MP.s:4768   .debug_str:0000000000000fa9 .LASF125
     /tmp/ccOKE3MP.s:4596   .debug_str:0000000000000a3a .LASF126
     /tmp/ccOKE3MP.s:4608   .debug_str:0000000000000aaa .LASF127
     /tmp/ccOKE3MP.s:4584   .debug_str:00000000000009e8 .LASF128
     /tmp/ccOKE3MP.s:4652   .debug_str:0000000000000c0a .LASF129
     /tmp/ccOKE3MP.s:4862   .debug_str:00000000000012bf .LASF130
     /tmp/ccOKE3MP.s:4508   .debug_str:0000000000000707 .LASF131
     /tmp/ccOKE3MP.s:4488   .debug_str:0000000000000677 .LASF132
     /tmp/ccOKE3MP.s:4736   .debug_str:0000000000000eca .LASF133
     /tmp/ccOKE3MP.s:4696   .debug_str:0000000000000d5d .LASF134
     /tmp/ccOKE3MP.s:4698   .debug_str:0000000000000d70 .LASF135
     /tmp/ccOKE3MP.s:4438   .debug_str:000000000000048d .LASF136
     /tmp/ccOKE3MP.s:4694   .debug_str:0000000000000d57 .LASF137
     /tmp/ccOKE3MP.s:4346   .debug_str:0000000000000099 .LASF138
     /tmp/ccOKE3MP.s:4506   .debug_str:0000000000000701 .LASF139
     /tmp/ccOKE3MP.s:4426   .debug_str:0000000000000447 .LASF140
     /tmp/ccOKE3MP.s:4386   .debug_str:00000000000002d7 .LASF141
     /tmp/ccOKE3MP.s:4752   .debug_str:0000000000000f31 .LASF142
     /tmp/ccOKE3MP.s:4340   .debug_str:0000000000000076 .LASF143
     /tmp/ccOKE3MP.s:4678   .debug_str:0000000000000cbc .LASF144
     /tmp/ccOKE3MP.s:4670   .debug_str:0000000000000c87 .LASF145
     /tmp/ccOKE3MP.s:4852   .debug_str:0000000000001266 .LASF146
     /tmp/ccOKE3MP.s:4676   .debug_str:0000000000000cb5 .LASF147
     /tmp/ccOKE3MP.s:4394   .debug_str:000000000000032b .LASF148
     /tmp/ccOKE3MP.s:4722   .debug_str:0000000000000e31 .LASF149
     /tmp/ccOKE3MP.s:4558   .debug_str:00000000000008dc .LASF150
     /tmp/ccOKE3MP.s:4814   .debug_str:0000000000001110 .LASF151
     /tmp/ccOKE3MP.s:4830   .debug_str:000000000000119f .LASF152
     /tmp/ccOKE3MP.s:4808   .debug_str:00000000000010ee .LASF153
     /tmp/ccOKE3MP.s:4348   .debug_str:00000000000000ab .LASF154
     /tmp/ccOKE3MP.s:4422   .debug_str:0000000000000431 .LASF155
     /tmp/ccOKE3MP.s:4482   .debug_str:0000000000000654 .LASF156
     /tmp/ccOKE3MP.s:4490   .debug_str:0000000000000684 .LASF157
     /tmp/ccOKE3MP.s:4810   .debug_str:00000000000010f8 .LASF158
     /tmp/ccOKE3MP.s:4486   .debug_str:000000000000066c .LASF159
     /tmp/ccOKE3MP.s:4494   .debug_str:0000000000000695 .LASF160
     /tmp/ccOKE3MP.s:4784   .debug_str:000000000000103f .LASF161
     /tmp/ccOKE3MP.s:4472   .debug_str:00000000000005d2 .LASF162
     /tmp/ccOKE3MP.s:4632   .debug_str:0000000000000b64 .LASF163
     /tmp/ccOKE3MP.s:4524   .debug_str:0000000000000781 .LASF164
     /tmp/ccOKE3MP.s:4366   .debug_str:000000000000017d .LASF165
     /tmp/ccOKE3MP.s:4570   .debug_str:0000000000000951 .LASF166
     /tmp/ccOKE3MP.s:4660   .debug_str:0000000000000c48 .LASF167
     /tmp/ccOKE3MP.s:4334   .debug_str:0000000000000052 .LASF168
     /tmp/ccOKE3MP.s:4372   .debug_str:00000000000001a9 .LASF169
     /tmp/ccOKE3MP.s:4550   .debug_str:000000000000087e .LASF170
     /tmp/ccOKE3MP.s:4374   .debug_str:00000000000001b8 .LASF171
     /tmp/ccOKE3MP.s:4586   .debug_str:00000000000009f0 .LASF172
     /tmp/ccOKE3MP.s:4476   .debug_str:00000000000005fc .LASF173
     /tmp/ccOKE3MP.s:4516   .debug_str:0000000000000746 .LASF174
     /tmp/ccOKE3MP.s:4392   .debug_str:0000000000000317 .LASF175
     /tmp/ccOKE3MP.s:4762   .debug_str:0000000000000f87 .LASF176
     /tmp/ccOKE3MP.s:4568   .debug_str:000000000000094c .LASF177
GAS LISTING /tmp/ccOKE3MP.s 			page 36


     /tmp/ccOKE3MP.s:4658   .debug_str:0000000000000c3d .LASF178
     /tmp/ccOKE3MP.s:4470   .debug_str:00000000000005be .LASF179
     /tmp/ccOKE3MP.s:4358   .debug_str:0000000000000117 .LASF180
     /tmp/ccOKE3MP.s:4656   .debug_str:0000000000000c29 .LASF181
     /tmp/ccOKE3MP.s:4430   .debug_str:0000000000000462 .LASF182
     /tmp/ccOKE3MP.s:4716   .debug_str:0000000000000dfd .LASF183
     /tmp/ccOKE3MP.s:4744   .debug_str:0000000000000f12 .LASF184
     /tmp/ccOKE3MP.s:4448   .debug_str:00000000000004f5 .LASF185
     /tmp/ccOKE3MP.s:4324   .debug_str:000000000000000f .LASF186
     /tmp/ccOKE3MP.s:4680   .debug_str:0000000000000cd4 .LASF187
     /tmp/ccOKE3MP.s:4572   .debug_str:000000000000096e .LASF188
     /tmp/ccOKE3MP.s:4674   .debug_str:0000000000000ca0 .LASF189
     /tmp/ccOKE3MP.s:4400   .debug_str:000000000000035d .LASF190
     /tmp/ccOKE3MP.s:4406   .debug_str:0000000000000379 .LASF191
     /tmp/ccOKE3MP.s:4594   .debug_str:0000000000000a31 .LASF192
     /tmp/ccOKE3MP.s:4688   .debug_str:0000000000000d22 .LASF193
     /tmp/ccOKE3MP.s:4322   .debug_str:0000000000000000 .LASF194
     /tmp/ccOKE3MP.s:4480   .debug_str:0000000000000632 .LASF195
     /tmp/ccOKE3MP.s:4776   .debug_str:0000000000000ffb .LASF196
     /tmp/ccOKE3MP.s:4738   .debug_str:0000000000000ed1 .LASF197
     /tmp/ccOKE3MP.s:4564   .debug_str:0000000000000911 .LASF198
     /tmp/ccOKE3MP.s:4412   .debug_str:00000000000003ae .LASF199
     /tmp/ccOKE3MP.s:4612   .debug_str:0000000000000ad3 .LASF200
     /tmp/ccOKE3MP.s:4644   .debug_str:0000000000000ba9 .LASF201
     /tmp/ccOKE3MP.s:4544   .debug_str:0000000000000862 .LASF202
     /tmp/ccOKE3MP.s:4496   .debug_str:00000000000006ad .LASF203
     /tmp/ccOKE3MP.s:4860   .debug_str:00000000000012a7 .LASF204
     /tmp/ccOKE3MP.s:4332   .debug_str:000000000000004a .LASF205
     /tmp/ccOKE3MP.s:4560   .debug_str:00000000000008ef .LASF206
     /tmp/ccOKE3MP.s:4854   .debug_str:000000000000127e .LASF207
     /tmp/ccOKE3MP.s:4692   .debug_str:0000000000000d34 .LASF208
     /tmp/ccOKE3MP.s:4742   .debug_str:0000000000000eff .LASF209
     /tmp/ccOKE3MP.s:4686   .debug_str:0000000000000cfc .LASF210
     /tmp/ccOKE3MP.s:4844   .debug_str:000000000000120e .LASF211
     /tmp/ccOKE3MP.s:4536   .debug_str:000000000000081b .LASF212
     /tmp/ccOKE3MP.s:4598   .debug_str:0000000000000a42 .LASF213
     /tmp/ccOKE3MP.s:4714   .debug_str:0000000000000dea .LASF214
     /tmp/ccOKE3MP.s:4580   .debug_str:00000000000009c8 .LASF215
     /tmp/ccOKE3MP.s:4616   .debug_str:0000000000000ae8 .LASF216
     /tmp/ccOKE3MP.s:4542   .debug_str:0000000000000857 .LASF217
     /tmp/ccOKE3MP.s:4638   .debug_str:0000000000000b8c .LASF218
     /tmp/ccOKE3MP.s:4798   .debug_str:000000000000109f .LASF219
     /tmp/ccOKE3MP.s:4754   .debug_str:0000000000000f4c .LASF220
     /tmp/ccOKE3MP.s:4794   .debug_str:0000000000001080 .LASF221
     /tmp/ccOKE3MP.s:4344   .debug_str:000000000000008c .LASF222
     /tmp/ccOKE3MP.s:4582   .debug_str:00000000000009dc .LASF223
     /tmp/ccOKE3MP.s:4636   .debug_str:0000000000000b80 .LASF224
     /tmp/ccOKE3MP.s:4720   .debug_str:0000000000000e1f .LASF225
     /tmp/ccOKE3MP.s:4450   .debug_str:000000000000050e .LASF226
     /tmp/ccOKE3MP.s:4788   .debug_str:0000000000001060 .LASF227
     /tmp/ccOKE3MP.s:4824   .debug_str:0000000000001167 .LASF228
     /tmp/ccOKE3MP.s:4786   .debug_str:000000000000104e .LASF229
     /tmp/ccOKE3MP.s:4502   .debug_str:00000000000006d4 .LASF230
     /tmp/ccOKE3MP.s:4368   .debug_str:000000000000018c .LASF231
     /tmp/ccOKE3MP.s:4382   .debug_str:00000000000002a3 .LASF232
     /tmp/ccOKE3MP.s:4442   .debug_str:00000000000004aa .LASF233
     /tmp/ccOKE3MP.s:4378   .debug_str:00000000000001d4 .LASF234
GAS LISTING /tmp/ccOKE3MP.s 			page 37


     /tmp/ccOKE3MP.s:4354   .debug_str:00000000000000e0 .LASF235
     /tmp/ccOKE3MP.s:4822   .debug_str:000000000000114e .LASF236
     /tmp/ccOKE3MP.s:4566   .debug_str:0000000000000922 .LASF237
     /tmp/ccOKE3MP.s:4418   .debug_str:0000000000000403 .LASF238
     /tmp/ccOKE3MP.s:4850   .debug_str:000000000000123d .LASF239
     /tmp/ccOKE3MP.s:4458   .debug_str:000000000000055a .LASF240
     /tmp/ccOKE3MP.s:4816   .debug_str:000000000000111a .LASF241
     /tmp/ccOKE3MP.s:4464   .debug_str:000000000000058a .LASF242
     /tmp/ccOKE3MP.s:4836   .debug_str:00000000000011c9 .LASF243
     /tmp/ccOKE3MP.s:4350   .debug_str:00000000000000c1 .LASF244
     /tmp/ccOKE3MP.s:4552   .debug_str:000000000000088a .LASF245
     /tmp/ccOKE3MP.s:4858   .debug_str:000000000000129b .LASF246
     /tmp/ccOKE3MP.s:4356   .debug_str:00000000000000fb .LASF247
     /tmp/ccOKE3MP.s:4750   .debug_str:0000000000000f2c .LASF248
     /tmp/ccOKE3MP.s:4606   .debug_str:0000000000000a92 .LASF249
     /tmp/ccOKE3MP.s:4668   .debug_str:0000000000000c6f .LASF250
     /tmp/ccOKE3MP.s:4364   .debug_str:0000000000000163 .LASF251
     /tmp/ccOKE3MP.s:4728   .debug_str:0000000000000e5c .LASF252
     /tmp/ccOKE3MP.s:4478   .debug_str:000000000000060f .LASF253
     /tmp/ccOKE3MP.s:4446   .debug_str:00000000000004d3 .LASF254
     /tmp/ccOKE3MP.s:4532   .debug_str:00000000000007e5 .LASF255
     /tmp/ccOKE3MP.s:4534   .debug_str:0000000000000800 .LASF256
     /tmp/ccOKE3MP.s:4528   .debug_str:00000000000007b6 .LASF257
     /tmp/ccOKE3MP.s:4756   .debug_str:0000000000000f57 .LASF258
     /tmp/ccOKE3MP.s:628    .text:0000000000000384 .LFB34
     /tmp/ccOKE3MP.s:648    .text:00000000000003a8 .LFE34
     /tmp/ccOKE3MP.s:585    .text:0000000000000350 .LFB33
     /tmp/ccOKE3MP.s:622    .text:0000000000000384 .LFE33
     /tmp/ccOKE3MP.s:4100   .debug_loc:0000000000000000 .LLST9
     /tmp/ccOKE3MP.s:600    .text:0000000000000368 .LVL39
     /tmp/ccOKE3MP.s:611    .text:0000000000000374 .LVL40
     /tmp/ccOKE3MP.s:543    .text:0000000000000320 .LFB32
     /tmp/ccOKE3MP.s:579    .text:0000000000000350 .LFE32
     /tmp/ccOKE3MP.s:4107   .debug_loc:0000000000000023 .LLST8
     /tmp/ccOKE3MP.s:568    .text:0000000000000340 .LVL38
     /tmp/ccOKE3MP.s:476    .text:00000000000002a8 .LFB31
     /tmp/ccOKE3MP.s:537    .text:0000000000000320 .LFE31
     /tmp/ccOKE3MP.s:4114   .debug_loc:0000000000000046 .LLST7
     /tmp/ccOKE3MP.s:494    .text:00000000000002d0 .LVL33
     /tmp/ccOKE3MP.s:260    .text:0000000000000190 .LFB30
     /tmp/ccOKE3MP.s:319    .text:0000000000000208 .LFE30
     /tmp/ccOKE3MP.s:4121   .debug_loc:0000000000000069 .LLST2
     /tmp/ccOKE3MP.s:305    .text:00000000000001f4 .LVL17
     /tmp/ccOKE3MP.s:193    .text:0000000000000118 .LFB29
     /tmp/ccOKE3MP.s:254    .text:0000000000000190 .LFE29
     /tmp/ccOKE3MP.s:4144   .debug_loc:00000000000000c9 .LLST1
     /tmp/ccOKE3MP.s:211    .text:0000000000000140 .LVL12
     /tmp/ccOKE3MP.s:134    .text:00000000000000b0 .LFB28
     /tmp/ccOKE3MP.s:187    .text:0000000000000118 .LFE28
     /tmp/ccOKE3MP.s:4151   .debug_loc:00000000000000ec .LLST0
     /tmp/ccOKE3MP.s:173    .text:0000000000000104 .LVL10
     /tmp/ccOKE3MP.s:654    .text:00000000000003a8 .LFB27
     /tmp/ccOKE3MP.s:870    .text:00000000000004a4 .LFE27
     /tmp/ccOKE3MP.s:4174   .debug_loc:000000000000014c .LLST10
     /tmp/ccOKE3MP.s:4188   .debug_loc:0000000000000185 .LLST11
     /tmp/ccOKE3MP.s:4304   .debug_ranges:0000000000000000 .Ldebug_ranges0
     /tmp/ccOKE3MP.s:4199   .debug_loc:00000000000001bb .LLST13
GAS LISTING /tmp/ccOKE3MP.s 			page 38


     /tmp/ccOKE3MP.s:4662   .debug_str:0000000000000c4f .LASF259
     /tmp/ccOKE3MP.s:4210   .debug_loc:00000000000001f1 .LLST14
     /tmp/ccOKE3MP.s:824    .text:0000000000000460 .LBB34
     /tmp/ccOKE3MP.s:865    .text:00000000000004a0 .LBE34
     /tmp/ccOKE3MP.s:828    .text:0000000000000468 .LVL56
     /tmp/ccOKE3MP.s:721    .text:00000000000003ec .LBB28
     /tmp/ccOKE3MP.s:732    .text:00000000000003f0 .LBE28
     /tmp/ccOKE3MP.s:4217   .debug_loc:0000000000000214 .LLST15
     /tmp/ccOKE3MP.s:738    .text:00000000000003f8 .LBB30
     /tmp/ccOKE3MP.s:754    .text:0000000000000404 .LBE30
     /tmp/ccOKE3MP.s:756    .text:0000000000000404 .LBB32
     /tmp/ccOKE3MP.s:769    .text:000000000000040c .LBE32
     /tmp/ccOKE3MP.s:4224   .debug_loc:0000000000000237 .LLST16
     /tmp/ccOKE3MP.s:708    .text:00000000000003dc .LVL44
     /tmp/ccOKE3MP.s:736    .text:00000000000003f8 .LVL49
     /tmp/ccOKE3MP.s:781    .text:0000000000000424 .LVL52
     /tmp/ccOKE3MP.s:669    .text:00000000000003bc .LBB22
     /tmp/ccOKE3MP.s:686    .text:00000000000003c8 .LBE22
     /tmp/ccOKE3MP.s:688    .text:00000000000003c8 .LBB24
     /tmp/ccOKE3MP.s:703    .text:00000000000003d4 .LBE24
     /tmp/ccOKE3MP.s:4232   .debug_loc:000000000000025b .LLST12
     /tmp/ccOKE3MP.s:325    .text:0000000000000208 .LFB26
     /tmp/ccOKE3MP.s:470    .text:00000000000002a8 .LFE26
     /tmp/ccOKE3MP.s:4240   .debug_loc:000000000000027f .LLST3
     /tmp/ccOKE3MP.s:4258   .debug_loc:00000000000002cb .LLST4
     /tmp/ccOKE3MP.s:4273   .debug_loc:0000000000000314 .LLST5
     /tmp/ccOKE3MP.s:379    .text:000000000000023c .LBB17
     /tmp/ccOKE3MP.s:415    .text:0000000000000270 .LBE17
     /tmp/ccOKE3MP.s:4284   .debug_loc:000000000000034a .LLST6
     /tmp/ccOKE3MP.s:409    .text:0000000000000264 .LVL26
     /tmp/ccOKE3MP.s:414    .text:0000000000000270 .LVL27
     /tmp/ccOKE3MP.s:96     .text:00000000000000b0 .LFE25
     /tmp/ccOKE3MP.s:33     .text:0000000000000024 .LVL0
     /tmp/ccOKE3MP.s:39     .text:0000000000000034 .LVL1
     /tmp/ccOKE3MP.s:48     .text:0000000000000048 .LVL2
     /tmp/ccOKE3MP.s:54     .text:0000000000000058 .LVL3
     /tmp/ccOKE3MP.s:78     .text:0000000000000088 .LVL4
     /tmp/ccOKE3MP.s:82     .text:0000000000000094 .LVL5
     /tmp/ccOKE3MP.s:89     .text:00000000000000a4 .LVL6
     /tmp/ccOKE3MP.s:93     .text:00000000000000b0 .LVL7
     /tmp/ccOKE3MP.s:4804   .debug_str:00000000000010cb .LASF260
     /tmp/ccOKE3MP.s:4514   .debug_str:000000000000073a .LASF261
     /tmp/ccOKE3MP.s:4802   .debug_str:00000000000010bb .LASF262
     /tmp/ccOKE3MP.s:4760   .debug_str:0000000000000f78 .LASF270
     /tmp/ccOKE3MP.s:4362   .debug_str:000000000000014b .LASF271
     /tmp/ccOKE3MP.s:561    .text:0000000000000334 .LVL36
     /tmp/ccOKE3MP.s:566    .text:0000000000000338 .LVL37
     /tmp/ccOKE3MP.s:506    .text:00000000000002ec .LVL34
     /tmp/ccOKE3MP.s:517    .text:0000000000000304 .LVL35
     /tmp/ccOKE3MP.s:263    .text:0000000000000190 .LVL15
     /tmp/ccOKE3MP.s:303    .text:00000000000001ec .LVL16
     /tmp/ccOKE3MP.s:315    .text:0000000000000204 .LVL18
     /tmp/ccOKE3MP.s:223    .text:000000000000015c .LVL13
     /tmp/ccOKE3MP.s:234    .text:0000000000000174 .LVL14
     /tmp/ccOKE3MP.s:137    .text:00000000000000b0 .LVL8
     /tmp/ccOKE3MP.s:171    .text:00000000000000fc .LVL9
     /tmp/ccOKE3MP.s:183    .text:0000000000000114 .LVL11
GAS LISTING /tmp/ccOKE3MP.s 			page 39


     /tmp/ccOKE3MP.s:657    .text:00000000000003a8 .LVL41
     /tmp/ccOKE3MP.s:700    .text:00000000000003d4 .LVL43
     /tmp/ccOKE3MP.s:684    .text:00000000000003c8 .LVL42
     /tmp/ccOKE3MP.s:716    .text:00000000000003e4 .LVL46
     /tmp/ccOKE3MP.s:752    .text:0000000000000404 .LVL50
     /tmp/ccOKE3MP.s:793    .text:0000000000000440 .LVL53
     /tmp/ccOKE3MP.s:811    .text:000000000000044c .LVL54
     /tmp/ccOKE3MP.s:841    .text:000000000000048c .LVL57
     /tmp/ccOKE3MP.s:852    .text:0000000000000494 .LVL58
     /tmp/ccOKE3MP.s:817    .text:0000000000000450 .LVL55
     /tmp/ccOKE3MP.s:720    .text:00000000000003ec .LVL47
     /tmp/ccOKE3MP.s:729    .text:00000000000003f0 .LVL48
     /tmp/ccOKE3MP.s:765    .text:000000000000040c .LVL51
     /tmp/ccOKE3MP.s:328    .text:0000000000000208 .LVL19
     /tmp/ccOKE3MP.s:375    .text:000000000000023c .LVL23
     /tmp/ccOKE3MP.s:466    .text:00000000000002a4 .LVL32
     /tmp/ccOKE3MP.s:335    .text:0000000000000214 .LVL20
     /tmp/ccOKE3MP.s:353    .text:0000000000000220 .LVL21
     /tmp/ccOKE3MP.s:384    .text:0000000000000248 .LVL24
     /tmp/ccOKE3MP.s:425    .text:000000000000027c .LVL28
     /tmp/ccOKE3MP.s:443    .text:0000000000000288 .LVL29
     /tmp/ccOKE3MP.s:359    .text:0000000000000224 .LVL22
     /tmp/ccOKE3MP.s:449    .text:000000000000028c .LVL30
     /tmp/ccOKE3MP.s:404    .text:0000000000000258 .LVL25
     /tmp/ccOKE3MP.s:462    .text:000000000000029c .LVL31
     /tmp/ccOKE3MP.s:933    .debug_info:0000000000000000 .Ldebug_info0
     /tmp/ccOKE3MP.s:330    .text:0000000000000208 .LBB15
     /tmp/ccOKE3MP.s:363    .text:0000000000000228 .LBE15
     /tmp/ccOKE3MP.s:377    .text:000000000000023c .LBB20
     /tmp/ccOKE3MP.s:417    .text:0000000000000270 .LBE20
     /tmp/ccOKE3MP.s:420    .text:0000000000000270 .LBB21
     /tmp/ccOKE3MP.s:453    .text:0000000000000290 .LBE21
     /tmp/ccOKE3MP.s:704    .text:00000000000003d4 .LBB26
     /tmp/ccOKE3MP.s:771    .text:000000000000040c .LBE26
     /tmp/ccOKE3MP.s:773    .text:000000000000040c .LBB36
     /tmp/ccOKE3MP.s:868    .text:00000000000004a4 .LBE36
     /tmp/ccOKE3MP.s:99     .gcc_except_table:0000000000000000 .LLSDA25

UNDEFINED SYMBOLS
_ZN10KSemaphorenwEm
_ZN10KSemaphoreC1Ei
_ZN10KSemaphoredlEPv
_Unwind_Resume
__gxx_personality_v0
_ZN10KSemaphore6signalEv
_ZN10KSemaphore4waitEv
CONSOLE_STATUS
CONSOLE_TX_DATA
_ZN5Riscv13w_a0_sscratchEv
thread_exit
thread_dispatch
_ZN5Riscv12finishSystemE
CONSOLE_RX_DATA
