GAS LISTING /tmp/ccAA9ySz.s 			page 1


   1              		.file	"KConsole.cpp"
   2              		.option pic
   3              		.option norelax
   4              		.text
   5              	.Ltext0:
   6              		.align	2
   7              		.globl	_ZN8KConsole7putCharEcRPNS_4ElemES2_
   9              	_ZN8KConsole7putCharEcRPNS_4ElemES2_:
  10              	.LFB24:
  11              		.file 1 "src/KConsole.cpp"
   1:src/KConsole.cpp **** //
   2:src/KConsole.cpp **** // Created by os on 5/19/22.
   3:src/KConsole.cpp **** //
   4:src/KConsole.cpp **** 
   5:src/KConsole.cpp **** 
   6:src/KConsole.cpp **** #include "../h/KConsole.hpp"
   7:src/KConsole.cpp **** #include "../h/syscall_c.h"
   8:src/KConsole.cpp **** 
   9:src/KConsole.cpp **** KConsole::Elem* KConsole::headInput = 0;
  10:src/KConsole.cpp **** KConsole::Elem* KConsole::tailInput = 0;
  11:src/KConsole.cpp **** KConsole::Elem* KConsole::headOutput = 0;
  12:src/KConsole.cpp **** KConsole::Elem* KConsole::tailOutput = 0;
  13:src/KConsole.cpp **** KSemaphore* KConsole::hasCharactersOutput = 0;
  14:src/KConsole.cpp **** KSemaphore* KConsole::hasCharactersInput = 0;
  15:src/KConsole.cpp **** uint64 KConsole::pendingGetc = 0;
  16:src/KConsole.cpp **** 
  17:src/KConsole.cpp **** void KConsole::putChar(char c, Elem*& head, Elem*& tail)
  18:src/KConsole.cpp **** {
  12              		.loc 1 18 1
  13              		.cfi_startproc
  14              	.LVL0:
  15 0000 130101FD 		addi	sp,sp,-48
  16              		.cfi_def_cfa_offset 48
  17 0004 23341102 		sd	ra,40(sp)
  18 0008 23308102 		sd	s0,32(sp)
  19 000c 233C9100 		sd	s1,24(sp)
  20 0010 23382101 		sd	s2,16(sp)
  21 0014 23343101 		sd	s3,8(sp)
  22              		.cfi_offset 1, -8
  23              		.cfi_offset 8, -16
  24              		.cfi_offset 9, -24
  25              		.cfi_offset 18, -32
  26              		.cfi_offset 19, -40
  27 0018 13040103 		addi	s0,sp,48
  28              		.cfi_def_cfa 8, 0
  29 001c 93090500 		mv	s3,a0
  30 0020 13890500 		mv	s2,a1
  31 0024 93040600 		mv	s1,a2
  19:src/KConsole.cpp ****     Elem* newElem = (Elem*)kmalloc(sizeof(Elem));
  32              		.loc 1 19 5
  33              		.loc 1 19 35 is_stmt 0
  34 0028 13050001 		li	a0,16
  35              	.LVL1:
  36 002c 97000000 		call	_Z7kmallocm@plt
  36      E7800000 
  37              	.LVL2:
  20:src/KConsole.cpp ****     newElem->next = 0;
GAS LISTING /tmp/ccAA9ySz.s 			page 2


  38              		.loc 1 20 5 is_stmt 1
  39              		.loc 1 20 19 is_stmt 0
  40 0034 23300500 		sd	zero,0(a0)
  21:src/KConsole.cpp ****     newElem->data = c;
  41              		.loc 1 21 5 is_stmt 1
  42              		.loc 1 21 19 is_stmt 0
  43 0038 23043501 		sb	s3,8(a0)
  22:src/KConsole.cpp ****     if(head == 0)
  44              		.loc 1 22 5 is_stmt 1
  45              		.loc 1 22 8 is_stmt 0
  46 003c 83370900 		ld	a5,0(s2)
  47              		.loc 1 22 5
  48 0040 63860702 		beqz	a5,.L5
  23:src/KConsole.cpp ****     {
  24:src/KConsole.cpp ****         head = tail = newElem;
  25:src/KConsole.cpp ****     }
  26:src/KConsole.cpp ****     else
  27:src/KConsole.cpp ****     {
  28:src/KConsole.cpp ****         tail->next = newElem;
  49              		.loc 1 28 9 is_stmt 1
  50 0044 83B70400 		ld	a5,0(s1)
  51              		.loc 1 28 20 is_stmt 0
  52 0048 23B0A700 		sd	a0,0(a5)
  29:src/KConsole.cpp ****         tail = newElem;
  53              		.loc 1 29 9 is_stmt 1
  54              		.loc 1 29 14 is_stmt 0
  55 004c 23B0A400 		sd	a0,0(s1)
  56              	.L1:
  30:src/KConsole.cpp ****     }
  31:src/KConsole.cpp **** }
  57              		.loc 1 31 1
  58 0050 83308102 		ld	ra,40(sp)
  59              		.cfi_remember_state
  60              		.cfi_restore 1
  61 0054 03340102 		ld	s0,32(sp)
  62              		.cfi_restore 8
  63              		.cfi_def_cfa 2, 48
  64 0058 83348101 		ld	s1,24(sp)
  65              		.cfi_restore 9
  66              	.LVL3:
  67 005c 03390101 		ld	s2,16(sp)
  68              		.cfi_restore 18
  69              	.LVL4:
  70 0060 83398100 		ld	s3,8(sp)
  71              		.cfi_restore 19
  72 0064 13010103 		addi	sp,sp,48
  73              		.cfi_def_cfa_offset 0
  74 0068 67800000 		jr	ra
  75              	.LVL5:
  76              	.L5:
  77              		.cfi_restore_state
  24:src/KConsole.cpp ****     }
  78              		.loc 1 24 9 is_stmt 1
  24:src/KConsole.cpp ****     }
  79              		.loc 1 24 21 is_stmt 0
  80 006c 23B0A400 		sd	a0,0(s1)
  24:src/KConsole.cpp ****     }
GAS LISTING /tmp/ccAA9ySz.s 			page 3


  81              		.loc 1 24 14
  82 0070 2330A900 		sd	a0,0(s2)
  83 0074 6FF0DFFD 		j	.L1
  84              		.cfi_endproc
  85              	.LFE24:
  87              		.align	2
  88              		.globl	_ZN8KConsole7getCharERPNS_4ElemES2_
  90              	_ZN8KConsole7getCharERPNS_4ElemES2_:
  91              	.LFB25:
  32:src/KConsole.cpp **** 
  33:src/KConsole.cpp **** char KConsole::getChar(Elem*& head, Elem*& tail)
  34:src/KConsole.cpp **** {
  92              		.loc 1 34 1 is_stmt 1
  93              		.cfi_startproc
  94              	.LVL6:
  95 0078 130101FE 		addi	sp,sp,-32
  96              		.cfi_def_cfa_offset 32
  97 007c 233C1100 		sd	ra,24(sp)
  98 0080 23388100 		sd	s0,16(sp)
  99 0084 23349100 		sd	s1,8(sp)
 100              		.cfi_offset 1, -8
 101              		.cfi_offset 8, -16
 102              		.cfi_offset 9, -24
 103 0088 13040102 		addi	s0,sp,32
 104              		.cfi_def_cfa 8, 0
 105 008c 93070500 		mv	a5,a0
  35:src/KConsole.cpp ****     if(head == 0)
 106              		.loc 1 35 5
 107              		.loc 1 35 8 is_stmt 0
 108 0090 03350500 		ld	a0,0(a0)
 109              	.LVL7:
 110              		.loc 1 35 5
 111 0094 630E0502 		beqz	a0,.L9
  36:src/KConsole.cpp ****         return 0;
  37:src/KConsole.cpp **** 
  38:src/KConsole.cpp ****     Elem* ret = head;
 112              		.loc 1 38 5 is_stmt 1
 113              	.LVL8:
  39:src/KConsole.cpp ****     head = head->next;
 114              		.loc 1 39 5
 115              		.loc 1 39 18 is_stmt 0
 116 0098 03370500 		ld	a4,0(a0)
 117              		.loc 1 39 10
 118 009c 23B0E700 		sd	a4,0(a5)
  40:src/KConsole.cpp ****     if(head == 0)
 119              		.loc 1 40 5 is_stmt 1
 120 00a0 63040702 		beqz	a4,.L11
 121              	.L8:
  41:src/KConsole.cpp ****         tail = 0;
  42:src/KConsole.cpp **** 
  43:src/KConsole.cpp ****     char c = ret->data;
 122              		.loc 1 43 5
 123              		.loc 1 43 10 is_stmt 0
 124 00a4 83448500 		lbu	s1,8(a0)
 125              	.LVL9:
  44:src/KConsole.cpp ****     kfree(ret);
 126              		.loc 1 44 5 is_stmt 1
GAS LISTING /tmp/ccAA9ySz.s 			page 4


 127              		.loc 1 44 10 is_stmt 0
 128 00a8 97000000 		call	_Z5kfreePv@plt
 128      E7800000 
 129              	.LVL10:
  45:src/KConsole.cpp ****     return c;
 130              		.loc 1 45 5 is_stmt 1
 131              	.L7:
  46:src/KConsole.cpp **** }
 132              		.loc 1 46 1 is_stmt 0
 133 00b0 13850400 		mv	a0,s1
 134 00b4 83308101 		ld	ra,24(sp)
 135              		.cfi_remember_state
 136              		.cfi_restore 1
 137 00b8 03340101 		ld	s0,16(sp)
 138              		.cfi_restore 8
 139              		.cfi_def_cfa 2, 32
 140 00bc 83348100 		ld	s1,8(sp)
 141              		.cfi_restore 9
 142 00c0 13010102 		addi	sp,sp,32
 143              		.cfi_def_cfa_offset 0
 144 00c4 67800000 		jr	ra
 145              	.LVL11:
 146              	.L11:
 147              		.cfi_restore_state
  41:src/KConsole.cpp **** 
 148              		.loc 1 41 9 is_stmt 1
  41:src/KConsole.cpp **** 
 149              		.loc 1 41 14 is_stmt 0
 150 00c8 23B00500 		sd	zero,0(a1)
 151 00cc 6FF09FFD 		j	.L8
 152              	.LVL12:
 153              	.L9:
  36:src/KConsole.cpp **** 
 154              		.loc 1 36 16
 155 00d0 93040000 		li	s1,0
 156 00d4 6FF0DFFD 		j	.L7
 157              		.cfi_endproc
 158              	.LFE25:
 160              		.align	2
 161              		.globl	_ZN8KConsole10initializeEv
 163              	_ZN8KConsole10initializeEv:
 164              	.LFB26:
  47:src/KConsole.cpp **** 
  48:src/KConsole.cpp **** void KConsole::initialize()
  49:src/KConsole.cpp **** {
 165              		.loc 1 49 1 is_stmt 1
 166              		.cfi_startproc
 167              		.cfi_personality 0x9b,DW.ref.__gxx_personality_v0
 168              		.cfi_lsda 0x1b,.LLSDA26
 169 00d8 130101FE 		addi	sp,sp,-32
 170              		.cfi_def_cfa_offset 32
 171 00dc 233C1100 		sd	ra,24(sp)
 172 00e0 23388100 		sd	s0,16(sp)
 173 00e4 23349100 		sd	s1,8(sp)
 174 00e8 23302101 		sd	s2,0(sp)
 175              		.cfi_offset 1, -8
 176              		.cfi_offset 8, -16
GAS LISTING /tmp/ccAA9ySz.s 			page 5


 177              		.cfi_offset 9, -24
 178              		.cfi_offset 18, -32
 179 00ec 13040102 		addi	s0,sp,32
 180              		.cfi_def_cfa 8, 0
  50:src/KConsole.cpp ****     hasCharactersInput = new KSemaphore(0);
 181              		.loc 1 50 5
 182              		.loc 1 50 42 is_stmt 0
 183 00f0 13058001 		li	a0,24
 184              	.LEHB0:
 185 00f4 97000000 		call	_ZN10KSemaphorenwEm@plt
 185      E7800000 
 186              	.LVL13:
 187              	.LEHE0:
 188 00fc 93040500 		mv	s1,a0
 189 0100 93050000 		li	a1,0
 190              	.LEHB1:
 191 0104 97000000 		call	_ZN10KSemaphoreC1Ei@plt
 191      E7800000 
 192              	.LVL14:
 193              	.LEHE1:
 194              		.loc 1 50 24 discriminator 2
 195 010c 97070000 		sd	s1,.LANCHOR0,a5
 195      23B09700 
  51:src/KConsole.cpp ****     hasCharactersOutput = new KSemaphore(0);
 196              		.loc 1 51 5 is_stmt 1 discriminator 2
 197              		.loc 1 51 43 is_stmt 0 discriminator 2
 198 0114 13058001 		li	a0,24
 199              	.LEHB2:
 200 0118 97000000 		call	_ZN10KSemaphorenwEm@plt
 200      E7800000 
 201              	.LVL15:
 202              	.LEHE2:
 203 0120 93040500 		mv	s1,a0
 204 0124 93050000 		li	a1,0
 205              	.LEHB3:
 206 0128 97000000 		call	_ZN10KSemaphoreC1Ei@plt
 206      E7800000 
 207              	.LVL16:
 208              	.LEHE3:
 209              		.loc 1 51 25 discriminator 2
 210 0130 97070000 		sd	s1,.LANCHOR0+8,a5
 210      23B09700 
  52:src/KConsole.cpp **** }
 211              		.loc 1 52 1 discriminator 2
 212 0138 83308101 		ld	ra,24(sp)
 213              		.cfi_remember_state
 214              		.cfi_restore 1
 215 013c 03340101 		ld	s0,16(sp)
 216              		.cfi_restore 8
 217              		.cfi_def_cfa 2, 32
 218 0140 83348100 		ld	s1,8(sp)
 219              		.cfi_restore 9
 220 0144 03390100 		ld	s2,0(sp)
 221              		.cfi_restore 18
 222 0148 13010102 		addi	sp,sp,32
 223              		.cfi_def_cfa_offset 0
 224 014c 67800000 		jr	ra
GAS LISTING /tmp/ccAA9ySz.s 			page 6


 225              	.L15:
 226              		.cfi_restore_state
 227 0150 13090500 		mv	s2,a0
  50:src/KConsole.cpp ****     hasCharactersInput = new KSemaphore(0);
 228              		.loc 1 50 42
 229 0154 13850400 		mv	a0,s1
 230 0158 97000000 		call	_ZN10KSemaphoredlEPv@plt
 230      E7800000 
 231              	.LVL17:
 232 0160 13050900 		mv	a0,s2
 233              	.LEHB4:
 234 0164 97000000 		call	_Unwind_Resume@plt
 234      E7800000 
 235              	.LVL18:
 236              	.LEHE4:
 237              	.L16:
 238 016c 13090500 		mv	s2,a0
  51:src/KConsole.cpp ****     hasCharactersOutput = new KSemaphore(0);
 239              		.loc 1 51 43
 240 0170 13850400 		mv	a0,s1
 241 0174 97000000 		call	_ZN10KSemaphoredlEPv@plt
 241      E7800000 
 242              	.LVL19:
 243 017c 13050900 		mv	a0,s2
 244              	.LEHB5:
 245 0180 97000000 		call	_Unwind_Resume@plt
 245      E7800000 
 246              	.LVL20:
 247              	.LEHE5:
 248              		.cfi_endproc
 249              	.LFE26:
 250              		.globl	__gxx_personality_v0
 251              		.section	.gcc_except_table,"a",@progbits
 252              	.LLSDA26:
 253 0000 FF       		.byte	0xff
 254 0001 FF       		.byte	0xff
 255 0002 03       		.byte	0x3
 256 0003 4E       		.byte	0x4e
 257 0004 00000000 		.4byte	.LEHB0-.LFB26
 258 0008 00000000 		.4byte	.LEHE0-.LEHB0
 259 000c 00000000 		.4byte	0
 260 0010 00       		.byte	0
 261 0011 00000000 		.4byte	.LEHB1-.LFB26
 262 0015 00000000 		.4byte	.LEHE1-.LEHB1
 263 0019 00000000 		.4byte	.L15-.LFB26
 264 001d 00       		.byte	0
 265 001e 00000000 		.4byte	.LEHB2-.LFB26
 266 0022 00000000 		.4byte	.LEHE2-.LEHB2
 267 0026 00000000 		.4byte	0
 268 002a 00       		.byte	0
 269 002b 00000000 		.4byte	.LEHB3-.LFB26
 270 002f 00000000 		.4byte	.LEHE3-.LEHB3
 271 0033 00000000 		.4byte	.L16-.LFB26
 272 0037 00       		.byte	0
 273 0038 00000000 		.4byte	.LEHB4-.LFB26
 274 003c 00000000 		.4byte	.LEHE4-.LEHB4
 275 0040 00000000 		.4byte	0
GAS LISTING /tmp/ccAA9ySz.s 			page 7


 276 0044 00       		.byte	0
 277 0045 00000000 		.4byte	.LEHB5-.LFB26
 278 0049 00000000 		.4byte	.LEHE5-.LEHB5
 279 004d 00000000 		.4byte	0
 280 0051 00       		.byte	0
 281              		.text
 283              		.align	2
 284              		.globl	_ZN8KConsole17putCharacterInputEc
 286              	_ZN8KConsole17putCharacterInputEc:
 287              	.LFB29:
  53:src/KConsole.cpp **** 
  54:src/KConsole.cpp **** //extern const uint64 CONSOLE_STATUS;
  55:src/KConsole.cpp **** //extern const uint64 CONSOLE_TX_DATA;
  56:src/KConsole.cpp **** //extern const uint64 CONSOLE_RX_DATA;
  57:src/KConsole.cpp **** 
  58:src/KConsole.cpp **** void KConsole::getCharactersFromConsole(void* p)
  59:src/KConsole.cpp **** {
  60:src/KConsole.cpp ****     while(true)
  61:src/KConsole.cpp ****     {
  62:src/KConsole.cpp ****         uint64 x = CONSOLE_STATUS;
  63:src/KConsole.cpp ****         __asm__ volatile("mv a0, %0"::"r"(x));
  64:src/KConsole.cpp ****         __asm__ volatile("lb a1, 0(a0)");
  65:src/KConsole.cpp ****         uint64 operation;
  66:src/KConsole.cpp ****         __asm__ volatile("mv %0, a1" :  "=r"(operation));
  67:src/KConsole.cpp ****         if(operation & STATUS_READ_MASK)
  68:src/KConsole.cpp ****         {
  69:src/KConsole.cpp ****             x = CONSOLE_TX_DATA;
  70:src/KConsole.cpp ****             __asm__ volatile("mv a0, %0"::"r"(x));
  71:src/KConsole.cpp ****             __asm__ volatile("lb a1,0(a0)");
  72:src/KConsole.cpp ****             char c;
  73:src/KConsole.cpp ****             __asm__ volatile("mv %0, a1" :  "=r"(c));
  74:src/KConsole.cpp **** 
  75:src/KConsole.cpp ****             putCharacterInput(c);
  76:src/KConsole.cpp ****             putCharacterOutput(c);
  77:src/KConsole.cpp ****         }
  78:src/KConsole.cpp ****         else
  79:src/KConsole.cpp ****             break;
  80:src/KConsole.cpp ****     }
  81:src/KConsole.cpp **** }
  82:src/KConsole.cpp **** 
  83:src/KConsole.cpp **** void KConsole::sendCharactersToConsole(void* p)
  84:src/KConsole.cpp **** {
  85:src/KConsole.cpp ****     while(true)
  86:src/KConsole.cpp ****     {
  87:src/KConsole.cpp ****             if(Riscv::finishSystem && KConsole::outputBufferEmpty() && pendingGetc == 0)
  88:src/KConsole.cpp ****                 thread_exit();
  89:src/KConsole.cpp **** 
  90:src/KConsole.cpp ****             uint64 x = CONSOLE_STATUS;
  91:src/KConsole.cpp ****             __asm__ volatile("mv a0, %0"::"r"(x));
  92:src/KConsole.cpp ****             __asm__ volatile("lb a1, 0(a0)");
  93:src/KConsole.cpp ****             uint64 operation;
  94:src/KConsole.cpp ****             __asm__ volatile("mv %0, a1" :  "=r"(operation));
  95:src/KConsole.cpp ****             if (operation & STATUS_WRITE_MASK)
  96:src/KConsole.cpp ****             {
  97:src/KConsole.cpp ****                 char volatile c = getCharacterOutput();
  98:src/KConsole.cpp ****                 x = CONSOLE_RX_DATA;
  99:src/KConsole.cpp ****                 __asm__ volatile("mv a0, %0"::"r"(x));
GAS LISTING /tmp/ccAA9ySz.s 			page 8


 100:src/KConsole.cpp ****                 __asm__ volatile("mv a1, %0" :  :"r"((uint64)c));
 101:src/KConsole.cpp ****                 __asm__ volatile("sb a1,0(a0)");
 102:src/KConsole.cpp ****             }
 103:src/KConsole.cpp ****             else
 104:src/KConsole.cpp ****                 thread_dispatch();
 105:src/KConsole.cpp ****     }
 106:src/KConsole.cpp **** }
 107:src/KConsole.cpp **** 
 108:src/KConsole.cpp **** void KConsole::putCharacterInput(char c)
 109:src/KConsole.cpp **** {
 288              		.loc 1 109 1 is_stmt 1
 289              		.cfi_startproc
 290              	.LVL21:
 291 0188 130101FF 		addi	sp,sp,-16
 292              		.cfi_def_cfa_offset 16
 293 018c 23341100 		sd	ra,8(sp)
 294 0190 23308100 		sd	s0,0(sp)
 295              		.cfi_offset 1, -8
 296              		.cfi_offset 8, -16
 297 0194 13040101 		addi	s0,sp,16
 298              		.cfi_def_cfa 8, 0
 110:src/KConsole.cpp ****     putChar(c, headInput, tailInput);
 299              		.loc 1 110 5
 300              		.loc 1 110 12 is_stmt 0
 301 0198 17060000 		lla	a2,.LANCHOR0+16
 301      13060600 
 302 01a0 97050000 		lla	a1,.LANCHOR0+24
 302      93850500 
 303 01a8 97000000 		call	_ZN8KConsole7putCharEcRPNS_4ElemES2_
 303      E7800000 
 304              	.LVL22:
 111:src/KConsole.cpp ****     hasCharactersInput->signal();
 305              		.loc 1 111 5 is_stmt 1
 306              		.loc 1 111 31 is_stmt 0
 307 01b0 17050000 		ld	a0,.LANCHOR0
 307      03350500 
 308 01b8 97000000 		call	_ZN10KSemaphore6signalEv@plt
 308      E7800000 
 309              	.LVL23:
 112:src/KConsole.cpp **** }
 310              		.loc 1 112 1
 311 01c0 83308100 		ld	ra,8(sp)
 312              		.cfi_restore 1
 313 01c4 03340100 		ld	s0,0(sp)
 314              		.cfi_restore 8
 315              		.cfi_def_cfa 2, 16
 316 01c8 13010101 		addi	sp,sp,16
 317              		.cfi_def_cfa_offset 0
 318 01cc 67800000 		jr	ra
 319              		.cfi_endproc
 320              	.LFE29:
 322              		.align	2
 323              		.globl	_ZN8KConsole17getCharacterInputEv
 325              	_ZN8KConsole17getCharacterInputEv:
 326              	.LFB30:
 113:src/KConsole.cpp **** 
 114:src/KConsole.cpp **** char KConsole::getCharacterInput()
GAS LISTING /tmp/ccAA9ySz.s 			page 9


 115:src/KConsole.cpp **** {
 327              		.loc 1 115 1 is_stmt 1
 328              		.cfi_startproc
 329 01d0 130101FF 		addi	sp,sp,-16
 330              		.cfi_def_cfa_offset 16
 331 01d4 23341100 		sd	ra,8(sp)
 332 01d8 23308100 		sd	s0,0(sp)
 333              		.cfi_offset 1, -8
 334              		.cfi_offset 8, -16
 335 01dc 13040101 		addi	s0,sp,16
 336              		.cfi_def_cfa 8, 0
 116:src/KConsole.cpp ****     hasCharactersInput->wait();
 337              		.loc 1 116 5
 338              		.loc 1 116 29 is_stmt 0
 339 01e0 17050000 		ld	a0,.LANCHOR0
 339      03350500 
 340 01e8 97000000 		call	_ZN10KSemaphore4waitEv@plt
 340      E7800000 
 341              	.LVL24:
 117:src/KConsole.cpp ****     return getChar(headInput, tailInput);
 342              		.loc 1 117 5 is_stmt 1
 343              		.loc 1 117 19 is_stmt 0
 344 01f0 97050000 		lla	a1,.LANCHOR0+16
 344      93850500 
 345 01f8 17050000 		lla	a0,.LANCHOR0+24
 345      13050500 
 346 0200 97000000 		call	_ZN8KConsole7getCharERPNS_4ElemES2_
 346      E7800000 
 347              	.LVL25:
 118:src/KConsole.cpp **** }
 348              		.loc 1 118 1
 349 0208 83308100 		ld	ra,8(sp)
 350              		.cfi_restore 1
 351 020c 03340100 		ld	s0,0(sp)
 352              		.cfi_restore 8
 353              		.cfi_def_cfa 2, 16
 354 0210 13010101 		addi	sp,sp,16
 355              		.cfi_def_cfa_offset 0
 356 0214 67800000 		jr	ra
 357              		.cfi_endproc
 358              	.LFE30:
 360              		.align	2
 361              		.globl	_ZN8KConsole18putCharacterOutputEc
 363              	_ZN8KConsole18putCharacterOutputEc:
 364              	.LFB31:
 119:src/KConsole.cpp **** 
 120:src/KConsole.cpp **** void KConsole::putCharacterOutput(char c)
 121:src/KConsole.cpp **** {
 365              		.loc 1 121 1 is_stmt 1
 366              		.cfi_startproc
 367              	.LVL26:
 368 0218 130101FF 		addi	sp,sp,-16
 369              		.cfi_def_cfa_offset 16
 370 021c 23341100 		sd	ra,8(sp)
 371 0220 23308100 		sd	s0,0(sp)
 372              		.cfi_offset 1, -8
 373              		.cfi_offset 8, -16
GAS LISTING /tmp/ccAA9ySz.s 			page 10


 374 0224 13040101 		addi	s0,sp,16
 375              		.cfi_def_cfa 8, 0
 122:src/KConsole.cpp ****     putChar(c, headOutput, tailOutput);
 376              		.loc 1 122 5
 377              		.loc 1 122 12 is_stmt 0
 378 0228 17060000 		lla	a2,.LANCHOR0+32
 378      13060600 
 379 0230 97050000 		lla	a1,.LANCHOR0+40
 379      93850500 
 380 0238 97000000 		call	_ZN8KConsole7putCharEcRPNS_4ElemES2_
 380      E7800000 
 381              	.LVL27:
 123:src/KConsole.cpp ****     hasCharactersOutput->signal();
 382              		.loc 1 123 5 is_stmt 1
 383              		.loc 1 123 32 is_stmt 0
 384 0240 17050000 		ld	a0,.LANCHOR0+8
 384      03350500 
 385 0248 97000000 		call	_ZN10KSemaphore6signalEv@plt
 385      E7800000 
 386              	.LVL28:
 124:src/KConsole.cpp **** }
 387              		.loc 1 124 1
 388 0250 83308100 		ld	ra,8(sp)
 389              		.cfi_restore 1
 390 0254 03340100 		ld	s0,0(sp)
 391              		.cfi_restore 8
 392              		.cfi_def_cfa 2, 16
 393 0258 13010101 		addi	sp,sp,16
 394              		.cfi_def_cfa_offset 0
 395 025c 67800000 		jr	ra
 396              		.cfi_endproc
 397              	.LFE31:
 399              		.align	2
 400              		.globl	_ZN8KConsole24getCharactersFromConsoleEPv
 402              	_ZN8KConsole24getCharactersFromConsoleEPv:
 403              	.LFB27:
  59:src/KConsole.cpp ****     while(true)
 404              		.loc 1 59 1 is_stmt 1
 405              		.cfi_startproc
 406              	.LVL29:
  60:src/KConsole.cpp ****     {
 407              		.loc 1 60 5
 408              	.LBB2:
  62:src/KConsole.cpp ****         __asm__ volatile("mv a0, %0"::"r"(x));
 409              		.loc 1 62 9
  62:src/KConsole.cpp ****         __asm__ volatile("mv a0, %0"::"r"(x));
 410              		.loc 1 62 16 is_stmt 0
 411 0260 97070000 		la	a5,CONSOLE_STATUS
 411      83B70700 
 412 0268 83B70700 		ld	a5,0(a5)
 413              	.LVL30:
  63:src/KConsole.cpp ****         __asm__ volatile("lb a1, 0(a0)");
 414              		.loc 1 63 9 is_stmt 1
  63:src/KConsole.cpp ****         __asm__ volatile("lb a1, 0(a0)");
 415              		.loc 1 63 46 is_stmt 0
 416              	#APP
 417              	# 63 "src/KConsole.cpp" 1
GAS LISTING /tmp/ccAA9ySz.s 			page 11


  64:src/KConsole.cpp ****         uint64 operation;
 418              		mv a0, a5
 419              	# 0 "" 2
 420              		.loc 1 64 9 is_stmt 1
  64:src/KConsole.cpp ****         uint64 operation;
 421              		.loc 1 64 41 is_stmt 0
 422              	# 64 "src/KConsole.cpp" 1
  65:src/KConsole.cpp ****         __asm__ volatile("mv %0, a1" :  "=r"(operation));
 423              		lb a1, 0(a0)
 424              	# 0 "" 2
 425              		.loc 1 65 9 is_stmt 1
  66:src/KConsole.cpp ****         if(operation & STATUS_READ_MASK)
 426              		.loc 1 66 9
  66:src/KConsole.cpp ****         if(operation & STATUS_READ_MASK)
 427              		.loc 1 66 57 is_stmt 0
 428              	# 66 "src/KConsole.cpp" 1
 429              		mv a5, a1
 430              	# 0 "" 2
 431              	.LVL31:
  67:src/KConsole.cpp ****         {
 432              		.loc 1 67 9 is_stmt 1
 433              	#NO_APP
 434              	.LBB3:
  67:src/KConsole.cpp ****         {
 435              		.loc 1 67 22 is_stmt 0
 436 0278 93F71700 		andi	a5,a5,1
 437              	.LVL32:
  67:src/KConsole.cpp ****         {
 438              		.loc 1 67 9
 439 027c 63800708 		beqz	a5,.L33
 440              	.LBE3:
 441              	.LBE2:
  59:src/KConsole.cpp ****     while(true)
 442              		.loc 1 59 1
 443 0280 130101FE 		addi	sp,sp,-32
 444              		.cfi_def_cfa_offset 32
 445 0284 233C1100 		sd	ra,24(sp)
 446 0288 23388100 		sd	s0,16(sp)
 447 028c 23349100 		sd	s1,8(sp)
 448              		.cfi_offset 1, -8
 449              		.cfi_offset 8, -16
 450              		.cfi_offset 9, -24
 451 0290 13040102 		addi	s0,sp,32
 452              		.cfi_def_cfa 8, 0
 453              	.LVL33:
 454              	.L29:
 455              	.LBB7:
 456              	.LBB5:
 457              	.LBB4:
  69:src/KConsole.cpp ****             __asm__ volatile("mv a0, %0"::"r"(x));
 458              		.loc 1 69 13 is_stmt 1
  69:src/KConsole.cpp ****             __asm__ volatile("mv a0, %0"::"r"(x));
 459              		.loc 1 69 15 is_stmt 0
 460 0294 97070000 		la	a5,CONSOLE_TX_DATA
 460      83B70700 
 461 029c 83B70700 		ld	a5,0(a5)
 462              	.LVL34:
GAS LISTING /tmp/ccAA9ySz.s 			page 12


  70:src/KConsole.cpp ****             __asm__ volatile("lb a1,0(a0)");
 463              		.loc 1 70 13 is_stmt 1
  70:src/KConsole.cpp ****             __asm__ volatile("lb a1,0(a0)");
 464              		.loc 1 70 50 is_stmt 0
 465              	#APP
 466              	# 70 "src/KConsole.cpp" 1
  71:src/KConsole.cpp ****             char c;
 467              		mv a0, a5
 468              	# 0 "" 2
 469              		.loc 1 71 13 is_stmt 1
  71:src/KConsole.cpp ****             char c;
 470              		.loc 1 71 44 is_stmt 0
 471              	# 71 "src/KConsole.cpp" 1
  72:src/KConsole.cpp ****             __asm__ volatile("mv %0, a1" :  "=r"(c));
 472              		lb a1,0(a0)
 473              	# 0 "" 2
 474              		.loc 1 72 13 is_stmt 1
  73:src/KConsole.cpp **** 
 475              		.loc 1 73 13
  73:src/KConsole.cpp **** 
 476              		.loc 1 73 53 is_stmt 0
 477              	# 73 "src/KConsole.cpp" 1
 478              		mv s1, a1
 479              	# 0 "" 2
 480              	#NO_APP
 481 02ac 93F4F40F 		andi	s1,s1,0xff
 482              	.LVL35:
  75:src/KConsole.cpp ****             putCharacterOutput(c);
 483              		.loc 1 75 13 is_stmt 1
  75:src/KConsole.cpp ****             putCharacterOutput(c);
 484              		.loc 1 75 30 is_stmt 0
 485 02b0 13850400 		mv	a0,s1
 486 02b4 97000000 		call	_ZN8KConsole17putCharacterInputEc
 486      E7800000 
 487              	.LVL36:
  76:src/KConsole.cpp ****         }
 488              		.loc 1 76 13 is_stmt 1
  76:src/KConsole.cpp ****         }
 489              		.loc 1 76 31 is_stmt 0
 490 02bc 13850400 		mv	a0,s1
 491 02c0 97000000 		call	_ZN8KConsole18putCharacterOutputEc
 491      E7800000 
 492              	.LVL37:
 493              	.LBE4:
 494              	.LBE5:
 495              	.LBE7:
  60:src/KConsole.cpp ****     {
 496              		.loc 1 60 5 is_stmt 1
  60:src/KConsole.cpp ****     {
 497              		.loc 1 60 5
 498              	.LBB8:
  62:src/KConsole.cpp ****         __asm__ volatile("mv a0, %0"::"r"(x));
 499              		.loc 1 62 9
  62:src/KConsole.cpp ****         __asm__ volatile("mv a0, %0"::"r"(x));
 500              		.loc 1 62 16 is_stmt 0
 501 02c8 97070000 		la	a5,CONSOLE_STATUS
 501      83B70700 
GAS LISTING /tmp/ccAA9ySz.s 			page 13


 502 02d0 83B70700 		ld	a5,0(a5)
 503              	.LVL38:
  63:src/KConsole.cpp ****         __asm__ volatile("lb a1, 0(a0)");
 504              		.loc 1 63 9 is_stmt 1
  63:src/KConsole.cpp ****         __asm__ volatile("lb a1, 0(a0)");
 505              		.loc 1 63 46 is_stmt 0
 506              	#APP
 507              	# 63 "src/KConsole.cpp" 1
  64:src/KConsole.cpp ****         uint64 operation;
 508              		mv a0, a5
 509              	# 0 "" 2
 510              		.loc 1 64 9 is_stmt 1
  64:src/KConsole.cpp ****         uint64 operation;
 511              		.loc 1 64 41 is_stmt 0
 512              	# 64 "src/KConsole.cpp" 1
  65:src/KConsole.cpp ****         __asm__ volatile("mv %0, a1" :  "=r"(operation));
 513              		lb a1, 0(a0)
 514              	# 0 "" 2
 515              		.loc 1 65 9 is_stmt 1
  66:src/KConsole.cpp ****         if(operation & STATUS_READ_MASK)
 516              		.loc 1 66 9
  66:src/KConsole.cpp ****         if(operation & STATUS_READ_MASK)
 517              		.loc 1 66 57 is_stmt 0
 518              	# 66 "src/KConsole.cpp" 1
 519              		mv a5, a1
 520              	# 0 "" 2
 521              	.LVL39:
  67:src/KConsole.cpp ****         {
 522              		.loc 1 67 9 is_stmt 1
 523              	#NO_APP
 524              	.LBB6:
  67:src/KConsole.cpp ****         {
 525              		.loc 1 67 22 is_stmt 0
 526 02e0 93F71700 		andi	a5,a5,1
 527              	.LVL40:
  67:src/KConsole.cpp ****         {
 528              		.loc 1 67 9
 529 02e4 E39807FA 		bnez	a5,.L29
 530              	.LBE6:
 531              	.LBE8:
  81:src/KConsole.cpp **** 
 532              		.loc 1 81 1
 533 02e8 83308101 		ld	ra,24(sp)
 534              		.cfi_restore 1
 535 02ec 03340101 		ld	s0,16(sp)
 536              		.cfi_restore 8
 537              		.cfi_def_cfa 2, 32
 538 02f0 83348100 		ld	s1,8(sp)
 539              		.cfi_restore 9
 540              	.LVL41:
 541 02f4 13010102 		addi	sp,sp,32
 542              		.cfi_def_cfa_offset 0
 543 02f8 67800000 		jr	ra
 544              	.LVL42:
 545              	.L33:
 546 02fc 67800000 		ret
 547              		.cfi_endproc
GAS LISTING /tmp/ccAA9ySz.s 			page 14


 548              	.LFE27:
 550              		.align	2
 551              		.globl	_ZN8KConsole18getCharacterOutputEv
 553              	_ZN8KConsole18getCharacterOutputEv:
 554              	.LFB32:
 125:src/KConsole.cpp **** 
 126:src/KConsole.cpp **** char KConsole::getCharacterOutput()
 127:src/KConsole.cpp **** {
 555              		.loc 1 127 1 is_stmt 1
 556              		.cfi_startproc
 557 0300 130101FF 		addi	sp,sp,-16
 558              		.cfi_def_cfa_offset 16
 559 0304 23341100 		sd	ra,8(sp)
 560 0308 23308100 		sd	s0,0(sp)
 561              		.cfi_offset 1, -8
 562              		.cfi_offset 8, -16
 563 030c 13040101 		addi	s0,sp,16
 564              		.cfi_def_cfa 8, 0
 128:src/KConsole.cpp ****     hasCharactersOutput->wait();
 565              		.loc 1 128 5
 566              		.loc 1 128 30 is_stmt 0
 567 0310 17050000 		ld	a0,.LANCHOR0+8
 567      03350500 
 568 0318 97000000 		call	_ZN10KSemaphore4waitEv@plt
 568      E7800000 
 569              	.LVL43:
 129:src/KConsole.cpp ****     return getChar(headOutput, tailOutput);
 570              		.loc 1 129 5 is_stmt 1
 571              		.loc 1 129 19 is_stmt 0
 572 0320 97050000 		lla	a1,.LANCHOR0+32
 572      93850500 
 573 0328 17050000 		lla	a0,.LANCHOR0+40
 573      13050500 
 574 0330 97000000 		call	_ZN8KConsole7getCharERPNS_4ElemES2_
 574      E7800000 
 575              	.LVL44:
 130:src/KConsole.cpp **** }
 576              		.loc 1 130 1
 577 0338 83308100 		ld	ra,8(sp)
 578              		.cfi_restore 1
 579 033c 03340100 		ld	s0,0(sp)
 580              		.cfi_restore 8
 581              		.cfi_def_cfa 2, 16
 582 0340 13010101 		addi	sp,sp,16
 583              		.cfi_def_cfa_offset 0
 584 0344 67800000 		jr	ra
 585              		.cfi_endproc
 586              	.LFE32:
 588              		.align	2
 589              		.globl	_ZN8KConsole11putcHandlerEv
 591              	_ZN8KConsole11putcHandlerEv:
 592              	.LFB33:
 131:src/KConsole.cpp **** 
 132:src/KConsole.cpp **** void KConsole::putcHandler()
 133:src/KConsole.cpp **** {
 593              		.loc 1 133 1 is_stmt 1
 594              		.cfi_startproc
GAS LISTING /tmp/ccAA9ySz.s 			page 15


 595 0348 130101FF 		addi	sp,sp,-16
 596              		.cfi_def_cfa_offset 16
 597 034c 23341100 		sd	ra,8(sp)
 598 0350 23308100 		sd	s0,0(sp)
 599              		.cfi_offset 1, -8
 600              		.cfi_offset 8, -16
 601 0354 13040101 		addi	s0,sp,16
 602              		.cfi_def_cfa 8, 0
 134:src/KConsole.cpp ****     uint64 ch;
 603              		.loc 1 134 5
 135:src/KConsole.cpp ****     __asm__ volatile("mv %0, a1" : "=r"(ch));
 604              		.loc 1 135 5
 605              		.loc 1 135 45 is_stmt 0
 606              	#APP
 607              	# 135 "src/KConsole.cpp" 1
 136              	    putCharacterOutput((char)ch);
 608              		mv a0, a1
 609              	# 0 "" 2
 610              	.LVL45:
 611              		.loc 1 136 5 is_stmt 1
 612              		.loc 1 136 23 is_stmt 0
 613              	#NO_APP
 614 035c 1375F50F 		andi	a0,a0,0xff
 615              	.LVL46:
 616 0360 97000000 		call	_ZN8KConsole18putCharacterOutputEc
 616      E7800000 
 617              	.LVL47:
 137:src/KConsole.cpp ****     Elem* curr = headOutput;
 618              		.loc 1 137 5 is_stmt 1
 619              		.loc 1 137 11 is_stmt 0
 620 0368 97070000 		ld	a5,.LANCHOR0+40
 620      83B70700 
 621              	.LVL48:
 622              	.L38:
 138:src/KConsole.cpp ****     while(curr != 0)
 623              		.loc 1 138 5 is_stmt 1
 624              		.loc 1 138 16
 625 0370 63860700 		beqz	a5,.L36
 139:src/KConsole.cpp ****     {
 140:src/KConsole.cpp ****         curr = curr->next;
 626              		.loc 1 140 9
 627              		.loc 1 140 14 is_stmt 0
 628 0374 83B70700 		ld	a5,0(a5)
 629              	.LVL49:
 138:src/KConsole.cpp ****     while(curr != 0)
 630              		.loc 1 138 5
 631 0378 6FF09FFF 		j	.L38
 632              	.L36:
 141:src/KConsole.cpp ****     }
 142:src/KConsole.cpp **** }
 633              		.loc 1 142 1
 634 037c 83308100 		ld	ra,8(sp)
 635              		.cfi_restore 1
 636 0380 03340100 		ld	s0,0(sp)
 637              		.cfi_restore 8
 638              		.cfi_def_cfa 2, 16
 639 0384 13010101 		addi	sp,sp,16
GAS LISTING /tmp/ccAA9ySz.s 			page 16


 640              		.cfi_def_cfa_offset 0
 641 0388 67800000 		jr	ra
 642              		.cfi_endproc
 643              	.LFE33:
 645              		.align	2
 646              		.globl	_ZN8KConsole11getcHandlerEv
 648              	_ZN8KConsole11getcHandlerEv:
 649              	.LFB34:
 143:src/KConsole.cpp **** 
 144:src/KConsole.cpp **** void KConsole::getcHandler()
 145:src/KConsole.cpp **** {
 650              		.loc 1 145 1 is_stmt 1
 651              		.cfi_startproc
 652 038c 130101FF 		addi	sp,sp,-16
 653              		.cfi_def_cfa_offset 16
 654 0390 23341100 		sd	ra,8(sp)
 655 0394 23308100 		sd	s0,0(sp)
 656              		.cfi_offset 1, -8
 657              		.cfi_offset 8, -16
 658 0398 13040101 		addi	s0,sp,16
 659              		.cfi_def_cfa 8, 0
 146:src/KConsole.cpp ****     pendingGetc++;
 660              		.loc 1 146 5
 661              		.loc 1 146 16 is_stmt 0
 662 039c 17070000 		lla	a4,.LANCHOR0
 662      13070700 
 663 03a4 83370703 		ld	a5,48(a4)
 664 03a8 93871700 		addi	a5,a5,1
 665 03ac 2338F702 		sd	a5,48(a4)
 147:src/KConsole.cpp ****     char ch;
 666              		.loc 1 147 5 is_stmt 1
 148:src/KConsole.cpp ****     ch = getCharacterInput();
 667              		.loc 1 148 5
 668              		.loc 1 148 27 is_stmt 0
 669 03b0 97000000 		call	_ZN8KConsole17getCharacterInputEv
 669      E7800000 
 670              	.LVL50:
 149:src/KConsole.cpp ****     __asm__ volatile("mv a0, %0" : :"r"((uint64)ch));
 671              		.loc 1 149 5 is_stmt 1
 672              		.loc 1 149 53 is_stmt 0
 673              	#APP
 674              	# 149 "src/KConsole.cpp" 1
 150              	    Riscv::w_a0_sscratch();
 675              		mv a0, a0
 676              	# 0 "" 2
 677              		.loc 1 150 5 is_stmt 1
 678              		.loc 1 150 25 is_stmt 0
 679              	#NO_APP
 680 03bc 97000000 		call	_ZN5Riscv13w_a0_sscratchEv@plt
 680      E7800000 
 681              	.LVL51:
 151:src/KConsole.cpp **** }
 682              		.loc 1 151 1
 683 03c4 83308100 		ld	ra,8(sp)
 684              		.cfi_restore 1
 685 03c8 03340100 		ld	s0,0(sp)
 686              		.cfi_restore 8
GAS LISTING /tmp/ccAA9ySz.s 			page 17


 687              		.cfi_def_cfa 2, 16
 688 03cc 13010101 		addi	sp,sp,16
 689              		.cfi_def_cfa_offset 0
 690 03d0 67800000 		jr	ra
 691              		.cfi_endproc
 692              	.LFE34:
 694              		.align	2
 695              		.globl	_ZN8KConsole11printBufferEv
 697              	_ZN8KConsole11printBufferEv:
 698              	.LFB35:
 152:src/KConsole.cpp **** 
 153:src/KConsole.cpp **** void KConsole::printBuffer()
 154:src/KConsole.cpp **** {
 699              		.loc 1 154 1 is_stmt 1
 700              		.cfi_startproc
 701 03d4 130101FE 		addi	sp,sp,-32
 702              		.cfi_def_cfa_offset 32
 703 03d8 233C1100 		sd	ra,24(sp)
 704 03dc 23388100 		sd	s0,16(sp)
 705 03e0 23349100 		sd	s1,8(sp)
 706              		.cfi_offset 1, -8
 707              		.cfi_offset 8, -16
 708              		.cfi_offset 9, -24
 709 03e4 13040102 		addi	s0,sp,32
 710              		.cfi_def_cfa 8, 0
 155:src/KConsole.cpp ****     Elem* curr = headInput;
 711              		.loc 1 155 5
 712              		.loc 1 155 11 is_stmt 0
 713 03e8 97040000 		ld	s1,.LANCHOR0+24
 713      83B40400 
 714              	.LVL52:
 715              	.L44:
 156:src/KConsole.cpp ****     while(curr != 0)
 716              		.loc 1 156 5 is_stmt 1
 717              		.loc 1 156 16
 718 03f0 638C0400 		beqz	s1,.L42
 157:src/KConsole.cpp ****     {
 158:src/KConsole.cpp ****         putc(curr->data);
 719              		.loc 1 158 9
 720              		.loc 1 158 13 is_stmt 0
 721 03f4 03C58400 		lbu	a0,8(s1)
 722 03f8 97000000 		call	putc@plt
 722      E7800000 
 723              	.LVL53:
 159:src/KConsole.cpp ****         curr = curr->next;
 724              		.loc 1 159 9 is_stmt 1
 725              		.loc 1 159 14 is_stmt 0
 726 0400 83B40400 		ld	s1,0(s1)
 727              	.LVL54:
 156:src/KConsole.cpp ****     while(curr != 0)
 728              		.loc 1 156 5
 729 0404 6FF0DFFE 		j	.L44
 730              	.L42:
 160:src/KConsole.cpp ****     }
 161:src/KConsole.cpp **** }
 731              		.loc 1 161 1
 732 0408 83308101 		ld	ra,24(sp)
GAS LISTING /tmp/ccAA9ySz.s 			page 18


 733              		.cfi_restore 1
 734 040c 03340101 		ld	s0,16(sp)
 735              		.cfi_restore 8
 736              		.cfi_def_cfa 2, 32
 737 0410 83348100 		ld	s1,8(sp)
 738              		.cfi_restore 9
 739              	.LVL55:
 740 0414 13010102 		addi	sp,sp,32
 741              		.cfi_def_cfa_offset 0
 742 0418 67800000 		jr	ra
 743              		.cfi_endproc
 744              	.LFE35:
 746              		.align	2
 747              		.globl	_ZN8KConsole17outputBufferEmptyEv
 749              	_ZN8KConsole17outputBufferEmptyEv:
 750              	.LFB36:
 162:src/KConsole.cpp **** 
 163:src/KConsole.cpp **** bool KConsole::outputBufferEmpty()
 164:src/KConsole.cpp **** {
 751              		.loc 1 164 1 is_stmt 1
 752              		.cfi_startproc
 753 041c 130101FF 		addi	sp,sp,-16
 754              		.cfi_def_cfa_offset 16
 755 0420 23348100 		sd	s0,8(sp)
 756              		.cfi_offset 8, -8
 757 0424 13040101 		addi	s0,sp,16
 758              		.cfi_def_cfa 8, 0
 165:src/KConsole.cpp ****     return headOutput == 0;
 759              		.loc 1 165 5
 166:src/KConsole.cpp **** }
 760              		.loc 1 166 1 is_stmt 0
 761 0428 17050000 		ld	a0,.LANCHOR0+40
 761      03350500 
 762 0430 13351500 		seqz	a0,a0
 763 0434 03348100 		ld	s0,8(sp)
 764              		.cfi_restore 8
 765              		.cfi_def_cfa 2, 16
 766 0438 13010101 		addi	sp,sp,16
 767              		.cfi_def_cfa_offset 0
 768 043c 67800000 		jr	ra
 769              		.cfi_endproc
 770              	.LFE36:
 772              		.align	2
 773              		.globl	_ZN8KConsole23sendCharactersToConsoleEPv
 775              	_ZN8KConsole23sendCharactersToConsoleEPv:
 776              	.LFB28:
  84:src/KConsole.cpp ****     while(true)
 777              		.loc 1 84 1 is_stmt 1
 778              		.cfi_startproc
 779              	.LVL56:
 780 0440 130101FE 		addi	sp,sp,-32
 781              		.cfi_def_cfa_offset 32
 782 0444 233C1100 		sd	ra,24(sp)
 783 0448 23388100 		sd	s0,16(sp)
 784              		.cfi_offset 1, -8
 785              		.cfi_offset 8, -16
 786 044c 13040102 		addi	s0,sp,32
GAS LISTING /tmp/ccAA9ySz.s 			page 19


 787              		.cfi_def_cfa 8, 0
 788 0450 6F000005 		j	.L49
 789              	.LVL57:
 790              	.L50:
 791              	.LBB9:
  90:src/KConsole.cpp ****             __asm__ volatile("mv a0, %0"::"r"(x));
 792              		.loc 1 90 13
  90:src/KConsole.cpp ****             __asm__ volatile("mv a0, %0"::"r"(x));
 793              		.loc 1 90 20 is_stmt 0
 794 0454 97070000 		la	a5,CONSOLE_STATUS
 794      83B70700 
 795 045c 83B70700 		ld	a5,0(a5)
 796              	.LVL58:
  91:src/KConsole.cpp ****             __asm__ volatile("lb a1, 0(a0)");
 797              		.loc 1 91 13 is_stmt 1
  91:src/KConsole.cpp ****             __asm__ volatile("lb a1, 0(a0)");
 798              		.loc 1 91 50 is_stmt 0
 799              	#APP
 800              	# 91 "src/KConsole.cpp" 1
  92:src/KConsole.cpp ****             uint64 operation;
 801              		mv a0, a5
 802              	# 0 "" 2
 803              		.loc 1 92 13 is_stmt 1
  92:src/KConsole.cpp ****             uint64 operation;
 804              		.loc 1 92 45 is_stmt 0
 805              	# 92 "src/KConsole.cpp" 1
  93:src/KConsole.cpp ****             __asm__ volatile("mv %0, a1" :  "=r"(operation));
 806              		lb a1, 0(a0)
 807              	# 0 "" 2
 808              		.loc 1 93 13 is_stmt 1
  94:src/KConsole.cpp ****             if (operation & STATUS_WRITE_MASK)
 809              		.loc 1 94 13
  94:src/KConsole.cpp ****             if (operation & STATUS_WRITE_MASK)
 810              		.loc 1 94 61 is_stmt 0
 811              	# 94 "src/KConsole.cpp" 1
 812              		mv a5, a1
 813              	# 0 "" 2
 814              	.LVL59:
  95:src/KConsole.cpp ****             {
 815              		.loc 1 95 13 is_stmt 1
 816              	#NO_APP
 817              	.LBB10:
  95:src/KConsole.cpp ****             {
 818              		.loc 1 95 27 is_stmt 0
 819 046c 93F70702 		andi	a5,a5,32
 820              	.LVL60:
  95:src/KConsole.cpp ****             {
 821              		.loc 1 95 13
 822 0470 63820706 		beqz	a5,.L51
 823              	.LBB11:
  97:src/KConsole.cpp ****                 x = CONSOLE_RX_DATA;
 824              		.loc 1 97 17 is_stmt 1
  97:src/KConsole.cpp ****                 x = CONSOLE_RX_DATA;
 825              		.loc 1 97 53 is_stmt 0
 826 0474 97000000 		call	_ZN8KConsole18getCharacterOutputEv
 826      E7800000 
 827              	.LVL61:
GAS LISTING /tmp/ccAA9ySz.s 			page 20


  97:src/KConsole.cpp ****                 x = CONSOLE_RX_DATA;
 828              		.loc 1 97 54
 829 047c A307A4FE 		sb	a0,-17(s0)
  98:src/KConsole.cpp ****                 __asm__ volatile("mv a0, %0"::"r"(x));
 830              		.loc 1 98 17 is_stmt 1
  98:src/KConsole.cpp ****                 __asm__ volatile("mv a0, %0"::"r"(x));
 831              		.loc 1 98 19 is_stmt 0
 832 0480 97070000 		la	a5,CONSOLE_RX_DATA
 832      83B70700 
 833 0488 83B70700 		ld	a5,0(a5)
 834              	.LVL62:
  99:src/KConsole.cpp ****                 __asm__ volatile("mv a1, %0" :  :"r"((uint64)c));
 835              		.loc 1 99 17 is_stmt 1
  99:src/KConsole.cpp ****                 __asm__ volatile("mv a1, %0" :  :"r"((uint64)c));
 836              		.loc 1 99 54 is_stmt 0
 837              	#APP
 838              	# 99 "src/KConsole.cpp" 1
 100:src/KConsole.cpp ****                 __asm__ volatile("sb a1,0(a0)");
 839              		mv a0, a5
 840              	# 0 "" 2
 841              		.loc 1 100 17 is_stmt 1
 100:src/KConsole.cpp ****                 __asm__ volatile("sb a1,0(a0)");
 842              		.loc 1 100 54 is_stmt 0
 843              	#NO_APP
 844 0490 8347F4FE 		lbu	a5,-17(s0)
 845              	.LVL63:
 846 0494 93F7F70F 		andi	a5,a5,0xff
 100:src/KConsole.cpp ****                 __asm__ volatile("sb a1,0(a0)");
 847              		.loc 1 100 65
 848              	#APP
 849              	# 100 "src/KConsole.cpp" 1
 101:src/KConsole.cpp ****             }
 850              		mv a1, a5
 851              	# 0 "" 2
 852              		.loc 1 101 17 is_stmt 1
 101:src/KConsole.cpp ****             }
 853              		.loc 1 101 48 is_stmt 0
 854              	# 101 "src/KConsole.cpp" 1
 855              		sb a1,0(a0)
 856              	# 0 "" 2
 857              	.LVL64:
 858              	#NO_APP
 859              	.L49:
 860              	.LBE11:
 861              	.LBE10:
 862              	.LBE9:
  85:src/KConsole.cpp ****     {
 863              		.loc 1 85 5 is_stmt 1
 864              	.LBB13:
  87:src/KConsole.cpp ****                 thread_exit();
 865              		.loc 1 87 13
  87:src/KConsole.cpp ****                 thread_exit();
 866              		.loc 1 87 69 is_stmt 0
 867 04a0 97070000 		la	a5,_ZN5Riscv12finishSystemE
 867      83B70700 
 868 04a8 83C70700 		lbu	a5,0(a5)
 869 04ac E38407FA 		beqz	a5,.L50
GAS LISTING /tmp/ccAA9ySz.s 			page 21


  87:src/KConsole.cpp ****                 thread_exit();
 870              		.loc 1 87 66 discriminator 1
 871 04b0 97000000 		call	_ZN8KConsole17outputBufferEmptyEv
 871      E7800000 
 872              	.LVL65:
  87:src/KConsole.cpp ****                 thread_exit();
 873              		.loc 1 87 36 discriminator 1
 874 04b8 E30E05F8 		beqz	a0,.L50
  87:src/KConsole.cpp ****                 thread_exit();
 875              		.loc 1 87 84 discriminator 3
 876 04bc 97070000 		ld	a5,.LANCHOR0+48
 876      83B70700 
  87:src/KConsole.cpp ****                 thread_exit();
 877              		.loc 1 87 69 discriminator 3
 878 04c4 E39807F8 		bnez	a5,.L50
  88:src/KConsole.cpp **** 
 879              		.loc 1 88 17 is_stmt 1
  88:src/KConsole.cpp **** 
 880              		.loc 1 88 28 is_stmt 0
 881 04c8 97000000 		call	thread_exit@plt
 881      E7800000 
 882              	.LVL66:
 883 04d0 6FF05FF8 		j	.L50
 884              	.LVL67:
 885              	.L51:
 886              	.LBB12:
 104:src/KConsole.cpp ****     }
 887              		.loc 1 104 17 is_stmt 1
 104:src/KConsole.cpp ****     }
 888              		.loc 1 104 32 is_stmt 0
 889 04d4 97000000 		call	thread_dispatch@plt
 889      E7800000 
 890              	.LVL68:
 891 04dc 6FF05FFC 		j	.L49
 892              	.LBE12:
 893              	.LBE13:
 894              		.cfi_endproc
 895              	.LFE28:
 897              		.globl	_ZN8KConsole11pendingGetcE
 898              		.globl	_ZN8KConsole18hasCharactersInputE
 899              		.globl	_ZN8KConsole19hasCharactersOutputE
 900              		.globl	_ZN8KConsole10tailOutputE
 901              		.globl	_ZN8KConsole10headOutputE
 902              		.globl	_ZN8KConsole9tailInputE
 903              		.globl	_ZN8KConsole9headInputE
 904              		.bss
 905              		.align	3
 906              		.set	.LANCHOR0,. + 0
 909              	_ZN8KConsole18hasCharactersInputE:
 910 0000 00000000 		.zero	8
 910      00000000 
 913              	_ZN8KConsole19hasCharactersOutputE:
 914 0008 00000000 		.zero	8
 914      00000000 
 917              	_ZN8KConsole9tailInputE:
 918 0010 00000000 		.zero	8
 918      00000000 
GAS LISTING /tmp/ccAA9ySz.s 			page 22


 921              	_ZN8KConsole9headInputE:
 922 0018 00000000 		.zero	8
 922      00000000 
 925              	_ZN8KConsole10tailOutputE:
 926 0020 00000000 		.zero	8
 926      00000000 
 929              	_ZN8KConsole10headOutputE:
 930 0028 00000000 		.zero	8
 930      00000000 
 933              	_ZN8KConsole11pendingGetcE:
 934 0030 00000000 		.zero	8
 934      00000000 
 935              		.text
 936              	.Letext0:
 937              		.file 2 "src/../h/../lib/hw.h"
 938              		.file 3 "src/../h/PCB.hpp"
 939              		.file 4 "src/../h/Riscv.hpp"
 940              		.file 5 "src/../h/KSemaphore.hpp"
 941              		.file 6 "src/../h/KConsole.hpp"
 942              		.file 7 "src/../h/../test/../h/syscall_c.h"
 943              		.file 8 "src/../h/MemoryAllocator.hpp"
 4942              		.align	3
 4945              	DW.ref.__gxx_personality_v0:
 4946 0000 00000000 		.dword	__gxx_personality_v0
 4946      00000000 
 4947              		.ident	"GCC: (Ubuntu 9.3.0-17ubuntu1~20.04) 9.3.0"
 4948              		.section	.note.GNU-stack,"",@progbits
GAS LISTING /tmp/ccAA9ySz.s 			page 23


DEFINED SYMBOLS
                            *ABS*:0000000000000000 KConsole.cpp
     /tmp/ccAA9ySz.s:9      .text:0000000000000000 _ZN8KConsole7putCharEcRPNS_4ElemES2_
     /tmp/ccAA9ySz.s:13     .text:0000000000000000 .L0 
     /tmp/ccAA9ySz.s:15     .text:0000000000000000 .L0 
     /tmp/ccAA9ySz.s:16     .text:0000000000000004 .L0 
     /tmp/ccAA9ySz.s:22     .text:0000000000000018 .L0 
     /tmp/ccAA9ySz.s:23     .text:0000000000000018 .L0 
     /tmp/ccAA9ySz.s:24     .text:0000000000000018 .L0 
     /tmp/ccAA9ySz.s:25     .text:0000000000000018 .L0 
     /tmp/ccAA9ySz.s:26     .text:0000000000000018 .L0 
     /tmp/ccAA9ySz.s:28     .text:000000000000001c .L0 
     /tmp/ccAA9ySz.s:33     .text:0000000000000028 .L0 
     /tmp/ccAA9ySz.s:34     .text:0000000000000028 .L0 
     /tmp/ccAA9ySz.s:39     .text:0000000000000034 .L0 
     /tmp/ccAA9ySz.s:40     .text:0000000000000034 .L0 
     /tmp/ccAA9ySz.s:42     .text:0000000000000038 .L0 
     /tmp/ccAA9ySz.s:43     .text:0000000000000038 .L0 
     /tmp/ccAA9ySz.s:45     .text:000000000000003c .L0 
     /tmp/ccAA9ySz.s:46     .text:000000000000003c .L0 
     /tmp/ccAA9ySz.s:48     .text:0000000000000040 .L0 
     /tmp/ccAA9ySz.s:50     .text:0000000000000044 .L0 
     /tmp/ccAA9ySz.s:52     .text:0000000000000048 .L0 
     /tmp/ccAA9ySz.s:54     .text:000000000000004c .L0 
     /tmp/ccAA9ySz.s:55     .text:000000000000004c .L0 
     /tmp/ccAA9ySz.s:58     .text:0000000000000050 .L0 
     /tmp/ccAA9ySz.s:59     .text:0000000000000054 .L0 
     /tmp/ccAA9ySz.s:60     .text:0000000000000054 .L0 
     /tmp/ccAA9ySz.s:62     .text:0000000000000058 .L0 
     /tmp/ccAA9ySz.s:63     .text:0000000000000058 .L0 
     /tmp/ccAA9ySz.s:65     .text:000000000000005c .L0 
     /tmp/ccAA9ySz.s:68     .text:0000000000000060 .L0 
     /tmp/ccAA9ySz.s:71     .text:0000000000000064 .L0 
     /tmp/ccAA9ySz.s:73     .text:0000000000000068 .L0 
     /tmp/ccAA9ySz.s:77     .text:000000000000006c .L0 
     /tmp/ccAA9ySz.s:79     .text:000000000000006c .L0 
     /tmp/ccAA9ySz.s:80     .text:000000000000006c .L0 
     /tmp/ccAA9ySz.s:82     .text:0000000000000070 .L0 
     /tmp/ccAA9ySz.s:84     .text:0000000000000078 .L0 
     /tmp/ccAA9ySz.s:90     .text:0000000000000078 _ZN8KConsole7getCharERPNS_4ElemES2_
     /tmp/ccAA9ySz.s:93     .text:0000000000000078 .L0 
     /tmp/ccAA9ySz.s:95     .text:0000000000000078 .L0 
     /tmp/ccAA9ySz.s:96     .text:000000000000007c .L0 
     /tmp/ccAA9ySz.s:100    .text:0000000000000088 .L0 
     /tmp/ccAA9ySz.s:101    .text:0000000000000088 .L0 
     /tmp/ccAA9ySz.s:102    .text:0000000000000088 .L0 
     /tmp/ccAA9ySz.s:104    .text:000000000000008c .L0 
     /tmp/ccAA9ySz.s:107    .text:0000000000000090 .L0 
     /tmp/ccAA9ySz.s:108    .text:0000000000000090 .L0 
     /tmp/ccAA9ySz.s:111    .text:0000000000000094 .L0 
     /tmp/ccAA9ySz.s:114    .text:0000000000000098 .L0 
     /tmp/ccAA9ySz.s:115    .text:0000000000000098 .L0 
     /tmp/ccAA9ySz.s:116    .text:0000000000000098 .L0 
     /tmp/ccAA9ySz.s:118    .text:000000000000009c .L0 
     /tmp/ccAA9ySz.s:120    .text:00000000000000a0 .L0 
     /tmp/ccAA9ySz.s:123    .text:00000000000000a4 .L0 
     /tmp/ccAA9ySz.s:124    .text:00000000000000a4 .L0 
GAS LISTING /tmp/ccAA9ySz.s 			page 24


     /tmp/ccAA9ySz.s:127    .text:00000000000000a8 .L0 
     /tmp/ccAA9ySz.s:128    .text:00000000000000a8 .L0 
     /tmp/ccAA9ySz.s:132    .text:00000000000000b0 .L0 
     /tmp/ccAA9ySz.s:133    .text:00000000000000b0 .L0 
     /tmp/ccAA9ySz.s:135    .text:00000000000000b8 .L0 
     /tmp/ccAA9ySz.s:136    .text:00000000000000b8 .L0 
     /tmp/ccAA9ySz.s:138    .text:00000000000000bc .L0 
     /tmp/ccAA9ySz.s:139    .text:00000000000000bc .L0 
     /tmp/ccAA9ySz.s:141    .text:00000000000000c0 .L0 
     /tmp/ccAA9ySz.s:143    .text:00000000000000c4 .L0 
     /tmp/ccAA9ySz.s:147    .text:00000000000000c8 .L0 
     /tmp/ccAA9ySz.s:149    .text:00000000000000c8 .L0 
     /tmp/ccAA9ySz.s:150    .text:00000000000000c8 .L0 
     /tmp/ccAA9ySz.s:155    .text:00000000000000d0 .L0 
     /tmp/ccAA9ySz.s:157    .text:00000000000000d8 .L0 
     /tmp/ccAA9ySz.s:163    .text:00000000000000d8 _ZN8KConsole10initializeEv
     /tmp/ccAA9ySz.s:166    .text:00000000000000d8 .L0 
     /tmp/ccAA9ySz.s:4945   .data.rel.local.DW.ref.__gxx_personality_v0:0000000000000000 DW.ref.__gxx_personality_v0
     /tmp/ccAA9ySz.s:169    .text:00000000000000d8 .L0 
     /tmp/ccAA9ySz.s:170    .text:00000000000000dc .L0 
     /tmp/ccAA9ySz.s:175    .text:00000000000000ec .L0 
     /tmp/ccAA9ySz.s:176    .text:00000000000000ec .L0 
     /tmp/ccAA9ySz.s:177    .text:00000000000000ec .L0 
     /tmp/ccAA9ySz.s:178    .text:00000000000000ec .L0 
     /tmp/ccAA9ySz.s:180    .text:00000000000000f0 .L0 
     /tmp/ccAA9ySz.s:182    .text:00000000000000f0 .L0 
     /tmp/ccAA9ySz.s:183    .text:00000000000000f0 .L0 
     /tmp/ccAA9ySz.s:195    .text:000000000000010c .L0 
     /tmp/ccAA9ySz.s:197    .text:0000000000000114 .L0 
     /tmp/ccAA9ySz.s:198    .text:0000000000000114 .L0 
     /tmp/ccAA9ySz.s:210    .text:0000000000000130 .L0 
     /tmp/ccAA9ySz.s:212    .text:0000000000000138 .L0 
     /tmp/ccAA9ySz.s:213    .text:000000000000013c .L0 
     /tmp/ccAA9ySz.s:214    .text:000000000000013c .L0 
     /tmp/ccAA9ySz.s:216    .text:0000000000000140 .L0 
     /tmp/ccAA9ySz.s:217    .text:0000000000000140 .L0 
     /tmp/ccAA9ySz.s:219    .text:0000000000000144 .L0 
     /tmp/ccAA9ySz.s:221    .text:0000000000000148 .L0 
     /tmp/ccAA9ySz.s:223    .text:000000000000014c .L0 
     /tmp/ccAA9ySz.s:226    .text:0000000000000150 .L0 
     /tmp/ccAA9ySz.s:229    .text:0000000000000154 .L0 
     /tmp/ccAA9ySz.s:240    .text:0000000000000170 .L0 
     /tmp/ccAA9ySz.s:248    .text:0000000000000188 .L0 
     /tmp/ccAA9ySz.s:286    .text:0000000000000188 _ZN8KConsole17putCharacterInputEc
     /tmp/ccAA9ySz.s:289    .text:0000000000000188 .L0 
     /tmp/ccAA9ySz.s:291    .text:0000000000000188 .L0 
     /tmp/ccAA9ySz.s:292    .text:000000000000018c .L0 
     /tmp/ccAA9ySz.s:295    .text:0000000000000194 .L0 
     /tmp/ccAA9ySz.s:296    .text:0000000000000194 .L0 
     /tmp/ccAA9ySz.s:298    .text:0000000000000198 .L0 
     /tmp/ccAA9ySz.s:300    .text:0000000000000198 .L0 
     /tmp/ccAA9ySz.s:301    .text:0000000000000198 .L0 
     /tmp/ccAA9ySz.s:306    .text:00000000000001b0 .L0 
     /tmp/ccAA9ySz.s:307    .text:00000000000001b0 .L0 
     /tmp/ccAA9ySz.s:311    .text:00000000000001c0 .L0 
     /tmp/ccAA9ySz.s:312    .text:00000000000001c4 .L0 
     /tmp/ccAA9ySz.s:314    .text:00000000000001c8 .L0 
GAS LISTING /tmp/ccAA9ySz.s 			page 25


     /tmp/ccAA9ySz.s:315    .text:00000000000001c8 .L0 
     /tmp/ccAA9ySz.s:317    .text:00000000000001cc .L0 
     /tmp/ccAA9ySz.s:319    .text:00000000000001d0 .L0 
     /tmp/ccAA9ySz.s:325    .text:00000000000001d0 _ZN8KConsole17getCharacterInputEv
     /tmp/ccAA9ySz.s:328    .text:00000000000001d0 .L0 
     /tmp/ccAA9ySz.s:329    .text:00000000000001d0 .L0 
     /tmp/ccAA9ySz.s:330    .text:00000000000001d4 .L0 
     /tmp/ccAA9ySz.s:333    .text:00000000000001dc .L0 
     /tmp/ccAA9ySz.s:334    .text:00000000000001dc .L0 
     /tmp/ccAA9ySz.s:336    .text:00000000000001e0 .L0 
     /tmp/ccAA9ySz.s:338    .text:00000000000001e0 .L0 
     /tmp/ccAA9ySz.s:339    .text:00000000000001e0 .L0 
     /tmp/ccAA9ySz.s:343    .text:00000000000001f0 .L0 
     /tmp/ccAA9ySz.s:344    .text:00000000000001f0 .L0 
     /tmp/ccAA9ySz.s:349    .text:0000000000000208 .L0 
     /tmp/ccAA9ySz.s:350    .text:000000000000020c .L0 
     /tmp/ccAA9ySz.s:352    .text:0000000000000210 .L0 
     /tmp/ccAA9ySz.s:353    .text:0000000000000210 .L0 
     /tmp/ccAA9ySz.s:355    .text:0000000000000214 .L0 
     /tmp/ccAA9ySz.s:357    .text:0000000000000218 .L0 
     /tmp/ccAA9ySz.s:363    .text:0000000000000218 _ZN8KConsole18putCharacterOutputEc
     /tmp/ccAA9ySz.s:366    .text:0000000000000218 .L0 
     /tmp/ccAA9ySz.s:368    .text:0000000000000218 .L0 
     /tmp/ccAA9ySz.s:369    .text:000000000000021c .L0 
     /tmp/ccAA9ySz.s:372    .text:0000000000000224 .L0 
     /tmp/ccAA9ySz.s:373    .text:0000000000000224 .L0 
     /tmp/ccAA9ySz.s:375    .text:0000000000000228 .L0 
     /tmp/ccAA9ySz.s:377    .text:0000000000000228 .L0 
     /tmp/ccAA9ySz.s:378    .text:0000000000000228 .L0 
     /tmp/ccAA9ySz.s:383    .text:0000000000000240 .L0 
     /tmp/ccAA9ySz.s:384    .text:0000000000000240 .L0 
     /tmp/ccAA9ySz.s:388    .text:0000000000000250 .L0 
     /tmp/ccAA9ySz.s:389    .text:0000000000000254 .L0 
     /tmp/ccAA9ySz.s:391    .text:0000000000000258 .L0 
     /tmp/ccAA9ySz.s:392    .text:0000000000000258 .L0 
     /tmp/ccAA9ySz.s:394    .text:000000000000025c .L0 
     /tmp/ccAA9ySz.s:396    .text:0000000000000260 .L0 
     /tmp/ccAA9ySz.s:402    .text:0000000000000260 _ZN8KConsole24getCharactersFromConsoleEPv
     /tmp/ccAA9ySz.s:405    .text:0000000000000260 .L0 
     /tmp/ccAA9ySz.s:407    .text:0000000000000260 .L0 
     /tmp/ccAA9ySz.s:409    .text:0000000000000260 .L0 
     /tmp/ccAA9ySz.s:410    .text:0000000000000260 .L0 
     /tmp/ccAA9ySz.s:411    .text:0000000000000260 .L0 
     /tmp/ccAA9ySz.s:415    .text:000000000000026c .L0 
    src/KConsole.cpp:63     .text:000000000000026c .L0 
     /tmp/ccAA9ySz.s:421    .text:0000000000000270 .L0 
    src/KConsole.cpp:64     .text:0000000000000270 .L0 
     /tmp/ccAA9ySz.s:426    .text:0000000000000274 .L0 
     /tmp/ccAA9ySz.s:427    .text:0000000000000274 .L0 
    src/KConsole.cpp:66     .text:0000000000000274 .L0 
     /tmp/ccAA9ySz.s:435    .text:0000000000000278 .L0 
     /tmp/ccAA9ySz.s:436    .text:0000000000000278 .L0 
     /tmp/ccAA9ySz.s:439    .text:000000000000027c .L0 
     /tmp/ccAA9ySz.s:443    .text:0000000000000280 .L0 
     /tmp/ccAA9ySz.s:444    .text:0000000000000284 .L0 
     /tmp/ccAA9ySz.s:448    .text:0000000000000290 .L0 
     /tmp/ccAA9ySz.s:449    .text:0000000000000290 .L0 
GAS LISTING /tmp/ccAA9ySz.s 			page 26


     /tmp/ccAA9ySz.s:450    .text:0000000000000290 .L0 
     /tmp/ccAA9ySz.s:452    .text:0000000000000294 .L0 
     /tmp/ccAA9ySz.s:459    .text:0000000000000294 .L0 
     /tmp/ccAA9ySz.s:460    .text:0000000000000294 .L0 
     /tmp/ccAA9ySz.s:464    .text:00000000000002a0 .L0 
    src/KConsole.cpp:70     .text:00000000000002a0 .L0 
     /tmp/ccAA9ySz.s:470    .text:00000000000002a4 .L0 
    src/KConsole.cpp:71     .text:00000000000002a4 .L0 
     /tmp/ccAA9ySz.s:475    .text:00000000000002a8 .L0 
     /tmp/ccAA9ySz.s:476    .text:00000000000002a8 .L0 
    src/KConsole.cpp:73     .text:00000000000002a8 .L0 
     /tmp/ccAA9ySz.s:484    .text:00000000000002b0 .L0 
     /tmp/ccAA9ySz.s:485    .text:00000000000002b0 .L0 
     /tmp/ccAA9ySz.s:489    .text:00000000000002bc .L0 
     /tmp/ccAA9ySz.s:490    .text:00000000000002bc .L0 
     /tmp/ccAA9ySz.s:497    .text:00000000000002c8 .L0 
     /tmp/ccAA9ySz.s:499    .text:00000000000002c8 .L0 
     /tmp/ccAA9ySz.s:500    .text:00000000000002c8 .L0 
     /tmp/ccAA9ySz.s:501    .text:00000000000002c8 .L0 
     /tmp/ccAA9ySz.s:505    .text:00000000000002d4 .L0 
    src/KConsole.cpp:63     .text:00000000000002d4 .L0 
     /tmp/ccAA9ySz.s:511    .text:00000000000002d8 .L0 
    src/KConsole.cpp:64     .text:00000000000002d8 .L0 
     /tmp/ccAA9ySz.s:516    .text:00000000000002dc .L0 
     /tmp/ccAA9ySz.s:517    .text:00000000000002dc .L0 
    src/KConsole.cpp:66     .text:00000000000002dc .L0 
     /tmp/ccAA9ySz.s:525    .text:00000000000002e0 .L0 
     /tmp/ccAA9ySz.s:526    .text:00000000000002e0 .L0 
     /tmp/ccAA9ySz.s:529    .text:00000000000002e4 .L0 
     /tmp/ccAA9ySz.s:533    .text:00000000000002e8 .L0 
     /tmp/ccAA9ySz.s:534    .text:00000000000002ec .L0 
     /tmp/ccAA9ySz.s:536    .text:00000000000002f0 .L0 
     /tmp/ccAA9ySz.s:537    .text:00000000000002f0 .L0 
     /tmp/ccAA9ySz.s:539    .text:00000000000002f4 .L0 
     /tmp/ccAA9ySz.s:542    .text:00000000000002f8 .L0 
     /tmp/ccAA9ySz.s:547    .text:0000000000000300 .L0 
     /tmp/ccAA9ySz.s:553    .text:0000000000000300 _ZN8KConsole18getCharacterOutputEv
     /tmp/ccAA9ySz.s:556    .text:0000000000000300 .L0 
     /tmp/ccAA9ySz.s:557    .text:0000000000000300 .L0 
     /tmp/ccAA9ySz.s:558    .text:0000000000000304 .L0 
     /tmp/ccAA9ySz.s:561    .text:000000000000030c .L0 
     /tmp/ccAA9ySz.s:562    .text:000000000000030c .L0 
     /tmp/ccAA9ySz.s:564    .text:0000000000000310 .L0 
     /tmp/ccAA9ySz.s:566    .text:0000000000000310 .L0 
     /tmp/ccAA9ySz.s:567    .text:0000000000000310 .L0 
     /tmp/ccAA9ySz.s:571    .text:0000000000000320 .L0 
     /tmp/ccAA9ySz.s:572    .text:0000000000000320 .L0 
     /tmp/ccAA9ySz.s:577    .text:0000000000000338 .L0 
     /tmp/ccAA9ySz.s:578    .text:000000000000033c .L0 
     /tmp/ccAA9ySz.s:580    .text:0000000000000340 .L0 
     /tmp/ccAA9ySz.s:581    .text:0000000000000340 .L0 
     /tmp/ccAA9ySz.s:583    .text:0000000000000344 .L0 
     /tmp/ccAA9ySz.s:585    .text:0000000000000348 .L0 
     /tmp/ccAA9ySz.s:591    .text:0000000000000348 _ZN8KConsole11putcHandlerEv
     /tmp/ccAA9ySz.s:594    .text:0000000000000348 .L0 
     /tmp/ccAA9ySz.s:595    .text:0000000000000348 .L0 
     /tmp/ccAA9ySz.s:596    .text:000000000000034c .L0 
GAS LISTING /tmp/ccAA9ySz.s 			page 27


     /tmp/ccAA9ySz.s:599    .text:0000000000000354 .L0 
     /tmp/ccAA9ySz.s:600    .text:0000000000000354 .L0 
     /tmp/ccAA9ySz.s:602    .text:0000000000000358 .L0 
     /tmp/ccAA9ySz.s:604    .text:0000000000000358 .L0 
     /tmp/ccAA9ySz.s:605    .text:0000000000000358 .L0 
    src/KConsole.cpp:135    .text:0000000000000358 .L0 
     /tmp/ccAA9ySz.s:612    .text:000000000000035c .L0 
     /tmp/ccAA9ySz.s:614    .text:000000000000035c .L0 
     /tmp/ccAA9ySz.s:619    .text:0000000000000368 .L0 
     /tmp/ccAA9ySz.s:620    .text:0000000000000368 .L0 
     /tmp/ccAA9ySz.s:624    .text:0000000000000370 .L0 
     /tmp/ccAA9ySz.s:625    .text:0000000000000370 .L0 
     /tmp/ccAA9ySz.s:627    .text:0000000000000374 .L0 
     /tmp/ccAA9ySz.s:628    .text:0000000000000374 .L0 
     /tmp/ccAA9ySz.s:631    .text:0000000000000378 .L0 
     /tmp/ccAA9ySz.s:634    .text:000000000000037c .L0 
     /tmp/ccAA9ySz.s:635    .text:0000000000000380 .L0 
     /tmp/ccAA9ySz.s:637    .text:0000000000000384 .L0 
     /tmp/ccAA9ySz.s:638    .text:0000000000000384 .L0 
     /tmp/ccAA9ySz.s:640    .text:0000000000000388 .L0 
     /tmp/ccAA9ySz.s:642    .text:000000000000038c .L0 
     /tmp/ccAA9ySz.s:648    .text:000000000000038c _ZN8KConsole11getcHandlerEv
     /tmp/ccAA9ySz.s:651    .text:000000000000038c .L0 
     /tmp/ccAA9ySz.s:652    .text:000000000000038c .L0 
     /tmp/ccAA9ySz.s:653    .text:0000000000000390 .L0 
     /tmp/ccAA9ySz.s:656    .text:0000000000000398 .L0 
     /tmp/ccAA9ySz.s:657    .text:0000000000000398 .L0 
     /tmp/ccAA9ySz.s:659    .text:000000000000039c .L0 
     /tmp/ccAA9ySz.s:661    .text:000000000000039c .L0 
     /tmp/ccAA9ySz.s:662    .text:000000000000039c .L0 
     /tmp/ccAA9ySz.s:667    .text:00000000000003b0 .L0 
     /tmp/ccAA9ySz.s:668    .text:00000000000003b0 .L0 
     /tmp/ccAA9ySz.s:669    .text:00000000000003b0 .L0 
     /tmp/ccAA9ySz.s:672    .text:00000000000003b8 .L0 
    src/KConsole.cpp:149    .text:00000000000003b8 .L0 
     /tmp/ccAA9ySz.s:678    .text:00000000000003bc .L0 
     /tmp/ccAA9ySz.s:680    .text:00000000000003bc .L0 
     /tmp/ccAA9ySz.s:683    .text:00000000000003c4 .L0 
     /tmp/ccAA9ySz.s:684    .text:00000000000003c8 .L0 
     /tmp/ccAA9ySz.s:686    .text:00000000000003cc .L0 
     /tmp/ccAA9ySz.s:687    .text:00000000000003cc .L0 
     /tmp/ccAA9ySz.s:689    .text:00000000000003d0 .L0 
     /tmp/ccAA9ySz.s:691    .text:00000000000003d4 .L0 
     /tmp/ccAA9ySz.s:697    .text:00000000000003d4 _ZN8KConsole11printBufferEv
     /tmp/ccAA9ySz.s:700    .text:00000000000003d4 .L0 
     /tmp/ccAA9ySz.s:701    .text:00000000000003d4 .L0 
     /tmp/ccAA9ySz.s:702    .text:00000000000003d8 .L0 
     /tmp/ccAA9ySz.s:706    .text:00000000000003e4 .L0 
     /tmp/ccAA9ySz.s:707    .text:00000000000003e4 .L0 
     /tmp/ccAA9ySz.s:708    .text:00000000000003e4 .L0 
     /tmp/ccAA9ySz.s:710    .text:00000000000003e8 .L0 
     /tmp/ccAA9ySz.s:712    .text:00000000000003e8 .L0 
     /tmp/ccAA9ySz.s:713    .text:00000000000003e8 .L0 
     /tmp/ccAA9ySz.s:717    .text:00000000000003f0 .L0 
     /tmp/ccAA9ySz.s:718    .text:00000000000003f0 .L0 
     /tmp/ccAA9ySz.s:720    .text:00000000000003f4 .L0 
     /tmp/ccAA9ySz.s:721    .text:00000000000003f4 .L0 
GAS LISTING /tmp/ccAA9ySz.s 			page 28


     /tmp/ccAA9ySz.s:725    .text:0000000000000400 .L0 
     /tmp/ccAA9ySz.s:726    .text:0000000000000400 .L0 
     /tmp/ccAA9ySz.s:729    .text:0000000000000404 .L0 
     /tmp/ccAA9ySz.s:732    .text:0000000000000408 .L0 
     /tmp/ccAA9ySz.s:733    .text:000000000000040c .L0 
     /tmp/ccAA9ySz.s:735    .text:0000000000000410 .L0 
     /tmp/ccAA9ySz.s:736    .text:0000000000000410 .L0 
     /tmp/ccAA9ySz.s:738    .text:0000000000000414 .L0 
     /tmp/ccAA9ySz.s:741    .text:0000000000000418 .L0 
     /tmp/ccAA9ySz.s:743    .text:000000000000041c .L0 
     /tmp/ccAA9ySz.s:749    .text:000000000000041c _ZN8KConsole17outputBufferEmptyEv
     /tmp/ccAA9ySz.s:752    .text:000000000000041c .L0 
     /tmp/ccAA9ySz.s:753    .text:000000000000041c .L0 
     /tmp/ccAA9ySz.s:754    .text:0000000000000420 .L0 
     /tmp/ccAA9ySz.s:756    .text:0000000000000424 .L0 
     /tmp/ccAA9ySz.s:758    .text:0000000000000428 .L0 
     /tmp/ccAA9ySz.s:760    .text:0000000000000428 .L0 
     /tmp/ccAA9ySz.s:761    .text:0000000000000428 .L0 
     /tmp/ccAA9ySz.s:764    .text:0000000000000438 .L0 
     /tmp/ccAA9ySz.s:765    .text:0000000000000438 .L0 
     /tmp/ccAA9ySz.s:767    .text:000000000000043c .L0 
     /tmp/ccAA9ySz.s:769    .text:0000000000000440 .L0 
     /tmp/ccAA9ySz.s:775    .text:0000000000000440 _ZN8KConsole23sendCharactersToConsoleEPv
     /tmp/ccAA9ySz.s:778    .text:0000000000000440 .L0 
     /tmp/ccAA9ySz.s:780    .text:0000000000000440 .L0 
     /tmp/ccAA9ySz.s:781    .text:0000000000000444 .L0 
     /tmp/ccAA9ySz.s:784    .text:000000000000044c .L0 
     /tmp/ccAA9ySz.s:785    .text:000000000000044c .L0 
     /tmp/ccAA9ySz.s:787    .text:0000000000000450 .L0 
     /tmp/ccAA9ySz.s:793    .text:0000000000000454 .L0 
     /tmp/ccAA9ySz.s:794    .text:0000000000000454 .L0 
     /tmp/ccAA9ySz.s:798    .text:0000000000000460 .L0 
    src/KConsole.cpp:91     .text:0000000000000460 .L0 
     /tmp/ccAA9ySz.s:804    .text:0000000000000464 .L0 
    src/KConsole.cpp:92     .text:0000000000000464 .L0 
     /tmp/ccAA9ySz.s:809    .text:0000000000000468 .L0 
     /tmp/ccAA9ySz.s:810    .text:0000000000000468 .L0 
    src/KConsole.cpp:94     .text:0000000000000468 .L0 
     /tmp/ccAA9ySz.s:818    .text:000000000000046c .L0 
     /tmp/ccAA9ySz.s:819    .text:000000000000046c .L0 
     /tmp/ccAA9ySz.s:822    .text:0000000000000470 .L0 
     /tmp/ccAA9ySz.s:825    .text:0000000000000474 .L0 
     /tmp/ccAA9ySz.s:826    .text:0000000000000474 .L0 
     /tmp/ccAA9ySz.s:829    .text:000000000000047c .L0 
     /tmp/ccAA9ySz.s:831    .text:0000000000000480 .L0 
     /tmp/ccAA9ySz.s:832    .text:0000000000000480 .L0 
     /tmp/ccAA9ySz.s:836    .text:000000000000048c .L0 
    src/KConsole.cpp:99     .text:000000000000048c .L0 
     /tmp/ccAA9ySz.s:842    .text:0000000000000490 .L0 
     /tmp/ccAA9ySz.s:844    .text:0000000000000490 .L0 
    src/KConsole.cpp:100    .text:0000000000000498 .L0 
     /tmp/ccAA9ySz.s:853    .text:000000000000049c .L0 
    src/KConsole.cpp:101    .text:000000000000049c .L0 
     /tmp/ccAA9ySz.s:865    .text:00000000000004a0 .L0 
     /tmp/ccAA9ySz.s:866    .text:00000000000004a0 .L0 
     /tmp/ccAA9ySz.s:867    .text:00000000000004a0 .L0 
     /tmp/ccAA9ySz.s:871    .text:00000000000004b0 .L0 
GAS LISTING /tmp/ccAA9ySz.s 			page 29


     /tmp/ccAA9ySz.s:874    .text:00000000000004b8 .L0 
     /tmp/ccAA9ySz.s:876    .text:00000000000004bc .L0 
     /tmp/ccAA9ySz.s:878    .text:00000000000004c4 .L0 
     /tmp/ccAA9ySz.s:880    .text:00000000000004c8 .L0 
     /tmp/ccAA9ySz.s:881    .text:00000000000004c8 .L0 
     /tmp/ccAA9ySz.s:888    .text:00000000000004d4 .L0 
     /tmp/ccAA9ySz.s:889    .text:00000000000004d4 .L0 
     /tmp/ccAA9ySz.s:894    .text:00000000000004e0 .L0 
     /tmp/ccAA9ySz.s:933    .bss:0000000000000030 _ZN8KConsole11pendingGetcE
     /tmp/ccAA9ySz.s:909    .bss:0000000000000000 _ZN8KConsole18hasCharactersInputE
     /tmp/ccAA9ySz.s:913    .bss:0000000000000008 _ZN8KConsole19hasCharactersOutputE
     /tmp/ccAA9ySz.s:925    .bss:0000000000000020 _ZN8KConsole10tailOutputE
     /tmp/ccAA9ySz.s:929    .bss:0000000000000028 _ZN8KConsole10headOutputE
     /tmp/ccAA9ySz.s:917    .bss:0000000000000010 _ZN8KConsole9tailInputE
     /tmp/ccAA9ySz.s:921    .bss:0000000000000018 _ZN8KConsole9headInputE
     /tmp/ccAA9ySz.s:906    .bss:0000000000000000 .LANCHOR0
     /tmp/ccAA9ySz.s:944    .text:00000000000004e0 .L0 
     /tmp/ccAA9ySz.s:195    .text:000000000000010c .L0 
     /tmp/ccAA9ySz.s:210    .text:0000000000000130 .L0 
     /tmp/ccAA9ySz.s:301    .text:0000000000000198 .L0 
     /tmp/ccAA9ySz.s:302    .text:00000000000001a0 .L0 
     /tmp/ccAA9ySz.s:307    .text:00000000000001b0 .L0 
     /tmp/ccAA9ySz.s:339    .text:00000000000001e0 .L0 
     /tmp/ccAA9ySz.s:344    .text:00000000000001f0 .L0 
     /tmp/ccAA9ySz.s:345    .text:00000000000001f8 .L0 
     /tmp/ccAA9ySz.s:378    .text:0000000000000228 .L0 
     /tmp/ccAA9ySz.s:379    .text:0000000000000230 .L0 
     /tmp/ccAA9ySz.s:384    .text:0000000000000240 .L0 
     /tmp/ccAA9ySz.s:411    .text:0000000000000260 .L0 
     /tmp/ccAA9ySz.s:460    .text:0000000000000294 .L0 
     /tmp/ccAA9ySz.s:501    .text:00000000000002c8 .L0 
     /tmp/ccAA9ySz.s:567    .text:0000000000000310 .L0 
     /tmp/ccAA9ySz.s:572    .text:0000000000000320 .L0 
     /tmp/ccAA9ySz.s:573    .text:0000000000000328 .L0 
     /tmp/ccAA9ySz.s:620    .text:0000000000000368 .L0 
     /tmp/ccAA9ySz.s:662    .text:000000000000039c .L0 
     /tmp/ccAA9ySz.s:713    .text:00000000000003e8 .L0 
     /tmp/ccAA9ySz.s:761    .text:0000000000000428 .L0 
     /tmp/ccAA9ySz.s:794    .text:0000000000000454 .L0 
     /tmp/ccAA9ySz.s:832    .text:0000000000000480 .L0 
     /tmp/ccAA9ySz.s:867    .text:00000000000004a0 .L0 
     /tmp/ccAA9ySz.s:876    .text:00000000000004bc .L0 
     /tmp/ccAA9ySz.s:76     .text:000000000000006c .L5
     /tmp/ccAA9ySz.s:56     .text:0000000000000050 .L1
     /tmp/ccAA9ySz.s:153    .text:00000000000000d0 .L9
     /tmp/ccAA9ySz.s:146    .text:00000000000000c8 .L11
     /tmp/ccAA9ySz.s:121    .text:00000000000000a4 .L8
     /tmp/ccAA9ySz.s:131    .text:00000000000000b0 .L7
     /tmp/ccAA9ySz.s:545    .text:00000000000002fc .L33
     /tmp/ccAA9ySz.s:454    .text:0000000000000294 .L29
     /tmp/ccAA9ySz.s:632    .text:000000000000037c .L36
     /tmp/ccAA9ySz.s:622    .text:0000000000000370 .L38
     /tmp/ccAA9ySz.s:730    .text:0000000000000408 .L42
     /tmp/ccAA9ySz.s:715    .text:00000000000003f0 .L44
     /tmp/ccAA9ySz.s:859    .text:00000000000004a0 .L49
     /tmp/ccAA9ySz.s:885    .text:00000000000004d4 .L51
     /tmp/ccAA9ySz.s:790    .text:0000000000000454 .L50
GAS LISTING /tmp/ccAA9ySz.s 			page 30


     /tmp/ccAA9ySz.s:184    .text:00000000000000f4 .LEHB0
     /tmp/ccAA9ySz.s:164    .text:00000000000000d8 .LFB26
     /tmp/ccAA9ySz.s:187    .text:00000000000000fc .LEHE0
     /tmp/ccAA9ySz.s:190    .text:0000000000000104 .LEHB1
     /tmp/ccAA9ySz.s:193    .text:000000000000010c .LEHE1
     /tmp/ccAA9ySz.s:225    .text:0000000000000150 .L15
     /tmp/ccAA9ySz.s:199    .text:0000000000000118 .LEHB2
     /tmp/ccAA9ySz.s:202    .text:0000000000000120 .LEHE2
     /tmp/ccAA9ySz.s:205    .text:0000000000000128 .LEHB3
     /tmp/ccAA9ySz.s:208    .text:0000000000000130 .LEHE3
     /tmp/ccAA9ySz.s:237    .text:000000000000016c .L16
     /tmp/ccAA9ySz.s:233    .text:0000000000000164 .LEHB4
     /tmp/ccAA9ySz.s:236    .text:000000000000016c .LEHE4
     /tmp/ccAA9ySz.s:244    .text:0000000000000180 .LEHB5
     /tmp/ccAA9ySz.s:247    .text:0000000000000188 .LEHE5
     /tmp/ccAA9ySz.s:3096   .debug_abbrev:0000000000000000 .Ldebug_abbrev0
     /tmp/ccAA9ySz.s:4441   .debug_str:00000000000001dd .LASF267
     /tmp/ccAA9ySz.s:4841   .debug_str:0000000000000f8e .LASF268
     /tmp/ccAA9ySz.s:4839   .debug_str:0000000000000f6b .LASF269
     /tmp/ccAA9ySz.s:5      .text:0000000000000000 .Ltext0
     /tmp/ccAA9ySz.s:936    .text:00000000000004e0 .Letext0
     /tmp/ccAA9ySz.s:4383   .debug_line:0000000000000000 .Ldebug_line0
     /tmp/ccAA9ySz.s:4571   .debug_str:00000000000006a4 .LASF0
     /tmp/ccAA9ySz.s:4617   .debug_str:0000000000000844 .LASF1
     /tmp/ccAA9ySz.s:4743   .debug_str:0000000000000c78 .LASF2
     /tmp/ccAA9ySz.s:4761   .debug_str:0000000000000d13 .LASF4
     /tmp/ccAA9ySz.s:4595   .debug_str:000000000000076c .LASF3
     /tmp/ccAA9ySz.s:4403   .debug_str:000000000000007c .LASF5
     /tmp/ccAA9ySz.s:4713   .debug_str:0000000000000b8e .LASF6
     /tmp/ccAA9ySz.s:4705   .debug_str:0000000000000b48 .LASF7
     /tmp/ccAA9ySz.s:4605   .debug_str:00000000000007d5 .LASF8
     /tmp/ccAA9ySz.s:4539   .debug_str:00000000000005a0 .LASF9
     /tmp/ccAA9ySz.s:4547   .debug_str:00000000000005f7 .LASF10
     /tmp/ccAA9ySz.s:4459   .debug_str:0000000000000334 .LASF11
     /tmp/ccAA9ySz.s:4529   .debug_str:0000000000000564 .LASF12
     /tmp/ccAA9ySz.s:4473   .debug_str:0000000000000379 .LASF13
     /tmp/ccAA9ySz.s:4457   .debug_str:0000000000000324 .LASF14
     /tmp/ccAA9ySz.s:4811   .debug_str:0000000000000ec4 .LASF15
     /tmp/ccAA9ySz.s:4513   .debug_str:00000000000004b7 .LASF16
     /tmp/ccAA9ySz.s:4795   .debug_str:0000000000000e24 .LASF17
     /tmp/ccAA9ySz.s:4827   .debug_str:0000000000000f25 .LASF270
     /tmp/ccAA9ySz.s:4451   .debug_str:00000000000002f7 .LASF18
     /tmp/ccAA9ySz.s:4783   .debug_str:0000000000000dc7 .LASF19
     /tmp/ccAA9ySz.s:4467   .debug_str:000000000000035a .LASF20
     /tmp/ccAA9ySz.s:4437   .debug_str:00000000000001b1 .LASF21
     /tmp/ccAA9ySz.s:4709   .debug_str:0000000000000b71 .LASF22
     /tmp/ccAA9ySz.s:4465   .debug_str:0000000000000351 .LASF23
     /tmp/ccAA9ySz.s:4819   .debug_str:0000000000000ef2 .LASF86
     /tmp/ccAA9ySz.s:4557   .debug_str:0000000000000657 .LASF24
     /tmp/ccAA9ySz.s:4407   .debug_str:000000000000008e .LASF29
     /tmp/ccAA9ySz.s:4849   .debug_str:0000000000000fd9 .LASF271
     /tmp/ccAA9ySz.s:4693   .debug_str:0000000000000af4 .LASF272
     /tmp/ccAA9ySz.s:4615   .debug_str:000000000000083f .LASF25
     /tmp/ccAA9ySz.s:4919   .debug_str:0000000000001244 .LASF27
     /tmp/ccAA9ySz.s:4913   .debug_str:000000000000121b .LASF26
     /tmp/ccAA9ySz.s:4833   .debug_str:0000000000000f3d .LASF28
     /tmp/ccAA9ySz.s:4495   .debug_str:0000000000000448 .LASF54
GAS LISTING /tmp/ccAA9ySz.s 			page 31


     /tmp/ccAA9ySz.s:4415   .debug_str:00000000000000cd .LASF56
     /tmp/ccAA9ySz.s:4621   .debug_str:0000000000000860 .LASF34
     /tmp/ccAA9ySz.s:4695   .debug_str:0000000000000af9 .LASF36
     /tmp/ccAA9ySz.s:4831   .debug_str:0000000000000f35 .LASF30
     /tmp/ccAA9ySz.s:4775   .debug_str:0000000000000d73 .LASF31
     /tmp/ccAA9ySz.s:4623   .debug_str:0000000000000866 .LASF38
     /tmp/ccAA9ySz.s:4631   .debug_str:00000000000008b9 .LASF40
     /tmp/ccAA9ySz.s:4927   .debug_str:00000000000012a1 .LASF32
     /tmp/ccAA9ySz.s:4523   .debug_str:0000000000000532 .LASF33
     /tmp/ccAA9ySz.s:4393   .debug_str:000000000000003a .LASF35
     /tmp/ccAA9ySz.s:4587   .debug_str:0000000000000738 .LASF37
     /tmp/ccAA9ySz.s:4777   .debug_str:0000000000000d84 .LASF39
     /tmp/ccAA9ySz.s:4667   .debug_str:0000000000000a26 .LASF41
     /tmp/ccAA9ySz.s:4755   .debug_str:0000000000000cd9 .LASF42
     /tmp/ccAA9ySz.s:4803   .debug_str:0000000000000e7a .LASF43
     /tmp/ccAA9ySz.s:4669   .debug_str:0000000000000a39 .LASF44
     /tmp/ccAA9ySz.s:4389   .debug_str:000000000000001b .LASF45
     /tmp/ccAA9ySz.s:4899   .debug_str:00000000000011a0 .LASF46
     /tmp/ccAA9ySz.s:4703   .debug_str:0000000000000b2e .LASF47
     /tmp/ccAA9ySz.s:4793   .debug_str:0000000000000e16 .LASF48
     /tmp/ccAA9ySz.s:4715   .debug_str:0000000000000b95 .LASF49
     /tmp/ccAA9ySz.s:4491   .debug_str:0000000000000426 .LASF50
     /tmp/ccAA9ySz.s:4533   .debug_str:000000000000057d .LASF51
     /tmp/ccAA9ySz.s:4737   .debug_str:0000000000000c57 .LASF52
     /tmp/ccAA9ySz.s:4905   .debug_str:00000000000011d4 .LASF53
     /tmp/ccAA9ySz.s:4597   .debug_str:000000000000077e .LASF60
     /tmp/ccAA9ySz.s:4789   .debug_str:0000000000000df9 .LASF55
     /tmp/ccAA9ySz.s:4917   .debug_str:000000000000122e .LASF57
     /tmp/ccAA9ySz.s:4821   .debug_str:0000000000000efa .LASF58
     /tmp/ccAA9ySz.s:4485   .debug_str:00000000000003fe .LASF59
     /tmp/ccAA9ySz.s:4771   .debug_str:0000000000000d5d .LASF61
     /tmp/ccAA9ySz.s:4573   .debug_str:00000000000006b1 .LASF62
     /tmp/ccAA9ySz.s:4681   .debug_str:0000000000000a74 .LASF63
     /tmp/ccAA9ySz.s:4479   .debug_str:00000000000003c8 .LASF64
     /tmp/ccAA9ySz.s:4721   .debug_str:0000000000000bcb .LASF65
     /tmp/ccAA9ySz.s:4937   .debug_str:00000000000012df .LASF66
     /tmp/ccAA9ySz.s:4685   .debug_str:0000000000000a9a .LASF67
     /tmp/ccAA9ySz.s:4753   .debug_str:0000000000000cc6 .LASF68
     /tmp/ccAA9ySz.s:4779   .debug_str:0000000000000d8d .LASF69
     /tmp/ccAA9ySz.s:4863   .debug_str:0000000000001047 .LASF70
     /tmp/ccAA9ySz.s:4655   .debug_str:00000000000009a9 .LASF71
     /tmp/ccAA9ySz.s:4851   .debug_str:0000000000000ff1 .LASF72
     /tmp/ccAA9ySz.s:4801   .debug_str:0000000000000e5a .LASF73
     /tmp/ccAA9ySz.s:4501   .debug_str:000000000000045c .LASF74
     /tmp/ccAA9ySz.s:4579   .debug_str:0000000000000701 .LASF75
     /tmp/ccAA9ySz.s:4837   .debug_str:0000000000000f61 .LASF76
     /tmp/ccAA9ySz.s:4697   .debug_str:0000000000000b09 .LASF77
     /tmp/ccAA9ySz.s:4911   .debug_str:000000000000120d .LASF78
     /tmp/ccAA9ySz.s:4423   .debug_str:0000000000000123 .LASF80
     /tmp/ccAA9ySz.s:4525   .debug_str:000000000000053e .LASF79
     /tmp/ccAA9ySz.s:4449   .debug_str:00000000000002cb .LASF81
     /tmp/ccAA9ySz.s:4897   .debug_str:0000000000001199 .LASF273
     /tmp/ccAA9ySz.s:4445   .debug_str:00000000000002ac .LASF274
     /tmp/ccAA9ySz.s:4391   .debug_str:0000000000000035 .LASF82
     /tmp/ccAA9ySz.s:4861   .debug_str:0000000000001042 .LASF83
     /tmp/ccAA9ySz.s:4635   .debug_str:00000000000008eb .LASF84
     /tmp/ccAA9ySz.s:4499   .debug_str:0000000000000456 .LASF85
GAS LISTING /tmp/ccAA9ySz.s 			page 32


     /tmp/ccAA9ySz.s:4847   .debug_str:0000000000000fd1 .LASF87
     /tmp/ccAA9ySz.s:4879   .debug_str:00000000000010e8 .LASF88
     /tmp/ccAA9ySz.s:4565   .debug_str:000000000000067b .LASF89
     /tmp/ccAA9ySz.s:4799   .debug_str:0000000000000e42 .LASF90
     /tmp/ccAA9ySz.s:4903   .debug_str:00000000000011c5 .LASF91
     /tmp/ccAA9ySz.s:4781   .debug_str:0000000000000dab .LASF92
     /tmp/ccAA9ySz.s:4699   .debug_str:0000000000000b15 .LASF93
     /tmp/ccAA9ySz.s:4647   .debug_str:0000000000000964 .LASF94
     /tmp/ccAA9ySz.s:4509   .debug_str:000000000000049a .LASF95
     /tmp/ccAA9ySz.s:4707   .debug_str:0000000000000b5b .LASF96
     /tmp/ccAA9ySz.s:4653   .debug_str:0000000000000999 .LASF97
     /tmp/ccAA9ySz.s:4871   .debug_str:000000000000108a .LASF98
     /tmp/ccAA9ySz.s:4867   .debug_str:0000000000001069 .LASF99
     /tmp/ccAA9ySz.s:4629   .debug_str:000000000000089b .LASF100
     /tmp/ccAA9ySz.s:4503   .debug_str:0000000000000465 .LASF101
     /tmp/ccAA9ySz.s:4909   .debug_str:00000000000011e9 .LASF102
     /tmp/ccAA9ySz.s:4585   .debug_str:0000000000000726 .LASF103
     /tmp/ccAA9ySz.s:4481   .debug_str:00000000000003da .LASF104
     /tmp/ccAA9ySz.s:4431   .debug_str:0000000000000185 .LASF105
     /tmp/ccAA9ySz.s:4541   .debug_str:00000000000005b0 .LASF106
     /tmp/ccAA9ySz.s:4773   .debug_str:0000000000000d65 .LASF107
     /tmp/ccAA9ySz.s:4475   .debug_str:0000000000000389 .LASF108
     /tmp/ccAA9ySz.s:4671   .debug_str:0000000000000a48 .LASF109
     /tmp/ccAA9ySz.s:4887   .debug_str:0000000000001122 .LASF110
     /tmp/ccAA9ySz.s:4859   .debug_str:0000000000001039 .LASF113
     /tmp/ccAA9ySz.s:4399   .debug_str:000000000000005a .LASF115
     /tmp/ccAA9ySz.s:4739   .debug_str:0000000000000c64 .LASF111
     /tmp/ccAA9ySz.s:4689   .debug_str:0000000000000acf .LASF112
     /tmp/ccAA9ySz.s:4717   .debug_str:0000000000000ba1 .LASF114
     /tmp/ccAA9ySz.s:4723   .debug_str:0000000000000be8 .LASF116
     /tmp/ccAA9ySz.s:4683   .debug_str:0000000000000a93 .LASF117
     /tmp/ccAA9ySz.s:4607   .debug_str:00000000000007e8 .LASF118
     /tmp/ccAA9ySz.s:4889   .debug_str:000000000000113c .LASF119
     /tmp/ccAA9ySz.s:4835   .debug_str:0000000000000f4d .LASF120
     /tmp/ccAA9ySz.s:4675   .debug_str:0000000000000a5e .LASF121
     /tmp/ccAA9ySz.s:4687   .debug_str:0000000000000abb .LASF122
     /tmp/ccAA9ySz.s:4661   .debug_str:00000000000009e7 .LASF123
     /tmp/ccAA9ySz.s:4727   .debug_str:0000000000000c13 .LASF124
     /tmp/ccAA9ySz.s:4933   .debug_str:00000000000012d2 .LASF125
     /tmp/ccAA9ySz.s:4583   .debug_str:0000000000000712 .LASF126
     /tmp/ccAA9ySz.s:4561   .debug_str:0000000000000668 .LASF127
     /tmp/ccAA9ySz.s:4807   .debug_str:0000000000000e9b .LASF128
     /tmp/ccAA9ySz.s:4767   .debug_str:0000000000000d43 .LASF129
     /tmp/ccAA9ySz.s:4769   .debug_str:0000000000000d56 .LASF130
     /tmp/ccAA9ySz.s:4507   .debug_str:0000000000000487 .LASF131
     /tmp/ccAA9ySz.s:4765   .debug_str:0000000000000d3d .LASF132
     /tmp/ccAA9ySz.s:4409   .debug_str:0000000000000099 .LASF133
     /tmp/ccAA9ySz.s:4581   .debug_str:000000000000070c .LASF134
     /tmp/ccAA9ySz.s:4493   .debug_str:0000000000000436 .LASF135
     /tmp/ccAA9ySz.s:4447   .debug_str:00000000000002bd .LASF136
     /tmp/ccAA9ySz.s:4825   .debug_str:0000000000000f0a .LASF137
     /tmp/ccAA9ySz.s:4405   .debug_str:0000000000000083 .LASF138
     /tmp/ccAA9ySz.s:4749   .debug_str:0000000000000ca2 .LASF139
     /tmp/ccAA9ySz.s:4741   .debug_str:0000000000000c6d .LASF140
     /tmp/ccAA9ySz.s:4923   .debug_str:0000000000001279 .LASF141
     /tmp/ccAA9ySz.s:4747   .debug_str:0000000000000c9b .LASF142
     /tmp/ccAA9ySz.s:4455   .debug_str:0000000000000311 .LASF143
GAS LISTING /tmp/ccAA9ySz.s 			page 33


     /tmp/ccAA9ySz.s:4881   .debug_str:00000000000010ee .LASF144
     /tmp/ccAA9ySz.s:4901   .debug_str:00000000000011af .LASF145
     /tmp/ccAA9ySz.s:4873   .debug_str:00000000000010a8 .LASF146
     /tmp/ccAA9ySz.s:4411   .debug_str:00000000000000ab .LASF147
     /tmp/ccAA9ySz.s:4489   .debug_str:0000000000000420 .LASF148
     /tmp/ccAA9ySz.s:4555   .debug_str:0000000000000645 .LASF149
     /tmp/ccAA9ySz.s:4563   .debug_str:0000000000000675 .LASF150
     /tmp/ccAA9ySz.s:4877   .debug_str:00000000000010d6 .LASF151
     /tmp/ccAA9ySz.s:4559   .debug_str:000000000000065d .LASF152
     /tmp/ccAA9ySz.s:4567   .debug_str:0000000000000686 .LASF153
     /tmp/ccAA9ySz.s:4853   .debug_str:0000000000001006 .LASF154
     /tmp/ccAA9ySz.s:4545   .debug_str:00000000000005db .LASF155
     /tmp/ccAA9ySz.s:4711   .debug_str:0000000000000b79 .LASF156
     /tmp/ccAA9ySz.s:4601   .debug_str:00000000000007a7 .LASF157
     /tmp/ccAA9ySz.s:4427   .debug_str:0000000000000163 .LASF158
     /tmp/ccAA9ySz.s:4643   .debug_str:0000000000000933 .LASF159
     /tmp/ccAA9ySz.s:4733   .debug_str:0000000000000c46 .LASF160
     /tmp/ccAA9ySz.s:4397   .debug_str:0000000000000052 .LASF161
     /tmp/ccAA9ySz.s:4433   .debug_str:000000000000018f .LASF162
     /tmp/ccAA9ySz.s:4625   .debug_str:0000000000000873 .LASF163
     /tmp/ccAA9ySz.s:4435   .debug_str:000000000000019e .LASF164
     /tmp/ccAA9ySz.s:4665   .debug_str:0000000000000a14 .LASF165
     /tmp/ccAA9ySz.s:4549   .debug_str:0000000000000605 .LASF166
     /tmp/ccAA9ySz.s:4593   .debug_str:0000000000000759 .LASF167
     /tmp/ccAA9ySz.s:4453   .debug_str:00000000000002fd .LASF168
     /tmp/ccAA9ySz.s:4829   .debug_str:0000000000000f2b .LASF169
     /tmp/ccAA9ySz.s:4641   .debug_str:000000000000092e .LASF170
     /tmp/ccAA9ySz.s:4731   .debug_str:0000000000000c3b .LASF171
     /tmp/ccAA9ySz.s:4543   .debug_str:00000000000005c7 .LASF172
     /tmp/ccAA9ySz.s:4421   .debug_str:0000000000000117 .LASF173
     /tmp/ccAA9ySz.s:4729   .debug_str:0000000000000c27 .LASF174
     /tmp/ccAA9ySz.s:4497   .debug_str:0000000000000451 .LASF175
     /tmp/ccAA9ySz.s:4787   .debug_str:0000000000000de2 .LASF176
     /tmp/ccAA9ySz.s:4815   .debug_str:0000000000000ee3 .LASF177
     /tmp/ccAA9ySz.s:4517   .debug_str:00000000000004ef .LASF178
     /tmp/ccAA9ySz.s:4387   .debug_str:000000000000000f .LASF179
     /tmp/ccAA9ySz.s:4751   .debug_str:0000000000000cba .LASF180
     /tmp/ccAA9ySz.s:4645   .debug_str:0000000000000950 .LASF181
     /tmp/ccAA9ySz.s:4745   .debug_str:0000000000000c86 .LASF182
     /tmp/ccAA9ySz.s:4463   .debug_str:0000000000000348 .LASF183
     /tmp/ccAA9ySz.s:4469   .debug_str:0000000000000364 .LASF184
     /tmp/ccAA9ySz.s:4673   .debug_str:0000000000000a55 .LASF185
     /tmp/ccAA9ySz.s:4759   .debug_str:0000000000000d08 .LASF186
     /tmp/ccAA9ySz.s:4385   .debug_str:0000000000000000 .LASF187
     /tmp/ccAA9ySz.s:4553   .debug_str:0000000000000623 .LASF188
     /tmp/ccAA9ySz.s:4843   .debug_str:0000000000000f9f .LASF189
     /tmp/ccAA9ySz.s:4809   .debug_str:0000000000000ea2 .LASF190
     /tmp/ccAA9ySz.s:4637   .debug_str:00000000000008f3 .LASF191
     /tmp/ccAA9ySz.s:4477   .debug_str:00000000000003a4 .LASF192
     /tmp/ccAA9ySz.s:4691   .debug_str:0000000000000ae4 .LASF193
     /tmp/ccAA9ySz.s:4719   .debug_str:0000000000000ba8 .LASF194
     /tmp/ccAA9ySz.s:4619   .debug_str:0000000000000857 .LASF195
     /tmp/ccAA9ySz.s:4569   .debug_str:000000000000069e .LASF196
     /tmp/ccAA9ySz.s:4931   .debug_str:00000000000012ba .LASF197
     /tmp/ccAA9ySz.s:4395   .debug_str:000000000000004a .LASF198
     /tmp/ccAA9ySz.s:4633   .debug_str:00000000000008d1 .LASF199
     /tmp/ccAA9ySz.s:4925   .debug_str:0000000000001291 .LASF200
GAS LISTING /tmp/ccAA9ySz.s 			page 34


     /tmp/ccAA9ySz.s:4763   .debug_str:0000000000000d1a .LASF201
     /tmp/ccAA9ySz.s:4813   .debug_str:0000000000000ed0 .LASF202
     /tmp/ccAA9ySz.s:4757   .debug_str:0000000000000ce2 .LASF203
     /tmp/ccAA9ySz.s:4915   .debug_str:0000000000001221 .LASF204
     /tmp/ccAA9ySz.s:4613   .debug_str:000000000000081b .LASF205
     /tmp/ccAA9ySz.s:4679   .debug_str:0000000000000a6b .LASF206
     /tmp/ccAA9ySz.s:4483   .debug_str:00000000000003f9 .LASF207
     /tmp/ccAA9ySz.s:4461   .debug_str:0000000000000343 .LASF208
     /tmp/ccAA9ySz.s:4611   .debug_str:0000000000000816 .LASF209
     /tmp/ccAA9ySz.s:4531   .debug_str:0000000000000573 .LASF210
     /tmp/ccAA9ySz.s:4907   .debug_str:00000000000011df .LASF211
     /tmp/ccAA9ySz.s:4471   .debug_str:000000000000036e .LASF212
     /tmp/ccAA9ySz.s:4551   .debug_str:0000000000000618 .LASF213
     /tmp/ccAA9ySz.s:4701   .debug_str:0000000000000b20 .LASF214
     /tmp/ccAA9ySz.s:4785   .debug_str:0000000000000dcf .LASF215
     /tmp/ccAA9ySz.s:4657   .debug_str:00000000000009c7 .LASF216
     /tmp/ccAA9ySz.s:4817   .debug_str:0000000000000eea .LASF217
     /tmp/ccAA9ySz.s:4663   .debug_str:00000000000009ef .LASF218
     /tmp/ccAA9ySz.s:4591   .debug_str:0000000000000751 .LASF219
     /tmp/ccAA9ySz.s:4875   .debug_str:00000000000010b2 .LASF220
     /tmp/ccAA9ySz.s:4659   .debug_str:00000000000009db .LASF221
     /tmp/ccAA9ySz.s:4791   .debug_str:0000000000000e04 .LASF222
     /tmp/ccAA9ySz.s:4521   .debug_str:0000000000000510 .LASF223
     /tmp/ccAA9ySz.s:4857   .debug_str:0000000000001027 .LASF224
     /tmp/ccAA9ySz.s:4895   .debug_str:0000000000001177 .LASF225
     /tmp/ccAA9ySz.s:4855   .debug_str:0000000000001015 .LASF226
     /tmp/ccAA9ySz.s:4575   .debug_str:00000000000006c5 .LASF227
     /tmp/ccAA9ySz.s:4429   .debug_str:0000000000000172 .LASF228
     /tmp/ccAA9ySz.s:4443   .debug_str:0000000000000289 .LASF229
     /tmp/ccAA9ySz.s:4511   .debug_str:00000000000004a4 .LASF230
     /tmp/ccAA9ySz.s:4439   .debug_str:00000000000001ba .LASF231
     /tmp/ccAA9ySz.s:4417   .debug_str:00000000000000e0 .LASF232
     /tmp/ccAA9ySz.s:4893   .debug_str:000000000000115e .LASF233
     /tmp/ccAA9ySz.s:4639   .debug_str:0000000000000904 .LASF234
     /tmp/ccAA9ySz.s:4885   .debug_str:000000000000110a .LASF235
     /tmp/ccAA9ySz.s:4921   .debug_str:0000000000001250 .LASF236
     /tmp/ccAA9ySz.s:4603   .debug_str:00000000000007c9 .LASF237
     /tmp/ccAA9ySz.s:4599   .debug_str:000000000000078b .LASF238
     /tmp/ccAA9ySz.s:4527   .debug_str:0000000000000553 .LASF239
     /tmp/ccAA9ySz.s:4883   .debug_str:00000000000010f8 .LASF240
     /tmp/ccAA9ySz.s:4537   .debug_str:0000000000000593 .LASF241
     /tmp/ccAA9ySz.s:4401   .debug_str:000000000000006f .LASF242
     /tmp/ccAA9ySz.s:4413   .debug_str:00000000000000c1 .LASF243
     /tmp/ccAA9ySz.s:4627   .debug_str:000000000000087f .LASF244
     /tmp/ccAA9ySz.s:4929   .debug_str:00000000000012ae .LASF245
     /tmp/ccAA9ySz.s:4419   .debug_str:00000000000000fb .LASF246
     /tmp/ccAA9ySz.s:4823   .debug_str:0000000000000f05 .LASF247
     /tmp/ccAA9ySz.s:4725   .debug_str:0000000000000bfb .LASF248
     /tmp/ccAA9ySz.s:4649   .debug_str:000000000000097c .LASF249
     /tmp/ccAA9ySz.s:4891   .debug_str:0000000000001144 .LASF250
     /tmp/ccAA9ySz.s:4577   .debug_str:00000000000006e7 .LASF251
     /tmp/ccAA9ySz.s:4845   .debug_str:0000000000000fae .LASF252
     /tmp/ccAA9ySz.s:4515   .debug_str:00000000000004cd .LASF253
     /tmp/ccAA9ySz.s:4609   .debug_str:00000000000007fb .LASF254
     /tmp/ccAA9ySz.s:750    .text:000000000000041c .LFB36
     /tmp/ccAA9ySz.s:770    .text:0000000000000440 .LFE36
     /tmp/ccAA9ySz.s:698    .text:00000000000003d4 .LFB35
GAS LISTING /tmp/ccAA9ySz.s 			page 35


     /tmp/ccAA9ySz.s:744    .text:000000000000041c .LFE35
     /tmp/ccAA9ySz.s:4935   .debug_str:00000000000012da .LASF255
     /tmp/ccAA9ySz.s:4106   .debug_loc:0000000000000000 .LLST15
     /tmp/ccAA9ySz.s:723    .text:0000000000000400 .LVL53
     /tmp/ccAA9ySz.s:649    .text:000000000000038c .LFB34
     /tmp/ccAA9ySz.s:692    .text:00000000000003d4 .LFE34
     /tmp/ccAA9ySz.s:4113   .debug_loc:0000000000000023 .LLST14
     /tmp/ccAA9ySz.s:670    .text:00000000000003b8 .LVL50
     /tmp/ccAA9ySz.s:681    .text:00000000000003c4 .LVL51
     /tmp/ccAA9ySz.s:592    .text:0000000000000348 .LFB33
     /tmp/ccAA9ySz.s:643    .text:000000000000038c .LFE33
     /tmp/ccAA9ySz.s:4120   .debug_loc:0000000000000046 .LLST13
     /tmp/ccAA9ySz.s:617    .text:0000000000000368 .LVL47
     /tmp/ccAA9ySz.s:554    .text:0000000000000300 .LFB32
     /tmp/ccAA9ySz.s:586    .text:0000000000000348 .LFE32
     /tmp/ccAA9ySz.s:569    .text:0000000000000320 .LVL43
     /tmp/ccAA9ySz.s:575    .text:0000000000000338 .LVL44
     /tmp/ccAA9ySz.s:364    .text:0000000000000218 .LFB31
     /tmp/ccAA9ySz.s:397    .text:0000000000000260 .LFE31
     /tmp/ccAA9ySz.s:4127   .debug_loc:0000000000000069 .LLST8
     /tmp/ccAA9ySz.s:381    .text:0000000000000240 .LVL27
     /tmp/ccAA9ySz.s:386    .text:0000000000000250 .LVL28
     /tmp/ccAA9ySz.s:326    .text:00000000000001d0 .LFB30
     /tmp/ccAA9ySz.s:358    .text:0000000000000218 .LFE30
     /tmp/ccAA9ySz.s:341    .text:00000000000001f0 .LVL24
     /tmp/ccAA9ySz.s:347    .text:0000000000000208 .LVL25
     /tmp/ccAA9ySz.s:287    .text:0000000000000188 .LFB29
     /tmp/ccAA9ySz.s:320    .text:00000000000001d0 .LFE29
     /tmp/ccAA9ySz.s:4141   .debug_loc:00000000000000a2 .LLST7
     /tmp/ccAA9ySz.s:304    .text:00000000000001b0 .LVL22
     /tmp/ccAA9ySz.s:309    .text:00000000000001c0 .LVL23
     /tmp/ccAA9ySz.s:776    .text:0000000000000440 .LFB28
     /tmp/ccAA9ySz.s:895    .text:00000000000004e0 .LFE28
     /tmp/ccAA9ySz.s:4155   .debug_loc:00000000000000db .LLST16
     /tmp/ccAA9ySz.s:4367   .debug_ranges:0000000000000000 .Ldebug_ranges0
     /tmp/ccAA9ySz.s:4169   .debug_loc:0000000000000114 .LLST17
     /tmp/ccAA9ySz.s:4735   .debug_str:0000000000000c4d .LASF256
     /tmp/ccAA9ySz.s:4180   .debug_loc:000000000000014a .LLST18
     /tmp/ccAA9ySz.s:823    .text:0000000000000474 .LBB11
     /tmp/ccAA9ySz.s:860    .text:00000000000004a0 .LBE11
     /tmp/ccAA9ySz.s:827    .text:000000000000047c .LVL61
     /tmp/ccAA9ySz.s:872    .text:00000000000004b8 .LVL65
     /tmp/ccAA9ySz.s:882    .text:00000000000004d0 .LVL66
     /tmp/ccAA9ySz.s:890    .text:00000000000004dc .LVL68
     /tmp/ccAA9ySz.s:403    .text:0000000000000260 .LFB27
     /tmp/ccAA9ySz.s:548    .text:0000000000000300 .LFE27
     /tmp/ccAA9ySz.s:4187   .debug_loc:000000000000016d .LLST9
     /tmp/ccAA9ySz.s:4205   .debug_loc:00000000000001b9 .LLST10
     /tmp/ccAA9ySz.s:4220   .debug_loc:0000000000000202 .LLST11
     /tmp/ccAA9ySz.s:457    .text:0000000000000294 .LBB4
     /tmp/ccAA9ySz.s:493    .text:00000000000002c8 .LBE4
     /tmp/ccAA9ySz.s:4231   .debug_loc:0000000000000238 .LLST12
     /tmp/ccAA9ySz.s:487    .text:00000000000002bc .LVL36
     /tmp/ccAA9ySz.s:492    .text:00000000000002c8 .LVL37
     /tmp/ccAA9ySz.s:249    .text:0000000000000188 .LFE26
     /tmp/ccAA9ySz.s:186    .text:00000000000000fc .LVL13
     /tmp/ccAA9ySz.s:192    .text:000000000000010c .LVL14
GAS LISTING /tmp/ccAA9ySz.s 			page 36


     /tmp/ccAA9ySz.s:201    .text:0000000000000120 .LVL15
     /tmp/ccAA9ySz.s:207    .text:0000000000000130 .LVL16
     /tmp/ccAA9ySz.s:231    .text:0000000000000160 .LVL17
     /tmp/ccAA9ySz.s:235    .text:000000000000016c .LVL18
     /tmp/ccAA9ySz.s:242    .text:000000000000017c .LVL19
     /tmp/ccAA9ySz.s:246    .text:0000000000000188 .LVL20
     /tmp/ccAA9ySz.s:91     .text:0000000000000078 .LFB25
     /tmp/ccAA9ySz.s:158    .text:00000000000000d8 .LFE25
     /tmp/ccAA9ySz.s:4805   .debug_str:0000000000000e96 .LASF257
     /tmp/ccAA9ySz.s:4238   .debug_loc:000000000000025b .LLST3
     /tmp/ccAA9ySz.s:4677   .debug_str:0000000000000a66 .LASF258
     /tmp/ccAA9ySz.s:4260   .debug_loc:00000000000002ba .LLST4
     /tmp/ccAA9ySz.s:4278   .debug_loc:0000000000000306 .LLST5
     /tmp/ccAA9ySz.s:4289   .debug_loc:000000000000033c .LLST6
     /tmp/ccAA9ySz.s:129    .text:00000000000000b0 .LVL10
     /tmp/ccAA9ySz.s:10     .text:0000000000000000 .LFB24
     /tmp/ccAA9ySz.s:85     .text:0000000000000078 .LFE24
     /tmp/ccAA9ySz.s:4296   .debug_loc:000000000000035f .LLST0
     /tmp/ccAA9ySz.s:4310   .debug_loc:0000000000000398 .LLST1
     /tmp/ccAA9ySz.s:4332   .debug_loc:00000000000003f7 .LLST2
     /tmp/ccAA9ySz.s:4797   .debug_str:0000000000000e3a .LASF259
     /tmp/ccAA9ySz.s:37     .text:0000000000000034 .LVL2
     /tmp/ccAA9ySz.s:4651   .debug_str:0000000000000994 .LASF260
     /tmp/ccAA9ySz.s:4589   .debug_str:0000000000000745 .LASF261
     /tmp/ccAA9ySz.s:4869   .debug_str:000000000000107a .LASF262
     /tmp/ccAA9ySz.s:4865   .debug_str:000000000000105a .LASF275
     /tmp/ccAA9ySz.s:4425   .debug_str:000000000000014b .LASF276
     /tmp/ccAA9ySz.s:4505   .debug_str:000000000000047c .LASF263
     /tmp/ccAA9ySz.s:4535   .debug_str:000000000000058d .LASF264
     /tmp/ccAA9ySz.s:4487   .debug_str:0000000000000414 .LASF265
     /tmp/ccAA9ySz.s:4519   .debug_str:0000000000000508 .LASF266
     /tmp/ccAA9ySz.s:714    .text:00000000000003f0 .LVL52
     /tmp/ccAA9ySz.s:739    .text:0000000000000414 .LVL55
     /tmp/ccAA9ySz.s:610    .text:000000000000035c .LVL45
     /tmp/ccAA9ySz.s:615    .text:0000000000000360 .LVL46
     /tmp/ccAA9ySz.s:367    .text:0000000000000218 .LVL26
     /tmp/ccAA9ySz.s:290    .text:0000000000000188 .LVL21
     /tmp/ccAA9ySz.s:779    .text:0000000000000440 .LVL56
     /tmp/ccAA9ySz.s:789    .text:0000000000000454 .LVL57
     /tmp/ccAA9ySz.s:796    .text:0000000000000460 .LVL58
     /tmp/ccAA9ySz.s:814    .text:000000000000046c .LVL59
     /tmp/ccAA9ySz.s:834    .text:000000000000048c .LVL62
     /tmp/ccAA9ySz.s:845    .text:0000000000000494 .LVL63
     /tmp/ccAA9ySz.s:820    .text:0000000000000470 .LVL60
     /tmp/ccAA9ySz.s:406    .text:0000000000000260 .LVL29
     /tmp/ccAA9ySz.s:453    .text:0000000000000294 .LVL33
     /tmp/ccAA9ySz.s:544    .text:00000000000002fc .LVL42
     /tmp/ccAA9ySz.s:413    .text:000000000000026c .LVL30
     /tmp/ccAA9ySz.s:431    .text:0000000000000278 .LVL31
     /tmp/ccAA9ySz.s:462    .text:00000000000002a0 .LVL34
     /tmp/ccAA9ySz.s:503    .text:00000000000002d4 .LVL38
     /tmp/ccAA9ySz.s:521    .text:00000000000002e0 .LVL39
     /tmp/ccAA9ySz.s:437    .text:000000000000027c .LVL32
     /tmp/ccAA9ySz.s:527    .text:00000000000002e4 .LVL40
     /tmp/ccAA9ySz.s:482    .text:00000000000002b0 .LVL35
     /tmp/ccAA9ySz.s:540    .text:00000000000002f4 .LVL41
     /tmp/ccAA9ySz.s:94     .text:0000000000000078 .LVL6
GAS LISTING /tmp/ccAA9ySz.s 			page 37


     /tmp/ccAA9ySz.s:109    .text:0000000000000094 .LVL7
     /tmp/ccAA9ySz.s:145    .text:00000000000000c8 .LVL11
     /tmp/ccAA9ySz.s:113    .text:0000000000000098 .LVL8
     /tmp/ccAA9ySz.s:152    .text:00000000000000d0 .LVL12
     /tmp/ccAA9ySz.s:125    .text:00000000000000a8 .LVL9
     /tmp/ccAA9ySz.s:14     .text:0000000000000000 .LVL0
     /tmp/ccAA9ySz.s:35     .text:000000000000002c .LVL1
     /tmp/ccAA9ySz.s:69     .text:0000000000000060 .LVL4
     /tmp/ccAA9ySz.s:75     .text:000000000000006c .LVL5
     /tmp/ccAA9ySz.s:66     .text:000000000000005c .LVL3
     /tmp/ccAA9ySz.s:945    .debug_info:0000000000000000 .Ldebug_info0
     /tmp/ccAA9ySz.s:408    .text:0000000000000260 .LBB2
     /tmp/ccAA9ySz.s:441    .text:0000000000000280 .LBE2
     /tmp/ccAA9ySz.s:455    .text:0000000000000294 .LBB7
     /tmp/ccAA9ySz.s:495    .text:00000000000002c8 .LBE7
     /tmp/ccAA9ySz.s:498    .text:00000000000002c8 .LBB8
     /tmp/ccAA9ySz.s:531    .text:00000000000002e8 .LBE8
     /tmp/ccAA9ySz.s:791    .text:0000000000000454 .LBB9
     /tmp/ccAA9ySz.s:862    .text:00000000000004a0 .LBE9
     /tmp/ccAA9ySz.s:864    .text:00000000000004a0 .LBB13
     /tmp/ccAA9ySz.s:893    .text:00000000000004e0 .LBE13
     /tmp/ccAA9ySz.s:252    .gcc_except_table:0000000000000000 .LLSDA26

UNDEFINED SYMBOLS
_Z7kmallocm
_Z5kfreePv
_ZN10KSemaphorenwEm
_ZN10KSemaphoreC1Ei
_ZN10KSemaphoredlEPv
_Unwind_Resume
__gxx_personality_v0
_ZN10KSemaphore6signalEv
_ZN10KSemaphore4waitEv
CONSOLE_STATUS
CONSOLE_TX_DATA
_ZN5Riscv13w_a0_sscratchEv
putc
CONSOLE_RX_DATA
_ZN5Riscv12finishSystemE
thread_exit
thread_dispatch
