GAS LISTING /tmp/ccKWmizW.s 			page 1


   1              		.file	"KConsole.cpp"
   2              		.option pic
   3              		.option norelax
   4              		.text
   5              	.Ltext0:
   6              		.align	2
   7              		.globl	_ZN8KConsole7putCharEcRPNS_4ElemES2_
   9              	_ZN8KConsole7putCharEcRPNS_4ElemES2_:
  10              	.LFB21:
  11              		.file 1 "src/KConsole.cpp"
   1:src/KConsole.cpp **** //
   2:src/KConsole.cpp **** // Created by os on 5/19/22.
   3:src/KConsole.cpp **** //
   4:src/KConsole.cpp **** 
   5:src/KConsole.cpp **** 
   6:src/KConsole.cpp **** #include "../h/KConsole.hpp"
   7:src/KConsole.cpp **** 
   8:src/KConsole.cpp **** KConsole::Elem* KConsole::headInput = 0;
   9:src/KConsole.cpp **** KConsole::Elem* KConsole::tailInput = 0;
  10:src/KConsole.cpp **** KConsole::Elem* KConsole::headOutput = 0;
  11:src/KConsole.cpp **** KConsole::Elem* KConsole::tailOutput = 0;
  12:src/KConsole.cpp **** KSemaphore* KConsole::hasCharactersOutput = 0;
  13:src/KConsole.cpp **** KSemaphore* KConsole::hasCharactersInput = 0;
  14:src/KConsole.cpp **** 
  15:src/KConsole.cpp **** void KConsole::putChar(char c, Elem*& head, Elem*& tail)
  16:src/KConsole.cpp **** {
  12              		.loc 1 16 1
  13              		.cfi_startproc
  14              	.LVL0:
  15 0000 130101FD 		addi	sp,sp,-48
  16              		.cfi_def_cfa_offset 48
  17 0004 23341102 		sd	ra,40(sp)
  18 0008 23308102 		sd	s0,32(sp)
  19 000c 233C9100 		sd	s1,24(sp)
  20 0010 23382101 		sd	s2,16(sp)
  21 0014 23343101 		sd	s3,8(sp)
  22              		.cfi_offset 1, -8
  23              		.cfi_offset 8, -16
  24              		.cfi_offset 9, -24
  25              		.cfi_offset 18, -32
  26              		.cfi_offset 19, -40
  27 0018 13040103 		addi	s0,sp,48
  28              		.cfi_def_cfa 8, 0
  29 001c 93090500 		mv	s3,a0
  30 0020 13890500 		mv	s2,a1
  31 0024 93040600 		mv	s1,a2
  17:src/KConsole.cpp ****     Elem* newElem = (Elem*)kmalloc(sizeof(Elem));
  32              		.loc 1 17 5
  33              		.loc 1 17 35 is_stmt 0
  34 0028 13050001 		li	a0,16
  35              	.LVL1:
  36 002c 97000000 		call	_Z7kmallocm@plt
  36      E7800000 
  37              	.LVL2:
  18:src/KConsole.cpp ****     newElem->next = 0;
  38              		.loc 1 18 5 is_stmt 1
  39              		.loc 1 18 19 is_stmt 0
GAS LISTING /tmp/ccKWmizW.s 			page 2


  40 0034 23300500 		sd	zero,0(a0)
  19:src/KConsole.cpp ****     newElem->data = c;
  41              		.loc 1 19 5 is_stmt 1
  42              		.loc 1 19 19 is_stmt 0
  43 0038 23043501 		sb	s3,8(a0)
  20:src/KConsole.cpp ****     if(head == 0)
  44              		.loc 1 20 5 is_stmt 1
  45              		.loc 1 20 8 is_stmt 0
  46 003c 83370900 		ld	a5,0(s2)
  47              		.loc 1 20 5
  48 0040 63860702 		beqz	a5,.L5
  21:src/KConsole.cpp ****     {
  22:src/KConsole.cpp ****         head = tail = newElem;
  23:src/KConsole.cpp ****     }
  24:src/KConsole.cpp ****     else
  25:src/KConsole.cpp ****     {
  26:src/KConsole.cpp ****         tail->next = newElem;
  49              		.loc 1 26 9 is_stmt 1
  50 0044 83B70400 		ld	a5,0(s1)
  51              		.loc 1 26 20 is_stmt 0
  52 0048 23B0A700 		sd	a0,0(a5)
  27:src/KConsole.cpp ****         tail = newElem;
  53              		.loc 1 27 9 is_stmt 1
  54              		.loc 1 27 14 is_stmt 0
  55 004c 23B0A400 		sd	a0,0(s1)
  56              	.L1:
  28:src/KConsole.cpp ****     }
  29:src/KConsole.cpp **** }
  57              		.loc 1 29 1
  58 0050 83308102 		ld	ra,40(sp)
  59              		.cfi_remember_state
  60              		.cfi_restore 1
  61 0054 03340102 		ld	s0,32(sp)
  62              		.cfi_restore 8
  63              		.cfi_def_cfa 2, 48
  64 0058 83348101 		ld	s1,24(sp)
  65              		.cfi_restore 9
  66              	.LVL3:
  67 005c 03390101 		ld	s2,16(sp)
  68              		.cfi_restore 18
  69              	.LVL4:
  70 0060 83398100 		ld	s3,8(sp)
  71              		.cfi_restore 19
  72 0064 13010103 		addi	sp,sp,48
  73              		.cfi_def_cfa_offset 0
  74 0068 67800000 		jr	ra
  75              	.LVL5:
  76              	.L5:
  77              		.cfi_restore_state
  22:src/KConsole.cpp ****     }
  78              		.loc 1 22 9 is_stmt 1
  22:src/KConsole.cpp ****     }
  79              		.loc 1 22 21 is_stmt 0
  80 006c 23B0A400 		sd	a0,0(s1)
  22:src/KConsole.cpp ****     }
  81              		.loc 1 22 14
  82 0070 2330A900 		sd	a0,0(s2)
GAS LISTING /tmp/ccKWmizW.s 			page 3


  83 0074 6FF0DFFD 		j	.L1
  84              		.cfi_endproc
  85              	.LFE21:
  87              		.align	2
  88              		.globl	_ZN8KConsole7getCharERPNS_4ElemES2_
  90              	_ZN8KConsole7getCharERPNS_4ElemES2_:
  91              	.LFB22:
  30:src/KConsole.cpp **** 
  31:src/KConsole.cpp **** char KConsole::getChar(Elem*& head, Elem*& tail)
  32:src/KConsole.cpp **** {
  92              		.loc 1 32 1 is_stmt 1
  93              		.cfi_startproc
  94              	.LVL6:
  95 0078 130101FE 		addi	sp,sp,-32
  96              		.cfi_def_cfa_offset 32
  97 007c 233C1100 		sd	ra,24(sp)
  98 0080 23388100 		sd	s0,16(sp)
  99 0084 23349100 		sd	s1,8(sp)
 100              		.cfi_offset 1, -8
 101              		.cfi_offset 8, -16
 102              		.cfi_offset 9, -24
 103 0088 13040102 		addi	s0,sp,32
 104              		.cfi_def_cfa 8, 0
 105 008c 93070500 		mv	a5,a0
  33:src/KConsole.cpp ****     if(head == 0)
 106              		.loc 1 33 5
 107              		.loc 1 33 8 is_stmt 0
 108 0090 03350500 		ld	a0,0(a0)
 109              	.LVL7:
 110              		.loc 1 33 5
 111 0094 630E0502 		beqz	a0,.L9
  34:src/KConsole.cpp ****         return 0;
  35:src/KConsole.cpp **** 
  36:src/KConsole.cpp ****     Elem* ret = head;
 112              		.loc 1 36 5 is_stmt 1
 113              	.LVL8:
  37:src/KConsole.cpp ****     head = head->next;
 114              		.loc 1 37 5
 115              		.loc 1 37 18 is_stmt 0
 116 0098 03370500 		ld	a4,0(a0)
 117              		.loc 1 37 10
 118 009c 23B0E700 		sd	a4,0(a5)
  38:src/KConsole.cpp ****     if(head == 0)
 119              		.loc 1 38 5 is_stmt 1
 120 00a0 63040702 		beqz	a4,.L11
 121              	.L8:
  39:src/KConsole.cpp ****         tail = 0;
  40:src/KConsole.cpp **** 
  41:src/KConsole.cpp ****     char c = ret->data;
 122              		.loc 1 41 5
 123              		.loc 1 41 10 is_stmt 0
 124 00a4 83448500 		lbu	s1,8(a0)
 125              	.LVL9:
  42:src/KConsole.cpp ****     kfree(ret);
 126              		.loc 1 42 5 is_stmt 1
 127              		.loc 1 42 10 is_stmt 0
 128 00a8 97000000 		call	_Z5kfreePv@plt
GAS LISTING /tmp/ccKWmizW.s 			page 4


 128      E7800000 
 129              	.LVL10:
  43:src/KConsole.cpp ****     return c;
 130              		.loc 1 43 5 is_stmt 1
 131              	.L7:
  44:src/KConsole.cpp **** }
 132              		.loc 1 44 1 is_stmt 0
 133 00b0 13850400 		mv	a0,s1
 134 00b4 83308101 		ld	ra,24(sp)
 135              		.cfi_remember_state
 136              		.cfi_restore 1
 137 00b8 03340101 		ld	s0,16(sp)
 138              		.cfi_restore 8
 139              		.cfi_def_cfa 2, 32
 140 00bc 83348100 		ld	s1,8(sp)
 141              		.cfi_restore 9
 142 00c0 13010102 		addi	sp,sp,32
 143              		.cfi_def_cfa_offset 0
 144 00c4 67800000 		jr	ra
 145              	.LVL11:
 146              	.L11:
 147              		.cfi_restore_state
  39:src/KConsole.cpp **** 
 148              		.loc 1 39 9 is_stmt 1
  39:src/KConsole.cpp **** 
 149              		.loc 1 39 14 is_stmt 0
 150 00c8 23B00500 		sd	zero,0(a1)
 151 00cc 6FF09FFD 		j	.L8
 152              	.LVL12:
 153              	.L9:
  34:src/KConsole.cpp **** 
 154              		.loc 1 34 16
 155 00d0 93040000 		li	s1,0
 156 00d4 6FF0DFFD 		j	.L7
 157              		.cfi_endproc
 158              	.LFE22:
 160              		.align	2
 161              		.globl	_ZN8KConsole10initializeEv
 163              	_ZN8KConsole10initializeEv:
 164              	.LFB23:
  45:src/KConsole.cpp **** 
  46:src/KConsole.cpp **** void KConsole::initialize()
  47:src/KConsole.cpp **** {
 165              		.loc 1 47 1 is_stmt 1
 166              		.cfi_startproc
 167              		.cfi_personality 0x9b,DW.ref.__gxx_personality_v0
 168              		.cfi_lsda 0x1b,.LLSDA23
 169 00d8 130101FE 		addi	sp,sp,-32
 170              		.cfi_def_cfa_offset 32
 171 00dc 233C1100 		sd	ra,24(sp)
 172 00e0 23388100 		sd	s0,16(sp)
 173 00e4 23349100 		sd	s1,8(sp)
 174 00e8 23302101 		sd	s2,0(sp)
 175              		.cfi_offset 1, -8
 176              		.cfi_offset 8, -16
 177              		.cfi_offset 9, -24
 178              		.cfi_offset 18, -32
GAS LISTING /tmp/ccKWmizW.s 			page 5


 179 00ec 13040102 		addi	s0,sp,32
 180              		.cfi_def_cfa 8, 0
  48:src/KConsole.cpp ****     hasCharactersInput = new KSemaphore(0);
 181              		.loc 1 48 5
 182              		.loc 1 48 42 is_stmt 0
 183 00f0 13058001 		li	a0,24
 184              	.LEHB0:
 185 00f4 97000000 		call	_ZN10KSemaphorenwEm@plt
 185      E7800000 
 186              	.LVL13:
 187              	.LEHE0:
 188 00fc 93040500 		mv	s1,a0
 189 0100 93050000 		li	a1,0
 190              	.LEHB1:
 191 0104 97000000 		call	_ZN10KSemaphoreC1Ei@plt
 191      E7800000 
 192              	.LVL14:
 193              	.LEHE1:
 194              		.loc 1 48 24 discriminator 2
 195 010c 97070000 		sd	s1,.LANCHOR0,a5
 195      23B09700 
  49:src/KConsole.cpp ****     hasCharactersOutput = new KSemaphore(0);
 196              		.loc 1 49 5 is_stmt 1 discriminator 2
 197              		.loc 1 49 43 is_stmt 0 discriminator 2
 198 0114 13058001 		li	a0,24
 199              	.LEHB2:
 200 0118 97000000 		call	_ZN10KSemaphorenwEm@plt
 200      E7800000 
 201              	.LVL15:
 202              	.LEHE2:
 203 0120 93040500 		mv	s1,a0
 204 0124 93050000 		li	a1,0
 205              	.LEHB3:
 206 0128 97000000 		call	_ZN10KSemaphoreC1Ei@plt
 206      E7800000 
 207              	.LVL16:
 208              	.LEHE3:
 209              		.loc 1 49 25 discriminator 2
 210 0130 97070000 		sd	s1,.LANCHOR0+8,a5
 210      23B09700 
  50:src/KConsole.cpp **** }
 211              		.loc 1 50 1 discriminator 2
 212 0138 83308101 		ld	ra,24(sp)
 213              		.cfi_remember_state
 214              		.cfi_restore 1
 215 013c 03340101 		ld	s0,16(sp)
 216              		.cfi_restore 8
 217              		.cfi_def_cfa 2, 32
 218 0140 83348100 		ld	s1,8(sp)
 219              		.cfi_restore 9
 220 0144 03390100 		ld	s2,0(sp)
 221              		.cfi_restore 18
 222 0148 13010102 		addi	sp,sp,32
 223              		.cfi_def_cfa_offset 0
 224 014c 67800000 		jr	ra
 225              	.L15:
 226              		.cfi_restore_state
GAS LISTING /tmp/ccKWmizW.s 			page 6


 227 0150 13090500 		mv	s2,a0
  48:src/KConsole.cpp ****     hasCharactersInput = new KSemaphore(0);
 228              		.loc 1 48 42
 229 0154 13850400 		mv	a0,s1
 230 0158 97000000 		call	_ZN10KSemaphoredlEPv@plt
 230      E7800000 
 231              	.LVL17:
 232 0160 13050900 		mv	a0,s2
 233              	.LEHB4:
 234 0164 97000000 		call	_Unwind_Resume@plt
 234      E7800000 
 235              	.LVL18:
 236              	.LEHE4:
 237              	.L16:
 238 016c 13090500 		mv	s2,a0
  49:src/KConsole.cpp ****     hasCharactersOutput = new KSemaphore(0);
 239              		.loc 1 49 43
 240 0170 13850400 		mv	a0,s1
 241 0174 97000000 		call	_ZN10KSemaphoredlEPv@plt
 241      E7800000 
 242              	.LVL19:
 243 017c 13050900 		mv	a0,s2
 244              	.LEHB5:
 245 0180 97000000 		call	_Unwind_Resume@plt
 245      E7800000 
 246              	.LVL20:
 247              	.LEHE5:
 248              		.cfi_endproc
 249              	.LFE23:
 250              		.globl	__gxx_personality_v0
 251              		.section	.gcc_except_table,"a",@progbits
 252              	.LLSDA23:
 253 0000 FF       		.byte	0xff
 254 0001 FF       		.byte	0xff
 255 0002 03       		.byte	0x3
 256 0003 4E       		.byte	0x4e
 257 0004 00000000 		.4byte	.LEHB0-.LFB23
 258 0008 00000000 		.4byte	.LEHE0-.LEHB0
 259 000c 00000000 		.4byte	0
 260 0010 00       		.byte	0
 261 0011 00000000 		.4byte	.LEHB1-.LFB23
 262 0015 00000000 		.4byte	.LEHE1-.LEHB1
 263 0019 00000000 		.4byte	.L15-.LFB23
 264 001d 00       		.byte	0
 265 001e 00000000 		.4byte	.LEHB2-.LFB23
 266 0022 00000000 		.4byte	.LEHE2-.LEHB2
 267 0026 00000000 		.4byte	0
 268 002a 00       		.byte	0
 269 002b 00000000 		.4byte	.LEHB3-.LFB23
 270 002f 00000000 		.4byte	.LEHE3-.LEHB3
 271 0033 00000000 		.4byte	.L16-.LFB23
 272 0037 00       		.byte	0
 273 0038 00000000 		.4byte	.LEHB4-.LFB23
 274 003c 00000000 		.4byte	.LEHE4-.LEHB4
 275 0040 00000000 		.4byte	0
 276 0044 00       		.byte	0
 277 0045 00000000 		.4byte	.LEHB5-.LFB23
GAS LISTING /tmp/ccKWmizW.s 			page 7


 278 0049 00000000 		.4byte	.LEHE5-.LEHB5
 279 004d 00000000 		.4byte	0
 280 0051 00       		.byte	0
 281              		.text
 283              		.align	2
 284              		.globl	_ZN8KConsole17putCharacterInputEc
 286              	_ZN8KConsole17putCharacterInputEc:
 287              	.LFB26:
  51:src/KConsole.cpp **** 
  52:src/KConsole.cpp **** //extern const uint64 CONSOLE_STATUS;
  53:src/KConsole.cpp **** //extern const uint64 CONSOLE_TX_DATA;
  54:src/KConsole.cpp **** //extern const uint64 CONSOLE_RX_DATA;
  55:src/KConsole.cpp **** 
  56:src/KConsole.cpp **** void KConsole::getCharactersFromConsole()
  57:src/KConsole.cpp **** {
  58:src/KConsole.cpp ****     while(true)
  59:src/KConsole.cpp ****     {
  60:src/KConsole.cpp ****         __asm__ volatile("ld a0, CONSOLE_STATUS");
  61:src/KConsole.cpp ****         uint64 operation;
  62:src/KConsole.cpp ****         __asm__ volatile("mv %0, a0" :  "=r"(operation));
  63:src/KConsole.cpp ****         if(operation & STATUS_READ_MASK)
  64:src/KConsole.cpp ****         {
  65:src/KConsole.cpp ****             __asm__ volatile("ld a0, CONSOLE_TX_DATA");
  66:src/KConsole.cpp ****             uint64 data;
  67:src/KConsole.cpp ****             __asm__ volatile("mv %0, a0" :  "=r"(data));
  68:src/KConsole.cpp ****             putCharacterInput((char)data);
  69:src/KConsole.cpp ****         }
  70:src/KConsole.cpp ****         else
  71:src/KConsole.cpp ****             break;
  72:src/KConsole.cpp ****     }
  73:src/KConsole.cpp **** 
  74:src/KConsole.cpp **** }
  75:src/KConsole.cpp **** 
  76:src/KConsole.cpp **** void KConsole::sendCharactersToConsole()
  77:src/KConsole.cpp **** {
  78:src/KConsole.cpp ****     while(true)
  79:src/KConsole.cpp ****     {
  80:src/KConsole.cpp ****         __asm__ volatile("ld a0, CONSOLE_STATUS");
  81:src/KConsole.cpp ****         uint64 operation;
  82:src/KConsole.cpp ****         __asm__ volatile("mv %0, a0" :  "=r"(operation));
  83:src/KConsole.cpp ****         if(operation & STATUS_WRITE_MASK)
  84:src/KConsole.cpp ****         {
  85:src/KConsole.cpp ****             char c = getCharacterOutput();
  86:src/KConsole.cpp ****             __asm__ volatile("mv a0, %0" :  :"r"((uint64)c));
  87:src/KConsole.cpp ****             //__asm__ volatile("sd a0, CONSOLE_RX_DATA");
  88:src/KConsole.cpp ****         }
  89:src/KConsole.cpp ****         else
  90:src/KConsole.cpp ****             break;
  91:src/KConsole.cpp ****     }
  92:src/KConsole.cpp **** }
  93:src/KConsole.cpp **** 
  94:src/KConsole.cpp **** void KConsole::putCharacterInput(char c)
  95:src/KConsole.cpp **** {
 288              		.loc 1 95 1 is_stmt 1
 289              		.cfi_startproc
 290              	.LVL21:
 291 0188 130101FF 		addi	sp,sp,-16
GAS LISTING /tmp/ccKWmizW.s 			page 8


 292              		.cfi_def_cfa_offset 16
 293 018c 23341100 		sd	ra,8(sp)
 294 0190 23308100 		sd	s0,0(sp)
 295              		.cfi_offset 1, -8
 296              		.cfi_offset 8, -16
 297 0194 13040101 		addi	s0,sp,16
 298              		.cfi_def_cfa 8, 0
  96:src/KConsole.cpp ****     putChar(c, headInput, tailInput);
 299              		.loc 1 96 5
 300              		.loc 1 96 12 is_stmt 0
 301 0198 17060000 		lla	a2,.LANCHOR0+16
 301      13060600 
 302 01a0 97050000 		lla	a1,.LANCHOR0+24
 302      93850500 
 303 01a8 97000000 		call	_ZN8KConsole7putCharEcRPNS_4ElemES2_
 303      E7800000 
 304              	.LVL22:
  97:src/KConsole.cpp ****     hasCharactersInput->signal();
 305              		.loc 1 97 5 is_stmt 1
 306              		.loc 1 97 31 is_stmt 0
 307 01b0 17050000 		ld	a0,.LANCHOR0
 307      03350500 
 308 01b8 97000000 		call	_ZN10KSemaphore6signalEv@plt
 308      E7800000 
 309              	.LVL23:
  98:src/KConsole.cpp **** }
 310              		.loc 1 98 1
 311 01c0 83308100 		ld	ra,8(sp)
 312              		.cfi_restore 1
 313 01c4 03340100 		ld	s0,0(sp)
 314              		.cfi_restore 8
 315              		.cfi_def_cfa 2, 16
 316 01c8 13010101 		addi	sp,sp,16
 317              		.cfi_def_cfa_offset 0
 318 01cc 67800000 		jr	ra
 319              		.cfi_endproc
 320              	.LFE26:
 322              		.align	2
 323              		.globl	_ZN8KConsole24getCharactersFromConsoleEv
 325              	_ZN8KConsole24getCharactersFromConsoleEv:
 326              	.LFB24:
  57:src/KConsole.cpp ****     while(true)
 327              		.loc 1 57 1 is_stmt 1
 328              		.cfi_startproc
  58:src/KConsole.cpp ****     {
 329              		.loc 1 58 5
 330              	.LBB2:
  60:src/KConsole.cpp ****         uint64 operation;
 331              		.loc 1 60 9
  60:src/KConsole.cpp ****         uint64 operation;
 332              		.loc 1 60 50 is_stmt 0
 333              	#APP
 334              	# 60 "src/KConsole.cpp" 1
  61:src/KConsole.cpp ****         __asm__ volatile("mv %0, a0" :  "=r"(operation));
 335              		ld a0, CONSOLE_STATUS
 336              	# 0 "" 2
 337              		.loc 1 61 9 is_stmt 1
GAS LISTING /tmp/ccKWmizW.s 			page 9


  62:src/KConsole.cpp ****         if(operation & STATUS_READ_MASK)
 338              		.loc 1 62 9
  62:src/KConsole.cpp ****         if(operation & STATUS_READ_MASK)
 339              		.loc 1 62 57 is_stmt 0
 340              	# 62 "src/KConsole.cpp" 1
 341              		mv a5, a0
 342              	# 0 "" 2
 343              	.LVL24:
  63:src/KConsole.cpp ****         {
 344              		.loc 1 63 9 is_stmt 1
 345              	#NO_APP
 346              	.LBB3:
  63:src/KConsole.cpp ****         {
 347              		.loc 1 63 22 is_stmt 0
 348 01dc 93F71700 		andi	a5,a5,1
 349              	.LVL25:
  63:src/KConsole.cpp ****         {
 350              		.loc 1 63 9
 351 01e0 63880704 		beqz	a5,.L29
 352              	.LBE3:
 353              	.LBE2:
  57:src/KConsole.cpp ****     while(true)
 354              		.loc 1 57 1
 355 01e4 130101FF 		addi	sp,sp,-16
 356              		.cfi_def_cfa_offset 16
 357 01e8 23341100 		sd	ra,8(sp)
 358 01ec 23308100 		sd	s0,0(sp)
 359              		.cfi_offset 1, -8
 360              		.cfi_offset 8, -16
 361 01f0 13040101 		addi	s0,sp,16
 362              		.cfi_def_cfa 8, 0
 363              	.L25:
 364              	.LBB7:
 365              	.LBB5:
 366              	.LBB4:
  65:src/KConsole.cpp ****             uint64 data;
 367              		.loc 1 65 13 is_stmt 1
  65:src/KConsole.cpp ****             uint64 data;
 368              		.loc 1 65 55 is_stmt 0
 369              	#APP
 370              	# 65 "src/KConsole.cpp" 1
  66:src/KConsole.cpp ****             __asm__ volatile("mv %0, a0" :  "=r"(data));
 371              		ld a0, CONSOLE_TX_DATA
 372              	# 0 "" 2
 373              		.loc 1 66 13 is_stmt 1
  67:src/KConsole.cpp ****             putCharacterInput((char)data);
 374              		.loc 1 67 13
  67:src/KConsole.cpp ****             putCharacterInput((char)data);
 375              		.loc 1 67 56 is_stmt 0
 376              	# 67 "src/KConsole.cpp" 1
 377              		mv a0, a0
 378              	# 0 "" 2
 379              	.LVL26:
  68:src/KConsole.cpp ****         }
 380              		.loc 1 68 13 is_stmt 1
  68:src/KConsole.cpp ****         }
 381              		.loc 1 68 30 is_stmt 0
GAS LISTING /tmp/ccKWmizW.s 			page 10


 382              	#NO_APP
 383 0200 1375F50F 		andi	a0,a0,0xff
 384              	.LVL27:
 385 0204 97000000 		call	_ZN8KConsole17putCharacterInputEc
 385      E7800000 
 386              	.LVL28:
 387              	.LBE4:
 388              	.LBE5:
 389              	.LBE7:
  58:src/KConsole.cpp ****     {
 390              		.loc 1 58 5 is_stmt 1
  58:src/KConsole.cpp ****     {
 391              		.loc 1 58 5
 392              	.LBB8:
  60:src/KConsole.cpp ****         uint64 operation;
 393              		.loc 1 60 9
  60:src/KConsole.cpp ****         uint64 operation;
 394              		.loc 1 60 50 is_stmt 0
 395              	#APP
 396              	# 60 "src/KConsole.cpp" 1
  61:src/KConsole.cpp ****         __asm__ volatile("mv %0, a0" :  "=r"(operation));
 397              		ld a0, CONSOLE_STATUS
 398              	# 0 "" 2
 399              		.loc 1 61 9 is_stmt 1
  62:src/KConsole.cpp ****         if(operation & STATUS_READ_MASK)
 400              		.loc 1 62 9
  62:src/KConsole.cpp ****         if(operation & STATUS_READ_MASK)
 401              		.loc 1 62 57 is_stmt 0
 402              	# 62 "src/KConsole.cpp" 1
 403              		mv a5, a0
 404              	# 0 "" 2
 405              	.LVL29:
  63:src/KConsole.cpp ****         {
 406              		.loc 1 63 9 is_stmt 1
 407              	#NO_APP
 408              	.LBB6:
  63:src/KConsole.cpp ****         {
 409              		.loc 1 63 22 is_stmt 0
 410 0218 93F71700 		andi	a5,a5,1
 411              	.LVL30:
  63:src/KConsole.cpp ****         {
 412              		.loc 1 63 9
 413 021c E39C07FC 		bnez	a5,.L25
 414              	.LBE6:
 415              	.LBE8:
  74:src/KConsole.cpp **** 
 416              		.loc 1 74 1
 417 0220 83308100 		ld	ra,8(sp)
 418              		.cfi_restore 1
 419 0224 03340100 		ld	s0,0(sp)
 420              		.cfi_restore 8
 421              		.cfi_def_cfa 2, 16
 422 0228 13010101 		addi	sp,sp,16
 423              		.cfi_def_cfa_offset 0
 424 022c 67800000 		jr	ra
 425              	.L29:
 426 0230 67800000 		ret
GAS LISTING /tmp/ccKWmizW.s 			page 11


 427              		.cfi_endproc
 428              	.LFE24:
 430              		.align	2
 431              		.globl	_ZN8KConsole17getCharacterInputEv
 433              	_ZN8KConsole17getCharacterInputEv:
 434              	.LFB27:
  99:src/KConsole.cpp **** 
 100:src/KConsole.cpp **** char KConsole::getCharacterInput()
 101:src/KConsole.cpp **** {
 435              		.loc 1 101 1 is_stmt 1
 436              		.cfi_startproc
 437 0234 130101FF 		addi	sp,sp,-16
 438              		.cfi_def_cfa_offset 16
 439 0238 23341100 		sd	ra,8(sp)
 440 023c 23308100 		sd	s0,0(sp)
 441              		.cfi_offset 1, -8
 442              		.cfi_offset 8, -16
 443 0240 13040101 		addi	s0,sp,16
 444              		.cfi_def_cfa 8, 0
 102:src/KConsole.cpp ****     hasCharactersInput->wait();
 445              		.loc 1 102 5
 446              		.loc 1 102 29 is_stmt 0
 447 0244 17050000 		ld	a0,.LANCHOR0
 447      03350500 
 448 024c 97000000 		call	_ZN10KSemaphore4waitEv@plt
 448      E7800000 
 449              	.LVL31:
 103:src/KConsole.cpp ****     return getChar(headInput, tailInput);
 450              		.loc 1 103 5 is_stmt 1
 451              		.loc 1 103 19 is_stmt 0
 452 0254 97050000 		lla	a1,.LANCHOR0+16
 452      93850500 
 453 025c 17050000 		lla	a0,.LANCHOR0+24
 453      13050500 
 454 0264 97000000 		call	_ZN8KConsole7getCharERPNS_4ElemES2_
 454      E7800000 
 455              	.LVL32:
 104:src/KConsole.cpp **** }
 456              		.loc 1 104 1
 457 026c 83308100 		ld	ra,8(sp)
 458              		.cfi_restore 1
 459 0270 03340100 		ld	s0,0(sp)
 460              		.cfi_restore 8
 461              		.cfi_def_cfa 2, 16
 462 0274 13010101 		addi	sp,sp,16
 463              		.cfi_def_cfa_offset 0
 464 0278 67800000 		jr	ra
 465              		.cfi_endproc
 466              	.LFE27:
 468              		.align	2
 469              		.globl	_ZN8KConsole18putCharacterOutputEc
 471              	_ZN8KConsole18putCharacterOutputEc:
 472              	.LFB28:
 105:src/KConsole.cpp **** 
 106:src/KConsole.cpp **** void KConsole::putCharacterOutput(char c)
 107:src/KConsole.cpp **** {
 473              		.loc 1 107 1 is_stmt 1
GAS LISTING /tmp/ccKWmizW.s 			page 12


 474              		.cfi_startproc
 475              	.LVL33:
 476 027c 130101FF 		addi	sp,sp,-16
 477              		.cfi_def_cfa_offset 16
 478 0280 23341100 		sd	ra,8(sp)
 479 0284 23308100 		sd	s0,0(sp)
 480              		.cfi_offset 1, -8
 481              		.cfi_offset 8, -16
 482 0288 13040101 		addi	s0,sp,16
 483              		.cfi_def_cfa 8, 0
 108:src/KConsole.cpp ****     putChar(c, headOutput, tailOutput);
 484              		.loc 1 108 5
 485              		.loc 1 108 12 is_stmt 0
 486 028c 17060000 		lla	a2,.LANCHOR0+32
 486      13060600 
 487 0294 97050000 		lla	a1,.LANCHOR0+40
 487      93850500 
 488 029c 97000000 		call	_ZN8KConsole7putCharEcRPNS_4ElemES2_
 488      E7800000 
 489              	.LVL34:
 109:src/KConsole.cpp ****     hasCharactersOutput->signal();
 490              		.loc 1 109 5 is_stmt 1
 491              		.loc 1 109 32 is_stmt 0
 492 02a4 17050000 		ld	a0,.LANCHOR0+8
 492      03350500 
 493 02ac 97000000 		call	_ZN10KSemaphore6signalEv@plt
 493      E7800000 
 494              	.LVL35:
 110:src/KConsole.cpp **** }
 495              		.loc 1 110 1
 496 02b4 83308100 		ld	ra,8(sp)
 497              		.cfi_restore 1
 498 02b8 03340100 		ld	s0,0(sp)
 499              		.cfi_restore 8
 500              		.cfi_def_cfa 2, 16
 501 02bc 13010101 		addi	sp,sp,16
 502              		.cfi_def_cfa_offset 0
 503 02c0 67800000 		jr	ra
 504              		.cfi_endproc
 505              	.LFE28:
 507              		.align	2
 508              		.globl	_ZN8KConsole18getCharacterOutputEv
 510              	_ZN8KConsole18getCharacterOutputEv:
 511              	.LFB29:
 111:src/KConsole.cpp **** 
 112:src/KConsole.cpp **** char KConsole::getCharacterOutput()
 113:src/KConsole.cpp **** {
 512              		.loc 1 113 1 is_stmt 1
 513              		.cfi_startproc
 514 02c4 130101FF 		addi	sp,sp,-16
 515              		.cfi_def_cfa_offset 16
 516 02c8 23341100 		sd	ra,8(sp)
 517 02cc 23308100 		sd	s0,0(sp)
 518              		.cfi_offset 1, -8
 519              		.cfi_offset 8, -16
 520 02d0 13040101 		addi	s0,sp,16
 521              		.cfi_def_cfa 8, 0
GAS LISTING /tmp/ccKWmizW.s 			page 13


 114:src/KConsole.cpp ****     hasCharactersOutput->wait();
 522              		.loc 1 114 5
 523              		.loc 1 114 30 is_stmt 0
 524 02d4 17050000 		ld	a0,.LANCHOR0+8
 524      03350500 
 525 02dc 97000000 		call	_ZN10KSemaphore4waitEv@plt
 525      E7800000 
 526              	.LVL36:
 115:src/KConsole.cpp ****     return getChar(headOutput, tailOutput);
 527              		.loc 1 115 5 is_stmt 1
 528              		.loc 1 115 19 is_stmt 0
 529 02e4 97050000 		lla	a1,.LANCHOR0+32
 529      93850500 
 530 02ec 17050000 		lla	a0,.LANCHOR0+40
 530      13050500 
 531 02f4 97000000 		call	_ZN8KConsole7getCharERPNS_4ElemES2_
 531      E7800000 
 532              	.LVL37:
 116:src/KConsole.cpp **** }
 533              		.loc 1 116 1
 534 02fc 83308100 		ld	ra,8(sp)
 535              		.cfi_restore 1
 536 0300 03340100 		ld	s0,0(sp)
 537              		.cfi_restore 8
 538              		.cfi_def_cfa 2, 16
 539 0304 13010101 		addi	sp,sp,16
 540              		.cfi_def_cfa_offset 0
 541 0308 67800000 		jr	ra
 542              		.cfi_endproc
 543              	.LFE29:
 545              		.align	2
 546              		.globl	_ZN8KConsole23sendCharactersToConsoleEv
 548              	_ZN8KConsole23sendCharactersToConsoleEv:
 549              	.LFB25:
  77:src/KConsole.cpp ****     while(true)
 550              		.loc 1 77 1 is_stmt 1
 551              		.cfi_startproc
  78:src/KConsole.cpp ****     {
 552              		.loc 1 78 5
 553              	.LBB9:
  80:src/KConsole.cpp ****         uint64 operation;
 554              		.loc 1 80 9
  80:src/KConsole.cpp ****         uint64 operation;
 555              		.loc 1 80 50 is_stmt 0
 556              	#APP
 557              	# 80 "src/KConsole.cpp" 1
  81:src/KConsole.cpp ****         __asm__ volatile("mv %0, a0" :  "=r"(operation));
 558              		ld a0, CONSOLE_STATUS
 559              	# 0 "" 2
 560              		.loc 1 81 9 is_stmt 1
  82:src/KConsole.cpp ****         if(operation & STATUS_WRITE_MASK)
 561              		.loc 1 82 9
  82:src/KConsole.cpp ****         if(operation & STATUS_WRITE_MASK)
 562              		.loc 1 82 57 is_stmt 0
 563              	# 82 "src/KConsole.cpp" 1
 564              		mv a5, a0
 565              	# 0 "" 2
GAS LISTING /tmp/ccKWmizW.s 			page 14


 566              	.LVL38:
  83:src/KConsole.cpp ****         {
 567              		.loc 1 83 9 is_stmt 1
 568              	#NO_APP
 569              	.LBB10:
  83:src/KConsole.cpp ****         {
 570              		.loc 1 83 22 is_stmt 0
 571 0318 93F70702 		andi	a5,a5,32
 572              	.LVL39:
  83:src/KConsole.cpp ****         {
 573              		.loc 1 83 9
 574 031c 63820704 		beqz	a5,.L44
 575              	.LBE10:
 576              	.LBE9:
  77:src/KConsole.cpp ****     while(true)
 577              		.loc 1 77 1
 578 0320 130101FF 		addi	sp,sp,-16
 579              		.cfi_def_cfa_offset 16
 580 0324 23341100 		sd	ra,8(sp)
 581 0328 23308100 		sd	s0,0(sp)
 582              		.cfi_offset 1, -8
 583              		.cfi_offset 8, -16
 584 032c 13040101 		addi	s0,sp,16
 585              		.cfi_def_cfa 8, 0
 586              	.L40:
 587              	.LBB14:
 588              	.LBB12:
 589              	.LBB11:
  85:src/KConsole.cpp ****             __asm__ volatile("mv a0, %0" :  :"r"((uint64)c));
 590              		.loc 1 85 13 is_stmt 1
  85:src/KConsole.cpp ****             __asm__ volatile("mv a0, %0" :  :"r"((uint64)c));
 591              		.loc 1 85 40 is_stmt 0
 592 0330 97000000 		call	_ZN8KConsole18getCharacterOutputEv
 592      E7800000 
 593              	.LVL40:
  86:src/KConsole.cpp ****             //__asm__ volatile("sd a0, CONSOLE_RX_DATA");
 594              		.loc 1 86 13 is_stmt 1
  86:src/KConsole.cpp ****             //__asm__ volatile("sd a0, CONSOLE_RX_DATA");
 595              		.loc 1 86 61 is_stmt 0
 596              	#APP
 597              	# 86 "src/KConsole.cpp" 1
 598              		mv a0, a0
 599              	# 0 "" 2
 600              	#NO_APP
 601              	.LBE11:
 602              	.LBE12:
 603              	.LBE14:
  78:src/KConsole.cpp ****     {
 604              		.loc 1 78 5 is_stmt 1
  78:src/KConsole.cpp ****     {
 605              		.loc 1 78 5
 606              	.LBB15:
  80:src/KConsole.cpp ****         uint64 operation;
 607              		.loc 1 80 9
  80:src/KConsole.cpp ****         uint64 operation;
 608              		.loc 1 80 50 is_stmt 0
 609              	#APP
GAS LISTING /tmp/ccKWmizW.s 			page 15


 610              	# 80 "src/KConsole.cpp" 1
  81:src/KConsole.cpp ****         __asm__ volatile("mv %0, a0" :  "=r"(operation));
 611              		ld a0, CONSOLE_STATUS
 612              	# 0 "" 2
 613              		.loc 1 81 9 is_stmt 1
  82:src/KConsole.cpp ****         if(operation & STATUS_WRITE_MASK)
 614              		.loc 1 82 9
  82:src/KConsole.cpp ****         if(operation & STATUS_WRITE_MASK)
 615              		.loc 1 82 57 is_stmt 0
 616              	# 82 "src/KConsole.cpp" 1
 617              		mv a5, a0
 618              	# 0 "" 2
 619              	.LVL41:
  83:src/KConsole.cpp ****         {
 620              		.loc 1 83 9 is_stmt 1
 621              	#NO_APP
 622              	.LBB13:
  83:src/KConsole.cpp ****         {
 623              		.loc 1 83 22 is_stmt 0
 624 0348 93F70702 		andi	a5,a5,32
 625              	.LVL42:
  83:src/KConsole.cpp ****         {
 626              		.loc 1 83 9
 627 034c E39207FE 		bnez	a5,.L40
 628              	.LBE13:
 629              	.LBE15:
  92:src/KConsole.cpp **** 
 630              		.loc 1 92 1
 631 0350 83308100 		ld	ra,8(sp)
 632              		.cfi_restore 1
 633 0354 03340100 		ld	s0,0(sp)
 634              		.cfi_restore 8
 635              		.cfi_def_cfa 2, 16
 636 0358 13010101 		addi	sp,sp,16
 637              		.cfi_def_cfa_offset 0
 638 035c 67800000 		jr	ra
 639              	.LVL43:
 640              	.L44:
 641 0360 67800000 		ret
 642              		.cfi_endproc
 643              	.LFE25:
 645              		.globl	_ZN8KConsole18hasCharactersInputE
 646              		.globl	_ZN8KConsole19hasCharactersOutputE
 647              		.globl	_ZN8KConsole10tailOutputE
 648              		.globl	_ZN8KConsole10headOutputE
 649              		.globl	_ZN8KConsole9tailInputE
 650              		.globl	_ZN8KConsole9headInputE
 651              		.bss
 652              		.align	3
 653              		.set	.LANCHOR0,. + 0
 656              	_ZN8KConsole18hasCharactersInputE:
 657 0000 00000000 		.zero	8
 657      00000000 
 660              	_ZN8KConsole19hasCharactersOutputE:
 661 0008 00000000 		.zero	8
 661      00000000 
 664              	_ZN8KConsole9tailInputE:
GAS LISTING /tmp/ccKWmizW.s 			page 16


 665 0010 00000000 		.zero	8
 665      00000000 
 668              	_ZN8KConsole9headInputE:
 669 0018 00000000 		.zero	8
 669      00000000 
 672              	_ZN8KConsole10tailOutputE:
 673 0020 00000000 		.zero	8
 673      00000000 
 676              	_ZN8KConsole10headOutputE:
 677 0028 00000000 		.zero	8
 677      00000000 
 678              		.text
 679              	.Letext0:
 680              		.file 2 "src/../h/../lib/hw.h"
 681              		.file 3 "src/../h/PCB.hpp"
 682              		.file 4 "src/../h/KSemaphore.hpp"
 683              		.file 5 "src/../h/KConsole.hpp"
 684              		.file 6 "src/../h/MemoryAllocator.hpp"
 3523              		.align	3
 3526              	DW.ref.__gxx_personality_v0:
 3527 0000 00000000 		.dword	__gxx_personality_v0
 3527      00000000 
 3528              		.ident	"GCC: (Ubuntu 9.3.0-17ubuntu1~20.04) 9.3.0"
 3529              		.section	.note.GNU-stack,"",@progbits
GAS LISTING /tmp/ccKWmizW.s 			page 17


DEFINED SYMBOLS
                            *ABS*:0000000000000000 KConsole.cpp
     /tmp/ccKWmizW.s:9      .text:0000000000000000 _ZN8KConsole7putCharEcRPNS_4ElemES2_
     /tmp/ccKWmizW.s:13     .text:0000000000000000 .L0 
     /tmp/ccKWmizW.s:15     .text:0000000000000000 .L0 
     /tmp/ccKWmizW.s:16     .text:0000000000000004 .L0 
     /tmp/ccKWmizW.s:22     .text:0000000000000018 .L0 
     /tmp/ccKWmizW.s:23     .text:0000000000000018 .L0 
     /tmp/ccKWmizW.s:24     .text:0000000000000018 .L0 
     /tmp/ccKWmizW.s:25     .text:0000000000000018 .L0 
     /tmp/ccKWmizW.s:26     .text:0000000000000018 .L0 
     /tmp/ccKWmizW.s:28     .text:000000000000001c .L0 
     /tmp/ccKWmizW.s:33     .text:0000000000000028 .L0 
     /tmp/ccKWmizW.s:34     .text:0000000000000028 .L0 
     /tmp/ccKWmizW.s:39     .text:0000000000000034 .L0 
     /tmp/ccKWmizW.s:40     .text:0000000000000034 .L0 
     /tmp/ccKWmizW.s:42     .text:0000000000000038 .L0 
     /tmp/ccKWmizW.s:43     .text:0000000000000038 .L0 
     /tmp/ccKWmizW.s:45     .text:000000000000003c .L0 
     /tmp/ccKWmizW.s:46     .text:000000000000003c .L0 
     /tmp/ccKWmizW.s:48     .text:0000000000000040 .L0 
     /tmp/ccKWmizW.s:50     .text:0000000000000044 .L0 
     /tmp/ccKWmizW.s:52     .text:0000000000000048 .L0 
     /tmp/ccKWmizW.s:54     .text:000000000000004c .L0 
     /tmp/ccKWmizW.s:55     .text:000000000000004c .L0 
     /tmp/ccKWmizW.s:58     .text:0000000000000050 .L0 
     /tmp/ccKWmizW.s:59     .text:0000000000000054 .L0 
     /tmp/ccKWmizW.s:60     .text:0000000000000054 .L0 
     /tmp/ccKWmizW.s:62     .text:0000000000000058 .L0 
     /tmp/ccKWmizW.s:63     .text:0000000000000058 .L0 
     /tmp/ccKWmizW.s:65     .text:000000000000005c .L0 
     /tmp/ccKWmizW.s:68     .text:0000000000000060 .L0 
     /tmp/ccKWmizW.s:71     .text:0000000000000064 .L0 
     /tmp/ccKWmizW.s:73     .text:0000000000000068 .L0 
     /tmp/ccKWmizW.s:77     .text:000000000000006c .L0 
     /tmp/ccKWmizW.s:79     .text:000000000000006c .L0 
     /tmp/ccKWmizW.s:80     .text:000000000000006c .L0 
     /tmp/ccKWmizW.s:82     .text:0000000000000070 .L0 
     /tmp/ccKWmizW.s:84     .text:0000000000000078 .L0 
     /tmp/ccKWmizW.s:90     .text:0000000000000078 _ZN8KConsole7getCharERPNS_4ElemES2_
     /tmp/ccKWmizW.s:93     .text:0000000000000078 .L0 
     /tmp/ccKWmizW.s:95     .text:0000000000000078 .L0 
     /tmp/ccKWmizW.s:96     .text:000000000000007c .L0 
     /tmp/ccKWmizW.s:100    .text:0000000000000088 .L0 
     /tmp/ccKWmizW.s:101    .text:0000000000000088 .L0 
     /tmp/ccKWmizW.s:102    .text:0000000000000088 .L0 
     /tmp/ccKWmizW.s:104    .text:000000000000008c .L0 
     /tmp/ccKWmizW.s:107    .text:0000000000000090 .L0 
     /tmp/ccKWmizW.s:108    .text:0000000000000090 .L0 
     /tmp/ccKWmizW.s:111    .text:0000000000000094 .L0 
     /tmp/ccKWmizW.s:114    .text:0000000000000098 .L0 
     /tmp/ccKWmizW.s:115    .text:0000000000000098 .L0 
     /tmp/ccKWmizW.s:116    .text:0000000000000098 .L0 
     /tmp/ccKWmizW.s:118    .text:000000000000009c .L0 
     /tmp/ccKWmizW.s:120    .text:00000000000000a0 .L0 
     /tmp/ccKWmizW.s:123    .text:00000000000000a4 .L0 
     /tmp/ccKWmizW.s:124    .text:00000000000000a4 .L0 
GAS LISTING /tmp/ccKWmizW.s 			page 18


     /tmp/ccKWmizW.s:127    .text:00000000000000a8 .L0 
     /tmp/ccKWmizW.s:128    .text:00000000000000a8 .L0 
     /tmp/ccKWmizW.s:132    .text:00000000000000b0 .L0 
     /tmp/ccKWmizW.s:133    .text:00000000000000b0 .L0 
     /tmp/ccKWmizW.s:135    .text:00000000000000b8 .L0 
     /tmp/ccKWmizW.s:136    .text:00000000000000b8 .L0 
     /tmp/ccKWmizW.s:138    .text:00000000000000bc .L0 
     /tmp/ccKWmizW.s:139    .text:00000000000000bc .L0 
     /tmp/ccKWmizW.s:141    .text:00000000000000c0 .L0 
     /tmp/ccKWmizW.s:143    .text:00000000000000c4 .L0 
     /tmp/ccKWmizW.s:147    .text:00000000000000c8 .L0 
     /tmp/ccKWmizW.s:149    .text:00000000000000c8 .L0 
     /tmp/ccKWmizW.s:150    .text:00000000000000c8 .L0 
     /tmp/ccKWmizW.s:155    .text:00000000000000d0 .L0 
     /tmp/ccKWmizW.s:157    .text:00000000000000d8 .L0 
     /tmp/ccKWmizW.s:163    .text:00000000000000d8 _ZN8KConsole10initializeEv
     /tmp/ccKWmizW.s:166    .text:00000000000000d8 .L0 
     /tmp/ccKWmizW.s:3526   .data.rel.local.DW.ref.__gxx_personality_v0:0000000000000000 DW.ref.__gxx_personality_v0
     /tmp/ccKWmizW.s:169    .text:00000000000000d8 .L0 
     /tmp/ccKWmizW.s:170    .text:00000000000000dc .L0 
     /tmp/ccKWmizW.s:175    .text:00000000000000ec .L0 
     /tmp/ccKWmizW.s:176    .text:00000000000000ec .L0 
     /tmp/ccKWmizW.s:177    .text:00000000000000ec .L0 
     /tmp/ccKWmizW.s:178    .text:00000000000000ec .L0 
     /tmp/ccKWmizW.s:180    .text:00000000000000f0 .L0 
     /tmp/ccKWmizW.s:182    .text:00000000000000f0 .L0 
     /tmp/ccKWmizW.s:183    .text:00000000000000f0 .L0 
     /tmp/ccKWmizW.s:195    .text:000000000000010c .L0 
     /tmp/ccKWmizW.s:197    .text:0000000000000114 .L0 
     /tmp/ccKWmizW.s:198    .text:0000000000000114 .L0 
     /tmp/ccKWmizW.s:210    .text:0000000000000130 .L0 
     /tmp/ccKWmizW.s:212    .text:0000000000000138 .L0 
     /tmp/ccKWmizW.s:213    .text:000000000000013c .L0 
     /tmp/ccKWmizW.s:214    .text:000000000000013c .L0 
     /tmp/ccKWmizW.s:216    .text:0000000000000140 .L0 
     /tmp/ccKWmizW.s:217    .text:0000000000000140 .L0 
     /tmp/ccKWmizW.s:219    .text:0000000000000144 .L0 
     /tmp/ccKWmizW.s:221    .text:0000000000000148 .L0 
     /tmp/ccKWmizW.s:223    .text:000000000000014c .L0 
     /tmp/ccKWmizW.s:226    .text:0000000000000150 .L0 
     /tmp/ccKWmizW.s:229    .text:0000000000000154 .L0 
     /tmp/ccKWmizW.s:240    .text:0000000000000170 .L0 
     /tmp/ccKWmizW.s:248    .text:0000000000000188 .L0 
     /tmp/ccKWmizW.s:286    .text:0000000000000188 _ZN8KConsole17putCharacterInputEc
     /tmp/ccKWmizW.s:289    .text:0000000000000188 .L0 
     /tmp/ccKWmizW.s:291    .text:0000000000000188 .L0 
     /tmp/ccKWmizW.s:292    .text:000000000000018c .L0 
     /tmp/ccKWmizW.s:295    .text:0000000000000194 .L0 
     /tmp/ccKWmizW.s:296    .text:0000000000000194 .L0 
     /tmp/ccKWmizW.s:298    .text:0000000000000198 .L0 
     /tmp/ccKWmizW.s:300    .text:0000000000000198 .L0 
     /tmp/ccKWmizW.s:301    .text:0000000000000198 .L0 
     /tmp/ccKWmizW.s:306    .text:00000000000001b0 .L0 
     /tmp/ccKWmizW.s:307    .text:00000000000001b0 .L0 
     /tmp/ccKWmizW.s:311    .text:00000000000001c0 .L0 
     /tmp/ccKWmizW.s:312    .text:00000000000001c4 .L0 
     /tmp/ccKWmizW.s:314    .text:00000000000001c8 .L0 
GAS LISTING /tmp/ccKWmizW.s 			page 19


     /tmp/ccKWmizW.s:315    .text:00000000000001c8 .L0 
     /tmp/ccKWmizW.s:317    .text:00000000000001cc .L0 
     /tmp/ccKWmizW.s:319    .text:00000000000001d0 .L0 
     /tmp/ccKWmizW.s:325    .text:00000000000001d0 _ZN8KConsole24getCharactersFromConsoleEv
     /tmp/ccKWmizW.s:328    .text:00000000000001d0 .L0 
     /tmp/ccKWmizW.s:329    .text:00000000000001d0 .L0 
     /tmp/ccKWmizW.s:331    .text:00000000000001d0 .L0 
     /tmp/ccKWmizW.s:332    .text:00000000000001d0 .L0 
    src/KConsole.cpp:60     .text:00000000000001d0 .L0 
     /tmp/ccKWmizW.s:338    .text:00000000000001d8 .L0 
     /tmp/ccKWmizW.s:339    .text:00000000000001d8 .L0 
    src/KConsole.cpp:62     .text:00000000000001d8 .L0 
     /tmp/ccKWmizW.s:347    .text:00000000000001dc .L0 
     /tmp/ccKWmizW.s:348    .text:00000000000001dc .L0 
     /tmp/ccKWmizW.s:351    .text:00000000000001e0 .L0 
     /tmp/ccKWmizW.s:355    .text:00000000000001e4 .L0 
     /tmp/ccKWmizW.s:356    .text:00000000000001e8 .L0 
     /tmp/ccKWmizW.s:359    .text:00000000000001f0 .L0 
     /tmp/ccKWmizW.s:360    .text:00000000000001f0 .L0 
     /tmp/ccKWmizW.s:362    .text:00000000000001f4 .L0 
     /tmp/ccKWmizW.s:368    .text:00000000000001f4 .L0 
    src/KConsole.cpp:65     .text:00000000000001f4 .L0 
     /tmp/ccKWmizW.s:374    .text:00000000000001fc .L0 
     /tmp/ccKWmizW.s:375    .text:00000000000001fc .L0 
    src/KConsole.cpp:67     .text:00000000000001fc .L0 
     /tmp/ccKWmizW.s:381    .text:0000000000000200 .L0 
     /tmp/ccKWmizW.s:383    .text:0000000000000200 .L0 
     /tmp/ccKWmizW.s:391    .text:000000000000020c .L0 
     /tmp/ccKWmizW.s:393    .text:000000000000020c .L0 
     /tmp/ccKWmizW.s:394    .text:000000000000020c .L0 
    src/KConsole.cpp:60     .text:000000000000020c .L0 
     /tmp/ccKWmizW.s:400    .text:0000000000000214 .L0 
     /tmp/ccKWmizW.s:401    .text:0000000000000214 .L0 
    src/KConsole.cpp:62     .text:0000000000000214 .L0 
     /tmp/ccKWmizW.s:409    .text:0000000000000218 .L0 
     /tmp/ccKWmizW.s:410    .text:0000000000000218 .L0 
     /tmp/ccKWmizW.s:413    .text:000000000000021c .L0 
     /tmp/ccKWmizW.s:417    .text:0000000000000220 .L0 
     /tmp/ccKWmizW.s:418    .text:0000000000000224 .L0 
     /tmp/ccKWmizW.s:420    .text:0000000000000228 .L0 
     /tmp/ccKWmizW.s:421    .text:0000000000000228 .L0 
     /tmp/ccKWmizW.s:423    .text:000000000000022c .L0 
     /tmp/ccKWmizW.s:427    .text:0000000000000234 .L0 
     /tmp/ccKWmizW.s:433    .text:0000000000000234 _ZN8KConsole17getCharacterInputEv
     /tmp/ccKWmizW.s:436    .text:0000000000000234 .L0 
     /tmp/ccKWmizW.s:437    .text:0000000000000234 .L0 
     /tmp/ccKWmizW.s:438    .text:0000000000000238 .L0 
     /tmp/ccKWmizW.s:441    .text:0000000000000240 .L0 
     /tmp/ccKWmizW.s:442    .text:0000000000000240 .L0 
     /tmp/ccKWmizW.s:444    .text:0000000000000244 .L0 
     /tmp/ccKWmizW.s:446    .text:0000000000000244 .L0 
     /tmp/ccKWmizW.s:447    .text:0000000000000244 .L0 
     /tmp/ccKWmizW.s:451    .text:0000000000000254 .L0 
     /tmp/ccKWmizW.s:452    .text:0000000000000254 .L0 
     /tmp/ccKWmizW.s:457    .text:000000000000026c .L0 
     /tmp/ccKWmizW.s:458    .text:0000000000000270 .L0 
     /tmp/ccKWmizW.s:460    .text:0000000000000274 .L0 
GAS LISTING /tmp/ccKWmizW.s 			page 20


     /tmp/ccKWmizW.s:461    .text:0000000000000274 .L0 
     /tmp/ccKWmizW.s:463    .text:0000000000000278 .L0 
     /tmp/ccKWmizW.s:465    .text:000000000000027c .L0 
     /tmp/ccKWmizW.s:471    .text:000000000000027c _ZN8KConsole18putCharacterOutputEc
     /tmp/ccKWmizW.s:474    .text:000000000000027c .L0 
     /tmp/ccKWmizW.s:476    .text:000000000000027c .L0 
     /tmp/ccKWmizW.s:477    .text:0000000000000280 .L0 
     /tmp/ccKWmizW.s:480    .text:0000000000000288 .L0 
     /tmp/ccKWmizW.s:481    .text:0000000000000288 .L0 
     /tmp/ccKWmizW.s:483    .text:000000000000028c .L0 
     /tmp/ccKWmizW.s:485    .text:000000000000028c .L0 
     /tmp/ccKWmizW.s:486    .text:000000000000028c .L0 
     /tmp/ccKWmizW.s:491    .text:00000000000002a4 .L0 
     /tmp/ccKWmizW.s:492    .text:00000000000002a4 .L0 
     /tmp/ccKWmizW.s:496    .text:00000000000002b4 .L0 
     /tmp/ccKWmizW.s:497    .text:00000000000002b8 .L0 
     /tmp/ccKWmizW.s:499    .text:00000000000002bc .L0 
     /tmp/ccKWmizW.s:500    .text:00000000000002bc .L0 
     /tmp/ccKWmizW.s:502    .text:00000000000002c0 .L0 
     /tmp/ccKWmizW.s:504    .text:00000000000002c4 .L0 
     /tmp/ccKWmizW.s:510    .text:00000000000002c4 _ZN8KConsole18getCharacterOutputEv
     /tmp/ccKWmizW.s:513    .text:00000000000002c4 .L0 
     /tmp/ccKWmizW.s:514    .text:00000000000002c4 .L0 
     /tmp/ccKWmizW.s:515    .text:00000000000002c8 .L0 
     /tmp/ccKWmizW.s:518    .text:00000000000002d0 .L0 
     /tmp/ccKWmizW.s:519    .text:00000000000002d0 .L0 
     /tmp/ccKWmizW.s:521    .text:00000000000002d4 .L0 
     /tmp/ccKWmizW.s:523    .text:00000000000002d4 .L0 
     /tmp/ccKWmizW.s:524    .text:00000000000002d4 .L0 
     /tmp/ccKWmizW.s:528    .text:00000000000002e4 .L0 
     /tmp/ccKWmizW.s:529    .text:00000000000002e4 .L0 
     /tmp/ccKWmizW.s:534    .text:00000000000002fc .L0 
     /tmp/ccKWmizW.s:535    .text:0000000000000300 .L0 
     /tmp/ccKWmizW.s:537    .text:0000000000000304 .L0 
     /tmp/ccKWmizW.s:538    .text:0000000000000304 .L0 
     /tmp/ccKWmizW.s:540    .text:0000000000000308 .L0 
     /tmp/ccKWmizW.s:542    .text:000000000000030c .L0 
     /tmp/ccKWmizW.s:548    .text:000000000000030c _ZN8KConsole23sendCharactersToConsoleEv
     /tmp/ccKWmizW.s:551    .text:000000000000030c .L0 
     /tmp/ccKWmizW.s:552    .text:000000000000030c .L0 
     /tmp/ccKWmizW.s:554    .text:000000000000030c .L0 
     /tmp/ccKWmizW.s:555    .text:000000000000030c .L0 
    src/KConsole.cpp:80     .text:000000000000030c .L0 
     /tmp/ccKWmizW.s:561    .text:0000000000000314 .L0 
     /tmp/ccKWmizW.s:562    .text:0000000000000314 .L0 
    src/KConsole.cpp:82     .text:0000000000000314 .L0 
     /tmp/ccKWmizW.s:570    .text:0000000000000318 .L0 
     /tmp/ccKWmizW.s:571    .text:0000000000000318 .L0 
     /tmp/ccKWmizW.s:574    .text:000000000000031c .L0 
     /tmp/ccKWmizW.s:578    .text:0000000000000320 .L0 
     /tmp/ccKWmizW.s:579    .text:0000000000000324 .L0 
     /tmp/ccKWmizW.s:582    .text:000000000000032c .L0 
     /tmp/ccKWmizW.s:583    .text:000000000000032c .L0 
     /tmp/ccKWmizW.s:585    .text:0000000000000330 .L0 
     /tmp/ccKWmizW.s:591    .text:0000000000000330 .L0 
     /tmp/ccKWmizW.s:592    .text:0000000000000330 .L0 
     /tmp/ccKWmizW.s:595    .text:0000000000000338 .L0 
GAS LISTING /tmp/ccKWmizW.s 			page 21


    src/KConsole.cpp:86     .text:0000000000000338 .L0 
     /tmp/ccKWmizW.s:605    .text:000000000000033c .L0 
     /tmp/ccKWmizW.s:607    .text:000000000000033c .L0 
     /tmp/ccKWmizW.s:608    .text:000000000000033c .L0 
    src/KConsole.cpp:80     .text:000000000000033c .L0 
     /tmp/ccKWmizW.s:614    .text:0000000000000344 .L0 
     /tmp/ccKWmizW.s:615    .text:0000000000000344 .L0 
    src/KConsole.cpp:82     .text:0000000000000344 .L0 
     /tmp/ccKWmizW.s:623    .text:0000000000000348 .L0 
     /tmp/ccKWmizW.s:624    .text:0000000000000348 .L0 
     /tmp/ccKWmizW.s:627    .text:000000000000034c .L0 
     /tmp/ccKWmizW.s:631    .text:0000000000000350 .L0 
     /tmp/ccKWmizW.s:632    .text:0000000000000354 .L0 
     /tmp/ccKWmizW.s:634    .text:0000000000000358 .L0 
     /tmp/ccKWmizW.s:635    .text:0000000000000358 .L0 
     /tmp/ccKWmizW.s:637    .text:000000000000035c .L0 
     /tmp/ccKWmizW.s:642    .text:0000000000000364 .L0 
     /tmp/ccKWmizW.s:656    .bss:0000000000000000 _ZN8KConsole18hasCharactersInputE
     /tmp/ccKWmizW.s:660    .bss:0000000000000008 _ZN8KConsole19hasCharactersOutputE
     /tmp/ccKWmizW.s:672    .bss:0000000000000020 _ZN8KConsole10tailOutputE
     /tmp/ccKWmizW.s:676    .bss:0000000000000028 _ZN8KConsole10headOutputE
     /tmp/ccKWmizW.s:664    .bss:0000000000000010 _ZN8KConsole9tailInputE
     /tmp/ccKWmizW.s:668    .bss:0000000000000018 _ZN8KConsole9headInputE
     /tmp/ccKWmizW.s:653    .bss:0000000000000000 .LANCHOR0
     /tmp/ccKWmizW.s:685    .text:0000000000000364 .L0 
     /tmp/ccKWmizW.s:195    .text:000000000000010c .L0 
     /tmp/ccKWmizW.s:210    .text:0000000000000130 .L0 
     /tmp/ccKWmizW.s:301    .text:0000000000000198 .L0 
     /tmp/ccKWmizW.s:302    .text:00000000000001a0 .L0 
     /tmp/ccKWmizW.s:307    .text:00000000000001b0 .L0 
    src/KConsole.cpp:60     .text:00000000000001d0 .L0 
    src/KConsole.cpp:65     .text:00000000000001f4 .L0 
    src/KConsole.cpp:60     .text:000000000000020c .L0 
     /tmp/ccKWmizW.s:447    .text:0000000000000244 .L0 
     /tmp/ccKWmizW.s:452    .text:0000000000000254 .L0 
     /tmp/ccKWmizW.s:453    .text:000000000000025c .L0 
     /tmp/ccKWmizW.s:486    .text:000000000000028c .L0 
     /tmp/ccKWmizW.s:487    .text:0000000000000294 .L0 
     /tmp/ccKWmizW.s:492    .text:00000000000002a4 .L0 
     /tmp/ccKWmizW.s:524    .text:00000000000002d4 .L0 
     /tmp/ccKWmizW.s:529    .text:00000000000002e4 .L0 
     /tmp/ccKWmizW.s:530    .text:00000000000002ec .L0 
    src/KConsole.cpp:80     .text:000000000000030c .L0 
    src/KConsole.cpp:80     .text:000000000000033c .L0 
     /tmp/ccKWmizW.s:76     .text:000000000000006c .L5
     /tmp/ccKWmizW.s:56     .text:0000000000000050 .L1
     /tmp/ccKWmizW.s:153    .text:00000000000000d0 .L9
     /tmp/ccKWmizW.s:146    .text:00000000000000c8 .L11
     /tmp/ccKWmizW.s:121    .text:00000000000000a4 .L8
     /tmp/ccKWmizW.s:131    .text:00000000000000b0 .L7
     /tmp/ccKWmizW.s:425    .text:0000000000000230 .L29
     /tmp/ccKWmizW.s:363    .text:00000000000001f4 .L25
     /tmp/ccKWmizW.s:640    .text:0000000000000360 .L44
     /tmp/ccKWmizW.s:586    .text:0000000000000330 .L40
     /tmp/ccKWmizW.s:184    .text:00000000000000f4 .LEHB0
     /tmp/ccKWmizW.s:164    .text:00000000000000d8 .LFB23
     /tmp/ccKWmizW.s:187    .text:00000000000000fc .LEHE0
GAS LISTING /tmp/ccKWmizW.s 			page 22


     /tmp/ccKWmizW.s:190    .text:0000000000000104 .LEHB1
     /tmp/ccKWmizW.s:193    .text:000000000000010c .LEHE1
     /tmp/ccKWmizW.s:225    .text:0000000000000150 .L15
     /tmp/ccKWmizW.s:199    .text:0000000000000118 .LEHB2
     /tmp/ccKWmizW.s:202    .text:0000000000000120 .LEHE2
     /tmp/ccKWmizW.s:205    .text:0000000000000128 .LEHB3
     /tmp/ccKWmizW.s:208    .text:0000000000000130 .LEHE3
     /tmp/ccKWmizW.s:237    .text:000000000000016c .L16
     /tmp/ccKWmizW.s:233    .text:0000000000000164 .LEHB4
     /tmp/ccKWmizW.s:236    .text:000000000000016c .LEHE4
     /tmp/ccKWmizW.s:244    .text:0000000000000180 .LEHB5
     /tmp/ccKWmizW.s:247    .text:0000000000000188 .LEHE5
     /tmp/ccKWmizW.s:2091   .debug_abbrev:0000000000000000 .Ldebug_abbrev0
     /tmp/ccKWmizW.s:3246   .debug_str:0000000000000133 .LASF143
     /tmp/ccKWmizW.s:3470   .debug_str:000000000000089d .LASF144
     /tmp/ccKWmizW.s:3468   .debug_str:000000000000087a .LASF145
     /tmp/ccKWmizW.s:5      .text:0000000000000000 .Ltext0
     /tmp/ccKWmizW.s:679    .text:0000000000000364 .Letext0
     /tmp/ccKWmizW.s:3212   .debug_line:0000000000000000 .Ldebug_line0
     /tmp/ccKWmizW.s:3322   .debug_str:0000000000000412 .LASF0
     /tmp/ccKWmizW.s:3346   .debug_str:00000000000004ec .LASF1
     /tmp/ccKWmizW.s:3408   .debug_str:00000000000006d1 .LASF2
     /tmp/ccKWmizW.s:3422   .debug_str:0000000000000754 .LASF4
     /tmp/ccKWmizW.s:3332   .debug_str:0000000000000463 .LASF3
     /tmp/ccKWmizW.s:3228   .debug_str:000000000000005d .LASF5
     /tmp/ccKWmizW.s:3400   .debug_str:000000000000069e .LASF6
     /tmp/ccKWmizW.s:3396   .debug_str:0000000000000683 .LASF7
     /tmp/ccKWmizW.s:3338   .debug_str:00000000000004ab .LASF8
     /tmp/ccKWmizW.s:3308   .debug_str:00000000000003b1 .LASF9
     /tmp/ccKWmizW.s:3314   .debug_str:00000000000003ed .LASF10
     /tmp/ccKWmizW.s:3258   .debug_str:0000000000000255 .LASF11
     /tmp/ccKWmizW.s:3300   .debug_str:0000000000000385 .LASF12
     /tmp/ccKWmizW.s:3272   .debug_str:000000000000029a .LASF13
     /tmp/ccKWmizW.s:3256   .debug_str:0000000000000245 .LASF14
     /tmp/ccKWmizW.s:3448   .debug_str:0000000000000817 .LASF15
     /tmp/ccKWmizW.s:3292   .debug_str:0000000000000330 .LASF16
     /tmp/ccKWmizW.s:3440   .debug_str:00000000000007d8 .LASF17
     /tmp/ccKWmizW.s:3460   .debug_str:0000000000000852 .LASF146
     /tmp/ccKWmizW.s:3254   .debug_str:000000000000023f .LASF18
     /tmp/ccKWmizW.s:3432   .debug_str:00000000000007a0 .LASF19
     /tmp/ccKWmizW.s:3266   .debug_str:000000000000027b .LASF20
     /tmp/ccKWmizW.s:3242   .debug_str:0000000000000107 .LASF21
     /tmp/ccKWmizW.s:3398   .debug_str:0000000000000696 .LASF22
     /tmp/ccKWmizW.s:3264   .debug_str:0000000000000272 .LASF23
     /tmp/ccKWmizW.s:3456   .debug_str:0000000000000845 .LASF67
     /tmp/ccKWmizW.s:3318   .debug_str:0000000000000406 .LASF24
     /tmp/ccKWmizW.s:3474   .debug_str:00000000000008b6 .LASF147
     /tmp/ccKWmizW.s:3386   .debug_str:0000000000000635 .LASF148
     /tmp/ccKWmizW.s:3344   .debug_str:00000000000004e7 .LASF25
     /tmp/ccKWmizW.s:3510   .debug_str:00000000000009ea .LASF27
     /tmp/ccKWmizW.s:3506   .debug_str:00000000000009ce .LASF26
     /tmp/ccKWmizW.s:3464   .debug_str:0000000000000860 .LASF28
     /tmp/ccKWmizW.s:3280   .debug_str:00000000000002cd .LASF51
     /tmp/ccKWmizW.s:3234   .debug_str:000000000000009e .LASF53
     /tmp/ccKWmizW.s:3350   .debug_str:0000000000000508 .LASF33
     /tmp/ccKWmizW.s:3388   .debug_str:000000000000063a .LASF35
     /tmp/ccKWmizW.s:3462   .debug_str:0000000000000858 .LASF29
GAS LISTING /tmp/ccKWmizW.s 			page 23


     /tmp/ccKWmizW.s:3428   .debug_str:0000000000000786 .LASF30
     /tmp/ccKWmizW.s:3352   .debug_str:000000000000050e .LASF37
     /tmp/ccKWmizW.s:3356   .debug_str:0000000000000533 .LASF39
     /tmp/ccKWmizW.s:3514   .debug_str:0000000000000a06 .LASF31
     /tmp/ccKWmizW.s:3296   .debug_str:0000000000000368 .LASF32
     /tmp/ccKWmizW.s:3222   .debug_str:0000000000000038 .LASF34
     /tmp/ccKWmizW.s:3328   .debug_str:000000000000044e .LASF36
     /tmp/ccKWmizW.s:3430   .debug_str:0000000000000797 .LASF38
     /tmp/ccKWmizW.s:3372   .debug_str:00000000000005c9 .LASF40
     /tmp/ccKWmizW.s:3416   .debug_str:000000000000071a .LASF41
     /tmp/ccKWmizW.s:3444   .debug_str:00000000000007f6 .LASF42
     /tmp/ccKWmizW.s:3374   .debug_str:00000000000005dc .LASF43
     /tmp/ccKWmizW.s:3218   .debug_str:0000000000000019 .LASF44
     /tmp/ccKWmizW.s:3498   .debug_str:000000000000099b .LASF45
     /tmp/ccKWmizW.s:3394   .debug_str:0000000000000669 .LASF46
     /tmp/ccKWmizW.s:3438   .debug_str:00000000000007ca .LASF47
     /tmp/ccKWmizW.s:3402   .debug_str:00000000000006a5 .LASF48
     /tmp/ccKWmizW.s:3278   .debug_str:00000000000002bd .LASF49
     /tmp/ccKWmizW.s:3500   .debug_str:00000000000009aa .LASF50
     /tmp/ccKWmizW.s:3334   .debug_str:0000000000000475 .LASF55
     /tmp/ccKWmizW.s:3436   .debug_str:00000000000007bf .LASF52
     /tmp/ccKWmizW.s:3508   .debug_str:00000000000009d4 .LASF54
     /tmp/ccKWmizW.s:3426   .debug_str:000000000000077e .LASF56
     /tmp/ccKWmizW.s:3466   .debug_str:0000000000000870 .LASF57
     /tmp/ccKWmizW.s:3390   .debug_str:000000000000064a .LASF58
     /tmp/ccKWmizW.s:3276   .debug_str:00000000000002af .LASF59
     /tmp/ccKWmizW.s:3238   .debug_str:00000000000000cc .LASF61
     /tmp/ccKWmizW.s:3326   .debug_str:0000000000000439 .LASF60
     /tmp/ccKWmizW.s:3252   .debug_str:0000000000000213 .LASF62
     /tmp/ccKWmizW.s:3496   .debug_str:0000000000000994 .LASF149
     /tmp/ccKWmizW.s:3250   .debug_str:0000000000000202 .LASF150
     /tmp/ccKWmizW.s:3220   .debug_str:0000000000000033 .LASF63
     /tmp/ccKWmizW.s:3480   .debug_str:00000000000008f2 .LASF64
     /tmp/ccKWmizW.s:3360   .debug_str:0000000000000565 .LASF65
     /tmp/ccKWmizW.s:3284   .debug_str:00000000000002db .LASF66
     /tmp/ccKWmizW.s:3472   .debug_str:00000000000008ae .LASF68
     /tmp/ccKWmizW.s:3458   .debug_str:000000000000084d .LASF69
     /tmp/ccKWmizW.s:3364   .debug_str:0000000000000577 .LASF70
     /tmp/ccKWmizW.s:3404   .debug_str:00000000000006b1 .LASF71
     /tmp/ccKWmizW.s:3310   .debug_str:00000000000003c1 .LASF72
     /tmp/ccKWmizW.s:3410   .debug_str:00000000000006df .LASF73
     /tmp/ccKWmizW.s:3286   .debug_str:00000000000002e1 .LASF74
     /tmp/ccKWmizW.s:3282   .debug_str:00000000000002d6 .LASF75
     /tmp/ccKWmizW.s:3434   .debug_str:00000000000007a8 .LASF76
     /tmp/ccKWmizW.s:3452   .debug_str:0000000000000836 .LASF77
     /tmp/ccKWmizW.s:3380   .debug_str:000000000000060e .LASF78
     /tmp/ccKWmizW.s:3216   .debug_str:000000000000000d .LASF79
     /tmp/ccKWmizW.s:3412   .debug_str:00000000000006eb .LASF80
     /tmp/ccKWmizW.s:3366   .debug_str:000000000000057c .LASF81
     /tmp/ccKWmizW.s:3406   .debug_str:00000000000006bc .LASF82
     /tmp/ccKWmizW.s:3262   .debug_str:0000000000000269 .LASF83
     /tmp/ccKWmizW.s:3268   .debug_str:0000000000000285 .LASF84
     /tmp/ccKWmizW.s:3378   .debug_str:0000000000000605 .LASF85
     /tmp/ccKWmizW.s:3420   .debug_str:0000000000000749 .LASF86
     /tmp/ccKWmizW.s:3348   .debug_str:00000000000004ff .LASF87
     /tmp/ccKWmizW.s:3320   .debug_str:000000000000040c .LASF88
     /tmp/ccKWmizW.s:3518   .debug_str:0000000000000a1e .LASF89
GAS LISTING /tmp/ccKWmizW.s 			page 24


     /tmp/ccKWmizW.s:3224   .debug_str:0000000000000048 .LASF90
     /tmp/ccKWmizW.s:3358   .debug_str:000000000000054b .LASF91
     /tmp/ccKWmizW.s:3512   .debug_str:00000000000009f6 .LASF92
     /tmp/ccKWmizW.s:3424   .debug_str:000000000000075b .LASF93
     /tmp/ccKWmizW.s:3450   .debug_str:0000000000000823 .LASF94
     /tmp/ccKWmizW.s:3418   .debug_str:0000000000000723 .LASF95
     /tmp/ccKWmizW.s:3214   .debug_str:0000000000000000 .LASF96
     /tmp/ccKWmizW.s:3342   .debug_str:00000000000004c3 .LASF97
     /tmp/ccKWmizW.s:3384   .debug_str:000000000000062c .LASF98
     /tmp/ccKWmizW.s:3274   .debug_str:00000000000002aa .LASF99
     /tmp/ccKWmizW.s:3260   .debug_str:0000000000000264 .LASF100
     /tmp/ccKWmizW.s:3340   .debug_str:00000000000004be .LASF101
     /tmp/ccKWmizW.s:3302   .debug_str:0000000000000394 .LASF102
     /tmp/ccKWmizW.s:3502   .debug_str:00000000000009b5 .LASF103
     /tmp/ccKWmizW.s:3270   .debug_str:000000000000028f .LASF104
     /tmp/ccKWmizW.s:3316   .debug_str:00000000000003fb .LASF105
     /tmp/ccKWmizW.s:3392   .debug_str:0000000000000656 .LASF106
     /tmp/ccKWmizW.s:3368   .debug_str:0000000000000590 .LASF107
     /tmp/ccKWmizW.s:3454   .debug_str:000000000000083d .LASF108
     /tmp/ccKWmizW.s:3370   .debug_str:00000000000005a4 .LASF109
     /tmp/ccKWmizW.s:3330   .debug_str:000000000000045b .LASF110
     /tmp/ccKWmizW.s:3486   .debug_str:000000000000091b .LASF111
     /tmp/ccKWmizW.s:3478   .debug_str:00000000000008e0 .LASF112
     /tmp/ccKWmizW.s:3494   .debug_str:0000000000000972 .LASF113
     /tmp/ccKWmizW.s:3476   .debug_str:00000000000008ce .LASF116
     /tmp/ccKWmizW.s:3232   .debug_str:000000000000007c .LASF118
     /tmp/ccKWmizW.s:3240   .debug_str:00000000000000f4 .LASF114
     /tmp/ccKWmizW.s:3248   .debug_str:00000000000001df .LASF115
     /tmp/ccKWmizW.s:3290   .debug_str:000000000000031d .LASF117
     /tmp/ccKWmizW.s:3244   .debug_str:0000000000000110 .LASF119
     /tmp/ccKWmizW.s:3236   .debug_str:00000000000000b1 .LASF120
     /tmp/ccKWmizW.s:3492   .debug_str:0000000000000959 .LASF121
     /tmp/ccKWmizW.s:3336   .debug_str:0000000000000482 .LASF122
     /tmp/ccKWmizW.s:3354   .debug_str:000000000000051b .LASF123
     /tmp/ccKWmizW.s:3288   .debug_str:00000000000002f5 .LASF124
     /tmp/ccKWmizW.s:3298   .debug_str:0000000000000374 .LASF125
     /tmp/ccKWmizW.s:3488   .debug_str:000000000000093f .LASF126
     /tmp/ccKWmizW.s:3306   .debug_str:00000000000003a4 .LASF127
     /tmp/ccKWmizW.s:3226   .debug_str:0000000000000050 .LASF128
     /tmp/ccKWmizW.s:3482   .debug_str:00000000000008f7 .LASF129
     /tmp/ccKWmizW.s:3230   .debug_str:0000000000000064 .LASF130
     /tmp/ccKWmizW.s:3376   .debug_str:00000000000005eb .LASF131
     /tmp/ccKWmizW.s:3324   .debug_str:000000000000041f .LASF132
     /tmp/ccKWmizW.s:3414   .debug_str:00000000000006f7 .LASF133
     /tmp/ccKWmizW.s:3294   .debug_str:0000000000000346 .LASF134
     /tmp/ccKWmizW.s:511    .text:00000000000002c4 .LFB29
     /tmp/ccKWmizW.s:543    .text:000000000000030c .LFE29
     /tmp/ccKWmizW.s:526    .text:00000000000002e4 .LVL36
     /tmp/ccKWmizW.s:532    .text:00000000000002fc .LVL37
     /tmp/ccKWmizW.s:472    .text:000000000000027c .LFB28
     /tmp/ccKWmizW.s:505    .text:00000000000002c4 .LFE28
     /tmp/ccKWmizW.s:3001   .debug_loc:0000000000000000 .LLST10
     /tmp/ccKWmizW.s:489    .text:00000000000002a4 .LVL34
     /tmp/ccKWmizW.s:494    .text:00000000000002b4 .LVL35
     /tmp/ccKWmizW.s:434    .text:0000000000000234 .LFB27
     /tmp/ccKWmizW.s:466    .text:000000000000027c .LFE27
     /tmp/ccKWmizW.s:449    .text:0000000000000254 .LVL31
GAS LISTING /tmp/ccKWmizW.s 			page 25


     /tmp/ccKWmizW.s:455    .text:000000000000026c .LVL32
     /tmp/ccKWmizW.s:287    .text:0000000000000188 .LFB26
     /tmp/ccKWmizW.s:320    .text:00000000000001d0 .LFE26
     /tmp/ccKWmizW.s:3015   .debug_loc:0000000000000039 .LLST7
     /tmp/ccKWmizW.s:304    .text:00000000000001b0 .LVL22
     /tmp/ccKWmizW.s:309    .text:00000000000001c0 .LVL23
     /tmp/ccKWmizW.s:549    .text:000000000000030c .LFB25
     /tmp/ccKWmizW.s:643    .text:0000000000000364 .LFE25
     /tmp/ccKWmizW.s:3194   .debug_ranges:0000000000000000 .Ldebug_ranges0
     /tmp/ccKWmizW.s:3362   .debug_str:000000000000056d .LASF135
     /tmp/ccKWmizW.s:3029   .debug_loc:0000000000000072 .LLST11
     /tmp/ccKWmizW.s:589    .text:0000000000000330 .LBB11
     /tmp/ccKWmizW.s:601    .text:000000000000033c .LBE11
     /tmp/ccKWmizW.s:3040   .debug_loc:00000000000000a8 .LLST12
     /tmp/ccKWmizW.s:593    .text:0000000000000338 .LVL40
     /tmp/ccKWmizW.s:326    .text:00000000000001d0 .LFB24
     /tmp/ccKWmizW.s:428    .text:0000000000000234 .LFE24
     /tmp/ccKWmizW.s:3047   .debug_loc:00000000000000cb .LLST8
     /tmp/ccKWmizW.s:366    .text:00000000000001f4 .LBB4
     /tmp/ccKWmizW.s:387    .text:000000000000020c .LBE4
     /tmp/ccKWmizW.s:3058   .debug_loc:0000000000000101 .LLST9
     /tmp/ccKWmizW.s:386    .text:000000000000020c .LVL28
     /tmp/ccKWmizW.s:249    .text:0000000000000188 .LFE23
     /tmp/ccKWmizW.s:186    .text:00000000000000fc .LVL13
     /tmp/ccKWmizW.s:192    .text:000000000000010c .LVL14
     /tmp/ccKWmizW.s:201    .text:0000000000000120 .LVL15
     /tmp/ccKWmizW.s:207    .text:0000000000000130 .LVL16
     /tmp/ccKWmizW.s:231    .text:0000000000000160 .LVL17
     /tmp/ccKWmizW.s:235    .text:000000000000016c .LVL18
     /tmp/ccKWmizW.s:242    .text:000000000000017c .LVL19
     /tmp/ccKWmizW.s:246    .text:0000000000000188 .LVL20
     /tmp/ccKWmizW.s:91     .text:0000000000000078 .LFB22
     /tmp/ccKWmizW.s:158    .text:00000000000000d8 .LFE22
     /tmp/ccKWmizW.s:3446   .debug_str:0000000000000812 .LASF136
     /tmp/ccKWmizW.s:3065   .debug_loc:0000000000000124 .LLST3
     /tmp/ccKWmizW.s:3382   .debug_str:0000000000000627 .LASF137
     /tmp/ccKWmizW.s:3087   .debug_loc:0000000000000183 .LLST4
     /tmp/ccKWmizW.s:3105   .debug_loc:00000000000001cf .LLST5
     /tmp/ccKWmizW.s:3116   .debug_loc:0000000000000205 .LLST6
     /tmp/ccKWmizW.s:129    .text:00000000000000b0 .LVL10
     /tmp/ccKWmizW.s:10     .text:0000000000000000 .LFB21
     /tmp/ccKWmizW.s:85     .text:0000000000000078 .LFE21
     /tmp/ccKWmizW.s:3123   .debug_loc:0000000000000228 .LLST0
     /tmp/ccKWmizW.s:3137   .debug_loc:0000000000000261 .LLST1
     /tmp/ccKWmizW.s:3159   .debug_loc:00000000000002c0 .LLST2
     /tmp/ccKWmizW.s:3442   .debug_str:00000000000007ee .LASF138
     /tmp/ccKWmizW.s:37     .text:0000000000000034 .LVL2
     /tmp/ccKWmizW.s:3504   .debug_str:00000000000009bf .LASF151
     /tmp/ccKWmizW.s:3312   .debug_str:00000000000003d5 .LASF152
     /tmp/ccKWmizW.s:3516   .debug_str:0000000000000a13 .LASF139
     /tmp/ccKWmizW.s:3304   .debug_str:000000000000039e .LASF141
     /tmp/ccKWmizW.s:3484   .debug_str:000000000000090f .LASF140
     /tmp/ccKWmizW.s:3490   .debug_str:0000000000000951 .LASF142
     /tmp/ccKWmizW.s:475    .text:000000000000027c .LVL33
     /tmp/ccKWmizW.s:290    .text:0000000000000188 .LVL21
     /tmp/ccKWmizW.s:566    .text:0000000000000318 .LVL38
     /tmp/ccKWmizW.s:572    .text:000000000000031c .LVL39
GAS LISTING /tmp/ccKWmizW.s 			page 26


     /tmp/ccKWmizW.s:619    .text:0000000000000348 .LVL41
     /tmp/ccKWmizW.s:625    .text:000000000000034c .LVL42
     /tmp/ccKWmizW.s:639    .text:0000000000000360 .LVL43
     /tmp/ccKWmizW.s:343    .text:00000000000001dc .LVL24
     /tmp/ccKWmizW.s:349    .text:00000000000001e0 .LVL25
     /tmp/ccKWmizW.s:405    .text:0000000000000218 .LVL29
     /tmp/ccKWmizW.s:411    .text:000000000000021c .LVL30
     /tmp/ccKWmizW.s:379    .text:0000000000000200 .LVL26
     /tmp/ccKWmizW.s:384    .text:0000000000000204 .LVL27
     /tmp/ccKWmizW.s:94     .text:0000000000000078 .LVL6
     /tmp/ccKWmizW.s:109    .text:0000000000000094 .LVL7
     /tmp/ccKWmizW.s:145    .text:00000000000000c8 .LVL11
     /tmp/ccKWmizW.s:113    .text:0000000000000098 .LVL8
     /tmp/ccKWmizW.s:152    .text:00000000000000d0 .LVL12
     /tmp/ccKWmizW.s:125    .text:00000000000000a8 .LVL9
     /tmp/ccKWmizW.s:14     .text:0000000000000000 .LVL0
     /tmp/ccKWmizW.s:35     .text:000000000000002c .LVL1
     /tmp/ccKWmizW.s:69     .text:0000000000000060 .LVL4
     /tmp/ccKWmizW.s:75     .text:000000000000006c .LVL5
     /tmp/ccKWmizW.s:66     .text:000000000000005c .LVL3
     /tmp/ccKWmizW.s:686    .debug_info:0000000000000000 .Ldebug_info0
     /tmp/ccKWmizW.s:330    .text:00000000000001d0 .LBB2
     /tmp/ccKWmizW.s:353    .text:00000000000001e4 .LBE2
     /tmp/ccKWmizW.s:364    .text:00000000000001f4 .LBB7
     /tmp/ccKWmizW.s:389    .text:000000000000020c .LBE7
     /tmp/ccKWmizW.s:392    .text:000000000000020c .LBB8
     /tmp/ccKWmizW.s:415    .text:0000000000000220 .LBE8
     /tmp/ccKWmizW.s:553    .text:000000000000030c .LBB9
     /tmp/ccKWmizW.s:576    .text:0000000000000320 .LBE9
     /tmp/ccKWmizW.s:587    .text:0000000000000330 .LBB14
     /tmp/ccKWmizW.s:603    .text:000000000000033c .LBE14
     /tmp/ccKWmizW.s:606    .text:000000000000033c .LBB15
     /tmp/ccKWmizW.s:629    .text:0000000000000350 .LBE15
     /tmp/ccKWmizW.s:252    .gcc_except_table:0000000000000000 .LLSDA23

UNDEFINED SYMBOLS
_Z7kmallocm
_Z5kfreePv
_ZN10KSemaphorenwEm
_ZN10KSemaphoreC1Ei
_ZN10KSemaphoredlEPv
_Unwind_Resume
__gxx_personality_v0
_ZN10KSemaphore6signalEv
CONSOLE_STATUS
CONSOLE_TX_DATA
_ZN10KSemaphore4waitEv
