GAS LISTING /tmp/cciOEt1N.s 			page 1


   1              		.file	"KConsole.cpp"
   2              		.option pic
   3              		.option norelax
   4              		.text
   5              	.Ltext0:
   6              		.align	2
   7              		.globl	_ZN8KConsole10initializeEv
   9              	_ZN8KConsole10initializeEv:
  10              	.LFB25:
  11              		.file 1 "src/KConsole.cpp"
   1:src/KConsole.cpp **** //
   2:src/KConsole.cpp **** // Created by os on 5/19/22.
   3:src/KConsole.cpp **** //
   4:src/KConsole.cpp **** 
   5:src/KConsole.cpp **** 
   6:src/KConsole.cpp **** #include "../h/KConsole.hpp"
   7:src/KConsole.cpp **** #include "../h/syscall_c.h"
   8:src/KConsole.cpp **** 
   9:src/KConsole.cpp **** uint64 KConsole::inputHead = 0;
  10:src/KConsole.cpp **** uint64 KConsole::inputTail = 0;
  11:src/KConsole.cpp **** uint64 KConsole::outputHead = 0;
  12:src/KConsole.cpp **** uint64 KConsole::outputTail = 0;
  13:src/KConsole.cpp **** KSemaphore* KConsole::hasCharactersOutput = 0;
  14:src/KConsole.cpp **** KSemaphore* KConsole::hasCharactersInput = 0;
  15:src/KConsole.cpp **** uint64 KConsole::pendingGetc = 0;
  16:src/KConsole.cpp **** char KConsole::inputBuffer[bufferSize];
  17:src/KConsole.cpp **** char KConsole::outputBuffer[bufferSize];
  18:src/KConsole.cpp **** uint64 KConsole::pendingPutc = 0;
  19:src/KConsole.cpp **** 
  20:src/KConsole.cpp **** void KConsole::initialize()
  21:src/KConsole.cpp **** {
  12              		.loc 1 21 1
  13              		.cfi_startproc
  14              		.cfi_personality 0x9b,DW.ref.__gxx_personality_v0
  15              		.cfi_lsda 0x1b,.LLSDA25
  16 0000 130101FE 		addi	sp,sp,-32
  17              		.cfi_def_cfa_offset 32
  18 0004 233C1100 		sd	ra,24(sp)
  19 0008 23388100 		sd	s0,16(sp)
  20 000c 23349100 		sd	s1,8(sp)
  21 0010 23302101 		sd	s2,0(sp)
  22              		.cfi_offset 1, -8
  23              		.cfi_offset 8, -16
  24              		.cfi_offset 9, -24
  25              		.cfi_offset 18, -32
  26 0014 13040102 		addi	s0,sp,32
  27              		.cfi_def_cfa 8, 0
  22:src/KConsole.cpp ****     hasCharactersInput = new KSemaphore(0);
  28              		.loc 1 22 5
  29              		.loc 1 22 42 is_stmt 0
  30 0018 13058001 		li	a0,24
  31              	.LEHB0:
  32 001c 97000000 		call	_ZN10KSemaphorenwEm@plt
  32      E7800000 
  33              	.LVL0:
  34              	.LEHE0:
  35 0024 93040500 		mv	s1,a0
GAS LISTING /tmp/cciOEt1N.s 			page 2


  36 0028 93050000 		li	a1,0
  37              	.LEHB1:
  38 002c 97000000 		call	_ZN10KSemaphoreC1Ei@plt
  38      E7800000 
  39              	.LVL1:
  40              	.LEHE1:
  41              		.loc 1 22 24 discriminator 2
  42 0034 97070000 		sd	s1,.LANCHOR0,a5
  42      23B09700 
  23:src/KConsole.cpp ****     hasCharactersOutput = new KSemaphore(0);
  43              		.loc 1 23 5 is_stmt 1 discriminator 2
  44              		.loc 1 23 43 is_stmt 0 discriminator 2
  45 003c 13058001 		li	a0,24
  46              	.LEHB2:
  47 0040 97000000 		call	_ZN10KSemaphorenwEm@plt
  47      E7800000 
  48              	.LVL2:
  49              	.LEHE2:
  50 0048 93040500 		mv	s1,a0
  51 004c 93050000 		li	a1,0
  52              	.LEHB3:
  53 0050 97000000 		call	_ZN10KSemaphoreC1Ei@plt
  53      E7800000 
  54              	.LVL3:
  55              	.LEHE3:
  56              		.loc 1 23 25 discriminator 2
  57 0058 97070000 		sd	s1,.LANCHOR0+8,a5
  57      23B09700 
  24:src/KConsole.cpp **** }
  58              		.loc 1 24 1 discriminator 2
  59 0060 83308101 		ld	ra,24(sp)
  60              		.cfi_remember_state
  61              		.cfi_restore 1
  62 0064 03340101 		ld	s0,16(sp)
  63              		.cfi_restore 8
  64              		.cfi_def_cfa 2, 32
  65 0068 83348100 		ld	s1,8(sp)
  66              		.cfi_restore 9
  67 006c 03390100 		ld	s2,0(sp)
  68              		.cfi_restore 18
  69 0070 13010102 		addi	sp,sp,32
  70              		.cfi_def_cfa_offset 0
  71 0074 67800000 		jr	ra
  72              	.L4:
  73              		.cfi_restore_state
  74 0078 13090500 		mv	s2,a0
  22:src/KConsole.cpp ****     hasCharactersInput = new KSemaphore(0);
  75              		.loc 1 22 42
  76 007c 13850400 		mv	a0,s1
  77 0080 97000000 		call	_ZN10KSemaphoredlEPv@plt
  77      E7800000 
  78              	.LVL4:
  79 0088 13050900 		mv	a0,s2
  80              	.LEHB4:
  81 008c 97000000 		call	_Unwind_Resume@plt
  81      E7800000 
  82              	.LVL5:
GAS LISTING /tmp/cciOEt1N.s 			page 3


  83              	.LEHE4:
  84              	.L5:
  85 0094 13090500 		mv	s2,a0
  23:src/KConsole.cpp ****     hasCharactersOutput = new KSemaphore(0);
  86              		.loc 1 23 43
  87 0098 13850400 		mv	a0,s1
  88 009c 97000000 		call	_ZN10KSemaphoredlEPv@plt
  88      E7800000 
  89              	.LVL6:
  90 00a4 13050900 		mv	a0,s2
  91              	.LEHB5:
  92 00a8 97000000 		call	_Unwind_Resume@plt
  92      E7800000 
  93              	.LVL7:
  94              	.LEHE5:
  95              		.cfi_endproc
  96              	.LFE25:
  97              		.globl	__gxx_personality_v0
  98              		.section	.gcc_except_table,"a",@progbits
  99              	.LLSDA25:
 100 0000 FF       		.byte	0xff
 101 0001 FF       		.byte	0xff
 102 0002 03       		.byte	0x3
 103 0003 4E       		.byte	0x4e
 104 0004 00000000 		.4byte	.LEHB0-.LFB25
 105 0008 00000000 		.4byte	.LEHE0-.LEHB0
 106 000c 00000000 		.4byte	0
 107 0010 00       		.byte	0
 108 0011 00000000 		.4byte	.LEHB1-.LFB25
 109 0015 00000000 		.4byte	.LEHE1-.LEHB1
 110 0019 00000000 		.4byte	.L4-.LFB25
 111 001d 00       		.byte	0
 112 001e 00000000 		.4byte	.LEHB2-.LFB25
 113 0022 00000000 		.4byte	.LEHE2-.LEHB2
 114 0026 00000000 		.4byte	0
 115 002a 00       		.byte	0
 116 002b 00000000 		.4byte	.LEHB3-.LFB25
 117 002f 00000000 		.4byte	.LEHE3-.LEHB3
 118 0033 00000000 		.4byte	.L5-.LFB25
 119 0037 00       		.byte	0
 120 0038 00000000 		.4byte	.LEHB4-.LFB25
 121 003c 00000000 		.4byte	.LEHE4-.LEHB4
 122 0040 00000000 		.4byte	0
 123 0044 00       		.byte	0
 124 0045 00000000 		.4byte	.LEHB5-.LFB25
 125 0049 00000000 		.4byte	.LEHE5-.LEHB5
 126 004d 00000000 		.4byte	0
 127 0051 00       		.byte	0
 128              		.text
 130              		.align	2
 131              		.globl	_ZN8KConsole17putCharacterInputEc
 133              	_ZN8KConsole17putCharacterInputEc:
 134              	.LFB28:
  25:src/KConsole.cpp **** 
  26:src/KConsole.cpp **** //extern const uint64 CONSOLE_STATUS;
  27:src/KConsole.cpp **** //extern const uint64 CONSOLE_TX_DATA;
  28:src/KConsole.cpp **** //extern const uint64 CONSOLE_RX_DATA;
GAS LISTING /tmp/cciOEt1N.s 			page 4


  29:src/KConsole.cpp **** 
  30:src/KConsole.cpp **** void KConsole::getCharactersFromConsole(void* p)
  31:src/KConsole.cpp **** {
  32:src/KConsole.cpp ****     while(true)
  33:src/KConsole.cpp ****     {
  34:src/KConsole.cpp ****         uint64 x = CONSOLE_STATUS;
  35:src/KConsole.cpp ****         __asm__ volatile("mv a0, %0"::"r"(x));
  36:src/KConsole.cpp ****         __asm__ volatile("lb a1, 0(a0)");
  37:src/KConsole.cpp ****         uint64 operation;
  38:src/KConsole.cpp ****         __asm__ volatile("mv %0, a1" :  "=r"(operation));
  39:src/KConsole.cpp ****         if(operation & STATUS_READ_MASK)
  40:src/KConsole.cpp ****         {
  41:src/KConsole.cpp ****             x = CONSOLE_TX_DATA;
  42:src/KConsole.cpp ****             __asm__ volatile("mv a0, %0"::"r"(x));
  43:src/KConsole.cpp ****             __asm__ volatile("lb a1,0(a0)");
  44:src/KConsole.cpp ****             char c;
  45:src/KConsole.cpp ****             __asm__ volatile("mv %0, a1" :  "=r"(c));
  46:src/KConsole.cpp **** 
  47:src/KConsole.cpp ****             putCharacterInput(c);
  48:src/KConsole.cpp ****             putCharacterOutput(c);
  49:src/KConsole.cpp ****         }
  50:src/KConsole.cpp ****         else
  51:src/KConsole.cpp ****             break;
  52:src/KConsole.cpp ****     }
  53:src/KConsole.cpp **** }
  54:src/KConsole.cpp **** 
  55:src/KConsole.cpp **** void KConsole::sendCharactersToConsole(void* p)
  56:src/KConsole.cpp **** {
  57:src/KConsole.cpp ****     while(true)
  58:src/KConsole.cpp ****     {
  59:src/KConsole.cpp ****             if(Riscv::finishSystem && KConsole::outputBufferEmpty() && pendingGetc == 0)
  60:src/KConsole.cpp ****                 thread_exit();
  61:src/KConsole.cpp **** 
  62:src/KConsole.cpp ****             uint64 x = CONSOLE_STATUS;
  63:src/KConsole.cpp ****             __asm__ volatile("mv a0, %0"::"r"(x));
  64:src/KConsole.cpp ****             __asm__ volatile("lb a1, 0(a0)");
  65:src/KConsole.cpp ****             uint64 operation;
  66:src/KConsole.cpp ****             __asm__ volatile("mv %0, a1" :  "=r"(operation));
  67:src/KConsole.cpp ****             if (operation & STATUS_WRITE_MASK)
  68:src/KConsole.cpp ****             {
  69:src/KConsole.cpp ****                 char volatile c = sysCallGetCharOutput();
  70:src/KConsole.cpp ****                 pendingPutc--;
  71:src/KConsole.cpp ****                 x = CONSOLE_RX_DATA;
  72:src/KConsole.cpp ****                 __asm__ volatile("mv a0, %0"::"r"(x));
  73:src/KConsole.cpp ****                 __asm__ volatile("mv a1, %0" :  :"r"((uint64)c));
  74:src/KConsole.cpp ****                 __asm__ volatile("sb a1,0(a0)");
  75:src/KConsole.cpp ****             }
  76:src/KConsole.cpp ****             else
  77:src/KConsole.cpp ****             {
  78:src/KConsole.cpp ****                 thread_dispatch();
  79:src/KConsole.cpp ****             }
  80:src/KConsole.cpp ****     }
  81:src/KConsole.cpp **** }
  82:src/KConsole.cpp **** 
  83:src/KConsole.cpp **** void KConsole::putCharacterInput(char c)
  84:src/KConsole.cpp **** {
 135              		.loc 1 84 1 is_stmt 1
GAS LISTING /tmp/cciOEt1N.s 			page 5


 136              		.cfi_startproc
 137              	.LVL8:
  85:src/KConsole.cpp ****     if((inputTail+1)%bufferSize == inputHead)
 138              		.loc 1 85 5
 139              		.loc 1 85 18 is_stmt 0
 140 00b0 97060000 		lla	a3,.LANCHOR0
 140      93860600 
 141 00b8 03B60601 		ld	a2,16(a3)
 142 00bc 93071600 		addi	a5,a2,1
 143              		.loc 1 85 21
 144 00c0 37270000 		li	a4,8192
 145 00c4 1307F7FF 		addi	a4,a4,-1
 146 00c8 B3F7E700 		and	a5,a5,a4
 147              		.loc 1 85 33
 148 00cc 03B78601 		ld	a4,24(a3)
 149              		.loc 1 85 5
 150 00d0 6382E704 		beq	a5,a4,.L11
  84:src/KConsole.cpp ****     if((inputTail+1)%bufferSize == inputHead)
 151              		.loc 1 84 1
 152 00d4 130101FF 		addi	sp,sp,-16
 153              		.cfi_def_cfa_offset 16
 154 00d8 23341100 		sd	ra,8(sp)
 155 00dc 23308100 		sd	s0,0(sp)
 156              		.cfi_offset 1, -8
 157              		.cfi_offset 8, -16
 158 00e0 13040101 		addi	s0,sp,16
 159              		.cfi_def_cfa 8, 0
  86:src/KConsole.cpp ****         return;
  87:src/KConsole.cpp ****     inputBuffer[inputTail] = c;
 160              		.loc 1 87 5 is_stmt 1
 161              		.loc 1 87 28 is_stmt 0
 162 00e4 17070000 		lla	a4,_ZN8KConsole11inputBufferE
 162      13070700 
 163 00ec 3306C700 		add	a2,a4,a2
 164 00f0 2300A600 		sb	a0,0(a2)
  88:src/KConsole.cpp ****     inputTail = (inputTail+1)%bufferSize;
 165              		.loc 1 88 5 is_stmt 1
 166              		.loc 1 88 15 is_stmt 0
 167 00f4 23B8F600 		sd	a5,16(a3)
  89:src/KConsole.cpp ****     hasCharactersInput->signal();
 168              		.loc 1 89 5 is_stmt 1
 169              		.loc 1 89 31 is_stmt 0
 170 00f8 03B50600 		ld	a0,0(a3)
 171              	.LVL9:
 172 00fc 97000000 		call	_ZN10KSemaphore6signalEv@plt
 172      E7800000 
 173              	.LVL10:
  90:src/KConsole.cpp **** }
 174              		.loc 1 90 1
 175 0104 83308100 		ld	ra,8(sp)
 176              		.cfi_restore 1
 177 0108 03340100 		ld	s0,0(sp)
 178              		.cfi_restore 8
 179              		.cfi_def_cfa 2, 16
 180 010c 13010101 		addi	sp,sp,16
 181              		.cfi_def_cfa_offset 0
 182 0110 67800000 		jr	ra
GAS LISTING /tmp/cciOEt1N.s 			page 6


 183              	.LVL11:
 184              	.L11:
 185 0114 67800000 		ret
 186              		.cfi_endproc
 187              	.LFE28:
 189              		.align	2
 190              		.globl	_ZN8KConsole17getCharacterInputEv
 192              	_ZN8KConsole17getCharacterInputEv:
 193              	.LFB29:
  91:src/KConsole.cpp **** 
  92:src/KConsole.cpp **** char KConsole::getCharacterInput()
  93:src/KConsole.cpp **** {
 194              		.loc 1 93 1 is_stmt 1
 195              		.cfi_startproc
 196 0118 130101FE 		addi	sp,sp,-32
 197              		.cfi_def_cfa_offset 32
 198 011c 233C1100 		sd	ra,24(sp)
 199 0120 23388100 		sd	s0,16(sp)
 200 0124 23349100 		sd	s1,8(sp)
 201              		.cfi_offset 1, -8
 202              		.cfi_offset 8, -16
 203              		.cfi_offset 9, -24
 204 0128 13040102 		addi	s0,sp,32
 205              		.cfi_def_cfa 8, 0
  94:src/KConsole.cpp ****     hasCharactersInput->wait();
 206              		.loc 1 94 5
 207              		.loc 1 94 29 is_stmt 0
 208 012c 97040000 		lla	s1,.LANCHOR0
 208      93840400 
 209 0134 03B50400 		ld	a0,0(s1)
 210 0138 97000000 		call	_ZN10KSemaphore4waitEv@plt
 210      E7800000 
 211              	.LVL12:
  95:src/KConsole.cpp ****     if(inputHead == inputTail)
 212              		.loc 1 95 5 is_stmt 1
 213              		.loc 1 95 18 is_stmt 0
 214 0140 83B78401 		ld	a5,24(s1)
 215 0144 03B70401 		ld	a4,16(s1)
 216              		.loc 1 95 5
 217 0148 6380E704 		beq	a5,a4,.L16
  96:src/KConsole.cpp ****         return -1;
  97:src/KConsole.cpp ****     char c = inputBuffer[inputHead];
 218              		.loc 1 97 5 is_stmt 1
 219              		.loc 1 97 10 is_stmt 0
 220 014c 17070000 		lla	a4,_ZN8KConsole11inputBufferE
 220      13070700 
 221 0154 3307F700 		add	a4,a4,a5
 222 0158 03450700 		lbu	a0,0(a4)
 223              	.LVL13:
  98:src/KConsole.cpp **** 
  99:src/KConsole.cpp ****     inputHead = (inputHead+1)%bufferSize;
 224              		.loc 1 99 5 is_stmt 1
 225              		.loc 1 99 27 is_stmt 0
 226 015c 93871700 		addi	a5,a5,1
 227              		.loc 1 99 30
 228 0160 37270000 		li	a4,8192
 229 0164 1307F7FF 		addi	a4,a4,-1
GAS LISTING /tmp/cciOEt1N.s 			page 7


 230 0168 B3F7E700 		and	a5,a5,a4
 231              		.loc 1 99 15
 232 016c 17070000 		sd	a5,.LANCHOR0+24,a4
 232      2330F700 
 100:src/KConsole.cpp **** 
 101:src/KConsole.cpp ****     return c;
 233              		.loc 1 101 5 is_stmt 1
 234              	.LVL14:
 235              	.L15:
 102:src/KConsole.cpp **** }
 236              		.loc 1 102 1 is_stmt 0
 237 0174 83308101 		ld	ra,24(sp)
 238              		.cfi_remember_state
 239              		.cfi_restore 1
 240 0178 03340101 		ld	s0,16(sp)
 241              		.cfi_restore 8
 242              		.cfi_def_cfa 2, 32
 243 017c 83348100 		ld	s1,8(sp)
 244              		.cfi_restore 9
 245 0180 13010102 		addi	sp,sp,32
 246              		.cfi_def_cfa_offset 0
 247 0184 67800000 		jr	ra
 248              	.L16:
 249              		.cfi_restore_state
  96:src/KConsole.cpp ****     char c = inputBuffer[inputHead];
 250              		.loc 1 96 17
 251 0188 1305F00F 		li	a0,255
 252 018c 6FF09FFE 		j	.L15
 253              		.cfi_endproc
 254              	.LFE29:
 256              		.align	2
 257              		.globl	_ZN8KConsole18putCharacterOutputEc
 259              	_ZN8KConsole18putCharacterOutputEc:
 260              	.LFB30:
 103:src/KConsole.cpp **** 
 104:src/KConsole.cpp **** void KConsole::putCharacterOutput(char c)
 105:src/KConsole.cpp **** {
 261              		.loc 1 105 1 is_stmt 1
 262              		.cfi_startproc
 263              	.LVL15:
 106:src/KConsole.cpp ****     if((outputTail+1)%bufferSize == outputHead)
 264              		.loc 1 106 5
 265              		.loc 1 106 19 is_stmt 0
 266 0190 97060000 		lla	a3,.LANCHOR0
 266      93860600 
 267 0198 03B60602 		ld	a2,32(a3)
 268 019c 93071600 		addi	a5,a2,1
 269              		.loc 1 106 22
 270 01a0 37270000 		li	a4,8192
 271 01a4 1307F7FF 		addi	a4,a4,-1
 272 01a8 B3F7E700 		and	a5,a5,a4
 273              		.loc 1 106 34
 274 01ac 03B78602 		ld	a4,40(a3)
 275              		.loc 1 106 5
 276 01b0 638AE704 		beq	a5,a4,.L21
 105:src/KConsole.cpp ****     if((outputTail+1)%bufferSize == outputHead)
 277              		.loc 1 105 1
GAS LISTING /tmp/cciOEt1N.s 			page 8


 278 01b4 130101FF 		addi	sp,sp,-16
 279              		.cfi_def_cfa_offset 16
 280 01b8 23341100 		sd	ra,8(sp)
 281 01bc 23308100 		sd	s0,0(sp)
 282              		.cfi_offset 1, -8
 283              		.cfi_offset 8, -16
 284 01c0 13040101 		addi	s0,sp,16
 285              		.cfi_def_cfa 8, 0
 107:src/KConsole.cpp ****         return;
 108:src/KConsole.cpp ****     pendingPutc++;
 286              		.loc 1 108 5 is_stmt 1
 287              		.loc 1 108 16 is_stmt 0
 288 01c4 13870600 		mv	a4,a3
 289 01c8 83B60603 		ld	a3,48(a3)
 290 01cc 93861600 		addi	a3,a3,1
 291 01d0 2338D702 		sd	a3,48(a4)
 109:src/KConsole.cpp ****     outputBuffer[outputTail] = c;
 292              		.loc 1 109 5 is_stmt 1
 293              		.loc 1 109 30 is_stmt 0
 294 01d4 97060000 		lla	a3,_ZN8KConsole12outputBufferE
 294      93860600 
 295 01dc 3386C600 		add	a2,a3,a2
 296 01e0 2300A600 		sb	a0,0(a2)
 110:src/KConsole.cpp ****     outputTail = (outputTail+1)%bufferSize;
 297              		.loc 1 110 5 is_stmt 1
 298              		.loc 1 110 16 is_stmt 0
 299 01e4 2330F702 		sd	a5,32(a4)
 111:src/KConsole.cpp ****     hasCharactersOutput->signal();
 300              		.loc 1 111 5 is_stmt 1
 301              		.loc 1 111 32 is_stmt 0
 302 01e8 03358700 		ld	a0,8(a4)
 303              	.LVL16:
 304 01ec 97000000 		call	_ZN10KSemaphore6signalEv@plt
 304      E7800000 
 305              	.LVL17:
 112:src/KConsole.cpp **** }
 306              		.loc 1 112 1
 307 01f4 83308100 		ld	ra,8(sp)
 308              		.cfi_restore 1
 309 01f8 03340100 		ld	s0,0(sp)
 310              		.cfi_restore 8
 311              		.cfi_def_cfa 2, 16
 312 01fc 13010101 		addi	sp,sp,16
 313              		.cfi_def_cfa_offset 0
 314 0200 67800000 		jr	ra
 315              	.LVL18:
 316              	.L21:
 317 0204 67800000 		ret
 318              		.cfi_endproc
 319              	.LFE30:
 321              		.align	2
 322              		.globl	_ZN8KConsole24getCharactersFromConsoleEPv
 324              	_ZN8KConsole24getCharactersFromConsoleEPv:
 325              	.LFB26:
  31:src/KConsole.cpp ****     while(true)
 326              		.loc 1 31 1 is_stmt 1
 327              		.cfi_startproc
GAS LISTING /tmp/cciOEt1N.s 			page 9


 328              	.LVL19:
  32:src/KConsole.cpp ****     {
 329              		.loc 1 32 5
 330              	.LBB2:
  34:src/KConsole.cpp ****         __asm__ volatile("mv a0, %0"::"r"(x));
 331              		.loc 1 34 9
  34:src/KConsole.cpp ****         __asm__ volatile("mv a0, %0"::"r"(x));
 332              		.loc 1 34 16 is_stmt 0
 333 0208 97070000 		la	a5,CONSOLE_STATUS
 333      83B70700 
 334 0210 83B70700 		ld	a5,0(a5)
 335              	.LVL20:
  35:src/KConsole.cpp ****         __asm__ volatile("lb a1, 0(a0)");
 336              		.loc 1 35 9 is_stmt 1
  35:src/KConsole.cpp ****         __asm__ volatile("lb a1, 0(a0)");
 337              		.loc 1 35 46 is_stmt 0
 338              	#APP
 339              	# 35 "src/KConsole.cpp" 1
  36:src/KConsole.cpp ****         uint64 operation;
 340              		mv a0, a5
 341              	# 0 "" 2
 342              		.loc 1 36 9 is_stmt 1
  36:src/KConsole.cpp ****         uint64 operation;
 343              		.loc 1 36 41 is_stmt 0
 344              	# 36 "src/KConsole.cpp" 1
  37:src/KConsole.cpp ****         __asm__ volatile("mv %0, a1" :  "=r"(operation));
 345              		lb a1, 0(a0)
 346              	# 0 "" 2
 347              		.loc 1 37 9 is_stmt 1
  38:src/KConsole.cpp ****         if(operation & STATUS_READ_MASK)
 348              		.loc 1 38 9
  38:src/KConsole.cpp ****         if(operation & STATUS_READ_MASK)
 349              		.loc 1 38 57 is_stmt 0
 350              	# 38 "src/KConsole.cpp" 1
 351              		mv a5, a1
 352              	# 0 "" 2
 353              	.LVL21:
  39:src/KConsole.cpp ****         {
 354              		.loc 1 39 9 is_stmt 1
 355              	#NO_APP
 356              	.LBB3:
  39:src/KConsole.cpp ****         {
 357              		.loc 1 39 22 is_stmt 0
 358 0220 93F71700 		andi	a5,a5,1
 359              	.LVL22:
  39:src/KConsole.cpp ****         {
 360              		.loc 1 39 9
 361 0224 63800708 		beqz	a5,.L32
 362              	.LBE3:
 363              	.LBE2:
  31:src/KConsole.cpp ****     while(true)
 364              		.loc 1 31 1
 365 0228 130101FE 		addi	sp,sp,-32
 366              		.cfi_def_cfa_offset 32
 367 022c 233C1100 		sd	ra,24(sp)
 368 0230 23388100 		sd	s0,16(sp)
 369 0234 23349100 		sd	s1,8(sp)
GAS LISTING /tmp/cciOEt1N.s 			page 10


 370              		.cfi_offset 1, -8
 371              		.cfi_offset 8, -16
 372              		.cfi_offset 9, -24
 373 0238 13040102 		addi	s0,sp,32
 374              		.cfi_def_cfa 8, 0
 375              	.LVL23:
 376              	.L28:
 377              	.LBB7:
 378              	.LBB5:
 379              	.LBB4:
  41:src/KConsole.cpp ****             __asm__ volatile("mv a0, %0"::"r"(x));
 380              		.loc 1 41 13 is_stmt 1
  41:src/KConsole.cpp ****             __asm__ volatile("mv a0, %0"::"r"(x));
 381              		.loc 1 41 15 is_stmt 0
 382 023c 97070000 		la	a5,CONSOLE_TX_DATA
 382      83B70700 
 383 0244 83B70700 		ld	a5,0(a5)
 384              	.LVL24:
  42:src/KConsole.cpp ****             __asm__ volatile("lb a1,0(a0)");
 385              		.loc 1 42 13 is_stmt 1
  42:src/KConsole.cpp ****             __asm__ volatile("lb a1,0(a0)");
 386              		.loc 1 42 50 is_stmt 0
 387              	#APP
 388              	# 42 "src/KConsole.cpp" 1
  43:src/KConsole.cpp ****             char c;
 389              		mv a0, a5
 390              	# 0 "" 2
 391              		.loc 1 43 13 is_stmt 1
  43:src/KConsole.cpp ****             char c;
 392              		.loc 1 43 44 is_stmt 0
 393              	# 43 "src/KConsole.cpp" 1
  44:src/KConsole.cpp ****             __asm__ volatile("mv %0, a1" :  "=r"(c));
 394              		lb a1,0(a0)
 395              	# 0 "" 2
 396              		.loc 1 44 13 is_stmt 1
  45:src/KConsole.cpp **** 
 397              		.loc 1 45 13
  45:src/KConsole.cpp **** 
 398              		.loc 1 45 53 is_stmt 0
 399              	# 45 "src/KConsole.cpp" 1
 400              		mv s1, a1
 401              	# 0 "" 2
 402              	#NO_APP
 403 0254 93F4F40F 		andi	s1,s1,0xff
 404              	.LVL25:
  47:src/KConsole.cpp ****             putCharacterOutput(c);
 405              		.loc 1 47 13 is_stmt 1
  47:src/KConsole.cpp ****             putCharacterOutput(c);
 406              		.loc 1 47 30 is_stmt 0
 407 0258 13850400 		mv	a0,s1
 408 025c 97000000 		call	_ZN8KConsole17putCharacterInputEc
 408      E7800000 
 409              	.LVL26:
  48:src/KConsole.cpp ****         }
 410              		.loc 1 48 13 is_stmt 1
  48:src/KConsole.cpp ****         }
 411              		.loc 1 48 31 is_stmt 0
GAS LISTING /tmp/cciOEt1N.s 			page 11


 412 0264 13850400 		mv	a0,s1
 413 0268 97000000 		call	_ZN8KConsole18putCharacterOutputEc
 413      E7800000 
 414              	.LVL27:
 415              	.LBE4:
 416              	.LBE5:
 417              	.LBE7:
  32:src/KConsole.cpp ****     {
 418              		.loc 1 32 5 is_stmt 1
  32:src/KConsole.cpp ****     {
 419              		.loc 1 32 5
 420              	.LBB8:
  34:src/KConsole.cpp ****         __asm__ volatile("mv a0, %0"::"r"(x));
 421              		.loc 1 34 9
  34:src/KConsole.cpp ****         __asm__ volatile("mv a0, %0"::"r"(x));
 422              		.loc 1 34 16 is_stmt 0
 423 0270 97070000 		la	a5,CONSOLE_STATUS
 423      83B70700 
 424 0278 83B70700 		ld	a5,0(a5)
 425              	.LVL28:
  35:src/KConsole.cpp ****         __asm__ volatile("lb a1, 0(a0)");
 426              		.loc 1 35 9 is_stmt 1
  35:src/KConsole.cpp ****         __asm__ volatile("lb a1, 0(a0)");
 427              		.loc 1 35 46 is_stmt 0
 428              	#APP
 429              	# 35 "src/KConsole.cpp" 1
  36:src/KConsole.cpp ****         uint64 operation;
 430              		mv a0, a5
 431              	# 0 "" 2
 432              		.loc 1 36 9 is_stmt 1
  36:src/KConsole.cpp ****         uint64 operation;
 433              		.loc 1 36 41 is_stmt 0
 434              	# 36 "src/KConsole.cpp" 1
  37:src/KConsole.cpp ****         __asm__ volatile("mv %0, a1" :  "=r"(operation));
 435              		lb a1, 0(a0)
 436              	# 0 "" 2
 437              		.loc 1 37 9 is_stmt 1
  38:src/KConsole.cpp ****         if(operation & STATUS_READ_MASK)
 438              		.loc 1 38 9
  38:src/KConsole.cpp ****         if(operation & STATUS_READ_MASK)
 439              		.loc 1 38 57 is_stmt 0
 440              	# 38 "src/KConsole.cpp" 1
 441              		mv a5, a1
 442              	# 0 "" 2
 443              	.LVL29:
  39:src/KConsole.cpp ****         {
 444              		.loc 1 39 9 is_stmt 1
 445              	#NO_APP
 446              	.LBB6:
  39:src/KConsole.cpp ****         {
 447              		.loc 1 39 22 is_stmt 0
 448 0288 93F71700 		andi	a5,a5,1
 449              	.LVL30:
  39:src/KConsole.cpp ****         {
 450              		.loc 1 39 9
 451 028c E39807FA 		bnez	a5,.L28
 452              	.LBE6:
GAS LISTING /tmp/cciOEt1N.s 			page 12


 453              	.LBE8:
  53:src/KConsole.cpp **** 
 454              		.loc 1 53 1
 455 0290 83308101 		ld	ra,24(sp)
 456              		.cfi_restore 1
 457 0294 03340101 		ld	s0,16(sp)
 458              		.cfi_restore 8
 459              		.cfi_def_cfa 2, 32
 460 0298 83348100 		ld	s1,8(sp)
 461              		.cfi_restore 9
 462              	.LVL31:
 463 029c 13010102 		addi	sp,sp,32
 464              		.cfi_def_cfa_offset 0
 465 02a0 67800000 		jr	ra
 466              	.LVL32:
 467              	.L32:
 468 02a4 67800000 		ret
 469              		.cfi_endproc
 470              	.LFE26:
 472              		.align	2
 473              		.globl	_ZN8KConsole18getCharacterOutputEv
 475              	_ZN8KConsole18getCharacterOutputEv:
 476              	.LFB31:
 113:src/KConsole.cpp **** 
 114:src/KConsole.cpp **** char KConsole::getCharacterOutput()
 115:src/KConsole.cpp **** {
 477              		.loc 1 115 1 is_stmt 1
 478              		.cfi_startproc
 479 02a8 130101FE 		addi	sp,sp,-32
 480              		.cfi_def_cfa_offset 32
 481 02ac 233C1100 		sd	ra,24(sp)
 482 02b0 23388100 		sd	s0,16(sp)
 483 02b4 23349100 		sd	s1,8(sp)
 484              		.cfi_offset 1, -8
 485              		.cfi_offset 8, -16
 486              		.cfi_offset 9, -24
 487 02b8 13040102 		addi	s0,sp,32
 488              		.cfi_def_cfa 8, 0
 116:src/KConsole.cpp ****     hasCharactersOutput->wait();
 489              		.loc 1 116 5
 490              		.loc 1 116 30 is_stmt 0
 491 02bc 97040000 		lla	s1,.LANCHOR0
 491      93840400 
 492 02c4 03B58400 		ld	a0,8(s1)
 493 02c8 97000000 		call	_ZN10KSemaphore4waitEv@plt
 493      E7800000 
 494              	.LVL33:
 117:src/KConsole.cpp ****     if(outputHead == outputTail)
 495              		.loc 1 117 5 is_stmt 1
 496              		.loc 1 117 19 is_stmt 0
 497 02d0 83B78402 		ld	a5,40(s1)
 498 02d4 03B70402 		ld	a4,32(s1)
 499              		.loc 1 117 5
 500 02d8 6380E704 		beq	a5,a4,.L35
 118:src/KConsole.cpp ****         return -1;
 119:src/KConsole.cpp **** 
 120:src/KConsole.cpp ****     char c = outputBuffer[outputHead];
GAS LISTING /tmp/cciOEt1N.s 			page 13


 501              		.loc 1 120 5 is_stmt 1
 502              		.loc 1 120 10 is_stmt 0
 503 02dc 17070000 		lla	a4,_ZN8KConsole12outputBufferE
 503      13070700 
 504 02e4 3307F700 		add	a4,a4,a5
 505 02e8 03450700 		lbu	a0,0(a4)
 506              	.LVL34:
 121:src/KConsole.cpp **** 
 122:src/KConsole.cpp ****     outputHead = (outputHead+1)%bufferSize;
 507              		.loc 1 122 5 is_stmt 1
 508              		.loc 1 122 29 is_stmt 0
 509 02ec 93871700 		addi	a5,a5,1
 510              		.loc 1 122 32
 511 02f0 37270000 		li	a4,8192
 512 02f4 1307F7FF 		addi	a4,a4,-1
 513 02f8 B3F7E700 		and	a5,a5,a4
 514              		.loc 1 122 16
 515 02fc 17070000 		sd	a5,.LANCHOR0+40,a4
 515      2330F700 
 123:src/KConsole.cpp **** 
 124:src/KConsole.cpp ****     return c;
 516              		.loc 1 124 5 is_stmt 1
 517              	.LVL35:
 518              	.L34:
 125:src/KConsole.cpp **** }
 519              		.loc 1 125 1 is_stmt 0
 520 0304 83308101 		ld	ra,24(sp)
 521              		.cfi_remember_state
 522              		.cfi_restore 1
 523 0308 03340101 		ld	s0,16(sp)
 524              		.cfi_restore 8
 525              		.cfi_def_cfa 2, 32
 526 030c 83348100 		ld	s1,8(sp)
 527              		.cfi_restore 9
 528 0310 13010102 		addi	sp,sp,32
 529              		.cfi_def_cfa_offset 0
 530 0314 67800000 		jr	ra
 531              	.L35:
 532              		.cfi_restore_state
 118:src/KConsole.cpp **** 
 533              		.loc 1 118 17
 534 0318 1305F00F 		li	a0,255
 535 031c 6FF09FFE 		j	.L34
 536              		.cfi_endproc
 537              	.LFE31:
 539              		.align	2
 540              		.globl	_ZN8KConsole11putcHandlerEv
 542              	_ZN8KConsole11putcHandlerEv:
 543              	.LFB32:
 126:src/KConsole.cpp **** 
 127:src/KConsole.cpp **** void KConsole::putcHandler()
 128:src/KConsole.cpp **** {
 544              		.loc 1 128 1 is_stmt 1
 545              		.cfi_startproc
 546 0320 130101FF 		addi	sp,sp,-16
 547              		.cfi_def_cfa_offset 16
 548 0324 23341100 		sd	ra,8(sp)
GAS LISTING /tmp/cciOEt1N.s 			page 14


 549 0328 23308100 		sd	s0,0(sp)
 550              		.cfi_offset 1, -8
 551              		.cfi_offset 8, -16
 552 032c 13040101 		addi	s0,sp,16
 553              		.cfi_def_cfa 8, 0
 129:src/KConsole.cpp ****     uint64 ch;
 554              		.loc 1 129 5
 130:src/KConsole.cpp ****     __asm__ volatile("mv %0, a1" : "=r"(ch));
 555              		.loc 1 130 5
 556              		.loc 1 130 45 is_stmt 0
 557              	#APP
 558              	# 130 "src/KConsole.cpp" 1
 131              	    putCharacterOutput((char)ch);
 559              		mv a0, a1
 560              	# 0 "" 2
 561              	.LVL36:
 562              		.loc 1 131 5 is_stmt 1
 563              		.loc 1 131 23 is_stmt 0
 564              	#NO_APP
 565 0334 1375F50F 		andi	a0,a0,0xff
 566              	.LVL37:
 567 0338 97000000 		call	_ZN8KConsole18putCharacterOutputEc
 567      E7800000 
 568              	.LVL38:
 132:src/KConsole.cpp **** }
 569              		.loc 1 132 1
 570 0340 83308100 		ld	ra,8(sp)
 571              		.cfi_restore 1
 572 0344 03340100 		ld	s0,0(sp)
 573              		.cfi_restore 8
 574              		.cfi_def_cfa 2, 16
 575 0348 13010101 		addi	sp,sp,16
 576              		.cfi_def_cfa_offset 0
 577 034c 67800000 		jr	ra
 578              		.cfi_endproc
 579              	.LFE32:
 581              		.align	2
 582              		.globl	_ZN8KConsole11getcHandlerEv
 584              	_ZN8KConsole11getcHandlerEv:
 585              	.LFB33:
 133:src/KConsole.cpp **** 
 134:src/KConsole.cpp **** void KConsole::getcHandler()
 135:src/KConsole.cpp **** {
 586              		.loc 1 135 1 is_stmt 1
 587              		.cfi_startproc
 588 0350 130101FE 		addi	sp,sp,-32
 589              		.cfi_def_cfa_offset 32
 590 0354 233C1100 		sd	ra,24(sp)
 591 0358 23388100 		sd	s0,16(sp)
 592 035c 23349100 		sd	s1,8(sp)
 593              		.cfi_offset 1, -8
 594              		.cfi_offset 8, -16
 595              		.cfi_offset 9, -24
 596 0360 13040102 		addi	s0,sp,32
 597              		.cfi_def_cfa 8, 0
 136:src/KConsole.cpp ****     pendingGetc++;
 598              		.loc 1 136 5
GAS LISTING /tmp/cciOEt1N.s 			page 15


 599              		.loc 1 136 16 is_stmt 0
 600 0364 17070000 		lla	a4,.LANCHOR0
 600      13070700 
 601 036c 83378703 		ld	a5,56(a4)
 602 0370 93871700 		addi	a5,a5,1
 603 0374 233CF702 		sd	a5,56(a4)
 137:src/KConsole.cpp ****     char ch;
 604              		.loc 1 137 5 is_stmt 1
 138:src/KConsole.cpp ****     ch = getCharacterInput();
 605              		.loc 1 138 5
 606              		.loc 1 138 27 is_stmt 0
 607 0378 97000000 		call	_ZN8KConsole17getCharacterInputEv
 607      E7800000 
 608              	.LVL39:
 609 0380 93040500 		mv	s1,a0
 610              	.LVL40:
 139:src/KConsole.cpp ****     if(ch!=0x01b)
 611              		.loc 1 139 5 is_stmt 1
 612 0384 9307B001 		li	a5,27
 613 0388 6316F502 		bne	a0,a5,.L43
 614              	.LVL41:
 615              	.L40:
 140:src/KConsole.cpp ****         putCharacterOutput(ch);
 141:src/KConsole.cpp **** 
 142:src/KConsole.cpp ****     if(ch==13)
 616              		.loc 1 142 5
 617 038c 9307D000 		li	a5,13
 618 0390 6388F402 		beq	s1,a5,.L44
 619              	.L41:
 143:src/KConsole.cpp ****     {
 144:src/KConsole.cpp ****         putCharacterOutput(13);
 145:src/KConsole.cpp ****         putCharacterOutput(10);
 146:src/KConsole.cpp ****     }
 147:src/KConsole.cpp **** 
 148:src/KConsole.cpp ****     __asm__ volatile("mv a0, %0" : :"r"((uint64)ch));
 620              		.loc 1 148 5
 621              		.loc 1 148 53 is_stmt 0
 622              	#APP
 623              	# 148 "src/KConsole.cpp" 1
 149              	    Riscv::w_a0_sscratch();
 624              		mv a0, s1
 625              	# 0 "" 2
 626              		.loc 1 149 5 is_stmt 1
 627              		.loc 1 149 25 is_stmt 0
 628              	#NO_APP
 629 0398 97000000 		call	_ZN5Riscv13w_a0_sscratchEv@plt
 629      E7800000 
 630              	.LVL42:
 150:src/KConsole.cpp **** }
 631              		.loc 1 150 1
 632 03a0 83308101 		ld	ra,24(sp)
 633              		.cfi_remember_state
 634              		.cfi_restore 1
 635 03a4 03340101 		ld	s0,16(sp)
 636              		.cfi_restore 8
 637              		.cfi_def_cfa 2, 32
 638 03a8 83348100 		ld	s1,8(sp)
GAS LISTING /tmp/cciOEt1N.s 			page 16


 639              		.cfi_restore 9
 640 03ac 13010102 		addi	sp,sp,32
 641              		.cfi_def_cfa_offset 0
 642 03b0 67800000 		jr	ra
 643              	.LVL43:
 644              	.L43:
 645              		.cfi_restore_state
 140:src/KConsole.cpp ****         putCharacterOutput(ch);
 646              		.loc 1 140 9 is_stmt 1
 140:src/KConsole.cpp ****         putCharacterOutput(ch);
 647              		.loc 1 140 27 is_stmt 0
 648 03b4 97000000 		call	_ZN8KConsole18putCharacterOutputEc
 648      E7800000 
 649              	.LVL44:
 650 03bc 6FF01FFD 		j	.L40
 651              	.L44:
 144:src/KConsole.cpp ****         putCharacterOutput(10);
 652              		.loc 1 144 9 is_stmt 1
 144:src/KConsole.cpp ****         putCharacterOutput(10);
 653              		.loc 1 144 27 is_stmt 0
 654 03c0 1305D000 		li	a0,13
 655 03c4 97000000 		call	_ZN8KConsole18putCharacterOutputEc
 655      E7800000 
 656              	.LVL45:
 145:src/KConsole.cpp ****     }
 657              		.loc 1 145 9 is_stmt 1
 145:src/KConsole.cpp ****     }
 658              		.loc 1 145 27 is_stmt 0
 659 03cc 1305A000 		li	a0,10
 660 03d0 97000000 		call	_ZN8KConsole18putCharacterOutputEc
 660      E7800000 
 661              	.LVL46:
 662 03d8 6FF0DFFB 		j	.L41
 663              		.cfi_endproc
 664              	.LFE33:
 666              		.align	2
 667              		.globl	_ZN8KConsole17outputBufferEmptyEv
 669              	_ZN8KConsole17outputBufferEmptyEv:
 670              	.LFB34:
 151:src/KConsole.cpp **** 
 152:src/KConsole.cpp **** bool KConsole::outputBufferEmpty()
 153:src/KConsole.cpp **** {
 671              		.loc 1 153 1 is_stmt 1
 672              		.cfi_startproc
 673 03dc 130101FF 		addi	sp,sp,-16
 674              		.cfi_def_cfa_offset 16
 675 03e0 23348100 		sd	s0,8(sp)
 676              		.cfi_offset 8, -8
 677 03e4 13040101 		addi	s0,sp,16
 678              		.cfi_def_cfa 8, 0
 154:src/KConsole.cpp ****     return pendingPutc == 0;
 679              		.loc 1 154 5
 155:src/KConsole.cpp **** }
 680              		.loc 1 155 1 is_stmt 0
 681 03e8 17050000 		ld	a0,.LANCHOR0+48
 681      03350500 
 682 03f0 13351500 		seqz	a0,a0
GAS LISTING /tmp/cciOEt1N.s 			page 17


 683 03f4 03348100 		ld	s0,8(sp)
 684              		.cfi_restore 8
 685              		.cfi_def_cfa 2, 16
 686 03f8 13010101 		addi	sp,sp,16
 687              		.cfi_def_cfa_offset 0
 688 03fc 67800000 		jr	ra
 689              		.cfi_endproc
 690              	.LFE34:
 692              		.align	2
 693              		.globl	_ZN8KConsole23sendCharactersToConsoleEPv
 695              	_ZN8KConsole23sendCharactersToConsoleEPv:
 696              	.LFB27:
  56:src/KConsole.cpp ****     while(true)
 697              		.loc 1 56 1 is_stmt 1
 698              		.cfi_startproc
 699              	.LVL47:
 700 0400 130101FE 		addi	sp,sp,-32
 701              		.cfi_def_cfa_offset 32
 702 0404 233C1100 		sd	ra,24(sp)
 703 0408 23388100 		sd	s0,16(sp)
 704              		.cfi_offset 1, -8
 705              		.cfi_offset 8, -16
 706 040c 13040102 		addi	s0,sp,32
 707              		.cfi_def_cfa 8, 0
 708 0410 6F004006 		j	.L48
 709              	.LVL48:
 710              	.L49:
 711              	.LBB9:
  62:src/KConsole.cpp ****             __asm__ volatile("mv a0, %0"::"r"(x));
 712              		.loc 1 62 13
  62:src/KConsole.cpp ****             __asm__ volatile("mv a0, %0"::"r"(x));
 713              		.loc 1 62 20 is_stmt 0
 714 0414 97070000 		la	a5,CONSOLE_STATUS
 714      83B70700 
 715 041c 83B70700 		ld	a5,0(a5)
 716              	.LVL49:
  63:src/KConsole.cpp ****             __asm__ volatile("lb a1, 0(a0)");
 717              		.loc 1 63 13 is_stmt 1
  63:src/KConsole.cpp ****             __asm__ volatile("lb a1, 0(a0)");
 718              		.loc 1 63 50 is_stmt 0
 719              	#APP
 720              	# 63 "src/KConsole.cpp" 1
  64:src/KConsole.cpp ****             uint64 operation;
 721              		mv a0, a5
 722              	# 0 "" 2
 723              		.loc 1 64 13 is_stmt 1
  64:src/KConsole.cpp ****             uint64 operation;
 724              		.loc 1 64 45 is_stmt 0
 725              	# 64 "src/KConsole.cpp" 1
  65:src/KConsole.cpp ****             __asm__ volatile("mv %0, a1" :  "=r"(operation));
 726              		lb a1, 0(a0)
 727              	# 0 "" 2
 728              		.loc 1 65 13 is_stmt 1
  66:src/KConsole.cpp ****             if (operation & STATUS_WRITE_MASK)
 729              		.loc 1 66 13
  66:src/KConsole.cpp ****             if (operation & STATUS_WRITE_MASK)
 730              		.loc 1 66 61 is_stmt 0
GAS LISTING /tmp/cciOEt1N.s 			page 18


 731              	# 66 "src/KConsole.cpp" 1
 732              		mv a5, a1
 733              	# 0 "" 2
 734              	.LVL50:
  67:src/KConsole.cpp ****             {
 735              		.loc 1 67 13 is_stmt 1
 736              	#NO_APP
 737              	.LBB10:
  67:src/KConsole.cpp ****             {
 738              		.loc 1 67 27 is_stmt 0
 739 042c 93F70702 		andi	a5,a5,32
 740              	.LVL51:
  67:src/KConsole.cpp ****             {
 741              		.loc 1 67 13
 742 0430 638C0706 		beqz	a5,.L50
 743              	.LBB11:
  69:src/KConsole.cpp ****                 pendingPutc--;
 744              		.loc 1 69 17 is_stmt 1
  69:src/KConsole.cpp ****                 pendingPutc--;
 745              		.loc 1 69 55 is_stmt 0
 746 0434 97000000 		call	sysCallGetCharOutput@plt
 746      E7800000 
 747              	.LVL52:
  69:src/KConsole.cpp ****                 pendingPutc--;
 748              		.loc 1 69 56
 749 043c A307A4FE 		sb	a0,-17(s0)
  70:src/KConsole.cpp ****                 x = CONSOLE_RX_DATA;
 750              		.loc 1 70 17 is_stmt 1
  70:src/KConsole.cpp ****                 x = CONSOLE_RX_DATA;
 751              		.loc 1 70 28 is_stmt 0
 752 0440 17070000 		lla	a4,.LANCHOR0
 752      13070700 
 753 0448 83370703 		ld	a5,48(a4)
 754 044c 9387F7FF 		addi	a5,a5,-1
 755 0450 2338F702 		sd	a5,48(a4)
  71:src/KConsole.cpp ****                 __asm__ volatile("mv a0, %0"::"r"(x));
 756              		.loc 1 71 17 is_stmt 1
  71:src/KConsole.cpp ****                 __asm__ volatile("mv a0, %0"::"r"(x));
 757              		.loc 1 71 19 is_stmt 0
 758 0454 97070000 		la	a5,CONSOLE_RX_DATA
 758      83B70700 
 759 045c 83B70700 		ld	a5,0(a5)
 760              	.LVL53:
  72:src/KConsole.cpp ****                 __asm__ volatile("mv a1, %0" :  :"r"((uint64)c));
 761              		.loc 1 72 17 is_stmt 1
  72:src/KConsole.cpp ****                 __asm__ volatile("mv a1, %0" :  :"r"((uint64)c));
 762              		.loc 1 72 54 is_stmt 0
 763              	#APP
 764              	# 72 "src/KConsole.cpp" 1
  73:src/KConsole.cpp ****                 __asm__ volatile("sb a1,0(a0)");
 765              		mv a0, a5
 766              	# 0 "" 2
 767              		.loc 1 73 17 is_stmt 1
  73:src/KConsole.cpp ****                 __asm__ volatile("sb a1,0(a0)");
 768              		.loc 1 73 54 is_stmt 0
 769              	#NO_APP
 770 0464 8347F4FE 		lbu	a5,-17(s0)
GAS LISTING /tmp/cciOEt1N.s 			page 19


 771              	.LVL54:
 772 0468 93F7F70F 		andi	a5,a5,0xff
  73:src/KConsole.cpp ****                 __asm__ volatile("sb a1,0(a0)");
 773              		.loc 1 73 65
 774              	#APP
 775              	# 73 "src/KConsole.cpp" 1
  74:src/KConsole.cpp ****             }
 776              		mv a1, a5
 777              	# 0 "" 2
 778              		.loc 1 74 17 is_stmt 1
  74:src/KConsole.cpp ****             }
 779              		.loc 1 74 48 is_stmt 0
 780              	# 74 "src/KConsole.cpp" 1
 781              		sb a1,0(a0)
 782              	# 0 "" 2
 783              	.LVL55:
 784              	#NO_APP
 785              	.L48:
 786              	.LBE11:
 787              	.LBE10:
 788              	.LBE9:
  57:src/KConsole.cpp ****     {
 789              		.loc 1 57 5 is_stmt 1
 790              	.LBB13:
  59:src/KConsole.cpp ****                 thread_exit();
 791              		.loc 1 59 13
  59:src/KConsole.cpp ****                 thread_exit();
 792              		.loc 1 59 69 is_stmt 0
 793 0474 97070000 		la	a5,_ZN5Riscv12finishSystemE
 793      83B70700 
 794 047c 83C70700 		lbu	a5,0(a5)
 795 0480 E38A07F8 		beqz	a5,.L49
  59:src/KConsole.cpp ****                 thread_exit();
 796              		.loc 1 59 66 discriminator 1
 797 0484 97000000 		call	_ZN8KConsole17outputBufferEmptyEv
 797      E7800000 
 798              	.LVL56:
  59:src/KConsole.cpp ****                 thread_exit();
 799              		.loc 1 59 36 discriminator 1
 800 048c E30405F8 		beqz	a0,.L49
  59:src/KConsole.cpp ****                 thread_exit();
 801              		.loc 1 59 84 discriminator 3
 802 0490 97070000 		ld	a5,.LANCHOR0+56
 802      83B70700 
  59:src/KConsole.cpp ****                 thread_exit();
 803              		.loc 1 59 69 discriminator 3
 804 0498 E39E07F6 		bnez	a5,.L49
  60:src/KConsole.cpp **** 
 805              		.loc 1 60 17 is_stmt 1
  60:src/KConsole.cpp **** 
 806              		.loc 1 60 28 is_stmt 0
 807 049c 97000000 		call	thread_exit@plt
 807      E7800000 
 808              	.LVL57:
 809 04a4 6FF01FF7 		j	.L49
 810              	.LVL58:
 811              	.L50:
GAS LISTING /tmp/cciOEt1N.s 			page 20


 812              	.LBB12:
  78:src/KConsole.cpp ****             }
 813              		.loc 1 78 17 is_stmt 1
  78:src/KConsole.cpp ****             }
 814              		.loc 1 78 32 is_stmt 0
 815 04a8 97000000 		call	thread_dispatch@plt
 815      E7800000 
 816              	.LVL59:
 817 04b0 6FF05FFC 		j	.L48
 818              	.LBE12:
 819              	.LBE13:
 820              		.cfi_endproc
 821              	.LFE27:
 823              		.align	2
 824              		.globl	_ZN8KConsole14getCharHandlerEv
 826              	_ZN8KConsole14getCharHandlerEv:
 827              	.LFB35:
 156:src/KConsole.cpp **** 
 157:src/KConsole.cpp **** void KConsole::getCharHandler()
 158:src/KConsole.cpp **** {
 828              		.loc 1 158 1 is_stmt 1
 829              		.cfi_startproc
 830 04b4 130101FF 		addi	sp,sp,-16
 831              		.cfi_def_cfa_offset 16
 832 04b8 23341100 		sd	ra,8(sp)
 833 04bc 23308100 		sd	s0,0(sp)
 834              		.cfi_offset 1, -8
 835              		.cfi_offset 8, -16
 836 04c0 13040101 		addi	s0,sp,16
 837              		.cfi_def_cfa 8, 0
 159:src/KConsole.cpp ****     char ch;
 838              		.loc 1 159 5
 160:src/KConsole.cpp ****     ch = getCharacterOutput();
 839              		.loc 1 160 5
 840              		.loc 1 160 28 is_stmt 0
 841 04c4 97000000 		call	_ZN8KConsole18getCharacterOutputEv
 841      E7800000 
 842              	.LVL60:
 161:src/KConsole.cpp ****     __asm__ volatile("mv a0, %0" : :"r"((uint64)ch));
 843              		.loc 1 161 5 is_stmt 1
 844              		.loc 1 161 53 is_stmt 0
 845              	#APP
 846              	# 161 "src/KConsole.cpp" 1
 162              	    Riscv::w_a0_sscratch();
 847              		mv a0, a0
 848              	# 0 "" 2
 849              		.loc 1 162 5 is_stmt 1
 850              		.loc 1 162 25 is_stmt 0
 851              	#NO_APP
 852 04d0 97000000 		call	_ZN5Riscv13w_a0_sscratchEv@plt
 852      E7800000 
 853              	.LVL61:
 163:src/KConsole.cpp **** }
 854              		.loc 1 163 1
 855 04d8 83308100 		ld	ra,8(sp)
 856              		.cfi_restore 1
 857 04dc 03340100 		ld	s0,0(sp)
GAS LISTING /tmp/cciOEt1N.s 			page 21


 858              		.cfi_restore 8
 859              		.cfi_def_cfa 2, 16
 860 04e0 13010101 		addi	sp,sp,16
 861              		.cfi_def_cfa_offset 0
 862 04e4 67800000 		jr	ra
 863              		.cfi_endproc
 864              	.LFE35:
 866              		.globl	_ZN8KConsole11pendingPutcE
 867              		.globl	_ZN8KConsole12outputBufferE
 868              		.globl	_ZN8KConsole11inputBufferE
 869              		.globl	_ZN8KConsole11pendingGetcE
 870              		.globl	_ZN8KConsole18hasCharactersInputE
 871              		.globl	_ZN8KConsole19hasCharactersOutputE
 872              		.globl	_ZN8KConsole10outputTailE
 873              		.globl	_ZN8KConsole10outputHeadE
 874              		.globl	_ZN8KConsole9inputTailE
 875              		.globl	_ZN8KConsole9inputHeadE
 876              		.bss
 877              		.align	3
 878              		.set	.LANCHOR0,. + 0
 881              	_ZN8KConsole18hasCharactersInputE:
 882 0000 00000000 		.zero	8
 882      00000000 
 885              	_ZN8KConsole19hasCharactersOutputE:
 886 0008 00000000 		.zero	8
 886      00000000 
 889              	_ZN8KConsole9inputTailE:
 890 0010 00000000 		.zero	8
 890      00000000 
 893              	_ZN8KConsole9inputHeadE:
 894 0018 00000000 		.zero	8
 894      00000000 
 897              	_ZN8KConsole10outputTailE:
 898 0020 00000000 		.zero	8
 898      00000000 
 901              	_ZN8KConsole10outputHeadE:
 902 0028 00000000 		.zero	8
 902      00000000 
 905              	_ZN8KConsole11pendingPutcE:
 906 0030 00000000 		.zero	8
 906      00000000 
 909              	_ZN8KConsole11pendingGetcE:
 910 0038 00000000 		.zero	8
 910      00000000 
 913              	_ZN8KConsole12outputBufferE:
 914 0040 00000000 		.zero	8192
 914      00000000 
 914      00000000 
 914      00000000 
 914      00000000 
 917              	_ZN8KConsole11inputBufferE:
 918 2040 00000000 		.zero	8192
 918      00000000 
 918      00000000 
 918      00000000 
 918      00000000 
 919              		.text
GAS LISTING /tmp/cciOEt1N.s 			page 22


 920              	.Letext0:
 921              		.file 2 "src/../h/../lib/hw.h"
 922              		.file 3 "src/../h/PCB.hpp"
 923              		.file 4 "src/../h/Riscv.hpp"
 924              		.file 5 "src/../h/KSemaphore.hpp"
 925              		.file 6 "src/../h/KConsole.hpp"
 926              		.file 7 "src/../h/../test/../h/syscall_c.h"
 4657              		.align	3
 4660              	DW.ref.__gxx_personality_v0:
 4661 0000 00000000 		.dword	__gxx_personality_v0
 4661      00000000 
 4662              		.ident	"GCC: (Ubuntu 9.3.0-17ubuntu1~20.04) 9.3.0"
 4663              		.section	.note.GNU-stack,"",@progbits
GAS LISTING /tmp/cciOEt1N.s 			page 23


DEFINED SYMBOLS
                            *ABS*:0000000000000000 KConsole.cpp
     /tmp/cciOEt1N.s:9      .text:0000000000000000 _ZN8KConsole10initializeEv
     /tmp/cciOEt1N.s:13     .text:0000000000000000 .L0 
     /tmp/cciOEt1N.s:4660   .data.rel.local.DW.ref.__gxx_personality_v0:0000000000000000 DW.ref.__gxx_personality_v0
     /tmp/cciOEt1N.s:16     .text:0000000000000000 .L0 
     /tmp/cciOEt1N.s:17     .text:0000000000000004 .L0 
     /tmp/cciOEt1N.s:22     .text:0000000000000014 .L0 
     /tmp/cciOEt1N.s:23     .text:0000000000000014 .L0 
     /tmp/cciOEt1N.s:24     .text:0000000000000014 .L0 
     /tmp/cciOEt1N.s:25     .text:0000000000000014 .L0 
     /tmp/cciOEt1N.s:27     .text:0000000000000018 .L0 
     /tmp/cciOEt1N.s:29     .text:0000000000000018 .L0 
     /tmp/cciOEt1N.s:30     .text:0000000000000018 .L0 
     /tmp/cciOEt1N.s:42     .text:0000000000000034 .L0 
     /tmp/cciOEt1N.s:44     .text:000000000000003c .L0 
     /tmp/cciOEt1N.s:45     .text:000000000000003c .L0 
     /tmp/cciOEt1N.s:57     .text:0000000000000058 .L0 
     /tmp/cciOEt1N.s:59     .text:0000000000000060 .L0 
     /tmp/cciOEt1N.s:60     .text:0000000000000064 .L0 
     /tmp/cciOEt1N.s:61     .text:0000000000000064 .L0 
     /tmp/cciOEt1N.s:63     .text:0000000000000068 .L0 
     /tmp/cciOEt1N.s:64     .text:0000000000000068 .L0 
     /tmp/cciOEt1N.s:66     .text:000000000000006c .L0 
     /tmp/cciOEt1N.s:68     .text:0000000000000070 .L0 
     /tmp/cciOEt1N.s:70     .text:0000000000000074 .L0 
     /tmp/cciOEt1N.s:73     .text:0000000000000078 .L0 
     /tmp/cciOEt1N.s:76     .text:000000000000007c .L0 
     /tmp/cciOEt1N.s:87     .text:0000000000000098 .L0 
     /tmp/cciOEt1N.s:95     .text:00000000000000b0 .L0 
     /tmp/cciOEt1N.s:133    .text:00000000000000b0 _ZN8KConsole17putCharacterInputEc
     /tmp/cciOEt1N.s:136    .text:00000000000000b0 .L0 
     /tmp/cciOEt1N.s:138    .text:00000000000000b0 .L0 
     /tmp/cciOEt1N.s:139    .text:00000000000000b0 .L0 
     /tmp/cciOEt1N.s:140    .text:00000000000000b0 .L0 
     /tmp/cciOEt1N.s:144    .text:00000000000000c0 .L0 
     /tmp/cciOEt1N.s:148    .text:00000000000000cc .L0 
     /tmp/cciOEt1N.s:150    .text:00000000000000d0 .L0 
     /tmp/cciOEt1N.s:152    .text:00000000000000d4 .L0 
     /tmp/cciOEt1N.s:153    .text:00000000000000d8 .L0 
     /tmp/cciOEt1N.s:156    .text:00000000000000e0 .L0 
     /tmp/cciOEt1N.s:157    .text:00000000000000e0 .L0 
     /tmp/cciOEt1N.s:159    .text:00000000000000e4 .L0 
     /tmp/cciOEt1N.s:161    .text:00000000000000e4 .L0 
     /tmp/cciOEt1N.s:917    .bss:0000000000002040 _ZN8KConsole11inputBufferE
     /tmp/cciOEt1N.s:162    .text:00000000000000e4 .L0 
     /tmp/cciOEt1N.s:166    .text:00000000000000f4 .L0 
     /tmp/cciOEt1N.s:167    .text:00000000000000f4 .L0 
     /tmp/cciOEt1N.s:169    .text:00000000000000f8 .L0 
     /tmp/cciOEt1N.s:170    .text:00000000000000f8 .L0 
     /tmp/cciOEt1N.s:175    .text:0000000000000104 .L0 
     /tmp/cciOEt1N.s:176    .text:0000000000000108 .L0 
     /tmp/cciOEt1N.s:178    .text:000000000000010c .L0 
     /tmp/cciOEt1N.s:179    .text:000000000000010c .L0 
     /tmp/cciOEt1N.s:181    .text:0000000000000110 .L0 
     /tmp/cciOEt1N.s:186    .text:0000000000000118 .L0 
     /tmp/cciOEt1N.s:192    .text:0000000000000118 _ZN8KConsole17getCharacterInputEv
GAS LISTING /tmp/cciOEt1N.s 			page 24


     /tmp/cciOEt1N.s:195    .text:0000000000000118 .L0 
     /tmp/cciOEt1N.s:196    .text:0000000000000118 .L0 
     /tmp/cciOEt1N.s:197    .text:000000000000011c .L0 
     /tmp/cciOEt1N.s:201    .text:0000000000000128 .L0 
     /tmp/cciOEt1N.s:202    .text:0000000000000128 .L0 
     /tmp/cciOEt1N.s:203    .text:0000000000000128 .L0 
     /tmp/cciOEt1N.s:205    .text:000000000000012c .L0 
     /tmp/cciOEt1N.s:207    .text:000000000000012c .L0 
     /tmp/cciOEt1N.s:208    .text:000000000000012c .L0 
     /tmp/cciOEt1N.s:213    .text:0000000000000140 .L0 
     /tmp/cciOEt1N.s:214    .text:0000000000000140 .L0 
     /tmp/cciOEt1N.s:217    .text:0000000000000148 .L0 
     /tmp/cciOEt1N.s:219    .text:000000000000014c .L0 
     /tmp/cciOEt1N.s:220    .text:000000000000014c .L0 
     /tmp/cciOEt1N.s:225    .text:000000000000015c .L0 
     /tmp/cciOEt1N.s:226    .text:000000000000015c .L0 
     /tmp/cciOEt1N.s:228    .text:0000000000000160 .L0 
     /tmp/cciOEt1N.s:232    .text:000000000000016c .L0 
     /tmp/cciOEt1N.s:236    .text:0000000000000174 .L0 
     /tmp/cciOEt1N.s:237    .text:0000000000000174 .L0 
     /tmp/cciOEt1N.s:238    .text:0000000000000178 .L0 
     /tmp/cciOEt1N.s:239    .text:0000000000000178 .L0 
     /tmp/cciOEt1N.s:241    .text:000000000000017c .L0 
     /tmp/cciOEt1N.s:242    .text:000000000000017c .L0 
     /tmp/cciOEt1N.s:244    .text:0000000000000180 .L0 
     /tmp/cciOEt1N.s:246    .text:0000000000000184 .L0 
     /tmp/cciOEt1N.s:249    .text:0000000000000188 .L0 
     /tmp/cciOEt1N.s:251    .text:0000000000000188 .L0 
     /tmp/cciOEt1N.s:253    .text:0000000000000190 .L0 
     /tmp/cciOEt1N.s:259    .text:0000000000000190 _ZN8KConsole18putCharacterOutputEc
     /tmp/cciOEt1N.s:262    .text:0000000000000190 .L0 
     /tmp/cciOEt1N.s:264    .text:0000000000000190 .L0 
     /tmp/cciOEt1N.s:265    .text:0000000000000190 .L0 
     /tmp/cciOEt1N.s:266    .text:0000000000000190 .L0 
     /tmp/cciOEt1N.s:270    .text:00000000000001a0 .L0 
     /tmp/cciOEt1N.s:274    .text:00000000000001ac .L0 
     /tmp/cciOEt1N.s:276    .text:00000000000001b0 .L0 
     /tmp/cciOEt1N.s:278    .text:00000000000001b4 .L0 
     /tmp/cciOEt1N.s:279    .text:00000000000001b8 .L0 
     /tmp/cciOEt1N.s:282    .text:00000000000001c0 .L0 
     /tmp/cciOEt1N.s:283    .text:00000000000001c0 .L0 
     /tmp/cciOEt1N.s:285    .text:00000000000001c4 .L0 
     /tmp/cciOEt1N.s:287    .text:00000000000001c4 .L0 
     /tmp/cciOEt1N.s:288    .text:00000000000001c4 .L0 
     /tmp/cciOEt1N.s:293    .text:00000000000001d4 .L0 
     /tmp/cciOEt1N.s:913    .bss:0000000000000040 _ZN8KConsole12outputBufferE
     /tmp/cciOEt1N.s:294    .text:00000000000001d4 .L0 
     /tmp/cciOEt1N.s:298    .text:00000000000001e4 .L0 
     /tmp/cciOEt1N.s:299    .text:00000000000001e4 .L0 
     /tmp/cciOEt1N.s:301    .text:00000000000001e8 .L0 
     /tmp/cciOEt1N.s:302    .text:00000000000001e8 .L0 
     /tmp/cciOEt1N.s:307    .text:00000000000001f4 .L0 
     /tmp/cciOEt1N.s:308    .text:00000000000001f8 .L0 
     /tmp/cciOEt1N.s:310    .text:00000000000001fc .L0 
     /tmp/cciOEt1N.s:311    .text:00000000000001fc .L0 
     /tmp/cciOEt1N.s:313    .text:0000000000000200 .L0 
     /tmp/cciOEt1N.s:318    .text:0000000000000208 .L0 
GAS LISTING /tmp/cciOEt1N.s 			page 25


     /tmp/cciOEt1N.s:324    .text:0000000000000208 _ZN8KConsole24getCharactersFromConsoleEPv
     /tmp/cciOEt1N.s:327    .text:0000000000000208 .L0 
     /tmp/cciOEt1N.s:329    .text:0000000000000208 .L0 
     /tmp/cciOEt1N.s:331    .text:0000000000000208 .L0 
     /tmp/cciOEt1N.s:332    .text:0000000000000208 .L0 
     /tmp/cciOEt1N.s:333    .text:0000000000000208 .L0 
     /tmp/cciOEt1N.s:337    .text:0000000000000214 .L0 
    src/KConsole.cpp:35     .text:0000000000000214 .L0 
     /tmp/cciOEt1N.s:343    .text:0000000000000218 .L0 
    src/KConsole.cpp:36     .text:0000000000000218 .L0 
     /tmp/cciOEt1N.s:348    .text:000000000000021c .L0 
     /tmp/cciOEt1N.s:349    .text:000000000000021c .L0 
    src/KConsole.cpp:38     .text:000000000000021c .L0 
     /tmp/cciOEt1N.s:357    .text:0000000000000220 .L0 
     /tmp/cciOEt1N.s:358    .text:0000000000000220 .L0 
     /tmp/cciOEt1N.s:361    .text:0000000000000224 .L0 
     /tmp/cciOEt1N.s:365    .text:0000000000000228 .L0 
     /tmp/cciOEt1N.s:366    .text:000000000000022c .L0 
     /tmp/cciOEt1N.s:370    .text:0000000000000238 .L0 
     /tmp/cciOEt1N.s:371    .text:0000000000000238 .L0 
     /tmp/cciOEt1N.s:372    .text:0000000000000238 .L0 
     /tmp/cciOEt1N.s:374    .text:000000000000023c .L0 
     /tmp/cciOEt1N.s:381    .text:000000000000023c .L0 
     /tmp/cciOEt1N.s:382    .text:000000000000023c .L0 
     /tmp/cciOEt1N.s:386    .text:0000000000000248 .L0 
    src/KConsole.cpp:42     .text:0000000000000248 .L0 
     /tmp/cciOEt1N.s:392    .text:000000000000024c .L0 
    src/KConsole.cpp:43     .text:000000000000024c .L0 
     /tmp/cciOEt1N.s:397    .text:0000000000000250 .L0 
     /tmp/cciOEt1N.s:398    .text:0000000000000250 .L0 
    src/KConsole.cpp:45     .text:0000000000000250 .L0 
     /tmp/cciOEt1N.s:406    .text:0000000000000258 .L0 
     /tmp/cciOEt1N.s:407    .text:0000000000000258 .L0 
     /tmp/cciOEt1N.s:411    .text:0000000000000264 .L0 
     /tmp/cciOEt1N.s:412    .text:0000000000000264 .L0 
     /tmp/cciOEt1N.s:419    .text:0000000000000270 .L0 
     /tmp/cciOEt1N.s:421    .text:0000000000000270 .L0 
     /tmp/cciOEt1N.s:422    .text:0000000000000270 .L0 
     /tmp/cciOEt1N.s:423    .text:0000000000000270 .L0 
     /tmp/cciOEt1N.s:427    .text:000000000000027c .L0 
    src/KConsole.cpp:35     .text:000000000000027c .L0 
     /tmp/cciOEt1N.s:433    .text:0000000000000280 .L0 
    src/KConsole.cpp:36     .text:0000000000000280 .L0 
     /tmp/cciOEt1N.s:438    .text:0000000000000284 .L0 
     /tmp/cciOEt1N.s:439    .text:0000000000000284 .L0 
    src/KConsole.cpp:38     .text:0000000000000284 .L0 
     /tmp/cciOEt1N.s:447    .text:0000000000000288 .L0 
     /tmp/cciOEt1N.s:448    .text:0000000000000288 .L0 
     /tmp/cciOEt1N.s:451    .text:000000000000028c .L0 
     /tmp/cciOEt1N.s:455    .text:0000000000000290 .L0 
     /tmp/cciOEt1N.s:456    .text:0000000000000294 .L0 
     /tmp/cciOEt1N.s:458    .text:0000000000000298 .L0 
     /tmp/cciOEt1N.s:459    .text:0000000000000298 .L0 
     /tmp/cciOEt1N.s:461    .text:000000000000029c .L0 
     /tmp/cciOEt1N.s:464    .text:00000000000002a0 .L0 
     /tmp/cciOEt1N.s:469    .text:00000000000002a8 .L0 
     /tmp/cciOEt1N.s:475    .text:00000000000002a8 _ZN8KConsole18getCharacterOutputEv
GAS LISTING /tmp/cciOEt1N.s 			page 26


     /tmp/cciOEt1N.s:478    .text:00000000000002a8 .L0 
     /tmp/cciOEt1N.s:479    .text:00000000000002a8 .L0 
     /tmp/cciOEt1N.s:480    .text:00000000000002ac .L0 
     /tmp/cciOEt1N.s:484    .text:00000000000002b8 .L0 
     /tmp/cciOEt1N.s:485    .text:00000000000002b8 .L0 
     /tmp/cciOEt1N.s:486    .text:00000000000002b8 .L0 
     /tmp/cciOEt1N.s:488    .text:00000000000002bc .L0 
     /tmp/cciOEt1N.s:490    .text:00000000000002bc .L0 
     /tmp/cciOEt1N.s:491    .text:00000000000002bc .L0 
     /tmp/cciOEt1N.s:496    .text:00000000000002d0 .L0 
     /tmp/cciOEt1N.s:497    .text:00000000000002d0 .L0 
     /tmp/cciOEt1N.s:500    .text:00000000000002d8 .L0 
     /tmp/cciOEt1N.s:502    .text:00000000000002dc .L0 
     /tmp/cciOEt1N.s:503    .text:00000000000002dc .L0 
     /tmp/cciOEt1N.s:508    .text:00000000000002ec .L0 
     /tmp/cciOEt1N.s:509    .text:00000000000002ec .L0 
     /tmp/cciOEt1N.s:511    .text:00000000000002f0 .L0 
     /tmp/cciOEt1N.s:515    .text:00000000000002fc .L0 
     /tmp/cciOEt1N.s:519    .text:0000000000000304 .L0 
     /tmp/cciOEt1N.s:520    .text:0000000000000304 .L0 
     /tmp/cciOEt1N.s:521    .text:0000000000000308 .L0 
     /tmp/cciOEt1N.s:522    .text:0000000000000308 .L0 
     /tmp/cciOEt1N.s:524    .text:000000000000030c .L0 
     /tmp/cciOEt1N.s:525    .text:000000000000030c .L0 
     /tmp/cciOEt1N.s:527    .text:0000000000000310 .L0 
     /tmp/cciOEt1N.s:529    .text:0000000000000314 .L0 
     /tmp/cciOEt1N.s:532    .text:0000000000000318 .L0 
     /tmp/cciOEt1N.s:534    .text:0000000000000318 .L0 
     /tmp/cciOEt1N.s:536    .text:0000000000000320 .L0 
     /tmp/cciOEt1N.s:542    .text:0000000000000320 _ZN8KConsole11putcHandlerEv
     /tmp/cciOEt1N.s:545    .text:0000000000000320 .L0 
     /tmp/cciOEt1N.s:546    .text:0000000000000320 .L0 
     /tmp/cciOEt1N.s:547    .text:0000000000000324 .L0 
     /tmp/cciOEt1N.s:550    .text:000000000000032c .L0 
     /tmp/cciOEt1N.s:551    .text:000000000000032c .L0 
     /tmp/cciOEt1N.s:553    .text:0000000000000330 .L0 
     /tmp/cciOEt1N.s:555    .text:0000000000000330 .L0 
     /tmp/cciOEt1N.s:556    .text:0000000000000330 .L0 
    src/KConsole.cpp:130    .text:0000000000000330 .L0 
     /tmp/cciOEt1N.s:563    .text:0000000000000334 .L0 
     /tmp/cciOEt1N.s:565    .text:0000000000000334 .L0 
     /tmp/cciOEt1N.s:570    .text:0000000000000340 .L0 
     /tmp/cciOEt1N.s:571    .text:0000000000000344 .L0 
     /tmp/cciOEt1N.s:573    .text:0000000000000348 .L0 
     /tmp/cciOEt1N.s:574    .text:0000000000000348 .L0 
     /tmp/cciOEt1N.s:576    .text:000000000000034c .L0 
     /tmp/cciOEt1N.s:578    .text:0000000000000350 .L0 
     /tmp/cciOEt1N.s:584    .text:0000000000000350 _ZN8KConsole11getcHandlerEv
     /tmp/cciOEt1N.s:587    .text:0000000000000350 .L0 
     /tmp/cciOEt1N.s:588    .text:0000000000000350 .L0 
     /tmp/cciOEt1N.s:589    .text:0000000000000354 .L0 
     /tmp/cciOEt1N.s:593    .text:0000000000000360 .L0 
     /tmp/cciOEt1N.s:594    .text:0000000000000360 .L0 
     /tmp/cciOEt1N.s:595    .text:0000000000000360 .L0 
     /tmp/cciOEt1N.s:597    .text:0000000000000364 .L0 
     /tmp/cciOEt1N.s:599    .text:0000000000000364 .L0 
     /tmp/cciOEt1N.s:600    .text:0000000000000364 .L0 
GAS LISTING /tmp/cciOEt1N.s 			page 27


     /tmp/cciOEt1N.s:605    .text:0000000000000378 .L0 
     /tmp/cciOEt1N.s:606    .text:0000000000000378 .L0 
     /tmp/cciOEt1N.s:607    .text:0000000000000378 .L0 
     /tmp/cciOEt1N.s:612    .text:0000000000000384 .L0 
     /tmp/cciOEt1N.s:617    .text:000000000000038c .L0 
     /tmp/cciOEt1N.s:621    .text:0000000000000394 .L0 
    src/KConsole.cpp:148    .text:0000000000000394 .L0 
     /tmp/cciOEt1N.s:627    .text:0000000000000398 .L0 
     /tmp/cciOEt1N.s:629    .text:0000000000000398 .L0 
     /tmp/cciOEt1N.s:632    .text:00000000000003a0 .L0 
     /tmp/cciOEt1N.s:633    .text:00000000000003a4 .L0 
     /tmp/cciOEt1N.s:634    .text:00000000000003a4 .L0 
     /tmp/cciOEt1N.s:636    .text:00000000000003a8 .L0 
     /tmp/cciOEt1N.s:637    .text:00000000000003a8 .L0 
     /tmp/cciOEt1N.s:639    .text:00000000000003ac .L0 
     /tmp/cciOEt1N.s:641    .text:00000000000003b0 .L0 
     /tmp/cciOEt1N.s:645    .text:00000000000003b4 .L0 
     /tmp/cciOEt1N.s:647    .text:00000000000003b4 .L0 
     /tmp/cciOEt1N.s:648    .text:00000000000003b4 .L0 
     /tmp/cciOEt1N.s:653    .text:00000000000003c0 .L0 
     /tmp/cciOEt1N.s:654    .text:00000000000003c0 .L0 
     /tmp/cciOEt1N.s:658    .text:00000000000003cc .L0 
     /tmp/cciOEt1N.s:659    .text:00000000000003cc .L0 
     /tmp/cciOEt1N.s:663    .text:00000000000003dc .L0 
     /tmp/cciOEt1N.s:669    .text:00000000000003dc _ZN8KConsole17outputBufferEmptyEv
     /tmp/cciOEt1N.s:672    .text:00000000000003dc .L0 
     /tmp/cciOEt1N.s:673    .text:00000000000003dc .L0 
     /tmp/cciOEt1N.s:674    .text:00000000000003e0 .L0 
     /tmp/cciOEt1N.s:676    .text:00000000000003e4 .L0 
     /tmp/cciOEt1N.s:678    .text:00000000000003e8 .L0 
     /tmp/cciOEt1N.s:680    .text:00000000000003e8 .L0 
     /tmp/cciOEt1N.s:681    .text:00000000000003e8 .L0 
     /tmp/cciOEt1N.s:684    .text:00000000000003f8 .L0 
     /tmp/cciOEt1N.s:685    .text:00000000000003f8 .L0 
     /tmp/cciOEt1N.s:687    .text:00000000000003fc .L0 
     /tmp/cciOEt1N.s:689    .text:0000000000000400 .L0 
     /tmp/cciOEt1N.s:695    .text:0000000000000400 _ZN8KConsole23sendCharactersToConsoleEPv
     /tmp/cciOEt1N.s:698    .text:0000000000000400 .L0 
     /tmp/cciOEt1N.s:700    .text:0000000000000400 .L0 
     /tmp/cciOEt1N.s:701    .text:0000000000000404 .L0 
     /tmp/cciOEt1N.s:704    .text:000000000000040c .L0 
     /tmp/cciOEt1N.s:705    .text:000000000000040c .L0 
     /tmp/cciOEt1N.s:707    .text:0000000000000410 .L0 
     /tmp/cciOEt1N.s:713    .text:0000000000000414 .L0 
     /tmp/cciOEt1N.s:714    .text:0000000000000414 .L0 
     /tmp/cciOEt1N.s:718    .text:0000000000000420 .L0 
    src/KConsole.cpp:63     .text:0000000000000420 .L0 
     /tmp/cciOEt1N.s:724    .text:0000000000000424 .L0 
    src/KConsole.cpp:64     .text:0000000000000424 .L0 
     /tmp/cciOEt1N.s:729    .text:0000000000000428 .L0 
     /tmp/cciOEt1N.s:730    .text:0000000000000428 .L0 
    src/KConsole.cpp:66     .text:0000000000000428 .L0 
     /tmp/cciOEt1N.s:738    .text:000000000000042c .L0 
     /tmp/cciOEt1N.s:739    .text:000000000000042c .L0 
     /tmp/cciOEt1N.s:742    .text:0000000000000430 .L0 
     /tmp/cciOEt1N.s:745    .text:0000000000000434 .L0 
     /tmp/cciOEt1N.s:746    .text:0000000000000434 .L0 
GAS LISTING /tmp/cciOEt1N.s 			page 28


     /tmp/cciOEt1N.s:749    .text:000000000000043c .L0 
     /tmp/cciOEt1N.s:751    .text:0000000000000440 .L0 
     /tmp/cciOEt1N.s:752    .text:0000000000000440 .L0 
     /tmp/cciOEt1N.s:757    .text:0000000000000454 .L0 
     /tmp/cciOEt1N.s:758    .text:0000000000000454 .L0 
     /tmp/cciOEt1N.s:762    .text:0000000000000460 .L0 
    src/KConsole.cpp:72     .text:0000000000000460 .L0 
     /tmp/cciOEt1N.s:768    .text:0000000000000464 .L0 
     /tmp/cciOEt1N.s:770    .text:0000000000000464 .L0 
    src/KConsole.cpp:73     .text:000000000000046c .L0 
     /tmp/cciOEt1N.s:779    .text:0000000000000470 .L0 
    src/KConsole.cpp:74     .text:0000000000000470 .L0 
     /tmp/cciOEt1N.s:791    .text:0000000000000474 .L0 
     /tmp/cciOEt1N.s:792    .text:0000000000000474 .L0 
     /tmp/cciOEt1N.s:793    .text:0000000000000474 .L0 
     /tmp/cciOEt1N.s:797    .text:0000000000000484 .L0 
     /tmp/cciOEt1N.s:800    .text:000000000000048c .L0 
     /tmp/cciOEt1N.s:802    .text:0000000000000490 .L0 
     /tmp/cciOEt1N.s:804    .text:0000000000000498 .L0 
     /tmp/cciOEt1N.s:806    .text:000000000000049c .L0 
     /tmp/cciOEt1N.s:807    .text:000000000000049c .L0 
     /tmp/cciOEt1N.s:814    .text:00000000000004a8 .L0 
     /tmp/cciOEt1N.s:815    .text:00000000000004a8 .L0 
     /tmp/cciOEt1N.s:820    .text:00000000000004b4 .L0 
     /tmp/cciOEt1N.s:826    .text:00000000000004b4 _ZN8KConsole14getCharHandlerEv
     /tmp/cciOEt1N.s:829    .text:00000000000004b4 .L0 
     /tmp/cciOEt1N.s:830    .text:00000000000004b4 .L0 
     /tmp/cciOEt1N.s:831    .text:00000000000004b8 .L0 
     /tmp/cciOEt1N.s:834    .text:00000000000004c0 .L0 
     /tmp/cciOEt1N.s:835    .text:00000000000004c0 .L0 
     /tmp/cciOEt1N.s:837    .text:00000000000004c4 .L0 
     /tmp/cciOEt1N.s:839    .text:00000000000004c4 .L0 
     /tmp/cciOEt1N.s:840    .text:00000000000004c4 .L0 
     /tmp/cciOEt1N.s:841    .text:00000000000004c4 .L0 
     /tmp/cciOEt1N.s:844    .text:00000000000004cc .L0 
    src/KConsole.cpp:161    .text:00000000000004cc .L0 
     /tmp/cciOEt1N.s:850    .text:00000000000004d0 .L0 
     /tmp/cciOEt1N.s:852    .text:00000000000004d0 .L0 
     /tmp/cciOEt1N.s:855    .text:00000000000004d8 .L0 
     /tmp/cciOEt1N.s:856    .text:00000000000004dc .L0 
     /tmp/cciOEt1N.s:858    .text:00000000000004e0 .L0 
     /tmp/cciOEt1N.s:859    .text:00000000000004e0 .L0 
     /tmp/cciOEt1N.s:861    .text:00000000000004e4 .L0 
     /tmp/cciOEt1N.s:863    .text:00000000000004e8 .L0 
     /tmp/cciOEt1N.s:905    .bss:0000000000000030 _ZN8KConsole11pendingPutcE
     /tmp/cciOEt1N.s:909    .bss:0000000000000038 _ZN8KConsole11pendingGetcE
     /tmp/cciOEt1N.s:881    .bss:0000000000000000 _ZN8KConsole18hasCharactersInputE
     /tmp/cciOEt1N.s:885    .bss:0000000000000008 _ZN8KConsole19hasCharactersOutputE
     /tmp/cciOEt1N.s:897    .bss:0000000000000020 _ZN8KConsole10outputTailE
     /tmp/cciOEt1N.s:901    .bss:0000000000000028 _ZN8KConsole10outputHeadE
     /tmp/cciOEt1N.s:889    .bss:0000000000000010 _ZN8KConsole9inputTailE
     /tmp/cciOEt1N.s:893    .bss:0000000000000018 _ZN8KConsole9inputHeadE
     /tmp/cciOEt1N.s:878    .bss:0000000000000000 .LANCHOR0
     /tmp/cciOEt1N.s:927    .text:00000000000004e8 .L0 
     /tmp/cciOEt1N.s:42     .text:0000000000000034 .L0 
     /tmp/cciOEt1N.s:57     .text:0000000000000058 .L0 
     /tmp/cciOEt1N.s:140    .text:00000000000000b0 .L0 
GAS LISTING /tmp/cciOEt1N.s 			page 29


     /tmp/cciOEt1N.s:162    .text:00000000000000e4 .L0 
     /tmp/cciOEt1N.s:208    .text:000000000000012c .L0 
     /tmp/cciOEt1N.s:220    .text:000000000000014c .L0 
     /tmp/cciOEt1N.s:232    .text:000000000000016c .L0 
     /tmp/cciOEt1N.s:266    .text:0000000000000190 .L0 
     /tmp/cciOEt1N.s:294    .text:00000000000001d4 .L0 
     /tmp/cciOEt1N.s:333    .text:0000000000000208 .L0 
     /tmp/cciOEt1N.s:382    .text:000000000000023c .L0 
     /tmp/cciOEt1N.s:423    .text:0000000000000270 .L0 
     /tmp/cciOEt1N.s:491    .text:00000000000002bc .L0 
     /tmp/cciOEt1N.s:503    .text:00000000000002dc .L0 
     /tmp/cciOEt1N.s:515    .text:00000000000002fc .L0 
     /tmp/cciOEt1N.s:600    .text:0000000000000364 .L0 
     /tmp/cciOEt1N.s:681    .text:00000000000003e8 .L0 
     /tmp/cciOEt1N.s:714    .text:0000000000000414 .L0 
     /tmp/cciOEt1N.s:752    .text:0000000000000440 .L0 
     /tmp/cciOEt1N.s:758    .text:0000000000000454 .L0 
     /tmp/cciOEt1N.s:793    .text:0000000000000474 .L0 
     /tmp/cciOEt1N.s:802    .text:0000000000000490 .L0 
     /tmp/cciOEt1N.s:184    .text:0000000000000114 .L11
     /tmp/cciOEt1N.s:248    .text:0000000000000188 .L16
     /tmp/cciOEt1N.s:235    .text:0000000000000174 .L15
     /tmp/cciOEt1N.s:316    .text:0000000000000204 .L21
     /tmp/cciOEt1N.s:467    .text:00000000000002a4 .L32
     /tmp/cciOEt1N.s:376    .text:000000000000023c .L28
     /tmp/cciOEt1N.s:531    .text:0000000000000318 .L35
     /tmp/cciOEt1N.s:518    .text:0000000000000304 .L34
     /tmp/cciOEt1N.s:644    .text:00000000000003b4 .L43
     /tmp/cciOEt1N.s:651    .text:00000000000003c0 .L44
     /tmp/cciOEt1N.s:615    .text:000000000000038c .L40
     /tmp/cciOEt1N.s:619    .text:0000000000000394 .L41
     /tmp/cciOEt1N.s:785    .text:0000000000000474 .L48
     /tmp/cciOEt1N.s:811    .text:00000000000004a8 .L50
     /tmp/cciOEt1N.s:710    .text:0000000000000414 .L49
     /tmp/cciOEt1N.s:31     .text:000000000000001c .LEHB0
     /tmp/cciOEt1N.s:10     .text:0000000000000000 .LFB25
     /tmp/cciOEt1N.s:34     .text:0000000000000024 .LEHE0
     /tmp/cciOEt1N.s:37     .text:000000000000002c .LEHB1
     /tmp/cciOEt1N.s:40     .text:0000000000000034 .LEHE1
     /tmp/cciOEt1N.s:72     .text:0000000000000078 .L4
     /tmp/cciOEt1N.s:46     .text:0000000000000040 .LEHB2
     /tmp/cciOEt1N.s:49     .text:0000000000000048 .LEHE2
     /tmp/cciOEt1N.s:52     .text:0000000000000050 .LEHB3
     /tmp/cciOEt1N.s:55     .text:0000000000000058 .LEHE3
     /tmp/cciOEt1N.s:84     .text:0000000000000094 .L5
     /tmp/cciOEt1N.s:80     .text:000000000000008c .LEHB4
     /tmp/cciOEt1N.s:83     .text:0000000000000094 .LEHE4
     /tmp/cciOEt1N.s:91     .text:00000000000000a8 .LEHB5
     /tmp/cciOEt1N.s:94     .text:00000000000000b0 .LEHE5
     /tmp/cciOEt1N.s:2951   .debug_abbrev:0000000000000000 .Ldebug_abbrev0
     /tmp/cciOEt1N.s:4170   .debug_str:00000000000001f7 .LASF261
     /tmp/cciOEt1N.s:4560   .debug_str:0000000000000fee .LASF262
     /tmp/cciOEt1N.s:4558   .debug_str:0000000000000fcb .LASF263
     /tmp/cciOEt1N.s:5      .text:0000000000000000 .Ltext0
     /tmp/cciOEt1N.s:920    .text:00000000000004e8 .Letext0
     /tmp/cciOEt1N.s:4110   .debug_line:0000000000000000 .Ldebug_line0
     /tmp/cciOEt1N.s:4288   .debug_str:00000000000006bb .LASF0
GAS LISTING /tmp/cciOEt1N.s 			page 30


     /tmp/cciOEt1N.s:4328   .debug_str:0000000000000843 .LASF1
     /tmp/cciOEt1N.s:4458   .debug_str:0000000000000c97 .LASF2
     /tmp/cciOEt1N.s:4476   .debug_str:0000000000000d32 .LASF4
     /tmp/cciOEt1N.s:4308   .debug_str:0000000000000761 .LASF3
     /tmp/cciOEt1N.s:4128   .debug_str:000000000000006f .LASF5
     /tmp/cciOEt1N.s:4424   .debug_str:0000000000000b97 .LASF6
     /tmp/cciOEt1N.s:4416   .debug_str:0000000000000b51 .LASF7
     /tmp/cciOEt1N.s:4314   .debug_str:00000000000007a2 .LASF8
     /tmp/cciOEt1N.s:4254   .debug_str:000000000000058e .LASF9
     /tmp/cciOEt1N.s:4262   .debug_str:00000000000005e5 .LASF10
     /tmp/cciOEt1N.s:4188   .debug_str:000000000000034e .LASF11
     /tmp/cciOEt1N.s:4248   .debug_str:0000000000000562 .LASF12
     /tmp/cciOEt1N.s:4198   .debug_str:0000000000000383 .LASF13
     /tmp/cciOEt1N.s:4186   .debug_str:000000000000033e .LASF14
     /tmp/cciOEt1N.s:4526   .debug_str:0000000000000ef7 .LASF15
     /tmp/cciOEt1N.s:4234   .debug_str:00000000000004bd .LASF16
     /tmp/cciOEt1N.s:4512   .debug_str:0000000000000e4a .LASF17
     /tmp/cciOEt1N.s:4544   .debug_str:0000000000000f76 .LASF264
     /tmp/cciOEt1N.s:4180   .debug_str:0000000000000311 .LASF18
     /tmp/cciOEt1N.s:4498   .debug_str:0000000000000de6 .LASF19
     /tmp/cciOEt1N.s:4194   .debug_str:000000000000036f .LASF20
     /tmp/cciOEt1N.s:4166   .debug_str:00000000000001cb .LASF21
     /tmp/cciOEt1N.s:4420   .debug_str:0000000000000b7a .LASF22
     /tmp/cciOEt1N.s:4192   .debug_str:0000000000000366 .LASF23
     /tmp/cciOEt1N.s:4532   .debug_str:0000000000000f1d .LASF86
     /tmp/cciOEt1N.s:4274   .debug_str:000000000000066e .LASF24
     /tmp/cciOEt1N.s:4132   .debug_str:0000000000000081 .LASF29
     /tmp/cciOEt1N.s:4566   .debug_str:0000000000001016 .LASF265
     /tmp/cciOEt1N.s:4404   .debug_str:0000000000000b01 .LASF266
     /tmp/cciOEt1N.s:4326   .debug_str:000000000000083e .LASF25
     /tmp/cciOEt1N.s:4636   .debug_str:000000000000125a .LASF27
     /tmp/cciOEt1N.s:4630   .debug_str:0000000000001231 .LASF26
     /tmp/cciOEt1N.s:4552   .debug_str:0000000000000f9d .LASF28
     /tmp/cciOEt1N.s:4218   .debug_str:0000000000000459 .LASF54
     /tmp/cciOEt1N.s:4142   .debug_str:00000000000000cd .LASF56
     /tmp/cciOEt1N.s:4334   .debug_str:000000000000086a .LASF34
     /tmp/cciOEt1N.s:4408   .debug_str:0000000000000b10 .LASF36
     /tmp/cciOEt1N.s:4550   .debug_str:0000000000000f95 .LASF30
     /tmp/cciOEt1N.s:4490   .debug_str:0000000000000d92 .LASF31
     /tmp/cciOEt1N.s:4336   .debug_str:0000000000000870 .LASF38
     /tmp/cciOEt1N.s:4344   .debug_str:00000000000008c3 .LASF40
     /tmp/cciOEt1N.s:4644   .debug_str:00000000000012b7 .LASF32
     /tmp/cciOEt1N.s:4242   .debug_str:0000000000000530 .LASF33
     /tmp/cciOEt1N.s:4120   .debug_str:000000000000003a .LASF35
     /tmp/cciOEt1N.s:4302   .debug_str:0000000000000735 .LASF37
     /tmp/cciOEt1N.s:4492   .debug_str:0000000000000da3 .LASF39
     /tmp/cciOEt1N.s:4378   .debug_str:0000000000000a20 .LASF41
     /tmp/cciOEt1N.s:4470   .debug_str:0000000000000cf8 .LASF42
     /tmp/cciOEt1N.s:4520   .debug_str:0000000000000eb2 .LASF43
     /tmp/cciOEt1N.s:4380   .debug_str:0000000000000a33 .LASF44
     /tmp/cciOEt1N.s:4116   .debug_str:000000000000001b .LASF45
     /tmp/cciOEt1N.s:4616   .debug_str:00000000000011b3 .LASF46
     /tmp/cciOEt1N.s:4414   .debug_str:0000000000000b37 .LASF47
     /tmp/cciOEt1N.s:4510   .debug_str:0000000000000e3c .LASF48
     /tmp/cciOEt1N.s:4430   .debug_str:0000000000000bb4 .LASF49
     /tmp/cciOEt1N.s:4214   .debug_str:0000000000000437 .LASF50
     /tmp/cciOEt1N.s:4250   .debug_str:0000000000000571 .LASF51
GAS LISTING /tmp/cciOEt1N.s 			page 31


     /tmp/cciOEt1N.s:4450   .debug_str:0000000000000c5e .LASF52
     /tmp/cciOEt1N.s:4622   .debug_str:00000000000011e7 .LASF53
     /tmp/cciOEt1N.s:4310   .debug_str:0000000000000773 .LASF60
     /tmp/cciOEt1N.s:4504   .debug_str:0000000000000e18 .LASF55
     /tmp/cciOEt1N.s:4634   .debug_str:0000000000001244 .LASF57
     /tmp/cciOEt1N.s:4534   .debug_str:0000000000000f25 .LASF58
     /tmp/cciOEt1N.s:4210   .debug_str:000000000000041b .LASF59
     /tmp/cciOEt1N.s:4486   .debug_str:0000000000000d7c .LASF61
     /tmp/cciOEt1N.s:4290   .debug_str:00000000000006c8 .LASF62
     /tmp/cciOEt1N.s:4390   .debug_str:0000000000000a69 .LASF63
     /tmp/cciOEt1N.s:4204   .debug_str:00000000000003d2 .LASF64
     /tmp/cciOEt1N.s:4436   .debug_str:0000000000000bea .LASF65
     /tmp/cciOEt1N.s:4652   .debug_str:00000000000012f0 .LASF66
     /tmp/cciOEt1N.s:4394   .debug_str:0000000000000a8f .LASF67
     /tmp/cciOEt1N.s:4468   .debug_str:0000000000000ce5 .LASF68
     /tmp/cciOEt1N.s:4494   .debug_str:0000000000000dac .LASF69
     /tmp/cciOEt1N.s:4582   .debug_str:0000000000001090 .LASF70
     /tmp/cciOEt1N.s:4366   .debug_str:00000000000009a9 .LASF71
     /tmp/cciOEt1N.s:4568   .debug_str:000000000000102e .LASF72
     /tmp/cciOEt1N.s:4518   .debug_str:0000000000000e92 .LASF73
     /tmp/cciOEt1N.s:4224   .debug_str:000000000000046d .LASF74
     /tmp/cciOEt1N.s:4294   .debug_str:00000000000006fe .LASF75
     /tmp/cciOEt1N.s:4556   .debug_str:0000000000000fc1 .LASF76
     /tmp/cciOEt1N.s:4410   .debug_str:0000000000000b20 .LASF77
     /tmp/cciOEt1N.s:4628   .debug_str:0000000000001223 .LASF78
     /tmp/cciOEt1N.s:4150   .debug_str:0000000000000123 .LASF80
     /tmp/cciOEt1N.s:4244   .debug_str:000000000000053c .LASF79
     /tmp/cciOEt1N.s:4178   .debug_str:00000000000002e5 .LASF81
     /tmp/cciOEt1N.s:4614   .debug_str:00000000000011ac .LASF267
     /tmp/cciOEt1N.s:4174   .debug_str:00000000000002c6 .LASF268
     /tmp/cciOEt1N.s:4118   .debug_str:0000000000000035 .LASF82
     /tmp/cciOEt1N.s:4578   .debug_str:000000000000107f .LASF83
     /tmp/cciOEt1N.s:4350   .debug_str:0000000000000908 .LASF84
     /tmp/cciOEt1N.s:4222   .debug_str:0000000000000467 .LASF85
     /tmp/cciOEt1N.s:4564   .debug_str:000000000000100e .LASF87
     /tmp/cciOEt1N.s:4598   .debug_str:0000000000001118 .LASF88
     /tmp/cciOEt1N.s:4282   .debug_str:0000000000000692 .LASF89
     /tmp/cciOEt1N.s:4516   .debug_str:0000000000000e7a .LASF90
     /tmp/cciOEt1N.s:4620   .debug_str:00000000000011d8 .LASF91
     /tmp/cciOEt1N.s:4496   .debug_str:0000000000000dca .LASF92
     /tmp/cciOEt1N.s:4412   .debug_str:0000000000000b2c .LASF93
     /tmp/cciOEt1N.s:4362   .debug_str:0000000000000981 .LASF94
     /tmp/cciOEt1N.s:4230   .debug_str:00000000000004a0 .LASF95
     /tmp/cciOEt1N.s:4418   .debug_str:0000000000000b64 .LASF96
     /tmp/cciOEt1N.s:4364   .debug_str:0000000000000999 .LASF97
     /tmp/cciOEt1N.s:4592   .debug_str:00000000000010de .LASF98
     /tmp/cciOEt1N.s:4586   .debug_str:00000000000010ae .LASF99
     /tmp/cciOEt1N.s:4342   .debug_str:00000000000008a5 .LASF100
     /tmp/cciOEt1N.s:4226   .debug_str:0000000000000476 .LASF101
     /tmp/cciOEt1N.s:4626   .debug_str:00000000000011ff .LASF102
     /tmp/cciOEt1N.s:4300   .debug_str:0000000000000723 .LASF103
     /tmp/cciOEt1N.s:4206   .debug_str:00000000000003e4 .LASF104
     /tmp/cciOEt1N.s:4160   .debug_str:000000000000019f .LASF105
     /tmp/cciOEt1N.s:4256   .debug_str:000000000000059e .LASF106
     /tmp/cciOEt1N.s:4488   .debug_str:0000000000000d84 .LASF107
     /tmp/cciOEt1N.s:4200   .debug_str:0000000000000393 .LASF108
     /tmp/cciOEt1N.s:4382   .debug_str:0000000000000a42 .LASF109
GAS LISTING /tmp/cciOEt1N.s 			page 32


     /tmp/cciOEt1N.s:4606   .debug_str:000000000000114f .LASF110
     /tmp/cciOEt1N.s:4576   .debug_str:0000000000001076 .LASF113
     /tmp/cciOEt1N.s:4126   .debug_str:000000000000005a .LASF115
     /tmp/cciOEt1N.s:4452   .debug_str:0000000000000c6b .LASF111
     /tmp/cciOEt1N.s:4400   .debug_str:0000000000000adc .LASF112
     /tmp/cciOEt1N.s:4432   .debug_str:0000000000000bc0 .LASF114
     /tmp/cciOEt1N.s:4438   .debug_str:0000000000000c07 .LASF116
     /tmp/cciOEt1N.s:4392   .debug_str:0000000000000a88 .LASF117
     /tmp/cciOEt1N.s:4318   .debug_str:00000000000007d1 .LASF118
     /tmp/cciOEt1N.s:4608   .debug_str:0000000000001169 .LASF119
     /tmp/cciOEt1N.s:4554   .debug_str:0000000000000fad .LASF120
     /tmp/cciOEt1N.s:4386   .debug_str:0000000000000a58 .LASF121
     /tmp/cciOEt1N.s:4398   .debug_str:0000000000000ac8 .LASF122
     /tmp/cciOEt1N.s:4374   .debug_str:0000000000000a06 .LASF123
     /tmp/cciOEt1N.s:4440   .debug_str:0000000000000c1a .LASF124
     /tmp/cciOEt1N.s:4650   .debug_str:00000000000012e8 .LASF125
     /tmp/cciOEt1N.s:4298   .debug_str:000000000000070f .LASF126
     /tmp/cciOEt1N.s:4278   .debug_str:000000000000067f .LASF127
     /tmp/cciOEt1N.s:4522   .debug_str:0000000000000ece .LASF128
     /tmp/cciOEt1N.s:4482   .debug_str:0000000000000d62 .LASF129
     /tmp/cciOEt1N.s:4484   .debug_str:0000000000000d75 .LASF130
     /tmp/cciOEt1N.s:4228   .debug_str:000000000000048d .LASF131
     /tmp/cciOEt1N.s:4480   .debug_str:0000000000000d5c .LASF132
     /tmp/cciOEt1N.s:4136   .debug_str:0000000000000099 .LASF133
     /tmp/cciOEt1N.s:4296   .debug_str:0000000000000709 .LASF134
     /tmp/cciOEt1N.s:4216   .debug_str:0000000000000447 .LASF135
     /tmp/cciOEt1N.s:4176   .debug_str:00000000000002d7 .LASF136
     /tmp/cciOEt1N.s:4538   .debug_str:0000000000000f35 .LASF137
     /tmp/cciOEt1N.s:4130   .debug_str:0000000000000076 .LASF138
     /tmp/cciOEt1N.s:4464   .debug_str:0000000000000cc1 .LASF139
     /tmp/cciOEt1N.s:4456   .debug_str:0000000000000c8c .LASF140
     /tmp/cciOEt1N.s:4640   .debug_str:000000000000128f .LASF141
     /tmp/cciOEt1N.s:4462   .debug_str:0000000000000cba .LASF142
     /tmp/cciOEt1N.s:4184   .debug_str:000000000000032b .LASF143
     /tmp/cciOEt1N.s:4508   .debug_str:0000000000000e35 .LASF144
     /tmp/cciOEt1N.s:4346   .debug_str:00000000000008db .LASF145
     /tmp/cciOEt1N.s:4600   .debug_str:000000000000111e .LASF146
     /tmp/cciOEt1N.s:4618   .debug_str:00000000000011c2 .LASF147
     /tmp/cciOEt1N.s:4594   .debug_str:00000000000010fc .LASF148
     /tmp/cciOEt1N.s:4138   .debug_str:00000000000000ab .LASF149
     /tmp/cciOEt1N.s:4212   .debug_str:0000000000000431 .LASF150
     /tmp/cciOEt1N.s:4272   .debug_str:000000000000065c .LASF151
     /tmp/cciOEt1N.s:4280   .debug_str:000000000000068c .LASF152
     /tmp/cciOEt1N.s:4596   .debug_str:0000000000001106 .LASF153
     /tmp/cciOEt1N.s:4276   .debug_str:0000000000000674 .LASF154
     /tmp/cciOEt1N.s:4284   .debug_str:000000000000069d .LASF155
     /tmp/cciOEt1N.s:4570   .debug_str:0000000000001043 .LASF156
     /tmp/cciOEt1N.s:4260   .debug_str:00000000000005c9 .LASF157
     /tmp/cciOEt1N.s:4422   .debug_str:0000000000000b82 .LASF158
     /tmp/cciOEt1N.s:4312   .debug_str:0000000000000780 .LASF159
     /tmp/cciOEt1N.s:4156   .debug_str:000000000000017d .LASF160
     /tmp/cciOEt1N.s:4358   .debug_str:0000000000000950 .LASF161
     /tmp/cciOEt1N.s:4446   .debug_str:0000000000000c4d .LASF162
     /tmp/cciOEt1N.s:4124   .debug_str:0000000000000052 .LASF163
     /tmp/cciOEt1N.s:4162   .debug_str:00000000000001a9 .LASF164
     /tmp/cciOEt1N.s:4338   .debug_str:000000000000087d .LASF165
     /tmp/cciOEt1N.s:4164   .debug_str:00000000000001b8 .LASF166
GAS LISTING /tmp/cciOEt1N.s 			page 33


     /tmp/cciOEt1N.s:4376   .debug_str:0000000000000a0e .LASF167
     /tmp/cciOEt1N.s:4264   .debug_str:00000000000005f3 .LASF168
     /tmp/cciOEt1N.s:4306   .debug_str:000000000000074e .LASF169
     /tmp/cciOEt1N.s:4182   .debug_str:0000000000000317 .LASF170
     /tmp/cciOEt1N.s:4548   .debug_str:0000000000000f8b .LASF171
     /tmp/cciOEt1N.s:4356   .debug_str:000000000000094b .LASF172
     /tmp/cciOEt1N.s:4444   .debug_str:0000000000000c42 .LASF173
     /tmp/cciOEt1N.s:4258   .debug_str:00000000000005b5 .LASF174
     /tmp/cciOEt1N.s:4148   .debug_str:0000000000000117 .LASF175
     /tmp/cciOEt1N.s:4442   .debug_str:0000000000000c2e .LASF176
     /tmp/cciOEt1N.s:4220   .debug_str:0000000000000462 .LASF177
     /tmp/cciOEt1N.s:4502   .debug_str:0000000000000e01 .LASF178
     /tmp/cciOEt1N.s:4530   .debug_str:0000000000000f16 .LASF179
     /tmp/cciOEt1N.s:4238   .debug_str:00000000000004f5 .LASF180
     /tmp/cciOEt1N.s:4114   .debug_str:000000000000000f .LASF181
     /tmp/cciOEt1N.s:4466   .debug_str:0000000000000cd9 .LASF182
     /tmp/cciOEt1N.s:4360   .debug_str:000000000000096d .LASF183
     /tmp/cciOEt1N.s:4460   .debug_str:0000000000000ca5 .LASF184
     /tmp/cciOEt1N.s:4190   .debug_str:000000000000035d .LASF185
     /tmp/cciOEt1N.s:4196   .debug_str:0000000000000379 .LASF186
     /tmp/cciOEt1N.s:4384   .debug_str:0000000000000a4f .LASF187
     /tmp/cciOEt1N.s:4474   .debug_str:0000000000000d27 .LASF188
     /tmp/cciOEt1N.s:4112   .debug_str:0000000000000000 .LASF189
     /tmp/cciOEt1N.s:4270   .debug_str:000000000000063a .LASF190
     /tmp/cciOEt1N.s:4562   .debug_str:0000000000000fff .LASF191
     /tmp/cciOEt1N.s:4524   .debug_str:0000000000000ed5 .LASF192
     /tmp/cciOEt1N.s:4352   .debug_str:0000000000000910 .LASF193
     /tmp/cciOEt1N.s:4202   .debug_str:00000000000003ae .LASF194
     /tmp/cciOEt1N.s:4402   .debug_str:0000000000000af1 .LASF195
     /tmp/cciOEt1N.s:4434   .debug_str:0000000000000bc7 .LASF196
     /tmp/cciOEt1N.s:4332   .debug_str:0000000000000861 .LASF197
     /tmp/cciOEt1N.s:4286   .debug_str:00000000000006b5 .LASF198
     /tmp/cciOEt1N.s:4648   .debug_str:00000000000012d0 .LASF199
     /tmp/cciOEt1N.s:4122   .debug_str:000000000000004a .LASF200
     /tmp/cciOEt1N.s:4348   .debug_str:00000000000008ee .LASF201
     /tmp/cciOEt1N.s:4642   .debug_str:00000000000012a7 .LASF202
     /tmp/cciOEt1N.s:4478   .debug_str:0000000000000d39 .LASF203
     /tmp/cciOEt1N.s:4528   .debug_str:0000000000000f03 .LASF204
     /tmp/cciOEt1N.s:4472   .debug_str:0000000000000d01 .LASF205
     /tmp/cciOEt1N.s:4632   .debug_str:0000000000001237 .LASF206
     /tmp/cciOEt1N.s:4324   .debug_str:000000000000081a .LASF207
     /tmp/cciOEt1N.s:4388   .debug_str:0000000000000a60 .LASF208
     /tmp/cciOEt1N.s:4500   .debug_str:0000000000000dee .LASF209
     /tmp/cciOEt1N.s:4370   .debug_str:00000000000009e6 .LASF210
     /tmp/cciOEt1N.s:4406   .debug_str:0000000000000b06 .LASF211
     /tmp/cciOEt1N.s:4330   .debug_str:0000000000000856 .LASF212
     /tmp/cciOEt1N.s:4428   .debug_str:0000000000000baa .LASF213
     /tmp/cciOEt1N.s:4584   .debug_str:00000000000010a3 .LASF214
     /tmp/cciOEt1N.s:4540   .debug_str:0000000000000f50 .LASF215
     /tmp/cciOEt1N.s:4580   .debug_str:0000000000001084 .LASF216
     /tmp/cciOEt1N.s:4134   .debug_str:000000000000008c .LASF217
     /tmp/cciOEt1N.s:4372   .debug_str:00000000000009fa .LASF218
     /tmp/cciOEt1N.s:4426   .debug_str:0000000000000b9e .LASF219
     /tmp/cciOEt1N.s:4506   .debug_str:0000000000000e23 .LASF220
     /tmp/cciOEt1N.s:4240   .debug_str:000000000000050e .LASF221
     /tmp/cciOEt1N.s:4574   .debug_str:0000000000001064 .LASF222
     /tmp/cciOEt1N.s:4612   .debug_str:000000000000118a .LASF223
GAS LISTING /tmp/cciOEt1N.s 			page 34


     /tmp/cciOEt1N.s:4572   .debug_str:0000000000001052 .LASF224
     /tmp/cciOEt1N.s:4292   .debug_str:00000000000006dc .LASF225
     /tmp/cciOEt1N.s:4158   .debug_str:000000000000018c .LASF226
     /tmp/cciOEt1N.s:4172   .debug_str:00000000000002a3 .LASF227
     /tmp/cciOEt1N.s:4232   .debug_str:00000000000004aa .LASF228
     /tmp/cciOEt1N.s:4168   .debug_str:00000000000001d4 .LASF229
     /tmp/cciOEt1N.s:4144   .debug_str:00000000000000e0 .LASF230
     /tmp/cciOEt1N.s:4590   .debug_str:00000000000010cf .LASF231
     /tmp/cciOEt1N.s:4368   .debug_str:00000000000009c7 .LASF232
     /tmp/cciOEt1N.s:4610   .debug_str:0000000000001171 .LASF233
     /tmp/cciOEt1N.s:4354   .debug_str:0000000000000921 .LASF234
     /tmp/cciOEt1N.s:4208   .debug_str:0000000000000403 .LASF235
     /tmp/cciOEt1N.s:4638   .debug_str:0000000000001266 .LASF236
     /tmp/cciOEt1N.s:4246   .debug_str:0000000000000551 .LASF237
     /tmp/cciOEt1N.s:4602   .debug_str:0000000000001128 .LASF238
     /tmp/cciOEt1N.s:4252   .debug_str:0000000000000581 .LASF239
     /tmp/cciOEt1N.s:4624   .debug_str:00000000000011f2 .LASF240
     /tmp/cciOEt1N.s:4268   .debug_str:0000000000000629 .LASF241
     /tmp/cciOEt1N.s:4140   .debug_str:00000000000000c1 .LASF242
     /tmp/cciOEt1N.s:4340   .debug_str:0000000000000889 .LASF243
     /tmp/cciOEt1N.s:4646   .debug_str:00000000000012c4 .LASF244
     /tmp/cciOEt1N.s:4146   .debug_str:00000000000000fb .LASF245
     /tmp/cciOEt1N.s:4536   .debug_str:0000000000000f30 .LASF246
     /tmp/cciOEt1N.s:4396   .debug_str:0000000000000ab0 .LASF247
     /tmp/cciOEt1N.s:4454   .debug_str:0000000000000c74 .LASF248
     /tmp/cciOEt1N.s:4154   .debug_str:0000000000000163 .LASF249
     /tmp/cciOEt1N.s:4514   .debug_str:0000000000000e60 .LASF250
     /tmp/cciOEt1N.s:4266   .debug_str:0000000000000606 .LASF251
     /tmp/cciOEt1N.s:4236   .debug_str:00000000000004d3 .LASF252
     /tmp/cciOEt1N.s:4320   .debug_str:00000000000007e4 .LASF253
     /tmp/cciOEt1N.s:4322   .debug_str:00000000000007ff .LASF254
     /tmp/cciOEt1N.s:4316   .debug_str:00000000000007b5 .LASF255
     /tmp/cciOEt1N.s:4542   .debug_str:0000000000000f5b .LASF256
     /tmp/cciOEt1N.s:827    .text:00000000000004b4 .LFB35
     /tmp/cciOEt1N.s:864    .text:00000000000004e8 .LFE35
     /tmp/cciOEt1N.s:3913   .debug_loc:0000000000000000 .LLST13
     /tmp/cciOEt1N.s:842    .text:00000000000004cc .LVL60
     /tmp/cciOEt1N.s:853    .text:00000000000004d8 .LVL61
     /tmp/cciOEt1N.s:670    .text:00000000000003dc .LFB34
     /tmp/cciOEt1N.s:690    .text:0000000000000400 .LFE34
     /tmp/cciOEt1N.s:585    .text:0000000000000350 .LFB33
     /tmp/cciOEt1N.s:664    .text:00000000000003dc .LFE33
     /tmp/cciOEt1N.s:3920   .debug_loc:0000000000000023 .LLST9
     /tmp/cciOEt1N.s:608    .text:0000000000000380 .LVL39
     /tmp/cciOEt1N.s:630    .text:00000000000003a0 .LVL42
     /tmp/cciOEt1N.s:649    .text:00000000000003bc .LVL44
     /tmp/cciOEt1N.s:656    .text:00000000000003cc .LVL45
     /tmp/cciOEt1N.s:661    .text:00000000000003d8 .LVL46
     /tmp/cciOEt1N.s:543    .text:0000000000000320 .LFB32
     /tmp/cciOEt1N.s:579    .text:0000000000000350 .LFE32
     /tmp/cciOEt1N.s:3931   .debug_loc:0000000000000059 .LLST8
     /tmp/cciOEt1N.s:568    .text:0000000000000340 .LVL38
     /tmp/cciOEt1N.s:476    .text:00000000000002a8 .LFB31
     /tmp/cciOEt1N.s:537    .text:0000000000000320 .LFE31
     /tmp/cciOEt1N.s:3938   .debug_loc:000000000000007c .LLST7
     /tmp/cciOEt1N.s:494    .text:00000000000002d0 .LVL33
     /tmp/cciOEt1N.s:260    .text:0000000000000190 .LFB30
GAS LISTING /tmp/cciOEt1N.s 			page 35


     /tmp/cciOEt1N.s:319    .text:0000000000000208 .LFE30
     /tmp/cciOEt1N.s:3945   .debug_loc:000000000000009f .LLST2
     /tmp/cciOEt1N.s:305    .text:00000000000001f4 .LVL17
     /tmp/cciOEt1N.s:193    .text:0000000000000118 .LFB29
     /tmp/cciOEt1N.s:254    .text:0000000000000190 .LFE29
     /tmp/cciOEt1N.s:3968   .debug_loc:00000000000000ff .LLST1
     /tmp/cciOEt1N.s:211    .text:0000000000000140 .LVL12
     /tmp/cciOEt1N.s:134    .text:00000000000000b0 .LFB28
     /tmp/cciOEt1N.s:187    .text:0000000000000118 .LFE28
     /tmp/cciOEt1N.s:3975   .debug_loc:0000000000000122 .LLST0
     /tmp/cciOEt1N.s:173    .text:0000000000000104 .LVL10
     /tmp/cciOEt1N.s:696    .text:0000000000000400 .LFB27
     /tmp/cciOEt1N.s:821    .text:00000000000004b4 .LFE27
     /tmp/cciOEt1N.s:3998   .debug_loc:0000000000000182 .LLST10
     /tmp/cciOEt1N.s:4094   .debug_ranges:0000000000000000 .Ldebug_ranges0
     /tmp/cciOEt1N.s:4012   .debug_loc:00000000000001bb .LLST11
     /tmp/cciOEt1N.s:4448   .debug_str:0000000000000c54 .LASF257
     /tmp/cciOEt1N.s:4023   .debug_loc:00000000000001f1 .LLST12
     /tmp/cciOEt1N.s:743    .text:0000000000000434 .LBB11
     /tmp/cciOEt1N.s:786    .text:0000000000000474 .LBE11
     /tmp/cciOEt1N.s:747    .text:000000000000043c .LVL52
     /tmp/cciOEt1N.s:798    .text:000000000000048c .LVL56
     /tmp/cciOEt1N.s:808    .text:00000000000004a4 .LVL57
     /tmp/cciOEt1N.s:816    .text:00000000000004b0 .LVL59
     /tmp/cciOEt1N.s:325    .text:0000000000000208 .LFB26
     /tmp/cciOEt1N.s:470    .text:00000000000002a8 .LFE26
     /tmp/cciOEt1N.s:4030   .debug_loc:0000000000000214 .LLST3
     /tmp/cciOEt1N.s:4048   .debug_loc:0000000000000260 .LLST4
     /tmp/cciOEt1N.s:4063   .debug_loc:00000000000002a9 .LLST5
     /tmp/cciOEt1N.s:379    .text:000000000000023c .LBB4
     /tmp/cciOEt1N.s:415    .text:0000000000000270 .LBE4
     /tmp/cciOEt1N.s:4074   .debug_loc:00000000000002df .LLST6
     /tmp/cciOEt1N.s:409    .text:0000000000000264 .LVL26
     /tmp/cciOEt1N.s:414    .text:0000000000000270 .LVL27
     /tmp/cciOEt1N.s:96     .text:00000000000000b0 .LFE25
     /tmp/cciOEt1N.s:33     .text:0000000000000024 .LVL0
     /tmp/cciOEt1N.s:39     .text:0000000000000034 .LVL1
     /tmp/cciOEt1N.s:48     .text:0000000000000048 .LVL2
     /tmp/cciOEt1N.s:54     .text:0000000000000058 .LVL3
     /tmp/cciOEt1N.s:78     .text:0000000000000088 .LVL4
     /tmp/cciOEt1N.s:82     .text:0000000000000094 .LVL5
     /tmp/cciOEt1N.s:89     .text:00000000000000a4 .LVL6
     /tmp/cciOEt1N.s:93     .text:00000000000000b0 .LVL7
     /tmp/cciOEt1N.s:4604   .debug_str:000000000000113a .LASF258
     /tmp/cciOEt1N.s:4304   .debug_str:0000000000000742 .LASF259
     /tmp/cciOEt1N.s:4588   .debug_str:00000000000010bf .LASF260
     /tmp/cciOEt1N.s:4546   .debug_str:0000000000000f7c .LASF269
     /tmp/cciOEt1N.s:4152   .debug_str:000000000000014b .LASF270
     /tmp/cciOEt1N.s:610    .text:0000000000000384 .LVL40
     /tmp/cciOEt1N.s:614    .text:000000000000038c .LVL41
     /tmp/cciOEt1N.s:643    .text:00000000000003b4 .LVL43
     /tmp/cciOEt1N.s:561    .text:0000000000000334 .LVL36
     /tmp/cciOEt1N.s:566    .text:0000000000000338 .LVL37
     /tmp/cciOEt1N.s:506    .text:00000000000002ec .LVL34
     /tmp/cciOEt1N.s:517    .text:0000000000000304 .LVL35
     /tmp/cciOEt1N.s:263    .text:0000000000000190 .LVL15
     /tmp/cciOEt1N.s:303    .text:00000000000001ec .LVL16
GAS LISTING /tmp/cciOEt1N.s 			page 36


     /tmp/cciOEt1N.s:315    .text:0000000000000204 .LVL18
     /tmp/cciOEt1N.s:223    .text:000000000000015c .LVL13
     /tmp/cciOEt1N.s:234    .text:0000000000000174 .LVL14
     /tmp/cciOEt1N.s:137    .text:00000000000000b0 .LVL8
     /tmp/cciOEt1N.s:171    .text:00000000000000fc .LVL9
     /tmp/cciOEt1N.s:183    .text:0000000000000114 .LVL11
     /tmp/cciOEt1N.s:699    .text:0000000000000400 .LVL47
     /tmp/cciOEt1N.s:709    .text:0000000000000414 .LVL48
     /tmp/cciOEt1N.s:716    .text:0000000000000420 .LVL49
     /tmp/cciOEt1N.s:734    .text:000000000000042c .LVL50
     /tmp/cciOEt1N.s:760    .text:0000000000000460 .LVL53
     /tmp/cciOEt1N.s:771    .text:0000000000000468 .LVL54
     /tmp/cciOEt1N.s:740    .text:0000000000000430 .LVL51
     /tmp/cciOEt1N.s:328    .text:0000000000000208 .LVL19
     /tmp/cciOEt1N.s:375    .text:000000000000023c .LVL23
     /tmp/cciOEt1N.s:466    .text:00000000000002a4 .LVL32
     /tmp/cciOEt1N.s:335    .text:0000000000000214 .LVL20
     /tmp/cciOEt1N.s:353    .text:0000000000000220 .LVL21
     /tmp/cciOEt1N.s:384    .text:0000000000000248 .LVL24
     /tmp/cciOEt1N.s:425    .text:000000000000027c .LVL28
     /tmp/cciOEt1N.s:443    .text:0000000000000288 .LVL29
     /tmp/cciOEt1N.s:359    .text:0000000000000224 .LVL22
     /tmp/cciOEt1N.s:449    .text:000000000000028c .LVL30
     /tmp/cciOEt1N.s:404    .text:0000000000000258 .LVL25
     /tmp/cciOEt1N.s:462    .text:000000000000029c .LVL31
     /tmp/cciOEt1N.s:928    .debug_info:0000000000000000 .Ldebug_info0
     /tmp/cciOEt1N.s:330    .text:0000000000000208 .LBB2
     /tmp/cciOEt1N.s:363    .text:0000000000000228 .LBE2
     /tmp/cciOEt1N.s:377    .text:000000000000023c .LBB7
     /tmp/cciOEt1N.s:417    .text:0000000000000270 .LBE7
     /tmp/cciOEt1N.s:420    .text:0000000000000270 .LBB8
     /tmp/cciOEt1N.s:453    .text:0000000000000290 .LBE8
     /tmp/cciOEt1N.s:711    .text:0000000000000414 .LBB9
     /tmp/cciOEt1N.s:788    .text:0000000000000474 .LBE9
     /tmp/cciOEt1N.s:790    .text:0000000000000474 .LBB13
     /tmp/cciOEt1N.s:819    .text:00000000000004b4 .LBE13
     /tmp/cciOEt1N.s:99     .gcc_except_table:0000000000000000 .LLSDA25

UNDEFINED SYMBOLS
_ZN10KSemaphorenwEm
_ZN10KSemaphoreC1Ei
_ZN10KSemaphoredlEPv
_Unwind_Resume
__gxx_personality_v0
_ZN10KSemaphore6signalEv
_ZN10KSemaphore4waitEv
CONSOLE_STATUS
CONSOLE_TX_DATA
_ZN5Riscv13w_a0_sscratchEv
sysCallGetCharOutput
CONSOLE_RX_DATA
_ZN5Riscv12finishSystemE
thread_exit
thread_dispatch
