GAS LISTING /tmp/ccBv2anA.s 			page 1


   1              		.file	"KConsole.cpp"
   2              		.option pic
   3              		.option norelax
   4              		.text
   5              	.Ltext0:
   6              		.align	2
   7              		.globl	_ZN8KConsole10initializeEv
   9              	_ZN8KConsole10initializeEv:
  10              	.LFB25:
  11              		.file 1 "src/KConsole.cpp"
   1:src/KConsole.cpp **** //
   2:src/KConsole.cpp **** // Created by os on 5/19/22.
   3:src/KConsole.cpp **** //
   4:src/KConsole.cpp **** 
   5:src/KConsole.cpp **** 
   6:src/KConsole.cpp **** #include "../h/KConsole.hpp"
   7:src/KConsole.cpp **** #include "../h/syscall_c.h"
   8:src/KConsole.cpp **** 
   9:src/KConsole.cpp **** uint64 KConsole::inputHead = 0;
  10:src/KConsole.cpp **** uint64 KConsole::inputTail = 0;
  11:src/KConsole.cpp **** uint64 KConsole::outputHead = 0;
  12:src/KConsole.cpp **** uint64 KConsole::outputTail = 0;
  13:src/KConsole.cpp **** KSemaphore* KConsole::hasCharactersOutput = 0;
  14:src/KConsole.cpp **** KSemaphore* KConsole::hasCharactersInput = 0;
  15:src/KConsole.cpp **** uint64 KConsole::pendingGetc = 0;
  16:src/KConsole.cpp **** char KConsole::inputBuffer[bufferSize];
  17:src/KConsole.cpp **** char KConsole::outputBuffer[bufferSize];
  18:src/KConsole.cpp **** uint64 KConsole::pendingPutc = 0;
  19:src/KConsole.cpp **** 
  20:src/KConsole.cpp **** void KConsole::initialize()
  21:src/KConsole.cpp **** {
  12              		.loc 1 21 1
  13              		.cfi_startproc
  14              		.cfi_personality 0x9b,DW.ref.__gxx_personality_v0
  15              		.cfi_lsda 0x1b,.LLSDA25
  16 0000 130101FE 		addi	sp,sp,-32
  17              		.cfi_def_cfa_offset 32
  18 0004 233C1100 		sd	ra,24(sp)
  19 0008 23388100 		sd	s0,16(sp)
  20 000c 23349100 		sd	s1,8(sp)
  21 0010 23302101 		sd	s2,0(sp)
  22              		.cfi_offset 1, -8
  23              		.cfi_offset 8, -16
  24              		.cfi_offset 9, -24
  25              		.cfi_offset 18, -32
  26 0014 13040102 		addi	s0,sp,32
  27              		.cfi_def_cfa 8, 0
  22:src/KConsole.cpp ****     hasCharactersInput = new KSemaphore(0);
  28              		.loc 1 22 5
  29              		.loc 1 22 42 is_stmt 0
  30 0018 13058001 		li	a0,24
  31              	.LEHB0:
  32 001c 97000000 		call	_ZN10KSemaphorenwEm@plt
  32      E7800000 
  33              	.LVL0:
  34              	.LEHE0:
  35 0024 93040500 		mv	s1,a0
GAS LISTING /tmp/ccBv2anA.s 			page 2


  36 0028 93050000 		li	a1,0
  37              	.LEHB1:
  38 002c 97000000 		call	_ZN10KSemaphoreC1Ei@plt
  38      E7800000 
  39              	.LVL1:
  40              	.LEHE1:
  41              		.loc 1 22 24 discriminator 2
  42 0034 97070000 		sd	s1,.LANCHOR0,a5
  42      23B09700 
  23:src/KConsole.cpp ****     hasCharactersOutput = new KSemaphore(0);
  43              		.loc 1 23 5 is_stmt 1 discriminator 2
  44              		.loc 1 23 43 is_stmt 0 discriminator 2
  45 003c 13058001 		li	a0,24
  46              	.LEHB2:
  47 0040 97000000 		call	_ZN10KSemaphorenwEm@plt
  47      E7800000 
  48              	.LVL2:
  49              	.LEHE2:
  50 0048 93040500 		mv	s1,a0
  51 004c 93050000 		li	a1,0
  52              	.LEHB3:
  53 0050 97000000 		call	_ZN10KSemaphoreC1Ei@plt
  53      E7800000 
  54              	.LVL3:
  55              	.LEHE3:
  56              		.loc 1 23 25 discriminator 2
  57 0058 97070000 		sd	s1,.LANCHOR0+8,a5
  57      23B09700 
  24:src/KConsole.cpp **** }
  58              		.loc 1 24 1 discriminator 2
  59 0060 83308101 		ld	ra,24(sp)
  60              		.cfi_remember_state
  61              		.cfi_restore 1
  62 0064 03340101 		ld	s0,16(sp)
  63              		.cfi_restore 8
  64              		.cfi_def_cfa 2, 32
  65 0068 83348100 		ld	s1,8(sp)
  66              		.cfi_restore 9
  67 006c 03390100 		ld	s2,0(sp)
  68              		.cfi_restore 18
  69 0070 13010102 		addi	sp,sp,32
  70              		.cfi_def_cfa_offset 0
  71 0074 67800000 		jr	ra
  72              	.L4:
  73              		.cfi_restore_state
  74 0078 13090500 		mv	s2,a0
  22:src/KConsole.cpp ****     hasCharactersInput = new KSemaphore(0);
  75              		.loc 1 22 42
  76 007c 13850400 		mv	a0,s1
  77 0080 97000000 		call	_ZN10KSemaphoredlEPv@plt
  77      E7800000 
  78              	.LVL4:
  79 0088 13050900 		mv	a0,s2
  80              	.LEHB4:
  81 008c 97000000 		call	_Unwind_Resume@plt
  81      E7800000 
  82              	.LVL5:
GAS LISTING /tmp/ccBv2anA.s 			page 3


  83              	.LEHE4:
  84              	.L5:
  85 0094 13090500 		mv	s2,a0
  23:src/KConsole.cpp ****     hasCharactersOutput = new KSemaphore(0);
  86              		.loc 1 23 43
  87 0098 13850400 		mv	a0,s1
  88 009c 97000000 		call	_ZN10KSemaphoredlEPv@plt
  88      E7800000 
  89              	.LVL6:
  90 00a4 13050900 		mv	a0,s2
  91              	.LEHB5:
  92 00a8 97000000 		call	_Unwind_Resume@plt
  92      E7800000 
  93              	.LVL7:
  94              	.LEHE5:
  95              		.cfi_endproc
  96              	.LFE25:
  97              		.globl	__gxx_personality_v0
  98              		.section	.gcc_except_table,"a",@progbits
  99              	.LLSDA25:
 100 0000 FF       		.byte	0xff
 101 0001 FF       		.byte	0xff
 102 0002 03       		.byte	0x3
 103 0003 4E       		.byte	0x4e
 104 0004 00000000 		.4byte	.LEHB0-.LFB25
 105 0008 00000000 		.4byte	.LEHE0-.LEHB0
 106 000c 00000000 		.4byte	0
 107 0010 00       		.byte	0
 108 0011 00000000 		.4byte	.LEHB1-.LFB25
 109 0015 00000000 		.4byte	.LEHE1-.LEHB1
 110 0019 00000000 		.4byte	.L4-.LFB25
 111 001d 00       		.byte	0
 112 001e 00000000 		.4byte	.LEHB2-.LFB25
 113 0022 00000000 		.4byte	.LEHE2-.LEHB2
 114 0026 00000000 		.4byte	0
 115 002a 00       		.byte	0
 116 002b 00000000 		.4byte	.LEHB3-.LFB25
 117 002f 00000000 		.4byte	.LEHE3-.LEHB3
 118 0033 00000000 		.4byte	.L5-.LFB25
 119 0037 00       		.byte	0
 120 0038 00000000 		.4byte	.LEHB4-.LFB25
 121 003c 00000000 		.4byte	.LEHE4-.LEHB4
 122 0040 00000000 		.4byte	0
 123 0044 00       		.byte	0
 124 0045 00000000 		.4byte	.LEHB5-.LFB25
 125 0049 00000000 		.4byte	.LEHE5-.LEHB5
 126 004d 00000000 		.4byte	0
 127 0051 00       		.byte	0
 128              		.text
 130              		.align	2
 131              		.globl	_ZN8KConsole17putCharacterInputEc
 133              	_ZN8KConsole17putCharacterInputEc:
 134              	.LFB28:
  25:src/KConsole.cpp **** 
  26:src/KConsole.cpp **** //extern const uint64 CONSOLE_STATUS;
  27:src/KConsole.cpp **** //extern const uint64 CONSOLE_TX_DATA;
  28:src/KConsole.cpp **** //extern const uint64 CONSOLE_RX_DATA;
GAS LISTING /tmp/ccBv2anA.s 			page 4


  29:src/KConsole.cpp **** 
  30:src/KConsole.cpp **** void KConsole::getCharactersFromConsole(void* p)
  31:src/KConsole.cpp **** {
  32:src/KConsole.cpp ****     while(true)
  33:src/KConsole.cpp ****     {
  34:src/KConsole.cpp ****         uint64 x = CONSOLE_STATUS;
  35:src/KConsole.cpp ****         __asm__ volatile("mv a0, %0"::"r"(x));
  36:src/KConsole.cpp ****         __asm__ volatile("lb a1, 0(a0)");
  37:src/KConsole.cpp ****         uint64 operation;
  38:src/KConsole.cpp ****         __asm__ volatile("mv %0, a1" :  "=r"(operation));
  39:src/KConsole.cpp ****         if(operation & STATUS_READ_MASK)
  40:src/KConsole.cpp ****         {
  41:src/KConsole.cpp ****             x = CONSOLE_TX_DATA;
  42:src/KConsole.cpp ****             __asm__ volatile("mv a0, %0"::"r"(x));
  43:src/KConsole.cpp ****             __asm__ volatile("lb a1,0(a0)");
  44:src/KConsole.cpp ****             char c;
  45:src/KConsole.cpp ****             __asm__ volatile("mv %0, a1" :  "=r"(c));
  46:src/KConsole.cpp **** 
  47:src/KConsole.cpp ****             putCharacterInput(c);
  48:src/KConsole.cpp ****             putCharacterOutput(c);
  49:src/KConsole.cpp ****         }
  50:src/KConsole.cpp ****         else
  51:src/KConsole.cpp ****             break;
  52:src/KConsole.cpp ****     }
  53:src/KConsole.cpp **** }
  54:src/KConsole.cpp **** 
  55:src/KConsole.cpp **** void KConsole::sendCharactersToConsole(void* p)
  56:src/KConsole.cpp **** {
  57:src/KConsole.cpp ****     while(true)
  58:src/KConsole.cpp ****     {
  59:src/KConsole.cpp ****             if(Riscv::finishSystem && KConsole::outputBufferEmpty() && pendingGetc == 0)
  60:src/KConsole.cpp ****                 thread_exit();
  61:src/KConsole.cpp **** 
  62:src/KConsole.cpp ****             uint64 x = CONSOLE_STATUS;
  63:src/KConsole.cpp ****             __asm__ volatile("mv a0, %0"::"r"(x));
  64:src/KConsole.cpp ****             __asm__ volatile("lb a1, 0(a0)");
  65:src/KConsole.cpp ****             uint64 operation;
  66:src/KConsole.cpp ****             __asm__ volatile("mv %0, a1" :  "=r"(operation));
  67:src/KConsole.cpp ****             if (operation & STATUS_WRITE_MASK)
  68:src/KConsole.cpp ****             {
  69:src/KConsole.cpp ****                 char volatile c = sysCallGetCharOutput();
  70:src/KConsole.cpp ****                 pendingPutc--;
  71:src/KConsole.cpp ****                 x = CONSOLE_RX_DATA;
  72:src/KConsole.cpp ****                 __asm__ volatile("mv a0, %0"::"r"(x));
  73:src/KConsole.cpp ****                 __asm__ volatile("mv a1, %0" :  :"r"((uint64)c));
  74:src/KConsole.cpp ****                 __asm__ volatile("sb a1,0(a0)");
  75:src/KConsole.cpp ****             }
  76:src/KConsole.cpp ****             else
  77:src/KConsole.cpp ****             {
  78:src/KConsole.cpp ****                 thread_dispatch();
  79:src/KConsole.cpp ****             }
  80:src/KConsole.cpp ****     }
  81:src/KConsole.cpp **** }
  82:src/KConsole.cpp **** 
  83:src/KConsole.cpp **** void KConsole::putCharacterInput(char c)
  84:src/KConsole.cpp **** {
 135              		.loc 1 84 1 is_stmt 1
GAS LISTING /tmp/ccBv2anA.s 			page 5


 136              		.cfi_startproc
 137              	.LVL8:
  85:src/KConsole.cpp ****     if((inputTail+1)%bufferSize == inputHead)
 138              		.loc 1 85 5
 139              		.loc 1 85 18 is_stmt 0
 140 00b0 97060000 		lla	a3,.LANCHOR0
 140      93860600 
 141 00b8 03B60601 		ld	a2,16(a3)
 142 00bc 93071600 		addi	a5,a2,1
 143              		.loc 1 85 21
 144 00c0 37270000 		li	a4,8192
 145 00c4 1307F7FF 		addi	a4,a4,-1
 146 00c8 B3F7E700 		and	a5,a5,a4
 147              		.loc 1 85 33
 148 00cc 03B78601 		ld	a4,24(a3)
 149              		.loc 1 85 5
 150 00d0 6382E704 		beq	a5,a4,.L11
  84:src/KConsole.cpp ****     if((inputTail+1)%bufferSize == inputHead)
 151              		.loc 1 84 1
 152 00d4 130101FF 		addi	sp,sp,-16
 153              		.cfi_def_cfa_offset 16
 154 00d8 23341100 		sd	ra,8(sp)
 155 00dc 23308100 		sd	s0,0(sp)
 156              		.cfi_offset 1, -8
 157              		.cfi_offset 8, -16
 158 00e0 13040101 		addi	s0,sp,16
 159              		.cfi_def_cfa 8, 0
  86:src/KConsole.cpp ****         return;
  87:src/KConsole.cpp ****     inputBuffer[inputTail] = c;
 160              		.loc 1 87 5 is_stmt 1
 161              		.loc 1 87 28 is_stmt 0
 162 00e4 17070000 		lla	a4,_ZN8KConsole11inputBufferE
 162      13070700 
 163 00ec 3306C700 		add	a2,a4,a2
 164 00f0 2300A600 		sb	a0,0(a2)
  88:src/KConsole.cpp ****     inputTail = (inputTail+1)%bufferSize;
 165              		.loc 1 88 5 is_stmt 1
 166              		.loc 1 88 15 is_stmt 0
 167 00f4 23B8F600 		sd	a5,16(a3)
  89:src/KConsole.cpp ****     hasCharactersInput->signal();
 168              		.loc 1 89 5 is_stmt 1
 169              		.loc 1 89 31 is_stmt 0
 170 00f8 03B50600 		ld	a0,0(a3)
 171              	.LVL9:
 172 00fc 97000000 		call	_ZN10KSemaphore6signalEv@plt
 172      E7800000 
 173              	.LVL10:
  90:src/KConsole.cpp **** }
 174              		.loc 1 90 1
 175 0104 83308100 		ld	ra,8(sp)
 176              		.cfi_restore 1
 177 0108 03340100 		ld	s0,0(sp)
 178              		.cfi_restore 8
 179              		.cfi_def_cfa 2, 16
 180 010c 13010101 		addi	sp,sp,16
 181              		.cfi_def_cfa_offset 0
 182 0110 67800000 		jr	ra
GAS LISTING /tmp/ccBv2anA.s 			page 6


 183              	.LVL11:
 184              	.L11:
 185 0114 67800000 		ret
 186              		.cfi_endproc
 187              	.LFE28:
 189              		.align	2
 190              		.globl	_ZN8KConsole17getCharacterInputEv
 192              	_ZN8KConsole17getCharacterInputEv:
 193              	.LFB29:
  91:src/KConsole.cpp **** 
  92:src/KConsole.cpp **** char KConsole::getCharacterInput()
  93:src/KConsole.cpp **** {
 194              		.loc 1 93 1 is_stmt 1
 195              		.cfi_startproc
 196 0118 130101FE 		addi	sp,sp,-32
 197              		.cfi_def_cfa_offset 32
 198 011c 233C1100 		sd	ra,24(sp)
 199 0120 23388100 		sd	s0,16(sp)
 200 0124 23349100 		sd	s1,8(sp)
 201              		.cfi_offset 1, -8
 202              		.cfi_offset 8, -16
 203              		.cfi_offset 9, -24
 204 0128 13040102 		addi	s0,sp,32
 205              		.cfi_def_cfa 8, 0
  94:src/KConsole.cpp ****     hasCharactersInput->wait();
 206              		.loc 1 94 5
 207              		.loc 1 94 29 is_stmt 0
 208 012c 97040000 		lla	s1,.LANCHOR0
 208      93840400 
 209 0134 03B50400 		ld	a0,0(s1)
 210 0138 97000000 		call	_ZN10KSemaphore4waitEv@plt
 210      E7800000 
 211              	.LVL12:
  95:src/KConsole.cpp ****     if(inputHead == inputTail)
 212              		.loc 1 95 5 is_stmt 1
 213              		.loc 1 95 18 is_stmt 0
 214 0140 83B78401 		ld	a5,24(s1)
 215 0144 03B70401 		ld	a4,16(s1)
 216              		.loc 1 95 5
 217 0148 6380E704 		beq	a5,a4,.L16
  96:src/KConsole.cpp ****         return -1;
  97:src/KConsole.cpp ****     char c = inputBuffer[inputHead];
 218              		.loc 1 97 5 is_stmt 1
 219              		.loc 1 97 10 is_stmt 0
 220 014c 17070000 		lla	a4,_ZN8KConsole11inputBufferE
 220      13070700 
 221 0154 3307F700 		add	a4,a4,a5
 222 0158 03450700 		lbu	a0,0(a4)
 223              	.LVL13:
  98:src/KConsole.cpp **** 
  99:src/KConsole.cpp ****     inputHead = (inputHead+1)%bufferSize;
 224              		.loc 1 99 5 is_stmt 1
 225              		.loc 1 99 27 is_stmt 0
 226 015c 93871700 		addi	a5,a5,1
 227              		.loc 1 99 30
 228 0160 37270000 		li	a4,8192
 229 0164 1307F7FF 		addi	a4,a4,-1
GAS LISTING /tmp/ccBv2anA.s 			page 7


 230 0168 B3F7E700 		and	a5,a5,a4
 231              		.loc 1 99 15
 232 016c 17070000 		sd	a5,.LANCHOR0+24,a4
 232      2330F700 
 100:src/KConsole.cpp **** 
 101:src/KConsole.cpp ****     return c;
 233              		.loc 1 101 5 is_stmt 1
 234              	.LVL14:
 235              	.L15:
 102:src/KConsole.cpp **** }
 236              		.loc 1 102 1 is_stmt 0
 237 0174 83308101 		ld	ra,24(sp)
 238              		.cfi_remember_state
 239              		.cfi_restore 1
 240 0178 03340101 		ld	s0,16(sp)
 241              		.cfi_restore 8
 242              		.cfi_def_cfa 2, 32
 243 017c 83348100 		ld	s1,8(sp)
 244              		.cfi_restore 9
 245 0180 13010102 		addi	sp,sp,32
 246              		.cfi_def_cfa_offset 0
 247 0184 67800000 		jr	ra
 248              	.L16:
 249              		.cfi_restore_state
  96:src/KConsole.cpp ****     char c = inputBuffer[inputHead];
 250              		.loc 1 96 17
 251 0188 1305F00F 		li	a0,255
 252 018c 6FF09FFE 		j	.L15
 253              		.cfi_endproc
 254              	.LFE29:
 256              		.align	2
 257              		.globl	_ZN8KConsole18putCharacterOutputEc
 259              	_ZN8KConsole18putCharacterOutputEc:
 260              	.LFB30:
 103:src/KConsole.cpp **** 
 104:src/KConsole.cpp **** void KConsole::putCharacterOutput(char c)
 105:src/KConsole.cpp **** {
 261              		.loc 1 105 1 is_stmt 1
 262              		.cfi_startproc
 263              	.LVL15:
 106:src/KConsole.cpp ****     if((outputTail+1)%bufferSize == outputHead)
 264              		.loc 1 106 5
 265              		.loc 1 106 19 is_stmt 0
 266 0190 97060000 		lla	a3,.LANCHOR0
 266      93860600 
 267 0198 03B60602 		ld	a2,32(a3)
 268 019c 93071600 		addi	a5,a2,1
 269              		.loc 1 106 22
 270 01a0 37270000 		li	a4,8192
 271 01a4 1307F7FF 		addi	a4,a4,-1
 272 01a8 B3F7E700 		and	a5,a5,a4
 273              		.loc 1 106 34
 274 01ac 03B78602 		ld	a4,40(a3)
 275              		.loc 1 106 5
 276 01b0 638AE704 		beq	a5,a4,.L21
 105:src/KConsole.cpp ****     if((outputTail+1)%bufferSize == outputHead)
 277              		.loc 1 105 1
GAS LISTING /tmp/ccBv2anA.s 			page 8


 278 01b4 130101FF 		addi	sp,sp,-16
 279              		.cfi_def_cfa_offset 16
 280 01b8 23341100 		sd	ra,8(sp)
 281 01bc 23308100 		sd	s0,0(sp)
 282              		.cfi_offset 1, -8
 283              		.cfi_offset 8, -16
 284 01c0 13040101 		addi	s0,sp,16
 285              		.cfi_def_cfa 8, 0
 107:src/KConsole.cpp ****         return;
 108:src/KConsole.cpp ****     pendingPutc++;
 286              		.loc 1 108 5 is_stmt 1
 287              		.loc 1 108 16 is_stmt 0
 288 01c4 13870600 		mv	a4,a3
 289 01c8 83B60603 		ld	a3,48(a3)
 290 01cc 93861600 		addi	a3,a3,1
 291 01d0 2338D702 		sd	a3,48(a4)
 109:src/KConsole.cpp ****     outputBuffer[outputTail] = c;
 292              		.loc 1 109 5 is_stmt 1
 293              		.loc 1 109 30 is_stmt 0
 294 01d4 97060000 		lla	a3,_ZN8KConsole12outputBufferE
 294      93860600 
 295 01dc 3386C600 		add	a2,a3,a2
 296 01e0 2300A600 		sb	a0,0(a2)
 110:src/KConsole.cpp ****     outputTail = (outputTail+1)%bufferSize;
 297              		.loc 1 110 5 is_stmt 1
 298              		.loc 1 110 16 is_stmt 0
 299 01e4 2330F702 		sd	a5,32(a4)
 111:src/KConsole.cpp ****     hasCharactersOutput->signal();
 300              		.loc 1 111 5 is_stmt 1
 301              		.loc 1 111 32 is_stmt 0
 302 01e8 03358700 		ld	a0,8(a4)
 303              	.LVL16:
 304 01ec 97000000 		call	_ZN10KSemaphore6signalEv@plt
 304      E7800000 
 305              	.LVL17:
 112:src/KConsole.cpp **** }
 306              		.loc 1 112 1
 307 01f4 83308100 		ld	ra,8(sp)
 308              		.cfi_restore 1
 309 01f8 03340100 		ld	s0,0(sp)
 310              		.cfi_restore 8
 311              		.cfi_def_cfa 2, 16
 312 01fc 13010101 		addi	sp,sp,16
 313              		.cfi_def_cfa_offset 0
 314 0200 67800000 		jr	ra
 315              	.LVL18:
 316              	.L21:
 317 0204 67800000 		ret
 318              		.cfi_endproc
 319              	.LFE30:
 321              		.align	2
 322              		.globl	_ZN8KConsole24getCharactersFromConsoleEPv
 324              	_ZN8KConsole24getCharactersFromConsoleEPv:
 325              	.LFB26:
  31:src/KConsole.cpp ****     while(true)
 326              		.loc 1 31 1 is_stmt 1
 327              		.cfi_startproc
GAS LISTING /tmp/ccBv2anA.s 			page 9


 328              	.LVL19:
  32:src/KConsole.cpp ****     {
 329              		.loc 1 32 5
 330              	.LBB2:
  34:src/KConsole.cpp ****         __asm__ volatile("mv a0, %0"::"r"(x));
 331              		.loc 1 34 9
  34:src/KConsole.cpp ****         __asm__ volatile("mv a0, %0"::"r"(x));
 332              		.loc 1 34 16 is_stmt 0
 333 0208 97070000 		la	a5,CONSOLE_STATUS
 333      83B70700 
 334 0210 83B70700 		ld	a5,0(a5)
 335              	.LVL20:
  35:src/KConsole.cpp ****         __asm__ volatile("lb a1, 0(a0)");
 336              		.loc 1 35 9 is_stmt 1
  35:src/KConsole.cpp ****         __asm__ volatile("lb a1, 0(a0)");
 337              		.loc 1 35 46 is_stmt 0
 338              	#APP
 339              	# 35 "src/KConsole.cpp" 1
  36:src/KConsole.cpp ****         uint64 operation;
 340              		mv a0, a5
 341              	# 0 "" 2
 342              		.loc 1 36 9 is_stmt 1
  36:src/KConsole.cpp ****         uint64 operation;
 343              		.loc 1 36 41 is_stmt 0
 344              	# 36 "src/KConsole.cpp" 1
  37:src/KConsole.cpp ****         __asm__ volatile("mv %0, a1" :  "=r"(operation));
 345              		lb a1, 0(a0)
 346              	# 0 "" 2
 347              		.loc 1 37 9 is_stmt 1
  38:src/KConsole.cpp ****         if(operation & STATUS_READ_MASK)
 348              		.loc 1 38 9
  38:src/KConsole.cpp ****         if(operation & STATUS_READ_MASK)
 349              		.loc 1 38 57 is_stmt 0
 350              	# 38 "src/KConsole.cpp" 1
 351              		mv a5, a1
 352              	# 0 "" 2
 353              	.LVL21:
  39:src/KConsole.cpp ****         {
 354              		.loc 1 39 9 is_stmt 1
 355              	#NO_APP
 356              	.LBB3:
  39:src/KConsole.cpp ****         {
 357              		.loc 1 39 22 is_stmt 0
 358 0220 93F71700 		andi	a5,a5,1
 359              	.LVL22:
  39:src/KConsole.cpp ****         {
 360              		.loc 1 39 9
 361 0224 63800708 		beqz	a5,.L32
 362              	.LBE3:
 363              	.LBE2:
  31:src/KConsole.cpp ****     while(true)
 364              		.loc 1 31 1
 365 0228 130101FE 		addi	sp,sp,-32
 366              		.cfi_def_cfa_offset 32
 367 022c 233C1100 		sd	ra,24(sp)
 368 0230 23388100 		sd	s0,16(sp)
 369 0234 23349100 		sd	s1,8(sp)
GAS LISTING /tmp/ccBv2anA.s 			page 10


 370              		.cfi_offset 1, -8
 371              		.cfi_offset 8, -16
 372              		.cfi_offset 9, -24
 373 0238 13040102 		addi	s0,sp,32
 374              		.cfi_def_cfa 8, 0
 375              	.LVL23:
 376              	.L28:
 377              	.LBB7:
 378              	.LBB5:
 379              	.LBB4:
  41:src/KConsole.cpp ****             __asm__ volatile("mv a0, %0"::"r"(x));
 380              		.loc 1 41 13 is_stmt 1
  41:src/KConsole.cpp ****             __asm__ volatile("mv a0, %0"::"r"(x));
 381              		.loc 1 41 15 is_stmt 0
 382 023c 97070000 		la	a5,CONSOLE_TX_DATA
 382      83B70700 
 383 0244 83B70700 		ld	a5,0(a5)
 384              	.LVL24:
  42:src/KConsole.cpp ****             __asm__ volatile("lb a1,0(a0)");
 385              		.loc 1 42 13 is_stmt 1
  42:src/KConsole.cpp ****             __asm__ volatile("lb a1,0(a0)");
 386              		.loc 1 42 50 is_stmt 0
 387              	#APP
 388              	# 42 "src/KConsole.cpp" 1
  43:src/KConsole.cpp ****             char c;
 389              		mv a0, a5
 390              	# 0 "" 2
 391              		.loc 1 43 13 is_stmt 1
  43:src/KConsole.cpp ****             char c;
 392              		.loc 1 43 44 is_stmt 0
 393              	# 43 "src/KConsole.cpp" 1
  44:src/KConsole.cpp ****             __asm__ volatile("mv %0, a1" :  "=r"(c));
 394              		lb a1,0(a0)
 395              	# 0 "" 2
 396              		.loc 1 44 13 is_stmt 1
  45:src/KConsole.cpp **** 
 397              		.loc 1 45 13
  45:src/KConsole.cpp **** 
 398              		.loc 1 45 53 is_stmt 0
 399              	# 45 "src/KConsole.cpp" 1
 400              		mv s1, a1
 401              	# 0 "" 2
 402              	#NO_APP
 403 0254 93F4F40F 		andi	s1,s1,0xff
 404              	.LVL25:
  47:src/KConsole.cpp ****             putCharacterOutput(c);
 405              		.loc 1 47 13 is_stmt 1
  47:src/KConsole.cpp ****             putCharacterOutput(c);
 406              		.loc 1 47 30 is_stmt 0
 407 0258 13850400 		mv	a0,s1
 408 025c 97000000 		call	_ZN8KConsole17putCharacterInputEc
 408      E7800000 
 409              	.LVL26:
  48:src/KConsole.cpp ****         }
 410              		.loc 1 48 13 is_stmt 1
  48:src/KConsole.cpp ****         }
 411              		.loc 1 48 31 is_stmt 0
GAS LISTING /tmp/ccBv2anA.s 			page 11


 412 0264 13850400 		mv	a0,s1
 413 0268 97000000 		call	_ZN8KConsole18putCharacterOutputEc
 413      E7800000 
 414              	.LVL27:
 415              	.LBE4:
 416              	.LBE5:
 417              	.LBE7:
  32:src/KConsole.cpp ****     {
 418              		.loc 1 32 5 is_stmt 1
  32:src/KConsole.cpp ****     {
 419              		.loc 1 32 5
 420              	.LBB8:
  34:src/KConsole.cpp ****         __asm__ volatile("mv a0, %0"::"r"(x));
 421              		.loc 1 34 9
  34:src/KConsole.cpp ****         __asm__ volatile("mv a0, %0"::"r"(x));
 422              		.loc 1 34 16 is_stmt 0
 423 0270 97070000 		la	a5,CONSOLE_STATUS
 423      83B70700 
 424 0278 83B70700 		ld	a5,0(a5)
 425              	.LVL28:
  35:src/KConsole.cpp ****         __asm__ volatile("lb a1, 0(a0)");
 426              		.loc 1 35 9 is_stmt 1
  35:src/KConsole.cpp ****         __asm__ volatile("lb a1, 0(a0)");
 427              		.loc 1 35 46 is_stmt 0
 428              	#APP
 429              	# 35 "src/KConsole.cpp" 1
  36:src/KConsole.cpp ****         uint64 operation;
 430              		mv a0, a5
 431              	# 0 "" 2
 432              		.loc 1 36 9 is_stmt 1
  36:src/KConsole.cpp ****         uint64 operation;
 433              		.loc 1 36 41 is_stmt 0
 434              	# 36 "src/KConsole.cpp" 1
  37:src/KConsole.cpp ****         __asm__ volatile("mv %0, a1" :  "=r"(operation));
 435              		lb a1, 0(a0)
 436              	# 0 "" 2
 437              		.loc 1 37 9 is_stmt 1
  38:src/KConsole.cpp ****         if(operation & STATUS_READ_MASK)
 438              		.loc 1 38 9
  38:src/KConsole.cpp ****         if(operation & STATUS_READ_MASK)
 439              		.loc 1 38 57 is_stmt 0
 440              	# 38 "src/KConsole.cpp" 1
 441              		mv a5, a1
 442              	# 0 "" 2
 443              	.LVL29:
  39:src/KConsole.cpp ****         {
 444              		.loc 1 39 9 is_stmt 1
 445              	#NO_APP
 446              	.LBB6:
  39:src/KConsole.cpp ****         {
 447              		.loc 1 39 22 is_stmt 0
 448 0288 93F71700 		andi	a5,a5,1
 449              	.LVL30:
  39:src/KConsole.cpp ****         {
 450              		.loc 1 39 9
 451 028c E39807FA 		bnez	a5,.L28
 452              	.LBE6:
GAS LISTING /tmp/ccBv2anA.s 			page 12


 453              	.LBE8:
  53:src/KConsole.cpp **** 
 454              		.loc 1 53 1
 455 0290 83308101 		ld	ra,24(sp)
 456              		.cfi_restore 1
 457 0294 03340101 		ld	s0,16(sp)
 458              		.cfi_restore 8
 459              		.cfi_def_cfa 2, 32
 460 0298 83348100 		ld	s1,8(sp)
 461              		.cfi_restore 9
 462              	.LVL31:
 463 029c 13010102 		addi	sp,sp,32
 464              		.cfi_def_cfa_offset 0
 465 02a0 67800000 		jr	ra
 466              	.LVL32:
 467              	.L32:
 468 02a4 67800000 		ret
 469              		.cfi_endproc
 470              	.LFE26:
 472              		.align	2
 473              		.globl	_ZN8KConsole18getCharacterOutputEv
 475              	_ZN8KConsole18getCharacterOutputEv:
 476              	.LFB31:
 113:src/KConsole.cpp **** 
 114:src/KConsole.cpp **** char KConsole::getCharacterOutput()
 115:src/KConsole.cpp **** {
 477              		.loc 1 115 1 is_stmt 1
 478              		.cfi_startproc
 479 02a8 130101FE 		addi	sp,sp,-32
 480              		.cfi_def_cfa_offset 32
 481 02ac 233C1100 		sd	ra,24(sp)
 482 02b0 23388100 		sd	s0,16(sp)
 483 02b4 23349100 		sd	s1,8(sp)
 484              		.cfi_offset 1, -8
 485              		.cfi_offset 8, -16
 486              		.cfi_offset 9, -24
 487 02b8 13040102 		addi	s0,sp,32
 488              		.cfi_def_cfa 8, 0
 116:src/KConsole.cpp ****     hasCharactersOutput->wait();
 489              		.loc 1 116 5
 490              		.loc 1 116 30 is_stmt 0
 491 02bc 97040000 		lla	s1,.LANCHOR0
 491      93840400 
 492 02c4 03B58400 		ld	a0,8(s1)
 493 02c8 97000000 		call	_ZN10KSemaphore4waitEv@plt
 493      E7800000 
 494              	.LVL33:
 117:src/KConsole.cpp ****     if(outputHead == outputTail)
 495              		.loc 1 117 5 is_stmt 1
 496              		.loc 1 117 19 is_stmt 0
 497 02d0 83B78402 		ld	a5,40(s1)
 498 02d4 03B70402 		ld	a4,32(s1)
 499              		.loc 1 117 5
 500 02d8 6380E704 		beq	a5,a4,.L35
 118:src/KConsole.cpp ****         return -1;
 119:src/KConsole.cpp **** 
 120:src/KConsole.cpp ****     char c = outputBuffer[outputHead];
GAS LISTING /tmp/ccBv2anA.s 			page 13


 501              		.loc 1 120 5 is_stmt 1
 502              		.loc 1 120 10 is_stmt 0
 503 02dc 17070000 		lla	a4,_ZN8KConsole12outputBufferE
 503      13070700 
 504 02e4 3307F700 		add	a4,a4,a5
 505 02e8 03450700 		lbu	a0,0(a4)
 506              	.LVL34:
 121:src/KConsole.cpp **** 
 122:src/KConsole.cpp ****     outputHead = (outputHead+1)%bufferSize;
 507              		.loc 1 122 5 is_stmt 1
 508              		.loc 1 122 29 is_stmt 0
 509 02ec 93871700 		addi	a5,a5,1
 510              		.loc 1 122 32
 511 02f0 37270000 		li	a4,8192
 512 02f4 1307F7FF 		addi	a4,a4,-1
 513 02f8 B3F7E700 		and	a5,a5,a4
 514              		.loc 1 122 16
 515 02fc 17070000 		sd	a5,.LANCHOR0+40,a4
 515      2330F700 
 123:src/KConsole.cpp **** 
 124:src/KConsole.cpp ****     return c;
 516              		.loc 1 124 5 is_stmt 1
 517              	.LVL35:
 518              	.L34:
 125:src/KConsole.cpp **** }
 519              		.loc 1 125 1 is_stmt 0
 520 0304 83308101 		ld	ra,24(sp)
 521              		.cfi_remember_state
 522              		.cfi_restore 1
 523 0308 03340101 		ld	s0,16(sp)
 524              		.cfi_restore 8
 525              		.cfi_def_cfa 2, 32
 526 030c 83348100 		ld	s1,8(sp)
 527              		.cfi_restore 9
 528 0310 13010102 		addi	sp,sp,32
 529              		.cfi_def_cfa_offset 0
 530 0314 67800000 		jr	ra
 531              	.L35:
 532              		.cfi_restore_state
 118:src/KConsole.cpp **** 
 533              		.loc 1 118 17
 534 0318 1305F00F 		li	a0,255
 535 031c 6FF09FFE 		j	.L34
 536              		.cfi_endproc
 537              	.LFE31:
 539              		.align	2
 540              		.globl	_ZN8KConsole11putcHandlerEv
 542              	_ZN8KConsole11putcHandlerEv:
 543              	.LFB32:
 126:src/KConsole.cpp **** 
 127:src/KConsole.cpp **** void KConsole::putcHandler()
 128:src/KConsole.cpp **** {
 544              		.loc 1 128 1 is_stmt 1
 545              		.cfi_startproc
 546 0320 130101FF 		addi	sp,sp,-16
 547              		.cfi_def_cfa_offset 16
 548 0324 23341100 		sd	ra,8(sp)
GAS LISTING /tmp/ccBv2anA.s 			page 14


 549 0328 23308100 		sd	s0,0(sp)
 550              		.cfi_offset 1, -8
 551              		.cfi_offset 8, -16
 552 032c 13040101 		addi	s0,sp,16
 553              		.cfi_def_cfa 8, 0
 129:src/KConsole.cpp ****     uint64 ch;
 554              		.loc 1 129 5
 130:src/KConsole.cpp ****     __asm__ volatile("mv %0, a1" : "=r"(ch));
 555              		.loc 1 130 5
 556              		.loc 1 130 45 is_stmt 0
 557              	#APP
 558              	# 130 "src/KConsole.cpp" 1
 131              	    putCharacterOutput((char)ch);
 559              		mv a0, a1
 560              	# 0 "" 2
 561              	.LVL36:
 562              		.loc 1 131 5 is_stmt 1
 563              		.loc 1 131 23 is_stmt 0
 564              	#NO_APP
 565 0334 1375F50F 		andi	a0,a0,0xff
 566              	.LVL37:
 567 0338 97000000 		call	_ZN8KConsole18putCharacterOutputEc
 567      E7800000 
 568              	.LVL38:
 132:src/KConsole.cpp **** }
 569              		.loc 1 132 1
 570 0340 83308100 		ld	ra,8(sp)
 571              		.cfi_restore 1
 572 0344 03340100 		ld	s0,0(sp)
 573              		.cfi_restore 8
 574              		.cfi_def_cfa 2, 16
 575 0348 13010101 		addi	sp,sp,16
 576              		.cfi_def_cfa_offset 0
 577 034c 67800000 		jr	ra
 578              		.cfi_endproc
 579              	.LFE32:
 581              		.align	2
 582              		.globl	_ZN8KConsole11getcHandlerEv
 584              	_ZN8KConsole11getcHandlerEv:
 585              	.LFB33:
 133:src/KConsole.cpp **** 
 134:src/KConsole.cpp **** void KConsole::getcHandler()
 135:src/KConsole.cpp **** {
 586              		.loc 1 135 1 is_stmt 1
 587              		.cfi_startproc
 588 0350 130101FF 		addi	sp,sp,-16
 589              		.cfi_def_cfa_offset 16
 590 0354 23341100 		sd	ra,8(sp)
 591 0358 23308100 		sd	s0,0(sp)
 592              		.cfi_offset 1, -8
 593              		.cfi_offset 8, -16
 594 035c 13040101 		addi	s0,sp,16
 595              		.cfi_def_cfa 8, 0
 136:src/KConsole.cpp ****     pendingGetc++;
 596              		.loc 1 136 5
 597              		.loc 1 136 16 is_stmt 0
 598 0360 17070000 		lla	a4,.LANCHOR0
GAS LISTING /tmp/ccBv2anA.s 			page 15


 598      13070700 
 599 0368 83378703 		ld	a5,56(a4)
 600 036c 93871700 		addi	a5,a5,1
 601 0370 233CF702 		sd	a5,56(a4)
 137:src/KConsole.cpp ****     char ch;
 602              		.loc 1 137 5 is_stmt 1
 138:src/KConsole.cpp ****     ch = getCharacterInput();
 603              		.loc 1 138 5
 604              		.loc 1 138 27 is_stmt 0
 605 0374 97000000 		call	_ZN8KConsole17getCharacterInputEv
 605      E7800000 
 606              	.LVL39:
 139:src/KConsole.cpp ****     __asm__ volatile("mv a0, %0" : :"r"((uint64)ch));
 607              		.loc 1 139 5 is_stmt 1
 608              		.loc 1 139 53 is_stmt 0
 609              	#APP
 610              	# 139 "src/KConsole.cpp" 1
 140              	    Riscv::w_a0_sscratch();
 611              		mv a0, a0
 612              	# 0 "" 2
 613              		.loc 1 140 5 is_stmt 1
 614              		.loc 1 140 25 is_stmt 0
 615              	#NO_APP
 616 0380 97000000 		call	_ZN5Riscv13w_a0_sscratchEv@plt
 616      E7800000 
 617              	.LVL40:
 141:src/KConsole.cpp **** }
 618              		.loc 1 141 1
 619 0388 83308100 		ld	ra,8(sp)
 620              		.cfi_restore 1
 621 038c 03340100 		ld	s0,0(sp)
 622              		.cfi_restore 8
 623              		.cfi_def_cfa 2, 16
 624 0390 13010101 		addi	sp,sp,16
 625              		.cfi_def_cfa_offset 0
 626 0394 67800000 		jr	ra
 627              		.cfi_endproc
 628              	.LFE33:
 630              		.align	2
 631              		.globl	_ZN8KConsole17outputBufferEmptyEv
 633              	_ZN8KConsole17outputBufferEmptyEv:
 634              	.LFB34:
 142:src/KConsole.cpp **** 
 143:src/KConsole.cpp **** bool KConsole::outputBufferEmpty()
 144:src/KConsole.cpp **** {
 635              		.loc 1 144 1 is_stmt 1
 636              		.cfi_startproc
 637 0398 130101FF 		addi	sp,sp,-16
 638              		.cfi_def_cfa_offset 16
 639 039c 23348100 		sd	s0,8(sp)
 640              		.cfi_offset 8, -8
 641 03a0 13040101 		addi	s0,sp,16
 642              		.cfi_def_cfa 8, 0
 145:src/KConsole.cpp ****     return pendingPutc == 0;
 643              		.loc 1 145 5
 146:src/KConsole.cpp **** }
 644              		.loc 1 146 1 is_stmt 0
GAS LISTING /tmp/ccBv2anA.s 			page 16


 645 03a4 17050000 		ld	a0,.LANCHOR0+48
 645      03350500 
 646 03ac 13351500 		seqz	a0,a0
 647 03b0 03348100 		ld	s0,8(sp)
 648              		.cfi_restore 8
 649              		.cfi_def_cfa 2, 16
 650 03b4 13010101 		addi	sp,sp,16
 651              		.cfi_def_cfa_offset 0
 652 03b8 67800000 		jr	ra
 653              		.cfi_endproc
 654              	.LFE34:
 656              		.align	2
 657              		.globl	_ZN8KConsole23sendCharactersToConsoleEPv
 659              	_ZN8KConsole23sendCharactersToConsoleEPv:
 660              	.LFB27:
  56:src/KConsole.cpp ****     while(true)
 661              		.loc 1 56 1 is_stmt 1
 662              		.cfi_startproc
 663              	.LVL41:
 664 03bc 130101FE 		addi	sp,sp,-32
 665              		.cfi_def_cfa_offset 32
 666 03c0 233C1100 		sd	ra,24(sp)
 667 03c4 23388100 		sd	s0,16(sp)
 668              		.cfi_offset 1, -8
 669              		.cfi_offset 8, -16
 670 03c8 13040102 		addi	s0,sp,32
 671              		.cfi_def_cfa 8, 0
 672 03cc 6F004006 		j	.L44
 673              	.LVL42:
 674              	.L45:
 675              	.LBB9:
  62:src/KConsole.cpp ****             __asm__ volatile("mv a0, %0"::"r"(x));
 676              		.loc 1 62 13
  62:src/KConsole.cpp ****             __asm__ volatile("mv a0, %0"::"r"(x));
 677              		.loc 1 62 20 is_stmt 0
 678 03d0 97070000 		la	a5,CONSOLE_STATUS
 678      83B70700 
 679 03d8 83B70700 		ld	a5,0(a5)
 680              	.LVL43:
  63:src/KConsole.cpp ****             __asm__ volatile("lb a1, 0(a0)");
 681              		.loc 1 63 13 is_stmt 1
  63:src/KConsole.cpp ****             __asm__ volatile("lb a1, 0(a0)");
 682              		.loc 1 63 50 is_stmt 0
 683              	#APP
 684              	# 63 "src/KConsole.cpp" 1
  64:src/KConsole.cpp ****             uint64 operation;
 685              		mv a0, a5
 686              	# 0 "" 2
 687              		.loc 1 64 13 is_stmt 1
  64:src/KConsole.cpp ****             uint64 operation;
 688              		.loc 1 64 45 is_stmt 0
 689              	# 64 "src/KConsole.cpp" 1
  65:src/KConsole.cpp ****             __asm__ volatile("mv %0, a1" :  "=r"(operation));
 690              		lb a1, 0(a0)
 691              	# 0 "" 2
 692              		.loc 1 65 13 is_stmt 1
  66:src/KConsole.cpp ****             if (operation & STATUS_WRITE_MASK)
GAS LISTING /tmp/ccBv2anA.s 			page 17


 693              		.loc 1 66 13
  66:src/KConsole.cpp ****             if (operation & STATUS_WRITE_MASK)
 694              		.loc 1 66 61 is_stmt 0
 695              	# 66 "src/KConsole.cpp" 1
 696              		mv a5, a1
 697              	# 0 "" 2
 698              	.LVL44:
  67:src/KConsole.cpp ****             {
 699              		.loc 1 67 13 is_stmt 1
 700              	#NO_APP
 701              	.LBB10:
  67:src/KConsole.cpp ****             {
 702              		.loc 1 67 27 is_stmt 0
 703 03e8 93F70702 		andi	a5,a5,32
 704              	.LVL45:
  67:src/KConsole.cpp ****             {
 705              		.loc 1 67 13
 706 03ec 638C0706 		beqz	a5,.L46
 707              	.LBB11:
  69:src/KConsole.cpp ****                 pendingPutc--;
 708              		.loc 1 69 17 is_stmt 1
  69:src/KConsole.cpp ****                 pendingPutc--;
 709              		.loc 1 69 55 is_stmt 0
 710 03f0 97000000 		call	sysCallGetCharOutput@plt
 710      E7800000 
 711              	.LVL46:
  69:src/KConsole.cpp ****                 pendingPutc--;
 712              		.loc 1 69 56
 713 03f8 A307A4FE 		sb	a0,-17(s0)
  70:src/KConsole.cpp ****                 x = CONSOLE_RX_DATA;
 714              		.loc 1 70 17 is_stmt 1
  70:src/KConsole.cpp ****                 x = CONSOLE_RX_DATA;
 715              		.loc 1 70 28 is_stmt 0
 716 03fc 17070000 		lla	a4,.LANCHOR0
 716      13070700 
 717 0404 83370703 		ld	a5,48(a4)
 718 0408 9387F7FF 		addi	a5,a5,-1
 719 040c 2338F702 		sd	a5,48(a4)
  71:src/KConsole.cpp ****                 __asm__ volatile("mv a0, %0"::"r"(x));
 720              		.loc 1 71 17 is_stmt 1
  71:src/KConsole.cpp ****                 __asm__ volatile("mv a0, %0"::"r"(x));
 721              		.loc 1 71 19 is_stmt 0
 722 0410 97070000 		la	a5,CONSOLE_RX_DATA
 722      83B70700 
 723 0418 83B70700 		ld	a5,0(a5)
 724              	.LVL47:
  72:src/KConsole.cpp ****                 __asm__ volatile("mv a1, %0" :  :"r"((uint64)c));
 725              		.loc 1 72 17 is_stmt 1
  72:src/KConsole.cpp ****                 __asm__ volatile("mv a1, %0" :  :"r"((uint64)c));
 726              		.loc 1 72 54 is_stmt 0
 727              	#APP
 728              	# 72 "src/KConsole.cpp" 1
  73:src/KConsole.cpp ****                 __asm__ volatile("sb a1,0(a0)");
 729              		mv a0, a5
 730              	# 0 "" 2
 731              		.loc 1 73 17 is_stmt 1
  73:src/KConsole.cpp ****                 __asm__ volatile("sb a1,0(a0)");
GAS LISTING /tmp/ccBv2anA.s 			page 18


 732              		.loc 1 73 54 is_stmt 0
 733              	#NO_APP
 734 0420 8347F4FE 		lbu	a5,-17(s0)
 735              	.LVL48:
 736 0424 93F7F70F 		andi	a5,a5,0xff
  73:src/KConsole.cpp ****                 __asm__ volatile("sb a1,0(a0)");
 737              		.loc 1 73 65
 738              	#APP
 739              	# 73 "src/KConsole.cpp" 1
  74:src/KConsole.cpp ****             }
 740              		mv a1, a5
 741              	# 0 "" 2
 742              		.loc 1 74 17 is_stmt 1
  74:src/KConsole.cpp ****             }
 743              		.loc 1 74 48 is_stmt 0
 744              	# 74 "src/KConsole.cpp" 1
 745              		sb a1,0(a0)
 746              	# 0 "" 2
 747              	.LVL49:
 748              	#NO_APP
 749              	.L44:
 750              	.LBE11:
 751              	.LBE10:
 752              	.LBE9:
  57:src/KConsole.cpp ****     {
 753              		.loc 1 57 5 is_stmt 1
 754              	.LBB13:
  59:src/KConsole.cpp ****                 thread_exit();
 755              		.loc 1 59 13
  59:src/KConsole.cpp ****                 thread_exit();
 756              		.loc 1 59 69 is_stmt 0
 757 0430 97070000 		la	a5,_ZN5Riscv12finishSystemE
 757      83B70700 
 758 0438 83C70700 		lbu	a5,0(a5)
 759 043c E38A07F8 		beqz	a5,.L45
  59:src/KConsole.cpp ****                 thread_exit();
 760              		.loc 1 59 66 discriminator 1
 761 0440 97000000 		call	_ZN8KConsole17outputBufferEmptyEv
 761      E7800000 
 762              	.LVL50:
  59:src/KConsole.cpp ****                 thread_exit();
 763              		.loc 1 59 36 discriminator 1
 764 0448 E30405F8 		beqz	a0,.L45
  59:src/KConsole.cpp ****                 thread_exit();
 765              		.loc 1 59 84 discriminator 3
 766 044c 97070000 		ld	a5,.LANCHOR0+56
 766      83B70700 
  59:src/KConsole.cpp ****                 thread_exit();
 767              		.loc 1 59 69 discriminator 3
 768 0454 E39E07F6 		bnez	a5,.L45
  60:src/KConsole.cpp **** 
 769              		.loc 1 60 17 is_stmt 1
  60:src/KConsole.cpp **** 
 770              		.loc 1 60 28 is_stmt 0
 771 0458 97000000 		call	thread_exit@plt
 771      E7800000 
 772              	.LVL51:
GAS LISTING /tmp/ccBv2anA.s 			page 19


 773 0460 6FF01FF7 		j	.L45
 774              	.LVL52:
 775              	.L46:
 776              	.LBB12:
  78:src/KConsole.cpp ****             }
 777              		.loc 1 78 17 is_stmt 1
  78:src/KConsole.cpp ****             }
 778              		.loc 1 78 32 is_stmt 0
 779 0464 97000000 		call	thread_dispatch@plt
 779      E7800000 
 780              	.LVL53:
 781 046c 6FF05FFC 		j	.L44
 782              	.LBE12:
 783              	.LBE13:
 784              		.cfi_endproc
 785              	.LFE27:
 787              		.align	2
 788              		.globl	_ZN8KConsole14getCharHandlerEv
 790              	_ZN8KConsole14getCharHandlerEv:
 791              	.LFB35:
 147:src/KConsole.cpp **** 
 148:src/KConsole.cpp **** void KConsole::getCharHandler()
 149:src/KConsole.cpp **** {
 792              		.loc 1 149 1 is_stmt 1
 793              		.cfi_startproc
 794 0470 130101FF 		addi	sp,sp,-16
 795              		.cfi_def_cfa_offset 16
 796 0474 23341100 		sd	ra,8(sp)
 797 0478 23308100 		sd	s0,0(sp)
 798              		.cfi_offset 1, -8
 799              		.cfi_offset 8, -16
 800 047c 13040101 		addi	s0,sp,16
 801              		.cfi_def_cfa 8, 0
 150:src/KConsole.cpp ****     char ch;
 802              		.loc 1 150 5
 151:src/KConsole.cpp ****     ch = getCharacterOutput();
 803              		.loc 1 151 5
 804              		.loc 1 151 28 is_stmt 0
 805 0480 97000000 		call	_ZN8KConsole18getCharacterOutputEv
 805      E7800000 
 806              	.LVL54:
 152:src/KConsole.cpp ****     __asm__ volatile("mv a0, %0" : :"r"((uint64)ch));
 807              		.loc 1 152 5 is_stmt 1
 808              		.loc 1 152 53 is_stmt 0
 809              	#APP
 810              	# 152 "src/KConsole.cpp" 1
 153              	    Riscv::w_a0_sscratch();
 811              		mv a0, a0
 812              	# 0 "" 2
 813              		.loc 1 153 5 is_stmt 1
 814              		.loc 1 153 25 is_stmt 0
 815              	#NO_APP
 816 048c 97000000 		call	_ZN5Riscv13w_a0_sscratchEv@plt
 816      E7800000 
 817              	.LVL55:
 154:src/KConsole.cpp **** }
 818              		.loc 1 154 1
GAS LISTING /tmp/ccBv2anA.s 			page 20


 819 0494 83308100 		ld	ra,8(sp)
 820              		.cfi_restore 1
 821 0498 03340100 		ld	s0,0(sp)
 822              		.cfi_restore 8
 823              		.cfi_def_cfa 2, 16
 824 049c 13010101 		addi	sp,sp,16
 825              		.cfi_def_cfa_offset 0
 826 04a0 67800000 		jr	ra
 827              		.cfi_endproc
 828              	.LFE35:
 830              		.globl	_ZN8KConsole11pendingPutcE
 831              		.globl	_ZN8KConsole12outputBufferE
 832              		.globl	_ZN8KConsole11inputBufferE
 833              		.globl	_ZN8KConsole11pendingGetcE
 834              		.globl	_ZN8KConsole18hasCharactersInputE
 835              		.globl	_ZN8KConsole19hasCharactersOutputE
 836              		.globl	_ZN8KConsole10outputTailE
 837              		.globl	_ZN8KConsole10outputHeadE
 838              		.globl	_ZN8KConsole9inputTailE
 839              		.globl	_ZN8KConsole9inputHeadE
 840              		.bss
 841              		.align	3
 842              		.set	.LANCHOR0,. + 0
 845              	_ZN8KConsole18hasCharactersInputE:
 846 0000 00000000 		.zero	8
 846      00000000 
 849              	_ZN8KConsole19hasCharactersOutputE:
 850 0008 00000000 		.zero	8
 850      00000000 
 853              	_ZN8KConsole9inputTailE:
 854 0010 00000000 		.zero	8
 854      00000000 
 857              	_ZN8KConsole9inputHeadE:
 858 0018 00000000 		.zero	8
 858      00000000 
 861              	_ZN8KConsole10outputTailE:
 862 0020 00000000 		.zero	8
 862      00000000 
 865              	_ZN8KConsole10outputHeadE:
 866 0028 00000000 		.zero	8
 866      00000000 
 869              	_ZN8KConsole11pendingPutcE:
 870 0030 00000000 		.zero	8
 870      00000000 
 873              	_ZN8KConsole11pendingGetcE:
 874 0038 00000000 		.zero	8
 874      00000000 
 877              	_ZN8KConsole12outputBufferE:
 878 0040 00000000 		.zero	8192
 878      00000000 
 878      00000000 
 878      00000000 
 878      00000000 
 881              	_ZN8KConsole11inputBufferE:
 882 2040 00000000 		.zero	8192
 882      00000000 
 882      00000000 
GAS LISTING /tmp/ccBv2anA.s 			page 21


 882      00000000 
 882      00000000 
 883              		.text
 884              	.Letext0:
 885              		.file 2 "src/../h/../lib/hw.h"
 886              		.file 3 "src/../h/PCB.hpp"
 887              		.file 4 "src/../h/Riscv.hpp"
 888              		.file 5 "src/../h/KSemaphore.hpp"
 889              		.file 6 "src/../h/KConsole.hpp"
 890              		.file 7 "src/../h/../test/../h/syscall_c.h"
 4595              		.align	3
 4598              	DW.ref.__gxx_personality_v0:
 4599 0000 00000000 		.dword	__gxx_personality_v0
 4599      00000000 
 4600              		.ident	"GCC: (Ubuntu 9.3.0-17ubuntu1~20.04) 9.3.0"
 4601              		.section	.note.GNU-stack,"",@progbits
GAS LISTING /tmp/ccBv2anA.s 			page 22


DEFINED SYMBOLS
                            *ABS*:0000000000000000 KConsole.cpp
     /tmp/ccBv2anA.s:9      .text:0000000000000000 _ZN8KConsole10initializeEv
     /tmp/ccBv2anA.s:13     .text:0000000000000000 .L0 
     /tmp/ccBv2anA.s:4598   .data.rel.local.DW.ref.__gxx_personality_v0:0000000000000000 DW.ref.__gxx_personality_v0
     /tmp/ccBv2anA.s:16     .text:0000000000000000 .L0 
     /tmp/ccBv2anA.s:17     .text:0000000000000004 .L0 
     /tmp/ccBv2anA.s:22     .text:0000000000000014 .L0 
     /tmp/ccBv2anA.s:23     .text:0000000000000014 .L0 
     /tmp/ccBv2anA.s:24     .text:0000000000000014 .L0 
     /tmp/ccBv2anA.s:25     .text:0000000000000014 .L0 
     /tmp/ccBv2anA.s:27     .text:0000000000000018 .L0 
     /tmp/ccBv2anA.s:29     .text:0000000000000018 .L0 
     /tmp/ccBv2anA.s:30     .text:0000000000000018 .L0 
     /tmp/ccBv2anA.s:42     .text:0000000000000034 .L0 
     /tmp/ccBv2anA.s:44     .text:000000000000003c .L0 
     /tmp/ccBv2anA.s:45     .text:000000000000003c .L0 
     /tmp/ccBv2anA.s:57     .text:0000000000000058 .L0 
     /tmp/ccBv2anA.s:59     .text:0000000000000060 .L0 
     /tmp/ccBv2anA.s:60     .text:0000000000000064 .L0 
     /tmp/ccBv2anA.s:61     .text:0000000000000064 .L0 
     /tmp/ccBv2anA.s:63     .text:0000000000000068 .L0 
     /tmp/ccBv2anA.s:64     .text:0000000000000068 .L0 
     /tmp/ccBv2anA.s:66     .text:000000000000006c .L0 
     /tmp/ccBv2anA.s:68     .text:0000000000000070 .L0 
     /tmp/ccBv2anA.s:70     .text:0000000000000074 .L0 
     /tmp/ccBv2anA.s:73     .text:0000000000000078 .L0 
     /tmp/ccBv2anA.s:76     .text:000000000000007c .L0 
     /tmp/ccBv2anA.s:87     .text:0000000000000098 .L0 
     /tmp/ccBv2anA.s:95     .text:00000000000000b0 .L0 
     /tmp/ccBv2anA.s:133    .text:00000000000000b0 _ZN8KConsole17putCharacterInputEc
     /tmp/ccBv2anA.s:136    .text:00000000000000b0 .L0 
     /tmp/ccBv2anA.s:138    .text:00000000000000b0 .L0 
     /tmp/ccBv2anA.s:139    .text:00000000000000b0 .L0 
     /tmp/ccBv2anA.s:140    .text:00000000000000b0 .L0 
     /tmp/ccBv2anA.s:144    .text:00000000000000c0 .L0 
     /tmp/ccBv2anA.s:148    .text:00000000000000cc .L0 
     /tmp/ccBv2anA.s:150    .text:00000000000000d0 .L0 
     /tmp/ccBv2anA.s:152    .text:00000000000000d4 .L0 
     /tmp/ccBv2anA.s:153    .text:00000000000000d8 .L0 
     /tmp/ccBv2anA.s:156    .text:00000000000000e0 .L0 
     /tmp/ccBv2anA.s:157    .text:00000000000000e0 .L0 
     /tmp/ccBv2anA.s:159    .text:00000000000000e4 .L0 
     /tmp/ccBv2anA.s:161    .text:00000000000000e4 .L0 
     /tmp/ccBv2anA.s:881    .bss:0000000000002040 _ZN8KConsole11inputBufferE
     /tmp/ccBv2anA.s:162    .text:00000000000000e4 .L0 
     /tmp/ccBv2anA.s:166    .text:00000000000000f4 .L0 
     /tmp/ccBv2anA.s:167    .text:00000000000000f4 .L0 
     /tmp/ccBv2anA.s:169    .text:00000000000000f8 .L0 
     /tmp/ccBv2anA.s:170    .text:00000000000000f8 .L0 
     /tmp/ccBv2anA.s:175    .text:0000000000000104 .L0 
     /tmp/ccBv2anA.s:176    .text:0000000000000108 .L0 
     /tmp/ccBv2anA.s:178    .text:000000000000010c .L0 
     /tmp/ccBv2anA.s:179    .text:000000000000010c .L0 
     /tmp/ccBv2anA.s:181    .text:0000000000000110 .L0 
     /tmp/ccBv2anA.s:186    .text:0000000000000118 .L0 
     /tmp/ccBv2anA.s:192    .text:0000000000000118 _ZN8KConsole17getCharacterInputEv
GAS LISTING /tmp/ccBv2anA.s 			page 23


     /tmp/ccBv2anA.s:195    .text:0000000000000118 .L0 
     /tmp/ccBv2anA.s:196    .text:0000000000000118 .L0 
     /tmp/ccBv2anA.s:197    .text:000000000000011c .L0 
     /tmp/ccBv2anA.s:201    .text:0000000000000128 .L0 
     /tmp/ccBv2anA.s:202    .text:0000000000000128 .L0 
     /tmp/ccBv2anA.s:203    .text:0000000000000128 .L0 
     /tmp/ccBv2anA.s:205    .text:000000000000012c .L0 
     /tmp/ccBv2anA.s:207    .text:000000000000012c .L0 
     /tmp/ccBv2anA.s:208    .text:000000000000012c .L0 
     /tmp/ccBv2anA.s:213    .text:0000000000000140 .L0 
     /tmp/ccBv2anA.s:214    .text:0000000000000140 .L0 
     /tmp/ccBv2anA.s:217    .text:0000000000000148 .L0 
     /tmp/ccBv2anA.s:219    .text:000000000000014c .L0 
     /tmp/ccBv2anA.s:220    .text:000000000000014c .L0 
     /tmp/ccBv2anA.s:225    .text:000000000000015c .L0 
     /tmp/ccBv2anA.s:226    .text:000000000000015c .L0 
     /tmp/ccBv2anA.s:228    .text:0000000000000160 .L0 
     /tmp/ccBv2anA.s:232    .text:000000000000016c .L0 
     /tmp/ccBv2anA.s:236    .text:0000000000000174 .L0 
     /tmp/ccBv2anA.s:237    .text:0000000000000174 .L0 
     /tmp/ccBv2anA.s:238    .text:0000000000000178 .L0 
     /tmp/ccBv2anA.s:239    .text:0000000000000178 .L0 
     /tmp/ccBv2anA.s:241    .text:000000000000017c .L0 
     /tmp/ccBv2anA.s:242    .text:000000000000017c .L0 
     /tmp/ccBv2anA.s:244    .text:0000000000000180 .L0 
     /tmp/ccBv2anA.s:246    .text:0000000000000184 .L0 
     /tmp/ccBv2anA.s:249    .text:0000000000000188 .L0 
     /tmp/ccBv2anA.s:251    .text:0000000000000188 .L0 
     /tmp/ccBv2anA.s:253    .text:0000000000000190 .L0 
     /tmp/ccBv2anA.s:259    .text:0000000000000190 _ZN8KConsole18putCharacterOutputEc
     /tmp/ccBv2anA.s:262    .text:0000000000000190 .L0 
     /tmp/ccBv2anA.s:264    .text:0000000000000190 .L0 
     /tmp/ccBv2anA.s:265    .text:0000000000000190 .L0 
     /tmp/ccBv2anA.s:266    .text:0000000000000190 .L0 
     /tmp/ccBv2anA.s:270    .text:00000000000001a0 .L0 
     /tmp/ccBv2anA.s:274    .text:00000000000001ac .L0 
     /tmp/ccBv2anA.s:276    .text:00000000000001b0 .L0 
     /tmp/ccBv2anA.s:278    .text:00000000000001b4 .L0 
     /tmp/ccBv2anA.s:279    .text:00000000000001b8 .L0 
     /tmp/ccBv2anA.s:282    .text:00000000000001c0 .L0 
     /tmp/ccBv2anA.s:283    .text:00000000000001c0 .L0 
     /tmp/ccBv2anA.s:285    .text:00000000000001c4 .L0 
     /tmp/ccBv2anA.s:287    .text:00000000000001c4 .L0 
     /tmp/ccBv2anA.s:288    .text:00000000000001c4 .L0 
     /tmp/ccBv2anA.s:293    .text:00000000000001d4 .L0 
     /tmp/ccBv2anA.s:877    .bss:0000000000000040 _ZN8KConsole12outputBufferE
     /tmp/ccBv2anA.s:294    .text:00000000000001d4 .L0 
     /tmp/ccBv2anA.s:298    .text:00000000000001e4 .L0 
     /tmp/ccBv2anA.s:299    .text:00000000000001e4 .L0 
     /tmp/ccBv2anA.s:301    .text:00000000000001e8 .L0 
     /tmp/ccBv2anA.s:302    .text:00000000000001e8 .L0 
     /tmp/ccBv2anA.s:307    .text:00000000000001f4 .L0 
     /tmp/ccBv2anA.s:308    .text:00000000000001f8 .L0 
     /tmp/ccBv2anA.s:310    .text:00000000000001fc .L0 
     /tmp/ccBv2anA.s:311    .text:00000000000001fc .L0 
     /tmp/ccBv2anA.s:313    .text:0000000000000200 .L0 
     /tmp/ccBv2anA.s:318    .text:0000000000000208 .L0 
GAS LISTING /tmp/ccBv2anA.s 			page 24


     /tmp/ccBv2anA.s:324    .text:0000000000000208 _ZN8KConsole24getCharactersFromConsoleEPv
     /tmp/ccBv2anA.s:327    .text:0000000000000208 .L0 
     /tmp/ccBv2anA.s:329    .text:0000000000000208 .L0 
     /tmp/ccBv2anA.s:331    .text:0000000000000208 .L0 
     /tmp/ccBv2anA.s:332    .text:0000000000000208 .L0 
     /tmp/ccBv2anA.s:333    .text:0000000000000208 .L0 
     /tmp/ccBv2anA.s:337    .text:0000000000000214 .L0 
    src/KConsole.cpp:35     .text:0000000000000214 .L0 
     /tmp/ccBv2anA.s:343    .text:0000000000000218 .L0 
    src/KConsole.cpp:36     .text:0000000000000218 .L0 
     /tmp/ccBv2anA.s:348    .text:000000000000021c .L0 
     /tmp/ccBv2anA.s:349    .text:000000000000021c .L0 
    src/KConsole.cpp:38     .text:000000000000021c .L0 
     /tmp/ccBv2anA.s:357    .text:0000000000000220 .L0 
     /tmp/ccBv2anA.s:358    .text:0000000000000220 .L0 
     /tmp/ccBv2anA.s:361    .text:0000000000000224 .L0 
     /tmp/ccBv2anA.s:365    .text:0000000000000228 .L0 
     /tmp/ccBv2anA.s:366    .text:000000000000022c .L0 
     /tmp/ccBv2anA.s:370    .text:0000000000000238 .L0 
     /tmp/ccBv2anA.s:371    .text:0000000000000238 .L0 
     /tmp/ccBv2anA.s:372    .text:0000000000000238 .L0 
     /tmp/ccBv2anA.s:374    .text:000000000000023c .L0 
     /tmp/ccBv2anA.s:381    .text:000000000000023c .L0 
     /tmp/ccBv2anA.s:382    .text:000000000000023c .L0 
     /tmp/ccBv2anA.s:386    .text:0000000000000248 .L0 
    src/KConsole.cpp:42     .text:0000000000000248 .L0 
     /tmp/ccBv2anA.s:392    .text:000000000000024c .L0 
    src/KConsole.cpp:43     .text:000000000000024c .L0 
     /tmp/ccBv2anA.s:397    .text:0000000000000250 .L0 
     /tmp/ccBv2anA.s:398    .text:0000000000000250 .L0 
    src/KConsole.cpp:45     .text:0000000000000250 .L0 
     /tmp/ccBv2anA.s:406    .text:0000000000000258 .L0 
     /tmp/ccBv2anA.s:407    .text:0000000000000258 .L0 
     /tmp/ccBv2anA.s:411    .text:0000000000000264 .L0 
     /tmp/ccBv2anA.s:412    .text:0000000000000264 .L0 
     /tmp/ccBv2anA.s:419    .text:0000000000000270 .L0 
     /tmp/ccBv2anA.s:421    .text:0000000000000270 .L0 
     /tmp/ccBv2anA.s:422    .text:0000000000000270 .L0 
     /tmp/ccBv2anA.s:423    .text:0000000000000270 .L0 
     /tmp/ccBv2anA.s:427    .text:000000000000027c .L0 
    src/KConsole.cpp:35     .text:000000000000027c .L0 
     /tmp/ccBv2anA.s:433    .text:0000000000000280 .L0 
    src/KConsole.cpp:36     .text:0000000000000280 .L0 
     /tmp/ccBv2anA.s:438    .text:0000000000000284 .L0 
     /tmp/ccBv2anA.s:439    .text:0000000000000284 .L0 
    src/KConsole.cpp:38     .text:0000000000000284 .L0 
     /tmp/ccBv2anA.s:447    .text:0000000000000288 .L0 
     /tmp/ccBv2anA.s:448    .text:0000000000000288 .L0 
     /tmp/ccBv2anA.s:451    .text:000000000000028c .L0 
     /tmp/ccBv2anA.s:455    .text:0000000000000290 .L0 
     /tmp/ccBv2anA.s:456    .text:0000000000000294 .L0 
     /tmp/ccBv2anA.s:458    .text:0000000000000298 .L0 
     /tmp/ccBv2anA.s:459    .text:0000000000000298 .L0 
     /tmp/ccBv2anA.s:461    .text:000000000000029c .L0 
     /tmp/ccBv2anA.s:464    .text:00000000000002a0 .L0 
     /tmp/ccBv2anA.s:469    .text:00000000000002a8 .L0 
     /tmp/ccBv2anA.s:475    .text:00000000000002a8 _ZN8KConsole18getCharacterOutputEv
GAS LISTING /tmp/ccBv2anA.s 			page 25


     /tmp/ccBv2anA.s:478    .text:00000000000002a8 .L0 
     /tmp/ccBv2anA.s:479    .text:00000000000002a8 .L0 
     /tmp/ccBv2anA.s:480    .text:00000000000002ac .L0 
     /tmp/ccBv2anA.s:484    .text:00000000000002b8 .L0 
     /tmp/ccBv2anA.s:485    .text:00000000000002b8 .L0 
     /tmp/ccBv2anA.s:486    .text:00000000000002b8 .L0 
     /tmp/ccBv2anA.s:488    .text:00000000000002bc .L0 
     /tmp/ccBv2anA.s:490    .text:00000000000002bc .L0 
     /tmp/ccBv2anA.s:491    .text:00000000000002bc .L0 
     /tmp/ccBv2anA.s:496    .text:00000000000002d0 .L0 
     /tmp/ccBv2anA.s:497    .text:00000000000002d0 .L0 
     /tmp/ccBv2anA.s:500    .text:00000000000002d8 .L0 
     /tmp/ccBv2anA.s:502    .text:00000000000002dc .L0 
     /tmp/ccBv2anA.s:503    .text:00000000000002dc .L0 
     /tmp/ccBv2anA.s:508    .text:00000000000002ec .L0 
     /tmp/ccBv2anA.s:509    .text:00000000000002ec .L0 
     /tmp/ccBv2anA.s:511    .text:00000000000002f0 .L0 
     /tmp/ccBv2anA.s:515    .text:00000000000002fc .L0 
     /tmp/ccBv2anA.s:519    .text:0000000000000304 .L0 
     /tmp/ccBv2anA.s:520    .text:0000000000000304 .L0 
     /tmp/ccBv2anA.s:521    .text:0000000000000308 .L0 
     /tmp/ccBv2anA.s:522    .text:0000000000000308 .L0 
     /tmp/ccBv2anA.s:524    .text:000000000000030c .L0 
     /tmp/ccBv2anA.s:525    .text:000000000000030c .L0 
     /tmp/ccBv2anA.s:527    .text:0000000000000310 .L0 
     /tmp/ccBv2anA.s:529    .text:0000000000000314 .L0 
     /tmp/ccBv2anA.s:532    .text:0000000000000318 .L0 
     /tmp/ccBv2anA.s:534    .text:0000000000000318 .L0 
     /tmp/ccBv2anA.s:536    .text:0000000000000320 .L0 
     /tmp/ccBv2anA.s:542    .text:0000000000000320 _ZN8KConsole11putcHandlerEv
     /tmp/ccBv2anA.s:545    .text:0000000000000320 .L0 
     /tmp/ccBv2anA.s:546    .text:0000000000000320 .L0 
     /tmp/ccBv2anA.s:547    .text:0000000000000324 .L0 
     /tmp/ccBv2anA.s:550    .text:000000000000032c .L0 
     /tmp/ccBv2anA.s:551    .text:000000000000032c .L0 
     /tmp/ccBv2anA.s:553    .text:0000000000000330 .L0 
     /tmp/ccBv2anA.s:555    .text:0000000000000330 .L0 
     /tmp/ccBv2anA.s:556    .text:0000000000000330 .L0 
    src/KConsole.cpp:130    .text:0000000000000330 .L0 
     /tmp/ccBv2anA.s:563    .text:0000000000000334 .L0 
     /tmp/ccBv2anA.s:565    .text:0000000000000334 .L0 
     /tmp/ccBv2anA.s:570    .text:0000000000000340 .L0 
     /tmp/ccBv2anA.s:571    .text:0000000000000344 .L0 
     /tmp/ccBv2anA.s:573    .text:0000000000000348 .L0 
     /tmp/ccBv2anA.s:574    .text:0000000000000348 .L0 
     /tmp/ccBv2anA.s:576    .text:000000000000034c .L0 
     /tmp/ccBv2anA.s:578    .text:0000000000000350 .L0 
     /tmp/ccBv2anA.s:584    .text:0000000000000350 _ZN8KConsole11getcHandlerEv
     /tmp/ccBv2anA.s:587    .text:0000000000000350 .L0 
     /tmp/ccBv2anA.s:588    .text:0000000000000350 .L0 
     /tmp/ccBv2anA.s:589    .text:0000000000000354 .L0 
     /tmp/ccBv2anA.s:592    .text:000000000000035c .L0 
     /tmp/ccBv2anA.s:593    .text:000000000000035c .L0 
     /tmp/ccBv2anA.s:595    .text:0000000000000360 .L0 
     /tmp/ccBv2anA.s:597    .text:0000000000000360 .L0 
     /tmp/ccBv2anA.s:598    .text:0000000000000360 .L0 
     /tmp/ccBv2anA.s:603    .text:0000000000000374 .L0 
GAS LISTING /tmp/ccBv2anA.s 			page 26


     /tmp/ccBv2anA.s:604    .text:0000000000000374 .L0 
     /tmp/ccBv2anA.s:605    .text:0000000000000374 .L0 
     /tmp/ccBv2anA.s:608    .text:000000000000037c .L0 
    src/KConsole.cpp:139    .text:000000000000037c .L0 
     /tmp/ccBv2anA.s:614    .text:0000000000000380 .L0 
     /tmp/ccBv2anA.s:616    .text:0000000000000380 .L0 
     /tmp/ccBv2anA.s:619    .text:0000000000000388 .L0 
     /tmp/ccBv2anA.s:620    .text:000000000000038c .L0 
     /tmp/ccBv2anA.s:622    .text:0000000000000390 .L0 
     /tmp/ccBv2anA.s:623    .text:0000000000000390 .L0 
     /tmp/ccBv2anA.s:625    .text:0000000000000394 .L0 
     /tmp/ccBv2anA.s:627    .text:0000000000000398 .L0 
     /tmp/ccBv2anA.s:633    .text:0000000000000398 _ZN8KConsole17outputBufferEmptyEv
     /tmp/ccBv2anA.s:636    .text:0000000000000398 .L0 
     /tmp/ccBv2anA.s:637    .text:0000000000000398 .L0 
     /tmp/ccBv2anA.s:638    .text:000000000000039c .L0 
     /tmp/ccBv2anA.s:640    .text:00000000000003a0 .L0 
     /tmp/ccBv2anA.s:642    .text:00000000000003a4 .L0 
     /tmp/ccBv2anA.s:644    .text:00000000000003a4 .L0 
     /tmp/ccBv2anA.s:645    .text:00000000000003a4 .L0 
     /tmp/ccBv2anA.s:648    .text:00000000000003b4 .L0 
     /tmp/ccBv2anA.s:649    .text:00000000000003b4 .L0 
     /tmp/ccBv2anA.s:651    .text:00000000000003b8 .L0 
     /tmp/ccBv2anA.s:653    .text:00000000000003bc .L0 
     /tmp/ccBv2anA.s:659    .text:00000000000003bc _ZN8KConsole23sendCharactersToConsoleEPv
     /tmp/ccBv2anA.s:662    .text:00000000000003bc .L0 
     /tmp/ccBv2anA.s:664    .text:00000000000003bc .L0 
     /tmp/ccBv2anA.s:665    .text:00000000000003c0 .L0 
     /tmp/ccBv2anA.s:668    .text:00000000000003c8 .L0 
     /tmp/ccBv2anA.s:669    .text:00000000000003c8 .L0 
     /tmp/ccBv2anA.s:671    .text:00000000000003cc .L0 
     /tmp/ccBv2anA.s:677    .text:00000000000003d0 .L0 
     /tmp/ccBv2anA.s:678    .text:00000000000003d0 .L0 
     /tmp/ccBv2anA.s:682    .text:00000000000003dc .L0 
    src/KConsole.cpp:63     .text:00000000000003dc .L0 
     /tmp/ccBv2anA.s:688    .text:00000000000003e0 .L0 
    src/KConsole.cpp:64     .text:00000000000003e0 .L0 
     /tmp/ccBv2anA.s:693    .text:00000000000003e4 .L0 
     /tmp/ccBv2anA.s:694    .text:00000000000003e4 .L0 
    src/KConsole.cpp:66     .text:00000000000003e4 .L0 
     /tmp/ccBv2anA.s:702    .text:00000000000003e8 .L0 
     /tmp/ccBv2anA.s:703    .text:00000000000003e8 .L0 
     /tmp/ccBv2anA.s:706    .text:00000000000003ec .L0 
     /tmp/ccBv2anA.s:709    .text:00000000000003f0 .L0 
     /tmp/ccBv2anA.s:710    .text:00000000000003f0 .L0 
     /tmp/ccBv2anA.s:713    .text:00000000000003f8 .L0 
     /tmp/ccBv2anA.s:715    .text:00000000000003fc .L0 
     /tmp/ccBv2anA.s:716    .text:00000000000003fc .L0 
     /tmp/ccBv2anA.s:721    .text:0000000000000410 .L0 
     /tmp/ccBv2anA.s:722    .text:0000000000000410 .L0 
     /tmp/ccBv2anA.s:726    .text:000000000000041c .L0 
    src/KConsole.cpp:72     .text:000000000000041c .L0 
     /tmp/ccBv2anA.s:732    .text:0000000000000420 .L0 
     /tmp/ccBv2anA.s:734    .text:0000000000000420 .L0 
    src/KConsole.cpp:73     .text:0000000000000428 .L0 
     /tmp/ccBv2anA.s:743    .text:000000000000042c .L0 
    src/KConsole.cpp:74     .text:000000000000042c .L0 
GAS LISTING /tmp/ccBv2anA.s 			page 27


     /tmp/ccBv2anA.s:755    .text:0000000000000430 .L0 
     /tmp/ccBv2anA.s:756    .text:0000000000000430 .L0 
     /tmp/ccBv2anA.s:757    .text:0000000000000430 .L0 
     /tmp/ccBv2anA.s:761    .text:0000000000000440 .L0 
     /tmp/ccBv2anA.s:764    .text:0000000000000448 .L0 
     /tmp/ccBv2anA.s:766    .text:000000000000044c .L0 
     /tmp/ccBv2anA.s:768    .text:0000000000000454 .L0 
     /tmp/ccBv2anA.s:770    .text:0000000000000458 .L0 
     /tmp/ccBv2anA.s:771    .text:0000000000000458 .L0 
     /tmp/ccBv2anA.s:778    .text:0000000000000464 .L0 
     /tmp/ccBv2anA.s:779    .text:0000000000000464 .L0 
     /tmp/ccBv2anA.s:784    .text:0000000000000470 .L0 
     /tmp/ccBv2anA.s:790    .text:0000000000000470 _ZN8KConsole14getCharHandlerEv
     /tmp/ccBv2anA.s:793    .text:0000000000000470 .L0 
     /tmp/ccBv2anA.s:794    .text:0000000000000470 .L0 
     /tmp/ccBv2anA.s:795    .text:0000000000000474 .L0 
     /tmp/ccBv2anA.s:798    .text:000000000000047c .L0 
     /tmp/ccBv2anA.s:799    .text:000000000000047c .L0 
     /tmp/ccBv2anA.s:801    .text:0000000000000480 .L0 
     /tmp/ccBv2anA.s:803    .text:0000000000000480 .L0 
     /tmp/ccBv2anA.s:804    .text:0000000000000480 .L0 
     /tmp/ccBv2anA.s:805    .text:0000000000000480 .L0 
     /tmp/ccBv2anA.s:808    .text:0000000000000488 .L0 
    src/KConsole.cpp:152    .text:0000000000000488 .L0 
     /tmp/ccBv2anA.s:814    .text:000000000000048c .L0 
     /tmp/ccBv2anA.s:816    .text:000000000000048c .L0 
     /tmp/ccBv2anA.s:819    .text:0000000000000494 .L0 
     /tmp/ccBv2anA.s:820    .text:0000000000000498 .L0 
     /tmp/ccBv2anA.s:822    .text:000000000000049c .L0 
     /tmp/ccBv2anA.s:823    .text:000000000000049c .L0 
     /tmp/ccBv2anA.s:825    .text:00000000000004a0 .L0 
     /tmp/ccBv2anA.s:827    .text:00000000000004a4 .L0 
     /tmp/ccBv2anA.s:869    .bss:0000000000000030 _ZN8KConsole11pendingPutcE
     /tmp/ccBv2anA.s:873    .bss:0000000000000038 _ZN8KConsole11pendingGetcE
     /tmp/ccBv2anA.s:845    .bss:0000000000000000 _ZN8KConsole18hasCharactersInputE
     /tmp/ccBv2anA.s:849    .bss:0000000000000008 _ZN8KConsole19hasCharactersOutputE
     /tmp/ccBv2anA.s:861    .bss:0000000000000020 _ZN8KConsole10outputTailE
     /tmp/ccBv2anA.s:865    .bss:0000000000000028 _ZN8KConsole10outputHeadE
     /tmp/ccBv2anA.s:853    .bss:0000000000000010 _ZN8KConsole9inputTailE
     /tmp/ccBv2anA.s:857    .bss:0000000000000018 _ZN8KConsole9inputHeadE
     /tmp/ccBv2anA.s:842    .bss:0000000000000000 .LANCHOR0
     /tmp/ccBv2anA.s:891    .text:00000000000004a4 .L0 
     /tmp/ccBv2anA.s:42     .text:0000000000000034 .L0 
     /tmp/ccBv2anA.s:57     .text:0000000000000058 .L0 
     /tmp/ccBv2anA.s:140    .text:00000000000000b0 .L0 
     /tmp/ccBv2anA.s:162    .text:00000000000000e4 .L0 
     /tmp/ccBv2anA.s:208    .text:000000000000012c .L0 
     /tmp/ccBv2anA.s:220    .text:000000000000014c .L0 
     /tmp/ccBv2anA.s:232    .text:000000000000016c .L0 
     /tmp/ccBv2anA.s:266    .text:0000000000000190 .L0 
     /tmp/ccBv2anA.s:294    .text:00000000000001d4 .L0 
     /tmp/ccBv2anA.s:333    .text:0000000000000208 .L0 
     /tmp/ccBv2anA.s:382    .text:000000000000023c .L0 
     /tmp/ccBv2anA.s:423    .text:0000000000000270 .L0 
     /tmp/ccBv2anA.s:491    .text:00000000000002bc .L0 
     /tmp/ccBv2anA.s:503    .text:00000000000002dc .L0 
     /tmp/ccBv2anA.s:515    .text:00000000000002fc .L0 
GAS LISTING /tmp/ccBv2anA.s 			page 28


     /tmp/ccBv2anA.s:598    .text:0000000000000360 .L0 
     /tmp/ccBv2anA.s:645    .text:00000000000003a4 .L0 
     /tmp/ccBv2anA.s:678    .text:00000000000003d0 .L0 
     /tmp/ccBv2anA.s:716    .text:00000000000003fc .L0 
     /tmp/ccBv2anA.s:722    .text:0000000000000410 .L0 
     /tmp/ccBv2anA.s:757    .text:0000000000000430 .L0 
     /tmp/ccBv2anA.s:766    .text:000000000000044c .L0 
     /tmp/ccBv2anA.s:184    .text:0000000000000114 .L11
     /tmp/ccBv2anA.s:248    .text:0000000000000188 .L16
     /tmp/ccBv2anA.s:235    .text:0000000000000174 .L15
     /tmp/ccBv2anA.s:316    .text:0000000000000204 .L21
     /tmp/ccBv2anA.s:467    .text:00000000000002a4 .L32
     /tmp/ccBv2anA.s:376    .text:000000000000023c .L28
     /tmp/ccBv2anA.s:531    .text:0000000000000318 .L35
     /tmp/ccBv2anA.s:518    .text:0000000000000304 .L34
     /tmp/ccBv2anA.s:749    .text:0000000000000430 .L44
     /tmp/ccBv2anA.s:775    .text:0000000000000464 .L46
     /tmp/ccBv2anA.s:674    .text:00000000000003d0 .L45
     /tmp/ccBv2anA.s:31     .text:000000000000001c .LEHB0
     /tmp/ccBv2anA.s:10     .text:0000000000000000 .LFB25
     /tmp/ccBv2anA.s:34     .text:0000000000000024 .LEHE0
     /tmp/ccBv2anA.s:37     .text:000000000000002c .LEHB1
     /tmp/ccBv2anA.s:40     .text:0000000000000034 .LEHE1
     /tmp/ccBv2anA.s:72     .text:0000000000000078 .L4
     /tmp/ccBv2anA.s:46     .text:0000000000000040 .LEHB2
     /tmp/ccBv2anA.s:49     .text:0000000000000048 .LEHE2
     /tmp/ccBv2anA.s:52     .text:0000000000000050 .LEHB3
     /tmp/ccBv2anA.s:55     .text:0000000000000058 .LEHE3
     /tmp/ccBv2anA.s:84     .text:0000000000000094 .L5
     /tmp/ccBv2anA.s:80     .text:000000000000008c .LEHB4
     /tmp/ccBv2anA.s:83     .text:0000000000000094 .LEHE4
     /tmp/ccBv2anA.s:91     .text:00000000000000a8 .LEHB5
     /tmp/ccBv2anA.s:94     .text:00000000000000b0 .LEHE5
     /tmp/ccBv2anA.s:2893   .debug_abbrev:0000000000000000 .Ldebug_abbrev0
     /tmp/ccBv2anA.s:4108   .debug_str:00000000000001f7 .LASF261
     /tmp/ccBv2anA.s:4498   .debug_str:0000000000000fee .LASF262
     /tmp/ccBv2anA.s:4496   .debug_str:0000000000000fcb .LASF263
     /tmp/ccBv2anA.s:5      .text:0000000000000000 .Ltext0
     /tmp/ccBv2anA.s:884    .text:00000000000004a4 .Letext0
     /tmp/ccBv2anA.s:4048   .debug_line:0000000000000000 .Ldebug_line0
     /tmp/ccBv2anA.s:4226   .debug_str:00000000000006bb .LASF0
     /tmp/ccBv2anA.s:4266   .debug_str:0000000000000843 .LASF1
     /tmp/ccBv2anA.s:4396   .debug_str:0000000000000c97 .LASF2
     /tmp/ccBv2anA.s:4414   .debug_str:0000000000000d32 .LASF4
     /tmp/ccBv2anA.s:4246   .debug_str:0000000000000761 .LASF3
     /tmp/ccBv2anA.s:4066   .debug_str:000000000000006f .LASF5
     /tmp/ccBv2anA.s:4362   .debug_str:0000000000000b97 .LASF6
     /tmp/ccBv2anA.s:4354   .debug_str:0000000000000b51 .LASF7
     /tmp/ccBv2anA.s:4252   .debug_str:00000000000007a2 .LASF8
     /tmp/ccBv2anA.s:4192   .debug_str:000000000000058e .LASF9
     /tmp/ccBv2anA.s:4200   .debug_str:00000000000005e5 .LASF10
     /tmp/ccBv2anA.s:4126   .debug_str:000000000000034e .LASF11
     /tmp/ccBv2anA.s:4186   .debug_str:0000000000000562 .LASF12
     /tmp/ccBv2anA.s:4136   .debug_str:0000000000000383 .LASF13
     /tmp/ccBv2anA.s:4124   .debug_str:000000000000033e .LASF14
     /tmp/ccBv2anA.s:4464   .debug_str:0000000000000ef7 .LASF15
     /tmp/ccBv2anA.s:4172   .debug_str:00000000000004bd .LASF16
GAS LISTING /tmp/ccBv2anA.s 			page 29


     /tmp/ccBv2anA.s:4450   .debug_str:0000000000000e4a .LASF17
     /tmp/ccBv2anA.s:4482   .debug_str:0000000000000f76 .LASF264
     /tmp/ccBv2anA.s:4118   .debug_str:0000000000000311 .LASF18
     /tmp/ccBv2anA.s:4436   .debug_str:0000000000000de6 .LASF19
     /tmp/ccBv2anA.s:4132   .debug_str:000000000000036f .LASF20
     /tmp/ccBv2anA.s:4104   .debug_str:00000000000001cb .LASF21
     /tmp/ccBv2anA.s:4358   .debug_str:0000000000000b7a .LASF22
     /tmp/ccBv2anA.s:4130   .debug_str:0000000000000366 .LASF23
     /tmp/ccBv2anA.s:4470   .debug_str:0000000000000f1d .LASF86
     /tmp/ccBv2anA.s:4212   .debug_str:000000000000066e .LASF24
     /tmp/ccBv2anA.s:4070   .debug_str:0000000000000081 .LASF29
     /tmp/ccBv2anA.s:4504   .debug_str:0000000000001016 .LASF265
     /tmp/ccBv2anA.s:4342   .debug_str:0000000000000b01 .LASF266
     /tmp/ccBv2anA.s:4264   .debug_str:000000000000083e .LASF25
     /tmp/ccBv2anA.s:4574   .debug_str:000000000000125a .LASF27
     /tmp/ccBv2anA.s:4568   .debug_str:0000000000001231 .LASF26
     /tmp/ccBv2anA.s:4490   .debug_str:0000000000000f9d .LASF28
     /tmp/ccBv2anA.s:4156   .debug_str:0000000000000459 .LASF54
     /tmp/ccBv2anA.s:4080   .debug_str:00000000000000cd .LASF56
     /tmp/ccBv2anA.s:4272   .debug_str:000000000000086a .LASF34
     /tmp/ccBv2anA.s:4346   .debug_str:0000000000000b10 .LASF36
     /tmp/ccBv2anA.s:4488   .debug_str:0000000000000f95 .LASF30
     /tmp/ccBv2anA.s:4428   .debug_str:0000000000000d92 .LASF31
     /tmp/ccBv2anA.s:4274   .debug_str:0000000000000870 .LASF38
     /tmp/ccBv2anA.s:4282   .debug_str:00000000000008c3 .LASF40
     /tmp/ccBv2anA.s:4582   .debug_str:00000000000012b7 .LASF32
     /tmp/ccBv2anA.s:4180   .debug_str:0000000000000530 .LASF33
     /tmp/ccBv2anA.s:4058   .debug_str:000000000000003a .LASF35
     /tmp/ccBv2anA.s:4240   .debug_str:0000000000000735 .LASF37
     /tmp/ccBv2anA.s:4430   .debug_str:0000000000000da3 .LASF39
     /tmp/ccBv2anA.s:4316   .debug_str:0000000000000a20 .LASF41
     /tmp/ccBv2anA.s:4408   .debug_str:0000000000000cf8 .LASF42
     /tmp/ccBv2anA.s:4458   .debug_str:0000000000000eb2 .LASF43
     /tmp/ccBv2anA.s:4318   .debug_str:0000000000000a33 .LASF44
     /tmp/ccBv2anA.s:4054   .debug_str:000000000000001b .LASF45
     /tmp/ccBv2anA.s:4554   .debug_str:00000000000011b3 .LASF46
     /tmp/ccBv2anA.s:4352   .debug_str:0000000000000b37 .LASF47
     /tmp/ccBv2anA.s:4448   .debug_str:0000000000000e3c .LASF48
     /tmp/ccBv2anA.s:4368   .debug_str:0000000000000bb4 .LASF49
     /tmp/ccBv2anA.s:4152   .debug_str:0000000000000437 .LASF50
     /tmp/ccBv2anA.s:4188   .debug_str:0000000000000571 .LASF51
     /tmp/ccBv2anA.s:4388   .debug_str:0000000000000c5e .LASF52
     /tmp/ccBv2anA.s:4560   .debug_str:00000000000011e7 .LASF53
     /tmp/ccBv2anA.s:4248   .debug_str:0000000000000773 .LASF60
     /tmp/ccBv2anA.s:4442   .debug_str:0000000000000e18 .LASF55
     /tmp/ccBv2anA.s:4572   .debug_str:0000000000001244 .LASF57
     /tmp/ccBv2anA.s:4472   .debug_str:0000000000000f25 .LASF58
     /tmp/ccBv2anA.s:4148   .debug_str:000000000000041b .LASF59
     /tmp/ccBv2anA.s:4424   .debug_str:0000000000000d7c .LASF61
     /tmp/ccBv2anA.s:4228   .debug_str:00000000000006c8 .LASF62
     /tmp/ccBv2anA.s:4328   .debug_str:0000000000000a69 .LASF63
     /tmp/ccBv2anA.s:4142   .debug_str:00000000000003d2 .LASF64
     /tmp/ccBv2anA.s:4374   .debug_str:0000000000000bea .LASF65
     /tmp/ccBv2anA.s:4590   .debug_str:00000000000012f0 .LASF66
     /tmp/ccBv2anA.s:4332   .debug_str:0000000000000a8f .LASF67
     /tmp/ccBv2anA.s:4406   .debug_str:0000000000000ce5 .LASF68
     /tmp/ccBv2anA.s:4432   .debug_str:0000000000000dac .LASF69
GAS LISTING /tmp/ccBv2anA.s 			page 30


     /tmp/ccBv2anA.s:4520   .debug_str:0000000000001090 .LASF70
     /tmp/ccBv2anA.s:4304   .debug_str:00000000000009a9 .LASF71
     /tmp/ccBv2anA.s:4506   .debug_str:000000000000102e .LASF72
     /tmp/ccBv2anA.s:4456   .debug_str:0000000000000e92 .LASF73
     /tmp/ccBv2anA.s:4162   .debug_str:000000000000046d .LASF74
     /tmp/ccBv2anA.s:4232   .debug_str:00000000000006fe .LASF75
     /tmp/ccBv2anA.s:4494   .debug_str:0000000000000fc1 .LASF76
     /tmp/ccBv2anA.s:4348   .debug_str:0000000000000b20 .LASF77
     /tmp/ccBv2anA.s:4566   .debug_str:0000000000001223 .LASF78
     /tmp/ccBv2anA.s:4088   .debug_str:0000000000000123 .LASF80
     /tmp/ccBv2anA.s:4182   .debug_str:000000000000053c .LASF79
     /tmp/ccBv2anA.s:4116   .debug_str:00000000000002e5 .LASF81
     /tmp/ccBv2anA.s:4552   .debug_str:00000000000011ac .LASF267
     /tmp/ccBv2anA.s:4112   .debug_str:00000000000002c6 .LASF268
     /tmp/ccBv2anA.s:4056   .debug_str:0000000000000035 .LASF82
     /tmp/ccBv2anA.s:4516   .debug_str:000000000000107f .LASF83
     /tmp/ccBv2anA.s:4288   .debug_str:0000000000000908 .LASF84
     /tmp/ccBv2anA.s:4160   .debug_str:0000000000000467 .LASF85
     /tmp/ccBv2anA.s:4502   .debug_str:000000000000100e .LASF87
     /tmp/ccBv2anA.s:4536   .debug_str:0000000000001118 .LASF88
     /tmp/ccBv2anA.s:4220   .debug_str:0000000000000692 .LASF89
     /tmp/ccBv2anA.s:4454   .debug_str:0000000000000e7a .LASF90
     /tmp/ccBv2anA.s:4558   .debug_str:00000000000011d8 .LASF91
     /tmp/ccBv2anA.s:4434   .debug_str:0000000000000dca .LASF92
     /tmp/ccBv2anA.s:4350   .debug_str:0000000000000b2c .LASF93
     /tmp/ccBv2anA.s:4300   .debug_str:0000000000000981 .LASF94
     /tmp/ccBv2anA.s:4168   .debug_str:00000000000004a0 .LASF95
     /tmp/ccBv2anA.s:4356   .debug_str:0000000000000b64 .LASF96
     /tmp/ccBv2anA.s:4302   .debug_str:0000000000000999 .LASF97
     /tmp/ccBv2anA.s:4530   .debug_str:00000000000010de .LASF98
     /tmp/ccBv2anA.s:4524   .debug_str:00000000000010ae .LASF99
     /tmp/ccBv2anA.s:4280   .debug_str:00000000000008a5 .LASF100
     /tmp/ccBv2anA.s:4164   .debug_str:0000000000000476 .LASF101
     /tmp/ccBv2anA.s:4564   .debug_str:00000000000011ff .LASF102
     /tmp/ccBv2anA.s:4238   .debug_str:0000000000000723 .LASF103
     /tmp/ccBv2anA.s:4144   .debug_str:00000000000003e4 .LASF104
     /tmp/ccBv2anA.s:4098   .debug_str:000000000000019f .LASF105
     /tmp/ccBv2anA.s:4194   .debug_str:000000000000059e .LASF106
     /tmp/ccBv2anA.s:4426   .debug_str:0000000000000d84 .LASF107
     /tmp/ccBv2anA.s:4138   .debug_str:0000000000000393 .LASF108
     /tmp/ccBv2anA.s:4320   .debug_str:0000000000000a42 .LASF109
     /tmp/ccBv2anA.s:4544   .debug_str:000000000000114f .LASF110
     /tmp/ccBv2anA.s:4514   .debug_str:0000000000001076 .LASF113
     /tmp/ccBv2anA.s:4064   .debug_str:000000000000005a .LASF115
     /tmp/ccBv2anA.s:4390   .debug_str:0000000000000c6b .LASF111
     /tmp/ccBv2anA.s:4338   .debug_str:0000000000000adc .LASF112
     /tmp/ccBv2anA.s:4370   .debug_str:0000000000000bc0 .LASF114
     /tmp/ccBv2anA.s:4376   .debug_str:0000000000000c07 .LASF116
     /tmp/ccBv2anA.s:4330   .debug_str:0000000000000a88 .LASF117
     /tmp/ccBv2anA.s:4256   .debug_str:00000000000007d1 .LASF118
     /tmp/ccBv2anA.s:4546   .debug_str:0000000000001169 .LASF119
     /tmp/ccBv2anA.s:4492   .debug_str:0000000000000fad .LASF120
     /tmp/ccBv2anA.s:4324   .debug_str:0000000000000a58 .LASF121
     /tmp/ccBv2anA.s:4336   .debug_str:0000000000000ac8 .LASF122
     /tmp/ccBv2anA.s:4312   .debug_str:0000000000000a06 .LASF123
     /tmp/ccBv2anA.s:4378   .debug_str:0000000000000c1a .LASF124
     /tmp/ccBv2anA.s:4588   .debug_str:00000000000012e8 .LASF125
GAS LISTING /tmp/ccBv2anA.s 			page 31


     /tmp/ccBv2anA.s:4236   .debug_str:000000000000070f .LASF126
     /tmp/ccBv2anA.s:4216   .debug_str:000000000000067f .LASF127
     /tmp/ccBv2anA.s:4460   .debug_str:0000000000000ece .LASF128
     /tmp/ccBv2anA.s:4420   .debug_str:0000000000000d62 .LASF129
     /tmp/ccBv2anA.s:4422   .debug_str:0000000000000d75 .LASF130
     /tmp/ccBv2anA.s:4166   .debug_str:000000000000048d .LASF131
     /tmp/ccBv2anA.s:4418   .debug_str:0000000000000d5c .LASF132
     /tmp/ccBv2anA.s:4074   .debug_str:0000000000000099 .LASF133
     /tmp/ccBv2anA.s:4234   .debug_str:0000000000000709 .LASF134
     /tmp/ccBv2anA.s:4154   .debug_str:0000000000000447 .LASF135
     /tmp/ccBv2anA.s:4114   .debug_str:00000000000002d7 .LASF136
     /tmp/ccBv2anA.s:4476   .debug_str:0000000000000f35 .LASF137
     /tmp/ccBv2anA.s:4068   .debug_str:0000000000000076 .LASF138
     /tmp/ccBv2anA.s:4402   .debug_str:0000000000000cc1 .LASF139
     /tmp/ccBv2anA.s:4394   .debug_str:0000000000000c8c .LASF140
     /tmp/ccBv2anA.s:4578   .debug_str:000000000000128f .LASF141
     /tmp/ccBv2anA.s:4400   .debug_str:0000000000000cba .LASF142
     /tmp/ccBv2anA.s:4122   .debug_str:000000000000032b .LASF143
     /tmp/ccBv2anA.s:4446   .debug_str:0000000000000e35 .LASF144
     /tmp/ccBv2anA.s:4284   .debug_str:00000000000008db .LASF145
     /tmp/ccBv2anA.s:4538   .debug_str:000000000000111e .LASF146
     /tmp/ccBv2anA.s:4556   .debug_str:00000000000011c2 .LASF147
     /tmp/ccBv2anA.s:4532   .debug_str:00000000000010fc .LASF148
     /tmp/ccBv2anA.s:4076   .debug_str:00000000000000ab .LASF149
     /tmp/ccBv2anA.s:4150   .debug_str:0000000000000431 .LASF150
     /tmp/ccBv2anA.s:4210   .debug_str:000000000000065c .LASF151
     /tmp/ccBv2anA.s:4218   .debug_str:000000000000068c .LASF152
     /tmp/ccBv2anA.s:4534   .debug_str:0000000000001106 .LASF153
     /tmp/ccBv2anA.s:4214   .debug_str:0000000000000674 .LASF154
     /tmp/ccBv2anA.s:4222   .debug_str:000000000000069d .LASF155
     /tmp/ccBv2anA.s:4508   .debug_str:0000000000001043 .LASF156
     /tmp/ccBv2anA.s:4198   .debug_str:00000000000005c9 .LASF157
     /tmp/ccBv2anA.s:4360   .debug_str:0000000000000b82 .LASF158
     /tmp/ccBv2anA.s:4250   .debug_str:0000000000000780 .LASF159
     /tmp/ccBv2anA.s:4094   .debug_str:000000000000017d .LASF160
     /tmp/ccBv2anA.s:4296   .debug_str:0000000000000950 .LASF161
     /tmp/ccBv2anA.s:4384   .debug_str:0000000000000c4d .LASF162
     /tmp/ccBv2anA.s:4062   .debug_str:0000000000000052 .LASF163
     /tmp/ccBv2anA.s:4100   .debug_str:00000000000001a9 .LASF164
     /tmp/ccBv2anA.s:4276   .debug_str:000000000000087d .LASF165
     /tmp/ccBv2anA.s:4102   .debug_str:00000000000001b8 .LASF166
     /tmp/ccBv2anA.s:4314   .debug_str:0000000000000a0e .LASF167
     /tmp/ccBv2anA.s:4202   .debug_str:00000000000005f3 .LASF168
     /tmp/ccBv2anA.s:4244   .debug_str:000000000000074e .LASF169
     /tmp/ccBv2anA.s:4120   .debug_str:0000000000000317 .LASF170
     /tmp/ccBv2anA.s:4486   .debug_str:0000000000000f8b .LASF171
     /tmp/ccBv2anA.s:4294   .debug_str:000000000000094b .LASF172
     /tmp/ccBv2anA.s:4382   .debug_str:0000000000000c42 .LASF173
     /tmp/ccBv2anA.s:4196   .debug_str:00000000000005b5 .LASF174
     /tmp/ccBv2anA.s:4086   .debug_str:0000000000000117 .LASF175
     /tmp/ccBv2anA.s:4380   .debug_str:0000000000000c2e .LASF176
     /tmp/ccBv2anA.s:4158   .debug_str:0000000000000462 .LASF177
     /tmp/ccBv2anA.s:4440   .debug_str:0000000000000e01 .LASF178
     /tmp/ccBv2anA.s:4468   .debug_str:0000000000000f16 .LASF179
     /tmp/ccBv2anA.s:4176   .debug_str:00000000000004f5 .LASF180
     /tmp/ccBv2anA.s:4052   .debug_str:000000000000000f .LASF181
     /tmp/ccBv2anA.s:4404   .debug_str:0000000000000cd9 .LASF182
GAS LISTING /tmp/ccBv2anA.s 			page 32


     /tmp/ccBv2anA.s:4298   .debug_str:000000000000096d .LASF183
     /tmp/ccBv2anA.s:4398   .debug_str:0000000000000ca5 .LASF184
     /tmp/ccBv2anA.s:4128   .debug_str:000000000000035d .LASF185
     /tmp/ccBv2anA.s:4134   .debug_str:0000000000000379 .LASF186
     /tmp/ccBv2anA.s:4322   .debug_str:0000000000000a4f .LASF187
     /tmp/ccBv2anA.s:4412   .debug_str:0000000000000d27 .LASF188
     /tmp/ccBv2anA.s:4050   .debug_str:0000000000000000 .LASF189
     /tmp/ccBv2anA.s:4208   .debug_str:000000000000063a .LASF190
     /tmp/ccBv2anA.s:4500   .debug_str:0000000000000fff .LASF191
     /tmp/ccBv2anA.s:4462   .debug_str:0000000000000ed5 .LASF192
     /tmp/ccBv2anA.s:4290   .debug_str:0000000000000910 .LASF193
     /tmp/ccBv2anA.s:4140   .debug_str:00000000000003ae .LASF194
     /tmp/ccBv2anA.s:4340   .debug_str:0000000000000af1 .LASF195
     /tmp/ccBv2anA.s:4372   .debug_str:0000000000000bc7 .LASF196
     /tmp/ccBv2anA.s:4270   .debug_str:0000000000000861 .LASF197
     /tmp/ccBv2anA.s:4224   .debug_str:00000000000006b5 .LASF198
     /tmp/ccBv2anA.s:4586   .debug_str:00000000000012d0 .LASF199
     /tmp/ccBv2anA.s:4060   .debug_str:000000000000004a .LASF200
     /tmp/ccBv2anA.s:4286   .debug_str:00000000000008ee .LASF201
     /tmp/ccBv2anA.s:4580   .debug_str:00000000000012a7 .LASF202
     /tmp/ccBv2anA.s:4416   .debug_str:0000000000000d39 .LASF203
     /tmp/ccBv2anA.s:4466   .debug_str:0000000000000f03 .LASF204
     /tmp/ccBv2anA.s:4410   .debug_str:0000000000000d01 .LASF205
     /tmp/ccBv2anA.s:4570   .debug_str:0000000000001237 .LASF206
     /tmp/ccBv2anA.s:4262   .debug_str:000000000000081a .LASF207
     /tmp/ccBv2anA.s:4326   .debug_str:0000000000000a60 .LASF208
     /tmp/ccBv2anA.s:4438   .debug_str:0000000000000dee .LASF209
     /tmp/ccBv2anA.s:4308   .debug_str:00000000000009e6 .LASF210
     /tmp/ccBv2anA.s:4344   .debug_str:0000000000000b06 .LASF211
     /tmp/ccBv2anA.s:4268   .debug_str:0000000000000856 .LASF212
     /tmp/ccBv2anA.s:4366   .debug_str:0000000000000baa .LASF213
     /tmp/ccBv2anA.s:4522   .debug_str:00000000000010a3 .LASF214
     /tmp/ccBv2anA.s:4478   .debug_str:0000000000000f50 .LASF215
     /tmp/ccBv2anA.s:4518   .debug_str:0000000000001084 .LASF216
     /tmp/ccBv2anA.s:4072   .debug_str:000000000000008c .LASF217
     /tmp/ccBv2anA.s:4310   .debug_str:00000000000009fa .LASF218
     /tmp/ccBv2anA.s:4364   .debug_str:0000000000000b9e .LASF219
     /tmp/ccBv2anA.s:4444   .debug_str:0000000000000e23 .LASF220
     /tmp/ccBv2anA.s:4178   .debug_str:000000000000050e .LASF221
     /tmp/ccBv2anA.s:4512   .debug_str:0000000000001064 .LASF222
     /tmp/ccBv2anA.s:4550   .debug_str:000000000000118a .LASF223
     /tmp/ccBv2anA.s:4510   .debug_str:0000000000001052 .LASF224
     /tmp/ccBv2anA.s:4230   .debug_str:00000000000006dc .LASF225
     /tmp/ccBv2anA.s:4096   .debug_str:000000000000018c .LASF226
     /tmp/ccBv2anA.s:4110   .debug_str:00000000000002a3 .LASF227
     /tmp/ccBv2anA.s:4170   .debug_str:00000000000004aa .LASF228
     /tmp/ccBv2anA.s:4106   .debug_str:00000000000001d4 .LASF229
     /tmp/ccBv2anA.s:4082   .debug_str:00000000000000e0 .LASF230
     /tmp/ccBv2anA.s:4528   .debug_str:00000000000010cf .LASF231
     /tmp/ccBv2anA.s:4306   .debug_str:00000000000009c7 .LASF232
     /tmp/ccBv2anA.s:4548   .debug_str:0000000000001171 .LASF233
     /tmp/ccBv2anA.s:4292   .debug_str:0000000000000921 .LASF234
     /tmp/ccBv2anA.s:4146   .debug_str:0000000000000403 .LASF235
     /tmp/ccBv2anA.s:4576   .debug_str:0000000000001266 .LASF236
     /tmp/ccBv2anA.s:4184   .debug_str:0000000000000551 .LASF237
     /tmp/ccBv2anA.s:4540   .debug_str:0000000000001128 .LASF238
     /tmp/ccBv2anA.s:4190   .debug_str:0000000000000581 .LASF239
GAS LISTING /tmp/ccBv2anA.s 			page 33


     /tmp/ccBv2anA.s:4562   .debug_str:00000000000011f2 .LASF240
     /tmp/ccBv2anA.s:4206   .debug_str:0000000000000629 .LASF241
     /tmp/ccBv2anA.s:4078   .debug_str:00000000000000c1 .LASF242
     /tmp/ccBv2anA.s:4278   .debug_str:0000000000000889 .LASF243
     /tmp/ccBv2anA.s:4584   .debug_str:00000000000012c4 .LASF244
     /tmp/ccBv2anA.s:4084   .debug_str:00000000000000fb .LASF245
     /tmp/ccBv2anA.s:4474   .debug_str:0000000000000f30 .LASF246
     /tmp/ccBv2anA.s:4334   .debug_str:0000000000000ab0 .LASF247
     /tmp/ccBv2anA.s:4392   .debug_str:0000000000000c74 .LASF248
     /tmp/ccBv2anA.s:4092   .debug_str:0000000000000163 .LASF249
     /tmp/ccBv2anA.s:4452   .debug_str:0000000000000e60 .LASF250
     /tmp/ccBv2anA.s:4204   .debug_str:0000000000000606 .LASF251
     /tmp/ccBv2anA.s:4174   .debug_str:00000000000004d3 .LASF252
     /tmp/ccBv2anA.s:4258   .debug_str:00000000000007e4 .LASF253
     /tmp/ccBv2anA.s:4260   .debug_str:00000000000007ff .LASF254
     /tmp/ccBv2anA.s:4254   .debug_str:00000000000007b5 .LASF255
     /tmp/ccBv2anA.s:4480   .debug_str:0000000000000f5b .LASF256
     /tmp/ccBv2anA.s:791    .text:0000000000000470 .LFB35
     /tmp/ccBv2anA.s:828    .text:00000000000004a4 .LFE35
     /tmp/ccBv2anA.s:3855   .debug_loc:0000000000000000 .LLST13
     /tmp/ccBv2anA.s:806    .text:0000000000000488 .LVL54
     /tmp/ccBv2anA.s:817    .text:0000000000000494 .LVL55
     /tmp/ccBv2anA.s:634    .text:0000000000000398 .LFB34
     /tmp/ccBv2anA.s:654    .text:00000000000003bc .LFE34
     /tmp/ccBv2anA.s:585    .text:0000000000000350 .LFB33
     /tmp/ccBv2anA.s:628    .text:0000000000000398 .LFE33
     /tmp/ccBv2anA.s:3862   .debug_loc:0000000000000023 .LLST9
     /tmp/ccBv2anA.s:606    .text:000000000000037c .LVL39
     /tmp/ccBv2anA.s:617    .text:0000000000000388 .LVL40
     /tmp/ccBv2anA.s:543    .text:0000000000000320 .LFB32
     /tmp/ccBv2anA.s:579    .text:0000000000000350 .LFE32
     /tmp/ccBv2anA.s:3869   .debug_loc:0000000000000046 .LLST8
     /tmp/ccBv2anA.s:568    .text:0000000000000340 .LVL38
     /tmp/ccBv2anA.s:476    .text:00000000000002a8 .LFB31
     /tmp/ccBv2anA.s:537    .text:0000000000000320 .LFE31
     /tmp/ccBv2anA.s:3876   .debug_loc:0000000000000069 .LLST7
     /tmp/ccBv2anA.s:494    .text:00000000000002d0 .LVL33
     /tmp/ccBv2anA.s:260    .text:0000000000000190 .LFB30
     /tmp/ccBv2anA.s:319    .text:0000000000000208 .LFE30
     /tmp/ccBv2anA.s:3883   .debug_loc:000000000000008c .LLST2
     /tmp/ccBv2anA.s:305    .text:00000000000001f4 .LVL17
     /tmp/ccBv2anA.s:193    .text:0000000000000118 .LFB29
     /tmp/ccBv2anA.s:254    .text:0000000000000190 .LFE29
     /tmp/ccBv2anA.s:3906   .debug_loc:00000000000000ec .LLST1
     /tmp/ccBv2anA.s:211    .text:0000000000000140 .LVL12
     /tmp/ccBv2anA.s:134    .text:00000000000000b0 .LFB28
     /tmp/ccBv2anA.s:187    .text:0000000000000118 .LFE28
     /tmp/ccBv2anA.s:3913   .debug_loc:000000000000010f .LLST0
     /tmp/ccBv2anA.s:173    .text:0000000000000104 .LVL10
     /tmp/ccBv2anA.s:660    .text:00000000000003bc .LFB27
     /tmp/ccBv2anA.s:785    .text:0000000000000470 .LFE27
     /tmp/ccBv2anA.s:3936   .debug_loc:000000000000016f .LLST10
     /tmp/ccBv2anA.s:4032   .debug_ranges:0000000000000000 .Ldebug_ranges0
     /tmp/ccBv2anA.s:3950   .debug_loc:00000000000001a8 .LLST11
     /tmp/ccBv2anA.s:4386   .debug_str:0000000000000c54 .LASF257
     /tmp/ccBv2anA.s:3961   .debug_loc:00000000000001de .LLST12
     /tmp/ccBv2anA.s:707    .text:00000000000003f0 .LBB11
GAS LISTING /tmp/ccBv2anA.s 			page 34


     /tmp/ccBv2anA.s:750    .text:0000000000000430 .LBE11
     /tmp/ccBv2anA.s:711    .text:00000000000003f8 .LVL46
     /tmp/ccBv2anA.s:762    .text:0000000000000448 .LVL50
     /tmp/ccBv2anA.s:772    .text:0000000000000460 .LVL51
     /tmp/ccBv2anA.s:780    .text:000000000000046c .LVL53
     /tmp/ccBv2anA.s:325    .text:0000000000000208 .LFB26
     /tmp/ccBv2anA.s:470    .text:00000000000002a8 .LFE26
     /tmp/ccBv2anA.s:3968   .debug_loc:0000000000000201 .LLST3
     /tmp/ccBv2anA.s:3986   .debug_loc:000000000000024d .LLST4
     /tmp/ccBv2anA.s:4001   .debug_loc:0000000000000296 .LLST5
     /tmp/ccBv2anA.s:379    .text:000000000000023c .LBB4
     /tmp/ccBv2anA.s:415    .text:0000000000000270 .LBE4
     /tmp/ccBv2anA.s:4012   .debug_loc:00000000000002cc .LLST6
     /tmp/ccBv2anA.s:409    .text:0000000000000264 .LVL26
     /tmp/ccBv2anA.s:414    .text:0000000000000270 .LVL27
     /tmp/ccBv2anA.s:96     .text:00000000000000b0 .LFE25
     /tmp/ccBv2anA.s:33     .text:0000000000000024 .LVL0
     /tmp/ccBv2anA.s:39     .text:0000000000000034 .LVL1
     /tmp/ccBv2anA.s:48     .text:0000000000000048 .LVL2
     /tmp/ccBv2anA.s:54     .text:0000000000000058 .LVL3
     /tmp/ccBv2anA.s:78     .text:0000000000000088 .LVL4
     /tmp/ccBv2anA.s:82     .text:0000000000000094 .LVL5
     /tmp/ccBv2anA.s:89     .text:00000000000000a4 .LVL6
     /tmp/ccBv2anA.s:93     .text:00000000000000b0 .LVL7
     /tmp/ccBv2anA.s:4542   .debug_str:000000000000113a .LASF258
     /tmp/ccBv2anA.s:4242   .debug_str:0000000000000742 .LASF259
     /tmp/ccBv2anA.s:4526   .debug_str:00000000000010bf .LASF260
     /tmp/ccBv2anA.s:4484   .debug_str:0000000000000f7c .LASF269
     /tmp/ccBv2anA.s:4090   .debug_str:000000000000014b .LASF270
     /tmp/ccBv2anA.s:561    .text:0000000000000334 .LVL36
     /tmp/ccBv2anA.s:566    .text:0000000000000338 .LVL37
     /tmp/ccBv2anA.s:506    .text:00000000000002ec .LVL34
     /tmp/ccBv2anA.s:517    .text:0000000000000304 .LVL35
     /tmp/ccBv2anA.s:263    .text:0000000000000190 .LVL15
     /tmp/ccBv2anA.s:303    .text:00000000000001ec .LVL16
     /tmp/ccBv2anA.s:315    .text:0000000000000204 .LVL18
     /tmp/ccBv2anA.s:223    .text:000000000000015c .LVL13
     /tmp/ccBv2anA.s:234    .text:0000000000000174 .LVL14
     /tmp/ccBv2anA.s:137    .text:00000000000000b0 .LVL8
     /tmp/ccBv2anA.s:171    .text:00000000000000fc .LVL9
     /tmp/ccBv2anA.s:183    .text:0000000000000114 .LVL11
     /tmp/ccBv2anA.s:663    .text:00000000000003bc .LVL41
     /tmp/ccBv2anA.s:673    .text:00000000000003d0 .LVL42
     /tmp/ccBv2anA.s:680    .text:00000000000003dc .LVL43
     /tmp/ccBv2anA.s:698    .text:00000000000003e8 .LVL44
     /tmp/ccBv2anA.s:724    .text:000000000000041c .LVL47
     /tmp/ccBv2anA.s:735    .text:0000000000000424 .LVL48
     /tmp/ccBv2anA.s:704    .text:00000000000003ec .LVL45
     /tmp/ccBv2anA.s:328    .text:0000000000000208 .LVL19
     /tmp/ccBv2anA.s:375    .text:000000000000023c .LVL23
     /tmp/ccBv2anA.s:466    .text:00000000000002a4 .LVL32
     /tmp/ccBv2anA.s:335    .text:0000000000000214 .LVL20
     /tmp/ccBv2anA.s:353    .text:0000000000000220 .LVL21
     /tmp/ccBv2anA.s:384    .text:0000000000000248 .LVL24
     /tmp/ccBv2anA.s:425    .text:000000000000027c .LVL28
     /tmp/ccBv2anA.s:443    .text:0000000000000288 .LVL29
     /tmp/ccBv2anA.s:359    .text:0000000000000224 .LVL22
GAS LISTING /tmp/ccBv2anA.s 			page 35


     /tmp/ccBv2anA.s:449    .text:000000000000028c .LVL30
     /tmp/ccBv2anA.s:404    .text:0000000000000258 .LVL25
     /tmp/ccBv2anA.s:462    .text:000000000000029c .LVL31
     /tmp/ccBv2anA.s:892    .debug_info:0000000000000000 .Ldebug_info0
     /tmp/ccBv2anA.s:330    .text:0000000000000208 .LBB2
     /tmp/ccBv2anA.s:363    .text:0000000000000228 .LBE2
     /tmp/ccBv2anA.s:377    .text:000000000000023c .LBB7
     /tmp/ccBv2anA.s:417    .text:0000000000000270 .LBE7
     /tmp/ccBv2anA.s:420    .text:0000000000000270 .LBB8
     /tmp/ccBv2anA.s:453    .text:0000000000000290 .LBE8
     /tmp/ccBv2anA.s:675    .text:00000000000003d0 .LBB9
     /tmp/ccBv2anA.s:752    .text:0000000000000430 .LBE9
     /tmp/ccBv2anA.s:754    .text:0000000000000430 .LBB13
     /tmp/ccBv2anA.s:783    .text:0000000000000470 .LBE13
     /tmp/ccBv2anA.s:99     .gcc_except_table:0000000000000000 .LLSDA25

UNDEFINED SYMBOLS
_ZN10KSemaphorenwEm
_ZN10KSemaphoreC1Ei
_ZN10KSemaphoredlEPv
_Unwind_Resume
__gxx_personality_v0
_ZN10KSemaphore6signalEv
_ZN10KSemaphore4waitEv
CONSOLE_STATUS
CONSOLE_TX_DATA
_ZN5Riscv13w_a0_sscratchEv
sysCallGetCharOutput
CONSOLE_RX_DATA
_ZN5Riscv12finishSystemE
thread_exit
thread_dispatch
