GAS LISTING /tmp/ccSAmCRL.s 			page 1


   1              		.file	"KConsole.cpp"
   2              		.option pic
   3              		.option norelax
   4              		.text
   5              	.Ltext0:
   6              		.align	2
   7              		.globl	_ZN8KConsole7putCharEcRPNS_4ElemES2_
   9              	_ZN8KConsole7putCharEcRPNS_4ElemES2_:
  10              	.LFB24:
  11              		.file 1 "src/KConsole.cpp"
   1:src/KConsole.cpp **** //
   2:src/KConsole.cpp **** // Created by os on 5/19/22.
   3:src/KConsole.cpp **** //
   4:src/KConsole.cpp **** 
   5:src/KConsole.cpp **** 
   6:src/KConsole.cpp **** #include "../h/KConsole.hpp"
   7:src/KConsole.cpp **** #include "../h/syscall_c.h"
   8:src/KConsole.cpp **** 
   9:src/KConsole.cpp **** KConsole::Elem* KConsole::headInput = 0;
  10:src/KConsole.cpp **** KConsole::Elem* KConsole::tailInput = 0;
  11:src/KConsole.cpp **** KConsole::Elem* KConsole::headOutput = 0;
  12:src/KConsole.cpp **** KConsole::Elem* KConsole::tailOutput = 0;
  13:src/KConsole.cpp **** KSemaphore* KConsole::hasCharactersOutput = 0;
  14:src/KConsole.cpp **** KSemaphore* KConsole::hasCharactersInput = 0;
  15:src/KConsole.cpp **** int KConsole::cntWInterrupt = 0;
  16:src/KConsole.cpp **** 
  17:src/KConsole.cpp **** void KConsole::putChar(char c, Elem*& head, Elem*& tail)
  18:src/KConsole.cpp **** {
  12              		.loc 1 18 1
  13              		.cfi_startproc
  14              	.LVL0:
  15 0000 130101FD 		addi	sp,sp,-48
  16              		.cfi_def_cfa_offset 48
  17 0004 23341102 		sd	ra,40(sp)
  18 0008 23308102 		sd	s0,32(sp)
  19 000c 233C9100 		sd	s1,24(sp)
  20 0010 23382101 		sd	s2,16(sp)
  21 0014 23343101 		sd	s3,8(sp)
  22              		.cfi_offset 1, -8
  23              		.cfi_offset 8, -16
  24              		.cfi_offset 9, -24
  25              		.cfi_offset 18, -32
  26              		.cfi_offset 19, -40
  27 0018 13040103 		addi	s0,sp,48
  28              		.cfi_def_cfa 8, 0
  29 001c 93090500 		mv	s3,a0
  30 0020 13890500 		mv	s2,a1
  31 0024 93040600 		mv	s1,a2
  19:src/KConsole.cpp ****     Elem* newElem = (Elem*)kmalloc(sizeof(Elem));
  32              		.loc 1 19 5
  33              		.loc 1 19 35 is_stmt 0
  34 0028 13050001 		li	a0,16
  35              	.LVL1:
  36 002c 97000000 		call	_Z7kmallocm@plt
  36      E7800000 
  37              	.LVL2:
  20:src/KConsole.cpp ****     newElem->next = 0;
GAS LISTING /tmp/ccSAmCRL.s 			page 2


  38              		.loc 1 20 5 is_stmt 1
  39              		.loc 1 20 19 is_stmt 0
  40 0034 23300500 		sd	zero,0(a0)
  21:src/KConsole.cpp ****     newElem->data = c;
  41              		.loc 1 21 5 is_stmt 1
  42              		.loc 1 21 19 is_stmt 0
  43 0038 23043501 		sb	s3,8(a0)
  22:src/KConsole.cpp ****     if(head == 0)
  44              		.loc 1 22 5 is_stmt 1
  45              		.loc 1 22 8 is_stmt 0
  46 003c 83370900 		ld	a5,0(s2)
  47              		.loc 1 22 5
  48 0040 63860702 		beqz	a5,.L5
  23:src/KConsole.cpp ****     {
  24:src/KConsole.cpp ****         head = tail = newElem;
  25:src/KConsole.cpp ****     }
  26:src/KConsole.cpp ****     else
  27:src/KConsole.cpp ****     {
  28:src/KConsole.cpp ****         tail->next = newElem;
  49              		.loc 1 28 9 is_stmt 1
  50 0044 83B70400 		ld	a5,0(s1)
  51              		.loc 1 28 20 is_stmt 0
  52 0048 23B0A700 		sd	a0,0(a5)
  29:src/KConsole.cpp ****         tail = newElem;
  53              		.loc 1 29 9 is_stmt 1
  54              		.loc 1 29 14 is_stmt 0
  55 004c 23B0A400 		sd	a0,0(s1)
  56              	.L1:
  30:src/KConsole.cpp ****     }
  31:src/KConsole.cpp **** }
  57              		.loc 1 31 1
  58 0050 83308102 		ld	ra,40(sp)
  59              		.cfi_remember_state
  60              		.cfi_restore 1
  61 0054 03340102 		ld	s0,32(sp)
  62              		.cfi_restore 8
  63              		.cfi_def_cfa 2, 48
  64 0058 83348101 		ld	s1,24(sp)
  65              		.cfi_restore 9
  66              	.LVL3:
  67 005c 03390101 		ld	s2,16(sp)
  68              		.cfi_restore 18
  69              	.LVL4:
  70 0060 83398100 		ld	s3,8(sp)
  71              		.cfi_restore 19
  72 0064 13010103 		addi	sp,sp,48
  73              		.cfi_def_cfa_offset 0
  74 0068 67800000 		jr	ra
  75              	.LVL5:
  76              	.L5:
  77              		.cfi_restore_state
  24:src/KConsole.cpp ****     }
  78              		.loc 1 24 9 is_stmt 1
  24:src/KConsole.cpp ****     }
  79              		.loc 1 24 21 is_stmt 0
  80 006c 23B0A400 		sd	a0,0(s1)
  24:src/KConsole.cpp ****     }
GAS LISTING /tmp/ccSAmCRL.s 			page 3


  81              		.loc 1 24 14
  82 0070 2330A900 		sd	a0,0(s2)
  83 0074 6FF0DFFD 		j	.L1
  84              		.cfi_endproc
  85              	.LFE24:
  87              		.align	2
  88              		.globl	_ZN8KConsole7getCharERPNS_4ElemES2_
  90              	_ZN8KConsole7getCharERPNS_4ElemES2_:
  91              	.LFB25:
  32:src/KConsole.cpp **** 
  33:src/KConsole.cpp **** char KConsole::getChar(Elem*& head, Elem*& tail)
  34:src/KConsole.cpp **** {
  92              		.loc 1 34 1 is_stmt 1
  93              		.cfi_startproc
  94              	.LVL6:
  95 0078 130101FE 		addi	sp,sp,-32
  96              		.cfi_def_cfa_offset 32
  97 007c 233C1100 		sd	ra,24(sp)
  98 0080 23388100 		sd	s0,16(sp)
  99 0084 23349100 		sd	s1,8(sp)
 100              		.cfi_offset 1, -8
 101              		.cfi_offset 8, -16
 102              		.cfi_offset 9, -24
 103 0088 13040102 		addi	s0,sp,32
 104              		.cfi_def_cfa 8, 0
 105 008c 93070500 		mv	a5,a0
  35:src/KConsole.cpp ****     if(head == 0)
 106              		.loc 1 35 5
 107              		.loc 1 35 8 is_stmt 0
 108 0090 03350500 		ld	a0,0(a0)
 109              	.LVL7:
 110              		.loc 1 35 5
 111 0094 630E0502 		beqz	a0,.L9
  36:src/KConsole.cpp ****         return 0;
  37:src/KConsole.cpp **** 
  38:src/KConsole.cpp ****     Elem* ret = head;
 112              		.loc 1 38 5 is_stmt 1
 113              	.LVL8:
  39:src/KConsole.cpp ****     head = head->next;
 114              		.loc 1 39 5
 115              		.loc 1 39 18 is_stmt 0
 116 0098 03370500 		ld	a4,0(a0)
 117              		.loc 1 39 10
 118 009c 23B0E700 		sd	a4,0(a5)
  40:src/KConsole.cpp ****     if(head == 0)
 119              		.loc 1 40 5 is_stmt 1
 120 00a0 63040702 		beqz	a4,.L11
 121              	.L8:
  41:src/KConsole.cpp ****         tail = 0;
  42:src/KConsole.cpp **** 
  43:src/KConsole.cpp ****     char c = ret->data;
 122              		.loc 1 43 5
 123              		.loc 1 43 10 is_stmt 0
 124 00a4 83448500 		lbu	s1,8(a0)
 125              	.LVL9:
  44:src/KConsole.cpp ****     kfree(ret);
 126              		.loc 1 44 5 is_stmt 1
GAS LISTING /tmp/ccSAmCRL.s 			page 4


 127              		.loc 1 44 10 is_stmt 0
 128 00a8 97000000 		call	_Z5kfreePv@plt
 128      E7800000 
 129              	.LVL10:
  45:src/KConsole.cpp ****     return c;
 130              		.loc 1 45 5 is_stmt 1
 131              	.L7:
  46:src/KConsole.cpp **** }
 132              		.loc 1 46 1 is_stmt 0
 133 00b0 13850400 		mv	a0,s1
 134 00b4 83308101 		ld	ra,24(sp)
 135              		.cfi_remember_state
 136              		.cfi_restore 1
 137 00b8 03340101 		ld	s0,16(sp)
 138              		.cfi_restore 8
 139              		.cfi_def_cfa 2, 32
 140 00bc 83348100 		ld	s1,8(sp)
 141              		.cfi_restore 9
 142 00c0 13010102 		addi	sp,sp,32
 143              		.cfi_def_cfa_offset 0
 144 00c4 67800000 		jr	ra
 145              	.LVL11:
 146              	.L11:
 147              		.cfi_restore_state
  41:src/KConsole.cpp **** 
 148              		.loc 1 41 9 is_stmt 1
  41:src/KConsole.cpp **** 
 149              		.loc 1 41 14 is_stmt 0
 150 00c8 23B00500 		sd	zero,0(a1)
 151 00cc 6FF09FFD 		j	.L8
 152              	.LVL12:
 153              	.L9:
  36:src/KConsole.cpp **** 
 154              		.loc 1 36 16
 155 00d0 93040000 		li	s1,0
 156 00d4 6FF0DFFD 		j	.L7
 157              		.cfi_endproc
 158              	.LFE25:
 160              		.align	2
 161              		.globl	_ZN8KConsole10initializeEv
 163              	_ZN8KConsole10initializeEv:
 164              	.LFB26:
  47:src/KConsole.cpp **** 
  48:src/KConsole.cpp **** void KConsole::initialize()
  49:src/KConsole.cpp **** {
 165              		.loc 1 49 1 is_stmt 1
 166              		.cfi_startproc
 167              		.cfi_personality 0x9b,DW.ref.__gxx_personality_v0
 168              		.cfi_lsda 0x1b,.LLSDA26
 169 00d8 130101FE 		addi	sp,sp,-32
 170              		.cfi_def_cfa_offset 32
 171 00dc 233C1100 		sd	ra,24(sp)
 172 00e0 23388100 		sd	s0,16(sp)
 173 00e4 23349100 		sd	s1,8(sp)
 174 00e8 23302101 		sd	s2,0(sp)
 175              		.cfi_offset 1, -8
 176              		.cfi_offset 8, -16
GAS LISTING /tmp/ccSAmCRL.s 			page 5


 177              		.cfi_offset 9, -24
 178              		.cfi_offset 18, -32
 179 00ec 13040102 		addi	s0,sp,32
 180              		.cfi_def_cfa 8, 0
  50:src/KConsole.cpp ****     hasCharactersInput = new KSemaphore(0);
 181              		.loc 1 50 5
 182              		.loc 1 50 42 is_stmt 0
 183 00f0 13058001 		li	a0,24
 184              	.LEHB0:
 185 00f4 97000000 		call	_ZN10KSemaphorenwEm@plt
 185      E7800000 
 186              	.LVL13:
 187              	.LEHE0:
 188 00fc 93040500 		mv	s1,a0
 189 0100 93050000 		li	a1,0
 190              	.LEHB1:
 191 0104 97000000 		call	_ZN10KSemaphoreC1Ei@plt
 191      E7800000 
 192              	.LVL14:
 193              	.LEHE1:
 194              		.loc 1 50 24 discriminator 2
 195 010c 97070000 		sd	s1,.LANCHOR0,a5
 195      23B09700 
  51:src/KConsole.cpp ****     hasCharactersOutput = new KSemaphore(0);
 196              		.loc 1 51 5 is_stmt 1 discriminator 2
 197              		.loc 1 51 43 is_stmt 0 discriminator 2
 198 0114 13058001 		li	a0,24
 199              	.LEHB2:
 200 0118 97000000 		call	_ZN10KSemaphorenwEm@plt
 200      E7800000 
 201              	.LVL15:
 202              	.LEHE2:
 203 0120 93040500 		mv	s1,a0
 204 0124 93050000 		li	a1,0
 205              	.LEHB3:
 206 0128 97000000 		call	_ZN10KSemaphoreC1Ei@plt
 206      E7800000 
 207              	.LVL16:
 208              	.LEHE3:
 209              		.loc 1 51 25 discriminator 2
 210 0130 97070000 		sd	s1,.LANCHOR0+8,a5
 210      23B09700 
  52:src/KConsole.cpp **** }
 211              		.loc 1 52 1 discriminator 2
 212 0138 83308101 		ld	ra,24(sp)
 213              		.cfi_remember_state
 214              		.cfi_restore 1
 215 013c 03340101 		ld	s0,16(sp)
 216              		.cfi_restore 8
 217              		.cfi_def_cfa 2, 32
 218 0140 83348100 		ld	s1,8(sp)
 219              		.cfi_restore 9
 220 0144 03390100 		ld	s2,0(sp)
 221              		.cfi_restore 18
 222 0148 13010102 		addi	sp,sp,32
 223              		.cfi_def_cfa_offset 0
 224 014c 67800000 		jr	ra
GAS LISTING /tmp/ccSAmCRL.s 			page 6


 225              	.L15:
 226              		.cfi_restore_state
 227 0150 13090500 		mv	s2,a0
  50:src/KConsole.cpp ****     hasCharactersInput = new KSemaphore(0);
 228              		.loc 1 50 42
 229 0154 13850400 		mv	a0,s1
 230 0158 97000000 		call	_ZN10KSemaphoredlEPv@plt
 230      E7800000 
 231              	.LVL17:
 232 0160 13050900 		mv	a0,s2
 233              	.LEHB4:
 234 0164 97000000 		call	_Unwind_Resume@plt
 234      E7800000 
 235              	.LVL18:
 236              	.LEHE4:
 237              	.L16:
 238 016c 13090500 		mv	s2,a0
  51:src/KConsole.cpp ****     hasCharactersOutput = new KSemaphore(0);
 239              		.loc 1 51 43
 240 0170 13850400 		mv	a0,s1
 241 0174 97000000 		call	_ZN10KSemaphoredlEPv@plt
 241      E7800000 
 242              	.LVL19:
 243 017c 13050900 		mv	a0,s2
 244              	.LEHB5:
 245 0180 97000000 		call	_Unwind_Resume@plt
 245      E7800000 
 246              	.LVL20:
 247              	.LEHE5:
 248              		.cfi_endproc
 249              	.LFE26:
 250              		.globl	__gxx_personality_v0
 251              		.section	.gcc_except_table,"a",@progbits
 252              	.LLSDA26:
 253 0000 FF       		.byte	0xff
 254 0001 FF       		.byte	0xff
 255 0002 03       		.byte	0x3
 256 0003 4E       		.byte	0x4e
 257 0004 00000000 		.4byte	.LEHB0-.LFB26
 258 0008 00000000 		.4byte	.LEHE0-.LEHB0
 259 000c 00000000 		.4byte	0
 260 0010 00       		.byte	0
 261 0011 00000000 		.4byte	.LEHB1-.LFB26
 262 0015 00000000 		.4byte	.LEHE1-.LEHB1
 263 0019 00000000 		.4byte	.L15-.LFB26
 264 001d 00       		.byte	0
 265 001e 00000000 		.4byte	.LEHB2-.LFB26
 266 0022 00000000 		.4byte	.LEHE2-.LEHB2
 267 0026 00000000 		.4byte	0
 268 002a 00       		.byte	0
 269 002b 00000000 		.4byte	.LEHB3-.LFB26
 270 002f 00000000 		.4byte	.LEHE3-.LEHB3
 271 0033 00000000 		.4byte	.L16-.LFB26
 272 0037 00       		.byte	0
 273 0038 00000000 		.4byte	.LEHB4-.LFB26
 274 003c 00000000 		.4byte	.LEHE4-.LEHB4
 275 0040 00000000 		.4byte	0
GAS LISTING /tmp/ccSAmCRL.s 			page 7


 276 0044 00       		.byte	0
 277 0045 00000000 		.4byte	.LEHB5-.LFB26
 278 0049 00000000 		.4byte	.LEHE5-.LEHB5
 279 004d 00000000 		.4byte	0
 280 0051 00       		.byte	0
 281              		.text
 283              		.align	2
 284              		.globl	_ZN8KConsole17putCharacterInputEc
 286              	_ZN8KConsole17putCharacterInputEc:
 287              	.LFB29:
  53:src/KConsole.cpp **** 
  54:src/KConsole.cpp **** //extern const uint64 CONSOLE_STATUS;
  55:src/KConsole.cpp **** //extern const uint64 CONSOLE_TX_DATA;
  56:src/KConsole.cpp **** //extern const uint64 CONSOLE_RX_DATA;
  57:src/KConsole.cpp **** 
  58:src/KConsole.cpp **** void KConsole::getCharactersFromConsole(void* p)
  59:src/KConsole.cpp **** {
  60:src/KConsole.cpp ****     while(true)
  61:src/KConsole.cpp ****     {
  62:src/KConsole.cpp ****         uint64 x = CONSOLE_STATUS;
  63:src/KConsole.cpp ****         __asm__ volatile("mv a0, %0"::"r"(x));
  64:src/KConsole.cpp ****         __asm__ volatile("lb a1, 0(a0)");
  65:src/KConsole.cpp ****         uint64 operation;
  66:src/KConsole.cpp ****         __asm__ volatile("mv %0, a1" :  "=r"(operation));
  67:src/KConsole.cpp ****         if(operation & STATUS_READ_MASK)
  68:src/KConsole.cpp ****         {
  69:src/KConsole.cpp ****             x = CONSOLE_TX_DATA;
  70:src/KConsole.cpp ****             __asm__ volatile("mv a0, %0"::"r"(x));
  71:src/KConsole.cpp ****             __asm__ volatile("lb a1,0(a0)");
  72:src/KConsole.cpp ****             char c;
  73:src/KConsole.cpp ****             __asm__ volatile("mv %0, a1" :  "=r"(c));
  74:src/KConsole.cpp **** 
  75:src/KConsole.cpp ****             putCharacterInput(c);
  76:src/KConsole.cpp ****             putCharacterOutput(c);
  77:src/KConsole.cpp ****         }
  78:src/KConsole.cpp ****         else
  79:src/KConsole.cpp ****             break;
  80:src/KConsole.cpp ****     }
  81:src/KConsole.cpp **** }
  82:src/KConsole.cpp **** 
  83:src/KConsole.cpp **** void KConsole::sendCharactersToConsole(void* p)
  84:src/KConsole.cpp **** {
  85:src/KConsole.cpp ****     while(true)
  86:src/KConsole.cpp ****     {
  87:src/KConsole.cpp **** 
  88:src/KConsole.cpp ****             uint64 x = CONSOLE_STATUS;
  89:src/KConsole.cpp ****             __asm__ volatile("mv a0, %0"::"r"(x));
  90:src/KConsole.cpp ****             __asm__ volatile("lb a1, 0(a0)");
  91:src/KConsole.cpp ****             uint64 operation;
  92:src/KConsole.cpp ****             __asm__ volatile("mv %0, a1" :  "=r"(operation));
  93:src/KConsole.cpp ****             if (operation & STATUS_WRITE_MASK)
  94:src/KConsole.cpp ****             {
  95:src/KConsole.cpp ****                 char volatile c = getCharacterOutput();
  96:src/KConsole.cpp ****                 x = CONSOLE_RX_DATA;
  97:src/KConsole.cpp ****                 __asm__ volatile("mv a0, %0"::"r"(x));
  98:src/KConsole.cpp ****                 __asm__ volatile("mv a1, %0" :  :"r"((uint64)c));
  99:src/KConsole.cpp ****                 __asm__ volatile("sb a1,0(a0)");
GAS LISTING /tmp/ccSAmCRL.s 			page 8


 100:src/KConsole.cpp ****             }
 101:src/KConsole.cpp ****     }
 102:src/KConsole.cpp **** }
 103:src/KConsole.cpp **** 
 104:src/KConsole.cpp **** void KConsole::putCharacterInput(char c)
 105:src/KConsole.cpp **** {
 288              		.loc 1 105 1 is_stmt 1
 289              		.cfi_startproc
 290              	.LVL21:
 291 0188 130101FF 		addi	sp,sp,-16
 292              		.cfi_def_cfa_offset 16
 293 018c 23341100 		sd	ra,8(sp)
 294 0190 23308100 		sd	s0,0(sp)
 295              		.cfi_offset 1, -8
 296              		.cfi_offset 8, -16
 297 0194 13040101 		addi	s0,sp,16
 298              		.cfi_def_cfa 8, 0
 106:src/KConsole.cpp ****     putChar(c, headInput, tailInput);
 299              		.loc 1 106 5
 300              		.loc 1 106 12 is_stmt 0
 301 0198 17060000 		lla	a2,.LANCHOR0+16
 301      13060600 
 302 01a0 97050000 		lla	a1,.LANCHOR0+24
 302      93850500 
 303 01a8 97000000 		call	_ZN8KConsole7putCharEcRPNS_4ElemES2_
 303      E7800000 
 304              	.LVL22:
 107:src/KConsole.cpp ****     hasCharactersInput->signal();
 305              		.loc 1 107 5 is_stmt 1
 306              		.loc 1 107 31 is_stmt 0
 307 01b0 17050000 		ld	a0,.LANCHOR0
 307      03350500 
 308 01b8 97000000 		call	_ZN10KSemaphore6signalEv@plt
 308      E7800000 
 309              	.LVL23:
 108:src/KConsole.cpp **** }
 310              		.loc 1 108 1
 311 01c0 83308100 		ld	ra,8(sp)
 312              		.cfi_restore 1
 313 01c4 03340100 		ld	s0,0(sp)
 314              		.cfi_restore 8
 315              		.cfi_def_cfa 2, 16
 316 01c8 13010101 		addi	sp,sp,16
 317              		.cfi_def_cfa_offset 0
 318 01cc 67800000 		jr	ra
 319              		.cfi_endproc
 320              	.LFE29:
 322              		.align	2
 323              		.globl	_ZN8KConsole17getCharacterInputEv
 325              	_ZN8KConsole17getCharacterInputEv:
 326              	.LFB30:
 109:src/KConsole.cpp **** 
 110:src/KConsole.cpp **** char KConsole::getCharacterInput()
 111:src/KConsole.cpp **** {
 327              		.loc 1 111 1 is_stmt 1
 328              		.cfi_startproc
 329 01d0 130101FF 		addi	sp,sp,-16
GAS LISTING /tmp/ccSAmCRL.s 			page 9


 330              		.cfi_def_cfa_offset 16
 331 01d4 23341100 		sd	ra,8(sp)
 332 01d8 23308100 		sd	s0,0(sp)
 333              		.cfi_offset 1, -8
 334              		.cfi_offset 8, -16
 335 01dc 13040101 		addi	s0,sp,16
 336              		.cfi_def_cfa 8, 0
 112:src/KConsole.cpp ****     hasCharactersInput->wait();
 337              		.loc 1 112 5
 338              		.loc 1 112 29 is_stmt 0
 339 01e0 17050000 		ld	a0,.LANCHOR0
 339      03350500 
 340 01e8 97000000 		call	_ZN10KSemaphore4waitEv@plt
 340      E7800000 
 341              	.LVL24:
 113:src/KConsole.cpp ****     return getChar(headInput, tailInput);
 342              		.loc 1 113 5 is_stmt 1
 343              		.loc 1 113 19 is_stmt 0
 344 01f0 97050000 		lla	a1,.LANCHOR0+16
 344      93850500 
 345 01f8 17050000 		lla	a0,.LANCHOR0+24
 345      13050500 
 346 0200 97000000 		call	_ZN8KConsole7getCharERPNS_4ElemES2_
 346      E7800000 
 347              	.LVL25:
 114:src/KConsole.cpp **** }
 348              		.loc 1 114 1
 349 0208 83308100 		ld	ra,8(sp)
 350              		.cfi_restore 1
 351 020c 03340100 		ld	s0,0(sp)
 352              		.cfi_restore 8
 353              		.cfi_def_cfa 2, 16
 354 0210 13010101 		addi	sp,sp,16
 355              		.cfi_def_cfa_offset 0
 356 0214 67800000 		jr	ra
 357              		.cfi_endproc
 358              	.LFE30:
 360              		.align	2
 361              		.globl	_ZN8KConsole18putCharacterOutputEc
 363              	_ZN8KConsole18putCharacterOutputEc:
 364              	.LFB31:
 115:src/KConsole.cpp **** 
 116:src/KConsole.cpp **** void KConsole::putCharacterOutput(char c)
 117:src/KConsole.cpp **** {
 365              		.loc 1 117 1 is_stmt 1
 366              		.cfi_startproc
 367              	.LVL26:
 368 0218 130101FF 		addi	sp,sp,-16
 369              		.cfi_def_cfa_offset 16
 370 021c 23341100 		sd	ra,8(sp)
 371 0220 23308100 		sd	s0,0(sp)
 372              		.cfi_offset 1, -8
 373              		.cfi_offset 8, -16
 374 0224 13040101 		addi	s0,sp,16
 375              		.cfi_def_cfa 8, 0
 118:src/KConsole.cpp ****     putChar(c, headOutput, tailOutput);
 376              		.loc 1 118 5
GAS LISTING /tmp/ccSAmCRL.s 			page 10


 377              		.loc 1 118 12 is_stmt 0
 378 0228 17060000 		lla	a2,.LANCHOR0+32
 378      13060600 
 379 0230 97050000 		lla	a1,.LANCHOR0+40
 379      93850500 
 380 0238 97000000 		call	_ZN8KConsole7putCharEcRPNS_4ElemES2_
 380      E7800000 
 381              	.LVL27:
 119:src/KConsole.cpp ****     hasCharactersOutput->signal();
 382              		.loc 1 119 5 is_stmt 1
 383              		.loc 1 119 32 is_stmt 0
 384 0240 17050000 		ld	a0,.LANCHOR0+8
 384      03350500 
 385 0248 97000000 		call	_ZN10KSemaphore6signalEv@plt
 385      E7800000 
 386              	.LVL28:
 120:src/KConsole.cpp **** }
 387              		.loc 1 120 1
 388 0250 83308100 		ld	ra,8(sp)
 389              		.cfi_restore 1
 390 0254 03340100 		ld	s0,0(sp)
 391              		.cfi_restore 8
 392              		.cfi_def_cfa 2, 16
 393 0258 13010101 		addi	sp,sp,16
 394              		.cfi_def_cfa_offset 0
 395 025c 67800000 		jr	ra
 396              		.cfi_endproc
 397              	.LFE31:
 399              		.align	2
 400              		.globl	_ZN8KConsole24getCharactersFromConsoleEPv
 402              	_ZN8KConsole24getCharactersFromConsoleEPv:
 403              	.LFB27:
  59:src/KConsole.cpp ****     while(true)
 404              		.loc 1 59 1 is_stmt 1
 405              		.cfi_startproc
 406              	.LVL29:
  60:src/KConsole.cpp ****     {
 407              		.loc 1 60 5
 408              	.LBB2:
  62:src/KConsole.cpp ****         __asm__ volatile("mv a0, %0"::"r"(x));
 409              		.loc 1 62 9
  62:src/KConsole.cpp ****         __asm__ volatile("mv a0, %0"::"r"(x));
 410              		.loc 1 62 16 is_stmt 0
 411 0260 97070000 		la	a5,CONSOLE_STATUS
 411      83B70700 
 412 0268 83B70700 		ld	a5,0(a5)
 413              	.LVL30:
  63:src/KConsole.cpp ****         __asm__ volatile("lb a1, 0(a0)");
 414              		.loc 1 63 9 is_stmt 1
  63:src/KConsole.cpp ****         __asm__ volatile("lb a1, 0(a0)");
 415              		.loc 1 63 46 is_stmt 0
 416              	#APP
 417              	# 63 "src/KConsole.cpp" 1
  64:src/KConsole.cpp ****         uint64 operation;
 418              		mv a0, a5
 419              	# 0 "" 2
 420              		.loc 1 64 9 is_stmt 1
GAS LISTING /tmp/ccSAmCRL.s 			page 11


  64:src/KConsole.cpp ****         uint64 operation;
 421              		.loc 1 64 41 is_stmt 0
 422              	# 64 "src/KConsole.cpp" 1
  65:src/KConsole.cpp ****         __asm__ volatile("mv %0, a1" :  "=r"(operation));
 423              		lb a1, 0(a0)
 424              	# 0 "" 2
 425              		.loc 1 65 9 is_stmt 1
  66:src/KConsole.cpp ****         if(operation & STATUS_READ_MASK)
 426              		.loc 1 66 9
  66:src/KConsole.cpp ****         if(operation & STATUS_READ_MASK)
 427              		.loc 1 66 57 is_stmt 0
 428              	# 66 "src/KConsole.cpp" 1
 429              		mv a5, a1
 430              	# 0 "" 2
 431              	.LVL31:
  67:src/KConsole.cpp ****         {
 432              		.loc 1 67 9 is_stmt 1
 433              	#NO_APP
 434              	.LBB3:
  67:src/KConsole.cpp ****         {
 435              		.loc 1 67 22 is_stmt 0
 436 0278 93F71700 		andi	a5,a5,1
 437              	.LVL32:
  67:src/KConsole.cpp ****         {
 438              		.loc 1 67 9
 439 027c 63800708 		beqz	a5,.L33
 440              	.LBE3:
 441              	.LBE2:
  59:src/KConsole.cpp ****     while(true)
 442              		.loc 1 59 1
 443 0280 130101FE 		addi	sp,sp,-32
 444              		.cfi_def_cfa_offset 32
 445 0284 233C1100 		sd	ra,24(sp)
 446 0288 23388100 		sd	s0,16(sp)
 447 028c 23349100 		sd	s1,8(sp)
 448              		.cfi_offset 1, -8
 449              		.cfi_offset 8, -16
 450              		.cfi_offset 9, -24
 451 0290 13040102 		addi	s0,sp,32
 452              		.cfi_def_cfa 8, 0
 453              	.LVL33:
 454              	.L29:
 455              	.LBB7:
 456              	.LBB5:
 457              	.LBB4:
  69:src/KConsole.cpp ****             __asm__ volatile("mv a0, %0"::"r"(x));
 458              		.loc 1 69 13 is_stmt 1
  69:src/KConsole.cpp ****             __asm__ volatile("mv a0, %0"::"r"(x));
 459              		.loc 1 69 15 is_stmt 0
 460 0294 97070000 		la	a5,CONSOLE_TX_DATA
 460      83B70700 
 461 029c 83B70700 		ld	a5,0(a5)
 462              	.LVL34:
  70:src/KConsole.cpp ****             __asm__ volatile("lb a1,0(a0)");
 463              		.loc 1 70 13 is_stmt 1
  70:src/KConsole.cpp ****             __asm__ volatile("lb a1,0(a0)");
 464              		.loc 1 70 50 is_stmt 0
GAS LISTING /tmp/ccSAmCRL.s 			page 12


 465              	#APP
 466              	# 70 "src/KConsole.cpp" 1
  71:src/KConsole.cpp ****             char c;
 467              		mv a0, a5
 468              	# 0 "" 2
 469              		.loc 1 71 13 is_stmt 1
  71:src/KConsole.cpp ****             char c;
 470              		.loc 1 71 44 is_stmt 0
 471              	# 71 "src/KConsole.cpp" 1
  72:src/KConsole.cpp ****             __asm__ volatile("mv %0, a1" :  "=r"(c));
 472              		lb a1,0(a0)
 473              	# 0 "" 2
 474              		.loc 1 72 13 is_stmt 1
  73:src/KConsole.cpp **** 
 475              		.loc 1 73 13
  73:src/KConsole.cpp **** 
 476              		.loc 1 73 53 is_stmt 0
 477              	# 73 "src/KConsole.cpp" 1
 478              		mv s1, a1
 479              	# 0 "" 2
 480              	#NO_APP
 481 02ac 93F4F40F 		andi	s1,s1,0xff
 482              	.LVL35:
  75:src/KConsole.cpp ****             putCharacterOutput(c);
 483              		.loc 1 75 13 is_stmt 1
  75:src/KConsole.cpp ****             putCharacterOutput(c);
 484              		.loc 1 75 30 is_stmt 0
 485 02b0 13850400 		mv	a0,s1
 486 02b4 97000000 		call	_ZN8KConsole17putCharacterInputEc
 486      E7800000 
 487              	.LVL36:
  76:src/KConsole.cpp ****         }
 488              		.loc 1 76 13 is_stmt 1
  76:src/KConsole.cpp ****         }
 489              		.loc 1 76 31 is_stmt 0
 490 02bc 13850400 		mv	a0,s1
 491 02c0 97000000 		call	_ZN8KConsole18putCharacterOutputEc
 491      E7800000 
 492              	.LVL37:
 493              	.LBE4:
 494              	.LBE5:
 495              	.LBE7:
  60:src/KConsole.cpp ****     {
 496              		.loc 1 60 5 is_stmt 1
  60:src/KConsole.cpp ****     {
 497              		.loc 1 60 5
 498              	.LBB8:
  62:src/KConsole.cpp ****         __asm__ volatile("mv a0, %0"::"r"(x));
 499              		.loc 1 62 9
  62:src/KConsole.cpp ****         __asm__ volatile("mv a0, %0"::"r"(x));
 500              		.loc 1 62 16 is_stmt 0
 501 02c8 97070000 		la	a5,CONSOLE_STATUS
 501      83B70700 
 502 02d0 83B70700 		ld	a5,0(a5)
 503              	.LVL38:
  63:src/KConsole.cpp ****         __asm__ volatile("lb a1, 0(a0)");
 504              		.loc 1 63 9 is_stmt 1
GAS LISTING /tmp/ccSAmCRL.s 			page 13


  63:src/KConsole.cpp ****         __asm__ volatile("lb a1, 0(a0)");
 505              		.loc 1 63 46 is_stmt 0
 506              	#APP
 507              	# 63 "src/KConsole.cpp" 1
  64:src/KConsole.cpp ****         uint64 operation;
 508              		mv a0, a5
 509              	# 0 "" 2
 510              		.loc 1 64 9 is_stmt 1
  64:src/KConsole.cpp ****         uint64 operation;
 511              		.loc 1 64 41 is_stmt 0
 512              	# 64 "src/KConsole.cpp" 1
  65:src/KConsole.cpp ****         __asm__ volatile("mv %0, a1" :  "=r"(operation));
 513              		lb a1, 0(a0)
 514              	# 0 "" 2
 515              		.loc 1 65 9 is_stmt 1
  66:src/KConsole.cpp ****         if(operation & STATUS_READ_MASK)
 516              		.loc 1 66 9
  66:src/KConsole.cpp ****         if(operation & STATUS_READ_MASK)
 517              		.loc 1 66 57 is_stmt 0
 518              	# 66 "src/KConsole.cpp" 1
 519              		mv a5, a1
 520              	# 0 "" 2
 521              	.LVL39:
  67:src/KConsole.cpp ****         {
 522              		.loc 1 67 9 is_stmt 1
 523              	#NO_APP
 524              	.LBB6:
  67:src/KConsole.cpp ****         {
 525              		.loc 1 67 22 is_stmt 0
 526 02e0 93F71700 		andi	a5,a5,1
 527              	.LVL40:
  67:src/KConsole.cpp ****         {
 528              		.loc 1 67 9
 529 02e4 E39807FA 		bnez	a5,.L29
 530              	.LBE6:
 531              	.LBE8:
  81:src/KConsole.cpp **** 
 532              		.loc 1 81 1
 533 02e8 83308101 		ld	ra,24(sp)
 534              		.cfi_restore 1
 535 02ec 03340101 		ld	s0,16(sp)
 536              		.cfi_restore 8
 537              		.cfi_def_cfa 2, 32
 538 02f0 83348100 		ld	s1,8(sp)
 539              		.cfi_restore 9
 540              	.LVL41:
 541 02f4 13010102 		addi	sp,sp,32
 542              		.cfi_def_cfa_offset 0
 543 02f8 67800000 		jr	ra
 544              	.LVL42:
 545              	.L33:
 546 02fc 67800000 		ret
 547              		.cfi_endproc
 548              	.LFE27:
 550              		.align	2
 551              		.globl	_ZN8KConsole18getCharacterOutputEv
 553              	_ZN8KConsole18getCharacterOutputEv:
GAS LISTING /tmp/ccSAmCRL.s 			page 14


 554              	.LFB32:
 121:src/KConsole.cpp **** 
 122:src/KConsole.cpp **** char KConsole::getCharacterOutput()
 123:src/KConsole.cpp **** {
 555              		.loc 1 123 1 is_stmt 1
 556              		.cfi_startproc
 557 0300 130101FF 		addi	sp,sp,-16
 558              		.cfi_def_cfa_offset 16
 559 0304 23341100 		sd	ra,8(sp)
 560 0308 23308100 		sd	s0,0(sp)
 561              		.cfi_offset 1, -8
 562              		.cfi_offset 8, -16
 563 030c 13040101 		addi	s0,sp,16
 564              		.cfi_def_cfa 8, 0
 124:src/KConsole.cpp ****     hasCharactersOutput->wait();
 565              		.loc 1 124 5
 566              		.loc 1 124 30 is_stmt 0
 567 0310 17050000 		ld	a0,.LANCHOR0+8
 567      03350500 
 568 0318 97000000 		call	_ZN10KSemaphore4waitEv@plt
 568      E7800000 
 569              	.LVL43:
 125:src/KConsole.cpp ****     return getChar(headOutput, tailOutput);
 570              		.loc 1 125 5 is_stmt 1
 571              		.loc 1 125 19 is_stmt 0
 572 0320 97050000 		lla	a1,.LANCHOR0+32
 572      93850500 
 573 0328 17050000 		lla	a0,.LANCHOR0+40
 573      13050500 
 574 0330 97000000 		call	_ZN8KConsole7getCharERPNS_4ElemES2_
 574      E7800000 
 575              	.LVL44:
 126:src/KConsole.cpp **** }
 576              		.loc 1 126 1
 577 0338 83308100 		ld	ra,8(sp)
 578              		.cfi_restore 1
 579 033c 03340100 		ld	s0,0(sp)
 580              		.cfi_restore 8
 581              		.cfi_def_cfa 2, 16
 582 0340 13010101 		addi	sp,sp,16
 583              		.cfi_def_cfa_offset 0
 584 0344 67800000 		jr	ra
 585              		.cfi_endproc
 586              	.LFE32:
 588              		.align	2
 589              		.globl	_ZN8KConsole23sendCharactersToConsoleEPv
 591              	_ZN8KConsole23sendCharactersToConsoleEPv:
 592              	.LFB28:
  84:src/KConsole.cpp ****     while(true)
 593              		.loc 1 84 1 is_stmt 1
 594              		.cfi_startproc
 595              	.LVL45:
 596              	.L41:
  85:src/KConsole.cpp ****     {
 597              		.loc 1 85 5
 598              	.LBB9:
  88:src/KConsole.cpp ****             __asm__ volatile("mv a0, %0"::"r"(x));
GAS LISTING /tmp/ccSAmCRL.s 			page 15


 599              		.loc 1 88 13
  88:src/KConsole.cpp ****             __asm__ volatile("mv a0, %0"::"r"(x));
 600              		.loc 1 88 20 is_stmt 0
 601 0348 97070000 		la	a5,CONSOLE_STATUS
 601      83B70700 
 602 0350 83B70700 		ld	a5,0(a5)
 603              	.LVL46:
  89:src/KConsole.cpp ****             __asm__ volatile("lb a1, 0(a0)");
 604              		.loc 1 89 13 is_stmt 1
  89:src/KConsole.cpp ****             __asm__ volatile("lb a1, 0(a0)");
 605              		.loc 1 89 50 is_stmt 0
 606              	#APP
 607              	# 89 "src/KConsole.cpp" 1
  90:src/KConsole.cpp ****             uint64 operation;
 608              		mv a0, a5
 609              	# 0 "" 2
 610              		.loc 1 90 13 is_stmt 1
  90:src/KConsole.cpp ****             uint64 operation;
 611              		.loc 1 90 45 is_stmt 0
 612              	# 90 "src/KConsole.cpp" 1
  91:src/KConsole.cpp ****             __asm__ volatile("mv %0, a1" :  "=r"(operation));
 613              		lb a1, 0(a0)
 614              	# 0 "" 2
 615              		.loc 1 91 13 is_stmt 1
  92:src/KConsole.cpp ****             if (operation & STATUS_WRITE_MASK)
 616              		.loc 1 92 13
  92:src/KConsole.cpp ****             if (operation & STATUS_WRITE_MASK)
 617              		.loc 1 92 61 is_stmt 0
 618              	# 92 "src/KConsole.cpp" 1
 619              		mv a5, a1
 620              	# 0 "" 2
 621              	.LVL47:
  93:src/KConsole.cpp ****             {
 622              		.loc 1 93 13 is_stmt 1
 623              	#NO_APP
 624              	.LBB10:
  93:src/KConsole.cpp ****             {
 625              		.loc 1 93 27 is_stmt 0
 626 0360 93F70702 		andi	a5,a5,32
 627              	.LVL48:
  93:src/KConsole.cpp ****             {
 628              		.loc 1 93 13
 629 0364 E38207FE 		beqz	a5,.L41
 630              	.LBE10:
 631              	.LBE9:
  84:src/KConsole.cpp ****     while(true)
 632              		.loc 1 84 1
 633 0368 130101FE 		addi	sp,sp,-32
 634              		.cfi_def_cfa_offset 32
 635 036c 233C1100 		sd	ra,24(sp)
 636 0370 23388100 		sd	s0,16(sp)
 637              		.cfi_offset 1, -8
 638              		.cfi_offset 8, -16
 639 0374 13040102 		addi	s0,sp,32
 640              		.cfi_def_cfa 8, 0
 641              	.LVL49:
 642              	.L40:
GAS LISTING /tmp/ccSAmCRL.s 			page 16


 643              	.LBB14:
 644              	.LBB12:
 645              	.LBB11:
  95:src/KConsole.cpp ****                 x = CONSOLE_RX_DATA;
 646              		.loc 1 95 17 is_stmt 1
  95:src/KConsole.cpp ****                 x = CONSOLE_RX_DATA;
 647              		.loc 1 95 53 is_stmt 0
 648 0378 97000000 		call	_ZN8KConsole18getCharacterOutputEv
 648      E7800000 
 649              	.LVL50:
  95:src/KConsole.cpp ****                 x = CONSOLE_RX_DATA;
 650              		.loc 1 95 54
 651 0380 A307A4FE 		sb	a0,-17(s0)
  96:src/KConsole.cpp ****                 __asm__ volatile("mv a0, %0"::"r"(x));
 652              		.loc 1 96 17 is_stmt 1
  96:src/KConsole.cpp ****                 __asm__ volatile("mv a0, %0"::"r"(x));
 653              		.loc 1 96 19 is_stmt 0
 654 0384 97070000 		la	a5,CONSOLE_RX_DATA
 654      83B70700 
 655 038c 83B70700 		ld	a5,0(a5)
 656              	.LVL51:
  97:src/KConsole.cpp ****                 __asm__ volatile("mv a1, %0" :  :"r"((uint64)c));
 657              		.loc 1 97 17 is_stmt 1
  97:src/KConsole.cpp ****                 __asm__ volatile("mv a1, %0" :  :"r"((uint64)c));
 658              		.loc 1 97 54 is_stmt 0
 659              	#APP
 660              	# 97 "src/KConsole.cpp" 1
  98:src/KConsole.cpp ****                 __asm__ volatile("sb a1,0(a0)");
 661              		mv a0, a5
 662              	# 0 "" 2
 663              		.loc 1 98 17 is_stmt 1
  98:src/KConsole.cpp ****                 __asm__ volatile("sb a1,0(a0)");
 664              		.loc 1 98 54 is_stmt 0
 665              	#NO_APP
 666 0394 8347F4FE 		lbu	a5,-17(s0)
 667              	.LVL52:
 668 0398 93F7F70F 		andi	a5,a5,0xff
  98:src/KConsole.cpp ****                 __asm__ volatile("sb a1,0(a0)");
 669              		.loc 1 98 65
 670              	#APP
 671              	# 98 "src/KConsole.cpp" 1
  99:src/KConsole.cpp ****             }
 672              		mv a1, a5
 673              	# 0 "" 2
 674              		.loc 1 99 17 is_stmt 1
  99:src/KConsole.cpp ****             }
 675              		.loc 1 99 48 is_stmt 0
 676              	# 99 "src/KConsole.cpp" 1
 677              		sb a1,0(a0)
 678              	# 0 "" 2
 679              	.LVL53:
 680              	#NO_APP
 681              	.L37:
 682              	.LBE11:
 683              	.LBE12:
 684              	.LBE14:
  85:src/KConsole.cpp ****     {
GAS LISTING /tmp/ccSAmCRL.s 			page 17


 685              		.loc 1 85 5 is_stmt 1
 686              	.LBB15:
  88:src/KConsole.cpp ****             __asm__ volatile("mv a0, %0"::"r"(x));
 687              		.loc 1 88 13
  88:src/KConsole.cpp ****             __asm__ volatile("mv a0, %0"::"r"(x));
 688              		.loc 1 88 20 is_stmt 0
 689 03a4 97070000 		la	a5,CONSOLE_STATUS
 689      83B70700 
 690 03ac 83B70700 		ld	a5,0(a5)
 691              	.LVL54:
  89:src/KConsole.cpp ****             __asm__ volatile("lb a1, 0(a0)");
 692              		.loc 1 89 13 is_stmt 1
  89:src/KConsole.cpp ****             __asm__ volatile("lb a1, 0(a0)");
 693              		.loc 1 89 50 is_stmt 0
 694              	#APP
 695              	# 89 "src/KConsole.cpp" 1
  90:src/KConsole.cpp ****             uint64 operation;
 696              		mv a0, a5
 697              	# 0 "" 2
 698              		.loc 1 90 13 is_stmt 1
  90:src/KConsole.cpp ****             uint64 operation;
 699              		.loc 1 90 45 is_stmt 0
 700              	# 90 "src/KConsole.cpp" 1
  91:src/KConsole.cpp ****             __asm__ volatile("mv %0, a1" :  "=r"(operation));
 701              		lb a1, 0(a0)
 702              	# 0 "" 2
 703              		.loc 1 91 13 is_stmt 1
  92:src/KConsole.cpp ****             if (operation & STATUS_WRITE_MASK)
 704              		.loc 1 92 13
  92:src/KConsole.cpp ****             if (operation & STATUS_WRITE_MASK)
 705              		.loc 1 92 61 is_stmt 0
 706              	# 92 "src/KConsole.cpp" 1
 707              		mv a5, a1
 708              	# 0 "" 2
 709              	.LVL55:
  93:src/KConsole.cpp ****             {
 710              		.loc 1 93 13 is_stmt 1
 711              	#NO_APP
 712              	.LBB13:
  93:src/KConsole.cpp ****             {
 713              		.loc 1 93 27 is_stmt 0
 714 03bc 93F70702 		andi	a5,a5,32
 715              	.LVL56:
  93:src/KConsole.cpp ****             {
 716              		.loc 1 93 13
 717 03c0 E38207FE 		beqz	a5,.L37
 718 03c4 6FF05FFB 		j	.L40
 719              	.LBE13:
 720              	.LBE15:
 721              		.cfi_endproc
 722              	.LFE28:
 724              		.align	2
 725              		.globl	_ZN8KConsole11putcHandlerEv
 727              	_ZN8KConsole11putcHandlerEv:
 728              	.LFB33:
 127:src/KConsole.cpp **** 
 128:src/KConsole.cpp **** void KConsole::putcHandler()
GAS LISTING /tmp/ccSAmCRL.s 			page 18


 129:src/KConsole.cpp **** {
 729              		.loc 1 129 1 is_stmt 1
 730              		.cfi_startproc
 731 03c8 130101FF 		addi	sp,sp,-16
 732              		.cfi_def_cfa_offset 16
 733 03cc 23341100 		sd	ra,8(sp)
 734 03d0 23308100 		sd	s0,0(sp)
 735              		.cfi_offset 1, -8
 736              		.cfi_offset 8, -16
 737 03d4 13040101 		addi	s0,sp,16
 738              		.cfi_def_cfa 8, 0
 130:src/KConsole.cpp ****     uint64 ch;
 739              		.loc 1 130 5
 131:src/KConsole.cpp ****     __asm__ volatile("mv %0, a1" : "=r"(ch));
 740              		.loc 1 131 5
 741              		.loc 1 131 45 is_stmt 0
 742              	#APP
 743              	# 131 "src/KConsole.cpp" 1
 132              	    putCharacterOutput((char)ch);
 744              		mv a0, a1
 745              	# 0 "" 2
 746              	.LVL57:
 747              		.loc 1 132 5 is_stmt 1
 748              		.loc 1 132 23 is_stmt 0
 749              	#NO_APP
 750 03dc 1375F50F 		andi	a0,a0,0xff
 751              	.LVL58:
 752 03e0 97000000 		call	_ZN8KConsole18putCharacterOutputEc
 752      E7800000 
 753              	.LVL59:
 133:src/KConsole.cpp ****     Elem* curr = headOutput;
 754              		.loc 1 133 5 is_stmt 1
 755              		.loc 1 133 11 is_stmt 0
 756 03e8 97070000 		ld	a5,.LANCHOR0+40
 756      83B70700 
 757              	.LVL60:
 758              	.L44:
 134:src/KConsole.cpp ****     while(curr != 0)
 759              		.loc 1 134 5 is_stmt 1
 760              		.loc 1 134 16
 761 03f0 63860700 		beqz	a5,.L42
 135:src/KConsole.cpp ****     {
 136:src/KConsole.cpp ****         curr = curr->next;
 762              		.loc 1 136 9
 763              		.loc 1 136 14 is_stmt 0
 764 03f4 83B70700 		ld	a5,0(a5)
 765              	.LVL61:
 134:src/KConsole.cpp ****     while(curr != 0)
 766              		.loc 1 134 5
 767 03f8 6FF09FFF 		j	.L44
 768              	.L42:
 137:src/KConsole.cpp ****     }
 138:src/KConsole.cpp **** }
 769              		.loc 1 138 1
 770 03fc 83308100 		ld	ra,8(sp)
 771              		.cfi_restore 1
 772 0400 03340100 		ld	s0,0(sp)
GAS LISTING /tmp/ccSAmCRL.s 			page 19


 773              		.cfi_restore 8
 774              		.cfi_def_cfa 2, 16
 775 0404 13010101 		addi	sp,sp,16
 776              		.cfi_def_cfa_offset 0
 777 0408 67800000 		jr	ra
 778              		.cfi_endproc
 779              	.LFE33:
 781              		.align	2
 782              		.globl	_ZN8KConsole11getcHandlerEv
 784              	_ZN8KConsole11getcHandlerEv:
 785              	.LFB34:
 139:src/KConsole.cpp **** 
 140:src/KConsole.cpp **** void KConsole::getcHandler()
 141:src/KConsole.cpp **** {
 786              		.loc 1 141 1 is_stmt 1
 787              		.cfi_startproc
 788 040c 130101FF 		addi	sp,sp,-16
 789              		.cfi_def_cfa_offset 16
 790 0410 23341100 		sd	ra,8(sp)
 791 0414 23308100 		sd	s0,0(sp)
 792              		.cfi_offset 1, -8
 793              		.cfi_offset 8, -16
 794 0418 13040101 		addi	s0,sp,16
 795              		.cfi_def_cfa 8, 0
 142:src/KConsole.cpp ****     char ch;
 796              		.loc 1 142 5
 143:src/KConsole.cpp ****     ch = getCharacterInput();
 797              		.loc 1 143 5
 798              		.loc 1 143 27 is_stmt 0
 799 041c 97000000 		call	_ZN8KConsole17getCharacterInputEv
 799      E7800000 
 800              	.LVL62:
 144:src/KConsole.cpp ****     __asm__ volatile("mv a0, %0" : :"r"((uint64)ch));
 801              		.loc 1 144 5 is_stmt 1
 802              		.loc 1 144 53 is_stmt 0
 803              	#APP
 804              	# 144 "src/KConsole.cpp" 1
 145              	}
 805              		mv a0, a0
 806              	# 0 "" 2
 807              		.loc 1 145 1
 808              	#NO_APP
 809 0428 83308100 		ld	ra,8(sp)
 810              		.cfi_restore 1
 811 042c 03340100 		ld	s0,0(sp)
 812              		.cfi_restore 8
 813              		.cfi_def_cfa 2, 16
 814 0430 13010101 		addi	sp,sp,16
 815              		.cfi_def_cfa_offset 0
 816 0434 67800000 		jr	ra
 817              		.cfi_endproc
 818              	.LFE34:
 820              		.align	2
 821              		.globl	_ZN8KConsole11printBufferEv
 823              	_ZN8KConsole11printBufferEv:
 824              	.LFB35:
 146:src/KConsole.cpp **** 
GAS LISTING /tmp/ccSAmCRL.s 			page 20


 147:src/KConsole.cpp **** void KConsole::printBuffer()
 148:src/KConsole.cpp **** {
 825              		.loc 1 148 1 is_stmt 1
 826              		.cfi_startproc
 827 0438 130101FE 		addi	sp,sp,-32
 828              		.cfi_def_cfa_offset 32
 829 043c 233C1100 		sd	ra,24(sp)
 830 0440 23388100 		sd	s0,16(sp)
 831 0444 23349100 		sd	s1,8(sp)
 832              		.cfi_offset 1, -8
 833              		.cfi_offset 8, -16
 834              		.cfi_offset 9, -24
 835 0448 13040102 		addi	s0,sp,32
 836              		.cfi_def_cfa 8, 0
 149:src/KConsole.cpp ****     Elem* curr = headInput;
 837              		.loc 1 149 5
 838              		.loc 1 149 11 is_stmt 0
 839 044c 97040000 		ld	s1,.LANCHOR0+24
 839      83B40400 
 840              	.LVL63:
 841              	.L50:
 150:src/KConsole.cpp ****     while(curr != 0)
 842              		.loc 1 150 5 is_stmt 1
 843              		.loc 1 150 16
 844 0454 638C0400 		beqz	s1,.L48
 151:src/KConsole.cpp ****     {
 152:src/KConsole.cpp ****         putc(curr->data);
 845              		.loc 1 152 9
 846              		.loc 1 152 13 is_stmt 0
 847 0458 03C58400 		lbu	a0,8(s1)
 848 045c 97000000 		call	putc@plt
 848      E7800000 
 849              	.LVL64:
 153:src/KConsole.cpp ****         curr = curr->next;
 850              		.loc 1 153 9 is_stmt 1
 851              		.loc 1 153 14 is_stmt 0
 852 0464 83B40400 		ld	s1,0(s1)
 853              	.LVL65:
 150:src/KConsole.cpp ****     while(curr != 0)
 854              		.loc 1 150 5
 855 0468 6FF0DFFE 		j	.L50
 856              	.L48:
 154:src/KConsole.cpp ****     }
 155:src/KConsole.cpp **** }
 857              		.loc 1 155 1
 858 046c 83308101 		ld	ra,24(sp)
 859              		.cfi_restore 1
 860 0470 03340101 		ld	s0,16(sp)
 861              		.cfi_restore 8
 862              		.cfi_def_cfa 2, 32
 863 0474 83348100 		ld	s1,8(sp)
 864              		.cfi_restore 9
 865              	.LVL66:
 866 0478 13010102 		addi	sp,sp,32
 867              		.cfi_def_cfa_offset 0
 868 047c 67800000 		jr	ra
 869              		.cfi_endproc
GAS LISTING /tmp/ccSAmCRL.s 			page 21


 870              	.LFE35:
 872              		.globl	_ZN8KConsole13cntWInterruptE
 873              		.globl	_ZN8KConsole18hasCharactersInputE
 874              		.globl	_ZN8KConsole19hasCharactersOutputE
 875              		.globl	_ZN8KConsole10tailOutputE
 876              		.globl	_ZN8KConsole10headOutputE
 877              		.globl	_ZN8KConsole9tailInputE
 878              		.globl	_ZN8KConsole9headInputE
 879              		.bss
 880              		.align	3
 881              		.set	.LANCHOR0,. + 0
 884              	_ZN8KConsole18hasCharactersInputE:
 885 0000 00000000 		.zero	8
 885      00000000 
 888              	_ZN8KConsole19hasCharactersOutputE:
 889 0008 00000000 		.zero	8
 889      00000000 
 892              	_ZN8KConsole9tailInputE:
 893 0010 00000000 		.zero	8
 893      00000000 
 896              	_ZN8KConsole9headInputE:
 897 0018 00000000 		.zero	8
 897      00000000 
 900              	_ZN8KConsole10tailOutputE:
 901 0020 00000000 		.zero	8
 901      00000000 
 904              	_ZN8KConsole10headOutputE:
 905 0028 00000000 		.zero	8
 905      00000000 
 908              	_ZN8KConsole13cntWInterruptE:
 909 0030 00000000 		.zero	4
 910              		.text
 911              	.Letext0:
 912              		.file 2 "src/../h/../lib/hw.h"
 913              		.file 3 "src/../h/PCB.hpp"
 914              		.file 4 "src/../h/KSemaphore.hpp"
 915              		.file 5 "src/../h/KConsole.hpp"
 916              		.file 6 "src/../h/syscall_c.h"
 917              		.file 7 "src/../h/MemoryAllocator.hpp"
 4197              		.align	3
 4200              	DW.ref.__gxx_personality_v0:
 4201 0000 00000000 		.dword	__gxx_personality_v0
 4201      00000000 
 4202              		.ident	"GCC: (Ubuntu 9.3.0-17ubuntu1~20.04) 9.3.0"
 4203              		.section	.note.GNU-stack,"",@progbits
GAS LISTING /tmp/ccSAmCRL.s 			page 22


DEFINED SYMBOLS
                            *ABS*:0000000000000000 KConsole.cpp
     /tmp/ccSAmCRL.s:9      .text:0000000000000000 _ZN8KConsole7putCharEcRPNS_4ElemES2_
     /tmp/ccSAmCRL.s:13     .text:0000000000000000 .L0 
     /tmp/ccSAmCRL.s:15     .text:0000000000000000 .L0 
     /tmp/ccSAmCRL.s:16     .text:0000000000000004 .L0 
     /tmp/ccSAmCRL.s:22     .text:0000000000000018 .L0 
     /tmp/ccSAmCRL.s:23     .text:0000000000000018 .L0 
     /tmp/ccSAmCRL.s:24     .text:0000000000000018 .L0 
     /tmp/ccSAmCRL.s:25     .text:0000000000000018 .L0 
     /tmp/ccSAmCRL.s:26     .text:0000000000000018 .L0 
     /tmp/ccSAmCRL.s:28     .text:000000000000001c .L0 
     /tmp/ccSAmCRL.s:33     .text:0000000000000028 .L0 
     /tmp/ccSAmCRL.s:34     .text:0000000000000028 .L0 
     /tmp/ccSAmCRL.s:39     .text:0000000000000034 .L0 
     /tmp/ccSAmCRL.s:40     .text:0000000000000034 .L0 
     /tmp/ccSAmCRL.s:42     .text:0000000000000038 .L0 
     /tmp/ccSAmCRL.s:43     .text:0000000000000038 .L0 
     /tmp/ccSAmCRL.s:45     .text:000000000000003c .L0 
     /tmp/ccSAmCRL.s:46     .text:000000000000003c .L0 
     /tmp/ccSAmCRL.s:48     .text:0000000000000040 .L0 
     /tmp/ccSAmCRL.s:50     .text:0000000000000044 .L0 
     /tmp/ccSAmCRL.s:52     .text:0000000000000048 .L0 
     /tmp/ccSAmCRL.s:54     .text:000000000000004c .L0 
     /tmp/ccSAmCRL.s:55     .text:000000000000004c .L0 
     /tmp/ccSAmCRL.s:58     .text:0000000000000050 .L0 
     /tmp/ccSAmCRL.s:59     .text:0000000000000054 .L0 
     /tmp/ccSAmCRL.s:60     .text:0000000000000054 .L0 
     /tmp/ccSAmCRL.s:62     .text:0000000000000058 .L0 
     /tmp/ccSAmCRL.s:63     .text:0000000000000058 .L0 
     /tmp/ccSAmCRL.s:65     .text:000000000000005c .L0 
     /tmp/ccSAmCRL.s:68     .text:0000000000000060 .L0 
     /tmp/ccSAmCRL.s:71     .text:0000000000000064 .L0 
     /tmp/ccSAmCRL.s:73     .text:0000000000000068 .L0 
     /tmp/ccSAmCRL.s:77     .text:000000000000006c .L0 
     /tmp/ccSAmCRL.s:79     .text:000000000000006c .L0 
     /tmp/ccSAmCRL.s:80     .text:000000000000006c .L0 
     /tmp/ccSAmCRL.s:82     .text:0000000000000070 .L0 
     /tmp/ccSAmCRL.s:84     .text:0000000000000078 .L0 
     /tmp/ccSAmCRL.s:90     .text:0000000000000078 _ZN8KConsole7getCharERPNS_4ElemES2_
     /tmp/ccSAmCRL.s:93     .text:0000000000000078 .L0 
     /tmp/ccSAmCRL.s:95     .text:0000000000000078 .L0 
     /tmp/ccSAmCRL.s:96     .text:000000000000007c .L0 
     /tmp/ccSAmCRL.s:100    .text:0000000000000088 .L0 
     /tmp/ccSAmCRL.s:101    .text:0000000000000088 .L0 
     /tmp/ccSAmCRL.s:102    .text:0000000000000088 .L0 
     /tmp/ccSAmCRL.s:104    .text:000000000000008c .L0 
     /tmp/ccSAmCRL.s:107    .text:0000000000000090 .L0 
     /tmp/ccSAmCRL.s:108    .text:0000000000000090 .L0 
     /tmp/ccSAmCRL.s:111    .text:0000000000000094 .L0 
     /tmp/ccSAmCRL.s:114    .text:0000000000000098 .L0 
     /tmp/ccSAmCRL.s:115    .text:0000000000000098 .L0 
     /tmp/ccSAmCRL.s:116    .text:0000000000000098 .L0 
     /tmp/ccSAmCRL.s:118    .text:000000000000009c .L0 
     /tmp/ccSAmCRL.s:120    .text:00000000000000a0 .L0 
     /tmp/ccSAmCRL.s:123    .text:00000000000000a4 .L0 
     /tmp/ccSAmCRL.s:124    .text:00000000000000a4 .L0 
GAS LISTING /tmp/ccSAmCRL.s 			page 23


     /tmp/ccSAmCRL.s:127    .text:00000000000000a8 .L0 
     /tmp/ccSAmCRL.s:128    .text:00000000000000a8 .L0 
     /tmp/ccSAmCRL.s:132    .text:00000000000000b0 .L0 
     /tmp/ccSAmCRL.s:133    .text:00000000000000b0 .L0 
     /tmp/ccSAmCRL.s:135    .text:00000000000000b8 .L0 
     /tmp/ccSAmCRL.s:136    .text:00000000000000b8 .L0 
     /tmp/ccSAmCRL.s:138    .text:00000000000000bc .L0 
     /tmp/ccSAmCRL.s:139    .text:00000000000000bc .L0 
     /tmp/ccSAmCRL.s:141    .text:00000000000000c0 .L0 
     /tmp/ccSAmCRL.s:143    .text:00000000000000c4 .L0 
     /tmp/ccSAmCRL.s:147    .text:00000000000000c8 .L0 
     /tmp/ccSAmCRL.s:149    .text:00000000000000c8 .L0 
     /tmp/ccSAmCRL.s:150    .text:00000000000000c8 .L0 
     /tmp/ccSAmCRL.s:155    .text:00000000000000d0 .L0 
     /tmp/ccSAmCRL.s:157    .text:00000000000000d8 .L0 
     /tmp/ccSAmCRL.s:163    .text:00000000000000d8 _ZN8KConsole10initializeEv
     /tmp/ccSAmCRL.s:166    .text:00000000000000d8 .L0 
     /tmp/ccSAmCRL.s:4200   .data.rel.local.DW.ref.__gxx_personality_v0:0000000000000000 DW.ref.__gxx_personality_v0
     /tmp/ccSAmCRL.s:169    .text:00000000000000d8 .L0 
     /tmp/ccSAmCRL.s:170    .text:00000000000000dc .L0 
     /tmp/ccSAmCRL.s:175    .text:00000000000000ec .L0 
     /tmp/ccSAmCRL.s:176    .text:00000000000000ec .L0 
     /tmp/ccSAmCRL.s:177    .text:00000000000000ec .L0 
     /tmp/ccSAmCRL.s:178    .text:00000000000000ec .L0 
     /tmp/ccSAmCRL.s:180    .text:00000000000000f0 .L0 
     /tmp/ccSAmCRL.s:182    .text:00000000000000f0 .L0 
     /tmp/ccSAmCRL.s:183    .text:00000000000000f0 .L0 
     /tmp/ccSAmCRL.s:195    .text:000000000000010c .L0 
     /tmp/ccSAmCRL.s:197    .text:0000000000000114 .L0 
     /tmp/ccSAmCRL.s:198    .text:0000000000000114 .L0 
     /tmp/ccSAmCRL.s:210    .text:0000000000000130 .L0 
     /tmp/ccSAmCRL.s:212    .text:0000000000000138 .L0 
     /tmp/ccSAmCRL.s:213    .text:000000000000013c .L0 
     /tmp/ccSAmCRL.s:214    .text:000000000000013c .L0 
     /tmp/ccSAmCRL.s:216    .text:0000000000000140 .L0 
     /tmp/ccSAmCRL.s:217    .text:0000000000000140 .L0 
     /tmp/ccSAmCRL.s:219    .text:0000000000000144 .L0 
     /tmp/ccSAmCRL.s:221    .text:0000000000000148 .L0 
     /tmp/ccSAmCRL.s:223    .text:000000000000014c .L0 
     /tmp/ccSAmCRL.s:226    .text:0000000000000150 .L0 
     /tmp/ccSAmCRL.s:229    .text:0000000000000154 .L0 
     /tmp/ccSAmCRL.s:240    .text:0000000000000170 .L0 
     /tmp/ccSAmCRL.s:248    .text:0000000000000188 .L0 
     /tmp/ccSAmCRL.s:286    .text:0000000000000188 _ZN8KConsole17putCharacterInputEc
     /tmp/ccSAmCRL.s:289    .text:0000000000000188 .L0 
     /tmp/ccSAmCRL.s:291    .text:0000000000000188 .L0 
     /tmp/ccSAmCRL.s:292    .text:000000000000018c .L0 
     /tmp/ccSAmCRL.s:295    .text:0000000000000194 .L0 
     /tmp/ccSAmCRL.s:296    .text:0000000000000194 .L0 
     /tmp/ccSAmCRL.s:298    .text:0000000000000198 .L0 
     /tmp/ccSAmCRL.s:300    .text:0000000000000198 .L0 
     /tmp/ccSAmCRL.s:301    .text:0000000000000198 .L0 
     /tmp/ccSAmCRL.s:306    .text:00000000000001b0 .L0 
     /tmp/ccSAmCRL.s:307    .text:00000000000001b0 .L0 
     /tmp/ccSAmCRL.s:311    .text:00000000000001c0 .L0 
     /tmp/ccSAmCRL.s:312    .text:00000000000001c4 .L0 
     /tmp/ccSAmCRL.s:314    .text:00000000000001c8 .L0 
GAS LISTING /tmp/ccSAmCRL.s 			page 24


     /tmp/ccSAmCRL.s:315    .text:00000000000001c8 .L0 
     /tmp/ccSAmCRL.s:317    .text:00000000000001cc .L0 
     /tmp/ccSAmCRL.s:319    .text:00000000000001d0 .L0 
     /tmp/ccSAmCRL.s:325    .text:00000000000001d0 _ZN8KConsole17getCharacterInputEv
     /tmp/ccSAmCRL.s:328    .text:00000000000001d0 .L0 
     /tmp/ccSAmCRL.s:329    .text:00000000000001d0 .L0 
     /tmp/ccSAmCRL.s:330    .text:00000000000001d4 .L0 
     /tmp/ccSAmCRL.s:333    .text:00000000000001dc .L0 
     /tmp/ccSAmCRL.s:334    .text:00000000000001dc .L0 
     /tmp/ccSAmCRL.s:336    .text:00000000000001e0 .L0 
     /tmp/ccSAmCRL.s:338    .text:00000000000001e0 .L0 
     /tmp/ccSAmCRL.s:339    .text:00000000000001e0 .L0 
     /tmp/ccSAmCRL.s:343    .text:00000000000001f0 .L0 
     /tmp/ccSAmCRL.s:344    .text:00000000000001f0 .L0 
     /tmp/ccSAmCRL.s:349    .text:0000000000000208 .L0 
     /tmp/ccSAmCRL.s:350    .text:000000000000020c .L0 
     /tmp/ccSAmCRL.s:352    .text:0000000000000210 .L0 
     /tmp/ccSAmCRL.s:353    .text:0000000000000210 .L0 
     /tmp/ccSAmCRL.s:355    .text:0000000000000214 .L0 
     /tmp/ccSAmCRL.s:357    .text:0000000000000218 .L0 
     /tmp/ccSAmCRL.s:363    .text:0000000000000218 _ZN8KConsole18putCharacterOutputEc
     /tmp/ccSAmCRL.s:366    .text:0000000000000218 .L0 
     /tmp/ccSAmCRL.s:368    .text:0000000000000218 .L0 
     /tmp/ccSAmCRL.s:369    .text:000000000000021c .L0 
     /tmp/ccSAmCRL.s:372    .text:0000000000000224 .L0 
     /tmp/ccSAmCRL.s:373    .text:0000000000000224 .L0 
     /tmp/ccSAmCRL.s:375    .text:0000000000000228 .L0 
     /tmp/ccSAmCRL.s:377    .text:0000000000000228 .L0 
     /tmp/ccSAmCRL.s:378    .text:0000000000000228 .L0 
     /tmp/ccSAmCRL.s:383    .text:0000000000000240 .L0 
     /tmp/ccSAmCRL.s:384    .text:0000000000000240 .L0 
     /tmp/ccSAmCRL.s:388    .text:0000000000000250 .L0 
     /tmp/ccSAmCRL.s:389    .text:0000000000000254 .L0 
     /tmp/ccSAmCRL.s:391    .text:0000000000000258 .L0 
     /tmp/ccSAmCRL.s:392    .text:0000000000000258 .L0 
     /tmp/ccSAmCRL.s:394    .text:000000000000025c .L0 
     /tmp/ccSAmCRL.s:396    .text:0000000000000260 .L0 
     /tmp/ccSAmCRL.s:402    .text:0000000000000260 _ZN8KConsole24getCharactersFromConsoleEPv
     /tmp/ccSAmCRL.s:405    .text:0000000000000260 .L0 
     /tmp/ccSAmCRL.s:407    .text:0000000000000260 .L0 
     /tmp/ccSAmCRL.s:409    .text:0000000000000260 .L0 
     /tmp/ccSAmCRL.s:410    .text:0000000000000260 .L0 
     /tmp/ccSAmCRL.s:411    .text:0000000000000260 .L0 
     /tmp/ccSAmCRL.s:415    .text:000000000000026c .L0 
    src/KConsole.cpp:63     .text:000000000000026c .L0 
     /tmp/ccSAmCRL.s:421    .text:0000000000000270 .L0 
    src/KConsole.cpp:64     .text:0000000000000270 .L0 
     /tmp/ccSAmCRL.s:426    .text:0000000000000274 .L0 
     /tmp/ccSAmCRL.s:427    .text:0000000000000274 .L0 
    src/KConsole.cpp:66     .text:0000000000000274 .L0 
     /tmp/ccSAmCRL.s:435    .text:0000000000000278 .L0 
     /tmp/ccSAmCRL.s:436    .text:0000000000000278 .L0 
     /tmp/ccSAmCRL.s:439    .text:000000000000027c .L0 
     /tmp/ccSAmCRL.s:443    .text:0000000000000280 .L0 
     /tmp/ccSAmCRL.s:444    .text:0000000000000284 .L0 
     /tmp/ccSAmCRL.s:448    .text:0000000000000290 .L0 
     /tmp/ccSAmCRL.s:449    .text:0000000000000290 .L0 
GAS LISTING /tmp/ccSAmCRL.s 			page 25


     /tmp/ccSAmCRL.s:450    .text:0000000000000290 .L0 
     /tmp/ccSAmCRL.s:452    .text:0000000000000294 .L0 
     /tmp/ccSAmCRL.s:459    .text:0000000000000294 .L0 
     /tmp/ccSAmCRL.s:460    .text:0000000000000294 .L0 
     /tmp/ccSAmCRL.s:464    .text:00000000000002a0 .L0 
    src/KConsole.cpp:70     .text:00000000000002a0 .L0 
     /tmp/ccSAmCRL.s:470    .text:00000000000002a4 .L0 
    src/KConsole.cpp:71     .text:00000000000002a4 .L0 
     /tmp/ccSAmCRL.s:475    .text:00000000000002a8 .L0 
     /tmp/ccSAmCRL.s:476    .text:00000000000002a8 .L0 
    src/KConsole.cpp:73     .text:00000000000002a8 .L0 
     /tmp/ccSAmCRL.s:484    .text:00000000000002b0 .L0 
     /tmp/ccSAmCRL.s:485    .text:00000000000002b0 .L0 
     /tmp/ccSAmCRL.s:489    .text:00000000000002bc .L0 
     /tmp/ccSAmCRL.s:490    .text:00000000000002bc .L0 
     /tmp/ccSAmCRL.s:497    .text:00000000000002c8 .L0 
     /tmp/ccSAmCRL.s:499    .text:00000000000002c8 .L0 
     /tmp/ccSAmCRL.s:500    .text:00000000000002c8 .L0 
     /tmp/ccSAmCRL.s:501    .text:00000000000002c8 .L0 
     /tmp/ccSAmCRL.s:505    .text:00000000000002d4 .L0 
    src/KConsole.cpp:63     .text:00000000000002d4 .L0 
     /tmp/ccSAmCRL.s:511    .text:00000000000002d8 .L0 
    src/KConsole.cpp:64     .text:00000000000002d8 .L0 
     /tmp/ccSAmCRL.s:516    .text:00000000000002dc .L0 
     /tmp/ccSAmCRL.s:517    .text:00000000000002dc .L0 
    src/KConsole.cpp:66     .text:00000000000002dc .L0 
     /tmp/ccSAmCRL.s:525    .text:00000000000002e0 .L0 
     /tmp/ccSAmCRL.s:526    .text:00000000000002e0 .L0 
     /tmp/ccSAmCRL.s:529    .text:00000000000002e4 .L0 
     /tmp/ccSAmCRL.s:533    .text:00000000000002e8 .L0 
     /tmp/ccSAmCRL.s:534    .text:00000000000002ec .L0 
     /tmp/ccSAmCRL.s:536    .text:00000000000002f0 .L0 
     /tmp/ccSAmCRL.s:537    .text:00000000000002f0 .L0 
     /tmp/ccSAmCRL.s:539    .text:00000000000002f4 .L0 
     /tmp/ccSAmCRL.s:542    .text:00000000000002f8 .L0 
     /tmp/ccSAmCRL.s:547    .text:0000000000000300 .L0 
     /tmp/ccSAmCRL.s:553    .text:0000000000000300 _ZN8KConsole18getCharacterOutputEv
     /tmp/ccSAmCRL.s:556    .text:0000000000000300 .L0 
     /tmp/ccSAmCRL.s:557    .text:0000000000000300 .L0 
     /tmp/ccSAmCRL.s:558    .text:0000000000000304 .L0 
     /tmp/ccSAmCRL.s:561    .text:000000000000030c .L0 
     /tmp/ccSAmCRL.s:562    .text:000000000000030c .L0 
     /tmp/ccSAmCRL.s:564    .text:0000000000000310 .L0 
     /tmp/ccSAmCRL.s:566    .text:0000000000000310 .L0 
     /tmp/ccSAmCRL.s:567    .text:0000000000000310 .L0 
     /tmp/ccSAmCRL.s:571    .text:0000000000000320 .L0 
     /tmp/ccSAmCRL.s:572    .text:0000000000000320 .L0 
     /tmp/ccSAmCRL.s:577    .text:0000000000000338 .L0 
     /tmp/ccSAmCRL.s:578    .text:000000000000033c .L0 
     /tmp/ccSAmCRL.s:580    .text:0000000000000340 .L0 
     /tmp/ccSAmCRL.s:581    .text:0000000000000340 .L0 
     /tmp/ccSAmCRL.s:583    .text:0000000000000344 .L0 
     /tmp/ccSAmCRL.s:585    .text:0000000000000348 .L0 
     /tmp/ccSAmCRL.s:591    .text:0000000000000348 _ZN8KConsole23sendCharactersToConsoleEPv
     /tmp/ccSAmCRL.s:594    .text:0000000000000348 .L0 
     /tmp/ccSAmCRL.s:597    .text:0000000000000348 .L0 
     /tmp/ccSAmCRL.s:599    .text:0000000000000348 .L0 
GAS LISTING /tmp/ccSAmCRL.s 			page 26


     /tmp/ccSAmCRL.s:600    .text:0000000000000348 .L0 
     /tmp/ccSAmCRL.s:601    .text:0000000000000348 .L0 
     /tmp/ccSAmCRL.s:605    .text:0000000000000354 .L0 
    src/KConsole.cpp:89     .text:0000000000000354 .L0 
     /tmp/ccSAmCRL.s:611    .text:0000000000000358 .L0 
    src/KConsole.cpp:90     .text:0000000000000358 .L0 
     /tmp/ccSAmCRL.s:616    .text:000000000000035c .L0 
     /tmp/ccSAmCRL.s:617    .text:000000000000035c .L0 
    src/KConsole.cpp:92     .text:000000000000035c .L0 
     /tmp/ccSAmCRL.s:625    .text:0000000000000360 .L0 
     /tmp/ccSAmCRL.s:626    .text:0000000000000360 .L0 
     /tmp/ccSAmCRL.s:629    .text:0000000000000364 .L0 
     /tmp/ccSAmCRL.s:633    .text:0000000000000368 .L0 
     /tmp/ccSAmCRL.s:634    .text:000000000000036c .L0 
     /tmp/ccSAmCRL.s:637    .text:0000000000000374 .L0 
     /tmp/ccSAmCRL.s:638    .text:0000000000000374 .L0 
     /tmp/ccSAmCRL.s:640    .text:0000000000000378 .L0 
     /tmp/ccSAmCRL.s:647    .text:0000000000000378 .L0 
     /tmp/ccSAmCRL.s:648    .text:0000000000000378 .L0 
     /tmp/ccSAmCRL.s:651    .text:0000000000000380 .L0 
     /tmp/ccSAmCRL.s:653    .text:0000000000000384 .L0 
     /tmp/ccSAmCRL.s:654    .text:0000000000000384 .L0 
     /tmp/ccSAmCRL.s:658    .text:0000000000000390 .L0 
    src/KConsole.cpp:97     .text:0000000000000390 .L0 
     /tmp/ccSAmCRL.s:664    .text:0000000000000394 .L0 
     /tmp/ccSAmCRL.s:666    .text:0000000000000394 .L0 
    src/KConsole.cpp:98     .text:000000000000039c .L0 
     /tmp/ccSAmCRL.s:675    .text:00000000000003a0 .L0 
    src/KConsole.cpp:99     .text:00000000000003a0 .L0 
     /tmp/ccSAmCRL.s:687    .text:00000000000003a4 .L0 
     /tmp/ccSAmCRL.s:688    .text:00000000000003a4 .L0 
     /tmp/ccSAmCRL.s:689    .text:00000000000003a4 .L0 
     /tmp/ccSAmCRL.s:693    .text:00000000000003b0 .L0 
    src/KConsole.cpp:89     .text:00000000000003b0 .L0 
     /tmp/ccSAmCRL.s:699    .text:00000000000003b4 .L0 
    src/KConsole.cpp:90     .text:00000000000003b4 .L0 
     /tmp/ccSAmCRL.s:704    .text:00000000000003b8 .L0 
     /tmp/ccSAmCRL.s:705    .text:00000000000003b8 .L0 
    src/KConsole.cpp:92     .text:00000000000003b8 .L0 
     /tmp/ccSAmCRL.s:713    .text:00000000000003bc .L0 
     /tmp/ccSAmCRL.s:714    .text:00000000000003bc .L0 
     /tmp/ccSAmCRL.s:717    .text:00000000000003c0 .L0 
     /tmp/ccSAmCRL.s:721    .text:00000000000003c8 .L0 
     /tmp/ccSAmCRL.s:727    .text:00000000000003c8 _ZN8KConsole11putcHandlerEv
     /tmp/ccSAmCRL.s:730    .text:00000000000003c8 .L0 
     /tmp/ccSAmCRL.s:731    .text:00000000000003c8 .L0 
     /tmp/ccSAmCRL.s:732    .text:00000000000003cc .L0 
     /tmp/ccSAmCRL.s:735    .text:00000000000003d4 .L0 
     /tmp/ccSAmCRL.s:736    .text:00000000000003d4 .L0 
     /tmp/ccSAmCRL.s:738    .text:00000000000003d8 .L0 
     /tmp/ccSAmCRL.s:740    .text:00000000000003d8 .L0 
     /tmp/ccSAmCRL.s:741    .text:00000000000003d8 .L0 
    src/KConsole.cpp:131    .text:00000000000003d8 .L0 
     /tmp/ccSAmCRL.s:748    .text:00000000000003dc .L0 
     /tmp/ccSAmCRL.s:750    .text:00000000000003dc .L0 
     /tmp/ccSAmCRL.s:755    .text:00000000000003e8 .L0 
     /tmp/ccSAmCRL.s:756    .text:00000000000003e8 .L0 
GAS LISTING /tmp/ccSAmCRL.s 			page 27


     /tmp/ccSAmCRL.s:760    .text:00000000000003f0 .L0 
     /tmp/ccSAmCRL.s:761    .text:00000000000003f0 .L0 
     /tmp/ccSAmCRL.s:763    .text:00000000000003f4 .L0 
     /tmp/ccSAmCRL.s:764    .text:00000000000003f4 .L0 
     /tmp/ccSAmCRL.s:767    .text:00000000000003f8 .L0 
     /tmp/ccSAmCRL.s:770    .text:00000000000003fc .L0 
     /tmp/ccSAmCRL.s:771    .text:0000000000000400 .L0 
     /tmp/ccSAmCRL.s:773    .text:0000000000000404 .L0 
     /tmp/ccSAmCRL.s:774    .text:0000000000000404 .L0 
     /tmp/ccSAmCRL.s:776    .text:0000000000000408 .L0 
     /tmp/ccSAmCRL.s:778    .text:000000000000040c .L0 
     /tmp/ccSAmCRL.s:784    .text:000000000000040c _ZN8KConsole11getcHandlerEv
     /tmp/ccSAmCRL.s:787    .text:000000000000040c .L0 
     /tmp/ccSAmCRL.s:788    .text:000000000000040c .L0 
     /tmp/ccSAmCRL.s:789    .text:0000000000000410 .L0 
     /tmp/ccSAmCRL.s:792    .text:0000000000000418 .L0 
     /tmp/ccSAmCRL.s:793    .text:0000000000000418 .L0 
     /tmp/ccSAmCRL.s:795    .text:000000000000041c .L0 
     /tmp/ccSAmCRL.s:797    .text:000000000000041c .L0 
     /tmp/ccSAmCRL.s:798    .text:000000000000041c .L0 
     /tmp/ccSAmCRL.s:799    .text:000000000000041c .L0 
     /tmp/ccSAmCRL.s:802    .text:0000000000000424 .L0 
    src/KConsole.cpp:144    .text:0000000000000424 .L0 
     /tmp/ccSAmCRL.s:809    .text:0000000000000428 .L0 
     /tmp/ccSAmCRL.s:810    .text:000000000000042c .L0 
     /tmp/ccSAmCRL.s:812    .text:0000000000000430 .L0 
     /tmp/ccSAmCRL.s:813    .text:0000000000000430 .L0 
     /tmp/ccSAmCRL.s:815    .text:0000000000000434 .L0 
     /tmp/ccSAmCRL.s:817    .text:0000000000000438 .L0 
     /tmp/ccSAmCRL.s:823    .text:0000000000000438 _ZN8KConsole11printBufferEv
     /tmp/ccSAmCRL.s:826    .text:0000000000000438 .L0 
     /tmp/ccSAmCRL.s:827    .text:0000000000000438 .L0 
     /tmp/ccSAmCRL.s:828    .text:000000000000043c .L0 
     /tmp/ccSAmCRL.s:832    .text:0000000000000448 .L0 
     /tmp/ccSAmCRL.s:833    .text:0000000000000448 .L0 
     /tmp/ccSAmCRL.s:834    .text:0000000000000448 .L0 
     /tmp/ccSAmCRL.s:836    .text:000000000000044c .L0 
     /tmp/ccSAmCRL.s:838    .text:000000000000044c .L0 
     /tmp/ccSAmCRL.s:839    .text:000000000000044c .L0 
     /tmp/ccSAmCRL.s:843    .text:0000000000000454 .L0 
     /tmp/ccSAmCRL.s:844    .text:0000000000000454 .L0 
     /tmp/ccSAmCRL.s:846    .text:0000000000000458 .L0 
     /tmp/ccSAmCRL.s:847    .text:0000000000000458 .L0 
     /tmp/ccSAmCRL.s:851    .text:0000000000000464 .L0 
     /tmp/ccSAmCRL.s:852    .text:0000000000000464 .L0 
     /tmp/ccSAmCRL.s:855    .text:0000000000000468 .L0 
     /tmp/ccSAmCRL.s:858    .text:000000000000046c .L0 
     /tmp/ccSAmCRL.s:859    .text:0000000000000470 .L0 
     /tmp/ccSAmCRL.s:861    .text:0000000000000474 .L0 
     /tmp/ccSAmCRL.s:862    .text:0000000000000474 .L0 
     /tmp/ccSAmCRL.s:864    .text:0000000000000478 .L0 
     /tmp/ccSAmCRL.s:867    .text:000000000000047c .L0 
     /tmp/ccSAmCRL.s:869    .text:0000000000000480 .L0 
     /tmp/ccSAmCRL.s:908    .bss:0000000000000030 _ZN8KConsole13cntWInterruptE
     /tmp/ccSAmCRL.s:884    .bss:0000000000000000 _ZN8KConsole18hasCharactersInputE
     /tmp/ccSAmCRL.s:888    .bss:0000000000000008 _ZN8KConsole19hasCharactersOutputE
     /tmp/ccSAmCRL.s:900    .bss:0000000000000020 _ZN8KConsole10tailOutputE
GAS LISTING /tmp/ccSAmCRL.s 			page 28


     /tmp/ccSAmCRL.s:904    .bss:0000000000000028 _ZN8KConsole10headOutputE
     /tmp/ccSAmCRL.s:892    .bss:0000000000000010 _ZN8KConsole9tailInputE
     /tmp/ccSAmCRL.s:896    .bss:0000000000000018 _ZN8KConsole9headInputE
     /tmp/ccSAmCRL.s:881    .bss:0000000000000000 .LANCHOR0
     /tmp/ccSAmCRL.s:918    .text:0000000000000480 .L0 
     /tmp/ccSAmCRL.s:195    .text:000000000000010c .L0 
     /tmp/ccSAmCRL.s:210    .text:0000000000000130 .L0 
     /tmp/ccSAmCRL.s:301    .text:0000000000000198 .L0 
     /tmp/ccSAmCRL.s:302    .text:00000000000001a0 .L0 
     /tmp/ccSAmCRL.s:307    .text:00000000000001b0 .L0 
     /tmp/ccSAmCRL.s:339    .text:00000000000001e0 .L0 
     /tmp/ccSAmCRL.s:344    .text:00000000000001f0 .L0 
     /tmp/ccSAmCRL.s:345    .text:00000000000001f8 .L0 
     /tmp/ccSAmCRL.s:378    .text:0000000000000228 .L0 
     /tmp/ccSAmCRL.s:379    .text:0000000000000230 .L0 
     /tmp/ccSAmCRL.s:384    .text:0000000000000240 .L0 
     /tmp/ccSAmCRL.s:411    .text:0000000000000260 .L0 
     /tmp/ccSAmCRL.s:460    .text:0000000000000294 .L0 
     /tmp/ccSAmCRL.s:501    .text:00000000000002c8 .L0 
     /tmp/ccSAmCRL.s:567    .text:0000000000000310 .L0 
     /tmp/ccSAmCRL.s:572    .text:0000000000000320 .L0 
     /tmp/ccSAmCRL.s:573    .text:0000000000000328 .L0 
     /tmp/ccSAmCRL.s:601    .text:0000000000000348 .L0 
     /tmp/ccSAmCRL.s:654    .text:0000000000000384 .L0 
     /tmp/ccSAmCRL.s:689    .text:00000000000003a4 .L0 
     /tmp/ccSAmCRL.s:756    .text:00000000000003e8 .L0 
     /tmp/ccSAmCRL.s:839    .text:000000000000044c .L0 
     /tmp/ccSAmCRL.s:76     .text:000000000000006c .L5
     /tmp/ccSAmCRL.s:56     .text:0000000000000050 .L1
     /tmp/ccSAmCRL.s:153    .text:00000000000000d0 .L9
     /tmp/ccSAmCRL.s:146    .text:00000000000000c8 .L11
     /tmp/ccSAmCRL.s:121    .text:00000000000000a4 .L8
     /tmp/ccSAmCRL.s:131    .text:00000000000000b0 .L7
     /tmp/ccSAmCRL.s:545    .text:00000000000002fc .L33
     /tmp/ccSAmCRL.s:454    .text:0000000000000294 .L29
     /tmp/ccSAmCRL.s:596    .text:0000000000000348 .L41
     /tmp/ccSAmCRL.s:681    .text:00000000000003a4 .L37
     /tmp/ccSAmCRL.s:642    .text:0000000000000378 .L40
     /tmp/ccSAmCRL.s:768    .text:00000000000003fc .L42
     /tmp/ccSAmCRL.s:758    .text:00000000000003f0 .L44
     /tmp/ccSAmCRL.s:856    .text:000000000000046c .L48
     /tmp/ccSAmCRL.s:841    .text:0000000000000454 .L50
     /tmp/ccSAmCRL.s:184    .text:00000000000000f4 .LEHB0
     /tmp/ccSAmCRL.s:164    .text:00000000000000d8 .LFB26
     /tmp/ccSAmCRL.s:187    .text:00000000000000fc .LEHE0
     /tmp/ccSAmCRL.s:190    .text:0000000000000104 .LEHB1
     /tmp/ccSAmCRL.s:193    .text:000000000000010c .LEHE1
     /tmp/ccSAmCRL.s:225    .text:0000000000000150 .L15
     /tmp/ccSAmCRL.s:199    .text:0000000000000118 .LEHB2
     /tmp/ccSAmCRL.s:202    .text:0000000000000120 .LEHE2
     /tmp/ccSAmCRL.s:205    .text:0000000000000128 .LEHB3
     /tmp/ccSAmCRL.s:208    .text:0000000000000130 .LEHE3
     /tmp/ccSAmCRL.s:237    .text:000000000000016c .L16
     /tmp/ccSAmCRL.s:233    .text:0000000000000164 .LEHB4
     /tmp/ccSAmCRL.s:236    .text:000000000000016c .LEHE4
     /tmp/ccSAmCRL.s:244    .text:0000000000000180 .LEHB5
     /tmp/ccSAmCRL.s:247    .text:0000000000000188 .LEHE5
GAS LISTING /tmp/ccSAmCRL.s 			page 29


     /tmp/ccSAmCRL.s:2602   .debug_abbrev:0000000000000000 .Ldebug_abbrev0
     /tmp/ccSAmCRL.s:3856   .debug_str:0000000000000168 .LASF178
     /tmp/ccSAmCRL.s:4128   .debug_str:0000000000000af9 .LASF179
     /tmp/ccSAmCRL.s:4126   .debug_str:0000000000000ad6 .LASF180
     /tmp/ccSAmCRL.s:5      .text:0000000000000000 .Ltext0
     /tmp/ccSAmCRL.s:911    .text:0000000000000480 .Letext0
     /tmp/ccSAmCRL.s:3816   .debug_line:0000000000000000 .Ldebug_line0
     /tmp/ccSAmCRL.s:3938   .debug_str:000000000000048f .LASF0
     /tmp/ccSAmCRL.s:3968   .debug_str:000000000000059f .LASF1
     /tmp/ccSAmCRL.s:4056   .debug_str:00000000000008b5 .LASF2
     /tmp/ccSAmCRL.s:4070   .debug_str:0000000000000928 .LASF4
     /tmp/ccSAmCRL.s:3950   .debug_str:00000000000004f4 .LASF3
     /tmp/ccSAmCRL.s:3832   .debug_str:000000000000005f .LASF5
     /tmp/ccSAmCRL.s:4040   .debug_str:000000000000082b .LASF6
     /tmp/ccSAmCRL.s:4036   .debug_str:0000000000000810 .LASF7
     /tmp/ccSAmCRL.s:3958   .debug_str:000000000000053b .LASF8
     /tmp/ccSAmCRL.s:3922   .debug_str:000000000000040c .LASF9
     /tmp/ccSAmCRL.s:3928   .debug_str:0000000000000448 .LASF10
     /tmp/ccSAmCRL.s:3868   .debug_str:000000000000028a .LASF11
     /tmp/ccSAmCRL.s:3912   .debug_str:00000000000003d0 .LASF12
     /tmp/ccSAmCRL.s:3882   .debug_str:00000000000002cf .LASF13
     /tmp/ccSAmCRL.s:3866   .debug_str:000000000000027a .LASF14
     /tmp/ccSAmCRL.s:4102   .debug_str:0000000000000a4b .LASF15
     /tmp/ccSAmCRL.s:3904   .debug_str:000000000000037b .LASF16
     /tmp/ccSAmCRL.s:4090   .debug_str:00000000000009ca .LASF17
     /tmp/ccSAmCRL.s:4116   .debug_str:0000000000000a91 .LASF181
     /tmp/ccSAmCRL.s:3864   .debug_str:0000000000000274 .LASF18
     /tmp/ccSAmCRL.s:4082   .debug_str:0000000000000992 .LASF19
     /tmp/ccSAmCRL.s:3876   .debug_str:00000000000002b0 .LASF20
     /tmp/ccSAmCRL.s:3852   .debug_str:000000000000013c .LASF21
     /tmp/ccSAmCRL.s:4038   .debug_str:0000000000000823 .LASF22
     /tmp/ccSAmCRL.s:3874   .debug_str:00000000000002a7 .LASF23
     /tmp/ccSAmCRL.s:4110   .debug_str:0000000000000a79 .LASF84
     /tmp/ccSAmCRL.s:3934   .debug_str:0000000000000483 .LASF24
     /tmp/ccSAmCRL.s:3836   .debug_str:000000000000007e .LASF29
     /tmp/ccSAmCRL.s:4134   .debug_str:0000000000000b21 .LASF182
     /tmp/ccSAmCRL.s:4024   .debug_str:00000000000007b4 .LASF183
     /tmp/ccSAmCRL.s:3966   .debug_str:000000000000059a .LASF25
     /tmp/ccSAmCRL.s:4176   .debug_str:0000000000000c8b .LASF27
     /tmp/ccSAmCRL.s:4172   .debug_str:0000000000000c6f .LASF26
     /tmp/ccSAmCRL.s:4122   .debug_str:0000000000000abc .LASF28
     /tmp/ccSAmCRL.s:3894   .debug_str:0000000000000340 .LASF54
     /tmp/ccSAmCRL.s:3842   .debug_str:00000000000000b7 .LASF56
     /tmp/ccSAmCRL.s:3972   .debug_str:00000000000005bb .LASF34
     /tmp/ccSAmCRL.s:4026   .debug_str:00000000000007b9 .LASF36
     /tmp/ccSAmCRL.s:4118   .debug_str:0000000000000a97 .LASF30
     /tmp/ccSAmCRL.s:4076   .debug_str:000000000000095a .LASF31
     /tmp/ccSAmCRL.s:3974   .debug_str:00000000000005c1 .LASF38
     /tmp/ccSAmCRL.s:3980   .debug_str:0000000000000602 .LASF40
     /tmp/ccSAmCRL.s:4182   .debug_str:0000000000000cd0 .LASF32
     /tmp/ccSAmCRL.s:3908   .debug_str:00000000000003b3 .LASF33
     /tmp/ccSAmCRL.s:3826   .debug_str:000000000000003a .LASF35
     /tmp/ccSAmCRL.s:3946   .debug_str:00000000000004df .LASF37
     /tmp/ccSAmCRL.s:4078   .debug_str:000000000000096b .LASF39
     /tmp/ccSAmCRL.s:4002   .debug_str:00000000000006ec .LASF41
     /tmp/ccSAmCRL.s:4064   .debug_str:00000000000008ee .LASF42
     /tmp/ccSAmCRL.s:4096   .debug_str:0000000000000a08 .LASF43
GAS LISTING /tmp/ccSAmCRL.s 			page 30


     /tmp/ccSAmCRL.s:4004   .debug_str:00000000000006ff .LASF44
     /tmp/ccSAmCRL.s:3822   .debug_str:000000000000001b .LASF45
     /tmp/ccSAmCRL.s:4162   .debug_str:0000000000000c2e .LASF46
     /tmp/ccSAmCRL.s:4034   .debug_str:00000000000007f6 .LASF47
     /tmp/ccSAmCRL.s:4088   .debug_str:00000000000009bc .LASF48
     /tmp/ccSAmCRL.s:4042   .debug_str:0000000000000832 .LASF49
     /tmp/ccSAmCRL.s:3892   .debug_str:0000000000000330 .LASF50
     /tmp/ccSAmCRL.s:3916   .debug_str:00000000000003e9 .LASF51
     /tmp/ccSAmCRL.s:4052   .debug_str:0000000000000893 .LASF52
     /tmp/ccSAmCRL.s:4164   .debug_str:0000000000000c3d .LASF53
     /tmp/ccSAmCRL.s:3952   .debug_str:0000000000000506 .LASF60
     /tmp/ccSAmCRL.s:4086   .debug_str:00000000000009b1 .LASF55
     /tmp/ccSAmCRL.s:4174   .debug_str:0000000000000c75 .LASF57
     /tmp/ccSAmCRL.s:4112   .debug_str:0000000000000a81 .LASF58
     /tmp/ccSAmCRL.s:3890   .debug_str:000000000000031a .LASF59
     /tmp/ccSAmCRL.s:4074   .debug_str:0000000000000952 .LASF61
     /tmp/ccSAmCRL.s:3940   .debug_str:000000000000049c .LASF62
     /tmp/ccSAmCRL.s:4016   .debug_str:0000000000000758 .LASF63
     /tmp/ccSAmCRL.s:3886   .debug_str:0000000000000303 .LASF64
     /tmp/ccSAmCRL.s:4046   .debug_str:0000000000000861 .LASF65
     /tmp/ccSAmCRL.s:4192   .debug_str:0000000000000d12 .LASF66
     /tmp/ccSAmCRL.s:4018   .debug_str:0000000000000777 .LASF67
     /tmp/ccSAmCRL.s:4062   .debug_str:00000000000008db .LASF68
     /tmp/ccSAmCRL.s:4080   .debug_str:0000000000000974 .LASF69
     /tmp/ccSAmCRL.s:4144   .debug_str:0000000000000b77 .LASF70
     /tmp/ccSAmCRL.s:3996   .debug_str:0000000000000695 .LASF71
     /tmp/ccSAmCRL.s:4136   .debug_str:0000000000000b39 .LASF72
     /tmp/ccSAmCRL.s:4094   .debug_str:00000000000009e8 .LASF73
     /tmp/ccSAmCRL.s:4124   .debug_str:0000000000000acc .LASF74
     /tmp/ccSAmCRL.s:4028   .debug_str:00000000000007c9 .LASF75
     /tmp/ccSAmCRL.s:4170   .debug_str:0000000000000c61 .LASF76
     /tmp/ccSAmCRL.s:3848   .debug_str:0000000000000101 .LASF78
     /tmp/ccSAmCRL.s:3944   .debug_str:00000000000004ca .LASF77
     /tmp/ccSAmCRL.s:3862   .debug_str:0000000000000248 .LASF79
     /tmp/ccSAmCRL.s:4160   .debug_str:0000000000000c27 .LASF184
     /tmp/ccSAmCRL.s:3860   .debug_str:0000000000000237 .LASF185
     /tmp/ccSAmCRL.s:3824   .debug_str:0000000000000035 .LASF80
     /tmp/ccSAmCRL.s:4142   .debug_str:0000000000000b72 .LASF81
     /tmp/ccSAmCRL.s:3984   .debug_str:0000000000000634 .LASF82
     /tmp/ccSAmCRL.s:3898   .debug_str:000000000000034e .LASF83
     /tmp/ccSAmCRL.s:4132   .debug_str:0000000000000b19 .LASF85
     /tmp/ccSAmCRL.s:4114   .debug_str:0000000000000a8c .LASF86
     /tmp/ccSAmCRL.s:3990   .debug_str:0000000000000677 .LASF87
     /tmp/ccSAmCRL.s:4048   .debug_str:000000000000087e .LASF88
     /tmp/ccSAmCRL.s:3924   .debug_str:000000000000041c .LASF89
     /tmp/ccSAmCRL.s:4058   .debug_str:00000000000008c3 .LASF90
     /tmp/ccSAmCRL.s:3900   .debug_str:0000000000000354 .LASF91
     /tmp/ccSAmCRL.s:3896   .debug_str:0000000000000349 .LASF92
     /tmp/ccSAmCRL.s:4084   .debug_str:000000000000099a .LASF93
     /tmp/ccSAmCRL.s:4106   .debug_str:0000000000000a6a .LASF94
     /tmp/ccSAmCRL.s:4010   .debug_str:0000000000000731 .LASF95
     /tmp/ccSAmCRL.s:3820   .debug_str:000000000000000f .LASF96
     /tmp/ccSAmCRL.s:4060   .debug_str:00000000000008cf .LASF97
     /tmp/ccSAmCRL.s:3992   .debug_str:000000000000067c .LASF98
     /tmp/ccSAmCRL.s:4054   .debug_str:00000000000008a0 .LASF99
     /tmp/ccSAmCRL.s:3872   .debug_str:000000000000029e .LASF100
     /tmp/ccSAmCRL.s:3878   .debug_str:00000000000002ba .LASF101
GAS LISTING /tmp/ccSAmCRL.s 			page 31


     /tmp/ccSAmCRL.s:4008   .debug_str:0000000000000728 .LASF102
     /tmp/ccSAmCRL.s:4068   .debug_str:000000000000091d .LASF103
     /tmp/ccSAmCRL.s:3818   .debug_str:0000000000000000 .LASF104
     /tmp/ccSAmCRL.s:3932   .debug_str:0000000000000461 .LASF105
     /tmp/ccSAmCRL.s:4130   .debug_str:0000000000000b0a .LASF106
     /tmp/ccSAmCRL.s:4100   .debug_str:0000000000000a29 .LASF107
     /tmp/ccSAmCRL.s:3986   .debug_str:000000000000063c .LASF108
     /tmp/ccSAmCRL.s:3884   .debug_str:00000000000002df .LASF109
     /tmp/ccSAmCRL.s:4022   .debug_str:00000000000007a4 .LASF110
     /tmp/ccSAmCRL.s:4044   .debug_str:000000000000083e .LASF111
     /tmp/ccSAmCRL.s:3970   .debug_str:00000000000005b2 .LASF112
     /tmp/ccSAmCRL.s:3936   .debug_str:0000000000000489 .LASF113
     /tmp/ccSAmCRL.s:4186   .debug_str:0000000000000ce8 .LASF114
     /tmp/ccSAmCRL.s:3828   .debug_str:000000000000004a .LASF115
     /tmp/ccSAmCRL.s:3982   .debug_str:000000000000061a .LASF116
     /tmp/ccSAmCRL.s:4180   .debug_str:0000000000000cc0 .LASF117
     /tmp/ccSAmCRL.s:4072   .debug_str:000000000000092f .LASF118
     /tmp/ccSAmCRL.s:4104   .debug_str:0000000000000a57 .LASF119
     /tmp/ccSAmCRL.s:4066   .debug_str:00000000000008f7 .LASF120
     /tmp/ccSAmCRL.s:4188   .debug_str:0000000000000d00 .LASF121
     /tmp/ccSAmCRL.s:3964   .debug_str:0000000000000576 .LASF122
     /tmp/ccSAmCRL.s:4014   .debug_str:000000000000074f .LASF123
     /tmp/ccSAmCRL.s:3888   .debug_str:0000000000000315 .LASF124
     /tmp/ccSAmCRL.s:3870   .debug_str:0000000000000299 .LASF125
     /tmp/ccSAmCRL.s:3962   .debug_str:0000000000000571 .LASF126
     /tmp/ccSAmCRL.s:3914   .debug_str:00000000000003df .LASF127
     /tmp/ccSAmCRL.s:4166   .debug_str:0000000000000c48 .LASF128
     /tmp/ccSAmCRL.s:3880   .debug_str:00000000000002c4 .LASF129
     /tmp/ccSAmCRL.s:3930   .debug_str:0000000000000456 .LASF130
     /tmp/ccSAmCRL.s:4032   .debug_str:00000000000007e8 .LASF131
     /tmp/ccSAmCRL.s:4030   .debug_str:00000000000007d5 .LASF132
     /tmp/ccSAmCRL.s:3998   .debug_str:00000000000006b3 .LASF133
     /tmp/ccSAmCRL.s:4108   .debug_str:0000000000000a71 .LASF134
     /tmp/ccSAmCRL.s:4000   .debug_str:00000000000006c7 .LASF135
     /tmp/ccSAmCRL.s:3948   .debug_str:00000000000004ec .LASF136
     /tmp/ccSAmCRL.s:4150   .debug_str:0000000000000bae .LASF137
     /tmp/ccSAmCRL.s:4140   .debug_str:0000000000000b60 .LASF138
     /tmp/ccSAmCRL.s:4158   .debug_str:0000000000000c05 .LASF139
     /tmp/ccSAmCRL.s:4138   .debug_str:0000000000000b4e .LASF142
     /tmp/ccSAmCRL.s:3838   .debug_str:0000000000000089 .LASF144
     /tmp/ccSAmCRL.s:3850   .debug_str:0000000000000129 .LASF140
     /tmp/ccSAmCRL.s:3858   .debug_str:0000000000000214 .LASF141
     /tmp/ccSAmCRL.s:3902   .debug_str:0000000000000368 .LASF143
     /tmp/ccSAmCRL.s:3854   .debug_str:0000000000000145 .LASF145
     /tmp/ccSAmCRL.s:3844   .debug_str:00000000000000ca .LASF146
     /tmp/ccSAmCRL.s:4156   .debug_str:0000000000000bec .LASF147
     /tmp/ccSAmCRL.s:3988   .debug_str:000000000000064d .LASF148
     /tmp/ccSAmCRL.s:3976   .debug_str:00000000000005ce .LASF149
     /tmp/ccSAmCRL.s:4178   .debug_str:0000000000000c97 .LASF150
     /tmp/ccSAmCRL.s:3956   .debug_str:000000000000052f .LASF151
     /tmp/ccSAmCRL.s:3954   .debug_str:0000000000000513 .LASF152
     /tmp/ccSAmCRL.s:3910   .debug_str:00000000000003bf .LASF153
     /tmp/ccSAmCRL.s:4152   .debug_str:0000000000000bd2 .LASF154
     /tmp/ccSAmCRL.s:3920   .debug_str:00000000000003ff .LASF155
     /tmp/ccSAmCRL.s:3830   .debug_str:0000000000000052 .LASF156
     /tmp/ccSAmCRL.s:3840   .debug_str:00000000000000ab .LASF157
     /tmp/ccSAmCRL.s:3978   .debug_str:00000000000005e6 .LASF158
GAS LISTING /tmp/ccSAmCRL.s 			page 32


     /tmp/ccSAmCRL.s:4020   .debug_str:0000000000000798 .LASF159
     /tmp/ccSAmCRL.s:3846   .debug_str:00000000000000e5 .LASF160
     /tmp/ccSAmCRL.s:4146   .debug_str:0000000000000b8a .LASF161
     /tmp/ccSAmCRL.s:3834   .debug_str:0000000000000066 .LASF162
     /tmp/ccSAmCRL.s:4006   .debug_str:000000000000070e .LASF163
     /tmp/ccSAmCRL.s:3942   .debug_str:00000000000004b0 .LASF164
     /tmp/ccSAmCRL.s:3960   .debug_str:000000000000054e .LASF165
     /tmp/ccSAmCRL.s:3906   .debug_str:0000000000000391 .LASF166
     /tmp/ccSAmCRL.s:4120   .debug_str:0000000000000a9f .LASF167
     /tmp/ccSAmCRL.s:824    .text:0000000000000438 .LFB35
     /tmp/ccSAmCRL.s:870    .text:0000000000000480 .LFE35
     /tmp/ccSAmCRL.s:4190   .debug_str:0000000000000d0d .LASF168
     /tmp/ccSAmCRL.s:3536   .debug_loc:0000000000000000 .LLST17
     /tmp/ccSAmCRL.s:849    .text:0000000000000464 .LVL64
     /tmp/ccSAmCRL.s:785    .text:000000000000040c .LFB34
     /tmp/ccSAmCRL.s:818    .text:0000000000000438 .LFE34
     /tmp/ccSAmCRL.s:800    .text:0000000000000424 .LVL62
     /tmp/ccSAmCRL.s:728    .text:00000000000003c8 .LFB33
     /tmp/ccSAmCRL.s:779    .text:000000000000040c .LFE33
     /tmp/ccSAmCRL.s:3543   .debug_loc:0000000000000023 .LLST16
     /tmp/ccSAmCRL.s:753    .text:00000000000003e8 .LVL59
     /tmp/ccSAmCRL.s:554    .text:0000000000000300 .LFB32
     /tmp/ccSAmCRL.s:586    .text:0000000000000348 .LFE32
     /tmp/ccSAmCRL.s:569    .text:0000000000000320 .LVL43
     /tmp/ccSAmCRL.s:575    .text:0000000000000338 .LVL44
     /tmp/ccSAmCRL.s:364    .text:0000000000000218 .LFB31
     /tmp/ccSAmCRL.s:397    .text:0000000000000260 .LFE31
     /tmp/ccSAmCRL.s:3550   .debug_loc:0000000000000046 .LLST8
     /tmp/ccSAmCRL.s:381    .text:0000000000000240 .LVL27
     /tmp/ccSAmCRL.s:386    .text:0000000000000250 .LVL28
     /tmp/ccSAmCRL.s:326    .text:00000000000001d0 .LFB30
     /tmp/ccSAmCRL.s:358    .text:0000000000000218 .LFE30
     /tmp/ccSAmCRL.s:341    .text:00000000000001f0 .LVL24
     /tmp/ccSAmCRL.s:347    .text:0000000000000208 .LVL25
     /tmp/ccSAmCRL.s:287    .text:0000000000000188 .LFB29
     /tmp/ccSAmCRL.s:320    .text:00000000000001d0 .LFE29
     /tmp/ccSAmCRL.s:3564   .debug_loc:000000000000007f .LLST7
     /tmp/ccSAmCRL.s:304    .text:00000000000001b0 .LVL22
     /tmp/ccSAmCRL.s:309    .text:00000000000001c0 .LVL23
     /tmp/ccSAmCRL.s:592    .text:0000000000000348 .LFB28
     /tmp/ccSAmCRL.s:722    .text:00000000000003c8 .LFE28
     /tmp/ccSAmCRL.s:3578   .debug_loc:00000000000000b8 .LLST13
     /tmp/ccSAmCRL.s:3798   .debug_ranges:0000000000000000 .Ldebug_ranges0
     /tmp/ccSAmCRL.s:3592   .debug_loc:00000000000000f1 .LLST14
     /tmp/ccSAmCRL.s:4050   .debug_str:0000000000000889 .LASF169
     /tmp/ccSAmCRL.s:3607   .debug_loc:000000000000013a .LLST15
     /tmp/ccSAmCRL.s:645    .text:0000000000000378 .LBB11
     /tmp/ccSAmCRL.s:682    .text:00000000000003a4 .LBE11
     /tmp/ccSAmCRL.s:649    .text:0000000000000380 .LVL50
     /tmp/ccSAmCRL.s:403    .text:0000000000000260 .LFB27
     /tmp/ccSAmCRL.s:548    .text:0000000000000300 .LFE27
     /tmp/ccSAmCRL.s:3618   .debug_loc:0000000000000170 .LLST9
     /tmp/ccSAmCRL.s:3636   .debug_loc:00000000000001bc .LLST10
     /tmp/ccSAmCRL.s:3651   .debug_loc:0000000000000205 .LLST11
     /tmp/ccSAmCRL.s:457    .text:0000000000000294 .LBB4
     /tmp/ccSAmCRL.s:493    .text:00000000000002c8 .LBE4
     /tmp/ccSAmCRL.s:3662   .debug_loc:000000000000023b .LLST12
GAS LISTING /tmp/ccSAmCRL.s 			page 33


     /tmp/ccSAmCRL.s:487    .text:00000000000002bc .LVL36
     /tmp/ccSAmCRL.s:492    .text:00000000000002c8 .LVL37
     /tmp/ccSAmCRL.s:249    .text:0000000000000188 .LFE26
     /tmp/ccSAmCRL.s:186    .text:00000000000000fc .LVL13
     /tmp/ccSAmCRL.s:192    .text:000000000000010c .LVL14
     /tmp/ccSAmCRL.s:201    .text:0000000000000120 .LVL15
     /tmp/ccSAmCRL.s:207    .text:0000000000000130 .LVL16
     /tmp/ccSAmCRL.s:231    .text:0000000000000160 .LVL17
     /tmp/ccSAmCRL.s:235    .text:000000000000016c .LVL18
     /tmp/ccSAmCRL.s:242    .text:000000000000017c .LVL19
     /tmp/ccSAmCRL.s:246    .text:0000000000000188 .LVL20
     /tmp/ccSAmCRL.s:91     .text:0000000000000078 .LFB25
     /tmp/ccSAmCRL.s:158    .text:00000000000000d8 .LFE25
     /tmp/ccSAmCRL.s:4098   .debug_str:0000000000000a24 .LASF170
     /tmp/ccSAmCRL.s:3669   .debug_loc:000000000000025e .LLST3
     /tmp/ccSAmCRL.s:4012   .debug_str:000000000000074a .LASF171
     /tmp/ccSAmCRL.s:3691   .debug_loc:00000000000002bd .LLST4
     /tmp/ccSAmCRL.s:3709   .debug_loc:0000000000000309 .LLST5
     /tmp/ccSAmCRL.s:3720   .debug_loc:000000000000033f .LLST6
     /tmp/ccSAmCRL.s:129    .text:00000000000000b0 .LVL10
     /tmp/ccSAmCRL.s:10     .text:0000000000000000 .LFB24
     /tmp/ccSAmCRL.s:85     .text:0000000000000078 .LFE24
     /tmp/ccSAmCRL.s:3727   .debug_loc:0000000000000362 .LLST0
     /tmp/ccSAmCRL.s:3741   .debug_loc:000000000000039b .LLST1
     /tmp/ccSAmCRL.s:3763   .debug_loc:00000000000003fa .LLST2
     /tmp/ccSAmCRL.s:4092   .debug_str:00000000000009e0 .LASF172
     /tmp/ccSAmCRL.s:37     .text:0000000000000034 .LVL2
     /tmp/ccSAmCRL.s:3994   .debug_str:0000000000000690 .LASF173
     /tmp/ccSAmCRL.s:4168   .debug_str:0000000000000c52 .LASF186
     /tmp/ccSAmCRL.s:3926   .debug_str:0000000000000430 .LASF187
     /tmp/ccSAmCRL.s:4184   .debug_str:0000000000000cdd .LASF174
     /tmp/ccSAmCRL.s:3918   .debug_str:00000000000003f9 .LASF175
     /tmp/ccSAmCRL.s:4148   .debug_str:0000000000000ba2 .LASF176
     /tmp/ccSAmCRL.s:4154   .debug_str:0000000000000be4 .LASF177
     /tmp/ccSAmCRL.s:840    .text:0000000000000454 .LVL63
     /tmp/ccSAmCRL.s:865    .text:0000000000000478 .LVL66
     /tmp/ccSAmCRL.s:746    .text:00000000000003dc .LVL57
     /tmp/ccSAmCRL.s:751    .text:00000000000003e0 .LVL58
     /tmp/ccSAmCRL.s:367    .text:0000000000000218 .LVL26
     /tmp/ccSAmCRL.s:290    .text:0000000000000188 .LVL21
     /tmp/ccSAmCRL.s:595    .text:0000000000000348 .LVL45
     /tmp/ccSAmCRL.s:641    .text:0000000000000378 .LVL49
     /tmp/ccSAmCRL.s:603    .text:0000000000000354 .LVL46
     /tmp/ccSAmCRL.s:621    .text:0000000000000360 .LVL47
     /tmp/ccSAmCRL.s:656    .text:0000000000000390 .LVL51
     /tmp/ccSAmCRL.s:667    .text:0000000000000398 .LVL52
     /tmp/ccSAmCRL.s:691    .text:00000000000003b0 .LVL54
     /tmp/ccSAmCRL.s:709    .text:00000000000003bc .LVL55
     /tmp/ccSAmCRL.s:627    .text:0000000000000364 .LVL48
     /tmp/ccSAmCRL.s:715    .text:00000000000003c0 .LVL56
     /tmp/ccSAmCRL.s:406    .text:0000000000000260 .LVL29
     /tmp/ccSAmCRL.s:453    .text:0000000000000294 .LVL33
     /tmp/ccSAmCRL.s:544    .text:00000000000002fc .LVL42
     /tmp/ccSAmCRL.s:413    .text:000000000000026c .LVL30
     /tmp/ccSAmCRL.s:431    .text:0000000000000278 .LVL31
     /tmp/ccSAmCRL.s:462    .text:00000000000002a0 .LVL34
     /tmp/ccSAmCRL.s:503    .text:00000000000002d4 .LVL38
GAS LISTING /tmp/ccSAmCRL.s 			page 34


     /tmp/ccSAmCRL.s:521    .text:00000000000002e0 .LVL39
     /tmp/ccSAmCRL.s:437    .text:000000000000027c .LVL32
     /tmp/ccSAmCRL.s:527    .text:00000000000002e4 .LVL40
     /tmp/ccSAmCRL.s:482    .text:00000000000002b0 .LVL35
     /tmp/ccSAmCRL.s:540    .text:00000000000002f4 .LVL41
     /tmp/ccSAmCRL.s:94     .text:0000000000000078 .LVL6
     /tmp/ccSAmCRL.s:109    .text:0000000000000094 .LVL7
     /tmp/ccSAmCRL.s:145    .text:00000000000000c8 .LVL11
     /tmp/ccSAmCRL.s:113    .text:0000000000000098 .LVL8
     /tmp/ccSAmCRL.s:152    .text:00000000000000d0 .LVL12
     /tmp/ccSAmCRL.s:125    .text:00000000000000a8 .LVL9
     /tmp/ccSAmCRL.s:14     .text:0000000000000000 .LVL0
     /tmp/ccSAmCRL.s:35     .text:000000000000002c .LVL1
     /tmp/ccSAmCRL.s:69     .text:0000000000000060 .LVL4
     /tmp/ccSAmCRL.s:75     .text:000000000000006c .LVL5
     /tmp/ccSAmCRL.s:66     .text:000000000000005c .LVL3
     /tmp/ccSAmCRL.s:919    .debug_info:0000000000000000 .Ldebug_info0
     /tmp/ccSAmCRL.s:408    .text:0000000000000260 .LBB2
     /tmp/ccSAmCRL.s:441    .text:0000000000000280 .LBE2
     /tmp/ccSAmCRL.s:455    .text:0000000000000294 .LBB7
     /tmp/ccSAmCRL.s:495    .text:00000000000002c8 .LBE7
     /tmp/ccSAmCRL.s:498    .text:00000000000002c8 .LBB8
     /tmp/ccSAmCRL.s:531    .text:00000000000002e8 .LBE8
     /tmp/ccSAmCRL.s:598    .text:0000000000000348 .LBB9
     /tmp/ccSAmCRL.s:631    .text:0000000000000368 .LBE9
     /tmp/ccSAmCRL.s:643    .text:0000000000000378 .LBB14
     /tmp/ccSAmCRL.s:684    .text:00000000000003a4 .LBE14
     /tmp/ccSAmCRL.s:686    .text:00000000000003a4 .LBB15
     /tmp/ccSAmCRL.s:720    .text:00000000000003c8 .LBE15
     /tmp/ccSAmCRL.s:252    .gcc_except_table:0000000000000000 .LLSDA26

UNDEFINED SYMBOLS
_Z7kmallocm
_Z5kfreePv
_ZN10KSemaphorenwEm
_ZN10KSemaphoreC1Ei
_ZN10KSemaphoredlEPv
_Unwind_Resume
__gxx_personality_v0
_ZN10KSemaphore6signalEv
_ZN10KSemaphore4waitEv
CONSOLE_STATUS
CONSOLE_TX_DATA
CONSOLE_RX_DATA
putc
