GAS LISTING /tmp/ccEC1RRM.s 			page 1


   1              		.file	"KConsole.cpp"
   2              		.option pic
   3              		.option norelax
   4              		.text
   5              	.Ltext0:
   6              		.align	2
   7              		.globl	_ZN8KConsole7putCharEcRPNS_4ElemES2_
   9              	_ZN8KConsole7putCharEcRPNS_4ElemES2_:
  10              	.LFB24:
  11              		.file 1 "src/KConsole.cpp"
   1:src/KConsole.cpp **** //
   2:src/KConsole.cpp **** // Created by os on 5/19/22.
   3:src/KConsole.cpp **** //
   4:src/KConsole.cpp **** 
   5:src/KConsole.cpp **** 
   6:src/KConsole.cpp **** #include "../h/KConsole.hpp"
   7:src/KConsole.cpp **** #include "../h/syscall_c.h"
   8:src/KConsole.cpp **** 
   9:src/KConsole.cpp **** KConsole::Elem* KConsole::headInput = 0;
  10:src/KConsole.cpp **** KConsole::Elem* KConsole::tailInput = 0;
  11:src/KConsole.cpp **** KConsole::Elem* KConsole::headOutput = 0;
  12:src/KConsole.cpp **** KConsole::Elem* KConsole::tailOutput = 0;
  13:src/KConsole.cpp **** KSemaphore* KConsole::hasCharactersOutput = 0;
  14:src/KConsole.cpp **** KSemaphore* KConsole::hasCharactersInput = 0;
  15:src/KConsole.cpp **** uint64 KConsole::pendingGetc = 0;
  16:src/KConsole.cpp **** 
  17:src/KConsole.cpp **** void KConsole::putChar(char c, Elem*& head, Elem*& tail)
  18:src/KConsole.cpp **** {
  12              		.loc 1 18 1
  13              		.cfi_startproc
  14              	.LVL0:
  15 0000 130101FD 		addi	sp,sp,-48
  16              		.cfi_def_cfa_offset 48
  17 0004 23341102 		sd	ra,40(sp)
  18 0008 23308102 		sd	s0,32(sp)
  19 000c 233C9100 		sd	s1,24(sp)
  20 0010 23382101 		sd	s2,16(sp)
  21 0014 23343101 		sd	s3,8(sp)
  22              		.cfi_offset 1, -8
  23              		.cfi_offset 8, -16
  24              		.cfi_offset 9, -24
  25              		.cfi_offset 18, -32
  26              		.cfi_offset 19, -40
  27 0018 13040103 		addi	s0,sp,48
  28              		.cfi_def_cfa 8, 0
  29 001c 93090500 		mv	s3,a0
  30 0020 13890500 		mv	s2,a1
  31 0024 93040600 		mv	s1,a2
  19:src/KConsole.cpp ****     Elem* newElem = (Elem*)kmalloc(sizeof(Elem));
  32              		.loc 1 19 5
  33              		.loc 1 19 35 is_stmt 0
  34 0028 13050001 		li	a0,16
  35              	.LVL1:
  36 002c 97000000 		call	_Z7kmallocm@plt
  36      E7800000 
  37              	.LVL2:
  20:src/KConsole.cpp ****     newElem->next = 0;
GAS LISTING /tmp/ccEC1RRM.s 			page 2


  38              		.loc 1 20 5 is_stmt 1
  39              		.loc 1 20 19 is_stmt 0
  40 0034 23300500 		sd	zero,0(a0)
  21:src/KConsole.cpp ****     newElem->data = c;
  41              		.loc 1 21 5 is_stmt 1
  42              		.loc 1 21 19 is_stmt 0
  43 0038 23043501 		sb	s3,8(a0)
  22:src/KConsole.cpp ****     if(head == 0)
  44              		.loc 1 22 5 is_stmt 1
  45              		.loc 1 22 8 is_stmt 0
  46 003c 83370900 		ld	a5,0(s2)
  47              		.loc 1 22 5
  48 0040 63860702 		beqz	a5,.L5
  23:src/KConsole.cpp ****     {
  24:src/KConsole.cpp ****         head = tail = newElem;
  25:src/KConsole.cpp ****     }
  26:src/KConsole.cpp ****     else
  27:src/KConsole.cpp ****     {
  28:src/KConsole.cpp ****         tail->next = newElem;
  49              		.loc 1 28 9 is_stmt 1
  50 0044 83B70400 		ld	a5,0(s1)
  51              		.loc 1 28 20 is_stmt 0
  52 0048 23B0A700 		sd	a0,0(a5)
  29:src/KConsole.cpp ****         tail = newElem;
  53              		.loc 1 29 9 is_stmt 1
  54              		.loc 1 29 14 is_stmt 0
  55 004c 23B0A400 		sd	a0,0(s1)
  56              	.L1:
  30:src/KConsole.cpp ****     }
  31:src/KConsole.cpp **** }
  57              		.loc 1 31 1
  58 0050 83308102 		ld	ra,40(sp)
  59              		.cfi_remember_state
  60              		.cfi_restore 1
  61 0054 03340102 		ld	s0,32(sp)
  62              		.cfi_restore 8
  63              		.cfi_def_cfa 2, 48
  64 0058 83348101 		ld	s1,24(sp)
  65              		.cfi_restore 9
  66              	.LVL3:
  67 005c 03390101 		ld	s2,16(sp)
  68              		.cfi_restore 18
  69              	.LVL4:
  70 0060 83398100 		ld	s3,8(sp)
  71              		.cfi_restore 19
  72 0064 13010103 		addi	sp,sp,48
  73              		.cfi_def_cfa_offset 0
  74 0068 67800000 		jr	ra
  75              	.LVL5:
  76              	.L5:
  77              		.cfi_restore_state
  24:src/KConsole.cpp ****     }
  78              		.loc 1 24 9 is_stmt 1
  24:src/KConsole.cpp ****     }
  79              		.loc 1 24 21 is_stmt 0
  80 006c 23B0A400 		sd	a0,0(s1)
  24:src/KConsole.cpp ****     }
GAS LISTING /tmp/ccEC1RRM.s 			page 3


  81              		.loc 1 24 14
  82 0070 2330A900 		sd	a0,0(s2)
  83 0074 6FF0DFFD 		j	.L1
  84              		.cfi_endproc
  85              	.LFE24:
  87              		.align	2
  88              		.globl	_ZN8KConsole7getCharERPNS_4ElemES2_
  90              	_ZN8KConsole7getCharERPNS_4ElemES2_:
  91              	.LFB25:
  32:src/KConsole.cpp **** 
  33:src/KConsole.cpp **** char KConsole::getChar(Elem*& head, Elem*& tail)
  34:src/KConsole.cpp **** {
  92              		.loc 1 34 1 is_stmt 1
  93              		.cfi_startproc
  94              	.LVL6:
  95 0078 130101FE 		addi	sp,sp,-32
  96              		.cfi_def_cfa_offset 32
  97 007c 233C1100 		sd	ra,24(sp)
  98 0080 23388100 		sd	s0,16(sp)
  99 0084 23349100 		sd	s1,8(sp)
 100              		.cfi_offset 1, -8
 101              		.cfi_offset 8, -16
 102              		.cfi_offset 9, -24
 103 0088 13040102 		addi	s0,sp,32
 104              		.cfi_def_cfa 8, 0
 105 008c 93070500 		mv	a5,a0
  35:src/KConsole.cpp ****     if(head == 0)
 106              		.loc 1 35 5
 107              		.loc 1 35 8 is_stmt 0
 108 0090 03350500 		ld	a0,0(a0)
 109              	.LVL7:
 110              		.loc 1 35 5
 111 0094 630E0502 		beqz	a0,.L9
  36:src/KConsole.cpp ****         return 0;
  37:src/KConsole.cpp **** 
  38:src/KConsole.cpp ****     Elem* ret = head;
 112              		.loc 1 38 5 is_stmt 1
 113              	.LVL8:
  39:src/KConsole.cpp ****     head = head->next;
 114              		.loc 1 39 5
 115              		.loc 1 39 18 is_stmt 0
 116 0098 03370500 		ld	a4,0(a0)
 117              		.loc 1 39 10
 118 009c 23B0E700 		sd	a4,0(a5)
  40:src/KConsole.cpp ****     if(head == 0)
 119              		.loc 1 40 5 is_stmt 1
 120 00a0 63040702 		beqz	a4,.L11
 121              	.L8:
  41:src/KConsole.cpp ****         tail = 0;
  42:src/KConsole.cpp **** 
  43:src/KConsole.cpp ****     char c = ret->data;
 122              		.loc 1 43 5
 123              		.loc 1 43 10 is_stmt 0
 124 00a4 83448500 		lbu	s1,8(a0)
 125              	.LVL9:
  44:src/KConsole.cpp ****     kfree(ret);
 126              		.loc 1 44 5 is_stmt 1
GAS LISTING /tmp/ccEC1RRM.s 			page 4


 127              		.loc 1 44 10 is_stmt 0
 128 00a8 97000000 		call	_Z5kfreePv@plt
 128      E7800000 
 129              	.LVL10:
  45:src/KConsole.cpp ****     return c;
 130              		.loc 1 45 5 is_stmt 1
 131              	.L7:
  46:src/KConsole.cpp **** }
 132              		.loc 1 46 1 is_stmt 0
 133 00b0 13850400 		mv	a0,s1
 134 00b4 83308101 		ld	ra,24(sp)
 135              		.cfi_remember_state
 136              		.cfi_restore 1
 137 00b8 03340101 		ld	s0,16(sp)
 138              		.cfi_restore 8
 139              		.cfi_def_cfa 2, 32
 140 00bc 83348100 		ld	s1,8(sp)
 141              		.cfi_restore 9
 142 00c0 13010102 		addi	sp,sp,32
 143              		.cfi_def_cfa_offset 0
 144 00c4 67800000 		jr	ra
 145              	.LVL11:
 146              	.L11:
 147              		.cfi_restore_state
  41:src/KConsole.cpp **** 
 148              		.loc 1 41 9 is_stmt 1
  41:src/KConsole.cpp **** 
 149              		.loc 1 41 14 is_stmt 0
 150 00c8 23B00500 		sd	zero,0(a1)
 151 00cc 6FF09FFD 		j	.L8
 152              	.LVL12:
 153              	.L9:
  36:src/KConsole.cpp **** 
 154              		.loc 1 36 16
 155 00d0 93040000 		li	s1,0
 156 00d4 6FF0DFFD 		j	.L7
 157              		.cfi_endproc
 158              	.LFE25:
 160              		.align	2
 161              		.globl	_ZN8KConsole10initializeEv
 163              	_ZN8KConsole10initializeEv:
 164              	.LFB26:
  47:src/KConsole.cpp **** 
  48:src/KConsole.cpp **** void KConsole::initialize()
  49:src/KConsole.cpp **** {
 165              		.loc 1 49 1 is_stmt 1
 166              		.cfi_startproc
 167              		.cfi_personality 0x9b,DW.ref.__gxx_personality_v0
 168              		.cfi_lsda 0x1b,.LLSDA26
 169 00d8 130101FE 		addi	sp,sp,-32
 170              		.cfi_def_cfa_offset 32
 171 00dc 233C1100 		sd	ra,24(sp)
 172 00e0 23388100 		sd	s0,16(sp)
 173 00e4 23349100 		sd	s1,8(sp)
 174 00e8 23302101 		sd	s2,0(sp)
 175              		.cfi_offset 1, -8
 176              		.cfi_offset 8, -16
GAS LISTING /tmp/ccEC1RRM.s 			page 5


 177              		.cfi_offset 9, -24
 178              		.cfi_offset 18, -32
 179 00ec 13040102 		addi	s0,sp,32
 180              		.cfi_def_cfa 8, 0
  50:src/KConsole.cpp ****     hasCharactersInput = new KSemaphore(0);
 181              		.loc 1 50 5
 182              		.loc 1 50 42 is_stmt 0
 183 00f0 13058001 		li	a0,24
 184              	.LEHB0:
 185 00f4 97000000 		call	_ZN10KSemaphorenwEm@plt
 185      E7800000 
 186              	.LVL13:
 187              	.LEHE0:
 188 00fc 93040500 		mv	s1,a0
 189 0100 93050000 		li	a1,0
 190              	.LEHB1:
 191 0104 97000000 		call	_ZN10KSemaphoreC1Ei@plt
 191      E7800000 
 192              	.LVL14:
 193              	.LEHE1:
 194              		.loc 1 50 24 discriminator 2
 195 010c 97070000 		sd	s1,.LANCHOR0,a5
 195      23B09700 
  51:src/KConsole.cpp ****     hasCharactersOutput = new KSemaphore(0);
 196              		.loc 1 51 5 is_stmt 1 discriminator 2
 197              		.loc 1 51 43 is_stmt 0 discriminator 2
 198 0114 13058001 		li	a0,24
 199              	.LEHB2:
 200 0118 97000000 		call	_ZN10KSemaphorenwEm@plt
 200      E7800000 
 201              	.LVL15:
 202              	.LEHE2:
 203 0120 93040500 		mv	s1,a0
 204 0124 93050000 		li	a1,0
 205              	.LEHB3:
 206 0128 97000000 		call	_ZN10KSemaphoreC1Ei@plt
 206      E7800000 
 207              	.LVL16:
 208              	.LEHE3:
 209              		.loc 1 51 25 discriminator 2
 210 0130 97070000 		sd	s1,.LANCHOR0+8,a5
 210      23B09700 
  52:src/KConsole.cpp **** }
 211              		.loc 1 52 1 discriminator 2
 212 0138 83308101 		ld	ra,24(sp)
 213              		.cfi_remember_state
 214              		.cfi_restore 1
 215 013c 03340101 		ld	s0,16(sp)
 216              		.cfi_restore 8
 217              		.cfi_def_cfa 2, 32
 218 0140 83348100 		ld	s1,8(sp)
 219              		.cfi_restore 9
 220 0144 03390100 		ld	s2,0(sp)
 221              		.cfi_restore 18
 222 0148 13010102 		addi	sp,sp,32
 223              		.cfi_def_cfa_offset 0
 224 014c 67800000 		jr	ra
GAS LISTING /tmp/ccEC1RRM.s 			page 6


 225              	.L15:
 226              		.cfi_restore_state
 227 0150 13090500 		mv	s2,a0
  50:src/KConsole.cpp ****     hasCharactersInput = new KSemaphore(0);
 228              		.loc 1 50 42
 229 0154 13850400 		mv	a0,s1
 230 0158 97000000 		call	_ZN10KSemaphoredlEPv@plt
 230      E7800000 
 231              	.LVL17:
 232 0160 13050900 		mv	a0,s2
 233              	.LEHB4:
 234 0164 97000000 		call	_Unwind_Resume@plt
 234      E7800000 
 235              	.LVL18:
 236              	.LEHE4:
 237              	.L16:
 238 016c 13090500 		mv	s2,a0
  51:src/KConsole.cpp ****     hasCharactersOutput = new KSemaphore(0);
 239              		.loc 1 51 43
 240 0170 13850400 		mv	a0,s1
 241 0174 97000000 		call	_ZN10KSemaphoredlEPv@plt
 241      E7800000 
 242              	.LVL19:
 243 017c 13050900 		mv	a0,s2
 244              	.LEHB5:
 245 0180 97000000 		call	_Unwind_Resume@plt
 245      E7800000 
 246              	.LVL20:
 247              	.LEHE5:
 248              		.cfi_endproc
 249              	.LFE26:
 250              		.globl	__gxx_personality_v0
 251              		.section	.gcc_except_table,"a",@progbits
 252              	.LLSDA26:
 253 0000 FF       		.byte	0xff
 254 0001 FF       		.byte	0xff
 255 0002 03       		.byte	0x3
 256 0003 4E       		.byte	0x4e
 257 0004 00000000 		.4byte	.LEHB0-.LFB26
 258 0008 00000000 		.4byte	.LEHE0-.LEHB0
 259 000c 00000000 		.4byte	0
 260 0010 00       		.byte	0
 261 0011 00000000 		.4byte	.LEHB1-.LFB26
 262 0015 00000000 		.4byte	.LEHE1-.LEHB1
 263 0019 00000000 		.4byte	.L15-.LFB26
 264 001d 00       		.byte	0
 265 001e 00000000 		.4byte	.LEHB2-.LFB26
 266 0022 00000000 		.4byte	.LEHE2-.LEHB2
 267 0026 00000000 		.4byte	0
 268 002a 00       		.byte	0
 269 002b 00000000 		.4byte	.LEHB3-.LFB26
 270 002f 00000000 		.4byte	.LEHE3-.LEHB3
 271 0033 00000000 		.4byte	.L16-.LFB26
 272 0037 00       		.byte	0
 273 0038 00000000 		.4byte	.LEHB4-.LFB26
 274 003c 00000000 		.4byte	.LEHE4-.LEHB4
 275 0040 00000000 		.4byte	0
GAS LISTING /tmp/ccEC1RRM.s 			page 7


 276 0044 00       		.byte	0
 277 0045 00000000 		.4byte	.LEHB5-.LFB26
 278 0049 00000000 		.4byte	.LEHE5-.LEHB5
 279 004d 00000000 		.4byte	0
 280 0051 00       		.byte	0
 281              		.text
 283              		.align	2
 284              		.globl	_ZN8KConsole17putCharacterInputEc
 286              	_ZN8KConsole17putCharacterInputEc:
 287              	.LFB29:
  53:src/KConsole.cpp **** 
  54:src/KConsole.cpp **** //extern const uint64 CONSOLE_STATUS;
  55:src/KConsole.cpp **** //extern const uint64 CONSOLE_TX_DATA;
  56:src/KConsole.cpp **** //extern const uint64 CONSOLE_RX_DATA;
  57:src/KConsole.cpp **** 
  58:src/KConsole.cpp **** void KConsole::getCharactersFromConsole(void* p)
  59:src/KConsole.cpp **** {
  60:src/KConsole.cpp ****     while(true)
  61:src/KConsole.cpp ****     {
  62:src/KConsole.cpp ****         uint64 x = CONSOLE_STATUS;
  63:src/KConsole.cpp ****         __asm__ volatile("mv a0, %0"::"r"(x));
  64:src/KConsole.cpp ****         __asm__ volatile("lb a1, 0(a0)");
  65:src/KConsole.cpp ****         uint64 operation;
  66:src/KConsole.cpp ****         __asm__ volatile("mv %0, a1" :  "=r"(operation));
  67:src/KConsole.cpp ****         if(operation & STATUS_READ_MASK)
  68:src/KConsole.cpp ****         {
  69:src/KConsole.cpp ****             x = CONSOLE_TX_DATA;
  70:src/KConsole.cpp ****             __asm__ volatile("mv a0, %0"::"r"(x));
  71:src/KConsole.cpp ****             __asm__ volatile("lb a1,0(a0)");
  72:src/KConsole.cpp ****             char c;
  73:src/KConsole.cpp ****             __asm__ volatile("mv %0, a1" :  "=r"(c));
  74:src/KConsole.cpp **** 
  75:src/KConsole.cpp ****             putCharacterInput(c);
  76:src/KConsole.cpp ****             putCharacterOutput(c);
  77:src/KConsole.cpp ****         }
  78:src/KConsole.cpp ****         else
  79:src/KConsole.cpp ****             break;
  80:src/KConsole.cpp ****     }
  81:src/KConsole.cpp **** }
  82:src/KConsole.cpp **** 
  83:src/KConsole.cpp **** void KConsole::sendCharactersToConsole(void* p)
  84:src/KConsole.cpp **** {
  85:src/KConsole.cpp ****     while(true)
  86:src/KConsole.cpp ****     {
  87:src/KConsole.cpp **** 
  88:src/KConsole.cpp ****             uint64 x = CONSOLE_STATUS;
  89:src/KConsole.cpp ****             __asm__ volatile("mv a0, %0"::"r"(x));
  90:src/KConsole.cpp ****             __asm__ volatile("lb a1, 0(a0)");
  91:src/KConsole.cpp ****             uint64 operation;
  92:src/KConsole.cpp ****             __asm__ volatile("mv %0, a1" :  "=r"(operation));
  93:src/KConsole.cpp ****             if (operation & STATUS_WRITE_MASK)
  94:src/KConsole.cpp ****             {
  95:src/KConsole.cpp ****                 char volatile c = getCharacterOutput();
  96:src/KConsole.cpp ****                 x = CONSOLE_RX_DATA;
  97:src/KConsole.cpp ****                 __asm__ volatile("mv a0, %0"::"r"(x));
  98:src/KConsole.cpp ****                 __asm__ volatile("mv a1, %0" :  :"r"((uint64)c));
  99:src/KConsole.cpp ****                 __asm__ volatile("sb a1,0(a0)");
GAS LISTING /tmp/ccEC1RRM.s 			page 8


 100:src/KConsole.cpp ****             }
 101:src/KConsole.cpp ****             else
 102:src/KConsole.cpp ****                 thread_dispatch();
 103:src/KConsole.cpp ****     }
 104:src/KConsole.cpp **** }
 105:src/KConsole.cpp **** 
 106:src/KConsole.cpp **** void KConsole::putCharacterInput(char c)
 107:src/KConsole.cpp **** {
 288              		.loc 1 107 1 is_stmt 1
 289              		.cfi_startproc
 290              	.LVL21:
 291 0188 130101FF 		addi	sp,sp,-16
 292              		.cfi_def_cfa_offset 16
 293 018c 23341100 		sd	ra,8(sp)
 294 0190 23308100 		sd	s0,0(sp)
 295              		.cfi_offset 1, -8
 296              		.cfi_offset 8, -16
 297 0194 13040101 		addi	s0,sp,16
 298              		.cfi_def_cfa 8, 0
 108:src/KConsole.cpp ****     putChar(c, headInput, tailInput);
 299              		.loc 1 108 5
 300              		.loc 1 108 12 is_stmt 0
 301 0198 17060000 		lla	a2,.LANCHOR0+16
 301      13060600 
 302 01a0 97050000 		lla	a1,.LANCHOR0+24
 302      93850500 
 303 01a8 97000000 		call	_ZN8KConsole7putCharEcRPNS_4ElemES2_
 303      E7800000 
 304              	.LVL22:
 109:src/KConsole.cpp ****     hasCharactersInput->signal();
 305              		.loc 1 109 5 is_stmt 1
 306              		.loc 1 109 31 is_stmt 0
 307 01b0 17050000 		ld	a0,.LANCHOR0
 307      03350500 
 308 01b8 97000000 		call	_ZN10KSemaphore6signalEv@plt
 308      E7800000 
 309              	.LVL23:
 110:src/KConsole.cpp **** }
 310              		.loc 1 110 1
 311 01c0 83308100 		ld	ra,8(sp)
 312              		.cfi_restore 1
 313 01c4 03340100 		ld	s0,0(sp)
 314              		.cfi_restore 8
 315              		.cfi_def_cfa 2, 16
 316 01c8 13010101 		addi	sp,sp,16
 317              		.cfi_def_cfa_offset 0
 318 01cc 67800000 		jr	ra
 319              		.cfi_endproc
 320              	.LFE29:
 322              		.align	2
 323              		.globl	_ZN8KConsole17getCharacterInputEv
 325              	_ZN8KConsole17getCharacterInputEv:
 326              	.LFB30:
 111:src/KConsole.cpp **** 
 112:src/KConsole.cpp **** char KConsole::getCharacterInput()
 113:src/KConsole.cpp **** {
 327              		.loc 1 113 1 is_stmt 1
GAS LISTING /tmp/ccEC1RRM.s 			page 9


 328              		.cfi_startproc
 329 01d0 130101FF 		addi	sp,sp,-16
 330              		.cfi_def_cfa_offset 16
 331 01d4 23341100 		sd	ra,8(sp)
 332 01d8 23308100 		sd	s0,0(sp)
 333              		.cfi_offset 1, -8
 334              		.cfi_offset 8, -16
 335 01dc 13040101 		addi	s0,sp,16
 336              		.cfi_def_cfa 8, 0
 114:src/KConsole.cpp ****     hasCharactersInput->wait();
 337              		.loc 1 114 5
 338              		.loc 1 114 29 is_stmt 0
 339 01e0 17050000 		ld	a0,.LANCHOR0
 339      03350500 
 340 01e8 97000000 		call	_ZN10KSemaphore4waitEv@plt
 340      E7800000 
 341              	.LVL24:
 115:src/KConsole.cpp ****     return getChar(headInput, tailInput);
 342              		.loc 1 115 5 is_stmt 1
 343              		.loc 1 115 19 is_stmt 0
 344 01f0 97050000 		lla	a1,.LANCHOR0+16
 344      93850500 
 345 01f8 17050000 		lla	a0,.LANCHOR0+24
 345      13050500 
 346 0200 97000000 		call	_ZN8KConsole7getCharERPNS_4ElemES2_
 346      E7800000 
 347              	.LVL25:
 116:src/KConsole.cpp **** }
 348              		.loc 1 116 1
 349 0208 83308100 		ld	ra,8(sp)
 350              		.cfi_restore 1
 351 020c 03340100 		ld	s0,0(sp)
 352              		.cfi_restore 8
 353              		.cfi_def_cfa 2, 16
 354 0210 13010101 		addi	sp,sp,16
 355              		.cfi_def_cfa_offset 0
 356 0214 67800000 		jr	ra
 357              		.cfi_endproc
 358              	.LFE30:
 360              		.align	2
 361              		.globl	_ZN8KConsole18putCharacterOutputEc
 363              	_ZN8KConsole18putCharacterOutputEc:
 364              	.LFB31:
 117:src/KConsole.cpp **** 
 118:src/KConsole.cpp **** void KConsole::putCharacterOutput(char c)
 119:src/KConsole.cpp **** {
 365              		.loc 1 119 1 is_stmt 1
 366              		.cfi_startproc
 367              	.LVL26:
 368 0218 130101FF 		addi	sp,sp,-16
 369              		.cfi_def_cfa_offset 16
 370 021c 23341100 		sd	ra,8(sp)
 371 0220 23308100 		sd	s0,0(sp)
 372              		.cfi_offset 1, -8
 373              		.cfi_offset 8, -16
 374 0224 13040101 		addi	s0,sp,16
 375              		.cfi_def_cfa 8, 0
GAS LISTING /tmp/ccEC1RRM.s 			page 10


 120:src/KConsole.cpp ****     putChar(c, headOutput, tailOutput);
 376              		.loc 1 120 5
 377              		.loc 1 120 12 is_stmt 0
 378 0228 17060000 		lla	a2,.LANCHOR0+32
 378      13060600 
 379 0230 97050000 		lla	a1,.LANCHOR0+40
 379      93850500 
 380 0238 97000000 		call	_ZN8KConsole7putCharEcRPNS_4ElemES2_
 380      E7800000 
 381              	.LVL27:
 121:src/KConsole.cpp ****     hasCharactersOutput->signal();
 382              		.loc 1 121 5 is_stmt 1
 383              		.loc 1 121 32 is_stmt 0
 384 0240 17050000 		ld	a0,.LANCHOR0+8
 384      03350500 
 385 0248 97000000 		call	_ZN10KSemaphore6signalEv@plt
 385      E7800000 
 386              	.LVL28:
 122:src/KConsole.cpp **** }
 387              		.loc 1 122 1
 388 0250 83308100 		ld	ra,8(sp)
 389              		.cfi_restore 1
 390 0254 03340100 		ld	s0,0(sp)
 391              		.cfi_restore 8
 392              		.cfi_def_cfa 2, 16
 393 0258 13010101 		addi	sp,sp,16
 394              		.cfi_def_cfa_offset 0
 395 025c 67800000 		jr	ra
 396              		.cfi_endproc
 397              	.LFE31:
 399              		.align	2
 400              		.globl	_ZN8KConsole24getCharactersFromConsoleEPv
 402              	_ZN8KConsole24getCharactersFromConsoleEPv:
 403              	.LFB27:
  59:src/KConsole.cpp ****     while(true)
 404              		.loc 1 59 1 is_stmt 1
 405              		.cfi_startproc
 406              	.LVL29:
  60:src/KConsole.cpp ****     {
 407              		.loc 1 60 5
 408              	.LBB2:
  62:src/KConsole.cpp ****         __asm__ volatile("mv a0, %0"::"r"(x));
 409              		.loc 1 62 9
  62:src/KConsole.cpp ****         __asm__ volatile("mv a0, %0"::"r"(x));
 410              		.loc 1 62 16 is_stmt 0
 411 0260 97070000 		la	a5,CONSOLE_STATUS
 411      83B70700 
 412 0268 83B70700 		ld	a5,0(a5)
 413              	.LVL30:
  63:src/KConsole.cpp ****         __asm__ volatile("lb a1, 0(a0)");
 414              		.loc 1 63 9 is_stmt 1
  63:src/KConsole.cpp ****         __asm__ volatile("lb a1, 0(a0)");
 415              		.loc 1 63 46 is_stmt 0
 416              	#APP
 417              	# 63 "src/KConsole.cpp" 1
  64:src/KConsole.cpp ****         uint64 operation;
 418              		mv a0, a5
GAS LISTING /tmp/ccEC1RRM.s 			page 11


 419              	# 0 "" 2
 420              		.loc 1 64 9 is_stmt 1
  64:src/KConsole.cpp ****         uint64 operation;
 421              		.loc 1 64 41 is_stmt 0
 422              	# 64 "src/KConsole.cpp" 1
  65:src/KConsole.cpp ****         __asm__ volatile("mv %0, a1" :  "=r"(operation));
 423              		lb a1, 0(a0)
 424              	# 0 "" 2
 425              		.loc 1 65 9 is_stmt 1
  66:src/KConsole.cpp ****         if(operation & STATUS_READ_MASK)
 426              		.loc 1 66 9
  66:src/KConsole.cpp ****         if(operation & STATUS_READ_MASK)
 427              		.loc 1 66 57 is_stmt 0
 428              	# 66 "src/KConsole.cpp" 1
 429              		mv a5, a1
 430              	# 0 "" 2
 431              	.LVL31:
  67:src/KConsole.cpp ****         {
 432              		.loc 1 67 9 is_stmt 1
 433              	#NO_APP
 434              	.LBB3:
  67:src/KConsole.cpp ****         {
 435              		.loc 1 67 22 is_stmt 0
 436 0278 93F71700 		andi	a5,a5,1
 437              	.LVL32:
  67:src/KConsole.cpp ****         {
 438              		.loc 1 67 9
 439 027c 63800708 		beqz	a5,.L33
 440              	.LBE3:
 441              	.LBE2:
  59:src/KConsole.cpp ****     while(true)
 442              		.loc 1 59 1
 443 0280 130101FE 		addi	sp,sp,-32
 444              		.cfi_def_cfa_offset 32
 445 0284 233C1100 		sd	ra,24(sp)
 446 0288 23388100 		sd	s0,16(sp)
 447 028c 23349100 		sd	s1,8(sp)
 448              		.cfi_offset 1, -8
 449              		.cfi_offset 8, -16
 450              		.cfi_offset 9, -24
 451 0290 13040102 		addi	s0,sp,32
 452              		.cfi_def_cfa 8, 0
 453              	.LVL33:
 454              	.L29:
 455              	.LBB7:
 456              	.LBB5:
 457              	.LBB4:
  69:src/KConsole.cpp ****             __asm__ volatile("mv a0, %0"::"r"(x));
 458              		.loc 1 69 13 is_stmt 1
  69:src/KConsole.cpp ****             __asm__ volatile("mv a0, %0"::"r"(x));
 459              		.loc 1 69 15 is_stmt 0
 460 0294 97070000 		la	a5,CONSOLE_TX_DATA
 460      83B70700 
 461 029c 83B70700 		ld	a5,0(a5)
 462              	.LVL34:
  70:src/KConsole.cpp ****             __asm__ volatile("lb a1,0(a0)");
 463              		.loc 1 70 13 is_stmt 1
GAS LISTING /tmp/ccEC1RRM.s 			page 12


  70:src/KConsole.cpp ****             __asm__ volatile("lb a1,0(a0)");
 464              		.loc 1 70 50 is_stmt 0
 465              	#APP
 466              	# 70 "src/KConsole.cpp" 1
  71:src/KConsole.cpp ****             char c;
 467              		mv a0, a5
 468              	# 0 "" 2
 469              		.loc 1 71 13 is_stmt 1
  71:src/KConsole.cpp ****             char c;
 470              		.loc 1 71 44 is_stmt 0
 471              	# 71 "src/KConsole.cpp" 1
  72:src/KConsole.cpp ****             __asm__ volatile("mv %0, a1" :  "=r"(c));
 472              		lb a1,0(a0)
 473              	# 0 "" 2
 474              		.loc 1 72 13 is_stmt 1
  73:src/KConsole.cpp **** 
 475              		.loc 1 73 13
  73:src/KConsole.cpp **** 
 476              		.loc 1 73 53 is_stmt 0
 477              	# 73 "src/KConsole.cpp" 1
 478              		mv s1, a1
 479              	# 0 "" 2
 480              	#NO_APP
 481 02ac 93F4F40F 		andi	s1,s1,0xff
 482              	.LVL35:
  75:src/KConsole.cpp ****             putCharacterOutput(c);
 483              		.loc 1 75 13 is_stmt 1
  75:src/KConsole.cpp ****             putCharacterOutput(c);
 484              		.loc 1 75 30 is_stmt 0
 485 02b0 13850400 		mv	a0,s1
 486 02b4 97000000 		call	_ZN8KConsole17putCharacterInputEc
 486      E7800000 
 487              	.LVL36:
  76:src/KConsole.cpp ****         }
 488              		.loc 1 76 13 is_stmt 1
  76:src/KConsole.cpp ****         }
 489              		.loc 1 76 31 is_stmt 0
 490 02bc 13850400 		mv	a0,s1
 491 02c0 97000000 		call	_ZN8KConsole18putCharacterOutputEc
 491      E7800000 
 492              	.LVL37:
 493              	.LBE4:
 494              	.LBE5:
 495              	.LBE7:
  60:src/KConsole.cpp ****     {
 496              		.loc 1 60 5 is_stmt 1
  60:src/KConsole.cpp ****     {
 497              		.loc 1 60 5
 498              	.LBB8:
  62:src/KConsole.cpp ****         __asm__ volatile("mv a0, %0"::"r"(x));
 499              		.loc 1 62 9
  62:src/KConsole.cpp ****         __asm__ volatile("mv a0, %0"::"r"(x));
 500              		.loc 1 62 16 is_stmt 0
 501 02c8 97070000 		la	a5,CONSOLE_STATUS
 501      83B70700 
 502 02d0 83B70700 		ld	a5,0(a5)
 503              	.LVL38:
GAS LISTING /tmp/ccEC1RRM.s 			page 13


  63:src/KConsole.cpp ****         __asm__ volatile("lb a1, 0(a0)");
 504              		.loc 1 63 9 is_stmt 1
  63:src/KConsole.cpp ****         __asm__ volatile("lb a1, 0(a0)");
 505              		.loc 1 63 46 is_stmt 0
 506              	#APP
 507              	# 63 "src/KConsole.cpp" 1
  64:src/KConsole.cpp ****         uint64 operation;
 508              		mv a0, a5
 509              	# 0 "" 2
 510              		.loc 1 64 9 is_stmt 1
  64:src/KConsole.cpp ****         uint64 operation;
 511              		.loc 1 64 41 is_stmt 0
 512              	# 64 "src/KConsole.cpp" 1
  65:src/KConsole.cpp ****         __asm__ volatile("mv %0, a1" :  "=r"(operation));
 513              		lb a1, 0(a0)
 514              	# 0 "" 2
 515              		.loc 1 65 9 is_stmt 1
  66:src/KConsole.cpp ****         if(operation & STATUS_READ_MASK)
 516              		.loc 1 66 9
  66:src/KConsole.cpp ****         if(operation & STATUS_READ_MASK)
 517              		.loc 1 66 57 is_stmt 0
 518              	# 66 "src/KConsole.cpp" 1
 519              		mv a5, a1
 520              	# 0 "" 2
 521              	.LVL39:
  67:src/KConsole.cpp ****         {
 522              		.loc 1 67 9 is_stmt 1
 523              	#NO_APP
 524              	.LBB6:
  67:src/KConsole.cpp ****         {
 525              		.loc 1 67 22 is_stmt 0
 526 02e0 93F71700 		andi	a5,a5,1
 527              	.LVL40:
  67:src/KConsole.cpp ****         {
 528              		.loc 1 67 9
 529 02e4 E39807FA 		bnez	a5,.L29
 530              	.LBE6:
 531              	.LBE8:
  81:src/KConsole.cpp **** 
 532              		.loc 1 81 1
 533 02e8 83308101 		ld	ra,24(sp)
 534              		.cfi_restore 1
 535 02ec 03340101 		ld	s0,16(sp)
 536              		.cfi_restore 8
 537              		.cfi_def_cfa 2, 32
 538 02f0 83348100 		ld	s1,8(sp)
 539              		.cfi_restore 9
 540              	.LVL41:
 541 02f4 13010102 		addi	sp,sp,32
 542              		.cfi_def_cfa_offset 0
 543 02f8 67800000 		jr	ra
 544              	.LVL42:
 545              	.L33:
 546 02fc 67800000 		ret
 547              		.cfi_endproc
 548              	.LFE27:
 550              		.align	2
GAS LISTING /tmp/ccEC1RRM.s 			page 14


 551              		.globl	_ZN8KConsole18getCharacterOutputEv
 553              	_ZN8KConsole18getCharacterOutputEv:
 554              	.LFB32:
 123:src/KConsole.cpp **** 
 124:src/KConsole.cpp **** char KConsole::getCharacterOutput()
 125:src/KConsole.cpp **** {
 555              		.loc 1 125 1 is_stmt 1
 556              		.cfi_startproc
 557 0300 130101FF 		addi	sp,sp,-16
 558              		.cfi_def_cfa_offset 16
 559 0304 23341100 		sd	ra,8(sp)
 560 0308 23308100 		sd	s0,0(sp)
 561              		.cfi_offset 1, -8
 562              		.cfi_offset 8, -16
 563 030c 13040101 		addi	s0,sp,16
 564              		.cfi_def_cfa 8, 0
 126:src/KConsole.cpp ****     hasCharactersOutput->wait();
 565              		.loc 1 126 5
 566              		.loc 1 126 30 is_stmt 0
 567 0310 17050000 		ld	a0,.LANCHOR0+8
 567      03350500 
 568 0318 97000000 		call	_ZN10KSemaphore4waitEv@plt
 568      E7800000 
 569              	.LVL43:
 127:src/KConsole.cpp ****     return getChar(headOutput, tailOutput);
 570              		.loc 1 127 5 is_stmt 1
 571              		.loc 1 127 19 is_stmt 0
 572 0320 97050000 		lla	a1,.LANCHOR0+32
 572      93850500 
 573 0328 17050000 		lla	a0,.LANCHOR0+40
 573      13050500 
 574 0330 97000000 		call	_ZN8KConsole7getCharERPNS_4ElemES2_
 574      E7800000 
 575              	.LVL44:
 128:src/KConsole.cpp **** }
 576              		.loc 1 128 1
 577 0338 83308100 		ld	ra,8(sp)
 578              		.cfi_restore 1
 579 033c 03340100 		ld	s0,0(sp)
 580              		.cfi_restore 8
 581              		.cfi_def_cfa 2, 16
 582 0340 13010101 		addi	sp,sp,16
 583              		.cfi_def_cfa_offset 0
 584 0344 67800000 		jr	ra
 585              		.cfi_endproc
 586              	.LFE32:
 588              		.align	2
 589              		.globl	_ZN8KConsole23sendCharactersToConsoleEPv
 591              	_ZN8KConsole23sendCharactersToConsoleEPv:
 592              	.LFB28:
  84:src/KConsole.cpp ****     while(true)
 593              		.loc 1 84 1 is_stmt 1
 594              		.cfi_startproc
 595              	.LVL45:
 596 0348 130101FE 		addi	sp,sp,-32
 597              		.cfi_def_cfa_offset 32
 598 034c 233C1100 		sd	ra,24(sp)
GAS LISTING /tmp/ccEC1RRM.s 			page 15


 599 0350 23388100 		sd	s0,16(sp)
 600              		.cfi_offset 1, -8
 601              		.cfi_offset 8, -16
 602 0354 13040102 		addi	s0,sp,32
 603              		.cfi_def_cfa 8, 0
 604 0358 6F00C000 		j	.L37
 605              	.LVL46:
 606              	.L38:
 607              	.LBB9:
 608              	.LBB10:
 102:src/KConsole.cpp ****     }
 609              		.loc 1 102 17
 102:src/KConsole.cpp ****     }
 610              		.loc 1 102 32 is_stmt 0
 611 035c 97000000 		call	thread_dispatch@plt
 611      E7800000 
 612              	.LVL47:
 613              	.L37:
 614              	.LBE10:
 615              	.LBE9:
  85:src/KConsole.cpp ****     {
 616              		.loc 1 85 5 is_stmt 1
 617              	.LBB13:
  88:src/KConsole.cpp ****             __asm__ volatile("mv a0, %0"::"r"(x));
 618              		.loc 1 88 13
  88:src/KConsole.cpp ****             __asm__ volatile("mv a0, %0"::"r"(x));
 619              		.loc 1 88 20 is_stmt 0
 620 0364 97070000 		la	a5,CONSOLE_STATUS
 620      83B70700 
 621 036c 83B70700 		ld	a5,0(a5)
 622              	.LVL48:
  89:src/KConsole.cpp ****             __asm__ volatile("lb a1, 0(a0)");
 623              		.loc 1 89 13 is_stmt 1
  89:src/KConsole.cpp ****             __asm__ volatile("lb a1, 0(a0)");
 624              		.loc 1 89 50 is_stmt 0
 625              	#APP
 626              	# 89 "src/KConsole.cpp" 1
  90:src/KConsole.cpp ****             uint64 operation;
 627              		mv a0, a5
 628              	# 0 "" 2
 629              		.loc 1 90 13 is_stmt 1
  90:src/KConsole.cpp ****             uint64 operation;
 630              		.loc 1 90 45 is_stmt 0
 631              	# 90 "src/KConsole.cpp" 1
  91:src/KConsole.cpp ****             __asm__ volatile("mv %0, a1" :  "=r"(operation));
 632              		lb a1, 0(a0)
 633              	# 0 "" 2
 634              		.loc 1 91 13 is_stmt 1
  92:src/KConsole.cpp ****             if (operation & STATUS_WRITE_MASK)
 635              		.loc 1 92 13
  92:src/KConsole.cpp ****             if (operation & STATUS_WRITE_MASK)
 636              		.loc 1 92 61 is_stmt 0
 637              	# 92 "src/KConsole.cpp" 1
 638              		mv a5, a1
 639              	# 0 "" 2
 640              	.LVL49:
  93:src/KConsole.cpp ****             {
GAS LISTING /tmp/ccEC1RRM.s 			page 16


 641              		.loc 1 93 13 is_stmt 1
 642              	#NO_APP
 643              	.LBB12:
  93:src/KConsole.cpp ****             {
 644              		.loc 1 93 27 is_stmt 0
 645 037c 93F70702 		andi	a5,a5,32
 646              	.LVL50:
  93:src/KConsole.cpp ****             {
 647              		.loc 1 93 13
 648 0380 E38E07FC 		beqz	a5,.L38
 649              	.LBB11:
  95:src/KConsole.cpp ****                 x = CONSOLE_RX_DATA;
 650              		.loc 1 95 17 is_stmt 1
  95:src/KConsole.cpp ****                 x = CONSOLE_RX_DATA;
 651              		.loc 1 95 53 is_stmt 0
 652 0384 97000000 		call	_ZN8KConsole18getCharacterOutputEv
 652      E7800000 
 653              	.LVL51:
  95:src/KConsole.cpp ****                 x = CONSOLE_RX_DATA;
 654              		.loc 1 95 54
 655 038c A307A4FE 		sb	a0,-17(s0)
  96:src/KConsole.cpp ****                 __asm__ volatile("mv a0, %0"::"r"(x));
 656              		.loc 1 96 17 is_stmt 1
  96:src/KConsole.cpp ****                 __asm__ volatile("mv a0, %0"::"r"(x));
 657              		.loc 1 96 19 is_stmt 0
 658 0390 97070000 		la	a5,CONSOLE_RX_DATA
 658      83B70700 
 659 0398 83B70700 		ld	a5,0(a5)
 660              	.LVL52:
  97:src/KConsole.cpp ****                 __asm__ volatile("mv a1, %0" :  :"r"((uint64)c));
 661              		.loc 1 97 17 is_stmt 1
  97:src/KConsole.cpp ****                 __asm__ volatile("mv a1, %0" :  :"r"((uint64)c));
 662              		.loc 1 97 54 is_stmt 0
 663              	#APP
 664              	# 97 "src/KConsole.cpp" 1
  98:src/KConsole.cpp ****                 __asm__ volatile("sb a1,0(a0)");
 665              		mv a0, a5
 666              	# 0 "" 2
 667              		.loc 1 98 17 is_stmt 1
  98:src/KConsole.cpp ****                 __asm__ volatile("sb a1,0(a0)");
 668              		.loc 1 98 54 is_stmt 0
 669              	#NO_APP
 670 03a0 8347F4FE 		lbu	a5,-17(s0)
 671              	.LVL53:
 672 03a4 93F7F70F 		andi	a5,a5,0xff
  98:src/KConsole.cpp ****                 __asm__ volatile("sb a1,0(a0)");
 673              		.loc 1 98 65
 674              	#APP
 675              	# 98 "src/KConsole.cpp" 1
  99:src/KConsole.cpp ****             }
 676              		mv a1, a5
 677              	# 0 "" 2
 678              		.loc 1 99 17 is_stmt 1
  99:src/KConsole.cpp ****             }
 679              		.loc 1 99 48 is_stmt 0
 680              	# 99 "src/KConsole.cpp" 1
 681              		sb a1,0(a0)
GAS LISTING /tmp/ccEC1RRM.s 			page 17


 682              	# 0 "" 2
 683              	#NO_APP
 684              	.LBE11:
 685 03b0 6FF05FFB 		j	.L37
 686              	.LBE12:
 687              	.LBE13:
 688              		.cfi_endproc
 689              	.LFE28:
 691              		.align	2
 692              		.globl	_ZN8KConsole11putcHandlerEv
 694              	_ZN8KConsole11putcHandlerEv:
 695              	.LFB33:
 129:src/KConsole.cpp **** 
 130:src/KConsole.cpp **** void KConsole::putcHandler()
 131:src/KConsole.cpp **** {
 696              		.loc 1 131 1 is_stmt 1
 697              		.cfi_startproc
 698 03b4 130101FF 		addi	sp,sp,-16
 699              		.cfi_def_cfa_offset 16
 700 03b8 23341100 		sd	ra,8(sp)
 701 03bc 23308100 		sd	s0,0(sp)
 702              		.cfi_offset 1, -8
 703              		.cfi_offset 8, -16
 704 03c0 13040101 		addi	s0,sp,16
 705              		.cfi_def_cfa 8, 0
 132:src/KConsole.cpp ****     uint64 ch;
 706              		.loc 1 132 5
 133:src/KConsole.cpp ****     __asm__ volatile("mv %0, a1" : "=r"(ch));
 707              		.loc 1 133 5
 708              		.loc 1 133 45 is_stmt 0
 709              	#APP
 710              	# 133 "src/KConsole.cpp" 1
 134              	    putCharacterOutput((char)ch);
 711              		mv a0, a1
 712              	# 0 "" 2
 713              	.LVL54:
 714              		.loc 1 134 5 is_stmt 1
 715              		.loc 1 134 23 is_stmt 0
 716              	#NO_APP
 717 03c8 1375F50F 		andi	a0,a0,0xff
 718              	.LVL55:
 719 03cc 97000000 		call	_ZN8KConsole18putCharacterOutputEc
 719      E7800000 
 720              	.LVL56:
 135:src/KConsole.cpp ****     Elem* curr = headOutput;
 721              		.loc 1 135 5 is_stmt 1
 722              		.loc 1 135 11 is_stmt 0
 723 03d4 97070000 		ld	a5,.LANCHOR0+40
 723      83B70700 
 724              	.LVL57:
 725              	.L43:
 136:src/KConsole.cpp ****     while(curr != 0)
 726              		.loc 1 136 5 is_stmt 1
 727              		.loc 1 136 16
 728 03dc 63860700 		beqz	a5,.L41
 137:src/KConsole.cpp ****     {
 138:src/KConsole.cpp ****         curr = curr->next;
GAS LISTING /tmp/ccEC1RRM.s 			page 18


 729              		.loc 1 138 9
 730              		.loc 1 138 14 is_stmt 0
 731 03e0 83B70700 		ld	a5,0(a5)
 732              	.LVL58:
 136:src/KConsole.cpp ****     while(curr != 0)
 733              		.loc 1 136 5
 734 03e4 6FF09FFF 		j	.L43
 735              	.L41:
 139:src/KConsole.cpp ****     }
 140:src/KConsole.cpp **** }
 736              		.loc 1 140 1
 737 03e8 83308100 		ld	ra,8(sp)
 738              		.cfi_restore 1
 739 03ec 03340100 		ld	s0,0(sp)
 740              		.cfi_restore 8
 741              		.cfi_def_cfa 2, 16
 742 03f0 13010101 		addi	sp,sp,16
 743              		.cfi_def_cfa_offset 0
 744 03f4 67800000 		jr	ra
 745              		.cfi_endproc
 746              	.LFE33:
 748              		.align	2
 749              		.globl	_ZN8KConsole11getcHandlerEv
 751              	_ZN8KConsole11getcHandlerEv:
 752              	.LFB34:
 141:src/KConsole.cpp **** 
 142:src/KConsole.cpp **** void KConsole::getcHandler()
 143:src/KConsole.cpp **** {
 753              		.loc 1 143 1 is_stmt 1
 754              		.cfi_startproc
 755 03f8 130101FF 		addi	sp,sp,-16
 756              		.cfi_def_cfa_offset 16
 757 03fc 23341100 		sd	ra,8(sp)
 758 0400 23308100 		sd	s0,0(sp)
 759              		.cfi_offset 1, -8
 760              		.cfi_offset 8, -16
 761 0404 13040101 		addi	s0,sp,16
 762              		.cfi_def_cfa 8, 0
 144:src/KConsole.cpp ****     pendingGetc++;
 763              		.loc 1 144 5
 764              		.loc 1 144 16 is_stmt 0
 765 0408 17070000 		lla	a4,.LANCHOR0
 765      13070700 
 766 0410 83370703 		ld	a5,48(a4)
 767 0414 93871700 		addi	a5,a5,1
 768 0418 2338F702 		sd	a5,48(a4)
 145:src/KConsole.cpp ****     char ch;
 769              		.loc 1 145 5 is_stmt 1
 146:src/KConsole.cpp ****     ch = getCharacterInput();
 770              		.loc 1 146 5
 771              		.loc 1 146 27 is_stmt 0
 772 041c 97000000 		call	_ZN8KConsole17getCharacterInputEv
 772      E7800000 
 773              	.LVL59:
 147:src/KConsole.cpp ****     __asm__ volatile("mv a0, %0" : :"r"((uint64)ch));
 774              		.loc 1 147 5 is_stmt 1
 775              		.loc 1 147 53 is_stmt 0
GAS LISTING /tmp/ccEC1RRM.s 			page 19


 776              	#APP
 777              	# 147 "src/KConsole.cpp" 1
 148              	    Riscv::w_a0_sscratch();
 778              		mv a0, a0
 779              	# 0 "" 2
 780              		.loc 1 148 5 is_stmt 1
 781              		.loc 1 148 25 is_stmt 0
 782              	#NO_APP
 783 0428 97000000 		call	_ZN5Riscv13w_a0_sscratchEv@plt
 783      E7800000 
 784              	.LVL60:
 149:src/KConsole.cpp **** }
 785              		.loc 1 149 1
 786 0430 83308100 		ld	ra,8(sp)
 787              		.cfi_restore 1
 788 0434 03340100 		ld	s0,0(sp)
 789              		.cfi_restore 8
 790              		.cfi_def_cfa 2, 16
 791 0438 13010101 		addi	sp,sp,16
 792              		.cfi_def_cfa_offset 0
 793 043c 67800000 		jr	ra
 794              		.cfi_endproc
 795              	.LFE34:
 797              		.align	2
 798              		.globl	_ZN8KConsole11printBufferEv
 800              	_ZN8KConsole11printBufferEv:
 801              	.LFB35:
 150:src/KConsole.cpp **** 
 151:src/KConsole.cpp **** void KConsole::printBuffer()
 152:src/KConsole.cpp **** {
 802              		.loc 1 152 1 is_stmt 1
 803              		.cfi_startproc
 804 0440 130101FE 		addi	sp,sp,-32
 805              		.cfi_def_cfa_offset 32
 806 0444 233C1100 		sd	ra,24(sp)
 807 0448 23388100 		sd	s0,16(sp)
 808 044c 23349100 		sd	s1,8(sp)
 809              		.cfi_offset 1, -8
 810              		.cfi_offset 8, -16
 811              		.cfi_offset 9, -24
 812 0450 13040102 		addi	s0,sp,32
 813              		.cfi_def_cfa 8, 0
 153:src/KConsole.cpp ****     Elem* curr = headInput;
 814              		.loc 1 153 5
 815              		.loc 1 153 11 is_stmt 0
 816 0454 97040000 		ld	s1,.LANCHOR0+24
 816      83B40400 
 817              	.LVL61:
 818              	.L49:
 154:src/KConsole.cpp ****     while(curr != 0)
 819              		.loc 1 154 5 is_stmt 1
 820              		.loc 1 154 16
 821 045c 638C0400 		beqz	s1,.L47
 155:src/KConsole.cpp ****     {
 156:src/KConsole.cpp ****         putc(curr->data);
 822              		.loc 1 156 9
 823              		.loc 1 156 13 is_stmt 0
GAS LISTING /tmp/ccEC1RRM.s 			page 20


 824 0460 03C58400 		lbu	a0,8(s1)
 825 0464 97000000 		call	putc@plt
 825      E7800000 
 826              	.LVL62:
 157:src/KConsole.cpp ****         curr = curr->next;
 827              		.loc 1 157 9 is_stmt 1
 828              		.loc 1 157 14 is_stmt 0
 829 046c 83B40400 		ld	s1,0(s1)
 830              	.LVL63:
 154:src/KConsole.cpp ****     while(curr != 0)
 831              		.loc 1 154 5
 832 0470 6FF0DFFE 		j	.L49
 833              	.L47:
 158:src/KConsole.cpp ****     }
 159:src/KConsole.cpp **** }
 834              		.loc 1 159 1
 835 0474 83308101 		ld	ra,24(sp)
 836              		.cfi_restore 1
 837 0478 03340101 		ld	s0,16(sp)
 838              		.cfi_restore 8
 839              		.cfi_def_cfa 2, 32
 840 047c 83348100 		ld	s1,8(sp)
 841              		.cfi_restore 9
 842              	.LVL64:
 843 0480 13010102 		addi	sp,sp,32
 844              		.cfi_def_cfa_offset 0
 845 0484 67800000 		jr	ra
 846              		.cfi_endproc
 847              	.LFE35:
 849              		.globl	_ZN8KConsole11pendingGetcE
 850              		.globl	_ZN8KConsole18hasCharactersInputE
 851              		.globl	_ZN8KConsole19hasCharactersOutputE
 852              		.globl	_ZN8KConsole10tailOutputE
 853              		.globl	_ZN8KConsole10headOutputE
 854              		.globl	_ZN8KConsole9tailInputE
 855              		.globl	_ZN8KConsole9headInputE
 856              		.bss
 857              		.align	3
 858              		.set	.LANCHOR0,. + 0
 861              	_ZN8KConsole18hasCharactersInputE:
 862 0000 00000000 		.zero	8
 862      00000000 
 865              	_ZN8KConsole19hasCharactersOutputE:
 866 0008 00000000 		.zero	8
 866      00000000 
 869              	_ZN8KConsole9tailInputE:
 870 0010 00000000 		.zero	8
 870      00000000 
 873              	_ZN8KConsole9headInputE:
 874 0018 00000000 		.zero	8
 874      00000000 
 877              	_ZN8KConsole10tailOutputE:
 878 0020 00000000 		.zero	8
 878      00000000 
 881              	_ZN8KConsole10headOutputE:
 882 0028 00000000 		.zero	8
 882      00000000 
GAS LISTING /tmp/ccEC1RRM.s 			page 21


 885              	_ZN8KConsole11pendingGetcE:
 886 0030 00000000 		.zero	8
 886      00000000 
 887              		.text
 888              	.Letext0:
 889              		.file 2 "src/../h/../lib/hw.h"
 890              		.file 3 "src/../h/PCB.hpp"
 891              		.file 4 "src/../h/Riscv.hpp"
 892              		.file 5 "src/../h/KSemaphore.hpp"
 893              		.file 6 "src/../h/KConsole.hpp"
 894              		.file 7 "src/../h/../test/../h/syscall_c.h"
 895              		.file 8 "src/../h/MemoryAllocator.hpp"
 4779              		.align	3
 4782              	DW.ref.__gxx_personality_v0:
 4783 0000 00000000 		.dword	__gxx_personality_v0
 4783      00000000 
 4784              		.ident	"GCC: (Ubuntu 9.3.0-17ubuntu1~20.04) 9.3.0"
 4785              		.section	.note.GNU-stack,"",@progbits
GAS LISTING /tmp/ccEC1RRM.s 			page 22


DEFINED SYMBOLS
                            *ABS*:0000000000000000 KConsole.cpp
     /tmp/ccEC1RRM.s:9      .text:0000000000000000 _ZN8KConsole7putCharEcRPNS_4ElemES2_
     /tmp/ccEC1RRM.s:13     .text:0000000000000000 .L0 
     /tmp/ccEC1RRM.s:15     .text:0000000000000000 .L0 
     /tmp/ccEC1RRM.s:16     .text:0000000000000004 .L0 
     /tmp/ccEC1RRM.s:22     .text:0000000000000018 .L0 
     /tmp/ccEC1RRM.s:23     .text:0000000000000018 .L0 
     /tmp/ccEC1RRM.s:24     .text:0000000000000018 .L0 
     /tmp/ccEC1RRM.s:25     .text:0000000000000018 .L0 
     /tmp/ccEC1RRM.s:26     .text:0000000000000018 .L0 
     /tmp/ccEC1RRM.s:28     .text:000000000000001c .L0 
     /tmp/ccEC1RRM.s:33     .text:0000000000000028 .L0 
     /tmp/ccEC1RRM.s:34     .text:0000000000000028 .L0 
     /tmp/ccEC1RRM.s:39     .text:0000000000000034 .L0 
     /tmp/ccEC1RRM.s:40     .text:0000000000000034 .L0 
     /tmp/ccEC1RRM.s:42     .text:0000000000000038 .L0 
     /tmp/ccEC1RRM.s:43     .text:0000000000000038 .L0 
     /tmp/ccEC1RRM.s:45     .text:000000000000003c .L0 
     /tmp/ccEC1RRM.s:46     .text:000000000000003c .L0 
     /tmp/ccEC1RRM.s:48     .text:0000000000000040 .L0 
     /tmp/ccEC1RRM.s:50     .text:0000000000000044 .L0 
     /tmp/ccEC1RRM.s:52     .text:0000000000000048 .L0 
     /tmp/ccEC1RRM.s:54     .text:000000000000004c .L0 
     /tmp/ccEC1RRM.s:55     .text:000000000000004c .L0 
     /tmp/ccEC1RRM.s:58     .text:0000000000000050 .L0 
     /tmp/ccEC1RRM.s:59     .text:0000000000000054 .L0 
     /tmp/ccEC1RRM.s:60     .text:0000000000000054 .L0 
     /tmp/ccEC1RRM.s:62     .text:0000000000000058 .L0 
     /tmp/ccEC1RRM.s:63     .text:0000000000000058 .L0 
     /tmp/ccEC1RRM.s:65     .text:000000000000005c .L0 
     /tmp/ccEC1RRM.s:68     .text:0000000000000060 .L0 
     /tmp/ccEC1RRM.s:71     .text:0000000000000064 .L0 
     /tmp/ccEC1RRM.s:73     .text:0000000000000068 .L0 
     /tmp/ccEC1RRM.s:77     .text:000000000000006c .L0 
     /tmp/ccEC1RRM.s:79     .text:000000000000006c .L0 
     /tmp/ccEC1RRM.s:80     .text:000000000000006c .L0 
     /tmp/ccEC1RRM.s:82     .text:0000000000000070 .L0 
     /tmp/ccEC1RRM.s:84     .text:0000000000000078 .L0 
     /tmp/ccEC1RRM.s:90     .text:0000000000000078 _ZN8KConsole7getCharERPNS_4ElemES2_
     /tmp/ccEC1RRM.s:93     .text:0000000000000078 .L0 
     /tmp/ccEC1RRM.s:95     .text:0000000000000078 .L0 
     /tmp/ccEC1RRM.s:96     .text:000000000000007c .L0 
     /tmp/ccEC1RRM.s:100    .text:0000000000000088 .L0 
     /tmp/ccEC1RRM.s:101    .text:0000000000000088 .L0 
     /tmp/ccEC1RRM.s:102    .text:0000000000000088 .L0 
     /tmp/ccEC1RRM.s:104    .text:000000000000008c .L0 
     /tmp/ccEC1RRM.s:107    .text:0000000000000090 .L0 
     /tmp/ccEC1RRM.s:108    .text:0000000000000090 .L0 
     /tmp/ccEC1RRM.s:111    .text:0000000000000094 .L0 
     /tmp/ccEC1RRM.s:114    .text:0000000000000098 .L0 
     /tmp/ccEC1RRM.s:115    .text:0000000000000098 .L0 
     /tmp/ccEC1RRM.s:116    .text:0000000000000098 .L0 
     /tmp/ccEC1RRM.s:118    .text:000000000000009c .L0 
     /tmp/ccEC1RRM.s:120    .text:00000000000000a0 .L0 
     /tmp/ccEC1RRM.s:123    .text:00000000000000a4 .L0 
     /tmp/ccEC1RRM.s:124    .text:00000000000000a4 .L0 
GAS LISTING /tmp/ccEC1RRM.s 			page 23


     /tmp/ccEC1RRM.s:127    .text:00000000000000a8 .L0 
     /tmp/ccEC1RRM.s:128    .text:00000000000000a8 .L0 
     /tmp/ccEC1RRM.s:132    .text:00000000000000b0 .L0 
     /tmp/ccEC1RRM.s:133    .text:00000000000000b0 .L0 
     /tmp/ccEC1RRM.s:135    .text:00000000000000b8 .L0 
     /tmp/ccEC1RRM.s:136    .text:00000000000000b8 .L0 
     /tmp/ccEC1RRM.s:138    .text:00000000000000bc .L0 
     /tmp/ccEC1RRM.s:139    .text:00000000000000bc .L0 
     /tmp/ccEC1RRM.s:141    .text:00000000000000c0 .L0 
     /tmp/ccEC1RRM.s:143    .text:00000000000000c4 .L0 
     /tmp/ccEC1RRM.s:147    .text:00000000000000c8 .L0 
     /tmp/ccEC1RRM.s:149    .text:00000000000000c8 .L0 
     /tmp/ccEC1RRM.s:150    .text:00000000000000c8 .L0 
     /tmp/ccEC1RRM.s:155    .text:00000000000000d0 .L0 
     /tmp/ccEC1RRM.s:157    .text:00000000000000d8 .L0 
     /tmp/ccEC1RRM.s:163    .text:00000000000000d8 _ZN8KConsole10initializeEv
     /tmp/ccEC1RRM.s:166    .text:00000000000000d8 .L0 
     /tmp/ccEC1RRM.s:4782   .data.rel.local.DW.ref.__gxx_personality_v0:0000000000000000 DW.ref.__gxx_personality_v0
     /tmp/ccEC1RRM.s:169    .text:00000000000000d8 .L0 
     /tmp/ccEC1RRM.s:170    .text:00000000000000dc .L0 
     /tmp/ccEC1RRM.s:175    .text:00000000000000ec .L0 
     /tmp/ccEC1RRM.s:176    .text:00000000000000ec .L0 
     /tmp/ccEC1RRM.s:177    .text:00000000000000ec .L0 
     /tmp/ccEC1RRM.s:178    .text:00000000000000ec .L0 
     /tmp/ccEC1RRM.s:180    .text:00000000000000f0 .L0 
     /tmp/ccEC1RRM.s:182    .text:00000000000000f0 .L0 
     /tmp/ccEC1RRM.s:183    .text:00000000000000f0 .L0 
     /tmp/ccEC1RRM.s:195    .text:000000000000010c .L0 
     /tmp/ccEC1RRM.s:197    .text:0000000000000114 .L0 
     /tmp/ccEC1RRM.s:198    .text:0000000000000114 .L0 
     /tmp/ccEC1RRM.s:210    .text:0000000000000130 .L0 
     /tmp/ccEC1RRM.s:212    .text:0000000000000138 .L0 
     /tmp/ccEC1RRM.s:213    .text:000000000000013c .L0 
     /tmp/ccEC1RRM.s:214    .text:000000000000013c .L0 
     /tmp/ccEC1RRM.s:216    .text:0000000000000140 .L0 
     /tmp/ccEC1RRM.s:217    .text:0000000000000140 .L0 
     /tmp/ccEC1RRM.s:219    .text:0000000000000144 .L0 
     /tmp/ccEC1RRM.s:221    .text:0000000000000148 .L0 
     /tmp/ccEC1RRM.s:223    .text:000000000000014c .L0 
     /tmp/ccEC1RRM.s:226    .text:0000000000000150 .L0 
     /tmp/ccEC1RRM.s:229    .text:0000000000000154 .L0 
     /tmp/ccEC1RRM.s:240    .text:0000000000000170 .L0 
     /tmp/ccEC1RRM.s:248    .text:0000000000000188 .L0 
     /tmp/ccEC1RRM.s:286    .text:0000000000000188 _ZN8KConsole17putCharacterInputEc
     /tmp/ccEC1RRM.s:289    .text:0000000000000188 .L0 
     /tmp/ccEC1RRM.s:291    .text:0000000000000188 .L0 
     /tmp/ccEC1RRM.s:292    .text:000000000000018c .L0 
     /tmp/ccEC1RRM.s:295    .text:0000000000000194 .L0 
     /tmp/ccEC1RRM.s:296    .text:0000000000000194 .L0 
     /tmp/ccEC1RRM.s:298    .text:0000000000000198 .L0 
     /tmp/ccEC1RRM.s:300    .text:0000000000000198 .L0 
     /tmp/ccEC1RRM.s:301    .text:0000000000000198 .L0 
     /tmp/ccEC1RRM.s:306    .text:00000000000001b0 .L0 
     /tmp/ccEC1RRM.s:307    .text:00000000000001b0 .L0 
     /tmp/ccEC1RRM.s:311    .text:00000000000001c0 .L0 
     /tmp/ccEC1RRM.s:312    .text:00000000000001c4 .L0 
     /tmp/ccEC1RRM.s:314    .text:00000000000001c8 .L0 
GAS LISTING /tmp/ccEC1RRM.s 			page 24


     /tmp/ccEC1RRM.s:315    .text:00000000000001c8 .L0 
     /tmp/ccEC1RRM.s:317    .text:00000000000001cc .L0 
     /tmp/ccEC1RRM.s:319    .text:00000000000001d0 .L0 
     /tmp/ccEC1RRM.s:325    .text:00000000000001d0 _ZN8KConsole17getCharacterInputEv
     /tmp/ccEC1RRM.s:328    .text:00000000000001d0 .L0 
     /tmp/ccEC1RRM.s:329    .text:00000000000001d0 .L0 
     /tmp/ccEC1RRM.s:330    .text:00000000000001d4 .L0 
     /tmp/ccEC1RRM.s:333    .text:00000000000001dc .L0 
     /tmp/ccEC1RRM.s:334    .text:00000000000001dc .L0 
     /tmp/ccEC1RRM.s:336    .text:00000000000001e0 .L0 
     /tmp/ccEC1RRM.s:338    .text:00000000000001e0 .L0 
     /tmp/ccEC1RRM.s:339    .text:00000000000001e0 .L0 
     /tmp/ccEC1RRM.s:343    .text:00000000000001f0 .L0 
     /tmp/ccEC1RRM.s:344    .text:00000000000001f0 .L0 
     /tmp/ccEC1RRM.s:349    .text:0000000000000208 .L0 
     /tmp/ccEC1RRM.s:350    .text:000000000000020c .L0 
     /tmp/ccEC1RRM.s:352    .text:0000000000000210 .L0 
     /tmp/ccEC1RRM.s:353    .text:0000000000000210 .L0 
     /tmp/ccEC1RRM.s:355    .text:0000000000000214 .L0 
     /tmp/ccEC1RRM.s:357    .text:0000000000000218 .L0 
     /tmp/ccEC1RRM.s:363    .text:0000000000000218 _ZN8KConsole18putCharacterOutputEc
     /tmp/ccEC1RRM.s:366    .text:0000000000000218 .L0 
     /tmp/ccEC1RRM.s:368    .text:0000000000000218 .L0 
     /tmp/ccEC1RRM.s:369    .text:000000000000021c .L0 
     /tmp/ccEC1RRM.s:372    .text:0000000000000224 .L0 
     /tmp/ccEC1RRM.s:373    .text:0000000000000224 .L0 
     /tmp/ccEC1RRM.s:375    .text:0000000000000228 .L0 
     /tmp/ccEC1RRM.s:377    .text:0000000000000228 .L0 
     /tmp/ccEC1RRM.s:378    .text:0000000000000228 .L0 
     /tmp/ccEC1RRM.s:383    .text:0000000000000240 .L0 
     /tmp/ccEC1RRM.s:384    .text:0000000000000240 .L0 
     /tmp/ccEC1RRM.s:388    .text:0000000000000250 .L0 
     /tmp/ccEC1RRM.s:389    .text:0000000000000254 .L0 
     /tmp/ccEC1RRM.s:391    .text:0000000000000258 .L0 
     /tmp/ccEC1RRM.s:392    .text:0000000000000258 .L0 
     /tmp/ccEC1RRM.s:394    .text:000000000000025c .L0 
     /tmp/ccEC1RRM.s:396    .text:0000000000000260 .L0 
     /tmp/ccEC1RRM.s:402    .text:0000000000000260 _ZN8KConsole24getCharactersFromConsoleEPv
     /tmp/ccEC1RRM.s:405    .text:0000000000000260 .L0 
     /tmp/ccEC1RRM.s:407    .text:0000000000000260 .L0 
     /tmp/ccEC1RRM.s:409    .text:0000000000000260 .L0 
     /tmp/ccEC1RRM.s:410    .text:0000000000000260 .L0 
     /tmp/ccEC1RRM.s:411    .text:0000000000000260 .L0 
     /tmp/ccEC1RRM.s:415    .text:000000000000026c .L0 
    src/KConsole.cpp:63     .text:000000000000026c .L0 
     /tmp/ccEC1RRM.s:421    .text:0000000000000270 .L0 
    src/KConsole.cpp:64     .text:0000000000000270 .L0 
     /tmp/ccEC1RRM.s:426    .text:0000000000000274 .L0 
     /tmp/ccEC1RRM.s:427    .text:0000000000000274 .L0 
    src/KConsole.cpp:66     .text:0000000000000274 .L0 
     /tmp/ccEC1RRM.s:435    .text:0000000000000278 .L0 
     /tmp/ccEC1RRM.s:436    .text:0000000000000278 .L0 
     /tmp/ccEC1RRM.s:439    .text:000000000000027c .L0 
     /tmp/ccEC1RRM.s:443    .text:0000000000000280 .L0 
     /tmp/ccEC1RRM.s:444    .text:0000000000000284 .L0 
     /tmp/ccEC1RRM.s:448    .text:0000000000000290 .L0 
     /tmp/ccEC1RRM.s:449    .text:0000000000000290 .L0 
GAS LISTING /tmp/ccEC1RRM.s 			page 25


     /tmp/ccEC1RRM.s:450    .text:0000000000000290 .L0 
     /tmp/ccEC1RRM.s:452    .text:0000000000000294 .L0 
     /tmp/ccEC1RRM.s:459    .text:0000000000000294 .L0 
     /tmp/ccEC1RRM.s:460    .text:0000000000000294 .L0 
     /tmp/ccEC1RRM.s:464    .text:00000000000002a0 .L0 
    src/KConsole.cpp:70     .text:00000000000002a0 .L0 
     /tmp/ccEC1RRM.s:470    .text:00000000000002a4 .L0 
    src/KConsole.cpp:71     .text:00000000000002a4 .L0 
     /tmp/ccEC1RRM.s:475    .text:00000000000002a8 .L0 
     /tmp/ccEC1RRM.s:476    .text:00000000000002a8 .L0 
    src/KConsole.cpp:73     .text:00000000000002a8 .L0 
     /tmp/ccEC1RRM.s:484    .text:00000000000002b0 .L0 
     /tmp/ccEC1RRM.s:485    .text:00000000000002b0 .L0 
     /tmp/ccEC1RRM.s:489    .text:00000000000002bc .L0 
     /tmp/ccEC1RRM.s:490    .text:00000000000002bc .L0 
     /tmp/ccEC1RRM.s:497    .text:00000000000002c8 .L0 
     /tmp/ccEC1RRM.s:499    .text:00000000000002c8 .L0 
     /tmp/ccEC1RRM.s:500    .text:00000000000002c8 .L0 
     /tmp/ccEC1RRM.s:501    .text:00000000000002c8 .L0 
     /tmp/ccEC1RRM.s:505    .text:00000000000002d4 .L0 
    src/KConsole.cpp:63     .text:00000000000002d4 .L0 
     /tmp/ccEC1RRM.s:511    .text:00000000000002d8 .L0 
    src/KConsole.cpp:64     .text:00000000000002d8 .L0 
     /tmp/ccEC1RRM.s:516    .text:00000000000002dc .L0 
     /tmp/ccEC1RRM.s:517    .text:00000000000002dc .L0 
    src/KConsole.cpp:66     .text:00000000000002dc .L0 
     /tmp/ccEC1RRM.s:525    .text:00000000000002e0 .L0 
     /tmp/ccEC1RRM.s:526    .text:00000000000002e0 .L0 
     /tmp/ccEC1RRM.s:529    .text:00000000000002e4 .L0 
     /tmp/ccEC1RRM.s:533    .text:00000000000002e8 .L0 
     /tmp/ccEC1RRM.s:534    .text:00000000000002ec .L0 
     /tmp/ccEC1RRM.s:536    .text:00000000000002f0 .L0 
     /tmp/ccEC1RRM.s:537    .text:00000000000002f0 .L0 
     /tmp/ccEC1RRM.s:539    .text:00000000000002f4 .L0 
     /tmp/ccEC1RRM.s:542    .text:00000000000002f8 .L0 
     /tmp/ccEC1RRM.s:547    .text:0000000000000300 .L0 
     /tmp/ccEC1RRM.s:553    .text:0000000000000300 _ZN8KConsole18getCharacterOutputEv
     /tmp/ccEC1RRM.s:556    .text:0000000000000300 .L0 
     /tmp/ccEC1RRM.s:557    .text:0000000000000300 .L0 
     /tmp/ccEC1RRM.s:558    .text:0000000000000304 .L0 
     /tmp/ccEC1RRM.s:561    .text:000000000000030c .L0 
     /tmp/ccEC1RRM.s:562    .text:000000000000030c .L0 
     /tmp/ccEC1RRM.s:564    .text:0000000000000310 .L0 
     /tmp/ccEC1RRM.s:566    .text:0000000000000310 .L0 
     /tmp/ccEC1RRM.s:567    .text:0000000000000310 .L0 
     /tmp/ccEC1RRM.s:571    .text:0000000000000320 .L0 
     /tmp/ccEC1RRM.s:572    .text:0000000000000320 .L0 
     /tmp/ccEC1RRM.s:577    .text:0000000000000338 .L0 
     /tmp/ccEC1RRM.s:578    .text:000000000000033c .L0 
     /tmp/ccEC1RRM.s:580    .text:0000000000000340 .L0 
     /tmp/ccEC1RRM.s:581    .text:0000000000000340 .L0 
     /tmp/ccEC1RRM.s:583    .text:0000000000000344 .L0 
     /tmp/ccEC1RRM.s:585    .text:0000000000000348 .L0 
     /tmp/ccEC1RRM.s:591    .text:0000000000000348 _ZN8KConsole23sendCharactersToConsoleEPv
     /tmp/ccEC1RRM.s:594    .text:0000000000000348 .L0 
     /tmp/ccEC1RRM.s:596    .text:0000000000000348 .L0 
     /tmp/ccEC1RRM.s:597    .text:000000000000034c .L0 
GAS LISTING /tmp/ccEC1RRM.s 			page 26


     /tmp/ccEC1RRM.s:600    .text:0000000000000354 .L0 
     /tmp/ccEC1RRM.s:601    .text:0000000000000354 .L0 
     /tmp/ccEC1RRM.s:603    .text:0000000000000358 .L0 
     /tmp/ccEC1RRM.s:610    .text:000000000000035c .L0 
     /tmp/ccEC1RRM.s:611    .text:000000000000035c .L0 
     /tmp/ccEC1RRM.s:618    .text:0000000000000364 .L0 
     /tmp/ccEC1RRM.s:619    .text:0000000000000364 .L0 
     /tmp/ccEC1RRM.s:620    .text:0000000000000364 .L0 
     /tmp/ccEC1RRM.s:624    .text:0000000000000370 .L0 
    src/KConsole.cpp:89     .text:0000000000000370 .L0 
     /tmp/ccEC1RRM.s:630    .text:0000000000000374 .L0 
    src/KConsole.cpp:90     .text:0000000000000374 .L0 
     /tmp/ccEC1RRM.s:635    .text:0000000000000378 .L0 
     /tmp/ccEC1RRM.s:636    .text:0000000000000378 .L0 
    src/KConsole.cpp:92     .text:0000000000000378 .L0 
     /tmp/ccEC1RRM.s:644    .text:000000000000037c .L0 
     /tmp/ccEC1RRM.s:645    .text:000000000000037c .L0 
     /tmp/ccEC1RRM.s:648    .text:0000000000000380 .L0 
     /tmp/ccEC1RRM.s:651    .text:0000000000000384 .L0 
     /tmp/ccEC1RRM.s:652    .text:0000000000000384 .L0 
     /tmp/ccEC1RRM.s:655    .text:000000000000038c .L0 
     /tmp/ccEC1RRM.s:657    .text:0000000000000390 .L0 
     /tmp/ccEC1RRM.s:658    .text:0000000000000390 .L0 
     /tmp/ccEC1RRM.s:662    .text:000000000000039c .L0 
    src/KConsole.cpp:97     .text:000000000000039c .L0 
     /tmp/ccEC1RRM.s:668    .text:00000000000003a0 .L0 
     /tmp/ccEC1RRM.s:670    .text:00000000000003a0 .L0 
    src/KConsole.cpp:98     .text:00000000000003a8 .L0 
     /tmp/ccEC1RRM.s:679    .text:00000000000003ac .L0 
    src/KConsole.cpp:99     .text:00000000000003ac .L0 
     /tmp/ccEC1RRM.s:688    .text:00000000000003b4 .L0 
     /tmp/ccEC1RRM.s:694    .text:00000000000003b4 _ZN8KConsole11putcHandlerEv
     /tmp/ccEC1RRM.s:697    .text:00000000000003b4 .L0 
     /tmp/ccEC1RRM.s:698    .text:00000000000003b4 .L0 
     /tmp/ccEC1RRM.s:699    .text:00000000000003b8 .L0 
     /tmp/ccEC1RRM.s:702    .text:00000000000003c0 .L0 
     /tmp/ccEC1RRM.s:703    .text:00000000000003c0 .L0 
     /tmp/ccEC1RRM.s:705    .text:00000000000003c4 .L0 
     /tmp/ccEC1RRM.s:707    .text:00000000000003c4 .L0 
     /tmp/ccEC1RRM.s:708    .text:00000000000003c4 .L0 
    src/KConsole.cpp:133    .text:00000000000003c4 .L0 
     /tmp/ccEC1RRM.s:715    .text:00000000000003c8 .L0 
     /tmp/ccEC1RRM.s:717    .text:00000000000003c8 .L0 
     /tmp/ccEC1RRM.s:722    .text:00000000000003d4 .L0 
     /tmp/ccEC1RRM.s:723    .text:00000000000003d4 .L0 
     /tmp/ccEC1RRM.s:727    .text:00000000000003dc .L0 
     /tmp/ccEC1RRM.s:728    .text:00000000000003dc .L0 
     /tmp/ccEC1RRM.s:730    .text:00000000000003e0 .L0 
     /tmp/ccEC1RRM.s:731    .text:00000000000003e0 .L0 
     /tmp/ccEC1RRM.s:734    .text:00000000000003e4 .L0 
     /tmp/ccEC1RRM.s:737    .text:00000000000003e8 .L0 
     /tmp/ccEC1RRM.s:738    .text:00000000000003ec .L0 
     /tmp/ccEC1RRM.s:740    .text:00000000000003f0 .L0 
     /tmp/ccEC1RRM.s:741    .text:00000000000003f0 .L0 
     /tmp/ccEC1RRM.s:743    .text:00000000000003f4 .L0 
     /tmp/ccEC1RRM.s:745    .text:00000000000003f8 .L0 
     /tmp/ccEC1RRM.s:751    .text:00000000000003f8 _ZN8KConsole11getcHandlerEv
GAS LISTING /tmp/ccEC1RRM.s 			page 27


     /tmp/ccEC1RRM.s:754    .text:00000000000003f8 .L0 
     /tmp/ccEC1RRM.s:755    .text:00000000000003f8 .L0 
     /tmp/ccEC1RRM.s:756    .text:00000000000003fc .L0 
     /tmp/ccEC1RRM.s:759    .text:0000000000000404 .L0 
     /tmp/ccEC1RRM.s:760    .text:0000000000000404 .L0 
     /tmp/ccEC1RRM.s:762    .text:0000000000000408 .L0 
     /tmp/ccEC1RRM.s:764    .text:0000000000000408 .L0 
     /tmp/ccEC1RRM.s:765    .text:0000000000000408 .L0 
     /tmp/ccEC1RRM.s:770    .text:000000000000041c .L0 
     /tmp/ccEC1RRM.s:771    .text:000000000000041c .L0 
     /tmp/ccEC1RRM.s:772    .text:000000000000041c .L0 
     /tmp/ccEC1RRM.s:775    .text:0000000000000424 .L0 
    src/KConsole.cpp:147    .text:0000000000000424 .L0 
     /tmp/ccEC1RRM.s:781    .text:0000000000000428 .L0 
     /tmp/ccEC1RRM.s:783    .text:0000000000000428 .L0 
     /tmp/ccEC1RRM.s:786    .text:0000000000000430 .L0 
     /tmp/ccEC1RRM.s:787    .text:0000000000000434 .L0 
     /tmp/ccEC1RRM.s:789    .text:0000000000000438 .L0 
     /tmp/ccEC1RRM.s:790    .text:0000000000000438 .L0 
     /tmp/ccEC1RRM.s:792    .text:000000000000043c .L0 
     /tmp/ccEC1RRM.s:794    .text:0000000000000440 .L0 
     /tmp/ccEC1RRM.s:800    .text:0000000000000440 _ZN8KConsole11printBufferEv
     /tmp/ccEC1RRM.s:803    .text:0000000000000440 .L0 
     /tmp/ccEC1RRM.s:804    .text:0000000000000440 .L0 
     /tmp/ccEC1RRM.s:805    .text:0000000000000444 .L0 
     /tmp/ccEC1RRM.s:809    .text:0000000000000450 .L0 
     /tmp/ccEC1RRM.s:810    .text:0000000000000450 .L0 
     /tmp/ccEC1RRM.s:811    .text:0000000000000450 .L0 
     /tmp/ccEC1RRM.s:813    .text:0000000000000454 .L0 
     /tmp/ccEC1RRM.s:815    .text:0000000000000454 .L0 
     /tmp/ccEC1RRM.s:816    .text:0000000000000454 .L0 
     /tmp/ccEC1RRM.s:820    .text:000000000000045c .L0 
     /tmp/ccEC1RRM.s:821    .text:000000000000045c .L0 
     /tmp/ccEC1RRM.s:823    .text:0000000000000460 .L0 
     /tmp/ccEC1RRM.s:824    .text:0000000000000460 .L0 
     /tmp/ccEC1RRM.s:828    .text:000000000000046c .L0 
     /tmp/ccEC1RRM.s:829    .text:000000000000046c .L0 
     /tmp/ccEC1RRM.s:832    .text:0000000000000470 .L0 
     /tmp/ccEC1RRM.s:835    .text:0000000000000474 .L0 
     /tmp/ccEC1RRM.s:836    .text:0000000000000478 .L0 
     /tmp/ccEC1RRM.s:838    .text:000000000000047c .L0 
     /tmp/ccEC1RRM.s:839    .text:000000000000047c .L0 
     /tmp/ccEC1RRM.s:841    .text:0000000000000480 .L0 
     /tmp/ccEC1RRM.s:844    .text:0000000000000484 .L0 
     /tmp/ccEC1RRM.s:846    .text:0000000000000488 .L0 
     /tmp/ccEC1RRM.s:885    .bss:0000000000000030 _ZN8KConsole11pendingGetcE
     /tmp/ccEC1RRM.s:861    .bss:0000000000000000 _ZN8KConsole18hasCharactersInputE
     /tmp/ccEC1RRM.s:865    .bss:0000000000000008 _ZN8KConsole19hasCharactersOutputE
     /tmp/ccEC1RRM.s:877    .bss:0000000000000020 _ZN8KConsole10tailOutputE
     /tmp/ccEC1RRM.s:881    .bss:0000000000000028 _ZN8KConsole10headOutputE
     /tmp/ccEC1RRM.s:869    .bss:0000000000000010 _ZN8KConsole9tailInputE
     /tmp/ccEC1RRM.s:873    .bss:0000000000000018 _ZN8KConsole9headInputE
     /tmp/ccEC1RRM.s:858    .bss:0000000000000000 .LANCHOR0
     /tmp/ccEC1RRM.s:896    .text:0000000000000488 .L0 
     /tmp/ccEC1RRM.s:195    .text:000000000000010c .L0 
     /tmp/ccEC1RRM.s:210    .text:0000000000000130 .L0 
     /tmp/ccEC1RRM.s:301    .text:0000000000000198 .L0 
GAS LISTING /tmp/ccEC1RRM.s 			page 28


     /tmp/ccEC1RRM.s:302    .text:00000000000001a0 .L0 
     /tmp/ccEC1RRM.s:307    .text:00000000000001b0 .L0 
     /tmp/ccEC1RRM.s:339    .text:00000000000001e0 .L0 
     /tmp/ccEC1RRM.s:344    .text:00000000000001f0 .L0 
     /tmp/ccEC1RRM.s:345    .text:00000000000001f8 .L0 
     /tmp/ccEC1RRM.s:378    .text:0000000000000228 .L0 
     /tmp/ccEC1RRM.s:379    .text:0000000000000230 .L0 
     /tmp/ccEC1RRM.s:384    .text:0000000000000240 .L0 
     /tmp/ccEC1RRM.s:411    .text:0000000000000260 .L0 
     /tmp/ccEC1RRM.s:460    .text:0000000000000294 .L0 
     /tmp/ccEC1RRM.s:501    .text:00000000000002c8 .L0 
     /tmp/ccEC1RRM.s:567    .text:0000000000000310 .L0 
     /tmp/ccEC1RRM.s:572    .text:0000000000000320 .L0 
     /tmp/ccEC1RRM.s:573    .text:0000000000000328 .L0 
     /tmp/ccEC1RRM.s:620    .text:0000000000000364 .L0 
     /tmp/ccEC1RRM.s:658    .text:0000000000000390 .L0 
     /tmp/ccEC1RRM.s:723    .text:00000000000003d4 .L0 
     /tmp/ccEC1RRM.s:765    .text:0000000000000408 .L0 
     /tmp/ccEC1RRM.s:816    .text:0000000000000454 .L0 
     /tmp/ccEC1RRM.s:76     .text:000000000000006c .L5
     /tmp/ccEC1RRM.s:56     .text:0000000000000050 .L1
     /tmp/ccEC1RRM.s:153    .text:00000000000000d0 .L9
     /tmp/ccEC1RRM.s:146    .text:00000000000000c8 .L11
     /tmp/ccEC1RRM.s:121    .text:00000000000000a4 .L8
     /tmp/ccEC1RRM.s:131    .text:00000000000000b0 .L7
     /tmp/ccEC1RRM.s:545    .text:00000000000002fc .L33
     /tmp/ccEC1RRM.s:454    .text:0000000000000294 .L29
     /tmp/ccEC1RRM.s:613    .text:0000000000000364 .L37
     /tmp/ccEC1RRM.s:606    .text:000000000000035c .L38
     /tmp/ccEC1RRM.s:735    .text:00000000000003e8 .L41
     /tmp/ccEC1RRM.s:725    .text:00000000000003dc .L43
     /tmp/ccEC1RRM.s:833    .text:0000000000000474 .L47
     /tmp/ccEC1RRM.s:818    .text:000000000000045c .L49
     /tmp/ccEC1RRM.s:184    .text:00000000000000f4 .LEHB0
     /tmp/ccEC1RRM.s:164    .text:00000000000000d8 .LFB26
     /tmp/ccEC1RRM.s:187    .text:00000000000000fc .LEHE0
     /tmp/ccEC1RRM.s:190    .text:0000000000000104 .LEHB1
     /tmp/ccEC1RRM.s:193    .text:000000000000010c .LEHE1
     /tmp/ccEC1RRM.s:225    .text:0000000000000150 .L15
     /tmp/ccEC1RRM.s:199    .text:0000000000000118 .LEHB2
     /tmp/ccEC1RRM.s:202    .text:0000000000000120 .LEHE2
     /tmp/ccEC1RRM.s:205    .text:0000000000000128 .LEHB3
     /tmp/ccEC1RRM.s:208    .text:0000000000000130 .LEHE3
     /tmp/ccEC1RRM.s:237    .text:000000000000016c .L16
     /tmp/ccEC1RRM.s:233    .text:0000000000000164 .LEHB4
     /tmp/ccEC1RRM.s:236    .text:000000000000016c .LEHE4
     /tmp/ccEC1RRM.s:244    .text:0000000000000180 .LEHB5
     /tmp/ccEC1RRM.s:247    .text:0000000000000188 .LEHE5
     /tmp/ccEC1RRM.s:2991   .debug_abbrev:0000000000000000 .Ldebug_abbrev0
     /tmp/ccEC1RRM.s:4294   .debug_str:00000000000001dd .LASF259
     /tmp/ccEC1RRM.s:4682   .debug_str:0000000000000f1d .LASF260
     /tmp/ccEC1RRM.s:4680   .debug_str:0000000000000efa .LASF261
     /tmp/ccEC1RRM.s:5      .text:0000000000000000 .Ltext0
     /tmp/ccEC1RRM.s:888    .text:0000000000000488 .Letext0
     /tmp/ccEC1RRM.s:4236   .debug_line:0000000000000000 .Ldebug_line0
     /tmp/ccEC1RRM.s:4418   .debug_str:0000000000000666 .LASF0
     /tmp/ccEC1RRM.s:4462   .debug_str:0000000000000804 .LASF1
GAS LISTING /tmp/ccEC1RRM.s 			page 29


     /tmp/ccEC1RRM.s:4588   .debug_str:0000000000000c38 .LASF2
     /tmp/ccEC1RRM.s:4606   .debug_str:0000000000000cca .LASF4
     /tmp/ccEC1RRM.s:4440   .debug_str:000000000000072c .LASF3
     /tmp/ccEC1RRM.s:4256   .debug_str:000000000000007c .LASF5
     /tmp/ccEC1RRM.s:4558   .debug_str:0000000000000b4e .LASF6
     /tmp/ccEC1RRM.s:4550   .debug_str:0000000000000b08 .LASF7
     /tmp/ccEC1RRM.s:4450   .debug_str:0000000000000795 .LASF8
     /tmp/ccEC1RRM.s:4386   .debug_str:000000000000055a .LASF9
     /tmp/ccEC1RRM.s:4394   .debug_str:00000000000005b1 .LASF10
     /tmp/ccEC1RRM.s:4312   .debug_str:0000000000000334 .LASF11
     /tmp/ccEC1RRM.s:4376   .debug_str:000000000000051e .LASF12
     /tmp/ccEC1RRM.s:4326   .debug_str:0000000000000379 .LASF13
     /tmp/ccEC1RRM.s:4310   .debug_str:0000000000000324 .LASF14
     /tmp/ccEC1RRM.s:4652   .debug_str:0000000000000e53 .LASF15
     /tmp/ccEC1RRM.s:4364   .debug_str:00000000000004a8 .LASF16
     /tmp/ccEC1RRM.s:4636   .debug_str:0000000000000db3 .LASF17
     /tmp/ccEC1RRM.s:4668   .debug_str:0000000000000eb4 .LASF262
     /tmp/ccEC1RRM.s:4304   .debug_str:00000000000002f7 .LASF18
     /tmp/ccEC1RRM.s:4624   .debug_str:0000000000000d5c .LASF19
     /tmp/ccEC1RRM.s:4320   .debug_str:000000000000035a .LASF20
     /tmp/ccEC1RRM.s:4290   .debug_str:00000000000001b1 .LASF21
     /tmp/ccEC1RRM.s:4554   .debug_str:0000000000000b31 .LASF22
     /tmp/ccEC1RRM.s:4318   .debug_str:0000000000000351 .LASF23
     /tmp/ccEC1RRM.s:4660   .debug_str:0000000000000e81 .LASF84
     /tmp/ccEC1RRM.s:4404   .debug_str:0000000000000611 .LASF24
     /tmp/ccEC1RRM.s:4260   .debug_str:000000000000008e .LASF29
     /tmp/ccEC1RRM.s:4690   .debug_str:0000000000000f68 .LASF263
     /tmp/ccEC1RRM.s:4538   .debug_str:0000000000000ab4 .LASF264
     /tmp/ccEC1RRM.s:4460   .debug_str:00000000000007ff .LASF25
     /tmp/ccEC1RRM.s:4758   .debug_str:00000000000011c4 .LASF27
     /tmp/ccEC1RRM.s:4752   .debug_str:000000000000119b .LASF26
     /tmp/ccEC1RRM.s:4674   .debug_str:0000000000000ecc .LASF28
     /tmp/ccEC1RRM.s:4346   .debug_str:000000000000043c .LASF54
     /tmp/ccEC1RRM.s:4268   .debug_str:00000000000000cd .LASF56
     /tmp/ccEC1RRM.s:4466   .debug_str:0000000000000820 .LASF34
     /tmp/ccEC1RRM.s:4540   .debug_str:0000000000000ab9 .LASF36
     /tmp/ccEC1RRM.s:4672   .debug_str:0000000000000ec4 .LASF30
     /tmp/ccEC1RRM.s:4618   .debug_str:0000000000000d24 .LASF31
     /tmp/ccEC1RRM.s:4468   .debug_str:0000000000000826 .LASF38
     /tmp/ccEC1RRM.s:4476   .debug_str:0000000000000879 .LASF40
     /tmp/ccEC1RRM.s:4766   .debug_str:0000000000001221 .LASF32
     /tmp/ccEC1RRM.s:4372   .debug_str:0000000000000501 .LASF33
     /tmp/ccEC1RRM.s:4246   .debug_str:000000000000003a .LASF35
     /tmp/ccEC1RRM.s:4434   .debug_str:0000000000000704 .LASF37
     /tmp/ccEC1RRM.s:4620   .debug_str:0000000000000d35 .LASF39
     /tmp/ccEC1RRM.s:4512   .debug_str:00000000000009e6 .LASF41
     /tmp/ccEC1RRM.s:4600   .debug_str:0000000000000c90 .LASF42
     /tmp/ccEC1RRM.s:4644   .debug_str:0000000000000e09 .LASF43
     /tmp/ccEC1RRM.s:4514   .debug_str:00000000000009f9 .LASF44
     /tmp/ccEC1RRM.s:4242   .debug_str:000000000000001b .LASF45
     /tmp/ccEC1RRM.s:4740   .debug_str:000000000000112f .LASF46
     /tmp/ccEC1RRM.s:4548   .debug_str:0000000000000aee .LASF47
     /tmp/ccEC1RRM.s:4634   .debug_str:0000000000000da5 .LASF48
     /tmp/ccEC1RRM.s:4560   .debug_str:0000000000000b55 .LASF49
     /tmp/ccEC1RRM.s:4342   .debug_str:000000000000041a .LASF50
     /tmp/ccEC1RRM.s:4380   .debug_str:0000000000000537 .LASF51
     /tmp/ccEC1RRM.s:4582   .debug_str:0000000000000c17 .LASF52
GAS LISTING /tmp/ccEC1RRM.s 			page 30


     /tmp/ccEC1RRM.s:4744   .debug_str:0000000000001154 .LASF53
     /tmp/ccEC1RRM.s:4442   .debug_str:000000000000073e .LASF60
     /tmp/ccEC1RRM.s:4630   .debug_str:0000000000000d8e .LASF55
     /tmp/ccEC1RRM.s:4756   .debug_str:00000000000011ae .LASF57
     /tmp/ccEC1RRM.s:4662   .debug_str:0000000000000e89 .LASF58
     /tmp/ccEC1RRM.s:4338   .debug_str:00000000000003fe .LASF59
     /tmp/ccEC1RRM.s:4614   .debug_str:0000000000000d0e .LASF61
     /tmp/ccEC1RRM.s:4420   .debug_str:0000000000000673 .LASF62
     /tmp/ccEC1RRM.s:4526   .debug_str:0000000000000a34 .LASF63
     /tmp/ccEC1RRM.s:4332   .debug_str:00000000000003c8 .LASF64
     /tmp/ccEC1RRM.s:4566   .debug_str:0000000000000b8b .LASF65
     /tmp/ccEC1RRM.s:4774   .debug_str:0000000000001253 .LASF66
     /tmp/ccEC1RRM.s:4530   .debug_str:0000000000000a5a .LASF67
     /tmp/ccEC1RRM.s:4598   .debug_str:0000000000000c7d .LASF68
     /tmp/ccEC1RRM.s:4622   .debug_str:0000000000000d3e .LASF69
     /tmp/ccEC1RRM.s:4704   .debug_str:0000000000000fd6 .LASF70
     /tmp/ccEC1RRM.s:4500   .debug_str:0000000000000969 .LASF71
     /tmp/ccEC1RRM.s:4692   .debug_str:0000000000000f80 .LASF72
     /tmp/ccEC1RRM.s:4642   .debug_str:0000000000000de9 .LASF73
     /tmp/ccEC1RRM.s:4678   .debug_str:0000000000000ef0 .LASF74
     /tmp/ccEC1RRM.s:4542   .debug_str:0000000000000ac9 .LASF75
     /tmp/ccEC1RRM.s:4750   .debug_str:000000000000118d .LASF76
     /tmp/ccEC1RRM.s:4276   .debug_str:0000000000000123 .LASF78
     /tmp/ccEC1RRM.s:4426   .debug_str:00000000000006c3 .LASF77
     /tmp/ccEC1RRM.s:4302   .debug_str:00000000000002cb .LASF79
     /tmp/ccEC1RRM.s:4738   .debug_str:0000000000001128 .LASF265
     /tmp/ccEC1RRM.s:4298   .debug_str:00000000000002ac .LASF266
     /tmp/ccEC1RRM.s:4244   .debug_str:0000000000000035 .LASF80
     /tmp/ccEC1RRM.s:4702   .debug_str:0000000000000fd1 .LASF81
     /tmp/ccEC1RRM.s:4480   .debug_str:00000000000008ab .LASF82
     /tmp/ccEC1RRM.s:4350   .debug_str:000000000000044a .LASF83
     /tmp/ccEC1RRM.s:4688   .debug_str:0000000000000f60 .LASF85
     /tmp/ccEC1RRM.s:4720   .debug_str:0000000000001077 .LASF86
     /tmp/ccEC1RRM.s:4412   .debug_str:000000000000063d .LASF87
     /tmp/ccEC1RRM.s:4640   .debug_str:0000000000000dd1 .LASF88
     /tmp/ccEC1RRM.s:4544   .debug_str:0000000000000ad5 .LASF89
     /tmp/ccEC1RRM.s:4492   .debug_str:0000000000000924 .LASF90
     /tmp/ccEC1RRM.s:4360   .debug_str:000000000000048b .LASF91
     /tmp/ccEC1RRM.s:4552   .debug_str:0000000000000b1b .LASF92
     /tmp/ccEC1RRM.s:4498   .debug_str:0000000000000959 .LASF93
     /tmp/ccEC1RRM.s:4712   .debug_str:0000000000001019 .LASF94
     /tmp/ccEC1RRM.s:4708   .debug_str:0000000000000ff8 .LASF95
     /tmp/ccEC1RRM.s:4474   .debug_str:000000000000085b .LASF96
     /tmp/ccEC1RRM.s:4354   .debug_str:0000000000000456 .LASF97
     /tmp/ccEC1RRM.s:4748   .debug_str:0000000000001169 .LASF98
     /tmp/ccEC1RRM.s:4432   .debug_str:00000000000006f2 .LASF99
     /tmp/ccEC1RRM.s:4334   .debug_str:00000000000003da .LASF100
     /tmp/ccEC1RRM.s:4284   .debug_str:0000000000000185 .LASF101
     /tmp/ccEC1RRM.s:4388   .debug_str:000000000000056a .LASF102
     /tmp/ccEC1RRM.s:4616   .debug_str:0000000000000d16 .LASF103
     /tmp/ccEC1RRM.s:4328   .debug_str:0000000000000389 .LASF104
     /tmp/ccEC1RRM.s:4516   .debug_str:0000000000000a08 .LASF105
     /tmp/ccEC1RRM.s:4728   .debug_str:00000000000010b1 .LASF106
     /tmp/ccEC1RRM.s:4700   .debug_str:0000000000000fc8 .LASF109
     /tmp/ccEC1RRM.s:4252   .debug_str:000000000000005a .LASF111
     /tmp/ccEC1RRM.s:4584   .debug_str:0000000000000c24 .LASF107
     /tmp/ccEC1RRM.s:4534   .debug_str:0000000000000a8f .LASF108
GAS LISTING /tmp/ccEC1RRM.s 			page 31


     /tmp/ccEC1RRM.s:4562   .debug_str:0000000000000b61 .LASF110
     /tmp/ccEC1RRM.s:4568   .debug_str:0000000000000ba8 .LASF112
     /tmp/ccEC1RRM.s:4528   .debug_str:0000000000000a53 .LASF113
     /tmp/ccEC1RRM.s:4452   .debug_str:00000000000007a8 .LASF114
     /tmp/ccEC1RRM.s:4730   .debug_str:00000000000010cb .LASF115
     /tmp/ccEC1RRM.s:4676   .debug_str:0000000000000edc .LASF116
     /tmp/ccEC1RRM.s:4520   .debug_str:0000000000000a1e .LASF117
     /tmp/ccEC1RRM.s:4532   .debug_str:0000000000000a7b .LASF118
     /tmp/ccEC1RRM.s:4506   .debug_str:00000000000009a7 .LASF119
     /tmp/ccEC1RRM.s:4572   .debug_str:0000000000000bd3 .LASF120
     /tmp/ccEC1RRM.s:4770   .debug_str:0000000000001246 .LASF121
     /tmp/ccEC1RRM.s:4430   .debug_str:00000000000006de .LASF122
     /tmp/ccEC1RRM.s:4648   .debug_str:0000000000000e2a .LASF123
     /tmp/ccEC1RRM.s:4610   .debug_str:0000000000000cf4 .LASF124
     /tmp/ccEC1RRM.s:4612   .debug_str:0000000000000d07 .LASF125
     /tmp/ccEC1RRM.s:4358   .debug_str:0000000000000478 .LASF126
     /tmp/ccEC1RRM.s:4352   .debug_str:0000000000000450 .LASF127
     /tmp/ccEC1RRM.s:4262   .debug_str:0000000000000099 .LASF128
     /tmp/ccEC1RRM.s:4428   .debug_str:00000000000006d8 .LASF129
     /tmp/ccEC1RRM.s:4344   .debug_str:000000000000042a .LASF130
     /tmp/ccEC1RRM.s:4300   .debug_str:00000000000002bd .LASF131
     /tmp/ccEC1RRM.s:4666   .debug_str:0000000000000e99 .LASF132
     /tmp/ccEC1RRM.s:4258   .debug_str:0000000000000083 .LASF133
     /tmp/ccEC1RRM.s:4594   .debug_str:0000000000000c59 .LASF134
     /tmp/ccEC1RRM.s:4586   .debug_str:0000000000000c2d .LASF135
     /tmp/ccEC1RRM.s:4762   .debug_str:00000000000011f9 .LASF136
     /tmp/ccEC1RRM.s:4592   .debug_str:0000000000000c52 .LASF137
     /tmp/ccEC1RRM.s:4308   .debug_str:0000000000000311 .LASF138
     /tmp/ccEC1RRM.s:4722   .debug_str:000000000000107d .LASF139
     /tmp/ccEC1RRM.s:4742   .debug_str:000000000000113e .LASF140
     /tmp/ccEC1RRM.s:4714   .debug_str:0000000000001037 .LASF141
     /tmp/ccEC1RRM.s:4264   .debug_str:00000000000000ab .LASF142
     /tmp/ccEC1RRM.s:4340   .debug_str:0000000000000414 .LASF143
     /tmp/ccEC1RRM.s:4402   .debug_str:00000000000005ff .LASF144
     /tmp/ccEC1RRM.s:4410   .debug_str:0000000000000637 .LASF145
     /tmp/ccEC1RRM.s:4718   .debug_str:0000000000001065 .LASF146
     /tmp/ccEC1RRM.s:4406   .debug_str:0000000000000617 .LASF147
     /tmp/ccEC1RRM.s:4414   .debug_str:0000000000000648 .LASF148
     /tmp/ccEC1RRM.s:4694   .debug_str:0000000000000f95 .LASF149
     /tmp/ccEC1RRM.s:4392   .debug_str:0000000000000595 .LASF150
     /tmp/ccEC1RRM.s:4556   .debug_str:0000000000000b39 .LASF151
     /tmp/ccEC1RRM.s:4446   .debug_str:0000000000000767 .LASF152
     /tmp/ccEC1RRM.s:4280   .debug_str:0000000000000163 .LASF153
     /tmp/ccEC1RRM.s:4488   .debug_str:00000000000008f3 .LASF154
     /tmp/ccEC1RRM.s:4578   .debug_str:0000000000000c06 .LASF155
     /tmp/ccEC1RRM.s:4250   .debug_str:0000000000000052 .LASF156
     /tmp/ccEC1RRM.s:4286   .debug_str:000000000000018f .LASF157
     /tmp/ccEC1RRM.s:4470   .debug_str:0000000000000833 .LASF158
     /tmp/ccEC1RRM.s:4288   .debug_str:000000000000019e .LASF159
     /tmp/ccEC1RRM.s:4510   .debug_str:00000000000009d4 .LASF160
     /tmp/ccEC1RRM.s:4396   .debug_str:00000000000005bf .LASF161
     /tmp/ccEC1RRM.s:4438   .debug_str:0000000000000719 .LASF162
     /tmp/ccEC1RRM.s:4306   .debug_str:00000000000002fd .LASF163
     /tmp/ccEC1RRM.s:4670   .debug_str:0000000000000eba .LASF164
     /tmp/ccEC1RRM.s:4486   .debug_str:00000000000008ee .LASF165
     /tmp/ccEC1RRM.s:4576   .debug_str:0000000000000bfb .LASF166
     /tmp/ccEC1RRM.s:4390   .debug_str:0000000000000581 .LASF167
GAS LISTING /tmp/ccEC1RRM.s 			page 32


     /tmp/ccEC1RRM.s:4274   .debug_str:0000000000000117 .LASF168
     /tmp/ccEC1RRM.s:4574   .debug_str:0000000000000be7 .LASF169
     /tmp/ccEC1RRM.s:4348   .debug_str:0000000000000445 .LASF170
     /tmp/ccEC1RRM.s:4628   .debug_str:0000000000000d77 .LASF171
     /tmp/ccEC1RRM.s:4656   .debug_str:0000000000000e72 .LASF172
     /tmp/ccEC1RRM.s:4368   .debug_str:00000000000004e0 .LASF173
     /tmp/ccEC1RRM.s:4240   .debug_str:000000000000000f .LASF174
     /tmp/ccEC1RRM.s:4596   .debug_str:0000000000000c71 .LASF175
     /tmp/ccEC1RRM.s:4490   .debug_str:0000000000000910 .LASF176
     /tmp/ccEC1RRM.s:4408   .debug_str:0000000000000622 .LASF177
     /tmp/ccEC1RRM.s:4316   .debug_str:0000000000000348 .LASF178
     /tmp/ccEC1RRM.s:4322   .debug_str:0000000000000364 .LASF179
     /tmp/ccEC1RRM.s:4518   .debug_str:0000000000000a15 .LASF180
     /tmp/ccEC1RRM.s:4604   .debug_str:0000000000000cbf .LASF181
     /tmp/ccEC1RRM.s:4238   .debug_str:0000000000000000 .LASF182
     /tmp/ccEC1RRM.s:4400   .debug_str:00000000000005dd .LASF183
     /tmp/ccEC1RRM.s:4684   .debug_str:0000000000000f2e .LASF184
     /tmp/ccEC1RRM.s:4650   .debug_str:0000000000000e31 .LASF185
     /tmp/ccEC1RRM.s:4482   .debug_str:00000000000008b3 .LASF186
     /tmp/ccEC1RRM.s:4330   .debug_str:00000000000003a4 .LASF187
     /tmp/ccEC1RRM.s:4536   .debug_str:0000000000000aa4 .LASF188
     /tmp/ccEC1RRM.s:4564   .debug_str:0000000000000b68 .LASF189
     /tmp/ccEC1RRM.s:4464   .debug_str:0000000000000817 .LASF190
     /tmp/ccEC1RRM.s:4416   .debug_str:0000000000000660 .LASF191
     /tmp/ccEC1RRM.s:4768   .debug_str:000000000000122e .LASF192
     /tmp/ccEC1RRM.s:4248   .debug_str:000000000000004a .LASF193
     /tmp/ccEC1RRM.s:4478   .debug_str:0000000000000891 .LASF194
     /tmp/ccEC1RRM.s:4764   .debug_str:0000000000001211 .LASF195
     /tmp/ccEC1RRM.s:4608   .debug_str:0000000000000cd1 .LASF196
     /tmp/ccEC1RRM.s:4654   .debug_str:0000000000000e5f .LASF197
     /tmp/ccEC1RRM.s:4602   .debug_str:0000000000000c99 .LASF198
     /tmp/ccEC1RRM.s:4754   .debug_str:00000000000011a1 .LASF199
     /tmp/ccEC1RRM.s:4458   .debug_str:00000000000007db .LASF200
     /tmp/ccEC1RRM.s:4524   .debug_str:0000000000000a2b .LASF201
     /tmp/ccEC1RRM.s:4336   .debug_str:00000000000003f9 .LASF202
     /tmp/ccEC1RRM.s:4314   .debug_str:0000000000000343 .LASF203
     /tmp/ccEC1RRM.s:4456   .debug_str:00000000000007d6 .LASF204
     /tmp/ccEC1RRM.s:4378   .debug_str:000000000000052d .LASF205
     /tmp/ccEC1RRM.s:4746   .debug_str:000000000000115f .LASF206
     /tmp/ccEC1RRM.s:4324   .debug_str:000000000000036e .LASF207
     /tmp/ccEC1RRM.s:4398   .debug_str:00000000000005d2 .LASF208
     /tmp/ccEC1RRM.s:4546   .debug_str:0000000000000ae0 .LASF209
     /tmp/ccEC1RRM.s:4626   .debug_str:0000000000000d64 .LASF210
     /tmp/ccEC1RRM.s:4502   .debug_str:0000000000000987 .LASF211
     /tmp/ccEC1RRM.s:4658   .debug_str:0000000000000e79 .LASF212
     /tmp/ccEC1RRM.s:4508   .debug_str:00000000000009af .LASF213
     /tmp/ccEC1RRM.s:4436   .debug_str:0000000000000711 .LASF214
     /tmp/ccEC1RRM.s:4716   .debug_str:0000000000001041 .LASF215
     /tmp/ccEC1RRM.s:4504   .debug_str:000000000000099b .LASF216
     /tmp/ccEC1RRM.s:4698   .debug_str:0000000000000fb6 .LASF217
     /tmp/ccEC1RRM.s:4736   .debug_str:0000000000001106 .LASF218
     /tmp/ccEC1RRM.s:4696   .debug_str:0000000000000fa4 .LASF219
     /tmp/ccEC1RRM.s:4422   .debug_str:0000000000000687 .LASF220
     /tmp/ccEC1RRM.s:4282   .debug_str:0000000000000172 .LASF221
     /tmp/ccEC1RRM.s:4296   .debug_str:0000000000000289 .LASF222
     /tmp/ccEC1RRM.s:4362   .debug_str:0000000000000495 .LASF223
     /tmp/ccEC1RRM.s:4292   .debug_str:00000000000001ba .LASF224
GAS LISTING /tmp/ccEC1RRM.s 			page 33


     /tmp/ccEC1RRM.s:4270   .debug_str:00000000000000e0 .LASF225
     /tmp/ccEC1RRM.s:4734   .debug_str:00000000000010ed .LASF226
     /tmp/ccEC1RRM.s:4484   .debug_str:00000000000008c4 .LASF227
     /tmp/ccEC1RRM.s:4726   .debug_str:0000000000001099 .LASF228
     /tmp/ccEC1RRM.s:4760   .debug_str:00000000000011d0 .LASF229
     /tmp/ccEC1RRM.s:4448   .debug_str:0000000000000789 .LASF230
     /tmp/ccEC1RRM.s:4444   .debug_str:000000000000074b .LASF231
     /tmp/ccEC1RRM.s:4374   .debug_str:000000000000050d .LASF232
     /tmp/ccEC1RRM.s:4724   .debug_str:0000000000001087 .LASF233
     /tmp/ccEC1RRM.s:4384   .debug_str:000000000000054d .LASF234
     /tmp/ccEC1RRM.s:4254   .debug_str:000000000000006f .LASF235
     /tmp/ccEC1RRM.s:4266   .debug_str:00000000000000c1 .LASF236
     /tmp/ccEC1RRM.s:4472   .debug_str:000000000000083f .LASF237
     /tmp/ccEC1RRM.s:4632   .debug_str:0000000000000d99 .LASF238
     /tmp/ccEC1RRM.s:4272   .debug_str:00000000000000fb .LASF239
     /tmp/ccEC1RRM.s:4664   .debug_str:0000000000000e94 .LASF240
     /tmp/ccEC1RRM.s:4570   .debug_str:0000000000000bbb .LASF241
     /tmp/ccEC1RRM.s:4494   .debug_str:000000000000093c .LASF242
     /tmp/ccEC1RRM.s:4732   .debug_str:00000000000010d3 .LASF243
     /tmp/ccEC1RRM.s:4424   .debug_str:00000000000006a9 .LASF244
     /tmp/ccEC1RRM.s:4686   .debug_str:0000000000000f3d .LASF245
     /tmp/ccEC1RRM.s:4366   .debug_str:00000000000004be .LASF246
     /tmp/ccEC1RRM.s:4454   .debug_str:00000000000007bb .LASF247
     /tmp/ccEC1RRM.s:801    .text:0000000000000440 .LFB35
     /tmp/ccEC1RRM.s:847    .text:0000000000000488 .LFE35
     /tmp/ccEC1RRM.s:4772   .debug_str:000000000000124e .LASF248
     /tmp/ccEC1RRM.s:3959   .debug_loc:0000000000000000 .LLST18
     /tmp/ccEC1RRM.s:826    .text:000000000000046c .LVL62
     /tmp/ccEC1RRM.s:752    .text:00000000000003f8 .LFB34
     /tmp/ccEC1RRM.s:795    .text:0000000000000440 .LFE34
     /tmp/ccEC1RRM.s:3966   .debug_loc:0000000000000023 .LLST17
     /tmp/ccEC1RRM.s:773    .text:0000000000000424 .LVL59
     /tmp/ccEC1RRM.s:784    .text:0000000000000430 .LVL60
     /tmp/ccEC1RRM.s:695    .text:00000000000003b4 .LFB33
     /tmp/ccEC1RRM.s:746    .text:00000000000003f8 .LFE33
     /tmp/ccEC1RRM.s:3973   .debug_loc:0000000000000046 .LLST16
     /tmp/ccEC1RRM.s:720    .text:00000000000003d4 .LVL56
     /tmp/ccEC1RRM.s:554    .text:0000000000000300 .LFB32
     /tmp/ccEC1RRM.s:586    .text:0000000000000348 .LFE32
     /tmp/ccEC1RRM.s:569    .text:0000000000000320 .LVL43
     /tmp/ccEC1RRM.s:575    .text:0000000000000338 .LVL44
     /tmp/ccEC1RRM.s:364    .text:0000000000000218 .LFB31
     /tmp/ccEC1RRM.s:397    .text:0000000000000260 .LFE31
     /tmp/ccEC1RRM.s:3980   .debug_loc:0000000000000069 .LLST8
     /tmp/ccEC1RRM.s:381    .text:0000000000000240 .LVL27
     /tmp/ccEC1RRM.s:386    .text:0000000000000250 .LVL28
     /tmp/ccEC1RRM.s:326    .text:00000000000001d0 .LFB30
     /tmp/ccEC1RRM.s:358    .text:0000000000000218 .LFE30
     /tmp/ccEC1RRM.s:341    .text:00000000000001f0 .LVL24
     /tmp/ccEC1RRM.s:347    .text:0000000000000208 .LVL25
     /tmp/ccEC1RRM.s:287    .text:0000000000000188 .LFB29
     /tmp/ccEC1RRM.s:320    .text:00000000000001d0 .LFE29
     /tmp/ccEC1RRM.s:3994   .debug_loc:00000000000000a2 .LLST7
     /tmp/ccEC1RRM.s:304    .text:00000000000001b0 .LVL22
     /tmp/ccEC1RRM.s:309    .text:00000000000001c0 .LVL23
     /tmp/ccEC1RRM.s:592    .text:0000000000000348 .LFB28
     /tmp/ccEC1RRM.s:689    .text:00000000000003b4 .LFE28
GAS LISTING /tmp/ccEC1RRM.s 			page 34


     /tmp/ccEC1RRM.s:4008   .debug_loc:00000000000000db .LLST13
     /tmp/ccEC1RRM.s:4220   .debug_ranges:0000000000000000 .Ldebug_ranges0
     /tmp/ccEC1RRM.s:4022   .debug_loc:0000000000000114 .LLST14
     /tmp/ccEC1RRM.s:4580   .debug_str:0000000000000c0d .LASF249
     /tmp/ccEC1RRM.s:4033   .debug_loc:000000000000014a .LLST15
     /tmp/ccEC1RRM.s:649    .text:0000000000000384 .LBB11
     /tmp/ccEC1RRM.s:684    .text:00000000000003b0 .LBE11
     /tmp/ccEC1RRM.s:653    .text:000000000000038c .LVL51
     /tmp/ccEC1RRM.s:612    .text:0000000000000364 .LVL47
     /tmp/ccEC1RRM.s:403    .text:0000000000000260 .LFB27
     /tmp/ccEC1RRM.s:548    .text:0000000000000300 .LFE27
     /tmp/ccEC1RRM.s:4040   .debug_loc:000000000000016d .LLST9
     /tmp/ccEC1RRM.s:4058   .debug_loc:00000000000001b9 .LLST10
     /tmp/ccEC1RRM.s:4073   .debug_loc:0000000000000202 .LLST11
     /tmp/ccEC1RRM.s:457    .text:0000000000000294 .LBB4
     /tmp/ccEC1RRM.s:493    .text:00000000000002c8 .LBE4
     /tmp/ccEC1RRM.s:4084   .debug_loc:0000000000000238 .LLST12
     /tmp/ccEC1RRM.s:487    .text:00000000000002bc .LVL36
     /tmp/ccEC1RRM.s:492    .text:00000000000002c8 .LVL37
     /tmp/ccEC1RRM.s:249    .text:0000000000000188 .LFE26
     /tmp/ccEC1RRM.s:186    .text:00000000000000fc .LVL13
     /tmp/ccEC1RRM.s:192    .text:000000000000010c .LVL14
     /tmp/ccEC1RRM.s:201    .text:0000000000000120 .LVL15
     /tmp/ccEC1RRM.s:207    .text:0000000000000130 .LVL16
     /tmp/ccEC1RRM.s:231    .text:0000000000000160 .LVL17
     /tmp/ccEC1RRM.s:235    .text:000000000000016c .LVL18
     /tmp/ccEC1RRM.s:242    .text:000000000000017c .LVL19
     /tmp/ccEC1RRM.s:246    .text:0000000000000188 .LVL20
     /tmp/ccEC1RRM.s:91     .text:0000000000000078 .LFB25
     /tmp/ccEC1RRM.s:158    .text:00000000000000d8 .LFE25
     /tmp/ccEC1RRM.s:4646   .debug_str:0000000000000e25 .LASF250
     /tmp/ccEC1RRM.s:4091   .debug_loc:000000000000025b .LLST3
     /tmp/ccEC1RRM.s:4522   .debug_str:0000000000000a26 .LASF251
     /tmp/ccEC1RRM.s:4113   .debug_loc:00000000000002ba .LLST4
     /tmp/ccEC1RRM.s:4131   .debug_loc:0000000000000306 .LLST5
     /tmp/ccEC1RRM.s:4142   .debug_loc:000000000000033c .LLST6
     /tmp/ccEC1RRM.s:129    .text:00000000000000b0 .LVL10
     /tmp/ccEC1RRM.s:10     .text:0000000000000000 .LFB24
     /tmp/ccEC1RRM.s:85     .text:0000000000000078 .LFE24
     /tmp/ccEC1RRM.s:4149   .debug_loc:000000000000035f .LLST0
     /tmp/ccEC1RRM.s:4163   .debug_loc:0000000000000398 .LLST1
     /tmp/ccEC1RRM.s:4185   .debug_loc:00000000000003f7 .LLST2
     /tmp/ccEC1RRM.s:4638   .debug_str:0000000000000dc9 .LASF252
     /tmp/ccEC1RRM.s:37     .text:0000000000000034 .LVL2
     /tmp/ccEC1RRM.s:4496   .debug_str:0000000000000954 .LASF253
     /tmp/ccEC1RRM.s:4710   .debug_str:0000000000001009 .LASF254
     /tmp/ccEC1RRM.s:4706   .debug_str:0000000000000fe9 .LASF267
     /tmp/ccEC1RRM.s:4278   .debug_str:000000000000014b .LASF268
     /tmp/ccEC1RRM.s:4356   .debug_str:000000000000046d .LASF255
     /tmp/ccEC1RRM.s:4382   .debug_str:0000000000000547 .LASF256
     /tmp/ccEC1RRM.s:4590   .debug_str:0000000000000c46 .LASF257
     /tmp/ccEC1RRM.s:4370   .debug_str:00000000000004f9 .LASF258
     /tmp/ccEC1RRM.s:817    .text:000000000000045c .LVL61
     /tmp/ccEC1RRM.s:842    .text:0000000000000480 .LVL64
     /tmp/ccEC1RRM.s:713    .text:00000000000003c8 .LVL54
     /tmp/ccEC1RRM.s:718    .text:00000000000003cc .LVL55
     /tmp/ccEC1RRM.s:367    .text:0000000000000218 .LVL26
GAS LISTING /tmp/ccEC1RRM.s 			page 35


     /tmp/ccEC1RRM.s:290    .text:0000000000000188 .LVL21
     /tmp/ccEC1RRM.s:595    .text:0000000000000348 .LVL45
     /tmp/ccEC1RRM.s:605    .text:000000000000035c .LVL46
     /tmp/ccEC1RRM.s:622    .text:0000000000000370 .LVL48
     /tmp/ccEC1RRM.s:640    .text:000000000000037c .LVL49
     /tmp/ccEC1RRM.s:660    .text:000000000000039c .LVL52
     /tmp/ccEC1RRM.s:671    .text:00000000000003a4 .LVL53
     /tmp/ccEC1RRM.s:646    .text:0000000000000380 .LVL50
     /tmp/ccEC1RRM.s:406    .text:0000000000000260 .LVL29
     /tmp/ccEC1RRM.s:453    .text:0000000000000294 .LVL33
     /tmp/ccEC1RRM.s:544    .text:00000000000002fc .LVL42
     /tmp/ccEC1RRM.s:413    .text:000000000000026c .LVL30
     /tmp/ccEC1RRM.s:431    .text:0000000000000278 .LVL31
     /tmp/ccEC1RRM.s:462    .text:00000000000002a0 .LVL34
     /tmp/ccEC1RRM.s:503    .text:00000000000002d4 .LVL38
     /tmp/ccEC1RRM.s:521    .text:00000000000002e0 .LVL39
     /tmp/ccEC1RRM.s:437    .text:000000000000027c .LVL32
     /tmp/ccEC1RRM.s:527    .text:00000000000002e4 .LVL40
     /tmp/ccEC1RRM.s:482    .text:00000000000002b0 .LVL35
     /tmp/ccEC1RRM.s:540    .text:00000000000002f4 .LVL41
     /tmp/ccEC1RRM.s:94     .text:0000000000000078 .LVL6
     /tmp/ccEC1RRM.s:109    .text:0000000000000094 .LVL7
     /tmp/ccEC1RRM.s:145    .text:00000000000000c8 .LVL11
     /tmp/ccEC1RRM.s:113    .text:0000000000000098 .LVL8
     /tmp/ccEC1RRM.s:152    .text:00000000000000d0 .LVL12
     /tmp/ccEC1RRM.s:125    .text:00000000000000a8 .LVL9
     /tmp/ccEC1RRM.s:14     .text:0000000000000000 .LVL0
     /tmp/ccEC1RRM.s:35     .text:000000000000002c .LVL1
     /tmp/ccEC1RRM.s:69     .text:0000000000000060 .LVL4
     /tmp/ccEC1RRM.s:75     .text:000000000000006c .LVL5
     /tmp/ccEC1RRM.s:66     .text:000000000000005c .LVL3
     /tmp/ccEC1RRM.s:897    .debug_info:0000000000000000 .Ldebug_info0
     /tmp/ccEC1RRM.s:408    .text:0000000000000260 .LBB2
     /tmp/ccEC1RRM.s:441    .text:0000000000000280 .LBE2
     /tmp/ccEC1RRM.s:455    .text:0000000000000294 .LBB7
     /tmp/ccEC1RRM.s:495    .text:00000000000002c8 .LBE7
     /tmp/ccEC1RRM.s:498    .text:00000000000002c8 .LBB8
     /tmp/ccEC1RRM.s:531    .text:00000000000002e8 .LBE8
     /tmp/ccEC1RRM.s:607    .text:000000000000035c .LBB9
     /tmp/ccEC1RRM.s:615    .text:0000000000000364 .LBE9
     /tmp/ccEC1RRM.s:617    .text:0000000000000364 .LBB13
     /tmp/ccEC1RRM.s:687    .text:00000000000003b4 .LBE13
     /tmp/ccEC1RRM.s:252    .gcc_except_table:0000000000000000 .LLSDA26

UNDEFINED SYMBOLS
_Z7kmallocm
_Z5kfreePv
_ZN10KSemaphorenwEm
_ZN10KSemaphoreC1Ei
_ZN10KSemaphoredlEPv
_Unwind_Resume
__gxx_personality_v0
_ZN10KSemaphore6signalEv
_ZN10KSemaphore4waitEv
CONSOLE_STATUS
CONSOLE_TX_DATA
thread_dispatch
GAS LISTING /tmp/ccEC1RRM.s 			page 36


CONSOLE_RX_DATA
_ZN5Riscv13w_a0_sscratchEv
putc
