GAS LISTING /tmp/cc6PDFXJ.s 			page 1


   1              		.file	"KConsole.cpp"
   2              		.option pic
   3              		.option norelax
   4              		.text
   5              	.Ltext0:
   6              		.align	2
   7              		.globl	_ZN8KConsole7putCharEcRPNS_4ElemES2_
   9              	_ZN8KConsole7putCharEcRPNS_4ElemES2_:
  10              	.LFB24:
  11              		.file 1 "src/KConsole.cpp"
   1:src/KConsole.cpp **** //
   2:src/KConsole.cpp **** // Created by os on 5/19/22.
   3:src/KConsole.cpp **** //
   4:src/KConsole.cpp **** 
   5:src/KConsole.cpp **** 
   6:src/KConsole.cpp **** #include "../h/KConsole.hpp"
   7:src/KConsole.cpp **** #include "../h/syscall_c.h"
   8:src/KConsole.cpp **** 
   9:src/KConsole.cpp **** KConsole::Elem* KConsole::headInput = 0;
  10:src/KConsole.cpp **** KConsole::Elem* KConsole::tailInput = 0;
  11:src/KConsole.cpp **** KConsole::Elem* KConsole::headOutput = 0;
  12:src/KConsole.cpp **** KConsole::Elem* KConsole::tailOutput = 0;
  13:src/KConsole.cpp **** KSemaphore* KConsole::hasCharactersOutput = 0;
  14:src/KConsole.cpp **** KSemaphore* KConsole::hasCharactersInput = 0;
  15:src/KConsole.cpp **** int KConsole::cntWInterrupt = 0;
  16:src/KConsole.cpp **** 
  17:src/KConsole.cpp **** void KConsole::putChar(char c, Elem*& head, Elem*& tail)
  18:src/KConsole.cpp **** {
  12              		.loc 1 18 1
  13              		.cfi_startproc
  14              	.LVL0:
  15 0000 130101FD 		addi	sp,sp,-48
  16              		.cfi_def_cfa_offset 48
  17 0004 23341102 		sd	ra,40(sp)
  18 0008 23308102 		sd	s0,32(sp)
  19 000c 233C9100 		sd	s1,24(sp)
  20 0010 23382101 		sd	s2,16(sp)
  21 0014 23343101 		sd	s3,8(sp)
  22              		.cfi_offset 1, -8
  23              		.cfi_offset 8, -16
  24              		.cfi_offset 9, -24
  25              		.cfi_offset 18, -32
  26              		.cfi_offset 19, -40
  27 0018 13040103 		addi	s0,sp,48
  28              		.cfi_def_cfa 8, 0
  29 001c 93090500 		mv	s3,a0
  30 0020 13890500 		mv	s2,a1
  31 0024 93040600 		mv	s1,a2
  19:src/KConsole.cpp ****     Elem* newElem = (Elem*)kmalloc(sizeof(Elem));
  32              		.loc 1 19 5
  33              		.loc 1 19 35 is_stmt 0
  34 0028 13050001 		li	a0,16
  35              	.LVL1:
  36 002c 97000000 		call	_Z7kmallocm@plt
  36      E7800000 
  37              	.LVL2:
  20:src/KConsole.cpp ****     newElem->next = 0;
GAS LISTING /tmp/cc6PDFXJ.s 			page 2


  38              		.loc 1 20 5 is_stmt 1
  39              		.loc 1 20 19 is_stmt 0
  40 0034 23300500 		sd	zero,0(a0)
  21:src/KConsole.cpp ****     newElem->data = c;
  41              		.loc 1 21 5 is_stmt 1
  42              		.loc 1 21 19 is_stmt 0
  43 0038 23043501 		sb	s3,8(a0)
  22:src/KConsole.cpp ****     if(head == 0)
  44              		.loc 1 22 5 is_stmt 1
  45              		.loc 1 22 8 is_stmt 0
  46 003c 83370900 		ld	a5,0(s2)
  47              		.loc 1 22 5
  48 0040 63860702 		beqz	a5,.L5
  23:src/KConsole.cpp ****     {
  24:src/KConsole.cpp ****         head = tail = newElem;
  25:src/KConsole.cpp ****     }
  26:src/KConsole.cpp ****     else
  27:src/KConsole.cpp ****     {
  28:src/KConsole.cpp ****         tail->next = newElem;
  49              		.loc 1 28 9 is_stmt 1
  50 0044 83B70400 		ld	a5,0(s1)
  51              		.loc 1 28 20 is_stmt 0
  52 0048 23B0A700 		sd	a0,0(a5)
  29:src/KConsole.cpp ****         tail = newElem;
  53              		.loc 1 29 9 is_stmt 1
  54              		.loc 1 29 14 is_stmt 0
  55 004c 23B0A400 		sd	a0,0(s1)
  56              	.L1:
  30:src/KConsole.cpp ****     }
  31:src/KConsole.cpp **** }
  57              		.loc 1 31 1
  58 0050 83308102 		ld	ra,40(sp)
  59              		.cfi_remember_state
  60              		.cfi_restore 1
  61 0054 03340102 		ld	s0,32(sp)
  62              		.cfi_restore 8
  63              		.cfi_def_cfa 2, 48
  64 0058 83348101 		ld	s1,24(sp)
  65              		.cfi_restore 9
  66              	.LVL3:
  67 005c 03390101 		ld	s2,16(sp)
  68              		.cfi_restore 18
  69              	.LVL4:
  70 0060 83398100 		ld	s3,8(sp)
  71              		.cfi_restore 19
  72 0064 13010103 		addi	sp,sp,48
  73              		.cfi_def_cfa_offset 0
  74 0068 67800000 		jr	ra
  75              	.LVL5:
  76              	.L5:
  77              		.cfi_restore_state
  24:src/KConsole.cpp ****     }
  78              		.loc 1 24 9 is_stmt 1
  24:src/KConsole.cpp ****     }
  79              		.loc 1 24 21 is_stmt 0
  80 006c 23B0A400 		sd	a0,0(s1)
  24:src/KConsole.cpp ****     }
GAS LISTING /tmp/cc6PDFXJ.s 			page 3


  81              		.loc 1 24 14
  82 0070 2330A900 		sd	a0,0(s2)
  83 0074 6FF0DFFD 		j	.L1
  84              		.cfi_endproc
  85              	.LFE24:
  87              		.align	2
  88              		.globl	_ZN8KConsole7getCharERPNS_4ElemES2_
  90              	_ZN8KConsole7getCharERPNS_4ElemES2_:
  91              	.LFB25:
  32:src/KConsole.cpp **** 
  33:src/KConsole.cpp **** char KConsole::getChar(Elem*& head, Elem*& tail)
  34:src/KConsole.cpp **** {
  92              		.loc 1 34 1 is_stmt 1
  93              		.cfi_startproc
  94              	.LVL6:
  95 0078 130101FE 		addi	sp,sp,-32
  96              		.cfi_def_cfa_offset 32
  97 007c 233C1100 		sd	ra,24(sp)
  98 0080 23388100 		sd	s0,16(sp)
  99 0084 23349100 		sd	s1,8(sp)
 100              		.cfi_offset 1, -8
 101              		.cfi_offset 8, -16
 102              		.cfi_offset 9, -24
 103 0088 13040102 		addi	s0,sp,32
 104              		.cfi_def_cfa 8, 0
 105 008c 93070500 		mv	a5,a0
  35:src/KConsole.cpp ****     if(head == 0)
 106              		.loc 1 35 5
 107              		.loc 1 35 8 is_stmt 0
 108 0090 03350500 		ld	a0,0(a0)
 109              	.LVL7:
 110              		.loc 1 35 5
 111 0094 630E0502 		beqz	a0,.L9
  36:src/KConsole.cpp ****         return 0;
  37:src/KConsole.cpp **** 
  38:src/KConsole.cpp ****     Elem* ret = head;
 112              		.loc 1 38 5 is_stmt 1
 113              	.LVL8:
  39:src/KConsole.cpp ****     head = head->next;
 114              		.loc 1 39 5
 115              		.loc 1 39 18 is_stmt 0
 116 0098 03370500 		ld	a4,0(a0)
 117              		.loc 1 39 10
 118 009c 23B0E700 		sd	a4,0(a5)
  40:src/KConsole.cpp ****     if(head == 0)
 119              		.loc 1 40 5 is_stmt 1
 120 00a0 63040702 		beqz	a4,.L11
 121              	.L8:
  41:src/KConsole.cpp ****         tail = 0;
  42:src/KConsole.cpp **** 
  43:src/KConsole.cpp ****     char c = ret->data;
 122              		.loc 1 43 5
 123              		.loc 1 43 10 is_stmt 0
 124 00a4 83448500 		lbu	s1,8(a0)
 125              	.LVL9:
  44:src/KConsole.cpp ****     kfree(ret);
 126              		.loc 1 44 5 is_stmt 1
GAS LISTING /tmp/cc6PDFXJ.s 			page 4


 127              		.loc 1 44 10 is_stmt 0
 128 00a8 97000000 		call	_Z5kfreePv@plt
 128      E7800000 
 129              	.LVL10:
  45:src/KConsole.cpp ****     return c;
 130              		.loc 1 45 5 is_stmt 1
 131              	.L7:
  46:src/KConsole.cpp **** }
 132              		.loc 1 46 1 is_stmt 0
 133 00b0 13850400 		mv	a0,s1
 134 00b4 83308101 		ld	ra,24(sp)
 135              		.cfi_remember_state
 136              		.cfi_restore 1
 137 00b8 03340101 		ld	s0,16(sp)
 138              		.cfi_restore 8
 139              		.cfi_def_cfa 2, 32
 140 00bc 83348100 		ld	s1,8(sp)
 141              		.cfi_restore 9
 142 00c0 13010102 		addi	sp,sp,32
 143              		.cfi_def_cfa_offset 0
 144 00c4 67800000 		jr	ra
 145              	.LVL11:
 146              	.L11:
 147              		.cfi_restore_state
  41:src/KConsole.cpp **** 
 148              		.loc 1 41 9 is_stmt 1
  41:src/KConsole.cpp **** 
 149              		.loc 1 41 14 is_stmt 0
 150 00c8 23B00500 		sd	zero,0(a1)
 151 00cc 6FF09FFD 		j	.L8
 152              	.LVL12:
 153              	.L9:
  36:src/KConsole.cpp **** 
 154              		.loc 1 36 16
 155 00d0 93040000 		li	s1,0
 156 00d4 6FF0DFFD 		j	.L7
 157              		.cfi_endproc
 158              	.LFE25:
 160              		.align	2
 161              		.globl	_ZN8KConsole10initializeEv
 163              	_ZN8KConsole10initializeEv:
 164              	.LFB26:
  47:src/KConsole.cpp **** 
  48:src/KConsole.cpp **** void KConsole::initialize()
  49:src/KConsole.cpp **** {
 165              		.loc 1 49 1 is_stmt 1
 166              		.cfi_startproc
 167              		.cfi_personality 0x9b,DW.ref.__gxx_personality_v0
 168              		.cfi_lsda 0x1b,.LLSDA26
 169 00d8 130101FE 		addi	sp,sp,-32
 170              		.cfi_def_cfa_offset 32
 171 00dc 233C1100 		sd	ra,24(sp)
 172 00e0 23388100 		sd	s0,16(sp)
 173 00e4 23349100 		sd	s1,8(sp)
 174 00e8 23302101 		sd	s2,0(sp)
 175              		.cfi_offset 1, -8
 176              		.cfi_offset 8, -16
GAS LISTING /tmp/cc6PDFXJ.s 			page 5


 177              		.cfi_offset 9, -24
 178              		.cfi_offset 18, -32
 179 00ec 13040102 		addi	s0,sp,32
 180              		.cfi_def_cfa 8, 0
  50:src/KConsole.cpp ****     hasCharactersInput = new KSemaphore(0);
 181              		.loc 1 50 5
 182              		.loc 1 50 42 is_stmt 0
 183 00f0 13058001 		li	a0,24
 184              	.LEHB0:
 185 00f4 97000000 		call	_ZN10KSemaphorenwEm@plt
 185      E7800000 
 186              	.LVL13:
 187              	.LEHE0:
 188 00fc 93040500 		mv	s1,a0
 189 0100 93050000 		li	a1,0
 190              	.LEHB1:
 191 0104 97000000 		call	_ZN10KSemaphoreC1Ei@plt
 191      E7800000 
 192              	.LVL14:
 193              	.LEHE1:
 194              		.loc 1 50 24 discriminator 2
 195 010c 97070000 		sd	s1,.LANCHOR0,a5
 195      23B09700 
  51:src/KConsole.cpp ****     hasCharactersOutput = new KSemaphore(0);
 196              		.loc 1 51 5 is_stmt 1 discriminator 2
 197              		.loc 1 51 43 is_stmt 0 discriminator 2
 198 0114 13058001 		li	a0,24
 199              	.LEHB2:
 200 0118 97000000 		call	_ZN10KSemaphorenwEm@plt
 200      E7800000 
 201              	.LVL15:
 202              	.LEHE2:
 203 0120 93040500 		mv	s1,a0
 204 0124 93050000 		li	a1,0
 205              	.LEHB3:
 206 0128 97000000 		call	_ZN10KSemaphoreC1Ei@plt
 206      E7800000 
 207              	.LVL16:
 208              	.LEHE3:
 209              		.loc 1 51 25 discriminator 2
 210 0130 97070000 		sd	s1,.LANCHOR0+8,a5
 210      23B09700 
  52:src/KConsole.cpp **** }
 211              		.loc 1 52 1 discriminator 2
 212 0138 83308101 		ld	ra,24(sp)
 213              		.cfi_remember_state
 214              		.cfi_restore 1
 215 013c 03340101 		ld	s0,16(sp)
 216              		.cfi_restore 8
 217              		.cfi_def_cfa 2, 32
 218 0140 83348100 		ld	s1,8(sp)
 219              		.cfi_restore 9
 220 0144 03390100 		ld	s2,0(sp)
 221              		.cfi_restore 18
 222 0148 13010102 		addi	sp,sp,32
 223              		.cfi_def_cfa_offset 0
 224 014c 67800000 		jr	ra
GAS LISTING /tmp/cc6PDFXJ.s 			page 6


 225              	.L15:
 226              		.cfi_restore_state
 227 0150 13090500 		mv	s2,a0
  50:src/KConsole.cpp ****     hasCharactersInput = new KSemaphore(0);
 228              		.loc 1 50 42
 229 0154 13850400 		mv	a0,s1
 230 0158 97000000 		call	_ZN10KSemaphoredlEPv@plt
 230      E7800000 
 231              	.LVL17:
 232 0160 13050900 		mv	a0,s2
 233              	.LEHB4:
 234 0164 97000000 		call	_Unwind_Resume@plt
 234      E7800000 
 235              	.LVL18:
 236              	.LEHE4:
 237              	.L16:
 238 016c 13090500 		mv	s2,a0
  51:src/KConsole.cpp ****     hasCharactersOutput = new KSemaphore(0);
 239              		.loc 1 51 43
 240 0170 13850400 		mv	a0,s1
 241 0174 97000000 		call	_ZN10KSemaphoredlEPv@plt
 241      E7800000 
 242              	.LVL19:
 243 017c 13050900 		mv	a0,s2
 244              	.LEHB5:
 245 0180 97000000 		call	_Unwind_Resume@plt
 245      E7800000 
 246              	.LVL20:
 247              	.LEHE5:
 248              		.cfi_endproc
 249              	.LFE26:
 250              		.globl	__gxx_personality_v0
 251              		.section	.gcc_except_table,"a",@progbits
 252              	.LLSDA26:
 253 0000 FF       		.byte	0xff
 254 0001 FF       		.byte	0xff
 255 0002 03       		.byte	0x3
 256 0003 4E       		.byte	0x4e
 257 0004 00000000 		.4byte	.LEHB0-.LFB26
 258 0008 00000000 		.4byte	.LEHE0-.LEHB0
 259 000c 00000000 		.4byte	0
 260 0010 00       		.byte	0
 261 0011 00000000 		.4byte	.LEHB1-.LFB26
 262 0015 00000000 		.4byte	.LEHE1-.LEHB1
 263 0019 00000000 		.4byte	.L15-.LFB26
 264 001d 00       		.byte	0
 265 001e 00000000 		.4byte	.LEHB2-.LFB26
 266 0022 00000000 		.4byte	.LEHE2-.LEHB2
 267 0026 00000000 		.4byte	0
 268 002a 00       		.byte	0
 269 002b 00000000 		.4byte	.LEHB3-.LFB26
 270 002f 00000000 		.4byte	.LEHE3-.LEHB3
 271 0033 00000000 		.4byte	.L16-.LFB26
 272 0037 00       		.byte	0
 273 0038 00000000 		.4byte	.LEHB4-.LFB26
 274 003c 00000000 		.4byte	.LEHE4-.LEHB4
 275 0040 00000000 		.4byte	0
GAS LISTING /tmp/cc6PDFXJ.s 			page 7


 276 0044 00       		.byte	0
 277 0045 00000000 		.4byte	.LEHB5-.LFB26
 278 0049 00000000 		.4byte	.LEHE5-.LEHB5
 279 004d 00000000 		.4byte	0
 280 0051 00       		.byte	0
 281              		.text
 283              		.align	2
 284              		.globl	_ZN8KConsole17putCharacterInputEc
 286              	_ZN8KConsole17putCharacterInputEc:
 287              	.LFB29:
  53:src/KConsole.cpp **** 
  54:src/KConsole.cpp **** //extern const uint64 CONSOLE_STATUS;
  55:src/KConsole.cpp **** //extern const uint64 CONSOLE_TX_DATA;
  56:src/KConsole.cpp **** //extern const uint64 CONSOLE_RX_DATA;
  57:src/KConsole.cpp **** 
  58:src/KConsole.cpp **** void KConsole::getCharactersFromConsole(void* p)
  59:src/KConsole.cpp **** {
  60:src/KConsole.cpp ****     while(true)
  61:src/KConsole.cpp ****     {
  62:src/KConsole.cpp ****         uint64 x = CONSOLE_STATUS;
  63:src/KConsole.cpp ****         __asm__ volatile("mv a0, %0"::"r"(x));
  64:src/KConsole.cpp ****         __asm__ volatile("lb a1, 0(a0)");
  65:src/KConsole.cpp ****         uint64 operation;
  66:src/KConsole.cpp ****         __asm__ volatile("mv %0, a1" :  "=r"(operation));
  67:src/KConsole.cpp ****         if(operation & STATUS_READ_MASK)
  68:src/KConsole.cpp ****         {
  69:src/KConsole.cpp ****             x = CONSOLE_TX_DATA;
  70:src/KConsole.cpp ****             __asm__ volatile("mv a0, %0"::"r"(x));
  71:src/KConsole.cpp ****             __asm__ volatile("lb a1,0(a0)");
  72:src/KConsole.cpp ****             char c;
  73:src/KConsole.cpp ****             __asm__ volatile("mv %0, a1" :  "=r"(c));
  74:src/KConsole.cpp **** 
  75:src/KConsole.cpp ****             putCharacterInput(c);
  76:src/KConsole.cpp ****             putCharacterOutput(c);
  77:src/KConsole.cpp ****         }
  78:src/KConsole.cpp ****         else
  79:src/KConsole.cpp ****             break;
  80:src/KConsole.cpp ****     }
  81:src/KConsole.cpp **** }
  82:src/KConsole.cpp **** 
  83:src/KConsole.cpp **** void KConsole::sendCharactersToConsole(void* p)
  84:src/KConsole.cpp **** {
  85:src/KConsole.cpp ****     while(true)
  86:src/KConsole.cpp ****     {
  87:src/KConsole.cpp **** 
  88:src/KConsole.cpp ****             uint64 x = CONSOLE_STATUS;
  89:src/KConsole.cpp ****             __asm__ volatile("mv a0, %0"::"r"(x));
  90:src/KConsole.cpp ****             __asm__ volatile("lb a1, 0(a0)");
  91:src/KConsole.cpp ****             uint64 operation;
  92:src/KConsole.cpp ****             __asm__ volatile("mv %0, a1" :  "=r"(operation));
  93:src/KConsole.cpp ****             if (operation & STATUS_WRITE_MASK)
  94:src/KConsole.cpp ****             {
  95:src/KConsole.cpp ****                 char volatile c = getCharacterOutput();
  96:src/KConsole.cpp ****                 x = CONSOLE_RX_DATA;
  97:src/KConsole.cpp ****                 __asm__ volatile("mv a0, %0"::"r"(x));
  98:src/KConsole.cpp ****                 __asm__ volatile("mv a1, %0" :  :"r"((uint64)c));
  99:src/KConsole.cpp ****                 __asm__ volatile("sb a1,0(a0)");
GAS LISTING /tmp/cc6PDFXJ.s 			page 8


 100:src/KConsole.cpp ****             }
 101:src/KConsole.cpp ****     }
 102:src/KConsole.cpp **** }
 103:src/KConsole.cpp **** 
 104:src/KConsole.cpp **** void KConsole::putCharacterInput(char c)
 105:src/KConsole.cpp **** {
 288              		.loc 1 105 1 is_stmt 1
 289              		.cfi_startproc
 290              	.LVL21:
 291 0188 130101FF 		addi	sp,sp,-16
 292              		.cfi_def_cfa_offset 16
 293 018c 23341100 		sd	ra,8(sp)
 294 0190 23308100 		sd	s0,0(sp)
 295              		.cfi_offset 1, -8
 296              		.cfi_offset 8, -16
 297 0194 13040101 		addi	s0,sp,16
 298              		.cfi_def_cfa 8, 0
 106:src/KConsole.cpp ****     putChar(c, headInput, tailInput);
 299              		.loc 1 106 5
 300              		.loc 1 106 12 is_stmt 0
 301 0198 17060000 		lla	a2,.LANCHOR0+16
 301      13060600 
 302 01a0 97050000 		lla	a1,.LANCHOR0+24
 302      93850500 
 303 01a8 97000000 		call	_ZN8KConsole7putCharEcRPNS_4ElemES2_
 303      E7800000 
 304              	.LVL22:
 107:src/KConsole.cpp ****     hasCharactersInput->signal();
 305              		.loc 1 107 5 is_stmt 1
 306              		.loc 1 107 31 is_stmt 0
 307 01b0 17050000 		ld	a0,.LANCHOR0
 307      03350500 
 308 01b8 97000000 		call	_ZN10KSemaphore6signalEv@plt
 308      E7800000 
 309              	.LVL23:
 108:src/KConsole.cpp **** }
 310              		.loc 1 108 1
 311 01c0 83308100 		ld	ra,8(sp)
 312              		.cfi_restore 1
 313 01c4 03340100 		ld	s0,0(sp)
 314              		.cfi_restore 8
 315              		.cfi_def_cfa 2, 16
 316 01c8 13010101 		addi	sp,sp,16
 317              		.cfi_def_cfa_offset 0
 318 01cc 67800000 		jr	ra
 319              		.cfi_endproc
 320              	.LFE29:
 322              		.align	2
 323              		.globl	_ZN8KConsole17getCharacterInputEv
 325              	_ZN8KConsole17getCharacterInputEv:
 326              	.LFB30:
 109:src/KConsole.cpp **** 
 110:src/KConsole.cpp **** char KConsole::getCharacterInput()
 111:src/KConsole.cpp **** {
 327              		.loc 1 111 1 is_stmt 1
 328              		.cfi_startproc
 329 01d0 130101FF 		addi	sp,sp,-16
GAS LISTING /tmp/cc6PDFXJ.s 			page 9


 330              		.cfi_def_cfa_offset 16
 331 01d4 23341100 		sd	ra,8(sp)
 332 01d8 23308100 		sd	s0,0(sp)
 333              		.cfi_offset 1, -8
 334              		.cfi_offset 8, -16
 335 01dc 13040101 		addi	s0,sp,16
 336              		.cfi_def_cfa 8, 0
 112:src/KConsole.cpp ****     hasCharactersInput->wait();
 337              		.loc 1 112 5
 338              		.loc 1 112 29 is_stmt 0
 339 01e0 17050000 		ld	a0,.LANCHOR0
 339      03350500 
 340 01e8 97000000 		call	_ZN10KSemaphore4waitEv@plt
 340      E7800000 
 341              	.LVL24:
 113:src/KConsole.cpp ****     return getChar(headInput, tailInput);
 342              		.loc 1 113 5 is_stmt 1
 343              		.loc 1 113 19 is_stmt 0
 344 01f0 97050000 		lla	a1,.LANCHOR0+16
 344      93850500 
 345 01f8 17050000 		lla	a0,.LANCHOR0+24
 345      13050500 
 346 0200 97000000 		call	_ZN8KConsole7getCharERPNS_4ElemES2_
 346      E7800000 
 347              	.LVL25:
 114:src/KConsole.cpp **** }
 348              		.loc 1 114 1
 349 0208 83308100 		ld	ra,8(sp)
 350              		.cfi_restore 1
 351 020c 03340100 		ld	s0,0(sp)
 352              		.cfi_restore 8
 353              		.cfi_def_cfa 2, 16
 354 0210 13010101 		addi	sp,sp,16
 355              		.cfi_def_cfa_offset 0
 356 0214 67800000 		jr	ra
 357              		.cfi_endproc
 358              	.LFE30:
 360              		.align	2
 361              		.globl	_ZN8KConsole18putCharacterOutputEc
 363              	_ZN8KConsole18putCharacterOutputEc:
 364              	.LFB31:
 115:src/KConsole.cpp **** 
 116:src/KConsole.cpp **** void KConsole::putCharacterOutput(char c)
 117:src/KConsole.cpp **** {
 365              		.loc 1 117 1 is_stmt 1
 366              		.cfi_startproc
 367              	.LVL26:
 368 0218 130101FF 		addi	sp,sp,-16
 369              		.cfi_def_cfa_offset 16
 370 021c 23341100 		sd	ra,8(sp)
 371 0220 23308100 		sd	s0,0(sp)
 372              		.cfi_offset 1, -8
 373              		.cfi_offset 8, -16
 374 0224 13040101 		addi	s0,sp,16
 375              		.cfi_def_cfa 8, 0
 118:src/KConsole.cpp ****     putChar(c, headOutput, tailOutput);
 376              		.loc 1 118 5
GAS LISTING /tmp/cc6PDFXJ.s 			page 10


 377              		.loc 1 118 12 is_stmt 0
 378 0228 17060000 		lla	a2,.LANCHOR0+32
 378      13060600 
 379 0230 97050000 		lla	a1,.LANCHOR0+40
 379      93850500 
 380 0238 97000000 		call	_ZN8KConsole7putCharEcRPNS_4ElemES2_
 380      E7800000 
 381              	.LVL27:
 119:src/KConsole.cpp ****     hasCharactersOutput->signal();
 382              		.loc 1 119 5 is_stmt 1
 383              		.loc 1 119 32 is_stmt 0
 384 0240 17050000 		ld	a0,.LANCHOR0+8
 384      03350500 
 385 0248 97000000 		call	_ZN10KSemaphore6signalEv@plt
 385      E7800000 
 386              	.LVL28:
 120:src/KConsole.cpp **** }
 387              		.loc 1 120 1
 388 0250 83308100 		ld	ra,8(sp)
 389              		.cfi_restore 1
 390 0254 03340100 		ld	s0,0(sp)
 391              		.cfi_restore 8
 392              		.cfi_def_cfa 2, 16
 393 0258 13010101 		addi	sp,sp,16
 394              		.cfi_def_cfa_offset 0
 395 025c 67800000 		jr	ra
 396              		.cfi_endproc
 397              	.LFE31:
 399              		.align	2
 400              		.globl	_ZN8KConsole24getCharactersFromConsoleEPv
 402              	_ZN8KConsole24getCharactersFromConsoleEPv:
 403              	.LFB27:
  59:src/KConsole.cpp ****     while(true)
 404              		.loc 1 59 1 is_stmt 1
 405              		.cfi_startproc
 406              	.LVL29:
  60:src/KConsole.cpp ****     {
 407              		.loc 1 60 5
 408              	.LBB2:
  62:src/KConsole.cpp ****         __asm__ volatile("mv a0, %0"::"r"(x));
 409              		.loc 1 62 9
  62:src/KConsole.cpp ****         __asm__ volatile("mv a0, %0"::"r"(x));
 410              		.loc 1 62 16 is_stmt 0
 411 0260 97070000 		la	a5,CONSOLE_STATUS
 411      83B70700 
 412 0268 83B70700 		ld	a5,0(a5)
 413              	.LVL30:
  63:src/KConsole.cpp ****         __asm__ volatile("lb a1, 0(a0)");
 414              		.loc 1 63 9 is_stmt 1
  63:src/KConsole.cpp ****         __asm__ volatile("lb a1, 0(a0)");
 415              		.loc 1 63 46 is_stmt 0
 416              	#APP
 417              	# 63 "src/KConsole.cpp" 1
  64:src/KConsole.cpp ****         uint64 operation;
 418              		mv a0, a5
 419              	# 0 "" 2
 420              		.loc 1 64 9 is_stmt 1
GAS LISTING /tmp/cc6PDFXJ.s 			page 11


  64:src/KConsole.cpp ****         uint64 operation;
 421              		.loc 1 64 41 is_stmt 0
 422              	# 64 "src/KConsole.cpp" 1
  65:src/KConsole.cpp ****         __asm__ volatile("mv %0, a1" :  "=r"(operation));
 423              		lb a1, 0(a0)
 424              	# 0 "" 2
 425              		.loc 1 65 9 is_stmt 1
  66:src/KConsole.cpp ****         if(operation & STATUS_READ_MASK)
 426              		.loc 1 66 9
  66:src/KConsole.cpp ****         if(operation & STATUS_READ_MASK)
 427              		.loc 1 66 57 is_stmt 0
 428              	# 66 "src/KConsole.cpp" 1
 429              		mv a5, a1
 430              	# 0 "" 2
 431              	.LVL31:
  67:src/KConsole.cpp ****         {
 432              		.loc 1 67 9 is_stmt 1
 433              	#NO_APP
 434              	.LBB3:
  67:src/KConsole.cpp ****         {
 435              		.loc 1 67 22 is_stmt 0
 436 0278 93F71700 		andi	a5,a5,1
 437              	.LVL32:
  67:src/KConsole.cpp ****         {
 438              		.loc 1 67 9
 439 027c 63800708 		beqz	a5,.L33
 440              	.LBE3:
 441              	.LBE2:
  59:src/KConsole.cpp ****     while(true)
 442              		.loc 1 59 1
 443 0280 130101FE 		addi	sp,sp,-32
 444              		.cfi_def_cfa_offset 32
 445 0284 233C1100 		sd	ra,24(sp)
 446 0288 23388100 		sd	s0,16(sp)
 447 028c 23349100 		sd	s1,8(sp)
 448              		.cfi_offset 1, -8
 449              		.cfi_offset 8, -16
 450              		.cfi_offset 9, -24
 451 0290 13040102 		addi	s0,sp,32
 452              		.cfi_def_cfa 8, 0
 453              	.LVL33:
 454              	.L29:
 455              	.LBB7:
 456              	.LBB5:
 457              	.LBB4:
  69:src/KConsole.cpp ****             __asm__ volatile("mv a0, %0"::"r"(x));
 458              		.loc 1 69 13 is_stmt 1
  69:src/KConsole.cpp ****             __asm__ volatile("mv a0, %0"::"r"(x));
 459              		.loc 1 69 15 is_stmt 0
 460 0294 97070000 		la	a5,CONSOLE_TX_DATA
 460      83B70700 
 461 029c 83B70700 		ld	a5,0(a5)
 462              	.LVL34:
  70:src/KConsole.cpp ****             __asm__ volatile("lb a1,0(a0)");
 463              		.loc 1 70 13 is_stmt 1
  70:src/KConsole.cpp ****             __asm__ volatile("lb a1,0(a0)");
 464              		.loc 1 70 50 is_stmt 0
GAS LISTING /tmp/cc6PDFXJ.s 			page 12


 465              	#APP
 466              	# 70 "src/KConsole.cpp" 1
  71:src/KConsole.cpp ****             char c;
 467              		mv a0, a5
 468              	# 0 "" 2
 469              		.loc 1 71 13 is_stmt 1
  71:src/KConsole.cpp ****             char c;
 470              		.loc 1 71 44 is_stmt 0
 471              	# 71 "src/KConsole.cpp" 1
  72:src/KConsole.cpp ****             __asm__ volatile("mv %0, a1" :  "=r"(c));
 472              		lb a1,0(a0)
 473              	# 0 "" 2
 474              		.loc 1 72 13 is_stmt 1
  73:src/KConsole.cpp **** 
 475              		.loc 1 73 13
  73:src/KConsole.cpp **** 
 476              		.loc 1 73 53 is_stmt 0
 477              	# 73 "src/KConsole.cpp" 1
 478              		mv s1, a1
 479              	# 0 "" 2
 480              	#NO_APP
 481 02ac 93F4F40F 		andi	s1,s1,0xff
 482              	.LVL35:
  75:src/KConsole.cpp ****             putCharacterOutput(c);
 483              		.loc 1 75 13 is_stmt 1
  75:src/KConsole.cpp ****             putCharacterOutput(c);
 484              		.loc 1 75 30 is_stmt 0
 485 02b0 13850400 		mv	a0,s1
 486 02b4 97000000 		call	_ZN8KConsole17putCharacterInputEc
 486      E7800000 
 487              	.LVL36:
  76:src/KConsole.cpp ****         }
 488              		.loc 1 76 13 is_stmt 1
  76:src/KConsole.cpp ****         }
 489              		.loc 1 76 31 is_stmt 0
 490 02bc 13850400 		mv	a0,s1
 491 02c0 97000000 		call	_ZN8KConsole18putCharacterOutputEc
 491      E7800000 
 492              	.LVL37:
 493              	.LBE4:
 494              	.LBE5:
 495              	.LBE7:
  60:src/KConsole.cpp ****     {
 496              		.loc 1 60 5 is_stmt 1
  60:src/KConsole.cpp ****     {
 497              		.loc 1 60 5
 498              	.LBB8:
  62:src/KConsole.cpp ****         __asm__ volatile("mv a0, %0"::"r"(x));
 499              		.loc 1 62 9
  62:src/KConsole.cpp ****         __asm__ volatile("mv a0, %0"::"r"(x));
 500              		.loc 1 62 16 is_stmt 0
 501 02c8 97070000 		la	a5,CONSOLE_STATUS
 501      83B70700 
 502 02d0 83B70700 		ld	a5,0(a5)
 503              	.LVL38:
  63:src/KConsole.cpp ****         __asm__ volatile("lb a1, 0(a0)");
 504              		.loc 1 63 9 is_stmt 1
GAS LISTING /tmp/cc6PDFXJ.s 			page 13


  63:src/KConsole.cpp ****         __asm__ volatile("lb a1, 0(a0)");
 505              		.loc 1 63 46 is_stmt 0
 506              	#APP
 507              	# 63 "src/KConsole.cpp" 1
  64:src/KConsole.cpp ****         uint64 operation;
 508              		mv a0, a5
 509              	# 0 "" 2
 510              		.loc 1 64 9 is_stmt 1
  64:src/KConsole.cpp ****         uint64 operation;
 511              		.loc 1 64 41 is_stmt 0
 512              	# 64 "src/KConsole.cpp" 1
  65:src/KConsole.cpp ****         __asm__ volatile("mv %0, a1" :  "=r"(operation));
 513              		lb a1, 0(a0)
 514              	# 0 "" 2
 515              		.loc 1 65 9 is_stmt 1
  66:src/KConsole.cpp ****         if(operation & STATUS_READ_MASK)
 516              		.loc 1 66 9
  66:src/KConsole.cpp ****         if(operation & STATUS_READ_MASK)
 517              		.loc 1 66 57 is_stmt 0
 518              	# 66 "src/KConsole.cpp" 1
 519              		mv a5, a1
 520              	# 0 "" 2
 521              	.LVL39:
  67:src/KConsole.cpp ****         {
 522              		.loc 1 67 9 is_stmt 1
 523              	#NO_APP
 524              	.LBB6:
  67:src/KConsole.cpp ****         {
 525              		.loc 1 67 22 is_stmt 0
 526 02e0 93F71700 		andi	a5,a5,1
 527              	.LVL40:
  67:src/KConsole.cpp ****         {
 528              		.loc 1 67 9
 529 02e4 E39807FA 		bnez	a5,.L29
 530              	.LBE6:
 531              	.LBE8:
  81:src/KConsole.cpp **** 
 532              		.loc 1 81 1
 533 02e8 83308101 		ld	ra,24(sp)
 534              		.cfi_restore 1
 535 02ec 03340101 		ld	s0,16(sp)
 536              		.cfi_restore 8
 537              		.cfi_def_cfa 2, 32
 538 02f0 83348100 		ld	s1,8(sp)
 539              		.cfi_restore 9
 540              	.LVL41:
 541 02f4 13010102 		addi	sp,sp,32
 542              		.cfi_def_cfa_offset 0
 543 02f8 67800000 		jr	ra
 544              	.LVL42:
 545              	.L33:
 546 02fc 67800000 		ret
 547              		.cfi_endproc
 548              	.LFE27:
 550              		.align	2
 551              		.globl	_ZN8KConsole18getCharacterOutputEv
 553              	_ZN8KConsole18getCharacterOutputEv:
GAS LISTING /tmp/cc6PDFXJ.s 			page 14


 554              	.LFB32:
 121:src/KConsole.cpp **** 
 122:src/KConsole.cpp **** char KConsole::getCharacterOutput()
 123:src/KConsole.cpp **** {
 555              		.loc 1 123 1 is_stmt 1
 556              		.cfi_startproc
 557 0300 130101FF 		addi	sp,sp,-16
 558              		.cfi_def_cfa_offset 16
 559 0304 23341100 		sd	ra,8(sp)
 560 0308 23308100 		sd	s0,0(sp)
 561              		.cfi_offset 1, -8
 562              		.cfi_offset 8, -16
 563 030c 13040101 		addi	s0,sp,16
 564              		.cfi_def_cfa 8, 0
 124:src/KConsole.cpp ****     hasCharactersOutput->wait();
 565              		.loc 1 124 5
 566              		.loc 1 124 30 is_stmt 0
 567 0310 17050000 		ld	a0,.LANCHOR0+8
 567      03350500 
 568 0318 97000000 		call	_ZN10KSemaphore4waitEv@plt
 568      E7800000 
 569              	.LVL43:
 125:src/KConsole.cpp ****     return getChar(headOutput, tailOutput);
 570              		.loc 1 125 5 is_stmt 1
 571              		.loc 1 125 19 is_stmt 0
 572 0320 97050000 		lla	a1,.LANCHOR0+32
 572      93850500 
 573 0328 17050000 		lla	a0,.LANCHOR0+40
 573      13050500 
 574 0330 97000000 		call	_ZN8KConsole7getCharERPNS_4ElemES2_
 574      E7800000 
 575              	.LVL44:
 126:src/KConsole.cpp **** }
 576              		.loc 1 126 1
 577 0338 83308100 		ld	ra,8(sp)
 578              		.cfi_restore 1
 579 033c 03340100 		ld	s0,0(sp)
 580              		.cfi_restore 8
 581              		.cfi_def_cfa 2, 16
 582 0340 13010101 		addi	sp,sp,16
 583              		.cfi_def_cfa_offset 0
 584 0344 67800000 		jr	ra
 585              		.cfi_endproc
 586              	.LFE32:
 588              		.align	2
 589              		.globl	_ZN8KConsole23sendCharactersToConsoleEPv
 591              	_ZN8KConsole23sendCharactersToConsoleEPv:
 592              	.LFB28:
  84:src/KConsole.cpp ****     while(true)
 593              		.loc 1 84 1 is_stmt 1
 594              		.cfi_startproc
 595              	.LVL45:
 596              	.L41:
  85:src/KConsole.cpp ****     {
 597              		.loc 1 85 5
 598              	.LBB9:
  88:src/KConsole.cpp ****             __asm__ volatile("mv a0, %0"::"r"(x));
GAS LISTING /tmp/cc6PDFXJ.s 			page 15


 599              		.loc 1 88 13
  88:src/KConsole.cpp ****             __asm__ volatile("mv a0, %0"::"r"(x));
 600              		.loc 1 88 20 is_stmt 0
 601 0348 97070000 		la	a5,CONSOLE_STATUS
 601      83B70700 
 602 0350 83B70700 		ld	a5,0(a5)
 603              	.LVL46:
  89:src/KConsole.cpp ****             __asm__ volatile("lb a1, 0(a0)");
 604              		.loc 1 89 13 is_stmt 1
  89:src/KConsole.cpp ****             __asm__ volatile("lb a1, 0(a0)");
 605              		.loc 1 89 50 is_stmt 0
 606              	#APP
 607              	# 89 "src/KConsole.cpp" 1
  90:src/KConsole.cpp ****             uint64 operation;
 608              		mv a0, a5
 609              	# 0 "" 2
 610              		.loc 1 90 13 is_stmt 1
  90:src/KConsole.cpp ****             uint64 operation;
 611              		.loc 1 90 45 is_stmt 0
 612              	# 90 "src/KConsole.cpp" 1
  91:src/KConsole.cpp ****             __asm__ volatile("mv %0, a1" :  "=r"(operation));
 613              		lb a1, 0(a0)
 614              	# 0 "" 2
 615              		.loc 1 91 13 is_stmt 1
  92:src/KConsole.cpp ****             if (operation & STATUS_WRITE_MASK)
 616              		.loc 1 92 13
  92:src/KConsole.cpp ****             if (operation & STATUS_WRITE_MASK)
 617              		.loc 1 92 61 is_stmt 0
 618              	# 92 "src/KConsole.cpp" 1
 619              		mv a5, a1
 620              	# 0 "" 2
 621              	.LVL47:
  93:src/KConsole.cpp ****             {
 622              		.loc 1 93 13 is_stmt 1
 623              	#NO_APP
 624              	.LBB10:
  93:src/KConsole.cpp ****             {
 625              		.loc 1 93 27 is_stmt 0
 626 0360 93F70702 		andi	a5,a5,32
 627              	.LVL48:
  93:src/KConsole.cpp ****             {
 628              		.loc 1 93 13
 629 0364 E38207FE 		beqz	a5,.L41
 630              	.LBE10:
 631              	.LBE9:
  84:src/KConsole.cpp ****     while(true)
 632              		.loc 1 84 1
 633 0368 130101FE 		addi	sp,sp,-32
 634              		.cfi_def_cfa_offset 32
 635 036c 233C1100 		sd	ra,24(sp)
 636 0370 23388100 		sd	s0,16(sp)
 637              		.cfi_offset 1, -8
 638              		.cfi_offset 8, -16
 639 0374 13040102 		addi	s0,sp,32
 640              		.cfi_def_cfa 8, 0
 641              	.LVL49:
 642              	.L40:
GAS LISTING /tmp/cc6PDFXJ.s 			page 16


 643              	.LBB14:
 644              	.LBB12:
 645              	.LBB11:
  95:src/KConsole.cpp ****                 x = CONSOLE_RX_DATA;
 646              		.loc 1 95 17 is_stmt 1
  95:src/KConsole.cpp ****                 x = CONSOLE_RX_DATA;
 647              		.loc 1 95 53 is_stmt 0
 648 0378 97000000 		call	_ZN8KConsole18getCharacterOutputEv
 648      E7800000 
 649              	.LVL50:
  95:src/KConsole.cpp ****                 x = CONSOLE_RX_DATA;
 650              		.loc 1 95 54
 651 0380 A307A4FE 		sb	a0,-17(s0)
  96:src/KConsole.cpp ****                 __asm__ volatile("mv a0, %0"::"r"(x));
 652              		.loc 1 96 17 is_stmt 1
  96:src/KConsole.cpp ****                 __asm__ volatile("mv a0, %0"::"r"(x));
 653              		.loc 1 96 19 is_stmt 0
 654 0384 97070000 		la	a5,CONSOLE_RX_DATA
 654      83B70700 
 655 038c 83B70700 		ld	a5,0(a5)
 656              	.LVL51:
  97:src/KConsole.cpp ****                 __asm__ volatile("mv a1, %0" :  :"r"((uint64)c));
 657              		.loc 1 97 17 is_stmt 1
  97:src/KConsole.cpp ****                 __asm__ volatile("mv a1, %0" :  :"r"((uint64)c));
 658              		.loc 1 97 54 is_stmt 0
 659              	#APP
 660              	# 97 "src/KConsole.cpp" 1
  98:src/KConsole.cpp ****                 __asm__ volatile("sb a1,0(a0)");
 661              		mv a0, a5
 662              	# 0 "" 2
 663              		.loc 1 98 17 is_stmt 1
  98:src/KConsole.cpp ****                 __asm__ volatile("sb a1,0(a0)");
 664              		.loc 1 98 54 is_stmt 0
 665              	#NO_APP
 666 0394 8347F4FE 		lbu	a5,-17(s0)
 667              	.LVL52:
 668 0398 93F7F70F 		andi	a5,a5,0xff
  98:src/KConsole.cpp ****                 __asm__ volatile("sb a1,0(a0)");
 669              		.loc 1 98 65
 670              	#APP
 671              	# 98 "src/KConsole.cpp" 1
  99:src/KConsole.cpp ****             }
 672              		mv a1, a5
 673              	# 0 "" 2
 674              		.loc 1 99 17 is_stmt 1
  99:src/KConsole.cpp ****             }
 675              		.loc 1 99 48 is_stmt 0
 676              	# 99 "src/KConsole.cpp" 1
 677              		sb a1,0(a0)
 678              	# 0 "" 2
 679              	.LVL53:
 680              	#NO_APP
 681              	.L37:
 682              	.LBE11:
 683              	.LBE12:
 684              	.LBE14:
  85:src/KConsole.cpp ****     {
GAS LISTING /tmp/cc6PDFXJ.s 			page 17


 685              		.loc 1 85 5 is_stmt 1
 686              	.LBB15:
  88:src/KConsole.cpp ****             __asm__ volatile("mv a0, %0"::"r"(x));
 687              		.loc 1 88 13
  88:src/KConsole.cpp ****             __asm__ volatile("mv a0, %0"::"r"(x));
 688              		.loc 1 88 20 is_stmt 0
 689 03a4 97070000 		la	a5,CONSOLE_STATUS
 689      83B70700 
 690 03ac 83B70700 		ld	a5,0(a5)
 691              	.LVL54:
  89:src/KConsole.cpp ****             __asm__ volatile("lb a1, 0(a0)");
 692              		.loc 1 89 13 is_stmt 1
  89:src/KConsole.cpp ****             __asm__ volatile("lb a1, 0(a0)");
 693              		.loc 1 89 50 is_stmt 0
 694              	#APP
 695              	# 89 "src/KConsole.cpp" 1
  90:src/KConsole.cpp ****             uint64 operation;
 696              		mv a0, a5
 697              	# 0 "" 2
 698              		.loc 1 90 13 is_stmt 1
  90:src/KConsole.cpp ****             uint64 operation;
 699              		.loc 1 90 45 is_stmt 0
 700              	# 90 "src/KConsole.cpp" 1
  91:src/KConsole.cpp ****             __asm__ volatile("mv %0, a1" :  "=r"(operation));
 701              		lb a1, 0(a0)
 702              	# 0 "" 2
 703              		.loc 1 91 13 is_stmt 1
  92:src/KConsole.cpp ****             if (operation & STATUS_WRITE_MASK)
 704              		.loc 1 92 13
  92:src/KConsole.cpp ****             if (operation & STATUS_WRITE_MASK)
 705              		.loc 1 92 61 is_stmt 0
 706              	# 92 "src/KConsole.cpp" 1
 707              		mv a5, a1
 708              	# 0 "" 2
 709              	.LVL55:
  93:src/KConsole.cpp ****             {
 710              		.loc 1 93 13 is_stmt 1
 711              	#NO_APP
 712              	.LBB13:
  93:src/KConsole.cpp ****             {
 713              		.loc 1 93 27 is_stmt 0
 714 03bc 93F70702 		andi	a5,a5,32
 715              	.LVL56:
  93:src/KConsole.cpp ****             {
 716              		.loc 1 93 13
 717 03c0 E38207FE 		beqz	a5,.L37
 718 03c4 6FF05FFB 		j	.L40
 719              	.LBE13:
 720              	.LBE15:
 721              		.cfi_endproc
 722              	.LFE28:
 724              		.align	2
 725              		.globl	_ZN8KConsole11putcHandlerEv
 727              	_ZN8KConsole11putcHandlerEv:
 728              	.LFB33:
 127:src/KConsole.cpp **** 
 128:src/KConsole.cpp **** void KConsole::putcHandler()
GAS LISTING /tmp/cc6PDFXJ.s 			page 18


 129:src/KConsole.cpp **** {
 729              		.loc 1 129 1 is_stmt 1
 730              		.cfi_startproc
 731 03c8 130101FF 		addi	sp,sp,-16
 732              		.cfi_def_cfa_offset 16
 733 03cc 23341100 		sd	ra,8(sp)
 734 03d0 23308100 		sd	s0,0(sp)
 735              		.cfi_offset 1, -8
 736              		.cfi_offset 8, -16
 737 03d4 13040101 		addi	s0,sp,16
 738              		.cfi_def_cfa 8, 0
 130:src/KConsole.cpp ****     uint64 ch;
 739              		.loc 1 130 5
 131:src/KConsole.cpp ****     __asm__ volatile("mv %0, a1" : "=r"(ch));
 740              		.loc 1 131 5
 741              		.loc 1 131 45 is_stmt 0
 742              	#APP
 743              	# 131 "src/KConsole.cpp" 1
 132              	    putCharacterOutput((char)ch);
 744              		mv a0, a1
 745              	# 0 "" 2
 746              	.LVL57:
 747              		.loc 1 132 5 is_stmt 1
 748              		.loc 1 132 23 is_stmt 0
 749              	#NO_APP
 750 03dc 1375F50F 		andi	a0,a0,0xff
 751              	.LVL58:
 752 03e0 97000000 		call	_ZN8KConsole18putCharacterOutputEc
 752      E7800000 
 753              	.LVL59:
 133:src/KConsole.cpp ****     Elem* curr = headOutput;
 754              		.loc 1 133 5 is_stmt 1
 755              		.loc 1 133 11 is_stmt 0
 756 03e8 97070000 		ld	a5,.LANCHOR0+40
 756      83B70700 
 757              	.LVL60:
 758              	.L44:
 134:src/KConsole.cpp ****     while(curr != 0)
 759              		.loc 1 134 5 is_stmt 1
 760              		.loc 1 134 16
 761 03f0 63860700 		beqz	a5,.L42
 135:src/KConsole.cpp ****     {
 136:src/KConsole.cpp ****         curr = curr->next;
 762              		.loc 1 136 9
 763              		.loc 1 136 14 is_stmt 0
 764 03f4 83B70700 		ld	a5,0(a5)
 765              	.LVL61:
 134:src/KConsole.cpp ****     while(curr != 0)
 766              		.loc 1 134 5
 767 03f8 6FF09FFF 		j	.L44
 768              	.L42:
 137:src/KConsole.cpp ****     }
 138:src/KConsole.cpp **** }
 769              		.loc 1 138 1
 770 03fc 83308100 		ld	ra,8(sp)
 771              		.cfi_restore 1
 772 0400 03340100 		ld	s0,0(sp)
GAS LISTING /tmp/cc6PDFXJ.s 			page 19


 773              		.cfi_restore 8
 774              		.cfi_def_cfa 2, 16
 775 0404 13010101 		addi	sp,sp,16
 776              		.cfi_def_cfa_offset 0
 777 0408 67800000 		jr	ra
 778              		.cfi_endproc
 779              	.LFE33:
 781              		.align	2
 782              		.globl	_ZN8KConsole11getcHandlerEv
 784              	_ZN8KConsole11getcHandlerEv:
 785              	.LFB34:
 139:src/KConsole.cpp **** 
 140:src/KConsole.cpp **** void KConsole::getcHandler()
 141:src/KConsole.cpp **** {
 786              		.loc 1 141 1 is_stmt 1
 787              		.cfi_startproc
 788 040c 130101FF 		addi	sp,sp,-16
 789              		.cfi_def_cfa_offset 16
 790 0410 23341100 		sd	ra,8(sp)
 791 0414 23308100 		sd	s0,0(sp)
 792              		.cfi_offset 1, -8
 793              		.cfi_offset 8, -16
 794 0418 13040101 		addi	s0,sp,16
 795              		.cfi_def_cfa 8, 0
 142:src/KConsole.cpp ****     char ch;
 796              		.loc 1 142 5
 143:src/KConsole.cpp ****     ch = getCharacterInput();
 797              		.loc 1 143 5
 798              		.loc 1 143 27 is_stmt 0
 799 041c 97000000 		call	_ZN8KConsole17getCharacterInputEv
 799      E7800000 
 800              	.LVL62:
 144:src/KConsole.cpp ****     __asm__ volatile("mv a0, %0" : :"r"((uint64)ch));
 801              		.loc 1 144 5 is_stmt 1
 802              		.loc 1 144 53 is_stmt 0
 803              	#APP
 804              	# 144 "src/KConsole.cpp" 1
 145              	    Riscv::w_a0_sscratch();
 805              		mv a0, a0
 806              	# 0 "" 2
 807              		.loc 1 145 5 is_stmt 1
 808              		.loc 1 145 25 is_stmt 0
 809              	#NO_APP
 810 0428 97000000 		call	_ZN5Riscv13w_a0_sscratchEv@plt
 810      E7800000 
 811              	.LVL63:
 146:src/KConsole.cpp **** }
 812              		.loc 1 146 1
 813 0430 83308100 		ld	ra,8(sp)
 814              		.cfi_restore 1
 815 0434 03340100 		ld	s0,0(sp)
 816              		.cfi_restore 8
 817              		.cfi_def_cfa 2, 16
 818 0438 13010101 		addi	sp,sp,16
 819              		.cfi_def_cfa_offset 0
 820 043c 67800000 		jr	ra
 821              		.cfi_endproc
GAS LISTING /tmp/cc6PDFXJ.s 			page 20


 822              	.LFE34:
 824              		.align	2
 825              		.globl	_ZN8KConsole11printBufferEv
 827              	_ZN8KConsole11printBufferEv:
 828              	.LFB35:
 147:src/KConsole.cpp **** 
 148:src/KConsole.cpp **** void KConsole::printBuffer()
 149:src/KConsole.cpp **** {
 829              		.loc 1 149 1 is_stmt 1
 830              		.cfi_startproc
 831 0440 130101FE 		addi	sp,sp,-32
 832              		.cfi_def_cfa_offset 32
 833 0444 233C1100 		sd	ra,24(sp)
 834 0448 23388100 		sd	s0,16(sp)
 835 044c 23349100 		sd	s1,8(sp)
 836              		.cfi_offset 1, -8
 837              		.cfi_offset 8, -16
 838              		.cfi_offset 9, -24
 839 0450 13040102 		addi	s0,sp,32
 840              		.cfi_def_cfa 8, 0
 150:src/KConsole.cpp ****     Elem* curr = headInput;
 841              		.loc 1 150 5
 842              		.loc 1 150 11 is_stmt 0
 843 0454 97040000 		ld	s1,.LANCHOR0+24
 843      83B40400 
 844              	.LVL64:
 845              	.L50:
 151:src/KConsole.cpp ****     while(curr != 0)
 846              		.loc 1 151 5 is_stmt 1
 847              		.loc 1 151 16
 848 045c 638C0400 		beqz	s1,.L48
 152:src/KConsole.cpp ****     {
 153:src/KConsole.cpp ****         putc(curr->data);
 849              		.loc 1 153 9
 850              		.loc 1 153 13 is_stmt 0
 851 0460 03C58400 		lbu	a0,8(s1)
 852 0464 97000000 		call	putc@plt
 852      E7800000 
 853              	.LVL65:
 154:src/KConsole.cpp ****         curr = curr->next;
 854              		.loc 1 154 9 is_stmt 1
 855              		.loc 1 154 14 is_stmt 0
 856 046c 83B40400 		ld	s1,0(s1)
 857              	.LVL66:
 151:src/KConsole.cpp ****     while(curr != 0)
 858              		.loc 1 151 5
 859 0470 6FF0DFFE 		j	.L50
 860              	.L48:
 155:src/KConsole.cpp ****     }
 156:src/KConsole.cpp **** }
 861              		.loc 1 156 1
 862 0474 83308101 		ld	ra,24(sp)
 863              		.cfi_restore 1
 864 0478 03340101 		ld	s0,16(sp)
 865              		.cfi_restore 8
 866              		.cfi_def_cfa 2, 32
 867 047c 83348100 		ld	s1,8(sp)
GAS LISTING /tmp/cc6PDFXJ.s 			page 21


 868              		.cfi_restore 9
 869              	.LVL67:
 870 0480 13010102 		addi	sp,sp,32
 871              		.cfi_def_cfa_offset 0
 872 0484 67800000 		jr	ra
 873              		.cfi_endproc
 874              	.LFE35:
 876              		.globl	_ZN8KConsole13cntWInterruptE
 877              		.globl	_ZN8KConsole18hasCharactersInputE
 878              		.globl	_ZN8KConsole19hasCharactersOutputE
 879              		.globl	_ZN8KConsole10tailOutputE
 880              		.globl	_ZN8KConsole10headOutputE
 881              		.globl	_ZN8KConsole9tailInputE
 882              		.globl	_ZN8KConsole9headInputE
 883              		.bss
 884              		.align	3
 885              		.set	.LANCHOR0,. + 0
 888              	_ZN8KConsole18hasCharactersInputE:
 889 0000 00000000 		.zero	8
 889      00000000 
 892              	_ZN8KConsole19hasCharactersOutputE:
 893 0008 00000000 		.zero	8
 893      00000000 
 896              	_ZN8KConsole9tailInputE:
 897 0010 00000000 		.zero	8
 897      00000000 
 900              	_ZN8KConsole9headInputE:
 901 0018 00000000 		.zero	8
 901      00000000 
 904              	_ZN8KConsole10tailOutputE:
 905 0020 00000000 		.zero	8
 905      00000000 
 908              	_ZN8KConsole10headOutputE:
 909 0028 00000000 		.zero	8
 909      00000000 
 912              	_ZN8KConsole13cntWInterruptE:
 913 0030 00000000 		.zero	4
 914              		.text
 915              	.Letext0:
 916              		.file 2 "src/../h/../lib/hw.h"
 917              		.file 3 "src/../h/PCB.hpp"
 918              		.file 4 "src/../h/Riscv.hpp"
 919              		.file 5 "src/../h/KSemaphore.hpp"
 920              		.file 6 "src/../h/KConsole.hpp"
 921              		.file 7 "src/../h/syscall_c.h"
 922              		.file 8 "src/../h/MemoryAllocator.hpp"
 4810              		.align	3
 4813              	DW.ref.__gxx_personality_v0:
 4814 0000 00000000 		.dword	__gxx_personality_v0
 4814      00000000 
 4815              		.ident	"GCC: (Ubuntu 9.3.0-17ubuntu1~20.04) 9.3.0"
 4816              		.section	.note.GNU-stack,"",@progbits
GAS LISTING /tmp/cc6PDFXJ.s 			page 22


DEFINED SYMBOLS
                            *ABS*:0000000000000000 KConsole.cpp
     /tmp/cc6PDFXJ.s:9      .text:0000000000000000 _ZN8KConsole7putCharEcRPNS_4ElemES2_
     /tmp/cc6PDFXJ.s:13     .text:0000000000000000 .L0 
     /tmp/cc6PDFXJ.s:15     .text:0000000000000000 .L0 
     /tmp/cc6PDFXJ.s:16     .text:0000000000000004 .L0 
     /tmp/cc6PDFXJ.s:22     .text:0000000000000018 .L0 
     /tmp/cc6PDFXJ.s:23     .text:0000000000000018 .L0 
     /tmp/cc6PDFXJ.s:24     .text:0000000000000018 .L0 
     /tmp/cc6PDFXJ.s:25     .text:0000000000000018 .L0 
     /tmp/cc6PDFXJ.s:26     .text:0000000000000018 .L0 
     /tmp/cc6PDFXJ.s:28     .text:000000000000001c .L0 
     /tmp/cc6PDFXJ.s:33     .text:0000000000000028 .L0 
     /tmp/cc6PDFXJ.s:34     .text:0000000000000028 .L0 
     /tmp/cc6PDFXJ.s:39     .text:0000000000000034 .L0 
     /tmp/cc6PDFXJ.s:40     .text:0000000000000034 .L0 
     /tmp/cc6PDFXJ.s:42     .text:0000000000000038 .L0 
     /tmp/cc6PDFXJ.s:43     .text:0000000000000038 .L0 
     /tmp/cc6PDFXJ.s:45     .text:000000000000003c .L0 
     /tmp/cc6PDFXJ.s:46     .text:000000000000003c .L0 
     /tmp/cc6PDFXJ.s:48     .text:0000000000000040 .L0 
     /tmp/cc6PDFXJ.s:50     .text:0000000000000044 .L0 
     /tmp/cc6PDFXJ.s:52     .text:0000000000000048 .L0 
     /tmp/cc6PDFXJ.s:54     .text:000000000000004c .L0 
     /tmp/cc6PDFXJ.s:55     .text:000000000000004c .L0 
     /tmp/cc6PDFXJ.s:58     .text:0000000000000050 .L0 
     /tmp/cc6PDFXJ.s:59     .text:0000000000000054 .L0 
     /tmp/cc6PDFXJ.s:60     .text:0000000000000054 .L0 
     /tmp/cc6PDFXJ.s:62     .text:0000000000000058 .L0 
     /tmp/cc6PDFXJ.s:63     .text:0000000000000058 .L0 
     /tmp/cc6PDFXJ.s:65     .text:000000000000005c .L0 
     /tmp/cc6PDFXJ.s:68     .text:0000000000000060 .L0 
     /tmp/cc6PDFXJ.s:71     .text:0000000000000064 .L0 
     /tmp/cc6PDFXJ.s:73     .text:0000000000000068 .L0 
     /tmp/cc6PDFXJ.s:77     .text:000000000000006c .L0 
     /tmp/cc6PDFXJ.s:79     .text:000000000000006c .L0 
     /tmp/cc6PDFXJ.s:80     .text:000000000000006c .L0 
     /tmp/cc6PDFXJ.s:82     .text:0000000000000070 .L0 
     /tmp/cc6PDFXJ.s:84     .text:0000000000000078 .L0 
     /tmp/cc6PDFXJ.s:90     .text:0000000000000078 _ZN8KConsole7getCharERPNS_4ElemES2_
     /tmp/cc6PDFXJ.s:93     .text:0000000000000078 .L0 
     /tmp/cc6PDFXJ.s:95     .text:0000000000000078 .L0 
     /tmp/cc6PDFXJ.s:96     .text:000000000000007c .L0 
     /tmp/cc6PDFXJ.s:100    .text:0000000000000088 .L0 
     /tmp/cc6PDFXJ.s:101    .text:0000000000000088 .L0 
     /tmp/cc6PDFXJ.s:102    .text:0000000000000088 .L0 
     /tmp/cc6PDFXJ.s:104    .text:000000000000008c .L0 
     /tmp/cc6PDFXJ.s:107    .text:0000000000000090 .L0 
     /tmp/cc6PDFXJ.s:108    .text:0000000000000090 .L0 
     /tmp/cc6PDFXJ.s:111    .text:0000000000000094 .L0 
     /tmp/cc6PDFXJ.s:114    .text:0000000000000098 .L0 
     /tmp/cc6PDFXJ.s:115    .text:0000000000000098 .L0 
     /tmp/cc6PDFXJ.s:116    .text:0000000000000098 .L0 
     /tmp/cc6PDFXJ.s:118    .text:000000000000009c .L0 
     /tmp/cc6PDFXJ.s:120    .text:00000000000000a0 .L0 
     /tmp/cc6PDFXJ.s:123    .text:00000000000000a4 .L0 
     /tmp/cc6PDFXJ.s:124    .text:00000000000000a4 .L0 
GAS LISTING /tmp/cc6PDFXJ.s 			page 23


     /tmp/cc6PDFXJ.s:127    .text:00000000000000a8 .L0 
     /tmp/cc6PDFXJ.s:128    .text:00000000000000a8 .L0 
     /tmp/cc6PDFXJ.s:132    .text:00000000000000b0 .L0 
     /tmp/cc6PDFXJ.s:133    .text:00000000000000b0 .L0 
     /tmp/cc6PDFXJ.s:135    .text:00000000000000b8 .L0 
     /tmp/cc6PDFXJ.s:136    .text:00000000000000b8 .L0 
     /tmp/cc6PDFXJ.s:138    .text:00000000000000bc .L0 
     /tmp/cc6PDFXJ.s:139    .text:00000000000000bc .L0 
     /tmp/cc6PDFXJ.s:141    .text:00000000000000c0 .L0 
     /tmp/cc6PDFXJ.s:143    .text:00000000000000c4 .L0 
     /tmp/cc6PDFXJ.s:147    .text:00000000000000c8 .L0 
     /tmp/cc6PDFXJ.s:149    .text:00000000000000c8 .L0 
     /tmp/cc6PDFXJ.s:150    .text:00000000000000c8 .L0 
     /tmp/cc6PDFXJ.s:155    .text:00000000000000d0 .L0 
     /tmp/cc6PDFXJ.s:157    .text:00000000000000d8 .L0 
     /tmp/cc6PDFXJ.s:163    .text:00000000000000d8 _ZN8KConsole10initializeEv
     /tmp/cc6PDFXJ.s:166    .text:00000000000000d8 .L0 
     /tmp/cc6PDFXJ.s:4813   .data.rel.local.DW.ref.__gxx_personality_v0:0000000000000000 DW.ref.__gxx_personality_v0
     /tmp/cc6PDFXJ.s:169    .text:00000000000000d8 .L0 
     /tmp/cc6PDFXJ.s:170    .text:00000000000000dc .L0 
     /tmp/cc6PDFXJ.s:175    .text:00000000000000ec .L0 
     /tmp/cc6PDFXJ.s:176    .text:00000000000000ec .L0 
     /tmp/cc6PDFXJ.s:177    .text:00000000000000ec .L0 
     /tmp/cc6PDFXJ.s:178    .text:00000000000000ec .L0 
     /tmp/cc6PDFXJ.s:180    .text:00000000000000f0 .L0 
     /tmp/cc6PDFXJ.s:182    .text:00000000000000f0 .L0 
     /tmp/cc6PDFXJ.s:183    .text:00000000000000f0 .L0 
     /tmp/cc6PDFXJ.s:195    .text:000000000000010c .L0 
     /tmp/cc6PDFXJ.s:197    .text:0000000000000114 .L0 
     /tmp/cc6PDFXJ.s:198    .text:0000000000000114 .L0 
     /tmp/cc6PDFXJ.s:210    .text:0000000000000130 .L0 
     /tmp/cc6PDFXJ.s:212    .text:0000000000000138 .L0 
     /tmp/cc6PDFXJ.s:213    .text:000000000000013c .L0 
     /tmp/cc6PDFXJ.s:214    .text:000000000000013c .L0 
     /tmp/cc6PDFXJ.s:216    .text:0000000000000140 .L0 
     /tmp/cc6PDFXJ.s:217    .text:0000000000000140 .L0 
     /tmp/cc6PDFXJ.s:219    .text:0000000000000144 .L0 
     /tmp/cc6PDFXJ.s:221    .text:0000000000000148 .L0 
     /tmp/cc6PDFXJ.s:223    .text:000000000000014c .L0 
     /tmp/cc6PDFXJ.s:226    .text:0000000000000150 .L0 
     /tmp/cc6PDFXJ.s:229    .text:0000000000000154 .L0 
     /tmp/cc6PDFXJ.s:240    .text:0000000000000170 .L0 
     /tmp/cc6PDFXJ.s:248    .text:0000000000000188 .L0 
     /tmp/cc6PDFXJ.s:286    .text:0000000000000188 _ZN8KConsole17putCharacterInputEc
     /tmp/cc6PDFXJ.s:289    .text:0000000000000188 .L0 
     /tmp/cc6PDFXJ.s:291    .text:0000000000000188 .L0 
     /tmp/cc6PDFXJ.s:292    .text:000000000000018c .L0 
     /tmp/cc6PDFXJ.s:295    .text:0000000000000194 .L0 
     /tmp/cc6PDFXJ.s:296    .text:0000000000000194 .L0 
     /tmp/cc6PDFXJ.s:298    .text:0000000000000198 .L0 
     /tmp/cc6PDFXJ.s:300    .text:0000000000000198 .L0 
     /tmp/cc6PDFXJ.s:301    .text:0000000000000198 .L0 
     /tmp/cc6PDFXJ.s:306    .text:00000000000001b0 .L0 
     /tmp/cc6PDFXJ.s:307    .text:00000000000001b0 .L0 
     /tmp/cc6PDFXJ.s:311    .text:00000000000001c0 .L0 
     /tmp/cc6PDFXJ.s:312    .text:00000000000001c4 .L0 
     /tmp/cc6PDFXJ.s:314    .text:00000000000001c8 .L0 
GAS LISTING /tmp/cc6PDFXJ.s 			page 24


     /tmp/cc6PDFXJ.s:315    .text:00000000000001c8 .L0 
     /tmp/cc6PDFXJ.s:317    .text:00000000000001cc .L0 
     /tmp/cc6PDFXJ.s:319    .text:00000000000001d0 .L0 
     /tmp/cc6PDFXJ.s:325    .text:00000000000001d0 _ZN8KConsole17getCharacterInputEv
     /tmp/cc6PDFXJ.s:328    .text:00000000000001d0 .L0 
     /tmp/cc6PDFXJ.s:329    .text:00000000000001d0 .L0 
     /tmp/cc6PDFXJ.s:330    .text:00000000000001d4 .L0 
     /tmp/cc6PDFXJ.s:333    .text:00000000000001dc .L0 
     /tmp/cc6PDFXJ.s:334    .text:00000000000001dc .L0 
     /tmp/cc6PDFXJ.s:336    .text:00000000000001e0 .L0 
     /tmp/cc6PDFXJ.s:338    .text:00000000000001e0 .L0 
     /tmp/cc6PDFXJ.s:339    .text:00000000000001e0 .L0 
     /tmp/cc6PDFXJ.s:343    .text:00000000000001f0 .L0 
     /tmp/cc6PDFXJ.s:344    .text:00000000000001f0 .L0 
     /tmp/cc6PDFXJ.s:349    .text:0000000000000208 .L0 
     /tmp/cc6PDFXJ.s:350    .text:000000000000020c .L0 
     /tmp/cc6PDFXJ.s:352    .text:0000000000000210 .L0 
     /tmp/cc6PDFXJ.s:353    .text:0000000000000210 .L0 
     /tmp/cc6PDFXJ.s:355    .text:0000000000000214 .L0 
     /tmp/cc6PDFXJ.s:357    .text:0000000000000218 .L0 
     /tmp/cc6PDFXJ.s:363    .text:0000000000000218 _ZN8KConsole18putCharacterOutputEc
     /tmp/cc6PDFXJ.s:366    .text:0000000000000218 .L0 
     /tmp/cc6PDFXJ.s:368    .text:0000000000000218 .L0 
     /tmp/cc6PDFXJ.s:369    .text:000000000000021c .L0 
     /tmp/cc6PDFXJ.s:372    .text:0000000000000224 .L0 
     /tmp/cc6PDFXJ.s:373    .text:0000000000000224 .L0 
     /tmp/cc6PDFXJ.s:375    .text:0000000000000228 .L0 
     /tmp/cc6PDFXJ.s:377    .text:0000000000000228 .L0 
     /tmp/cc6PDFXJ.s:378    .text:0000000000000228 .L0 
     /tmp/cc6PDFXJ.s:383    .text:0000000000000240 .L0 
     /tmp/cc6PDFXJ.s:384    .text:0000000000000240 .L0 
     /tmp/cc6PDFXJ.s:388    .text:0000000000000250 .L0 
     /tmp/cc6PDFXJ.s:389    .text:0000000000000254 .L0 
     /tmp/cc6PDFXJ.s:391    .text:0000000000000258 .L0 
     /tmp/cc6PDFXJ.s:392    .text:0000000000000258 .L0 
     /tmp/cc6PDFXJ.s:394    .text:000000000000025c .L0 
     /tmp/cc6PDFXJ.s:396    .text:0000000000000260 .L0 
     /tmp/cc6PDFXJ.s:402    .text:0000000000000260 _ZN8KConsole24getCharactersFromConsoleEPv
     /tmp/cc6PDFXJ.s:405    .text:0000000000000260 .L0 
     /tmp/cc6PDFXJ.s:407    .text:0000000000000260 .L0 
     /tmp/cc6PDFXJ.s:409    .text:0000000000000260 .L0 
     /tmp/cc6PDFXJ.s:410    .text:0000000000000260 .L0 
     /tmp/cc6PDFXJ.s:411    .text:0000000000000260 .L0 
     /tmp/cc6PDFXJ.s:415    .text:000000000000026c .L0 
    src/KConsole.cpp:63     .text:000000000000026c .L0 
     /tmp/cc6PDFXJ.s:421    .text:0000000000000270 .L0 
    src/KConsole.cpp:64     .text:0000000000000270 .L0 
     /tmp/cc6PDFXJ.s:426    .text:0000000000000274 .L0 
     /tmp/cc6PDFXJ.s:427    .text:0000000000000274 .L0 
    src/KConsole.cpp:66     .text:0000000000000274 .L0 
     /tmp/cc6PDFXJ.s:435    .text:0000000000000278 .L0 
     /tmp/cc6PDFXJ.s:436    .text:0000000000000278 .L0 
     /tmp/cc6PDFXJ.s:439    .text:000000000000027c .L0 
     /tmp/cc6PDFXJ.s:443    .text:0000000000000280 .L0 
     /tmp/cc6PDFXJ.s:444    .text:0000000000000284 .L0 
     /tmp/cc6PDFXJ.s:448    .text:0000000000000290 .L0 
     /tmp/cc6PDFXJ.s:449    .text:0000000000000290 .L0 
GAS LISTING /tmp/cc6PDFXJ.s 			page 25


     /tmp/cc6PDFXJ.s:450    .text:0000000000000290 .L0 
     /tmp/cc6PDFXJ.s:452    .text:0000000000000294 .L0 
     /tmp/cc6PDFXJ.s:459    .text:0000000000000294 .L0 
     /tmp/cc6PDFXJ.s:460    .text:0000000000000294 .L0 
     /tmp/cc6PDFXJ.s:464    .text:00000000000002a0 .L0 
    src/KConsole.cpp:70     .text:00000000000002a0 .L0 
     /tmp/cc6PDFXJ.s:470    .text:00000000000002a4 .L0 
    src/KConsole.cpp:71     .text:00000000000002a4 .L0 
     /tmp/cc6PDFXJ.s:475    .text:00000000000002a8 .L0 
     /tmp/cc6PDFXJ.s:476    .text:00000000000002a8 .L0 
    src/KConsole.cpp:73     .text:00000000000002a8 .L0 
     /tmp/cc6PDFXJ.s:484    .text:00000000000002b0 .L0 
     /tmp/cc6PDFXJ.s:485    .text:00000000000002b0 .L0 
     /tmp/cc6PDFXJ.s:489    .text:00000000000002bc .L0 
     /tmp/cc6PDFXJ.s:490    .text:00000000000002bc .L0 
     /tmp/cc6PDFXJ.s:497    .text:00000000000002c8 .L0 
     /tmp/cc6PDFXJ.s:499    .text:00000000000002c8 .L0 
     /tmp/cc6PDFXJ.s:500    .text:00000000000002c8 .L0 
     /tmp/cc6PDFXJ.s:501    .text:00000000000002c8 .L0 
     /tmp/cc6PDFXJ.s:505    .text:00000000000002d4 .L0 
    src/KConsole.cpp:63     .text:00000000000002d4 .L0 
     /tmp/cc6PDFXJ.s:511    .text:00000000000002d8 .L0 
    src/KConsole.cpp:64     .text:00000000000002d8 .L0 
     /tmp/cc6PDFXJ.s:516    .text:00000000000002dc .L0 
     /tmp/cc6PDFXJ.s:517    .text:00000000000002dc .L0 
    src/KConsole.cpp:66     .text:00000000000002dc .L0 
     /tmp/cc6PDFXJ.s:525    .text:00000000000002e0 .L0 
     /tmp/cc6PDFXJ.s:526    .text:00000000000002e0 .L0 
     /tmp/cc6PDFXJ.s:529    .text:00000000000002e4 .L0 
     /tmp/cc6PDFXJ.s:533    .text:00000000000002e8 .L0 
     /tmp/cc6PDFXJ.s:534    .text:00000000000002ec .L0 
     /tmp/cc6PDFXJ.s:536    .text:00000000000002f0 .L0 
     /tmp/cc6PDFXJ.s:537    .text:00000000000002f0 .L0 
     /tmp/cc6PDFXJ.s:539    .text:00000000000002f4 .L0 
     /tmp/cc6PDFXJ.s:542    .text:00000000000002f8 .L0 
     /tmp/cc6PDFXJ.s:547    .text:0000000000000300 .L0 
     /tmp/cc6PDFXJ.s:553    .text:0000000000000300 _ZN8KConsole18getCharacterOutputEv
     /tmp/cc6PDFXJ.s:556    .text:0000000000000300 .L0 
     /tmp/cc6PDFXJ.s:557    .text:0000000000000300 .L0 
     /tmp/cc6PDFXJ.s:558    .text:0000000000000304 .L0 
     /tmp/cc6PDFXJ.s:561    .text:000000000000030c .L0 
     /tmp/cc6PDFXJ.s:562    .text:000000000000030c .L0 
     /tmp/cc6PDFXJ.s:564    .text:0000000000000310 .L0 
     /tmp/cc6PDFXJ.s:566    .text:0000000000000310 .L0 
     /tmp/cc6PDFXJ.s:567    .text:0000000000000310 .L0 
     /tmp/cc6PDFXJ.s:571    .text:0000000000000320 .L0 
     /tmp/cc6PDFXJ.s:572    .text:0000000000000320 .L0 
     /tmp/cc6PDFXJ.s:577    .text:0000000000000338 .L0 
     /tmp/cc6PDFXJ.s:578    .text:000000000000033c .L0 
     /tmp/cc6PDFXJ.s:580    .text:0000000000000340 .L0 
     /tmp/cc6PDFXJ.s:581    .text:0000000000000340 .L0 
     /tmp/cc6PDFXJ.s:583    .text:0000000000000344 .L0 
     /tmp/cc6PDFXJ.s:585    .text:0000000000000348 .L0 
     /tmp/cc6PDFXJ.s:591    .text:0000000000000348 _ZN8KConsole23sendCharactersToConsoleEPv
     /tmp/cc6PDFXJ.s:594    .text:0000000000000348 .L0 
     /tmp/cc6PDFXJ.s:597    .text:0000000000000348 .L0 
     /tmp/cc6PDFXJ.s:599    .text:0000000000000348 .L0 
GAS LISTING /tmp/cc6PDFXJ.s 			page 26


     /tmp/cc6PDFXJ.s:600    .text:0000000000000348 .L0 
     /tmp/cc6PDFXJ.s:601    .text:0000000000000348 .L0 
     /tmp/cc6PDFXJ.s:605    .text:0000000000000354 .L0 
    src/KConsole.cpp:89     .text:0000000000000354 .L0 
     /tmp/cc6PDFXJ.s:611    .text:0000000000000358 .L0 
    src/KConsole.cpp:90     .text:0000000000000358 .L0 
     /tmp/cc6PDFXJ.s:616    .text:000000000000035c .L0 
     /tmp/cc6PDFXJ.s:617    .text:000000000000035c .L0 
    src/KConsole.cpp:92     .text:000000000000035c .L0 
     /tmp/cc6PDFXJ.s:625    .text:0000000000000360 .L0 
     /tmp/cc6PDFXJ.s:626    .text:0000000000000360 .L0 
     /tmp/cc6PDFXJ.s:629    .text:0000000000000364 .L0 
     /tmp/cc6PDFXJ.s:633    .text:0000000000000368 .L0 
     /tmp/cc6PDFXJ.s:634    .text:000000000000036c .L0 
     /tmp/cc6PDFXJ.s:637    .text:0000000000000374 .L0 
     /tmp/cc6PDFXJ.s:638    .text:0000000000000374 .L0 
     /tmp/cc6PDFXJ.s:640    .text:0000000000000378 .L0 
     /tmp/cc6PDFXJ.s:647    .text:0000000000000378 .L0 
     /tmp/cc6PDFXJ.s:648    .text:0000000000000378 .L0 
     /tmp/cc6PDFXJ.s:651    .text:0000000000000380 .L0 
     /tmp/cc6PDFXJ.s:653    .text:0000000000000384 .L0 
     /tmp/cc6PDFXJ.s:654    .text:0000000000000384 .L0 
     /tmp/cc6PDFXJ.s:658    .text:0000000000000390 .L0 
    src/KConsole.cpp:97     .text:0000000000000390 .L0 
     /tmp/cc6PDFXJ.s:664    .text:0000000000000394 .L0 
     /tmp/cc6PDFXJ.s:666    .text:0000000000000394 .L0 
    src/KConsole.cpp:98     .text:000000000000039c .L0 
     /tmp/cc6PDFXJ.s:675    .text:00000000000003a0 .L0 
    src/KConsole.cpp:99     .text:00000000000003a0 .L0 
     /tmp/cc6PDFXJ.s:687    .text:00000000000003a4 .L0 
     /tmp/cc6PDFXJ.s:688    .text:00000000000003a4 .L0 
     /tmp/cc6PDFXJ.s:689    .text:00000000000003a4 .L0 
     /tmp/cc6PDFXJ.s:693    .text:00000000000003b0 .L0 
    src/KConsole.cpp:89     .text:00000000000003b0 .L0 
     /tmp/cc6PDFXJ.s:699    .text:00000000000003b4 .L0 
    src/KConsole.cpp:90     .text:00000000000003b4 .L0 
     /tmp/cc6PDFXJ.s:704    .text:00000000000003b8 .L0 
     /tmp/cc6PDFXJ.s:705    .text:00000000000003b8 .L0 
    src/KConsole.cpp:92     .text:00000000000003b8 .L0 
     /tmp/cc6PDFXJ.s:713    .text:00000000000003bc .L0 
     /tmp/cc6PDFXJ.s:714    .text:00000000000003bc .L0 
     /tmp/cc6PDFXJ.s:717    .text:00000000000003c0 .L0 
     /tmp/cc6PDFXJ.s:721    .text:00000000000003c8 .L0 
     /tmp/cc6PDFXJ.s:727    .text:00000000000003c8 _ZN8KConsole11putcHandlerEv
     /tmp/cc6PDFXJ.s:730    .text:00000000000003c8 .L0 
     /tmp/cc6PDFXJ.s:731    .text:00000000000003c8 .L0 
     /tmp/cc6PDFXJ.s:732    .text:00000000000003cc .L0 
     /tmp/cc6PDFXJ.s:735    .text:00000000000003d4 .L0 
     /tmp/cc6PDFXJ.s:736    .text:00000000000003d4 .L0 
     /tmp/cc6PDFXJ.s:738    .text:00000000000003d8 .L0 
     /tmp/cc6PDFXJ.s:740    .text:00000000000003d8 .L0 
     /tmp/cc6PDFXJ.s:741    .text:00000000000003d8 .L0 
    src/KConsole.cpp:131    .text:00000000000003d8 .L0 
     /tmp/cc6PDFXJ.s:748    .text:00000000000003dc .L0 
     /tmp/cc6PDFXJ.s:750    .text:00000000000003dc .L0 
     /tmp/cc6PDFXJ.s:755    .text:00000000000003e8 .L0 
     /tmp/cc6PDFXJ.s:756    .text:00000000000003e8 .L0 
GAS LISTING /tmp/cc6PDFXJ.s 			page 27


     /tmp/cc6PDFXJ.s:760    .text:00000000000003f0 .L0 
     /tmp/cc6PDFXJ.s:761    .text:00000000000003f0 .L0 
     /tmp/cc6PDFXJ.s:763    .text:00000000000003f4 .L0 
     /tmp/cc6PDFXJ.s:764    .text:00000000000003f4 .L0 
     /tmp/cc6PDFXJ.s:767    .text:00000000000003f8 .L0 
     /tmp/cc6PDFXJ.s:770    .text:00000000000003fc .L0 
     /tmp/cc6PDFXJ.s:771    .text:0000000000000400 .L0 
     /tmp/cc6PDFXJ.s:773    .text:0000000000000404 .L0 
     /tmp/cc6PDFXJ.s:774    .text:0000000000000404 .L0 
     /tmp/cc6PDFXJ.s:776    .text:0000000000000408 .L0 
     /tmp/cc6PDFXJ.s:778    .text:000000000000040c .L0 
     /tmp/cc6PDFXJ.s:784    .text:000000000000040c _ZN8KConsole11getcHandlerEv
     /tmp/cc6PDFXJ.s:787    .text:000000000000040c .L0 
     /tmp/cc6PDFXJ.s:788    .text:000000000000040c .L0 
     /tmp/cc6PDFXJ.s:789    .text:0000000000000410 .L0 
     /tmp/cc6PDFXJ.s:792    .text:0000000000000418 .L0 
     /tmp/cc6PDFXJ.s:793    .text:0000000000000418 .L0 
     /tmp/cc6PDFXJ.s:795    .text:000000000000041c .L0 
     /tmp/cc6PDFXJ.s:797    .text:000000000000041c .L0 
     /tmp/cc6PDFXJ.s:798    .text:000000000000041c .L0 
     /tmp/cc6PDFXJ.s:799    .text:000000000000041c .L0 
     /tmp/cc6PDFXJ.s:802    .text:0000000000000424 .L0 
    src/KConsole.cpp:144    .text:0000000000000424 .L0 
     /tmp/cc6PDFXJ.s:808    .text:0000000000000428 .L0 
     /tmp/cc6PDFXJ.s:810    .text:0000000000000428 .L0 
     /tmp/cc6PDFXJ.s:813    .text:0000000000000430 .L0 
     /tmp/cc6PDFXJ.s:814    .text:0000000000000434 .L0 
     /tmp/cc6PDFXJ.s:816    .text:0000000000000438 .L0 
     /tmp/cc6PDFXJ.s:817    .text:0000000000000438 .L0 
     /tmp/cc6PDFXJ.s:819    .text:000000000000043c .L0 
     /tmp/cc6PDFXJ.s:821    .text:0000000000000440 .L0 
     /tmp/cc6PDFXJ.s:827    .text:0000000000000440 _ZN8KConsole11printBufferEv
     /tmp/cc6PDFXJ.s:830    .text:0000000000000440 .L0 
     /tmp/cc6PDFXJ.s:831    .text:0000000000000440 .L0 
     /tmp/cc6PDFXJ.s:832    .text:0000000000000444 .L0 
     /tmp/cc6PDFXJ.s:836    .text:0000000000000450 .L0 
     /tmp/cc6PDFXJ.s:837    .text:0000000000000450 .L0 
     /tmp/cc6PDFXJ.s:838    .text:0000000000000450 .L0 
     /tmp/cc6PDFXJ.s:840    .text:0000000000000454 .L0 
     /tmp/cc6PDFXJ.s:842    .text:0000000000000454 .L0 
     /tmp/cc6PDFXJ.s:843    .text:0000000000000454 .L0 
     /tmp/cc6PDFXJ.s:847    .text:000000000000045c .L0 
     /tmp/cc6PDFXJ.s:848    .text:000000000000045c .L0 
     /tmp/cc6PDFXJ.s:850    .text:0000000000000460 .L0 
     /tmp/cc6PDFXJ.s:851    .text:0000000000000460 .L0 
     /tmp/cc6PDFXJ.s:855    .text:000000000000046c .L0 
     /tmp/cc6PDFXJ.s:856    .text:000000000000046c .L0 
     /tmp/cc6PDFXJ.s:859    .text:0000000000000470 .L0 
     /tmp/cc6PDFXJ.s:862    .text:0000000000000474 .L0 
     /tmp/cc6PDFXJ.s:863    .text:0000000000000478 .L0 
     /tmp/cc6PDFXJ.s:865    .text:000000000000047c .L0 
     /tmp/cc6PDFXJ.s:866    .text:000000000000047c .L0 
     /tmp/cc6PDFXJ.s:868    .text:0000000000000480 .L0 
     /tmp/cc6PDFXJ.s:871    .text:0000000000000484 .L0 
     /tmp/cc6PDFXJ.s:873    .text:0000000000000488 .L0 
     /tmp/cc6PDFXJ.s:912    .bss:0000000000000030 _ZN8KConsole13cntWInterruptE
     /tmp/cc6PDFXJ.s:888    .bss:0000000000000000 _ZN8KConsole18hasCharactersInputE
GAS LISTING /tmp/cc6PDFXJ.s 			page 28


     /tmp/cc6PDFXJ.s:892    .bss:0000000000000008 _ZN8KConsole19hasCharactersOutputE
     /tmp/cc6PDFXJ.s:904    .bss:0000000000000020 _ZN8KConsole10tailOutputE
     /tmp/cc6PDFXJ.s:908    .bss:0000000000000028 _ZN8KConsole10headOutputE
     /tmp/cc6PDFXJ.s:896    .bss:0000000000000010 _ZN8KConsole9tailInputE
     /tmp/cc6PDFXJ.s:900    .bss:0000000000000018 _ZN8KConsole9headInputE
     /tmp/cc6PDFXJ.s:885    .bss:0000000000000000 .LANCHOR0
     /tmp/cc6PDFXJ.s:923    .text:0000000000000488 .L0 
     /tmp/cc6PDFXJ.s:195    .text:000000000000010c .L0 
     /tmp/cc6PDFXJ.s:210    .text:0000000000000130 .L0 
     /tmp/cc6PDFXJ.s:301    .text:0000000000000198 .L0 
     /tmp/cc6PDFXJ.s:302    .text:00000000000001a0 .L0 
     /tmp/cc6PDFXJ.s:307    .text:00000000000001b0 .L0 
     /tmp/cc6PDFXJ.s:339    .text:00000000000001e0 .L0 
     /tmp/cc6PDFXJ.s:344    .text:00000000000001f0 .L0 
     /tmp/cc6PDFXJ.s:345    .text:00000000000001f8 .L0 
     /tmp/cc6PDFXJ.s:378    .text:0000000000000228 .L0 
     /tmp/cc6PDFXJ.s:379    .text:0000000000000230 .L0 
     /tmp/cc6PDFXJ.s:384    .text:0000000000000240 .L0 
     /tmp/cc6PDFXJ.s:411    .text:0000000000000260 .L0 
     /tmp/cc6PDFXJ.s:460    .text:0000000000000294 .L0 
     /tmp/cc6PDFXJ.s:501    .text:00000000000002c8 .L0 
     /tmp/cc6PDFXJ.s:567    .text:0000000000000310 .L0 
     /tmp/cc6PDFXJ.s:572    .text:0000000000000320 .L0 
     /tmp/cc6PDFXJ.s:573    .text:0000000000000328 .L0 
     /tmp/cc6PDFXJ.s:601    .text:0000000000000348 .L0 
     /tmp/cc6PDFXJ.s:654    .text:0000000000000384 .L0 
     /tmp/cc6PDFXJ.s:689    .text:00000000000003a4 .L0 
     /tmp/cc6PDFXJ.s:756    .text:00000000000003e8 .L0 
     /tmp/cc6PDFXJ.s:843    .text:0000000000000454 .L0 
     /tmp/cc6PDFXJ.s:76     .text:000000000000006c .L5
     /tmp/cc6PDFXJ.s:56     .text:0000000000000050 .L1
     /tmp/cc6PDFXJ.s:153    .text:00000000000000d0 .L9
     /tmp/cc6PDFXJ.s:146    .text:00000000000000c8 .L11
     /tmp/cc6PDFXJ.s:121    .text:00000000000000a4 .L8
     /tmp/cc6PDFXJ.s:131    .text:00000000000000b0 .L7
     /tmp/cc6PDFXJ.s:545    .text:00000000000002fc .L33
     /tmp/cc6PDFXJ.s:454    .text:0000000000000294 .L29
     /tmp/cc6PDFXJ.s:596    .text:0000000000000348 .L41
     /tmp/cc6PDFXJ.s:681    .text:00000000000003a4 .L37
     /tmp/cc6PDFXJ.s:642    .text:0000000000000378 .L40
     /tmp/cc6PDFXJ.s:768    .text:00000000000003fc .L42
     /tmp/cc6PDFXJ.s:758    .text:00000000000003f0 .L44
     /tmp/cc6PDFXJ.s:860    .text:0000000000000474 .L48
     /tmp/cc6PDFXJ.s:845    .text:000000000000045c .L50
     /tmp/cc6PDFXJ.s:184    .text:00000000000000f4 .LEHB0
     /tmp/cc6PDFXJ.s:164    .text:00000000000000d8 .LFB26
     /tmp/cc6PDFXJ.s:187    .text:00000000000000fc .LEHE0
     /tmp/cc6PDFXJ.s:190    .text:0000000000000104 .LEHB1
     /tmp/cc6PDFXJ.s:193    .text:000000000000010c .LEHE1
     /tmp/cc6PDFXJ.s:225    .text:0000000000000150 .L15
     /tmp/cc6PDFXJ.s:199    .text:0000000000000118 .LEHB2
     /tmp/cc6PDFXJ.s:202    .text:0000000000000120 .LEHE2
     /tmp/cc6PDFXJ.s:205    .text:0000000000000128 .LEHB3
     /tmp/cc6PDFXJ.s:208    .text:0000000000000130 .LEHE3
     /tmp/cc6PDFXJ.s:237    .text:000000000000016c .L16
     /tmp/cc6PDFXJ.s:233    .text:0000000000000164 .LEHB4
     /tmp/cc6PDFXJ.s:236    .text:000000000000016c .LEHE4
GAS LISTING /tmp/cc6PDFXJ.s 			page 29


     /tmp/cc6PDFXJ.s:244    .text:0000000000000180 .LEHB5
     /tmp/cc6PDFXJ.s:247    .text:0000000000000188 .LEHE5
     /tmp/cc6PDFXJ.s:3021   .debug_abbrev:0000000000000000 .Ldebug_abbrev0
     /tmp/cc6PDFXJ.s:4325   .debug_str:00000000000001f7 .LASF260
     /tmp/cc6PDFXJ.s:4713   .debug_str:0000000000000f4b .LASF261
     /tmp/cc6PDFXJ.s:4711   .debug_str:0000000000000f28 .LASF262
     /tmp/cc6PDFXJ.s:5      .text:0000000000000000 .Ltext0
     /tmp/cc6PDFXJ.s:915    .text:0000000000000488 .Letext0
     /tmp/cc6PDFXJ.s:4265   .debug_line:0000000000000000 .Ldebug_line0
     /tmp/cc6PDFXJ.s:4449   .debug_str:0000000000000680 .LASF0
     /tmp/cc6PDFXJ.s:4491   .debug_str:0000000000000803 .LASF1
     /tmp/cc6PDFXJ.s:4619   .debug_str:0000000000000c53 .LASF2
     /tmp/cc6PDFXJ.s:4637   .debug_str:0000000000000ce5 .LASF4
     /tmp/cc6PDFXJ.s:4471   .debug_str:0000000000000746 .LASF3
     /tmp/cc6PDFXJ.s:4287   .debug_str:0000000000000087 .LASF5
     /tmp/cc6PDFXJ.s:4589   .debug_str:0000000000000b69 .LASF6
     /tmp/cc6PDFXJ.s:4579   .debug_str:0000000000000b16 .LASF7
     /tmp/cc6PDFXJ.s:4481   .debug_str:00000000000007af .LASF8
     /tmp/cc6PDFXJ.s:4417   .debug_str:0000000000000574 .LASF9
     /tmp/cc6PDFXJ.s:4425   .debug_str:00000000000005cb .LASF10
     /tmp/cc6PDFXJ.s:4343   .debug_str:000000000000034e .LASF11
     /tmp/cc6PDFXJ.s:4407   .debug_str:0000000000000538 .LASF12
     /tmp/cc6PDFXJ.s:4357   .debug_str:0000000000000393 .LASF13
     /tmp/cc6PDFXJ.s:4341   .debug_str:000000000000033e .LASF14
     /tmp/cc6PDFXJ.s:4683   .debug_str:0000000000000e6e .LASF15
     /tmp/cc6PDFXJ.s:4395   .debug_str:00000000000004c2 .LASF16
     /tmp/cc6PDFXJ.s:4667   .debug_str:0000000000000dce .LASF17
     /tmp/cc6PDFXJ.s:4699   .debug_str:0000000000000ecf .LASF263
     /tmp/cc6PDFXJ.s:4335   .debug_str:0000000000000311 .LASF18
     /tmp/cc6PDFXJ.s:4655   .debug_str:0000000000000d77 .LASF19
     /tmp/cc6PDFXJ.s:4351   .debug_str:0000000000000374 .LASF20
     /tmp/cc6PDFXJ.s:4321   .debug_str:00000000000001cb .LASF21
     /tmp/cc6PDFXJ.s:4583   .debug_str:0000000000000b3f .LASF22
     /tmp/cc6PDFXJ.s:4349   .debug_str:000000000000036b .LASF23
     /tmp/cc6PDFXJ.s:4691   .debug_str:0000000000000e9c .LASF84
     /tmp/cc6PDFXJ.s:4435   .debug_str:000000000000062b .LASF24
     /tmp/cc6PDFXJ.s:4291   .debug_str:00000000000000a8 .LASF29
     /tmp/cc6PDFXJ.s:4721   .debug_str:0000000000000f96 .LASF264
     /tmp/cc6PDFXJ.s:4567   .debug_str:0000000000000ac2 .LASF265
     /tmp/cc6PDFXJ.s:4489   .debug_str:00000000000007fe .LASF25
     /tmp/cc6PDFXJ.s:4789   .debug_str:00000000000011ee .LASF27
     /tmp/cc6PDFXJ.s:4783   .debug_str:00000000000011c5 .LASF26
     /tmp/cc6PDFXJ.s:4705   .debug_str:0000000000000efa .LASF28
     /tmp/cc6PDFXJ.s:4377   .debug_str:0000000000000456 .LASF54
     /tmp/cc6PDFXJ.s:4299   .debug_str:00000000000000e7 .LASF56
     /tmp/cc6PDFXJ.s:4495   .debug_str:000000000000081f .LASF34
     /tmp/cc6PDFXJ.s:4569   .debug_str:0000000000000ac7 .LASF36
     /tmp/cc6PDFXJ.s:4701   .debug_str:0000000000000ed5 .LASF30
     /tmp/cc6PDFXJ.s:4649   .debug_str:0000000000000d3f .LASF31
     /tmp/cc6PDFXJ.s:4497   .debug_str:0000000000000825 .LASF38
     /tmp/cc6PDFXJ.s:4507   .debug_str:0000000000000893 .LASF40
     /tmp/cc6PDFXJ.s:4797   .debug_str:000000000000124b .LASF32
     /tmp/cc6PDFXJ.s:4403   .debug_str:000000000000051b .LASF33
     /tmp/cc6PDFXJ.s:4277   .debug_str:0000000000000045 .LASF35
     /tmp/cc6PDFXJ.s:4465   .debug_str:000000000000071e .LASF37
     /tmp/cc6PDFXJ.s:4651   .debug_str:0000000000000d50 .LASF39
     /tmp/cc6PDFXJ.s:4541   .debug_str:00000000000009f4 .LASF41
GAS LISTING /tmp/cc6PDFXJ.s 			page 30


     /tmp/cc6PDFXJ.s:4631   .debug_str:0000000000000cab .LASF42
     /tmp/cc6PDFXJ.s:4675   .debug_str:0000000000000e24 .LASF43
     /tmp/cc6PDFXJ.s:4543   .debug_str:0000000000000a07 .LASF44
     /tmp/cc6PDFXJ.s:4273   .debug_str:0000000000000026 .LASF45
     /tmp/cc6PDFXJ.s:4769   .debug_str:000000000000114d .LASF46
     /tmp/cc6PDFXJ.s:4577   .debug_str:0000000000000afc .LASF47
     /tmp/cc6PDFXJ.s:4665   .debug_str:0000000000000dc0 .LASF48
     /tmp/cc6PDFXJ.s:4591   .debug_str:0000000000000b70 .LASF49
     /tmp/cc6PDFXJ.s:4373   .debug_str:0000000000000434 .LASF50
     /tmp/cc6PDFXJ.s:4411   .debug_str:0000000000000551 .LASF51
     /tmp/cc6PDFXJ.s:4613   .debug_str:0000000000000c32 .LASF52
     /tmp/cc6PDFXJ.s:4775   .debug_str:000000000000117e .LASF53
     /tmp/cc6PDFXJ.s:4473   .debug_str:0000000000000758 .LASF60
     /tmp/cc6PDFXJ.s:4661   .debug_str:0000000000000da9 .LASF55
     /tmp/cc6PDFXJ.s:4787   .debug_str:00000000000011d8 .LASF57
     /tmp/cc6PDFXJ.s:4693   .debug_str:0000000000000ea4 .LASF58
     /tmp/cc6PDFXJ.s:4369   .debug_str:0000000000000418 .LASF59
     /tmp/cc6PDFXJ.s:4645   .debug_str:0000000000000d29 .LASF61
     /tmp/cc6PDFXJ.s:4451   .debug_str:000000000000068d .LASF62
     /tmp/cc6PDFXJ.s:4555   .debug_str:0000000000000a42 .LASF63
     /tmp/cc6PDFXJ.s:4363   .debug_str:00000000000003e2 .LASF64
     /tmp/cc6PDFXJ.s:4597   .debug_str:0000000000000ba6 .LASF65
     /tmp/cc6PDFXJ.s:4805   .debug_str:000000000000127d .LASF66
     /tmp/cc6PDFXJ.s:4559   .debug_str:0000000000000a68 .LASF67
     /tmp/cc6PDFXJ.s:4629   .debug_str:0000000000000c98 .LASF68
     /tmp/cc6PDFXJ.s:4653   .debug_str:0000000000000d59 .LASF69
     /tmp/cc6PDFXJ.s:4735   .debug_str:0000000000001004 .LASF70
     /tmp/cc6PDFXJ.s:4531   .debug_str:0000000000000983 .LASF71
     /tmp/cc6PDFXJ.s:4723   .debug_str:0000000000000fae .LASF72
     /tmp/cc6PDFXJ.s:4673   .debug_str:0000000000000e04 .LASF73
     /tmp/cc6PDFXJ.s:4709   .debug_str:0000000000000f1e .LASF74
     /tmp/cc6PDFXJ.s:4571   .debug_str:0000000000000ad7 .LASF75
     /tmp/cc6PDFXJ.s:4781   .debug_str:00000000000011b7 .LASF76
     /tmp/cc6PDFXJ.s:4307   .debug_str:000000000000013d .LASF78
     /tmp/cc6PDFXJ.s:4457   .debug_str:00000000000006dd .LASF77
     /tmp/cc6PDFXJ.s:4333   .debug_str:00000000000002e5 .LASF79
     /tmp/cc6PDFXJ.s:4767   .debug_str:0000000000001146 .LASF266
     /tmp/cc6PDFXJ.s:4329   .debug_str:00000000000002c6 .LASF267
     /tmp/cc6PDFXJ.s:4275   .debug_str:0000000000000040 .LASF80
     /tmp/cc6PDFXJ.s:4733   .debug_str:0000000000000fff .LASF81
     /tmp/cc6PDFXJ.s:4511   .debug_str:00000000000008c5 .LASF82
     /tmp/cc6PDFXJ.s:4381   .debug_str:0000000000000464 .LASF83
     /tmp/cc6PDFXJ.s:4719   .debug_str:0000000000000f8e .LASF85
     /tmp/cc6PDFXJ.s:4749   .debug_str:0000000000001095 .LASF86
     /tmp/cc6PDFXJ.s:4443   .debug_str:0000000000000657 .LASF87
     /tmp/cc6PDFXJ.s:4671   .debug_str:0000000000000dec .LASF88
     /tmp/cc6PDFXJ.s:4573   .debug_str:0000000000000ae3 .LASF89
     /tmp/cc6PDFXJ.s:4523   .debug_str:000000000000093e .LASF90
     /tmp/cc6PDFXJ.s:4391   .debug_str:00000000000004a5 .LASF91
     /tmp/cc6PDFXJ.s:4581   .debug_str:0000000000000b29 .LASF92
     /tmp/cc6PDFXJ.s:4529   .debug_str:0000000000000973 .LASF93
     /tmp/cc6PDFXJ.s:4741   .debug_str:0000000000001037 .LASF94
     /tmp/cc6PDFXJ.s:4739   .debug_str:0000000000001026 .LASF95
     /tmp/cc6PDFXJ.s:4505   .debug_str:0000000000000875 .LASF96
     /tmp/cc6PDFXJ.s:4385   .debug_str:0000000000000470 .LASF97
     /tmp/cc6PDFXJ.s:4779   .debug_str:0000000000001193 .LASF98
     /tmp/cc6PDFXJ.s:4463   .debug_str:000000000000070c .LASF99
GAS LISTING /tmp/cc6PDFXJ.s 			page 31


     /tmp/cc6PDFXJ.s:4365   .debug_str:00000000000003f4 .LASF100
     /tmp/cc6PDFXJ.s:4773   .debug_str:0000000000001172 .LASF101
     /tmp/cc6PDFXJ.s:4301   .debug_str:00000000000000fa .LASF102
     /tmp/cc6PDFXJ.s:4587   .debug_str:0000000000000b5c .LASF103
     /tmp/cc6PDFXJ.s:4289   .debug_str:000000000000008e .LASF104
     /tmp/cc6PDFXJ.s:4315   .debug_str:000000000000019f .LASF105
     /tmp/cc6PDFXJ.s:4419   .debug_str:0000000000000584 .LASF106
     /tmp/cc6PDFXJ.s:4647   .debug_str:0000000000000d31 .LASF107
     /tmp/cc6PDFXJ.s:4359   .debug_str:00000000000003a3 .LASF108
     /tmp/cc6PDFXJ.s:4545   .debug_str:0000000000000a16 .LASF109
     /tmp/cc6PDFXJ.s:4757   .debug_str:00000000000010cf .LASF110
     /tmp/cc6PDFXJ.s:4731   .debug_str:0000000000000ff6 .LASF113
     /tmp/cc6PDFXJ.s:4283   .debug_str:0000000000000065 .LASF115
     /tmp/cc6PDFXJ.s:4615   .debug_str:0000000000000c3f .LASF111
     /tmp/cc6PDFXJ.s:4563   .debug_str:0000000000000a9d .LASF112
     /tmp/cc6PDFXJ.s:4593   .debug_str:0000000000000b7c .LASF114
     /tmp/cc6PDFXJ.s:4599   .debug_str:0000000000000bc3 .LASF116
     /tmp/cc6PDFXJ.s:4557   .debug_str:0000000000000a61 .LASF117
     /tmp/cc6PDFXJ.s:4483   .debug_str:00000000000007c2 .LASF118
     /tmp/cc6PDFXJ.s:4759   .debug_str:00000000000010e9 .LASF119
     /tmp/cc6PDFXJ.s:4707   .debug_str:0000000000000f0a .LASF120
     /tmp/cc6PDFXJ.s:4549   .debug_str:0000000000000a2c .LASF121
     /tmp/cc6PDFXJ.s:4561   .debug_str:0000000000000a89 .LASF122
     /tmp/cc6PDFXJ.s:4535   .debug_str:00000000000009b5 .LASF123
     /tmp/cc6PDFXJ.s:4603   .debug_str:0000000000000bee .LASF124
     /tmp/cc6PDFXJ.s:4801   .debug_str:0000000000001270 .LASF125
     /tmp/cc6PDFXJ.s:4461   .debug_str:00000000000006f8 .LASF126
     /tmp/cc6PDFXJ.s:4679   .debug_str:0000000000000e45 .LASF127
     /tmp/cc6PDFXJ.s:4641   .debug_str:0000000000000d0f .LASF128
     /tmp/cc6PDFXJ.s:4643   .debug_str:0000000000000d22 .LASF129
     /tmp/cc6PDFXJ.s:4389   .debug_str:0000000000000492 .LASF130
     /tmp/cc6PDFXJ.s:4383   .debug_str:000000000000046a .LASF131
     /tmp/cc6PDFXJ.s:4293   .debug_str:00000000000000b3 .LASF132
     /tmp/cc6PDFXJ.s:4459   .debug_str:00000000000006f2 .LASF133
     /tmp/cc6PDFXJ.s:4375   .debug_str:0000000000000444 .LASF134
     /tmp/cc6PDFXJ.s:4331   .debug_str:00000000000002d7 .LASF135
     /tmp/cc6PDFXJ.s:4697   .debug_str:0000000000000eb4 .LASF136
     /tmp/cc6PDFXJ.s:4267   .debug_str:0000000000000000 .LASF137
     /tmp/cc6PDFXJ.s:4625   .debug_str:0000000000000c74 .LASF138
     /tmp/cc6PDFXJ.s:4617   .debug_str:0000000000000c48 .LASF139
     /tmp/cc6PDFXJ.s:4793   .debug_str:0000000000001223 .LASF140
     /tmp/cc6PDFXJ.s:4623   .debug_str:0000000000000c6d .LASF141
     /tmp/cc6PDFXJ.s:4339   .debug_str:000000000000032b .LASF142
     /tmp/cc6PDFXJ.s:4751   .debug_str:000000000000109b .LASF143
     /tmp/cc6PDFXJ.s:4771   .debug_str:000000000000115c .LASF144
     /tmp/cc6PDFXJ.s:4743   .debug_str:0000000000001055 .LASF145
     /tmp/cc6PDFXJ.s:4295   .debug_str:00000000000000c5 .LASF146
     /tmp/cc6PDFXJ.s:4371   .debug_str:000000000000042e .LASF147
     /tmp/cc6PDFXJ.s:4433   .debug_str:0000000000000619 .LASF148
     /tmp/cc6PDFXJ.s:4441   .debug_str:0000000000000651 .LASF149
     /tmp/cc6PDFXJ.s:4747   .debug_str:0000000000001083 .LASF150
     /tmp/cc6PDFXJ.s:4437   .debug_str:0000000000000631 .LASF151
     /tmp/cc6PDFXJ.s:4445   .debug_str:0000000000000662 .LASF152
     /tmp/cc6PDFXJ.s:4725   .debug_str:0000000000000fc3 .LASF153
     /tmp/cc6PDFXJ.s:4423   .debug_str:00000000000005af .LASF154
     /tmp/cc6PDFXJ.s:4585   .debug_str:0000000000000b47 .LASF155
     /tmp/cc6PDFXJ.s:4477   .debug_str:0000000000000781 .LASF156
GAS LISTING /tmp/cc6PDFXJ.s 			page 32


     /tmp/cc6PDFXJ.s:4311   .debug_str:000000000000017d .LASF157
     /tmp/cc6PDFXJ.s:4519   .debug_str:000000000000090d .LASF158
     /tmp/cc6PDFXJ.s:4609   .debug_str:0000000000000c21 .LASF159
     /tmp/cc6PDFXJ.s:4281   .debug_str:000000000000005d .LASF160
     /tmp/cc6PDFXJ.s:4317   .debug_str:00000000000001a9 .LASF161
     /tmp/cc6PDFXJ.s:4501   .debug_str:000000000000084d .LASF162
     /tmp/cc6PDFXJ.s:4319   .debug_str:00000000000001b8 .LASF163
     /tmp/cc6PDFXJ.s:4539   .debug_str:00000000000009e2 .LASF164
     /tmp/cc6PDFXJ.s:4427   .debug_str:00000000000005d9 .LASF165
     /tmp/cc6PDFXJ.s:4469   .debug_str:0000000000000733 .LASF166
     /tmp/cc6PDFXJ.s:4337   .debug_str:0000000000000317 .LASF167
     /tmp/cc6PDFXJ.s:4695   .debug_str:0000000000000eaf .LASF168
     /tmp/cc6PDFXJ.s:4517   .debug_str:0000000000000908 .LASF169
     /tmp/cc6PDFXJ.s:4607   .debug_str:0000000000000c16 .LASF170
     /tmp/cc6PDFXJ.s:4421   .debug_str:000000000000059b .LASF171
     /tmp/cc6PDFXJ.s:4305   .debug_str:0000000000000131 .LASF172
     /tmp/cc6PDFXJ.s:4605   .debug_str:0000000000000c02 .LASF173
     /tmp/cc6PDFXJ.s:4379   .debug_str:000000000000045f .LASF174
     /tmp/cc6PDFXJ.s:4659   .debug_str:0000000000000d92 .LASF175
     /tmp/cc6PDFXJ.s:4687   .debug_str:0000000000000e8d .LASF176
     /tmp/cc6PDFXJ.s:4399   .debug_str:00000000000004fa .LASF177
     /tmp/cc6PDFXJ.s:4271   .debug_str:000000000000001a .LASF178
     /tmp/cc6PDFXJ.s:4627   .debug_str:0000000000000c8c .LASF179
     /tmp/cc6PDFXJ.s:4521   .debug_str:000000000000092a .LASF180
     /tmp/cc6PDFXJ.s:4439   .debug_str:000000000000063c .LASF181
     /tmp/cc6PDFXJ.s:4347   .debug_str:0000000000000362 .LASF182
     /tmp/cc6PDFXJ.s:4353   .debug_str:000000000000037e .LASF183
     /tmp/cc6PDFXJ.s:4547   .debug_str:0000000000000a23 .LASF184
     /tmp/cc6PDFXJ.s:4635   .debug_str:0000000000000cda .LASF185
     /tmp/cc6PDFXJ.s:4269   .debug_str:000000000000000b .LASF186
     /tmp/cc6PDFXJ.s:4431   .debug_str:00000000000005f7 .LASF187
     /tmp/cc6PDFXJ.s:4715   .debug_str:0000000000000f5c .LASF188
     /tmp/cc6PDFXJ.s:4681   .debug_str:0000000000000e4c .LASF189
     /tmp/cc6PDFXJ.s:4513   .debug_str:00000000000008cd .LASF190
     /tmp/cc6PDFXJ.s:4361   .debug_str:00000000000003be .LASF191
     /tmp/cc6PDFXJ.s:4565   .debug_str:0000000000000ab2 .LASF192
     /tmp/cc6PDFXJ.s:4595   .debug_str:0000000000000b83 .LASF193
     /tmp/cc6PDFXJ.s:4493   .debug_str:0000000000000816 .LASF194
     /tmp/cc6PDFXJ.s:4447   .debug_str:000000000000067a .LASF195
     /tmp/cc6PDFXJ.s:4799   .debug_str:0000000000001258 .LASF196
     /tmp/cc6PDFXJ.s:4279   .debug_str:0000000000000055 .LASF197
     /tmp/cc6PDFXJ.s:4509   .debug_str:00000000000008ab .LASF198
     /tmp/cc6PDFXJ.s:4795   .debug_str:000000000000123b .LASF199
     /tmp/cc6PDFXJ.s:4639   .debug_str:0000000000000cec .LASF200
     /tmp/cc6PDFXJ.s:4685   .debug_str:0000000000000e7a .LASF201
     /tmp/cc6PDFXJ.s:4633   .debug_str:0000000000000cb4 .LASF202
     /tmp/cc6PDFXJ.s:4785   .debug_str:00000000000011cb .LASF203
     /tmp/cc6PDFXJ.s:4487   .debug_str:00000000000007da .LASF204
     /tmp/cc6PDFXJ.s:4553   .debug_str:0000000000000a39 .LASF205
     /tmp/cc6PDFXJ.s:4367   .debug_str:0000000000000413 .LASF206
     /tmp/cc6PDFXJ.s:4345   .debug_str:000000000000035d .LASF207
     /tmp/cc6PDFXJ.s:4485   .debug_str:00000000000007d5 .LASF208
     /tmp/cc6PDFXJ.s:4409   .debug_str:0000000000000547 .LASF209
     /tmp/cc6PDFXJ.s:4777   .debug_str:0000000000001189 .LASF210
     /tmp/cc6PDFXJ.s:4355   .debug_str:0000000000000388 .LASF211
     /tmp/cc6PDFXJ.s:4429   .debug_str:00000000000005ec .LASF212
     /tmp/cc6PDFXJ.s:4575   .debug_str:0000000000000aee .LASF213
GAS LISTING /tmp/cc6PDFXJ.s 			page 33


     /tmp/cc6PDFXJ.s:4657   .debug_str:0000000000000d7f .LASF214
     /tmp/cc6PDFXJ.s:4533   .debug_str:00000000000009a1 .LASF215
     /tmp/cc6PDFXJ.s:4689   .debug_str:0000000000000e94 .LASF216
     /tmp/cc6PDFXJ.s:4537   .debug_str:00000000000009bd .LASF217
     /tmp/cc6PDFXJ.s:4467   .debug_str:000000000000072b .LASF218
     /tmp/cc6PDFXJ.s:4745   .debug_str:000000000000105f .LASF219
     /tmp/cc6PDFXJ.s:4729   .debug_str:0000000000000fe4 .LASF220
     /tmp/cc6PDFXJ.s:4765   .debug_str:0000000000001124 .LASF221
     /tmp/cc6PDFXJ.s:4727   .debug_str:0000000000000fd2 .LASF222
     /tmp/cc6PDFXJ.s:4453   .debug_str:00000000000006a1 .LASF223
     /tmp/cc6PDFXJ.s:4313   .debug_str:000000000000018c .LASF224
     /tmp/cc6PDFXJ.s:4327   .debug_str:00000000000002a3 .LASF225
     /tmp/cc6PDFXJ.s:4393   .debug_str:00000000000004af .LASF226
     /tmp/cc6PDFXJ.s:4323   .debug_str:00000000000001d4 .LASF227
     /tmp/cc6PDFXJ.s:4499   .debug_str:0000000000000832 .LASF228
     /tmp/cc6PDFXJ.s:4763   .debug_str:000000000000110b .LASF229
     /tmp/cc6PDFXJ.s:4515   .debug_str:00000000000008de .LASF230
     /tmp/cc6PDFXJ.s:4755   .debug_str:00000000000010b7 .LASF231
     /tmp/cc6PDFXJ.s:4791   .debug_str:00000000000011fa .LASF232
     /tmp/cc6PDFXJ.s:4479   .debug_str:00000000000007a3 .LASF233
     /tmp/cc6PDFXJ.s:4475   .debug_str:0000000000000765 .LASF234
     /tmp/cc6PDFXJ.s:4405   .debug_str:0000000000000527 .LASF235
     /tmp/cc6PDFXJ.s:4753   .debug_str:00000000000010a5 .LASF236
     /tmp/cc6PDFXJ.s:4415   .debug_str:0000000000000567 .LASF237
     /tmp/cc6PDFXJ.s:4285   .debug_str:000000000000007a .LASF238
     /tmp/cc6PDFXJ.s:4297   .debug_str:00000000000000db .LASF239
     /tmp/cc6PDFXJ.s:4503   .debug_str:0000000000000859 .LASF240
     /tmp/cc6PDFXJ.s:4663   .debug_str:0000000000000db4 .LASF241
     /tmp/cc6PDFXJ.s:4303   .debug_str:0000000000000115 .LASF242
     /tmp/cc6PDFXJ.s:4601   .debug_str:0000000000000bd6 .LASF243
     /tmp/cc6PDFXJ.s:4525   .debug_str:0000000000000956 .LASF244
     /tmp/cc6PDFXJ.s:4761   .debug_str:00000000000010f1 .LASF245
     /tmp/cc6PDFXJ.s:4455   .debug_str:00000000000006c3 .LASF246
     /tmp/cc6PDFXJ.s:4717   .debug_str:0000000000000f6b .LASF247
     /tmp/cc6PDFXJ.s:4397   .debug_str:00000000000004d8 .LASF248
     /tmp/cc6PDFXJ.s:4703   .debug_str:0000000000000edd .LASF249
     /tmp/cc6PDFXJ.s:828    .text:0000000000000440 .LFB35
     /tmp/cc6PDFXJ.s:874    .text:0000000000000488 .LFE35
     /tmp/cc6PDFXJ.s:4803   .debug_str:0000000000001278 .LASF250
     /tmp/cc6PDFXJ.s:3978   .debug_loc:0000000000000000 .LLST18
     /tmp/cc6PDFXJ.s:853    .text:000000000000046c .LVL65
     /tmp/cc6PDFXJ.s:785    .text:000000000000040c .LFB34
     /tmp/cc6PDFXJ.s:822    .text:0000000000000440 .LFE34
     /tmp/cc6PDFXJ.s:3985   .debug_loc:0000000000000023 .LLST17
     /tmp/cc6PDFXJ.s:800    .text:0000000000000424 .LVL62
     /tmp/cc6PDFXJ.s:811    .text:0000000000000430 .LVL63
     /tmp/cc6PDFXJ.s:728    .text:00000000000003c8 .LFB33
     /tmp/cc6PDFXJ.s:779    .text:000000000000040c .LFE33
     /tmp/cc6PDFXJ.s:3992   .debug_loc:0000000000000046 .LLST16
     /tmp/cc6PDFXJ.s:753    .text:00000000000003e8 .LVL59
     /tmp/cc6PDFXJ.s:554    .text:0000000000000300 .LFB32
     /tmp/cc6PDFXJ.s:586    .text:0000000000000348 .LFE32
     /tmp/cc6PDFXJ.s:569    .text:0000000000000320 .LVL43
     /tmp/cc6PDFXJ.s:575    .text:0000000000000338 .LVL44
     /tmp/cc6PDFXJ.s:364    .text:0000000000000218 .LFB31
     /tmp/cc6PDFXJ.s:397    .text:0000000000000260 .LFE31
     /tmp/cc6PDFXJ.s:3999   .debug_loc:0000000000000069 .LLST8
GAS LISTING /tmp/cc6PDFXJ.s 			page 34


     /tmp/cc6PDFXJ.s:381    .text:0000000000000240 .LVL27
     /tmp/cc6PDFXJ.s:386    .text:0000000000000250 .LVL28
     /tmp/cc6PDFXJ.s:326    .text:00000000000001d0 .LFB30
     /tmp/cc6PDFXJ.s:358    .text:0000000000000218 .LFE30
     /tmp/cc6PDFXJ.s:341    .text:00000000000001f0 .LVL24
     /tmp/cc6PDFXJ.s:347    .text:0000000000000208 .LVL25
     /tmp/cc6PDFXJ.s:287    .text:0000000000000188 .LFB29
     /tmp/cc6PDFXJ.s:320    .text:00000000000001d0 .LFE29
     /tmp/cc6PDFXJ.s:4013   .debug_loc:00000000000000a2 .LLST7
     /tmp/cc6PDFXJ.s:304    .text:00000000000001b0 .LVL22
     /tmp/cc6PDFXJ.s:309    .text:00000000000001c0 .LVL23
     /tmp/cc6PDFXJ.s:592    .text:0000000000000348 .LFB28
     /tmp/cc6PDFXJ.s:722    .text:00000000000003c8 .LFE28
     /tmp/cc6PDFXJ.s:4027   .debug_loc:00000000000000db .LLST13
     /tmp/cc6PDFXJ.s:4247   .debug_ranges:0000000000000000 .Ldebug_ranges0
     /tmp/cc6PDFXJ.s:4041   .debug_loc:0000000000000114 .LLST14
     /tmp/cc6PDFXJ.s:4611   .debug_str:0000000000000c28 .LASF251
     /tmp/cc6PDFXJ.s:4056   .debug_loc:000000000000015d .LLST15
     /tmp/cc6PDFXJ.s:645    .text:0000000000000378 .LBB11
     /tmp/cc6PDFXJ.s:682    .text:00000000000003a4 .LBE11
     /tmp/cc6PDFXJ.s:649    .text:0000000000000380 .LVL50
     /tmp/cc6PDFXJ.s:403    .text:0000000000000260 .LFB27
     /tmp/cc6PDFXJ.s:548    .text:0000000000000300 .LFE27
     /tmp/cc6PDFXJ.s:4067   .debug_loc:0000000000000193 .LLST9
     /tmp/cc6PDFXJ.s:4085   .debug_loc:00000000000001df .LLST10
     /tmp/cc6PDFXJ.s:4100   .debug_loc:0000000000000228 .LLST11
     /tmp/cc6PDFXJ.s:457    .text:0000000000000294 .LBB4
     /tmp/cc6PDFXJ.s:493    .text:00000000000002c8 .LBE4
     /tmp/cc6PDFXJ.s:4111   .debug_loc:000000000000025e .LLST12
     /tmp/cc6PDFXJ.s:487    .text:00000000000002bc .LVL36
     /tmp/cc6PDFXJ.s:492    .text:00000000000002c8 .LVL37
     /tmp/cc6PDFXJ.s:249    .text:0000000000000188 .LFE26
     /tmp/cc6PDFXJ.s:186    .text:00000000000000fc .LVL13
     /tmp/cc6PDFXJ.s:192    .text:000000000000010c .LVL14
     /tmp/cc6PDFXJ.s:201    .text:0000000000000120 .LVL15
     /tmp/cc6PDFXJ.s:207    .text:0000000000000130 .LVL16
     /tmp/cc6PDFXJ.s:231    .text:0000000000000160 .LVL17
     /tmp/cc6PDFXJ.s:235    .text:000000000000016c .LVL18
     /tmp/cc6PDFXJ.s:242    .text:000000000000017c .LVL19
     /tmp/cc6PDFXJ.s:246    .text:0000000000000188 .LVL20
     /tmp/cc6PDFXJ.s:91     .text:0000000000000078 .LFB25
     /tmp/cc6PDFXJ.s:158    .text:00000000000000d8 .LFE25
     /tmp/cc6PDFXJ.s:4677   .debug_str:0000000000000e40 .LASF252
     /tmp/cc6PDFXJ.s:4118   .debug_loc:0000000000000281 .LLST3
     /tmp/cc6PDFXJ.s:4551   .debug_str:0000000000000a34 .LASF253
     /tmp/cc6PDFXJ.s:4140   .debug_loc:00000000000002e0 .LLST4
     /tmp/cc6PDFXJ.s:4158   .debug_loc:000000000000032c .LLST5
     /tmp/cc6PDFXJ.s:4169   .debug_loc:0000000000000362 .LLST6
     /tmp/cc6PDFXJ.s:129    .text:00000000000000b0 .LVL10
     /tmp/cc6PDFXJ.s:10     .text:0000000000000000 .LFB24
     /tmp/cc6PDFXJ.s:85     .text:0000000000000078 .LFE24
     /tmp/cc6PDFXJ.s:4176   .debug_loc:0000000000000385 .LLST0
     /tmp/cc6PDFXJ.s:4190   .debug_loc:00000000000003be .LLST1
     /tmp/cc6PDFXJ.s:4212   .debug_loc:000000000000041d .LLST2
     /tmp/cc6PDFXJ.s:4669   .debug_str:0000000000000de4 .LASF254
     /tmp/cc6PDFXJ.s:37     .text:0000000000000034 .LVL2
     /tmp/cc6PDFXJ.s:4527   .debug_str:000000000000096e .LASF255
GAS LISTING /tmp/cc6PDFXJ.s 			page 35


     /tmp/cc6PDFXJ.s:4737   .debug_str:0000000000001017 .LASF268
     /tmp/cc6PDFXJ.s:4309   .debug_str:0000000000000165 .LASF269
     /tmp/cc6PDFXJ.s:4387   .debug_str:0000000000000487 .LASF256
     /tmp/cc6PDFXJ.s:4413   .debug_str:0000000000000561 .LASF257
     /tmp/cc6PDFXJ.s:4621   .debug_str:0000000000000c61 .LASF258
     /tmp/cc6PDFXJ.s:4401   .debug_str:0000000000000513 .LASF259
     /tmp/cc6PDFXJ.s:844    .text:000000000000045c .LVL64
     /tmp/cc6PDFXJ.s:869    .text:0000000000000480 .LVL67
     /tmp/cc6PDFXJ.s:746    .text:00000000000003dc .LVL57
     /tmp/cc6PDFXJ.s:751    .text:00000000000003e0 .LVL58
     /tmp/cc6PDFXJ.s:367    .text:0000000000000218 .LVL26
     /tmp/cc6PDFXJ.s:290    .text:0000000000000188 .LVL21
     /tmp/cc6PDFXJ.s:595    .text:0000000000000348 .LVL45
     /tmp/cc6PDFXJ.s:641    .text:0000000000000378 .LVL49
     /tmp/cc6PDFXJ.s:603    .text:0000000000000354 .LVL46
     /tmp/cc6PDFXJ.s:621    .text:0000000000000360 .LVL47
     /tmp/cc6PDFXJ.s:656    .text:0000000000000390 .LVL51
     /tmp/cc6PDFXJ.s:667    .text:0000000000000398 .LVL52
     /tmp/cc6PDFXJ.s:691    .text:00000000000003b0 .LVL54
     /tmp/cc6PDFXJ.s:709    .text:00000000000003bc .LVL55
     /tmp/cc6PDFXJ.s:627    .text:0000000000000364 .LVL48
     /tmp/cc6PDFXJ.s:715    .text:00000000000003c0 .LVL56
     /tmp/cc6PDFXJ.s:406    .text:0000000000000260 .LVL29
     /tmp/cc6PDFXJ.s:453    .text:0000000000000294 .LVL33
     /tmp/cc6PDFXJ.s:544    .text:00000000000002fc .LVL42
     /tmp/cc6PDFXJ.s:413    .text:000000000000026c .LVL30
     /tmp/cc6PDFXJ.s:431    .text:0000000000000278 .LVL31
     /tmp/cc6PDFXJ.s:462    .text:00000000000002a0 .LVL34
     /tmp/cc6PDFXJ.s:503    .text:00000000000002d4 .LVL38
     /tmp/cc6PDFXJ.s:521    .text:00000000000002e0 .LVL39
     /tmp/cc6PDFXJ.s:437    .text:000000000000027c .LVL32
     /tmp/cc6PDFXJ.s:527    .text:00000000000002e4 .LVL40
     /tmp/cc6PDFXJ.s:482    .text:00000000000002b0 .LVL35
     /tmp/cc6PDFXJ.s:540    .text:00000000000002f4 .LVL41
     /tmp/cc6PDFXJ.s:94     .text:0000000000000078 .LVL6
     /tmp/cc6PDFXJ.s:109    .text:0000000000000094 .LVL7
     /tmp/cc6PDFXJ.s:145    .text:00000000000000c8 .LVL11
     /tmp/cc6PDFXJ.s:113    .text:0000000000000098 .LVL8
     /tmp/cc6PDFXJ.s:152    .text:00000000000000d0 .LVL12
     /tmp/cc6PDFXJ.s:125    .text:00000000000000a8 .LVL9
     /tmp/cc6PDFXJ.s:14     .text:0000000000000000 .LVL0
     /tmp/cc6PDFXJ.s:35     .text:000000000000002c .LVL1
     /tmp/cc6PDFXJ.s:69     .text:0000000000000060 .LVL4
     /tmp/cc6PDFXJ.s:75     .text:000000000000006c .LVL5
     /tmp/cc6PDFXJ.s:66     .text:000000000000005c .LVL3
     /tmp/cc6PDFXJ.s:924    .debug_info:0000000000000000 .Ldebug_info0
     /tmp/cc6PDFXJ.s:408    .text:0000000000000260 .LBB2
     /tmp/cc6PDFXJ.s:441    .text:0000000000000280 .LBE2
     /tmp/cc6PDFXJ.s:455    .text:0000000000000294 .LBB7
     /tmp/cc6PDFXJ.s:495    .text:00000000000002c8 .LBE7
     /tmp/cc6PDFXJ.s:498    .text:00000000000002c8 .LBB8
     /tmp/cc6PDFXJ.s:531    .text:00000000000002e8 .LBE8
     /tmp/cc6PDFXJ.s:598    .text:0000000000000348 .LBB9
     /tmp/cc6PDFXJ.s:631    .text:0000000000000368 .LBE9
     /tmp/cc6PDFXJ.s:643    .text:0000000000000378 .LBB14
     /tmp/cc6PDFXJ.s:684    .text:00000000000003a4 .LBE14
     /tmp/cc6PDFXJ.s:686    .text:00000000000003a4 .LBB15
GAS LISTING /tmp/cc6PDFXJ.s 			page 36


     /tmp/cc6PDFXJ.s:720    .text:00000000000003c8 .LBE15
     /tmp/cc6PDFXJ.s:252    .gcc_except_table:0000000000000000 .LLSDA26

UNDEFINED SYMBOLS
_Z7kmallocm
_Z5kfreePv
_ZN10KSemaphorenwEm
_ZN10KSemaphoreC1Ei
_ZN10KSemaphoredlEPv
_Unwind_Resume
__gxx_personality_v0
_ZN10KSemaphore6signalEv
_ZN10KSemaphore4waitEv
CONSOLE_STATUS
CONSOLE_TX_DATA
CONSOLE_RX_DATA
_ZN5Riscv13w_a0_sscratchEv
putc
