GAS LISTING /tmp/cczVw551.s 			page 1


   1              		.file	"KConsole.cpp"
   2              		.option pic
   3              		.option norelax
   4              		.text
   5              	.Ltext0:
   6              		.align	2
   7              		.globl	_ZN8KConsole7putCharEcRPNS_4ElemES2_
   9              	_ZN8KConsole7putCharEcRPNS_4ElemES2_:
  10              	.LFB24:
  11              		.file 1 "src/KConsole.cpp"
   1:src/KConsole.cpp **** //
   2:src/KConsole.cpp **** // Created by os on 5/19/22.
   3:src/KConsole.cpp **** //
   4:src/KConsole.cpp **** 
   5:src/KConsole.cpp **** 
   6:src/KConsole.cpp **** #include "../h/KConsole.hpp"
   7:src/KConsole.cpp **** #include "../h/syscall_c.h"
   8:src/KConsole.cpp **** 
   9:src/KConsole.cpp **** KConsole::Elem* KConsole::headInput = 0;
  10:src/KConsole.cpp **** KConsole::Elem* KConsole::tailInput = 0;
  11:src/KConsole.cpp **** KConsole::Elem* KConsole::headOutput = 0;
  12:src/KConsole.cpp **** KConsole::Elem* KConsole::tailOutput = 0;
  13:src/KConsole.cpp **** KSemaphore* KConsole::hasCharactersOutput = 0;
  14:src/KConsole.cpp **** KSemaphore* KConsole::hasCharactersInput = 0;
  15:src/KConsole.cpp **** int KConsole::cntWInterrupt = 0;
  16:src/KConsole.cpp **** 
  17:src/KConsole.cpp **** void KConsole::putChar(char c, Elem*& head, Elem*& tail)
  18:src/KConsole.cpp **** {
  12              		.loc 1 18 1
  13              		.cfi_startproc
  14              	.LVL0:
  15 0000 130101FD 		addi	sp,sp,-48
  16              		.cfi_def_cfa_offset 48
  17 0004 23341102 		sd	ra,40(sp)
  18 0008 23308102 		sd	s0,32(sp)
  19 000c 233C9100 		sd	s1,24(sp)
  20 0010 23382101 		sd	s2,16(sp)
  21 0014 23343101 		sd	s3,8(sp)
  22              		.cfi_offset 1, -8
  23              		.cfi_offset 8, -16
  24              		.cfi_offset 9, -24
  25              		.cfi_offset 18, -32
  26              		.cfi_offset 19, -40
  27 0018 13040103 		addi	s0,sp,48
  28              		.cfi_def_cfa 8, 0
  29 001c 93090500 		mv	s3,a0
  30 0020 13890500 		mv	s2,a1
  31 0024 93040600 		mv	s1,a2
  19:src/KConsole.cpp ****     Elem* newElem = (Elem*)kmalloc(sizeof(Elem));
  32              		.loc 1 19 5
  33              		.loc 1 19 35 is_stmt 0
  34 0028 13050001 		li	a0,16
  35              	.LVL1:
  36 002c 97000000 		call	_Z7kmallocm@plt
  36      E7800000 
  37              	.LVL2:
  20:src/KConsole.cpp ****     newElem->next = 0;
GAS LISTING /tmp/cczVw551.s 			page 2


  38              		.loc 1 20 5 is_stmt 1
  39              		.loc 1 20 19 is_stmt 0
  40 0034 23300500 		sd	zero,0(a0)
  21:src/KConsole.cpp ****     newElem->data = c;
  41              		.loc 1 21 5 is_stmt 1
  42              		.loc 1 21 19 is_stmt 0
  43 0038 23043501 		sb	s3,8(a0)
  22:src/KConsole.cpp ****     if(head == 0)
  44              		.loc 1 22 5 is_stmt 1
  45              		.loc 1 22 8 is_stmt 0
  46 003c 83370900 		ld	a5,0(s2)
  47              		.loc 1 22 5
  48 0040 63860702 		beqz	a5,.L5
  23:src/KConsole.cpp ****     {
  24:src/KConsole.cpp ****         head = tail = newElem;
  25:src/KConsole.cpp ****     }
  26:src/KConsole.cpp ****     else
  27:src/KConsole.cpp ****     {
  28:src/KConsole.cpp ****         tail->next = newElem;
  49              		.loc 1 28 9 is_stmt 1
  50 0044 83B70400 		ld	a5,0(s1)
  51              		.loc 1 28 20 is_stmt 0
  52 0048 23B0A700 		sd	a0,0(a5)
  29:src/KConsole.cpp ****         tail = newElem;
  53              		.loc 1 29 9 is_stmt 1
  54              		.loc 1 29 14 is_stmt 0
  55 004c 23B0A400 		sd	a0,0(s1)
  56              	.L1:
  30:src/KConsole.cpp ****     }
  31:src/KConsole.cpp **** }
  57              		.loc 1 31 1
  58 0050 83308102 		ld	ra,40(sp)
  59              		.cfi_remember_state
  60              		.cfi_restore 1
  61 0054 03340102 		ld	s0,32(sp)
  62              		.cfi_restore 8
  63              		.cfi_def_cfa 2, 48
  64 0058 83348101 		ld	s1,24(sp)
  65              		.cfi_restore 9
  66              	.LVL3:
  67 005c 03390101 		ld	s2,16(sp)
  68              		.cfi_restore 18
  69              	.LVL4:
  70 0060 83398100 		ld	s3,8(sp)
  71              		.cfi_restore 19
  72 0064 13010103 		addi	sp,sp,48
  73              		.cfi_def_cfa_offset 0
  74 0068 67800000 		jr	ra
  75              	.LVL5:
  76              	.L5:
  77              		.cfi_restore_state
  24:src/KConsole.cpp ****     }
  78              		.loc 1 24 9 is_stmt 1
  24:src/KConsole.cpp ****     }
  79              		.loc 1 24 21 is_stmt 0
  80 006c 23B0A400 		sd	a0,0(s1)
  24:src/KConsole.cpp ****     }
GAS LISTING /tmp/cczVw551.s 			page 3


  81              		.loc 1 24 14
  82 0070 2330A900 		sd	a0,0(s2)
  83 0074 6FF0DFFD 		j	.L1
  84              		.cfi_endproc
  85              	.LFE24:
  87              		.align	2
  88              		.globl	_ZN8KConsole7getCharERPNS_4ElemES2_
  90              	_ZN8KConsole7getCharERPNS_4ElemES2_:
  91              	.LFB25:
  32:src/KConsole.cpp **** 
  33:src/KConsole.cpp **** char KConsole::getChar(Elem*& head, Elem*& tail)
  34:src/KConsole.cpp **** {
  92              		.loc 1 34 1 is_stmt 1
  93              		.cfi_startproc
  94              	.LVL6:
  95 0078 130101FE 		addi	sp,sp,-32
  96              		.cfi_def_cfa_offset 32
  97 007c 233C1100 		sd	ra,24(sp)
  98 0080 23388100 		sd	s0,16(sp)
  99 0084 23349100 		sd	s1,8(sp)
 100              		.cfi_offset 1, -8
 101              		.cfi_offset 8, -16
 102              		.cfi_offset 9, -24
 103 0088 13040102 		addi	s0,sp,32
 104              		.cfi_def_cfa 8, 0
 105 008c 93070500 		mv	a5,a0
  35:src/KConsole.cpp ****     if(head == 0)
 106              		.loc 1 35 5
 107              		.loc 1 35 8 is_stmt 0
 108 0090 03350500 		ld	a0,0(a0)
 109              	.LVL7:
 110              		.loc 1 35 5
 111 0094 630E0502 		beqz	a0,.L9
  36:src/KConsole.cpp ****         return 0;
  37:src/KConsole.cpp **** 
  38:src/KConsole.cpp ****     Elem* ret = head;
 112              		.loc 1 38 5 is_stmt 1
 113              	.LVL8:
  39:src/KConsole.cpp ****     head = head->next;
 114              		.loc 1 39 5
 115              		.loc 1 39 18 is_stmt 0
 116 0098 03370500 		ld	a4,0(a0)
 117              		.loc 1 39 10
 118 009c 23B0E700 		sd	a4,0(a5)
  40:src/KConsole.cpp ****     if(head == 0)
 119              		.loc 1 40 5 is_stmt 1
 120 00a0 63040702 		beqz	a4,.L11
 121              	.L8:
  41:src/KConsole.cpp ****         tail = 0;
  42:src/KConsole.cpp **** 
  43:src/KConsole.cpp ****     char c = ret->data;
 122              		.loc 1 43 5
 123              		.loc 1 43 10 is_stmt 0
 124 00a4 83448500 		lbu	s1,8(a0)
 125              	.LVL9:
  44:src/KConsole.cpp ****     kfree(ret);
 126              		.loc 1 44 5 is_stmt 1
GAS LISTING /tmp/cczVw551.s 			page 4


 127              		.loc 1 44 10 is_stmt 0
 128 00a8 97000000 		call	_Z5kfreePv@plt
 128      E7800000 
 129              	.LVL10:
  45:src/KConsole.cpp ****     return c;
 130              		.loc 1 45 5 is_stmt 1
 131              	.L7:
  46:src/KConsole.cpp **** }
 132              		.loc 1 46 1 is_stmt 0
 133 00b0 13850400 		mv	a0,s1
 134 00b4 83308101 		ld	ra,24(sp)
 135              		.cfi_remember_state
 136              		.cfi_restore 1
 137 00b8 03340101 		ld	s0,16(sp)
 138              		.cfi_restore 8
 139              		.cfi_def_cfa 2, 32
 140 00bc 83348100 		ld	s1,8(sp)
 141              		.cfi_restore 9
 142 00c0 13010102 		addi	sp,sp,32
 143              		.cfi_def_cfa_offset 0
 144 00c4 67800000 		jr	ra
 145              	.LVL11:
 146              	.L11:
 147              		.cfi_restore_state
  41:src/KConsole.cpp **** 
 148              		.loc 1 41 9 is_stmt 1
  41:src/KConsole.cpp **** 
 149              		.loc 1 41 14 is_stmt 0
 150 00c8 23B00500 		sd	zero,0(a1)
 151 00cc 6FF09FFD 		j	.L8
 152              	.LVL12:
 153              	.L9:
  36:src/KConsole.cpp **** 
 154              		.loc 1 36 16
 155 00d0 93040000 		li	s1,0
 156 00d4 6FF0DFFD 		j	.L7
 157              		.cfi_endproc
 158              	.LFE25:
 160              		.align	2
 161              		.globl	_ZN8KConsole10initializeEv
 163              	_ZN8KConsole10initializeEv:
 164              	.LFB26:
  47:src/KConsole.cpp **** 
  48:src/KConsole.cpp **** void KConsole::initialize()
  49:src/KConsole.cpp **** {
 165              		.loc 1 49 1 is_stmt 1
 166              		.cfi_startproc
 167              		.cfi_personality 0x9b,DW.ref.__gxx_personality_v0
 168              		.cfi_lsda 0x1b,.LLSDA26
 169 00d8 130101FE 		addi	sp,sp,-32
 170              		.cfi_def_cfa_offset 32
 171 00dc 233C1100 		sd	ra,24(sp)
 172 00e0 23388100 		sd	s0,16(sp)
 173 00e4 23349100 		sd	s1,8(sp)
 174 00e8 23302101 		sd	s2,0(sp)
 175              		.cfi_offset 1, -8
 176              		.cfi_offset 8, -16
GAS LISTING /tmp/cczVw551.s 			page 5


 177              		.cfi_offset 9, -24
 178              		.cfi_offset 18, -32
 179 00ec 13040102 		addi	s0,sp,32
 180              		.cfi_def_cfa 8, 0
  50:src/KConsole.cpp ****     hasCharactersInput = new KSemaphore(0);
 181              		.loc 1 50 5
 182              		.loc 1 50 42 is_stmt 0
 183 00f0 13058001 		li	a0,24
 184              	.LEHB0:
 185 00f4 97000000 		call	_ZN10KSemaphorenwEm@plt
 185      E7800000 
 186              	.LVL13:
 187              	.LEHE0:
 188 00fc 93040500 		mv	s1,a0
 189 0100 93050000 		li	a1,0
 190              	.LEHB1:
 191 0104 97000000 		call	_ZN10KSemaphoreC1Ei@plt
 191      E7800000 
 192              	.LVL14:
 193              	.LEHE1:
 194              		.loc 1 50 24 discriminator 2
 195 010c 97070000 		sd	s1,.LANCHOR0,a5
 195      23B09700 
  51:src/KConsole.cpp ****     hasCharactersOutput = new KSemaphore(0);
 196              		.loc 1 51 5 is_stmt 1 discriminator 2
 197              		.loc 1 51 43 is_stmt 0 discriminator 2
 198 0114 13058001 		li	a0,24
 199              	.LEHB2:
 200 0118 97000000 		call	_ZN10KSemaphorenwEm@plt
 200      E7800000 
 201              	.LVL15:
 202              	.LEHE2:
 203 0120 93040500 		mv	s1,a0
 204 0124 93050000 		li	a1,0
 205              	.LEHB3:
 206 0128 97000000 		call	_ZN10KSemaphoreC1Ei@plt
 206      E7800000 
 207              	.LVL16:
 208              	.LEHE3:
 209              		.loc 1 51 25 discriminator 2
 210 0130 97070000 		sd	s1,.LANCHOR0+8,a5
 210      23B09700 
  52:src/KConsole.cpp **** }
 211              		.loc 1 52 1 discriminator 2
 212 0138 83308101 		ld	ra,24(sp)
 213              		.cfi_remember_state
 214              		.cfi_restore 1
 215 013c 03340101 		ld	s0,16(sp)
 216              		.cfi_restore 8
 217              		.cfi_def_cfa 2, 32
 218 0140 83348100 		ld	s1,8(sp)
 219              		.cfi_restore 9
 220 0144 03390100 		ld	s2,0(sp)
 221              		.cfi_restore 18
 222 0148 13010102 		addi	sp,sp,32
 223              		.cfi_def_cfa_offset 0
 224 014c 67800000 		jr	ra
GAS LISTING /tmp/cczVw551.s 			page 6


 225              	.L15:
 226              		.cfi_restore_state
 227 0150 13090500 		mv	s2,a0
  50:src/KConsole.cpp ****     hasCharactersInput = new KSemaphore(0);
 228              		.loc 1 50 42
 229 0154 13850400 		mv	a0,s1
 230 0158 97000000 		call	_ZN10KSemaphoredlEPv@plt
 230      E7800000 
 231              	.LVL17:
 232 0160 13050900 		mv	a0,s2
 233              	.LEHB4:
 234 0164 97000000 		call	_Unwind_Resume@plt
 234      E7800000 
 235              	.LVL18:
 236              	.LEHE4:
 237              	.L16:
 238 016c 13090500 		mv	s2,a0
  51:src/KConsole.cpp ****     hasCharactersOutput = new KSemaphore(0);
 239              		.loc 1 51 43
 240 0170 13850400 		mv	a0,s1
 241 0174 97000000 		call	_ZN10KSemaphoredlEPv@plt
 241      E7800000 
 242              	.LVL19:
 243 017c 13050900 		mv	a0,s2
 244              	.LEHB5:
 245 0180 97000000 		call	_Unwind_Resume@plt
 245      E7800000 
 246              	.LVL20:
 247              	.LEHE5:
 248              		.cfi_endproc
 249              	.LFE26:
 250              		.globl	__gxx_personality_v0
 251              		.section	.gcc_except_table,"a",@progbits
 252              	.LLSDA26:
 253 0000 FF       		.byte	0xff
 254 0001 FF       		.byte	0xff
 255 0002 03       		.byte	0x3
 256 0003 4E       		.byte	0x4e
 257 0004 00000000 		.4byte	.LEHB0-.LFB26
 258 0008 00000000 		.4byte	.LEHE0-.LEHB0
 259 000c 00000000 		.4byte	0
 260 0010 00       		.byte	0
 261 0011 00000000 		.4byte	.LEHB1-.LFB26
 262 0015 00000000 		.4byte	.LEHE1-.LEHB1
 263 0019 00000000 		.4byte	.L15-.LFB26
 264 001d 00       		.byte	0
 265 001e 00000000 		.4byte	.LEHB2-.LFB26
 266 0022 00000000 		.4byte	.LEHE2-.LEHB2
 267 0026 00000000 		.4byte	0
 268 002a 00       		.byte	0
 269 002b 00000000 		.4byte	.LEHB3-.LFB26
 270 002f 00000000 		.4byte	.LEHE3-.LEHB3
 271 0033 00000000 		.4byte	.L16-.LFB26
 272 0037 00       		.byte	0
 273 0038 00000000 		.4byte	.LEHB4-.LFB26
 274 003c 00000000 		.4byte	.LEHE4-.LEHB4
 275 0040 00000000 		.4byte	0
GAS LISTING /tmp/cczVw551.s 			page 7


 276 0044 00       		.byte	0
 277 0045 00000000 		.4byte	.LEHB5-.LFB26
 278 0049 00000000 		.4byte	.LEHE5-.LEHB5
 279 004d 00000000 		.4byte	0
 280 0051 00       		.byte	0
 281              		.text
 283              		.align	2
 284              		.globl	_ZN8KConsole17putCharacterInputEc
 286              	_ZN8KConsole17putCharacterInputEc:
 287              	.LFB29:
  53:src/KConsole.cpp **** 
  54:src/KConsole.cpp **** //extern const uint64 CONSOLE_STATUS;
  55:src/KConsole.cpp **** //extern const uint64 CONSOLE_TX_DATA;
  56:src/KConsole.cpp **** //extern const uint64 CONSOLE_RX_DATA;
  57:src/KConsole.cpp **** 
  58:src/KConsole.cpp **** void KConsole::getCharactersFromConsole(void* p)
  59:src/KConsole.cpp **** {
  60:src/KConsole.cpp ****     while(true)
  61:src/KConsole.cpp ****     {
  62:src/KConsole.cpp ****         uint64 x = CONSOLE_STATUS;
  63:src/KConsole.cpp ****         __asm__ volatile("mv a0, %0"::"r"(x));
  64:src/KConsole.cpp ****         __asm__ volatile("lb a1, 0(a0)");
  65:src/KConsole.cpp ****         uint64 operation;
  66:src/KConsole.cpp ****         __asm__ volatile("mv %0, a1" :  "=r"(operation));
  67:src/KConsole.cpp ****         if(operation & STATUS_READ_MASK)
  68:src/KConsole.cpp ****         {
  69:src/KConsole.cpp ****             x = CONSOLE_TX_DATA;
  70:src/KConsole.cpp ****             __asm__ volatile("mv a0, %0"::"r"(x));
  71:src/KConsole.cpp ****             __asm__ volatile("lb a1,0(a0)");
  72:src/KConsole.cpp ****             char c;
  73:src/KConsole.cpp ****             __asm__ volatile("mv %0, a1" :  "=r"(c));
  74:src/KConsole.cpp ****             //putCharacterOutput(c);
  75:src/KConsole.cpp **** 
  76:src/KConsole.cpp ****             putCharacterInput(c);
  77:src/KConsole.cpp ****         }
  78:src/KConsole.cpp ****         else
  79:src/KConsole.cpp ****             break;
  80:src/KConsole.cpp ****     }
  81:src/KConsole.cpp **** }
  82:src/KConsole.cpp **** 
  83:src/KConsole.cpp **** void KConsole::sendCharactersToConsole(void* p)
  84:src/KConsole.cpp **** {
  85:src/KConsole.cpp ****     while(true)
  86:src/KConsole.cpp ****     {
  87:src/KConsole.cpp **** 
  88:src/KConsole.cpp ****             uint64 x = CONSOLE_STATUS;
  89:src/KConsole.cpp ****             __asm__ volatile("mv a0, %0"::"r"(x));
  90:src/KConsole.cpp ****             __asm__ volatile("lb a1, 0(a0)");
  91:src/KConsole.cpp ****             uint64 operation;
  92:src/KConsole.cpp ****             __asm__ volatile("mv %0, a1" :  "=r"(operation));
  93:src/KConsole.cpp ****             if (operation & STATUS_WRITE_MASK)
  94:src/KConsole.cpp ****             {
  95:src/KConsole.cpp ****                 //Riscv::printString("ide gas w\n");
  96:src/KConsole.cpp ****                 //Riscv::printString("trazim karakter\n");
  97:src/KConsole.cpp ****                 char volatile c = getCharacterOutput();
  98:src/KConsole.cpp ****                 //Riscv::printInteger(c);
  99:src/KConsole.cpp ****                 //if (c == 0)
GAS LISTING /tmp/cczVw551.s 			page 8


 100:src/KConsole.cpp ****                 //{
 101:src/KConsole.cpp ****                 //     break;
 102:src/KConsole.cpp ****                 //}
 103:src/KConsole.cpp ****                 x = CONSOLE_RX_DATA;
 104:src/KConsole.cpp ****                 __asm__ volatile("mv a0, %0"::"r"(x));
 105:src/KConsole.cpp ****                 __asm__ volatile("mv a1, %0" :  :"r"((uint64)c));
 106:src/KConsole.cpp ****                 __asm__ volatile("sb a1,0(a0)");
 107:src/KConsole.cpp ****             }
 108:src/KConsole.cpp ****             //cntWInterrupt--;
 109:src/KConsole.cpp **** 
 110:src/KConsole.cpp ****     }
 111:src/KConsole.cpp **** }
 112:src/KConsole.cpp **** 
 113:src/KConsole.cpp **** void KConsole::putCharacterInput(char c)
 114:src/KConsole.cpp **** {
 288              		.loc 1 114 1 is_stmt 1
 289              		.cfi_startproc
 290              	.LVL21:
 291 0188 130101FF 		addi	sp,sp,-16
 292              		.cfi_def_cfa_offset 16
 293 018c 23341100 		sd	ra,8(sp)
 294 0190 23308100 		sd	s0,0(sp)
 295              		.cfi_offset 1, -8
 296              		.cfi_offset 8, -16
 297 0194 13040101 		addi	s0,sp,16
 298              		.cfi_def_cfa 8, 0
 115:src/KConsole.cpp ****     putChar(c, headInput, tailInput);
 299              		.loc 1 115 5
 300              		.loc 1 115 12 is_stmt 0
 301 0198 17060000 		lla	a2,.LANCHOR0+16
 301      13060600 
 302 01a0 97050000 		lla	a1,.LANCHOR0+24
 302      93850500 
 303 01a8 97000000 		call	_ZN8KConsole7putCharEcRPNS_4ElemES2_
 303      E7800000 
 304              	.LVL22:
 116:src/KConsole.cpp ****     hasCharactersInput->signal();
 305              		.loc 1 116 5 is_stmt 1
 306              		.loc 1 116 31 is_stmt 0
 307 01b0 17050000 		ld	a0,.LANCHOR0
 307      03350500 
 308 01b8 97000000 		call	_ZN10KSemaphore6signalEv@plt
 308      E7800000 
 309              	.LVL23:
 117:src/KConsole.cpp **** }
 310              		.loc 1 117 1
 311 01c0 83308100 		ld	ra,8(sp)
 312              		.cfi_restore 1
 313 01c4 03340100 		ld	s0,0(sp)
 314              		.cfi_restore 8
 315              		.cfi_def_cfa 2, 16
 316 01c8 13010101 		addi	sp,sp,16
 317              		.cfi_def_cfa_offset 0
 318 01cc 67800000 		jr	ra
 319              		.cfi_endproc
 320              	.LFE29:
 322              		.align	2
GAS LISTING /tmp/cczVw551.s 			page 9


 323              		.globl	_ZN8KConsole24getCharactersFromConsoleEPv
 325              	_ZN8KConsole24getCharactersFromConsoleEPv:
 326              	.LFB27:
  59:src/KConsole.cpp ****     while(true)
 327              		.loc 1 59 1 is_stmt 1
 328              		.cfi_startproc
 329              	.LVL24:
  60:src/KConsole.cpp ****     {
 330              		.loc 1 60 5
 331              	.LBB2:
  62:src/KConsole.cpp ****         __asm__ volatile("mv a0, %0"::"r"(x));
 332              		.loc 1 62 9
  62:src/KConsole.cpp ****         __asm__ volatile("mv a0, %0"::"r"(x));
 333              		.loc 1 62 16 is_stmt 0
 334 01d0 97070000 		la	a5,CONSOLE_STATUS
 334      83B70700 
 335 01d8 83B70700 		ld	a5,0(a5)
 336              	.LVL25:
  63:src/KConsole.cpp ****         __asm__ volatile("lb a1, 0(a0)");
 337              		.loc 1 63 9 is_stmt 1
  63:src/KConsole.cpp ****         __asm__ volatile("lb a1, 0(a0)");
 338              		.loc 1 63 46 is_stmt 0
 339              	#APP
 340              	# 63 "src/KConsole.cpp" 1
  64:src/KConsole.cpp ****         uint64 operation;
 341              		mv a0, a5
 342              	# 0 "" 2
 343              		.loc 1 64 9 is_stmt 1
  64:src/KConsole.cpp ****         uint64 operation;
 344              		.loc 1 64 41 is_stmt 0
 345              	# 64 "src/KConsole.cpp" 1
  65:src/KConsole.cpp ****         __asm__ volatile("mv %0, a1" :  "=r"(operation));
 346              		lb a1, 0(a0)
 347              	# 0 "" 2
 348              		.loc 1 65 9 is_stmt 1
  66:src/KConsole.cpp ****         if(operation & STATUS_READ_MASK)
 349              		.loc 1 66 9
  66:src/KConsole.cpp ****         if(operation & STATUS_READ_MASK)
 350              		.loc 1 66 57 is_stmt 0
 351              	# 66 "src/KConsole.cpp" 1
 352              		mv a5, a1
 353              	# 0 "" 2
 354              	.LVL26:
  67:src/KConsole.cpp ****         {
 355              		.loc 1 67 9 is_stmt 1
 356              	#NO_APP
 357              	.LBB3:
  67:src/KConsole.cpp ****         {
 358              		.loc 1 67 22 is_stmt 0
 359 01e8 93F71700 		andi	a5,a5,1
 360              	.LVL27:
  67:src/KConsole.cpp ****         {
 361              		.loc 1 67 9
 362 01ec 63840706 		beqz	a5,.L29
 363              	.LBE3:
 364              	.LBE2:
  59:src/KConsole.cpp ****     while(true)
GAS LISTING /tmp/cczVw551.s 			page 10


 365              		.loc 1 59 1
 366 01f0 130101FF 		addi	sp,sp,-16
 367              		.cfi_def_cfa_offset 16
 368 01f4 23341100 		sd	ra,8(sp)
 369 01f8 23308100 		sd	s0,0(sp)
 370              		.cfi_offset 1, -8
 371              		.cfi_offset 8, -16
 372 01fc 13040101 		addi	s0,sp,16
 373              		.cfi_def_cfa 8, 0
 374              	.LVL28:
 375              	.L25:
 376              	.LBB7:
 377              	.LBB5:
 378              	.LBB4:
  69:src/KConsole.cpp ****             __asm__ volatile("mv a0, %0"::"r"(x));
 379              		.loc 1 69 13 is_stmt 1
  69:src/KConsole.cpp ****             __asm__ volatile("mv a0, %0"::"r"(x));
 380              		.loc 1 69 15 is_stmt 0
 381 0200 97070000 		la	a5,CONSOLE_TX_DATA
 381      83B70700 
 382 0208 83B70700 		ld	a5,0(a5)
 383              	.LVL29:
  70:src/KConsole.cpp ****             __asm__ volatile("lb a1,0(a0)");
 384              		.loc 1 70 13 is_stmt 1
  70:src/KConsole.cpp ****             __asm__ volatile("lb a1,0(a0)");
 385              		.loc 1 70 50 is_stmt 0
 386              	#APP
 387              	# 70 "src/KConsole.cpp" 1
  71:src/KConsole.cpp ****             char c;
 388              		mv a0, a5
 389              	# 0 "" 2
 390              		.loc 1 71 13 is_stmt 1
  71:src/KConsole.cpp ****             char c;
 391              		.loc 1 71 44 is_stmt 0
 392              	# 71 "src/KConsole.cpp" 1
  72:src/KConsole.cpp ****             __asm__ volatile("mv %0, a1" :  "=r"(c));
 393              		lb a1,0(a0)
 394              	# 0 "" 2
 395              		.loc 1 72 13 is_stmt 1
  73:src/KConsole.cpp ****             //putCharacterOutput(c);
 396              		.loc 1 73 13
  73:src/KConsole.cpp ****             //putCharacterOutput(c);
 397              		.loc 1 73 53 is_stmt 0
 398              	# 73 "src/KConsole.cpp" 1
 399              		mv a0, a1
 400              	# 0 "" 2
 401              	.LVL30:
  76:src/KConsole.cpp ****         }
 402              		.loc 1 76 13 is_stmt 1
  76:src/KConsole.cpp ****         }
 403              		.loc 1 76 30 is_stmt 0
 404              	#NO_APP
 405 0218 1375F50F 		andi	a0,a0,0xff
 406 021c 97000000 		call	_ZN8KConsole17putCharacterInputEc
 406      E7800000 
 407              	.LVL31:
 408              	.LBE4:
GAS LISTING /tmp/cczVw551.s 			page 11


 409              	.LBE5:
 410              	.LBE7:
  60:src/KConsole.cpp ****     {
 411              		.loc 1 60 5 is_stmt 1
  60:src/KConsole.cpp ****     {
 412              		.loc 1 60 5
 413              	.LBB8:
  62:src/KConsole.cpp ****         __asm__ volatile("mv a0, %0"::"r"(x));
 414              		.loc 1 62 9
  62:src/KConsole.cpp ****         __asm__ volatile("mv a0, %0"::"r"(x));
 415              		.loc 1 62 16 is_stmt 0
 416 0224 97070000 		la	a5,CONSOLE_STATUS
 416      83B70700 
 417 022c 83B70700 		ld	a5,0(a5)
 418              	.LVL32:
  63:src/KConsole.cpp ****         __asm__ volatile("lb a1, 0(a0)");
 419              		.loc 1 63 9 is_stmt 1
  63:src/KConsole.cpp ****         __asm__ volatile("lb a1, 0(a0)");
 420              		.loc 1 63 46 is_stmt 0
 421              	#APP
 422              	# 63 "src/KConsole.cpp" 1
  64:src/KConsole.cpp ****         uint64 operation;
 423              		mv a0, a5
 424              	# 0 "" 2
 425              		.loc 1 64 9 is_stmt 1
  64:src/KConsole.cpp ****         uint64 operation;
 426              		.loc 1 64 41 is_stmt 0
 427              	# 64 "src/KConsole.cpp" 1
  65:src/KConsole.cpp ****         __asm__ volatile("mv %0, a1" :  "=r"(operation));
 428              		lb a1, 0(a0)
 429              	# 0 "" 2
 430              		.loc 1 65 9 is_stmt 1
  66:src/KConsole.cpp ****         if(operation & STATUS_READ_MASK)
 431              		.loc 1 66 9
  66:src/KConsole.cpp ****         if(operation & STATUS_READ_MASK)
 432              		.loc 1 66 57 is_stmt 0
 433              	# 66 "src/KConsole.cpp" 1
 434              		mv a5, a1
 435              	# 0 "" 2
 436              	.LVL33:
  67:src/KConsole.cpp ****         {
 437              		.loc 1 67 9 is_stmt 1
 438              	#NO_APP
 439              	.LBB6:
  67:src/KConsole.cpp ****         {
 440              		.loc 1 67 22 is_stmt 0
 441 023c 93F71700 		andi	a5,a5,1
 442              	.LVL34:
  67:src/KConsole.cpp ****         {
 443              		.loc 1 67 9
 444 0240 E39007FC 		bnez	a5,.L25
 445              	.LBE6:
 446              	.LBE8:
  81:src/KConsole.cpp **** 
 447              		.loc 1 81 1
 448 0244 83308100 		ld	ra,8(sp)
 449              		.cfi_restore 1
GAS LISTING /tmp/cczVw551.s 			page 12


 450 0248 03340100 		ld	s0,0(sp)
 451              		.cfi_restore 8
 452              		.cfi_def_cfa 2, 16
 453 024c 13010101 		addi	sp,sp,16
 454              		.cfi_def_cfa_offset 0
 455 0250 67800000 		jr	ra
 456              	.LVL35:
 457              	.L29:
 458 0254 67800000 		ret
 459              		.cfi_endproc
 460              	.LFE27:
 462              		.align	2
 463              		.globl	_ZN8KConsole17getCharacterInputEv
 465              	_ZN8KConsole17getCharacterInputEv:
 466              	.LFB30:
 118:src/KConsole.cpp **** 
 119:src/KConsole.cpp **** char KConsole::getCharacterInput()
 120:src/KConsole.cpp **** {
 467              		.loc 1 120 1 is_stmt 1
 468              		.cfi_startproc
 469 0258 130101FF 		addi	sp,sp,-16
 470              		.cfi_def_cfa_offset 16
 471 025c 23341100 		sd	ra,8(sp)
 472 0260 23308100 		sd	s0,0(sp)
 473              		.cfi_offset 1, -8
 474              		.cfi_offset 8, -16
 475 0264 13040101 		addi	s0,sp,16
 476              		.cfi_def_cfa 8, 0
 121:src/KConsole.cpp ****     hasCharactersInput->wait();
 477              		.loc 1 121 5
 478              		.loc 1 121 29 is_stmt 0
 479 0268 17050000 		ld	a0,.LANCHOR0
 479      03350500 
 480 0270 97000000 		call	_ZN10KSemaphore4waitEv@plt
 480      E7800000 
 481              	.LVL36:
 122:src/KConsole.cpp ****     return getChar(headInput, tailInput);
 482              		.loc 1 122 5 is_stmt 1
 483              		.loc 1 122 19 is_stmt 0
 484 0278 97050000 		lla	a1,.LANCHOR0+16
 484      93850500 
 485 0280 17050000 		lla	a0,.LANCHOR0+24
 485      13050500 
 486 0288 97000000 		call	_ZN8KConsole7getCharERPNS_4ElemES2_
 486      E7800000 
 487              	.LVL37:
 123:src/KConsole.cpp **** }
 488              		.loc 1 123 1
 489 0290 83308100 		ld	ra,8(sp)
 490              		.cfi_restore 1
 491 0294 03340100 		ld	s0,0(sp)
 492              		.cfi_restore 8
 493              		.cfi_def_cfa 2, 16
 494 0298 13010101 		addi	sp,sp,16
 495              		.cfi_def_cfa_offset 0
 496 029c 67800000 		jr	ra
 497              		.cfi_endproc
GAS LISTING /tmp/cczVw551.s 			page 13


 498              	.LFE30:
 500              		.align	2
 501              		.globl	_ZN8KConsole18putCharacterOutputEc
 503              	_ZN8KConsole18putCharacterOutputEc:
 504              	.LFB31:
 124:src/KConsole.cpp **** 
 125:src/KConsole.cpp **** void KConsole::putCharacterOutput(char c)
 126:src/KConsole.cpp **** {
 505              		.loc 1 126 1 is_stmt 1
 506              		.cfi_startproc
 507              	.LVL38:
 508 02a0 130101FF 		addi	sp,sp,-16
 509              		.cfi_def_cfa_offset 16
 510 02a4 23341100 		sd	ra,8(sp)
 511 02a8 23308100 		sd	s0,0(sp)
 512              		.cfi_offset 1, -8
 513              		.cfi_offset 8, -16
 514 02ac 13040101 		addi	s0,sp,16
 515              		.cfi_def_cfa 8, 0
 127:src/KConsole.cpp ****     putChar(c, headOutput, tailOutput);
 516              		.loc 1 127 5
 517              		.loc 1 127 12 is_stmt 0
 518 02b0 17060000 		lla	a2,.LANCHOR0+32
 518      13060600 
 519 02b8 97050000 		lla	a1,.LANCHOR0+40
 519      93850500 
 520 02c0 97000000 		call	_ZN8KConsole7putCharEcRPNS_4ElemES2_
 520      E7800000 
 521              	.LVL39:
 128:src/KConsole.cpp ****     hasCharactersOutput->signal();
 522              		.loc 1 128 5 is_stmt 1
 523              		.loc 1 128 32 is_stmt 0
 524 02c8 17050000 		ld	a0,.LANCHOR0+8
 524      03350500 
 525 02d0 97000000 		call	_ZN10KSemaphore6signalEv@plt
 525      E7800000 
 526              	.LVL40:
 129:src/KConsole.cpp **** }
 527              		.loc 1 129 1
 528 02d8 83308100 		ld	ra,8(sp)
 529              		.cfi_restore 1
 530 02dc 03340100 		ld	s0,0(sp)
 531              		.cfi_restore 8
 532              		.cfi_def_cfa 2, 16
 533 02e0 13010101 		addi	sp,sp,16
 534              		.cfi_def_cfa_offset 0
 535 02e4 67800000 		jr	ra
 536              		.cfi_endproc
 537              	.LFE31:
 539              		.align	2
 540              		.globl	_ZN8KConsole18getCharacterOutputEv
 542              	_ZN8KConsole18getCharacterOutputEv:
 543              	.LFB32:
 130:src/KConsole.cpp **** 
 131:src/KConsole.cpp **** char KConsole::getCharacterOutput()
 132:src/KConsole.cpp **** {
 544              		.loc 1 132 1 is_stmt 1
GAS LISTING /tmp/cczVw551.s 			page 14


 545              		.cfi_startproc
 546 02e8 130101FF 		addi	sp,sp,-16
 547              		.cfi_def_cfa_offset 16
 548 02ec 23341100 		sd	ra,8(sp)
 549 02f0 23308100 		sd	s0,0(sp)
 550              		.cfi_offset 1, -8
 551              		.cfi_offset 8, -16
 552 02f4 13040101 		addi	s0,sp,16
 553              		.cfi_def_cfa 8, 0
 133:src/KConsole.cpp ****     hasCharactersOutput->wait();
 554              		.loc 1 133 5
 555              		.loc 1 133 30 is_stmt 0
 556 02f8 17050000 		ld	a0,.LANCHOR0+8
 556      03350500 
 557 0300 97000000 		call	_ZN10KSemaphore4waitEv@plt
 557      E7800000 
 558              	.LVL41:
 134:src/KConsole.cpp ****     return getChar(headOutput, tailOutput);
 559              		.loc 1 134 5 is_stmt 1
 560              		.loc 1 134 19 is_stmt 0
 561 0308 97050000 		lla	a1,.LANCHOR0+32
 561      93850500 
 562 0310 17050000 		lla	a0,.LANCHOR0+40
 562      13050500 
 563 0318 97000000 		call	_ZN8KConsole7getCharERPNS_4ElemES2_
 563      E7800000 
 564              	.LVL42:
 135:src/KConsole.cpp **** }
 565              		.loc 1 135 1
 566 0320 83308100 		ld	ra,8(sp)
 567              		.cfi_restore 1
 568 0324 03340100 		ld	s0,0(sp)
 569              		.cfi_restore 8
 570              		.cfi_def_cfa 2, 16
 571 0328 13010101 		addi	sp,sp,16
 572              		.cfi_def_cfa_offset 0
 573 032c 67800000 		jr	ra
 574              		.cfi_endproc
 575              	.LFE32:
 577              		.align	2
 578              		.globl	_ZN8KConsole23sendCharactersToConsoleEPv
 580              	_ZN8KConsole23sendCharactersToConsoleEPv:
 581              	.LFB28:
  84:src/KConsole.cpp ****     while(true)
 582              		.loc 1 84 1 is_stmt 1
 583              		.cfi_startproc
 584              	.LVL43:
 585              	.L41:
  85:src/KConsole.cpp ****     {
 586              		.loc 1 85 5
 587              	.LBB9:
  88:src/KConsole.cpp ****             __asm__ volatile("mv a0, %0"::"r"(x));
 588              		.loc 1 88 13
  88:src/KConsole.cpp ****             __asm__ volatile("mv a0, %0"::"r"(x));
 589              		.loc 1 88 20 is_stmt 0
 590 0330 97070000 		la	a5,CONSOLE_STATUS
 590      83B70700 
GAS LISTING /tmp/cczVw551.s 			page 15


 591 0338 83B70700 		ld	a5,0(a5)
 592              	.LVL44:
  89:src/KConsole.cpp ****             __asm__ volatile("lb a1, 0(a0)");
 593              		.loc 1 89 13 is_stmt 1
  89:src/KConsole.cpp ****             __asm__ volatile("lb a1, 0(a0)");
 594              		.loc 1 89 50 is_stmt 0
 595              	#APP
 596              	# 89 "src/KConsole.cpp" 1
  90:src/KConsole.cpp ****             uint64 operation;
 597              		mv a0, a5
 598              	# 0 "" 2
 599              		.loc 1 90 13 is_stmt 1
  90:src/KConsole.cpp ****             uint64 operation;
 600              		.loc 1 90 45 is_stmt 0
 601              	# 90 "src/KConsole.cpp" 1
  91:src/KConsole.cpp ****             __asm__ volatile("mv %0, a1" :  "=r"(operation));
 602              		lb a1, 0(a0)
 603              	# 0 "" 2
 604              		.loc 1 91 13 is_stmt 1
  92:src/KConsole.cpp ****             if (operation & STATUS_WRITE_MASK)
 605              		.loc 1 92 13
  92:src/KConsole.cpp ****             if (operation & STATUS_WRITE_MASK)
 606              		.loc 1 92 61 is_stmt 0
 607              	# 92 "src/KConsole.cpp" 1
 608              		mv a5, a1
 609              	# 0 "" 2
 610              	.LVL45:
  93:src/KConsole.cpp ****             {
 611              		.loc 1 93 13 is_stmt 1
 612              	#NO_APP
 613              	.LBB10:
  93:src/KConsole.cpp ****             {
 614              		.loc 1 93 27 is_stmt 0
 615 0348 93F70702 		andi	a5,a5,32
 616              	.LVL46:
  93:src/KConsole.cpp ****             {
 617              		.loc 1 93 13
 618 034c E38207FE 		beqz	a5,.L41
 619              	.LBE10:
 620              	.LBE9:
  84:src/KConsole.cpp ****     while(true)
 621              		.loc 1 84 1
 622 0350 130101FE 		addi	sp,sp,-32
 623              		.cfi_def_cfa_offset 32
 624 0354 233C1100 		sd	ra,24(sp)
 625 0358 23388100 		sd	s0,16(sp)
 626              		.cfi_offset 1, -8
 627              		.cfi_offset 8, -16
 628 035c 13040102 		addi	s0,sp,32
 629              		.cfi_def_cfa 8, 0
 630              	.LVL47:
 631              	.L40:
 632              	.LBB14:
 633              	.LBB12:
 634              	.LBB11:
  97:src/KConsole.cpp ****                 //Riscv::printInteger(c);
 635              		.loc 1 97 17 is_stmt 1
GAS LISTING /tmp/cczVw551.s 			page 16


  97:src/KConsole.cpp ****                 //Riscv::printInteger(c);
 636              		.loc 1 97 53 is_stmt 0
 637 0360 97000000 		call	_ZN8KConsole18getCharacterOutputEv
 637      E7800000 
 638              	.LVL48:
  97:src/KConsole.cpp ****                 //Riscv::printInteger(c);
 639              		.loc 1 97 54
 640 0368 A307A4FE 		sb	a0,-17(s0)
 103:src/KConsole.cpp ****                 __asm__ volatile("mv a0, %0"::"r"(x));
 641              		.loc 1 103 17 is_stmt 1
 103:src/KConsole.cpp ****                 __asm__ volatile("mv a0, %0"::"r"(x));
 642              		.loc 1 103 19 is_stmt 0
 643 036c 97070000 		la	a5,CONSOLE_RX_DATA
 643      83B70700 
 644 0374 83B70700 		ld	a5,0(a5)
 645              	.LVL49:
 104:src/KConsole.cpp ****                 __asm__ volatile("mv a1, %0" :  :"r"((uint64)c));
 646              		.loc 1 104 17 is_stmt 1
 104:src/KConsole.cpp ****                 __asm__ volatile("mv a1, %0" :  :"r"((uint64)c));
 647              		.loc 1 104 54 is_stmt 0
 648              	#APP
 649              	# 104 "src/KConsole.cpp" 1
 105:src/KConsole.cpp ****                 __asm__ volatile("sb a1,0(a0)");
 650              		mv a0, a5
 651              	# 0 "" 2
 652              		.loc 1 105 17 is_stmt 1
 105:src/KConsole.cpp ****                 __asm__ volatile("sb a1,0(a0)");
 653              		.loc 1 105 54 is_stmt 0
 654              	#NO_APP
 655 037c 8347F4FE 		lbu	a5,-17(s0)
 656              	.LVL50:
 657 0380 93F7F70F 		andi	a5,a5,0xff
 105:src/KConsole.cpp ****                 __asm__ volatile("sb a1,0(a0)");
 658              		.loc 1 105 65
 659              	#APP
 660              	# 105 "src/KConsole.cpp" 1
 106:src/KConsole.cpp ****             }
 661              		mv a1, a5
 662              	# 0 "" 2
 663              		.loc 1 106 17 is_stmt 1
 106:src/KConsole.cpp ****             }
 664              		.loc 1 106 48 is_stmt 0
 665              	# 106 "src/KConsole.cpp" 1
 666              		sb a1,0(a0)
 667              	# 0 "" 2
 668              	.LVL51:
 669              	#NO_APP
 670              	.L37:
 671              	.LBE11:
 672              	.LBE12:
 673              	.LBE14:
  85:src/KConsole.cpp ****     {
 674              		.loc 1 85 5 is_stmt 1
 675              	.LBB15:
  88:src/KConsole.cpp ****             __asm__ volatile("mv a0, %0"::"r"(x));
 676              		.loc 1 88 13
  88:src/KConsole.cpp ****             __asm__ volatile("mv a0, %0"::"r"(x));
GAS LISTING /tmp/cczVw551.s 			page 17


 677              		.loc 1 88 20 is_stmt 0
 678 038c 97070000 		la	a5,CONSOLE_STATUS
 678      83B70700 
 679 0394 83B70700 		ld	a5,0(a5)
 680              	.LVL52:
  89:src/KConsole.cpp ****             __asm__ volatile("lb a1, 0(a0)");
 681              		.loc 1 89 13 is_stmt 1
  89:src/KConsole.cpp ****             __asm__ volatile("lb a1, 0(a0)");
 682              		.loc 1 89 50 is_stmt 0
 683              	#APP
 684              	# 89 "src/KConsole.cpp" 1
  90:src/KConsole.cpp ****             uint64 operation;
 685              		mv a0, a5
 686              	# 0 "" 2
 687              		.loc 1 90 13 is_stmt 1
  90:src/KConsole.cpp ****             uint64 operation;
 688              		.loc 1 90 45 is_stmt 0
 689              	# 90 "src/KConsole.cpp" 1
  91:src/KConsole.cpp ****             __asm__ volatile("mv %0, a1" :  "=r"(operation));
 690              		lb a1, 0(a0)
 691              	# 0 "" 2
 692              		.loc 1 91 13 is_stmt 1
  92:src/KConsole.cpp ****             if (operation & STATUS_WRITE_MASK)
 693              		.loc 1 92 13
  92:src/KConsole.cpp ****             if (operation & STATUS_WRITE_MASK)
 694              		.loc 1 92 61 is_stmt 0
 695              	# 92 "src/KConsole.cpp" 1
 696              		mv a5, a1
 697              	# 0 "" 2
 698              	.LVL53:
  93:src/KConsole.cpp ****             {
 699              		.loc 1 93 13 is_stmt 1
 700              	#NO_APP
 701              	.LBB13:
  93:src/KConsole.cpp ****             {
 702              		.loc 1 93 27 is_stmt 0
 703 03a4 93F70702 		andi	a5,a5,32
 704              	.LVL54:
  93:src/KConsole.cpp ****             {
 705              		.loc 1 93 13
 706 03a8 E38207FE 		beqz	a5,.L37
 707 03ac 6FF05FFB 		j	.L40
 708              	.LBE13:
 709              	.LBE15:
 710              		.cfi_endproc
 711              	.LFE28:
 713              		.align	2
 714              		.globl	_ZN8KConsole11putcHandlerEv
 716              	_ZN8KConsole11putcHandlerEv:
 717              	.LFB33:
 136:src/KConsole.cpp **** 
 137:src/KConsole.cpp **** void KConsole::putcHandler()
 138:src/KConsole.cpp **** {
 718              		.loc 1 138 1 is_stmt 1
 719              		.cfi_startproc
 720 03b0 130101FF 		addi	sp,sp,-16
 721              		.cfi_def_cfa_offset 16
GAS LISTING /tmp/cczVw551.s 			page 18


 722 03b4 23341100 		sd	ra,8(sp)
 723 03b8 23308100 		sd	s0,0(sp)
 724              		.cfi_offset 1, -8
 725              		.cfi_offset 8, -16
 726 03bc 13040101 		addi	s0,sp,16
 727              		.cfi_def_cfa 8, 0
 139:src/KConsole.cpp ****     uint64 ch;
 728              		.loc 1 139 5
 140:src/KConsole.cpp ****     __asm__ volatile("mv %0, a1" : "=r"(ch));
 729              		.loc 1 140 5
 730              		.loc 1 140 45 is_stmt 0
 731              	#APP
 732              	# 140 "src/KConsole.cpp" 1
 141              	    //Riscv::printString("stavio ");
 733              		mv a0, a1
 734              	# 0 "" 2
 735              	.LVL55:
 142:src/KConsole.cpp ****     //Riscv::printInteger((char)ch);
 143:src/KConsole.cpp ****     putCharacterOutput((char)ch);
 736              		.loc 1 143 5 is_stmt 1
 737              		.loc 1 143 23 is_stmt 0
 738              	#NO_APP
 739 03c4 1375F50F 		andi	a0,a0,0xff
 740              	.LVL56:
 741 03c8 97000000 		call	_ZN8KConsole18putCharacterOutputEc
 741      E7800000 
 742              	.LVL57:
 144:src/KConsole.cpp ****     //Riscv::printString("Bafer\n");
 145:src/KConsole.cpp ****     Elem* curr = headOutput;
 743              		.loc 1 145 5 is_stmt 1
 744              		.loc 1 145 11 is_stmt 0
 745 03d0 97070000 		ld	a5,.LANCHOR0+40
 745      83B70700 
 746              	.LVL58:
 747              	.L44:
 146:src/KConsole.cpp ****     while(curr != 0)
 748              		.loc 1 146 5 is_stmt 1
 749              		.loc 1 146 16
 750 03d8 63860700 		beqz	a5,.L42
 147:src/KConsole.cpp ****     {
 148:src/KConsole.cpp ****         //Riscv::printInteger(curr->data);
 149:src/KConsole.cpp ****         curr = curr->next;
 751              		.loc 1 149 9
 752              		.loc 1 149 14 is_stmt 0
 753 03dc 83B70700 		ld	a5,0(a5)
 754              	.LVL59:
 146:src/KConsole.cpp ****     while(curr != 0)
 755              		.loc 1 146 5
 756 03e0 6FF09FFF 		j	.L44
 757              	.L42:
 150:src/KConsole.cpp ****     }
 151:src/KConsole.cpp ****     //Riscv::printString("Kraj bafera\n");
 152:src/KConsole.cpp **** }
 758              		.loc 1 152 1
 759 03e4 83308100 		ld	ra,8(sp)
 760              		.cfi_restore 1
 761 03e8 03340100 		ld	s0,0(sp)
GAS LISTING /tmp/cczVw551.s 			page 19


 762              		.cfi_restore 8
 763              		.cfi_def_cfa 2, 16
 764 03ec 13010101 		addi	sp,sp,16
 765              		.cfi_def_cfa_offset 0
 766 03f0 67800000 		jr	ra
 767              		.cfi_endproc
 768              	.LFE33:
 770              		.align	2
 771              		.globl	_ZN8KConsole11getcHandlerEv
 773              	_ZN8KConsole11getcHandlerEv:
 774              	.LFB34:
 153:src/KConsole.cpp **** 
 154:src/KConsole.cpp **** void KConsole::getcHandler()
 155:src/KConsole.cpp **** {
 775              		.loc 1 155 1 is_stmt 1
 776              		.cfi_startproc
 777 03f4 130101FF 		addi	sp,sp,-16
 778              		.cfi_def_cfa_offset 16
 779 03f8 23341100 		sd	ra,8(sp)
 780 03fc 23308100 		sd	s0,0(sp)
 781              		.cfi_offset 1, -8
 782              		.cfi_offset 8, -16
 783 0400 13040101 		addi	s0,sp,16
 784              		.cfi_def_cfa 8, 0
 156:src/KConsole.cpp ****     char ch;
 785              		.loc 1 156 5
 157:src/KConsole.cpp ****     ch = getCharacterInput();
 786              		.loc 1 157 5
 787              		.loc 1 157 27 is_stmt 0
 788 0404 97000000 		call	_ZN8KConsole17getCharacterInputEv
 788      E7800000 
 789              	.LVL60:
 158:src/KConsole.cpp ****     //putCharacterOutput(ch);
 159:src/KConsole.cpp ****     //while((ch = getCharacterInput()) == 0){}
 160:src/KConsole.cpp ****     __asm__ volatile("mv a0, %0" : :"r"((uint64)ch));
 790              		.loc 1 160 5 is_stmt 1
 791              		.loc 1 160 53 is_stmt 0
 792              	#APP
 793              	# 160 "src/KConsole.cpp" 1
 161              	}
 794              		mv a0, a0
 795              	# 0 "" 2
 796              		.loc 1 161 1
 797              	#NO_APP
 798 0410 83308100 		ld	ra,8(sp)
 799              		.cfi_restore 1
 800 0414 03340100 		ld	s0,0(sp)
 801              		.cfi_restore 8
 802              		.cfi_def_cfa 2, 16
 803 0418 13010101 		addi	sp,sp,16
 804              		.cfi_def_cfa_offset 0
 805 041c 67800000 		jr	ra
 806              		.cfi_endproc
 807              	.LFE34:
 809              		.align	2
 810              		.globl	_ZN8KConsole3ackEv
 812              	_ZN8KConsole3ackEv:
GAS LISTING /tmp/cczVw551.s 			page 20


 813              	.LFB35:
 162:src/KConsole.cpp **** 
 163:src/KConsole.cpp **** void KConsole::ack()
 164:src/KConsole.cpp **** {
 814              		.loc 1 164 1 is_stmt 1
 815              		.cfi_startproc
 816 0420 130101FF 		addi	sp,sp,-16
 817              		.cfi_def_cfa_offset 16
 818 0424 23348100 		sd	s0,8(sp)
 819              		.cfi_offset 8, -8
 820 0428 13040101 		addi	s0,sp,16
 821              		.cfi_def_cfa 8, 0
 165:src/KConsole.cpp ****     //Riscv::printString("!!!!!!!!!!!!!!!!!!!!!!!!!!!!!!!\n");
 166:src/KConsole.cpp ****     uint64 x = CONSOLE_STATUS;
 822              		.loc 1 166 5
 823              		.loc 1 166 12 is_stmt 0
 824 042c 97070000 		la	a5,CONSOLE_STATUS
 824      83B70700 
 825 0434 83B70700 		ld	a5,0(a5)
 826              	.LVL61:
 167:src/KConsole.cpp ****     __asm__ volatile("mv a0, %0"::"r"(x));
 827              		.loc 1 167 5 is_stmt 1
 828              		.loc 1 167 42 is_stmt 0
 829              	#APP
 830              	# 167 "src/KConsole.cpp" 1
 168              	    __asm__ volatile("lb a1, 0(a0)");
 831              		mv a0, a5
 832              	# 0 "" 2
 833              		.loc 1 168 5 is_stmt 1
 834              		.loc 1 168 37 is_stmt 0
 835              	# 168 "src/KConsole.cpp" 1
 169              	    uint64 operation;
 836              		lb a1, 0(a0)
 837              	# 0 "" 2
 838              		.loc 1 169 5 is_stmt 1
 170:src/KConsole.cpp ****     __asm__ volatile("mv %0, a1" :  "=r"(operation));
 839              		.loc 1 170 5
 840              		.loc 1 170 53 is_stmt 0
 841              	# 170 "src/KConsole.cpp" 1
 171              	    //Riscv::printInteger(operation);
 842              		mv a5, a1
 843              	# 0 "" 2
 844              	.LVL62:
 172:src/KConsole.cpp ****     if(operation & STATUS_WRITE_MASK)
 845              		.loc 1 172 5 is_stmt 1
 846              		.loc 1 172 18 is_stmt 0
 847              	#NO_APP
 848 0444 93F70702 		andi	a5,a5,32
 849              	.LVL63:
 850              		.loc 1 172 5
 851 0448 638C0700 		beqz	a5,.L48
 173:src/KConsole.cpp ****     {
 174:src/KConsole.cpp ****         cntWInterrupt++;
 852              		.loc 1 174 9 is_stmt 1
 853              		.loc 1 174 22 is_stmt 0
 854 044c 17070000 		lla	a4,.LANCHOR0
 854      13070700 
GAS LISTING /tmp/cczVw551.s 			page 21


 855 0454 83270703 		lw	a5,48(a4)
 856 0458 9B871700 		addiw	a5,a5,1
 857 045c 2328F702 		sw	a5,48(a4)
 858              	.L48:
 175:src/KConsole.cpp ****     }
 176:src/KConsole.cpp **** }
 859              		.loc 1 176 1
 860 0460 03348100 		ld	s0,8(sp)
 861              		.cfi_restore 8
 862              		.cfi_def_cfa 2, 16
 863 0464 13010101 		addi	sp,sp,16
 864              		.cfi_def_cfa_offset 0
 865 0468 67800000 		jr	ra
 866              		.cfi_endproc
 867              	.LFE35:
 869              		.align	2
 870              		.globl	_ZN8KConsole11printBufferEv
 872              	_ZN8KConsole11printBufferEv:
 873              	.LFB36:
 177:src/KConsole.cpp **** 
 178:src/KConsole.cpp **** void KConsole::printBuffer()
 179:src/KConsole.cpp **** {
 874              		.loc 1 179 1 is_stmt 1
 875              		.cfi_startproc
 876 046c 130101FE 		addi	sp,sp,-32
 877              		.cfi_def_cfa_offset 32
 878 0470 233C1100 		sd	ra,24(sp)
 879 0474 23388100 		sd	s0,16(sp)
 880 0478 23349100 		sd	s1,8(sp)
 881              		.cfi_offset 1, -8
 882              		.cfi_offset 8, -16
 883              		.cfi_offset 9, -24
 884 047c 13040102 		addi	s0,sp,32
 885              		.cfi_def_cfa 8, 0
 180:src/KConsole.cpp ****     Elem* curr = headInput;
 886              		.loc 1 180 5
 887              		.loc 1 180 11 is_stmt 0
 888 0480 97040000 		ld	s1,.LANCHOR0+24
 888      83B40400 
 889              	.LVL64:
 890              	.L53:
 181:src/KConsole.cpp ****     while(curr != 0)
 891              		.loc 1 181 5 is_stmt 1
 892              		.loc 1 181 16
 893 0488 638C0400 		beqz	s1,.L51
 182:src/KConsole.cpp ****     {
 183:src/KConsole.cpp ****         putc(curr->data);
 894              		.loc 1 183 9
 895              		.loc 1 183 13 is_stmt 0
 896 048c 03C58400 		lbu	a0,8(s1)
 897 0490 97000000 		call	putc@plt
 897      E7800000 
 898              	.LVL65:
 184:src/KConsole.cpp ****         curr = curr->next;
 899              		.loc 1 184 9 is_stmt 1
 900              		.loc 1 184 14 is_stmt 0
 901 0498 83B40400 		ld	s1,0(s1)
GAS LISTING /tmp/cczVw551.s 			page 22


 902              	.LVL66:
 181:src/KConsole.cpp ****     while(curr != 0)
 903              		.loc 1 181 5
 904 049c 6FF0DFFE 		j	.L53
 905              	.L51:
 185:src/KConsole.cpp ****     }
 186:src/KConsole.cpp **** }
 906              		.loc 1 186 1
 907 04a0 83308101 		ld	ra,24(sp)
 908              		.cfi_restore 1
 909 04a4 03340101 		ld	s0,16(sp)
 910              		.cfi_restore 8
 911              		.cfi_def_cfa 2, 32
 912 04a8 83348100 		ld	s1,8(sp)
 913              		.cfi_restore 9
 914              	.LVL67:
 915 04ac 13010102 		addi	sp,sp,32
 916              		.cfi_def_cfa_offset 0
 917 04b0 67800000 		jr	ra
 918              		.cfi_endproc
 919              	.LFE36:
 921              		.globl	_ZN8KConsole13cntWInterruptE
 922              		.globl	_ZN8KConsole18hasCharactersInputE
 923              		.globl	_ZN8KConsole19hasCharactersOutputE
 924              		.globl	_ZN8KConsole10tailOutputE
 925              		.globl	_ZN8KConsole10headOutputE
 926              		.globl	_ZN8KConsole9tailInputE
 927              		.globl	_ZN8KConsole9headInputE
 928              		.bss
 929              		.align	3
 930              		.set	.LANCHOR0,. + 0
 933              	_ZN8KConsole18hasCharactersInputE:
 934 0000 00000000 		.zero	8
 934      00000000 
 937              	_ZN8KConsole19hasCharactersOutputE:
 938 0008 00000000 		.zero	8
 938      00000000 
 941              	_ZN8KConsole9tailInputE:
 942 0010 00000000 		.zero	8
 942      00000000 
 945              	_ZN8KConsole9headInputE:
 946 0018 00000000 		.zero	8
 946      00000000 
 949              	_ZN8KConsole10tailOutputE:
 950 0020 00000000 		.zero	8
 950      00000000 
 953              	_ZN8KConsole10headOutputE:
 954 0028 00000000 		.zero	8
 954      00000000 
 957              	_ZN8KConsole13cntWInterruptE:
 958 0030 00000000 		.zero	4
 959              		.text
 960              	.Letext0:
 961              		.file 2 "src/../h/../lib/hw.h"
 962              		.file 3 "src/../h/PCB.hpp"
 963              		.file 4 "src/../h/KSemaphore.hpp"
 964              		.file 5 "src/../h/KConsole.hpp"
GAS LISTING /tmp/cczVw551.s 			page 23


 965              		.file 6 "src/../h/syscall_c.h"
 966              		.file 7 "src/../h/MemoryAllocator.hpp"
 4297              		.align	3
 4300              	DW.ref.__gxx_personality_v0:
 4301 0000 00000000 		.dword	__gxx_personality_v0
 4301      00000000 
 4302              		.ident	"GCC: (Ubuntu 9.3.0-17ubuntu1~20.04) 9.3.0"
 4303              		.section	.note.GNU-stack,"",@progbits
GAS LISTING /tmp/cczVw551.s 			page 24


DEFINED SYMBOLS
                            *ABS*:0000000000000000 KConsole.cpp
     /tmp/cczVw551.s:9      .text:0000000000000000 _ZN8KConsole7putCharEcRPNS_4ElemES2_
     /tmp/cczVw551.s:13     .text:0000000000000000 .L0 
     /tmp/cczVw551.s:15     .text:0000000000000000 .L0 
     /tmp/cczVw551.s:16     .text:0000000000000004 .L0 
     /tmp/cczVw551.s:22     .text:0000000000000018 .L0 
     /tmp/cczVw551.s:23     .text:0000000000000018 .L0 
     /tmp/cczVw551.s:24     .text:0000000000000018 .L0 
     /tmp/cczVw551.s:25     .text:0000000000000018 .L0 
     /tmp/cczVw551.s:26     .text:0000000000000018 .L0 
     /tmp/cczVw551.s:28     .text:000000000000001c .L0 
     /tmp/cczVw551.s:33     .text:0000000000000028 .L0 
     /tmp/cczVw551.s:34     .text:0000000000000028 .L0 
     /tmp/cczVw551.s:39     .text:0000000000000034 .L0 
     /tmp/cczVw551.s:40     .text:0000000000000034 .L0 
     /tmp/cczVw551.s:42     .text:0000000000000038 .L0 
     /tmp/cczVw551.s:43     .text:0000000000000038 .L0 
     /tmp/cczVw551.s:45     .text:000000000000003c .L0 
     /tmp/cczVw551.s:46     .text:000000000000003c .L0 
     /tmp/cczVw551.s:48     .text:0000000000000040 .L0 
     /tmp/cczVw551.s:50     .text:0000000000000044 .L0 
     /tmp/cczVw551.s:52     .text:0000000000000048 .L0 
     /tmp/cczVw551.s:54     .text:000000000000004c .L0 
     /tmp/cczVw551.s:55     .text:000000000000004c .L0 
     /tmp/cczVw551.s:58     .text:0000000000000050 .L0 
     /tmp/cczVw551.s:59     .text:0000000000000054 .L0 
     /tmp/cczVw551.s:60     .text:0000000000000054 .L0 
     /tmp/cczVw551.s:62     .text:0000000000000058 .L0 
     /tmp/cczVw551.s:63     .text:0000000000000058 .L0 
     /tmp/cczVw551.s:65     .text:000000000000005c .L0 
     /tmp/cczVw551.s:68     .text:0000000000000060 .L0 
     /tmp/cczVw551.s:71     .text:0000000000000064 .L0 
     /tmp/cczVw551.s:73     .text:0000000000000068 .L0 
     /tmp/cczVw551.s:77     .text:000000000000006c .L0 
     /tmp/cczVw551.s:79     .text:000000000000006c .L0 
     /tmp/cczVw551.s:80     .text:000000000000006c .L0 
     /tmp/cczVw551.s:82     .text:0000000000000070 .L0 
     /tmp/cczVw551.s:84     .text:0000000000000078 .L0 
     /tmp/cczVw551.s:90     .text:0000000000000078 _ZN8KConsole7getCharERPNS_4ElemES2_
     /tmp/cczVw551.s:93     .text:0000000000000078 .L0 
     /tmp/cczVw551.s:95     .text:0000000000000078 .L0 
     /tmp/cczVw551.s:96     .text:000000000000007c .L0 
     /tmp/cczVw551.s:100    .text:0000000000000088 .L0 
     /tmp/cczVw551.s:101    .text:0000000000000088 .L0 
     /tmp/cczVw551.s:102    .text:0000000000000088 .L0 
     /tmp/cczVw551.s:104    .text:000000000000008c .L0 
     /tmp/cczVw551.s:107    .text:0000000000000090 .L0 
     /tmp/cczVw551.s:108    .text:0000000000000090 .L0 
     /tmp/cczVw551.s:111    .text:0000000000000094 .L0 
     /tmp/cczVw551.s:114    .text:0000000000000098 .L0 
     /tmp/cczVw551.s:115    .text:0000000000000098 .L0 
     /tmp/cczVw551.s:116    .text:0000000000000098 .L0 
     /tmp/cczVw551.s:118    .text:000000000000009c .L0 
     /tmp/cczVw551.s:120    .text:00000000000000a0 .L0 
     /tmp/cczVw551.s:123    .text:00000000000000a4 .L0 
     /tmp/cczVw551.s:124    .text:00000000000000a4 .L0 
GAS LISTING /tmp/cczVw551.s 			page 25


     /tmp/cczVw551.s:127    .text:00000000000000a8 .L0 
     /tmp/cczVw551.s:128    .text:00000000000000a8 .L0 
     /tmp/cczVw551.s:132    .text:00000000000000b0 .L0 
     /tmp/cczVw551.s:133    .text:00000000000000b0 .L0 
     /tmp/cczVw551.s:135    .text:00000000000000b8 .L0 
     /tmp/cczVw551.s:136    .text:00000000000000b8 .L0 
     /tmp/cczVw551.s:138    .text:00000000000000bc .L0 
     /tmp/cczVw551.s:139    .text:00000000000000bc .L0 
     /tmp/cczVw551.s:141    .text:00000000000000c0 .L0 
     /tmp/cczVw551.s:143    .text:00000000000000c4 .L0 
     /tmp/cczVw551.s:147    .text:00000000000000c8 .L0 
     /tmp/cczVw551.s:149    .text:00000000000000c8 .L0 
     /tmp/cczVw551.s:150    .text:00000000000000c8 .L0 
     /tmp/cczVw551.s:155    .text:00000000000000d0 .L0 
     /tmp/cczVw551.s:157    .text:00000000000000d8 .L0 
     /tmp/cczVw551.s:163    .text:00000000000000d8 _ZN8KConsole10initializeEv
     /tmp/cczVw551.s:166    .text:00000000000000d8 .L0 
     /tmp/cczVw551.s:4300   .data.rel.local.DW.ref.__gxx_personality_v0:0000000000000000 DW.ref.__gxx_personality_v0
     /tmp/cczVw551.s:169    .text:00000000000000d8 .L0 
     /tmp/cczVw551.s:170    .text:00000000000000dc .L0 
     /tmp/cczVw551.s:175    .text:00000000000000ec .L0 
     /tmp/cczVw551.s:176    .text:00000000000000ec .L0 
     /tmp/cczVw551.s:177    .text:00000000000000ec .L0 
     /tmp/cczVw551.s:178    .text:00000000000000ec .L0 
     /tmp/cczVw551.s:180    .text:00000000000000f0 .L0 
     /tmp/cczVw551.s:182    .text:00000000000000f0 .L0 
     /tmp/cczVw551.s:183    .text:00000000000000f0 .L0 
     /tmp/cczVw551.s:195    .text:000000000000010c .L0 
     /tmp/cczVw551.s:197    .text:0000000000000114 .L0 
     /tmp/cczVw551.s:198    .text:0000000000000114 .L0 
     /tmp/cczVw551.s:210    .text:0000000000000130 .L0 
     /tmp/cczVw551.s:212    .text:0000000000000138 .L0 
     /tmp/cczVw551.s:213    .text:000000000000013c .L0 
     /tmp/cczVw551.s:214    .text:000000000000013c .L0 
     /tmp/cczVw551.s:216    .text:0000000000000140 .L0 
     /tmp/cczVw551.s:217    .text:0000000000000140 .L0 
     /tmp/cczVw551.s:219    .text:0000000000000144 .L0 
     /tmp/cczVw551.s:221    .text:0000000000000148 .L0 
     /tmp/cczVw551.s:223    .text:000000000000014c .L0 
     /tmp/cczVw551.s:226    .text:0000000000000150 .L0 
     /tmp/cczVw551.s:229    .text:0000000000000154 .L0 
     /tmp/cczVw551.s:240    .text:0000000000000170 .L0 
     /tmp/cczVw551.s:248    .text:0000000000000188 .L0 
     /tmp/cczVw551.s:286    .text:0000000000000188 _ZN8KConsole17putCharacterInputEc
     /tmp/cczVw551.s:289    .text:0000000000000188 .L0 
     /tmp/cczVw551.s:291    .text:0000000000000188 .L0 
     /tmp/cczVw551.s:292    .text:000000000000018c .L0 
     /tmp/cczVw551.s:295    .text:0000000000000194 .L0 
     /tmp/cczVw551.s:296    .text:0000000000000194 .L0 
     /tmp/cczVw551.s:298    .text:0000000000000198 .L0 
     /tmp/cczVw551.s:300    .text:0000000000000198 .L0 
     /tmp/cczVw551.s:301    .text:0000000000000198 .L0 
     /tmp/cczVw551.s:306    .text:00000000000001b0 .L0 
     /tmp/cczVw551.s:307    .text:00000000000001b0 .L0 
     /tmp/cczVw551.s:311    .text:00000000000001c0 .L0 
     /tmp/cczVw551.s:312    .text:00000000000001c4 .L0 
     /tmp/cczVw551.s:314    .text:00000000000001c8 .L0 
GAS LISTING /tmp/cczVw551.s 			page 26


     /tmp/cczVw551.s:315    .text:00000000000001c8 .L0 
     /tmp/cczVw551.s:317    .text:00000000000001cc .L0 
     /tmp/cczVw551.s:319    .text:00000000000001d0 .L0 
     /tmp/cczVw551.s:325    .text:00000000000001d0 _ZN8KConsole24getCharactersFromConsoleEPv
     /tmp/cczVw551.s:328    .text:00000000000001d0 .L0 
     /tmp/cczVw551.s:330    .text:00000000000001d0 .L0 
     /tmp/cczVw551.s:332    .text:00000000000001d0 .L0 
     /tmp/cczVw551.s:333    .text:00000000000001d0 .L0 
     /tmp/cczVw551.s:334    .text:00000000000001d0 .L0 
     /tmp/cczVw551.s:338    .text:00000000000001dc .L0 
    src/KConsole.cpp:63     .text:00000000000001dc .L0 
     /tmp/cczVw551.s:344    .text:00000000000001e0 .L0 
    src/KConsole.cpp:64     .text:00000000000001e0 .L0 
     /tmp/cczVw551.s:349    .text:00000000000001e4 .L0 
     /tmp/cczVw551.s:350    .text:00000000000001e4 .L0 
    src/KConsole.cpp:66     .text:00000000000001e4 .L0 
     /tmp/cczVw551.s:358    .text:00000000000001e8 .L0 
     /tmp/cczVw551.s:359    .text:00000000000001e8 .L0 
     /tmp/cczVw551.s:362    .text:00000000000001ec .L0 
     /tmp/cczVw551.s:366    .text:00000000000001f0 .L0 
     /tmp/cczVw551.s:367    .text:00000000000001f4 .L0 
     /tmp/cczVw551.s:370    .text:00000000000001fc .L0 
     /tmp/cczVw551.s:371    .text:00000000000001fc .L0 
     /tmp/cczVw551.s:373    .text:0000000000000200 .L0 
     /tmp/cczVw551.s:380    .text:0000000000000200 .L0 
     /tmp/cczVw551.s:381    .text:0000000000000200 .L0 
     /tmp/cczVw551.s:385    .text:000000000000020c .L0 
    src/KConsole.cpp:70     .text:000000000000020c .L0 
     /tmp/cczVw551.s:391    .text:0000000000000210 .L0 
    src/KConsole.cpp:71     .text:0000000000000210 .L0 
     /tmp/cczVw551.s:396    .text:0000000000000214 .L0 
     /tmp/cczVw551.s:397    .text:0000000000000214 .L0 
    src/KConsole.cpp:73     .text:0000000000000214 .L0 
     /tmp/cczVw551.s:403    .text:0000000000000218 .L0 
     /tmp/cczVw551.s:405    .text:0000000000000218 .L0 
     /tmp/cczVw551.s:412    .text:0000000000000224 .L0 
     /tmp/cczVw551.s:414    .text:0000000000000224 .L0 
     /tmp/cczVw551.s:415    .text:0000000000000224 .L0 
     /tmp/cczVw551.s:416    .text:0000000000000224 .L0 
     /tmp/cczVw551.s:420    .text:0000000000000230 .L0 
    src/KConsole.cpp:63     .text:0000000000000230 .L0 
     /tmp/cczVw551.s:426    .text:0000000000000234 .L0 
    src/KConsole.cpp:64     .text:0000000000000234 .L0 
     /tmp/cczVw551.s:431    .text:0000000000000238 .L0 
     /tmp/cczVw551.s:432    .text:0000000000000238 .L0 
    src/KConsole.cpp:66     .text:0000000000000238 .L0 
     /tmp/cczVw551.s:440    .text:000000000000023c .L0 
     /tmp/cczVw551.s:441    .text:000000000000023c .L0 
     /tmp/cczVw551.s:444    .text:0000000000000240 .L0 
     /tmp/cczVw551.s:448    .text:0000000000000244 .L0 
     /tmp/cczVw551.s:449    .text:0000000000000248 .L0 
     /tmp/cczVw551.s:451    .text:000000000000024c .L0 
     /tmp/cczVw551.s:452    .text:000000000000024c .L0 
     /tmp/cczVw551.s:454    .text:0000000000000250 .L0 
     /tmp/cczVw551.s:459    .text:0000000000000258 .L0 
     /tmp/cczVw551.s:465    .text:0000000000000258 _ZN8KConsole17getCharacterInputEv
     /tmp/cczVw551.s:468    .text:0000000000000258 .L0 
GAS LISTING /tmp/cczVw551.s 			page 27


     /tmp/cczVw551.s:469    .text:0000000000000258 .L0 
     /tmp/cczVw551.s:470    .text:000000000000025c .L0 
     /tmp/cczVw551.s:473    .text:0000000000000264 .L0 
     /tmp/cczVw551.s:474    .text:0000000000000264 .L0 
     /tmp/cczVw551.s:476    .text:0000000000000268 .L0 
     /tmp/cczVw551.s:478    .text:0000000000000268 .L0 
     /tmp/cczVw551.s:479    .text:0000000000000268 .L0 
     /tmp/cczVw551.s:483    .text:0000000000000278 .L0 
     /tmp/cczVw551.s:484    .text:0000000000000278 .L0 
     /tmp/cczVw551.s:489    .text:0000000000000290 .L0 
     /tmp/cczVw551.s:490    .text:0000000000000294 .L0 
     /tmp/cczVw551.s:492    .text:0000000000000298 .L0 
     /tmp/cczVw551.s:493    .text:0000000000000298 .L0 
     /tmp/cczVw551.s:495    .text:000000000000029c .L0 
     /tmp/cczVw551.s:497    .text:00000000000002a0 .L0 
     /tmp/cczVw551.s:503    .text:00000000000002a0 _ZN8KConsole18putCharacterOutputEc
     /tmp/cczVw551.s:506    .text:00000000000002a0 .L0 
     /tmp/cczVw551.s:508    .text:00000000000002a0 .L0 
     /tmp/cczVw551.s:509    .text:00000000000002a4 .L0 
     /tmp/cczVw551.s:512    .text:00000000000002ac .L0 
     /tmp/cczVw551.s:513    .text:00000000000002ac .L0 
     /tmp/cczVw551.s:515    .text:00000000000002b0 .L0 
     /tmp/cczVw551.s:517    .text:00000000000002b0 .L0 
     /tmp/cczVw551.s:518    .text:00000000000002b0 .L0 
     /tmp/cczVw551.s:523    .text:00000000000002c8 .L0 
     /tmp/cczVw551.s:524    .text:00000000000002c8 .L0 
     /tmp/cczVw551.s:528    .text:00000000000002d8 .L0 
     /tmp/cczVw551.s:529    .text:00000000000002dc .L0 
     /tmp/cczVw551.s:531    .text:00000000000002e0 .L0 
     /tmp/cczVw551.s:532    .text:00000000000002e0 .L0 
     /tmp/cczVw551.s:534    .text:00000000000002e4 .L0 
     /tmp/cczVw551.s:536    .text:00000000000002e8 .L0 
     /tmp/cczVw551.s:542    .text:00000000000002e8 _ZN8KConsole18getCharacterOutputEv
     /tmp/cczVw551.s:545    .text:00000000000002e8 .L0 
     /tmp/cczVw551.s:546    .text:00000000000002e8 .L0 
     /tmp/cczVw551.s:547    .text:00000000000002ec .L0 
     /tmp/cczVw551.s:550    .text:00000000000002f4 .L0 
     /tmp/cczVw551.s:551    .text:00000000000002f4 .L0 
     /tmp/cczVw551.s:553    .text:00000000000002f8 .L0 
     /tmp/cczVw551.s:555    .text:00000000000002f8 .L0 
     /tmp/cczVw551.s:556    .text:00000000000002f8 .L0 
     /tmp/cczVw551.s:560    .text:0000000000000308 .L0 
     /tmp/cczVw551.s:561    .text:0000000000000308 .L0 
     /tmp/cczVw551.s:566    .text:0000000000000320 .L0 
     /tmp/cczVw551.s:567    .text:0000000000000324 .L0 
     /tmp/cczVw551.s:569    .text:0000000000000328 .L0 
     /tmp/cczVw551.s:570    .text:0000000000000328 .L0 
     /tmp/cczVw551.s:572    .text:000000000000032c .L0 
     /tmp/cczVw551.s:574    .text:0000000000000330 .L0 
     /tmp/cczVw551.s:580    .text:0000000000000330 _ZN8KConsole23sendCharactersToConsoleEPv
     /tmp/cczVw551.s:583    .text:0000000000000330 .L0 
     /tmp/cczVw551.s:586    .text:0000000000000330 .L0 
     /tmp/cczVw551.s:588    .text:0000000000000330 .L0 
     /tmp/cczVw551.s:589    .text:0000000000000330 .L0 
     /tmp/cczVw551.s:590    .text:0000000000000330 .L0 
     /tmp/cczVw551.s:594    .text:000000000000033c .L0 
    src/KConsole.cpp:89     .text:000000000000033c .L0 
GAS LISTING /tmp/cczVw551.s 			page 28


     /tmp/cczVw551.s:600    .text:0000000000000340 .L0 
    src/KConsole.cpp:90     .text:0000000000000340 .L0 
     /tmp/cczVw551.s:605    .text:0000000000000344 .L0 
     /tmp/cczVw551.s:606    .text:0000000000000344 .L0 
    src/KConsole.cpp:92     .text:0000000000000344 .L0 
     /tmp/cczVw551.s:614    .text:0000000000000348 .L0 
     /tmp/cczVw551.s:615    .text:0000000000000348 .L0 
     /tmp/cczVw551.s:618    .text:000000000000034c .L0 
     /tmp/cczVw551.s:622    .text:0000000000000350 .L0 
     /tmp/cczVw551.s:623    .text:0000000000000354 .L0 
     /tmp/cczVw551.s:626    .text:000000000000035c .L0 
     /tmp/cczVw551.s:627    .text:000000000000035c .L0 
     /tmp/cczVw551.s:629    .text:0000000000000360 .L0 
     /tmp/cczVw551.s:636    .text:0000000000000360 .L0 
     /tmp/cczVw551.s:637    .text:0000000000000360 .L0 
     /tmp/cczVw551.s:640    .text:0000000000000368 .L0 
     /tmp/cczVw551.s:642    .text:000000000000036c .L0 
     /tmp/cczVw551.s:643    .text:000000000000036c .L0 
     /tmp/cczVw551.s:647    .text:0000000000000378 .L0 
    src/KConsole.cpp:104    .text:0000000000000378 .L0 
     /tmp/cczVw551.s:653    .text:000000000000037c .L0 
     /tmp/cczVw551.s:655    .text:000000000000037c .L0 
    src/KConsole.cpp:105    .text:0000000000000384 .L0 
     /tmp/cczVw551.s:664    .text:0000000000000388 .L0 
    src/KConsole.cpp:106    .text:0000000000000388 .L0 
     /tmp/cczVw551.s:676    .text:000000000000038c .L0 
     /tmp/cczVw551.s:677    .text:000000000000038c .L0 
     /tmp/cczVw551.s:678    .text:000000000000038c .L0 
     /tmp/cczVw551.s:682    .text:0000000000000398 .L0 
    src/KConsole.cpp:89     .text:0000000000000398 .L0 
     /tmp/cczVw551.s:688    .text:000000000000039c .L0 
    src/KConsole.cpp:90     .text:000000000000039c .L0 
     /tmp/cczVw551.s:693    .text:00000000000003a0 .L0 
     /tmp/cczVw551.s:694    .text:00000000000003a0 .L0 
    src/KConsole.cpp:92     .text:00000000000003a0 .L0 
     /tmp/cczVw551.s:702    .text:00000000000003a4 .L0 
     /tmp/cczVw551.s:703    .text:00000000000003a4 .L0 
     /tmp/cczVw551.s:706    .text:00000000000003a8 .L0 
     /tmp/cczVw551.s:710    .text:00000000000003b0 .L0 
     /tmp/cczVw551.s:716    .text:00000000000003b0 _ZN8KConsole11putcHandlerEv
     /tmp/cczVw551.s:719    .text:00000000000003b0 .L0 
     /tmp/cczVw551.s:720    .text:00000000000003b0 .L0 
     /tmp/cczVw551.s:721    .text:00000000000003b4 .L0 
     /tmp/cczVw551.s:724    .text:00000000000003bc .L0 
     /tmp/cczVw551.s:725    .text:00000000000003bc .L0 
     /tmp/cczVw551.s:727    .text:00000000000003c0 .L0 
     /tmp/cczVw551.s:729    .text:00000000000003c0 .L0 
     /tmp/cczVw551.s:730    .text:00000000000003c0 .L0 
    src/KConsole.cpp:140    .text:00000000000003c0 .L0 
     /tmp/cczVw551.s:737    .text:00000000000003c4 .L0 
     /tmp/cczVw551.s:739    .text:00000000000003c4 .L0 
     /tmp/cczVw551.s:744    .text:00000000000003d0 .L0 
     /tmp/cczVw551.s:745    .text:00000000000003d0 .L0 
     /tmp/cczVw551.s:749    .text:00000000000003d8 .L0 
     /tmp/cczVw551.s:750    .text:00000000000003d8 .L0 
     /tmp/cczVw551.s:752    .text:00000000000003dc .L0 
     /tmp/cczVw551.s:753    .text:00000000000003dc .L0 
GAS LISTING /tmp/cczVw551.s 			page 29


     /tmp/cczVw551.s:756    .text:00000000000003e0 .L0 
     /tmp/cczVw551.s:759    .text:00000000000003e4 .L0 
     /tmp/cczVw551.s:760    .text:00000000000003e8 .L0 
     /tmp/cczVw551.s:762    .text:00000000000003ec .L0 
     /tmp/cczVw551.s:763    .text:00000000000003ec .L0 
     /tmp/cczVw551.s:765    .text:00000000000003f0 .L0 
     /tmp/cczVw551.s:767    .text:00000000000003f4 .L0 
     /tmp/cczVw551.s:773    .text:00000000000003f4 _ZN8KConsole11getcHandlerEv
     /tmp/cczVw551.s:776    .text:00000000000003f4 .L0 
     /tmp/cczVw551.s:777    .text:00000000000003f4 .L0 
     /tmp/cczVw551.s:778    .text:00000000000003f8 .L0 
     /tmp/cczVw551.s:781    .text:0000000000000400 .L0 
     /tmp/cczVw551.s:782    .text:0000000000000400 .L0 
     /tmp/cczVw551.s:784    .text:0000000000000404 .L0 
     /tmp/cczVw551.s:786    .text:0000000000000404 .L0 
     /tmp/cczVw551.s:787    .text:0000000000000404 .L0 
     /tmp/cczVw551.s:788    .text:0000000000000404 .L0 
     /tmp/cczVw551.s:791    .text:000000000000040c .L0 
    src/KConsole.cpp:160    .text:000000000000040c .L0 
     /tmp/cczVw551.s:798    .text:0000000000000410 .L0 
     /tmp/cczVw551.s:799    .text:0000000000000414 .L0 
     /tmp/cczVw551.s:801    .text:0000000000000418 .L0 
     /tmp/cczVw551.s:802    .text:0000000000000418 .L0 
     /tmp/cczVw551.s:804    .text:000000000000041c .L0 
     /tmp/cczVw551.s:806    .text:0000000000000420 .L0 
     /tmp/cczVw551.s:812    .text:0000000000000420 _ZN8KConsole3ackEv
     /tmp/cczVw551.s:815    .text:0000000000000420 .L0 
     /tmp/cczVw551.s:816    .text:0000000000000420 .L0 
     /tmp/cczVw551.s:817    .text:0000000000000424 .L0 
     /tmp/cczVw551.s:819    .text:0000000000000428 .L0 
     /tmp/cczVw551.s:821    .text:000000000000042c .L0 
     /tmp/cczVw551.s:823    .text:000000000000042c .L0 
     /tmp/cczVw551.s:824    .text:000000000000042c .L0 
     /tmp/cczVw551.s:828    .text:0000000000000438 .L0 
    src/KConsole.cpp:167    .text:0000000000000438 .L0 
     /tmp/cczVw551.s:834    .text:000000000000043c .L0 
    src/KConsole.cpp:168    .text:000000000000043c .L0 
     /tmp/cczVw551.s:839    .text:0000000000000440 .L0 
     /tmp/cczVw551.s:840    .text:0000000000000440 .L0 
    src/KConsole.cpp:170    .text:0000000000000440 .L0 
     /tmp/cczVw551.s:846    .text:0000000000000444 .L0 
     /tmp/cczVw551.s:848    .text:0000000000000444 .L0 
     /tmp/cczVw551.s:851    .text:0000000000000448 .L0 
     /tmp/cczVw551.s:853    .text:000000000000044c .L0 
     /tmp/cczVw551.s:854    .text:000000000000044c .L0 
     /tmp/cczVw551.s:860    .text:0000000000000460 .L0 
     /tmp/cczVw551.s:861    .text:0000000000000464 .L0 
     /tmp/cczVw551.s:862    .text:0000000000000464 .L0 
     /tmp/cczVw551.s:864    .text:0000000000000468 .L0 
     /tmp/cczVw551.s:866    .text:000000000000046c .L0 
     /tmp/cczVw551.s:872    .text:000000000000046c _ZN8KConsole11printBufferEv
     /tmp/cczVw551.s:875    .text:000000000000046c .L0 
     /tmp/cczVw551.s:876    .text:000000000000046c .L0 
     /tmp/cczVw551.s:877    .text:0000000000000470 .L0 
     /tmp/cczVw551.s:881    .text:000000000000047c .L0 
     /tmp/cczVw551.s:882    .text:000000000000047c .L0 
     /tmp/cczVw551.s:883    .text:000000000000047c .L0 
GAS LISTING /tmp/cczVw551.s 			page 30


     /tmp/cczVw551.s:885    .text:0000000000000480 .L0 
     /tmp/cczVw551.s:887    .text:0000000000000480 .L0 
     /tmp/cczVw551.s:888    .text:0000000000000480 .L0 
     /tmp/cczVw551.s:892    .text:0000000000000488 .L0 
     /tmp/cczVw551.s:893    .text:0000000000000488 .L0 
     /tmp/cczVw551.s:895    .text:000000000000048c .L0 
     /tmp/cczVw551.s:896    .text:000000000000048c .L0 
     /tmp/cczVw551.s:900    .text:0000000000000498 .L0 
     /tmp/cczVw551.s:901    .text:0000000000000498 .L0 
     /tmp/cczVw551.s:904    .text:000000000000049c .L0 
     /tmp/cczVw551.s:907    .text:00000000000004a0 .L0 
     /tmp/cczVw551.s:908    .text:00000000000004a4 .L0 
     /tmp/cczVw551.s:910    .text:00000000000004a8 .L0 
     /tmp/cczVw551.s:911    .text:00000000000004a8 .L0 
     /tmp/cczVw551.s:913    .text:00000000000004ac .L0 
     /tmp/cczVw551.s:916    .text:00000000000004b0 .L0 
     /tmp/cczVw551.s:918    .text:00000000000004b4 .L0 
     /tmp/cczVw551.s:957    .bss:0000000000000030 _ZN8KConsole13cntWInterruptE
     /tmp/cczVw551.s:933    .bss:0000000000000000 _ZN8KConsole18hasCharactersInputE
     /tmp/cczVw551.s:937    .bss:0000000000000008 _ZN8KConsole19hasCharactersOutputE
     /tmp/cczVw551.s:949    .bss:0000000000000020 _ZN8KConsole10tailOutputE
     /tmp/cczVw551.s:953    .bss:0000000000000028 _ZN8KConsole10headOutputE
     /tmp/cczVw551.s:941    .bss:0000000000000010 _ZN8KConsole9tailInputE
     /tmp/cczVw551.s:945    .bss:0000000000000018 _ZN8KConsole9headInputE
     /tmp/cczVw551.s:930    .bss:0000000000000000 .LANCHOR0
     /tmp/cczVw551.s:967    .text:00000000000004b4 .L0 
     /tmp/cczVw551.s:195    .text:000000000000010c .L0 
     /tmp/cczVw551.s:210    .text:0000000000000130 .L0 
     /tmp/cczVw551.s:301    .text:0000000000000198 .L0 
     /tmp/cczVw551.s:302    .text:00000000000001a0 .L0 
     /tmp/cczVw551.s:307    .text:00000000000001b0 .L0 
     /tmp/cczVw551.s:334    .text:00000000000001d0 .L0 
     /tmp/cczVw551.s:381    .text:0000000000000200 .L0 
     /tmp/cczVw551.s:416    .text:0000000000000224 .L0 
     /tmp/cczVw551.s:479    .text:0000000000000268 .L0 
     /tmp/cczVw551.s:484    .text:0000000000000278 .L0 
     /tmp/cczVw551.s:485    .text:0000000000000280 .L0 
     /tmp/cczVw551.s:518    .text:00000000000002b0 .L0 
     /tmp/cczVw551.s:519    .text:00000000000002b8 .L0 
     /tmp/cczVw551.s:524    .text:00000000000002c8 .L0 
     /tmp/cczVw551.s:556    .text:00000000000002f8 .L0 
     /tmp/cczVw551.s:561    .text:0000000000000308 .L0 
     /tmp/cczVw551.s:562    .text:0000000000000310 .L0 
     /tmp/cczVw551.s:590    .text:0000000000000330 .L0 
     /tmp/cczVw551.s:643    .text:000000000000036c .L0 
     /tmp/cczVw551.s:678    .text:000000000000038c .L0 
     /tmp/cczVw551.s:745    .text:00000000000003d0 .L0 
     /tmp/cczVw551.s:824    .text:000000000000042c .L0 
     /tmp/cczVw551.s:854    .text:000000000000044c .L0 
     /tmp/cczVw551.s:888    .text:0000000000000480 .L0 
     /tmp/cczVw551.s:76     .text:000000000000006c .L5
     /tmp/cczVw551.s:56     .text:0000000000000050 .L1
     /tmp/cczVw551.s:153    .text:00000000000000d0 .L9
     /tmp/cczVw551.s:146    .text:00000000000000c8 .L11
     /tmp/cczVw551.s:121    .text:00000000000000a4 .L8
     /tmp/cczVw551.s:131    .text:00000000000000b0 .L7
     /tmp/cczVw551.s:457    .text:0000000000000254 .L29
GAS LISTING /tmp/cczVw551.s 			page 31


     /tmp/cczVw551.s:375    .text:0000000000000200 .L25
     /tmp/cczVw551.s:585    .text:0000000000000330 .L41
     /tmp/cczVw551.s:670    .text:000000000000038c .L37
     /tmp/cczVw551.s:631    .text:0000000000000360 .L40
     /tmp/cczVw551.s:757    .text:00000000000003e4 .L42
     /tmp/cczVw551.s:747    .text:00000000000003d8 .L44
     /tmp/cczVw551.s:858    .text:0000000000000460 .L48
     /tmp/cczVw551.s:905    .text:00000000000004a0 .L51
     /tmp/cczVw551.s:890    .text:0000000000000488 .L53
     /tmp/cczVw551.s:184    .text:00000000000000f4 .LEHB0
     /tmp/cczVw551.s:164    .text:00000000000000d8 .LFB26
     /tmp/cczVw551.s:187    .text:00000000000000fc .LEHE0
     /tmp/cczVw551.s:190    .text:0000000000000104 .LEHB1
     /tmp/cczVw551.s:193    .text:000000000000010c .LEHE1
     /tmp/cczVw551.s:225    .text:0000000000000150 .L15
     /tmp/cczVw551.s:199    .text:0000000000000118 .LEHB2
     /tmp/cczVw551.s:202    .text:0000000000000120 .LEHE2
     /tmp/cczVw551.s:205    .text:0000000000000128 .LEHB3
     /tmp/cczVw551.s:208    .text:0000000000000130 .LEHE3
     /tmp/cczVw551.s:237    .text:000000000000016c .L16
     /tmp/cczVw551.s:233    .text:0000000000000164 .LEHB4
     /tmp/cczVw551.s:236    .text:000000000000016c .LEHE4
     /tmp/cczVw551.s:244    .text:0000000000000180 .LEHB5
     /tmp/cczVw551.s:247    .text:0000000000000188 .LEHE5
     /tmp/cczVw551.s:2665   .debug_abbrev:0000000000000000 .Ldebug_abbrev0
     /tmp/cczVw551.s:3954   .debug_str:0000000000000168 .LASF178
     /tmp/cczVw551.s:4226   .debug_str:0000000000000af9 .LASF179
     /tmp/cczVw551.s:4224   .debug_str:0000000000000ad6 .LASF180
     /tmp/cczVw551.s:5      .text:0000000000000000 .Ltext0
     /tmp/cczVw551.s:960    .text:00000000000004b4 .Letext0
     /tmp/cczVw551.s:3914   .debug_line:0000000000000000 .Ldebug_line0
     /tmp/cczVw551.s:4036   .debug_str:000000000000048f .LASF0
     /tmp/cczVw551.s:4066   .debug_str:000000000000059f .LASF1
     /tmp/cczVw551.s:4154   .debug_str:00000000000008b5 .LASF2
     /tmp/cczVw551.s:4168   .debug_str:0000000000000928 .LASF4
     /tmp/cczVw551.s:4048   .debug_str:00000000000004f4 .LASF3
     /tmp/cczVw551.s:3930   .debug_str:000000000000005f .LASF5
     /tmp/cczVw551.s:4138   .debug_str:000000000000082b .LASF6
     /tmp/cczVw551.s:4134   .debug_str:0000000000000810 .LASF7
     /tmp/cczVw551.s:4056   .debug_str:000000000000053b .LASF8
     /tmp/cczVw551.s:4020   .debug_str:000000000000040c .LASF9
     /tmp/cczVw551.s:4026   .debug_str:0000000000000448 .LASF10
     /tmp/cczVw551.s:3966   .debug_str:000000000000028a .LASF11
     /tmp/cczVw551.s:4010   .debug_str:00000000000003d0 .LASF12
     /tmp/cczVw551.s:3980   .debug_str:00000000000002cf .LASF13
     /tmp/cczVw551.s:3964   .debug_str:000000000000027a .LASF14
     /tmp/cczVw551.s:4200   .debug_str:0000000000000a4b .LASF15
     /tmp/cczVw551.s:4002   .debug_str:000000000000037b .LASF16
     /tmp/cczVw551.s:4188   .debug_str:00000000000009ca .LASF17
     /tmp/cczVw551.s:4214   .debug_str:0000000000000a91 .LASF181
     /tmp/cczVw551.s:3962   .debug_str:0000000000000274 .LASF18
     /tmp/cczVw551.s:4180   .debug_str:0000000000000992 .LASF19
     /tmp/cczVw551.s:3974   .debug_str:00000000000002b0 .LASF20
     /tmp/cczVw551.s:3950   .debug_str:000000000000013c .LASF21
     /tmp/cczVw551.s:4136   .debug_str:0000000000000823 .LASF22
     /tmp/cczVw551.s:3972   .debug_str:00000000000002a7 .LASF23
     /tmp/cczVw551.s:4208   .debug_str:0000000000000a79 .LASF84
GAS LISTING /tmp/cczVw551.s 			page 32


     /tmp/cczVw551.s:4032   .debug_str:0000000000000483 .LASF24
     /tmp/cczVw551.s:3934   .debug_str:000000000000007e .LASF29
     /tmp/cczVw551.s:4232   .debug_str:0000000000000b21 .LASF182
     /tmp/cczVw551.s:4122   .debug_str:00000000000007b4 .LASF183
     /tmp/cczVw551.s:4064   .debug_str:000000000000059a .LASF25
     /tmp/cczVw551.s:4276   .debug_str:0000000000000c9e .LASF27
     /tmp/cczVw551.s:4272   .debug_str:0000000000000c82 .LASF26
     /tmp/cczVw551.s:4220   .debug_str:0000000000000abc .LASF28
     /tmp/cczVw551.s:3992   .debug_str:0000000000000340 .LASF54
     /tmp/cczVw551.s:3940   .debug_str:00000000000000b7 .LASF56
     /tmp/cczVw551.s:4070   .debug_str:00000000000005bb .LASF34
     /tmp/cczVw551.s:4124   .debug_str:00000000000007b9 .LASF36
     /tmp/cczVw551.s:4216   .debug_str:0000000000000a97 .LASF30
     /tmp/cczVw551.s:4174   .debug_str:000000000000095a .LASF31
     /tmp/cczVw551.s:4072   .debug_str:00000000000005c1 .LASF38
     /tmp/cczVw551.s:4078   .debug_str:0000000000000602 .LASF40
     /tmp/cczVw551.s:4282   .debug_str:0000000000000ce3 .LASF32
     /tmp/cczVw551.s:4006   .debug_str:00000000000003b3 .LASF33
     /tmp/cczVw551.s:3924   .debug_str:000000000000003a .LASF35
     /tmp/cczVw551.s:4044   .debug_str:00000000000004df .LASF37
     /tmp/cczVw551.s:4176   .debug_str:000000000000096b .LASF39
     /tmp/cczVw551.s:4100   .debug_str:00000000000006ec .LASF41
     /tmp/cczVw551.s:4162   .debug_str:00000000000008ee .LASF42
     /tmp/cczVw551.s:4194   .debug_str:0000000000000a08 .LASF43
     /tmp/cczVw551.s:4102   .debug_str:00000000000006ff .LASF44
     /tmp/cczVw551.s:3920   .debug_str:000000000000001b .LASF45
     /tmp/cczVw551.s:4262   .debug_str:0000000000000c41 .LASF46
     /tmp/cczVw551.s:4132   .debug_str:00000000000007f6 .LASF47
     /tmp/cczVw551.s:4186   .debug_str:00000000000009bc .LASF48
     /tmp/cczVw551.s:4140   .debug_str:0000000000000832 .LASF49
     /tmp/cczVw551.s:3990   .debug_str:0000000000000330 .LASF50
     /tmp/cczVw551.s:4014   .debug_str:00000000000003e9 .LASF51
     /tmp/cczVw551.s:4150   .debug_str:0000000000000893 .LASF52
     /tmp/cczVw551.s:4264   .debug_str:0000000000000c50 .LASF53
     /tmp/cczVw551.s:4050   .debug_str:0000000000000506 .LASF60
     /tmp/cczVw551.s:4184   .debug_str:00000000000009b1 .LASF55
     /tmp/cczVw551.s:4274   .debug_str:0000000000000c88 .LASF57
     /tmp/cczVw551.s:4210   .debug_str:0000000000000a81 .LASF58
     /tmp/cczVw551.s:3988   .debug_str:000000000000031a .LASF59
     /tmp/cczVw551.s:4172   .debug_str:0000000000000952 .LASF61
     /tmp/cczVw551.s:4038   .debug_str:000000000000049c .LASF62
     /tmp/cczVw551.s:4114   .debug_str:0000000000000758 .LASF63
     /tmp/cczVw551.s:3984   .debug_str:0000000000000303 .LASF64
     /tmp/cczVw551.s:4144   .debug_str:0000000000000861 .LASF65
     /tmp/cczVw551.s:4292   .debug_str:0000000000000d25 .LASF66
     /tmp/cczVw551.s:4116   .debug_str:0000000000000777 .LASF67
     /tmp/cczVw551.s:4160   .debug_str:00000000000008db .LASF68
     /tmp/cczVw551.s:4178   .debug_str:0000000000000974 .LASF69
     /tmp/cczVw551.s:4244   .debug_str:0000000000000b8a .LASF70
     /tmp/cczVw551.s:4094   .debug_str:0000000000000695 .LASF71
     /tmp/cczVw551.s:4234   .debug_str:0000000000000b39 .LASF72
     /tmp/cczVw551.s:4192   .debug_str:00000000000009e8 .LASF73
     /tmp/cczVw551.s:4222   .debug_str:0000000000000acc .LASF74
     /tmp/cczVw551.s:4126   .debug_str:00000000000007c9 .LASF75
     /tmp/cczVw551.s:4270   .debug_str:0000000000000c74 .LASF76
     /tmp/cczVw551.s:3946   .debug_str:0000000000000101 .LASF78
     /tmp/cczVw551.s:4042   .debug_str:00000000000004ca .LASF77
GAS LISTING /tmp/cczVw551.s 			page 33


     /tmp/cczVw551.s:3960   .debug_str:0000000000000248 .LASF79
     /tmp/cczVw551.s:4260   .debug_str:0000000000000c3a .LASF184
     /tmp/cczVw551.s:3958   .debug_str:0000000000000237 .LASF185
     /tmp/cczVw551.s:3922   .debug_str:0000000000000035 .LASF80
     /tmp/cczVw551.s:4242   .debug_str:0000000000000b85 .LASF81
     /tmp/cczVw551.s:4082   .debug_str:0000000000000634 .LASF82
     /tmp/cczVw551.s:3996   .debug_str:000000000000034e .LASF83
     /tmp/cczVw551.s:4230   .debug_str:0000000000000b19 .LASF85
     /tmp/cczVw551.s:4212   .debug_str:0000000000000a8c .LASF86
     /tmp/cczVw551.s:4088   .debug_str:0000000000000677 .LASF87
     /tmp/cczVw551.s:4146   .debug_str:000000000000087e .LASF88
     /tmp/cczVw551.s:4022   .debug_str:000000000000041c .LASF89
     /tmp/cczVw551.s:4156   .debug_str:00000000000008c3 .LASF90
     /tmp/cczVw551.s:3998   .debug_str:0000000000000354 .LASF91
     /tmp/cczVw551.s:3994   .debug_str:0000000000000349 .LASF92
     /tmp/cczVw551.s:4182   .debug_str:000000000000099a .LASF93
     /tmp/cczVw551.s:4204   .debug_str:0000000000000a6a .LASF94
     /tmp/cczVw551.s:4108   .debug_str:0000000000000731 .LASF95
     /tmp/cczVw551.s:3918   .debug_str:000000000000000f .LASF96
     /tmp/cczVw551.s:4158   .debug_str:00000000000008cf .LASF97
     /tmp/cczVw551.s:4090   .debug_str:000000000000067c .LASF98
     /tmp/cczVw551.s:4152   .debug_str:00000000000008a0 .LASF99
     /tmp/cczVw551.s:3970   .debug_str:000000000000029e .LASF100
     /tmp/cczVw551.s:3976   .debug_str:00000000000002ba .LASF101
     /tmp/cczVw551.s:4106   .debug_str:0000000000000728 .LASF102
     /tmp/cczVw551.s:4166   .debug_str:000000000000091d .LASF103
     /tmp/cczVw551.s:3916   .debug_str:0000000000000000 .LASF104
     /tmp/cczVw551.s:4030   .debug_str:0000000000000461 .LASF105
     /tmp/cczVw551.s:4228   .debug_str:0000000000000b0a .LASF106
     /tmp/cczVw551.s:4198   .debug_str:0000000000000a29 .LASF107
     /tmp/cczVw551.s:4084   .debug_str:000000000000063c .LASF108
     /tmp/cczVw551.s:3982   .debug_str:00000000000002df .LASF109
     /tmp/cczVw551.s:4120   .debug_str:00000000000007a4 .LASF110
     /tmp/cczVw551.s:4142   .debug_str:000000000000083e .LASF111
     /tmp/cczVw551.s:4068   .debug_str:00000000000005b2 .LASF112
     /tmp/cczVw551.s:4034   .debug_str:0000000000000489 .LASF113
     /tmp/cczVw551.s:4286   .debug_str:0000000000000cfb .LASF114
     /tmp/cczVw551.s:3926   .debug_str:000000000000004a .LASF115
     /tmp/cczVw551.s:4080   .debug_str:000000000000061a .LASF116
     /tmp/cczVw551.s:4280   .debug_str:0000000000000cd3 .LASF117
     /tmp/cczVw551.s:4170   .debug_str:000000000000092f .LASF118
     /tmp/cczVw551.s:4202   .debug_str:0000000000000a57 .LASF119
     /tmp/cczVw551.s:4164   .debug_str:00000000000008f7 .LASF120
     /tmp/cczVw551.s:4288   .debug_str:0000000000000d13 .LASF121
     /tmp/cczVw551.s:4062   .debug_str:0000000000000576 .LASF122
     /tmp/cczVw551.s:4112   .debug_str:000000000000074f .LASF123
     /tmp/cczVw551.s:3986   .debug_str:0000000000000315 .LASF124
     /tmp/cczVw551.s:3968   .debug_str:0000000000000299 .LASF125
     /tmp/cczVw551.s:4060   .debug_str:0000000000000571 .LASF126
     /tmp/cczVw551.s:4012   .debug_str:00000000000003df .LASF127
     /tmp/cczVw551.s:4266   .debug_str:0000000000000c5b .LASF128
     /tmp/cczVw551.s:3978   .debug_str:00000000000002c4 .LASF129
     /tmp/cczVw551.s:4028   .debug_str:0000000000000456 .LASF130
     /tmp/cczVw551.s:4130   .debug_str:00000000000007e8 .LASF131
     /tmp/cczVw551.s:4128   .debug_str:00000000000007d5 .LASF132
     /tmp/cczVw551.s:4096   .debug_str:00000000000006b3 .LASF133
     /tmp/cczVw551.s:4206   .debug_str:0000000000000a71 .LASF134
GAS LISTING /tmp/cczVw551.s 			page 34


     /tmp/cczVw551.s:4098   .debug_str:00000000000006c7 .LASF135
     /tmp/cczVw551.s:4046   .debug_str:00000000000004ec .LASF136
     /tmp/cczVw551.s:4250   .debug_str:0000000000000bc1 .LASF137
     /tmp/cczVw551.s:4238   .debug_str:0000000000000b60 .LASF138
     /tmp/cczVw551.s:4258   .debug_str:0000000000000c18 .LASF139
     /tmp/cczVw551.s:4236   .debug_str:0000000000000b4e .LASF142
     /tmp/cczVw551.s:3936   .debug_str:0000000000000089 .LASF144
     /tmp/cczVw551.s:3948   .debug_str:0000000000000129 .LASF140
     /tmp/cczVw551.s:3956   .debug_str:0000000000000214 .LASF141
     /tmp/cczVw551.s:4000   .debug_str:0000000000000368 .LASF143
     /tmp/cczVw551.s:3952   .debug_str:0000000000000145 .LASF145
     /tmp/cczVw551.s:3942   .debug_str:00000000000000ca .LASF146
     /tmp/cczVw551.s:4256   .debug_str:0000000000000bff .LASF147
     /tmp/cczVw551.s:4086   .debug_str:000000000000064d .LASF148
     /tmp/cczVw551.s:4074   .debug_str:00000000000005ce .LASF149
     /tmp/cczVw551.s:4278   .debug_str:0000000000000caa .LASF150
     /tmp/cczVw551.s:4054   .debug_str:000000000000052f .LASF151
     /tmp/cczVw551.s:4052   .debug_str:0000000000000513 .LASF152
     /tmp/cczVw551.s:4240   .debug_str:0000000000000b72 .LASF186
     /tmp/cczVw551.s:4008   .debug_str:00000000000003bf .LASF153
     /tmp/cczVw551.s:4252   .debug_str:0000000000000be5 .LASF154
     /tmp/cczVw551.s:4018   .debug_str:00000000000003ff .LASF155
     /tmp/cczVw551.s:3928   .debug_str:0000000000000052 .LASF156
     /tmp/cczVw551.s:3938   .debug_str:00000000000000ab .LASF157
     /tmp/cczVw551.s:4076   .debug_str:00000000000005e6 .LASF158
     /tmp/cczVw551.s:4118   .debug_str:0000000000000798 .LASF159
     /tmp/cczVw551.s:3944   .debug_str:00000000000000e5 .LASF160
     /tmp/cczVw551.s:4246   .debug_str:0000000000000b9d .LASF161
     /tmp/cczVw551.s:3932   .debug_str:0000000000000066 .LASF162
     /tmp/cczVw551.s:4104   .debug_str:000000000000070e .LASF163
     /tmp/cczVw551.s:4040   .debug_str:00000000000004b0 .LASF164
     /tmp/cczVw551.s:4058   .debug_str:000000000000054e .LASF165
     /tmp/cczVw551.s:4004   .debug_str:0000000000000391 .LASF166
     /tmp/cczVw551.s:4218   .debug_str:0000000000000a9f .LASF167
     /tmp/cczVw551.s:873    .text:000000000000046c .LFB36
     /tmp/cczVw551.s:919    .text:00000000000004b4 .LFE36
     /tmp/cczVw551.s:4290   .debug_str:0000000000000d20 .LASF168
     /tmp/cczVw551.s:3620   .debug_loc:0000000000000000 .LLST19
     /tmp/cczVw551.s:898    .text:0000000000000498 .LVL65
     /tmp/cczVw551.s:813    .text:0000000000000420 .LFB35
     /tmp/cczVw551.s:867    .text:000000000000046c .LFE35
     /tmp/cczVw551.s:3627   .debug_loc:0000000000000023 .LLST17
     /tmp/cczVw551.s:4148   .debug_str:0000000000000889 .LASF169
     /tmp/cczVw551.s:3634   .debug_loc:0000000000000046 .LLST18
     /tmp/cczVw551.s:774    .text:00000000000003f4 .LFB34
     /tmp/cczVw551.s:807    .text:0000000000000420 .LFE34
     /tmp/cczVw551.s:789    .text:000000000000040c .LVL60
     /tmp/cczVw551.s:717    .text:00000000000003b0 .LFB33
     /tmp/cczVw551.s:768    .text:00000000000003f4 .LFE33
     /tmp/cczVw551.s:3641   .debug_loc:0000000000000069 .LLST16
     /tmp/cczVw551.s:742    .text:00000000000003d0 .LVL57
     /tmp/cczVw551.s:543    .text:00000000000002e8 .LFB32
     /tmp/cczVw551.s:575    .text:0000000000000330 .LFE32
     /tmp/cczVw551.s:558    .text:0000000000000308 .LVL41
     /tmp/cczVw551.s:564    .text:0000000000000320 .LVL42
     /tmp/cczVw551.s:504    .text:00000000000002a0 .LFB31
     /tmp/cczVw551.s:537    .text:00000000000002e8 .LFE31
GAS LISTING /tmp/cczVw551.s 			page 35


     /tmp/cczVw551.s:3648   .debug_loc:000000000000008c .LLST12
     /tmp/cczVw551.s:521    .text:00000000000002c8 .LVL39
     /tmp/cczVw551.s:526    .text:00000000000002d8 .LVL40
     /tmp/cczVw551.s:466    .text:0000000000000258 .LFB30
     /tmp/cczVw551.s:498    .text:00000000000002a0 .LFE30
     /tmp/cczVw551.s:481    .text:0000000000000278 .LVL36
     /tmp/cczVw551.s:487    .text:0000000000000290 .LVL37
     /tmp/cczVw551.s:287    .text:0000000000000188 .LFB29
     /tmp/cczVw551.s:320    .text:00000000000001d0 .LFE29
     /tmp/cczVw551.s:3662   .debug_loc:00000000000000c5 .LLST7
     /tmp/cczVw551.s:304    .text:00000000000001b0 .LVL22
     /tmp/cczVw551.s:309    .text:00000000000001c0 .LVL23
     /tmp/cczVw551.s:581    .text:0000000000000330 .LFB28
     /tmp/cczVw551.s:711    .text:00000000000003b0 .LFE28
     /tmp/cczVw551.s:3676   .debug_loc:00000000000000fe .LLST13
     /tmp/cczVw551.s:3896   .debug_ranges:0000000000000000 .Ldebug_ranges0
     /tmp/cczVw551.s:3690   .debug_loc:0000000000000137 .LLST14
     /tmp/cczVw551.s:3705   .debug_loc:0000000000000180 .LLST15
     /tmp/cczVw551.s:634    .text:0000000000000360 .LBB11
     /tmp/cczVw551.s:671    .text:000000000000038c .LBE11
     /tmp/cczVw551.s:638    .text:0000000000000368 .LVL48
     /tmp/cczVw551.s:326    .text:00000000000001d0 .LFB27
     /tmp/cczVw551.s:460    .text:0000000000000258 .LFE27
     /tmp/cczVw551.s:3716   .debug_loc:00000000000001b6 .LLST8
     /tmp/cczVw551.s:3734   .debug_loc:0000000000000202 .LLST9
     /tmp/cczVw551.s:3749   .debug_loc:000000000000024b .LLST10
     /tmp/cczVw551.s:378    .text:0000000000000200 .LBB4
     /tmp/cczVw551.s:408    .text:0000000000000224 .LBE4
     /tmp/cczVw551.s:3760   .debug_loc:0000000000000281 .LLST11
     /tmp/cczVw551.s:407    .text:0000000000000224 .LVL31
     /tmp/cczVw551.s:249    .text:0000000000000188 .LFE26
     /tmp/cczVw551.s:186    .text:00000000000000fc .LVL13
     /tmp/cczVw551.s:192    .text:000000000000010c .LVL14
     /tmp/cczVw551.s:201    .text:0000000000000120 .LVL15
     /tmp/cczVw551.s:207    .text:0000000000000130 .LVL16
     /tmp/cczVw551.s:231    .text:0000000000000160 .LVL17
     /tmp/cczVw551.s:235    .text:000000000000016c .LVL18
     /tmp/cczVw551.s:242    .text:000000000000017c .LVL19
     /tmp/cczVw551.s:246    .text:0000000000000188 .LVL20
     /tmp/cczVw551.s:91     .text:0000000000000078 .LFB25
     /tmp/cczVw551.s:158    .text:00000000000000d8 .LFE25
     /tmp/cczVw551.s:4196   .debug_str:0000000000000a24 .LASF170
     /tmp/cczVw551.s:3767   .debug_loc:00000000000002a4 .LLST3
     /tmp/cczVw551.s:4110   .debug_str:000000000000074a .LASF171
     /tmp/cczVw551.s:3789   .debug_loc:0000000000000303 .LLST4
     /tmp/cczVw551.s:3807   .debug_loc:000000000000034f .LLST5
     /tmp/cczVw551.s:3818   .debug_loc:0000000000000385 .LLST6
     /tmp/cczVw551.s:129    .text:00000000000000b0 .LVL10
     /tmp/cczVw551.s:10     .text:0000000000000000 .LFB24
     /tmp/cczVw551.s:85     .text:0000000000000078 .LFE24
     /tmp/cczVw551.s:3825   .debug_loc:00000000000003a8 .LLST0
     /tmp/cczVw551.s:3839   .debug_loc:00000000000003e1 .LLST1
     /tmp/cczVw551.s:3861   .debug_loc:0000000000000440 .LLST2
     /tmp/cczVw551.s:4190   .debug_str:00000000000009e0 .LASF172
     /tmp/cczVw551.s:37     .text:0000000000000034 .LVL2
     /tmp/cczVw551.s:4092   .debug_str:0000000000000690 .LASF173
     /tmp/cczVw551.s:4268   .debug_str:0000000000000c65 .LASF187
GAS LISTING /tmp/cczVw551.s 			page 36


     /tmp/cczVw551.s:4024   .debug_str:0000000000000430 .LASF188
     /tmp/cczVw551.s:4284   .debug_str:0000000000000cf0 .LASF174
     /tmp/cczVw551.s:4016   .debug_str:00000000000003f9 .LASF175
     /tmp/cczVw551.s:4248   .debug_str:0000000000000bb5 .LASF176
     /tmp/cczVw551.s:4254   .debug_str:0000000000000bf7 .LASF177
     /tmp/cczVw551.s:889    .text:0000000000000488 .LVL64
     /tmp/cczVw551.s:914    .text:00000000000004ac .LVL67
     /tmp/cczVw551.s:826    .text:0000000000000438 .LVL61
     /tmp/cczVw551.s:844    .text:0000000000000444 .LVL62
     /tmp/cczVw551.s:849    .text:0000000000000448 .LVL63
     /tmp/cczVw551.s:735    .text:00000000000003c4 .LVL55
     /tmp/cczVw551.s:740    .text:00000000000003c8 .LVL56
     /tmp/cczVw551.s:507    .text:00000000000002a0 .LVL38
     /tmp/cczVw551.s:290    .text:0000000000000188 .LVL21
     /tmp/cczVw551.s:584    .text:0000000000000330 .LVL43
     /tmp/cczVw551.s:630    .text:0000000000000360 .LVL47
     /tmp/cczVw551.s:592    .text:000000000000033c .LVL44
     /tmp/cczVw551.s:610    .text:0000000000000348 .LVL45
     /tmp/cczVw551.s:645    .text:0000000000000378 .LVL49
     /tmp/cczVw551.s:656    .text:0000000000000380 .LVL50
     /tmp/cczVw551.s:680    .text:0000000000000398 .LVL52
     /tmp/cczVw551.s:698    .text:00000000000003a4 .LVL53
     /tmp/cczVw551.s:616    .text:000000000000034c .LVL46
     /tmp/cczVw551.s:704    .text:00000000000003a8 .LVL54
     /tmp/cczVw551.s:329    .text:00000000000001d0 .LVL24
     /tmp/cczVw551.s:374    .text:0000000000000200 .LVL28
     /tmp/cczVw551.s:456    .text:0000000000000254 .LVL35
     /tmp/cczVw551.s:336    .text:00000000000001dc .LVL25
     /tmp/cczVw551.s:354    .text:00000000000001e8 .LVL26
     /tmp/cczVw551.s:383    .text:000000000000020c .LVL29
     /tmp/cczVw551.s:418    .text:0000000000000230 .LVL32
     /tmp/cczVw551.s:436    .text:000000000000023c .LVL33
     /tmp/cczVw551.s:360    .text:00000000000001ec .LVL27
     /tmp/cczVw551.s:442    .text:0000000000000240 .LVL34
     /tmp/cczVw551.s:401    .text:0000000000000218 .LVL30
     /tmp/cczVw551.s:94     .text:0000000000000078 .LVL6
     /tmp/cczVw551.s:109    .text:0000000000000094 .LVL7
     /tmp/cczVw551.s:145    .text:00000000000000c8 .LVL11
     /tmp/cczVw551.s:113    .text:0000000000000098 .LVL8
     /tmp/cczVw551.s:152    .text:00000000000000d0 .LVL12
     /tmp/cczVw551.s:125    .text:00000000000000a8 .LVL9
     /tmp/cczVw551.s:14     .text:0000000000000000 .LVL0
     /tmp/cczVw551.s:35     .text:000000000000002c .LVL1
     /tmp/cczVw551.s:69     .text:0000000000000060 .LVL4
     /tmp/cczVw551.s:75     .text:000000000000006c .LVL5
     /tmp/cczVw551.s:66     .text:000000000000005c .LVL3
     /tmp/cczVw551.s:968    .debug_info:0000000000000000 .Ldebug_info0
     /tmp/cczVw551.s:331    .text:00000000000001d0 .LBB2
     /tmp/cczVw551.s:364    .text:00000000000001f0 .LBE2
     /tmp/cczVw551.s:376    .text:0000000000000200 .LBB7
     /tmp/cczVw551.s:410    .text:0000000000000224 .LBE7
     /tmp/cczVw551.s:413    .text:0000000000000224 .LBB8
     /tmp/cczVw551.s:446    .text:0000000000000244 .LBE8
     /tmp/cczVw551.s:587    .text:0000000000000330 .LBB9
     /tmp/cczVw551.s:620    .text:0000000000000350 .LBE9
     /tmp/cczVw551.s:632    .text:0000000000000360 .LBB14
     /tmp/cczVw551.s:673    .text:000000000000038c .LBE14
GAS LISTING /tmp/cczVw551.s 			page 37


     /tmp/cczVw551.s:675    .text:000000000000038c .LBB15
     /tmp/cczVw551.s:709    .text:00000000000003b0 .LBE15
     /tmp/cczVw551.s:252    .gcc_except_table:0000000000000000 .LLSDA26

UNDEFINED SYMBOLS
_Z7kmallocm
_Z5kfreePv
_ZN10KSemaphorenwEm
_ZN10KSemaphoreC1Ei
_ZN10KSemaphoredlEPv
_Unwind_Resume
__gxx_personality_v0
_ZN10KSemaphore6signalEv
CONSOLE_STATUS
CONSOLE_TX_DATA
_ZN10KSemaphore4waitEv
CONSOLE_RX_DATA
putc
