GAS LISTING /tmp/ccsdqu6D.s 			page 1


   1              		.file	"KConsole.cpp"
   2              		.option pic
   3              		.option norelax
   4              		.text
   5              	.Ltext0:
   6              		.align	2
   7              		.globl	_ZN8KConsole10initializeEv
   9              	_ZN8KConsole10initializeEv:
  10              	.LFB25:
  11              		.file 1 "src/KConsole.cpp"
   1:src/KConsole.cpp **** //
   2:src/KConsole.cpp **** // Created by os on 5/19/22.
   3:src/KConsole.cpp **** //
   4:src/KConsole.cpp **** 
   5:src/KConsole.cpp **** 
   6:src/KConsole.cpp **** #include "../h/KConsole.hpp"
   7:src/KConsole.cpp **** #include "../h/syscall_c.h"
   8:src/KConsole.cpp **** 
   9:src/KConsole.cpp **** uint64 KConsole::inputHead = 0;
  10:src/KConsole.cpp **** uint64 KConsole::inputTail = 0;
  11:src/KConsole.cpp **** uint64 KConsole::outputHead = 0;
  12:src/KConsole.cpp **** uint64 KConsole::outputTail = 0;
  13:src/KConsole.cpp **** KSemaphore* KConsole::hasCharactersOutput = 0;
  14:src/KConsole.cpp **** KSemaphore* KConsole::hasCharactersInput = 0;
  15:src/KConsole.cpp **** uint64 KConsole::pendingGetc = 0;
  16:src/KConsole.cpp **** char KConsole::inputBuffer[bufferSize];
  17:src/KConsole.cpp **** char KConsole::outputBuffer[bufferSize];
  18:src/KConsole.cpp **** uint64 KConsole::pendingPutc = 0;
  19:src/KConsole.cpp **** 
  20:src/KConsole.cpp **** void KConsole::initialize()
  21:src/KConsole.cpp **** {
  12              		.loc 1 21 1
  13              		.cfi_startproc
  14              		.cfi_personality 0x9b,DW.ref.__gxx_personality_v0
  15              		.cfi_lsda 0x1b,.LLSDA25
  16 0000 130101FE 		addi	sp,sp,-32
  17              		.cfi_def_cfa_offset 32
  18 0004 233C1100 		sd	ra,24(sp)
  19 0008 23388100 		sd	s0,16(sp)
  20 000c 23349100 		sd	s1,8(sp)
  21 0010 23302101 		sd	s2,0(sp)
  22              		.cfi_offset 1, -8
  23              		.cfi_offset 8, -16
  24              		.cfi_offset 9, -24
  25              		.cfi_offset 18, -32
  26 0014 13040102 		addi	s0,sp,32
  27              		.cfi_def_cfa 8, 0
  22:src/KConsole.cpp ****     hasCharactersInput = new KSemaphore(0);
  28              		.loc 1 22 5
  29              		.loc 1 22 42 is_stmt 0
  30 0018 13058001 		li	a0,24
  31              	.LEHB0:
  32 001c 97000000 		call	_ZN10KSemaphorenwEm@plt
  32      E7800000 
  33              	.LVL0:
  34              	.LEHE0:
  35 0024 93040500 		mv	s1,a0
GAS LISTING /tmp/ccsdqu6D.s 			page 2


  36 0028 93050000 		li	a1,0
  37              	.LEHB1:
  38 002c 97000000 		call	_ZN10KSemaphoreC1Ei@plt
  38      E7800000 
  39              	.LVL1:
  40              	.LEHE1:
  41              		.loc 1 22 24 discriminator 2
  42 0034 97070000 		sd	s1,.LANCHOR0,a5
  42      23B09700 
  23:src/KConsole.cpp ****     hasCharactersOutput = new KSemaphore(0);
  43              		.loc 1 23 5 is_stmt 1 discriminator 2
  44              		.loc 1 23 43 is_stmt 0 discriminator 2
  45 003c 13058001 		li	a0,24
  46              	.LEHB2:
  47 0040 97000000 		call	_ZN10KSemaphorenwEm@plt
  47      E7800000 
  48              	.LVL2:
  49              	.LEHE2:
  50 0048 93040500 		mv	s1,a0
  51 004c 93050000 		li	a1,0
  52              	.LEHB3:
  53 0050 97000000 		call	_ZN10KSemaphoreC1Ei@plt
  53      E7800000 
  54              	.LVL3:
  55              	.LEHE3:
  56              		.loc 1 23 25 discriminator 2
  57 0058 97070000 		sd	s1,.LANCHOR0+8,a5
  57      23B09700 
  24:src/KConsole.cpp **** }
  58              		.loc 1 24 1 discriminator 2
  59 0060 83308101 		ld	ra,24(sp)
  60              		.cfi_remember_state
  61              		.cfi_restore 1
  62 0064 03340101 		ld	s0,16(sp)
  63              		.cfi_restore 8
  64              		.cfi_def_cfa 2, 32
  65 0068 83348100 		ld	s1,8(sp)
  66              		.cfi_restore 9
  67 006c 03390100 		ld	s2,0(sp)
  68              		.cfi_restore 18
  69 0070 13010102 		addi	sp,sp,32
  70              		.cfi_def_cfa_offset 0
  71 0074 67800000 		jr	ra
  72              	.L4:
  73              		.cfi_restore_state
  74 0078 13090500 		mv	s2,a0
  22:src/KConsole.cpp ****     hasCharactersInput = new KSemaphore(0);
  75              		.loc 1 22 42
  76 007c 13850400 		mv	a0,s1
  77 0080 97000000 		call	_ZN10KSemaphoredlEPv@plt
  77      E7800000 
  78              	.LVL4:
  79 0088 13050900 		mv	a0,s2
  80              	.LEHB4:
  81 008c 97000000 		call	_Unwind_Resume@plt
  81      E7800000 
  82              	.LVL5:
GAS LISTING /tmp/ccsdqu6D.s 			page 3


  83              	.LEHE4:
  84              	.L5:
  85 0094 13090500 		mv	s2,a0
  23:src/KConsole.cpp ****     hasCharactersOutput = new KSemaphore(0);
  86              		.loc 1 23 43
  87 0098 13850400 		mv	a0,s1
  88 009c 97000000 		call	_ZN10KSemaphoredlEPv@plt
  88      E7800000 
  89              	.LVL6:
  90 00a4 13050900 		mv	a0,s2
  91              	.LEHB5:
  92 00a8 97000000 		call	_Unwind_Resume@plt
  92      E7800000 
  93              	.LVL7:
  94              	.LEHE5:
  95              		.cfi_endproc
  96              	.LFE25:
  97              		.globl	__gxx_personality_v0
  98              		.section	.gcc_except_table,"a",@progbits
  99              	.LLSDA25:
 100 0000 FF       		.byte	0xff
 101 0001 FF       		.byte	0xff
 102 0002 03       		.byte	0x3
 103 0003 4E       		.byte	0x4e
 104 0004 00000000 		.4byte	.LEHB0-.LFB25
 105 0008 00000000 		.4byte	.LEHE0-.LEHB0
 106 000c 00000000 		.4byte	0
 107 0010 00       		.byte	0
 108 0011 00000000 		.4byte	.LEHB1-.LFB25
 109 0015 00000000 		.4byte	.LEHE1-.LEHB1
 110 0019 00000000 		.4byte	.L4-.LFB25
 111 001d 00       		.byte	0
 112 001e 00000000 		.4byte	.LEHB2-.LFB25
 113 0022 00000000 		.4byte	.LEHE2-.LEHB2
 114 0026 00000000 		.4byte	0
 115 002a 00       		.byte	0
 116 002b 00000000 		.4byte	.LEHB3-.LFB25
 117 002f 00000000 		.4byte	.LEHE3-.LEHB3
 118 0033 00000000 		.4byte	.L5-.LFB25
 119 0037 00       		.byte	0
 120 0038 00000000 		.4byte	.LEHB4-.LFB25
 121 003c 00000000 		.4byte	.LEHE4-.LEHB4
 122 0040 00000000 		.4byte	0
 123 0044 00       		.byte	0
 124 0045 00000000 		.4byte	.LEHB5-.LFB25
 125 0049 00000000 		.4byte	.LEHE5-.LEHB5
 126 004d 00000000 		.4byte	0
 127 0051 00       		.byte	0
 128              		.text
 130              		.align	2
 131              		.globl	_ZN8KConsole17putCharacterInputEc
 133              	_ZN8KConsole17putCharacterInputEc:
 134              	.LFB28:
  25:src/KConsole.cpp **** 
  26:src/KConsole.cpp **** //extern const uint64 CONSOLE_STATUS;
  27:src/KConsole.cpp **** //extern const uint64 CONSOLE_TX_DATA;
  28:src/KConsole.cpp **** //extern const uint64 CONSOLE_RX_DATA;
GAS LISTING /tmp/ccsdqu6D.s 			page 4


  29:src/KConsole.cpp **** 
  30:src/KConsole.cpp **** void KConsole::getCharactersFromConsole(void* p)
  31:src/KConsole.cpp **** {
  32:src/KConsole.cpp ****     while(true)
  33:src/KConsole.cpp ****     {
  34:src/KConsole.cpp ****         uint64 x = CONSOLE_STATUS;
  35:src/KConsole.cpp ****         __asm__ volatile("mv a0, %0"::"r"(x));
  36:src/KConsole.cpp ****         __asm__ volatile("lb a1, 0(a0)");
  37:src/KConsole.cpp ****         uint64 operation;
  38:src/KConsole.cpp ****         __asm__ volatile("mv %0, a1" :  "=r"(operation));
  39:src/KConsole.cpp ****         if(operation & STATUS_READ_MASK)
  40:src/KConsole.cpp ****         {
  41:src/KConsole.cpp ****             x = CONSOLE_TX_DATA;
  42:src/KConsole.cpp ****             __asm__ volatile("mv a0, %0"::"r"(x));
  43:src/KConsole.cpp ****             __asm__ volatile("lb a1,0(a0)");
  44:src/KConsole.cpp ****             char c;
  45:src/KConsole.cpp ****             __asm__ volatile("mv %0, a1" :  "=r"(c));
  46:src/KConsole.cpp **** 
  47:src/KConsole.cpp ****             putCharacterInput(c);
  48:src/KConsole.cpp ****             putCharacterOutput(c);
  49:src/KConsole.cpp ****         }
  50:src/KConsole.cpp ****         else
  51:src/KConsole.cpp ****             break;
  52:src/KConsole.cpp ****     }
  53:src/KConsole.cpp **** }
  54:src/KConsole.cpp **** 
  55:src/KConsole.cpp **** void KConsole::sendCharactersToConsole(void* p)
  56:src/KConsole.cpp **** {
  57:src/KConsole.cpp ****     while(true)
  58:src/KConsole.cpp ****     {
  59:src/KConsole.cpp ****             if(Riscv::finishSystem && KConsole::outputBufferEmpty() && pendingGetc == 0)
  60:src/KConsole.cpp ****                 thread_exit();
  61:src/KConsole.cpp **** 
  62:src/KConsole.cpp ****             uint64 x = CONSOLE_STATUS;
  63:src/KConsole.cpp ****             __asm__ volatile("mv a0, %0"::"r"(x));
  64:src/KConsole.cpp ****             __asm__ volatile("lb a1, 0(a0)");
  65:src/KConsole.cpp ****             uint64 operation;
  66:src/KConsole.cpp ****             __asm__ volatile("mv %0, a1" :  "=r"(operation));
  67:src/KConsole.cpp ****             if ((operation & STATUS_WRITE_MASK) && pendingPutc > 0)
  68:src/KConsole.cpp ****             {
  69:src/KConsole.cpp ****                 char volatile c = sysCallGetCharOutput();
  70:src/KConsole.cpp ****                 pendingPutc--;
  71:src/KConsole.cpp ****                 x = CONSOLE_RX_DATA;
  72:src/KConsole.cpp ****                 __asm__ volatile("mv a0, %0"::"r"(x));
  73:src/KConsole.cpp ****                 __asm__ volatile("mv a1, %0" :  :"r"((uint64)c));
  74:src/KConsole.cpp ****                 __asm__ volatile("sb a1,0(a0)");
  75:src/KConsole.cpp ****             }
  76:src/KConsole.cpp ****             else
  77:src/KConsole.cpp ****             {
  78:src/KConsole.cpp ****                 thread_dispatch();
  79:src/KConsole.cpp ****             }
  80:src/KConsole.cpp ****     }
  81:src/KConsole.cpp **** }
  82:src/KConsole.cpp **** 
  83:src/KConsole.cpp **** void KConsole::putCharacterInput(char c)
  84:src/KConsole.cpp **** {
 135              		.loc 1 84 1 is_stmt 1
GAS LISTING /tmp/ccsdqu6D.s 			page 5


 136              		.cfi_startproc
 137              	.LVL8:
  85:src/KConsole.cpp ****     if((inputTail+1)%bufferSize == inputHead)
 138              		.loc 1 85 5
 139              		.loc 1 85 18 is_stmt 0
 140 00b0 97060000 		lla	a3,.LANCHOR0
 140      93860600 
 141 00b8 03B60601 		ld	a2,16(a3)
 142 00bc 93071600 		addi	a5,a2,1
 143              		.loc 1 85 21
 144 00c0 37270000 		li	a4,8192
 145 00c4 1307F7FF 		addi	a4,a4,-1
 146 00c8 B3F7E700 		and	a5,a5,a4
 147              		.loc 1 85 33
 148 00cc 03B78601 		ld	a4,24(a3)
 149              		.loc 1 85 5
 150 00d0 6382E704 		beq	a5,a4,.L11
  84:src/KConsole.cpp ****     if((inputTail+1)%bufferSize == inputHead)
 151              		.loc 1 84 1
 152 00d4 130101FF 		addi	sp,sp,-16
 153              		.cfi_def_cfa_offset 16
 154 00d8 23341100 		sd	ra,8(sp)
 155 00dc 23308100 		sd	s0,0(sp)
 156              		.cfi_offset 1, -8
 157              		.cfi_offset 8, -16
 158 00e0 13040101 		addi	s0,sp,16
 159              		.cfi_def_cfa 8, 0
  86:src/KConsole.cpp ****         return;
  87:src/KConsole.cpp ****     inputBuffer[inputTail] = c;
 160              		.loc 1 87 5 is_stmt 1
 161              		.loc 1 87 28 is_stmt 0
 162 00e4 17070000 		lla	a4,_ZN8KConsole11inputBufferE
 162      13070700 
 163 00ec 3306C700 		add	a2,a4,a2
 164 00f0 2300A600 		sb	a0,0(a2)
  88:src/KConsole.cpp ****     inputTail = (inputTail+1)%bufferSize;
 165              		.loc 1 88 5 is_stmt 1
 166              		.loc 1 88 15 is_stmt 0
 167 00f4 23B8F600 		sd	a5,16(a3)
  89:src/KConsole.cpp ****     hasCharactersInput->signal();
 168              		.loc 1 89 5 is_stmt 1
 169              		.loc 1 89 31 is_stmt 0
 170 00f8 03B50600 		ld	a0,0(a3)
 171              	.LVL9:
 172 00fc 97000000 		call	_ZN10KSemaphore6signalEv@plt
 172      E7800000 
 173              	.LVL10:
  90:src/KConsole.cpp **** }
 174              		.loc 1 90 1
 175 0104 83308100 		ld	ra,8(sp)
 176              		.cfi_restore 1
 177 0108 03340100 		ld	s0,0(sp)
 178              		.cfi_restore 8
 179              		.cfi_def_cfa 2, 16
 180 010c 13010101 		addi	sp,sp,16
 181              		.cfi_def_cfa_offset 0
 182 0110 67800000 		jr	ra
GAS LISTING /tmp/ccsdqu6D.s 			page 6


 183              	.LVL11:
 184              	.L11:
 185 0114 67800000 		ret
 186              		.cfi_endproc
 187              	.LFE28:
 189              		.align	2
 190              		.globl	_ZN8KConsole17getCharacterInputEv
 192              	_ZN8KConsole17getCharacterInputEv:
 193              	.LFB29:
  91:src/KConsole.cpp **** 
  92:src/KConsole.cpp **** char KConsole::getCharacterInput()
  93:src/KConsole.cpp **** {
 194              		.loc 1 93 1 is_stmt 1
 195              		.cfi_startproc
 196 0118 130101FE 		addi	sp,sp,-32
 197              		.cfi_def_cfa_offset 32
 198 011c 233C1100 		sd	ra,24(sp)
 199 0120 23388100 		sd	s0,16(sp)
 200 0124 23349100 		sd	s1,8(sp)
 201              		.cfi_offset 1, -8
 202              		.cfi_offset 8, -16
 203              		.cfi_offset 9, -24
 204 0128 13040102 		addi	s0,sp,32
 205              		.cfi_def_cfa 8, 0
  94:src/KConsole.cpp ****     hasCharactersInput->wait();
 206              		.loc 1 94 5
 207              		.loc 1 94 29 is_stmt 0
 208 012c 97040000 		lla	s1,.LANCHOR0
 208      93840400 
 209 0134 03B50400 		ld	a0,0(s1)
 210 0138 97000000 		call	_ZN10KSemaphore4waitEv@plt
 210      E7800000 
 211              	.LVL12:
  95:src/KConsole.cpp ****     if(inputHead == inputTail)
 212              		.loc 1 95 5 is_stmt 1
 213              		.loc 1 95 18 is_stmt 0
 214 0140 83B78401 		ld	a5,24(s1)
 215 0144 03B70401 		ld	a4,16(s1)
 216              		.loc 1 95 5
 217 0148 6380E704 		beq	a5,a4,.L16
  96:src/KConsole.cpp ****         return -1;
  97:src/KConsole.cpp ****     char c = inputBuffer[inputHead];
 218              		.loc 1 97 5 is_stmt 1
 219              		.loc 1 97 10 is_stmt 0
 220 014c 17070000 		lla	a4,_ZN8KConsole11inputBufferE
 220      13070700 
 221 0154 3307F700 		add	a4,a4,a5
 222 0158 03450700 		lbu	a0,0(a4)
 223              	.LVL13:
  98:src/KConsole.cpp **** 
  99:src/KConsole.cpp ****     inputHead = (inputHead+1)%bufferSize;
 224              		.loc 1 99 5 is_stmt 1
 225              		.loc 1 99 27 is_stmt 0
 226 015c 93871700 		addi	a5,a5,1
 227              		.loc 1 99 30
 228 0160 37270000 		li	a4,8192
 229 0164 1307F7FF 		addi	a4,a4,-1
GAS LISTING /tmp/ccsdqu6D.s 			page 7


 230 0168 B3F7E700 		and	a5,a5,a4
 231              		.loc 1 99 15
 232 016c 17070000 		sd	a5,.LANCHOR0+24,a4
 232      2330F700 
 100:src/KConsole.cpp **** 
 101:src/KConsole.cpp ****     return c;
 233              		.loc 1 101 5 is_stmt 1
 234              	.LVL14:
 235              	.L15:
 102:src/KConsole.cpp **** }
 236              		.loc 1 102 1 is_stmt 0
 237 0174 83308101 		ld	ra,24(sp)
 238              		.cfi_remember_state
 239              		.cfi_restore 1
 240 0178 03340101 		ld	s0,16(sp)
 241              		.cfi_restore 8
 242              		.cfi_def_cfa 2, 32
 243 017c 83348100 		ld	s1,8(sp)
 244              		.cfi_restore 9
 245 0180 13010102 		addi	sp,sp,32
 246              		.cfi_def_cfa_offset 0
 247 0184 67800000 		jr	ra
 248              	.L16:
 249              		.cfi_restore_state
  96:src/KConsole.cpp ****     char c = inputBuffer[inputHead];
 250              		.loc 1 96 17
 251 0188 1305F00F 		li	a0,255
 252 018c 6FF09FFE 		j	.L15
 253              		.cfi_endproc
 254              	.LFE29:
 256              		.align	2
 257              		.globl	_ZN8KConsole18putCharacterOutputEc
 259              	_ZN8KConsole18putCharacterOutputEc:
 260              	.LFB30:
 103:src/KConsole.cpp **** 
 104:src/KConsole.cpp **** void KConsole::putCharacterOutput(char c)
 105:src/KConsole.cpp **** {
 261              		.loc 1 105 1 is_stmt 1
 262              		.cfi_startproc
 263              	.LVL15:
 106:src/KConsole.cpp ****     if((outputTail+1)%bufferSize == outputHead)
 264              		.loc 1 106 5
 265              		.loc 1 106 19 is_stmt 0
 266 0190 97060000 		lla	a3,.LANCHOR0
 266      93860600 
 267 0198 03B60602 		ld	a2,32(a3)
 268 019c 93071600 		addi	a5,a2,1
 269              		.loc 1 106 22
 270 01a0 37270000 		li	a4,8192
 271 01a4 1307F7FF 		addi	a4,a4,-1
 272 01a8 B3F7E700 		and	a5,a5,a4
 273              		.loc 1 106 34
 274 01ac 03B78602 		ld	a4,40(a3)
 275              		.loc 1 106 5
 276 01b0 638AE704 		beq	a5,a4,.L21
 105:src/KConsole.cpp ****     if((outputTail+1)%bufferSize == outputHead)
 277              		.loc 1 105 1
GAS LISTING /tmp/ccsdqu6D.s 			page 8


 278 01b4 130101FF 		addi	sp,sp,-16
 279              		.cfi_def_cfa_offset 16
 280 01b8 23341100 		sd	ra,8(sp)
 281 01bc 23308100 		sd	s0,0(sp)
 282              		.cfi_offset 1, -8
 283              		.cfi_offset 8, -16
 284 01c0 13040101 		addi	s0,sp,16
 285              		.cfi_def_cfa 8, 0
 107:src/KConsole.cpp ****         return;
 108:src/KConsole.cpp ****     pendingPutc++;
 286              		.loc 1 108 5 is_stmt 1
 287              		.loc 1 108 16 is_stmt 0
 288 01c4 13870600 		mv	a4,a3
 289 01c8 83B60603 		ld	a3,48(a3)
 290 01cc 93861600 		addi	a3,a3,1
 291 01d0 2338D702 		sd	a3,48(a4)
 109:src/KConsole.cpp ****     outputBuffer[outputTail] = c;
 292              		.loc 1 109 5 is_stmt 1
 293              		.loc 1 109 30 is_stmt 0
 294 01d4 97060000 		lla	a3,_ZN8KConsole12outputBufferE
 294      93860600 
 295 01dc 3386C600 		add	a2,a3,a2
 296 01e0 2300A600 		sb	a0,0(a2)
 110:src/KConsole.cpp ****     outputTail = (outputTail+1)%bufferSize;
 297              		.loc 1 110 5 is_stmt 1
 298              		.loc 1 110 16 is_stmt 0
 299 01e4 2330F702 		sd	a5,32(a4)
 111:src/KConsole.cpp ****     hasCharactersOutput->signal();
 300              		.loc 1 111 5 is_stmt 1
 301              		.loc 1 111 32 is_stmt 0
 302 01e8 03358700 		ld	a0,8(a4)
 303              	.LVL16:
 304 01ec 97000000 		call	_ZN10KSemaphore6signalEv@plt
 304      E7800000 
 305              	.LVL17:
 112:src/KConsole.cpp **** }
 306              		.loc 1 112 1
 307 01f4 83308100 		ld	ra,8(sp)
 308              		.cfi_restore 1
 309 01f8 03340100 		ld	s0,0(sp)
 310              		.cfi_restore 8
 311              		.cfi_def_cfa 2, 16
 312 01fc 13010101 		addi	sp,sp,16
 313              		.cfi_def_cfa_offset 0
 314 0200 67800000 		jr	ra
 315              	.LVL18:
 316              	.L21:
 317 0204 67800000 		ret
 318              		.cfi_endproc
 319              	.LFE30:
 321              		.align	2
 322              		.globl	_ZN8KConsole24getCharactersFromConsoleEPv
 324              	_ZN8KConsole24getCharactersFromConsoleEPv:
 325              	.LFB26:
  31:src/KConsole.cpp ****     while(true)
 326              		.loc 1 31 1 is_stmt 1
 327              		.cfi_startproc
GAS LISTING /tmp/ccsdqu6D.s 			page 9


 328              	.LVL19:
  32:src/KConsole.cpp ****     {
 329              		.loc 1 32 5
 330              	.LBB2:
  34:src/KConsole.cpp ****         __asm__ volatile("mv a0, %0"::"r"(x));
 331              		.loc 1 34 9
  34:src/KConsole.cpp ****         __asm__ volatile("mv a0, %0"::"r"(x));
 332              		.loc 1 34 16 is_stmt 0
 333 0208 97070000 		la	a5,CONSOLE_STATUS
 333      83B70700 
 334 0210 83B70700 		ld	a5,0(a5)
 335              	.LVL20:
  35:src/KConsole.cpp ****         __asm__ volatile("lb a1, 0(a0)");
 336              		.loc 1 35 9 is_stmt 1
  35:src/KConsole.cpp ****         __asm__ volatile("lb a1, 0(a0)");
 337              		.loc 1 35 46 is_stmt 0
 338              	#APP
 339              	# 35 "src/KConsole.cpp" 1
  36:src/KConsole.cpp ****         uint64 operation;
 340              		mv a0, a5
 341              	# 0 "" 2
 342              		.loc 1 36 9 is_stmt 1
  36:src/KConsole.cpp ****         uint64 operation;
 343              		.loc 1 36 41 is_stmt 0
 344              	# 36 "src/KConsole.cpp" 1
  37:src/KConsole.cpp ****         __asm__ volatile("mv %0, a1" :  "=r"(operation));
 345              		lb a1, 0(a0)
 346              	# 0 "" 2
 347              		.loc 1 37 9 is_stmt 1
  38:src/KConsole.cpp ****         if(operation & STATUS_READ_MASK)
 348              		.loc 1 38 9
  38:src/KConsole.cpp ****         if(operation & STATUS_READ_MASK)
 349              		.loc 1 38 57 is_stmt 0
 350              	# 38 "src/KConsole.cpp" 1
 351              		mv a5, a1
 352              	# 0 "" 2
 353              	.LVL21:
  39:src/KConsole.cpp ****         {
 354              		.loc 1 39 9 is_stmt 1
 355              	#NO_APP
 356              	.LBB3:
  39:src/KConsole.cpp ****         {
 357              		.loc 1 39 22 is_stmt 0
 358 0220 93F71700 		andi	a5,a5,1
 359              	.LVL22:
  39:src/KConsole.cpp ****         {
 360              		.loc 1 39 9
 361 0224 63800708 		beqz	a5,.L32
 362              	.LBE3:
 363              	.LBE2:
  31:src/KConsole.cpp ****     while(true)
 364              		.loc 1 31 1
 365 0228 130101FE 		addi	sp,sp,-32
 366              		.cfi_def_cfa_offset 32
 367 022c 233C1100 		sd	ra,24(sp)
 368 0230 23388100 		sd	s0,16(sp)
 369 0234 23349100 		sd	s1,8(sp)
GAS LISTING /tmp/ccsdqu6D.s 			page 10


 370              		.cfi_offset 1, -8
 371              		.cfi_offset 8, -16
 372              		.cfi_offset 9, -24
 373 0238 13040102 		addi	s0,sp,32
 374              		.cfi_def_cfa 8, 0
 375              	.LVL23:
 376              	.L28:
 377              	.LBB7:
 378              	.LBB5:
 379              	.LBB4:
  41:src/KConsole.cpp ****             __asm__ volatile("mv a0, %0"::"r"(x));
 380              		.loc 1 41 13 is_stmt 1
  41:src/KConsole.cpp ****             __asm__ volatile("mv a0, %0"::"r"(x));
 381              		.loc 1 41 15 is_stmt 0
 382 023c 97070000 		la	a5,CONSOLE_TX_DATA
 382      83B70700 
 383 0244 83B70700 		ld	a5,0(a5)
 384              	.LVL24:
  42:src/KConsole.cpp ****             __asm__ volatile("lb a1,0(a0)");
 385              		.loc 1 42 13 is_stmt 1
  42:src/KConsole.cpp ****             __asm__ volatile("lb a1,0(a0)");
 386              		.loc 1 42 50 is_stmt 0
 387              	#APP
 388              	# 42 "src/KConsole.cpp" 1
  43:src/KConsole.cpp ****             char c;
 389              		mv a0, a5
 390              	# 0 "" 2
 391              		.loc 1 43 13 is_stmt 1
  43:src/KConsole.cpp ****             char c;
 392              		.loc 1 43 44 is_stmt 0
 393              	# 43 "src/KConsole.cpp" 1
  44:src/KConsole.cpp ****             __asm__ volatile("mv %0, a1" :  "=r"(c));
 394              		lb a1,0(a0)
 395              	# 0 "" 2
 396              		.loc 1 44 13 is_stmt 1
  45:src/KConsole.cpp **** 
 397              		.loc 1 45 13
  45:src/KConsole.cpp **** 
 398              		.loc 1 45 53 is_stmt 0
 399              	# 45 "src/KConsole.cpp" 1
 400              		mv s1, a1
 401              	# 0 "" 2
 402              	#NO_APP
 403 0254 93F4F40F 		andi	s1,s1,0xff
 404              	.LVL25:
  47:src/KConsole.cpp ****             putCharacterOutput(c);
 405              		.loc 1 47 13 is_stmt 1
  47:src/KConsole.cpp ****             putCharacterOutput(c);
 406              		.loc 1 47 30 is_stmt 0
 407 0258 13850400 		mv	a0,s1
 408 025c 97000000 		call	_ZN8KConsole17putCharacterInputEc
 408      E7800000 
 409              	.LVL26:
  48:src/KConsole.cpp ****         }
 410              		.loc 1 48 13 is_stmt 1
  48:src/KConsole.cpp ****         }
 411              		.loc 1 48 31 is_stmt 0
GAS LISTING /tmp/ccsdqu6D.s 			page 11


 412 0264 13850400 		mv	a0,s1
 413 0268 97000000 		call	_ZN8KConsole18putCharacterOutputEc
 413      E7800000 
 414              	.LVL27:
 415              	.LBE4:
 416              	.LBE5:
 417              	.LBE7:
  32:src/KConsole.cpp ****     {
 418              		.loc 1 32 5 is_stmt 1
  32:src/KConsole.cpp ****     {
 419              		.loc 1 32 5
 420              	.LBB8:
  34:src/KConsole.cpp ****         __asm__ volatile("mv a0, %0"::"r"(x));
 421              		.loc 1 34 9
  34:src/KConsole.cpp ****         __asm__ volatile("mv a0, %0"::"r"(x));
 422              		.loc 1 34 16 is_stmt 0
 423 0270 97070000 		la	a5,CONSOLE_STATUS
 423      83B70700 
 424 0278 83B70700 		ld	a5,0(a5)
 425              	.LVL28:
  35:src/KConsole.cpp ****         __asm__ volatile("lb a1, 0(a0)");
 426              		.loc 1 35 9 is_stmt 1
  35:src/KConsole.cpp ****         __asm__ volatile("lb a1, 0(a0)");
 427              		.loc 1 35 46 is_stmt 0
 428              	#APP
 429              	# 35 "src/KConsole.cpp" 1
  36:src/KConsole.cpp ****         uint64 operation;
 430              		mv a0, a5
 431              	# 0 "" 2
 432              		.loc 1 36 9 is_stmt 1
  36:src/KConsole.cpp ****         uint64 operation;
 433              		.loc 1 36 41 is_stmt 0
 434              	# 36 "src/KConsole.cpp" 1
  37:src/KConsole.cpp ****         __asm__ volatile("mv %0, a1" :  "=r"(operation));
 435              		lb a1, 0(a0)
 436              	# 0 "" 2
 437              		.loc 1 37 9 is_stmt 1
  38:src/KConsole.cpp ****         if(operation & STATUS_READ_MASK)
 438              		.loc 1 38 9
  38:src/KConsole.cpp ****         if(operation & STATUS_READ_MASK)
 439              		.loc 1 38 57 is_stmt 0
 440              	# 38 "src/KConsole.cpp" 1
 441              		mv a5, a1
 442              	# 0 "" 2
 443              	.LVL29:
  39:src/KConsole.cpp ****         {
 444              		.loc 1 39 9 is_stmt 1
 445              	#NO_APP
 446              	.LBB6:
  39:src/KConsole.cpp ****         {
 447              		.loc 1 39 22 is_stmt 0
 448 0288 93F71700 		andi	a5,a5,1
 449              	.LVL30:
  39:src/KConsole.cpp ****         {
 450              		.loc 1 39 9
 451 028c E39807FA 		bnez	a5,.L28
 452              	.LBE6:
GAS LISTING /tmp/ccsdqu6D.s 			page 12


 453              	.LBE8:
  53:src/KConsole.cpp **** 
 454              		.loc 1 53 1
 455 0290 83308101 		ld	ra,24(sp)
 456              		.cfi_restore 1
 457 0294 03340101 		ld	s0,16(sp)
 458              		.cfi_restore 8
 459              		.cfi_def_cfa 2, 32
 460 0298 83348100 		ld	s1,8(sp)
 461              		.cfi_restore 9
 462              	.LVL31:
 463 029c 13010102 		addi	sp,sp,32
 464              		.cfi_def_cfa_offset 0
 465 02a0 67800000 		jr	ra
 466              	.LVL32:
 467              	.L32:
 468 02a4 67800000 		ret
 469              		.cfi_endproc
 470              	.LFE26:
 472              		.align	2
 473              		.globl	_ZN8KConsole18getCharacterOutputEv
 475              	_ZN8KConsole18getCharacterOutputEv:
 476              	.LFB31:
 113:src/KConsole.cpp **** 
 114:src/KConsole.cpp **** char KConsole::getCharacterOutput()
 115:src/KConsole.cpp **** {
 477              		.loc 1 115 1 is_stmt 1
 478              		.cfi_startproc
 479 02a8 130101FE 		addi	sp,sp,-32
 480              		.cfi_def_cfa_offset 32
 481 02ac 233C1100 		sd	ra,24(sp)
 482 02b0 23388100 		sd	s0,16(sp)
 483 02b4 23349100 		sd	s1,8(sp)
 484              		.cfi_offset 1, -8
 485              		.cfi_offset 8, -16
 486              		.cfi_offset 9, -24
 487 02b8 13040102 		addi	s0,sp,32
 488              		.cfi_def_cfa 8, 0
 116:src/KConsole.cpp ****     hasCharactersOutput->wait();
 489              		.loc 1 116 5
 490              		.loc 1 116 30 is_stmt 0
 491 02bc 97040000 		lla	s1,.LANCHOR0
 491      93840400 
 492 02c4 03B58400 		ld	a0,8(s1)
 493 02c8 97000000 		call	_ZN10KSemaphore4waitEv@plt
 493      E7800000 
 494              	.LVL33:
 117:src/KConsole.cpp ****     if(outputHead == outputTail)
 495              		.loc 1 117 5 is_stmt 1
 496              		.loc 1 117 19 is_stmt 0
 497 02d0 83B78402 		ld	a5,40(s1)
 498 02d4 03B70402 		ld	a4,32(s1)
 499              		.loc 1 117 5
 500 02d8 6380E704 		beq	a5,a4,.L35
 118:src/KConsole.cpp ****         return -1;
 119:src/KConsole.cpp **** 
 120:src/KConsole.cpp ****     char c = outputBuffer[outputHead];
GAS LISTING /tmp/ccsdqu6D.s 			page 13


 501              		.loc 1 120 5 is_stmt 1
 502              		.loc 1 120 10 is_stmt 0
 503 02dc 17070000 		lla	a4,_ZN8KConsole12outputBufferE
 503      13070700 
 504 02e4 3307F700 		add	a4,a4,a5
 505 02e8 03450700 		lbu	a0,0(a4)
 506              	.LVL34:
 121:src/KConsole.cpp **** 
 122:src/KConsole.cpp ****     outputHead = (outputHead+1)%bufferSize;
 507              		.loc 1 122 5 is_stmt 1
 508              		.loc 1 122 29 is_stmt 0
 509 02ec 93871700 		addi	a5,a5,1
 510              		.loc 1 122 32
 511 02f0 37270000 		li	a4,8192
 512 02f4 1307F7FF 		addi	a4,a4,-1
 513 02f8 B3F7E700 		and	a5,a5,a4
 514              		.loc 1 122 16
 515 02fc 17070000 		sd	a5,.LANCHOR0+40,a4
 515      2330F700 
 123:src/KConsole.cpp **** 
 124:src/KConsole.cpp ****     return c;
 516              		.loc 1 124 5 is_stmt 1
 517              	.LVL35:
 518              	.L34:
 125:src/KConsole.cpp **** }
 519              		.loc 1 125 1 is_stmt 0
 520 0304 83308101 		ld	ra,24(sp)
 521              		.cfi_remember_state
 522              		.cfi_restore 1
 523 0308 03340101 		ld	s0,16(sp)
 524              		.cfi_restore 8
 525              		.cfi_def_cfa 2, 32
 526 030c 83348100 		ld	s1,8(sp)
 527              		.cfi_restore 9
 528 0310 13010102 		addi	sp,sp,32
 529              		.cfi_def_cfa_offset 0
 530 0314 67800000 		jr	ra
 531              	.L35:
 532              		.cfi_restore_state
 118:src/KConsole.cpp **** 
 533              		.loc 1 118 17
 534 0318 1305F00F 		li	a0,255
 535 031c 6FF09FFE 		j	.L34
 536              		.cfi_endproc
 537              	.LFE31:
 539              		.align	2
 540              		.globl	_ZN8KConsole11putcHandlerEv
 542              	_ZN8KConsole11putcHandlerEv:
 543              	.LFB32:
 126:src/KConsole.cpp **** 
 127:src/KConsole.cpp **** void KConsole::putcHandler()
 128:src/KConsole.cpp **** {
 544              		.loc 1 128 1 is_stmt 1
 545              		.cfi_startproc
 546 0320 130101FF 		addi	sp,sp,-16
 547              		.cfi_def_cfa_offset 16
 548 0324 23341100 		sd	ra,8(sp)
GAS LISTING /tmp/ccsdqu6D.s 			page 14


 549 0328 23308100 		sd	s0,0(sp)
 550              		.cfi_offset 1, -8
 551              		.cfi_offset 8, -16
 552 032c 13040101 		addi	s0,sp,16
 553              		.cfi_def_cfa 8, 0
 129:src/KConsole.cpp ****     uint64 ch;
 554              		.loc 1 129 5
 130:src/KConsole.cpp ****     __asm__ volatile("mv %0, a1" : "=r"(ch));
 555              		.loc 1 130 5
 556              		.loc 1 130 45 is_stmt 0
 557              	#APP
 558              	# 130 "src/KConsole.cpp" 1
 131              	    putCharacterOutput((char)ch);
 559              		mv a0, a1
 560              	# 0 "" 2
 561              	.LVL36:
 562              		.loc 1 131 5 is_stmt 1
 563              		.loc 1 131 23 is_stmt 0
 564              	#NO_APP
 565 0334 1375F50F 		andi	a0,a0,0xff
 566              	.LVL37:
 567 0338 97000000 		call	_ZN8KConsole18putCharacterOutputEc
 567      E7800000 
 568              	.LVL38:
 132:src/KConsole.cpp **** }
 569              		.loc 1 132 1
 570 0340 83308100 		ld	ra,8(sp)
 571              		.cfi_restore 1
 572 0344 03340100 		ld	s0,0(sp)
 573              		.cfi_restore 8
 574              		.cfi_def_cfa 2, 16
 575 0348 13010101 		addi	sp,sp,16
 576              		.cfi_def_cfa_offset 0
 577 034c 67800000 		jr	ra
 578              		.cfi_endproc
 579              	.LFE32:
 581              		.align	2
 582              		.globl	_ZN8KConsole11getcHandlerEv
 584              	_ZN8KConsole11getcHandlerEv:
 585              	.LFB33:
 133:src/KConsole.cpp **** 
 134:src/KConsole.cpp **** void KConsole::getcHandler()
 135:src/KConsole.cpp **** {
 586              		.loc 1 135 1 is_stmt 1
 587              		.cfi_startproc
 588 0350 130101FE 		addi	sp,sp,-32
 589              		.cfi_def_cfa_offset 32
 590 0354 233C1100 		sd	ra,24(sp)
 591 0358 23388100 		sd	s0,16(sp)
 592 035c 23349100 		sd	s1,8(sp)
 593              		.cfi_offset 1, -8
 594              		.cfi_offset 8, -16
 595              		.cfi_offset 9, -24
 596 0360 13040102 		addi	s0,sp,32
 597              		.cfi_def_cfa 8, 0
 136:src/KConsole.cpp ****     pendingGetc++;
 598              		.loc 1 136 5
GAS LISTING /tmp/ccsdqu6D.s 			page 15


 599              		.loc 1 136 16 is_stmt 0
 600 0364 17070000 		lla	a4,.LANCHOR0
 600      13070700 
 601 036c 83378703 		ld	a5,56(a4)
 602 0370 93871700 		addi	a5,a5,1
 603 0374 233CF702 		sd	a5,56(a4)
 137:src/KConsole.cpp ****     char ch;
 604              		.loc 1 137 5 is_stmt 1
 138:src/KConsole.cpp ****     ch = getCharacterInput();
 605              		.loc 1 138 5
 606              		.loc 1 138 27 is_stmt 0
 607 0378 97000000 		call	_ZN8KConsole17getCharacterInputEv
 607      E7800000 
 608              	.LVL39:
 609 0380 93040500 		mv	s1,a0
 610              	.LVL40:
 139:src/KConsole.cpp ****     if(ch!=0x01b)
 611              		.loc 1 139 5 is_stmt 1
 612 0384 9307B001 		li	a5,27
 613 0388 6316F502 		bne	a0,a5,.L43
 614              	.LVL41:
 615              	.L40:
 140:src/KConsole.cpp ****         putCharacterOutput(ch);
 141:src/KConsole.cpp **** 
 142:src/KConsole.cpp ****     if(ch==13)
 616              		.loc 1 142 5
 617 038c 9307D000 		li	a5,13
 618 0390 6388F402 		beq	s1,a5,.L44
 619              	.L41:
 143:src/KConsole.cpp ****     {
 144:src/KConsole.cpp ****         putCharacterOutput(13);
 145:src/KConsole.cpp ****         putCharacterOutput(10);
 146:src/KConsole.cpp ****     }
 147:src/KConsole.cpp **** 
 148:src/KConsole.cpp ****     __asm__ volatile("mv a0, %0" : :"r"((uint64)ch));
 620              		.loc 1 148 5
 621              		.loc 1 148 53 is_stmt 0
 622              	#APP
 623              	# 148 "src/KConsole.cpp" 1
 149              	    Riscv::w_a0_sscratch();
 624              		mv a0, s1
 625              	# 0 "" 2
 626              		.loc 1 149 5 is_stmt 1
 627              		.loc 1 149 25 is_stmt 0
 628              	#NO_APP
 629 0398 97000000 		call	_ZN5Riscv13w_a0_sscratchEv@plt
 629      E7800000 
 630              	.LVL42:
 150:src/KConsole.cpp **** }
 631              		.loc 1 150 1
 632 03a0 83308101 		ld	ra,24(sp)
 633              		.cfi_remember_state
 634              		.cfi_restore 1
 635 03a4 03340101 		ld	s0,16(sp)
 636              		.cfi_restore 8
 637              		.cfi_def_cfa 2, 32
 638 03a8 83348100 		ld	s1,8(sp)
GAS LISTING /tmp/ccsdqu6D.s 			page 16


 639              		.cfi_restore 9
 640 03ac 13010102 		addi	sp,sp,32
 641              		.cfi_def_cfa_offset 0
 642 03b0 67800000 		jr	ra
 643              	.LVL43:
 644              	.L43:
 645              		.cfi_restore_state
 140:src/KConsole.cpp ****         putCharacterOutput(ch);
 646              		.loc 1 140 9 is_stmt 1
 140:src/KConsole.cpp ****         putCharacterOutput(ch);
 647              		.loc 1 140 27 is_stmt 0
 648 03b4 97000000 		call	_ZN8KConsole18putCharacterOutputEc
 648      E7800000 
 649              	.LVL44:
 650 03bc 6FF01FFD 		j	.L40
 651              	.L44:
 144:src/KConsole.cpp ****         putCharacterOutput(10);
 652              		.loc 1 144 9 is_stmt 1
 144:src/KConsole.cpp ****         putCharacterOutput(10);
 653              		.loc 1 144 27 is_stmt 0
 654 03c0 1305D000 		li	a0,13
 655 03c4 97000000 		call	_ZN8KConsole18putCharacterOutputEc
 655      E7800000 
 656              	.LVL45:
 145:src/KConsole.cpp ****     }
 657              		.loc 1 145 9 is_stmt 1
 145:src/KConsole.cpp ****     }
 658              		.loc 1 145 27 is_stmt 0
 659 03cc 1305A000 		li	a0,10
 660 03d0 97000000 		call	_ZN8KConsole18putCharacterOutputEc
 660      E7800000 
 661              	.LVL46:
 662 03d8 6FF0DFFB 		j	.L41
 663              		.cfi_endproc
 664              	.LFE33:
 666              		.align	2
 667              		.globl	_ZN8KConsole17outputBufferEmptyEv
 669              	_ZN8KConsole17outputBufferEmptyEv:
 670              	.LFB34:
 151:src/KConsole.cpp **** 
 152:src/KConsole.cpp **** bool KConsole::outputBufferEmpty()
 153:src/KConsole.cpp **** {
 671              		.loc 1 153 1 is_stmt 1
 672              		.cfi_startproc
 673 03dc 130101FF 		addi	sp,sp,-16
 674              		.cfi_def_cfa_offset 16
 675 03e0 23348100 		sd	s0,8(sp)
 676              		.cfi_offset 8, -8
 677 03e4 13040101 		addi	s0,sp,16
 678              		.cfi_def_cfa 8, 0
 154:src/KConsole.cpp ****     return pendingPutc == 0;
 679              		.loc 1 154 5
 155:src/KConsole.cpp **** }
 680              		.loc 1 155 1 is_stmt 0
 681 03e8 17050000 		ld	a0,.LANCHOR0+48
 681      03350500 
 682 03f0 13351500 		seqz	a0,a0
GAS LISTING /tmp/ccsdqu6D.s 			page 17


 683 03f4 03348100 		ld	s0,8(sp)
 684              		.cfi_restore 8
 685              		.cfi_def_cfa 2, 16
 686 03f8 13010101 		addi	sp,sp,16
 687              		.cfi_def_cfa_offset 0
 688 03fc 67800000 		jr	ra
 689              		.cfi_endproc
 690              	.LFE34:
 692              		.align	2
 693              		.globl	_ZN8KConsole23sendCharactersToConsoleEPv
 695              	_ZN8KConsole23sendCharactersToConsoleEPv:
 696              	.LFB27:
  56:src/KConsole.cpp ****     while(true)
 697              		.loc 1 56 1 is_stmt 1
 698              		.cfi_startproc
 699              	.LVL47:
 700 0400 130101FE 		addi	sp,sp,-32
 701              		.cfi_def_cfa_offset 32
 702 0404 233C1100 		sd	ra,24(sp)
 703 0408 23388100 		sd	s0,16(sp)
 704              		.cfi_offset 1, -8
 705              		.cfi_offset 8, -16
 706 040c 13040102 		addi	s0,sp,32
 707              		.cfi_def_cfa 8, 0
 708 0410 6F008001 		j	.L48
 709              	.LVL48:
 710              	.L53:
 711              	.LBB9:
  60:src/KConsole.cpp **** 
 712              		.loc 1 60 17
  60:src/KConsole.cpp **** 
 713              		.loc 1 60 28 is_stmt 0
 714 0414 97000000 		call	thread_exit@plt
 714      E7800000 
 715              	.LVL49:
 716 041c 6F004003 		j	.L49
 717              	.LVL50:
 718              	.L50:
 719              	.LBB10:
  78:src/KConsole.cpp ****             }
 720              		.loc 1 78 17 is_stmt 1
  78:src/KConsole.cpp ****             }
 721              		.loc 1 78 32 is_stmt 0
 722 0420 97000000 		call	thread_dispatch@plt
 722      E7800000 
 723              	.LVL51:
 724              	.L48:
 725              	.LBE10:
 726              	.LBE9:
  57:src/KConsole.cpp ****     {
 727              		.loc 1 57 5 is_stmt 1
 728              	.LBB13:
  59:src/KConsole.cpp ****                 thread_exit();
 729              		.loc 1 59 13
  59:src/KConsole.cpp ****                 thread_exit();
 730              		.loc 1 59 69 is_stmt 0
 731 0428 97070000 		la	a5,_ZN5Riscv12finishSystemE
GAS LISTING /tmp/ccsdqu6D.s 			page 18


 731      83B70700 
 732 0430 83C70700 		lbu	a5,0(a5)
 733 0434 638E0700 		beqz	a5,.L49
  59:src/KConsole.cpp ****                 thread_exit();
 734              		.loc 1 59 66 discriminator 1
 735 0438 97000000 		call	_ZN8KConsole17outputBufferEmptyEv
 735      E7800000 
 736              	.LVL52:
  59:src/KConsole.cpp ****                 thread_exit();
 737              		.loc 1 59 36 discriminator 1
 738 0440 63080500 		beqz	a0,.L49
  59:src/KConsole.cpp ****                 thread_exit();
 739              		.loc 1 59 84 discriminator 3
 740 0444 97070000 		ld	a5,.LANCHOR0+56
 740      83B70700 
  59:src/KConsole.cpp ****                 thread_exit();
 741              		.loc 1 59 69 discriminator 3
 742 044c E38407FC 		beqz	a5,.L53
 743              	.L49:
  62:src/KConsole.cpp ****             __asm__ volatile("mv a0, %0"::"r"(x));
 744              		.loc 1 62 13 is_stmt 1
  62:src/KConsole.cpp ****             __asm__ volatile("mv a0, %0"::"r"(x));
 745              		.loc 1 62 20 is_stmt 0
 746 0450 97070000 		la	a5,CONSOLE_STATUS
 746      83B70700 
 747 0458 83B70700 		ld	a5,0(a5)
 748              	.LVL53:
  63:src/KConsole.cpp ****             __asm__ volatile("lb a1, 0(a0)");
 749              		.loc 1 63 13 is_stmt 1
  63:src/KConsole.cpp ****             __asm__ volatile("lb a1, 0(a0)");
 750              		.loc 1 63 50 is_stmt 0
 751              	#APP
 752              	# 63 "src/KConsole.cpp" 1
  64:src/KConsole.cpp ****             uint64 operation;
 753              		mv a0, a5
 754              	# 0 "" 2
 755              		.loc 1 64 13 is_stmt 1
  64:src/KConsole.cpp ****             uint64 operation;
 756              		.loc 1 64 45 is_stmt 0
 757              	# 64 "src/KConsole.cpp" 1
  65:src/KConsole.cpp ****             __asm__ volatile("mv %0, a1" :  "=r"(operation));
 758              		lb a1, 0(a0)
 759              	# 0 "" 2
 760              		.loc 1 65 13 is_stmt 1
  66:src/KConsole.cpp ****             if ((operation & STATUS_WRITE_MASK) && pendingPutc > 0)
 761              		.loc 1 66 13
  66:src/KConsole.cpp ****             if ((operation & STATUS_WRITE_MASK) && pendingPutc > 0)
 762              		.loc 1 66 61 is_stmt 0
 763              	# 66 "src/KConsole.cpp" 1
 764              		mv a5, a1
 765              	# 0 "" 2
 766              	.LVL54:
  67:src/KConsole.cpp ****             {
 767              		.loc 1 67 13 is_stmt 1
 768              	#NO_APP
 769              	.LBB12:
  67:src/KConsole.cpp ****             {
GAS LISTING /tmp/ccsdqu6D.s 			page 19


 770              		.loc 1 67 28 is_stmt 0
 771 0468 93F70702 		andi	a5,a5,32
 772              	.LVL55:
  67:src/KConsole.cpp ****             {
 773              		.loc 1 67 13
 774 046c E38A07FA 		beqz	a5,.L50
  67:src/KConsole.cpp ****             {
 775              		.loc 1 67 64 discriminator 1
 776 0470 97070000 		ld	a5,.LANCHOR0+48
 776      83B70700 
  67:src/KConsole.cpp ****             {
 777              		.loc 1 67 49 discriminator 1
 778 0478 E38407FA 		beqz	a5,.L50
 779              	.LBB11:
  69:src/KConsole.cpp ****                 pendingPutc--;
 780              		.loc 1 69 17 is_stmt 1
  69:src/KConsole.cpp ****                 pendingPutc--;
 781              		.loc 1 69 55 is_stmt 0
 782 047c 97000000 		call	sysCallGetCharOutput@plt
 782      E7800000 
 783              	.LVL56:
  69:src/KConsole.cpp ****                 pendingPutc--;
 784              		.loc 1 69 56
 785 0484 A307A4FE 		sb	a0,-17(s0)
  70:src/KConsole.cpp ****                 x = CONSOLE_RX_DATA;
 786              		.loc 1 70 17 is_stmt 1
  70:src/KConsole.cpp ****                 x = CONSOLE_RX_DATA;
 787              		.loc 1 70 28 is_stmt 0
 788 0488 17070000 		lla	a4,.LANCHOR0
 788      13070700 
 789 0490 83370703 		ld	a5,48(a4)
 790 0494 9387F7FF 		addi	a5,a5,-1
 791 0498 2338F702 		sd	a5,48(a4)
  71:src/KConsole.cpp ****                 __asm__ volatile("mv a0, %0"::"r"(x));
 792              		.loc 1 71 17 is_stmt 1
  71:src/KConsole.cpp ****                 __asm__ volatile("mv a0, %0"::"r"(x));
 793              		.loc 1 71 19 is_stmt 0
 794 049c 97070000 		la	a5,CONSOLE_RX_DATA
 794      83B70700 
 795 04a4 83B70700 		ld	a5,0(a5)
 796              	.LVL57:
  72:src/KConsole.cpp ****                 __asm__ volatile("mv a1, %0" :  :"r"((uint64)c));
 797              		.loc 1 72 17 is_stmt 1
  72:src/KConsole.cpp ****                 __asm__ volatile("mv a1, %0" :  :"r"((uint64)c));
 798              		.loc 1 72 54 is_stmt 0
 799              	#APP
 800              	# 72 "src/KConsole.cpp" 1
  73:src/KConsole.cpp ****                 __asm__ volatile("sb a1,0(a0)");
 801              		mv a0, a5
 802              	# 0 "" 2
 803              		.loc 1 73 17 is_stmt 1
  73:src/KConsole.cpp ****                 __asm__ volatile("sb a1,0(a0)");
 804              		.loc 1 73 54 is_stmt 0
 805              	#NO_APP
 806 04ac 8347F4FE 		lbu	a5,-17(s0)
 807              	.LVL58:
 808 04b0 93F7F70F 		andi	a5,a5,0xff
GAS LISTING /tmp/ccsdqu6D.s 			page 20


  73:src/KConsole.cpp ****                 __asm__ volatile("sb a1,0(a0)");
 809              		.loc 1 73 65
 810              	#APP
 811              	# 73 "src/KConsole.cpp" 1
  74:src/KConsole.cpp ****             }
 812              		mv a1, a5
 813              	# 0 "" 2
 814              		.loc 1 74 17 is_stmt 1
  74:src/KConsole.cpp ****             }
 815              		.loc 1 74 48 is_stmt 0
 816              	# 74 "src/KConsole.cpp" 1
 817              		sb a1,0(a0)
 818              	# 0 "" 2
 819              	#NO_APP
 820              	.LBE11:
 821 04bc 6FF0DFF6 		j	.L48
 822              	.LBE12:
 823              	.LBE13:
 824              		.cfi_endproc
 825              	.LFE27:
 827              		.align	2
 828              		.globl	_ZN8KConsole14getCharHandlerEv
 830              	_ZN8KConsole14getCharHandlerEv:
 831              	.LFB35:
 156:src/KConsole.cpp **** 
 157:src/KConsole.cpp **** void KConsole::getCharHandler()
 158:src/KConsole.cpp **** {
 832              		.loc 1 158 1 is_stmt 1
 833              		.cfi_startproc
 834 04c0 130101FF 		addi	sp,sp,-16
 835              		.cfi_def_cfa_offset 16
 836 04c4 23341100 		sd	ra,8(sp)
 837 04c8 23308100 		sd	s0,0(sp)
 838              		.cfi_offset 1, -8
 839              		.cfi_offset 8, -16
 840 04cc 13040101 		addi	s0,sp,16
 841              		.cfi_def_cfa 8, 0
 159:src/KConsole.cpp ****     char ch;
 842              		.loc 1 159 5
 160:src/KConsole.cpp ****     ch = getCharacterOutput();
 843              		.loc 1 160 5
 844              		.loc 1 160 28 is_stmt 0
 845 04d0 97000000 		call	_ZN8KConsole18getCharacterOutputEv
 845      E7800000 
 846              	.LVL59:
 161:src/KConsole.cpp ****     __asm__ volatile("mv a0, %0" : :"r"((uint64)ch));
 847              		.loc 1 161 5 is_stmt 1
 848              		.loc 1 161 53 is_stmt 0
 849              	#APP
 850              	# 161 "src/KConsole.cpp" 1
 162              	    Riscv::w_a0_sscratch();
 851              		mv a0, a0
 852              	# 0 "" 2
 853              		.loc 1 162 5 is_stmt 1
 854              		.loc 1 162 25 is_stmt 0
 855              	#NO_APP
 856 04dc 97000000 		call	_ZN5Riscv13w_a0_sscratchEv@plt
GAS LISTING /tmp/ccsdqu6D.s 			page 21


 856      E7800000 
 857              	.LVL60:
 163:src/KConsole.cpp **** }
 858              		.loc 1 163 1
 859 04e4 83308100 		ld	ra,8(sp)
 860              		.cfi_restore 1
 861 04e8 03340100 		ld	s0,0(sp)
 862              		.cfi_restore 8
 863              		.cfi_def_cfa 2, 16
 864 04ec 13010101 		addi	sp,sp,16
 865              		.cfi_def_cfa_offset 0
 866 04f0 67800000 		jr	ra
 867              		.cfi_endproc
 868              	.LFE35:
 870              		.align	2
 871              		.globl	_ZN8KConsole15trapPrintStringEPKc
 873              	_ZN8KConsole15trapPrintStringEPKc:
 874              	.LFB36:
 164:src/KConsole.cpp **** 
 165:src/KConsole.cpp **** void KConsole::trapPrintString(const char *string)
 166:src/KConsole.cpp **** {
 875              		.loc 1 166 1 is_stmt 1
 876              		.cfi_startproc
 877              	.LVL61:
 878 04f4 130101FE 		addi	sp,sp,-32
 879              		.cfi_def_cfa_offset 32
 880 04f8 233C1100 		sd	ra,24(sp)
 881 04fc 23388100 		sd	s0,16(sp)
 882 0500 23349100 		sd	s1,8(sp)
 883              		.cfi_offset 1, -8
 884              		.cfi_offset 8, -16
 885              		.cfi_offset 9, -24
 886 0504 13040102 		addi	s0,sp,32
 887              		.cfi_def_cfa 8, 0
 888 0508 93040500 		mv	s1,a0
 889              	.LVL62:
 890              	.L58:
 167:src/KConsole.cpp ****     while (*string != '\0')
 891              		.loc 1 167 5
 892              		.loc 1 167 20
 893              		.loc 1 167 12 is_stmt 0
 894 050c 03C50400 		lbu	a0,0(s1)
 895              		.loc 1 167 20
 896 0510 630A0500 		beqz	a0,.L56
 168:src/KConsole.cpp ****     {
 169:src/KConsole.cpp ****         KConsole::putCharacterOutput(*string);
 897              		.loc 1 169 9 is_stmt 1
 898              		.loc 1 169 37 is_stmt 0
 899 0514 97000000 		call	_ZN8KConsole18putCharacterOutputEc
 899      E7800000 
 900              	.LVL63:
 170:src/KConsole.cpp ****         string++;
 901              		.loc 1 170 9 is_stmt 1
 902              		.loc 1 170 15 is_stmt 0
 903 051c 93841400 		addi	s1,s1,1
 904              	.LVL64:
 167:src/KConsole.cpp ****     while (*string != '\0')
GAS LISTING /tmp/ccsdqu6D.s 			page 22


 905              		.loc 1 167 5
 906 0520 6FF0DFFE 		j	.L58
 907              	.L56:
 171:src/KConsole.cpp ****     }
 172:src/KConsole.cpp **** }
 908              		.loc 1 172 1
 909 0524 83308101 		ld	ra,24(sp)
 910              		.cfi_restore 1
 911 0528 03340101 		ld	s0,16(sp)
 912              		.cfi_restore 8
 913              		.cfi_def_cfa 2, 32
 914 052c 83348100 		ld	s1,8(sp)
 915              		.cfi_restore 9
 916              	.LVL65:
 917 0530 13010102 		addi	sp,sp,32
 918              		.cfi_def_cfa_offset 0
 919 0534 67800000 		jr	ra
 920              		.cfi_endproc
 921              	.LFE36:
 923              		.section	.rodata.str1.8,"aMS",@progbits,1
 924              		.align	3
 925              	.LC0:
 926 0000 30313233 		.string	"0123456789ABCDEF"
 926      34353637 
 926      38394142 
 926      43444546 
 926      00
 927              		.text
 928              		.align	2
 929              		.globl	_ZN8KConsole8printIntEiii
 931              	_ZN8KConsole8printIntEiii:
 932              	.LFB37:
 173:src/KConsole.cpp **** 
 174:src/KConsole.cpp **** void KConsole::printInt(int xx, int base, int sgn)
 175:src/KConsole.cpp **** {
 933              		.loc 1 175 1 is_stmt 1
 934              		.cfi_startproc
 935              	.LVL66:
 936 0538 130101FB 		addi	sp,sp,-80
 937              		.cfi_def_cfa_offset 80
 938 053c 23341104 		sd	ra,72(sp)
 939 0540 23308104 		sd	s0,64(sp)
 940 0544 233C9102 		sd	s1,56(sp)
 941              		.cfi_offset 1, -8
 942              		.cfi_offset 8, -16
 943              		.cfi_offset 9, -24
 944 0548 13040105 		addi	s0,sp,80
 945              		.cfi_def_cfa 8, 0
 176:src/KConsole.cpp ****     char digits[] = "0123456789ABCDEF";
 946              		.loc 1 176 5
 947              		.loc 1 176 10 is_stmt 0
 948 054c 97070000 		lla	a5,.LC0
 948      93870700 
 949 0554 03B70700 		ld	a4,0(a5)
 950 0558 2334E4FC 		sd	a4,-56(s0)
 951 055c 03B78700 		ld	a4,8(a5)
 952 0560 2338E4FC 		sd	a4,-48(s0)
GAS LISTING /tmp/ccsdqu6D.s 			page 23


 953 0564 83C70701 		lbu	a5,16(a5)
 954 0568 230CF4FC 		sb	a5,-40(s0)
 177:src/KConsole.cpp ****     char buf[16];
 955              		.loc 1 177 5 is_stmt 1
 178:src/KConsole.cpp ****     int i, neg;
 956              		.loc 1 178 5
 179:src/KConsole.cpp ****     uint x;
 957              		.loc 1 179 5
 180:src/KConsole.cpp **** 
 181:src/KConsole.cpp ****     neg = 0;
 958              		.loc 1 181 5
 959              	.LVL67:
 182:src/KConsole.cpp ****     if(sgn && xx < 0){
 960              		.loc 1 182 5
 961 056c 63040600 		beqz	a2,.L61
 962              		.loc 1 182 12 is_stmt 0 discriminator 1
 963 0570 63420508 		bltz	a0,.L68
 964              	.L61:
 183:src/KConsole.cpp ****         neg = 1;
 184:src/KConsole.cpp ****         x = -xx;
 185:src/KConsole.cpp ****     } else {
 186:src/KConsole.cpp ****         x = xx;
 965              		.loc 1 186 9 is_stmt 1
 966              		.loc 1 186 11 is_stmt 0
 967 0574 1B050500 		sext.w	a0,a0
 968              	.LVL68:
 181:src/KConsole.cpp ****     if(sgn && xx < 0){
 969              		.loc 1 181 9
 970 0578 13080000 		li	a6,0
 971              	.LVL69:
 972              	.L62:
 187:src/KConsole.cpp ****     }
 188:src/KConsole.cpp **** 
 189:src/KConsole.cpp ****     i = 0;
 973              		.loc 1 189 5 is_stmt 1
 974              		.loc 1 189 7 is_stmt 0
 975 057c 93040000 		li	s1,0
 976              	.LVL70:
 977              	.L63:
 190:src/KConsole.cpp ****     do{
 978              		.loc 1 190 5 is_stmt 1
 191:src/KConsole.cpp ****         buf[i++] = digits[x % base];
 979              		.loc 1 191 9
 980              		.loc 1 191 31 is_stmt 0
 981 0580 1B870500 		sext.w	a4,a1
 982              		.loc 1 191 29
 983 0584 BB77B502 		remuw	a5,a0,a1
 984 0588 93860400 		mv	a3,s1
 985              		.loc 1 191 14
 986 058c 9B841400 		addiw	s1,s1,1
 987              	.LVL71:
 988              		.loc 1 191 35
 989 0590 93970702 		slli	a5,a5,32
 990 0594 93D70702 		srli	a5,a5,32
 991 0598 130604FE 		addi	a2,s0,-32
 992 059c B307F600 		add	a5,a2,a5
 993 05a0 03C687FE 		lbu	a2,-24(a5)
GAS LISTING /tmp/ccsdqu6D.s 			page 24


 994              		.loc 1 191 18
 995 05a4 930704FE 		addi	a5,s0,-32
 996 05a8 B387D700 		add	a5,a5,a3
 997 05ac 238CC7FC 		sb	a2,-40(a5)
 192:src/KConsole.cpp ****     }while((x /= base) != 0);
 998              		.loc 1 192 24 is_stmt 1
 999 05b0 1B060500 		sext.w	a2,a0
 1000              		.loc 1 192 15 is_stmt 0
 1001 05b4 3B55B502 		divuw	a0,a0,a1
 1002              	.LVL72:
 1003              		.loc 1 192 24
 1004 05b8 E374E6FC 		bleu	a4,a2,.L63
 193:src/KConsole.cpp ****     if(neg)
 1005              		.loc 1 193 5 is_stmt 1
 1006 05bc 630C0800 		beqz	a6,.L66
 194:src/KConsole.cpp ****         buf[i++] = '-';
 1007              		.loc 1 194 9
 1008              	.LVL73:
 1009              		.loc 1 194 18 is_stmt 0
 1010 05c0 930704FE 		addi	a5,s0,-32
 1011 05c4 B3849700 		add	s1,a5,s1
 1012 05c8 9307D002 		li	a5,45
 1013 05cc 238CF4FC 		sb	a5,-40(s1)
 1014              		.loc 1 194 14
 1015 05d0 9B842600 		addiw	s1,a3,2
 1016              	.LVL74:
 1017              	.L66:
 195:src/KConsole.cpp **** 
 196:src/KConsole.cpp ****     while(--i >= 0)
 1018              		.loc 1 196 5 is_stmt 1
 1019              		.loc 1 196 15
 1020 05d4 9B84F4FF 		addiw	s1,s1,-1
 1021              	.LVL75:
 1022 05d8 63C40402 		bltz	s1,.L60
 197:src/KConsole.cpp ****         KConsole::putCharacterOutput(buf[i]);
 1023              		.loc 1 197 9
 1024              		.loc 1 197 37 is_stmt 0
 1025 05dc 930704FE 		addi	a5,s0,-32
 1026 05e0 B3879700 		add	a5,a5,s1
 1027 05e4 03C587FD 		lbu	a0,-40(a5)
 1028 05e8 97000000 		call	_ZN8KConsole18putCharacterOutputEc
 1028      E7800000 
 1029              	.LVL76:
 1030 05f0 6FF05FFE 		j	.L66
 1031              	.LVL77:
 1032              	.L68:
 183:src/KConsole.cpp ****         x = -xx;
 1033              		.loc 1 183 9 is_stmt 1
 184:src/KConsole.cpp ****     } else {
 1034              		.loc 1 184 9
 184:src/KConsole.cpp ****     } else {
 1035              		.loc 1 184 11 is_stmt 0
 1036 05f4 3B05A040 		negw	a0,a0
 1037              	.LVL78:
 183:src/KConsole.cpp ****         x = -xx;
 1038              		.loc 1 183 13
 1039 05f8 13081000 		li	a6,1
GAS LISTING /tmp/ccsdqu6D.s 			page 25


 184:src/KConsole.cpp ****     } else {
 1040              		.loc 1 184 11
 1041 05fc 6FF01FF8 		j	.L62
 1042              	.LVL79:
 1043              	.L60:
 198:src/KConsole.cpp **** }
 1044              		.loc 1 198 1
 1045 0600 83308104 		ld	ra,72(sp)
 1046              		.cfi_restore 1
 1047 0604 03340104 		ld	s0,64(sp)
 1048              		.cfi_restore 8
 1049              		.cfi_def_cfa 2, 80
 1050 0608 83348103 		ld	s1,56(sp)
 1051              		.cfi_restore 9
 1052 060c 13010105 		addi	sp,sp,80
 1053              		.cfi_def_cfa_offset 0
 1054 0610 67800000 		jr	ra
 1055              		.cfi_endproc
 1056              	.LFE37:
 1058              		.globl	_ZN8KConsole11pendingPutcE
 1059              		.globl	_ZN8KConsole12outputBufferE
 1060              		.globl	_ZN8KConsole11inputBufferE
 1061              		.globl	_ZN8KConsole11pendingGetcE
 1062              		.globl	_ZN8KConsole18hasCharactersInputE
 1063              		.globl	_ZN8KConsole19hasCharactersOutputE
 1064              		.globl	_ZN8KConsole10outputTailE
 1065              		.globl	_ZN8KConsole10outputHeadE
 1066              		.globl	_ZN8KConsole9inputTailE
 1067              		.globl	_ZN8KConsole9inputHeadE
 1068              		.bss
 1069              		.align	3
 1070              		.set	.LANCHOR0,. + 0
 1073              	_ZN8KConsole18hasCharactersInputE:
 1074 0000 00000000 		.zero	8
 1074      00000000 
 1077              	_ZN8KConsole19hasCharactersOutputE:
 1078 0008 00000000 		.zero	8
 1078      00000000 
 1081              	_ZN8KConsole9inputTailE:
 1082 0010 00000000 		.zero	8
 1082      00000000 
 1085              	_ZN8KConsole9inputHeadE:
 1086 0018 00000000 		.zero	8
 1086      00000000 
 1089              	_ZN8KConsole10outputTailE:
 1090 0020 00000000 		.zero	8
 1090      00000000 
 1093              	_ZN8KConsole10outputHeadE:
 1094 0028 00000000 		.zero	8
 1094      00000000 
 1097              	_ZN8KConsole11pendingPutcE:
 1098 0030 00000000 		.zero	8
 1098      00000000 
 1101              	_ZN8KConsole11pendingGetcE:
 1102 0038 00000000 		.zero	8
 1102      00000000 
 1105              	_ZN8KConsole12outputBufferE:
GAS LISTING /tmp/ccsdqu6D.s 			page 26


 1106 0040 00000000 		.zero	8192
 1106      00000000 
 1106      00000000 
 1106      00000000 
 1106      00000000 
 1109              	_ZN8KConsole11inputBufferE:
 1110 2040 00000000 		.zero	8192
 1110      00000000 
 1110      00000000 
 1110      00000000 
 1110      00000000 
 1111              		.text
 1112              	.Letext0:
 1113              		.file 2 "src/../h/../lib/hw.h"
 1114              		.file 3 "src/../h/PCB.hpp"
 1115              		.file 4 "src/../h/Riscv.hpp"
 1116              		.file 5 "src/../h/KSemaphore.hpp"
 1117              		.file 6 "src/../h/KConsole.hpp"
 1118              		.file 7 "src/../h/../test/../h/syscall_c.h"
 4989              		.align	3
 4992              	DW.ref.__gxx_personality_v0:
 4993 0000 00000000 		.dword	__gxx_personality_v0
 4993      00000000 
 4994              		.ident	"GCC: (Ubuntu 9.3.0-17ubuntu1~20.04) 9.3.0"
 4995              		.section	.note.GNU-stack,"",@progbits
GAS LISTING /tmp/ccsdqu6D.s 			page 27

