GAS LISTING /tmp/ccEjNa1o.s 			page 1


   1              		.file	"KSemaphore.cpp"
   2              		.option pic
   3              		.option norelax
   4              		.text
   5              	.Ltext0:
   6              		.align	2
   7              		.globl	_ZN10KSemaphoreC2Ei
   9              	_ZN10KSemaphoreC2Ei:
  10              	.LFB22:
  11              		.file 1 "src/KSemaphore.cpp"
   1:src/KSemaphore.cpp **** //
   2:src/KSemaphore.cpp **** // Created by os on 5/2/22.
   3:src/KSemaphore.cpp **** //
   4:src/KSemaphore.cpp **** 
   5:src/KSemaphore.cpp **** #include "../h/KSemaphore.hpp"
   6:src/KSemaphore.cpp **** #include "../h/MemoryAllocator.hpp"
   7:src/KSemaphore.cpp **** 
   8:src/KSemaphore.cpp **** KSemaphore::KSemaphore(int val)
  12              		.loc 1 8 1
  13              		.cfi_startproc
  14              	.LVL0:
  15 0000 130101FF 		addi	sp,sp,-16
  16              		.cfi_def_cfa_offset 16
  17 0004 23348100 		sd	s0,8(sp)
  18              		.cfi_offset 8, -8
  19 0008 13040101 		addi	s0,sp,16
  20              		.cfi_def_cfa 8, 0
  21              	.LBB4:
   9:src/KSemaphore.cpp **** {
  10:src/KSemaphore.cpp ****     this->val = this->beginVal = val;
  22              		.loc 1 10 5
  23              		.loc 1 10 32 is_stmt 0
  24 000c 232AB500 		sw	a1,20(a0)
  25              		.loc 1 10 15
  26 0010 2328B500 		sw	a1,16(a0)
  11:src/KSemaphore.cpp ****     headBlocked = tailBlocked = 0;
  27              		.loc 1 11 5 is_stmt 1
  28              		.loc 1 11 31 is_stmt 0
  29 0014 23340500 		sd	zero,8(a0)
  30              		.loc 1 11 17
  31 0018 23300500 		sd	zero,0(a0)
  32              	.LBE4:
  12:src/KSemaphore.cpp **** }
  33              		.loc 1 12 1
  34 001c 03348100 		ld	s0,8(sp)
  35              		.cfi_restore 8
  36              		.cfi_def_cfa 2, 16
  37 0020 13010101 		addi	sp,sp,16
  38              		.cfi_def_cfa_offset 0
  39 0024 67800000 		jr	ra
  40              		.cfi_endproc
  41              	.LFE22:
  43              		.globl	_ZN10KSemaphoreC1Ei
  44              		.set	_ZN10KSemaphoreC1Ei,_ZN10KSemaphoreC2Ei
  45              		.align	2
  46              		.globl	_ZN10KSemaphore12addToBlockedEP3PCB
  48              	_ZN10KSemaphore12addToBlockedEP3PCB:
GAS LISTING /tmp/ccEjNa1o.s 			page 2


  49              	.LFB29:
  13:src/KSemaphore.cpp **** 
  14:src/KSemaphore.cpp **** uint64 KSemaphore::wait() {
  15:src/KSemaphore.cpp ****     if(--val < 0)
  16:src/KSemaphore.cpp ****         block();
  17:src/KSemaphore.cpp **** 
  18:src/KSemaphore.cpp ****     return 0;
  19:src/KSemaphore.cpp **** }
  20:src/KSemaphore.cpp **** 
  21:src/KSemaphore.cpp **** uint64 KSemaphore::signal() {
  22:src/KSemaphore.cpp ****     if(++val <= 0)
  23:src/KSemaphore.cpp ****         unblock();
  24:src/KSemaphore.cpp **** 
  25:src/KSemaphore.cpp ****     return 0;
  26:src/KSemaphore.cpp **** }
  27:src/KSemaphore.cpp **** 
  28:src/KSemaphore.cpp **** //todo
  29:src/KSemaphore.cpp **** //sta treba da vrate ovi PCB-ovi u wait-u
  30:src/KSemaphore.cpp **** KSemaphore::~KSemaphore()
  31:src/KSemaphore.cpp **** {
  32:src/KSemaphore.cpp ****     while(getFirstBlocked() != 0)
  33:src/KSemaphore.cpp ****     {
  34:src/KSemaphore.cpp ****         PCB* pcb = getFirstBlocked();
  35:src/KSemaphore.cpp ****         removeFirstBlocked();
  36:src/KSemaphore.cpp ****         Scheduler::put(pcb);
  37:src/KSemaphore.cpp ****     }
  38:src/KSemaphore.cpp **** }
  39:src/KSemaphore.cpp **** 
  40:src/KSemaphore.cpp **** void KSemaphore::addToBlocked(PCB* pcb)
  41:src/KSemaphore.cpp **** {
  50              		.loc 1 41 1 is_stmt 1
  51              		.cfi_startproc
  52              	.LVL1:
  53 0028 130101FF 		addi	sp,sp,-16
  54              		.cfi_def_cfa_offset 16
  55 002c 23348100 		sd	s0,8(sp)
  56              		.cfi_offset 8, -8
  57 0030 13040101 		addi	s0,sp,16
  58              		.cfi_def_cfa 8, 0
  42:src/KSemaphore.cpp ****     pcb->nextPCB = 0;
  59              		.loc 1 42 5
  60              		.loc 1 42 18 is_stmt 0
  61 0034 23B40500 		sd	zero,8(a1)
  43:src/KSemaphore.cpp ****     if(headBlocked == 0)
  62              		.loc 1 43 5 is_stmt 1
  63              		.loc 1 43 8 is_stmt 0
  64 0038 83370500 		ld	a5,0(a0)
  65              		.loc 1 43 5
  66 003c 638E0700 		beqz	a5,.L7
  44:src/KSemaphore.cpp ****     {
  45:src/KSemaphore.cpp ****         headBlocked = tailBlocked = pcb;
  46:src/KSemaphore.cpp ****     }
  47:src/KSemaphore.cpp ****     else
  48:src/KSemaphore.cpp ****     {
  49:src/KSemaphore.cpp ****         tailBlocked->nextPCB = pcb;
  67              		.loc 1 49 9 is_stmt 1
  68 0040 83378500 		ld	a5,8(a0)
GAS LISTING /tmp/ccEjNa1o.s 			page 3


  69              		.loc 1 49 30 is_stmt 0
  70 0044 23B4B700 		sd	a1,8(a5)
  50:src/KSemaphore.cpp ****         tailBlocked = pcb;
  71              		.loc 1 50 9 is_stmt 1
  72              		.loc 1 50 21 is_stmt 0
  73 0048 2334B500 		sd	a1,8(a0)
  74              	.L3:
  51:src/KSemaphore.cpp ****     }
  52:src/KSemaphore.cpp **** }
  75              		.loc 1 52 1
  76 004c 03348100 		ld	s0,8(sp)
  77              		.cfi_remember_state
  78              		.cfi_restore 8
  79              		.cfi_def_cfa 2, 16
  80 0050 13010101 		addi	sp,sp,16
  81              		.cfi_def_cfa_offset 0
  82 0054 67800000 		jr	ra
  83              	.L7:
  84              		.cfi_restore_state
  45:src/KSemaphore.cpp ****     }
  85              		.loc 1 45 9 is_stmt 1
  45:src/KSemaphore.cpp ****     }
  86              		.loc 1 45 35 is_stmt 0
  87 0058 2334B500 		sd	a1,8(a0)
  45:src/KSemaphore.cpp ****     }
  88              		.loc 1 45 21
  89 005c 2330B500 		sd	a1,0(a0)
  90 0060 6FF0DFFE 		j	.L3
  91              		.cfi_endproc
  92              	.LFE29:
  94              		.align	2
  95              		.globl	_ZN10KSemaphore5blockEv
  97              	_ZN10KSemaphore5blockEv:
  98              	.LFB30:
  53:src/KSemaphore.cpp **** 
  54:src/KSemaphore.cpp **** void KSemaphore::block() {
  99              		.loc 1 54 26 is_stmt 1
 100              		.cfi_startproc
 101              	.LVL2:
 102 0064 130101FF 		addi	sp,sp,-16
 103              		.cfi_def_cfa_offset 16
 104 0068 23341100 		sd	ra,8(sp)
 105 006c 23308100 		sd	s0,0(sp)
 106              		.cfi_offset 1, -8
 107              		.cfi_offset 8, -16
 108 0070 13040101 		addi	s0,sp,16
 109              		.cfi_def_cfa 8, 0
  55:src/KSemaphore.cpp ****     PCB::running->setState(PCB::SUSPENDED);
 110              		.loc 1 55 5
 111              		.loc 1 55 27 is_stmt 0
 112 0074 97070000 		la	a5,_ZN3PCB7runningE
 112      83B70700 
 113 007c 83B50700 		ld	a1,0(a5)
 114              	.LVL3:
 115              	.LBB5:
 116              	.LBB6:
 117              		.file 2 "src/../h/PCB.hpp"
GAS LISTING /tmp/ccEjNa1o.s 			page 4


   1:src/../h/PCB.hpp **** //
   2:src/../h/PCB.hpp **** // Created by os on 4/27/22.
   3:src/../h/PCB.hpp **** //
   4:src/../h/PCB.hpp **** 
   5:src/../h/PCB.hpp **** #ifndef PROJECT_BASE_V1_0_PCB_HPP
   6:src/../h/PCB.hpp **** #define PROJECT_BASE_V1_0_PCB_HPP
   7:src/../h/PCB.hpp **** 
   8:src/../h/PCB.hpp **** #include "../lib/hw.h"
   9:src/../h/PCB.hpp **** #include "Scheduler.hpp"
  10:src/../h/PCB.hpp **** #include "Riscv.hpp"
  11:src/../h/PCB.hpp **** 
  12:src/../h/PCB.hpp **** class PCB
  13:src/../h/PCB.hpp **** {
  14:src/../h/PCB.hpp **** public:
  15:src/../h/PCB.hpp ****     using Body = void (*)(void*);
  16:src/../h/PCB.hpp **** 
  17:src/../h/PCB.hpp ****     PCB(Body body,  void* args, void* stack_space, uint64 timeSlice);
  18:src/../h/PCB.hpp ****     ~PCB();
  19:src/../h/PCB.hpp **** 
  20:src/../h/PCB.hpp ****     void start();
  21:src/../h/PCB.hpp ****     static void dispatch();
  22:src/../h/PCB.hpp ****     static void sleep(time_t);
  23:src/../h/PCB.hpp **** 
  24:src/../h/PCB.hpp ****     static PCB* running;
  25:src/../h/PCB.hpp **** 
  26:src/../h/PCB.hpp ****     static uint64 timeSliceCounter;
  27:src/../h/PCB.hpp ****     uint64 getTimeSlice() { return timeSlice;}
  28:src/../h/PCB.hpp **** 
  29:src/../h/PCB.hpp ****     void* operator new(size_t size);
  30:src/../h/PCB.hpp ****     void operator delete(void *p);
  31:src/../h/PCB.hpp **** 
  32:src/../h/PCB.hpp ****     enum State{READY, RUNNING, SUSPENDED, FINISHED, EXITING, SLEEPING};
  33:src/../h/PCB.hpp ****     State getState() {return state;}
  34:src/../h/PCB.hpp ****     void setState(State s) {state = s;}
 118              		.loc 2 34 29 is_stmt 1
 119              		.loc 2 34 35 is_stmt 0
 120 0080 93072000 		li	a5,2
 121 0084 23ACF502 		sw	a5,56(a1)
 122              	.LVL4:
 123              	.LBE6:
 124              	.LBE5:
  56:src/KSemaphore.cpp ****     addToBlocked(PCB::running);
 125              		.loc 1 56 5 is_stmt 1
 126              		.loc 1 56 17 is_stmt 0
 127 0088 97000000 		call	_ZN10KSemaphore12addToBlockedEP3PCB
 127      E7800000 
 128              	.LVL5:
  57:src/KSemaphore.cpp ****     PCB::dispatch();
 129              		.loc 1 57 5 is_stmt 1
 130              		.loc 1 57 18 is_stmt 0
 131 0090 97000000 		call	_ZN3PCB8dispatchEv@plt
 131      E7800000 
 132              	.LVL6:
  58:src/KSemaphore.cpp **** }
 133              		.loc 1 58 1
 134 0098 83308100 		ld	ra,8(sp)
 135              		.cfi_restore 1
GAS LISTING /tmp/ccEjNa1o.s 			page 5


 136 009c 03340100 		ld	s0,0(sp)
 137              		.cfi_restore 8
 138              		.cfi_def_cfa 2, 16
 139 00a0 13010101 		addi	sp,sp,16
 140              		.cfi_def_cfa_offset 0
 141 00a4 67800000 		jr	ra
 142              		.cfi_endproc
 143              	.LFE30:
 145              		.align	2
 146              		.globl	_ZN10KSemaphore4waitEv
 148              	_ZN10KSemaphore4waitEv:
 149              	.LFB24:
  14:src/KSemaphore.cpp ****     if(--val < 0)
 150              		.loc 1 14 27 is_stmt 1
 151              		.cfi_startproc
 152              	.LVL7:
  15:src/KSemaphore.cpp ****         block();
 153              		.loc 1 15 5
  15:src/KSemaphore.cpp ****         block();
 154              		.loc 1 15 10 is_stmt 0
 155 00a8 83270501 		lw	a5,16(a0)
  15:src/KSemaphore.cpp ****         block();
 156              		.loc 1 15 8
 157 00ac 9B87F7FF 		addiw	a5,a5,-1
  15:src/KSemaphore.cpp ****         block();
 158              		.loc 1 15 14
 159 00b0 2328F500 		sw	a5,16(a0)
  15:src/KSemaphore.cpp ****         block();
 160              		.loc 1 15 5
 161 00b4 13970702 		slli	a4,a5,32
 162 00b8 63460700 		bltz	a4,.L16
  18:src/KSemaphore.cpp **** }
 163              		.loc 1 18 5 is_stmt 1
  19:src/KSemaphore.cpp **** 
 164              		.loc 1 19 1 is_stmt 0
 165 00bc 13050000 		li	a0,0
 166              	.LVL8:
 167 00c0 67800000 		ret
 168              	.LVL9:
 169              	.L16:
  14:src/KSemaphore.cpp ****     if(--val < 0)
 170              		.loc 1 14 27
 171 00c4 130101FF 		addi	sp,sp,-16
 172              		.cfi_def_cfa_offset 16
 173 00c8 23341100 		sd	ra,8(sp)
 174 00cc 23308100 		sd	s0,0(sp)
 175              		.cfi_offset 1, -8
 176              		.cfi_offset 8, -16
 177 00d0 13040101 		addi	s0,sp,16
 178              		.cfi_def_cfa 8, 0
  16:src/KSemaphore.cpp **** 
 179              		.loc 1 16 9 is_stmt 1
  16:src/KSemaphore.cpp **** 
 180              		.loc 1 16 14 is_stmt 0
 181 00d4 97000000 		call	_ZN10KSemaphore5blockEv
 181      E7800000 
 182              	.LVL10:
GAS LISTING /tmp/ccEjNa1o.s 			page 6


  18:src/KSemaphore.cpp **** }
 183              		.loc 1 18 5 is_stmt 1
  19:src/KSemaphore.cpp **** 
 184              		.loc 1 19 1 is_stmt 0
 185 00dc 13050000 		li	a0,0
 186 00e0 83308100 		ld	ra,8(sp)
 187              		.cfi_restore 1
 188 00e4 03340100 		ld	s0,0(sp)
 189              		.cfi_restore 8
 190              		.cfi_def_cfa 2, 16
 191 00e8 13010101 		addi	sp,sp,16
 192              		.cfi_def_cfa_offset 0
 193 00ec 67800000 		jr	ra
 194              		.cfi_endproc
 195              	.LFE24:
 197              		.align	2
 198              		.globl	_ZN10KSemaphore15getFirstBlockedEv
 200              	_ZN10KSemaphore15getFirstBlockedEv:
 201              	.LFB31:
  59:src/KSemaphore.cpp **** 
  60:src/KSemaphore.cpp **** PCB* KSemaphore::getFirstBlocked()
  61:src/KSemaphore.cpp **** {
 202              		.loc 1 61 1 is_stmt 1
 203              		.cfi_startproc
 204              	.LVL11:
 205 00f0 130101FF 		addi	sp,sp,-16
 206              		.cfi_def_cfa_offset 16
 207 00f4 23348100 		sd	s0,8(sp)
 208              		.cfi_offset 8, -8
 209 00f8 13040101 		addi	s0,sp,16
 210              		.cfi_def_cfa 8, 0
  62:src/KSemaphore.cpp ****    return headBlocked;
 211              		.loc 1 62 4
  63:src/KSemaphore.cpp **** }
 212              		.loc 1 63 1 is_stmt 0
 213 00fc 03350500 		ld	a0,0(a0)
 214              	.LVL12:
 215 0100 03348100 		ld	s0,8(sp)
 216              		.cfi_restore 8
 217              		.cfi_def_cfa 2, 16
 218 0104 13010101 		addi	sp,sp,16
 219              		.cfi_def_cfa_offset 0
 220 0108 67800000 		jr	ra
 221              		.cfi_endproc
 222              	.LFE31:
 224              		.align	2
 225              		.globl	_ZN10KSemaphore18removeFirstBlockedEv
 227              	_ZN10KSemaphore18removeFirstBlockedEv:
 228              	.LFB32:
  64:src/KSemaphore.cpp **** 
  65:src/KSemaphore.cpp **** void KSemaphore::removeFirstBlocked()
  66:src/KSemaphore.cpp **** {
 229              		.loc 1 66 1 is_stmt 1
 230              		.cfi_startproc
 231              	.LVL13:
 232 010c 130101FF 		addi	sp,sp,-16
 233              		.cfi_def_cfa_offset 16
GAS LISTING /tmp/ccEjNa1o.s 			page 7


 234 0110 23348100 		sd	s0,8(sp)
 235              		.cfi_offset 8, -8
 236 0114 13040101 		addi	s0,sp,16
 237              		.cfi_def_cfa 8, 0
  67:src/KSemaphore.cpp ****     if(headBlocked == 0)
 238              		.loc 1 67 5
 239              		.loc 1 67 8 is_stmt 0
 240 0118 83370500 		ld	a5,0(a0)
 241              		.loc 1 67 5
 242 011c 638C0700 		beqz	a5,.L19
  68:src/KSemaphore.cpp ****         return;
  69:src/KSemaphore.cpp ****     PCB* first = headBlocked;
 243              		.loc 1 69 5 is_stmt 1
 244              	.LVL14:
  70:src/KSemaphore.cpp ****     headBlocked = headBlocked->nextPCB;
 245              		.loc 1 70 5
 246              		.loc 1 70 32 is_stmt 0
 247 0120 03B78700 		ld	a4,8(a5)
 248              		.loc 1 70 17
 249 0124 2330E500 		sd	a4,0(a0)
  71:src/KSemaphore.cpp ****     first->nextPCB = 0;
 250              		.loc 1 71 5 is_stmt 1
 251              		.loc 1 71 20 is_stmt 0
 252 0128 23B40700 		sd	zero,8(a5)
  72:src/KSemaphore.cpp ****     if(headBlocked == 0)
 253              		.loc 1 72 5 is_stmt 1
 254              		.loc 1 72 8 is_stmt 0
 255 012c 83370500 		ld	a5,0(a0)
 256              	.LVL15:
 257              		.loc 1 72 5
 258 0130 63880700 		beqz	a5,.L22
 259              	.L19:
  73:src/KSemaphore.cpp ****         tailBlocked =0;
  74:src/KSemaphore.cpp **** }
 260              		.loc 1 74 1
 261 0134 03348100 		ld	s0,8(sp)
 262              		.cfi_remember_state
 263              		.cfi_restore 8
 264              		.cfi_def_cfa 2, 16
 265 0138 13010101 		addi	sp,sp,16
 266              		.cfi_def_cfa_offset 0
 267 013c 67800000 		jr	ra
 268              	.L22:
 269              		.cfi_restore_state
  73:src/KSemaphore.cpp ****         tailBlocked =0;
 270              		.loc 1 73 9 is_stmt 1
  73:src/KSemaphore.cpp ****         tailBlocked =0;
 271              		.loc 1 73 21 is_stmt 0
 272 0140 23340500 		sd	zero,8(a0)
 273 0144 6FF01FFF 		j	.L19
 274              		.cfi_endproc
 275              	.LFE32:
 277              		.align	2
 278              		.globl	_ZN10KSemaphoreD2Ev
 280              	_ZN10KSemaphoreD2Ev:
 281              	.LFB27:
  30:src/KSemaphore.cpp **** {
GAS LISTING /tmp/ccEjNa1o.s 			page 8


 282              		.loc 1 30 1 is_stmt 1
 283              		.cfi_startproc
 284              		.cfi_personality 0x9b,DW.ref.__gxx_personality_v0
 285              		.cfi_lsda 0x1b,.LLSDA27
 286              	.LVL16:
 287 0148 130101FE 		addi	sp,sp,-32
 288              		.cfi_def_cfa_offset 32
 289 014c 233C1100 		sd	ra,24(sp)
 290 0150 23388100 		sd	s0,16(sp)
 291 0154 23349100 		sd	s1,8(sp)
 292 0158 23302101 		sd	s2,0(sp)
 293              		.cfi_offset 1, -8
 294              		.cfi_offset 8, -16
 295              		.cfi_offset 9, -24
 296              		.cfi_offset 18, -32
 297 015c 13040102 		addi	s0,sp,32
 298              		.cfi_def_cfa 8, 0
 299 0160 13090500 		mv	s2,a0
 300              	.LVL17:
 301              	.L25:
 302              	.LBB7:
  32:src/KSemaphore.cpp ****     {
 303              		.loc 1 32 5
  32:src/KSemaphore.cpp ****     {
 304              		.loc 1 32 29
  32:src/KSemaphore.cpp ****     {
 305              		.loc 1 32 26 is_stmt 0
 306 0164 13050900 		mv	a0,s2
 307 0168 97000000 		call	_ZN10KSemaphore15getFirstBlockedEv
 307      E7800000 
 308              	.LVL18:
 309 0170 93040500 		mv	s1,a0
  32:src/KSemaphore.cpp ****     {
 310              		.loc 1 32 29
 311 0174 63000502 		beqz	a0,.L23
 312              	.LBB8:
  34:src/KSemaphore.cpp ****         removeFirstBlocked();
 313              		.loc 1 34 9 is_stmt 1
 314              	.LVL19:
  35:src/KSemaphore.cpp ****         Scheduler::put(pcb);
 315              		.loc 1 35 9
  35:src/KSemaphore.cpp ****         Scheduler::put(pcb);
 316              		.loc 1 35 27 is_stmt 0
 317 0178 13050900 		mv	a0,s2
 318 017c 97000000 		call	_ZN10KSemaphore18removeFirstBlockedEv
 318      E7800000 
 319              	.LVL20:
  36:src/KSemaphore.cpp ****     }
 320              		.loc 1 36 9 is_stmt 1
  36:src/KSemaphore.cpp ****     }
 321              		.loc 1 36 23 is_stmt 0
 322 0184 13850400 		mv	a0,s1
 323 0188 97000000 		call	_ZN9Scheduler3putEP3PCB@plt
 323      E7800000 
 324              	.LVL21:
 325              	.LBE8:
  32:src/KSemaphore.cpp ****     {
GAS LISTING /tmp/ccEjNa1o.s 			page 9


 326              		.loc 1 32 5
 327 0190 6FF05FFD 		j	.L25
 328              	.LVL22:
 329              	.L23:
 330              	.LBE7:
  38:src/KSemaphore.cpp **** 
 331              		.loc 1 38 1
 332 0194 83308101 		ld	ra,24(sp)
 333              		.cfi_restore 1
 334 0198 03340101 		ld	s0,16(sp)
 335              		.cfi_restore 8
 336              		.cfi_def_cfa 2, 32
 337 019c 83348100 		ld	s1,8(sp)
 338              		.cfi_restore 9
 339 01a0 03390100 		ld	s2,0(sp)
 340              		.cfi_restore 18
 341              	.LVL23:
 342 01a4 13010102 		addi	sp,sp,32
 343              		.cfi_def_cfa_offset 0
 344 01a8 67800000 		jr	ra
 345              		.cfi_endproc
 346              	.LFE27:
 347              		.globl	__gxx_personality_v0
 348              		.section	.gcc_except_table,"a",@progbits
 349              	.LLSDA27:
 350 0000 FF       		.byte	0xff
 351 0001 FF       		.byte	0xff
 352 0002 03       		.byte	0x3
 353 0003 00       		.byte	0
 354              		.text
 356              		.globl	_ZN10KSemaphoreD1Ev
 357              		.set	_ZN10KSemaphoreD1Ev,_ZN10KSemaphoreD2Ev
 358              		.align	2
 359              		.globl	_ZN10KSemaphore7unblockEv
 361              	_ZN10KSemaphore7unblockEv:
 362              	.LFB33:
  75:src/KSemaphore.cpp **** 
  76:src/KSemaphore.cpp **** void KSemaphore::unblock() {
 363              		.loc 1 76 28 is_stmt 1
 364              		.cfi_startproc
 365              	.LVL24:
 366 01ac 130101FE 		addi	sp,sp,-32
 367              		.cfi_def_cfa_offset 32
 368 01b0 233C1100 		sd	ra,24(sp)
 369 01b4 23388100 		sd	s0,16(sp)
 370 01b8 23349100 		sd	s1,8(sp)
 371 01bc 23302101 		sd	s2,0(sp)
 372              		.cfi_offset 1, -8
 373              		.cfi_offset 8, -16
 374              		.cfi_offset 9, -24
 375              		.cfi_offset 18, -32
 376 01c0 13040102 		addi	s0,sp,32
 377              		.cfi_def_cfa 8, 0
 378 01c4 13090500 		mv	s2,a0
  77:src/KSemaphore.cpp ****     PCB* fr = getFirstBlocked();
 379              		.loc 1 77 5
 380              		.loc 1 77 30 is_stmt 0
GAS LISTING /tmp/ccEjNa1o.s 			page 10


 381 01c8 97000000 		call	_ZN10KSemaphore15getFirstBlockedEv
 381      E7800000 
 382              	.LVL25:
 383 01d0 93040500 		mv	s1,a0
 384              	.LVL26:
  78:src/KSemaphore.cpp ****     removeFirstBlocked();
 385              		.loc 1 78 5 is_stmt 1
 386              		.loc 1 78 23 is_stmt 0
 387 01d4 13050900 		mv	a0,s2
 388 01d8 97000000 		call	_ZN10KSemaphore18removeFirstBlockedEv
 388      E7800000 
 389              	.LVL27:
  79:src/KSemaphore.cpp ****     if(fr != 0)
 390              		.loc 1 79 5 is_stmt 1
 391 01e0 63880400 		beqz	s1,.L27
  80:src/KSemaphore.cpp ****         Scheduler::put(fr);
 392              		.loc 1 80 9
 393              		.loc 1 80 23 is_stmt 0
 394 01e4 13850400 		mv	a0,s1
 395 01e8 97000000 		call	_ZN9Scheduler3putEP3PCB@plt
 395      E7800000 
 396              	.LVL28:
 397              	.L27:
  81:src/KSemaphore.cpp **** }
 398              		.loc 1 81 1
 399 01f0 83308101 		ld	ra,24(sp)
 400              		.cfi_restore 1
 401 01f4 03340101 		ld	s0,16(sp)
 402              		.cfi_restore 8
 403              		.cfi_def_cfa 2, 32
 404 01f8 83348100 		ld	s1,8(sp)
 405              		.cfi_restore 9
 406              	.LVL29:
 407 01fc 03390100 		ld	s2,0(sp)
 408              		.cfi_restore 18
 409              	.LVL30:
 410 0200 13010102 		addi	sp,sp,32
 411              		.cfi_def_cfa_offset 0
 412 0204 67800000 		jr	ra
 413              		.cfi_endproc
 414              	.LFE33:
 416              		.align	2
 417              		.globl	_ZN10KSemaphore6signalEv
 419              	_ZN10KSemaphore6signalEv:
 420              	.LFB25:
  21:src/KSemaphore.cpp ****     if(++val <= 0)
 421              		.loc 1 21 29 is_stmt 1
 422              		.cfi_startproc
 423              	.LVL31:
  22:src/KSemaphore.cpp ****         unblock();
 424              		.loc 1 22 5
  22:src/KSemaphore.cpp ****         unblock();
 425              		.loc 1 22 10 is_stmt 0
 426 0208 83270501 		lw	a5,16(a0)
  22:src/KSemaphore.cpp ****         unblock();
 427              		.loc 1 22 8
 428 020c 9B871700 		addiw	a5,a5,1
GAS LISTING /tmp/ccEjNa1o.s 			page 11


 429 0210 1B870700 		sext.w	a4,a5
  22:src/KSemaphore.cpp ****         unblock();
 430              		.loc 1 22 14
 431 0214 2328F500 		sw	a5,16(a0)
  22:src/KSemaphore.cpp ****         unblock();
 432              		.loc 1 22 5
 433 0218 6356E000 		blez	a4,.L36
  25:src/KSemaphore.cpp **** }
 434              		.loc 1 25 5 is_stmt 1
  26:src/KSemaphore.cpp **** 
 435              		.loc 1 26 1 is_stmt 0
 436 021c 13050000 		li	a0,0
 437              	.LVL32:
 438 0220 67800000 		ret
 439              	.LVL33:
 440              	.L36:
  21:src/KSemaphore.cpp ****     if(++val <= 0)
 441              		.loc 1 21 29
 442 0224 130101FF 		addi	sp,sp,-16
 443              		.cfi_def_cfa_offset 16
 444 0228 23341100 		sd	ra,8(sp)
 445 022c 23308100 		sd	s0,0(sp)
 446              		.cfi_offset 1, -8
 447              		.cfi_offset 8, -16
 448 0230 13040101 		addi	s0,sp,16
 449              		.cfi_def_cfa 8, 0
  23:src/KSemaphore.cpp **** 
 450              		.loc 1 23 9 is_stmt 1
  23:src/KSemaphore.cpp **** 
 451              		.loc 1 23 16 is_stmt 0
 452 0234 97000000 		call	_ZN10KSemaphore7unblockEv
 452      E7800000 
 453              	.LVL34:
  25:src/KSemaphore.cpp **** }
 454              		.loc 1 25 5 is_stmt 1
  26:src/KSemaphore.cpp **** 
 455              		.loc 1 26 1 is_stmt 0
 456 023c 13050000 		li	a0,0
 457 0240 83308100 		ld	ra,8(sp)
 458              		.cfi_restore 1
 459 0244 03340100 		ld	s0,0(sp)
 460              		.cfi_restore 8
 461              		.cfi_def_cfa 2, 16
 462 0248 13010101 		addi	sp,sp,16
 463              		.cfi_def_cfa_offset 0
 464 024c 67800000 		jr	ra
 465              		.cfi_endproc
 466              	.LFE25:
 468              		.align	2
 469              		.globl	_ZN10KSemaphorenwEm
 471              	_ZN10KSemaphorenwEm:
 472              	.LFB34:
  82:src/KSemaphore.cpp **** 
  83:src/KSemaphore.cpp **** void *KSemaphore::operator new(size_t size) {
 473              		.loc 1 83 45 is_stmt 1
 474              		.cfi_startproc
 475              	.LVL35:
GAS LISTING /tmp/ccEjNa1o.s 			page 12


 476 0250 130101FF 		addi	sp,sp,-16
 477              		.cfi_def_cfa_offset 16
 478 0254 23341100 		sd	ra,8(sp)
 479 0258 23308100 		sd	s0,0(sp)
 480              		.cfi_offset 1, -8
 481              		.cfi_offset 8, -16
 482 025c 13040101 		addi	s0,sp,16
 483              		.cfi_def_cfa 8, 0
  84:src/KSemaphore.cpp ****     return kmalloc(size);
 484              		.loc 1 84 5
 485              		.loc 1 84 19 is_stmt 0
 486 0260 97000000 		call	_Z7kmallocm@plt
 486      E7800000 
 487              	.LVL36:
  85:src/KSemaphore.cpp **** }
 488              		.loc 1 85 1
 489 0268 83308100 		ld	ra,8(sp)
 490              		.cfi_restore 1
 491 026c 03340100 		ld	s0,0(sp)
 492              		.cfi_restore 8
 493              		.cfi_def_cfa 2, 16
 494 0270 13010101 		addi	sp,sp,16
 495              		.cfi_def_cfa_offset 0
 496 0274 67800000 		jr	ra
 497              		.cfi_endproc
 498              	.LFE34:
 500              		.align	2
 501              		.globl	_ZN10KSemaphoredlEPv
 503              	_ZN10KSemaphoredlEPv:
 504              	.LFB35:
  86:src/KSemaphore.cpp **** 
  87:src/KSemaphore.cpp **** void KSemaphore::operator delete(void *p) {
 505              		.loc 1 87 43 is_stmt 1
 506              		.cfi_startproc
 507              	.LVL37:
 508 0278 130101FF 		addi	sp,sp,-16
 509              		.cfi_def_cfa_offset 16
 510 027c 23341100 		sd	ra,8(sp)
 511 0280 23308100 		sd	s0,0(sp)
 512              		.cfi_offset 1, -8
 513              		.cfi_offset 8, -16
 514 0284 13040101 		addi	s0,sp,16
 515              		.cfi_def_cfa 8, 0
  88:src/KSemaphore.cpp ****     kfree(p);
 516              		.loc 1 88 5
 517              		.loc 1 88 10 is_stmt 0
 518 0288 97000000 		call	_Z5kfreePv@plt
 518      E7800000 
 519              	.LVL38:
  89:src/KSemaphore.cpp **** }
 520              		.loc 1 89 1
 521 0290 83308100 		ld	ra,8(sp)
 522              		.cfi_restore 1
 523 0294 03340100 		ld	s0,0(sp)
 524              		.cfi_restore 8
 525              		.cfi_def_cfa 2, 16
 526 0298 13010101 		addi	sp,sp,16
GAS LISTING /tmp/ccEjNa1o.s 			page 13


 527              		.cfi_def_cfa_offset 0
 528 029c 67800000 		jr	ra
 529              		.cfi_endproc
 530              	.LFE35:
 532              	.Letext0:
 533              		.file 3 "src/../h/../lib/hw.h"
 534              		.file 4 "src/../h/Scheduler.hpp"
 535              		.file 5 "src/../h/KSemaphore.hpp"
 536              		.file 6 "src/../h/MemoryAllocator.hpp"
 3323              		.align	3
 3326              	DW.ref.__gxx_personality_v0:
 3327 0000 00000000 		.dword	__gxx_personality_v0
 3327      00000000 
 3328              		.ident	"GCC: (Ubuntu 9.3.0-17ubuntu1~20.04) 9.3.0"
 3329              		.section	.note.GNU-stack,"",@progbits
GAS LISTING /tmp/ccEjNa1o.s 			page 14


DEFINED SYMBOLS
                            *ABS*:0000000000000000 KSemaphore.cpp
     /tmp/ccEjNa1o.s:9      .text:0000000000000000 _ZN10KSemaphoreC2Ei
     /tmp/ccEjNa1o.s:13     .text:0000000000000000 .L0 
     /tmp/ccEjNa1o.s:15     .text:0000000000000000 .L0 
     /tmp/ccEjNa1o.s:16     .text:0000000000000004 .L0 
     /tmp/ccEjNa1o.s:18     .text:0000000000000008 .L0 
     /tmp/ccEjNa1o.s:20     .text:000000000000000c .L0 
     /tmp/ccEjNa1o.s:23     .text:000000000000000c .L0 
     /tmp/ccEjNa1o.s:24     .text:000000000000000c .L0 
     /tmp/ccEjNa1o.s:26     .text:0000000000000010 .L0 
     /tmp/ccEjNa1o.s:28     .text:0000000000000014 .L0 
     /tmp/ccEjNa1o.s:29     .text:0000000000000014 .L0 
     /tmp/ccEjNa1o.s:31     .text:0000000000000018 .L0 
     /tmp/ccEjNa1o.s:34     .text:000000000000001c .L0 
     /tmp/ccEjNa1o.s:35     .text:0000000000000020 .L0 
     /tmp/ccEjNa1o.s:36     .text:0000000000000020 .L0 
     /tmp/ccEjNa1o.s:38     .text:0000000000000024 .L0 
     /tmp/ccEjNa1o.s:40     .text:0000000000000028 .L0 
     /tmp/ccEjNa1o.s:9      .text:0000000000000000 _ZN10KSemaphoreC1Ei
     /tmp/ccEjNa1o.s:48     .text:0000000000000028 _ZN10KSemaphore12addToBlockedEP3PCB
     /tmp/ccEjNa1o.s:51     .text:0000000000000028 .L0 
     /tmp/ccEjNa1o.s:53     .text:0000000000000028 .L0 
     /tmp/ccEjNa1o.s:54     .text:000000000000002c .L0 
     /tmp/ccEjNa1o.s:56     .text:0000000000000030 .L0 
     /tmp/ccEjNa1o.s:58     .text:0000000000000034 .L0 
     /tmp/ccEjNa1o.s:60     .text:0000000000000034 .L0 
     /tmp/ccEjNa1o.s:61     .text:0000000000000034 .L0 
     /tmp/ccEjNa1o.s:63     .text:0000000000000038 .L0 
     /tmp/ccEjNa1o.s:64     .text:0000000000000038 .L0 
     /tmp/ccEjNa1o.s:66     .text:000000000000003c .L0 
     /tmp/ccEjNa1o.s:68     .text:0000000000000040 .L0 
     /tmp/ccEjNa1o.s:70     .text:0000000000000044 .L0 
     /tmp/ccEjNa1o.s:72     .text:0000000000000048 .L0 
     /tmp/ccEjNa1o.s:73     .text:0000000000000048 .L0 
     /tmp/ccEjNa1o.s:76     .text:000000000000004c .L0 
     /tmp/ccEjNa1o.s:77     .text:0000000000000050 .L0 
     /tmp/ccEjNa1o.s:78     .text:0000000000000050 .L0 
     /tmp/ccEjNa1o.s:79     .text:0000000000000050 .L0 
     /tmp/ccEjNa1o.s:81     .text:0000000000000054 .L0 
     /tmp/ccEjNa1o.s:84     .text:0000000000000058 .L0 
     /tmp/ccEjNa1o.s:86     .text:0000000000000058 .L0 
     /tmp/ccEjNa1o.s:87     .text:0000000000000058 .L0 
     /tmp/ccEjNa1o.s:89     .text:000000000000005c .L0 
     /tmp/ccEjNa1o.s:91     .text:0000000000000064 .L0 
     /tmp/ccEjNa1o.s:97     .text:0000000000000064 _ZN10KSemaphore5blockEv
     /tmp/ccEjNa1o.s:100    .text:0000000000000064 .L0 
     /tmp/ccEjNa1o.s:102    .text:0000000000000064 .L0 
     /tmp/ccEjNa1o.s:103    .text:0000000000000068 .L0 
     /tmp/ccEjNa1o.s:106    .text:0000000000000070 .L0 
     /tmp/ccEjNa1o.s:107    .text:0000000000000070 .L0 
     /tmp/ccEjNa1o.s:109    .text:0000000000000074 .L0 
     /tmp/ccEjNa1o.s:111    .text:0000000000000074 .L0 
     /tmp/ccEjNa1o.s:112    .text:0000000000000074 .L0 
     /tmp/ccEjNa1o.s:119    .text:0000000000000080 .L0 
     /tmp/ccEjNa1o.s:120    .text:0000000000000080 .L0 
     /tmp/ccEjNa1o.s:126    .text:0000000000000088 .L0 
GAS LISTING /tmp/ccEjNa1o.s 			page 15


     /tmp/ccEjNa1o.s:127    .text:0000000000000088 .L0 
     /tmp/ccEjNa1o.s:130    .text:0000000000000090 .L0 
     /tmp/ccEjNa1o.s:131    .text:0000000000000090 .L0 
     /tmp/ccEjNa1o.s:134    .text:0000000000000098 .L0 
     /tmp/ccEjNa1o.s:135    .text:000000000000009c .L0 
     /tmp/ccEjNa1o.s:137    .text:00000000000000a0 .L0 
     /tmp/ccEjNa1o.s:138    .text:00000000000000a0 .L0 
     /tmp/ccEjNa1o.s:140    .text:00000000000000a4 .L0 
     /tmp/ccEjNa1o.s:142    .text:00000000000000a8 .L0 
     /tmp/ccEjNa1o.s:148    .text:00000000000000a8 _ZN10KSemaphore4waitEv
     /tmp/ccEjNa1o.s:151    .text:00000000000000a8 .L0 
     /tmp/ccEjNa1o.s:153    .text:00000000000000a8 .L0 
     /tmp/ccEjNa1o.s:154    .text:00000000000000a8 .L0 
     /tmp/ccEjNa1o.s:155    .text:00000000000000a8 .L0 
     /tmp/ccEjNa1o.s:157    .text:00000000000000ac .L0 
     /tmp/ccEjNa1o.s:159    .text:00000000000000b0 .L0 
     /tmp/ccEjNa1o.s:161    .text:00000000000000b4 .L0 
     /tmp/ccEjNa1o.s:164    .text:00000000000000bc .L0 
     /tmp/ccEjNa1o.s:165    .text:00000000000000bc .L0 
     /tmp/ccEjNa1o.s:171    .text:00000000000000c4 .L0 
     /tmp/ccEjNa1o.s:172    .text:00000000000000c8 .L0 
     /tmp/ccEjNa1o.s:175    .text:00000000000000d0 .L0 
     /tmp/ccEjNa1o.s:176    .text:00000000000000d0 .L0 
     /tmp/ccEjNa1o.s:178    .text:00000000000000d4 .L0 
     /tmp/ccEjNa1o.s:180    .text:00000000000000d4 .L0 
     /tmp/ccEjNa1o.s:181    .text:00000000000000d4 .L0 
     /tmp/ccEjNa1o.s:184    .text:00000000000000dc .L0 
     /tmp/ccEjNa1o.s:185    .text:00000000000000dc .L0 
     /tmp/ccEjNa1o.s:187    .text:00000000000000e4 .L0 
     /tmp/ccEjNa1o.s:189    .text:00000000000000e8 .L0 
     /tmp/ccEjNa1o.s:190    .text:00000000000000e8 .L0 
     /tmp/ccEjNa1o.s:192    .text:00000000000000ec .L0 
     /tmp/ccEjNa1o.s:194    .text:00000000000000f0 .L0 
     /tmp/ccEjNa1o.s:200    .text:00000000000000f0 _ZN10KSemaphore15getFirstBlockedEv
     /tmp/ccEjNa1o.s:203    .text:00000000000000f0 .L0 
     /tmp/ccEjNa1o.s:205    .text:00000000000000f0 .L0 
     /tmp/ccEjNa1o.s:206    .text:00000000000000f4 .L0 
     /tmp/ccEjNa1o.s:208    .text:00000000000000f8 .L0 
     /tmp/ccEjNa1o.s:210    .text:00000000000000fc .L0 
     /tmp/ccEjNa1o.s:212    .text:00000000000000fc .L0 
     /tmp/ccEjNa1o.s:213    .text:00000000000000fc .L0 
     /tmp/ccEjNa1o.s:216    .text:0000000000000104 .L0 
     /tmp/ccEjNa1o.s:217    .text:0000000000000104 .L0 
     /tmp/ccEjNa1o.s:219    .text:0000000000000108 .L0 
     /tmp/ccEjNa1o.s:221    .text:000000000000010c .L0 
     /tmp/ccEjNa1o.s:227    .text:000000000000010c _ZN10KSemaphore18removeFirstBlockedEv
     /tmp/ccEjNa1o.s:230    .text:000000000000010c .L0 
     /tmp/ccEjNa1o.s:232    .text:000000000000010c .L0 
     /tmp/ccEjNa1o.s:233    .text:0000000000000110 .L0 
     /tmp/ccEjNa1o.s:235    .text:0000000000000114 .L0 
     /tmp/ccEjNa1o.s:237    .text:0000000000000118 .L0 
     /tmp/ccEjNa1o.s:239    .text:0000000000000118 .L0 
     /tmp/ccEjNa1o.s:240    .text:0000000000000118 .L0 
     /tmp/ccEjNa1o.s:242    .text:000000000000011c .L0 
     /tmp/ccEjNa1o.s:245    .text:0000000000000120 .L0 
     /tmp/ccEjNa1o.s:246    .text:0000000000000120 .L0 
     /tmp/ccEjNa1o.s:247    .text:0000000000000120 .L0 
GAS LISTING /tmp/ccEjNa1o.s 			page 16


     /tmp/ccEjNa1o.s:249    .text:0000000000000124 .L0 
     /tmp/ccEjNa1o.s:251    .text:0000000000000128 .L0 
     /tmp/ccEjNa1o.s:252    .text:0000000000000128 .L0 
     /tmp/ccEjNa1o.s:254    .text:000000000000012c .L0 
     /tmp/ccEjNa1o.s:255    .text:000000000000012c .L0 
     /tmp/ccEjNa1o.s:258    .text:0000000000000130 .L0 
     /tmp/ccEjNa1o.s:261    .text:0000000000000134 .L0 
     /tmp/ccEjNa1o.s:262    .text:0000000000000138 .L0 
     /tmp/ccEjNa1o.s:263    .text:0000000000000138 .L0 
     /tmp/ccEjNa1o.s:264    .text:0000000000000138 .L0 
     /tmp/ccEjNa1o.s:266    .text:000000000000013c .L0 
     /tmp/ccEjNa1o.s:269    .text:0000000000000140 .L0 
     /tmp/ccEjNa1o.s:271    .text:0000000000000140 .L0 
     /tmp/ccEjNa1o.s:272    .text:0000000000000140 .L0 
     /tmp/ccEjNa1o.s:274    .text:0000000000000148 .L0 
     /tmp/ccEjNa1o.s:280    .text:0000000000000148 _ZN10KSemaphoreD2Ev
     /tmp/ccEjNa1o.s:283    .text:0000000000000148 .L0 
     /tmp/ccEjNa1o.s:3326   .data.rel.local.DW.ref.__gxx_personality_v0:0000000000000000 DW.ref.__gxx_personality_v0
     /tmp/ccEjNa1o.s:287    .text:0000000000000148 .L0 
     /tmp/ccEjNa1o.s:288    .text:000000000000014c .L0 
     /tmp/ccEjNa1o.s:293    .text:000000000000015c .L0 
     /tmp/ccEjNa1o.s:294    .text:000000000000015c .L0 
     /tmp/ccEjNa1o.s:295    .text:000000000000015c .L0 
     /tmp/ccEjNa1o.s:296    .text:000000000000015c .L0 
     /tmp/ccEjNa1o.s:298    .text:0000000000000160 .L0 
     /tmp/ccEjNa1o.s:304    .text:0000000000000164 .L0 
     /tmp/ccEjNa1o.s:305    .text:0000000000000164 .L0 
     /tmp/ccEjNa1o.s:306    .text:0000000000000164 .L0 
     /tmp/ccEjNa1o.s:311    .text:0000000000000174 .L0 
     /tmp/ccEjNa1o.s:315    .text:0000000000000178 .L0 
     /tmp/ccEjNa1o.s:316    .text:0000000000000178 .L0 
     /tmp/ccEjNa1o.s:317    .text:0000000000000178 .L0 
     /tmp/ccEjNa1o.s:321    .text:0000000000000184 .L0 
     /tmp/ccEjNa1o.s:322    .text:0000000000000184 .L0 
     /tmp/ccEjNa1o.s:327    .text:0000000000000190 .L0 
     /tmp/ccEjNa1o.s:332    .text:0000000000000194 .L0 
     /tmp/ccEjNa1o.s:333    .text:0000000000000198 .L0 
     /tmp/ccEjNa1o.s:335    .text:000000000000019c .L0 
     /tmp/ccEjNa1o.s:336    .text:000000000000019c .L0 
     /tmp/ccEjNa1o.s:338    .text:00000000000001a0 .L0 
     /tmp/ccEjNa1o.s:340    .text:00000000000001a4 .L0 
     /tmp/ccEjNa1o.s:343    .text:00000000000001a8 .L0 
     /tmp/ccEjNa1o.s:345    .text:00000000000001ac .L0 
     /tmp/ccEjNa1o.s:280    .text:0000000000000148 _ZN10KSemaphoreD1Ev
     /tmp/ccEjNa1o.s:361    .text:00000000000001ac _ZN10KSemaphore7unblockEv
     /tmp/ccEjNa1o.s:364    .text:00000000000001ac .L0 
     /tmp/ccEjNa1o.s:366    .text:00000000000001ac .L0 
     /tmp/ccEjNa1o.s:367    .text:00000000000001b0 .L0 
     /tmp/ccEjNa1o.s:372    .text:00000000000001c0 .L0 
     /tmp/ccEjNa1o.s:373    .text:00000000000001c0 .L0 
     /tmp/ccEjNa1o.s:374    .text:00000000000001c0 .L0 
     /tmp/ccEjNa1o.s:375    .text:00000000000001c0 .L0 
     /tmp/ccEjNa1o.s:377    .text:00000000000001c4 .L0 
     /tmp/ccEjNa1o.s:380    .text:00000000000001c8 .L0 
     /tmp/ccEjNa1o.s:381    .text:00000000000001c8 .L0 
     /tmp/ccEjNa1o.s:386    .text:00000000000001d4 .L0 
     /tmp/ccEjNa1o.s:387    .text:00000000000001d4 .L0 
GAS LISTING /tmp/ccEjNa1o.s 			page 17


     /tmp/ccEjNa1o.s:391    .text:00000000000001e0 .L0 
     /tmp/ccEjNa1o.s:393    .text:00000000000001e4 .L0 
     /tmp/ccEjNa1o.s:394    .text:00000000000001e4 .L0 
     /tmp/ccEjNa1o.s:399    .text:00000000000001f0 .L0 
     /tmp/ccEjNa1o.s:400    .text:00000000000001f4 .L0 
     /tmp/ccEjNa1o.s:402    .text:00000000000001f8 .L0 
     /tmp/ccEjNa1o.s:403    .text:00000000000001f8 .L0 
     /tmp/ccEjNa1o.s:405    .text:00000000000001fc .L0 
     /tmp/ccEjNa1o.s:408    .text:0000000000000200 .L0 
     /tmp/ccEjNa1o.s:411    .text:0000000000000204 .L0 
     /tmp/ccEjNa1o.s:413    .text:0000000000000208 .L0 
     /tmp/ccEjNa1o.s:419    .text:0000000000000208 _ZN10KSemaphore6signalEv
     /tmp/ccEjNa1o.s:422    .text:0000000000000208 .L0 
     /tmp/ccEjNa1o.s:424    .text:0000000000000208 .L0 
     /tmp/ccEjNa1o.s:425    .text:0000000000000208 .L0 
     /tmp/ccEjNa1o.s:426    .text:0000000000000208 .L0 
     /tmp/ccEjNa1o.s:428    .text:000000000000020c .L0 
     /tmp/ccEjNa1o.s:431    .text:0000000000000214 .L0 
     /tmp/ccEjNa1o.s:433    .text:0000000000000218 .L0 
     /tmp/ccEjNa1o.s:435    .text:000000000000021c .L0 
     /tmp/ccEjNa1o.s:436    .text:000000000000021c .L0 
     /tmp/ccEjNa1o.s:442    .text:0000000000000224 .L0 
     /tmp/ccEjNa1o.s:443    .text:0000000000000228 .L0 
     /tmp/ccEjNa1o.s:446    .text:0000000000000230 .L0 
     /tmp/ccEjNa1o.s:447    .text:0000000000000230 .L0 
     /tmp/ccEjNa1o.s:449    .text:0000000000000234 .L0 
     /tmp/ccEjNa1o.s:451    .text:0000000000000234 .L0 
     /tmp/ccEjNa1o.s:452    .text:0000000000000234 .L0 
     /tmp/ccEjNa1o.s:455    .text:000000000000023c .L0 
     /tmp/ccEjNa1o.s:456    .text:000000000000023c .L0 
     /tmp/ccEjNa1o.s:458    .text:0000000000000244 .L0 
     /tmp/ccEjNa1o.s:460    .text:0000000000000248 .L0 
     /tmp/ccEjNa1o.s:461    .text:0000000000000248 .L0 
     /tmp/ccEjNa1o.s:463    .text:000000000000024c .L0 
     /tmp/ccEjNa1o.s:465    .text:0000000000000250 .L0 
     /tmp/ccEjNa1o.s:471    .text:0000000000000250 _ZN10KSemaphorenwEm
     /tmp/ccEjNa1o.s:474    .text:0000000000000250 .L0 
     /tmp/ccEjNa1o.s:476    .text:0000000000000250 .L0 
     /tmp/ccEjNa1o.s:477    .text:0000000000000254 .L0 
     /tmp/ccEjNa1o.s:480    .text:000000000000025c .L0 
     /tmp/ccEjNa1o.s:481    .text:000000000000025c .L0 
     /tmp/ccEjNa1o.s:483    .text:0000000000000260 .L0 
     /tmp/ccEjNa1o.s:485    .text:0000000000000260 .L0 
     /tmp/ccEjNa1o.s:486    .text:0000000000000260 .L0 
     /tmp/ccEjNa1o.s:489    .text:0000000000000268 .L0 
     /tmp/ccEjNa1o.s:490    .text:000000000000026c .L0 
     /tmp/ccEjNa1o.s:492    .text:0000000000000270 .L0 
     /tmp/ccEjNa1o.s:493    .text:0000000000000270 .L0 
     /tmp/ccEjNa1o.s:495    .text:0000000000000274 .L0 
     /tmp/ccEjNa1o.s:497    .text:0000000000000278 .L0 
     /tmp/ccEjNa1o.s:503    .text:0000000000000278 _ZN10KSemaphoredlEPv
     /tmp/ccEjNa1o.s:506    .text:0000000000000278 .L0 
     /tmp/ccEjNa1o.s:508    .text:0000000000000278 .L0 
     /tmp/ccEjNa1o.s:509    .text:000000000000027c .L0 
     /tmp/ccEjNa1o.s:512    .text:0000000000000284 .L0 
     /tmp/ccEjNa1o.s:513    .text:0000000000000284 .L0 
     /tmp/ccEjNa1o.s:515    .text:0000000000000288 .L0 
GAS LISTING /tmp/ccEjNa1o.s 			page 18


     /tmp/ccEjNa1o.s:517    .text:0000000000000288 .L0 
     /tmp/ccEjNa1o.s:518    .text:0000000000000288 .L0 
     /tmp/ccEjNa1o.s:521    .text:0000000000000290 .L0 
     /tmp/ccEjNa1o.s:522    .text:0000000000000294 .L0 
     /tmp/ccEjNa1o.s:524    .text:0000000000000298 .L0 
     /tmp/ccEjNa1o.s:525    .text:0000000000000298 .L0 
     /tmp/ccEjNa1o.s:527    .text:000000000000029c .L0 
     /tmp/ccEjNa1o.s:529    .text:00000000000002a0 .L0 
     /tmp/ccEjNa1o.s:537    .text:00000000000002a0 .L0 
     /tmp/ccEjNa1o.s:112    .text:0000000000000074 .L0 
     /tmp/ccEjNa1o.s:83     .text:0000000000000058 .L7
     /tmp/ccEjNa1o.s:74     .text:000000000000004c .L3
     /tmp/ccEjNa1o.s:169    .text:00000000000000c4 .L16
     /tmp/ccEjNa1o.s:259    .text:0000000000000134 .L19
     /tmp/ccEjNa1o.s:268    .text:0000000000000140 .L22
     /tmp/ccEjNa1o.s:329    .text:0000000000000194 .L23
     /tmp/ccEjNa1o.s:301    .text:0000000000000164 .L25
     /tmp/ccEjNa1o.s:397    .text:00000000000001f0 .L27
     /tmp/ccEjNa1o.s:440    .text:0000000000000224 .L36
     /tmp/ccEjNa1o.s:1758   .debug_abbrev:0000000000000000 .Ldebug_abbrev0
     /tmp/ccEjNa1o.s:3096   .debug_str:00000000000000cf .LASF114
     /tmp/ccEjNa1o.s:3166   .debug_str:0000000000000352 .LASF115
     /tmp/ccEjNa1o.s:3284   .debug_str:00000000000006ab .LASF116
     /tmp/ccEjNa1o.s:5      .text:0000000000000000 .Ltext0
     /tmp/ccEjNa1o.s:532    .text:00000000000002a0 .Letext0
     /tmp/ccEjNa1o.s:3068   .debug_line:0000000000000000 .Ldebug_line0
     /tmp/ccEjNa1o.s:3162   .debug_str:0000000000000330 .LASF0
     /tmp/ccEjNa1o.s:3180   .debug_str:00000000000003cd .LASF1
     /tmp/ccEjNa1o.s:3228   .debug_str:0000000000000532 .LASF2
     /tmp/ccEjNa1o.s:3240   .debug_str:0000000000000592 .LASF4
     /tmp/ccEjNa1o.s:3170   .debug_str:0000000000000372 .LASF3
     /tmp/ccEjNa1o.s:3084   .debug_str:000000000000005a .LASF5
     /tmp/ccEjNa1o.s:3220   .debug_str:00000000000004fc .LASF6
     /tmp/ccEjNa1o.s:3216   .debug_str:00000000000004e1 .LASF7
     /tmp/ccEjNa1o.s:3174   .debug_str:0000000000000391 .LASF8
     /tmp/ccEjNa1o.s:3148   .debug_str:00000000000002c9 .LASF9
     /tmp/ccEjNa1o.s:3154   .debug_str:0000000000000301 .LASF10
     /tmp/ccEjNa1o.s:3108   .debug_str:00000000000001e2 .LASF11
     /tmp/ccEjNa1o.s:3140   .debug_str:00000000000002a5 .LASF12
     /tmp/ccEjNa1o.s:3118   .debug_str:0000000000000217 .LASF13
     /tmp/ccEjNa1o.s:3106   .debug_str:00000000000001d2 .LASF14
     /tmp/ccEjNa1o.s:3262   .debug_str:0000000000000642 .LASF15
     /tmp/ccEjNa1o.s:3136   .debug_str:0000000000000283 .LASF16
     /tmp/ccEjNa1o.s:3258   .debug_str:0000000000000610 .LASF17
     /tmp/ccEjNa1o.s:3274   .debug_str:000000000000067b .LASF117
     /tmp/ccEjNa1o.s:3104   .debug_str:00000000000001cc .LASF18
     /tmp/ccEjNa1o.s:3252   .debug_str:00000000000005ef .LASF19
     /tmp/ccEjNa1o.s:3114   .debug_str:0000000000000203 .LASF20
     /tmp/ccEjNa1o.s:3094   .debug_str:00000000000000c6 .LASF21
     /tmp/ccEjNa1o.s:3218   .debug_str:00000000000004f4 .LASF22
     /tmp/ccEjNa1o.s:3112   .debug_str:00000000000001fa .LASF23
     /tmp/ccEjNa1o.s:3268   .debug_str:0000000000000668 .LASF67
     /tmp/ccEjNa1o.s:3156   .debug_str:000000000000030f .LASF24
     /tmp/ccEjNa1o.s:3288   .debug_str:00000000000006d6 .LASF118
     /tmp/ccEjNa1o.s:3206   .debug_str:0000000000000493 .LASF119
     /tmp/ccEjNa1o.s:3178   .debug_str:00000000000003c8 .LASF25
     /tmp/ccEjNa1o.s:3310   .debug_str:000000000000076f .LASF27
GAS LISTING /tmp/ccEjNa1o.s 			page 19


     /tmp/ccEjNa1o.s:3304   .debug_str:000000000000073f .LASF26
     /tmp/ccEjNa1o.s:3280   .debug_str:0000000000000691 .LASF28
     /tmp/ccEjNa1o.s:3128   .debug_str:000000000000025b .LASF51
     /tmp/ccEjNa1o.s:3088   .debug_str:0000000000000079 .LASF53
     /tmp/ccEjNa1o.s:3184   .debug_str:00000000000003e9 .LASF33
     /tmp/ccEjNa1o.s:3210   .debug_str:00000000000004ab .LASF35
     /tmp/ccEjNa1o.s:3276   .debug_str:0000000000000681 .LASF29
     /tmp/ccEjNa1o.s:3246   .debug_str:00000000000005c4 .LASF30
     /tmp/ccEjNa1o.s:3186   .debug_str:00000000000003ef .LASF37
     /tmp/ccEjNa1o.s:3188   .debug_str:00000000000003fc .LASF39
     /tmp/ccEjNa1o.s:3314   .debug_str:000000000000078b .LASF31
     /tmp/ccEjNa1o.s:3138   .debug_str:0000000000000299 .LASF32
     /tmp/ccEjNa1o.s:3078   .debug_str:0000000000000038 .LASF34
     /tmp/ccEjNa1o.s:3168   .debug_str:0000000000000365 .LASF36
     /tmp/ccEjNa1o.s:3250   .debug_str:00000000000005e6 .LASF38
     /tmp/ccEjNa1o.s:3198   .debug_str:000000000000044f .LASF40
     /tmp/ccEjNa1o.s:3234   .debug_str:0000000000000558 .LASF41
     /tmp/ccEjNa1o.s:3260   .debug_str:0000000000000626 .LASF42
     /tmp/ccEjNa1o.s:3200   .debug_str:0000000000000462 .LASF43
     /tmp/ccEjNa1o.s:3074   .debug_str:0000000000000019 .LASF44
     /tmp/ccEjNa1o.s:3300   .debug_str:0000000000000725 .LASF45
     /tmp/ccEjNa1o.s:3214   .debug_str:00000000000004c7 .LASF46
     /tmp/ccEjNa1o.s:3256   .debug_str:0000000000000602 .LASF47
     /tmp/ccEjNa1o.s:3222   .debug_str:0000000000000503 .LASF48
     /tmp/ccEjNa1o.s:3126   .debug_str:000000000000024b .LASF49
     /tmp/ccEjNa1o.s:3302   .debug_str:0000000000000734 .LASF50
     /tmp/ccEjNa1o.s:3172   .debug_str:0000000000000384 .LASF55
     /tmp/ccEjNa1o.s:3254   .debug_str:00000000000005f7 .LASF52
     /tmp/ccEjNa1o.s:3308   .debug_str:0000000000000759 .LASF54
     /tmp/ccEjNa1o.s:3244   .debug_str:00000000000005bc .LASF56
     /tmp/ccEjNa1o.s:3282   .debug_str:00000000000006a1 .LASF57
     /tmp/ccEjNa1o.s:3212   .debug_str:00000000000004bb .LASF58
     /tmp/ccEjNa1o.s:3124   .debug_str:000000000000023d .LASF59
     /tmp/ccEjNa1o.s:3090   .debug_str:000000000000008c .LASF61
     /tmp/ccEjNa1o.s:3164   .debug_str:000000000000033d .LASF60
     /tmp/ccEjNa1o.s:3102   .debug_str:00000000000001a0 .LASF62
     /tmp/ccEjNa1o.s:3298   .debug_str:000000000000071e .LASF120
     /tmp/ccEjNa1o.s:3100   .debug_str:000000000000018f .LASF121
     /tmp/ccEjNa1o.s:3076   .debug_str:0000000000000033 .LASF63
     /tmp/ccEjNa1o.s:3292   .debug_str:0000000000000705 .LASF64
     /tmp/ccEjNa1o.s:3192   .debug_str:000000000000042e .LASF65
     /tmp/ccEjNa1o.s:3132   .debug_str:0000000000000269 .LASF66
     /tmp/ccEjNa1o.s:3286   .debug_str:00000000000006ce .LASF68
     /tmp/ccEjNa1o.s:3146   .debug_str:00000000000002bf .LASF69
     /tmp/ccEjNa1o.s:3086   .debug_str:0000000000000061 .LASF122
     /tmp/ccEjNa1o.s:3306   .debug_str:0000000000000745 .LASF123
     /tmp/ccEjNa1o.s:3092   .debug_str:00000000000000b4 .LASF70
     /tmp/ccEjNa1o.s:3208   .debug_str:0000000000000498 .LASF71
     /tmp/ccEjNa1o.s:3278   .debug_str:0000000000000689 .LASF72
     /tmp/ccEjNa1o.s:3226   .debug_str:000000000000051a .LASF124
     /tmp/ccEjNa1o.s:3248   .debug_str:00000000000005d5 .LASF73
     /tmp/ccEjNa1o.s:3120   .debug_str:0000000000000227 .LASF74
     /tmp/ccEjNa1o.s:3272   .debug_str:0000000000000676 .LASF75
     /tmp/ccEjNa1o.s:3194   .debug_str:0000000000000436 .LASF76
     /tmp/ccEjNa1o.s:3224   .debug_str:000000000000050f .LASF77
     /tmp/ccEjNa1o.s:3152   .debug_str:00000000000002ed .LASF78
     /tmp/ccEjNa1o.s:3230   .debug_str:0000000000000540 .LASF79
GAS LISTING /tmp/ccEjNa1o.s 			page 20


     /tmp/ccEjNa1o.s:3134   .debug_str:000000000000026f .LASF80
     /tmp/ccEjNa1o.s:3130   .debug_str:0000000000000264 .LASF81
     /tmp/ccEjNa1o.s:3290   .debug_str:00000000000006ee .LASF82
     /tmp/ccEjNa1o.s:3266   .debug_str:0000000000000661 .LASF83
     /tmp/ccEjNa1o.s:3204   .debug_str:000000000000047a .LASF84
     /tmp/ccEjNa1o.s:3072   .debug_str:000000000000000d .LASF85
     /tmp/ccEjNa1o.s:3232   .debug_str:000000000000054c .LASF86
     /tmp/ccEjNa1o.s:3196   .debug_str:000000000000043b .LASF87
     /tmp/ccEjNa1o.s:3158   .debug_str:0000000000000315 .LASF88
     /tmp/ccEjNa1o.s:3110   .debug_str:00000000000001f1 .LASF89
     /tmp/ccEjNa1o.s:3116   .debug_str:000000000000020d .LASF90
     /tmp/ccEjNa1o.s:3202   .debug_str:0000000000000471 .LASF91
     /tmp/ccEjNa1o.s:3238   .debug_str:0000000000000587 .LASF92
     /tmp/ccEjNa1o.s:3182   .debug_str:00000000000003e0 .LASF93
     /tmp/ccEjNa1o.s:3160   .debug_str:000000000000032a .LASF94
     /tmp/ccEjNa1o.s:3318   .debug_str:00000000000007a3 .LASF95
     /tmp/ccEjNa1o.s:3080   .debug_str:0000000000000048 .LASF96
     /tmp/ccEjNa1o.s:3190   .debug_str:0000000000000414 .LASF97
     /tmp/ccEjNa1o.s:3312   .debug_str:000000000000077b .LASF98
     /tmp/ccEjNa1o.s:3242   .debug_str:0000000000000599 .LASF99
     /tmp/ccEjNa1o.s:3264   .debug_str:000000000000064e .LASF100
     /tmp/ccEjNa1o.s:3236   .debug_str:0000000000000561 .LASF101
     /tmp/ccEjNa1o.s:3070   .debug_str:0000000000000000 .LASF102
     /tmp/ccEjNa1o.s:3176   .debug_str:00000000000003a4 .LASF103
     /tmp/ccEjNa1o.s:504    .text:0000000000000278 .LFB35
     /tmp/ccEjNa1o.s:530    .text:00000000000002a0 .LFE35
     /tmp/ccEjNa1o.s:2877   .debug_loc:0000000000000000 .LLST12
     /tmp/ccEjNa1o.s:519    .text:0000000000000290 .LVL38
     /tmp/ccEjNa1o.s:472    .text:0000000000000250 .LFB34
     /tmp/ccEjNa1o.s:498    .text:0000000000000278 .LFE34
     /tmp/ccEjNa1o.s:3122   .debug_str:0000000000000238 .LASF104
     /tmp/ccEjNa1o.s:2891   .debug_loc:0000000000000039 .LLST11
     /tmp/ccEjNa1o.s:487    .text:0000000000000268 .LVL36
     /tmp/ccEjNa1o.s:362    .text:00000000000001ac .LFB33
     /tmp/ccEjNa1o.s:414    .text:0000000000000208 .LFE33
     /tmp/ccEjNa1o.s:3142   .debug_str:00000000000002b4 .LASF105
     /tmp/ccEjNa1o.s:2905   .debug_loc:0000000000000072 .LLST8
     /tmp/ccEjNa1o.s:2923   .debug_loc:00000000000000be .LLST9
     /tmp/ccEjNa1o.s:382    .text:00000000000001d0 .LVL25
     /tmp/ccEjNa1o.s:389    .text:00000000000001e0 .LVL27
     /tmp/ccEjNa1o.s:396    .text:00000000000001f0 .LVL28
     /tmp/ccEjNa1o.s:228    .text:000000000000010c .LFB32
     /tmp/ccEjNa1o.s:275    .text:0000000000000148 .LFE32
     /tmp/ccEjNa1o.s:3270   .debug_str:0000000000000670 .LASF106
     /tmp/ccEjNa1o.s:2930   .debug_loc:00000000000000e1 .LLST5
     /tmp/ccEjNa1o.s:201    .text:00000000000000f0 .LFB31
     /tmp/ccEjNa1o.s:222    .text:000000000000010c .LFE31
     /tmp/ccEjNa1o.s:2937   .debug_loc:0000000000000104 .LLST4
     /tmp/ccEjNa1o.s:98     .text:0000000000000064 .LFB30
     /tmp/ccEjNa1o.s:143    .text:00000000000000a8 .LFE30
     /tmp/ccEjNa1o.s:2951   .debug_loc:000000000000013d .LLST0
     /tmp/ccEjNa1o.s:115    .text:0000000000000080 .LBB5
     /tmp/ccEjNa1o.s:124    .text:0000000000000088 .LBE5
     /tmp/ccEjNa1o.s:2965   .debug_loc:0000000000000176 .LLST1
     /tmp/ccEjNa1o.s:2973   .debug_loc:000000000000019a .LLST2
     /tmp/ccEjNa1o.s:128    .text:0000000000000090 .LVL5
     /tmp/ccEjNa1o.s:132    .text:0000000000000098 .LVL6
GAS LISTING /tmp/ccEjNa1o.s 			page 21


     /tmp/ccEjNa1o.s:49     .text:0000000000000028 .LFB29
     /tmp/ccEjNa1o.s:92     .text:0000000000000064 .LFE29
     /tmp/ccEjNa1o.s:3082   .debug_str:0000000000000050 .LASF107
     /tmp/ccEjNa1o.s:3150   .debug_str:00000000000002d9 .LASF108
     /tmp/ccEjNa1o.s:281    .text:0000000000000148 .LFB27
     /tmp/ccEjNa1o.s:346    .text:00000000000001ac .LFE27
     /tmp/ccEjNa1o.s:2980   .debug_loc:00000000000001bd .LLST6
     /tmp/ccEjNa1o.s:319    .text:0000000000000184 .LVL20
     /tmp/ccEjNa1o.s:324    .text:0000000000000190 .LVL21
     /tmp/ccEjNa1o.s:312    .text:0000000000000178 .LBB8
     /tmp/ccEjNa1o.s:325    .text:0000000000000190 .LBE8
     /tmp/ccEjNa1o.s:2998   .debug_loc:0000000000000209 .LLST7
     /tmp/ccEjNa1o.s:308    .text:0000000000000170 .LVL18
     /tmp/ccEjNa1o.s:420    .text:0000000000000208 .LFB25
     /tmp/ccEjNa1o.s:466    .text:0000000000000250 .LFE25
     /tmp/ccEjNa1o.s:3005   .debug_loc:000000000000022c .LLST10
     /tmp/ccEjNa1o.s:453    .text:000000000000023c .LVL34
     /tmp/ccEjNa1o.s:149    .text:00000000000000a8 .LFB24
     /tmp/ccEjNa1o.s:195    .text:00000000000000f0 .LFE24
     /tmp/ccEjNa1o.s:3030   .debug_loc:000000000000028e .LLST3
     /tmp/ccEjNa1o.s:182    .text:00000000000000dc .LVL10
     /tmp/ccEjNa1o.s:3098   .debug_str:000000000000017b .LASF109
     /tmp/ccEjNa1o.s:10     .text:0000000000000000 .LFB22
     /tmp/ccEjNa1o.s:41     .text:0000000000000028 .LFE22
     /tmp/ccEjNa1o.s:3316   .debug_str:0000000000000798 .LASF110
     /tmp/ccEjNa1o.s:3144   .debug_str:00000000000002b9 .LASF112
     /tmp/ccEjNa1o.s:3294   .debug_str:000000000000070a .LASF111
     /tmp/ccEjNa1o.s:3296   .debug_str:0000000000000716 .LASF113
     /tmp/ccEjNa1o.s:507    .text:0000000000000278 .LVL37
     /tmp/ccEjNa1o.s:475    .text:0000000000000250 .LVL35
     /tmp/ccEjNa1o.s:365    .text:00000000000001ac .LVL24
     /tmp/ccEjNa1o.s:409    .text:0000000000000200 .LVL30
     /tmp/ccEjNa1o.s:384    .text:00000000000001d4 .LVL26
     /tmp/ccEjNa1o.s:406    .text:00000000000001fc .LVL29
     /tmp/ccEjNa1o.s:244    .text:0000000000000120 .LVL14
     /tmp/ccEjNa1o.s:256    .text:0000000000000130 .LVL15
     /tmp/ccEjNa1o.s:204    .text:00000000000000f0 .LVL11
     /tmp/ccEjNa1o.s:214    .text:0000000000000100 .LVL12
     /tmp/ccEjNa1o.s:101    .text:0000000000000064 .LVL2
     /tmp/ccEjNa1o.s:114    .text:0000000000000080 .LVL3
     /tmp/ccEjNa1o.s:122    .text:0000000000000088 .LVL4
     /tmp/ccEjNa1o.s:286    .text:0000000000000148 .LVL16
     /tmp/ccEjNa1o.s:300    .text:0000000000000164 .LVL17
     /tmp/ccEjNa1o.s:341    .text:00000000000001a4 .LVL23
     /tmp/ccEjNa1o.s:314    .text:0000000000000178 .LVL19
     /tmp/ccEjNa1o.s:328    .text:0000000000000194 .LVL22
     /tmp/ccEjNa1o.s:423    .text:0000000000000208 .LVL31
     /tmp/ccEjNa1o.s:437    .text:0000000000000220 .LVL32
     /tmp/ccEjNa1o.s:439    .text:0000000000000224 .LVL33
     /tmp/ccEjNa1o.s:152    .text:00000000000000a8 .LVL7
     /tmp/ccEjNa1o.s:166    .text:00000000000000c0 .LVL8
     /tmp/ccEjNa1o.s:168    .text:00000000000000c4 .LVL9
     /tmp/ccEjNa1o.s:538    .debug_info:0000000000000000 .Ldebug_info0
     /tmp/ccEjNa1o.s:349    .gcc_except_table:0000000000000000 .LLSDA27

UNDEFINED SYMBOLS
_ZN3PCB7runningE
GAS LISTING /tmp/ccEjNa1o.s 			page 22


_ZN3PCB8dispatchEv
_ZN9Scheduler3putEP3PCB
__gxx_personality_v0
_Z7kmallocm
_Z5kfreePv
