GAS LISTING /tmp/ccQGTUlk.s 			page 1


   1              		.file	"KSemaphore.cpp"
   2              		.option pic
   3              		.option norelax
   4              		.text
   5              	.Ltext0:
   6              		.align	2
   7              		.globl	_ZN10KSemaphoreC2Ei
   9              	_ZN10KSemaphoreC2Ei:
  10              	.LFB22:
  11              		.file 1 "src/KSemaphore.cpp"
   1:src/KSemaphore.cpp **** //
   2:src/KSemaphore.cpp **** // Created by os on 5/2/22.
   3:src/KSemaphore.cpp **** //
   4:src/KSemaphore.cpp **** 
   5:src/KSemaphore.cpp **** #include "../h/KSemaphore.hpp"
   6:src/KSemaphore.cpp **** #include "../h/MemoryAllocator.hpp"
   7:src/KSemaphore.cpp **** 
   8:src/KSemaphore.cpp **** KSemaphore::KSemaphore(int val) {
  12              		.loc 1 8 1
  13              		.cfi_startproc
  14              	.LVL0:
  15 0000 130101FF 		addi	sp,sp,-16
  16              		.cfi_def_cfa_offset 16
  17 0004 23348100 		sd	s0,8(sp)
  18              		.cfi_offset 8, -8
  19 0008 13040101 		addi	s0,sp,16
  20              		.cfi_def_cfa 8, 0
  21              	.LBB6:
   9:src/KSemaphore.cpp ****     this->val = this->beginVal = val;
  22              		.loc 1 9 5
  23              		.loc 1 9 32 is_stmt 0
  24 000c 232AB500 		sw	a1,20(a0)
  25              		.loc 1 9 15
  26 0010 2328B500 		sw	a1,16(a0)
  10:src/KSemaphore.cpp ****     headBlocked = tailBlocked = 0;
  27              		.loc 1 10 5 is_stmt 1
  28              		.loc 1 10 31 is_stmt 0
  29 0014 23340500 		sd	zero,8(a0)
  30              		.loc 1 10 17
  31 0018 23300500 		sd	zero,0(a0)
  32              	.LBE6:
  11:src/KSemaphore.cpp **** }
  33              		.loc 1 11 1
  34 001c 03348100 		ld	s0,8(sp)
  35              		.cfi_restore 8
  36              		.cfi_def_cfa 2, 16
  37 0020 13010101 		addi	sp,sp,16
  38              		.cfi_def_cfa_offset 0
  39 0024 67800000 		jr	ra
  40              		.cfi_endproc
  41              	.LFE22:
  43              		.globl	_ZN10KSemaphoreC1Ei
  44              		.set	_ZN10KSemaphoreC1Ei,_ZN10KSemaphoreC2Ei
  45              		.align	2
  46              		.globl	_ZN10KSemaphore12addToBlockedEP3PCB
  48              	_ZN10KSemaphore12addToBlockedEP3PCB:
  49              	.LFB29:
GAS LISTING /tmp/ccQGTUlk.s 			page 2


  12:src/KSemaphore.cpp **** 
  13:src/KSemaphore.cpp **** //todo
  14:src/KSemaphore.cpp **** uint64 KSemaphore::wait() {
  15:src/KSemaphore.cpp ****     if(--val < 0)
  16:src/KSemaphore.cpp ****         block();
  17:src/KSemaphore.cpp **** 
  18:src/KSemaphore.cpp ****     return 0;
  19:src/KSemaphore.cpp **** }
  20:src/KSemaphore.cpp **** 
  21:src/KSemaphore.cpp **** //todo
  22:src/KSemaphore.cpp **** uint64 KSemaphore::signal() {
  23:src/KSemaphore.cpp ****     if(++val <= 0)
  24:src/KSemaphore.cpp ****         unblock();
  25:src/KSemaphore.cpp ****     else
  26:src/KSemaphore.cpp ****         val = beginVal;
  27:src/KSemaphore.cpp **** 
  28:src/KSemaphore.cpp ****     return 0;
  29:src/KSemaphore.cpp **** }
  30:src/KSemaphore.cpp **** 
  31:src/KSemaphore.cpp **** KSemaphore::~KSemaphore() {
  32:src/KSemaphore.cpp ****     //todo
  33:src/KSemaphore.cpp ****     while(getFirstBlocked() != 0)
  34:src/KSemaphore.cpp ****     {
  35:src/KSemaphore.cpp ****         PCB* pcb = getFirstBlocked();
  36:src/KSemaphore.cpp ****         removeFirstBlocked();
  37:src/KSemaphore.cpp ****         Scheduler::put(pcb);
  38:src/KSemaphore.cpp ****     }
  39:src/KSemaphore.cpp **** }
  40:src/KSemaphore.cpp **** 
  41:src/KSemaphore.cpp **** void KSemaphore::addToBlocked(PCB* pcb)
  42:src/KSemaphore.cpp **** {
  50              		.loc 1 42 1 is_stmt 1
  51              		.cfi_startproc
  52              	.LVL1:
  53 0028 130101FF 		addi	sp,sp,-16
  54              		.cfi_def_cfa_offset 16
  55 002c 23348100 		sd	s0,8(sp)
  56              		.cfi_offset 8, -8
  57 0030 13040101 		addi	s0,sp,16
  58              		.cfi_def_cfa 8, 0
  43:src/KSemaphore.cpp ****     pcb->nextPCB = 0;
  59              		.loc 1 43 5
  60              		.loc 1 43 18 is_stmt 0
  61 0034 23B00500 		sd	zero,0(a1)
  44:src/KSemaphore.cpp ****     if(headBlocked == 0)
  62              		.loc 1 44 5 is_stmt 1
  63              		.loc 1 44 8 is_stmt 0
  64 0038 83370500 		ld	a5,0(a0)
  65              		.loc 1 44 5
  66 003c 638E0700 		beqz	a5,.L7
  45:src/KSemaphore.cpp ****     {
  46:src/KSemaphore.cpp ****         headBlocked = tailBlocked = pcb;
  47:src/KSemaphore.cpp ****     }
  48:src/KSemaphore.cpp ****     else
  49:src/KSemaphore.cpp ****     {
  50:src/KSemaphore.cpp ****         tailBlocked->nextPCB = pcb;
  67              		.loc 1 50 9 is_stmt 1
GAS LISTING /tmp/ccQGTUlk.s 			page 3


  68 0040 83378500 		ld	a5,8(a0)
  69              		.loc 1 50 30 is_stmt 0
  70 0044 23B0B700 		sd	a1,0(a5)
  51:src/KSemaphore.cpp ****         tailBlocked = pcb;
  71              		.loc 1 51 9 is_stmt 1
  72              		.loc 1 51 21 is_stmt 0
  73 0048 2334B500 		sd	a1,8(a0)
  74              	.L3:
  52:src/KSemaphore.cpp ****     }
  53:src/KSemaphore.cpp **** }
  75              		.loc 1 53 1
  76 004c 03348100 		ld	s0,8(sp)
  77              		.cfi_remember_state
  78              		.cfi_restore 8
  79              		.cfi_def_cfa 2, 16
  80 0050 13010101 		addi	sp,sp,16
  81              		.cfi_def_cfa_offset 0
  82 0054 67800000 		jr	ra
  83              	.L7:
  84              		.cfi_restore_state
  46:src/KSemaphore.cpp ****     }
  85              		.loc 1 46 9 is_stmt 1
  46:src/KSemaphore.cpp ****     }
  86              		.loc 1 46 35 is_stmt 0
  87 0058 2334B500 		sd	a1,8(a0)
  46:src/KSemaphore.cpp ****     }
  88              		.loc 1 46 21
  89 005c 2330B500 		sd	a1,0(a0)
  90 0060 6FF0DFFE 		j	.L3
  91              		.cfi_endproc
  92              	.LFE29:
  94              		.align	2
  95              		.globl	_ZN10KSemaphore5blockEv
  97              	_ZN10KSemaphore5blockEv:
  98              	.LFB30:
  54:src/KSemaphore.cpp **** 
  55:src/KSemaphore.cpp **** //todo
  56:src/KSemaphore.cpp **** void KSemaphore::block() {
  99              		.loc 1 56 26 is_stmt 1
 100              		.cfi_startproc
 101              	.LVL2:
 102 0064 130101FF 		addi	sp,sp,-16
 103              		.cfi_def_cfa_offset 16
 104 0068 23341100 		sd	ra,8(sp)
 105 006c 23308100 		sd	s0,0(sp)
 106              		.cfi_offset 1, -8
 107              		.cfi_offset 8, -16
 108 0070 13040101 		addi	s0,sp,16
 109              		.cfi_def_cfa 8, 0
  57:src/KSemaphore.cpp ****     PCB::running->setState(PCB::SUSPENDED);
 110              		.loc 1 57 5
 111              		.loc 1 57 27 is_stmt 0
 112 0074 97070000 		la	a5,_ZN3PCB7runningE
 112      83B70700 
 113 007c 83B50700 		ld	a1,0(a5)
 114              	.LVL3:
 115              	.LBB7:
GAS LISTING /tmp/ccQGTUlk.s 			page 4


 116              	.LBB8:
 117              		.file 2 "src/../h/PCB.hpp"
   1:src/../h/PCB.hpp **** //
   2:src/../h/PCB.hpp **** // Created by os on 4/27/22.
   3:src/../h/PCB.hpp **** //
   4:src/../h/PCB.hpp **** 
   5:src/../h/PCB.hpp **** #ifndef PROJECT_BASE_V1_0_PCB_HPP
   6:src/../h/PCB.hpp **** #define PROJECT_BASE_V1_0_PCB_HPP
   7:src/../h/PCB.hpp **** 
   8:src/../h/PCB.hpp **** #include "../lib/hw.h"
   9:src/../h/PCB.hpp **** #include "Scheduler.hpp"
  10:src/../h/PCB.hpp **** #include "Riscv.hpp"
  11:src/../h/PCB.hpp **** 
  12:src/../h/PCB.hpp **** class PCB
  13:src/../h/PCB.hpp **** {
  14:src/../h/PCB.hpp **** public:
  15:src/../h/PCB.hpp ****     using Body = void (*)(void*);
  16:src/../h/PCB.hpp **** 
  17:src/../h/PCB.hpp ****     PCB(Body body,  void* args, void* stack_space, uint64 timeSlice);
  18:src/../h/PCB.hpp ****     ~PCB();
  19:src/../h/PCB.hpp **** 
  20:src/../h/PCB.hpp ****     void start();
  21:src/../h/PCB.hpp ****     static void dispatch();
  22:src/../h/PCB.hpp ****     static void sleep(time_t);
  23:src/../h/PCB.hpp **** 
  24:src/../h/PCB.hpp ****     static PCB* running;
  25:src/../h/PCB.hpp ****     static PCB* exitingPCB;
  26:src/../h/PCB.hpp **** 
  27:src/../h/PCB.hpp ****     static uint64 timeSliceCounter;
  28:src/../h/PCB.hpp ****     uint64 getTimeSlice() { return timeSlice;}
  29:src/../h/PCB.hpp **** 
  30:src/../h/PCB.hpp ****     void* operator new(size_t size);
  31:src/../h/PCB.hpp ****     void operator delete(void *p);
  32:src/../h/PCB.hpp **** 
  33:src/../h/PCB.hpp ****     enum State{READY, RUNNING, SUSPENDED, FINISHED, EXITING, SLEEPING};
  34:src/../h/PCB.hpp ****     State getState() {return state;}
  35:src/../h/PCB.hpp ****     void setState(State s) {state = s;}
 118              		.loc 2 35 29 is_stmt 1
 119              		.loc 2 35 35 is_stmt 0
 120 0080 93072000 		li	a5,2
 121 0084 23A8F502 		sw	a5,48(a1)
 122              	.LVL4:
 123              	.LBE8:
 124              	.LBE7:
  58:src/KSemaphore.cpp ****     addToBlocked(PCB::running);
 125              		.loc 1 58 5 is_stmt 1
 126              		.loc 1 58 17 is_stmt 0
 127 0088 97000000 		call	_ZN10KSemaphore12addToBlockedEP3PCB
 127      E7800000 
 128              	.LVL5:
  59:src/KSemaphore.cpp ****     PCB::dispatch();
 129              		.loc 1 59 5 is_stmt 1
 130              		.loc 1 59 18 is_stmt 0
 131 0090 97000000 		call	_ZN3PCB8dispatchEv@plt
 131      E7800000 
 132              	.LVL6:
  60:src/KSemaphore.cpp **** }
GAS LISTING /tmp/ccQGTUlk.s 			page 5


 133              		.loc 1 60 1
 134 0098 83308100 		ld	ra,8(sp)
 135              		.cfi_restore 1
 136 009c 03340100 		ld	s0,0(sp)
 137              		.cfi_restore 8
 138              		.cfi_def_cfa 2, 16
 139 00a0 13010101 		addi	sp,sp,16
 140              		.cfi_def_cfa_offset 0
 141 00a4 67800000 		jr	ra
 142              		.cfi_endproc
 143              	.LFE30:
 145              		.align	2
 146              		.globl	_ZN10KSemaphore4waitEv
 148              	_ZN10KSemaphore4waitEv:
 149              	.LFB24:
  14:src/KSemaphore.cpp ****     if(--val < 0)
 150              		.loc 1 14 27 is_stmt 1
 151              		.cfi_startproc
 152              	.LVL7:
  15:src/KSemaphore.cpp ****         block();
 153              		.loc 1 15 5
  15:src/KSemaphore.cpp ****         block();
 154              		.loc 1 15 10 is_stmt 0
 155 00a8 83270501 		lw	a5,16(a0)
  15:src/KSemaphore.cpp ****         block();
 156              		.loc 1 15 8
 157 00ac 9B87F7FF 		addiw	a5,a5,-1
  15:src/KSemaphore.cpp ****         block();
 158              		.loc 1 15 14
 159 00b0 2328F500 		sw	a5,16(a0)
  15:src/KSemaphore.cpp ****         block();
 160              		.loc 1 15 5
 161 00b4 13970702 		slli	a4,a5,32
 162 00b8 63460700 		bltz	a4,.L16
  18:src/KSemaphore.cpp **** }
 163              		.loc 1 18 5 is_stmt 1
  19:src/KSemaphore.cpp **** 
 164              		.loc 1 19 1 is_stmt 0
 165 00bc 13050000 		li	a0,0
 166              	.LVL8:
 167 00c0 67800000 		ret
 168              	.LVL9:
 169              	.L16:
  14:src/KSemaphore.cpp ****     if(--val < 0)
 170              		.loc 1 14 27
 171 00c4 130101FF 		addi	sp,sp,-16
 172              		.cfi_def_cfa_offset 16
 173 00c8 23341100 		sd	ra,8(sp)
 174 00cc 23308100 		sd	s0,0(sp)
 175              		.cfi_offset 1, -8
 176              		.cfi_offset 8, -16
 177 00d0 13040101 		addi	s0,sp,16
 178              		.cfi_def_cfa 8, 0
  16:src/KSemaphore.cpp **** 
 179              		.loc 1 16 9 is_stmt 1
  16:src/KSemaphore.cpp **** 
 180              		.loc 1 16 14 is_stmt 0
GAS LISTING /tmp/ccQGTUlk.s 			page 6


 181 00d4 97000000 		call	_ZN10KSemaphore5blockEv
 181      E7800000 
 182              	.LVL10:
  18:src/KSemaphore.cpp **** }
 183              		.loc 1 18 5 is_stmt 1
  19:src/KSemaphore.cpp **** 
 184              		.loc 1 19 1 is_stmt 0
 185 00dc 13050000 		li	a0,0
 186 00e0 83308100 		ld	ra,8(sp)
 187              		.cfi_restore 1
 188 00e4 03340100 		ld	s0,0(sp)
 189              		.cfi_restore 8
 190              		.cfi_def_cfa 2, 16
 191 00e8 13010101 		addi	sp,sp,16
 192              		.cfi_def_cfa_offset 0
 193 00ec 67800000 		jr	ra
 194              		.cfi_endproc
 195              	.LFE24:
 197              		.align	2
 198              		.globl	_ZN10KSemaphore15getFirstBlockedEv
 200              	_ZN10KSemaphore15getFirstBlockedEv:
 201              	.LFB31:
  61:src/KSemaphore.cpp **** 
  62:src/KSemaphore.cpp **** PCB* KSemaphore::getFirstBlocked()
  63:src/KSemaphore.cpp **** {
 202              		.loc 1 63 1 is_stmt 1
 203              		.cfi_startproc
 204              	.LVL11:
 205 00f0 130101FF 		addi	sp,sp,-16
 206              		.cfi_def_cfa_offset 16
 207 00f4 23348100 		sd	s0,8(sp)
 208              		.cfi_offset 8, -8
 209 00f8 13040101 		addi	s0,sp,16
 210              		.cfi_def_cfa 8, 0
  64:src/KSemaphore.cpp ****    return headBlocked;
 211              		.loc 1 64 4
  65:src/KSemaphore.cpp **** }
 212              		.loc 1 65 1 is_stmt 0
 213 00fc 03350500 		ld	a0,0(a0)
 214              	.LVL12:
 215 0100 03348100 		ld	s0,8(sp)
 216              		.cfi_restore 8
 217              		.cfi_def_cfa 2, 16
 218 0104 13010101 		addi	sp,sp,16
 219              		.cfi_def_cfa_offset 0
 220 0108 67800000 		jr	ra
 221              		.cfi_endproc
 222              	.LFE31:
 224              		.align	2
 225              		.globl	_ZN10KSemaphore18removeFirstBlockedEv
 227              	_ZN10KSemaphore18removeFirstBlockedEv:
 228              	.LFB32:
  66:src/KSemaphore.cpp **** 
  67:src/KSemaphore.cpp **** void KSemaphore::removeFirstBlocked()
  68:src/KSemaphore.cpp **** {
 229              		.loc 1 68 1 is_stmt 1
 230              		.cfi_startproc
GAS LISTING /tmp/ccQGTUlk.s 			page 7


 231              	.LVL13:
 232 010c 130101FF 		addi	sp,sp,-16
 233              		.cfi_def_cfa_offset 16
 234 0110 23348100 		sd	s0,8(sp)
 235              		.cfi_offset 8, -8
 236 0114 13040101 		addi	s0,sp,16
 237              		.cfi_def_cfa 8, 0
  69:src/KSemaphore.cpp ****     if(headBlocked == 0)
 238              		.loc 1 69 5
 239              		.loc 1 69 8 is_stmt 0
 240 0118 83370500 		ld	a5,0(a0)
 241              		.loc 1 69 5
 242 011c 638C0700 		beqz	a5,.L19
  70:src/KSemaphore.cpp ****         return;
  71:src/KSemaphore.cpp ****     PCB* first = headBlocked;
 243              		.loc 1 71 5 is_stmt 1
 244              	.LVL14:
  72:src/KSemaphore.cpp ****     headBlocked = headBlocked->nextPCB;
 245              		.loc 1 72 5
 246              		.loc 1 72 32 is_stmt 0
 247 0120 03B70700 		ld	a4,0(a5)
 248              		.loc 1 72 17
 249 0124 2330E500 		sd	a4,0(a0)
  73:src/KSemaphore.cpp ****     first->nextPCB = 0;
 250              		.loc 1 73 5 is_stmt 1
 251              		.loc 1 73 20 is_stmt 0
 252 0128 23B00700 		sd	zero,0(a5)
  74:src/KSemaphore.cpp ****     if(headBlocked == 0)
 253              		.loc 1 74 5 is_stmt 1
 254              		.loc 1 74 8 is_stmt 0
 255 012c 83370500 		ld	a5,0(a0)
 256              	.LVL15:
 257              		.loc 1 74 5
 258 0130 63880700 		beqz	a5,.L22
 259              	.L19:
  75:src/KSemaphore.cpp ****         tailBlocked =0;
  76:src/KSemaphore.cpp **** }
 260              		.loc 1 76 1
 261 0134 03348100 		ld	s0,8(sp)
 262              		.cfi_remember_state
 263              		.cfi_restore 8
 264              		.cfi_def_cfa 2, 16
 265 0138 13010101 		addi	sp,sp,16
 266              		.cfi_def_cfa_offset 0
 267 013c 67800000 		jr	ra
 268              	.L22:
 269              		.cfi_restore_state
  75:src/KSemaphore.cpp ****         tailBlocked =0;
 270              		.loc 1 75 9 is_stmt 1
  75:src/KSemaphore.cpp ****         tailBlocked =0;
 271              		.loc 1 75 21 is_stmt 0
 272 0140 23340500 		sd	zero,8(a0)
 273 0144 6FF01FFF 		j	.L19
 274              		.cfi_endproc
 275              	.LFE32:
 277              		.align	2
 278              		.globl	_ZN10KSemaphoreD2Ev
GAS LISTING /tmp/ccQGTUlk.s 			page 8


 280              	_ZN10KSemaphoreD2Ev:
 281              	.LFB27:
  31:src/KSemaphore.cpp ****     //todo
 282              		.loc 1 31 1 is_stmt 1
 283              		.cfi_startproc
 284              		.cfi_personality 0x9b,DW.ref.__gxx_personality_v0
 285              		.cfi_lsda 0x1b,.LLSDA27
 286              	.LVL16:
 287 0148 130101FE 		addi	sp,sp,-32
 288              		.cfi_def_cfa_offset 32
 289 014c 233C1100 		sd	ra,24(sp)
 290 0150 23388100 		sd	s0,16(sp)
 291 0154 23349100 		sd	s1,8(sp)
 292 0158 23302101 		sd	s2,0(sp)
 293              		.cfi_offset 1, -8
 294              		.cfi_offset 8, -16
 295              		.cfi_offset 9, -24
 296              		.cfi_offset 18, -32
 297 015c 13040102 		addi	s0,sp,32
 298              		.cfi_def_cfa 8, 0
 299 0160 13090500 		mv	s2,a0
 300              	.LVL17:
 301              	.L25:
 302              	.LBB9:
  33:src/KSemaphore.cpp ****     {
 303              		.loc 1 33 5
  33:src/KSemaphore.cpp ****     {
 304              		.loc 1 33 29
  33:src/KSemaphore.cpp ****     {
 305              		.loc 1 33 26 is_stmt 0
 306 0164 13050900 		mv	a0,s2
 307 0168 97000000 		call	_ZN10KSemaphore15getFirstBlockedEv
 307      E7800000 
 308              	.LVL18:
 309 0170 93040500 		mv	s1,a0
  33:src/KSemaphore.cpp ****     {
 310              		.loc 1 33 29
 311 0174 63000502 		beqz	a0,.L23
 312              	.LBB10:
  35:src/KSemaphore.cpp ****         removeFirstBlocked();
 313              		.loc 1 35 9 is_stmt 1
 314              	.LVL19:
  36:src/KSemaphore.cpp ****         Scheduler::put(pcb);
 315              		.loc 1 36 9
  36:src/KSemaphore.cpp ****         Scheduler::put(pcb);
 316              		.loc 1 36 27 is_stmt 0
 317 0178 13050900 		mv	a0,s2
 318 017c 97000000 		call	_ZN10KSemaphore18removeFirstBlockedEv
 318      E7800000 
 319              	.LVL20:
  37:src/KSemaphore.cpp ****     }
 320              		.loc 1 37 9 is_stmt 1
  37:src/KSemaphore.cpp ****     }
 321              		.loc 1 37 23 is_stmt 0
 322 0184 13850400 		mv	a0,s1
 323 0188 97000000 		call	_ZN9Scheduler3putEP3PCB@plt
 323      E7800000 
GAS LISTING /tmp/ccQGTUlk.s 			page 9


 324              	.LVL21:
 325              	.LBE10:
  33:src/KSemaphore.cpp ****     {
 326              		.loc 1 33 5
 327 0190 6FF05FFD 		j	.L25
 328              	.LVL22:
 329              	.L23:
 330              	.LBE9:
  39:src/KSemaphore.cpp **** 
 331              		.loc 1 39 1
 332 0194 83308101 		ld	ra,24(sp)
 333              		.cfi_restore 1
 334 0198 03340101 		ld	s0,16(sp)
 335              		.cfi_restore 8
 336              		.cfi_def_cfa 2, 32
 337 019c 83348100 		ld	s1,8(sp)
 338              		.cfi_restore 9
 339 01a0 03390100 		ld	s2,0(sp)
 340              		.cfi_restore 18
 341              	.LVL23:
 342 01a4 13010102 		addi	sp,sp,32
 343              		.cfi_def_cfa_offset 0
 344 01a8 67800000 		jr	ra
 345              		.cfi_endproc
 346              	.LFE27:
 347              		.globl	__gxx_personality_v0
 348              		.section	.gcc_except_table,"a",@progbits
 349              	.LLSDA27:
 350 0000 FF       		.byte	0xff
 351 0001 FF       		.byte	0xff
 352 0002 03       		.byte	0x3
 353 0003 00       		.byte	0
 354              		.text
 356              		.globl	_ZN10KSemaphoreD1Ev
 357              		.set	_ZN10KSemaphoreD1Ev,_ZN10KSemaphoreD2Ev
 358              		.align	2
 359              		.globl	_ZN10KSemaphore7unblockEv
 361              	_ZN10KSemaphore7unblockEv:
 362              	.LFB33:
  77:src/KSemaphore.cpp **** 
  78:src/KSemaphore.cpp **** //todo
  79:src/KSemaphore.cpp **** void KSemaphore::unblock() {
 363              		.loc 1 79 28 is_stmt 1
 364              		.cfi_startproc
 365              	.LVL24:
 366 01ac 130101FE 		addi	sp,sp,-32
 367              		.cfi_def_cfa_offset 32
 368 01b0 233C1100 		sd	ra,24(sp)
 369 01b4 23388100 		sd	s0,16(sp)
 370 01b8 23349100 		sd	s1,8(sp)
 371 01bc 23302101 		sd	s2,0(sp)
 372              		.cfi_offset 1, -8
 373              		.cfi_offset 8, -16
 374              		.cfi_offset 9, -24
 375              		.cfi_offset 18, -32
 376 01c0 13040102 		addi	s0,sp,32
 377              		.cfi_def_cfa 8, 0
GAS LISTING /tmp/ccQGTUlk.s 			page 10


 378 01c4 13090500 		mv	s2,a0
  80:src/KSemaphore.cpp ****     PCB* fr = getFirstBlocked();
 379              		.loc 1 80 5
 380              		.loc 1 80 30 is_stmt 0
 381 01c8 97000000 		call	_ZN10KSemaphore15getFirstBlockedEv
 381      E7800000 
 382              	.LVL25:
 383 01d0 93040500 		mv	s1,a0
 384              	.LVL26:
  81:src/KSemaphore.cpp ****     removeFirstBlocked();
 385              		.loc 1 81 5 is_stmt 1
 386              		.loc 1 81 23 is_stmt 0
 387 01d4 13050900 		mv	a0,s2
 388 01d8 97000000 		call	_ZN10KSemaphore18removeFirstBlockedEv
 388      E7800000 
 389              	.LVL27:
  82:src/KSemaphore.cpp ****     if(fr != 0)
 390              		.loc 1 82 5 is_stmt 1
 391 01e0 638A0400 		beqz	s1,.L27
  83:src/KSemaphore.cpp ****     {
  84:src/KSemaphore.cpp ****         fr->setState(PCB::READY);
 392              		.loc 1 84 9
 393              	.LVL28:
 394              	.LBB11:
 395              	.LBB12:
 396              		.loc 2 35 29
 397              		.loc 2 35 35 is_stmt 0
 398 01e4 23A80402 		sw	zero,48(s1)
 399              	.LVL29:
 400              	.LBE12:
 401              	.LBE11:
  85:src/KSemaphore.cpp ****         Scheduler::put(fr);
 402              		.loc 1 85 9 is_stmt 1
 403              		.loc 1 85 23 is_stmt 0
 404 01e8 13850400 		mv	a0,s1
 405 01ec 97000000 		call	_ZN9Scheduler3putEP3PCB@plt
 405      E7800000 
 406              	.LVL30:
 407              	.L27:
  86:src/KSemaphore.cpp ****     }
  87:src/KSemaphore.cpp **** }
 408              		.loc 1 87 1
 409 01f4 83308101 		ld	ra,24(sp)
 410              		.cfi_restore 1
 411 01f8 03340101 		ld	s0,16(sp)
 412              		.cfi_restore 8
 413              		.cfi_def_cfa 2, 32
 414 01fc 83348100 		ld	s1,8(sp)
 415              		.cfi_restore 9
 416              	.LVL31:
 417 0200 03390100 		ld	s2,0(sp)
 418              		.cfi_restore 18
 419              	.LVL32:
 420 0204 13010102 		addi	sp,sp,32
 421              		.cfi_def_cfa_offset 0
 422 0208 67800000 		jr	ra
 423              		.cfi_endproc
GAS LISTING /tmp/ccQGTUlk.s 			page 11


 424              	.LFE33:
 426              		.align	2
 427              		.globl	_ZN10KSemaphore6signalEv
 429              	_ZN10KSemaphore6signalEv:
 430              	.LFB25:
  22:src/KSemaphore.cpp ****     if(++val <= 0)
 431              		.loc 1 22 29 is_stmt 1
 432              		.cfi_startproc
 433              	.LVL33:
  23:src/KSemaphore.cpp ****         unblock();
 434              		.loc 1 23 5
  23:src/KSemaphore.cpp ****         unblock();
 435              		.loc 1 23 10 is_stmt 0
 436 020c 83270501 		lw	a5,16(a0)
  23:src/KSemaphore.cpp ****         unblock();
 437              		.loc 1 23 8
 438 0210 9B871700 		addiw	a5,a5,1
 439 0214 1B870700 		sext.w	a4,a5
  23:src/KSemaphore.cpp ****         unblock();
 440              		.loc 1 23 14
 441 0218 2328F500 		sw	a5,16(a0)
  23:src/KSemaphore.cpp ****         unblock();
 442              		.loc 1 23 5
 443 021c 635AE000 		blez	a4,.L37
  26:src/KSemaphore.cpp **** 
 444              		.loc 1 26 9 is_stmt 1
  26:src/KSemaphore.cpp **** 
 445              		.loc 1 26 15 is_stmt 0
 446 0220 83274501 		lw	a5,20(a0)
  26:src/KSemaphore.cpp **** 
 447              		.loc 1 26 13
 448 0224 2328F500 		sw	a5,16(a0)
  28:src/KSemaphore.cpp **** }
 449              		.loc 1 28 5 is_stmt 1
  29:src/KSemaphore.cpp **** 
 450              		.loc 1 29 1 is_stmt 0
 451 0228 13050000 		li	a0,0
 452              	.LVL34:
 453 022c 67800000 		ret
 454              	.LVL35:
 455              	.L37:
  22:src/KSemaphore.cpp ****     if(++val <= 0)
 456              		.loc 1 22 29
 457 0230 130101FF 		addi	sp,sp,-16
 458              		.cfi_def_cfa_offset 16
 459 0234 23341100 		sd	ra,8(sp)
 460 0238 23308100 		sd	s0,0(sp)
 461              		.cfi_offset 1, -8
 462              		.cfi_offset 8, -16
 463 023c 13040101 		addi	s0,sp,16
 464              		.cfi_def_cfa 8, 0
  24:src/KSemaphore.cpp ****     else
 465              		.loc 1 24 9 is_stmt 1
  24:src/KSemaphore.cpp ****     else
 466              		.loc 1 24 16 is_stmt 0
 467 0240 97000000 		call	_ZN10KSemaphore7unblockEv
 467      E7800000 
GAS LISTING /tmp/ccQGTUlk.s 			page 12


 468              	.LVL36:
  28:src/KSemaphore.cpp **** }
 469              		.loc 1 28 5 is_stmt 1
  29:src/KSemaphore.cpp **** 
 470              		.loc 1 29 1 is_stmt 0
 471 0248 13050000 		li	a0,0
 472 024c 83308100 		ld	ra,8(sp)
 473              		.cfi_restore 1
 474 0250 03340100 		ld	s0,0(sp)
 475              		.cfi_restore 8
 476              		.cfi_def_cfa 2, 16
 477 0254 13010101 		addi	sp,sp,16
 478              		.cfi_def_cfa_offset 0
 479 0258 67800000 		jr	ra
 480              		.cfi_endproc
 481              	.LFE25:
 483              		.align	2
 484              		.globl	_ZN10KSemaphorenwEm
 486              	_ZN10KSemaphorenwEm:
 487              	.LFB34:
  88:src/KSemaphore.cpp **** 
  89:src/KSemaphore.cpp **** void *KSemaphore::operator new(size_t size) {
 488              		.loc 1 89 45 is_stmt 1
 489              		.cfi_startproc
 490              	.LVL37:
 491 025c 130101FF 		addi	sp,sp,-16
 492              		.cfi_def_cfa_offset 16
 493 0260 23341100 		sd	ra,8(sp)
 494 0264 23308100 		sd	s0,0(sp)
 495              		.cfi_offset 1, -8
 496              		.cfi_offset 8, -16
 497 0268 13040101 		addi	s0,sp,16
 498              		.cfi_def_cfa 8, 0
  90:src/KSemaphore.cpp ****     return kmalloc(size);
 499              		.loc 1 90 5
 500              		.loc 1 90 19 is_stmt 0
 501 026c 97000000 		call	_Z7kmallocm@plt
 501      E7800000 
 502              	.LVL38:
  91:src/KSemaphore.cpp **** }
 503              		.loc 1 91 1
 504 0274 83308100 		ld	ra,8(sp)
 505              		.cfi_restore 1
 506 0278 03340100 		ld	s0,0(sp)
 507              		.cfi_restore 8
 508              		.cfi_def_cfa 2, 16
 509 027c 13010101 		addi	sp,sp,16
 510              		.cfi_def_cfa_offset 0
 511 0280 67800000 		jr	ra
 512              		.cfi_endproc
 513              	.LFE34:
 515              		.align	2
 516              		.globl	_ZN10KSemaphoredlEPv
 518              	_ZN10KSemaphoredlEPv:
 519              	.LFB35:
  92:src/KSemaphore.cpp **** 
  93:src/KSemaphore.cpp **** void KSemaphore::operator delete(void *p) {
GAS LISTING /tmp/ccQGTUlk.s 			page 13


 520              		.loc 1 93 43 is_stmt 1
 521              		.cfi_startproc
 522              	.LVL39:
 523 0284 130101FF 		addi	sp,sp,-16
 524              		.cfi_def_cfa_offset 16
 525 0288 23341100 		sd	ra,8(sp)
 526 028c 23308100 		sd	s0,0(sp)
 527              		.cfi_offset 1, -8
 528              		.cfi_offset 8, -16
 529 0290 13040101 		addi	s0,sp,16
 530              		.cfi_def_cfa 8, 0
  94:src/KSemaphore.cpp ****     kfree(p);
 531              		.loc 1 94 5
 532              		.loc 1 94 10 is_stmt 0
 533 0294 97000000 		call	_Z5kfreePv@plt
 533      E7800000 
 534              	.LVL40:
  95:src/KSemaphore.cpp **** }
 535              		.loc 1 95 1
 536 029c 83308100 		ld	ra,8(sp)
 537              		.cfi_restore 1
 538 02a0 03340100 		ld	s0,0(sp)
 539              		.cfi_restore 8
 540              		.cfi_def_cfa 2, 16
 541 02a4 13010101 		addi	sp,sp,16
 542              		.cfi_def_cfa_offset 0
 543 02a8 67800000 		jr	ra
 544              		.cfi_endproc
 545              	.LFE35:
 547              	.Letext0:
 548              		.file 3 "src/../h/../lib/hw.h"
 549              		.file 4 "src/../h/Queue.hpp"
 550              		.file 5 "src/../h/Scheduler.hpp"
 551              		.file 6 "src/../h/KSemaphore.hpp"
 552              		.file 7 "src/../h/MemoryAllocator.hpp"
 3634              		.align	3
 3637              	DW.ref.__gxx_personality_v0:
 3638 0000 00000000 		.dword	__gxx_personality_v0
 3638      00000000 
 3639              		.ident	"GCC: (Ubuntu 9.3.0-17ubuntu1~20.04) 9.3.0"
 3640              		.section	.note.GNU-stack,"",@progbits
GAS LISTING /tmp/ccQGTUlk.s 			page 14


DEFINED SYMBOLS
                            *ABS*:0000000000000000 KSemaphore.cpp
     /tmp/ccQGTUlk.s:9      .text:0000000000000000 _ZN10KSemaphoreC2Ei
     /tmp/ccQGTUlk.s:13     .text:0000000000000000 .L0 
     /tmp/ccQGTUlk.s:15     .text:0000000000000000 .L0 
     /tmp/ccQGTUlk.s:16     .text:0000000000000004 .L0 
     /tmp/ccQGTUlk.s:18     .text:0000000000000008 .L0 
     /tmp/ccQGTUlk.s:20     .text:000000000000000c .L0 
     /tmp/ccQGTUlk.s:23     .text:000000000000000c .L0 
     /tmp/ccQGTUlk.s:24     .text:000000000000000c .L0 
     /tmp/ccQGTUlk.s:26     .text:0000000000000010 .L0 
     /tmp/ccQGTUlk.s:28     .text:0000000000000014 .L0 
     /tmp/ccQGTUlk.s:29     .text:0000000000000014 .L0 
     /tmp/ccQGTUlk.s:31     .text:0000000000000018 .L0 
     /tmp/ccQGTUlk.s:34     .text:000000000000001c .L0 
     /tmp/ccQGTUlk.s:35     .text:0000000000000020 .L0 
     /tmp/ccQGTUlk.s:36     .text:0000000000000020 .L0 
     /tmp/ccQGTUlk.s:38     .text:0000000000000024 .L0 
     /tmp/ccQGTUlk.s:40     .text:0000000000000028 .L0 
     /tmp/ccQGTUlk.s:9      .text:0000000000000000 _ZN10KSemaphoreC1Ei
     /tmp/ccQGTUlk.s:48     .text:0000000000000028 _ZN10KSemaphore12addToBlockedEP3PCB
     /tmp/ccQGTUlk.s:51     .text:0000000000000028 .L0 
     /tmp/ccQGTUlk.s:53     .text:0000000000000028 .L0 
     /tmp/ccQGTUlk.s:54     .text:000000000000002c .L0 
     /tmp/ccQGTUlk.s:56     .text:0000000000000030 .L0 
     /tmp/ccQGTUlk.s:58     .text:0000000000000034 .L0 
     /tmp/ccQGTUlk.s:60     .text:0000000000000034 .L0 
     /tmp/ccQGTUlk.s:61     .text:0000000000000034 .L0 
     /tmp/ccQGTUlk.s:63     .text:0000000000000038 .L0 
     /tmp/ccQGTUlk.s:64     .text:0000000000000038 .L0 
     /tmp/ccQGTUlk.s:66     .text:000000000000003c .L0 
     /tmp/ccQGTUlk.s:68     .text:0000000000000040 .L0 
     /tmp/ccQGTUlk.s:70     .text:0000000000000044 .L0 
     /tmp/ccQGTUlk.s:72     .text:0000000000000048 .L0 
     /tmp/ccQGTUlk.s:73     .text:0000000000000048 .L0 
     /tmp/ccQGTUlk.s:76     .text:000000000000004c .L0 
     /tmp/ccQGTUlk.s:77     .text:0000000000000050 .L0 
     /tmp/ccQGTUlk.s:78     .text:0000000000000050 .L0 
     /tmp/ccQGTUlk.s:79     .text:0000000000000050 .L0 
     /tmp/ccQGTUlk.s:81     .text:0000000000000054 .L0 
     /tmp/ccQGTUlk.s:84     .text:0000000000000058 .L0 
     /tmp/ccQGTUlk.s:86     .text:0000000000000058 .L0 
     /tmp/ccQGTUlk.s:87     .text:0000000000000058 .L0 
     /tmp/ccQGTUlk.s:89     .text:000000000000005c .L0 
     /tmp/ccQGTUlk.s:91     .text:0000000000000064 .L0 
     /tmp/ccQGTUlk.s:97     .text:0000000000000064 _ZN10KSemaphore5blockEv
     /tmp/ccQGTUlk.s:100    .text:0000000000000064 .L0 
     /tmp/ccQGTUlk.s:102    .text:0000000000000064 .L0 
     /tmp/ccQGTUlk.s:103    .text:0000000000000068 .L0 
     /tmp/ccQGTUlk.s:106    .text:0000000000000070 .L0 
     /tmp/ccQGTUlk.s:107    .text:0000000000000070 .L0 
     /tmp/ccQGTUlk.s:109    .text:0000000000000074 .L0 
     /tmp/ccQGTUlk.s:111    .text:0000000000000074 .L0 
     /tmp/ccQGTUlk.s:112    .text:0000000000000074 .L0 
     /tmp/ccQGTUlk.s:119    .text:0000000000000080 .L0 
     /tmp/ccQGTUlk.s:120    .text:0000000000000080 .L0 
     /tmp/ccQGTUlk.s:126    .text:0000000000000088 .L0 
GAS LISTING /tmp/ccQGTUlk.s 			page 15


     /tmp/ccQGTUlk.s:127    .text:0000000000000088 .L0 
     /tmp/ccQGTUlk.s:130    .text:0000000000000090 .L0 
     /tmp/ccQGTUlk.s:131    .text:0000000000000090 .L0 
     /tmp/ccQGTUlk.s:134    .text:0000000000000098 .L0 
     /tmp/ccQGTUlk.s:135    .text:000000000000009c .L0 
     /tmp/ccQGTUlk.s:137    .text:00000000000000a0 .L0 
     /tmp/ccQGTUlk.s:138    .text:00000000000000a0 .L0 
     /tmp/ccQGTUlk.s:140    .text:00000000000000a4 .L0 
     /tmp/ccQGTUlk.s:142    .text:00000000000000a8 .L0 
     /tmp/ccQGTUlk.s:148    .text:00000000000000a8 _ZN10KSemaphore4waitEv
     /tmp/ccQGTUlk.s:151    .text:00000000000000a8 .L0 
     /tmp/ccQGTUlk.s:153    .text:00000000000000a8 .L0 
     /tmp/ccQGTUlk.s:154    .text:00000000000000a8 .L0 
     /tmp/ccQGTUlk.s:155    .text:00000000000000a8 .L0 
     /tmp/ccQGTUlk.s:157    .text:00000000000000ac .L0 
     /tmp/ccQGTUlk.s:159    .text:00000000000000b0 .L0 
     /tmp/ccQGTUlk.s:161    .text:00000000000000b4 .L0 
     /tmp/ccQGTUlk.s:164    .text:00000000000000bc .L0 
     /tmp/ccQGTUlk.s:165    .text:00000000000000bc .L0 
     /tmp/ccQGTUlk.s:171    .text:00000000000000c4 .L0 
     /tmp/ccQGTUlk.s:172    .text:00000000000000c8 .L0 
     /tmp/ccQGTUlk.s:175    .text:00000000000000d0 .L0 
     /tmp/ccQGTUlk.s:176    .text:00000000000000d0 .L0 
     /tmp/ccQGTUlk.s:178    .text:00000000000000d4 .L0 
     /tmp/ccQGTUlk.s:180    .text:00000000000000d4 .L0 
     /tmp/ccQGTUlk.s:181    .text:00000000000000d4 .L0 
     /tmp/ccQGTUlk.s:184    .text:00000000000000dc .L0 
     /tmp/ccQGTUlk.s:185    .text:00000000000000dc .L0 
     /tmp/ccQGTUlk.s:187    .text:00000000000000e4 .L0 
     /tmp/ccQGTUlk.s:189    .text:00000000000000e8 .L0 
     /tmp/ccQGTUlk.s:190    .text:00000000000000e8 .L0 
     /tmp/ccQGTUlk.s:192    .text:00000000000000ec .L0 
     /tmp/ccQGTUlk.s:194    .text:00000000000000f0 .L0 
     /tmp/ccQGTUlk.s:200    .text:00000000000000f0 _ZN10KSemaphore15getFirstBlockedEv
     /tmp/ccQGTUlk.s:203    .text:00000000000000f0 .L0 
     /tmp/ccQGTUlk.s:205    .text:00000000000000f0 .L0 
     /tmp/ccQGTUlk.s:206    .text:00000000000000f4 .L0 
     /tmp/ccQGTUlk.s:208    .text:00000000000000f8 .L0 
     /tmp/ccQGTUlk.s:210    .text:00000000000000fc .L0 
     /tmp/ccQGTUlk.s:212    .text:00000000000000fc .L0 
     /tmp/ccQGTUlk.s:213    .text:00000000000000fc .L0 
     /tmp/ccQGTUlk.s:216    .text:0000000000000104 .L0 
     /tmp/ccQGTUlk.s:217    .text:0000000000000104 .L0 
     /tmp/ccQGTUlk.s:219    .text:0000000000000108 .L0 
     /tmp/ccQGTUlk.s:221    .text:000000000000010c .L0 
     /tmp/ccQGTUlk.s:227    .text:000000000000010c _ZN10KSemaphore18removeFirstBlockedEv
     /tmp/ccQGTUlk.s:230    .text:000000000000010c .L0 
     /tmp/ccQGTUlk.s:232    .text:000000000000010c .L0 
     /tmp/ccQGTUlk.s:233    .text:0000000000000110 .L0 
     /tmp/ccQGTUlk.s:235    .text:0000000000000114 .L0 
     /tmp/ccQGTUlk.s:237    .text:0000000000000118 .L0 
     /tmp/ccQGTUlk.s:239    .text:0000000000000118 .L0 
     /tmp/ccQGTUlk.s:240    .text:0000000000000118 .L0 
     /tmp/ccQGTUlk.s:242    .text:000000000000011c .L0 
     /tmp/ccQGTUlk.s:245    .text:0000000000000120 .L0 
     /tmp/ccQGTUlk.s:246    .text:0000000000000120 .L0 
     /tmp/ccQGTUlk.s:247    .text:0000000000000120 .L0 
GAS LISTING /tmp/ccQGTUlk.s 			page 16


     /tmp/ccQGTUlk.s:249    .text:0000000000000124 .L0 
     /tmp/ccQGTUlk.s:251    .text:0000000000000128 .L0 
     /tmp/ccQGTUlk.s:252    .text:0000000000000128 .L0 
     /tmp/ccQGTUlk.s:254    .text:000000000000012c .L0 
     /tmp/ccQGTUlk.s:255    .text:000000000000012c .L0 
     /tmp/ccQGTUlk.s:258    .text:0000000000000130 .L0 
     /tmp/ccQGTUlk.s:261    .text:0000000000000134 .L0 
     /tmp/ccQGTUlk.s:262    .text:0000000000000138 .L0 
     /tmp/ccQGTUlk.s:263    .text:0000000000000138 .L0 
     /tmp/ccQGTUlk.s:264    .text:0000000000000138 .L0 
     /tmp/ccQGTUlk.s:266    .text:000000000000013c .L0 
     /tmp/ccQGTUlk.s:269    .text:0000000000000140 .L0 
     /tmp/ccQGTUlk.s:271    .text:0000000000000140 .L0 
     /tmp/ccQGTUlk.s:272    .text:0000000000000140 .L0 
     /tmp/ccQGTUlk.s:274    .text:0000000000000148 .L0 
     /tmp/ccQGTUlk.s:280    .text:0000000000000148 _ZN10KSemaphoreD2Ev
     /tmp/ccQGTUlk.s:283    .text:0000000000000148 .L0 
     /tmp/ccQGTUlk.s:3637   .data.rel.local.DW.ref.__gxx_personality_v0:0000000000000000 DW.ref.__gxx_personality_v0
     /tmp/ccQGTUlk.s:287    .text:0000000000000148 .L0 
     /tmp/ccQGTUlk.s:288    .text:000000000000014c .L0 
     /tmp/ccQGTUlk.s:293    .text:000000000000015c .L0 
     /tmp/ccQGTUlk.s:294    .text:000000000000015c .L0 
     /tmp/ccQGTUlk.s:295    .text:000000000000015c .L0 
     /tmp/ccQGTUlk.s:296    .text:000000000000015c .L0 
     /tmp/ccQGTUlk.s:298    .text:0000000000000160 .L0 
     /tmp/ccQGTUlk.s:304    .text:0000000000000164 .L0 
     /tmp/ccQGTUlk.s:305    .text:0000000000000164 .L0 
     /tmp/ccQGTUlk.s:306    .text:0000000000000164 .L0 
     /tmp/ccQGTUlk.s:311    .text:0000000000000174 .L0 
     /tmp/ccQGTUlk.s:315    .text:0000000000000178 .L0 
     /tmp/ccQGTUlk.s:316    .text:0000000000000178 .L0 
     /tmp/ccQGTUlk.s:317    .text:0000000000000178 .L0 
     /tmp/ccQGTUlk.s:321    .text:0000000000000184 .L0 
     /tmp/ccQGTUlk.s:322    .text:0000000000000184 .L0 
     /tmp/ccQGTUlk.s:327    .text:0000000000000190 .L0 
     /tmp/ccQGTUlk.s:332    .text:0000000000000194 .L0 
     /tmp/ccQGTUlk.s:333    .text:0000000000000198 .L0 
     /tmp/ccQGTUlk.s:335    .text:000000000000019c .L0 
     /tmp/ccQGTUlk.s:336    .text:000000000000019c .L0 
     /tmp/ccQGTUlk.s:338    .text:00000000000001a0 .L0 
     /tmp/ccQGTUlk.s:340    .text:00000000000001a4 .L0 
     /tmp/ccQGTUlk.s:343    .text:00000000000001a8 .L0 
     /tmp/ccQGTUlk.s:345    .text:00000000000001ac .L0 
     /tmp/ccQGTUlk.s:280    .text:0000000000000148 _ZN10KSemaphoreD1Ev
     /tmp/ccQGTUlk.s:361    .text:00000000000001ac _ZN10KSemaphore7unblockEv
     /tmp/ccQGTUlk.s:364    .text:00000000000001ac .L0 
     /tmp/ccQGTUlk.s:366    .text:00000000000001ac .L0 
     /tmp/ccQGTUlk.s:367    .text:00000000000001b0 .L0 
     /tmp/ccQGTUlk.s:372    .text:00000000000001c0 .L0 
     /tmp/ccQGTUlk.s:373    .text:00000000000001c0 .L0 
     /tmp/ccQGTUlk.s:374    .text:00000000000001c0 .L0 
     /tmp/ccQGTUlk.s:375    .text:00000000000001c0 .L0 
     /tmp/ccQGTUlk.s:377    .text:00000000000001c4 .L0 
     /tmp/ccQGTUlk.s:380    .text:00000000000001c8 .L0 
     /tmp/ccQGTUlk.s:381    .text:00000000000001c8 .L0 
     /tmp/ccQGTUlk.s:386    .text:00000000000001d4 .L0 
     /tmp/ccQGTUlk.s:387    .text:00000000000001d4 .L0 
GAS LISTING /tmp/ccQGTUlk.s 			page 17


     /tmp/ccQGTUlk.s:391    .text:00000000000001e0 .L0 
     /tmp/ccQGTUlk.s:396    .text:00000000000001e4 .L0 
     /tmp/ccQGTUlk.s:397    .text:00000000000001e4 .L0 
     /tmp/ccQGTUlk.s:398    .text:00000000000001e4 .L0 
     /tmp/ccQGTUlk.s:403    .text:00000000000001e8 .L0 
     /tmp/ccQGTUlk.s:404    .text:00000000000001e8 .L0 
     /tmp/ccQGTUlk.s:409    .text:00000000000001f4 .L0 
     /tmp/ccQGTUlk.s:410    .text:00000000000001f8 .L0 
     /tmp/ccQGTUlk.s:412    .text:00000000000001fc .L0 
     /tmp/ccQGTUlk.s:413    .text:00000000000001fc .L0 
     /tmp/ccQGTUlk.s:415    .text:0000000000000200 .L0 
     /tmp/ccQGTUlk.s:418    .text:0000000000000204 .L0 
     /tmp/ccQGTUlk.s:421    .text:0000000000000208 .L0 
     /tmp/ccQGTUlk.s:423    .text:000000000000020c .L0 
     /tmp/ccQGTUlk.s:429    .text:000000000000020c _ZN10KSemaphore6signalEv
     /tmp/ccQGTUlk.s:432    .text:000000000000020c .L0 
     /tmp/ccQGTUlk.s:434    .text:000000000000020c .L0 
     /tmp/ccQGTUlk.s:435    .text:000000000000020c .L0 
     /tmp/ccQGTUlk.s:436    .text:000000000000020c .L0 
     /tmp/ccQGTUlk.s:438    .text:0000000000000210 .L0 
     /tmp/ccQGTUlk.s:441    .text:0000000000000218 .L0 
     /tmp/ccQGTUlk.s:443    .text:000000000000021c .L0 
     /tmp/ccQGTUlk.s:445    .text:0000000000000220 .L0 
     /tmp/ccQGTUlk.s:446    .text:0000000000000220 .L0 
     /tmp/ccQGTUlk.s:448    .text:0000000000000224 .L0 
     /tmp/ccQGTUlk.s:450    .text:0000000000000228 .L0 
     /tmp/ccQGTUlk.s:451    .text:0000000000000228 .L0 
     /tmp/ccQGTUlk.s:457    .text:0000000000000230 .L0 
     /tmp/ccQGTUlk.s:458    .text:0000000000000234 .L0 
     /tmp/ccQGTUlk.s:461    .text:000000000000023c .L0 
     /tmp/ccQGTUlk.s:462    .text:000000000000023c .L0 
     /tmp/ccQGTUlk.s:464    .text:0000000000000240 .L0 
     /tmp/ccQGTUlk.s:466    .text:0000000000000240 .L0 
     /tmp/ccQGTUlk.s:467    .text:0000000000000240 .L0 
     /tmp/ccQGTUlk.s:470    .text:0000000000000248 .L0 
     /tmp/ccQGTUlk.s:471    .text:0000000000000248 .L0 
     /tmp/ccQGTUlk.s:473    .text:0000000000000250 .L0 
     /tmp/ccQGTUlk.s:475    .text:0000000000000254 .L0 
     /tmp/ccQGTUlk.s:476    .text:0000000000000254 .L0 
     /tmp/ccQGTUlk.s:478    .text:0000000000000258 .L0 
     /tmp/ccQGTUlk.s:480    .text:000000000000025c .L0 
     /tmp/ccQGTUlk.s:486    .text:000000000000025c _ZN10KSemaphorenwEm
     /tmp/ccQGTUlk.s:489    .text:000000000000025c .L0 
     /tmp/ccQGTUlk.s:491    .text:000000000000025c .L0 
     /tmp/ccQGTUlk.s:492    .text:0000000000000260 .L0 
     /tmp/ccQGTUlk.s:495    .text:0000000000000268 .L0 
     /tmp/ccQGTUlk.s:496    .text:0000000000000268 .L0 
     /tmp/ccQGTUlk.s:498    .text:000000000000026c .L0 
     /tmp/ccQGTUlk.s:500    .text:000000000000026c .L0 
     /tmp/ccQGTUlk.s:501    .text:000000000000026c .L0 
     /tmp/ccQGTUlk.s:504    .text:0000000000000274 .L0 
     /tmp/ccQGTUlk.s:505    .text:0000000000000278 .L0 
     /tmp/ccQGTUlk.s:507    .text:000000000000027c .L0 
     /tmp/ccQGTUlk.s:508    .text:000000000000027c .L0 
     /tmp/ccQGTUlk.s:510    .text:0000000000000280 .L0 
     /tmp/ccQGTUlk.s:512    .text:0000000000000284 .L0 
     /tmp/ccQGTUlk.s:518    .text:0000000000000284 _ZN10KSemaphoredlEPv
GAS LISTING /tmp/ccQGTUlk.s 			page 18


     /tmp/ccQGTUlk.s:521    .text:0000000000000284 .L0 
     /tmp/ccQGTUlk.s:523    .text:0000000000000284 .L0 
     /tmp/ccQGTUlk.s:524    .text:0000000000000288 .L0 
     /tmp/ccQGTUlk.s:527    .text:0000000000000290 .L0 
     /tmp/ccQGTUlk.s:528    .text:0000000000000290 .L0 
     /tmp/ccQGTUlk.s:530    .text:0000000000000294 .L0 
     /tmp/ccQGTUlk.s:532    .text:0000000000000294 .L0 
     /tmp/ccQGTUlk.s:533    .text:0000000000000294 .L0 
     /tmp/ccQGTUlk.s:536    .text:000000000000029c .L0 
     /tmp/ccQGTUlk.s:537    .text:00000000000002a0 .L0 
     /tmp/ccQGTUlk.s:539    .text:00000000000002a4 .L0 
     /tmp/ccQGTUlk.s:540    .text:00000000000002a4 .L0 
     /tmp/ccQGTUlk.s:542    .text:00000000000002a8 .L0 
     /tmp/ccQGTUlk.s:544    .text:00000000000002ac .L0 
     /tmp/ccQGTUlk.s:553    .text:00000000000002ac .L0 
     /tmp/ccQGTUlk.s:112    .text:0000000000000074 .L0 
     /tmp/ccQGTUlk.s:83     .text:0000000000000058 .L7
     /tmp/ccQGTUlk.s:74     .text:000000000000004c .L3
     /tmp/ccQGTUlk.s:169    .text:00000000000000c4 .L16
     /tmp/ccQGTUlk.s:259    .text:0000000000000134 .L19
     /tmp/ccQGTUlk.s:268    .text:0000000000000140 .L22
     /tmp/ccQGTUlk.s:329    .text:0000000000000194 .L23
     /tmp/ccQGTUlk.s:301    .text:0000000000000164 .L25
     /tmp/ccQGTUlk.s:407    .text:00000000000001f4 .L27
     /tmp/ccQGTUlk.s:455    .text:0000000000000230 .L37
     /tmp/ccQGTUlk.s:1985   .debug_abbrev:0000000000000000 .Ldebug_abbrev0
     /tmp/ccQGTUlk.s:3487   .debug_str:000000000000043a .LASF139
     /tmp/ccQGTUlk.s:3451   .debug_str:0000000000000330 .LASF140
     /tmp/ccQGTUlk.s:3583   .debug_str:0000000000000778 .LASF141
     /tmp/ccQGTUlk.s:5      .text:0000000000000000 .Ltext0
     /tmp/ccQGTUlk.s:547    .text:00000000000002ac .Letext0
     /tmp/ccQGTUlk.s:3333   .debug_line:0000000000000000 .Ldebug_line0
     /tmp/ccQGTUlk.s:3445   .debug_str:0000000000000309 .LASF0
     /tmp/ccQGTUlk.s:3467   .debug_str:00000000000003a8 .LASF1
     /tmp/ccQGTUlk.s:3525   .debug_str:00000000000005f0 .LASF2
     /tmp/ccQGTUlk.s:3537   .debug_str:0000000000000650 .LASF4
     /tmp/ccQGTUlk.s:3455   .debug_str:0000000000000350 .LASF3
     /tmp/ccQGTUlk.s:3349   .debug_str:000000000000005a .LASF5
     /tmp/ccQGTUlk.s:3513   .debug_str:00000000000005a2 .LASF6
     /tmp/ccQGTUlk.s:3509   .debug_str:0000000000000587 .LASF7
     /tmp/ccQGTUlk.s:3459   .debug_str:0000000000000367 .LASF8
     /tmp/ccQGTUlk.s:3431   .debug_str:00000000000002a2 .LASF9
     /tmp/ccQGTUlk.s:3437   .debug_str:00000000000002da .LASF10
     /tmp/ccQGTUlk.s:3381   .debug_str:000000000000016f .LASF11
     /tmp/ccQGTUlk.s:3421   .debug_str:0000000000000269 .LASF12
     /tmp/ccQGTUlk.s:3393   .debug_str:00000000000001a9 .LASF13
     /tmp/ccQGTUlk.s:3379   .debug_str:000000000000015f .LASF14
     /tmp/ccQGTUlk.s:3559   .debug_str:000000000000070a .LASF15
     /tmp/ccQGTUlk.s:3415   .debug_str:0000000000000242 .LASF16
     /tmp/ccQGTUlk.s:3555   .debug_str:00000000000006d8 .LASF17
     /tmp/ccQGTUlk.s:3585   .debug_str:000000000000079b .LASF28
     /tmp/ccQGTUlk.s:3597   .debug_str:00000000000007f7 .LASF20
     /tmp/ccQGTUlk.s:3461   .debug_str:000000000000037a .LASF18
     /tmp/ccQGTUlk.s:3383   .debug_str:000000000000017e .LASF19
     /tmp/ccQGTUlk.s:3569   .debug_str:000000000000073d .LASF21
     /tmp/ccQGTUlk.s:3475   .debug_str:00000000000003d7 .LASF22
     /tmp/ccQGTUlk.s:3615   .debug_str:000000000000085e .LASF39
GAS LISTING /tmp/ccQGTUlk.s 			page 19


     /tmp/ccQGTUlk.s:3595   .debug_str:00000000000007f1 .LASF24
     /tmp/ccQGTUlk.s:3397   .debug_str:00000000000001ca .LASF26
     /tmp/ccQGTUlk.s:3447   .debug_str:0000000000000316 .LASF23
     /tmp/ccQGTUlk.s:3549   .debug_str:00000000000006ad .LASF29
     /tmp/ccQGTUlk.s:3465   .debug_str:00000000000003a3 .LASF25
     /tmp/ccQGTUlk.s:3519   .debug_str:00000000000005bc .LASF27
     /tmp/ccQGTUlk.s:3409   .debug_str:000000000000020e .LASF30
     /tmp/ccQGTUlk.s:3517   .debug_str:00000000000005b5 .LASF45
     /tmp/ccQGTUlk.s:3361   .debug_str:00000000000000c7 .LASF47
     /tmp/ccQGTUlk.s:3573   .debug_str:0000000000000748 .LASF142
     /tmp/ccQGTUlk.s:3377   .debug_str:0000000000000159 .LASF31
     /tmp/ccQGTUlk.s:3551   .debug_str:00000000000006c2 .LASF32
     /tmp/ccQGTUlk.s:3389   .debug_str:0000000000000195 .LASF33
     /tmp/ccQGTUlk.s:3367   .debug_str:00000000000000f1 .LASF34
     /tmp/ccQGTUlk.s:3511   .debug_str:000000000000059a .LASF35
     /tmp/ccQGTUlk.s:3387   .debug_str:000000000000018c .LASF36
     /tmp/ccQGTUlk.s:3567   .debug_str:0000000000000735 .LASF37
     /tmp/ccQGTUlk.s:3439   .debug_str:00000000000002e8 .LASF38
     /tmp/ccQGTUlk.s:3591   .debug_str:00000000000007c2 .LASF40
     /tmp/ccQGTUlk.s:3499   .debug_str:0000000000000539 .LASF143
     /tmp/ccQGTUlk.s:3603   .debug_str:0000000000000825 .LASF41
     /tmp/ccQGTUlk.s:3621   .debug_str:0000000000000888 .LASF42
     /tmp/ccQGTUlk.s:3617   .debug_str:000000000000086e .LASF43
     /tmp/ccQGTUlk.s:3579   .debug_str:000000000000075e .LASF44
     /tmp/ccQGTUlk.s:3405   .debug_str:0000000000000200 .LASF71
     /tmp/ccQGTUlk.s:3357   .debug_str:000000000000008c .LASF73
     /tmp/ccQGTUlk.s:3471   .debug_str:00000000000003c4 .LASF46
     /tmp/ccQGTUlk.s:3503   .debug_str:0000000000000551 .LASF48
     /tmp/ccQGTUlk.s:3575   .debug_str:000000000000074e .LASF49
     /tmp/ccQGTUlk.s:3605   .debug_str:000000000000082a .LASF50
     /tmp/ccQGTUlk.s:3543   .debug_str:0000000000000682 .LASF51
     /tmp/ccQGTUlk.s:3473   .debug_str:00000000000003ca .LASF52
     /tmp/ccQGTUlk.s:3477   .debug_str:00000000000003dc .LASF53
     /tmp/ccQGTUlk.s:3625   .debug_str:00000000000008a4 .LASF54
     /tmp/ccQGTUlk.s:3417   .debug_str:0000000000000258 .LASF55
     /tmp/ccQGTUlk.s:3343   .debug_str:0000000000000038 .LASF56
     /tmp/ccQGTUlk.s:3453   .debug_str:0000000000000343 .LASF57
     /tmp/ccQGTUlk.s:3547   .debug_str:00000000000006a4 .LASF58
     /tmp/ccQGTUlk.s:3489   .debug_str:00000000000004dc .LASF59
     /tmp/ccQGTUlk.s:3531   .debug_str:0000000000000616 .LASF60
     /tmp/ccQGTUlk.s:3557   .debug_str:00000000000006ee .LASF61
     /tmp/ccQGTUlk.s:3491   .debug_str:00000000000004ef .LASF62
     /tmp/ccQGTUlk.s:3339   .debug_str:0000000000000019 .LASF63
     /tmp/ccQGTUlk.s:3611   .debug_str:0000000000000844 .LASF64
     /tmp/ccQGTUlk.s:3507   .debug_str:000000000000056d .LASF65
     /tmp/ccQGTUlk.s:3553   .debug_str:00000000000006ca .LASF66
     /tmp/ccQGTUlk.s:3515   .debug_str:00000000000005a9 .LASF67
     /tmp/ccQGTUlk.s:3403   .debug_str:00000000000001f0 .LASF68
     /tmp/ccQGTUlk.s:3613   .debug_str:0000000000000853 .LASF69
     /tmp/ccQGTUlk.s:3485   .debug_str:000000000000042a .LASF70
     /tmp/ccQGTUlk.s:3413   .debug_str:0000000000000230 .LASF72
     /tmp/ccQGTUlk.s:3599   .debug_str:00000000000007fc .LASF74
     /tmp/ccQGTUlk.s:3369   .debug_str:00000000000000fa .LASF75
     /tmp/ccQGTUlk.s:3587   .debug_str:00000000000007a1 .LASF76
     /tmp/ccQGTUlk.s:3541   .debug_str:000000000000067a .LASF101
     /tmp/ccQGTUlk.s:3581   .debug_str:000000000000076e .LASF77
     /tmp/ccQGTUlk.s:3505   .debug_str:0000000000000561 .LASF78
GAS LISTING /tmp/ccQGTUlk.s 			page 20


     /tmp/ccQGTUlk.s:3401   .debug_str:00000000000001e2 .LASF79
     /tmp/ccQGTUlk.s:3359   .debug_str:000000000000009f .LASF81
     /tmp/ccQGTUlk.s:3449   .debug_str:000000000000031b .LASF80
     /tmp/ccQGTUlk.s:3375   .debug_str:000000000000012d .LASF82
     /tmp/ccQGTUlk.s:3609   .debug_str:000000000000083d .LASF144
     /tmp/ccQGTUlk.s:3373   .debug_str:000000000000011c .LASF145
     /tmp/ccQGTUlk.s:3341   .debug_str:0000000000000033 .LASF83
     /tmp/ccQGTUlk.s:3565   .debug_str:0000000000000730 .LASF84
     /tmp/ccQGTUlk.s:3481   .debug_str:000000000000040e .LASF85
     /tmp/ccQGTUlk.s:3399   .debug_str:00000000000001dc .LASF86
     /tmp/ccQGTUlk.s:3589   .debug_str:00000000000007ba .LASF87
     /tmp/ccQGTUlk.s:3363   .debug_str:00000000000000d5 .LASF88
     /tmp/ccQGTUlk.s:3429   .debug_str:0000000000000298 .LASF89
     /tmp/ccQGTUlk.s:3353   .debug_str:000000000000006b .LASF146
     /tmp/ccQGTUlk.s:3619   .debug_str:0000000000000874 .LASF147
     /tmp/ccQGTUlk.s:3457   .debug_str:0000000000000362 .LASF90
     /tmp/ccQGTUlk.s:3497   .debug_str:0000000000000520 .LASF91
     /tmp/ccQGTUlk.s:3419   .debug_str:0000000000000264 .LASF92
     /tmp/ccQGTUlk.s:3423   .debug_str:0000000000000278 .LASF96
     /tmp/ccQGTUlk.s:3365   .debug_str:00000000000000df .LASF93
     /tmp/ccQGTUlk.s:3501   .debug_str:000000000000053e .LASF94
     /tmp/ccQGTUlk.s:3577   .debug_str:0000000000000756 .LASF95
     /tmp/ccQGTUlk.s:3523   .debug_str:00000000000005d8 .LASF97
     /tmp/ccQGTUlk.s:3545   .debug_str:0000000000000693 .LASF98
     /tmp/ccQGTUlk.s:3395   .debug_str:00000000000001b9 .LASF99
     /tmp/ccQGTUlk.s:3355   .debug_str:0000000000000083 .LASF100
     /tmp/ccQGTUlk.s:3351   .debug_str:0000000000000061 .LASF102
     /tmp/ccQGTUlk.s:3571   .debug_str:0000000000000743 .LASF103
     /tmp/ccQGTUlk.s:3521   .debug_str:00000000000005cd .LASF104
     /tmp/ccQGTUlk.s:3435   .debug_str:00000000000002c6 .LASF105
     /tmp/ccQGTUlk.s:3407   .debug_str:0000000000000209 .LASF106
     /tmp/ccQGTUlk.s:3593   .debug_str:00000000000007da .LASF107
     /tmp/ccQGTUlk.s:3563   .debug_str:0000000000000729 .LASF108
     /tmp/ccQGTUlk.s:3495   .debug_str:0000000000000507 .LASF109
     /tmp/ccQGTUlk.s:3527   .debug_str:00000000000005fe .LASF110
     /tmp/ccQGTUlk.s:3411   .debug_str:000000000000021c .LASF111
     /tmp/ccQGTUlk.s:3385   .debug_str:0000000000000183 .LASF112
     /tmp/ccQGTUlk.s:3391   .debug_str:000000000000019f .LASF113
     /tmp/ccQGTUlk.s:3493   .debug_str:00000000000004fe .LASF114
     /tmp/ccQGTUlk.s:3535   .debug_str:0000000000000645 .LASF115
     /tmp/ccQGTUlk.s:3337   .debug_str:000000000000000d .LASF116
     /tmp/ccQGTUlk.s:3529   .debug_str:000000000000060a .LASF117
     /tmp/ccQGTUlk.s:3483   .debug_str:0000000000000416 .LASF118
     /tmp/ccQGTUlk.s:3441   .debug_str:00000000000002ee .LASF119
     /tmp/ccQGTUlk.s:3469   .debug_str:00000000000003bb .LASF120
     /tmp/ccQGTUlk.s:3443   .debug_str:0000000000000303 .LASF121
     /tmp/ccQGTUlk.s:3629   .debug_str:00000000000008bc .LASF122
     /tmp/ccQGTUlk.s:3345   .debug_str:0000000000000048 .LASF123
     /tmp/ccQGTUlk.s:3479   .debug_str:00000000000003f4 .LASF124
     /tmp/ccQGTUlk.s:3623   .debug_str:0000000000000894 .LASF125
     /tmp/ccQGTUlk.s:3539   .debug_str:0000000000000657 .LASF126
     /tmp/ccQGTUlk.s:3561   .debug_str:0000000000000716 .LASF127
     /tmp/ccQGTUlk.s:3533   .debug_str:000000000000061f .LASF128
     /tmp/ccQGTUlk.s:3335   .debug_str:0000000000000000 .LASF129
     /tmp/ccQGTUlk.s:3463   .debug_str:000000000000037f .LASF130
     /tmp/ccQGTUlk.s:519    .text:0000000000000284 .LFB35
     /tmp/ccQGTUlk.s:545    .text:00000000000002ac .LFE35
GAS LISTING /tmp/ccQGTUlk.s 			page 21


     /tmp/ccQGTUlk.s:3127   .debug_loc:0000000000000000 .LLST14
     /tmp/ccQGTUlk.s:534    .text:000000000000029c .LVL40
     /tmp/ccQGTUlk.s:487    .text:000000000000025c .LFB34
     /tmp/ccQGTUlk.s:513    .text:0000000000000284 .LFE34
     /tmp/ccQGTUlk.s:3141   .debug_loc:0000000000000039 .LLST13
     /tmp/ccQGTUlk.s:502    .text:0000000000000274 .LVL38
     /tmp/ccQGTUlk.s:362    .text:00000000000001ac .LFB33
     /tmp/ccQGTUlk.s:424    .text:000000000000020c .LFE33
     /tmp/ccQGTUlk.s:3425   .debug_str:000000000000028d .LASF131
     /tmp/ccQGTUlk.s:3155   .debug_loc:0000000000000072 .LLST8
     /tmp/ccQGTUlk.s:3173   .debug_loc:00000000000000be .LLST9
     /tmp/ccQGTUlk.s:394    .text:00000000000001e4 .LBB11
     /tmp/ccQGTUlk.s:401    .text:00000000000001e8 .LBE11
     /tmp/ccQGTUlk.s:3180   .debug_loc:00000000000000e1 .LLST10
     /tmp/ccQGTUlk.s:3188   .debug_loc:0000000000000105 .LLST11
     /tmp/ccQGTUlk.s:382    .text:00000000000001d0 .LVL25
     /tmp/ccQGTUlk.s:389    .text:00000000000001e0 .LVL27
     /tmp/ccQGTUlk.s:406    .text:00000000000001f4 .LVL30
     /tmp/ccQGTUlk.s:228    .text:000000000000010c .LFB32
     /tmp/ccQGTUlk.s:275    .text:0000000000000148 .LFE32
     /tmp/ccQGTUlk.s:3195   .debug_loc:0000000000000128 .LLST5
     /tmp/ccQGTUlk.s:201    .text:00000000000000f0 .LFB31
     /tmp/ccQGTUlk.s:222    .text:000000000000010c .LFE31
     /tmp/ccQGTUlk.s:3202   .debug_loc:000000000000014b .LLST4
     /tmp/ccQGTUlk.s:98     .text:0000000000000064 .LFB30
     /tmp/ccQGTUlk.s:143    .text:00000000000000a8 .LFE30
     /tmp/ccQGTUlk.s:3216   .debug_loc:0000000000000184 .LLST0
     /tmp/ccQGTUlk.s:115    .text:0000000000000080 .LBB7
     /tmp/ccQGTUlk.s:124    .text:0000000000000088 .LBE7
     /tmp/ccQGTUlk.s:3230   .debug_loc:00000000000001bd .LLST1
     /tmp/ccQGTUlk.s:3238   .debug_loc:00000000000001e1 .LLST2
     /tmp/ccQGTUlk.s:128    .text:0000000000000090 .LVL5
     /tmp/ccQGTUlk.s:132    .text:0000000000000098 .LVL6
     /tmp/ccQGTUlk.s:49     .text:0000000000000028 .LFB29
     /tmp/ccQGTUlk.s:92     .text:0000000000000064 .LFE29
     /tmp/ccQGTUlk.s:3347   .debug_str:0000000000000050 .LASF132
     /tmp/ccQGTUlk.s:3433   .debug_str:00000000000002b2 .LASF133
     /tmp/ccQGTUlk.s:281    .text:0000000000000148 .LFB27
     /tmp/ccQGTUlk.s:346    .text:00000000000001ac .LFE27
     /tmp/ccQGTUlk.s:3245   .debug_loc:0000000000000204 .LLST6
     /tmp/ccQGTUlk.s:319    .text:0000000000000184 .LVL20
     /tmp/ccQGTUlk.s:324    .text:0000000000000190 .LVL21
     /tmp/ccQGTUlk.s:312    .text:0000000000000178 .LBB10
     /tmp/ccQGTUlk.s:325    .text:0000000000000190 .LBE10
     /tmp/ccQGTUlk.s:3263   .debug_loc:0000000000000250 .LLST7
     /tmp/ccQGTUlk.s:308    .text:0000000000000170 .LVL18
     /tmp/ccQGTUlk.s:430    .text:000000000000020c .LFB25
     /tmp/ccQGTUlk.s:481    .text:000000000000025c .LFE25
     /tmp/ccQGTUlk.s:3270   .debug_loc:0000000000000273 .LLST12
     /tmp/ccQGTUlk.s:468    .text:0000000000000248 .LVL36
     /tmp/ccQGTUlk.s:149    .text:00000000000000a8 .LFB24
     /tmp/ccQGTUlk.s:195    .text:00000000000000f0 .LFE24
     /tmp/ccQGTUlk.s:3295   .debug_loc:00000000000002d5 .LLST3
     /tmp/ccQGTUlk.s:182    .text:00000000000000dc .LVL10
     /tmp/ccQGTUlk.s:3371   .debug_str:0000000000000108 .LASF134
     /tmp/ccQGTUlk.s:10     .text:0000000000000000 .LFB22
     /tmp/ccQGTUlk.s:41     .text:0000000000000028 .LFE22
GAS LISTING /tmp/ccQGTUlk.s 			page 22


     /tmp/ccQGTUlk.s:3627   .debug_str:00000000000008b1 .LASF135
     /tmp/ccQGTUlk.s:3427   .debug_str:0000000000000292 .LASF137
     /tmp/ccQGTUlk.s:3601   .debug_str:0000000000000819 .LASF136
     /tmp/ccQGTUlk.s:3607   .debug_str:0000000000000835 .LASF138
     /tmp/ccQGTUlk.s:522    .text:0000000000000284 .LVL39
     /tmp/ccQGTUlk.s:490    .text:000000000000025c .LVL37
     /tmp/ccQGTUlk.s:365    .text:00000000000001ac .LVL24
     /tmp/ccQGTUlk.s:419    .text:0000000000000204 .LVL32
     /tmp/ccQGTUlk.s:384    .text:00000000000001d4 .LVL26
     /tmp/ccQGTUlk.s:416    .text:0000000000000200 .LVL31
     /tmp/ccQGTUlk.s:393    .text:00000000000001e4 .LVL28
     /tmp/ccQGTUlk.s:399    .text:00000000000001e8 .LVL29
     /tmp/ccQGTUlk.s:244    .text:0000000000000120 .LVL14
     /tmp/ccQGTUlk.s:256    .text:0000000000000130 .LVL15
     /tmp/ccQGTUlk.s:204    .text:00000000000000f0 .LVL11
     /tmp/ccQGTUlk.s:214    .text:0000000000000100 .LVL12
     /tmp/ccQGTUlk.s:101    .text:0000000000000064 .LVL2
     /tmp/ccQGTUlk.s:114    .text:0000000000000080 .LVL3
     /tmp/ccQGTUlk.s:122    .text:0000000000000088 .LVL4
     /tmp/ccQGTUlk.s:286    .text:0000000000000148 .LVL16
     /tmp/ccQGTUlk.s:300    .text:0000000000000164 .LVL17
     /tmp/ccQGTUlk.s:341    .text:00000000000001a4 .LVL23
     /tmp/ccQGTUlk.s:314    .text:0000000000000178 .LVL19
     /tmp/ccQGTUlk.s:328    .text:0000000000000194 .LVL22
     /tmp/ccQGTUlk.s:433    .text:000000000000020c .LVL33
     /tmp/ccQGTUlk.s:452    .text:000000000000022c .LVL34
     /tmp/ccQGTUlk.s:454    .text:0000000000000230 .LVL35
     /tmp/ccQGTUlk.s:152    .text:00000000000000a8 .LVL7
     /tmp/ccQGTUlk.s:166    .text:00000000000000c0 .LVL8
     /tmp/ccQGTUlk.s:168    .text:00000000000000c4 .LVL9
     /tmp/ccQGTUlk.s:554    .debug_info:0000000000000000 .Ldebug_info0
     /tmp/ccQGTUlk.s:349    .gcc_except_table:0000000000000000 .LLSDA27

UNDEFINED SYMBOLS
_ZN3PCB7runningE
_ZN3PCB8dispatchEv
_ZN9Scheduler3putEP3PCB
__gxx_personality_v0
_Z7kmallocm
_Z5kfreePv
