GAS LISTING /tmp/ccGu8qnl.s 			page 1


   1              		.file	"KSemaphore.cpp"
   2              		.option pic
   3              		.option norelax
   4              		.text
   5              	.Ltext0:
   6              		.align	2
   7              		.globl	_ZN10KSemaphoreC2Ei
   9              	_ZN10KSemaphoreC2Ei:
  10              	.LFB20:
  11              		.file 1 "src/KSemaphore.cpp"
   1:src/KSemaphore.cpp **** //
   2:src/KSemaphore.cpp **** // Created by os on 5/2/22.
   3:src/KSemaphore.cpp **** //
   4:src/KSemaphore.cpp **** 
   5:src/KSemaphore.cpp **** #include "../h/KSemaphore.h"
   6:src/KSemaphore.cpp **** #include "../h/MemoryAllocator.h"
   7:src/KSemaphore.cpp **** 
   8:src/KSemaphore.cpp **** KSemaphore::KSemaphore(int val) {
  12              		.loc 1 8 1
  13              		.cfi_startproc
  14              	.LVL0:
  15 0000 130101FE 		addi	sp,sp,-32
  16              		.cfi_def_cfa_offset 32
  17 0004 233C1100 		sd	ra,24(sp)
  18 0008 23388100 		sd	s0,16(sp)
  19 000c 23349100 		sd	s1,8(sp)
  20 0010 23302101 		sd	s2,0(sp)
  21              		.cfi_offset 1, -8
  22              		.cfi_offset 8, -16
  23              		.cfi_offset 9, -24
  24              		.cfi_offset 18, -32
  25 0014 13040102 		addi	s0,sp,32
  26              		.cfi_def_cfa 8, 0
  27 0018 93040500 		mv	s1,a0
  28 001c 13890500 		mv	s2,a1
  29              	.LBB2:
  30              		.loc 1 8 31 is_stmt 0
  31 0020 13058500 		addi	a0,a0,8
  32              	.LVL1:
  33 0024 97000000 		call	_ZN5QueueC1Ev@plt
  33      E7800000 
  34              	.LVL2:
   9:src/KSemaphore.cpp ****     this->val = this->beginVal = val;
  35              		.loc 1 9 5 is_stmt 1
  36              		.loc 1 9 32 is_stmt 0
  37 002c 23A22401 		sw	s2,4(s1)
  38              		.loc 1 9 15
  39 0030 23A02401 		sw	s2,0(s1)
  40              	.LBE2:
  10:src/KSemaphore.cpp ****     //queueBlocked = (Queue<PCB*>*)kmalloc(sizeof(Queue<PCB*>));
  11:src/KSemaphore.cpp **** }
  41              		.loc 1 11 1
  42 0034 83308101 		ld	ra,24(sp)
  43              		.cfi_restore 1
  44 0038 03340101 		ld	s0,16(sp)
  45              		.cfi_restore 8
  46              		.cfi_def_cfa 2, 32
GAS LISTING /tmp/ccGu8qnl.s 			page 2


  47 003c 83348100 		ld	s1,8(sp)
  48              		.cfi_restore 9
  49              	.LVL3:
  50 0040 03390100 		ld	s2,0(sp)
  51              		.cfi_restore 18
  52 0044 13010102 		addi	sp,sp,32
  53              		.cfi_def_cfa_offset 0
  54 0048 67800000 		jr	ra
  55              		.cfi_endproc
  56              	.LFE20:
  58              		.globl	_ZN10KSemaphoreC1Ei
  59              		.set	_ZN10KSemaphoreC1Ei,_ZN10KSemaphoreC2Ei
  60              		.align	2
  61              		.globl	_ZN10KSemaphoreD2Ev
  63              	_ZN10KSemaphoreD2Ev:
  64              	.LFB25:
  12:src/KSemaphore.cpp **** 
  13:src/KSemaphore.cpp **** void KSemaphore::wait() {
  14:src/KSemaphore.cpp ****     //todo
  15:src/KSemaphore.cpp ****     if(--val < 0)
  16:src/KSemaphore.cpp ****         block();
  17:src/KSemaphore.cpp **** }
  18:src/KSemaphore.cpp **** 
  19:src/KSemaphore.cpp **** void KSemaphore::signal() {
  20:src/KSemaphore.cpp ****     //todo
  21:src/KSemaphore.cpp ****     if(++val <= 0)
  22:src/KSemaphore.cpp ****         unblock();
  23:src/KSemaphore.cpp ****     else
  24:src/KSemaphore.cpp ****         val = beginVal;
  25:src/KSemaphore.cpp **** }
  26:src/KSemaphore.cpp **** 
  27:src/KSemaphore.cpp **** KSemaphore::~KSemaphore() {
  65              		.loc 1 27 1 is_stmt 1
  66              		.cfi_startproc
  67              	.LVL4:
  68 004c 130101FF 		addi	sp,sp,-16
  69              		.cfi_def_cfa_offset 16
  70 0050 23341100 		sd	ra,8(sp)
  71 0054 23308100 		sd	s0,0(sp)
  72              		.cfi_offset 1, -8
  73              		.cfi_offset 8, -16
  74 0058 13040101 		addi	s0,sp,16
  75              		.cfi_def_cfa 8, 0
  76              	.LBB3:
  77              		.loc 1 27 25 is_stmt 0
  78 005c 13058500 		addi	a0,a0,8
  79              	.LVL5:
  80 0060 97000000 		call	_ZN5QueueD1Ev@plt
  80      E7800000 
  81              	.LVL6:
  82              	.LBE3:
  28:src/KSemaphore.cpp ****     //todo
  29:src/KSemaphore.cpp **** }
  83              		.loc 1 29 1
  84 0068 83308100 		ld	ra,8(sp)
  85              		.cfi_restore 1
  86 006c 03340100 		ld	s0,0(sp)
GAS LISTING /tmp/ccGu8qnl.s 			page 3


  87              		.cfi_restore 8
  88              		.cfi_def_cfa 2, 16
  89 0070 13010101 		addi	sp,sp,16
  90              		.cfi_def_cfa_offset 0
  91 0074 67800000 		jr	ra
  92              		.cfi_endproc
  93              	.LFE25:
  95              		.globl	_ZN10KSemaphoreD1Ev
  96              		.set	_ZN10KSemaphoreD1Ev,_ZN10KSemaphoreD2Ev
  97              		.align	2
  98              		.globl	_ZN10KSemaphore5blockEv
 100              	_ZN10KSemaphore5blockEv:
 101              	.LFB27:
  30:src/KSemaphore.cpp **** 
  31:src/KSemaphore.cpp **** void KSemaphore::block() {
 102              		.loc 1 31 26 is_stmt 1
 103              		.cfi_startproc
 104              	.LVL7:
 105 0078 130101FF 		addi	sp,sp,-16
 106              		.cfi_def_cfa_offset 16
 107 007c 23341100 		sd	ra,8(sp)
 108 0080 23308100 		sd	s0,0(sp)
 109              		.cfi_offset 1, -8
 110              		.cfi_offset 8, -16
 111 0084 13040101 		addi	s0,sp,16
 112              		.cfi_def_cfa 8, 0
  32:src/KSemaphore.cpp ****     //todo
  33:src/KSemaphore.cpp ****     //postavi stanje
  34:src/KSemaphore.cpp ****     PCB::dispatch();
 113              		.loc 1 34 5
 114              		.loc 1 34 18 is_stmt 0
 115 0088 97000000 		call	_ZN3PCB8dispatchEv@plt
 115      E7800000 
 116              	.LVL8:
  35:src/KSemaphore.cpp **** }
 117              		.loc 1 35 1
 118 0090 83308100 		ld	ra,8(sp)
 119              		.cfi_restore 1
 120 0094 03340100 		ld	s0,0(sp)
 121              		.cfi_restore 8
 122              		.cfi_def_cfa 2, 16
 123 0098 13010101 		addi	sp,sp,16
 124              		.cfi_def_cfa_offset 0
 125 009c 67800000 		jr	ra
 126              		.cfi_endproc
 127              	.LFE27:
 129              		.align	2
 130              		.globl	_ZN10KSemaphore4waitEv
 132              	_ZN10KSemaphore4waitEv:
 133              	.LFB22:
  13:src/KSemaphore.cpp ****     //todo
 134              		.loc 1 13 25 is_stmt 1
 135              		.cfi_startproc
 136              	.LVL9:
  15:src/KSemaphore.cpp ****         block();
 137              		.loc 1 15 5
  15:src/KSemaphore.cpp ****         block();
GAS LISTING /tmp/ccGu8qnl.s 			page 4


 138              		.loc 1 15 10 is_stmt 0
 139 00a0 83270500 		lw	a5,0(a0)
  15:src/KSemaphore.cpp ****         block();
 140              		.loc 1 15 8
 141 00a4 9B87F7FF 		addiw	a5,a5,-1
  15:src/KSemaphore.cpp ****         block();
 142              		.loc 1 15 14
 143 00a8 2320F500 		sw	a5,0(a0)
  15:src/KSemaphore.cpp ****         block();
 144              		.loc 1 15 5
 145 00ac 13970702 		slli	a4,a5,32
 146 00b0 63440700 		bltz	a4,.L13
 147 00b4 67800000 		ret
 148              	.L13:
  13:src/KSemaphore.cpp ****     //todo
 149              		.loc 1 13 25
 150 00b8 130101FF 		addi	sp,sp,-16
 151              		.cfi_def_cfa_offset 16
 152 00bc 23341100 		sd	ra,8(sp)
 153 00c0 23308100 		sd	s0,0(sp)
 154              		.cfi_offset 1, -8
 155              		.cfi_offset 8, -16
 156 00c4 13040101 		addi	s0,sp,16
 157              		.cfi_def_cfa 8, 0
  16:src/KSemaphore.cpp **** }
 158              		.loc 1 16 9 is_stmt 1
  16:src/KSemaphore.cpp **** }
 159              		.loc 1 16 14 is_stmt 0
 160 00c8 97000000 		call	_ZN10KSemaphore5blockEv
 160      E7800000 
 161              	.LVL10:
  17:src/KSemaphore.cpp **** 
 162              		.loc 1 17 1
 163 00d0 83308100 		ld	ra,8(sp)
 164              		.cfi_restore 1
 165 00d4 03340100 		ld	s0,0(sp)
 166              		.cfi_restore 8
 167              		.cfi_def_cfa 2, 16
 168 00d8 13010101 		addi	sp,sp,16
 169              		.cfi_def_cfa_offset 0
 170 00dc 67800000 		jr	ra
 171              		.cfi_endproc
 172              	.LFE22:
 174              		.align	2
 175              		.globl	_ZN10KSemaphore7unblockEv
 177              	_ZN10KSemaphore7unblockEv:
 178              	.LFB28:
  36:src/KSemaphore.cpp **** 
  37:src/KSemaphore.cpp **** void KSemaphore::unblock() {
 179              		.loc 1 37 28 is_stmt 1
 180              		.cfi_startproc
 181              	.LVL11:
 182 00e0 130101FE 		addi	sp,sp,-32
 183              		.cfi_def_cfa_offset 32
 184 00e4 233C1100 		sd	ra,24(sp)
 185 00e8 23388100 		sd	s0,16(sp)
 186 00ec 23349100 		sd	s1,8(sp)
GAS LISTING /tmp/ccGu8qnl.s 			page 5


 187 00f0 23302101 		sd	s2,0(sp)
 188              		.cfi_offset 1, -8
 189              		.cfi_offset 8, -16
 190              		.cfi_offset 9, -24
 191              		.cfi_offset 18, -32
 192 00f4 13040102 		addi	s0,sp,32
 193              		.cfi_def_cfa 8, 0
  38:src/KSemaphore.cpp ****     PCB* fr = queueBlocked.front();
 194              		.loc 1 38 5
 195              		.loc 1 38 33 is_stmt 0
 196 00f8 93048500 		addi	s1,a0,8
 197 00fc 13850400 		mv	a0,s1
 198              	.LVL12:
 199 0100 97000000 		call	_ZN5Queue5frontEv@plt
 199      E7800000 
 200              	.LVL13:
 201 0108 13090500 		mv	s2,a0
 202              	.LVL14:
  39:src/KSemaphore.cpp ****     queueBlocked.pop();
 203              		.loc 1 39 5 is_stmt 1
 204              		.loc 1 39 21 is_stmt 0
 205 010c 13850400 		mv	a0,s1
 206              	.LVL15:
 207 0110 97000000 		call	_ZN5Queue3popEv@plt
 207      E7800000 
 208              	.LVL16:
  40:src/KSemaphore.cpp ****     if(fr != 0)
 209              		.loc 1 40 5 is_stmt 1
 210 0118 63080900 		beqz	s2,.L14
  41:src/KSemaphore.cpp ****     {
  42:src/KSemaphore.cpp ****         //todo
  43:src/KSemaphore.cpp ****         //postavi stanje
  44:src/KSemaphore.cpp ****         Scheduler::put(fr);
 211              		.loc 1 44 9
 212              		.loc 1 44 23 is_stmt 0
 213 011c 13050900 		mv	a0,s2
 214 0120 97000000 		call	_ZN9Scheduler3putEP3PCB@plt
 214      E7800000 
 215              	.LVL17:
 216              	.L14:
  45:src/KSemaphore.cpp ****     }
  46:src/KSemaphore.cpp **** 
  47:src/KSemaphore.cpp **** }
 217              		.loc 1 47 1
 218 0128 83308101 		ld	ra,24(sp)
 219              		.cfi_restore 1
 220 012c 03340101 		ld	s0,16(sp)
 221              		.cfi_restore 8
 222              		.cfi_def_cfa 2, 32
 223 0130 83348100 		ld	s1,8(sp)
 224              		.cfi_restore 9
 225              	.LVL18:
 226 0134 03390100 		ld	s2,0(sp)
 227              		.cfi_restore 18
 228              	.LVL19:
 229 0138 13010102 		addi	sp,sp,32
 230              		.cfi_def_cfa_offset 0
GAS LISTING /tmp/ccGu8qnl.s 			page 6


 231 013c 67800000 		jr	ra
 232              		.cfi_endproc
 233              	.LFE28:
 235              		.align	2
 236              		.globl	_ZN10KSemaphore6signalEv
 238              	_ZN10KSemaphore6signalEv:
 239              	.LFB23:
  19:src/KSemaphore.cpp ****     //todo
 240              		.loc 1 19 27 is_stmt 1
 241              		.cfi_startproc
 242              	.LVL20:
  21:src/KSemaphore.cpp ****         unblock();
 243              		.loc 1 21 5
  21:src/KSemaphore.cpp ****         unblock();
 244              		.loc 1 21 10 is_stmt 0
 245 0140 83270500 		lw	a5,0(a0)
  21:src/KSemaphore.cpp ****         unblock();
 246              		.loc 1 21 8
 247 0144 9B871700 		addiw	a5,a5,1
 248 0148 1B870700 		sext.w	a4,a5
  21:src/KSemaphore.cpp ****         unblock();
 249              		.loc 1 21 14
 250 014c 2320F500 		sw	a5,0(a0)
  21:src/KSemaphore.cpp ****         unblock();
 251              		.loc 1 21 5
 252 0150 6358E000 		blez	a4,.L24
  24:src/KSemaphore.cpp **** }
 253              		.loc 1 24 9 is_stmt 1
  24:src/KSemaphore.cpp **** }
 254              		.loc 1 24 15 is_stmt 0
 255 0154 83274500 		lw	a5,4(a0)
  24:src/KSemaphore.cpp **** }
 256              		.loc 1 24 13
 257 0158 2320F500 		sw	a5,0(a0)
 258 015c 67800000 		ret
 259              	.L24:
  19:src/KSemaphore.cpp ****     //todo
 260              		.loc 1 19 27
 261 0160 130101FF 		addi	sp,sp,-16
 262              		.cfi_def_cfa_offset 16
 263 0164 23341100 		sd	ra,8(sp)
 264 0168 23308100 		sd	s0,0(sp)
 265              		.cfi_offset 1, -8
 266              		.cfi_offset 8, -16
 267 016c 13040101 		addi	s0,sp,16
 268              		.cfi_def_cfa 8, 0
  22:src/KSemaphore.cpp ****     else
 269              		.loc 1 22 9 is_stmt 1
  22:src/KSemaphore.cpp ****     else
 270              		.loc 1 22 16 is_stmt 0
 271 0170 97000000 		call	_ZN10KSemaphore7unblockEv
 271      E7800000 
 272              	.LVL21:
  25:src/KSemaphore.cpp **** 
 273              		.loc 1 25 1
 274 0178 83308100 		ld	ra,8(sp)
 275              		.cfi_restore 1
GAS LISTING /tmp/ccGu8qnl.s 			page 7


 276 017c 03340100 		ld	s0,0(sp)
 277              		.cfi_restore 8
 278              		.cfi_def_cfa 2, 16
 279 0180 13010101 		addi	sp,sp,16
 280              		.cfi_def_cfa_offset 0
 281 0184 67800000 		jr	ra
 282              		.cfi_endproc
 283              	.LFE23:
 285              	.Letext0:
 286              		.file 2 "src/../h/../lib/hw.h"
 287              		.file 3 "src/../h/Queue.h"
 288              		.file 4 "src/../h/PCB.h"
 289              		.file 5 "src/../h/Scheduler.h"
 290              		.file 6 "src/../h/KSemaphore.h"
GAS LISTING /tmp/ccGu8qnl.s 			page 8


DEFINED SYMBOLS
                            *ABS*:0000000000000000 KSemaphore.cpp
     /tmp/ccGu8qnl.s:9      .text:0000000000000000 _ZN10KSemaphoreC2Ei
     /tmp/ccGu8qnl.s:13     .text:0000000000000000 .L0 
     /tmp/ccGu8qnl.s:15     .text:0000000000000000 .L0 
     /tmp/ccGu8qnl.s:16     .text:0000000000000004 .L0 
     /tmp/ccGu8qnl.s:21     .text:0000000000000014 .L0 
     /tmp/ccGu8qnl.s:22     .text:0000000000000014 .L0 
     /tmp/ccGu8qnl.s:23     .text:0000000000000014 .L0 
     /tmp/ccGu8qnl.s:24     .text:0000000000000014 .L0 
     /tmp/ccGu8qnl.s:26     .text:0000000000000018 .L0 
     /tmp/ccGu8qnl.s:31     .text:0000000000000020 .L0 
     /tmp/ccGu8qnl.s:36     .text:000000000000002c .L0 
     /tmp/ccGu8qnl.s:37     .text:000000000000002c .L0 
     /tmp/ccGu8qnl.s:39     .text:0000000000000030 .L0 
     /tmp/ccGu8qnl.s:42     .text:0000000000000034 .L0 
     /tmp/ccGu8qnl.s:43     .text:0000000000000038 .L0 
     /tmp/ccGu8qnl.s:45     .text:000000000000003c .L0 
     /tmp/ccGu8qnl.s:46     .text:000000000000003c .L0 
     /tmp/ccGu8qnl.s:48     .text:0000000000000040 .L0 
     /tmp/ccGu8qnl.s:51     .text:0000000000000044 .L0 
     /tmp/ccGu8qnl.s:53     .text:0000000000000048 .L0 
     /tmp/ccGu8qnl.s:55     .text:000000000000004c .L0 
     /tmp/ccGu8qnl.s:9      .text:0000000000000000 _ZN10KSemaphoreC1Ei
     /tmp/ccGu8qnl.s:63     .text:000000000000004c _ZN10KSemaphoreD2Ev
     /tmp/ccGu8qnl.s:66     .text:000000000000004c .L0 
     /tmp/ccGu8qnl.s:68     .text:000000000000004c .L0 
     /tmp/ccGu8qnl.s:69     .text:0000000000000050 .L0 
     /tmp/ccGu8qnl.s:72     .text:0000000000000058 .L0 
     /tmp/ccGu8qnl.s:73     .text:0000000000000058 .L0 
     /tmp/ccGu8qnl.s:75     .text:000000000000005c .L0 
     /tmp/ccGu8qnl.s:78     .text:000000000000005c .L0 
     /tmp/ccGu8qnl.s:84     .text:0000000000000068 .L0 
     /tmp/ccGu8qnl.s:85     .text:000000000000006c .L0 
     /tmp/ccGu8qnl.s:87     .text:0000000000000070 .L0 
     /tmp/ccGu8qnl.s:88     .text:0000000000000070 .L0 
     /tmp/ccGu8qnl.s:90     .text:0000000000000074 .L0 
     /tmp/ccGu8qnl.s:92     .text:0000000000000078 .L0 
     /tmp/ccGu8qnl.s:63     .text:000000000000004c _ZN10KSemaphoreD1Ev
     /tmp/ccGu8qnl.s:100    .text:0000000000000078 _ZN10KSemaphore5blockEv
     /tmp/ccGu8qnl.s:103    .text:0000000000000078 .L0 
     /tmp/ccGu8qnl.s:105    .text:0000000000000078 .L0 
     /tmp/ccGu8qnl.s:106    .text:000000000000007c .L0 
     /tmp/ccGu8qnl.s:109    .text:0000000000000084 .L0 
     /tmp/ccGu8qnl.s:110    .text:0000000000000084 .L0 
     /tmp/ccGu8qnl.s:112    .text:0000000000000088 .L0 
     /tmp/ccGu8qnl.s:114    .text:0000000000000088 .L0 
     /tmp/ccGu8qnl.s:115    .text:0000000000000088 .L0 
     /tmp/ccGu8qnl.s:118    .text:0000000000000090 .L0 
     /tmp/ccGu8qnl.s:119    .text:0000000000000094 .L0 
     /tmp/ccGu8qnl.s:121    .text:0000000000000098 .L0 
     /tmp/ccGu8qnl.s:122    .text:0000000000000098 .L0 
     /tmp/ccGu8qnl.s:124    .text:000000000000009c .L0 
     /tmp/ccGu8qnl.s:126    .text:00000000000000a0 .L0 
     /tmp/ccGu8qnl.s:132    .text:00000000000000a0 _ZN10KSemaphore4waitEv
     /tmp/ccGu8qnl.s:135    .text:00000000000000a0 .L0 
     /tmp/ccGu8qnl.s:137    .text:00000000000000a0 .L0 
GAS LISTING /tmp/ccGu8qnl.s 			page 9


     /tmp/ccGu8qnl.s:138    .text:00000000000000a0 .L0 
     /tmp/ccGu8qnl.s:139    .text:00000000000000a0 .L0 
     /tmp/ccGu8qnl.s:141    .text:00000000000000a4 .L0 
     /tmp/ccGu8qnl.s:143    .text:00000000000000a8 .L0 
     /tmp/ccGu8qnl.s:145    .text:00000000000000ac .L0 
     /tmp/ccGu8qnl.s:150    .text:00000000000000b8 .L0 
     /tmp/ccGu8qnl.s:151    .text:00000000000000bc .L0 
     /tmp/ccGu8qnl.s:154    .text:00000000000000c4 .L0 
     /tmp/ccGu8qnl.s:155    .text:00000000000000c4 .L0 
     /tmp/ccGu8qnl.s:157    .text:00000000000000c8 .L0 
     /tmp/ccGu8qnl.s:159    .text:00000000000000c8 .L0 
     /tmp/ccGu8qnl.s:160    .text:00000000000000c8 .L0 
     /tmp/ccGu8qnl.s:163    .text:00000000000000d0 .L0 
     /tmp/ccGu8qnl.s:164    .text:00000000000000d4 .L0 
     /tmp/ccGu8qnl.s:166    .text:00000000000000d8 .L0 
     /tmp/ccGu8qnl.s:167    .text:00000000000000d8 .L0 
     /tmp/ccGu8qnl.s:169    .text:00000000000000dc .L0 
     /tmp/ccGu8qnl.s:171    .text:00000000000000e0 .L0 
     /tmp/ccGu8qnl.s:177    .text:00000000000000e0 _ZN10KSemaphore7unblockEv
     /tmp/ccGu8qnl.s:180    .text:00000000000000e0 .L0 
     /tmp/ccGu8qnl.s:182    .text:00000000000000e0 .L0 
     /tmp/ccGu8qnl.s:183    .text:00000000000000e4 .L0 
     /tmp/ccGu8qnl.s:188    .text:00000000000000f4 .L0 
     /tmp/ccGu8qnl.s:189    .text:00000000000000f4 .L0 
     /tmp/ccGu8qnl.s:190    .text:00000000000000f4 .L0 
     /tmp/ccGu8qnl.s:191    .text:00000000000000f4 .L0 
     /tmp/ccGu8qnl.s:193    .text:00000000000000f8 .L0 
     /tmp/ccGu8qnl.s:195    .text:00000000000000f8 .L0 
     /tmp/ccGu8qnl.s:196    .text:00000000000000f8 .L0 
     /tmp/ccGu8qnl.s:204    .text:000000000000010c .L0 
     /tmp/ccGu8qnl.s:205    .text:000000000000010c .L0 
     /tmp/ccGu8qnl.s:210    .text:0000000000000118 .L0 
     /tmp/ccGu8qnl.s:212    .text:000000000000011c .L0 
     /tmp/ccGu8qnl.s:213    .text:000000000000011c .L0 
     /tmp/ccGu8qnl.s:218    .text:0000000000000128 .L0 
     /tmp/ccGu8qnl.s:219    .text:000000000000012c .L0 
     /tmp/ccGu8qnl.s:221    .text:0000000000000130 .L0 
     /tmp/ccGu8qnl.s:222    .text:0000000000000130 .L0 
     /tmp/ccGu8qnl.s:224    .text:0000000000000134 .L0 
     /tmp/ccGu8qnl.s:227    .text:0000000000000138 .L0 
     /tmp/ccGu8qnl.s:230    .text:000000000000013c .L0 
     /tmp/ccGu8qnl.s:232    .text:0000000000000140 .L0 
     /tmp/ccGu8qnl.s:238    .text:0000000000000140 _ZN10KSemaphore6signalEv
     /tmp/ccGu8qnl.s:241    .text:0000000000000140 .L0 
     /tmp/ccGu8qnl.s:243    .text:0000000000000140 .L0 
     /tmp/ccGu8qnl.s:244    .text:0000000000000140 .L0 
     /tmp/ccGu8qnl.s:245    .text:0000000000000140 .L0 
     /tmp/ccGu8qnl.s:247    .text:0000000000000144 .L0 
     /tmp/ccGu8qnl.s:250    .text:000000000000014c .L0 
     /tmp/ccGu8qnl.s:252    .text:0000000000000150 .L0 
     /tmp/ccGu8qnl.s:254    .text:0000000000000154 .L0 
     /tmp/ccGu8qnl.s:255    .text:0000000000000154 .L0 
     /tmp/ccGu8qnl.s:257    .text:0000000000000158 .L0 
     /tmp/ccGu8qnl.s:261    .text:0000000000000160 .L0 
     /tmp/ccGu8qnl.s:262    .text:0000000000000164 .L0 
     /tmp/ccGu8qnl.s:265    .text:000000000000016c .L0 
     /tmp/ccGu8qnl.s:266    .text:000000000000016c .L0 
GAS LISTING /tmp/ccGu8qnl.s 			page 10


     /tmp/ccGu8qnl.s:268    .text:0000000000000170 .L0 
     /tmp/ccGu8qnl.s:270    .text:0000000000000170 .L0 
     /tmp/ccGu8qnl.s:271    .text:0000000000000170 .L0 
     /tmp/ccGu8qnl.s:274    .text:0000000000000178 .L0 
     /tmp/ccGu8qnl.s:275    .text:000000000000017c .L0 
     /tmp/ccGu8qnl.s:277    .text:0000000000000180 .L0 
     /tmp/ccGu8qnl.s:278    .text:0000000000000180 .L0 
     /tmp/ccGu8qnl.s:280    .text:0000000000000184 .L0 
     /tmp/ccGu8qnl.s:282    .text:0000000000000188 .L0 
     /tmp/ccGu8qnl.s:291    .text:0000000000000188 .L0 
     /tmp/ccGu8qnl.s:148    .text:00000000000000b8 .L13
     /tmp/ccGu8qnl.s:216    .text:0000000000000128 .L14
     /tmp/ccGu8qnl.s:259    .text:0000000000000160 .L24
     /tmp/ccGu8qnl.s:1223   .debug_abbrev:0000000000000000 .Ldebug_abbrev0
     /tmp/ccGu8qnl.s:2318   .debug_str:000000000000030a .LASF87
     /tmp/ccGu8qnl.s:2290   .debug_str:0000000000000250 .LASF88
     /tmp/ccGu8qnl.s:2382   .debug_str:0000000000000530 .LASF89
     /tmp/ccGu8qnl.s:5      .text:0000000000000000 .Ltext0
     /tmp/ccGu8qnl.s:285    .text:0000000000000188 .Letext0
     /tmp/ccGu8qnl.s:2206   .debug_line:0000000000000000 .Ldebug_line0
     /tmp/ccGu8qnl.s:2286   .debug_str:000000000000023e .LASF0
     /tmp/ccGu8qnl.s:2302   .debug_str:000000000000029f .LASF1
     /tmp/ccGu8qnl.s:2344   .debug_str:0000000000000455 .LASF2
     /tmp/ccGu8qnl.s:2348   .debug_str:000000000000046f .LASF4
     /tmp/ccGu8qnl.s:2294   .debug_str:0000000000000270 .LASF3
     /tmp/ccGu8qnl.s:2216   .debug_str:0000000000000027 .LASF5
     /tmp/ccGu8qnl.s:2332   .debug_str:0000000000000407 .LASF6
     /tmp/ccGu8qnl.s:2328   .debug_str:00000000000003e4 .LASF7
     /tmp/ccGu8qnl.s:2296   .debug_str:0000000000000282 .LASF8
     /tmp/ccGu8qnl.s:2274   .debug_str:00000000000001e9 .LASF9
     /tmp/ccGu8qnl.s:2278   .debug_str:000000000000020d .LASF10
     /tmp/ccGu8qnl.s:2240   .debug_str:00000000000000f5 .LASF11
     /tmp/ccGu8qnl.s:2268   .debug_str:00000000000001cb .LASF12
     /tmp/ccGu8qnl.s:2246   .debug_str:0000000000000120 .LASF13
     /tmp/ccGu8qnl.s:2238   .debug_str:00000000000000e5 .LASF14
     /tmp/ccGu8qnl.s:2362   .debug_str:00000000000004d5 .LASF15
     /tmp/ccGu8qnl.s:2262   .debug_str:0000000000000190 .LASF16
     /tmp/ccGu8qnl.s:2358   .debug_str:00000000000004b2 .LASF17
     /tmp/ccGu8qnl.s:2384   .debug_str:0000000000000553 .LASF28
     /tmp/ccGu8qnl.s:2394   .debug_str:0000000000000596 .LASF20
     /tmp/ccGu8qnl.s:2298   .debug_str:0000000000000295 .LASF18
     /tmp/ccGu8qnl.s:2242   .debug_str:0000000000000104 .LASF19
     /tmp/ccGu8qnl.s:2370   .debug_str:00000000000004f9 .LASF21
     /tmp/ccGu8qnl.s:2310   .debug_str:00000000000002ce .LASF22
     /tmp/ccGu8qnl.s:2398   .debug_str:00000000000005a2 .LASF33
     /tmp/ccGu8qnl.s:2392   .debug_str:0000000000000590 .LASF24
     /tmp/ccGu8qnl.s:2248   .debug_str:0000000000000130 .LASF26
     /tmp/ccGu8qnl.s:2288   .debug_str:000000000000024b .LASF23
     /tmp/ccGu8qnl.s:2354   .debug_str:000000000000048f .LASF29
     /tmp/ccGu8qnl.s:2300   .debug_str:000000000000029a .LASF25
     /tmp/ccGu8qnl.s:2338   .debug_str:0000000000000421 .LASF27
     /tmp/ccGu8qnl.s:2258   .debug_str:000000000000016e .LASF30
     /tmp/ccGu8qnl.s:2336   .debug_str:000000000000041a .LASF37
     /tmp/ccGu8qnl.s:2228   .debug_str:0000000000000094 .LASF39
     /tmp/ccGu8qnl.s:2368   .debug_str:00000000000004f1 .LASF31
     /tmp/ccGu8qnl.s:2282   .debug_str:0000000000000232 .LASF32
     /tmp/ccGu8qnl.s:2388   .debug_str:0000000000000561 .LASF34
GAS LISTING /tmp/ccGu8qnl.s 			page 11


     /tmp/ccGu8qnl.s:2322   .debug_str:00000000000003b8 .LASF90
     /tmp/ccGu8qnl.s:2400   .debug_str:00000000000005b2 .LASF35
     /tmp/ccGu8qnl.s:2378   .debug_str:0000000000000516 .LASF36
     /tmp/ccGu8qnl.s:2254   .debug_str:0000000000000160 .LASF91
     /tmp/ccGu8qnl.s:2224   .debug_str:0000000000000059 .LASF92
     /tmp/ccGu8qnl.s:2306   .debug_str:00000000000002bb .LASF38
     /tmp/ccGu8qnl.s:2330   .debug_str:00000000000003f7 .LASF40
     /tmp/ccGu8qnl.s:2376   .debug_str:000000000000050e .LASF44
     /tmp/ccGu8qnl.s:2356   .debug_str:00000000000004a4 .LASF41
     /tmp/ccGu8qnl.s:2334   .debug_str:000000000000040e .LASF42
     /tmp/ccGu8qnl.s:2252   .debug_str:0000000000000150 .LASF43
     /tmp/ccGu8qnl.s:2352   .debug_str:000000000000047e .LASF45
     /tmp/ccGu8qnl.s:2308   .debug_str:00000000000002c1 .LASF46
     /tmp/ccGu8qnl.s:2312   .debug_str:00000000000002d3 .LASF47
     /tmp/ccGu8qnl.s:2230   .debug_str:00000000000000a2 .LASF48
     /tmp/ccGu8qnl.s:2280   .debug_str:000000000000021b .LASF49
     /tmp/ccGu8qnl.s:2320   .debug_str:00000000000003ac .LASF50
     /tmp/ccGu8qnl.s:2244   .debug_str:0000000000000109 .LASF51
     /tmp/ccGu8qnl.s:2406   .debug_str:00000000000005d1 .LASF52
     /tmp/ccGu8qnl.s:2266   .debug_str:00000000000001bf .LASF53
     /tmp/ccGu8qnl.s:2210   .debug_str:0000000000000005 .LASF54
     /tmp/ccGu8qnl.s:2292   .debug_str:0000000000000263 .LASF55
     /tmp/ccGu8qnl.s:2380   .debug_str:0000000000000526 .LASF56
     /tmp/ccGu8qnl.s:2250   .debug_str:0000000000000142 .LASF81
     /tmp/ccGu8qnl.s:2226   .debug_str:000000000000006c .LASF83
     /tmp/ccGu8qnl.s:2396   .debug_str:000000000000059b .LASF93
     /tmp/ccGu8qnl.s:2236   .debug_str:00000000000000d4 .LASF94
     /tmp/ccGu8qnl.s:2208   .debug_str:0000000000000000 .LASF57
     /tmp/ccGu8qnl.s:2404   .debug_str:00000000000005cc .LASF58
     /tmp/ccGu8qnl.s:2386   .debug_str:0000000000000559 .LASF59
     /tmp/ccGu8qnl.s:2374   .debug_str:0000000000000504 .LASF60
     /tmp/ccGu8qnl.s:2366   .debug_str:00000000000004e8 .LASF61
     /tmp/ccGu8qnl.s:2272   .debug_str:00000000000001df .LASF62
     /tmp/ccGu8qnl.s:2220   .debug_str:0000000000000038 .LASF95
     /tmp/ccGu8qnl.s:2402   .debug_str:00000000000005b8 .LASF96
     /tmp/ccGu8qnl.s:2232   .debug_str:00000000000000ae .LASF63
     /tmp/ccGu8qnl.s:2324   .debug_str:00000000000003bd .LASF64
     /tmp/ccGu8qnl.s:2350   .debug_str:0000000000000476 .LASF65
     /tmp/ccGu8qnl.s:2342   .debug_str:000000000000043d .LASF97
     /tmp/ccGu8qnl.s:2222   .debug_str:0000000000000050 .LASF66
     /tmp/ccGu8qnl.s:2218   .debug_str:000000000000002e .LASF98
     /tmp/ccGu8qnl.s:2372   .debug_str:00000000000004ff .LASF67
     /tmp/ccGu8qnl.s:2316   .debug_str:0000000000000305 .LASF68
     /tmp/ccGu8qnl.s:2340   .debug_str:0000000000000432 .LASF69
     /tmp/ccGu8qnl.s:2276   .debug_str:00000000000001f9 .LASF70
     /tmp/ccGu8qnl.s:2256   .debug_str:0000000000000169 .LASF71
     /tmp/ccGu8qnl.s:2390   .debug_str:0000000000000579 .LASF72
     /tmp/ccGu8qnl.s:2364   .debug_str:00000000000004e1 .LASF73
     /tmp/ccGu8qnl.s:2264   .debug_str:00000000000001a6 .LASF74
     /tmp/ccGu8qnl.s:2346   .debug_str:0000000000000463 .LASF75
     /tmp/ccGu8qnl.s:2260   .debug_str:000000000000017c .LASF76
     /tmp/ccGu8qnl.s:2304   .debug_str:00000000000002b2 .LASF77
     /tmp/ccGu8qnl.s:2360   .debug_str:00000000000004c8 .LASF78
     /tmp/ccGu8qnl.s:2284   .debug_str:0000000000000238 .LASF79
     /tmp/ccGu8qnl.s:2408   .debug_str:00000000000005de .LASF80
     /tmp/ccGu8qnl.s:2212   .debug_str:0000000000000015 .LASF82
     /tmp/ccGu8qnl.s:2314   .debug_str:00000000000002eb .LASF84
GAS LISTING /tmp/ccGu8qnl.s 			page 12


     /tmp/ccGu8qnl.s:178    .text:00000000000000e0 .LFB28
     /tmp/ccGu8qnl.s:233    .text:0000000000000140 .LFE28
     /tmp/ccGu8qnl.s:2270   .debug_str:00000000000001da .LASF85
     /tmp/ccGu8qnl.s:2068   .debug_loc:0000000000000000 .LLST5
     /tmp/ccGu8qnl.s:2088   .debug_loc:000000000000004e .LLST6
     /tmp/ccGu8qnl.s:200    .text:0000000000000108 .LVL13
     /tmp/ccGu8qnl.s:208    .text:0000000000000118 .LVL16
     /tmp/ccGu8qnl.s:215    .text:0000000000000128 .LVL17
     /tmp/ccGu8qnl.s:101    .text:0000000000000078 .LFB27
     /tmp/ccGu8qnl.s:127    .text:00000000000000a0 .LFE27
     /tmp/ccGu8qnl.s:2099   .debug_loc:0000000000000084 .LLST3
     /tmp/ccGu8qnl.s:116    .text:0000000000000090 .LVL8
     /tmp/ccGu8qnl.s:2214   .debug_str:000000000000001d .LASF86
     /tmp/ccGu8qnl.s:2326   .debug_str:00000000000003d0 .LASF99
     /tmp/ccGu8qnl.s:64     .text:000000000000004c .LFB25
     /tmp/ccGu8qnl.s:93     .text:0000000000000078 .LFE25
     /tmp/ccGu8qnl.s:2113   .debug_loc:00000000000000bd .LLST2
     /tmp/ccGu8qnl.s:81     .text:0000000000000068 .LVL6
     /tmp/ccGu8qnl.s:239    .text:0000000000000140 .LFB23
     /tmp/ccGu8qnl.s:283    .text:0000000000000188 .LFE23
     /tmp/ccGu8qnl.s:2133   .debug_loc:000000000000010b .LLST7
     /tmp/ccGu8qnl.s:272    .text:0000000000000178 .LVL21
     /tmp/ccGu8qnl.s:133    .text:00000000000000a0 .LFB22
     /tmp/ccGu8qnl.s:172    .text:00000000000000e0 .LFE22
     /tmp/ccGu8qnl.s:2147   .debug_loc:0000000000000144 .LLST4
     /tmp/ccGu8qnl.s:161    .text:00000000000000d0 .LVL10
     /tmp/ccGu8qnl.s:2234   .debug_str:00000000000000c0 .LASF100
     /tmp/ccGu8qnl.s:10     .text:0000000000000000 .LFB20
     /tmp/ccGu8qnl.s:56     .text:000000000000004c .LFE20
     /tmp/ccGu8qnl.s:2161   .debug_loc:000000000000017d .LLST0
     /tmp/ccGu8qnl.s:2179   .debug_loc:00000000000001c9 .LLST1
     /tmp/ccGu8qnl.s:34     .text:000000000000002c .LVL2
     /tmp/ccGu8qnl.s:181    .text:00000000000000e0 .LVL11
     /tmp/ccGu8qnl.s:198    .text:0000000000000100 .LVL12
     /tmp/ccGu8qnl.s:225    .text:0000000000000134 .LVL18
     /tmp/ccGu8qnl.s:202    .text:000000000000010c .LVL14
     /tmp/ccGu8qnl.s:206    .text:0000000000000110 .LVL15
     /tmp/ccGu8qnl.s:228    .text:0000000000000138 .LVL19
     /tmp/ccGu8qnl.s:104    .text:0000000000000078 .LVL7
     /tmp/ccGu8qnl.s:67     .text:000000000000004c .LVL4
     /tmp/ccGu8qnl.s:79     .text:0000000000000060 .LVL5
     /tmp/ccGu8qnl.s:242    .text:0000000000000140 .LVL20
     /tmp/ccGu8qnl.s:136    .text:00000000000000a0 .LVL9
     /tmp/ccGu8qnl.s:14     .text:0000000000000000 .LVL0
     /tmp/ccGu8qnl.s:32     .text:0000000000000024 .LVL1
     /tmp/ccGu8qnl.s:49     .text:0000000000000040 .LVL3
     /tmp/ccGu8qnl.s:292    .debug_info:0000000000000000 .Ldebug_info0

UNDEFINED SYMBOLS
_ZN5QueueC1Ev
_ZN5QueueD1Ev
_ZN3PCB8dispatchEv
_ZN5Queue5frontEv
_ZN5Queue3popEv
_ZN9Scheduler3putEP3PCB
