GAS LISTING /tmp/ccQVpX3f.s 			page 1


   1              		.file	"KSemaphore.cpp"
   2              		.option pic
   3              		.option norelax
   4              		.text
   5              	.Ltext0:
   6              		.align	2
   7              		.globl	_ZN10KSemaphoreC2Ei
   9              	_ZN10KSemaphoreC2Ei:
  10              	.LFB26:
  11              		.file 1 "src/KSemaphore.cpp"
   1:src/KSemaphore.cpp **** //
   2:src/KSemaphore.cpp **** // Created by os on 5/2/22.
   3:src/KSemaphore.cpp **** //
   4:src/KSemaphore.cpp **** 
   5:src/KSemaphore.cpp **** #include "../h/KSemaphore.hpp"
   6:src/KSemaphore.cpp **** #include "../h/MemoryAllocator.hpp"
   7:src/KSemaphore.cpp **** #include "../h/Riscv.hpp"
   8:src/KSemaphore.cpp **** #include "../h/Scheduler.hpp"
   9:src/KSemaphore.cpp **** 
  10:src/KSemaphore.cpp **** KSemaphore::KSemaphore(int val)
  12              		.loc 1 10 1
  13              		.cfi_startproc
  14              	.LVL0:
  15 0000 130101FF 		addi	sp,sp,-16
  16              		.cfi_def_cfa_offset 16
  17 0004 23348100 		sd	s0,8(sp)
  18              		.cfi_offset 8, -8
  19 0008 13040101 		addi	s0,sp,16
  20              		.cfi_def_cfa 8, 0
  21              	.LBB4:
  11:src/KSemaphore.cpp **** {
  12:src/KSemaphore.cpp ****     this->val = this->beginVal = val;
  22              		.loc 1 12 5
  23              		.loc 1 12 32 is_stmt 0
  24 000c 232AB500 		sw	a1,20(a0)
  25              		.loc 1 12 15
  26 0010 2328B500 		sw	a1,16(a0)
  13:src/KSemaphore.cpp ****     headBlocked = tailBlocked = 0;
  27              		.loc 1 13 5 is_stmt 1
  28              		.loc 1 13 31 is_stmt 0
  29 0014 23340500 		sd	zero,8(a0)
  30              		.loc 1 13 17
  31 0018 23300500 		sd	zero,0(a0)
  32              	.LBE4:
  14:src/KSemaphore.cpp **** }
  33              		.loc 1 14 1
  34 001c 03348100 		ld	s0,8(sp)
  35              		.cfi_restore 8
  36              		.cfi_def_cfa 2, 16
  37 0020 13010101 		addi	sp,sp,16
  38              		.cfi_def_cfa_offset 0
  39 0024 67800000 		jr	ra
  40              		.cfi_endproc
  41              	.LFE26:
  43              		.globl	_ZN10KSemaphoreC1Ei
  44              		.set	_ZN10KSemaphoreC1Ei,_ZN10KSemaphoreC2Ei
  45              		.align	2
GAS LISTING /tmp/ccQVpX3f.s 			page 2


  46              		.globl	_ZN10KSemaphore12addToBlockedEP3PCB
  48              	_ZN10KSemaphore12addToBlockedEP3PCB:
  49              	.LFB34:
  15:src/KSemaphore.cpp **** 
  16:src/KSemaphore.cpp **** uint64 KSemaphore::wait()
  17:src/KSemaphore.cpp **** {
  18:src/KSemaphore.cpp ****     PCB::running->retFromClosedSem = false;
  19:src/KSemaphore.cpp ****     if(--val < 0)
  20:src/KSemaphore.cpp ****         block();
  21:src/KSemaphore.cpp **** 
  22:src/KSemaphore.cpp ****     return 0;
  23:src/KSemaphore.cpp **** }
  24:src/KSemaphore.cpp **** 
  25:src/KSemaphore.cpp **** uint64 KSemaphore::signal() {
  26:src/KSemaphore.cpp ****     if(++val <= 0)
  27:src/KSemaphore.cpp ****         unblock();
  28:src/KSemaphore.cpp **** 
  29:src/KSemaphore.cpp ****     return 0;
  30:src/KSemaphore.cpp **** }
  31:src/KSemaphore.cpp **** 
  32:src/KSemaphore.cpp **** void KSemaphore::semOpenHandler()
  33:src/KSemaphore.cpp **** {
  34:src/KSemaphore.cpp ****     uint64 val;
  35:src/KSemaphore.cpp ****     KSemaphore** semaphoreHandle;
  36:src/KSemaphore.cpp ****     __asm__ volatile("mv %0, a1" : "=r"(semaphoreHandle));
  37:src/KSemaphore.cpp ****     __asm__ volatile("mv %0, a2" : "=r"(val));
  38:src/KSemaphore.cpp **** 
  39:src/KSemaphore.cpp ****     KSemaphore* newSem = new KSemaphore(val);
  40:src/KSemaphore.cpp **** 
  41:src/KSemaphore.cpp ****     (*semaphoreHandle) = newSem;
  42:src/KSemaphore.cpp **** 
  43:src/KSemaphore.cpp ****     if(newSem == 0)
  44:src/KSemaphore.cpp ****             __asm__ volatile("li a0, 0xffffffffffffffff");
  45:src/KSemaphore.cpp ****     else
  46:src/KSemaphore.cpp ****             __asm__ volatile("li a0, 0");
  47:src/KSemaphore.cpp ****     Riscv::w_a0_sscratch();
  48:src/KSemaphore.cpp **** }
  49:src/KSemaphore.cpp **** 
  50:src/KSemaphore.cpp **** KSemaphore::~KSemaphore()
  51:src/KSemaphore.cpp **** {
  52:src/KSemaphore.cpp ****     while(getFirstBlocked() != 0)
  53:src/KSemaphore.cpp ****     {
  54:src/KSemaphore.cpp ****         PCB* pcb = getFirstBlocked();
  55:src/KSemaphore.cpp ****         removeFirstBlocked();
  56:src/KSemaphore.cpp ****         pcb->retFromClosedSem = true;
  57:src/KSemaphore.cpp ****         Scheduler::put(pcb);
  58:src/KSemaphore.cpp ****     }
  59:src/KSemaphore.cpp **** }
  60:src/KSemaphore.cpp **** 
  61:src/KSemaphore.cpp **** void KSemaphore::addToBlocked(PCB* pcb)
  62:src/KSemaphore.cpp **** {
  50              		.loc 1 62 1 is_stmt 1
  51              		.cfi_startproc
  52              	.LVL1:
  53 0028 130101FF 		addi	sp,sp,-16
  54              		.cfi_def_cfa_offset 16
  55 002c 23348100 		sd	s0,8(sp)
GAS LISTING /tmp/ccQVpX3f.s 			page 3


  56              		.cfi_offset 8, -8
  57 0030 13040101 		addi	s0,sp,16
  58              		.cfi_def_cfa 8, 0
  63:src/KSemaphore.cpp ****     pcb->nextPCB = 0;
  59              		.loc 1 63 5
  60              		.loc 1 63 18 is_stmt 0
  61 0034 23B40500 		sd	zero,8(a1)
  64:src/KSemaphore.cpp ****     if(headBlocked == 0)
  62              		.loc 1 64 5 is_stmt 1
  63              		.loc 1 64 8 is_stmt 0
  64 0038 83370500 		ld	a5,0(a0)
  65              		.loc 1 64 5
  66 003c 638E0700 		beqz	a5,.L7
  65:src/KSemaphore.cpp ****     {
  66:src/KSemaphore.cpp ****         headBlocked = tailBlocked = pcb;
  67:src/KSemaphore.cpp ****     }
  68:src/KSemaphore.cpp ****     else
  69:src/KSemaphore.cpp ****     {
  70:src/KSemaphore.cpp ****         tailBlocked->nextPCB = pcb;
  67              		.loc 1 70 9 is_stmt 1
  68 0040 83378500 		ld	a5,8(a0)
  69              		.loc 1 70 30 is_stmt 0
  70 0044 23B4B700 		sd	a1,8(a5)
  71:src/KSemaphore.cpp ****         tailBlocked = pcb;
  71              		.loc 1 71 9 is_stmt 1
  72              		.loc 1 71 21 is_stmt 0
  73 0048 2334B500 		sd	a1,8(a0)
  74              	.L3:
  72:src/KSemaphore.cpp ****     }
  73:src/KSemaphore.cpp **** }
  75              		.loc 1 73 1
  76 004c 03348100 		ld	s0,8(sp)
  77              		.cfi_remember_state
  78              		.cfi_restore 8
  79              		.cfi_def_cfa 2, 16
  80 0050 13010101 		addi	sp,sp,16
  81              		.cfi_def_cfa_offset 0
  82 0054 67800000 		jr	ra
  83              	.L7:
  84              		.cfi_restore_state
  66:src/KSemaphore.cpp ****     }
  85              		.loc 1 66 9 is_stmt 1
  66:src/KSemaphore.cpp ****     }
  86              		.loc 1 66 35 is_stmt 0
  87 0058 2334B500 		sd	a1,8(a0)
  66:src/KSemaphore.cpp ****     }
  88              		.loc 1 66 21
  89 005c 2330B500 		sd	a1,0(a0)
  90 0060 6FF0DFFE 		j	.L3
  91              		.cfi_endproc
  92              	.LFE34:
  94              		.align	2
  95              		.globl	_ZN10KSemaphore5blockEv
  97              	_ZN10KSemaphore5blockEv:
  98              	.LFB35:
  74:src/KSemaphore.cpp **** 
  75:src/KSemaphore.cpp **** void KSemaphore::block()
GAS LISTING /tmp/ccQVpX3f.s 			page 4


  76:src/KSemaphore.cpp **** {
  99              		.loc 1 76 1 is_stmt 1
 100              		.cfi_startproc
 101              	.LVL2:
 102 0064 130101FF 		addi	sp,sp,-16
 103              		.cfi_def_cfa_offset 16
 104 0068 23341100 		sd	ra,8(sp)
 105 006c 23308100 		sd	s0,0(sp)
 106              		.cfi_offset 1, -8
 107              		.cfi_offset 8, -16
 108 0070 13040101 		addi	s0,sp,16
 109              		.cfi_def_cfa 8, 0
  77:src/KSemaphore.cpp ****     PCB::running->setState(PCB::SUSPENDED);
 110              		.loc 1 77 5
 111              		.loc 1 77 27 is_stmt 0
 112 0074 97070000 		la	a5,_ZN3PCB7runningE
 112      83B70700 
 113 007c 83B50700 		ld	a1,0(a5)
 114              	.LVL3:
 115              	.LBB5:
 116              	.LBB6:
 117              		.file 2 "src/../h/PCB.hpp"
   1:src/../h/PCB.hpp **** //
   2:src/../h/PCB.hpp **** // Created by os on 4/27/22.
   3:src/../h/PCB.hpp **** //
   4:src/../h/PCB.hpp **** 
   5:src/../h/PCB.hpp **** #ifndef PROJECT_BASE_V1_0_PCB_HPP
   6:src/../h/PCB.hpp **** #define PROJECT_BASE_V1_0_PCB_HPP
   7:src/../h/PCB.hpp **** 
   8:src/../h/PCB.hpp **** #include "../lib/hw.h"
   9:src/../h/PCB.hpp **** 
  10:src/../h/PCB.hpp **** class PCB
  11:src/../h/PCB.hpp **** {
  12:src/../h/PCB.hpp **** private:
  13:src/../h/PCB.hpp ****     static uint64 savedRegA4;
  14:src/../h/PCB.hpp **** 
  15:src/../h/PCB.hpp ****     using Body = void (*)(void*);
  16:src/../h/PCB.hpp **** 
  17:src/../h/PCB.hpp ****     PCB(Body body,  void* args, void* stack_space, uint64 timeSlice);
  18:src/../h/PCB.hpp ****     ~PCB();
  19:src/../h/PCB.hpp **** 
  20:src/../h/PCB.hpp ****     void start();
  21:src/../h/PCB.hpp ****     static void dispatch();
  22:src/../h/PCB.hpp ****     static void sleep(time_t);
  23:src/../h/PCB.hpp **** 
  24:src/../h/PCB.hpp ****     static PCB* running;
  25:src/../h/PCB.hpp **** 
  26:src/../h/PCB.hpp ****     static uint64 timeSliceCounter;
  27:src/../h/PCB.hpp ****     uint64 getTimeSlice() { return timeSlice;}
  28:src/../h/PCB.hpp **** 
  29:src/../h/PCB.hpp ****     void* operator new(size_t size);
  30:src/../h/PCB.hpp ****     void operator delete(void *p);
  31:src/../h/PCB.hpp **** 
  32:src/../h/PCB.hpp ****     enum State{READY, RUNNING, SUSPENDED, FINISHED, EXITING, SLEEPING};
  33:src/../h/PCB.hpp ****     State getState() {return state;}
  34:src/../h/PCB.hpp ****     void setState(State s) {state = s;}
 118              		.loc 2 34 29 is_stmt 1
GAS LISTING /tmp/ccQVpX3f.s 			page 5


 119              		.loc 2 34 35 is_stmt 0
 120 0080 93072000 		li	a5,2
 121 0084 23A0F504 		sw	a5,64(a1)
 122              	.LVL4:
 123              	.LBE6:
 124              	.LBE5:
  78:src/KSemaphore.cpp ****     addToBlocked(PCB::running);
 125              		.loc 1 78 5 is_stmt 1
 126              		.loc 1 78 17 is_stmt 0
 127 0088 97000000 		call	_ZN10KSemaphore12addToBlockedEP3PCB
 127      E7800000 
 128              	.LVL5:
  79:src/KSemaphore.cpp ****     PCB::dispatch();
 129              		.loc 1 79 5 is_stmt 1
 130              		.loc 1 79 18 is_stmt 0
 131 0090 97000000 		call	_ZN3PCB8dispatchEv@plt
 131      E7800000 
 132              	.LVL6:
  80:src/KSemaphore.cpp **** }
 133              		.loc 1 80 1
 134 0098 83308100 		ld	ra,8(sp)
 135              		.cfi_restore 1
 136 009c 03340100 		ld	s0,0(sp)
 137              		.cfi_restore 8
 138              		.cfi_def_cfa 2, 16
 139 00a0 13010101 		addi	sp,sp,16
 140              		.cfi_def_cfa_offset 0
 141 00a4 67800000 		jr	ra
 142              		.cfi_endproc
 143              	.LFE35:
 145              		.align	2
 146              		.globl	_ZN10KSemaphore4waitEv
 148              	_ZN10KSemaphore4waitEv:
 149              	.LFB28:
  17:src/KSemaphore.cpp ****     PCB::running->retFromClosedSem = false;
 150              		.loc 1 17 1 is_stmt 1
 151              		.cfi_startproc
 152              	.LVL7:
  18:src/KSemaphore.cpp ****     if(--val < 0)
 153              		.loc 1 18 5
  18:src/KSemaphore.cpp ****     if(--val < 0)
 154              		.loc 1 18 19 is_stmt 0
 155 00a8 97070000 		la	a5,_ZN3PCB7runningE
 155      83B70700 
 156 00b0 83B70700 		ld	a5,0(a5)
  18:src/KSemaphore.cpp ****     if(--val < 0)
 157              		.loc 1 18 36
 158 00b4 238C0704 		sb	zero,88(a5)
  19:src/KSemaphore.cpp ****         block();
 159              		.loc 1 19 5 is_stmt 1
  19:src/KSemaphore.cpp ****         block();
 160              		.loc 1 19 10 is_stmt 0
 161 00b8 83270501 		lw	a5,16(a0)
  19:src/KSemaphore.cpp ****         block();
 162              		.loc 1 19 8
 163 00bc 9B87F7FF 		addiw	a5,a5,-1
  19:src/KSemaphore.cpp ****         block();
GAS LISTING /tmp/ccQVpX3f.s 			page 6


 164              		.loc 1 19 14
 165 00c0 2328F500 		sw	a5,16(a0)
  19:src/KSemaphore.cpp ****         block();
 166              		.loc 1 19 5
 167 00c4 13970702 		slli	a4,a5,32
 168 00c8 63460700 		bltz	a4,.L16
  22:src/KSemaphore.cpp **** }
 169              		.loc 1 22 5 is_stmt 1
  23:src/KSemaphore.cpp **** 
 170              		.loc 1 23 1 is_stmt 0
 171 00cc 13050000 		li	a0,0
 172              	.LVL8:
 173 00d0 67800000 		ret
 174              	.LVL9:
 175              	.L16:
  17:src/KSemaphore.cpp ****     PCB::running->retFromClosedSem = false;
 176              		.loc 1 17 1
 177 00d4 130101FF 		addi	sp,sp,-16
 178              		.cfi_def_cfa_offset 16
 179 00d8 23341100 		sd	ra,8(sp)
 180 00dc 23308100 		sd	s0,0(sp)
 181              		.cfi_offset 1, -8
 182              		.cfi_offset 8, -16
 183 00e0 13040101 		addi	s0,sp,16
 184              		.cfi_def_cfa 8, 0
  20:src/KSemaphore.cpp **** 
 185              		.loc 1 20 9 is_stmt 1
  20:src/KSemaphore.cpp **** 
 186              		.loc 1 20 14 is_stmt 0
 187 00e4 97000000 		call	_ZN10KSemaphore5blockEv
 187      E7800000 
 188              	.LVL10:
  22:src/KSemaphore.cpp **** }
 189              		.loc 1 22 5 is_stmt 1
  23:src/KSemaphore.cpp **** 
 190              		.loc 1 23 1 is_stmt 0
 191 00ec 13050000 		li	a0,0
 192 00f0 83308100 		ld	ra,8(sp)
 193              		.cfi_restore 1
 194 00f4 03340100 		ld	s0,0(sp)
 195              		.cfi_restore 8
 196              		.cfi_def_cfa 2, 16
 197 00f8 13010101 		addi	sp,sp,16
 198              		.cfi_def_cfa_offset 0
 199 00fc 67800000 		jr	ra
 200              		.cfi_endproc
 201              	.LFE28:
 203              		.align	2
 204              		.globl	_ZN10KSemaphore15getFirstBlockedEv
 206              	_ZN10KSemaphore15getFirstBlockedEv:
 207              	.LFB36:
  81:src/KSemaphore.cpp **** 
  82:src/KSemaphore.cpp **** PCB* KSemaphore::getFirstBlocked()
  83:src/KSemaphore.cpp **** {
 208              		.loc 1 83 1 is_stmt 1
 209              		.cfi_startproc
 210              	.LVL11:
GAS LISTING /tmp/ccQVpX3f.s 			page 7


 211 0100 130101FF 		addi	sp,sp,-16
 212              		.cfi_def_cfa_offset 16
 213 0104 23348100 		sd	s0,8(sp)
 214              		.cfi_offset 8, -8
 215 0108 13040101 		addi	s0,sp,16
 216              		.cfi_def_cfa 8, 0
  84:src/KSemaphore.cpp ****    return headBlocked;
 217              		.loc 1 84 4
  85:src/KSemaphore.cpp **** }
 218              		.loc 1 85 1 is_stmt 0
 219 010c 03350500 		ld	a0,0(a0)
 220              	.LVL12:
 221 0110 03348100 		ld	s0,8(sp)
 222              		.cfi_restore 8
 223              		.cfi_def_cfa 2, 16
 224 0114 13010101 		addi	sp,sp,16
 225              		.cfi_def_cfa_offset 0
 226 0118 67800000 		jr	ra
 227              		.cfi_endproc
 228              	.LFE36:
 230              		.align	2
 231              		.globl	_ZN10KSemaphore18removeFirstBlockedEv
 233              	_ZN10KSemaphore18removeFirstBlockedEv:
 234              	.LFB37:
  86:src/KSemaphore.cpp **** 
  87:src/KSemaphore.cpp **** void KSemaphore::removeFirstBlocked()
  88:src/KSemaphore.cpp **** {
 235              		.loc 1 88 1 is_stmt 1
 236              		.cfi_startproc
 237              	.LVL13:
 238 011c 130101FF 		addi	sp,sp,-16
 239              		.cfi_def_cfa_offset 16
 240 0120 23348100 		sd	s0,8(sp)
 241              		.cfi_offset 8, -8
 242 0124 13040101 		addi	s0,sp,16
 243              		.cfi_def_cfa 8, 0
  89:src/KSemaphore.cpp ****     if(headBlocked == 0)
 244              		.loc 1 89 5
 245              		.loc 1 89 8 is_stmt 0
 246 0128 83370500 		ld	a5,0(a0)
 247              		.loc 1 89 5
 248 012c 638C0700 		beqz	a5,.L19
  90:src/KSemaphore.cpp ****         return;
  91:src/KSemaphore.cpp ****     PCB* first = headBlocked;
 249              		.loc 1 91 5 is_stmt 1
 250              	.LVL14:
  92:src/KSemaphore.cpp ****     headBlocked = headBlocked->nextPCB;
 251              		.loc 1 92 5
 252              		.loc 1 92 32 is_stmt 0
 253 0130 03B78700 		ld	a4,8(a5)
 254              		.loc 1 92 17
 255 0134 2330E500 		sd	a4,0(a0)
  93:src/KSemaphore.cpp ****     first->nextPCB = 0;
 256              		.loc 1 93 5 is_stmt 1
 257              		.loc 1 93 20 is_stmt 0
 258 0138 23B40700 		sd	zero,8(a5)
  94:src/KSemaphore.cpp ****     if(headBlocked == 0)
GAS LISTING /tmp/ccQVpX3f.s 			page 8


 259              		.loc 1 94 5 is_stmt 1
 260              		.loc 1 94 8 is_stmt 0
 261 013c 83370500 		ld	a5,0(a0)
 262              	.LVL15:
 263              		.loc 1 94 5
 264 0140 63880700 		beqz	a5,.L22
 265              	.L19:
  95:src/KSemaphore.cpp ****         tailBlocked =0;
  96:src/KSemaphore.cpp **** }
 266              		.loc 1 96 1
 267 0144 03348100 		ld	s0,8(sp)
 268              		.cfi_remember_state
 269              		.cfi_restore 8
 270              		.cfi_def_cfa 2, 16
 271 0148 13010101 		addi	sp,sp,16
 272              		.cfi_def_cfa_offset 0
 273 014c 67800000 		jr	ra
 274              	.L22:
 275              		.cfi_restore_state
  95:src/KSemaphore.cpp ****         tailBlocked =0;
 276              		.loc 1 95 9 is_stmt 1
  95:src/KSemaphore.cpp ****         tailBlocked =0;
 277              		.loc 1 95 21 is_stmt 0
 278 0150 23340500 		sd	zero,8(a0)
 279 0154 6FF01FFF 		j	.L19
 280              		.cfi_endproc
 281              	.LFE37:
 283              		.align	2
 284              		.globl	_ZN10KSemaphoreD2Ev
 286              	_ZN10KSemaphoreD2Ev:
 287              	.LFB32:
  50:src/KSemaphore.cpp **** {
 288              		.loc 1 50 1 is_stmt 1
 289              		.cfi_startproc
 290              		.cfi_personality 0x9b,DW.ref.__gxx_personality_v0
 291              		.cfi_lsda 0x1b,.LLSDA32
 292              	.LVL16:
 293 0158 130101FE 		addi	sp,sp,-32
 294              		.cfi_def_cfa_offset 32
 295 015c 233C1100 		sd	ra,24(sp)
 296 0160 23388100 		sd	s0,16(sp)
 297 0164 23349100 		sd	s1,8(sp)
 298 0168 23302101 		sd	s2,0(sp)
 299              		.cfi_offset 1, -8
 300              		.cfi_offset 8, -16
 301              		.cfi_offset 9, -24
 302              		.cfi_offset 18, -32
 303 016c 13040102 		addi	s0,sp,32
 304              		.cfi_def_cfa 8, 0
 305 0170 13090500 		mv	s2,a0
 306              	.LVL17:
 307              	.L25:
 308              	.LBB7:
  52:src/KSemaphore.cpp ****     {
 309              		.loc 1 52 5
  52:src/KSemaphore.cpp ****     {
 310              		.loc 1 52 29
GAS LISTING /tmp/ccQVpX3f.s 			page 9


  52:src/KSemaphore.cpp ****     {
 311              		.loc 1 52 26 is_stmt 0
 312 0174 13050900 		mv	a0,s2
 313 0178 97000000 		call	_ZN10KSemaphore15getFirstBlockedEv
 313      E7800000 
 314              	.LVL18:
 315 0180 93040500 		mv	s1,a0
  52:src/KSemaphore.cpp ****     {
 316              		.loc 1 52 29
 317 0184 63040502 		beqz	a0,.L23
 318              	.LBB8:
  54:src/KSemaphore.cpp ****         removeFirstBlocked();
 319              		.loc 1 54 9 is_stmt 1
 320              	.LVL19:
  55:src/KSemaphore.cpp ****         pcb->retFromClosedSem = true;
 321              		.loc 1 55 9
  55:src/KSemaphore.cpp ****         pcb->retFromClosedSem = true;
 322              		.loc 1 55 27 is_stmt 0
 323 0188 13050900 		mv	a0,s2
 324 018c 97000000 		call	_ZN10KSemaphore18removeFirstBlockedEv
 324      E7800000 
 325              	.LVL20:
  56:src/KSemaphore.cpp ****         Scheduler::put(pcb);
 326              		.loc 1 56 9 is_stmt 1
  56:src/KSemaphore.cpp ****         Scheduler::put(pcb);
 327              		.loc 1 56 31 is_stmt 0
 328 0194 93071000 		li	a5,1
 329 0198 238CF404 		sb	a5,88(s1)
  57:src/KSemaphore.cpp ****     }
 330              		.loc 1 57 9 is_stmt 1
  57:src/KSemaphore.cpp ****     }
 331              		.loc 1 57 23 is_stmt 0
 332 019c 13850400 		mv	a0,s1
 333 01a0 97000000 		call	_ZN9Scheduler3putEP3PCB@plt
 333      E7800000 
 334              	.LVL21:
 335              	.LBE8:
  52:src/KSemaphore.cpp ****     {
 336              		.loc 1 52 5
 337 01a8 6FF0DFFC 		j	.L25
 338              	.LVL22:
 339              	.L23:
 340              	.LBE7:
  59:src/KSemaphore.cpp **** 
 341              		.loc 1 59 1
 342 01ac 83308101 		ld	ra,24(sp)
 343              		.cfi_restore 1
 344 01b0 03340101 		ld	s0,16(sp)
 345              		.cfi_restore 8
 346              		.cfi_def_cfa 2, 32
 347 01b4 83348100 		ld	s1,8(sp)
 348              		.cfi_restore 9
 349 01b8 03390100 		ld	s2,0(sp)
 350              		.cfi_restore 18
 351              	.LVL23:
 352 01bc 13010102 		addi	sp,sp,32
 353              		.cfi_def_cfa_offset 0
GAS LISTING /tmp/ccQVpX3f.s 			page 10


 354 01c0 67800000 		jr	ra
 355              		.cfi_endproc
 356              	.LFE32:
 357              		.globl	__gxx_personality_v0
 358              		.section	.gcc_except_table,"a",@progbits
 359              	.LLSDA32:
 360 0000 FF       		.byte	0xff
 361 0001 FF       		.byte	0xff
 362 0002 03       		.byte	0x3
 363 0003 00       		.byte	0
 364              		.text
 366              		.globl	_ZN10KSemaphoreD1Ev
 367              		.set	_ZN10KSemaphoreD1Ev,_ZN10KSemaphoreD2Ev
 368              		.align	2
 369              		.globl	_ZN10KSemaphore7unblockEv
 371              	_ZN10KSemaphore7unblockEv:
 372              	.LFB38:
  97:src/KSemaphore.cpp **** 
  98:src/KSemaphore.cpp **** void KSemaphore::unblock() {
 373              		.loc 1 98 28 is_stmt 1
 374              		.cfi_startproc
 375              	.LVL24:
 376 01c4 130101FE 		addi	sp,sp,-32
 377              		.cfi_def_cfa_offset 32
 378 01c8 233C1100 		sd	ra,24(sp)
 379 01cc 23388100 		sd	s0,16(sp)
 380 01d0 23349100 		sd	s1,8(sp)
 381 01d4 23302101 		sd	s2,0(sp)
 382              		.cfi_offset 1, -8
 383              		.cfi_offset 8, -16
 384              		.cfi_offset 9, -24
 385              		.cfi_offset 18, -32
 386 01d8 13040102 		addi	s0,sp,32
 387              		.cfi_def_cfa 8, 0
 388 01dc 13090500 		mv	s2,a0
  99:src/KSemaphore.cpp ****     PCB* fr = getFirstBlocked();
 389              		.loc 1 99 5
 390              		.loc 1 99 30 is_stmt 0
 391 01e0 97000000 		call	_ZN10KSemaphore15getFirstBlockedEv
 391      E7800000 
 392              	.LVL25:
 393 01e8 93040500 		mv	s1,a0
 394              	.LVL26:
 100:src/KSemaphore.cpp ****     removeFirstBlocked();
 395              		.loc 1 100 5 is_stmt 1
 396              		.loc 1 100 23 is_stmt 0
 397 01ec 13050900 		mv	a0,s2
 398 01f0 97000000 		call	_ZN10KSemaphore18removeFirstBlockedEv
 398      E7800000 
 399              	.LVL27:
 101:src/KSemaphore.cpp ****     if(fr != 0)
 400              		.loc 1 101 5 is_stmt 1
 401 01f8 63880400 		beqz	s1,.L27
 102:src/KSemaphore.cpp ****     {
 103:src/KSemaphore.cpp ****         //Riscv::printString("Unblocked thread\n");
 104:src/KSemaphore.cpp ****         Scheduler::put(fr);
 402              		.loc 1 104 9
GAS LISTING /tmp/ccQVpX3f.s 			page 11


 403              		.loc 1 104 23 is_stmt 0
 404 01fc 13850400 		mv	a0,s1
 405 0200 97000000 		call	_ZN9Scheduler3putEP3PCB@plt
 405      E7800000 
 406              	.LVL28:
 407              	.L27:
 105:src/KSemaphore.cpp ****     }
 106:src/KSemaphore.cpp **** }
 408              		.loc 1 106 1
 409 0208 83308101 		ld	ra,24(sp)
 410              		.cfi_restore 1
 411 020c 03340101 		ld	s0,16(sp)
 412              		.cfi_restore 8
 413              		.cfi_def_cfa 2, 32
 414 0210 83348100 		ld	s1,8(sp)
 415              		.cfi_restore 9
 416              	.LVL29:
 417 0214 03390100 		ld	s2,0(sp)
 418              		.cfi_restore 18
 419              	.LVL30:
 420 0218 13010102 		addi	sp,sp,32
 421              		.cfi_def_cfa_offset 0
 422 021c 67800000 		jr	ra
 423              		.cfi_endproc
 424              	.LFE38:
 426              		.align	2
 427              		.globl	_ZN10KSemaphore6signalEv
 429              	_ZN10KSemaphore6signalEv:
 430              	.LFB29:
  25:src/KSemaphore.cpp ****     if(++val <= 0)
 431              		.loc 1 25 29 is_stmt 1
 432              		.cfi_startproc
 433              	.LVL31:
  26:src/KSemaphore.cpp ****         unblock();
 434              		.loc 1 26 5
  26:src/KSemaphore.cpp ****         unblock();
 435              		.loc 1 26 10 is_stmt 0
 436 0220 83270501 		lw	a5,16(a0)
  26:src/KSemaphore.cpp ****         unblock();
 437              		.loc 1 26 8
 438 0224 9B871700 		addiw	a5,a5,1
 439 0228 1B870700 		sext.w	a4,a5
  26:src/KSemaphore.cpp ****         unblock();
 440              		.loc 1 26 14
 441 022c 2328F500 		sw	a5,16(a0)
  26:src/KSemaphore.cpp ****         unblock();
 442              		.loc 1 26 5
 443 0230 6356E000 		blez	a4,.L36
  29:src/KSemaphore.cpp **** }
 444              		.loc 1 29 5 is_stmt 1
  30:src/KSemaphore.cpp **** 
 445              		.loc 1 30 1 is_stmt 0
 446 0234 13050000 		li	a0,0
 447              	.LVL32:
 448 0238 67800000 		ret
 449              	.LVL33:
 450              	.L36:
GAS LISTING /tmp/ccQVpX3f.s 			page 12


  25:src/KSemaphore.cpp ****     if(++val <= 0)
 451              		.loc 1 25 29
 452 023c 130101FF 		addi	sp,sp,-16
 453              		.cfi_def_cfa_offset 16
 454 0240 23341100 		sd	ra,8(sp)
 455 0244 23308100 		sd	s0,0(sp)
 456              		.cfi_offset 1, -8
 457              		.cfi_offset 8, -16
 458 0248 13040101 		addi	s0,sp,16
 459              		.cfi_def_cfa 8, 0
  27:src/KSemaphore.cpp **** 
 460              		.loc 1 27 9 is_stmt 1
  27:src/KSemaphore.cpp **** 
 461              		.loc 1 27 16 is_stmt 0
 462 024c 97000000 		call	_ZN10KSemaphore7unblockEv
 462      E7800000 
 463              	.LVL34:
  29:src/KSemaphore.cpp **** }
 464              		.loc 1 29 5 is_stmt 1
  30:src/KSemaphore.cpp **** 
 465              		.loc 1 30 1 is_stmt 0
 466 0254 13050000 		li	a0,0
 467 0258 83308100 		ld	ra,8(sp)
 468              		.cfi_restore 1
 469 025c 03340100 		ld	s0,0(sp)
 470              		.cfi_restore 8
 471              		.cfi_def_cfa 2, 16
 472 0260 13010101 		addi	sp,sp,16
 473              		.cfi_def_cfa_offset 0
 474 0264 67800000 		jr	ra
 475              		.cfi_endproc
 476              	.LFE29:
 478              		.align	2
 479              		.globl	_ZN10KSemaphorenwEm
 481              	_ZN10KSemaphorenwEm:
 482              	.LFB39:
 107:src/KSemaphore.cpp **** void *KSemaphore::operator new(size_t size) {
 483              		.loc 1 107 45 is_stmt 1
 484              		.cfi_startproc
 485              	.LVL35:
 486 0268 130101FF 		addi	sp,sp,-16
 487              		.cfi_def_cfa_offset 16
 488 026c 23341100 		sd	ra,8(sp)
 489 0270 23308100 		sd	s0,0(sp)
 490              		.cfi_offset 1, -8
 491              		.cfi_offset 8, -16
 492 0274 13040101 		addi	s0,sp,16
 493              		.cfi_def_cfa 8, 0
 108:src/KSemaphore.cpp ****     return MemoryAllocator::kmalloc(size);
 494              		.loc 1 108 5
 495              		.loc 1 108 36 is_stmt 0
 496 0278 97000000 		call	_ZN15MemoryAllocator7kmallocEm@plt
 496      E7800000 
 497              	.LVL36:
 109:src/KSemaphore.cpp **** }
 498              		.loc 1 109 1
 499 0280 83308100 		ld	ra,8(sp)
GAS LISTING /tmp/ccQVpX3f.s 			page 13


 500              		.cfi_restore 1
 501 0284 03340100 		ld	s0,0(sp)
 502              		.cfi_restore 8
 503              		.cfi_def_cfa 2, 16
 504 0288 13010101 		addi	sp,sp,16
 505              		.cfi_def_cfa_offset 0
 506 028c 67800000 		jr	ra
 507              		.cfi_endproc
 508              	.LFE39:
 510              		.align	2
 511              		.globl	_ZN10KSemaphore14semOpenHandlerEv
 513              	_ZN10KSemaphore14semOpenHandlerEv:
 514              	.LFB30:
  33:src/KSemaphore.cpp ****     uint64 val;
 515              		.loc 1 33 1 is_stmt 1
 516              		.cfi_startproc
 517 0290 130101FD 		addi	sp,sp,-48
 518              		.cfi_def_cfa_offset 48
 519 0294 23341102 		sd	ra,40(sp)
 520 0298 23308102 		sd	s0,32(sp)
 521 029c 233C9100 		sd	s1,24(sp)
 522 02a0 23382101 		sd	s2,16(sp)
 523 02a4 23343101 		sd	s3,8(sp)
 524              		.cfi_offset 1, -8
 525              		.cfi_offset 8, -16
 526              		.cfi_offset 9, -24
 527              		.cfi_offset 18, -32
 528              		.cfi_offset 19, -40
 529 02a8 13040103 		addi	s0,sp,48
 530              		.cfi_def_cfa 8, 0
  34:src/KSemaphore.cpp ****     KSemaphore** semaphoreHandle;
 531              		.loc 1 34 5
  35:src/KSemaphore.cpp ****     __asm__ volatile("mv %0, a1" : "=r"(semaphoreHandle));
 532              		.loc 1 35 5
  36:src/KSemaphore.cpp ****     __asm__ volatile("mv %0, a2" : "=r"(val));
 533              		.loc 1 36 5
  36:src/KSemaphore.cpp ****     __asm__ volatile("mv %0, a2" : "=r"(val));
 534              		.loc 1 36 58 is_stmt 0
 535              	#APP
 536              	# 36 "src/KSemaphore.cpp" 1
 537              		mv s2, a1
 538              	# 0 "" 2
 539              	.LVL37:
  37:src/KSemaphore.cpp **** 
 540              		.loc 1 37 5 is_stmt 1
  37:src/KSemaphore.cpp **** 
 541              		.loc 1 37 46 is_stmt 0
 542              	# 37 "src/KSemaphore.cpp" 1
 543              		mv s3, a2
 544              	# 0 "" 2
 545              	.LVL38:
  39:src/KSemaphore.cpp **** 
 546              		.loc 1 39 5 is_stmt 1
  39:src/KSemaphore.cpp **** 
 547              		.loc 1 39 44 is_stmt 0
 548              	#NO_APP
 549 02b4 13058001 		li	a0,24
GAS LISTING /tmp/ccQVpX3f.s 			page 14


 550 02b8 97000000 		call	_ZN10KSemaphorenwEm
 550      E7800000 
 551              	.LVL39:
 552 02c0 93040500 		mv	s1,a0
 553 02c4 9B850900 		sext.w	a1,s3
 554 02c8 97000000 		call	_ZN10KSemaphoreC1Ei
 554      E7800000 
 555              	.LVL40:
  41:src/KSemaphore.cpp **** 
 556              		.loc 1 41 5 is_stmt 1
  41:src/KSemaphore.cpp **** 
 557              		.loc 1 41 24 is_stmt 0
 558 02d0 23309900 		sd	s1,0(s2)
  43:src/KSemaphore.cpp ****             __asm__ volatile("li a0, 0xffffffffffffffff");
 559              		.loc 1 43 5 is_stmt 1
 560 02d4 63860402 		beqz	s1,.L43
  46:src/KSemaphore.cpp ****     Riscv::w_a0_sscratch();
 561              		.loc 1 46 13
  46:src/KSemaphore.cpp ****     Riscv::w_a0_sscratch();
 562              		.loc 1 46 41 is_stmt 0
 563              	#APP
 564              	# 46 "src/KSemaphore.cpp" 1
 565              		li a0, 0
 566              	# 0 "" 2
 567              	#NO_APP
 568              	.L41:
  47:src/KSemaphore.cpp **** }
 569              		.loc 1 47 5 is_stmt 1
  47:src/KSemaphore.cpp **** }
 570              		.loc 1 47 25 is_stmt 0
 571 02dc 97000000 		call	_ZN5Riscv13w_a0_sscratchEv@plt
 571      E7800000 
 572              	.LVL41:
  48:src/KSemaphore.cpp **** 
 573              		.loc 1 48 1
 574 02e4 83308102 		ld	ra,40(sp)
 575              		.cfi_remember_state
 576              		.cfi_restore 1
 577 02e8 03340102 		ld	s0,32(sp)
 578              		.cfi_restore 8
 579              		.cfi_def_cfa 2, 48
 580 02ec 83348101 		ld	s1,24(sp)
 581              		.cfi_restore 9
 582              	.LVL42:
 583 02f0 03390101 		ld	s2,16(sp)
 584              		.cfi_restore 18
 585              	.LVL43:
 586 02f4 83398100 		ld	s3,8(sp)
 587              		.cfi_restore 19
 588              	.LVL44:
 589 02f8 13010103 		addi	sp,sp,48
 590              		.cfi_def_cfa_offset 0
 591 02fc 67800000 		jr	ra
 592              	.LVL45:
 593              	.L43:
 594              		.cfi_restore_state
  44:src/KSemaphore.cpp ****     else
GAS LISTING /tmp/ccQVpX3f.s 			page 15


 595              		.loc 1 44 13 is_stmt 1
  44:src/KSemaphore.cpp ****     else
 596              		.loc 1 44 58 is_stmt 0
 597              	#APP
 598              	# 44 "src/KSemaphore.cpp" 1
 599              		li a0, 0xffffffffffffffff
 600              	# 0 "" 2
 601              	#NO_APP
 602 0304 6FF09FFD 		j	.L41
 603              		.cfi_endproc
 604              	.LFE30:
 606              		.align	2
 607              		.globl	_ZN10KSemaphoredlEPv
 609              	_ZN10KSemaphoredlEPv:
 610              	.LFB40:
 110:src/KSemaphore.cpp **** 
 111:src/KSemaphore.cpp **** void KSemaphore::operator delete(void *p)
 112:src/KSemaphore.cpp **** {
 611              		.loc 1 112 1 is_stmt 1
 612              		.cfi_startproc
 613              	.LVL46:
 614 0308 130101FF 		addi	sp,sp,-16
 615              		.cfi_def_cfa_offset 16
 616 030c 23341100 		sd	ra,8(sp)
 617 0310 23308100 		sd	s0,0(sp)
 618              		.cfi_offset 1, -8
 619              		.cfi_offset 8, -16
 620 0314 13040101 		addi	s0,sp,16
 621              		.cfi_def_cfa 8, 0
 113:src/KSemaphore.cpp ****     MemoryAllocator::kfree(p);
 622              		.loc 1 113 5
 623              		.loc 1 113 27 is_stmt 0
 624 0318 97000000 		call	_ZN15MemoryAllocator5kfreeEPv@plt
 624      E7800000 
 625              	.LVL47:
 114:src/KSemaphore.cpp **** }
 626              		.loc 1 114 1
 627 0320 83308100 		ld	ra,8(sp)
 628              		.cfi_restore 1
 629 0324 03340100 		ld	s0,0(sp)
 630              		.cfi_restore 8
 631              		.cfi_def_cfa 2, 16
 632 0328 13010101 		addi	sp,sp,16
 633              		.cfi_def_cfa_offset 0
 634 032c 67800000 		jr	ra
 635              		.cfi_endproc
 636              	.LFE40:
 638              		.align	2
 639              		.globl	_ZN10KSemaphore14semWaitHandlerEv
 641              	_ZN10KSemaphore14semWaitHandlerEv:
 642              	.LFB41:
 115:src/KSemaphore.cpp **** 
 116:src/KSemaphore.cpp **** void KSemaphore::semWaitHandler()
 117:src/KSemaphore.cpp **** {
 643              		.loc 1 117 1 is_stmt 1
 644              		.cfi_startproc
 645 0330 130101FF 		addi	sp,sp,-16
GAS LISTING /tmp/ccQVpX3f.s 			page 16


 646              		.cfi_def_cfa_offset 16
 647 0334 23341100 		sd	ra,8(sp)
 648 0338 23308100 		sd	s0,0(sp)
 649              		.cfi_offset 1, -8
 650              		.cfi_offset 8, -16
 651 033c 13040101 		addi	s0,sp,16
 652              		.cfi_def_cfa 8, 0
 118:src/KSemaphore.cpp ****     KSemaphore* kSem;
 653              		.loc 1 118 5
 119:src/KSemaphore.cpp ****     __asm__ volatile("mv %0, a1" : "=r"(kSem));
 654              		.loc 1 119 5
 655              		.loc 1 119 47 is_stmt 0
 656              	#APP
 657              	# 119 "src/KSemaphore.cpp" 1
 120              	    //uint64 volatile retval = kSem->wait();
 658              		mv a0, a1
 659              	# 0 "" 2
 660              	.LVL48:
 121:src/KSemaphore.cpp ****     kSem->wait();
 661              		.loc 1 121 5 is_stmt 1
 662              		.loc 1 121 15 is_stmt 0
 663              	#NO_APP
 664 0344 97000000 		call	_ZN10KSemaphore4waitEv
 664      E7800000 
 665              	.LVL49:
 122:src/KSemaphore.cpp ****     if(PCB::running->retFromClosedSem)
 666              		.loc 1 122 5 is_stmt 1
 667              		.loc 1 122 22 is_stmt 0
 668 034c 97070000 		la	a5,_ZN3PCB7runningE
 668      83B70700 
 669 0354 83B70700 		ld	a5,0(a5)
 670 0358 83C78705 		lbu	a5,88(a5)
 671              		.loc 1 122 5
 672 035c 63800702 		beqz	a5,.L47
 123:src/KSemaphore.cpp ****         __asm__ volatile("li a0, 0x1");
 673              		.loc 1 123 9 is_stmt 1
 674              		.loc 1 123 39 is_stmt 0
 675              	#APP
 676              	# 123 "src/KSemaphore.cpp" 1
 124              	    else
 677              		li a0, 0x1
 678              	# 0 "" 2
 679              	#NO_APP
 680              	.L48:
 125:src/KSemaphore.cpp ****         __asm__ volatile("li a0, 0x0");
 126:src/KSemaphore.cpp ****     Riscv::w_a0_sscratch();
 681              		.loc 1 126 5 is_stmt 1
 682              		.loc 1 126 25 is_stmt 0
 683 0364 97000000 		call	_ZN5Riscv13w_a0_sscratchEv@plt
 683      E7800000 
 684              	.LVL50:
 127:src/KSemaphore.cpp **** }
 685              		.loc 1 127 1
 686 036c 83308100 		ld	ra,8(sp)
 687              		.cfi_remember_state
 688              		.cfi_restore 1
 689 0370 03340100 		ld	s0,0(sp)
GAS LISTING /tmp/ccQVpX3f.s 			page 17


 690              		.cfi_restore 8
 691              		.cfi_def_cfa 2, 16
 692 0374 13010101 		addi	sp,sp,16
 693              		.cfi_def_cfa_offset 0
 694 0378 67800000 		jr	ra
 695              	.L47:
 696              		.cfi_restore_state
 125:src/KSemaphore.cpp ****         __asm__ volatile("li a0, 0x0");
 697              		.loc 1 125 9 is_stmt 1
 125:src/KSemaphore.cpp ****         __asm__ volatile("li a0, 0x0");
 698              		.loc 1 125 39 is_stmt 0
 699              	#APP
 700              	# 125 "src/KSemaphore.cpp" 1
 701              		li a0, 0x0
 702              	# 0 "" 2
 703              	#NO_APP
 704 0380 6FF05FFE 		j	.L48
 705              		.cfi_endproc
 706              	.LFE41:
 708              		.align	2
 709              		.globl	_ZN10KSemaphore16semSignalHandlerEv
 711              	_ZN10KSemaphore16semSignalHandlerEv:
 712              	.LFB42:
 128:src/KSemaphore.cpp **** 
 129:src/KSemaphore.cpp **** void KSemaphore::semSignalHandler() {
 713              		.loc 1 129 37 is_stmt 1
 714              		.cfi_startproc
 715 0384 130101FF 		addi	sp,sp,-16
 716              		.cfi_def_cfa_offset 16
 717 0388 23341100 		sd	ra,8(sp)
 718 038c 23308100 		sd	s0,0(sp)
 719              		.cfi_offset 1, -8
 720              		.cfi_offset 8, -16
 721 0390 13040101 		addi	s0,sp,16
 722              		.cfi_def_cfa 8, 0
 130:src/KSemaphore.cpp ****     KSemaphore *kSem;
 723              		.loc 1 130 5
 131:src/KSemaphore.cpp ****     __asm__ volatile("mv %0, a1" : "=r"(kSem));
 724              		.loc 1 131 5
 725              		.loc 1 131 47 is_stmt 0
 726              	#APP
 727              	# 131 "src/KSemaphore.cpp" 1
 132              	    if (kSem == 0)
 728              		mv a0, a1
 729              	# 0 "" 2
 730              	.LVL51:
 731              		.loc 1 132 5 is_stmt 1
 732              	#NO_APP
 733 0398 63040502 		beqz	a0,.L54
 133:src/KSemaphore.cpp ****     {
 134:src/KSemaphore.cpp ****         __asm__ volatile("li a0, 0x1");
 135:src/KSemaphore.cpp ****     }
 136:src/KSemaphore.cpp ****     else
 137:src/KSemaphore.cpp ****     {
 138:src/KSemaphore.cpp ****         //uint64 volatile retval = kSem->signal();
 139:src/KSemaphore.cpp ****         kSem->signal();
 734              		.loc 1 139 9
GAS LISTING /tmp/ccQVpX3f.s 			page 18


 735              		.loc 1 139 21 is_stmt 0
 736 039c 97000000 		call	_ZN10KSemaphore6signalEv
 736      E7800000 
 737              	.LVL52:
 140:src/KSemaphore.cpp ****         __asm__ volatile("li a0, 0x0");
 738              		.loc 1 140 9 is_stmt 1
 739              		.loc 1 140 39 is_stmt 0
 740              	#APP
 741              	# 140 "src/KSemaphore.cpp" 1
 141              	    }
 742              		li a0, 0x0
 743              	# 0 "" 2
 744              	#NO_APP
 745              	.L52:
 142:src/KSemaphore.cpp ****     Riscv::w_a0_sscratch();
 746              		.loc 1 142 5 is_stmt 1
 747              		.loc 1 142 25 is_stmt 0
 748 03a8 97000000 		call	_ZN5Riscv13w_a0_sscratchEv@plt
 748      E7800000 
 749              	.LVL53:
 143:src/KSemaphore.cpp **** }
 750              		.loc 1 143 1
 751 03b0 83308100 		ld	ra,8(sp)
 752              		.cfi_remember_state
 753              		.cfi_restore 1
 754 03b4 03340100 		ld	s0,0(sp)
 755              		.cfi_restore 8
 756              		.cfi_def_cfa 2, 16
 757 03b8 13010101 		addi	sp,sp,16
 758              		.cfi_def_cfa_offset 0
 759 03bc 67800000 		jr	ra
 760              	.LVL54:
 761              	.L54:
 762              		.cfi_restore_state
 134:src/KSemaphore.cpp ****     }
 763              		.loc 1 134 9 is_stmt 1
 134:src/KSemaphore.cpp ****     }
 764              		.loc 1 134 39 is_stmt 0
 765              	#APP
 766              	# 134 "src/KSemaphore.cpp" 1
 767              		li a0, 0x1
 768              	# 0 "" 2
 769              	#NO_APP
 770 03c4 6FF05FFE 		j	.L52
 771              		.cfi_endproc
 772              	.LFE42:
 774              		.align	2
 775              		.globl	_ZN10KSemaphore15semCloseHandlerEv
 777              	_ZN10KSemaphore15semCloseHandlerEv:
 778              	.LFB43:
 144:src/KSemaphore.cpp **** 
 145:src/KSemaphore.cpp **** void KSemaphore::semCloseHandler()
 146:src/KSemaphore.cpp **** {
 779              		.loc 1 146 1 is_stmt 1
 780              		.cfi_startproc
 781 03c8 130101FE 		addi	sp,sp,-32
 782              		.cfi_def_cfa_offset 32
GAS LISTING /tmp/ccQVpX3f.s 			page 19


 783 03cc 233C1100 		sd	ra,24(sp)
 784 03d0 23388100 		sd	s0,16(sp)
 785 03d4 23349100 		sd	s1,8(sp)
 786              		.cfi_offset 1, -8
 787              		.cfi_offset 8, -16
 788              		.cfi_offset 9, -24
 789 03d8 13040102 		addi	s0,sp,32
 790              		.cfi_def_cfa 8, 0
 147:src/KSemaphore.cpp ****     KSemaphore* kSem;
 791              		.loc 1 147 5
 148:src/KSemaphore.cpp ****     __asm__ volatile("mv %0, a1" : "=r"(kSem));
 792              		.loc 1 148 5
 793              		.loc 1 148 47 is_stmt 0
 794              	#APP
 795              	# 148 "src/KSemaphore.cpp" 1
 149              	    delete kSem;
 796              		mv s1, a1
 797              	# 0 "" 2
 798              	.LVL55:
 799              		.loc 1 149 5 is_stmt 1
 800              		.loc 1 149 16 is_stmt 0
 801              	#NO_APP
 802 03e0 638E0400 		beqz	s1,.L56
 803              		.loc 1 149 12 discriminator 1
 804 03e4 13850400 		mv	a0,s1
 805 03e8 97000000 		call	_ZN10KSemaphoreD1Ev
 805      E7800000 
 806              	.LVL56:
 807 03f0 13850400 		mv	a0,s1
 808 03f4 97000000 		call	_ZN10KSemaphoredlEPv
 808      E7800000 
 809              	.LVL57:
 810              	.L56:
 150:src/KSemaphore.cpp ****     __asm__ volatile("li a0, 0");
 811              		.loc 1 150 5 is_stmt 1
 812              		.loc 1 150 33 is_stmt 0
 813              	#APP
 814              	# 150 "src/KSemaphore.cpp" 1
 151              	    Riscv::w_a0_sscratch();
 815              		li a0, 0
 816              	# 0 "" 2
 817              		.loc 1 151 5 is_stmt 1
 818              		.loc 1 151 25 is_stmt 0
 819              	#NO_APP
 820 0400 97000000 		call	_ZN5Riscv13w_a0_sscratchEv@plt
 820      E7800000 
 821              	.LVL58:
 152:src/KSemaphore.cpp **** }
 822              		.loc 1 152 1
 823 0408 83308101 		ld	ra,24(sp)
 824              		.cfi_restore 1
 825 040c 03340101 		ld	s0,16(sp)
 826              		.cfi_restore 8
 827              		.cfi_def_cfa 2, 32
 828 0410 83348100 		ld	s1,8(sp)
 829              		.cfi_restore 9
 830              	.LVL59:
GAS LISTING /tmp/ccQVpX3f.s 			page 20


 831 0414 13010102 		addi	sp,sp,32
 832              		.cfi_def_cfa_offset 0
 833 0418 67800000 		jr	ra
 834              		.cfi_endproc
 835              	.LFE43:
 837              	.Letext0:
 838              		.file 3 "src/../h/../lib/hw.h"
 839              		.file 4 "src/../h/KSemaphore.hpp"
 840              		.file 5 "src/../h/MemoryAllocator.hpp"
 841              		.file 6 "src/../h/Riscv.hpp"
 842              		.file 7 "src/../h/Scheduler.hpp"
 4630              		.align	3
 4633              	DW.ref.__gxx_personality_v0:
 4634 0000 00000000 		.dword	__gxx_personality_v0
 4634      00000000 
 4635              		.ident	"GCC: (Ubuntu 9.3.0-17ubuntu1~20.04) 9.3.0"
 4636              		.section	.note.GNU-stack,"",@progbits
GAS LISTING /tmp/ccQVpX3f.s 			page 21


DEFINED SYMBOLS
                            *ABS*:0000000000000000 KSemaphore.cpp
     /tmp/ccQVpX3f.s:9      .text:0000000000000000 _ZN10KSemaphoreC2Ei
     /tmp/ccQVpX3f.s:13     .text:0000000000000000 .L0 
     /tmp/ccQVpX3f.s:15     .text:0000000000000000 .L0 
     /tmp/ccQVpX3f.s:16     .text:0000000000000004 .L0 
     /tmp/ccQVpX3f.s:18     .text:0000000000000008 .L0 
     /tmp/ccQVpX3f.s:20     .text:000000000000000c .L0 
     /tmp/ccQVpX3f.s:23     .text:000000000000000c .L0 
     /tmp/ccQVpX3f.s:24     .text:000000000000000c .L0 
     /tmp/ccQVpX3f.s:26     .text:0000000000000010 .L0 
     /tmp/ccQVpX3f.s:28     .text:0000000000000014 .L0 
     /tmp/ccQVpX3f.s:29     .text:0000000000000014 .L0 
     /tmp/ccQVpX3f.s:31     .text:0000000000000018 .L0 
     /tmp/ccQVpX3f.s:34     .text:000000000000001c .L0 
     /tmp/ccQVpX3f.s:35     .text:0000000000000020 .L0 
     /tmp/ccQVpX3f.s:36     .text:0000000000000020 .L0 
     /tmp/ccQVpX3f.s:38     .text:0000000000000024 .L0 
     /tmp/ccQVpX3f.s:40     .text:0000000000000028 .L0 
     /tmp/ccQVpX3f.s:9      .text:0000000000000000 _ZN10KSemaphoreC1Ei
     /tmp/ccQVpX3f.s:48     .text:0000000000000028 _ZN10KSemaphore12addToBlockedEP3PCB
     /tmp/ccQVpX3f.s:51     .text:0000000000000028 .L0 
     /tmp/ccQVpX3f.s:53     .text:0000000000000028 .L0 
     /tmp/ccQVpX3f.s:54     .text:000000000000002c .L0 
     /tmp/ccQVpX3f.s:56     .text:0000000000000030 .L0 
     /tmp/ccQVpX3f.s:58     .text:0000000000000034 .L0 
     /tmp/ccQVpX3f.s:60     .text:0000000000000034 .L0 
     /tmp/ccQVpX3f.s:61     .text:0000000000000034 .L0 
     /tmp/ccQVpX3f.s:63     .text:0000000000000038 .L0 
     /tmp/ccQVpX3f.s:64     .text:0000000000000038 .L0 
     /tmp/ccQVpX3f.s:66     .text:000000000000003c .L0 
     /tmp/ccQVpX3f.s:68     .text:0000000000000040 .L0 
     /tmp/ccQVpX3f.s:70     .text:0000000000000044 .L0 
     /tmp/ccQVpX3f.s:72     .text:0000000000000048 .L0 
     /tmp/ccQVpX3f.s:73     .text:0000000000000048 .L0 
     /tmp/ccQVpX3f.s:76     .text:000000000000004c .L0 
     /tmp/ccQVpX3f.s:77     .text:0000000000000050 .L0 
     /tmp/ccQVpX3f.s:78     .text:0000000000000050 .L0 
     /tmp/ccQVpX3f.s:79     .text:0000000000000050 .L0 
     /tmp/ccQVpX3f.s:81     .text:0000000000000054 .L0 
     /tmp/ccQVpX3f.s:84     .text:0000000000000058 .L0 
     /tmp/ccQVpX3f.s:86     .text:0000000000000058 .L0 
     /tmp/ccQVpX3f.s:87     .text:0000000000000058 .L0 
     /tmp/ccQVpX3f.s:89     .text:000000000000005c .L0 
     /tmp/ccQVpX3f.s:91     .text:0000000000000064 .L0 
     /tmp/ccQVpX3f.s:97     .text:0000000000000064 _ZN10KSemaphore5blockEv
     /tmp/ccQVpX3f.s:100    .text:0000000000000064 .L0 
     /tmp/ccQVpX3f.s:102    .text:0000000000000064 .L0 
     /tmp/ccQVpX3f.s:103    .text:0000000000000068 .L0 
     /tmp/ccQVpX3f.s:106    .text:0000000000000070 .L0 
     /tmp/ccQVpX3f.s:107    .text:0000000000000070 .L0 
     /tmp/ccQVpX3f.s:109    .text:0000000000000074 .L0 
     /tmp/ccQVpX3f.s:111    .text:0000000000000074 .L0 
     /tmp/ccQVpX3f.s:112    .text:0000000000000074 .L0 
     /tmp/ccQVpX3f.s:119    .text:0000000000000080 .L0 
     /tmp/ccQVpX3f.s:120    .text:0000000000000080 .L0 
     /tmp/ccQVpX3f.s:126    .text:0000000000000088 .L0 
GAS LISTING /tmp/ccQVpX3f.s 			page 22


     /tmp/ccQVpX3f.s:127    .text:0000000000000088 .L0 
     /tmp/ccQVpX3f.s:130    .text:0000000000000090 .L0 
     /tmp/ccQVpX3f.s:131    .text:0000000000000090 .L0 
     /tmp/ccQVpX3f.s:134    .text:0000000000000098 .L0 
     /tmp/ccQVpX3f.s:135    .text:000000000000009c .L0 
     /tmp/ccQVpX3f.s:137    .text:00000000000000a0 .L0 
     /tmp/ccQVpX3f.s:138    .text:00000000000000a0 .L0 
     /tmp/ccQVpX3f.s:140    .text:00000000000000a4 .L0 
     /tmp/ccQVpX3f.s:142    .text:00000000000000a8 .L0 
     /tmp/ccQVpX3f.s:148    .text:00000000000000a8 _ZN10KSemaphore4waitEv
     /tmp/ccQVpX3f.s:151    .text:00000000000000a8 .L0 
     /tmp/ccQVpX3f.s:153    .text:00000000000000a8 .L0 
     /tmp/ccQVpX3f.s:154    .text:00000000000000a8 .L0 
     /tmp/ccQVpX3f.s:155    .text:00000000000000a8 .L0 
     /tmp/ccQVpX3f.s:158    .text:00000000000000b4 .L0 
     /tmp/ccQVpX3f.s:160    .text:00000000000000b8 .L0 
     /tmp/ccQVpX3f.s:161    .text:00000000000000b8 .L0 
     /tmp/ccQVpX3f.s:163    .text:00000000000000bc .L0 
     /tmp/ccQVpX3f.s:165    .text:00000000000000c0 .L0 
     /tmp/ccQVpX3f.s:167    .text:00000000000000c4 .L0 
     /tmp/ccQVpX3f.s:170    .text:00000000000000cc .L0 
     /tmp/ccQVpX3f.s:171    .text:00000000000000cc .L0 
     /tmp/ccQVpX3f.s:177    .text:00000000000000d4 .L0 
     /tmp/ccQVpX3f.s:178    .text:00000000000000d8 .L0 
     /tmp/ccQVpX3f.s:181    .text:00000000000000e0 .L0 
     /tmp/ccQVpX3f.s:182    .text:00000000000000e0 .L0 
     /tmp/ccQVpX3f.s:184    .text:00000000000000e4 .L0 
     /tmp/ccQVpX3f.s:186    .text:00000000000000e4 .L0 
     /tmp/ccQVpX3f.s:187    .text:00000000000000e4 .L0 
     /tmp/ccQVpX3f.s:190    .text:00000000000000ec .L0 
     /tmp/ccQVpX3f.s:191    .text:00000000000000ec .L0 
     /tmp/ccQVpX3f.s:193    .text:00000000000000f4 .L0 
     /tmp/ccQVpX3f.s:195    .text:00000000000000f8 .L0 
     /tmp/ccQVpX3f.s:196    .text:00000000000000f8 .L0 
     /tmp/ccQVpX3f.s:198    .text:00000000000000fc .L0 
     /tmp/ccQVpX3f.s:200    .text:0000000000000100 .L0 
     /tmp/ccQVpX3f.s:206    .text:0000000000000100 _ZN10KSemaphore15getFirstBlockedEv
     /tmp/ccQVpX3f.s:209    .text:0000000000000100 .L0 
     /tmp/ccQVpX3f.s:211    .text:0000000000000100 .L0 
     /tmp/ccQVpX3f.s:212    .text:0000000000000104 .L0 
     /tmp/ccQVpX3f.s:214    .text:0000000000000108 .L0 
     /tmp/ccQVpX3f.s:216    .text:000000000000010c .L0 
     /tmp/ccQVpX3f.s:218    .text:000000000000010c .L0 
     /tmp/ccQVpX3f.s:219    .text:000000000000010c .L0 
     /tmp/ccQVpX3f.s:222    .text:0000000000000114 .L0 
     /tmp/ccQVpX3f.s:223    .text:0000000000000114 .L0 
     /tmp/ccQVpX3f.s:225    .text:0000000000000118 .L0 
     /tmp/ccQVpX3f.s:227    .text:000000000000011c .L0 
     /tmp/ccQVpX3f.s:233    .text:000000000000011c _ZN10KSemaphore18removeFirstBlockedEv
     /tmp/ccQVpX3f.s:236    .text:000000000000011c .L0 
     /tmp/ccQVpX3f.s:238    .text:000000000000011c .L0 
     /tmp/ccQVpX3f.s:239    .text:0000000000000120 .L0 
     /tmp/ccQVpX3f.s:241    .text:0000000000000124 .L0 
     /tmp/ccQVpX3f.s:243    .text:0000000000000128 .L0 
     /tmp/ccQVpX3f.s:245    .text:0000000000000128 .L0 
     /tmp/ccQVpX3f.s:246    .text:0000000000000128 .L0 
     /tmp/ccQVpX3f.s:248    .text:000000000000012c .L0 
GAS LISTING /tmp/ccQVpX3f.s 			page 23


     /tmp/ccQVpX3f.s:251    .text:0000000000000130 .L0 
     /tmp/ccQVpX3f.s:252    .text:0000000000000130 .L0 
     /tmp/ccQVpX3f.s:253    .text:0000000000000130 .L0 
     /tmp/ccQVpX3f.s:255    .text:0000000000000134 .L0 
     /tmp/ccQVpX3f.s:257    .text:0000000000000138 .L0 
     /tmp/ccQVpX3f.s:258    .text:0000000000000138 .L0 
     /tmp/ccQVpX3f.s:260    .text:000000000000013c .L0 
     /tmp/ccQVpX3f.s:261    .text:000000000000013c .L0 
     /tmp/ccQVpX3f.s:264    .text:0000000000000140 .L0 
     /tmp/ccQVpX3f.s:267    .text:0000000000000144 .L0 
     /tmp/ccQVpX3f.s:268    .text:0000000000000148 .L0 
     /tmp/ccQVpX3f.s:269    .text:0000000000000148 .L0 
     /tmp/ccQVpX3f.s:270    .text:0000000000000148 .L0 
     /tmp/ccQVpX3f.s:272    .text:000000000000014c .L0 
     /tmp/ccQVpX3f.s:275    .text:0000000000000150 .L0 
     /tmp/ccQVpX3f.s:277    .text:0000000000000150 .L0 
     /tmp/ccQVpX3f.s:278    .text:0000000000000150 .L0 
     /tmp/ccQVpX3f.s:280    .text:0000000000000158 .L0 
     /tmp/ccQVpX3f.s:286    .text:0000000000000158 _ZN10KSemaphoreD2Ev
     /tmp/ccQVpX3f.s:289    .text:0000000000000158 .L0 
     /tmp/ccQVpX3f.s:4633   .data.rel.local.DW.ref.__gxx_personality_v0:0000000000000000 DW.ref.__gxx_personality_v0
     /tmp/ccQVpX3f.s:293    .text:0000000000000158 .L0 
     /tmp/ccQVpX3f.s:294    .text:000000000000015c .L0 
     /tmp/ccQVpX3f.s:299    .text:000000000000016c .L0 
     /tmp/ccQVpX3f.s:300    .text:000000000000016c .L0 
     /tmp/ccQVpX3f.s:301    .text:000000000000016c .L0 
     /tmp/ccQVpX3f.s:302    .text:000000000000016c .L0 
     /tmp/ccQVpX3f.s:304    .text:0000000000000170 .L0 
     /tmp/ccQVpX3f.s:310    .text:0000000000000174 .L0 
     /tmp/ccQVpX3f.s:311    .text:0000000000000174 .L0 
     /tmp/ccQVpX3f.s:312    .text:0000000000000174 .L0 
     /tmp/ccQVpX3f.s:317    .text:0000000000000184 .L0 
     /tmp/ccQVpX3f.s:321    .text:0000000000000188 .L0 
     /tmp/ccQVpX3f.s:322    .text:0000000000000188 .L0 
     /tmp/ccQVpX3f.s:323    .text:0000000000000188 .L0 
     /tmp/ccQVpX3f.s:327    .text:0000000000000194 .L0 
     /tmp/ccQVpX3f.s:328    .text:0000000000000194 .L0 
     /tmp/ccQVpX3f.s:331    .text:000000000000019c .L0 
     /tmp/ccQVpX3f.s:332    .text:000000000000019c .L0 
     /tmp/ccQVpX3f.s:337    .text:00000000000001a8 .L0 
     /tmp/ccQVpX3f.s:342    .text:00000000000001ac .L0 
     /tmp/ccQVpX3f.s:343    .text:00000000000001b0 .L0 
     /tmp/ccQVpX3f.s:345    .text:00000000000001b4 .L0 
     /tmp/ccQVpX3f.s:346    .text:00000000000001b4 .L0 
     /tmp/ccQVpX3f.s:348    .text:00000000000001b8 .L0 
     /tmp/ccQVpX3f.s:350    .text:00000000000001bc .L0 
     /tmp/ccQVpX3f.s:353    .text:00000000000001c0 .L0 
     /tmp/ccQVpX3f.s:355    .text:00000000000001c4 .L0 
     /tmp/ccQVpX3f.s:286    .text:0000000000000158 _ZN10KSemaphoreD1Ev
     /tmp/ccQVpX3f.s:371    .text:00000000000001c4 _ZN10KSemaphore7unblockEv
     /tmp/ccQVpX3f.s:374    .text:00000000000001c4 .L0 
     /tmp/ccQVpX3f.s:376    .text:00000000000001c4 .L0 
     /tmp/ccQVpX3f.s:377    .text:00000000000001c8 .L0 
     /tmp/ccQVpX3f.s:382    .text:00000000000001d8 .L0 
     /tmp/ccQVpX3f.s:383    .text:00000000000001d8 .L0 
     /tmp/ccQVpX3f.s:384    .text:00000000000001d8 .L0 
     /tmp/ccQVpX3f.s:385    .text:00000000000001d8 .L0 
GAS LISTING /tmp/ccQVpX3f.s 			page 24


     /tmp/ccQVpX3f.s:387    .text:00000000000001dc .L0 
     /tmp/ccQVpX3f.s:390    .text:00000000000001e0 .L0 
     /tmp/ccQVpX3f.s:391    .text:00000000000001e0 .L0 
     /tmp/ccQVpX3f.s:396    .text:00000000000001ec .L0 
     /tmp/ccQVpX3f.s:397    .text:00000000000001ec .L0 
     /tmp/ccQVpX3f.s:401    .text:00000000000001f8 .L0 
     /tmp/ccQVpX3f.s:403    .text:00000000000001fc .L0 
     /tmp/ccQVpX3f.s:404    .text:00000000000001fc .L0 
     /tmp/ccQVpX3f.s:409    .text:0000000000000208 .L0 
     /tmp/ccQVpX3f.s:410    .text:000000000000020c .L0 
     /tmp/ccQVpX3f.s:412    .text:0000000000000210 .L0 
     /tmp/ccQVpX3f.s:413    .text:0000000000000210 .L0 
     /tmp/ccQVpX3f.s:415    .text:0000000000000214 .L0 
     /tmp/ccQVpX3f.s:418    .text:0000000000000218 .L0 
     /tmp/ccQVpX3f.s:421    .text:000000000000021c .L0 
     /tmp/ccQVpX3f.s:423    .text:0000000000000220 .L0 
     /tmp/ccQVpX3f.s:429    .text:0000000000000220 _ZN10KSemaphore6signalEv
     /tmp/ccQVpX3f.s:432    .text:0000000000000220 .L0 
     /tmp/ccQVpX3f.s:434    .text:0000000000000220 .L0 
     /tmp/ccQVpX3f.s:435    .text:0000000000000220 .L0 
     /tmp/ccQVpX3f.s:436    .text:0000000000000220 .L0 
     /tmp/ccQVpX3f.s:438    .text:0000000000000224 .L0 
     /tmp/ccQVpX3f.s:441    .text:000000000000022c .L0 
     /tmp/ccQVpX3f.s:443    .text:0000000000000230 .L0 
     /tmp/ccQVpX3f.s:445    .text:0000000000000234 .L0 
     /tmp/ccQVpX3f.s:446    .text:0000000000000234 .L0 
     /tmp/ccQVpX3f.s:452    .text:000000000000023c .L0 
     /tmp/ccQVpX3f.s:453    .text:0000000000000240 .L0 
     /tmp/ccQVpX3f.s:456    .text:0000000000000248 .L0 
     /tmp/ccQVpX3f.s:457    .text:0000000000000248 .L0 
     /tmp/ccQVpX3f.s:459    .text:000000000000024c .L0 
     /tmp/ccQVpX3f.s:461    .text:000000000000024c .L0 
     /tmp/ccQVpX3f.s:462    .text:000000000000024c .L0 
     /tmp/ccQVpX3f.s:465    .text:0000000000000254 .L0 
     /tmp/ccQVpX3f.s:466    .text:0000000000000254 .L0 
     /tmp/ccQVpX3f.s:468    .text:000000000000025c .L0 
     /tmp/ccQVpX3f.s:470    .text:0000000000000260 .L0 
     /tmp/ccQVpX3f.s:471    .text:0000000000000260 .L0 
     /tmp/ccQVpX3f.s:473    .text:0000000000000264 .L0 
     /tmp/ccQVpX3f.s:475    .text:0000000000000268 .L0 
     /tmp/ccQVpX3f.s:481    .text:0000000000000268 _ZN10KSemaphorenwEm
     /tmp/ccQVpX3f.s:484    .text:0000000000000268 .L0 
     /tmp/ccQVpX3f.s:486    .text:0000000000000268 .L0 
     /tmp/ccQVpX3f.s:487    .text:000000000000026c .L0 
     /tmp/ccQVpX3f.s:490    .text:0000000000000274 .L0 
     /tmp/ccQVpX3f.s:491    .text:0000000000000274 .L0 
     /tmp/ccQVpX3f.s:493    .text:0000000000000278 .L0 
     /tmp/ccQVpX3f.s:495    .text:0000000000000278 .L0 
     /tmp/ccQVpX3f.s:496    .text:0000000000000278 .L0 
     /tmp/ccQVpX3f.s:499    .text:0000000000000280 .L0 
     /tmp/ccQVpX3f.s:500    .text:0000000000000284 .L0 
     /tmp/ccQVpX3f.s:502    .text:0000000000000288 .L0 
     /tmp/ccQVpX3f.s:503    .text:0000000000000288 .L0 
     /tmp/ccQVpX3f.s:505    .text:000000000000028c .L0 
     /tmp/ccQVpX3f.s:507    .text:0000000000000290 .L0 
     /tmp/ccQVpX3f.s:513    .text:0000000000000290 _ZN10KSemaphore14semOpenHandlerEv
     /tmp/ccQVpX3f.s:516    .text:0000000000000290 .L0 
GAS LISTING /tmp/ccQVpX3f.s 			page 25


     /tmp/ccQVpX3f.s:517    .text:0000000000000290 .L0 
     /tmp/ccQVpX3f.s:518    .text:0000000000000294 .L0 
     /tmp/ccQVpX3f.s:524    .text:00000000000002a8 .L0 
     /tmp/ccQVpX3f.s:525    .text:00000000000002a8 .L0 
     /tmp/ccQVpX3f.s:526    .text:00000000000002a8 .L0 
     /tmp/ccQVpX3f.s:527    .text:00000000000002a8 .L0 
     /tmp/ccQVpX3f.s:528    .text:00000000000002a8 .L0 
     /tmp/ccQVpX3f.s:530    .text:00000000000002ac .L0 
     /tmp/ccQVpX3f.s:532    .text:00000000000002ac .L0 
     /tmp/ccQVpX3f.s:533    .text:00000000000002ac .L0 
     /tmp/ccQVpX3f.s:534    .text:00000000000002ac .L0 
  src/KSemaphore.cpp:36     .text:00000000000002ac .L0 
     /tmp/ccQVpX3f.s:541    .text:00000000000002b0 .L0 
  src/KSemaphore.cpp:37     .text:00000000000002b0 .L0 
     /tmp/ccQVpX3f.s:547    .text:00000000000002b4 .L0 
     /tmp/ccQVpX3f.s:549    .text:00000000000002b4 .L0 
     /tmp/ccQVpX3f.s:557    .text:00000000000002d0 .L0 
     /tmp/ccQVpX3f.s:558    .text:00000000000002d0 .L0 
     /tmp/ccQVpX3f.s:560    .text:00000000000002d4 .L0 
     /tmp/ccQVpX3f.s:562    .text:00000000000002d8 .L0 
  src/KSemaphore.cpp:46     .text:00000000000002d8 .L0 
     /tmp/ccQVpX3f.s:570    .text:00000000000002dc .L0 
     /tmp/ccQVpX3f.s:571    .text:00000000000002dc .L0 
     /tmp/ccQVpX3f.s:574    .text:00000000000002e4 .L0 
     /tmp/ccQVpX3f.s:575    .text:00000000000002e8 .L0 
     /tmp/ccQVpX3f.s:576    .text:00000000000002e8 .L0 
     /tmp/ccQVpX3f.s:578    .text:00000000000002ec .L0 
     /tmp/ccQVpX3f.s:579    .text:00000000000002ec .L0 
     /tmp/ccQVpX3f.s:581    .text:00000000000002f0 .L0 
     /tmp/ccQVpX3f.s:584    .text:00000000000002f4 .L0 
     /tmp/ccQVpX3f.s:587    .text:00000000000002f8 .L0 
     /tmp/ccQVpX3f.s:590    .text:00000000000002fc .L0 
     /tmp/ccQVpX3f.s:594    .text:0000000000000300 .L0 
     /tmp/ccQVpX3f.s:596    .text:0000000000000300 .L0 
  src/KSemaphore.cpp:44     .text:0000000000000300 .L0 
     /tmp/ccQVpX3f.s:603    .text:0000000000000308 .L0 
     /tmp/ccQVpX3f.s:609    .text:0000000000000308 _ZN10KSemaphoredlEPv
     /tmp/ccQVpX3f.s:612    .text:0000000000000308 .L0 
     /tmp/ccQVpX3f.s:614    .text:0000000000000308 .L0 
     /tmp/ccQVpX3f.s:615    .text:000000000000030c .L0 
     /tmp/ccQVpX3f.s:618    .text:0000000000000314 .L0 
     /tmp/ccQVpX3f.s:619    .text:0000000000000314 .L0 
     /tmp/ccQVpX3f.s:621    .text:0000000000000318 .L0 
     /tmp/ccQVpX3f.s:623    .text:0000000000000318 .L0 
     /tmp/ccQVpX3f.s:624    .text:0000000000000318 .L0 
     /tmp/ccQVpX3f.s:627    .text:0000000000000320 .L0 
     /tmp/ccQVpX3f.s:628    .text:0000000000000324 .L0 
     /tmp/ccQVpX3f.s:630    .text:0000000000000328 .L0 
     /tmp/ccQVpX3f.s:631    .text:0000000000000328 .L0 
     /tmp/ccQVpX3f.s:633    .text:000000000000032c .L0 
     /tmp/ccQVpX3f.s:635    .text:0000000000000330 .L0 
     /tmp/ccQVpX3f.s:641    .text:0000000000000330 _ZN10KSemaphore14semWaitHandlerEv
     /tmp/ccQVpX3f.s:644    .text:0000000000000330 .L0 
     /tmp/ccQVpX3f.s:645    .text:0000000000000330 .L0 
     /tmp/ccQVpX3f.s:646    .text:0000000000000334 .L0 
     /tmp/ccQVpX3f.s:649    .text:000000000000033c .L0 
     /tmp/ccQVpX3f.s:650    .text:000000000000033c .L0 
GAS LISTING /tmp/ccQVpX3f.s 			page 26


     /tmp/ccQVpX3f.s:652    .text:0000000000000340 .L0 
     /tmp/ccQVpX3f.s:654    .text:0000000000000340 .L0 
     /tmp/ccQVpX3f.s:655    .text:0000000000000340 .L0 
  src/KSemaphore.cpp:119    .text:0000000000000340 .L0 
     /tmp/ccQVpX3f.s:662    .text:0000000000000344 .L0 
     /tmp/ccQVpX3f.s:664    .text:0000000000000344 .L0 
     /tmp/ccQVpX3f.s:667    .text:000000000000034c .L0 
     /tmp/ccQVpX3f.s:668    .text:000000000000034c .L0 
     /tmp/ccQVpX3f.s:672    .text:000000000000035c .L0 
     /tmp/ccQVpX3f.s:674    .text:0000000000000360 .L0 
  src/KSemaphore.cpp:123    .text:0000000000000360 .L0 
     /tmp/ccQVpX3f.s:682    .text:0000000000000364 .L0 
     /tmp/ccQVpX3f.s:683    .text:0000000000000364 .L0 
     /tmp/ccQVpX3f.s:686    .text:000000000000036c .L0 
     /tmp/ccQVpX3f.s:687    .text:0000000000000370 .L0 
     /tmp/ccQVpX3f.s:688    .text:0000000000000370 .L0 
     /tmp/ccQVpX3f.s:690    .text:0000000000000374 .L0 
     /tmp/ccQVpX3f.s:691    .text:0000000000000374 .L0 
     /tmp/ccQVpX3f.s:693    .text:0000000000000378 .L0 
     /tmp/ccQVpX3f.s:696    .text:000000000000037c .L0 
     /tmp/ccQVpX3f.s:698    .text:000000000000037c .L0 
  src/KSemaphore.cpp:125    .text:000000000000037c .L0 
     /tmp/ccQVpX3f.s:705    .text:0000000000000384 .L0 
     /tmp/ccQVpX3f.s:711    .text:0000000000000384 _ZN10KSemaphore16semSignalHandlerEv
     /tmp/ccQVpX3f.s:714    .text:0000000000000384 .L0 
     /tmp/ccQVpX3f.s:715    .text:0000000000000384 .L0 
     /tmp/ccQVpX3f.s:716    .text:0000000000000388 .L0 
     /tmp/ccQVpX3f.s:719    .text:0000000000000390 .L0 
     /tmp/ccQVpX3f.s:720    .text:0000000000000390 .L0 
     /tmp/ccQVpX3f.s:722    .text:0000000000000394 .L0 
     /tmp/ccQVpX3f.s:724    .text:0000000000000394 .L0 
     /tmp/ccQVpX3f.s:725    .text:0000000000000394 .L0 
  src/KSemaphore.cpp:131    .text:0000000000000394 .L0 
     /tmp/ccQVpX3f.s:733    .text:0000000000000398 .L0 
     /tmp/ccQVpX3f.s:735    .text:000000000000039c .L0 
     /tmp/ccQVpX3f.s:736    .text:000000000000039c .L0 
     /tmp/ccQVpX3f.s:739    .text:00000000000003a4 .L0 
  src/KSemaphore.cpp:140    .text:00000000000003a4 .L0 
     /tmp/ccQVpX3f.s:747    .text:00000000000003a8 .L0 
     /tmp/ccQVpX3f.s:748    .text:00000000000003a8 .L0 
     /tmp/ccQVpX3f.s:751    .text:00000000000003b0 .L0 
     /tmp/ccQVpX3f.s:752    .text:00000000000003b4 .L0 
     /tmp/ccQVpX3f.s:753    .text:00000000000003b4 .L0 
     /tmp/ccQVpX3f.s:755    .text:00000000000003b8 .L0 
     /tmp/ccQVpX3f.s:756    .text:00000000000003b8 .L0 
     /tmp/ccQVpX3f.s:758    .text:00000000000003bc .L0 
     /tmp/ccQVpX3f.s:762    .text:00000000000003c0 .L0 
     /tmp/ccQVpX3f.s:764    .text:00000000000003c0 .L0 
  src/KSemaphore.cpp:134    .text:00000000000003c0 .L0 
     /tmp/ccQVpX3f.s:771    .text:00000000000003c8 .L0 
     /tmp/ccQVpX3f.s:777    .text:00000000000003c8 _ZN10KSemaphore15semCloseHandlerEv
     /tmp/ccQVpX3f.s:780    .text:00000000000003c8 .L0 
     /tmp/ccQVpX3f.s:781    .text:00000000000003c8 .L0 
     /tmp/ccQVpX3f.s:782    .text:00000000000003cc .L0 
     /tmp/ccQVpX3f.s:786    .text:00000000000003d8 .L0 
     /tmp/ccQVpX3f.s:787    .text:00000000000003d8 .L0 
     /tmp/ccQVpX3f.s:788    .text:00000000000003d8 .L0 
GAS LISTING /tmp/ccQVpX3f.s 			page 27


     /tmp/ccQVpX3f.s:790    .text:00000000000003dc .L0 
     /tmp/ccQVpX3f.s:792    .text:00000000000003dc .L0 
     /tmp/ccQVpX3f.s:793    .text:00000000000003dc .L0 
  src/KSemaphore.cpp:148    .text:00000000000003dc .L0 
     /tmp/ccQVpX3f.s:800    .text:00000000000003e0 .L0 
     /tmp/ccQVpX3f.s:802    .text:00000000000003e0 .L0 
     /tmp/ccQVpX3f.s:804    .text:00000000000003e4 .L0 
     /tmp/ccQVpX3f.s:812    .text:00000000000003fc .L0 
  src/KSemaphore.cpp:150    .text:00000000000003fc .L0 
     /tmp/ccQVpX3f.s:818    .text:0000000000000400 .L0 
     /tmp/ccQVpX3f.s:820    .text:0000000000000400 .L0 
     /tmp/ccQVpX3f.s:823    .text:0000000000000408 .L0 
     /tmp/ccQVpX3f.s:824    .text:000000000000040c .L0 
     /tmp/ccQVpX3f.s:826    .text:0000000000000410 .L0 
     /tmp/ccQVpX3f.s:827    .text:0000000000000410 .L0 
     /tmp/ccQVpX3f.s:829    .text:0000000000000414 .L0 
     /tmp/ccQVpX3f.s:832    .text:0000000000000418 .L0 
     /tmp/ccQVpX3f.s:834    .text:000000000000041c .L0 
     /tmp/ccQVpX3f.s:843    .text:000000000000041c .L0 
     /tmp/ccQVpX3f.s:112    .text:0000000000000074 .L0 
     /tmp/ccQVpX3f.s:155    .text:00000000000000a8 .L0 
     /tmp/ccQVpX3f.s:668    .text:000000000000034c .L0 
     /tmp/ccQVpX3f.s:83     .text:0000000000000058 .L7
     /tmp/ccQVpX3f.s:74     .text:000000000000004c .L3
     /tmp/ccQVpX3f.s:175    .text:00000000000000d4 .L16
     /tmp/ccQVpX3f.s:265    .text:0000000000000144 .L19
     /tmp/ccQVpX3f.s:274    .text:0000000000000150 .L22
     /tmp/ccQVpX3f.s:339    .text:00000000000001ac .L23
     /tmp/ccQVpX3f.s:307    .text:0000000000000174 .L25
     /tmp/ccQVpX3f.s:407    .text:0000000000000208 .L27
     /tmp/ccQVpX3f.s:450    .text:000000000000023c .L36
     /tmp/ccQVpX3f.s:593    .text:0000000000000300 .L43
     /tmp/ccQVpX3f.s:568    .text:00000000000002dc .L41
     /tmp/ccQVpX3f.s:695    .text:000000000000037c .L47
     /tmp/ccQVpX3f.s:680    .text:0000000000000364 .L48
     /tmp/ccQVpX3f.s:761    .text:00000000000003c0 .L54
     /tmp/ccQVpX3f.s:745    .text:00000000000003a8 .L52
     /tmp/ccQVpX3f.s:810    .text:00000000000003fc .L56
     /tmp/ccQVpX3f.s:2837   .debug_abbrev:0000000000000000 .Ldebug_abbrev0
     /tmp/ccQVpX3f.s:4499   .debug_str:0000000000000db0 .LASF261
     /tmp/ccQVpX3f.s:4283   .debug_str:000000000000061b .LASF262
     /tmp/ccQVpX3f.s:4537   .debug_str:0000000000000f7b .LASF263
     /tmp/ccQVpX3f.s:5      .text:0000000000000000 .Ltext0
     /tmp/ccQVpX3f.s:837    .text:000000000000041c .Letext0
     /tmp/ccQVpX3f.s:4089   .debug_line:0000000000000000 .Ldebug_line0
     /tmp/ccQVpX3f.s:4273   .debug_str:00000000000005d5 .LASF0
     /tmp/ccQVpX3f.s:4309   .debug_str:00000000000006fe .LASF1
     /tmp/ccQVpX3f.s:4437   .debug_str:0000000000000ba4 .LASF2
     /tmp/ccQVpX3f.s:4451   .debug_str:0000000000000c1f .LASF4
     /tmp/ccQVpX3f.s:4291   .debug_str:0000000000000660 .LASF3
     /tmp/ccQVpX3f.s:4115   .debug_str:00000000000000f0 .LASF5
     /tmp/ccQVpX3f.s:4407   .debug_str:0000000000000a86 .LASF6
     /tmp/ccQVpX3f.s:4397   .debug_str:0000000000000a2c .LASF7
     /tmp/ccQVpX3f.s:4301   .debug_str:00000000000006b9 .LASF8
     /tmp/ccQVpX3f.s:4239   .debug_str:00000000000004a4 .LASF9
     /tmp/ccQVpX3f.s:4247   .debug_str:00000000000004fb .LASF10
     /tmp/ccQVpX3f.s:4165   .debug_str:0000000000000295 .LASF11
GAS LISTING /tmp/ccQVpX3f.s 			page 28


     /tmp/ccQVpX3f.s:4227   .debug_str:0000000000000462 .LASF12
     /tmp/ccQVpX3f.s:4179   .debug_str:00000000000002d5 .LASF13
     /tmp/ccQVpX3f.s:4163   .debug_str:0000000000000285 .LASF14
     /tmp/ccQVpX3f.s:4505   .debug_str:0000000000000e9d .LASF15
     /tmp/ccQVpX3f.s:4219   .debug_str:000000000000041b .LASF16
     /tmp/ccQVpX3f.s:4487   .debug_str:0000000000000d2f .LASF17
     /tmp/ccQVpX3f.s:4521   .debug_str:0000000000000efc .LASF264
     /tmp/ccQVpX3f.s:4515   .debug_str:0000000000000ed6 .LASF18
     /tmp/ccQVpX3f.s:4475   .debug_str:0000000000000ce4 .LASF19
     /tmp/ccQVpX3f.s:4173   .debug_str:00000000000002bb .LASF20
     /tmp/ccQVpX3f.s:4147   .debug_str:00000000000001f3 .LASF21
     /tmp/ccQVpX3f.s:4401   .debug_str:0000000000000a55 .LASF22
     /tmp/ccQVpX3f.s:4171   .debug_str:00000000000002b2 .LASF23
     /tmp/ccQVpX3f.s:4511   .debug_str:0000000000000ec3 .LASF89
     /tmp/ccQVpX3f.s:4257   .debug_str:000000000000057f .LASF24
     /tmp/ccQVpX3f.s:4119   .debug_str:0000000000000102 .LASF30
     /tmp/ccQVpX3f.s:4545   .debug_str:0000000000000fc0 .LASF265
     /tmp/ccQVpX3f.s:4383   .debug_str:00000000000009c7 .LASF25
     /tmp/ccQVpX3f.s:4307   .debug_str:00000000000006f9 .LASF26
     /tmp/ccQVpX3f.s:4609   .debug_str:00000000000011e6 .LASF28
     /tmp/ccQVpX3f.s:4603   .debug_str:00000000000011b6 .LASF27
     /tmp/ccQVpX3f.s:4529   .debug_str:0000000000000f2a .LASF29
     /tmp/ccQVpX3f.s:4201   .debug_str:000000000000039d .LASF56
     /tmp/ccQVpX3f.s:4129   .debug_str:000000000000015e .LASF58
     /tmp/ccQVpX3f.s:4315   .debug_str:0000000000000728 .LASF35
     /tmp/ccQVpX3f.s:4387   .debug_str:00000000000009df .LASF37
     /tmp/ccQVpX3f.s:4525   .debug_str:0000000000000f1a .LASF31
     /tmp/ccQVpX3f.s:4465   .debug_str:0000000000000c7f .LASF32
     /tmp/ccQVpX3f.s:4319   .debug_str:0000000000000741 .LASF39
     /tmp/ccQVpX3f.s:4325   .debug_str:0000000000000778 .LASF41
     /tmp/ccQVpX3f.s:4615   .debug_str:000000000000121a .LASF33
     /tmp/ccQVpX3f.s:4223   .debug_str:0000000000000441 .LASF34
     /tmp/ccQVpX3f.s:4103   .debug_str:0000000000000063 .LASF36
     /tmp/ccQVpX3f.s:4287   .debug_str:0000000000000640 .LASF38
     /tmp/ccQVpX3f.s:4469   .debug_str:0000000000000ca1 .LASF40
     /tmp/ccQVpX3f.s:4357   .debug_str:00000000000008b6 .LASF42
     /tmp/ccQVpX3f.s:4447   .debug_str:0000000000000bf0 .LASF43
     /tmp/ccQVpX3f.s:4497   .debug_str:0000000000000d94 .LASF44
     /tmp/ccQVpX3f.s:4359   .debug_str:00000000000008c9 .LASF45
     /tmp/ccQVpX3f.s:4097   .debug_str:000000000000002c .LASF46
     /tmp/ccQVpX3f.s:4591   .debug_str:0000000000001145 .LASF47
     /tmp/ccQVpX3f.s:4393   .debug_str:0000000000000a0b .LASF48
     /tmp/ccQVpX3f.s:4485   .debug_str:0000000000000d21 .LASF49
     /tmp/ccQVpX3f.s:4409   .debug_str:0000000000000a8d .LASF50
     /tmp/ccQVpX3f.s:4197   .debug_str:000000000000037b .LASF51
     /tmp/ccQVpX3f.s:4229   .debug_str:0000000000000471 .LASF52
     /tmp/ccQVpX3f.s:4431   .debug_str:0000000000000b77 .LASF53
     /tmp/ccQVpX3f.s:4597   .debug_str:0000000000001179 .LASF54
     /tmp/ccQVpX3f.s:4293   .debug_str:0000000000000672 .LASF55
     /tmp/ccQVpX3f.s:4481   .debug_str:0000000000000d0f .LASF57
     /tmp/ccQVpX3f.s:4607   .debug_str:00000000000011d0 .LASF59
     /tmp/ccQVpX3f.s:4513   .debug_str:0000000000000ecb .LASF60
     /tmp/ccQVpX3f.s:4191   .debug_str:000000000000035a .LASF61
     /tmp/ccQVpX3f.s:4461   .debug_str:0000000000000c69 .LASF62
     /tmp/ccQVpX3f.s:4275   .debug_str:00000000000005e2 .LASF63
     /tmp/ccQVpX3f.s:4369   .debug_str:000000000000091d .LASF64
     /tmp/ccQVpX3f.s:4185   .debug_str:0000000000000324 .LASF65
GAS LISTING /tmp/ccQVpX3f.s 			page 29


     /tmp/ccQVpX3f.s:4415   .debug_str:0000000000000ad7 .LASF66
     /tmp/ccQVpX3f.s:4625   .debug_str:000000000000126a .LASF67
     /tmp/ccQVpX3f.s:4373   .debug_str:0000000000000943 .LASF68
     /tmp/ccQVpX3f.s:4445   .debug_str:0000000000000bdd .LASF69
     /tmp/ccQVpX3f.s:4471   .debug_str:0000000000000caa .LASF70
     /tmp/ccQVpX3f.s:4559   .debug_str:0000000000001037 .LASF71
     /tmp/ccQVpX3f.s:4347   .debug_str:0000000000000853 .LASF72
     /tmp/ccQVpX3f.s:4549   .debug_str:0000000000000fea .LASF73
     /tmp/ccQVpX3f.s:4495   .debug_str:0000000000000d74 .LASF74
     /tmp/ccQVpX3f.s:4209   .debug_str:00000000000003b7 .LASF75
     /tmp/ccQVpX3f.s:4277   .debug_str:00000000000005f6 .LASF76
     /tmp/ccQVpX3f.s:4533   .debug_str:0000000000000f4e .LASF77
     /tmp/ccQVpX3f.s:4389   .debug_str:00000000000009ef .LASF78
     /tmp/ccQVpX3f.s:4601   .debug_str:00000000000011a8 .LASF79
     /tmp/ccQVpX3f.s:4135   .debug_str:000000000000017f .LASF80
     /tmp/ccQVpX3f.s:4225   .debug_str:000000000000044d .LASF81
     /tmp/ccQVpX3f.s:4155   .debug_str:0000000000000221 .LASF82
     /tmp/ccQVpX3f.s:4589   .debug_str:000000000000113e .LASF83
     /tmp/ccQVpX3f.s:4151   .debug_str:0000000000000202 .LASF84
     /tmp/ccQVpX3f.s:4101   .debug_str:000000000000005e .LASF85
     /tmp/ccQVpX3f.s:4557   .debug_str:0000000000001032 .LASF86
     /tmp/ccQVpX3f.s:4331   .debug_str:00000000000007bd .LASF87
     /tmp/ccQVpX3f.s:4207   .debug_str:00000000000003b1 .LASF88
     /tmp/ccQVpX3f.s:4543   .debug_str:0000000000000fb8 .LASF90
     /tmp/ccQVpX3f.s:4139   .debug_str:00000000000001b6 .LASF91
     /tmp/ccQVpX3f.s:4335   .debug_str:00000000000007d6 .LASF92
     /tmp/ccQVpX3f.s:4423   .debug_str:0000000000000b2f .LASF93
     /tmp/ccQVpX3f.s:4243   .debug_str:00000000000004cb .LASF94
     /tmp/ccQVpX3f.s:4439   .debug_str:0000000000000bb2 .LASF95
     /tmp/ccQVpX3f.s:4421   .debug_str:0000000000000b1b .LASF96
     /tmp/ccQVpX3f.s:4203   .debug_str:00000000000003a6 .LASF97
     /tmp/ccQVpX3f.s:4479   .debug_str:0000000000000cf8 .LASF98
     /tmp/ccQVpX3f.s:4509   .debug_str:0000000000000ebc .LASF99
     /tmp/ccQVpX3f.s:4365   .debug_str:00000000000008ee .LASF100
     /tmp/ccQVpX3f.s:4093   .debug_str:000000000000000f .LASF101
     /tmp/ccQVpX3f.s:4443   .debug_str:0000000000000bd1 .LASF102
     /tmp/ccQVpX3f.s:4339   .debug_str:00000000000007f8 .LASF103
     /tmp/ccQVpX3f.s:4433   .debug_str:0000000000000b84 .LASF104
     /tmp/ccQVpX3f.s:4169   .debug_str:00000000000002a9 .LASF105
     /tmp/ccQVpX3f.s:4175   .debug_str:00000000000002c5 .LASF106
     /tmp/ccQVpX3f.s:4363   .debug_str:00000000000008e5 .LASF107
     /tmp/ccQVpX3f.s:4519   .debug_str:0000000000000ef1 .LASF108
     /tmp/ccQVpX3f.s:4091   .debug_str:0000000000000000 .LASF109
     /tmp/ccQVpX3f.s:4251   .debug_str:000000000000051c .LASF110
     /tmp/ccQVpX3f.s:4541   .debug_str:0000000000000fa9 .LASF111
     /tmp/ccQVpX3f.s:4503   .debug_str:0000000000000e7b .LASF112
     /tmp/ccQVpX3f.s:4333   .debug_str:00000000000007c5 .LASF113
     /tmp/ccQVpX3f.s:4183   .debug_str:0000000000000300 .LASF114
     /tmp/ccQVpX3f.s:4381   .debug_str:00000000000009b7 .LASF115
     /tmp/ccQVpX3f.s:4413   .debug_str:0000000000000ab4 .LASF116
     /tmp/ccQVpX3f.s:4313   .debug_str:000000000000071f .LASF117
     /tmp/ccQVpX3f.s:4271   .debug_str:00000000000005cf .LASF118
     /tmp/ccQVpX3f.s:4619   .debug_str:000000000000123b .LASF119
     /tmp/ccQVpX3f.s:4105   .debug_str:0000000000000073 .LASF120
     /tmp/ccQVpX3f.s:4329   .debug_str:00000000000007a3 .LASF121
     /tmp/ccQVpX3f.s:4613   .debug_str:000000000000120a .LASF122
     /tmp/ccQVpX3f.s:4453   .debug_str:0000000000000c26 .LASF123
GAS LISTING /tmp/ccQVpX3f.s 			page 30


     /tmp/ccQVpX3f.s:4507   .debug_str:0000000000000ea9 .LASF124
     /tmp/ccQVpX3f.s:4449   .debug_str:0000000000000bf9 .LASF125
     /tmp/ccQVpX3f.s:4621   .debug_str:0000000000001253 .LASF126
     /tmp/ccQVpX3f.s:4305   .debug_str:00000000000006d5 .LASF127
     /tmp/ccQVpX3f.s:4391   .debug_str:00000000000009fb .LASF128
     /tmp/ccQVpX3f.s:4477   .debug_str:0000000000000cec .LASF129
     /tmp/ccQVpX3f.s:4189   .debug_str:0000000000000355 .LASF130
     /tmp/ccQVpX3f.s:4167   .debug_str:00000000000002a4 .LASF131
     /tmp/ccQVpX3f.s:4233   .debug_str:000000000000048a .LASF132
     /tmp/ccQVpX3f.s:4311   .debug_str:0000000000000711 .LASF133
     /tmp/ccQVpX3f.s:4317   .debug_str:000000000000072e .LASF134
     /tmp/ccQVpX3f.s:4231   .debug_str:0000000000000481 .LASF135
     /tmp/ccQVpX3f.s:4623   .debug_str:0000000000001260 .LASF136
     /tmp/ccQVpX3f.s:4349   .debug_str:0000000000000871 .LASF137
     /tmp/ccQVpX3f.s:4425   .debug_str:0000000000000b3a .LASF138
     /tmp/ccQVpX3f.s:4267   .debug_str:00000000000005ae .LASF139
     /tmp/ccQVpX3f.s:4351   .debug_str:000000000000087b .LASF140
     /tmp/ccQVpX3f.s:4567   .debug_str:000000000000106c .LASF141
     /tmp/ccQVpX3f.s:4535   .debug_str:0000000000000f58 .LASF142
     /tmp/ccQVpX3f.s:4411   .debug_str:0000000000000a99 .LASF143
     /tmp/ccQVpX3f.s:4111   .debug_str:00000000000000b1 .LASF144
     /tmp/ccQVpX3f.s:4581   .debug_str:00000000000010de .LASF145
     /tmp/ccQVpX3f.s:4107   .debug_str:000000000000007b .LASF146
     /tmp/ccQVpX3f.s:4517   .debug_str:0000000000000edc .LASF147
     /tmp/ccQVpX3f.s:4253   .debug_str:000000000000053e .LASF148
     /tmp/ccQVpX3f.s:4095   .debug_str:000000000000001b .LASF149
     /tmp/ccQVpX3f.s:4379   .debug_str:000000000000098d .LASF150
     /tmp/ccQVpX3f.s:4221   .debug_str:0000000000000431 .LASF151
     /tmp/ccQVpX3f.s:4583   .debug_str:00000000000010f4 .LASF152
     /tmp/ccQVpX3f.s:4489   .debug_str:0000000000000d45 .LASF153
     /tmp/ccQVpX3f.s:4213   .debug_str:00000000000003d7 .LASF154
     /tmp/ccQVpX3f.s:4587   .debug_str:0000000000001136 .LASF155
     /tmp/ccQVpX3f.s:4343   .debug_str:0000000000000824 .LASF156
     /tmp/ccQVpX3f.s:4177   .debug_str:00000000000002cf .LASF157
     /tmp/ccQVpX3f.s:4577   .debug_str:00000000000010b6 .LASF158
     /tmp/ccQVpX3f.s:4133   .debug_str:0000000000000179 .LASF159
     /tmp/ccQVpX3f.s:4265   .debug_str:00000000000005a3 .LASF181
     /tmp/ccQVpX3f.s:4493   .debug_str:0000000000000d5c .LASF183
     /tmp/ccQVpX3f.s:4563   .debug_str:0000000000001054 .LASF160
     /tmp/ccQVpX3f.s:4595   .debug_str:000000000000116a .LASF161
     /tmp/ccQVpX3f.s:4473   .debug_str:0000000000000cc8 .LASF162
     /tmp/ccQVpX3f.s:4539   .debug_str:0000000000000f9e .LASF163
     /tmp/ccQVpX3f.s:4341   .debug_str:000000000000080c .LASF164
     /tmp/ccQVpX3f.s:4217   .debug_str:0000000000000411 .LASF165
     /tmp/ccQVpX3f.s:4399   .debug_str:0000000000000a3f .LASF166
     /tmp/ccQVpX3f.s:4345   .debug_str:0000000000000843 .LASF167
     /tmp/ccQVpX3f.s:4569   .debug_str:0000000000001077 .LASF168
     /tmp/ccQVpX3f.s:4159   .debug_str:0000000000000261 .LASF169
     /tmp/ccQVpX3f.s:4323   .debug_str:000000000000075a .LASF170
     /tmp/ccQVpX3f.s:4211   .debug_str:00000000000003c0 .LASF171
     /tmp/ccQVpX3f.s:4599   .debug_str:0000000000001184 .LASF172
     /tmp/ccQVpX3f.s:4285   .debug_str:000000000000062e .LASF173
     /tmp/ccQVpX3f.s:4187   .debug_str:0000000000000336 .LASF174
     /tmp/ccQVpX3f.s:4141   .debug_str:00000000000001c7 .LASF175
     /tmp/ccQVpX3f.s:4241   .debug_str:00000000000004b4 .LASF176
     /tmp/ccQVpX3f.s:4463   .debug_str:0000000000000c71 .LASF177
     /tmp/ccQVpX3f.s:4181   .debug_str:00000000000002e5 .LASF178
GAS LISTING /tmp/ccQVpX3f.s 			page 31


     /tmp/ccQVpX3f.s:4361   .debug_str:00000000000008d8 .LASF179
     /tmp/ccQVpX3f.s:4585   .debug_str:000000000000111c .LASF180
     /tmp/ccQVpX3f.s:4555   .debug_str:0000000000001029 .LASF182
     /tmp/ccQVpX3f.s:4427   .debug_str:0000000000000b5b .LASF184
     /tmp/ccQVpX3f.s:4303   .debug_str:00000000000006cc .LASF185
     /tmp/ccQVpX3f.s:4377   .debug_str:0000000000000978 .LASF186
     /tmp/ccQVpX3f.s:4565   .debug_str:0000000000001065 .LASF187
     /tmp/ccQVpX3f.s:4417   .debug_str:0000000000000af4 .LASF188
     /tmp/ccQVpX3f.s:4371   .debug_str:000000000000093c .LASF189
     /tmp/ccQVpX3f.s:4441   .debug_str:0000000000000bbe .LASF190
     /tmp/ccQVpX3f.s:4131   .debug_str:0000000000000171 .LASF191
     /tmp/ccQVpX3f.s:4531   .debug_str:0000000000000f3a .LASF192
     /tmp/ccQVpX3f.s:4299   .debug_str:00000000000006b1 .LASF193
     /tmp/ccQVpX3f.s:4375   .debug_str:0000000000000964 .LASF194
     /tmp/ccQVpX3f.s:4353   .debug_str:000000000000089c .LASF195
     /tmp/ccQVpX3f.s:4419   .debug_str:0000000000000b07 .LASF196
     /tmp/ccQVpX3f.s:4491   .debug_str:0000000000000d54 .LASF197
     /tmp/ccQVpX3f.s:4281   .debug_str:0000000000000607 .LASF198
     /tmp/ccQVpX3f.s:4261   .debug_str:0000000000000590 .LASF199
     /tmp/ccQVpX3f.s:4501   .debug_str:0000000000000e74 .LASF200
     /tmp/ccQVpX3f.s:4457   .debug_str:0000000000000c4f .LASF201
     /tmp/ccQVpX3f.s:4459   .debug_str:0000000000000c62 .LASF202
     /tmp/ccQVpX3f.s:4215   .debug_str:00000000000003fe .LASF203
     /tmp/ccQVpX3f.s:4455   .debug_str:0000000000000c49 .LASF204
     /tmp/ccQVpX3f.s:4123   .debug_str:0000000000000125 .LASF205
     /tmp/ccQVpX3f.s:4279   .debug_str:0000000000000601 .LASF206
     /tmp/ccQVpX3f.s:4199   .debug_str:000000000000038b .LASF207
     /tmp/ccQVpX3f.s:4153   .debug_str:0000000000000213 .LASF208
     /tmp/ccQVpX3f.s:4553   .debug_str:000000000000100e .LASF209
     /tmp/ccQVpX3f.s:4117   .debug_str:00000000000000f7 .LASF210
     /tmp/ccQVpX3f.s:4523   .debug_str:0000000000000f02 .LASF211
     /tmp/ccQVpX3f.s:4435   .debug_str:0000000000000b99 .LASF212
     /tmp/ccQVpX3f.s:4611   .debug_str:00000000000011f2 .LASF213
     /tmp/ccQVpX3f.s:4235   .debug_str:0000000000000493 .LASF214
     /tmp/ccQVpX3f.s:4161   .debug_str:0000000000000272 .LASF215
     /tmp/ccQVpX3f.s:4483   .debug_str:0000000000000d1a .LASF216
     /tmp/ccQVpX3f.s:4327   .debug_str:0000000000000790 .LASF217
     /tmp/ccQVpX3f.s:4579   .debug_str:00000000000010d4 .LASF218
     /tmp/ccQVpX3f.s:4593   .debug_str:0000000000001154 .LASF219
     /tmp/ccQVpX3f.s:4571   .debug_str:0000000000001095 .LASF220
     /tmp/ccQVpX3f.s:4125   .debug_str:0000000000000137 .LASF221
     /tmp/ccQVpX3f.s:4195   .debug_str:0000000000000375 .LASF222
     /tmp/ccQVpX3f.s:4255   .debug_str:000000000000056d .LASF223
     /tmp/ccQVpX3f.s:4263   .debug_str:000000000000059d .LASF224
     /tmp/ccQVpX3f.s:4573   .debug_str:000000000000109f .LASF225
     /tmp/ccQVpX3f.s:4259   .debug_str:0000000000000585 .LASF226
     /tmp/ccQVpX3f.s:4269   .debug_str:00000000000005b7 .LASF227
     /tmp/ccQVpX3f.s:4551   .debug_str:0000000000000fff .LASF228
     /tmp/ccQVpX3f.s:4245   .debug_str:00000000000004df .LASF229
     /tmp/ccQVpX3f.s:4403   .debug_str:0000000000000a5d .LASF230
     /tmp/ccQVpX3f.s:4297   .debug_str:000000000000068f .LASF231
     /tmp/ccQVpX3f.s:4137   .debug_str:00000000000001a7 .LASF232
     /tmp/ccQVpX3f.s:4337   .debug_str:00000000000007db .LASF233
     /tmp/ccQVpX3f.s:4429   .debug_str:0000000000000b70 .LASF234
     /tmp/ccQVpX3f.s:4109   .debug_str:00000000000000a9 .LASF235
     /tmp/ccQVpX3f.s:4143   .debug_str:00000000000001d1 .LASF236
     /tmp/ccQVpX3f.s:4321   .debug_str:000000000000074e .LASF237
GAS LISTING /tmp/ccQVpX3f.s 			page 32


     /tmp/ccQVpX3f.s:4145   .debug_str:00000000000001e0 .LASF238
     /tmp/ccQVpX3f.s:4355   .debug_str:00000000000008a4 .LASF239
     /tmp/ccQVpX3f.s:4249   .debug_str:0000000000000509 .LASF240
     /tmp/ccQVpX3f.s:4289   .debug_str:000000000000064d .LASF241
     /tmp/ccQVpX3f.s:4157   .debug_str:000000000000024d .LASF242
     /tmp/ccQVpX3f.s:4561   .debug_str:000000000000104a .LASF243
     /tmp/ccQVpX3f.s:4237   .debug_str:000000000000049a .LASF244
     /tmp/ccQVpX3f.s:4121   .debug_str:000000000000010d .LASF266
     /tmp/ccQVpX3f.s:4605   .debug_str:00000000000011bc .LASF267
     /tmp/ccQVpX3f.s:4547   .debug_str:0000000000000fd8 .LASF245
     /tmp/ccQVpX3f.s:4385   .debug_str:00000000000009cc .LASF246
     /tmp/ccQVpX3f.s:4527   .debug_str:0000000000000f22 .LASF247
     /tmp/ccQVpX3f.s:4099   .debug_str:0000000000000046 .LASF248
     /tmp/ccQVpX3f.s:4149   .debug_str:00000000000001fc .LASF249
     /tmp/ccQVpX3f.s:4367   .debug_str:0000000000000907 .LASF250
     /tmp/ccQVpX3f.s:4467   .debug_str:0000000000000c90 .LASF251
     /tmp/ccQVpX3f.s:4127   .debug_str:000000000000014d .LASF252
     /tmp/ccQVpX3f.s:778    .text:00000000000003c8 .LFB43
     /tmp/ccQVpX3f.s:835    .text:000000000000041c .LFE43
     /tmp/ccQVpX3f.s:4575   .debug_str:00000000000010b1 .LASF253
     /tmp/ccQVpX3f.s:3840   .debug_loc:0000000000000000 .LLST18
     /tmp/ccQVpX3f.s:806    .text:00000000000003f0 .LVL56
     /tmp/ccQVpX3f.s:809    .text:00000000000003fc .LVL57
     /tmp/ccQVpX3f.s:821    .text:0000000000000408 .LVL58
     /tmp/ccQVpX3f.s:712    .text:0000000000000384 .LFB42
     /tmp/ccQVpX3f.s:772    .text:00000000000003c8 .LFE42
     /tmp/ccQVpX3f.s:3847   .debug_loc:0000000000000023 .LLST17
     /tmp/ccQVpX3f.s:737    .text:00000000000003a4 .LVL52
     /tmp/ccQVpX3f.s:749    .text:00000000000003b0 .LVL53
     /tmp/ccQVpX3f.s:642    .text:0000000000000330 .LFB41
     /tmp/ccQVpX3f.s:706    .text:0000000000000384 .LFE41
     /tmp/ccQVpX3f.s:3858   .debug_loc:0000000000000059 .LLST16
     /tmp/ccQVpX3f.s:665    .text:000000000000034c .LVL49
     /tmp/ccQVpX3f.s:684    .text:000000000000036c .LVL50
     /tmp/ccQVpX3f.s:610    .text:0000000000000308 .LFB40
     /tmp/ccQVpX3f.s:636    .text:0000000000000330 .LFE40
     /tmp/ccQVpX3f.s:3865   .debug_loc:000000000000007c .LLST15
     /tmp/ccQVpX3f.s:625    .text:0000000000000320 .LVL47
     /tmp/ccQVpX3f.s:482    .text:0000000000000268 .LFB39
     /tmp/ccQVpX3f.s:508    .text:0000000000000290 .LFE39
     /tmp/ccQVpX3f.s:3879   .debug_loc:00000000000000b5 .LLST11
     /tmp/ccQVpX3f.s:497    .text:0000000000000280 .LVL36
     /tmp/ccQVpX3f.s:372    .text:00000000000001c4 .LFB38
     /tmp/ccQVpX3f.s:424    .text:0000000000000220 .LFE38
     /tmp/ccQVpX3f.s:4193   .debug_str:0000000000000370 .LASF254
     /tmp/ccQVpX3f.s:3893   .debug_loc:00000000000000ee .LLST8
     /tmp/ccQVpX3f.s:3911   .debug_loc:000000000000013a .LLST9
     /tmp/ccQVpX3f.s:392    .text:00000000000001e8 .LVL25
     /tmp/ccQVpX3f.s:399    .text:00000000000001f8 .LVL27
     /tmp/ccQVpX3f.s:406    .text:0000000000000208 .LVL28
     /tmp/ccQVpX3f.s:234    .text:000000000000011c .LFB37
     /tmp/ccQVpX3f.s:281    .text:0000000000000158 .LFE37
     /tmp/ccQVpX3f.s:4205   .debug_str:00000000000003ab .LASF255
     /tmp/ccQVpX3f.s:3918   .debug_loc:000000000000015d .LLST5
     /tmp/ccQVpX3f.s:207    .text:0000000000000100 .LFB36
     /tmp/ccQVpX3f.s:228    .text:000000000000011c .LFE36
     /tmp/ccQVpX3f.s:3925   .debug_loc:0000000000000180 .LLST4
GAS LISTING /tmp/ccQVpX3f.s 			page 33


     /tmp/ccQVpX3f.s:98     .text:0000000000000064 .LFB35
     /tmp/ccQVpX3f.s:143    .text:00000000000000a8 .LFE35
     /tmp/ccQVpX3f.s:3939   .debug_loc:00000000000001b9 .LLST0
     /tmp/ccQVpX3f.s:115    .text:0000000000000080 .LBB5
     /tmp/ccQVpX3f.s:124    .text:0000000000000088 .LBE5
     /tmp/ccQVpX3f.s:3953   .debug_loc:00000000000001f2 .LLST1
     /tmp/ccQVpX3f.s:3961   .debug_loc:0000000000000216 .LLST2
     /tmp/ccQVpX3f.s:128    .text:0000000000000090 .LVL5
     /tmp/ccQVpX3f.s:132    .text:0000000000000098 .LVL6
     /tmp/ccQVpX3f.s:49     .text:0000000000000028 .LFB34
     /tmp/ccQVpX3f.s:92     .text:0000000000000064 .LFE34
     /tmp/ccQVpX3f.s:4113   .debug_str:00000000000000e6 .LASF256
     /tmp/ccQVpX3f.s:4617   .debug_str:0000000000001227 .LASF259
     /tmp/ccQVpX3f.s:287    .text:0000000000000158 .LFB32
     /tmp/ccQVpX3f.s:356    .text:00000000000001c4 .LFE32
     /tmp/ccQVpX3f.s:3968   .debug_loc:0000000000000239 .LLST6
     /tmp/ccQVpX3f.s:325    .text:0000000000000194 .LVL20
     /tmp/ccQVpX3f.s:334    .text:00000000000001a8 .LVL21
     /tmp/ccQVpX3f.s:318    .text:0000000000000188 .LBB8
     /tmp/ccQVpX3f.s:335    .text:00000000000001a8 .LBE8
     /tmp/ccQVpX3f.s:3986   .debug_loc:0000000000000285 .LLST7
     /tmp/ccQVpX3f.s:314    .text:0000000000000180 .LVL18
     /tmp/ccQVpX3f.s:514    .text:0000000000000290 .LFB30
     /tmp/ccQVpX3f.s:604    .text:0000000000000308 .LFE30
     /tmp/ccQVpX3f.s:3993   .debug_loc:00000000000002a8 .LLST12
     /tmp/ccQVpX3f.s:4295   .debug_str:000000000000067f .LASF257
     /tmp/ccQVpX3f.s:4004   .debug_loc:00000000000002de .LLST13
     /tmp/ccQVpX3f.s:4395   .debug_str:0000000000000a25 .LASF258
     /tmp/ccQVpX3f.s:4015   .debug_loc:0000000000000314 .LLST14
     /tmp/ccQVpX3f.s:551    .text:00000000000002c0 .LVL39
     /tmp/ccQVpX3f.s:555    .text:00000000000002d0 .LVL40
     /tmp/ccQVpX3f.s:572    .text:00000000000002e4 .LVL41
     /tmp/ccQVpX3f.s:430    .text:0000000000000220 .LFB29
     /tmp/ccQVpX3f.s:476    .text:0000000000000268 .LFE29
     /tmp/ccQVpX3f.s:4026   .debug_loc:000000000000034a .LLST10
     /tmp/ccQVpX3f.s:463    .text:0000000000000254 .LVL34
     /tmp/ccQVpX3f.s:149    .text:00000000000000a8 .LFB28
     /tmp/ccQVpX3f.s:201    .text:0000000000000100 .LFE28
     /tmp/ccQVpX3f.s:4051   .debug_loc:00000000000003ac .LLST3
     /tmp/ccQVpX3f.s:188    .text:00000000000000ec .LVL10
     /tmp/ccQVpX3f.s:4405   .debug_str:0000000000000a72 .LASF260
     /tmp/ccQVpX3f.s:10     .text:0000000000000000 .LFB26
     /tmp/ccQVpX3f.s:41     .text:0000000000000028 .LFE26
     /tmp/ccQVpX3f.s:798    .text:00000000000003e0 .LVL55
     /tmp/ccQVpX3f.s:830    .text:0000000000000414 .LVL59
     /tmp/ccQVpX3f.s:730    .text:0000000000000398 .LVL51
     /tmp/ccQVpX3f.s:760    .text:00000000000003c0 .LVL54
     /tmp/ccQVpX3f.s:660    .text:0000000000000344 .LVL48
     /tmp/ccQVpX3f.s:613    .text:0000000000000308 .LVL46
     /tmp/ccQVpX3f.s:485    .text:0000000000000268 .LVL35
     /tmp/ccQVpX3f.s:375    .text:00000000000001c4 .LVL24
     /tmp/ccQVpX3f.s:419    .text:0000000000000218 .LVL30
     /tmp/ccQVpX3f.s:394    .text:00000000000001ec .LVL26
     /tmp/ccQVpX3f.s:416    .text:0000000000000214 .LVL29
     /tmp/ccQVpX3f.s:250    .text:0000000000000130 .LVL14
     /tmp/ccQVpX3f.s:262    .text:0000000000000140 .LVL15
     /tmp/ccQVpX3f.s:210    .text:0000000000000100 .LVL11
GAS LISTING /tmp/ccQVpX3f.s 			page 34


     /tmp/ccQVpX3f.s:220    .text:0000000000000110 .LVL12
     /tmp/ccQVpX3f.s:101    .text:0000000000000064 .LVL2
     /tmp/ccQVpX3f.s:114    .text:0000000000000080 .LVL3
     /tmp/ccQVpX3f.s:122    .text:0000000000000088 .LVL4
     /tmp/ccQVpX3f.s:292    .text:0000000000000158 .LVL16
     /tmp/ccQVpX3f.s:306    .text:0000000000000174 .LVL17
     /tmp/ccQVpX3f.s:351    .text:00000000000001bc .LVL23
     /tmp/ccQVpX3f.s:320    .text:0000000000000188 .LVL19
     /tmp/ccQVpX3f.s:338    .text:00000000000001ac .LVL22
     /tmp/ccQVpX3f.s:545    .text:00000000000002b4 .LVL38
     /tmp/ccQVpX3f.s:588    .text:00000000000002f8 .LVL44
     /tmp/ccQVpX3f.s:592    .text:0000000000000300 .LVL45
     /tmp/ccQVpX3f.s:539    .text:00000000000002b0 .LVL37
     /tmp/ccQVpX3f.s:585    .text:00000000000002f4 .LVL43
     /tmp/ccQVpX3f.s:582    .text:00000000000002f0 .LVL42
     /tmp/ccQVpX3f.s:433    .text:0000000000000220 .LVL31
     /tmp/ccQVpX3f.s:447    .text:0000000000000238 .LVL32
     /tmp/ccQVpX3f.s:449    .text:000000000000023c .LVL33
     /tmp/ccQVpX3f.s:152    .text:00000000000000a8 .LVL7
     /tmp/ccQVpX3f.s:172    .text:00000000000000d0 .LVL8
     /tmp/ccQVpX3f.s:174    .text:00000000000000d4 .LVL9
     /tmp/ccQVpX3f.s:844    .debug_info:0000000000000000 .Ldebug_info0
     /tmp/ccQVpX3f.s:359    .gcc_except_table:0000000000000000 .LLSDA32

UNDEFINED SYMBOLS
_ZN3PCB7runningE
_ZN3PCB8dispatchEv
_ZN9Scheduler3putEP3PCB
__gxx_personality_v0
_ZN15MemoryAllocator7kmallocEm
_ZN5Riscv13w_a0_sscratchEv
_ZN15MemoryAllocator5kfreeEPv
