GAS LISTING /tmp/ccoT3P4p.s 			page 1


   1              		.file	"KSemaphore.cpp"
   2              		.option pic
   3              		.option norelax
   4              		.text
   5              	.Ltext0:
   6              		.align	2
   7              		.globl	_ZN10KSemaphoreC2Ei
   9              	_ZN10KSemaphoreC2Ei:
  10              	.LFB22:
  11              		.file 1 "src/KSemaphore.cpp"
   1:src/KSemaphore.cpp **** //
   2:src/KSemaphore.cpp **** // Created by os on 5/2/22.
   3:src/KSemaphore.cpp **** //
   4:src/KSemaphore.cpp **** 
   5:src/KSemaphore.cpp **** #include "../h/KSemaphore.h"
   6:src/KSemaphore.cpp **** #include "../h/MemoryAllocator.h"
   7:src/KSemaphore.cpp **** 
   8:src/KSemaphore.cpp **** KSemaphore::KSemaphore(int val) {
  12              		.loc 1 8 1
  13              		.cfi_startproc
  14              	.LVL0:
  15 0000 130101FE 		addi	sp,sp,-32
  16              		.cfi_def_cfa_offset 32
  17 0004 233C1100 		sd	ra,24(sp)
  18 0008 23388100 		sd	s0,16(sp)
  19 000c 23349100 		sd	s1,8(sp)
  20 0010 23302101 		sd	s2,0(sp)
  21              		.cfi_offset 1, -8
  22              		.cfi_offset 8, -16
  23              		.cfi_offset 9, -24
  24              		.cfi_offset 18, -32
  25 0014 13040102 		addi	s0,sp,32
  26              		.cfi_def_cfa 8, 0
  27 0018 93040500 		mv	s1,a0
  28 001c 13890500 		mv	s2,a1
  29              	.LBB6:
  30              		.loc 1 8 31 is_stmt 0
  31 0020 13058500 		addi	a0,a0,8
  32              	.LVL1:
  33 0024 97000000 		call	_ZN5QueueC1Ev@plt
  33      E7800000 
  34              	.LVL2:
   9:src/KSemaphore.cpp ****     this->val = this->beginVal = val;
  35              		.loc 1 9 5 is_stmt 1
  36              		.loc 1 9 32 is_stmt 0
  37 002c 23A22401 		sw	s2,4(s1)
  38              		.loc 1 9 15
  39 0030 23A02401 		sw	s2,0(s1)
  40              	.LBE6:
  10:src/KSemaphore.cpp **** }
  41              		.loc 1 10 1
  42 0034 83308101 		ld	ra,24(sp)
  43              		.cfi_restore 1
  44 0038 03340101 		ld	s0,16(sp)
  45              		.cfi_restore 8
  46              		.cfi_def_cfa 2, 32
  47 003c 83348100 		ld	s1,8(sp)
GAS LISTING /tmp/ccoT3P4p.s 			page 2


  48              		.cfi_restore 9
  49              	.LVL3:
  50 0040 03390100 		ld	s2,0(sp)
  51              		.cfi_restore 18
  52 0044 13010102 		addi	sp,sp,32
  53              		.cfi_def_cfa_offset 0
  54 0048 67800000 		jr	ra
  55              		.cfi_endproc
  56              	.LFE22:
  58              		.globl	_ZN10KSemaphoreC1Ei
  59              		.set	_ZN10KSemaphoreC1Ei,_ZN10KSemaphoreC2Ei
  60              		.align	2
  61              		.globl	_ZN10KSemaphoreD2Ev
  63              	_ZN10KSemaphoreD2Ev:
  64              	.LFB27:
  11:src/KSemaphore.cpp **** 
  12:src/KSemaphore.cpp **** //todo
  13:src/KSemaphore.cpp **** void KSemaphore::wait() {
  14:src/KSemaphore.cpp ****     if(--val < 0)
  15:src/KSemaphore.cpp ****         block();
  16:src/KSemaphore.cpp **** }
  17:src/KSemaphore.cpp **** 
  18:src/KSemaphore.cpp **** //todo
  19:src/KSemaphore.cpp **** void KSemaphore::signal() {
  20:src/KSemaphore.cpp ****     if(++val <= 0)
  21:src/KSemaphore.cpp ****         unblock();
  22:src/KSemaphore.cpp ****     else
  23:src/KSemaphore.cpp ****         val = beginVal;
  24:src/KSemaphore.cpp **** }
  25:src/KSemaphore.cpp **** 
  26:src/KSemaphore.cpp **** KSemaphore::~KSemaphore() {
  65              		.loc 1 26 1 is_stmt 1
  66              		.cfi_startproc
  67              	.LVL4:
  68 004c 130101FF 		addi	sp,sp,-16
  69              		.cfi_def_cfa_offset 16
  70 0050 23341100 		sd	ra,8(sp)
  71 0054 23308100 		sd	s0,0(sp)
  72              		.cfi_offset 1, -8
  73              		.cfi_offset 8, -16
  74 0058 13040101 		addi	s0,sp,16
  75              		.cfi_def_cfa 8, 0
  76              	.LBB7:
  77              		.loc 1 26 25 is_stmt 0
  78 005c 13058500 		addi	a0,a0,8
  79              	.LVL5:
  80 0060 97000000 		call	_ZN5QueueD1Ev@plt
  80      E7800000 
  81              	.LVL6:
  82              	.LBE7:
  27:src/KSemaphore.cpp ****     //todo
  28:src/KSemaphore.cpp **** }
  83              		.loc 1 28 1
  84 0068 83308100 		ld	ra,8(sp)
  85              		.cfi_restore 1
  86 006c 03340100 		ld	s0,0(sp)
  87              		.cfi_restore 8
GAS LISTING /tmp/ccoT3P4p.s 			page 3


  88              		.cfi_def_cfa 2, 16
  89 0070 13010101 		addi	sp,sp,16
  90              		.cfi_def_cfa_offset 0
  91 0074 67800000 		jr	ra
  92              		.cfi_endproc
  93              	.LFE27:
  95              		.globl	_ZN10KSemaphoreD1Ev
  96              		.set	_ZN10KSemaphoreD1Ev,_ZN10KSemaphoreD2Ev
  97              		.align	2
  98              		.globl	_ZN10KSemaphore5blockEv
 100              	_ZN10KSemaphore5blockEv:
 101              	.LFB29:
  29:src/KSemaphore.cpp **** 
  30:src/KSemaphore.cpp **** //todo
  31:src/KSemaphore.cpp **** void KSemaphore::block() {
 102              		.loc 1 31 26 is_stmt 1
 103              		.cfi_startproc
 104              	.LVL7:
 105 0078 130101FF 		addi	sp,sp,-16
 106              		.cfi_def_cfa_offset 16
 107 007c 23341100 		sd	ra,8(sp)
 108 0080 23308100 		sd	s0,0(sp)
 109              		.cfi_offset 1, -8
 110              		.cfi_offset 8, -16
 111 0084 13040101 		addi	s0,sp,16
 112              		.cfi_def_cfa 8, 0
  32:src/KSemaphore.cpp ****     PCB::running->setState(PCB::SUSPENDED);
 113              		.loc 1 32 5
 114              		.loc 1 32 27 is_stmt 0
 115 0088 97070000 		la	a5,_ZN3PCB7runningE
 115      83B70700 
 116 0090 83B70700 		ld	a5,0(a5)
 117              	.LVL8:
 118              	.LBB8:
 119              	.LBB9:
 120              		.file 2 "src/../h/PCB.h"
   1:src/../h/PCB.h **** //
   2:src/../h/PCB.h **** // Created by os on 4/27/22.
   3:src/../h/PCB.h **** //
   4:src/../h/PCB.h **** 
   5:src/../h/PCB.h **** #ifndef PROJECT_BASE_V1_0_PCB_H
   6:src/../h/PCB.h **** #define PROJECT_BASE_V1_0_PCB_H
   7:src/../h/PCB.h **** 
   8:src/../h/PCB.h **** #include "../lib/hw.h"
   9:src/../h/PCB.h **** #include "Scheduler.h"
  10:src/../h/PCB.h **** #include "Riscv.h"
  11:src/../h/PCB.h **** 
  12:src/../h/PCB.h **** class PCB
  13:src/../h/PCB.h **** {
  14:src/../h/PCB.h **** public:
  15:src/../h/PCB.h ****     using Body = void (*)(void*);
  16:src/../h/PCB.h **** 
  17:src/../h/PCB.h ****     PCB(Body body,  void* args, void* stack_space, uint64 timeSlice);
  18:src/../h/PCB.h ****     ~PCB();
  19:src/../h/PCB.h **** 
  20:src/../h/PCB.h ****     void start();
  21:src/../h/PCB.h ****     static void dispatch();
GAS LISTING /tmp/ccoT3P4p.s 			page 4


  22:src/../h/PCB.h ****     static void sleep(time_t);
  23:src/../h/PCB.h **** 
  24:src/../h/PCB.h ****     static PCB* running;
  25:src/../h/PCB.h ****     static PCB* exitingPCB;
  26:src/../h/PCB.h **** 
  27:src/../h/PCB.h ****     static uint64 timeSliceCounter;
  28:src/../h/PCB.h ****     uint64 getTimeSlice() { return timeSlice;}
  29:src/../h/PCB.h **** 
  30:src/../h/PCB.h ****     void* operator new(size_t size);
  31:src/../h/PCB.h ****     void operator delete(void *p);
  32:src/../h/PCB.h **** 
  33:src/../h/PCB.h ****     enum State{READY, RUNNING, SUSPENDED, FINISHED, EXITING, SLEEPING};
  34:src/../h/PCB.h ****     State getState() {return state;}
  35:src/../h/PCB.h ****     void setState(State s) {state = s;}
 121              		.loc 2 35 29 is_stmt 1
 122              		.loc 2 35 35 is_stmt 0
 123 0094 13072000 		li	a4,2
 124 0098 23A8E702 		sw	a4,48(a5)
 125              	.LVL9:
 126              	.LBE9:
 127              	.LBE8:
  33:src/KSemaphore.cpp ****     PCB::dispatch();
 128              		.loc 1 33 5 is_stmt 1
 129              		.loc 1 33 18 is_stmt 0
 130 009c 97000000 		call	_ZN3PCB8dispatchEv@plt
 130      E7800000 
 131              	.LVL10:
  34:src/KSemaphore.cpp **** }
 132              		.loc 1 34 1
 133 00a4 83308100 		ld	ra,8(sp)
 134              		.cfi_restore 1
 135 00a8 03340100 		ld	s0,0(sp)
 136              		.cfi_restore 8
 137              		.cfi_def_cfa 2, 16
 138 00ac 13010101 		addi	sp,sp,16
 139              		.cfi_def_cfa_offset 0
 140 00b0 67800000 		jr	ra
 141              		.cfi_endproc
 142              	.LFE29:
 144              		.align	2
 145              		.globl	_ZN10KSemaphore4waitEv
 147              	_ZN10KSemaphore4waitEv:
 148              	.LFB24:
  13:src/KSemaphore.cpp ****     if(--val < 0)
 149              		.loc 1 13 25 is_stmt 1
 150              		.cfi_startproc
 151              	.LVL11:
  14:src/KSemaphore.cpp ****         block();
 152              		.loc 1 14 5
  14:src/KSemaphore.cpp ****         block();
 153              		.loc 1 14 10 is_stmt 0
 154 00b4 83270500 		lw	a5,0(a0)
  14:src/KSemaphore.cpp ****         block();
 155              		.loc 1 14 8
 156 00b8 9B87F7FF 		addiw	a5,a5,-1
  14:src/KSemaphore.cpp ****         block();
 157              		.loc 1 14 14
GAS LISTING /tmp/ccoT3P4p.s 			page 5


 158 00bc 2320F500 		sw	a5,0(a0)
  14:src/KSemaphore.cpp ****         block();
 159              		.loc 1 14 5
 160 00c0 13970702 		slli	a4,a5,32
 161 00c4 63440700 		bltz	a4,.L13
 162 00c8 67800000 		ret
 163              	.L13:
  13:src/KSemaphore.cpp ****     if(--val < 0)
 164              		.loc 1 13 25
 165 00cc 130101FF 		addi	sp,sp,-16
 166              		.cfi_def_cfa_offset 16
 167 00d0 23341100 		sd	ra,8(sp)
 168 00d4 23308100 		sd	s0,0(sp)
 169              		.cfi_offset 1, -8
 170              		.cfi_offset 8, -16
 171 00d8 13040101 		addi	s0,sp,16
 172              		.cfi_def_cfa 8, 0
  15:src/KSemaphore.cpp **** }
 173              		.loc 1 15 9 is_stmt 1
  15:src/KSemaphore.cpp **** }
 174              		.loc 1 15 14 is_stmt 0
 175 00dc 97000000 		call	_ZN10KSemaphore5blockEv
 175      E7800000 
 176              	.LVL12:
  16:src/KSemaphore.cpp **** 
 177              		.loc 1 16 1
 178 00e4 83308100 		ld	ra,8(sp)
 179              		.cfi_restore 1
 180 00e8 03340100 		ld	s0,0(sp)
 181              		.cfi_restore 8
 182              		.cfi_def_cfa 2, 16
 183 00ec 13010101 		addi	sp,sp,16
 184              		.cfi_def_cfa_offset 0
 185 00f0 67800000 		jr	ra
 186              		.cfi_endproc
 187              	.LFE24:
 189              		.align	2
 190              		.globl	_ZN10KSemaphore7unblockEv
 192              	_ZN10KSemaphore7unblockEv:
 193              	.LFB30:
  35:src/KSemaphore.cpp **** 
  36:src/KSemaphore.cpp **** //todo
  37:src/KSemaphore.cpp **** void KSemaphore::unblock() {
 194              		.loc 1 37 28 is_stmt 1
 195              		.cfi_startproc
 196              	.LVL13:
 197 00f4 130101FE 		addi	sp,sp,-32
 198              		.cfi_def_cfa_offset 32
 199 00f8 233C1100 		sd	ra,24(sp)
 200 00fc 23388100 		sd	s0,16(sp)
 201 0100 23349100 		sd	s1,8(sp)
 202 0104 23302101 		sd	s2,0(sp)
 203              		.cfi_offset 1, -8
 204              		.cfi_offset 8, -16
 205              		.cfi_offset 9, -24
 206              		.cfi_offset 18, -32
 207 0108 13040102 		addi	s0,sp,32
GAS LISTING /tmp/ccoT3P4p.s 			page 6


 208              		.cfi_def_cfa 8, 0
  38:src/KSemaphore.cpp ****     PCB* fr = queueBlocked.front();
 209              		.loc 1 38 5
 210              		.loc 1 38 33 is_stmt 0
 211 010c 13098500 		addi	s2,a0,8
 212 0110 13050900 		mv	a0,s2
 213              	.LVL14:
 214 0114 97000000 		call	_ZN5Queue5frontEv@plt
 214      E7800000 
 215              	.LVL15:
 216 011c 93040500 		mv	s1,a0
 217              	.LVL16:
  39:src/KSemaphore.cpp ****     queueBlocked.pop();
 218              		.loc 1 39 5 is_stmt 1
 219              		.loc 1 39 21 is_stmt 0
 220 0120 13050900 		mv	a0,s2
 221 0124 97000000 		call	_ZN5Queue3popEv@plt
 221      E7800000 
 222              	.LVL17:
  40:src/KSemaphore.cpp ****     if(fr != 0)
 223              		.loc 1 40 5 is_stmt 1
 224 012c 638A0400 		beqz	s1,.L14
  41:src/KSemaphore.cpp ****     {
  42:src/KSemaphore.cpp ****         fr->setState(PCB::READY);
 225              		.loc 1 42 9
 226              	.LVL18:
 227              	.LBB10:
 228              	.LBB11:
 229              		.loc 2 35 29
 230              		.loc 2 35 35 is_stmt 0
 231 0130 23A80402 		sw	zero,48(s1)
 232              	.LVL19:
 233              	.LBE11:
 234              	.LBE10:
  43:src/KSemaphore.cpp ****         Scheduler::put(fr);
 235              		.loc 1 43 9 is_stmt 1
 236              		.loc 1 43 23 is_stmt 0
 237 0134 13850400 		mv	a0,s1
 238 0138 97000000 		call	_ZN9Scheduler3putEP3PCB@plt
 238      E7800000 
 239              	.LVL20:
 240              	.L14:
  44:src/KSemaphore.cpp ****     }
  45:src/KSemaphore.cpp **** }
 241              		.loc 1 45 1
 242 0140 83308101 		ld	ra,24(sp)
 243              		.cfi_restore 1
 244 0144 03340101 		ld	s0,16(sp)
 245              		.cfi_restore 8
 246              		.cfi_def_cfa 2, 32
 247 0148 83348100 		ld	s1,8(sp)
 248              		.cfi_restore 9
 249              	.LVL21:
 250 014c 03390100 		ld	s2,0(sp)
 251              		.cfi_restore 18
 252              	.LVL22:
 253 0150 13010102 		addi	sp,sp,32
GAS LISTING /tmp/ccoT3P4p.s 			page 7


 254              		.cfi_def_cfa_offset 0
 255 0154 67800000 		jr	ra
 256              		.cfi_endproc
 257              	.LFE30:
 259              		.align	2
 260              		.globl	_ZN10KSemaphore6signalEv
 262              	_ZN10KSemaphore6signalEv:
 263              	.LFB25:
  19:src/KSemaphore.cpp ****     if(++val <= 0)
 264              		.loc 1 19 27 is_stmt 1
 265              		.cfi_startproc
 266              	.LVL23:
  20:src/KSemaphore.cpp ****         unblock();
 267              		.loc 1 20 5
  20:src/KSemaphore.cpp ****         unblock();
 268              		.loc 1 20 10 is_stmt 0
 269 0158 83270500 		lw	a5,0(a0)
  20:src/KSemaphore.cpp ****         unblock();
 270              		.loc 1 20 8
 271 015c 9B871700 		addiw	a5,a5,1
 272 0160 1B870700 		sext.w	a4,a5
  20:src/KSemaphore.cpp ****         unblock();
 273              		.loc 1 20 14
 274 0164 2320F500 		sw	a5,0(a0)
  20:src/KSemaphore.cpp ****         unblock();
 275              		.loc 1 20 5
 276 0168 6358E000 		blez	a4,.L24
  23:src/KSemaphore.cpp **** }
 277              		.loc 1 23 9 is_stmt 1
  23:src/KSemaphore.cpp **** }
 278              		.loc 1 23 15 is_stmt 0
 279 016c 83274500 		lw	a5,4(a0)
  23:src/KSemaphore.cpp **** }
 280              		.loc 1 23 13
 281 0170 2320F500 		sw	a5,0(a0)
 282 0174 67800000 		ret
 283              	.L24:
  19:src/KSemaphore.cpp ****     if(++val <= 0)
 284              		.loc 1 19 27
 285 0178 130101FF 		addi	sp,sp,-16
 286              		.cfi_def_cfa_offset 16
 287 017c 23341100 		sd	ra,8(sp)
 288 0180 23308100 		sd	s0,0(sp)
 289              		.cfi_offset 1, -8
 290              		.cfi_offset 8, -16
 291 0184 13040101 		addi	s0,sp,16
 292              		.cfi_def_cfa 8, 0
  21:src/KSemaphore.cpp ****     else
 293              		.loc 1 21 9 is_stmt 1
  21:src/KSemaphore.cpp ****     else
 294              		.loc 1 21 16 is_stmt 0
 295 0188 97000000 		call	_ZN10KSemaphore7unblockEv
 295      E7800000 
 296              	.LVL24:
  24:src/KSemaphore.cpp **** 
 297              		.loc 1 24 1
 298 0190 83308100 		ld	ra,8(sp)
GAS LISTING /tmp/ccoT3P4p.s 			page 8


 299              		.cfi_restore 1
 300 0194 03340100 		ld	s0,0(sp)
 301              		.cfi_restore 8
 302              		.cfi_def_cfa 2, 16
 303 0198 13010101 		addi	sp,sp,16
 304              		.cfi_def_cfa_offset 0
 305 019c 67800000 		jr	ra
 306              		.cfi_endproc
 307              	.LFE25:
 309              	.Letext0:
 310              		.file 3 "src/../h/../lib/hw.h"
 311              		.file 4 "src/../h/Queue.h"
 312              		.file 5 "src/../h/Scheduler.h"
 313              		.file 6 "src/../h/KSemaphore.h"
GAS LISTING /tmp/ccoT3P4p.s 			page 9


DEFINED SYMBOLS
                            *ABS*:0000000000000000 KSemaphore.cpp
     /tmp/ccoT3P4p.s:9      .text:0000000000000000 _ZN10KSemaphoreC2Ei
     /tmp/ccoT3P4p.s:13     .text:0000000000000000 .L0 
     /tmp/ccoT3P4p.s:15     .text:0000000000000000 .L0 
     /tmp/ccoT3P4p.s:16     .text:0000000000000004 .L0 
     /tmp/ccoT3P4p.s:21     .text:0000000000000014 .L0 
     /tmp/ccoT3P4p.s:22     .text:0000000000000014 .L0 
     /tmp/ccoT3P4p.s:23     .text:0000000000000014 .L0 
     /tmp/ccoT3P4p.s:24     .text:0000000000000014 .L0 
     /tmp/ccoT3P4p.s:26     .text:0000000000000018 .L0 
     /tmp/ccoT3P4p.s:31     .text:0000000000000020 .L0 
     /tmp/ccoT3P4p.s:36     .text:000000000000002c .L0 
     /tmp/ccoT3P4p.s:37     .text:000000000000002c .L0 
     /tmp/ccoT3P4p.s:39     .text:0000000000000030 .L0 
     /tmp/ccoT3P4p.s:42     .text:0000000000000034 .L0 
     /tmp/ccoT3P4p.s:43     .text:0000000000000038 .L0 
     /tmp/ccoT3P4p.s:45     .text:000000000000003c .L0 
     /tmp/ccoT3P4p.s:46     .text:000000000000003c .L0 
     /tmp/ccoT3P4p.s:48     .text:0000000000000040 .L0 
     /tmp/ccoT3P4p.s:51     .text:0000000000000044 .L0 
     /tmp/ccoT3P4p.s:53     .text:0000000000000048 .L0 
     /tmp/ccoT3P4p.s:55     .text:000000000000004c .L0 
     /tmp/ccoT3P4p.s:9      .text:0000000000000000 _ZN10KSemaphoreC1Ei
     /tmp/ccoT3P4p.s:63     .text:000000000000004c _ZN10KSemaphoreD2Ev
     /tmp/ccoT3P4p.s:66     .text:000000000000004c .L0 
     /tmp/ccoT3P4p.s:68     .text:000000000000004c .L0 
     /tmp/ccoT3P4p.s:69     .text:0000000000000050 .L0 
     /tmp/ccoT3P4p.s:72     .text:0000000000000058 .L0 
     /tmp/ccoT3P4p.s:73     .text:0000000000000058 .L0 
     /tmp/ccoT3P4p.s:75     .text:000000000000005c .L0 
     /tmp/ccoT3P4p.s:78     .text:000000000000005c .L0 
     /tmp/ccoT3P4p.s:84     .text:0000000000000068 .L0 
     /tmp/ccoT3P4p.s:85     .text:000000000000006c .L0 
     /tmp/ccoT3P4p.s:87     .text:0000000000000070 .L0 
     /tmp/ccoT3P4p.s:88     .text:0000000000000070 .L0 
     /tmp/ccoT3P4p.s:90     .text:0000000000000074 .L0 
     /tmp/ccoT3P4p.s:92     .text:0000000000000078 .L0 
     /tmp/ccoT3P4p.s:63     .text:000000000000004c _ZN10KSemaphoreD1Ev
     /tmp/ccoT3P4p.s:100    .text:0000000000000078 _ZN10KSemaphore5blockEv
     /tmp/ccoT3P4p.s:103    .text:0000000000000078 .L0 
     /tmp/ccoT3P4p.s:105    .text:0000000000000078 .L0 
     /tmp/ccoT3P4p.s:106    .text:000000000000007c .L0 
     /tmp/ccoT3P4p.s:109    .text:0000000000000084 .L0 
     /tmp/ccoT3P4p.s:110    .text:0000000000000084 .L0 
     /tmp/ccoT3P4p.s:112    .text:0000000000000088 .L0 
     /tmp/ccoT3P4p.s:114    .text:0000000000000088 .L0 
     /tmp/ccoT3P4p.s:115    .text:0000000000000088 .L0 
     /tmp/ccoT3P4p.s:122    .text:0000000000000094 .L0 
     /tmp/ccoT3P4p.s:123    .text:0000000000000094 .L0 
     /tmp/ccoT3P4p.s:129    .text:000000000000009c .L0 
     /tmp/ccoT3P4p.s:130    .text:000000000000009c .L0 
     /tmp/ccoT3P4p.s:133    .text:00000000000000a4 .L0 
     /tmp/ccoT3P4p.s:134    .text:00000000000000a8 .L0 
     /tmp/ccoT3P4p.s:136    .text:00000000000000ac .L0 
     /tmp/ccoT3P4p.s:137    .text:00000000000000ac .L0 
     /tmp/ccoT3P4p.s:139    .text:00000000000000b0 .L0 
GAS LISTING /tmp/ccoT3P4p.s 			page 10


     /tmp/ccoT3P4p.s:141    .text:00000000000000b4 .L0 
     /tmp/ccoT3P4p.s:147    .text:00000000000000b4 _ZN10KSemaphore4waitEv
     /tmp/ccoT3P4p.s:150    .text:00000000000000b4 .L0 
     /tmp/ccoT3P4p.s:152    .text:00000000000000b4 .L0 
     /tmp/ccoT3P4p.s:153    .text:00000000000000b4 .L0 
     /tmp/ccoT3P4p.s:154    .text:00000000000000b4 .L0 
     /tmp/ccoT3P4p.s:156    .text:00000000000000b8 .L0 
     /tmp/ccoT3P4p.s:158    .text:00000000000000bc .L0 
     /tmp/ccoT3P4p.s:160    .text:00000000000000c0 .L0 
     /tmp/ccoT3P4p.s:165    .text:00000000000000cc .L0 
     /tmp/ccoT3P4p.s:166    .text:00000000000000d0 .L0 
     /tmp/ccoT3P4p.s:169    .text:00000000000000d8 .L0 
     /tmp/ccoT3P4p.s:170    .text:00000000000000d8 .L0 
     /tmp/ccoT3P4p.s:172    .text:00000000000000dc .L0 
     /tmp/ccoT3P4p.s:174    .text:00000000000000dc .L0 
     /tmp/ccoT3P4p.s:175    .text:00000000000000dc .L0 
     /tmp/ccoT3P4p.s:178    .text:00000000000000e4 .L0 
     /tmp/ccoT3P4p.s:179    .text:00000000000000e8 .L0 
     /tmp/ccoT3P4p.s:181    .text:00000000000000ec .L0 
     /tmp/ccoT3P4p.s:182    .text:00000000000000ec .L0 
     /tmp/ccoT3P4p.s:184    .text:00000000000000f0 .L0 
     /tmp/ccoT3P4p.s:186    .text:00000000000000f4 .L0 
     /tmp/ccoT3P4p.s:192    .text:00000000000000f4 _ZN10KSemaphore7unblockEv
     /tmp/ccoT3P4p.s:195    .text:00000000000000f4 .L0 
     /tmp/ccoT3P4p.s:197    .text:00000000000000f4 .L0 
     /tmp/ccoT3P4p.s:198    .text:00000000000000f8 .L0 
     /tmp/ccoT3P4p.s:203    .text:0000000000000108 .L0 
     /tmp/ccoT3P4p.s:204    .text:0000000000000108 .L0 
     /tmp/ccoT3P4p.s:205    .text:0000000000000108 .L0 
     /tmp/ccoT3P4p.s:206    .text:0000000000000108 .L0 
     /tmp/ccoT3P4p.s:208    .text:000000000000010c .L0 
     /tmp/ccoT3P4p.s:210    .text:000000000000010c .L0 
     /tmp/ccoT3P4p.s:211    .text:000000000000010c .L0 
     /tmp/ccoT3P4p.s:219    .text:0000000000000120 .L0 
     /tmp/ccoT3P4p.s:220    .text:0000000000000120 .L0 
     /tmp/ccoT3P4p.s:224    .text:000000000000012c .L0 
     /tmp/ccoT3P4p.s:229    .text:0000000000000130 .L0 
     /tmp/ccoT3P4p.s:230    .text:0000000000000130 .L0 
     /tmp/ccoT3P4p.s:231    .text:0000000000000130 .L0 
     /tmp/ccoT3P4p.s:236    .text:0000000000000134 .L0 
     /tmp/ccoT3P4p.s:237    .text:0000000000000134 .L0 
     /tmp/ccoT3P4p.s:242    .text:0000000000000140 .L0 
     /tmp/ccoT3P4p.s:243    .text:0000000000000144 .L0 
     /tmp/ccoT3P4p.s:245    .text:0000000000000148 .L0 
     /tmp/ccoT3P4p.s:246    .text:0000000000000148 .L0 
     /tmp/ccoT3P4p.s:248    .text:000000000000014c .L0 
     /tmp/ccoT3P4p.s:251    .text:0000000000000150 .L0 
     /tmp/ccoT3P4p.s:254    .text:0000000000000154 .L0 
     /tmp/ccoT3P4p.s:256    .text:0000000000000158 .L0 
     /tmp/ccoT3P4p.s:262    .text:0000000000000158 _ZN10KSemaphore6signalEv
     /tmp/ccoT3P4p.s:265    .text:0000000000000158 .L0 
     /tmp/ccoT3P4p.s:267    .text:0000000000000158 .L0 
     /tmp/ccoT3P4p.s:268    .text:0000000000000158 .L0 
     /tmp/ccoT3P4p.s:269    .text:0000000000000158 .L0 
     /tmp/ccoT3P4p.s:271    .text:000000000000015c .L0 
     /tmp/ccoT3P4p.s:274    .text:0000000000000164 .L0 
     /tmp/ccoT3P4p.s:276    .text:0000000000000168 .L0 
GAS LISTING /tmp/ccoT3P4p.s 			page 11


     /tmp/ccoT3P4p.s:278    .text:000000000000016c .L0 
     /tmp/ccoT3P4p.s:279    .text:000000000000016c .L0 
     /tmp/ccoT3P4p.s:281    .text:0000000000000170 .L0 
     /tmp/ccoT3P4p.s:285    .text:0000000000000178 .L0 
     /tmp/ccoT3P4p.s:286    .text:000000000000017c .L0 
     /tmp/ccoT3P4p.s:289    .text:0000000000000184 .L0 
     /tmp/ccoT3P4p.s:290    .text:0000000000000184 .L0 
     /tmp/ccoT3P4p.s:292    .text:0000000000000188 .L0 
     /tmp/ccoT3P4p.s:294    .text:0000000000000188 .L0 
     /tmp/ccoT3P4p.s:295    .text:0000000000000188 .L0 
     /tmp/ccoT3P4p.s:298    .text:0000000000000190 .L0 
     /tmp/ccoT3P4p.s:299    .text:0000000000000194 .L0 
     /tmp/ccoT3P4p.s:301    .text:0000000000000198 .L0 
     /tmp/ccoT3P4p.s:302    .text:0000000000000198 .L0 
     /tmp/ccoT3P4p.s:304    .text:000000000000019c .L0 
     /tmp/ccoT3P4p.s:306    .text:00000000000001a0 .L0 
     /tmp/ccoT3P4p.s:314    .text:00000000000001a0 .L0 
     /tmp/ccoT3P4p.s:115    .text:0000000000000088 .L0 
     /tmp/ccoT3P4p.s:163    .text:00000000000000cc .L13
     /tmp/ccoT3P4p.s:240    .text:0000000000000140 .L14
     /tmp/ccoT3P4p.s:283    .text:0000000000000178 .L24
     /tmp/ccoT3P4p.s:1459   .debug_abbrev:0000000000000000 .Ldebug_abbrev0
     /tmp/ccoT3P4p.s:2670   .debug_str:000000000000039e .LASF119
     /tmp/ccoT3P4p.s:2640   .debug_str:00000000000002d1 .LASF120
     /tmp/ccoT3P4p.s:2754   .debug_str:000000000000064a .LASF121
     /tmp/ccoT3P4p.s:5      .text:0000000000000000 .Ltext0
     /tmp/ccoT3P4p.s:309    .text:00000000000001a0 .Letext0
     /tmp/ccoT3P4p.s:2536   .debug_line:0000000000000000 .Ldebug_line0
     /tmp/ccoT3P4p.s:2634   .debug_str:00000000000002aa .LASF0
     /tmp/ccoT3P4p.s:2652   .debug_str:0000000000000320 .LASF1
     /tmp/ccoT3P4p.s:2706   .debug_str:000000000000053b .LASF2
     /tmp/ccoT3P4p.s:2714   .debug_str:0000000000000569 .LASF4
     /tmp/ccoT3P4p.s:2644   .debug_str:00000000000002f1 .LASF3
     /tmp/ccoT3P4p.s:2548   .debug_str:0000000000000041 .LASF5
     /tmp/ccoT3P4p.s:2694   .debug_str:00000000000004ed .LASF6
     /tmp/ccoT3P4p.s:2690   .debug_str:00000000000004d2 .LASF7
     /tmp/ccoT3P4p.s:2646   .debug_str:0000000000000303 .LASF8
     /tmp/ccoT3P4p.s:2622   .debug_str:0000000000000258 .LASF9
     /tmp/ccoT3P4p.s:2628   .debug_str:0000000000000290 .LASF10
     /tmp/ccoT3P4p.s:2580   .debug_str:0000000000000156 .LASF11
     /tmp/ccoT3P4p.s:2616   .debug_str:000000000000023a .LASF12
     /tmp/ccoT3P4p.s:2592   .debug_str:0000000000000190 .LASF13
     /tmp/ccoT3P4p.s:2578   .debug_str:0000000000000146 .LASF14
     /tmp/ccoT3P4p.s:2732   .debug_str:00000000000005ef .LASF15
     /tmp/ccoT3P4p.s:2612   .debug_str:0000000000000218 .LASF16
     /tmp/ccoT3P4p.s:2728   .debug_str:00000000000005bd .LASF17
     /tmp/ccoT3P4p.s:2756   .debug_str:000000000000066d .LASF28
     /tmp/ccoT3P4p.s:2770   .debug_str:00000000000006d6 .LASF20
     /tmp/ccoT3P4p.s:2648   .debug_str:0000000000000316 .LASF18
     /tmp/ccoT3P4p.s:2582   .debug_str:0000000000000165 .LASF19
     /tmp/ccoT3P4p.s:2740   .debug_str:000000000000060f .LASF21
     /tmp/ccoT3P4p.s:2660   .debug_str:000000000000034f .LASF22
     /tmp/ccoT3P4p.s:2784   .debug_str:0000000000000729 .LASF39
     /tmp/ccoT3P4p.s:2768   .debug_str:00000000000006d0 .LASF24
     /tmp/ccoT3P4p.s:2594   .debug_str:00000000000001a0 .LASF26
     /tmp/ccoT3P4p.s:2636   .debug_str:00000000000002b7 .LASF23
     /tmp/ccoT3P4p.s:2722   .debug_str:0000000000000592 .LASF29
GAS LISTING /tmp/ccoT3P4p.s 			page 12


     /tmp/ccoT3P4p.s:2650   .debug_str:000000000000031b .LASF25
     /tmp/ccoT3P4p.s:2700   .debug_str:0000000000000507 .LASF27
     /tmp/ccoT3P4p.s:2606   .debug_str:00000000000001e4 .LASF30
     /tmp/ccoT3P4p.s:2698   .debug_str:0000000000000500 .LASF45
     /tmp/ccoT3P4p.s:2560   .debug_str:00000000000000ae .LASF47
     /tmp/ccoT3P4p.s:2744   .debug_str:000000000000061a .LASF122
     /tmp/ccoT3P4p.s:2576   .debug_str:0000000000000140 .LASF31
     /tmp/ccoT3P4p.s:2724   .debug_str:00000000000005a7 .LASF32
     /tmp/ccoT3P4p.s:2588   .debug_str:000000000000017c .LASF33
     /tmp/ccoT3P4p.s:2566   .debug_str:00000000000000d8 .LASF34
     /tmp/ccoT3P4p.s:2692   .debug_str:00000000000004e5 .LASF35
     /tmp/ccoT3P4p.s:2586   .debug_str:0000000000000173 .LASF36
     /tmp/ccoT3P4p.s:2738   .debug_str:0000000000000607 .LASF37
     /tmp/ccoT3P4p.s:2630   .debug_str:000000000000029e .LASF38
     /tmp/ccoT3P4p.s:2762   .debug_str:0000000000000694 .LASF40
     /tmp/ccoT3P4p.s:2680   .debug_str:0000000000000484 .LASF123
     /tmp/ccoT3P4p.s:2774   .debug_str:00000000000006f8 .LASF41
     /tmp/ccoT3P4p.s:2790   .debug_str:0000000000000753 .LASF42
     /tmp/ccoT3P4p.s:2786   .debug_str:0000000000000739 .LASF43
     /tmp/ccoT3P4p.s:2750   .debug_str:0000000000000630 .LASF44
     /tmp/ccoT3P4p.s:2602   .debug_str:00000000000001d6 .LASF71
     /tmp/ccoT3P4p.s:2556   .debug_str:0000000000000073 .LASF73
     /tmp/ccoT3P4p.s:2656   .debug_str:000000000000033c .LASF46
     /tmp/ccoT3P4p.s:2684   .debug_str:000000000000049c .LASF48
     /tmp/ccoT3P4p.s:2746   .debug_str:0000000000000620 .LASF49
     /tmp/ccoT3P4p.s:2776   .debug_str:00000000000006fd .LASF50
     /tmp/ccoT3P4p.s:2718   .debug_str:0000000000000578 .LASF51
     /tmp/ccoT3P4p.s:2658   .debug_str:0000000000000342 .LASF52
     /tmp/ccoT3P4p.s:2662   .debug_str:0000000000000354 .LASF53
     /tmp/ccoT3P4p.s:2792   .debug_str:000000000000075f .LASF54
     /tmp/ccoT3P4p.s:2614   .debug_str:000000000000022e .LASF55
     /tmp/ccoT3P4p.s:2542   .debug_str:000000000000001f .LASF56
     /tmp/ccoT3P4p.s:2642   .debug_str:00000000000002e4 .LASF57
     /tmp/ccoT3P4p.s:2720   .debug_str:0000000000000589 .LASF58
     /tmp/ccoT3P4p.s:2672   .debug_str:0000000000000440 .LASF59
     /tmp/ccoT3P4p.s:2710   .debug_str:0000000000000555 .LASF60
     /tmp/ccoT3P4p.s:2730   .debug_str:00000000000005d3 .LASF61
     /tmp/ccoT3P4p.s:2674   .debug_str:0000000000000453 .LASF62
     /tmp/ccoT3P4p.s:2538   .debug_str:0000000000000000 .LASF63
     /tmp/ccoT3P4p.s:2780   .debug_str:000000000000070f .LASF64
     /tmp/ccoT3P4p.s:2688   .debug_str:00000000000004b8 .LASF65
     /tmp/ccoT3P4p.s:2726   .debug_str:00000000000005af .LASF66
     /tmp/ccoT3P4p.s:2696   .debug_str:00000000000004f4 .LASF67
     /tmp/ccoT3P4p.s:2600   .debug_str:00000000000001c6 .LASF68
     /tmp/ccoT3P4p.s:2782   .debug_str:000000000000071e .LASF69
     /tmp/ccoT3P4p.s:2668   .debug_str:000000000000038e .LASF70
     /tmp/ccoT3P4p.s:2610   .debug_str:0000000000000206 .LASF72
     /tmp/ccoT3P4p.s:2772   .debug_str:00000000000006db .LASF74
     /tmp/ccoT3P4p.s:2568   .debug_str:00000000000000e1 .LASF75
     /tmp/ccoT3P4p.s:2758   .debug_str:0000000000000673 .LASF76
     /tmp/ccoT3P4p.s:2716   .debug_str:0000000000000570 .LASF94
     /tmp/ccoT3P4p.s:2752   .debug_str:0000000000000640 .LASF77
     /tmp/ccoT3P4p.s:2686   .debug_str:00000000000004ac .LASF78
     /tmp/ccoT3P4p.s:2598   .debug_str:00000000000001b8 .LASF79
     /tmp/ccoT3P4p.s:2558   .debug_str:0000000000000086 .LASF81
     /tmp/ccoT3P4p.s:2638   .debug_str:00000000000002bc .LASF80
     /tmp/ccoT3P4p.s:2574   .debug_str:0000000000000114 .LASF82
GAS LISTING /tmp/ccoT3P4p.s 			page 13


     /tmp/ccoT3P4p.s:2778   .debug_str:0000000000000708 .LASF124
     /tmp/ccoT3P4p.s:2572   .debug_str:0000000000000103 .LASF125
     /tmp/ccoT3P4p.s:2540   .debug_str:000000000000001a .LASF83
     /tmp/ccoT3P4p.s:2736   .debug_str:0000000000000602 .LASF84
     /tmp/ccoT3P4p.s:2666   .debug_str:0000000000000386 .LASF85
     /tmp/ccoT3P4p.s:2596   .debug_str:00000000000001b2 .LASF86
     /tmp/ccoT3P4p.s:2760   .debug_str:000000000000068c .LASF87
     /tmp/ccoT3P4p.s:2562   .debug_str:00000000000000bc .LASF88
     /tmp/ccoT3P4p.s:2620   .debug_str:000000000000024e .LASF89
     /tmp/ccoT3P4p.s:2552   .debug_str:0000000000000052 .LASF126
     /tmp/ccoT3P4p.s:2788   .debug_str:000000000000073f .LASF127
     /tmp/ccoT3P4p.s:2564   .debug_str:00000000000000c6 .LASF90
     /tmp/ccoT3P4p.s:2682   .debug_str:0000000000000489 .LASF91
     /tmp/ccoT3P4p.s:2748   .debug_str:0000000000000628 .LASF92
     /tmp/ccoT3P4p.s:2704   .debug_str:0000000000000523 .LASF128
     /tmp/ccoT3P4p.s:2554   .debug_str:000000000000006a .LASF93
     /tmp/ccoT3P4p.s:2550   .debug_str:0000000000000048 .LASF95
     /tmp/ccoT3P4p.s:2742   .debug_str:0000000000000615 .LASF96
     /tmp/ccoT3P4p.s:2702   .debug_str:0000000000000518 .LASF97
     /tmp/ccoT3P4p.s:2626   .debug_str:000000000000027c .LASF98
     /tmp/ccoT3P4p.s:2604   .debug_str:00000000000001df .LASF99
     /tmp/ccoT3P4p.s:2764   .debug_str:00000000000006ac .LASF100
     /tmp/ccoT3P4p.s:2734   .debug_str:00000000000005fb .LASF101
     /tmp/ccoT3P4p.s:2678   .debug_str:000000000000046b .LASF102
     /tmp/ccoT3P4p.s:2708   .debug_str:0000000000000549 .LASF103
     /tmp/ccoT3P4p.s:2608   .debug_str:00000000000001f2 .LASF104
     /tmp/ccoT3P4p.s:2584   .debug_str:000000000000016a .LASF105
     /tmp/ccoT3P4p.s:2590   .debug_str:0000000000000186 .LASF106
     /tmp/ccoT3P4p.s:2676   .debug_str:0000000000000462 .LASF107
     /tmp/ccoT3P4p.s:2712   .debug_str:000000000000055e .LASF108
     /tmp/ccoT3P4p.s:2654   .debug_str:0000000000000333 .LASF109
     /tmp/ccoT3P4p.s:2766   .debug_str:00000000000006c3 .LASF110
     /tmp/ccoT3P4p.s:2632   .debug_str:00000000000002a4 .LASF111
     /tmp/ccoT3P4p.s:2794   .debug_str:000000000000076c .LASF112
     /tmp/ccoT3P4p.s:2544   .debug_str:000000000000002f .LASF113
     /tmp/ccoT3P4p.s:2664   .debug_str:000000000000036c .LASF114
     /tmp/ccoT3P4p.s:193    .text:00000000000000f4 .LFB30
     /tmp/ccoT3P4p.s:257    .text:0000000000000158 .LFE30
     /tmp/ccoT3P4p.s:2618   .debug_str:0000000000000249 .LASF115
     /tmp/ccoT3P4p.s:2366   .debug_loc:0000000000000000 .LLST7
     /tmp/ccoT3P4p.s:2392   .debug_loc:0000000000000063 .LLST8
     /tmp/ccoT3P4p.s:227    .text:0000000000000130 .LBB10
     /tmp/ccoT3P4p.s:234    .text:0000000000000134 .LBE10
     /tmp/ccoT3P4p.s:2399   .debug_loc:0000000000000086 .LLST9
     /tmp/ccoT3P4p.s:2407   .debug_loc:00000000000000aa .LLST10
     /tmp/ccoT3P4p.s:215    .text:000000000000011c .LVL15
     /tmp/ccoT3P4p.s:222    .text:000000000000012c .LVL17
     /tmp/ccoT3P4p.s:239    .text:0000000000000140 .LVL20
     /tmp/ccoT3P4p.s:101    .text:0000000000000078 .LFB29
     /tmp/ccoT3P4p.s:142    .text:00000000000000b4 .LFE29
     /tmp/ccoT3P4p.s:2414   .debug_loc:00000000000000cd .LLST3
     /tmp/ccoT3P4p.s:118    .text:0000000000000094 .LBB8
     /tmp/ccoT3P4p.s:127    .text:000000000000009c .LBE8
     /tmp/ccoT3P4p.s:2428   .debug_loc:0000000000000106 .LLST4
     /tmp/ccoT3P4p.s:2436   .debug_loc:000000000000012a .LLST5
     /tmp/ccoT3P4p.s:131    .text:00000000000000a4 .LVL10
     /tmp/ccoT3P4p.s:2546   .debug_str:0000000000000037 .LASF116
GAS LISTING /tmp/ccoT3P4p.s 			page 14


     /tmp/ccoT3P4p.s:2624   .debug_str:0000000000000268 .LASF117
     /tmp/ccoT3P4p.s:64     .text:000000000000004c .LFB27
     /tmp/ccoT3P4p.s:93     .text:0000000000000078 .LFE27
     /tmp/ccoT3P4p.s:2443   .debug_loc:000000000000014d .LLST2
     /tmp/ccoT3P4p.s:81     .text:0000000000000068 .LVL6
     /tmp/ccoT3P4p.s:263    .text:0000000000000158 .LFB25
     /tmp/ccoT3P4p.s:307    .text:00000000000001a0 .LFE25
     /tmp/ccoT3P4p.s:2463   .debug_loc:000000000000019b .LLST11
     /tmp/ccoT3P4p.s:296    .text:0000000000000190 .LVL24
     /tmp/ccoT3P4p.s:148    .text:00000000000000b4 .LFB24
     /tmp/ccoT3P4p.s:187    .text:00000000000000f4 .LFE24
     /tmp/ccoT3P4p.s:2477   .debug_loc:00000000000001d4 .LLST6
     /tmp/ccoT3P4p.s:176    .text:00000000000000e4 .LVL12
     /tmp/ccoT3P4p.s:2570   .debug_str:00000000000000ef .LASF118
     /tmp/ccoT3P4p.s:10     .text:0000000000000000 .LFB22
     /tmp/ccoT3P4p.s:56     .text:000000000000004c .LFE22
     /tmp/ccoT3P4p.s:2491   .debug_loc:000000000000020d .LLST0
     /tmp/ccoT3P4p.s:2509   .debug_loc:0000000000000259 .LLST1
     /tmp/ccoT3P4p.s:34     .text:000000000000002c .LVL2
     /tmp/ccoT3P4p.s:196    .text:00000000000000f4 .LVL13
     /tmp/ccoT3P4p.s:213    .text:0000000000000114 .LVL14
     /tmp/ccoT3P4p.s:252    .text:0000000000000150 .LVL22
     /tmp/ccoT3P4p.s:217    .text:0000000000000120 .LVL16
     /tmp/ccoT3P4p.s:249    .text:000000000000014c .LVL21
     /tmp/ccoT3P4p.s:226    .text:0000000000000130 .LVL18
     /tmp/ccoT3P4p.s:232    .text:0000000000000134 .LVL19
     /tmp/ccoT3P4p.s:104    .text:0000000000000078 .LVL7
     /tmp/ccoT3P4p.s:117    .text:0000000000000094 .LVL8
     /tmp/ccoT3P4p.s:125    .text:000000000000009c .LVL9
     /tmp/ccoT3P4p.s:67     .text:000000000000004c .LVL4
     /tmp/ccoT3P4p.s:79     .text:0000000000000060 .LVL5
     /tmp/ccoT3P4p.s:266    .text:0000000000000158 .LVL23
     /tmp/ccoT3P4p.s:151    .text:00000000000000b4 .LVL11
     /tmp/ccoT3P4p.s:14     .text:0000000000000000 .LVL0
     /tmp/ccoT3P4p.s:32     .text:0000000000000024 .LVL1
     /tmp/ccoT3P4p.s:49     .text:0000000000000040 .LVL3
     /tmp/ccoT3P4p.s:315    .debug_info:0000000000000000 .Ldebug_info0

UNDEFINED SYMBOLS
_ZN5QueueC1Ev
_ZN5QueueD1Ev
_ZN3PCB7runningE
_ZN3PCB8dispatchEv
_ZN5Queue5frontEv
_ZN5Queue3popEv
_ZN9Scheduler3putEP3PCB
