GAS LISTING /tmp/ccoT3P4p.s 			page 1


   1              		.file	"KSemaphore.cpp"
   2              		.option pic
   3              		.option norelax
   4              		.text
   5              	.Ltext0:
   6              		.align	2
   7              		.globl	_ZN10KSemaphoreC2Ei
   9              	_ZN10KSemaphoreC2Ei:
  10              	.LFB22:
  11              		.file 1 "src/KSemaphore.cpp"
   1:src/KSemaphore.cpp **** //
   2:src/KSemaphore.cpp **** // Created by os on 5/2/22.
   3:src/KSemaphore.cpp **** //
   4:src/KSemaphore.cpp **** 
   5:src/KSemaphore.cpp **** #include "../h/KSemaphore.h"
   6:src/KSemaphore.cpp **** #include "../h/MemoryAllocator.h"
   7:src/KSemaphore.cpp **** 
   8:src/KSemaphore.cpp **** KSemaphore::KSemaphore(int val) {
  12              		.loc 1 8 1
  13              		.cfi_startproc
  14              	.LVL0:
  15 0000 130101FE 		addi	sp,sp,-32
  16              		.cfi_def_cfa_offset 32
  17 0004 233C1100 		sd	ra,24(sp)
  18 0008 23388100 		sd	s0,16(sp)
  19 000c 23349100 		sd	s1,8(sp)
  20 0010 23302101 		sd	s2,0(sp)
  21              		.cfi_offset 1, -8
  22              		.cfi_offset 8, -16
  23              		.cfi_offset 9, -24
  24              		.cfi_offset 18, -32
  25 0014 13040102 		addi	s0,sp,32
  26              		.cfi_def_cfa 8, 0
  27 0018 93040500 		mv	s1,a0
  28 001c 13890500 		mv	s2,a1
  29              	.LBB6:
  30              		.loc 1 8 31 is_stmt 0
  31 0020 13058500 		addi	a0,a0,8
  32              	.LVL1:
  33 0024 97000000 		call	_ZN5QueueC1Ev@plt
  33      E7800000 
  34              	.LVL2:
   9:src/KSemaphore.cpp ****     this->val = this->beginVal = val;
  35              		.loc 1 9 5 is_stmt 1
  36              		.loc 1 9 32 is_stmt 0
  37 002c 23A22401 		sw	s2,4(s1)
  38              		.loc 1 9 15
  39 0030 23A02401 		sw	s2,0(s1)
  40              	.LBE6:
  10:src/KSemaphore.cpp **** }
  41              		.loc 1 10 1
  42 0034 83308101 		ld	ra,24(sp)
  43              		.cfi_restore 1
  44 0038 03340101 		ld	s0,16(sp)
  45              		.cfi_restore 8
  46              		.cfi_def_cfa 2, 32
  47 003c 83348100 		ld	s1,8(sp)
GAS LISTING /tmp/ccoT3P4p.s 			page 2


  48              		.cfi_restore 9
  49              	.LVL3:
  50 0040 03390100 		ld	s2,0(sp)
  51              		.cfi_restore 18
  52 0044 13010102 		addi	sp,sp,32
  53              		.cfi_def_cfa_offset 0
  54 0048 67800000 		jr	ra
  55              		.cfi_endproc
  56              	.LFE22:
  58              		.globl	_ZN10KSemaphoreC1Ei
  59              		.set	_ZN10KSemaphoreC1Ei,_ZN10KSemaphoreC2Ei
  60              		.align	2
  61              		.globl	_ZN10KSemaphoreD2Ev
  63              	_ZN10KSemaphoreD2Ev:
  64              	.LFB27:
  11:src/KSemaphore.cpp **** 
  12:src/KSemaphore.cpp **** //todo
  13:src/KSemaphore.cpp **** void KSemaphore::wait() {
  14:src/KSemaphore.cpp ****     if(--val < 0)
  15:src/KSemaphore.cpp ****         block();
  16:src/KSemaphore.cpp **** }
  17:src/KSemaphore.cpp **** 
  18:src/KSemaphore.cpp **** //todo
  19:src/KSemaphore.cpp **** void KSemaphore::signal() {
  20:src/KSemaphore.cpp ****     if(++val <= 0)
  21:src/KSemaphore.cpp ****         unblock();
  22:src/KSemaphore.cpp ****     else
  23:src/KSemaphore.cpp ****         val = beginVal;
  24:src/KSemaphore.cpp **** }
  25:src/KSemaphore.cpp **** 
  26:src/KSemaphore.cpp **** KSemaphore::~KSemaphore() {
  65              		.loc 1 26 1 is_stmt 1
  66              		.cfi_startproc
  67              	.LVL4:
  68 004c 130101FF 		addi	sp,sp,-16
  69              		.cfi_def_cfa_offset 16
  70 0050 23341100 		sd	ra,8(sp)
  71 0054 23308100 		sd	s0,0(sp)
  72              		.cfi_offset 1, -8
  73              		.cfi_offset 8, -16
  74 0058 13040101 		addi	s0,sp,16
  75              		.cfi_def_cfa 8, 0
  76              	.LBB7:
  77              		.loc 1 26 25 is_stmt 0
  78 005c 13058500 		addi	a0,a0,8
  79              	.LVL5:
  80 0060 97000000 		call	_ZN5QueueD1Ev@plt
  80      E7800000 
  81              	.LVL6:
  82              	.LBE7:
  27:src/KSemaphore.cpp ****     //todo
  28:src/KSemaphore.cpp **** }
  83              		.loc 1 28 1
  84 0068 83308100 		ld	ra,8(sp)
  85              		.cfi_restore 1
  86 006c 03340100 		ld	s0,0(sp)
  87              		.cfi_restore 8
GAS LISTING /tmp/ccoT3P4p.s 			page 3


  88              		.cfi_def_cfa 2, 16
  89 0070 13010101 		addi	sp,sp,16
  90              		.cfi_def_cfa_offset 0
  91 0074 67800000 		jr	ra
  92              		.cfi_endproc
  93              	.LFE27:
  95              		.globl	_ZN10KSemaphoreD1Ev
  96              		.set	_ZN10KSemaphoreD1Ev,_ZN10KSemaphoreD2Ev
  97              		.align	2
  98              		.globl	_ZN10KSemaphore5blockEv
 100              	_ZN10KSemaphore5blockEv:
 101              	.LFB29:
  29:src/KSemaphore.cpp **** 
  30:src/KSemaphore.cpp **** //todo
  31:src/KSemaphore.cpp **** void KSemaphore::block() {
 102              		.loc 1 31 26 is_stmt 1
 103              		.cfi_startproc
 104              	.LVL7:
 105 0078 130101FF 		addi	sp,sp,-16
 106              		.cfi_def_cfa_offset 16
 107 007c 23341100 		sd	ra,8(sp)
 108 0080 23308100 		sd	s0,0(sp)
 109              		.cfi_offset 1, -8
 110              		.cfi_offset 8, -16
 111 0084 13040101 		addi	s0,sp,16
 112              		.cfi_def_cfa 8, 0
  32:src/KSemaphore.cpp ****     PCB::running->setState(PCB::SUSPENDED);
 113              		.loc 1 32 5
 114              		.loc 1 32 27 is_stmt 0
 115 0088 97070000 		la	a5,_ZN3PCB7runningE
 115      83B70700 
 116 0090 83B70700 		ld	a5,0(a5)
 117              	.LVL8:
 118              	.LBB8:
 119              	.LBB9:
 120              		.file 2 "src/../h/PCB.h"
   1:src/../h/PCB.h **** //
   2:src/../h/PCB.h **** // Created by os on 4/27/22.
   3:src/../h/PCB.h **** //
   4:src/../h/PCB.h **** 
   5:src/../h/PCB.h **** #ifndef PROJECT_BASE_V1_0_PCB_H
   6:src/../h/PCB.h **** #define PROJECT_BASE_V1_0_PCB_H
   7:src/../h/PCB.h **** 
   8:src/../h/PCB.h **** #include "../lib/hw.h"
   9:src/../h/PCB.h **** #include "Scheduler.h"
  10:src/../h/PCB.h **** #include "Riscv.h"
  11:src/../h/PCB.h **** 
  12:src/../h/PCB.h **** class PCB
  13:src/../h/PCB.h **** {
  14:src/../h/PCB.h **** public:
  15:src/../h/PCB.h ****     using Body = void (*)(void*);
  16:src/../h/PCB.h **** 
  17:src/../h/PCB.h ****     PCB(Body body,  void* args, void* stack_space, uint64 timeSlice);
  18:src/../h/PCB.h ****     ~PCB();
  19:src/../h/PCB.h **** 
  20:src/../h/PCB.h ****     void start();
  21:src/../h/PCB.h ****     static void dispatch();
GAS LISTING /tmp/ccoT3P4p.s 			page 4


  22:src/../h/PCB.h ****     static void sleep(time_t);
  23:src/../h/PCB.h **** 
  24:src/../h/PCB.h ****     static PCB* running;
  25:src/../h/PCB.h ****     static PCB* exitingPCB;
  26:src/../h/PCB.h **** 
  27:src/../h/PCB.h ****     static uint64 timeSliceCounter;
  28:src/../h/PCB.h ****     uint64 getTimeSlice() { return timeSlice;}
  29:src/../h/PCB.h **** 
  30:src/../h/PCB.h ****     void* operator new(size_t size);
  31:src/../h/PCB.h ****     void operator delete(void *p);
  32:src/../h/PCB.h **** 
  33:src/../h/PCB.h ****     enum State{READY, RUNNING, SUSPENDED, FINISHED, EXITING, SLEEPING};
  34:src/../h/PCB.h ****     State getState() {return state;}
  35:src/../h/PCB.h ****     void setState(State s) {state = s;}
 121              		.loc 2 35 29 is_stmt 1
 122              		.loc 2 35 35 is_stmt 0
 123 0094 13072000 		li	a4,2
 124 0098 23A8E702 		sw	a4,48(a5)
 125              	.LVL9:
 126              	.LBE9:
 127              	.LBE8:
  33:src/KSemaphore.cpp ****     PCB::dispatch();
 128              		.loc 1 33 5 is_stmt 1
 129              		.loc 1 33 18 is_stmt 0
 130 009c 97000000 		call	_ZN3PCB8dispatchEv@plt
 130      E7800000 
 131              	.LVL10:
  34:src/KSemaphore.cpp **** }
 132              		.loc 1 34 1
 133 00a4 83308100 		ld	ra,8(sp)
 134              		.cfi_restore 1
 135 00a8 03340100 		ld	s0,0(sp)
 136              		.cfi_restore 8
 137              		.cfi_def_cfa 2, 16
 138 00ac 13010101 		addi	sp,sp,16
 139              		.cfi_def_cfa_offset 0
 140 00b0 67800000 		jr	ra
 141              		.cfi_endproc
 142              	.LFE29:
 144              		.align	2
 145              		.globl	_ZN10KSemaphore4waitEv
 147              	_ZN10KSemaphore4waitEv:
 148              	.LFB24:
  13:src/KSemaphore.cpp ****     if(--val < 0)
 149              		.loc 1 13 25 is_stmt 1
 150              		.cfi_startproc
 151              	.LVL11:
  14:src/KSemaphore.cpp ****         block();
 152              		.loc 1 14 5
  14:src/KSemaphore.cpp ****         block();
 153              		.loc 1 14 10 is_stmt 0
 154 00b4 83270500 		lw	a5,0(a0)
  14:src/KSemaphore.cpp ****         block();
 155              		.loc 1 14 8
 156 00b8 9B87F7FF 		addiw	a5,a5,-1
  14:src/KSemaphore.cpp ****         block();
 157              		.loc 1 14 14
GAS LISTING /tmp/ccoT3P4p.s 			page 5


 158 00bc 2320F500 		sw	a5,0(a0)
  14:src/KSemaphore.cpp ****         block();
 159              		.loc 1 14 5
 160 00c0 13970702 		slli	a4,a5,32
 161 00c4 63440700 		bltz	a4,.L13
 162 00c8 67800000 		ret
 163              	.L13:
  13:src/KSemaphore.cpp ****     if(--val < 0)
 164              		.loc 1 13 25
 165 00cc 130101FF 		addi	sp,sp,-16
 166              		.cfi_def_cfa_offset 16
 167 00d0 23341100 		sd	ra,8(sp)
 168 00d4 23308100 		sd	s0,0(sp)
 169              		.cfi_offset 1, -8
 170              		.cfi_offset 8, -16
 171 00d8 13040101 		addi	s0,sp,16
 172              		.cfi_def_cfa 8, 0
  15:src/KSemaphore.cpp **** }
 173              		.loc 1 15 9 is_stmt 1
  15:src/KSemaphore.cpp **** }
 174              		.loc 1 15 14 is_stmt 0
 175 00dc 97000000 		call	_ZN10KSemaphore5blockEv
 175      E7800000 
 176              	.LVL12:
  16:src/KSemaphore.cpp **** 
 177              		.loc 1 16 1
 178 00e4 83308100 		ld	ra,8(sp)
 179              		.cfi_restore 1
 180 00e8 03340100 		ld	s0,0(sp)
 181              		.cfi_restore 8
 182              		.cfi_def_cfa 2, 16
 183 00ec 13010101 		addi	sp,sp,16
 184              		.cfi_def_cfa_offset 0
 185 00f0 67800000 		jr	ra
 186              		.cfi_endproc
 187              	.LFE24:
 189              		.align	2
 190              		.globl	_ZN10KSemaphore7unblockEv
 192              	_ZN10KSemaphore7unblockEv:
 193              	.LFB30:
  35:src/KSemaphore.cpp **** 
  36:src/KSemaphore.cpp **** //todo
  37:src/KSemaphore.cpp **** void KSemaphore::unblock() {
 194              		.loc 1 37 28 is_stmt 1
 195              		.cfi_startproc
 196              	.LVL13:
 197 00f4 130101FE 		addi	sp,sp,-32
 198              		.cfi_def_cfa_offset 32
 199 00f8 233C1100 		sd	ra,24(sp)
 200 00fc 23388100 		sd	s0,16(sp)
 201 0100 23349100 		sd	s1,8(sp)
 202 0104 23302101 		sd	s2,0(sp)
 203              		.cfi_offset 1, -8
 204              		.cfi_offset 8, -16
 205              		.cfi_offset 9, -24
 206              		.cfi_offset 18, -32
 207 0108 13040102 		addi	s0,sp,32
GAS LISTING /tmp/ccoT3P4p.s 			page 6


 208              		.cfi_def_cfa 8, 0
  38:src/KSemaphore.cpp ****     PCB* fr = queueBlocked.front();
 209              		.loc 1 38 5
 210              		.loc 1 38 33 is_stmt 0
 211 010c 13098500 		addi	s2,a0,8
 212 0110 13050900 		mv	a0,s2
 213              	.LVL14:
 214 0114 97000000 		call	_ZN5Queue5frontEv@plt
 214      E7800000 
 215              	.LVL15:
 216 011c 93040500 		mv	s1,a0
 217              	.LVL16:
  39:src/KSemaphore.cpp ****     queueBlocked.pop();
 218              		.loc 1 39 5 is_stmt 1
 219              		.loc 1 39 21 is_stmt 0
 220 0120 13050900 		mv	a0,s2
 221 0124 97000000 		call	_ZN5Queue3popEv@plt
 221      E7800000 
 222              	.LVL17:
  40:src/KSemaphore.cpp ****     if(fr != 0)
 223              		.loc 1 40 5 is_stmt 1
 224 012c 638A0400 		beqz	s1,.L14
  41:src/KSemaphore.cpp ****     {
  42:src/KSemaphore.cpp ****         fr->setState(PCB::READY);
 225              		.loc 1 42 9
 226              	.LVL18:
 227              	.LBB10:
 228              	.LBB11:
 229              		.loc 2 35 29
 230              		.loc 2 35 35 is_stmt 0
 231 0130 23A80402 		sw	zero,48(s1)
 232              	.LVL19:
 233              	.LBE11:
 234              	.LBE10:
  43:src/KSemaphore.cpp ****         Scheduler::put(fr);
 235              		.loc 1 43 9 is_stmt 1
 236              		.loc 1 43 23 is_stmt 0
 237 0134 13850400 		mv	a0,s1
 238 0138 97000000 		call	_ZN9Scheduler3putEP3PCB@plt
 238      E7800000 
 239              	.LVL20:
 240              	.L14:
  44:src/KSemaphore.cpp ****     }
  45:src/KSemaphore.cpp **** }
 241              		.loc 1 45 1
 242 0140 83308101 		ld	ra,24(sp)
 243              		.cfi_restore 1
 244 0144 03340101 		ld	s0,16(sp)
 245              		.cfi_restore 8
 246              		.cfi_def_cfa 2, 32
 247 0148 83348100 		ld	s1,8(sp)
 248              		.cfi_restore 9
 249              	.LVL21:
 250 014c 03390100 		ld	s2,0(sp)
 251              		.cfi_restore 18
 252              	.LVL22:
 253 0150 13010102 		addi	sp,sp,32
GAS LISTING /tmp/ccoT3P4p.s 			page 7


 254              		.cfi_def_cfa_offset 0
 255 0154 67800000 		jr	ra
 256              		.cfi_endproc
 257              	.LFE30:
 259              		.align	2
 260              		.globl	_ZN10KSemaphore6signalEv
 262              	_ZN10KSemaphore6signalEv:
 263              	.LFB25:
  19:src/KSemaphore.cpp ****     if(++val <= 0)
 264              		.loc 1 19 27 is_stmt 1
 265              		.cfi_startproc
 266              	.LVL23:
  20:src/KSemaphore.cpp ****         unblock();
 267              		.loc 1 20 5
  20:src/KSemaphore.cpp ****         unblock();
 268              		.loc 1 20 10 is_stmt 0
 269 0158 83270500 		lw	a5,0(a0)
  20:src/KSemaphore.cpp ****         unblock();
 270              		.loc 1 20 8
 271 015c 9B871700 		addiw	a5,a5,1
 272 0160 1B870700 		sext.w	a4,a5
  20:src/KSemaphore.cpp ****         unblock();
 273              		.loc 1 20 14
 274 0164 2320F500 		sw	a5,0(a0)
  20:src/KSemaphore.cpp ****         unblock();
 275              		.loc 1 20 5
 276 0168 6358E000 		blez	a4,.L24
  23:src/KSemaphore.cpp **** }
 277              		.loc 1 23 9 is_stmt 1
  23:src/KSemaphore.cpp **** }
 278              		.loc 1 23 15 is_stmt 0
 279 016c 83274500 		lw	a5,4(a0)
  23:src/KSemaphore.cpp **** }
 280              		.loc 1 23 13
 281 0170 2320F500 		sw	a5,0(a0)
 282 0174 67800000 		ret
 283              	.L24:
  19:src/KSemaphore.cpp ****     if(++val <= 0)
 284              		.loc 1 19 27
 285 0178 130101FF 		addi	sp,sp,-16
 286              		.cfi_def_cfa_offset 16
 287 017c 23341100 		sd	ra,8(sp)
 288 0180 23308100 		sd	s0,0(sp)
 289              		.cfi_offset 1, -8
 290              		.cfi_offset 8, -16
 291 0184 13040101 		addi	s0,sp,16
 292              		.cfi_def_cfa 8, 0
  21:src/KSemaphore.cpp ****     else
 293              		.loc 1 21 9 is_stmt 1
  21:src/KSemaphore.cpp ****     else
 294              		.loc 1 21 16 is_stmt 0
 295 0188 97000000 		call	_ZN10KSemaphore7unblockEv
 295      E7800000 
 296              	.LVL24:
  24:src/KSemaphore.cpp **** 
 297              		.loc 1 24 1
 298 0190 83308100 		ld	ra,8(sp)
GAS LISTING /tmp/ccoT3P4p.s 			page 8


 299              		.cfi_restore 1
 300 0194 03340100 		ld	s0,0(sp)
 301              		.cfi_restore 8
 302              		.cfi_def_cfa 2, 16
 303 0198 13010101 		addi	sp,sp,16
 304              		.cfi_def_cfa_offset 0
 305 019c 67800000 		jr	ra
 306              		.cfi_endproc
 307              	.LFE25:
 309              	.Letext0:
 310              		.file 3 "src/../h/../lib/hw.h"
 311              		.file 4 "src/../h/Queue.h"
 312              		.file 5 "src/../h/Scheduler.h"
 313              		.file 6 "src/../h/KSemaphore.h"
GAS LISTING /tmp/ccoT3P4p.s 			page 9

