GAS LISTING /tmp/cc5jCWpM.s 			page 1


   1              		.file	"KSemaphore.cpp"
   2              		.option pic
   3              		.option norelax
   4              		.text
   5              	.Ltext0:
   6              		.align	2
   7              		.globl	_ZN10KSemaphoreC2Ei
   9              	_ZN10KSemaphoreC2Ei:
  10              	.LFB20:
  11              		.file 1 "src/KSemaphore.cpp"
   1:src/KSemaphore.cpp **** //
   2:src/KSemaphore.cpp **** // Created by os on 5/2/22.
   3:src/KSemaphore.cpp **** //
   4:src/KSemaphore.cpp **** 
   5:src/KSemaphore.cpp **** #include "../h/KSemaphore.h"
   6:src/KSemaphore.cpp **** #include "../h/MemoryAllocator.h"
   7:src/KSemaphore.cpp **** 
   8:src/KSemaphore.cpp **** KSemaphore::KSemaphore(int val) {
  12              		.loc 1 8 1
  13              		.cfi_startproc
  14              	.LVL0:
  15 0000 130101FE 		addi	sp,sp,-32
  16              		.cfi_def_cfa_offset 32
  17 0004 233C1100 		sd	ra,24(sp)
  18 0008 23388100 		sd	s0,16(sp)
  19 000c 23349100 		sd	s1,8(sp)
  20 0010 23302101 		sd	s2,0(sp)
  21              		.cfi_offset 1, -8
  22              		.cfi_offset 8, -16
  23              		.cfi_offset 9, -24
  24              		.cfi_offset 18, -32
  25 0014 13040102 		addi	s0,sp,32
  26              		.cfi_def_cfa 8, 0
  27 0018 93040500 		mv	s1,a0
  28 001c 13890500 		mv	s2,a1
  29              	.LBB2:
  30              		.loc 1 8 31 is_stmt 0
  31 0020 13058500 		addi	a0,a0,8
  32              	.LVL1:
  33 0024 97000000 		call	_ZN5QueueC1Ev@plt
  33      E7800000 
  34              	.LVL2:
   9:src/KSemaphore.cpp ****     this->val = val;
  35              		.loc 1 9 5 is_stmt 1
  36              		.loc 1 9 15 is_stmt 0
  37 002c 23A02401 		sw	s2,0(s1)
  38              	.LBE2:
  10:src/KSemaphore.cpp ****     //queueBlocked = (Queue<PCB*>*)kmalloc(sizeof(Queue<PCB*>));
  11:src/KSemaphore.cpp **** }
  39              		.loc 1 11 1
  40 0030 83308101 		ld	ra,24(sp)
  41              		.cfi_restore 1
  42 0034 03340101 		ld	s0,16(sp)
  43              		.cfi_restore 8
  44              		.cfi_def_cfa 2, 32
  45 0038 83348100 		ld	s1,8(sp)
  46              		.cfi_restore 9
GAS LISTING /tmp/cc5jCWpM.s 			page 2


  47              	.LVL3:
  48 003c 03390100 		ld	s2,0(sp)
  49              		.cfi_restore 18
  50 0040 13010102 		addi	sp,sp,32
  51              		.cfi_def_cfa_offset 0
  52 0044 67800000 		jr	ra
  53              		.cfi_endproc
  54              	.LFE20:
  56              		.globl	_ZN10KSemaphoreC1Ei
  57              		.set	_ZN10KSemaphoreC1Ei,_ZN10KSemaphoreC2Ei
  58              		.align	2
  59              		.globl	_ZN10KSemaphore4waitEv
  61              	_ZN10KSemaphore4waitEv:
  62              	.LFB22:
  12:src/KSemaphore.cpp **** 
  13:src/KSemaphore.cpp **** void KSemaphore::wait() {
  63              		.loc 1 13 25 is_stmt 1
  64              		.cfi_startproc
  65              	.LVL4:
  66 0048 130101FF 		addi	sp,sp,-16
  67              		.cfi_def_cfa_offset 16
  68 004c 23348100 		sd	s0,8(sp)
  69              		.cfi_offset 8, -8
  70 0050 13040101 		addi	s0,sp,16
  71              		.cfi_def_cfa 8, 0
  14:src/KSemaphore.cpp ****     //todo
  15:src/KSemaphore.cpp **** }
  72              		.loc 1 15 1 is_stmt 0
  73 0054 03348100 		ld	s0,8(sp)
  74              		.cfi_restore 8
  75              		.cfi_def_cfa 2, 16
  76 0058 13010101 		addi	sp,sp,16
  77              		.cfi_def_cfa_offset 0
  78 005c 67800000 		jr	ra
  79              		.cfi_endproc
  80              	.LFE22:
  82              		.align	2
  83              		.globl	_ZN10KSemaphore6signalEv
  85              	_ZN10KSemaphore6signalEv:
  86              	.LFB23:
  16:src/KSemaphore.cpp **** 
  17:src/KSemaphore.cpp **** void KSemaphore::signal() {
  87              		.loc 1 17 27 is_stmt 1
  88              		.cfi_startproc
  89              	.LVL5:
  90 0060 130101FF 		addi	sp,sp,-16
  91              		.cfi_def_cfa_offset 16
  92 0064 23348100 		sd	s0,8(sp)
  93              		.cfi_offset 8, -8
  94 0068 13040101 		addi	s0,sp,16
  95              		.cfi_def_cfa 8, 0
  18:src/KSemaphore.cpp ****     //todo
  19:src/KSemaphore.cpp **** }
  96              		.loc 1 19 1 is_stmt 0
  97 006c 03348100 		ld	s0,8(sp)
  98              		.cfi_restore 8
  99              		.cfi_def_cfa 2, 16
GAS LISTING /tmp/cc5jCWpM.s 			page 3


 100 0070 13010101 		addi	sp,sp,16
 101              		.cfi_def_cfa_offset 0
 102 0074 67800000 		jr	ra
 103              		.cfi_endproc
 104              	.LFE23:
 106              		.align	2
 107              		.globl	_ZN10KSemaphoreD2Ev
 109              	_ZN10KSemaphoreD2Ev:
 110              	.LFB25:
  20:src/KSemaphore.cpp **** 
  21:src/KSemaphore.cpp **** KSemaphore::~KSemaphore() {
 111              		.loc 1 21 1 is_stmt 1
 112              		.cfi_startproc
 113              	.LVL6:
 114 0078 130101FF 		addi	sp,sp,-16
 115              		.cfi_def_cfa_offset 16
 116 007c 23341100 		sd	ra,8(sp)
 117 0080 23308100 		sd	s0,0(sp)
 118              		.cfi_offset 1, -8
 119              		.cfi_offset 8, -16
 120 0084 13040101 		addi	s0,sp,16
 121              		.cfi_def_cfa 8, 0
 122              	.LBB3:
 123              		.loc 1 21 25 is_stmt 0
 124 0088 13058500 		addi	a0,a0,8
 125              	.LVL7:
 126 008c 97000000 		call	_ZN5QueueD1Ev@plt
 126      E7800000 
 127              	.LVL8:
 128              	.LBE3:
  22:src/KSemaphore.cpp ****     //todo
  23:src/KSemaphore.cpp **** }
 129              		.loc 1 23 1
 130 0094 83308100 		ld	ra,8(sp)
 131              		.cfi_restore 1
 132 0098 03340100 		ld	s0,0(sp)
 133              		.cfi_restore 8
 134              		.cfi_def_cfa 2, 16
 135 009c 13010101 		addi	sp,sp,16
 136              		.cfi_def_cfa_offset 0
 137 00a0 67800000 		jr	ra
 138              		.cfi_endproc
 139              	.LFE25:
 141              		.globl	_ZN10KSemaphoreD1Ev
 142              		.set	_ZN10KSemaphoreD1Ev,_ZN10KSemaphoreD2Ev
 143              	.Letext0:
 144              		.file 2 "src/../h/../lib/hw.h"
 145              		.file 3 "src/../h/Queue.h"
 146              		.file 4 "src/../h/PCB.h"
 147              		.file 5 "src/../h/KSemaphore.h"
GAS LISTING /tmp/cc5jCWpM.s 			page 4


DEFINED SYMBOLS
                            *ABS*:0000000000000000 KSemaphore.cpp
     /tmp/cc5jCWpM.s:9      .text:0000000000000000 _ZN10KSemaphoreC2Ei
     /tmp/cc5jCWpM.s:13     .text:0000000000000000 .L0 
     /tmp/cc5jCWpM.s:15     .text:0000000000000000 .L0 
     /tmp/cc5jCWpM.s:16     .text:0000000000000004 .L0 
     /tmp/cc5jCWpM.s:21     .text:0000000000000014 .L0 
     /tmp/cc5jCWpM.s:22     .text:0000000000000014 .L0 
     /tmp/cc5jCWpM.s:23     .text:0000000000000014 .L0 
     /tmp/cc5jCWpM.s:24     .text:0000000000000014 .L0 
     /tmp/cc5jCWpM.s:26     .text:0000000000000018 .L0 
     /tmp/cc5jCWpM.s:31     .text:0000000000000020 .L0 
     /tmp/cc5jCWpM.s:36     .text:000000000000002c .L0 
     /tmp/cc5jCWpM.s:37     .text:000000000000002c .L0 
     /tmp/cc5jCWpM.s:40     .text:0000000000000030 .L0 
     /tmp/cc5jCWpM.s:41     .text:0000000000000034 .L0 
     /tmp/cc5jCWpM.s:43     .text:0000000000000038 .L0 
     /tmp/cc5jCWpM.s:44     .text:0000000000000038 .L0 
     /tmp/cc5jCWpM.s:46     .text:000000000000003c .L0 
     /tmp/cc5jCWpM.s:49     .text:0000000000000040 .L0 
     /tmp/cc5jCWpM.s:51     .text:0000000000000044 .L0 
     /tmp/cc5jCWpM.s:53     .text:0000000000000048 .L0 
     /tmp/cc5jCWpM.s:9      .text:0000000000000000 _ZN10KSemaphoreC1Ei
     /tmp/cc5jCWpM.s:61     .text:0000000000000048 _ZN10KSemaphore4waitEv
     /tmp/cc5jCWpM.s:64     .text:0000000000000048 .L0 
     /tmp/cc5jCWpM.s:66     .text:0000000000000048 .L0 
     /tmp/cc5jCWpM.s:67     .text:000000000000004c .L0 
     /tmp/cc5jCWpM.s:69     .text:0000000000000050 .L0 
     /tmp/cc5jCWpM.s:71     .text:0000000000000054 .L0 
     /tmp/cc5jCWpM.s:73     .text:0000000000000054 .L0 
     /tmp/cc5jCWpM.s:74     .text:0000000000000058 .L0 
     /tmp/cc5jCWpM.s:75     .text:0000000000000058 .L0 
     /tmp/cc5jCWpM.s:77     .text:000000000000005c .L0 
     /tmp/cc5jCWpM.s:79     .text:0000000000000060 .L0 
     /tmp/cc5jCWpM.s:85     .text:0000000000000060 _ZN10KSemaphore6signalEv
     /tmp/cc5jCWpM.s:88     .text:0000000000000060 .L0 
     /tmp/cc5jCWpM.s:90     .text:0000000000000060 .L0 
     /tmp/cc5jCWpM.s:91     .text:0000000000000064 .L0 
     /tmp/cc5jCWpM.s:93     .text:0000000000000068 .L0 
     /tmp/cc5jCWpM.s:95     .text:000000000000006c .L0 
     /tmp/cc5jCWpM.s:97     .text:000000000000006c .L0 
     /tmp/cc5jCWpM.s:98     .text:0000000000000070 .L0 
     /tmp/cc5jCWpM.s:99     .text:0000000000000070 .L0 
     /tmp/cc5jCWpM.s:101    .text:0000000000000074 .L0 
     /tmp/cc5jCWpM.s:103    .text:0000000000000078 .L0 
     /tmp/cc5jCWpM.s:109    .text:0000000000000078 _ZN10KSemaphoreD2Ev
     /tmp/cc5jCWpM.s:112    .text:0000000000000078 .L0 
     /tmp/cc5jCWpM.s:114    .text:0000000000000078 .L0 
     /tmp/cc5jCWpM.s:115    .text:000000000000007c .L0 
     /tmp/cc5jCWpM.s:118    .text:0000000000000084 .L0 
     /tmp/cc5jCWpM.s:119    .text:0000000000000084 .L0 
     /tmp/cc5jCWpM.s:121    .text:0000000000000088 .L0 
     /tmp/cc5jCWpM.s:124    .text:0000000000000088 .L0 
     /tmp/cc5jCWpM.s:130    .text:0000000000000094 .L0 
     /tmp/cc5jCWpM.s:131    .text:0000000000000098 .L0 
     /tmp/cc5jCWpM.s:133    .text:000000000000009c .L0 
     /tmp/cc5jCWpM.s:134    .text:000000000000009c .L0 
GAS LISTING /tmp/cc5jCWpM.s 			page 5


     /tmp/cc5jCWpM.s:136    .text:00000000000000a0 .L0 
     /tmp/cc5jCWpM.s:138    .text:00000000000000a4 .L0 
     /tmp/cc5jCWpM.s:109    .text:0000000000000078 _ZN10KSemaphoreD1Ev
     /tmp/cc5jCWpM.s:148    .text:00000000000000a4 .L0 
     /tmp/cc5jCWpM.s:897    .debug_abbrev:0000000000000000 .Ldebug_abbrev0
     /tmp/cc5jCWpM.s:1744   .debug_str:000000000000027e .LASF75
     /tmp/cc5jCWpM.s:1720   .debug_str:00000000000001e7 .LASF76
     /tmp/cc5jCWpM.s:1806   .debug_str:000000000000049c .LASF77
     /tmp/cc5jCWpM.s:5      .text:0000000000000000 .Ltext0
     /tmp/cc5jCWpM.s:143    .text:00000000000000a4 .Letext0
     /tmp/cc5jCWpM.s:1652   .debug_line:0000000000000000 .Ldebug_line0
     /tmp/cc5jCWpM.s:1716   .debug_str:00000000000001d5 .LASF0
     /tmp/cc5jCWpM.s:1732   .debug_str:0000000000000236 .LASF1
     /tmp/cc5jCWpM.s:1768   .debug_str:00000000000003b2 .LASF2
     /tmp/cc5jCWpM.s:1772   .debug_str:00000000000003cc .LASF4
     /tmp/cc5jCWpM.s:1724   .debug_str:0000000000000207 .LASF3
     /tmp/cc5jCWpM.s:1660   .debug_str:000000000000001f .LASF5
     /tmp/cc5jCWpM.s:1756   .debug_str:0000000000000368 .LASF6
     /tmp/cc5jCWpM.s:1752   .debug_str:0000000000000345 .LASF7
     /tmp/cc5jCWpM.s:1726   .debug_str:0000000000000219 .LASF8
     /tmp/cc5jCWpM.s:1706   .debug_str:0000000000000186 .LASF9
     /tmp/cc5jCWpM.s:1710   .debug_str:00000000000001aa .LASF10
     /tmp/cc5jCWpM.s:1674   .debug_str:000000000000009c .LASF11
     /tmp/cc5jCWpM.s:1702   .debug_str:0000000000000172 .LASF12
     /tmp/cc5jCWpM.s:1680   .debug_str:00000000000000c7 .LASF13
     /tmp/cc5jCWpM.s:1672   .debug_str:000000000000008c .LASF14
     /tmp/cc5jCWpM.s:1786   .debug_str:0000000000000441 .LASF15
     /tmp/cc5jCWpM.s:1696   .debug_str:0000000000000137 .LASF16
     /tmp/cc5jCWpM.s:1782   .debug_str:000000000000041e .LASF17
     /tmp/cc5jCWpM.s:1808   .debug_str:00000000000004bf .LASF28
     /tmp/cc5jCWpM.s:1814   .debug_str:00000000000004d3 .LASF20
     /tmp/cc5jCWpM.s:1728   .debug_str:000000000000022c .LASF18
     /tmp/cc5jCWpM.s:1676   .debug_str:00000000000000ab .LASF19
     /tmp/cc5jCWpM.s:1794   .debug_str:0000000000000465 .LASF21
     /tmp/cc5jCWpM.s:1738   .debug_str:000000000000025c .LASF22
     /tmp/cc5jCWpM.s:1820   .debug_str:00000000000004f6 .LASF33
     /tmp/cc5jCWpM.s:1812   .debug_str:00000000000004cd .LASF24
     /tmp/cc5jCWpM.s:1682   .debug_str:00000000000000d7 .LASF26
     /tmp/cc5jCWpM.s:1718   .debug_str:00000000000001e2 .LASF23
     /tmp/cc5jCWpM.s:1776   .debug_str:00000000000003e4 .LASF29
     /tmp/cc5jCWpM.s:1730   .debug_str:0000000000000231 .LASF25
     /tmp/cc5jCWpM.s:1762   .debug_str:0000000000000382 .LASF27
     /tmp/cc5jCWpM.s:1692   .debug_str:0000000000000115 .LASF30
     /tmp/cc5jCWpM.s:1760   .debug_str:000000000000037b .LASF37
     /tmp/cc5jCWpM.s:1666   .debug_str:0000000000000061 .LASF39
     /tmp/cc5jCWpM.s:1792   .debug_str:000000000000045d .LASF31
     /tmp/cc5jCWpM.s:1714   .debug_str:00000000000001cf .LASF32
     /tmp/cc5jCWpM.s:1816   .debug_str:00000000000004d8 .LASF34
     /tmp/cc5jCWpM.s:1748   .debug_str:000000000000032c .LASF78
     /tmp/cc5jCWpM.s:1822   .debug_str:0000000000000506 .LASF35
     /tmp/cc5jCWpM.s:1802   .debug_str:0000000000000482 .LASF36
     /tmp/cc5jCWpM.s:1688   .debug_str:0000000000000107 .LASF79
     /tmp/cc5jCWpM.s:1662   .debug_str:0000000000000026 .LASF80
     /tmp/cc5jCWpM.s:1734   .debug_str:0000000000000249 .LASF38
     /tmp/cc5jCWpM.s:1754   .debug_str:0000000000000358 .LASF40
     /tmp/cc5jCWpM.s:1800   .debug_str:000000000000047a .LASF44
     /tmp/cc5jCWpM.s:1780   .debug_str:0000000000000410 .LASF41
GAS LISTING /tmp/cc5jCWpM.s 			page 6


     /tmp/cc5jCWpM.s:1758   .debug_str:000000000000036f .LASF42
     /tmp/cc5jCWpM.s:1686   .debug_str:00000000000000f7 .LASF43
     /tmp/cc5jCWpM.s:1774   .debug_str:00000000000003d3 .LASF45
     /tmp/cc5jCWpM.s:1736   .debug_str:000000000000024f .LASF46
     /tmp/cc5jCWpM.s:1740   .debug_str:0000000000000261 .LASF47
     /tmp/cc5jCWpM.s:1668   .debug_str:000000000000006f .LASF48
     /tmp/cc5jCWpM.s:1712   .debug_str:00000000000001b8 .LASF49
     /tmp/cc5jCWpM.s:1746   .debug_str:0000000000000320 .LASF50
     /tmp/cc5jCWpM.s:1678   .debug_str:00000000000000b0 .LASF51
     /tmp/cc5jCWpM.s:1826   .debug_str:0000000000000511 .LASF52
     /tmp/cc5jCWpM.s:1700   .debug_str:0000000000000166 .LASF53
     /tmp/cc5jCWpM.s:1656   .debug_str:0000000000000005 .LASF54
     /tmp/cc5jCWpM.s:1722   .debug_str:00000000000001fa .LASF55
     /tmp/cc5jCWpM.s:1804   .debug_str:0000000000000492 .LASF56
     /tmp/cc5jCWpM.s:1684   .debug_str:00000000000000e9 .LASF81
     /tmp/cc5jCWpM.s:1664   .debug_str:0000000000000039 .LASF82
     /tmp/cc5jCWpM.s:1818   .debug_str:00000000000004ef .LASF83
     /tmp/cc5jCWpM.s:1670   .debug_str:000000000000007b .LASF84
     /tmp/cc5jCWpM.s:1654   .debug_str:0000000000000000 .LASF57
     /tmp/cc5jCWpM.s:1824   .debug_str:000000000000050c .LASF58
     /tmp/cc5jCWpM.s:1810   .debug_str:00000000000004c5 .LASF59
     /tmp/cc5jCWpM.s:1798   .debug_str:0000000000000470 .LASF60
     /tmp/cc5jCWpM.s:1790   .debug_str:0000000000000454 .LASF61
     /tmp/cc5jCWpM.s:1796   .debug_str:000000000000046b .LASF62
     /tmp/cc5jCWpM.s:1742   .debug_str:0000000000000279 .LASF63
     /tmp/cc5jCWpM.s:1764   .debug_str:0000000000000393 .LASF64
     /tmp/cc5jCWpM.s:1708   .debug_str:0000000000000196 .LASF65
     /tmp/cc5jCWpM.s:1690   .debug_str:0000000000000110 .LASF66
     /tmp/cc5jCWpM.s:1778   .debug_str:00000000000003f9 .LASF67
     /tmp/cc5jCWpM.s:1788   .debug_str:000000000000044d .LASF68
     /tmp/cc5jCWpM.s:1698   .debug_str:000000000000014d .LASF69
     /tmp/cc5jCWpM.s:1770   .debug_str:00000000000003c0 .LASF70
     /tmp/cc5jCWpM.s:1694   .debug_str:0000000000000123 .LASF71
     /tmp/cc5jCWpM.s:1784   .debug_str:0000000000000434 .LASF72
     /tmp/cc5jCWpM.s:1704   .debug_str:0000000000000181 .LASF73
     /tmp/cc5jCWpM.s:1658   .debug_str:0000000000000015 .LASF74
     /tmp/cc5jCWpM.s:1750   .debug_str:0000000000000331 .LASF85
     /tmp/cc5jCWpM.s:110    .text:0000000000000078 .LFB25
     /tmp/cc5jCWpM.s:139    .text:00000000000000a4 .LFE25
     /tmp/cc5jCWpM.s:1587   .debug_loc:0000000000000000 .LLST2
     /tmp/cc5jCWpM.s:127    .text:0000000000000094 .LVL8
     /tmp/cc5jCWpM.s:86     .text:0000000000000060 .LFB23
     /tmp/cc5jCWpM.s:104    .text:0000000000000078 .LFE23
     /tmp/cc5jCWpM.s:62     .text:0000000000000048 .LFB22
     /tmp/cc5jCWpM.s:80     .text:0000000000000060 .LFE22
     /tmp/cc5jCWpM.s:1766   .debug_str:000000000000039e .LASF86
     /tmp/cc5jCWpM.s:10     .text:0000000000000000 .LFB20
     /tmp/cc5jCWpM.s:54     .text:0000000000000048 .LFE20
     /tmp/cc5jCWpM.s:1607   .debug_loc:000000000000004e .LLST0
     /tmp/cc5jCWpM.s:1625   .debug_loc:000000000000009a .LLST1
     /tmp/cc5jCWpM.s:34     .text:000000000000002c .LVL2
     /tmp/cc5jCWpM.s:113    .text:0000000000000078 .LVL6
     /tmp/cc5jCWpM.s:125    .text:000000000000008c .LVL7
     /tmp/cc5jCWpM.s:14     .text:0000000000000000 .LVL0
     /tmp/cc5jCWpM.s:32     .text:0000000000000024 .LVL1
     /tmp/cc5jCWpM.s:47     .text:000000000000003c .LVL3
     /tmp/cc5jCWpM.s:149    .debug_info:0000000000000000 .Ldebug_info0
GAS LISTING /tmp/cc5jCWpM.s 			page 7



UNDEFINED SYMBOLS
_ZN5QueueC1Ev
_ZN5QueueD1Ev
