GAS LISTING /tmp/ccxwygCH.s 			page 1


   1              		.file	"KSemaphore.cpp"
   2              		.option pic
   3              		.option norelax
   4              		.text
   5              	.Ltext0:
   6              		.align	2
   7              		.globl	_ZN10KSemaphoreC2Ei
   9              	_ZN10KSemaphoreC2Ei:
  10              	.LFB22:
  11              		.file 1 "src/KSemaphore.cpp"
   1:src/KSemaphore.cpp **** //
   2:src/KSemaphore.cpp **** // Created by os on 5/2/22.
   3:src/KSemaphore.cpp **** //
   4:src/KSemaphore.cpp **** 
   5:src/KSemaphore.cpp **** #include "../h/KSemaphore.hpp"
   6:src/KSemaphore.cpp **** #include "../h/MemoryAllocator.hpp"
   7:src/KSemaphore.cpp **** 
   8:src/KSemaphore.cpp **** KSemaphore::KSemaphore(int val)
  12              		.loc 1 8 1
  13              		.cfi_startproc
  14              	.LVL0:
  15 0000 130101FF 		addi	sp,sp,-16
  16              		.cfi_def_cfa_offset 16
  17 0004 23348100 		sd	s0,8(sp)
  18              		.cfi_offset 8, -8
  19 0008 13040101 		addi	s0,sp,16
  20              		.cfi_def_cfa 8, 0
  21              	.LBB4:
   9:src/KSemaphore.cpp **** {
  10:src/KSemaphore.cpp ****     this->val = this->beginVal = val;
  22              		.loc 1 10 5
  23              		.loc 1 10 32 is_stmt 0
  24 000c 232AB500 		sw	a1,20(a0)
  25              		.loc 1 10 15
  26 0010 2328B500 		sw	a1,16(a0)
  11:src/KSemaphore.cpp ****     headBlocked = tailBlocked = 0;
  27              		.loc 1 11 5 is_stmt 1
  28              		.loc 1 11 31 is_stmt 0
  29 0014 23340500 		sd	zero,8(a0)
  30              		.loc 1 11 17
  31 0018 23300500 		sd	zero,0(a0)
  32              	.LBE4:
  12:src/KSemaphore.cpp **** }
  33              		.loc 1 12 1
  34 001c 03348100 		ld	s0,8(sp)
  35              		.cfi_restore 8
  36              		.cfi_def_cfa 2, 16
  37 0020 13010101 		addi	sp,sp,16
  38              		.cfi_def_cfa_offset 0
  39 0024 67800000 		jr	ra
  40              		.cfi_endproc
  41              	.LFE22:
  43              		.globl	_ZN10KSemaphoreC1Ei
  44              		.set	_ZN10KSemaphoreC1Ei,_ZN10KSemaphoreC2Ei
  45              		.align	2
  46              		.globl	_ZN10KSemaphore12addToBlockedEP3PCB
  48              	_ZN10KSemaphore12addToBlockedEP3PCB:
GAS LISTING /tmp/ccxwygCH.s 			page 2


  49              	.LFB29:
  13:src/KSemaphore.cpp **** 
  14:src/KSemaphore.cpp **** uint64 KSemaphore::wait() {
  15:src/KSemaphore.cpp ****     if(--val < 0)
  16:src/KSemaphore.cpp ****         block();
  17:src/KSemaphore.cpp **** 
  18:src/KSemaphore.cpp ****     return 0;
  19:src/KSemaphore.cpp **** }
  20:src/KSemaphore.cpp **** 
  21:src/KSemaphore.cpp **** uint64 KSemaphore::signal() {
  22:src/KSemaphore.cpp ****     if(++val <= 0)
  23:src/KSemaphore.cpp ****         unblock();
  24:src/KSemaphore.cpp ****     //else
  25:src/KSemaphore.cpp ****     //    val = beginVal;
  26:src/KSemaphore.cpp **** 
  27:src/KSemaphore.cpp ****     return 0;
  28:src/KSemaphore.cpp **** }
  29:src/KSemaphore.cpp **** 
  30:src/KSemaphore.cpp **** //todo
  31:src/KSemaphore.cpp **** //sta treba da vrate ovi PCB-ovi u wait-u
  32:src/KSemaphore.cpp **** KSemaphore::~KSemaphore()
  33:src/KSemaphore.cpp **** {
  34:src/KSemaphore.cpp ****     while(getFirstBlocked() != 0)
  35:src/KSemaphore.cpp ****     {
  36:src/KSemaphore.cpp ****         PCB* pcb = getFirstBlocked();
  37:src/KSemaphore.cpp ****         removeFirstBlocked();
  38:src/KSemaphore.cpp ****         Scheduler::put(pcb);
  39:src/KSemaphore.cpp ****     }
  40:src/KSemaphore.cpp **** }
  41:src/KSemaphore.cpp **** 
  42:src/KSemaphore.cpp **** void KSemaphore::addToBlocked(PCB* pcb)
  43:src/KSemaphore.cpp **** {
  50              		.loc 1 43 1 is_stmt 1
  51              		.cfi_startproc
  52              	.LVL1:
  53 0028 130101FF 		addi	sp,sp,-16
  54              		.cfi_def_cfa_offset 16
  55 002c 23348100 		sd	s0,8(sp)
  56              		.cfi_offset 8, -8
  57 0030 13040101 		addi	s0,sp,16
  58              		.cfi_def_cfa 8, 0
  44:src/KSemaphore.cpp ****     pcb->nextPCB = 0;
  59              		.loc 1 44 5
  60              		.loc 1 44 18 is_stmt 0
  61 0034 23B00500 		sd	zero,0(a1)
  45:src/KSemaphore.cpp ****     if(headBlocked == 0)
  62              		.loc 1 45 5 is_stmt 1
  63              		.loc 1 45 8 is_stmt 0
  64 0038 83370500 		ld	a5,0(a0)
  65              		.loc 1 45 5
  66 003c 638E0700 		beqz	a5,.L7
  46:src/KSemaphore.cpp ****     {
  47:src/KSemaphore.cpp ****         headBlocked = tailBlocked = pcb;
  48:src/KSemaphore.cpp ****     }
  49:src/KSemaphore.cpp ****     else
  50:src/KSemaphore.cpp ****     {
  51:src/KSemaphore.cpp ****         tailBlocked->nextPCB = pcb;
GAS LISTING /tmp/ccxwygCH.s 			page 3


  67              		.loc 1 51 9 is_stmt 1
  68 0040 83378500 		ld	a5,8(a0)
  69              		.loc 1 51 30 is_stmt 0
  70 0044 23B0B700 		sd	a1,0(a5)
  52:src/KSemaphore.cpp ****         tailBlocked = pcb;
  71              		.loc 1 52 9 is_stmt 1
  72              		.loc 1 52 21 is_stmt 0
  73 0048 2334B500 		sd	a1,8(a0)
  74              	.L3:
  53:src/KSemaphore.cpp ****     }
  54:src/KSemaphore.cpp **** }
  75              		.loc 1 54 1
  76 004c 03348100 		ld	s0,8(sp)
  77              		.cfi_remember_state
  78              		.cfi_restore 8
  79              		.cfi_def_cfa 2, 16
  80 0050 13010101 		addi	sp,sp,16
  81              		.cfi_def_cfa_offset 0
  82 0054 67800000 		jr	ra
  83              	.L7:
  84              		.cfi_restore_state
  47:src/KSemaphore.cpp ****     }
  85              		.loc 1 47 9 is_stmt 1
  47:src/KSemaphore.cpp ****     }
  86              		.loc 1 47 35 is_stmt 0
  87 0058 2334B500 		sd	a1,8(a0)
  47:src/KSemaphore.cpp ****     }
  88              		.loc 1 47 21
  89 005c 2330B500 		sd	a1,0(a0)
  90 0060 6FF0DFFE 		j	.L3
  91              		.cfi_endproc
  92              	.LFE29:
  94              		.align	2
  95              		.globl	_ZN10KSemaphore5blockEv
  97              	_ZN10KSemaphore5blockEv:
  98              	.LFB30:
  55:src/KSemaphore.cpp **** 
  56:src/KSemaphore.cpp **** void KSemaphore::block() {
  99              		.loc 1 56 26 is_stmt 1
 100              		.cfi_startproc
 101              	.LVL2:
 102 0064 130101FF 		addi	sp,sp,-16
 103              		.cfi_def_cfa_offset 16
 104 0068 23341100 		sd	ra,8(sp)
 105 006c 23308100 		sd	s0,0(sp)
 106              		.cfi_offset 1, -8
 107              		.cfi_offset 8, -16
 108 0070 13040101 		addi	s0,sp,16
 109              		.cfi_def_cfa 8, 0
  57:src/KSemaphore.cpp ****     PCB::running->setState(PCB::SUSPENDED);
 110              		.loc 1 57 5
 111              		.loc 1 57 27 is_stmt 0
 112 0074 97070000 		la	a5,_ZN3PCB7runningE
 112      83B70700 
 113 007c 83B50700 		ld	a1,0(a5)
 114              	.LVL3:
 115              	.LBB5:
GAS LISTING /tmp/ccxwygCH.s 			page 4


 116              	.LBB6:
 117              		.file 2 "src/../h/PCB.hpp"
   1:src/../h/PCB.hpp **** //
   2:src/../h/PCB.hpp **** // Created by os on 4/27/22.
   3:src/../h/PCB.hpp **** //
   4:src/../h/PCB.hpp **** 
   5:src/../h/PCB.hpp **** #ifndef PROJECT_BASE_V1_0_PCB_HPP
   6:src/../h/PCB.hpp **** #define PROJECT_BASE_V1_0_PCB_HPP
   7:src/../h/PCB.hpp **** 
   8:src/../h/PCB.hpp **** #include "../lib/hw.h"
   9:src/../h/PCB.hpp **** #include "Scheduler.hpp"
  10:src/../h/PCB.hpp **** #include "Riscv.hpp"
  11:src/../h/PCB.hpp **** 
  12:src/../h/PCB.hpp **** class PCB
  13:src/../h/PCB.hpp **** {
  14:src/../h/PCB.hpp **** public:
  15:src/../h/PCB.hpp ****     using Body = void (*)(void*);
  16:src/../h/PCB.hpp **** 
  17:src/../h/PCB.hpp ****     PCB(Body body,  void* args, void* stack_space, uint64 timeSlice);
  18:src/../h/PCB.hpp ****     ~PCB();
  19:src/../h/PCB.hpp **** 
  20:src/../h/PCB.hpp ****     void start();
  21:src/../h/PCB.hpp ****     static void dispatch();
  22:src/../h/PCB.hpp ****     static void sleep(time_t);
  23:src/../h/PCB.hpp **** 
  24:src/../h/PCB.hpp ****     static PCB* running;
  25:src/../h/PCB.hpp ****     static PCB* exitingPCB;
  26:src/../h/PCB.hpp **** 
  27:src/../h/PCB.hpp ****     static uint64 timeSliceCounter;
  28:src/../h/PCB.hpp ****     uint64 getTimeSlice() { return timeSlice;}
  29:src/../h/PCB.hpp **** 
  30:src/../h/PCB.hpp ****     void* operator new(size_t size);
  31:src/../h/PCB.hpp ****     void operator delete(void *p);
  32:src/../h/PCB.hpp **** 
  33:src/../h/PCB.hpp ****     enum State{READY, RUNNING, SUSPENDED, FINISHED, EXITING, SLEEPING};
  34:src/../h/PCB.hpp ****     State getState() {return state;}
  35:src/../h/PCB.hpp ****     void setState(State s) {state = s;}
 118              		.loc 2 35 29 is_stmt 1
 119              		.loc 2 35 35 is_stmt 0
 120 0080 93072000 		li	a5,2
 121 0084 23A8F502 		sw	a5,48(a1)
 122              	.LVL4:
 123              	.LBE6:
 124              	.LBE5:
  58:src/KSemaphore.cpp ****     addToBlocked(PCB::running);
 125              		.loc 1 58 5 is_stmt 1
 126              		.loc 1 58 17 is_stmt 0
 127 0088 97000000 		call	_ZN10KSemaphore12addToBlockedEP3PCB
 127      E7800000 
 128              	.LVL5:
  59:src/KSemaphore.cpp ****     PCB::dispatch();
 129              		.loc 1 59 5 is_stmt 1
 130              		.loc 1 59 18 is_stmt 0
 131 0090 97000000 		call	_ZN3PCB8dispatchEv@plt
 131      E7800000 
 132              	.LVL6:
  60:src/KSemaphore.cpp **** }
GAS LISTING /tmp/ccxwygCH.s 			page 5


 133              		.loc 1 60 1
 134 0098 83308100 		ld	ra,8(sp)
 135              		.cfi_restore 1
 136 009c 03340100 		ld	s0,0(sp)
 137              		.cfi_restore 8
 138              		.cfi_def_cfa 2, 16
 139 00a0 13010101 		addi	sp,sp,16
 140              		.cfi_def_cfa_offset 0
 141 00a4 67800000 		jr	ra
 142              		.cfi_endproc
 143              	.LFE30:
 145              		.align	2
 146              		.globl	_ZN10KSemaphore4waitEv
 148              	_ZN10KSemaphore4waitEv:
 149              	.LFB24:
  14:src/KSemaphore.cpp ****     if(--val < 0)
 150              		.loc 1 14 27 is_stmt 1
 151              		.cfi_startproc
 152              	.LVL7:
  15:src/KSemaphore.cpp ****         block();
 153              		.loc 1 15 5
  15:src/KSemaphore.cpp ****         block();
 154              		.loc 1 15 10 is_stmt 0
 155 00a8 83270501 		lw	a5,16(a0)
  15:src/KSemaphore.cpp ****         block();
 156              		.loc 1 15 8
 157 00ac 9B87F7FF 		addiw	a5,a5,-1
  15:src/KSemaphore.cpp ****         block();
 158              		.loc 1 15 14
 159 00b0 2328F500 		sw	a5,16(a0)
  15:src/KSemaphore.cpp ****         block();
 160              		.loc 1 15 5
 161 00b4 13970702 		slli	a4,a5,32
 162 00b8 63460700 		bltz	a4,.L16
  18:src/KSemaphore.cpp **** }
 163              		.loc 1 18 5 is_stmt 1
  19:src/KSemaphore.cpp **** 
 164              		.loc 1 19 1 is_stmt 0
 165 00bc 13050000 		li	a0,0
 166              	.LVL8:
 167 00c0 67800000 		ret
 168              	.LVL9:
 169              	.L16:
  14:src/KSemaphore.cpp ****     if(--val < 0)
 170              		.loc 1 14 27
 171 00c4 130101FF 		addi	sp,sp,-16
 172              		.cfi_def_cfa_offset 16
 173 00c8 23341100 		sd	ra,8(sp)
 174 00cc 23308100 		sd	s0,0(sp)
 175              		.cfi_offset 1, -8
 176              		.cfi_offset 8, -16
 177 00d0 13040101 		addi	s0,sp,16
 178              		.cfi_def_cfa 8, 0
  16:src/KSemaphore.cpp **** 
 179              		.loc 1 16 9 is_stmt 1
  16:src/KSemaphore.cpp **** 
 180              		.loc 1 16 14 is_stmt 0
GAS LISTING /tmp/ccxwygCH.s 			page 6


 181 00d4 97000000 		call	_ZN10KSemaphore5blockEv
 181      E7800000 
 182              	.LVL10:
  18:src/KSemaphore.cpp **** }
 183              		.loc 1 18 5 is_stmt 1
  19:src/KSemaphore.cpp **** 
 184              		.loc 1 19 1 is_stmt 0
 185 00dc 13050000 		li	a0,0
 186 00e0 83308100 		ld	ra,8(sp)
 187              		.cfi_restore 1
 188 00e4 03340100 		ld	s0,0(sp)
 189              		.cfi_restore 8
 190              		.cfi_def_cfa 2, 16
 191 00e8 13010101 		addi	sp,sp,16
 192              		.cfi_def_cfa_offset 0
 193 00ec 67800000 		jr	ra
 194              		.cfi_endproc
 195              	.LFE24:
 197              		.align	2
 198              		.globl	_ZN10KSemaphore15getFirstBlockedEv
 200              	_ZN10KSemaphore15getFirstBlockedEv:
 201              	.LFB31:
  61:src/KSemaphore.cpp **** 
  62:src/KSemaphore.cpp **** PCB* KSemaphore::getFirstBlocked()
  63:src/KSemaphore.cpp **** {
 202              		.loc 1 63 1 is_stmt 1
 203              		.cfi_startproc
 204              	.LVL11:
 205 00f0 130101FF 		addi	sp,sp,-16
 206              		.cfi_def_cfa_offset 16
 207 00f4 23348100 		sd	s0,8(sp)
 208              		.cfi_offset 8, -8
 209 00f8 13040101 		addi	s0,sp,16
 210              		.cfi_def_cfa 8, 0
  64:src/KSemaphore.cpp ****    return headBlocked;
 211              		.loc 1 64 4
  65:src/KSemaphore.cpp **** }
 212              		.loc 1 65 1 is_stmt 0
 213 00fc 03350500 		ld	a0,0(a0)
 214              	.LVL12:
 215 0100 03348100 		ld	s0,8(sp)
 216              		.cfi_restore 8
 217              		.cfi_def_cfa 2, 16
 218 0104 13010101 		addi	sp,sp,16
 219              		.cfi_def_cfa_offset 0
 220 0108 67800000 		jr	ra
 221              		.cfi_endproc
 222              	.LFE31:
 224              		.align	2
 225              		.globl	_ZN10KSemaphore18removeFirstBlockedEv
 227              	_ZN10KSemaphore18removeFirstBlockedEv:
 228              	.LFB32:
  66:src/KSemaphore.cpp **** 
  67:src/KSemaphore.cpp **** void KSemaphore::removeFirstBlocked()
  68:src/KSemaphore.cpp **** {
 229              		.loc 1 68 1 is_stmt 1
 230              		.cfi_startproc
GAS LISTING /tmp/ccxwygCH.s 			page 7


 231              	.LVL13:
 232 010c 130101FF 		addi	sp,sp,-16
 233              		.cfi_def_cfa_offset 16
 234 0110 23348100 		sd	s0,8(sp)
 235              		.cfi_offset 8, -8
 236 0114 13040101 		addi	s0,sp,16
 237              		.cfi_def_cfa 8, 0
  69:src/KSemaphore.cpp ****     if(headBlocked == 0)
 238              		.loc 1 69 5
 239              		.loc 1 69 8 is_stmt 0
 240 0118 83370500 		ld	a5,0(a0)
 241              		.loc 1 69 5
 242 011c 638C0700 		beqz	a5,.L19
  70:src/KSemaphore.cpp ****         return;
  71:src/KSemaphore.cpp ****     PCB* first = headBlocked;
 243              		.loc 1 71 5 is_stmt 1
 244              	.LVL14:
  72:src/KSemaphore.cpp ****     headBlocked = headBlocked->nextPCB;
 245              		.loc 1 72 5
 246              		.loc 1 72 32 is_stmt 0
 247 0120 03B70700 		ld	a4,0(a5)
 248              		.loc 1 72 17
 249 0124 2330E500 		sd	a4,0(a0)
  73:src/KSemaphore.cpp ****     first->nextPCB = 0;
 250              		.loc 1 73 5 is_stmt 1
 251              		.loc 1 73 20 is_stmt 0
 252 0128 23B00700 		sd	zero,0(a5)
  74:src/KSemaphore.cpp ****     if(headBlocked == 0)
 253              		.loc 1 74 5 is_stmt 1
 254              		.loc 1 74 8 is_stmt 0
 255 012c 83370500 		ld	a5,0(a0)
 256              	.LVL15:
 257              		.loc 1 74 5
 258 0130 63880700 		beqz	a5,.L22
 259              	.L19:
  75:src/KSemaphore.cpp ****         tailBlocked =0;
  76:src/KSemaphore.cpp **** }
 260              		.loc 1 76 1
 261 0134 03348100 		ld	s0,8(sp)
 262              		.cfi_remember_state
 263              		.cfi_restore 8
 264              		.cfi_def_cfa 2, 16
 265 0138 13010101 		addi	sp,sp,16
 266              		.cfi_def_cfa_offset 0
 267 013c 67800000 		jr	ra
 268              	.L22:
 269              		.cfi_restore_state
  75:src/KSemaphore.cpp ****         tailBlocked =0;
 270              		.loc 1 75 9 is_stmt 1
  75:src/KSemaphore.cpp ****         tailBlocked =0;
 271              		.loc 1 75 21 is_stmt 0
 272 0140 23340500 		sd	zero,8(a0)
 273 0144 6FF01FFF 		j	.L19
 274              		.cfi_endproc
 275              	.LFE32:
 277              		.align	2
 278              		.globl	_ZN10KSemaphoreD2Ev
GAS LISTING /tmp/ccxwygCH.s 			page 8


 280              	_ZN10KSemaphoreD2Ev:
 281              	.LFB27:
  32:src/KSemaphore.cpp **** {
 282              		.loc 1 32 1 is_stmt 1
 283              		.cfi_startproc
 284              		.cfi_personality 0x9b,DW.ref.__gxx_personality_v0
 285              		.cfi_lsda 0x1b,.LLSDA27
 286              	.LVL16:
 287 0148 130101FE 		addi	sp,sp,-32
 288              		.cfi_def_cfa_offset 32
 289 014c 233C1100 		sd	ra,24(sp)
 290 0150 23388100 		sd	s0,16(sp)
 291 0154 23349100 		sd	s1,8(sp)
 292 0158 23302101 		sd	s2,0(sp)
 293              		.cfi_offset 1, -8
 294              		.cfi_offset 8, -16
 295              		.cfi_offset 9, -24
 296              		.cfi_offset 18, -32
 297 015c 13040102 		addi	s0,sp,32
 298              		.cfi_def_cfa 8, 0
 299 0160 13090500 		mv	s2,a0
 300              	.LVL17:
 301              	.L25:
 302              	.LBB7:
  34:src/KSemaphore.cpp ****     {
 303              		.loc 1 34 5
  34:src/KSemaphore.cpp ****     {
 304              		.loc 1 34 29
  34:src/KSemaphore.cpp ****     {
 305              		.loc 1 34 26 is_stmt 0
 306 0164 13050900 		mv	a0,s2
 307 0168 97000000 		call	_ZN10KSemaphore15getFirstBlockedEv
 307      E7800000 
 308              	.LVL18:
 309 0170 93040500 		mv	s1,a0
  34:src/KSemaphore.cpp ****     {
 310              		.loc 1 34 29
 311 0174 63000502 		beqz	a0,.L23
 312              	.LBB8:
  36:src/KSemaphore.cpp ****         removeFirstBlocked();
 313              		.loc 1 36 9 is_stmt 1
 314              	.LVL19:
  37:src/KSemaphore.cpp ****         Scheduler::put(pcb);
 315              		.loc 1 37 9
  37:src/KSemaphore.cpp ****         Scheduler::put(pcb);
 316              		.loc 1 37 27 is_stmt 0
 317 0178 13050900 		mv	a0,s2
 318 017c 97000000 		call	_ZN10KSemaphore18removeFirstBlockedEv
 318      E7800000 
 319              	.LVL20:
  38:src/KSemaphore.cpp ****     }
 320              		.loc 1 38 9 is_stmt 1
  38:src/KSemaphore.cpp ****     }
 321              		.loc 1 38 23 is_stmt 0
 322 0184 13850400 		mv	a0,s1
 323 0188 97000000 		call	_ZN9Scheduler3putEP3PCB@plt
 323      E7800000 
GAS LISTING /tmp/ccxwygCH.s 			page 9


 324              	.LVL21:
 325              	.LBE8:
  34:src/KSemaphore.cpp ****     {
 326              		.loc 1 34 5
 327 0190 6FF05FFD 		j	.L25
 328              	.LVL22:
 329              	.L23:
 330              	.LBE7:
  40:src/KSemaphore.cpp **** 
 331              		.loc 1 40 1
 332 0194 83308101 		ld	ra,24(sp)
 333              		.cfi_restore 1
 334 0198 03340101 		ld	s0,16(sp)
 335              		.cfi_restore 8
 336              		.cfi_def_cfa 2, 32
 337 019c 83348100 		ld	s1,8(sp)
 338              		.cfi_restore 9
 339 01a0 03390100 		ld	s2,0(sp)
 340              		.cfi_restore 18
 341              	.LVL23:
 342 01a4 13010102 		addi	sp,sp,32
 343              		.cfi_def_cfa_offset 0
 344 01a8 67800000 		jr	ra
 345              		.cfi_endproc
 346              	.LFE27:
 347              		.globl	__gxx_personality_v0
 348              		.section	.gcc_except_table,"a",@progbits
 349              	.LLSDA27:
 350 0000 FF       		.byte	0xff
 351 0001 FF       		.byte	0xff
 352 0002 03       		.byte	0x3
 353 0003 00       		.byte	0
 354              		.text
 356              		.globl	_ZN10KSemaphoreD1Ev
 357              		.set	_ZN10KSemaphoreD1Ev,_ZN10KSemaphoreD2Ev
 358              		.align	2
 359              		.globl	_ZN10KSemaphore7unblockEv
 361              	_ZN10KSemaphore7unblockEv:
 362              	.LFB33:
  77:src/KSemaphore.cpp **** 
  78:src/KSemaphore.cpp **** void KSemaphore::unblock() {
 363              		.loc 1 78 28 is_stmt 1
 364              		.cfi_startproc
 365              	.LVL24:
 366 01ac 130101FE 		addi	sp,sp,-32
 367              		.cfi_def_cfa_offset 32
 368 01b0 233C1100 		sd	ra,24(sp)
 369 01b4 23388100 		sd	s0,16(sp)
 370 01b8 23349100 		sd	s1,8(sp)
 371 01bc 23302101 		sd	s2,0(sp)
 372              		.cfi_offset 1, -8
 373              		.cfi_offset 8, -16
 374              		.cfi_offset 9, -24
 375              		.cfi_offset 18, -32
 376 01c0 13040102 		addi	s0,sp,32
 377              		.cfi_def_cfa 8, 0
 378 01c4 13090500 		mv	s2,a0
GAS LISTING /tmp/ccxwygCH.s 			page 10


  79:src/KSemaphore.cpp ****     PCB* fr = getFirstBlocked();
 379              		.loc 1 79 5
 380              		.loc 1 79 30 is_stmt 0
 381 01c8 97000000 		call	_ZN10KSemaphore15getFirstBlockedEv
 381      E7800000 
 382              	.LVL25:
 383 01d0 93040500 		mv	s1,a0
 384              	.LVL26:
  80:src/KSemaphore.cpp ****     removeFirstBlocked();
 385              		.loc 1 80 5 is_stmt 1
 386              		.loc 1 80 23 is_stmt 0
 387 01d4 13050900 		mv	a0,s2
 388 01d8 97000000 		call	_ZN10KSemaphore18removeFirstBlockedEv
 388      E7800000 
 389              	.LVL27:
  81:src/KSemaphore.cpp ****     if(fr != 0)
 390              		.loc 1 81 5 is_stmt 1
 391 01e0 63880400 		beqz	s1,.L27
  82:src/KSemaphore.cpp ****         Scheduler::put(fr);
 392              		.loc 1 82 9
 393              		.loc 1 82 23 is_stmt 0
 394 01e4 13850400 		mv	a0,s1
 395 01e8 97000000 		call	_ZN9Scheduler3putEP3PCB@plt
 395      E7800000 
 396              	.LVL28:
 397              	.L27:
  83:src/KSemaphore.cpp **** }
 398              		.loc 1 83 1
 399 01f0 83308101 		ld	ra,24(sp)
 400              		.cfi_restore 1
 401 01f4 03340101 		ld	s0,16(sp)
 402              		.cfi_restore 8
 403              		.cfi_def_cfa 2, 32
 404 01f8 83348100 		ld	s1,8(sp)
 405              		.cfi_restore 9
 406              	.LVL29:
 407 01fc 03390100 		ld	s2,0(sp)
 408              		.cfi_restore 18
 409              	.LVL30:
 410 0200 13010102 		addi	sp,sp,32
 411              		.cfi_def_cfa_offset 0
 412 0204 67800000 		jr	ra
 413              		.cfi_endproc
 414              	.LFE33:
 416              		.align	2
 417              		.globl	_ZN10KSemaphore6signalEv
 419              	_ZN10KSemaphore6signalEv:
 420              	.LFB25:
  21:src/KSemaphore.cpp ****     if(++val <= 0)
 421              		.loc 1 21 29 is_stmt 1
 422              		.cfi_startproc
 423              	.LVL31:
  22:src/KSemaphore.cpp ****         unblock();
 424              		.loc 1 22 5
  22:src/KSemaphore.cpp ****         unblock();
 425              		.loc 1 22 10 is_stmt 0
 426 0208 83270501 		lw	a5,16(a0)
GAS LISTING /tmp/ccxwygCH.s 			page 11


  22:src/KSemaphore.cpp ****         unblock();
 427              		.loc 1 22 8
 428 020c 9B871700 		addiw	a5,a5,1
 429 0210 1B870700 		sext.w	a4,a5
  22:src/KSemaphore.cpp ****         unblock();
 430              		.loc 1 22 14
 431 0214 2328F500 		sw	a5,16(a0)
  22:src/KSemaphore.cpp ****         unblock();
 432              		.loc 1 22 5
 433 0218 6356E000 		blez	a4,.L36
  27:src/KSemaphore.cpp **** }
 434              		.loc 1 27 5 is_stmt 1
  28:src/KSemaphore.cpp **** 
 435              		.loc 1 28 1 is_stmt 0
 436 021c 13050000 		li	a0,0
 437              	.LVL32:
 438 0220 67800000 		ret
 439              	.LVL33:
 440              	.L36:
  21:src/KSemaphore.cpp ****     if(++val <= 0)
 441              		.loc 1 21 29
 442 0224 130101FF 		addi	sp,sp,-16
 443              		.cfi_def_cfa_offset 16
 444 0228 23341100 		sd	ra,8(sp)
 445 022c 23308100 		sd	s0,0(sp)
 446              		.cfi_offset 1, -8
 447              		.cfi_offset 8, -16
 448 0230 13040101 		addi	s0,sp,16
 449              		.cfi_def_cfa 8, 0
  23:src/KSemaphore.cpp ****     //else
 450              		.loc 1 23 9 is_stmt 1
  23:src/KSemaphore.cpp ****     //else
 451              		.loc 1 23 16 is_stmt 0
 452 0234 97000000 		call	_ZN10KSemaphore7unblockEv
 452      E7800000 
 453              	.LVL34:
  27:src/KSemaphore.cpp **** }
 454              		.loc 1 27 5 is_stmt 1
  28:src/KSemaphore.cpp **** 
 455              		.loc 1 28 1 is_stmt 0
 456 023c 13050000 		li	a0,0
 457 0240 83308100 		ld	ra,8(sp)
 458              		.cfi_restore 1
 459 0244 03340100 		ld	s0,0(sp)
 460              		.cfi_restore 8
 461              		.cfi_def_cfa 2, 16
 462 0248 13010101 		addi	sp,sp,16
 463              		.cfi_def_cfa_offset 0
 464 024c 67800000 		jr	ra
 465              		.cfi_endproc
 466              	.LFE25:
 468              		.align	2
 469              		.globl	_ZN10KSemaphorenwEm
 471              	_ZN10KSemaphorenwEm:
 472              	.LFB34:
  84:src/KSemaphore.cpp **** 
  85:src/KSemaphore.cpp **** void *KSemaphore::operator new(size_t size) {
GAS LISTING /tmp/ccxwygCH.s 			page 12


 473              		.loc 1 85 45 is_stmt 1
 474              		.cfi_startproc
 475              	.LVL35:
 476 0250 130101FF 		addi	sp,sp,-16
 477              		.cfi_def_cfa_offset 16
 478 0254 23341100 		sd	ra,8(sp)
 479 0258 23308100 		sd	s0,0(sp)
 480              		.cfi_offset 1, -8
 481              		.cfi_offset 8, -16
 482 025c 13040101 		addi	s0,sp,16
 483              		.cfi_def_cfa 8, 0
  86:src/KSemaphore.cpp ****     return kmalloc(size);
 484              		.loc 1 86 5
 485              		.loc 1 86 19 is_stmt 0
 486 0260 97000000 		call	_Z7kmallocm@plt
 486      E7800000 
 487              	.LVL36:
  87:src/KSemaphore.cpp **** }
 488              		.loc 1 87 1
 489 0268 83308100 		ld	ra,8(sp)
 490              		.cfi_restore 1
 491 026c 03340100 		ld	s0,0(sp)
 492              		.cfi_restore 8
 493              		.cfi_def_cfa 2, 16
 494 0270 13010101 		addi	sp,sp,16
 495              		.cfi_def_cfa_offset 0
 496 0274 67800000 		jr	ra
 497              		.cfi_endproc
 498              	.LFE34:
 500              		.align	2
 501              		.globl	_ZN10KSemaphoredlEPv
 503              	_ZN10KSemaphoredlEPv:
 504              	.LFB35:
  88:src/KSemaphore.cpp **** 
  89:src/KSemaphore.cpp **** void KSemaphore::operator delete(void *p) {
 505              		.loc 1 89 43 is_stmt 1
 506              		.cfi_startproc
 507              	.LVL37:
 508 0278 130101FF 		addi	sp,sp,-16
 509              		.cfi_def_cfa_offset 16
 510 027c 23341100 		sd	ra,8(sp)
 511 0280 23308100 		sd	s0,0(sp)
 512              		.cfi_offset 1, -8
 513              		.cfi_offset 8, -16
 514 0284 13040101 		addi	s0,sp,16
 515              		.cfi_def_cfa 8, 0
  90:src/KSemaphore.cpp ****     kfree(p);
 516              		.loc 1 90 5
 517              		.loc 1 90 10 is_stmt 0
 518 0288 97000000 		call	_Z5kfreePv@plt
 518      E7800000 
 519              	.LVL38:
  91:src/KSemaphore.cpp **** }
 520              		.loc 1 91 1
 521 0290 83308100 		ld	ra,8(sp)
 522              		.cfi_restore 1
 523 0294 03340100 		ld	s0,0(sp)
GAS LISTING /tmp/ccxwygCH.s 			page 13


 524              		.cfi_restore 8
 525              		.cfi_def_cfa 2, 16
 526 0298 13010101 		addi	sp,sp,16
 527              		.cfi_def_cfa_offset 0
 528 029c 67800000 		jr	ra
 529              		.cfi_endproc
 530              	.LFE35:
 532              	.Letext0:
 533              		.file 3 "src/../h/../lib/hw.h"
 534              		.file 4 "src/../h/Queue.hpp"
 535              		.file 5 "src/../h/Scheduler.hpp"
 536              		.file 6 "src/../h/KSemaphore.hpp"
 537              		.file 7 "src/../h/MemoryAllocator.hpp"
 3494              		.align	3
 3497              	DW.ref.__gxx_personality_v0:
 3498 0000 00000000 		.dword	__gxx_personality_v0
 3498      00000000 
 3499              		.ident	"GCC: (Ubuntu 9.3.0-17ubuntu1~20.04) 9.3.0"
 3500              		.section	.note.GNU-stack,"",@progbits
GAS LISTING /tmp/ccxwygCH.s 			page 14


DEFINED SYMBOLS
                            *ABS*:0000000000000000 KSemaphore.cpp
     /tmp/ccxwygCH.s:9      .text:0000000000000000 _ZN10KSemaphoreC2Ei
     /tmp/ccxwygCH.s:13     .text:0000000000000000 .L0 
     /tmp/ccxwygCH.s:15     .text:0000000000000000 .L0 
     /tmp/ccxwygCH.s:16     .text:0000000000000004 .L0 
     /tmp/ccxwygCH.s:18     .text:0000000000000008 .L0 
     /tmp/ccxwygCH.s:20     .text:000000000000000c .L0 
     /tmp/ccxwygCH.s:23     .text:000000000000000c .L0 
     /tmp/ccxwygCH.s:24     .text:000000000000000c .L0 
     /tmp/ccxwygCH.s:26     .text:0000000000000010 .L0 
     /tmp/ccxwygCH.s:28     .text:0000000000000014 .L0 
     /tmp/ccxwygCH.s:29     .text:0000000000000014 .L0 
     /tmp/ccxwygCH.s:31     .text:0000000000000018 .L0 
     /tmp/ccxwygCH.s:34     .text:000000000000001c .L0 
     /tmp/ccxwygCH.s:35     .text:0000000000000020 .L0 
     /tmp/ccxwygCH.s:36     .text:0000000000000020 .L0 
     /tmp/ccxwygCH.s:38     .text:0000000000000024 .L0 
     /tmp/ccxwygCH.s:40     .text:0000000000000028 .L0 
     /tmp/ccxwygCH.s:9      .text:0000000000000000 _ZN10KSemaphoreC1Ei
     /tmp/ccxwygCH.s:48     .text:0000000000000028 _ZN10KSemaphore12addToBlockedEP3PCB
     /tmp/ccxwygCH.s:51     .text:0000000000000028 .L0 
     /tmp/ccxwygCH.s:53     .text:0000000000000028 .L0 
     /tmp/ccxwygCH.s:54     .text:000000000000002c .L0 
     /tmp/ccxwygCH.s:56     .text:0000000000000030 .L0 
     /tmp/ccxwygCH.s:58     .text:0000000000000034 .L0 
     /tmp/ccxwygCH.s:60     .text:0000000000000034 .L0 
     /tmp/ccxwygCH.s:61     .text:0000000000000034 .L0 
     /tmp/ccxwygCH.s:63     .text:0000000000000038 .L0 
     /tmp/ccxwygCH.s:64     .text:0000000000000038 .L0 
     /tmp/ccxwygCH.s:66     .text:000000000000003c .L0 
     /tmp/ccxwygCH.s:68     .text:0000000000000040 .L0 
     /tmp/ccxwygCH.s:70     .text:0000000000000044 .L0 
     /tmp/ccxwygCH.s:72     .text:0000000000000048 .L0 
     /tmp/ccxwygCH.s:73     .text:0000000000000048 .L0 
     /tmp/ccxwygCH.s:76     .text:000000000000004c .L0 
     /tmp/ccxwygCH.s:77     .text:0000000000000050 .L0 
     /tmp/ccxwygCH.s:78     .text:0000000000000050 .L0 
     /tmp/ccxwygCH.s:79     .text:0000000000000050 .L0 
     /tmp/ccxwygCH.s:81     .text:0000000000000054 .L0 
     /tmp/ccxwygCH.s:84     .text:0000000000000058 .L0 
     /tmp/ccxwygCH.s:86     .text:0000000000000058 .L0 
     /tmp/ccxwygCH.s:87     .text:0000000000000058 .L0 
     /tmp/ccxwygCH.s:89     .text:000000000000005c .L0 
     /tmp/ccxwygCH.s:91     .text:0000000000000064 .L0 
     /tmp/ccxwygCH.s:97     .text:0000000000000064 _ZN10KSemaphore5blockEv
     /tmp/ccxwygCH.s:100    .text:0000000000000064 .L0 
     /tmp/ccxwygCH.s:102    .text:0000000000000064 .L0 
     /tmp/ccxwygCH.s:103    .text:0000000000000068 .L0 
     /tmp/ccxwygCH.s:106    .text:0000000000000070 .L0 
     /tmp/ccxwygCH.s:107    .text:0000000000000070 .L0 
     /tmp/ccxwygCH.s:109    .text:0000000000000074 .L0 
     /tmp/ccxwygCH.s:111    .text:0000000000000074 .L0 
     /tmp/ccxwygCH.s:112    .text:0000000000000074 .L0 
     /tmp/ccxwygCH.s:119    .text:0000000000000080 .L0 
     /tmp/ccxwygCH.s:120    .text:0000000000000080 .L0 
     /tmp/ccxwygCH.s:126    .text:0000000000000088 .L0 
GAS LISTING /tmp/ccxwygCH.s 			page 15


     /tmp/ccxwygCH.s:127    .text:0000000000000088 .L0 
     /tmp/ccxwygCH.s:130    .text:0000000000000090 .L0 
     /tmp/ccxwygCH.s:131    .text:0000000000000090 .L0 
     /tmp/ccxwygCH.s:134    .text:0000000000000098 .L0 
     /tmp/ccxwygCH.s:135    .text:000000000000009c .L0 
     /tmp/ccxwygCH.s:137    .text:00000000000000a0 .L0 
     /tmp/ccxwygCH.s:138    .text:00000000000000a0 .L0 
     /tmp/ccxwygCH.s:140    .text:00000000000000a4 .L0 
     /tmp/ccxwygCH.s:142    .text:00000000000000a8 .L0 
     /tmp/ccxwygCH.s:148    .text:00000000000000a8 _ZN10KSemaphore4waitEv
     /tmp/ccxwygCH.s:151    .text:00000000000000a8 .L0 
     /tmp/ccxwygCH.s:153    .text:00000000000000a8 .L0 
     /tmp/ccxwygCH.s:154    .text:00000000000000a8 .L0 
     /tmp/ccxwygCH.s:155    .text:00000000000000a8 .L0 
     /tmp/ccxwygCH.s:157    .text:00000000000000ac .L0 
     /tmp/ccxwygCH.s:159    .text:00000000000000b0 .L0 
     /tmp/ccxwygCH.s:161    .text:00000000000000b4 .L0 
     /tmp/ccxwygCH.s:164    .text:00000000000000bc .L0 
     /tmp/ccxwygCH.s:165    .text:00000000000000bc .L0 
     /tmp/ccxwygCH.s:171    .text:00000000000000c4 .L0 
     /tmp/ccxwygCH.s:172    .text:00000000000000c8 .L0 
     /tmp/ccxwygCH.s:175    .text:00000000000000d0 .L0 
     /tmp/ccxwygCH.s:176    .text:00000000000000d0 .L0 
     /tmp/ccxwygCH.s:178    .text:00000000000000d4 .L0 
     /tmp/ccxwygCH.s:180    .text:00000000000000d4 .L0 
     /tmp/ccxwygCH.s:181    .text:00000000000000d4 .L0 
     /tmp/ccxwygCH.s:184    .text:00000000000000dc .L0 
     /tmp/ccxwygCH.s:185    .text:00000000000000dc .L0 
     /tmp/ccxwygCH.s:187    .text:00000000000000e4 .L0 
     /tmp/ccxwygCH.s:189    .text:00000000000000e8 .L0 
     /tmp/ccxwygCH.s:190    .text:00000000000000e8 .L0 
     /tmp/ccxwygCH.s:192    .text:00000000000000ec .L0 
     /tmp/ccxwygCH.s:194    .text:00000000000000f0 .L0 
     /tmp/ccxwygCH.s:200    .text:00000000000000f0 _ZN10KSemaphore15getFirstBlockedEv
     /tmp/ccxwygCH.s:203    .text:00000000000000f0 .L0 
     /tmp/ccxwygCH.s:205    .text:00000000000000f0 .L0 
     /tmp/ccxwygCH.s:206    .text:00000000000000f4 .L0 
     /tmp/ccxwygCH.s:208    .text:00000000000000f8 .L0 
     /tmp/ccxwygCH.s:210    .text:00000000000000fc .L0 
     /tmp/ccxwygCH.s:212    .text:00000000000000fc .L0 
     /tmp/ccxwygCH.s:213    .text:00000000000000fc .L0 
     /tmp/ccxwygCH.s:216    .text:0000000000000104 .L0 
     /tmp/ccxwygCH.s:217    .text:0000000000000104 .L0 
     /tmp/ccxwygCH.s:219    .text:0000000000000108 .L0 
     /tmp/ccxwygCH.s:221    .text:000000000000010c .L0 
     /tmp/ccxwygCH.s:227    .text:000000000000010c _ZN10KSemaphore18removeFirstBlockedEv
     /tmp/ccxwygCH.s:230    .text:000000000000010c .L0 
     /tmp/ccxwygCH.s:232    .text:000000000000010c .L0 
     /tmp/ccxwygCH.s:233    .text:0000000000000110 .L0 
     /tmp/ccxwygCH.s:235    .text:0000000000000114 .L0 
     /tmp/ccxwygCH.s:237    .text:0000000000000118 .L0 
     /tmp/ccxwygCH.s:239    .text:0000000000000118 .L0 
     /tmp/ccxwygCH.s:240    .text:0000000000000118 .L0 
     /tmp/ccxwygCH.s:242    .text:000000000000011c .L0 
     /tmp/ccxwygCH.s:245    .text:0000000000000120 .L0 
     /tmp/ccxwygCH.s:246    .text:0000000000000120 .L0 
     /tmp/ccxwygCH.s:247    .text:0000000000000120 .L0 
GAS LISTING /tmp/ccxwygCH.s 			page 16


     /tmp/ccxwygCH.s:249    .text:0000000000000124 .L0 
     /tmp/ccxwygCH.s:251    .text:0000000000000128 .L0 
     /tmp/ccxwygCH.s:252    .text:0000000000000128 .L0 
     /tmp/ccxwygCH.s:254    .text:000000000000012c .L0 
     /tmp/ccxwygCH.s:255    .text:000000000000012c .L0 
     /tmp/ccxwygCH.s:258    .text:0000000000000130 .L0 
     /tmp/ccxwygCH.s:261    .text:0000000000000134 .L0 
     /tmp/ccxwygCH.s:262    .text:0000000000000138 .L0 
     /tmp/ccxwygCH.s:263    .text:0000000000000138 .L0 
     /tmp/ccxwygCH.s:264    .text:0000000000000138 .L0 
     /tmp/ccxwygCH.s:266    .text:000000000000013c .L0 
     /tmp/ccxwygCH.s:269    .text:0000000000000140 .L0 
     /tmp/ccxwygCH.s:271    .text:0000000000000140 .L0 
     /tmp/ccxwygCH.s:272    .text:0000000000000140 .L0 
     /tmp/ccxwygCH.s:274    .text:0000000000000148 .L0 
     /tmp/ccxwygCH.s:280    .text:0000000000000148 _ZN10KSemaphoreD2Ev
     /tmp/ccxwygCH.s:283    .text:0000000000000148 .L0 
     /tmp/ccxwygCH.s:3497   .data.rel.local.DW.ref.__gxx_personality_v0:0000000000000000 DW.ref.__gxx_personality_v0
     /tmp/ccxwygCH.s:287    .text:0000000000000148 .L0 
     /tmp/ccxwygCH.s:288    .text:000000000000014c .L0 
     /tmp/ccxwygCH.s:293    .text:000000000000015c .L0 
     /tmp/ccxwygCH.s:294    .text:000000000000015c .L0 
     /tmp/ccxwygCH.s:295    .text:000000000000015c .L0 
     /tmp/ccxwygCH.s:296    .text:000000000000015c .L0 
     /tmp/ccxwygCH.s:298    .text:0000000000000160 .L0 
     /tmp/ccxwygCH.s:304    .text:0000000000000164 .L0 
     /tmp/ccxwygCH.s:305    .text:0000000000000164 .L0 
     /tmp/ccxwygCH.s:306    .text:0000000000000164 .L0 
     /tmp/ccxwygCH.s:311    .text:0000000000000174 .L0 
     /tmp/ccxwygCH.s:315    .text:0000000000000178 .L0 
     /tmp/ccxwygCH.s:316    .text:0000000000000178 .L0 
     /tmp/ccxwygCH.s:317    .text:0000000000000178 .L0 
     /tmp/ccxwygCH.s:321    .text:0000000000000184 .L0 
     /tmp/ccxwygCH.s:322    .text:0000000000000184 .L0 
     /tmp/ccxwygCH.s:327    .text:0000000000000190 .L0 
     /tmp/ccxwygCH.s:332    .text:0000000000000194 .L0 
     /tmp/ccxwygCH.s:333    .text:0000000000000198 .L0 
     /tmp/ccxwygCH.s:335    .text:000000000000019c .L0 
     /tmp/ccxwygCH.s:336    .text:000000000000019c .L0 
     /tmp/ccxwygCH.s:338    .text:00000000000001a0 .L0 
     /tmp/ccxwygCH.s:340    .text:00000000000001a4 .L0 
     /tmp/ccxwygCH.s:343    .text:00000000000001a8 .L0 
     /tmp/ccxwygCH.s:345    .text:00000000000001ac .L0 
     /tmp/ccxwygCH.s:280    .text:0000000000000148 _ZN10KSemaphoreD1Ev
     /tmp/ccxwygCH.s:361    .text:00000000000001ac _ZN10KSemaphore7unblockEv
     /tmp/ccxwygCH.s:364    .text:00000000000001ac .L0 
     /tmp/ccxwygCH.s:366    .text:00000000000001ac .L0 
     /tmp/ccxwygCH.s:367    .text:00000000000001b0 .L0 
     /tmp/ccxwygCH.s:372    .text:00000000000001c0 .L0 
     /tmp/ccxwygCH.s:373    .text:00000000000001c0 .L0 
     /tmp/ccxwygCH.s:374    .text:00000000000001c0 .L0 
     /tmp/ccxwygCH.s:375    .text:00000000000001c0 .L0 
     /tmp/ccxwygCH.s:377    .text:00000000000001c4 .L0 
     /tmp/ccxwygCH.s:380    .text:00000000000001c8 .L0 
     /tmp/ccxwygCH.s:381    .text:00000000000001c8 .L0 
     /tmp/ccxwygCH.s:386    .text:00000000000001d4 .L0 
     /tmp/ccxwygCH.s:387    .text:00000000000001d4 .L0 
GAS LISTING /tmp/ccxwygCH.s 			page 17


     /tmp/ccxwygCH.s:391    .text:00000000000001e0 .L0 
     /tmp/ccxwygCH.s:393    .text:00000000000001e4 .L0 
     /tmp/ccxwygCH.s:394    .text:00000000000001e4 .L0 
     /tmp/ccxwygCH.s:399    .text:00000000000001f0 .L0 
     /tmp/ccxwygCH.s:400    .text:00000000000001f4 .L0 
     /tmp/ccxwygCH.s:402    .text:00000000000001f8 .L0 
     /tmp/ccxwygCH.s:403    .text:00000000000001f8 .L0 
     /tmp/ccxwygCH.s:405    .text:00000000000001fc .L0 
     /tmp/ccxwygCH.s:408    .text:0000000000000200 .L0 
     /tmp/ccxwygCH.s:411    .text:0000000000000204 .L0 
     /tmp/ccxwygCH.s:413    .text:0000000000000208 .L0 
     /tmp/ccxwygCH.s:419    .text:0000000000000208 _ZN10KSemaphore6signalEv
     /tmp/ccxwygCH.s:422    .text:0000000000000208 .L0 
     /tmp/ccxwygCH.s:424    .text:0000000000000208 .L0 
     /tmp/ccxwygCH.s:425    .text:0000000000000208 .L0 
     /tmp/ccxwygCH.s:426    .text:0000000000000208 .L0 
     /tmp/ccxwygCH.s:428    .text:000000000000020c .L0 
     /tmp/ccxwygCH.s:431    .text:0000000000000214 .L0 
     /tmp/ccxwygCH.s:433    .text:0000000000000218 .L0 
     /tmp/ccxwygCH.s:435    .text:000000000000021c .L0 
     /tmp/ccxwygCH.s:436    .text:000000000000021c .L0 
     /tmp/ccxwygCH.s:442    .text:0000000000000224 .L0 
     /tmp/ccxwygCH.s:443    .text:0000000000000228 .L0 
     /tmp/ccxwygCH.s:446    .text:0000000000000230 .L0 
     /tmp/ccxwygCH.s:447    .text:0000000000000230 .L0 
     /tmp/ccxwygCH.s:449    .text:0000000000000234 .L0 
     /tmp/ccxwygCH.s:451    .text:0000000000000234 .L0 
     /tmp/ccxwygCH.s:452    .text:0000000000000234 .L0 
     /tmp/ccxwygCH.s:455    .text:000000000000023c .L0 
     /tmp/ccxwygCH.s:456    .text:000000000000023c .L0 
     /tmp/ccxwygCH.s:458    .text:0000000000000244 .L0 
     /tmp/ccxwygCH.s:460    .text:0000000000000248 .L0 
     /tmp/ccxwygCH.s:461    .text:0000000000000248 .L0 
     /tmp/ccxwygCH.s:463    .text:000000000000024c .L0 
     /tmp/ccxwygCH.s:465    .text:0000000000000250 .L0 
     /tmp/ccxwygCH.s:471    .text:0000000000000250 _ZN10KSemaphorenwEm
     /tmp/ccxwygCH.s:474    .text:0000000000000250 .L0 
     /tmp/ccxwygCH.s:476    .text:0000000000000250 .L0 
     /tmp/ccxwygCH.s:477    .text:0000000000000254 .L0 
     /tmp/ccxwygCH.s:480    .text:000000000000025c .L0 
     /tmp/ccxwygCH.s:481    .text:000000000000025c .L0 
     /tmp/ccxwygCH.s:483    .text:0000000000000260 .L0 
     /tmp/ccxwygCH.s:485    .text:0000000000000260 .L0 
     /tmp/ccxwygCH.s:486    .text:0000000000000260 .L0 
     /tmp/ccxwygCH.s:489    .text:0000000000000268 .L0 
     /tmp/ccxwygCH.s:490    .text:000000000000026c .L0 
     /tmp/ccxwygCH.s:492    .text:0000000000000270 .L0 
     /tmp/ccxwygCH.s:493    .text:0000000000000270 .L0 
     /tmp/ccxwygCH.s:495    .text:0000000000000274 .L0 
     /tmp/ccxwygCH.s:497    .text:0000000000000278 .L0 
     /tmp/ccxwygCH.s:503    .text:0000000000000278 _ZN10KSemaphoredlEPv
     /tmp/ccxwygCH.s:506    .text:0000000000000278 .L0 
     /tmp/ccxwygCH.s:508    .text:0000000000000278 .L0 
     /tmp/ccxwygCH.s:509    .text:000000000000027c .L0 
     /tmp/ccxwygCH.s:512    .text:0000000000000284 .L0 
     /tmp/ccxwygCH.s:513    .text:0000000000000284 .L0 
     /tmp/ccxwygCH.s:515    .text:0000000000000288 .L0 
GAS LISTING /tmp/ccxwygCH.s 			page 18


     /tmp/ccxwygCH.s:517    .text:0000000000000288 .L0 
     /tmp/ccxwygCH.s:518    .text:0000000000000288 .L0 
     /tmp/ccxwygCH.s:521    .text:0000000000000290 .L0 
     /tmp/ccxwygCH.s:522    .text:0000000000000294 .L0 
     /tmp/ccxwygCH.s:524    .text:0000000000000298 .L0 
     /tmp/ccxwygCH.s:525    .text:0000000000000298 .L0 
     /tmp/ccxwygCH.s:527    .text:000000000000029c .L0 
     /tmp/ccxwygCH.s:529    .text:00000000000002a0 .L0 
     /tmp/ccxwygCH.s:538    .text:00000000000002a0 .L0 
     /tmp/ccxwygCH.s:112    .text:0000000000000074 .L0 
     /tmp/ccxwygCH.s:83     .text:0000000000000058 .L7
     /tmp/ccxwygCH.s:74     .text:000000000000004c .L3
     /tmp/ccxwygCH.s:169    .text:00000000000000c4 .L16
     /tmp/ccxwygCH.s:259    .text:0000000000000134 .L19
     /tmp/ccxwygCH.s:268    .text:0000000000000140 .L22
     /tmp/ccxwygCH.s:329    .text:0000000000000194 .L23
     /tmp/ccxwygCH.s:301    .text:0000000000000164 .L25
     /tmp/ccxwygCH.s:397    .text:00000000000001f0 .L27
     /tmp/ccxwygCH.s:440    .text:0000000000000224 .L36
     /tmp/ccxwygCH.s:1899   .debug_abbrev:0000000000000000 .Ldebug_abbrev0
     /tmp/ccxwygCH.s:3247   .debug_str:00000000000000f0 .LASF126
     /tmp/ccxwygCH.s:3323   .debug_str:0000000000000398 .LASF127
     /tmp/ccxwygCH.s:3447   .debug_str:0000000000000710 .LASF128
     /tmp/ccxwygCH.s:5      .text:0000000000000000 .Ltext0
     /tmp/ccxwygCH.s:532    .text:00000000000002a0 .Letext0
     /tmp/ccxwygCH.s:3213   .debug_line:0000000000000000 .Ldebug_line0
     /tmp/ccxwygCH.s:3317   .debug_str:0000000000000371 .LASF0
     /tmp/ccxwygCH.s:3337   .debug_str:000000000000040b .LASF1
     /tmp/ccxwygCH.s:3389   .debug_str:0000000000000588 .LASF2
     /tmp/ccxwygCH.s:3401   .debug_str:00000000000005e8 .LASF4
     /tmp/ccxwygCH.s:3327   .debug_str:00000000000003b8 .LASF3
     /tmp/ccxwygCH.s:3229   .debug_str:000000000000005a .LASF5
     /tmp/ccxwygCH.s:3377   .debug_str:000000000000053a .LASF6
     /tmp/ccxwygCH.s:3373   .debug_str:000000000000051f .LASF7
     /tmp/ccxwygCH.s:3329   .debug_str:00000000000003ca .LASF8
     /tmp/ccxwygCH.s:3303   .debug_str:000000000000030a .LASF9
     /tmp/ccxwygCH.s:3309   .debug_str:0000000000000342 .LASF10
     /tmp/ccxwygCH.s:3259   .debug_str:0000000000000203 .LASF11
     /tmp/ccxwygCH.s:3295   .debug_str:00000000000002e6 .LASF12
     /tmp/ccxwygCH.s:3271   .debug_str:000000000000023d .LASF13
     /tmp/ccxwygCH.s:3257   .debug_str:00000000000001f3 .LASF14
     /tmp/ccxwygCH.s:3423   .debug_str:00000000000006a2 .LASF15
     /tmp/ccxwygCH.s:3291   .debug_str:00000000000002c4 .LASF16
     /tmp/ccxwygCH.s:3419   .debug_str:0000000000000670 .LASF17
     /tmp/ccxwygCH.s:3449   .debug_str:0000000000000733 .LASF28
     /tmp/ccxwygCH.s:3459   .debug_str:0000000000000776 .LASF20
     /tmp/ccxwygCH.s:3331   .debug_str:00000000000003dd .LASF18
     /tmp/ccxwygCH.s:3261   .debug_str:0000000000000212 .LASF19
     /tmp/ccxwygCH.s:3433   .debug_str:00000000000006d5 .LASF21
     /tmp/ccxwygCH.s:3345   .debug_str:000000000000043a .LASF22
     /tmp/ccxwygCH.s:3475   .debug_str:00000000000007c0 .LASF39
     /tmp/ccxwygCH.s:3457   .debug_str:0000000000000770 .LASF24
     /tmp/ccxwygCH.s:3275   .debug_str:000000000000025e .LASF26
     /tmp/ccxwygCH.s:3319   .debug_str:000000000000037e .LASF23
     /tmp/ccxwygCH.s:3413   .debug_str:0000000000000645 .LASF29
     /tmp/ccxwygCH.s:3335   .debug_str:0000000000000406 .LASF25
     /tmp/ccxwygCH.s:3383   .debug_str:0000000000000554 .LASF27
GAS LISTING /tmp/ccxwygCH.s 			page 19


     /tmp/ccxwygCH.s:3287   .debug_str:00000000000002a2 .LASF30
     /tmp/ccxwygCH.s:3381   .debug_str:000000000000054d .LASF45
     /tmp/ccxwygCH.s:3239   .debug_str:00000000000000bd .LASF47
     /tmp/ccxwygCH.s:3437   .debug_str:00000000000006e0 .LASF129
     /tmp/ccxwygCH.s:3255   .debug_str:00000000000001ed .LASF31
     /tmp/ccxwygCH.s:3415   .debug_str:000000000000065a .LASF32
     /tmp/ccxwygCH.s:3267   .debug_str:0000000000000229 .LASF33
     /tmp/ccxwygCH.s:3245   .debug_str:00000000000000e7 .LASF34
     /tmp/ccxwygCH.s:3375   .debug_str:0000000000000532 .LASF35
     /tmp/ccxwygCH.s:3265   .debug_str:0000000000000220 .LASF36
     /tmp/ccxwygCH.s:3431   .debug_str:00000000000006cd .LASF37
     /tmp/ccxwygCH.s:3311   .debug_str:0000000000000350 .LASF38
     /tmp/ccxwygCH.s:3453   .debug_str:0000000000000741 .LASF40
     /tmp/ccxwygCH.s:3363   .debug_str:00000000000004d1 .LASF130
     /tmp/ccxwygCH.s:3463   .debug_str:0000000000000787 .LASF41
     /tmp/ccxwygCH.s:3481   .debug_str:00000000000007ea .LASF42
     /tmp/ccxwygCH.s:3477   .debug_str:00000000000007d0 .LASF43
     /tmp/ccxwygCH.s:3443   .debug_str:00000000000006f6 .LASF44
     /tmp/ccxwygCH.s:3283   .debug_str:0000000000000294 .LASF131
     /tmp/ccxwygCH.s:3235   .debug_str:0000000000000082 .LASF132
     /tmp/ccxwygCH.s:3341   .debug_str:0000000000000427 .LASF46
     /tmp/ccxwygCH.s:3367   .debug_str:00000000000004e9 .LASF48
     /tmp/ccxwygCH.s:3439   .debug_str:00000000000006e6 .LASF49
     /tmp/ccxwygCH.s:3465   .debug_str:000000000000078c .LASF50
     /tmp/ccxwygCH.s:3407   .debug_str:000000000000061a .LASF51
     /tmp/ccxwygCH.s:3343   .debug_str:000000000000042d .LASF52
     /tmp/ccxwygCH.s:3347   .debug_str:000000000000043f .LASF53
     /tmp/ccxwygCH.s:3485   .debug_str:0000000000000806 .LASF54
     /tmp/ccxwygCH.s:3293   .debug_str:00000000000002da .LASF55
     /tmp/ccxwygCH.s:3223   .debug_str:0000000000000038 .LASF56
     /tmp/ccxwygCH.s:3325   .debug_str:00000000000003ab .LASF57
     /tmp/ccxwygCH.s:3411   .debug_str:000000000000063c .LASF58
     /tmp/ccxwygCH.s:3355   .debug_str:000000000000048d .LASF59
     /tmp/ccxwygCH.s:3395   .debug_str:00000000000005ae .LASF60
     /tmp/ccxwygCH.s:3421   .debug_str:0000000000000686 .LASF61
     /tmp/ccxwygCH.s:3357   .debug_str:00000000000004a0 .LASF62
     /tmp/ccxwygCH.s:3219   .debug_str:0000000000000019 .LASF63
     /tmp/ccxwygCH.s:3471   .debug_str:00000000000007a6 .LASF64
     /tmp/ccxwygCH.s:3371   .debug_str:0000000000000505 .LASF65
     /tmp/ccxwygCH.s:3417   .debug_str:0000000000000662 .LASF66
     /tmp/ccxwygCH.s:3379   .debug_str:0000000000000541 .LASF67
     /tmp/ccxwygCH.s:3281   .debug_str:0000000000000284 .LASF68
     /tmp/ccxwygCH.s:3473   .debug_str:00000000000007b5 .LASF69
     /tmp/ccxwygCH.s:3405   .debug_str:0000000000000612 .LASF98
     /tmp/ccxwygCH.s:3445   .debug_str:0000000000000706 .LASF70
     /tmp/ccxwygCH.s:3369   .debug_str:00000000000004f9 .LASF71
     /tmp/ccxwygCH.s:3279   .debug_str:0000000000000276 .LASF72
     /tmp/ccxwygCH.s:3237   .debug_str:0000000000000095 .LASF74
     /tmp/ccxwygCH.s:3321   .debug_str:0000000000000383 .LASF73
     /tmp/ccxwygCH.s:3253   .debug_str:00000000000001c1 .LASF75
     /tmp/ccxwygCH.s:3469   .debug_str:000000000000079f .LASF133
     /tmp/ccxwygCH.s:3251   .debug_str:00000000000001b0 .LASF134
     /tmp/ccxwygCH.s:3221   .debug_str:0000000000000033 .LASF76
     /tmp/ccxwygCH.s:3429   .debug_str:00000000000006c8 .LASF77
     /tmp/ccxwygCH.s:3351   .debug_str:0000000000000471 .LASF78
     /tmp/ccxwygCH.s:3277   .debug_str:0000000000000270 .LASF79
     /tmp/ccxwygCH.s:3451   .debug_str:0000000000000739 .LASF80
GAS LISTING /tmp/ccxwygCH.s 			page 20


     /tmp/ccxwygCH.s:3241   .debug_str:00000000000000cb .LASF81
     /tmp/ccxwygCH.s:3301   .debug_str:0000000000000300 .LASF82
     /tmp/ccxwygCH.s:3231   .debug_str:0000000000000061 .LASF135
     /tmp/ccxwygCH.s:3479   .debug_str:00000000000007d6 .LASF136
     /tmp/ccxwygCH.s:3243   .debug_str:00000000000000d5 .LASF83
     /tmp/ccxwygCH.s:3365   .debug_str:00000000000004d6 .LASF84
     /tmp/ccxwygCH.s:3441   .debug_str:00000000000006ee .LASF85
     /tmp/ccxwygCH.s:3387   .debug_str:0000000000000570 .LASF137
     /tmp/ccxwygCH.s:3409   .debug_str:000000000000062b .LASF86
     /tmp/ccxwygCH.s:3273   .debug_str:000000000000024d .LASF87
     /tmp/ccxwygCH.s:3233   .debug_str:0000000000000079 .LASF88
     /tmp/ccxwygCH.s:3435   .debug_str:00000000000006db .LASF89
     /tmp/ccxwygCH.s:3385   .debug_str:0000000000000565 .LASF90
     /tmp/ccxwygCH.s:3307   .debug_str:000000000000032e .LASF91
     /tmp/ccxwygCH.s:3391   .debug_str:0000000000000596 .LASF92
     /tmp/ccxwygCH.s:3289   .debug_str:00000000000002b0 .LASF93
     /tmp/ccxwygCH.s:3285   .debug_str:000000000000029d .LASF94
     /tmp/ccxwygCH.s:3455   .debug_str:0000000000000759 .LASF95
     /tmp/ccxwygCH.s:3427   .debug_str:00000000000006c1 .LASF96
     /tmp/ccxwygCH.s:3361   .debug_str:00000000000004b8 .LASF97
     /tmp/ccxwygCH.s:3217   .debug_str:000000000000000d .LASF99
     /tmp/ccxwygCH.s:3393   .debug_str:00000000000005a2 .LASF100
     /tmp/ccxwygCH.s:3353   .debug_str:0000000000000479 .LASF101
     /tmp/ccxwygCH.s:3313   .debug_str:0000000000000356 .LASF102
     /tmp/ccxwygCH.s:3263   .debug_str:0000000000000217 .LASF103
     /tmp/ccxwygCH.s:3269   .debug_str:0000000000000233 .LASF104
     /tmp/ccxwygCH.s:3359   .debug_str:00000000000004af .LASF105
     /tmp/ccxwygCH.s:3399   .debug_str:00000000000005dd .LASF106
     /tmp/ccxwygCH.s:3339   .debug_str:000000000000041e .LASF107
     /tmp/ccxwygCH.s:3315   .debug_str:000000000000036b .LASF108
     /tmp/ccxwygCH.s:3489   .debug_str:000000000000081e .LASF109
     /tmp/ccxwygCH.s:3225   .debug_str:0000000000000048 .LASF110
     /tmp/ccxwygCH.s:3349   .debug_str:0000000000000457 .LASF111
     /tmp/ccxwygCH.s:3483   .debug_str:00000000000007f6 .LASF112
     /tmp/ccxwygCH.s:3403   .debug_str:00000000000005ef .LASF113
     /tmp/ccxwygCH.s:3425   .debug_str:00000000000006ae .LASF114
     /tmp/ccxwygCH.s:3397   .debug_str:00000000000005b7 .LASF115
     /tmp/ccxwygCH.s:3215   .debug_str:0000000000000000 .LASF116
     /tmp/ccxwygCH.s:3333   .debug_str:00000000000003e2 .LASF117
     /tmp/ccxwygCH.s:504    .text:0000000000000278 .LFB35
     /tmp/ccxwygCH.s:530    .text:00000000000002a0 .LFE35
     /tmp/ccxwygCH.s:3022   .debug_loc:0000000000000000 .LLST12
     /tmp/ccxwygCH.s:519    .text:0000000000000290 .LVL38
     /tmp/ccxwygCH.s:472    .text:0000000000000250 .LFB34
     /tmp/ccxwygCH.s:498    .text:0000000000000278 .LFE34
     /tmp/ccxwygCH.s:3036   .debug_loc:0000000000000039 .LLST11
     /tmp/ccxwygCH.s:487    .text:0000000000000268 .LVL36
     /tmp/ccxwygCH.s:362    .text:00000000000001ac .LFB33
     /tmp/ccxwygCH.s:414    .text:0000000000000208 .LFE33
     /tmp/ccxwygCH.s:3297   .debug_str:00000000000002f5 .LASF118
     /tmp/ccxwygCH.s:3050   .debug_loc:0000000000000072 .LLST8
     /tmp/ccxwygCH.s:3068   .debug_loc:00000000000000be .LLST9
     /tmp/ccxwygCH.s:382    .text:00000000000001d0 .LVL25
     /tmp/ccxwygCH.s:389    .text:00000000000001e0 .LVL27
     /tmp/ccxwygCH.s:396    .text:00000000000001f0 .LVL28
     /tmp/ccxwygCH.s:228    .text:000000000000010c .LFB32
     /tmp/ccxwygCH.s:275    .text:0000000000000148 .LFE32
GAS LISTING /tmp/ccxwygCH.s 			page 21


     /tmp/ccxwygCH.s:3075   .debug_loc:00000000000000e1 .LLST5
     /tmp/ccxwygCH.s:201    .text:00000000000000f0 .LFB31
     /tmp/ccxwygCH.s:222    .text:000000000000010c .LFE31
     /tmp/ccxwygCH.s:3082   .debug_loc:0000000000000104 .LLST4
     /tmp/ccxwygCH.s:98     .text:0000000000000064 .LFB30
     /tmp/ccxwygCH.s:143    .text:00000000000000a8 .LFE30
     /tmp/ccxwygCH.s:3096   .debug_loc:000000000000013d .LLST0
     /tmp/ccxwygCH.s:115    .text:0000000000000080 .LBB5
     /tmp/ccxwygCH.s:124    .text:0000000000000088 .LBE5
     /tmp/ccxwygCH.s:3110   .debug_loc:0000000000000176 .LLST1
     /tmp/ccxwygCH.s:3118   .debug_loc:000000000000019a .LLST2
     /tmp/ccxwygCH.s:128    .text:0000000000000090 .LVL5
     /tmp/ccxwygCH.s:132    .text:0000000000000098 .LVL6
     /tmp/ccxwygCH.s:49     .text:0000000000000028 .LFB29
     /tmp/ccxwygCH.s:92     .text:0000000000000064 .LFE29
     /tmp/ccxwygCH.s:3227   .debug_str:0000000000000050 .LASF119
     /tmp/ccxwygCH.s:3305   .debug_str:000000000000031a .LASF120
     /tmp/ccxwygCH.s:281    .text:0000000000000148 .LFB27
     /tmp/ccxwygCH.s:346    .text:00000000000001ac .LFE27
     /tmp/ccxwygCH.s:3125   .debug_loc:00000000000001bd .LLST6
     /tmp/ccxwygCH.s:319    .text:0000000000000184 .LVL20
     /tmp/ccxwygCH.s:324    .text:0000000000000190 .LVL21
     /tmp/ccxwygCH.s:312    .text:0000000000000178 .LBB8
     /tmp/ccxwygCH.s:325    .text:0000000000000190 .LBE8
     /tmp/ccxwygCH.s:3143   .debug_loc:0000000000000209 .LLST7
     /tmp/ccxwygCH.s:308    .text:0000000000000170 .LVL18
     /tmp/ccxwygCH.s:420    .text:0000000000000208 .LFB25
     /tmp/ccxwygCH.s:466    .text:0000000000000250 .LFE25
     /tmp/ccxwygCH.s:3150   .debug_loc:000000000000022c .LLST10
     /tmp/ccxwygCH.s:453    .text:000000000000023c .LVL34
     /tmp/ccxwygCH.s:149    .text:00000000000000a8 .LFB24
     /tmp/ccxwygCH.s:195    .text:00000000000000f0 .LFE24
     /tmp/ccxwygCH.s:3175   .debug_loc:000000000000028e .LLST3
     /tmp/ccxwygCH.s:182    .text:00000000000000dc .LVL10
     /tmp/ccxwygCH.s:3249   .debug_str:000000000000019c .LASF121
     /tmp/ccxwygCH.s:10     .text:0000000000000000 .LFB22
     /tmp/ccxwygCH.s:41     .text:0000000000000028 .LFE22
     /tmp/ccxwygCH.s:3487   .debug_str:0000000000000813 .LASF122
     /tmp/ccxwygCH.s:3299   .debug_str:00000000000002fa .LASF124
     /tmp/ccxwygCH.s:3461   .debug_str:000000000000077b .LASF123
     /tmp/ccxwygCH.s:3467   .debug_str:0000000000000797 .LASF125
     /tmp/ccxwygCH.s:507    .text:0000000000000278 .LVL37
     /tmp/ccxwygCH.s:475    .text:0000000000000250 .LVL35
     /tmp/ccxwygCH.s:365    .text:00000000000001ac .LVL24
     /tmp/ccxwygCH.s:409    .text:0000000000000200 .LVL30
     /tmp/ccxwygCH.s:384    .text:00000000000001d4 .LVL26
     /tmp/ccxwygCH.s:406    .text:00000000000001fc .LVL29
     /tmp/ccxwygCH.s:244    .text:0000000000000120 .LVL14
     /tmp/ccxwygCH.s:256    .text:0000000000000130 .LVL15
     /tmp/ccxwygCH.s:204    .text:00000000000000f0 .LVL11
     /tmp/ccxwygCH.s:214    .text:0000000000000100 .LVL12
     /tmp/ccxwygCH.s:101    .text:0000000000000064 .LVL2
     /tmp/ccxwygCH.s:114    .text:0000000000000080 .LVL3
     /tmp/ccxwygCH.s:122    .text:0000000000000088 .LVL4
     /tmp/ccxwygCH.s:286    .text:0000000000000148 .LVL16
     /tmp/ccxwygCH.s:300    .text:0000000000000164 .LVL17
     /tmp/ccxwygCH.s:341    .text:00000000000001a4 .LVL23
GAS LISTING /tmp/ccxwygCH.s 			page 22


     /tmp/ccxwygCH.s:314    .text:0000000000000178 .LVL19
     /tmp/ccxwygCH.s:328    .text:0000000000000194 .LVL22
     /tmp/ccxwygCH.s:423    .text:0000000000000208 .LVL31
     /tmp/ccxwygCH.s:437    .text:0000000000000220 .LVL32
     /tmp/ccxwygCH.s:439    .text:0000000000000224 .LVL33
     /tmp/ccxwygCH.s:152    .text:00000000000000a8 .LVL7
     /tmp/ccxwygCH.s:166    .text:00000000000000c0 .LVL8
     /tmp/ccxwygCH.s:168    .text:00000000000000c4 .LVL9
     /tmp/ccxwygCH.s:539    .debug_info:0000000000000000 .Ldebug_info0
     /tmp/ccxwygCH.s:349    .gcc_except_table:0000000000000000 .LLSDA27

UNDEFINED SYMBOLS
_ZN3PCB7runningE
_ZN3PCB8dispatchEv
_ZN9Scheduler3putEP3PCB
__gxx_personality_v0
_Z7kmallocm
_Z5kfreePv
