GAS LISTING /tmp/ccxl7UNL.s 			page 1


   1              		.file	"KSemaphore.cpp"
   2              		.option pic
   3              		.option norelax
   4              		.text
   5              	.Ltext0:
   6              		.align	2
   7              		.globl	_ZN10KSemaphoreC2Ei
   9              	_ZN10KSemaphoreC2Ei:
  10              	.LFB22:
  11              		.file 1 "src/KSemaphore.cpp"
   1:src/KSemaphore.cpp **** //
   2:src/KSemaphore.cpp **** // Created by os on 5/2/22.
   3:src/KSemaphore.cpp **** //
   4:src/KSemaphore.cpp **** 
   5:src/KSemaphore.cpp **** #include "../h/KSemaphore.hpp"
   6:src/KSemaphore.cpp **** #include "../h/MemoryAllocator.hpp"
   7:src/KSemaphore.cpp **** 
   8:src/KSemaphore.cpp **** KSemaphore::KSemaphore(int val)
  12              		.loc 1 8 1
  13              		.cfi_startproc
  14              	.LVL0:
  15 0000 130101FF 		addi	sp,sp,-16
  16              		.cfi_def_cfa_offset 16
  17 0004 23348100 		sd	s0,8(sp)
  18              		.cfi_offset 8, -8
  19 0008 13040101 		addi	s0,sp,16
  20              		.cfi_def_cfa 8, 0
  21              	.LBB4:
   9:src/KSemaphore.cpp **** {
  10:src/KSemaphore.cpp ****     this->val = this->beginVal = val;
  22              		.loc 1 10 5
  23              		.loc 1 10 32 is_stmt 0
  24 000c 232AB500 		sw	a1,20(a0)
  25              		.loc 1 10 15
  26 0010 2328B500 		sw	a1,16(a0)
  11:src/KSemaphore.cpp ****     headBlocked = tailBlocked = 0;
  27              		.loc 1 11 5 is_stmt 1
  28              		.loc 1 11 31 is_stmt 0
  29 0014 23340500 		sd	zero,8(a0)
  30              		.loc 1 11 17
  31 0018 23300500 		sd	zero,0(a0)
  32              	.LBE4:
  12:src/KSemaphore.cpp **** }
  33              		.loc 1 12 1
  34 001c 03348100 		ld	s0,8(sp)
  35              		.cfi_restore 8
  36              		.cfi_def_cfa 2, 16
  37 0020 13010101 		addi	sp,sp,16
  38              		.cfi_def_cfa_offset 0
  39 0024 67800000 		jr	ra
  40              		.cfi_endproc
  41              	.LFE22:
  43              		.globl	_ZN10KSemaphoreC1Ei
  44              		.set	_ZN10KSemaphoreC1Ei,_ZN10KSemaphoreC2Ei
  45              		.align	2
  46              		.globl	_ZN10KSemaphore12addToBlockedEP3PCB
  48              	_ZN10KSemaphore12addToBlockedEP3PCB:
GAS LISTING /tmp/ccxl7UNL.s 			page 2


  49              	.LFB30:
  13:src/KSemaphore.cpp **** 
  14:src/KSemaphore.cpp **** uint64 KSemaphore::wait() {
  15:src/KSemaphore.cpp ****     if(--val < 0)
  16:src/KSemaphore.cpp ****         block();
  17:src/KSemaphore.cpp **** 
  18:src/KSemaphore.cpp ****     return 0;
  19:src/KSemaphore.cpp **** }
  20:src/KSemaphore.cpp **** 
  21:src/KSemaphore.cpp **** uint64 KSemaphore::signal() {
  22:src/KSemaphore.cpp ****     if(++val <= 0)
  23:src/KSemaphore.cpp ****         unblock();
  24:src/KSemaphore.cpp **** 
  25:src/KSemaphore.cpp ****     return 0;
  26:src/KSemaphore.cpp **** }
  27:src/KSemaphore.cpp **** 
  28:src/KSemaphore.cpp **** void KSemaphore::semOpenHandler()
  29:src/KSemaphore.cpp **** {
  30:src/KSemaphore.cpp ****     uint64 val;
  31:src/KSemaphore.cpp ****     KSemaphore** semaphoreHandle;
  32:src/KSemaphore.cpp ****     __asm__ volatile("mv %0, a1" : "=r"(semaphoreHandle));
  33:src/KSemaphore.cpp ****     __asm__ volatile("mv %0, a2" : "=r"(val));
  34:src/KSemaphore.cpp **** 
  35:src/KSemaphore.cpp ****     KSemaphore* newSem = new KSemaphore(val);
  36:src/KSemaphore.cpp **** 
  37:src/KSemaphore.cpp ****     (*semaphoreHandle) = newSem;
  38:src/KSemaphore.cpp **** 
  39:src/KSemaphore.cpp ****     if(newSem == 0)
  40:src/KSemaphore.cpp ****             __asm__ volatile("li a0, 0xffffffffffffffff");
  41:src/KSemaphore.cpp ****     else
  42:src/KSemaphore.cpp ****             __asm__ volatile("li a0, 0");
  43:src/KSemaphore.cpp **** }
  44:src/KSemaphore.cpp **** 
  45:src/KSemaphore.cpp **** //todo
  46:src/KSemaphore.cpp **** //sta treba da vrate ovi PCB-ovi u wait-u
  47:src/KSemaphore.cpp **** KSemaphore::~KSemaphore()
  48:src/KSemaphore.cpp **** {
  49:src/KSemaphore.cpp ****     while(getFirstBlocked() != 0)
  50:src/KSemaphore.cpp ****     {
  51:src/KSemaphore.cpp ****         PCB* pcb = getFirstBlocked();
  52:src/KSemaphore.cpp ****         removeFirstBlocked();
  53:src/KSemaphore.cpp ****         Scheduler::put(pcb);
  54:src/KSemaphore.cpp ****     }
  55:src/KSemaphore.cpp **** }
  56:src/KSemaphore.cpp **** 
  57:src/KSemaphore.cpp **** void KSemaphore::addToBlocked(PCB* pcb)
  58:src/KSemaphore.cpp **** {
  50              		.loc 1 58 1 is_stmt 1
  51              		.cfi_startproc
  52              	.LVL1:
  53 0028 130101FF 		addi	sp,sp,-16
  54              		.cfi_def_cfa_offset 16
  55 002c 23348100 		sd	s0,8(sp)
  56              		.cfi_offset 8, -8
  57 0030 13040101 		addi	s0,sp,16
  58              		.cfi_def_cfa 8, 0
  59:src/KSemaphore.cpp ****     pcb->nextPCB = 0;
GAS LISTING /tmp/ccxl7UNL.s 			page 3


  59              		.loc 1 59 5
  60              		.loc 1 59 18 is_stmt 0
  61 0034 23B40500 		sd	zero,8(a1)
  60:src/KSemaphore.cpp ****     if(headBlocked == 0)
  62              		.loc 1 60 5 is_stmt 1
  63              		.loc 1 60 8 is_stmt 0
  64 0038 83370500 		ld	a5,0(a0)
  65              		.loc 1 60 5
  66 003c 638E0700 		beqz	a5,.L7
  61:src/KSemaphore.cpp ****     {
  62:src/KSemaphore.cpp ****         headBlocked = tailBlocked = pcb;
  63:src/KSemaphore.cpp ****     }
  64:src/KSemaphore.cpp ****     else
  65:src/KSemaphore.cpp ****     {
  66:src/KSemaphore.cpp ****         tailBlocked->nextPCB = pcb;
  67              		.loc 1 66 9 is_stmt 1
  68 0040 83378500 		ld	a5,8(a0)
  69              		.loc 1 66 30 is_stmt 0
  70 0044 23B4B700 		sd	a1,8(a5)
  67:src/KSemaphore.cpp ****         tailBlocked = pcb;
  71              		.loc 1 67 9 is_stmt 1
  72              		.loc 1 67 21 is_stmt 0
  73 0048 2334B500 		sd	a1,8(a0)
  74              	.L3:
  68:src/KSemaphore.cpp ****     }
  69:src/KSemaphore.cpp **** }
  75              		.loc 1 69 1
  76 004c 03348100 		ld	s0,8(sp)
  77              		.cfi_remember_state
  78              		.cfi_restore 8
  79              		.cfi_def_cfa 2, 16
  80 0050 13010101 		addi	sp,sp,16
  81              		.cfi_def_cfa_offset 0
  82 0054 67800000 		jr	ra
  83              	.L7:
  84              		.cfi_restore_state
  62:src/KSemaphore.cpp ****     }
  85              		.loc 1 62 9 is_stmt 1
  62:src/KSemaphore.cpp ****     }
  86              		.loc 1 62 35 is_stmt 0
  87 0058 2334B500 		sd	a1,8(a0)
  62:src/KSemaphore.cpp ****     }
  88              		.loc 1 62 21
  89 005c 2330B500 		sd	a1,0(a0)
  90 0060 6FF0DFFE 		j	.L3
  91              		.cfi_endproc
  92              	.LFE30:
  94              		.align	2
  95              		.globl	_ZN10KSemaphore5blockEv
  97              	_ZN10KSemaphore5blockEv:
  98              	.LFB31:
  70:src/KSemaphore.cpp **** 
  71:src/KSemaphore.cpp **** void KSemaphore::block() {
  99              		.loc 1 71 26 is_stmt 1
 100              		.cfi_startproc
 101              	.LVL2:
 102 0064 130101FF 		addi	sp,sp,-16
GAS LISTING /tmp/ccxl7UNL.s 			page 4


 103              		.cfi_def_cfa_offset 16
 104 0068 23341100 		sd	ra,8(sp)
 105 006c 23308100 		sd	s0,0(sp)
 106              		.cfi_offset 1, -8
 107              		.cfi_offset 8, -16
 108 0070 13040101 		addi	s0,sp,16
 109              		.cfi_def_cfa 8, 0
  72:src/KSemaphore.cpp ****     PCB::running->setState(PCB::SUSPENDED);
 110              		.loc 1 72 5
 111              		.loc 1 72 27 is_stmt 0
 112 0074 97070000 		la	a5,_ZN3PCB7runningE
 112      83B70700 
 113 007c 83B50700 		ld	a1,0(a5)
 114              	.LVL3:
 115              	.LBB5:
 116              	.LBB6:
 117              		.file 2 "src/../h/PCB.hpp"
   1:src/../h/PCB.hpp **** //
   2:src/../h/PCB.hpp **** // Created by os on 4/27/22.
   3:src/../h/PCB.hpp **** //
   4:src/../h/PCB.hpp **** 
   5:src/../h/PCB.hpp **** #ifndef PROJECT_BASE_V1_0_PCB_HPP
   6:src/../h/PCB.hpp **** #define PROJECT_BASE_V1_0_PCB_HPP
   7:src/../h/PCB.hpp **** 
   8:src/../h/PCB.hpp **** #include "../lib/hw.h"
   9:src/../h/PCB.hpp **** #include "Scheduler.hpp"
  10:src/../h/PCB.hpp **** #include "Riscv.hpp"
  11:src/../h/PCB.hpp **** 
  12:src/../h/PCB.hpp **** class PCB
  13:src/../h/PCB.hpp **** {
  14:src/../h/PCB.hpp **** public:
  15:src/../h/PCB.hpp ****     static uint64 savedRegA4;
  16:src/../h/PCB.hpp **** 
  17:src/../h/PCB.hpp ****     using Body = void (*)(void*);
  18:src/../h/PCB.hpp **** 
  19:src/../h/PCB.hpp ****     PCB(Body body,  void* args, void* stack_space, uint64 timeSlice);
  20:src/../h/PCB.hpp ****     ~PCB();
  21:src/../h/PCB.hpp **** 
  22:src/../h/PCB.hpp ****     void start();
  23:src/../h/PCB.hpp ****     static void dispatch();
  24:src/../h/PCB.hpp ****     static void sleep(time_t);
  25:src/../h/PCB.hpp **** 
  26:src/../h/PCB.hpp ****     static PCB* running;
  27:src/../h/PCB.hpp **** 
  28:src/../h/PCB.hpp ****     static uint64 timeSliceCounter;
  29:src/../h/PCB.hpp ****     uint64 getTimeSlice() { return timeSlice;}
  30:src/../h/PCB.hpp **** 
  31:src/../h/PCB.hpp ****     void* operator new(size_t size);
  32:src/../h/PCB.hpp ****     void operator delete(void *p);
  33:src/../h/PCB.hpp **** 
  34:src/../h/PCB.hpp ****     enum State{READY, RUNNING, SUSPENDED, FINISHED, EXITING, SLEEPING};
  35:src/../h/PCB.hpp ****     State getState() {return state;}
  36:src/../h/PCB.hpp ****     void setState(State s) {state = s;}
 118              		.loc 2 36 29 is_stmt 1
 119              		.loc 2 36 35 is_stmt 0
 120 0080 93072000 		li	a5,2
 121 0084 23ACF502 		sw	a5,56(a1)
GAS LISTING /tmp/ccxl7UNL.s 			page 5


 122              	.LVL4:
 123              	.LBE6:
 124              	.LBE5:
  73:src/KSemaphore.cpp ****     addToBlocked(PCB::running);
 125              		.loc 1 73 5 is_stmt 1
 126              		.loc 1 73 17 is_stmt 0
 127 0088 97000000 		call	_ZN10KSemaphore12addToBlockedEP3PCB
 127      E7800000 
 128              	.LVL5:
  74:src/KSemaphore.cpp ****     PCB::dispatch();
 129              		.loc 1 74 5 is_stmt 1
 130              		.loc 1 74 18 is_stmt 0
 131 0090 97000000 		call	_ZN3PCB8dispatchEv@plt
 131      E7800000 
 132              	.LVL6:
  75:src/KSemaphore.cpp **** }
 133              		.loc 1 75 1
 134 0098 83308100 		ld	ra,8(sp)
 135              		.cfi_restore 1
 136 009c 03340100 		ld	s0,0(sp)
 137              		.cfi_restore 8
 138              		.cfi_def_cfa 2, 16
 139 00a0 13010101 		addi	sp,sp,16
 140              		.cfi_def_cfa_offset 0
 141 00a4 67800000 		jr	ra
 142              		.cfi_endproc
 143              	.LFE31:
 145              		.align	2
 146              		.globl	_ZN10KSemaphore4waitEv
 148              	_ZN10KSemaphore4waitEv:
 149              	.LFB24:
  14:src/KSemaphore.cpp ****     if(--val < 0)
 150              		.loc 1 14 27 is_stmt 1
 151              		.cfi_startproc
 152              	.LVL7:
  15:src/KSemaphore.cpp ****         block();
 153              		.loc 1 15 5
  15:src/KSemaphore.cpp ****         block();
 154              		.loc 1 15 10 is_stmt 0
 155 00a8 83270501 		lw	a5,16(a0)
  15:src/KSemaphore.cpp ****         block();
 156              		.loc 1 15 8
 157 00ac 9B87F7FF 		addiw	a5,a5,-1
  15:src/KSemaphore.cpp ****         block();
 158              		.loc 1 15 14
 159 00b0 2328F500 		sw	a5,16(a0)
  15:src/KSemaphore.cpp ****         block();
 160              		.loc 1 15 5
 161 00b4 13970702 		slli	a4,a5,32
 162 00b8 63460700 		bltz	a4,.L16
  18:src/KSemaphore.cpp **** }
 163              		.loc 1 18 5 is_stmt 1
  19:src/KSemaphore.cpp **** 
 164              		.loc 1 19 1 is_stmt 0
 165 00bc 13050000 		li	a0,0
 166              	.LVL8:
 167 00c0 67800000 		ret
GAS LISTING /tmp/ccxl7UNL.s 			page 6


 168              	.LVL9:
 169              	.L16:
  14:src/KSemaphore.cpp ****     if(--val < 0)
 170              		.loc 1 14 27
 171 00c4 130101FF 		addi	sp,sp,-16
 172              		.cfi_def_cfa_offset 16
 173 00c8 23341100 		sd	ra,8(sp)
 174 00cc 23308100 		sd	s0,0(sp)
 175              		.cfi_offset 1, -8
 176              		.cfi_offset 8, -16
 177 00d0 13040101 		addi	s0,sp,16
 178              		.cfi_def_cfa 8, 0
  16:src/KSemaphore.cpp **** 
 179              		.loc 1 16 9 is_stmt 1
  16:src/KSemaphore.cpp **** 
 180              		.loc 1 16 14 is_stmt 0
 181 00d4 97000000 		call	_ZN10KSemaphore5blockEv
 181      E7800000 
 182              	.LVL10:
  18:src/KSemaphore.cpp **** }
 183              		.loc 1 18 5 is_stmt 1
  19:src/KSemaphore.cpp **** 
 184              		.loc 1 19 1 is_stmt 0
 185 00dc 13050000 		li	a0,0
 186 00e0 83308100 		ld	ra,8(sp)
 187              		.cfi_restore 1
 188 00e4 03340100 		ld	s0,0(sp)
 189              		.cfi_restore 8
 190              		.cfi_def_cfa 2, 16
 191 00e8 13010101 		addi	sp,sp,16
 192              		.cfi_def_cfa_offset 0
 193 00ec 67800000 		jr	ra
 194              		.cfi_endproc
 195              	.LFE24:
 197              		.align	2
 198              		.globl	_ZN10KSemaphore15getFirstBlockedEv
 200              	_ZN10KSemaphore15getFirstBlockedEv:
 201              	.LFB32:
  76:src/KSemaphore.cpp **** 
  77:src/KSemaphore.cpp **** PCB* KSemaphore::getFirstBlocked()
  78:src/KSemaphore.cpp **** {
 202              		.loc 1 78 1 is_stmt 1
 203              		.cfi_startproc
 204              	.LVL11:
 205 00f0 130101FF 		addi	sp,sp,-16
 206              		.cfi_def_cfa_offset 16
 207 00f4 23348100 		sd	s0,8(sp)
 208              		.cfi_offset 8, -8
 209 00f8 13040101 		addi	s0,sp,16
 210              		.cfi_def_cfa 8, 0
  79:src/KSemaphore.cpp ****    return headBlocked;
 211              		.loc 1 79 4
  80:src/KSemaphore.cpp **** }
 212              		.loc 1 80 1 is_stmt 0
 213 00fc 03350500 		ld	a0,0(a0)
 214              	.LVL12:
 215 0100 03348100 		ld	s0,8(sp)
GAS LISTING /tmp/ccxl7UNL.s 			page 7


 216              		.cfi_restore 8
 217              		.cfi_def_cfa 2, 16
 218 0104 13010101 		addi	sp,sp,16
 219              		.cfi_def_cfa_offset 0
 220 0108 67800000 		jr	ra
 221              		.cfi_endproc
 222              	.LFE32:
 224              		.align	2
 225              		.globl	_ZN10KSemaphore18removeFirstBlockedEv
 227              	_ZN10KSemaphore18removeFirstBlockedEv:
 228              	.LFB33:
  81:src/KSemaphore.cpp **** 
  82:src/KSemaphore.cpp **** void KSemaphore::removeFirstBlocked()
  83:src/KSemaphore.cpp **** {
 229              		.loc 1 83 1 is_stmt 1
 230              		.cfi_startproc
 231              	.LVL13:
 232 010c 130101FF 		addi	sp,sp,-16
 233              		.cfi_def_cfa_offset 16
 234 0110 23348100 		sd	s0,8(sp)
 235              		.cfi_offset 8, -8
 236 0114 13040101 		addi	s0,sp,16
 237              		.cfi_def_cfa 8, 0
  84:src/KSemaphore.cpp ****     if(headBlocked == 0)
 238              		.loc 1 84 5
 239              		.loc 1 84 8 is_stmt 0
 240 0118 83370500 		ld	a5,0(a0)
 241              		.loc 1 84 5
 242 011c 638C0700 		beqz	a5,.L19
  85:src/KSemaphore.cpp ****         return;
  86:src/KSemaphore.cpp ****     PCB* first = headBlocked;
 243              		.loc 1 86 5 is_stmt 1
 244              	.LVL14:
  87:src/KSemaphore.cpp ****     headBlocked = headBlocked->nextPCB;
 245              		.loc 1 87 5
 246              		.loc 1 87 32 is_stmt 0
 247 0120 03B78700 		ld	a4,8(a5)
 248              		.loc 1 87 17
 249 0124 2330E500 		sd	a4,0(a0)
  88:src/KSemaphore.cpp ****     first->nextPCB = 0;
 250              		.loc 1 88 5 is_stmt 1
 251              		.loc 1 88 20 is_stmt 0
 252 0128 23B40700 		sd	zero,8(a5)
  89:src/KSemaphore.cpp ****     if(headBlocked == 0)
 253              		.loc 1 89 5 is_stmt 1
 254              		.loc 1 89 8 is_stmt 0
 255 012c 83370500 		ld	a5,0(a0)
 256              	.LVL15:
 257              		.loc 1 89 5
 258 0130 63880700 		beqz	a5,.L22
 259              	.L19:
  90:src/KSemaphore.cpp ****         tailBlocked =0;
  91:src/KSemaphore.cpp **** }
 260              		.loc 1 91 1
 261 0134 03348100 		ld	s0,8(sp)
 262              		.cfi_remember_state
 263              		.cfi_restore 8
GAS LISTING /tmp/ccxl7UNL.s 			page 8


 264              		.cfi_def_cfa 2, 16
 265 0138 13010101 		addi	sp,sp,16
 266              		.cfi_def_cfa_offset 0
 267 013c 67800000 		jr	ra
 268              	.L22:
 269              		.cfi_restore_state
  90:src/KSemaphore.cpp ****         tailBlocked =0;
 270              		.loc 1 90 9 is_stmt 1
  90:src/KSemaphore.cpp ****         tailBlocked =0;
 271              		.loc 1 90 21 is_stmt 0
 272 0140 23340500 		sd	zero,8(a0)
 273 0144 6FF01FFF 		j	.L19
 274              		.cfi_endproc
 275              	.LFE33:
 277              		.align	2
 278              		.globl	_ZN10KSemaphoreD2Ev
 280              	_ZN10KSemaphoreD2Ev:
 281              	.LFB28:
  47:src/KSemaphore.cpp **** {
 282              		.loc 1 47 1 is_stmt 1
 283              		.cfi_startproc
 284              		.cfi_personality 0x9b,DW.ref.__gxx_personality_v0
 285              		.cfi_lsda 0x1b,.LLSDA28
 286              	.LVL16:
 287 0148 130101FE 		addi	sp,sp,-32
 288              		.cfi_def_cfa_offset 32
 289 014c 233C1100 		sd	ra,24(sp)
 290 0150 23388100 		sd	s0,16(sp)
 291 0154 23349100 		sd	s1,8(sp)
 292 0158 23302101 		sd	s2,0(sp)
 293              		.cfi_offset 1, -8
 294              		.cfi_offset 8, -16
 295              		.cfi_offset 9, -24
 296              		.cfi_offset 18, -32
 297 015c 13040102 		addi	s0,sp,32
 298              		.cfi_def_cfa 8, 0
 299 0160 13090500 		mv	s2,a0
 300              	.LVL17:
 301              	.L25:
 302              	.LBB7:
  49:src/KSemaphore.cpp ****     {
 303              		.loc 1 49 5
  49:src/KSemaphore.cpp ****     {
 304              		.loc 1 49 29
  49:src/KSemaphore.cpp ****     {
 305              		.loc 1 49 26 is_stmt 0
 306 0164 13050900 		mv	a0,s2
 307 0168 97000000 		call	_ZN10KSemaphore15getFirstBlockedEv
 307      E7800000 
 308              	.LVL18:
 309 0170 93040500 		mv	s1,a0
  49:src/KSemaphore.cpp ****     {
 310              		.loc 1 49 29
 311 0174 63000502 		beqz	a0,.L23
 312              	.LBB8:
  51:src/KSemaphore.cpp ****         removeFirstBlocked();
 313              		.loc 1 51 9 is_stmt 1
GAS LISTING /tmp/ccxl7UNL.s 			page 9


 314              	.LVL19:
  52:src/KSemaphore.cpp ****         Scheduler::put(pcb);
 315              		.loc 1 52 9
  52:src/KSemaphore.cpp ****         Scheduler::put(pcb);
 316              		.loc 1 52 27 is_stmt 0
 317 0178 13050900 		mv	a0,s2
 318 017c 97000000 		call	_ZN10KSemaphore18removeFirstBlockedEv
 318      E7800000 
 319              	.LVL20:
  53:src/KSemaphore.cpp ****     }
 320              		.loc 1 53 9 is_stmt 1
  53:src/KSemaphore.cpp ****     }
 321              		.loc 1 53 23 is_stmt 0
 322 0184 13850400 		mv	a0,s1
 323 0188 97000000 		call	_ZN9Scheduler3putEP3PCB@plt
 323      E7800000 
 324              	.LVL21:
 325              	.LBE8:
  49:src/KSemaphore.cpp ****     {
 326              		.loc 1 49 5
 327 0190 6FF05FFD 		j	.L25
 328              	.LVL22:
 329              	.L23:
 330              	.LBE7:
  55:src/KSemaphore.cpp **** 
 331              		.loc 1 55 1
 332 0194 83308101 		ld	ra,24(sp)
 333              		.cfi_restore 1
 334 0198 03340101 		ld	s0,16(sp)
 335              		.cfi_restore 8
 336              		.cfi_def_cfa 2, 32
 337 019c 83348100 		ld	s1,8(sp)
 338              		.cfi_restore 9
 339 01a0 03390100 		ld	s2,0(sp)
 340              		.cfi_restore 18
 341              	.LVL23:
 342 01a4 13010102 		addi	sp,sp,32
 343              		.cfi_def_cfa_offset 0
 344 01a8 67800000 		jr	ra
 345              		.cfi_endproc
 346              	.LFE28:
 347              		.globl	__gxx_personality_v0
 348              		.section	.gcc_except_table,"a",@progbits
 349              	.LLSDA28:
 350 0000 FF       		.byte	0xff
 351 0001 FF       		.byte	0xff
 352 0002 03       		.byte	0x3
 353 0003 00       		.byte	0
 354              		.text
 356              		.globl	_ZN10KSemaphoreD1Ev
 357              		.set	_ZN10KSemaphoreD1Ev,_ZN10KSemaphoreD2Ev
 358              		.align	2
 359              		.globl	_ZN10KSemaphore7unblockEv
 361              	_ZN10KSemaphore7unblockEv:
 362              	.LFB34:
  92:src/KSemaphore.cpp **** 
  93:src/KSemaphore.cpp **** void KSemaphore::unblock() {
GAS LISTING /tmp/ccxl7UNL.s 			page 10


 363              		.loc 1 93 28 is_stmt 1
 364              		.cfi_startproc
 365              	.LVL24:
 366 01ac 130101FE 		addi	sp,sp,-32
 367              		.cfi_def_cfa_offset 32
 368 01b0 233C1100 		sd	ra,24(sp)
 369 01b4 23388100 		sd	s0,16(sp)
 370 01b8 23349100 		sd	s1,8(sp)
 371 01bc 23302101 		sd	s2,0(sp)
 372              		.cfi_offset 1, -8
 373              		.cfi_offset 8, -16
 374              		.cfi_offset 9, -24
 375              		.cfi_offset 18, -32
 376 01c0 13040102 		addi	s0,sp,32
 377              		.cfi_def_cfa 8, 0
 378 01c4 13090500 		mv	s2,a0
  94:src/KSemaphore.cpp ****     PCB* fr = getFirstBlocked();
 379              		.loc 1 94 5
 380              		.loc 1 94 30 is_stmt 0
 381 01c8 97000000 		call	_ZN10KSemaphore15getFirstBlockedEv
 381      E7800000 
 382              	.LVL25:
 383 01d0 93040500 		mv	s1,a0
 384              	.LVL26:
  95:src/KSemaphore.cpp ****     removeFirstBlocked();
 385              		.loc 1 95 5 is_stmt 1
 386              		.loc 1 95 23 is_stmt 0
 387 01d4 13050900 		mv	a0,s2
 388 01d8 97000000 		call	_ZN10KSemaphore18removeFirstBlockedEv
 388      E7800000 
 389              	.LVL27:
  96:src/KSemaphore.cpp ****     if(fr != 0)
 390              		.loc 1 96 5 is_stmt 1
 391 01e0 63880400 		beqz	s1,.L27
  97:src/KSemaphore.cpp ****         Scheduler::put(fr);
 392              		.loc 1 97 9
 393              		.loc 1 97 23 is_stmt 0
 394 01e4 13850400 		mv	a0,s1
 395 01e8 97000000 		call	_ZN9Scheduler3putEP3PCB@plt
 395      E7800000 
 396              	.LVL28:
 397              	.L27:
  98:src/KSemaphore.cpp **** }
 398              		.loc 1 98 1
 399 01f0 83308101 		ld	ra,24(sp)
 400              		.cfi_restore 1
 401 01f4 03340101 		ld	s0,16(sp)
 402              		.cfi_restore 8
 403              		.cfi_def_cfa 2, 32
 404 01f8 83348100 		ld	s1,8(sp)
 405              		.cfi_restore 9
 406              	.LVL29:
 407 01fc 03390100 		ld	s2,0(sp)
 408              		.cfi_restore 18
 409              	.LVL30:
 410 0200 13010102 		addi	sp,sp,32
 411              		.cfi_def_cfa_offset 0
GAS LISTING /tmp/ccxl7UNL.s 			page 11


 412 0204 67800000 		jr	ra
 413              		.cfi_endproc
 414              	.LFE34:
 416              		.align	2
 417              		.globl	_ZN10KSemaphore6signalEv
 419              	_ZN10KSemaphore6signalEv:
 420              	.LFB25:
  21:src/KSemaphore.cpp ****     if(++val <= 0)
 421              		.loc 1 21 29 is_stmt 1
 422              		.cfi_startproc
 423              	.LVL31:
  22:src/KSemaphore.cpp ****         unblock();
 424              		.loc 1 22 5
  22:src/KSemaphore.cpp ****         unblock();
 425              		.loc 1 22 10 is_stmt 0
 426 0208 83270501 		lw	a5,16(a0)
  22:src/KSemaphore.cpp ****         unblock();
 427              		.loc 1 22 8
 428 020c 9B871700 		addiw	a5,a5,1
 429 0210 1B870700 		sext.w	a4,a5
  22:src/KSemaphore.cpp ****         unblock();
 430              		.loc 1 22 14
 431 0214 2328F500 		sw	a5,16(a0)
  22:src/KSemaphore.cpp ****         unblock();
 432              		.loc 1 22 5
 433 0218 6356E000 		blez	a4,.L36
  25:src/KSemaphore.cpp **** }
 434              		.loc 1 25 5 is_stmt 1
  26:src/KSemaphore.cpp **** 
 435              		.loc 1 26 1 is_stmt 0
 436 021c 13050000 		li	a0,0
 437              	.LVL32:
 438 0220 67800000 		ret
 439              	.LVL33:
 440              	.L36:
  21:src/KSemaphore.cpp ****     if(++val <= 0)
 441              		.loc 1 21 29
 442 0224 130101FF 		addi	sp,sp,-16
 443              		.cfi_def_cfa_offset 16
 444 0228 23341100 		sd	ra,8(sp)
 445 022c 23308100 		sd	s0,0(sp)
 446              		.cfi_offset 1, -8
 447              		.cfi_offset 8, -16
 448 0230 13040101 		addi	s0,sp,16
 449              		.cfi_def_cfa 8, 0
  23:src/KSemaphore.cpp **** 
 450              		.loc 1 23 9 is_stmt 1
  23:src/KSemaphore.cpp **** 
 451              		.loc 1 23 16 is_stmt 0
 452 0234 97000000 		call	_ZN10KSemaphore7unblockEv
 452      E7800000 
 453              	.LVL34:
  25:src/KSemaphore.cpp **** }
 454              		.loc 1 25 5 is_stmt 1
  26:src/KSemaphore.cpp **** 
 455              		.loc 1 26 1 is_stmt 0
 456 023c 13050000 		li	a0,0
GAS LISTING /tmp/ccxl7UNL.s 			page 12


 457 0240 83308100 		ld	ra,8(sp)
 458              		.cfi_restore 1
 459 0244 03340100 		ld	s0,0(sp)
 460              		.cfi_restore 8
 461              		.cfi_def_cfa 2, 16
 462 0248 13010101 		addi	sp,sp,16
 463              		.cfi_def_cfa_offset 0
 464 024c 67800000 		jr	ra
 465              		.cfi_endproc
 466              	.LFE25:
 468              		.align	2
 469              		.globl	_ZN10KSemaphorenwEm
 471              	_ZN10KSemaphorenwEm:
 472              	.LFB35:
  99:src/KSemaphore.cpp **** 
 100:src/KSemaphore.cpp **** void *KSemaphore::operator new(size_t size) {
 473              		.loc 1 100 45 is_stmt 1
 474              		.cfi_startproc
 475              	.LVL35:
 476 0250 130101FF 		addi	sp,sp,-16
 477              		.cfi_def_cfa_offset 16
 478 0254 23341100 		sd	ra,8(sp)
 479 0258 23308100 		sd	s0,0(sp)
 480              		.cfi_offset 1, -8
 481              		.cfi_offset 8, -16
 482 025c 13040101 		addi	s0,sp,16
 483              		.cfi_def_cfa 8, 0
 101:src/KSemaphore.cpp ****     return kmalloc(size);
 484              		.loc 1 101 5
 485              		.loc 1 101 19 is_stmt 0
 486 0260 97000000 		call	_Z7kmallocm@plt
 486      E7800000 
 487              	.LVL36:
 102:src/KSemaphore.cpp **** }
 488              		.loc 1 102 1
 489 0268 83308100 		ld	ra,8(sp)
 490              		.cfi_restore 1
 491 026c 03340100 		ld	s0,0(sp)
 492              		.cfi_restore 8
 493              		.cfi_def_cfa 2, 16
 494 0270 13010101 		addi	sp,sp,16
 495              		.cfi_def_cfa_offset 0
 496 0274 67800000 		jr	ra
 497              		.cfi_endproc
 498              	.LFE35:
 500              		.align	2
 501              		.globl	_ZN10KSemaphore14semOpenHandlerEv
 503              	_ZN10KSemaphore14semOpenHandlerEv:
 504              	.LFB26:
  29:src/KSemaphore.cpp ****     uint64 val;
 505              		.loc 1 29 1 is_stmt 1
 506              		.cfi_startproc
 507 0278 130101FD 		addi	sp,sp,-48
 508              		.cfi_def_cfa_offset 48
 509 027c 23341102 		sd	ra,40(sp)
 510 0280 23308102 		sd	s0,32(sp)
 511 0284 233C9100 		sd	s1,24(sp)
GAS LISTING /tmp/ccxl7UNL.s 			page 13


 512 0288 23382101 		sd	s2,16(sp)
 513 028c 23343101 		sd	s3,8(sp)
 514              		.cfi_offset 1, -8
 515              		.cfi_offset 8, -16
 516              		.cfi_offset 9, -24
 517              		.cfi_offset 18, -32
 518              		.cfi_offset 19, -40
 519 0290 13040103 		addi	s0,sp,48
 520              		.cfi_def_cfa 8, 0
  30:src/KSemaphore.cpp ****     KSemaphore** semaphoreHandle;
 521              		.loc 1 30 5
  31:src/KSemaphore.cpp ****     __asm__ volatile("mv %0, a1" : "=r"(semaphoreHandle));
 522              		.loc 1 31 5
  32:src/KSemaphore.cpp ****     __asm__ volatile("mv %0, a2" : "=r"(val));
 523              		.loc 1 32 5
  32:src/KSemaphore.cpp ****     __asm__ volatile("mv %0, a2" : "=r"(val));
 524              		.loc 1 32 58 is_stmt 0
 525              	#APP
 526              	# 32 "src/KSemaphore.cpp" 1
 527              		mv s2, a1
 528              	# 0 "" 2
 529              	.LVL37:
  33:src/KSemaphore.cpp **** 
 530              		.loc 1 33 5 is_stmt 1
  33:src/KSemaphore.cpp **** 
 531              		.loc 1 33 46 is_stmt 0
 532              	# 33 "src/KSemaphore.cpp" 1
 533              		mv s3, a2
 534              	# 0 "" 2
 535              	.LVL38:
  35:src/KSemaphore.cpp **** 
 536              		.loc 1 35 5 is_stmt 1
  35:src/KSemaphore.cpp **** 
 537              		.loc 1 35 44 is_stmt 0
 538              	#NO_APP
 539 029c 13058001 		li	a0,24
 540 02a0 97000000 		call	_ZN10KSemaphorenwEm
 540      E7800000 
 541              	.LVL39:
 542 02a8 93040500 		mv	s1,a0
 543 02ac 9B850900 		sext.w	a1,s3
 544 02b0 97000000 		call	_ZN10KSemaphoreC1Ei
 544      E7800000 
 545              	.LVL40:
  37:src/KSemaphore.cpp **** 
 546              		.loc 1 37 5 is_stmt 1
  37:src/KSemaphore.cpp **** 
 547              		.loc 1 37 24 is_stmt 0
 548 02b8 23309900 		sd	s1,0(s2)
  39:src/KSemaphore.cpp ****             __asm__ volatile("li a0, 0xffffffffffffffff");
 549              		.loc 1 39 5 is_stmt 1
 550 02bc 63820402 		beqz	s1,.L43
  42:src/KSemaphore.cpp **** }
 551              		.loc 1 42 13
  42:src/KSemaphore.cpp **** }
 552              		.loc 1 42 41 is_stmt 0
 553              	#APP
GAS LISTING /tmp/ccxl7UNL.s 			page 14


 554              	# 42 "src/KSemaphore.cpp" 1
 555              		li a0, 0
 556              	# 0 "" 2
 557              	#NO_APP
 558              	.L39:
  43:src/KSemaphore.cpp **** 
 559              		.loc 1 43 1
 560 02c4 83308102 		ld	ra,40(sp)
 561              		.cfi_remember_state
 562              		.cfi_restore 1
 563 02c8 03340102 		ld	s0,32(sp)
 564              		.cfi_restore 8
 565              		.cfi_def_cfa 2, 48
 566 02cc 83348101 		ld	s1,24(sp)
 567              		.cfi_restore 9
 568              	.LVL41:
 569 02d0 03390101 		ld	s2,16(sp)
 570              		.cfi_restore 18
 571              	.LVL42:
 572 02d4 83398100 		ld	s3,8(sp)
 573              		.cfi_restore 19
 574              	.LVL43:
 575 02d8 13010103 		addi	sp,sp,48
 576              		.cfi_def_cfa_offset 0
 577 02dc 67800000 		jr	ra
 578              	.LVL44:
 579              	.L43:
 580              		.cfi_restore_state
  40:src/KSemaphore.cpp ****     else
 581              		.loc 1 40 13 is_stmt 1
  40:src/KSemaphore.cpp ****     else
 582              		.loc 1 40 58 is_stmt 0
 583              	#APP
 584              	# 40 "src/KSemaphore.cpp" 1
 585              		li a0, 0xffffffffffffffff
 586              	# 0 "" 2
 587              	#NO_APP
 588 02e4 6FF01FFE 		j	.L39
 589              		.cfi_endproc
 590              	.LFE26:
 592              		.align	2
 593              		.globl	_ZN10KSemaphoredlEPv
 595              	_ZN10KSemaphoredlEPv:
 596              	.LFB36:
 103:src/KSemaphore.cpp **** 
 104:src/KSemaphore.cpp **** void KSemaphore::operator delete(void *p)
 105:src/KSemaphore.cpp **** {
 597              		.loc 1 105 1 is_stmt 1
 598              		.cfi_startproc
 599              	.LVL45:
 600 02e8 130101FF 		addi	sp,sp,-16
 601              		.cfi_def_cfa_offset 16
 602 02ec 23341100 		sd	ra,8(sp)
 603 02f0 23308100 		sd	s0,0(sp)
 604              		.cfi_offset 1, -8
 605              		.cfi_offset 8, -16
 606 02f4 13040101 		addi	s0,sp,16
GAS LISTING /tmp/ccxl7UNL.s 			page 15


 607              		.cfi_def_cfa 8, 0
 106:src/KSemaphore.cpp ****     kfree(p);
 608              		.loc 1 106 5
 609              		.loc 1 106 10 is_stmt 0
 610 02f8 97000000 		call	_Z5kfreePv@plt
 610      E7800000 
 611              	.LVL46:
 107:src/KSemaphore.cpp **** }
 612              		.loc 1 107 1
 613 0300 83308100 		ld	ra,8(sp)
 614              		.cfi_restore 1
 615 0304 03340100 		ld	s0,0(sp)
 616              		.cfi_restore 8
 617              		.cfi_def_cfa 2, 16
 618 0308 13010101 		addi	sp,sp,16
 619              		.cfi_def_cfa_offset 0
 620 030c 67800000 		jr	ra
 621              		.cfi_endproc
 622              	.LFE36:
 624              		.align	2
 625              		.globl	_ZN10KSemaphore14semWaitHandlerEv
 627              	_ZN10KSemaphore14semWaitHandlerEv:
 628              	.LFB37:
 108:src/KSemaphore.cpp **** 
 109:src/KSemaphore.cpp **** void KSemaphore::semWaitHandler()
 110:src/KSemaphore.cpp **** {
 629              		.loc 1 110 1 is_stmt 1
 630              		.cfi_startproc
 631 0310 130101FE 		addi	sp,sp,-32
 632              		.cfi_def_cfa_offset 32
 633 0314 233C1100 		sd	ra,24(sp)
 634 0318 23388100 		sd	s0,16(sp)
 635              		.cfi_offset 1, -8
 636              		.cfi_offset 8, -16
 637 031c 13040102 		addi	s0,sp,32
 638              		.cfi_def_cfa 8, 0
 111:src/KSemaphore.cpp ****     KSemaphore* kSem;
 639              		.loc 1 111 5
 112:src/KSemaphore.cpp ****     __asm__ volatile("mv %0, a1" : "=r"(kSem));
 640              		.loc 1 112 5
 641              		.loc 1 112 47 is_stmt 0
 642              	#APP
 643              	# 112 "src/KSemaphore.cpp" 1
 113              	    uint64 volatile retval = kSem->wait();
 644              		mv a0, a1
 645              	# 0 "" 2
 646              	.LVL47:
 647              		.loc 1 113 5 is_stmt 1
 648              		.loc 1 113 40 is_stmt 0
 649              	#NO_APP
 650 0324 97000000 		call	_ZN10KSemaphore4waitEv
 650      E7800000 
 651              	.LVL48:
 652              		.loc 1 113 41
 653 032c 2334A4FE 		sd	a0,-24(s0)
 114:src/KSemaphore.cpp ****     __asm__ volatile("mv a0,%0" : :"r"(retval));
 654              		.loc 1 114 5 is_stmt 1
GAS LISTING /tmp/ccxl7UNL.s 			page 16


 655              		.loc 1 114 40 is_stmt 0
 656 0330 833784FE 		ld	a5,-24(s0)
 657              		.loc 1 114 48
 658              	#APP
 659              	# 114 "src/KSemaphore.cpp" 1
 115              	}
 660              		mv a0,a5
 661              	# 0 "" 2
 662              		.loc 1 115 1
 663              	#NO_APP
 664 0338 83308101 		ld	ra,24(sp)
 665              		.cfi_restore 1
 666 033c 03340101 		ld	s0,16(sp)
 667              		.cfi_restore 8
 668              		.cfi_def_cfa 2, 32
 669 0340 13010102 		addi	sp,sp,32
 670              		.cfi_def_cfa_offset 0
 671 0344 67800000 		jr	ra
 672              		.cfi_endproc
 673              	.LFE37:
 675              		.align	2
 676              		.globl	_ZN10KSemaphore16semSignalHandlerEv
 678              	_ZN10KSemaphore16semSignalHandlerEv:
 679              	.LFB38:
 116:src/KSemaphore.cpp **** 
 117:src/KSemaphore.cpp **** void KSemaphore::semSignalHandler()
 118:src/KSemaphore.cpp **** {
 680              		.loc 1 118 1 is_stmt 1
 681              		.cfi_startproc
 682 0348 130101FE 		addi	sp,sp,-32
 683              		.cfi_def_cfa_offset 32
 684 034c 233C1100 		sd	ra,24(sp)
 685 0350 23388100 		sd	s0,16(sp)
 686              		.cfi_offset 1, -8
 687              		.cfi_offset 8, -16
 688 0354 13040102 		addi	s0,sp,32
 689              		.cfi_def_cfa 8, 0
 119:src/KSemaphore.cpp ****     KSemaphore* kSem;
 690              		.loc 1 119 5
 120:src/KSemaphore.cpp ****     __asm__ volatile("mv %0, a1" : "=r"(kSem));
 691              		.loc 1 120 5
 692              		.loc 1 120 47 is_stmt 0
 693              	#APP
 694              	# 120 "src/KSemaphore.cpp" 1
 121              	    uint64 volatile retval = kSem->signal();
 695              		mv a0, a1
 696              	# 0 "" 2
 697              	.LVL49:
 698              		.loc 1 121 5 is_stmt 1
 699              		.loc 1 121 42 is_stmt 0
 700              	#NO_APP
 701 035c 97000000 		call	_ZN10KSemaphore6signalEv
 701      E7800000 
 702              	.LVL50:
 703              		.loc 1 121 43
 704 0364 2334A4FE 		sd	a0,-24(s0)
 122:src/KSemaphore.cpp ****     __asm__ volatile("mv a0,%0" : :"r"(retval));
GAS LISTING /tmp/ccxl7UNL.s 			page 17


 705              		.loc 1 122 5 is_stmt 1
 706              		.loc 1 122 40 is_stmt 0
 707 0368 833784FE 		ld	a5,-24(s0)
 708              		.loc 1 122 48
 709              	#APP
 710              	# 122 "src/KSemaphore.cpp" 1
 123              	}
 711              		mv a0,a5
 712              	# 0 "" 2
 713              		.loc 1 123 1
 714              	#NO_APP
 715 0370 83308101 		ld	ra,24(sp)
 716              		.cfi_restore 1
 717 0374 03340101 		ld	s0,16(sp)
 718              		.cfi_restore 8
 719              		.cfi_def_cfa 2, 32
 720 0378 13010102 		addi	sp,sp,32
 721              		.cfi_def_cfa_offset 0
 722 037c 67800000 		jr	ra
 723              		.cfi_endproc
 724              	.LFE38:
 726              		.align	2
 727              		.globl	_ZN10KSemaphore15semCloseHandlerEv
 729              	_ZN10KSemaphore15semCloseHandlerEv:
 730              	.LFB39:
 124:src/KSemaphore.cpp **** 
 125:src/KSemaphore.cpp **** void KSemaphore::semCloseHandler()
 126:src/KSemaphore.cpp **** {
 731              		.loc 1 126 1 is_stmt 1
 732              		.cfi_startproc
 733 0380 130101FE 		addi	sp,sp,-32
 734              		.cfi_def_cfa_offset 32
 735 0384 233C1100 		sd	ra,24(sp)
 736 0388 23388100 		sd	s0,16(sp)
 737 038c 23349100 		sd	s1,8(sp)
 738              		.cfi_offset 1, -8
 739              		.cfi_offset 8, -16
 740              		.cfi_offset 9, -24
 741 0390 13040102 		addi	s0,sp,32
 742              		.cfi_def_cfa 8, 0
 127:src/KSemaphore.cpp ****     KSemaphore* kSem;
 743              		.loc 1 127 5
 128:src/KSemaphore.cpp ****     __asm__ volatile("mv %0, a1" : "=r"(kSem));
 744              		.loc 1 128 5
 745              		.loc 1 128 47 is_stmt 0
 746              	#APP
 747              	# 128 "src/KSemaphore.cpp" 1
 129              	    delete kSem;
 748              		mv s1, a1
 749              	# 0 "" 2
 750              	.LVL51:
 751              		.loc 1 129 5 is_stmt 1
 752              		.loc 1 129 16 is_stmt 0
 753              	#NO_APP
 754 0398 638E0400 		beqz	s1,.L51
 755              		.loc 1 129 12 discriminator 1
 756 039c 13850400 		mv	a0,s1
GAS LISTING /tmp/ccxl7UNL.s 			page 18


 757 03a0 97000000 		call	_ZN10KSemaphoreD1Ev
 757      E7800000 
 758              	.LVL52:
 759 03a8 13850400 		mv	a0,s1
 760 03ac 97000000 		call	_ZN10KSemaphoredlEPv
 760      E7800000 
 761              	.LVL53:
 762              	.L51:
 130:src/KSemaphore.cpp ****     __asm__ volatile("li a0, 0");
 763              		.loc 1 130 5 is_stmt 1
 764              		.loc 1 130 33 is_stmt 0
 765              	#APP
 766              	# 130 "src/KSemaphore.cpp" 1
 131              	}
 767              		li a0, 0
 768              	# 0 "" 2
 769              		.loc 1 131 1
 770              	#NO_APP
 771 03b8 83308101 		ld	ra,24(sp)
 772              		.cfi_restore 1
 773 03bc 03340101 		ld	s0,16(sp)
 774              		.cfi_restore 8
 775              		.cfi_def_cfa 2, 32
 776 03c0 83348100 		ld	s1,8(sp)
 777              		.cfi_restore 9
 778              	.LVL54:
 779 03c4 13010102 		addi	sp,sp,32
 780              		.cfi_def_cfa_offset 0
 781 03c8 67800000 		jr	ra
 782              		.cfi_endproc
 783              	.LFE39:
 785              	.Letext0:
 786              		.file 3 "src/../h/../lib/hw.h"
 787              		.file 4 "src/../h/Scheduler.hpp"
 788              		.file 5 "src/../h/KSemaphore.hpp"
 789              		.file 6 "src/../h/MemoryAllocator.hpp"
 4010              		.align	3
 4013              	DW.ref.__gxx_personality_v0:
 4014 0000 00000000 		.dword	__gxx_personality_v0
 4014      00000000 
 4015              		.ident	"GCC: (Ubuntu 9.3.0-17ubuntu1~20.04) 9.3.0"
 4016              		.section	.note.GNU-stack,"",@progbits
GAS LISTING /tmp/ccxl7UNL.s 			page 19


DEFINED SYMBOLS
                            *ABS*:0000000000000000 KSemaphore.cpp
     /tmp/ccxl7UNL.s:9      .text:0000000000000000 _ZN10KSemaphoreC2Ei
     /tmp/ccxl7UNL.s:13     .text:0000000000000000 .L0 
     /tmp/ccxl7UNL.s:15     .text:0000000000000000 .L0 
     /tmp/ccxl7UNL.s:16     .text:0000000000000004 .L0 
     /tmp/ccxl7UNL.s:18     .text:0000000000000008 .L0 
     /tmp/ccxl7UNL.s:20     .text:000000000000000c .L0 
     /tmp/ccxl7UNL.s:23     .text:000000000000000c .L0 
     /tmp/ccxl7UNL.s:24     .text:000000000000000c .L0 
     /tmp/ccxl7UNL.s:26     .text:0000000000000010 .L0 
     /tmp/ccxl7UNL.s:28     .text:0000000000000014 .L0 
     /tmp/ccxl7UNL.s:29     .text:0000000000000014 .L0 
     /tmp/ccxl7UNL.s:31     .text:0000000000000018 .L0 
     /tmp/ccxl7UNL.s:34     .text:000000000000001c .L0 
     /tmp/ccxl7UNL.s:35     .text:0000000000000020 .L0 
     /tmp/ccxl7UNL.s:36     .text:0000000000000020 .L0 
     /tmp/ccxl7UNL.s:38     .text:0000000000000024 .L0 
     /tmp/ccxl7UNL.s:40     .text:0000000000000028 .L0 
     /tmp/ccxl7UNL.s:9      .text:0000000000000000 _ZN10KSemaphoreC1Ei
     /tmp/ccxl7UNL.s:48     .text:0000000000000028 _ZN10KSemaphore12addToBlockedEP3PCB
     /tmp/ccxl7UNL.s:51     .text:0000000000000028 .L0 
     /tmp/ccxl7UNL.s:53     .text:0000000000000028 .L0 
     /tmp/ccxl7UNL.s:54     .text:000000000000002c .L0 
     /tmp/ccxl7UNL.s:56     .text:0000000000000030 .L0 
     /tmp/ccxl7UNL.s:58     .text:0000000000000034 .L0 
     /tmp/ccxl7UNL.s:60     .text:0000000000000034 .L0 
     /tmp/ccxl7UNL.s:61     .text:0000000000000034 .L0 
     /tmp/ccxl7UNL.s:63     .text:0000000000000038 .L0 
     /tmp/ccxl7UNL.s:64     .text:0000000000000038 .L0 
     /tmp/ccxl7UNL.s:66     .text:000000000000003c .L0 
     /tmp/ccxl7UNL.s:68     .text:0000000000000040 .L0 
     /tmp/ccxl7UNL.s:70     .text:0000000000000044 .L0 
     /tmp/ccxl7UNL.s:72     .text:0000000000000048 .L0 
     /tmp/ccxl7UNL.s:73     .text:0000000000000048 .L0 
     /tmp/ccxl7UNL.s:76     .text:000000000000004c .L0 
     /tmp/ccxl7UNL.s:77     .text:0000000000000050 .L0 
     /tmp/ccxl7UNL.s:78     .text:0000000000000050 .L0 
     /tmp/ccxl7UNL.s:79     .text:0000000000000050 .L0 
     /tmp/ccxl7UNL.s:81     .text:0000000000000054 .L0 
     /tmp/ccxl7UNL.s:84     .text:0000000000000058 .L0 
     /tmp/ccxl7UNL.s:86     .text:0000000000000058 .L0 
     /tmp/ccxl7UNL.s:87     .text:0000000000000058 .L0 
     /tmp/ccxl7UNL.s:89     .text:000000000000005c .L0 
     /tmp/ccxl7UNL.s:91     .text:0000000000000064 .L0 
     /tmp/ccxl7UNL.s:97     .text:0000000000000064 _ZN10KSemaphore5blockEv
     /tmp/ccxl7UNL.s:100    .text:0000000000000064 .L0 
     /tmp/ccxl7UNL.s:102    .text:0000000000000064 .L0 
     /tmp/ccxl7UNL.s:103    .text:0000000000000068 .L0 
     /tmp/ccxl7UNL.s:106    .text:0000000000000070 .L0 
     /tmp/ccxl7UNL.s:107    .text:0000000000000070 .L0 
     /tmp/ccxl7UNL.s:109    .text:0000000000000074 .L0 
     /tmp/ccxl7UNL.s:111    .text:0000000000000074 .L0 
     /tmp/ccxl7UNL.s:112    .text:0000000000000074 .L0 
     /tmp/ccxl7UNL.s:119    .text:0000000000000080 .L0 
     /tmp/ccxl7UNL.s:120    .text:0000000000000080 .L0 
     /tmp/ccxl7UNL.s:126    .text:0000000000000088 .L0 
GAS LISTING /tmp/ccxl7UNL.s 			page 20


     /tmp/ccxl7UNL.s:127    .text:0000000000000088 .L0 
     /tmp/ccxl7UNL.s:130    .text:0000000000000090 .L0 
     /tmp/ccxl7UNL.s:131    .text:0000000000000090 .L0 
     /tmp/ccxl7UNL.s:134    .text:0000000000000098 .L0 
     /tmp/ccxl7UNL.s:135    .text:000000000000009c .L0 
     /tmp/ccxl7UNL.s:137    .text:00000000000000a0 .L0 
     /tmp/ccxl7UNL.s:138    .text:00000000000000a0 .L0 
     /tmp/ccxl7UNL.s:140    .text:00000000000000a4 .L0 
     /tmp/ccxl7UNL.s:142    .text:00000000000000a8 .L0 
     /tmp/ccxl7UNL.s:148    .text:00000000000000a8 _ZN10KSemaphore4waitEv
     /tmp/ccxl7UNL.s:151    .text:00000000000000a8 .L0 
     /tmp/ccxl7UNL.s:153    .text:00000000000000a8 .L0 
     /tmp/ccxl7UNL.s:154    .text:00000000000000a8 .L0 
     /tmp/ccxl7UNL.s:155    .text:00000000000000a8 .L0 
     /tmp/ccxl7UNL.s:157    .text:00000000000000ac .L0 
     /tmp/ccxl7UNL.s:159    .text:00000000000000b0 .L0 
     /tmp/ccxl7UNL.s:161    .text:00000000000000b4 .L0 
     /tmp/ccxl7UNL.s:164    .text:00000000000000bc .L0 
     /tmp/ccxl7UNL.s:165    .text:00000000000000bc .L0 
     /tmp/ccxl7UNL.s:171    .text:00000000000000c4 .L0 
     /tmp/ccxl7UNL.s:172    .text:00000000000000c8 .L0 
     /tmp/ccxl7UNL.s:175    .text:00000000000000d0 .L0 
     /tmp/ccxl7UNL.s:176    .text:00000000000000d0 .L0 
     /tmp/ccxl7UNL.s:178    .text:00000000000000d4 .L0 
     /tmp/ccxl7UNL.s:180    .text:00000000000000d4 .L0 
     /tmp/ccxl7UNL.s:181    .text:00000000000000d4 .L0 
     /tmp/ccxl7UNL.s:184    .text:00000000000000dc .L0 
     /tmp/ccxl7UNL.s:185    .text:00000000000000dc .L0 
     /tmp/ccxl7UNL.s:187    .text:00000000000000e4 .L0 
     /tmp/ccxl7UNL.s:189    .text:00000000000000e8 .L0 
     /tmp/ccxl7UNL.s:190    .text:00000000000000e8 .L0 
     /tmp/ccxl7UNL.s:192    .text:00000000000000ec .L0 
     /tmp/ccxl7UNL.s:194    .text:00000000000000f0 .L0 
     /tmp/ccxl7UNL.s:200    .text:00000000000000f0 _ZN10KSemaphore15getFirstBlockedEv
     /tmp/ccxl7UNL.s:203    .text:00000000000000f0 .L0 
     /tmp/ccxl7UNL.s:205    .text:00000000000000f0 .L0 
     /tmp/ccxl7UNL.s:206    .text:00000000000000f4 .L0 
     /tmp/ccxl7UNL.s:208    .text:00000000000000f8 .L0 
     /tmp/ccxl7UNL.s:210    .text:00000000000000fc .L0 
     /tmp/ccxl7UNL.s:212    .text:00000000000000fc .L0 
     /tmp/ccxl7UNL.s:213    .text:00000000000000fc .L0 
     /tmp/ccxl7UNL.s:216    .text:0000000000000104 .L0 
     /tmp/ccxl7UNL.s:217    .text:0000000000000104 .L0 
     /tmp/ccxl7UNL.s:219    .text:0000000000000108 .L0 
     /tmp/ccxl7UNL.s:221    .text:000000000000010c .L0 
     /tmp/ccxl7UNL.s:227    .text:000000000000010c _ZN10KSemaphore18removeFirstBlockedEv
     /tmp/ccxl7UNL.s:230    .text:000000000000010c .L0 
     /tmp/ccxl7UNL.s:232    .text:000000000000010c .L0 
     /tmp/ccxl7UNL.s:233    .text:0000000000000110 .L0 
     /tmp/ccxl7UNL.s:235    .text:0000000000000114 .L0 
     /tmp/ccxl7UNL.s:237    .text:0000000000000118 .L0 
     /tmp/ccxl7UNL.s:239    .text:0000000000000118 .L0 
     /tmp/ccxl7UNL.s:240    .text:0000000000000118 .L0 
     /tmp/ccxl7UNL.s:242    .text:000000000000011c .L0 
     /tmp/ccxl7UNL.s:245    .text:0000000000000120 .L0 
     /tmp/ccxl7UNL.s:246    .text:0000000000000120 .L0 
     /tmp/ccxl7UNL.s:247    .text:0000000000000120 .L0 
GAS LISTING /tmp/ccxl7UNL.s 			page 21


     /tmp/ccxl7UNL.s:249    .text:0000000000000124 .L0 
     /tmp/ccxl7UNL.s:251    .text:0000000000000128 .L0 
     /tmp/ccxl7UNL.s:252    .text:0000000000000128 .L0 
     /tmp/ccxl7UNL.s:254    .text:000000000000012c .L0 
     /tmp/ccxl7UNL.s:255    .text:000000000000012c .L0 
     /tmp/ccxl7UNL.s:258    .text:0000000000000130 .L0 
     /tmp/ccxl7UNL.s:261    .text:0000000000000134 .L0 
     /tmp/ccxl7UNL.s:262    .text:0000000000000138 .L0 
     /tmp/ccxl7UNL.s:263    .text:0000000000000138 .L0 
     /tmp/ccxl7UNL.s:264    .text:0000000000000138 .L0 
     /tmp/ccxl7UNL.s:266    .text:000000000000013c .L0 
     /tmp/ccxl7UNL.s:269    .text:0000000000000140 .L0 
     /tmp/ccxl7UNL.s:271    .text:0000000000000140 .L0 
     /tmp/ccxl7UNL.s:272    .text:0000000000000140 .L0 
     /tmp/ccxl7UNL.s:274    .text:0000000000000148 .L0 
     /tmp/ccxl7UNL.s:280    .text:0000000000000148 _ZN10KSemaphoreD2Ev
     /tmp/ccxl7UNL.s:283    .text:0000000000000148 .L0 
     /tmp/ccxl7UNL.s:4013   .data.rel.local.DW.ref.__gxx_personality_v0:0000000000000000 DW.ref.__gxx_personality_v0
     /tmp/ccxl7UNL.s:287    .text:0000000000000148 .L0 
     /tmp/ccxl7UNL.s:288    .text:000000000000014c .L0 
     /tmp/ccxl7UNL.s:293    .text:000000000000015c .L0 
     /tmp/ccxl7UNL.s:294    .text:000000000000015c .L0 
     /tmp/ccxl7UNL.s:295    .text:000000000000015c .L0 
     /tmp/ccxl7UNL.s:296    .text:000000000000015c .L0 
     /tmp/ccxl7UNL.s:298    .text:0000000000000160 .L0 
     /tmp/ccxl7UNL.s:304    .text:0000000000000164 .L0 
     /tmp/ccxl7UNL.s:305    .text:0000000000000164 .L0 
     /tmp/ccxl7UNL.s:306    .text:0000000000000164 .L0 
     /tmp/ccxl7UNL.s:311    .text:0000000000000174 .L0 
     /tmp/ccxl7UNL.s:315    .text:0000000000000178 .L0 
     /tmp/ccxl7UNL.s:316    .text:0000000000000178 .L0 
     /tmp/ccxl7UNL.s:317    .text:0000000000000178 .L0 
     /tmp/ccxl7UNL.s:321    .text:0000000000000184 .L0 
     /tmp/ccxl7UNL.s:322    .text:0000000000000184 .L0 
     /tmp/ccxl7UNL.s:327    .text:0000000000000190 .L0 
     /tmp/ccxl7UNL.s:332    .text:0000000000000194 .L0 
     /tmp/ccxl7UNL.s:333    .text:0000000000000198 .L0 
     /tmp/ccxl7UNL.s:335    .text:000000000000019c .L0 
     /tmp/ccxl7UNL.s:336    .text:000000000000019c .L0 
     /tmp/ccxl7UNL.s:338    .text:00000000000001a0 .L0 
     /tmp/ccxl7UNL.s:340    .text:00000000000001a4 .L0 
     /tmp/ccxl7UNL.s:343    .text:00000000000001a8 .L0 
     /tmp/ccxl7UNL.s:345    .text:00000000000001ac .L0 
     /tmp/ccxl7UNL.s:280    .text:0000000000000148 _ZN10KSemaphoreD1Ev
     /tmp/ccxl7UNL.s:361    .text:00000000000001ac _ZN10KSemaphore7unblockEv
     /tmp/ccxl7UNL.s:364    .text:00000000000001ac .L0 
     /tmp/ccxl7UNL.s:366    .text:00000000000001ac .L0 
     /tmp/ccxl7UNL.s:367    .text:00000000000001b0 .L0 
     /tmp/ccxl7UNL.s:372    .text:00000000000001c0 .L0 
     /tmp/ccxl7UNL.s:373    .text:00000000000001c0 .L0 
     /tmp/ccxl7UNL.s:374    .text:00000000000001c0 .L0 
     /tmp/ccxl7UNL.s:375    .text:00000000000001c0 .L0 
     /tmp/ccxl7UNL.s:377    .text:00000000000001c4 .L0 
     /tmp/ccxl7UNL.s:380    .text:00000000000001c8 .L0 
     /tmp/ccxl7UNL.s:381    .text:00000000000001c8 .L0 
     /tmp/ccxl7UNL.s:386    .text:00000000000001d4 .L0 
     /tmp/ccxl7UNL.s:387    .text:00000000000001d4 .L0 
GAS LISTING /tmp/ccxl7UNL.s 			page 22


     /tmp/ccxl7UNL.s:391    .text:00000000000001e0 .L0 
     /tmp/ccxl7UNL.s:393    .text:00000000000001e4 .L0 
     /tmp/ccxl7UNL.s:394    .text:00000000000001e4 .L0 
     /tmp/ccxl7UNL.s:399    .text:00000000000001f0 .L0 
     /tmp/ccxl7UNL.s:400    .text:00000000000001f4 .L0 
     /tmp/ccxl7UNL.s:402    .text:00000000000001f8 .L0 
     /tmp/ccxl7UNL.s:403    .text:00000000000001f8 .L0 
     /tmp/ccxl7UNL.s:405    .text:00000000000001fc .L0 
     /tmp/ccxl7UNL.s:408    .text:0000000000000200 .L0 
     /tmp/ccxl7UNL.s:411    .text:0000000000000204 .L0 
     /tmp/ccxl7UNL.s:413    .text:0000000000000208 .L0 
     /tmp/ccxl7UNL.s:419    .text:0000000000000208 _ZN10KSemaphore6signalEv
     /tmp/ccxl7UNL.s:422    .text:0000000000000208 .L0 
     /tmp/ccxl7UNL.s:424    .text:0000000000000208 .L0 
     /tmp/ccxl7UNL.s:425    .text:0000000000000208 .L0 
     /tmp/ccxl7UNL.s:426    .text:0000000000000208 .L0 
     /tmp/ccxl7UNL.s:428    .text:000000000000020c .L0 
     /tmp/ccxl7UNL.s:431    .text:0000000000000214 .L0 
     /tmp/ccxl7UNL.s:433    .text:0000000000000218 .L0 
     /tmp/ccxl7UNL.s:435    .text:000000000000021c .L0 
     /tmp/ccxl7UNL.s:436    .text:000000000000021c .L0 
     /tmp/ccxl7UNL.s:442    .text:0000000000000224 .L0 
     /tmp/ccxl7UNL.s:443    .text:0000000000000228 .L0 
     /tmp/ccxl7UNL.s:446    .text:0000000000000230 .L0 
     /tmp/ccxl7UNL.s:447    .text:0000000000000230 .L0 
     /tmp/ccxl7UNL.s:449    .text:0000000000000234 .L0 
     /tmp/ccxl7UNL.s:451    .text:0000000000000234 .L0 
     /tmp/ccxl7UNL.s:452    .text:0000000000000234 .L0 
     /tmp/ccxl7UNL.s:455    .text:000000000000023c .L0 
     /tmp/ccxl7UNL.s:456    .text:000000000000023c .L0 
     /tmp/ccxl7UNL.s:458    .text:0000000000000244 .L0 
     /tmp/ccxl7UNL.s:460    .text:0000000000000248 .L0 
     /tmp/ccxl7UNL.s:461    .text:0000000000000248 .L0 
     /tmp/ccxl7UNL.s:463    .text:000000000000024c .L0 
     /tmp/ccxl7UNL.s:465    .text:0000000000000250 .L0 
     /tmp/ccxl7UNL.s:471    .text:0000000000000250 _ZN10KSemaphorenwEm
     /tmp/ccxl7UNL.s:474    .text:0000000000000250 .L0 
     /tmp/ccxl7UNL.s:476    .text:0000000000000250 .L0 
     /tmp/ccxl7UNL.s:477    .text:0000000000000254 .L0 
     /tmp/ccxl7UNL.s:480    .text:000000000000025c .L0 
     /tmp/ccxl7UNL.s:481    .text:000000000000025c .L0 
     /tmp/ccxl7UNL.s:483    .text:0000000000000260 .L0 
     /tmp/ccxl7UNL.s:485    .text:0000000000000260 .L0 
     /tmp/ccxl7UNL.s:486    .text:0000000000000260 .L0 
     /tmp/ccxl7UNL.s:489    .text:0000000000000268 .L0 
     /tmp/ccxl7UNL.s:490    .text:000000000000026c .L0 
     /tmp/ccxl7UNL.s:492    .text:0000000000000270 .L0 
     /tmp/ccxl7UNL.s:493    .text:0000000000000270 .L0 
     /tmp/ccxl7UNL.s:495    .text:0000000000000274 .L0 
     /tmp/ccxl7UNL.s:497    .text:0000000000000278 .L0 
     /tmp/ccxl7UNL.s:503    .text:0000000000000278 _ZN10KSemaphore14semOpenHandlerEv
     /tmp/ccxl7UNL.s:506    .text:0000000000000278 .L0 
     /tmp/ccxl7UNL.s:507    .text:0000000000000278 .L0 
     /tmp/ccxl7UNL.s:508    .text:000000000000027c .L0 
     /tmp/ccxl7UNL.s:514    .text:0000000000000290 .L0 
     /tmp/ccxl7UNL.s:515    .text:0000000000000290 .L0 
     /tmp/ccxl7UNL.s:516    .text:0000000000000290 .L0 
GAS LISTING /tmp/ccxl7UNL.s 			page 23


     /tmp/ccxl7UNL.s:517    .text:0000000000000290 .L0 
     /tmp/ccxl7UNL.s:518    .text:0000000000000290 .L0 
     /tmp/ccxl7UNL.s:520    .text:0000000000000294 .L0 
     /tmp/ccxl7UNL.s:522    .text:0000000000000294 .L0 
     /tmp/ccxl7UNL.s:523    .text:0000000000000294 .L0 
     /tmp/ccxl7UNL.s:524    .text:0000000000000294 .L0 
  src/KSemaphore.cpp:32     .text:0000000000000294 .L0 
     /tmp/ccxl7UNL.s:531    .text:0000000000000298 .L0 
  src/KSemaphore.cpp:33     .text:0000000000000298 .L0 
     /tmp/ccxl7UNL.s:537    .text:000000000000029c .L0 
     /tmp/ccxl7UNL.s:539    .text:000000000000029c .L0 
     /tmp/ccxl7UNL.s:547    .text:00000000000002b8 .L0 
     /tmp/ccxl7UNL.s:548    .text:00000000000002b8 .L0 
     /tmp/ccxl7UNL.s:550    .text:00000000000002bc .L0 
     /tmp/ccxl7UNL.s:552    .text:00000000000002c0 .L0 
  src/KSemaphore.cpp:42     .text:00000000000002c0 .L0 
     /tmp/ccxl7UNL.s:560    .text:00000000000002c4 .L0 
     /tmp/ccxl7UNL.s:561    .text:00000000000002c8 .L0 
     /tmp/ccxl7UNL.s:562    .text:00000000000002c8 .L0 
     /tmp/ccxl7UNL.s:564    .text:00000000000002cc .L0 
     /tmp/ccxl7UNL.s:565    .text:00000000000002cc .L0 
     /tmp/ccxl7UNL.s:567    .text:00000000000002d0 .L0 
     /tmp/ccxl7UNL.s:570    .text:00000000000002d4 .L0 
     /tmp/ccxl7UNL.s:573    .text:00000000000002d8 .L0 
     /tmp/ccxl7UNL.s:576    .text:00000000000002dc .L0 
     /tmp/ccxl7UNL.s:580    .text:00000000000002e0 .L0 
     /tmp/ccxl7UNL.s:582    .text:00000000000002e0 .L0 
  src/KSemaphore.cpp:40     .text:00000000000002e0 .L0 
     /tmp/ccxl7UNL.s:589    .text:00000000000002e8 .L0 
     /tmp/ccxl7UNL.s:595    .text:00000000000002e8 _ZN10KSemaphoredlEPv
     /tmp/ccxl7UNL.s:598    .text:00000000000002e8 .L0 
     /tmp/ccxl7UNL.s:600    .text:00000000000002e8 .L0 
     /tmp/ccxl7UNL.s:601    .text:00000000000002ec .L0 
     /tmp/ccxl7UNL.s:604    .text:00000000000002f4 .L0 
     /tmp/ccxl7UNL.s:605    .text:00000000000002f4 .L0 
     /tmp/ccxl7UNL.s:607    .text:00000000000002f8 .L0 
     /tmp/ccxl7UNL.s:609    .text:00000000000002f8 .L0 
     /tmp/ccxl7UNL.s:610    .text:00000000000002f8 .L0 
     /tmp/ccxl7UNL.s:613    .text:0000000000000300 .L0 
     /tmp/ccxl7UNL.s:614    .text:0000000000000304 .L0 
     /tmp/ccxl7UNL.s:616    .text:0000000000000308 .L0 
     /tmp/ccxl7UNL.s:617    .text:0000000000000308 .L0 
     /tmp/ccxl7UNL.s:619    .text:000000000000030c .L0 
     /tmp/ccxl7UNL.s:621    .text:0000000000000310 .L0 
     /tmp/ccxl7UNL.s:627    .text:0000000000000310 _ZN10KSemaphore14semWaitHandlerEv
     /tmp/ccxl7UNL.s:630    .text:0000000000000310 .L0 
     /tmp/ccxl7UNL.s:631    .text:0000000000000310 .L0 
     /tmp/ccxl7UNL.s:632    .text:0000000000000314 .L0 
     /tmp/ccxl7UNL.s:635    .text:000000000000031c .L0 
     /tmp/ccxl7UNL.s:636    .text:000000000000031c .L0 
     /tmp/ccxl7UNL.s:638    .text:0000000000000320 .L0 
     /tmp/ccxl7UNL.s:640    .text:0000000000000320 .L0 
     /tmp/ccxl7UNL.s:641    .text:0000000000000320 .L0 
  src/KSemaphore.cpp:112    .text:0000000000000320 .L0 
     /tmp/ccxl7UNL.s:648    .text:0000000000000324 .L0 
     /tmp/ccxl7UNL.s:650    .text:0000000000000324 .L0 
     /tmp/ccxl7UNL.s:653    .text:000000000000032c .L0 
GAS LISTING /tmp/ccxl7UNL.s 			page 24


     /tmp/ccxl7UNL.s:655    .text:0000000000000330 .L0 
     /tmp/ccxl7UNL.s:656    .text:0000000000000330 .L0 
  src/KSemaphore.cpp:114    .text:0000000000000334 .L0 
     /tmp/ccxl7UNL.s:664    .text:0000000000000338 .L0 
     /tmp/ccxl7UNL.s:665    .text:000000000000033c .L0 
     /tmp/ccxl7UNL.s:667    .text:0000000000000340 .L0 
     /tmp/ccxl7UNL.s:668    .text:0000000000000340 .L0 
     /tmp/ccxl7UNL.s:670    .text:0000000000000344 .L0 
     /tmp/ccxl7UNL.s:672    .text:0000000000000348 .L0 
     /tmp/ccxl7UNL.s:678    .text:0000000000000348 _ZN10KSemaphore16semSignalHandlerEv
     /tmp/ccxl7UNL.s:681    .text:0000000000000348 .L0 
     /tmp/ccxl7UNL.s:682    .text:0000000000000348 .L0 
     /tmp/ccxl7UNL.s:683    .text:000000000000034c .L0 
     /tmp/ccxl7UNL.s:686    .text:0000000000000354 .L0 
     /tmp/ccxl7UNL.s:687    .text:0000000000000354 .L0 
     /tmp/ccxl7UNL.s:689    .text:0000000000000358 .L0 
     /tmp/ccxl7UNL.s:691    .text:0000000000000358 .L0 
     /tmp/ccxl7UNL.s:692    .text:0000000000000358 .L0 
  src/KSemaphore.cpp:120    .text:0000000000000358 .L0 
     /tmp/ccxl7UNL.s:699    .text:000000000000035c .L0 
     /tmp/ccxl7UNL.s:701    .text:000000000000035c .L0 
     /tmp/ccxl7UNL.s:704    .text:0000000000000364 .L0 
     /tmp/ccxl7UNL.s:706    .text:0000000000000368 .L0 
     /tmp/ccxl7UNL.s:707    .text:0000000000000368 .L0 
  src/KSemaphore.cpp:122    .text:000000000000036c .L0 
     /tmp/ccxl7UNL.s:715    .text:0000000000000370 .L0 
     /tmp/ccxl7UNL.s:716    .text:0000000000000374 .L0 
     /tmp/ccxl7UNL.s:718    .text:0000000000000378 .L0 
     /tmp/ccxl7UNL.s:719    .text:0000000000000378 .L0 
     /tmp/ccxl7UNL.s:721    .text:000000000000037c .L0 
     /tmp/ccxl7UNL.s:723    .text:0000000000000380 .L0 
     /tmp/ccxl7UNL.s:729    .text:0000000000000380 _ZN10KSemaphore15semCloseHandlerEv
     /tmp/ccxl7UNL.s:732    .text:0000000000000380 .L0 
     /tmp/ccxl7UNL.s:733    .text:0000000000000380 .L0 
     /tmp/ccxl7UNL.s:734    .text:0000000000000384 .L0 
     /tmp/ccxl7UNL.s:738    .text:0000000000000390 .L0 
     /tmp/ccxl7UNL.s:739    .text:0000000000000390 .L0 
     /tmp/ccxl7UNL.s:740    .text:0000000000000390 .L0 
     /tmp/ccxl7UNL.s:742    .text:0000000000000394 .L0 
     /tmp/ccxl7UNL.s:744    .text:0000000000000394 .L0 
     /tmp/ccxl7UNL.s:745    .text:0000000000000394 .L0 
  src/KSemaphore.cpp:128    .text:0000000000000394 .L0 
     /tmp/ccxl7UNL.s:752    .text:0000000000000398 .L0 
     /tmp/ccxl7UNL.s:754    .text:0000000000000398 .L0 
     /tmp/ccxl7UNL.s:756    .text:000000000000039c .L0 
     /tmp/ccxl7UNL.s:764    .text:00000000000003b4 .L0 
  src/KSemaphore.cpp:130    .text:00000000000003b4 .L0 
     /tmp/ccxl7UNL.s:771    .text:00000000000003b8 .L0 
     /tmp/ccxl7UNL.s:772    .text:00000000000003bc .L0 
     /tmp/ccxl7UNL.s:774    .text:00000000000003c0 .L0 
     /tmp/ccxl7UNL.s:775    .text:00000000000003c0 .L0 
     /tmp/ccxl7UNL.s:777    .text:00000000000003c4 .L0 
     /tmp/ccxl7UNL.s:780    .text:00000000000003c8 .L0 
     /tmp/ccxl7UNL.s:782    .text:00000000000003cc .L0 
     /tmp/ccxl7UNL.s:790    .text:00000000000003cc .L0 
     /tmp/ccxl7UNL.s:112    .text:0000000000000074 .L0 
     /tmp/ccxl7UNL.s:83     .text:0000000000000058 .L7
GAS LISTING /tmp/ccxl7UNL.s 			page 25


     /tmp/ccxl7UNL.s:74     .text:000000000000004c .L3
     /tmp/ccxl7UNL.s:169    .text:00000000000000c4 .L16
     /tmp/ccxl7UNL.s:259    .text:0000000000000134 .L19
     /tmp/ccxl7UNL.s:268    .text:0000000000000140 .L22
     /tmp/ccxl7UNL.s:329    .text:0000000000000194 .L23
     /tmp/ccxl7UNL.s:301    .text:0000000000000164 .L25
     /tmp/ccxl7UNL.s:397    .text:00000000000001f0 .L27
     /tmp/ccxl7UNL.s:440    .text:0000000000000224 .L36
     /tmp/ccxl7UNL.s:579    .text:00000000000002e0 .L43
     /tmp/ccxl7UNL.s:558    .text:00000000000002c4 .L39
     /tmp/ccxl7UNL.s:762    .text:00000000000003b4 .L51
     /tmp/ccxl7UNL.s:2284   .debug_abbrev:0000000000000000 .Ldebug_abbrev0
     /tmp/ccxl7UNL.s:3723   .debug_str:00000000000000dc .LASF145
     /tmp/ccxl7UNL.s:3813   .debug_str:0000000000000410 .LASF146
     /tmp/ccxl7UNL.s:3959   .debug_str:00000000000008d7 .LASF147
     /tmp/ccxl7UNL.s:5      .text:0000000000000000 .Ltext0
     /tmp/ccxl7UNL.s:785    .text:00000000000003cc .Letext0
     /tmp/ccxl7UNL.s:3693   .debug_line:0000000000000000 .Ldebug_line0
     /tmp/ccxl7UNL.s:3807   .debug_str:00000000000003da .LASF0
     /tmp/ccxl7UNL.s:3827   .debug_str:000000000000048b .LASF1
     /tmp/ccxl7UNL.s:3895   .debug_str:00000000000006e6 .LASF2
     /tmp/ccxl7UNL.s:3909   .debug_str:0000000000000759 .LASF4
     /tmp/ccxl7UNL.s:3817   .debug_str:0000000000000430 .LASF3
     /tmp/ccxl7UNL.s:3709   .debug_str:000000000000005c .LASF5
     /tmp/ccxl7UNL.s:3881   .debug_str:0000000000000663 .LASF6
     /tmp/ccxl7UNL.s:3875   .debug_str:0000000000000634 .LASF7
     /tmp/ccxl7UNL.s:3821   .debug_str:000000000000044f .LASF8
     /tmp/ccxl7UNL.s:3791   .debug_str:0000000000000351 .LASF9
     /tmp/ccxl7UNL.s:3797   .debug_str:0000000000000389 .LASF10
     /tmp/ccxl7UNL.s:3735   .debug_str:00000000000001e1 .LASF11
     /tmp/ccxl7UNL.s:3781   .debug_str:000000000000030b .LASF12
     /tmp/ccxl7UNL.s:3747   .debug_str:000000000000021d .LASF13
     /tmp/ccxl7UNL.s:3733   .debug_str:00000000000001d1 .LASF14
     /tmp/ccxl7UNL.s:3937   .debug_str:0000000000000869 .LASF15
     /tmp/ccxl7UNL.s:3775   .debug_str:00000000000002e2 .LASF16
     /tmp/ccxl7UNL.s:3929   .debug_str:00000000000007f5 .LASF17
     /tmp/ccxl7UNL.s:3949   .debug_str:00000000000008a7 .LASF148
     /tmp/ccxl7UNL.s:3731   .debug_str:00000000000001cb .LASF18
     /tmp/ccxl7UNL.s:3923   .debug_str:00000000000007d4 .LASF19
     /tmp/ccxl7UNL.s:3743   .debug_str:0000000000000209 .LASF20
     /tmp/ccxl7UNL.s:3721   .debug_str:00000000000000d3 .LASF21
     /tmp/ccxl7UNL.s:3877   .debug_str:0000000000000647 .LASF22
     /tmp/ccxl7UNL.s:3741   .debug_str:0000000000000200 .LASF23
     /tmp/ccxl7UNL.s:3943   .debug_str:000000000000088f .LASF84
     /tmp/ccxl7UNL.s:3801   .debug_str:00000000000003b9 .LASF24
     /tmp/ccxl7UNL.s:3711   .debug_str:0000000000000063 .LASF29
     /tmp/ccxl7UNL.s:3965   .debug_str:0000000000000911 .LASF149
     /tmp/ccxl7UNL.s:3865   .debug_str:00000000000005e6 .LASF150
     /tmp/ccxl7UNL.s:3825   .debug_str:0000000000000486 .LASF25
     /tmp/ccxl7UNL.s:3993   .debug_str:00000000000009ce .LASF27
     /tmp/ccxl7UNL.s:3987   .debug_str:000000000000099e .LASF26
     /tmp/ccxl7UNL.s:3955   .debug_str:00000000000008bd .LASF28
     /tmp/ccxl7UNL.s:3765   .debug_str:00000000000002b4 .LASF54
     /tmp/ccxl7UNL.s:3715   .debug_str:0000000000000086 .LASF56
     /tmp/ccxl7UNL.s:3831   .debug_str:00000000000004a7 .LASF34
     /tmp/ccxl7UNL.s:3869   .debug_str:00000000000005fe .LASF36
     /tmp/ccxl7UNL.s:3951   .debug_str:00000000000008ad .LASF30
GAS LISTING /tmp/ccxl7UNL.s 			page 26


     /tmp/ccxl7UNL.s:3915   .debug_str:000000000000078b .LASF31
     /tmp/ccxl7UNL.s:3833   .debug_str:00000000000004ad .LASF38
     /tmp/ccxl7UNL.s:3835   .debug_str:00000000000004ba .LASF40
     /tmp/ccxl7UNL.s:3997   .debug_str:00000000000009ea .LASF32
     /tmp/ccxl7UNL.s:3777   .debug_str:00000000000002f8 .LASF33
     /tmp/ccxl7UNL.s:3703   .debug_str:000000000000003a .LASF35
     /tmp/ccxl7UNL.s:3815   .debug_str:0000000000000423 .LASF37
     /tmp/ccxl7UNL.s:3919   .debug_str:00000000000007ad .LASF39
     /tmp/ccxl7UNL.s:3849   .debug_str:000000000000053c .LASF41
     /tmp/ccxl7UNL.s:3903   .debug_str:000000000000071f .LASF42
     /tmp/ccxl7UNL.s:3933   .debug_str:000000000000082b .LASF43
     /tmp/ccxl7UNL.s:3851   .debug_str:000000000000054f .LASF44
     /tmp/ccxl7UNL.s:3699   .debug_str:000000000000001b .LASF45
     /tmp/ccxl7UNL.s:3981   .debug_str:0000000000000976 .LASF46
     /tmp/ccxl7UNL.s:3873   .debug_str:000000000000061a .LASF47
     /tmp/ccxl7UNL.s:3927   .debug_str:00000000000007e7 .LASF48
     /tmp/ccxl7UNL.s:3883   .debug_str:000000000000066a .LASF49
     /tmp/ccxl7UNL.s:3763   .debug_str:00000000000002a4 .LASF50
     /tmp/ccxl7UNL.s:3783   .debug_str:000000000000031a .LASF51
     /tmp/ccxl7UNL.s:3891   .debug_str:00000000000006c1 .LASF52
     /tmp/ccxl7UNL.s:3983   .debug_str:0000000000000985 .LASF53
     /tmp/ccxl7UNL.s:3819   .debug_str:0000000000000442 .LASF60
     /tmp/ccxl7UNL.s:3925   .debug_str:00000000000007dc .LASF55
     /tmp/ccxl7UNL.s:3991   .debug_str:00000000000009b8 .LASF57
     /tmp/ccxl7UNL.s:3945   .debug_str:0000000000000897 .LASF58
     /tmp/ccxl7UNL.s:3759   .debug_str:0000000000000289 .LASF59
     /tmp/ccxl7UNL.s:3913   .debug_str:0000000000000783 .LASF61
     /tmp/ccxl7UNL.s:3809   .debug_str:00000000000003e7 .LASF62
     /tmp/ccxl7UNL.s:3859   .debug_str:0000000000000596 .LASF63
     /tmp/ccxl7UNL.s:3753   .debug_str:0000000000000262 .LASF64
     /tmp/ccxl7UNL.s:3887   .debug_str:0000000000000699 .LASF65
     /tmp/ccxl7UNL.s:4005   .debug_str:0000000000000a27 .LASF66
     /tmp/ccxl7UNL.s:3861   .debug_str:00000000000005b5 .LASF67
     /tmp/ccxl7UNL.s:3901   .debug_str:000000000000070c .LASF68
     /tmp/ccxl7UNL.s:3921   .debug_str:00000000000007b6 .LASF69
     /tmp/ccxl7UNL.s:3971   .debug_str:0000000000000943 .LASF70
     /tmp/ccxl7UNL.s:3847   .debug_str:000000000000051e .LASF71
     /tmp/ccxl7UNL.s:3967   .debug_str:0000000000000929 .LASF72
     /tmp/ccxl7UNL.s:3931   .debug_str:000000000000080b .LASF73
     /tmp/ccxl7UNL.s:3957   .debug_str:00000000000008cd .LASF74
     /tmp/ccxl7UNL.s:3871   .debug_str:000000000000060e .LASF75
     /tmp/ccxl7UNL.s:3985   .debug_str:0000000000000990 .LASF76
     /tmp/ccxl7UNL.s:3717   .debug_str:0000000000000099 .LASF78
     /tmp/ccxl7UNL.s:3811   .debug_str:00000000000003fb .LASF77
     /tmp/ccxl7UNL.s:3729   .debug_str:000000000000019f .LASF79
     /tmp/ccxl7UNL.s:3979   .debug_str:000000000000096f .LASF151
     /tmp/ccxl7UNL.s:3727   .debug_str:000000000000018e .LASF152
     /tmp/ccxl7UNL.s:3701   .debug_str:0000000000000035 .LASF80
     /tmp/ccxl7UNL.s:3969   .debug_str:000000000000093e .LASF81
     /tmp/ccxl7UNL.s:3839   .debug_str:00000000000004ec .LASF82
     /tmp/ccxl7UNL.s:3771   .debug_str:00000000000002c8 .LASF83
     /tmp/ccxl7UNL.s:3963   .debug_str:0000000000000909 .LASF85
     /tmp/ccxl7UNL.s:3789   .debug_str:0000000000000347 .LASF86
     /tmp/ccxl7UNL.s:3713   .debug_str:000000000000006e .LASF153
     /tmp/ccxl7UNL.s:3989   .debug_str:00000000000009a4 .LASF154
     /tmp/ccxl7UNL.s:3719   .debug_str:00000000000000c1 .LASF87
     /tmp/ccxl7UNL.s:3867   .debug_str:00000000000005eb .LASF88
GAS LISTING /tmp/ccxl7UNL.s 			page 27


     /tmp/ccxl7UNL.s:3953   .debug_str:00000000000008b5 .LASF89
     /tmp/ccxl7UNL.s:3893   .debug_str:00000000000006ce .LASF155
     /tmp/ccxl7UNL.s:3725   .debug_str:0000000000000188 .LASF90
     /tmp/ccxl7UNL.s:3857   .debug_str:0000000000000580 .LASF91
     /tmp/ccxl7UNL.s:3917   .debug_str:000000000000079c .LASF92
     /tmp/ccxl7UNL.s:3749   .debug_str:000000000000022d .LASF93
     /tmp/ccxl7UNL.s:3947   .debug_str:00000000000008a2 .LASF94
     /tmp/ccxl7UNL.s:3843   .debug_str:0000000000000505 .LASF95
     /tmp/ccxl7UNL.s:3889   .debug_str:00000000000006b6 .LASF96
     /tmp/ccxl7UNL.s:3795   .debug_str:0000000000000375 .LASF97
     /tmp/ccxl7UNL.s:3897   .debug_str:00000000000006f4 .LASF98
     /tmp/ccxl7UNL.s:3773   .debug_str:00000000000002ce .LASF99
     /tmp/ccxl7UNL.s:3767   .debug_str:00000000000002bd .LASF100
     /tmp/ccxl7UNL.s:3787   .debug_str:0000000000000330 .LASF101
     /tmp/ccxl7UNL.s:3941   .debug_str:0000000000000888 .LASF102
     /tmp/ccxl7UNL.s:3855   .debug_str:0000000000000567 .LASF103
     /tmp/ccxl7UNL.s:3697   .debug_str:000000000000000f .LASF104
     /tmp/ccxl7UNL.s:3899   .debug_str:0000000000000700 .LASF105
     /tmp/ccxl7UNL.s:3845   .debug_str:000000000000050a .LASF106
     /tmp/ccxl7UNL.s:3803   .debug_str:00000000000003bf .LASF107
     /tmp/ccxl7UNL.s:3739   .debug_str:00000000000001f7 .LASF108
     /tmp/ccxl7UNL.s:3745   .debug_str:0000000000000213 .LASF109
     /tmp/ccxl7UNL.s:3853   .debug_str:000000000000055e .LASF110
     /tmp/ccxl7UNL.s:3907   .debug_str:000000000000074e .LASF111
     /tmp/ccxl7UNL.s:3695   .debug_str:0000000000000000 .LASF112
     /tmp/ccxl7UNL.s:3799   .debug_str:0000000000000397 .LASF113
     /tmp/ccxl7UNL.s:3961   .debug_str:00000000000008fa .LASF114
     /tmp/ccxl7UNL.s:3935   .debug_str:0000000000000847 .LASF115
     /tmp/ccxl7UNL.s:3841   .debug_str:00000000000004f4 .LASF116
     /tmp/ccxl7UNL.s:3751   .debug_str:000000000000023e .LASF117
     /tmp/ccxl7UNL.s:3863   .debug_str:00000000000005d6 .LASF118
     /tmp/ccxl7UNL.s:3885   .debug_str:0000000000000676 .LASF119
     /tmp/ccxl7UNL.s:3829   .debug_str:000000000000049e .LASF120
     /tmp/ccxl7UNL.s:3805   .debug_str:00000000000003d4 .LASF121
     /tmp/ccxl7UNL.s:4001   .debug_str:0000000000000a02 .LASF122
     /tmp/ccxl7UNL.s:3705   .debug_str:000000000000004a .LASF123
     /tmp/ccxl7UNL.s:3837   .debug_str:00000000000004d2 .LASF124
     /tmp/ccxl7UNL.s:3995   .debug_str:00000000000009da .LASF125
     /tmp/ccxl7UNL.s:3911   .debug_str:0000000000000760 .LASF126
     /tmp/ccxl7UNL.s:3939   .debug_str:0000000000000875 .LASF127
     /tmp/ccxl7UNL.s:3905   .debug_str:0000000000000728 .LASF128
     /tmp/ccxl7UNL.s:4003   .debug_str:0000000000000a1a .LASF129
     /tmp/ccxl7UNL.s:3823   .debug_str:0000000000000462 .LASF130
     /tmp/ccxl7UNL.s:730    .text:0000000000000380 .LFB39
     /tmp/ccxl7UNL.s:783    .text:00000000000003cc .LFE39
     /tmp/ccxl7UNL.s:3975   .debug_str:0000000000000962 .LASF131
     /tmp/ccxl7UNL.s:3443   .debug_loc:0000000000000000 .LLST18
     /tmp/ccxl7UNL.s:758    .text:00000000000003a8 .LVL52
     /tmp/ccxl7UNL.s:761    .text:00000000000003b4 .LVL53
     /tmp/ccxl7UNL.s:679    .text:0000000000000348 .LFB38
     /tmp/ccxl7UNL.s:724    .text:0000000000000380 .LFE38
     /tmp/ccxl7UNL.s:3450   .debug_loc:0000000000000023 .LLST17
     /tmp/ccxl7UNL.s:3779   .debug_str:0000000000000304 .LASF132
     /tmp/ccxl7UNL.s:702    .text:0000000000000364 .LVL50
     /tmp/ccxl7UNL.s:628    .text:0000000000000310 .LFB37
     /tmp/ccxl7UNL.s:673    .text:0000000000000348 .LFE37
     /tmp/ccxl7UNL.s:3457   .debug_loc:0000000000000046 .LLST16
GAS LISTING /tmp/ccxl7UNL.s 			page 28


     /tmp/ccxl7UNL.s:651    .text:000000000000032c .LVL48
     /tmp/ccxl7UNL.s:596    .text:00000000000002e8 .LFB36
     /tmp/ccxl7UNL.s:622    .text:0000000000000310 .LFE36
     /tmp/ccxl7UNL.s:3464   .debug_loc:0000000000000069 .LLST15
     /tmp/ccxl7UNL.s:611    .text:0000000000000300 .LVL46
     /tmp/ccxl7UNL.s:472    .text:0000000000000250 .LFB35
     /tmp/ccxl7UNL.s:498    .text:0000000000000278 .LFE35
     /tmp/ccxl7UNL.s:3757   .debug_str:0000000000000284 .LASF133
     /tmp/ccxl7UNL.s:3478   .debug_loc:00000000000000a2 .LLST11
     /tmp/ccxl7UNL.s:487    .text:0000000000000268 .LVL36
     /tmp/ccxl7UNL.s:362    .text:00000000000001ac .LFB34
     /tmp/ccxl7UNL.s:414    .text:0000000000000208 .LFE34
     /tmp/ccxl7UNL.s:3761   .debug_str:000000000000029f .LASF134
     /tmp/ccxl7UNL.s:3492   .debug_loc:00000000000000db .LLST8
     /tmp/ccxl7UNL.s:3510   .debug_loc:0000000000000127 .LLST9
     /tmp/ccxl7UNL.s:382    .text:00000000000001d0 .LVL25
     /tmp/ccxl7UNL.s:389    .text:00000000000001e0 .LVL27
     /tmp/ccxl7UNL.s:396    .text:00000000000001f0 .LVL28
     /tmp/ccxl7UNL.s:228    .text:000000000000010c .LFB33
     /tmp/ccxl7UNL.s:275    .text:0000000000000148 .LFE33
     /tmp/ccxl7UNL.s:3769   .debug_str:00000000000002c2 .LASF135
     /tmp/ccxl7UNL.s:3517   .debug_loc:000000000000014a .LLST5
     /tmp/ccxl7UNL.s:201    .text:00000000000000f0 .LFB32
     /tmp/ccxl7UNL.s:222    .text:000000000000010c .LFE32
     /tmp/ccxl7UNL.s:3524   .debug_loc:000000000000016d .LLST4
     /tmp/ccxl7UNL.s:98     .text:0000000000000064 .LFB31
     /tmp/ccxl7UNL.s:143    .text:00000000000000a8 .LFE31
     /tmp/ccxl7UNL.s:3538   .debug_loc:00000000000001a6 .LLST0
     /tmp/ccxl7UNL.s:115    .text:0000000000000080 .LBB5
     /tmp/ccxl7UNL.s:124    .text:0000000000000088 .LBE5
     /tmp/ccxl7UNL.s:3552   .debug_loc:00000000000001df .LLST1
     /tmp/ccxl7UNL.s:3560   .debug_loc:0000000000000203 .LLST2
     /tmp/ccxl7UNL.s:128    .text:0000000000000090 .LVL5
     /tmp/ccxl7UNL.s:132    .text:0000000000000098 .LVL6
     /tmp/ccxl7UNL.s:49     .text:0000000000000028 .LFB30
     /tmp/ccxl7UNL.s:92     .text:0000000000000064 .LFE30
     /tmp/ccxl7UNL.s:3707   .debug_str:0000000000000052 .LASF136
     /tmp/ccxl7UNL.s:3793   .debug_str:0000000000000361 .LASF139
     /tmp/ccxl7UNL.s:281    .text:0000000000000148 .LFB28
     /tmp/ccxl7UNL.s:346    .text:00000000000001ac .LFE28
     /tmp/ccxl7UNL.s:3567   .debug_loc:0000000000000226 .LLST6
     /tmp/ccxl7UNL.s:319    .text:0000000000000184 .LVL20
     /tmp/ccxl7UNL.s:324    .text:0000000000000190 .LVL21
     /tmp/ccxl7UNL.s:312    .text:0000000000000178 .LBB8
     /tmp/ccxl7UNL.s:325    .text:0000000000000190 .LBE8
     /tmp/ccxl7UNL.s:3585   .debug_loc:0000000000000272 .LLST7
     /tmp/ccxl7UNL.s:308    .text:0000000000000170 .LVL18
     /tmp/ccxl7UNL.s:504    .text:0000000000000278 .LFB26
     /tmp/ccxl7UNL.s:590    .text:00000000000002e8 .LFE26
     /tmp/ccxl7UNL.s:3592   .debug_loc:0000000000000295 .LLST12
     /tmp/ccxl7UNL.s:3755   .debug_str:0000000000000274 .LASF137
     /tmp/ccxl7UNL.s:3603   .debug_loc:00000000000002cb .LLST13
     /tmp/ccxl7UNL.s:3737   .debug_str:00000000000001f0 .LASF138
     /tmp/ccxl7UNL.s:3614   .debug_loc:0000000000000301 .LLST14
     /tmp/ccxl7UNL.s:541    .text:00000000000002a8 .LVL39
     /tmp/ccxl7UNL.s:545    .text:00000000000002b8 .LVL40
     /tmp/ccxl7UNL.s:420    .text:0000000000000208 .LFB25
GAS LISTING /tmp/ccxl7UNL.s 			page 29


     /tmp/ccxl7UNL.s:466    .text:0000000000000250 .LFE25
     /tmp/ccxl7UNL.s:3630   .debug_loc:000000000000034b .LLST10
     /tmp/ccxl7UNL.s:453    .text:000000000000023c .LVL34
     /tmp/ccxl7UNL.s:149    .text:00000000000000a8 .LFB24
     /tmp/ccxl7UNL.s:195    .text:00000000000000f0 .LFE24
     /tmp/ccxl7UNL.s:3655   .debug_loc:00000000000003ad .LLST3
     /tmp/ccxl7UNL.s:182    .text:00000000000000dc .LVL10
     /tmp/ccxl7UNL.s:3879   .debug_str:000000000000064f .LASF140
     /tmp/ccxl7UNL.s:10     .text:0000000000000000 .LFB22
     /tmp/ccxl7UNL.s:41     .text:0000000000000028 .LFE22
     /tmp/ccxl7UNL.s:3999   .debug_str:00000000000009f7 .LASF141
     /tmp/ccxl7UNL.s:3785   .debug_str:000000000000032a .LASF143
     /tmp/ccxl7UNL.s:3973   .debug_str:0000000000000956 .LASF142
     /tmp/ccxl7UNL.s:3977   .debug_str:0000000000000967 .LASF144
     /tmp/ccxl7UNL.s:750    .text:0000000000000398 .LVL51
     /tmp/ccxl7UNL.s:778    .text:00000000000003c4 .LVL54
     /tmp/ccxl7UNL.s:697    .text:000000000000035c .LVL49
     /tmp/ccxl7UNL.s:646    .text:0000000000000324 .LVL47
     /tmp/ccxl7UNL.s:599    .text:00000000000002e8 .LVL45
     /tmp/ccxl7UNL.s:475    .text:0000000000000250 .LVL35
     /tmp/ccxl7UNL.s:365    .text:00000000000001ac .LVL24
     /tmp/ccxl7UNL.s:409    .text:0000000000000200 .LVL30
     /tmp/ccxl7UNL.s:384    .text:00000000000001d4 .LVL26
     /tmp/ccxl7UNL.s:406    .text:00000000000001fc .LVL29
     /tmp/ccxl7UNL.s:244    .text:0000000000000120 .LVL14
     /tmp/ccxl7UNL.s:256    .text:0000000000000130 .LVL15
     /tmp/ccxl7UNL.s:204    .text:00000000000000f0 .LVL11
     /tmp/ccxl7UNL.s:214    .text:0000000000000100 .LVL12
     /tmp/ccxl7UNL.s:101    .text:0000000000000064 .LVL2
     /tmp/ccxl7UNL.s:114    .text:0000000000000080 .LVL3
     /tmp/ccxl7UNL.s:122    .text:0000000000000088 .LVL4
     /tmp/ccxl7UNL.s:286    .text:0000000000000148 .LVL16
     /tmp/ccxl7UNL.s:300    .text:0000000000000164 .LVL17
     /tmp/ccxl7UNL.s:341    .text:00000000000001a4 .LVL23
     /tmp/ccxl7UNL.s:314    .text:0000000000000178 .LVL19
     /tmp/ccxl7UNL.s:328    .text:0000000000000194 .LVL22
     /tmp/ccxl7UNL.s:535    .text:000000000000029c .LVL38
     /tmp/ccxl7UNL.s:574    .text:00000000000002d8 .LVL43
     /tmp/ccxl7UNL.s:578    .text:00000000000002e0 .LVL44
     /tmp/ccxl7UNL.s:529    .text:0000000000000298 .LVL37
     /tmp/ccxl7UNL.s:571    .text:00000000000002d4 .LVL42
     /tmp/ccxl7UNL.s:568    .text:00000000000002d0 .LVL41
     /tmp/ccxl7UNL.s:423    .text:0000000000000208 .LVL31
     /tmp/ccxl7UNL.s:437    .text:0000000000000220 .LVL32
     /tmp/ccxl7UNL.s:439    .text:0000000000000224 .LVL33
     /tmp/ccxl7UNL.s:152    .text:00000000000000a8 .LVL7
     /tmp/ccxl7UNL.s:166    .text:00000000000000c0 .LVL8
     /tmp/ccxl7UNL.s:168    .text:00000000000000c4 .LVL9
     /tmp/ccxl7UNL.s:791    .debug_info:0000000000000000 .Ldebug_info0
     /tmp/ccxl7UNL.s:349    .gcc_except_table:0000000000000000 .LLSDA28

UNDEFINED SYMBOLS
_ZN3PCB7runningE
_ZN3PCB8dispatchEv
_ZN9Scheduler3putEP3PCB
__gxx_personality_v0
_Z7kmallocm
GAS LISTING /tmp/ccxl7UNL.s 			page 30


_Z5kfreePv
