GAS LISTING /tmp/ccIgqyWS.s 			page 1


   1              		.file	"KSemaphore.cpp"
   2              		.option pic
   3              		.option norelax
   4              		.text
   5              	.Ltext0:
   6              		.align	2
   7              		.globl	_ZN10KSemaphoreC2Ei
   9              	_ZN10KSemaphoreC2Ei:
  10              	.LFB22:
  11              		.file 1 "src/KSemaphore.cpp"
   1:src/KSemaphore.cpp **** //
   2:src/KSemaphore.cpp **** // Created by os on 5/2/22.
   3:src/KSemaphore.cpp **** //
   4:src/KSemaphore.cpp **** 
   5:src/KSemaphore.cpp **** #include "../h/KSemaphore.hpp"
   6:src/KSemaphore.cpp **** #include "../h/MemoryAllocator.hpp"
   7:src/KSemaphore.cpp **** 
   8:src/KSemaphore.cpp **** KSemaphore::KSemaphore(int val) {
  12              		.loc 1 8 1
  13              		.cfi_startproc
  14              	.LVL0:
  15 0000 130101FF 		addi	sp,sp,-16
  16              		.cfi_def_cfa_offset 16
  17 0004 23348100 		sd	s0,8(sp)
  18              		.cfi_offset 8, -8
  19 0008 13040101 		addi	s0,sp,16
  20              		.cfi_def_cfa 8, 0
  21              	.LBB6:
   9:src/KSemaphore.cpp ****     this->val = this->beginVal = val;
  22              		.loc 1 9 5
  23              		.loc 1 9 32 is_stmt 0
  24 000c 232AB500 		sw	a1,20(a0)
  25              		.loc 1 9 15
  26 0010 2328B500 		sw	a1,16(a0)
  10:src/KSemaphore.cpp ****     headBlocked = tailBlocked = 0;
  27              		.loc 1 10 5 is_stmt 1
  28              		.loc 1 10 31 is_stmt 0
  29 0014 23340500 		sd	zero,8(a0)
  30              		.loc 1 10 17
  31 0018 23300500 		sd	zero,0(a0)
  32              	.LBE6:
  11:src/KSemaphore.cpp **** }
  33              		.loc 1 11 1
  34 001c 03348100 		ld	s0,8(sp)
  35              		.cfi_restore 8
  36              		.cfi_def_cfa 2, 16
  37 0020 13010101 		addi	sp,sp,16
  38              		.cfi_def_cfa_offset 0
  39 0024 67800000 		jr	ra
  40              		.cfi_endproc
  41              	.LFE22:
  43              		.globl	_ZN10KSemaphoreC1Ei
  44              		.set	_ZN10KSemaphoreC1Ei,_ZN10KSemaphoreC2Ei
  45              		.align	2
  46              		.globl	_ZN10KSemaphoreD2Ev
  48              	_ZN10KSemaphoreD2Ev:
  49              	.LFB27:
GAS LISTING /tmp/ccIgqyWS.s 			page 2


  12:src/KSemaphore.cpp **** 
  13:src/KSemaphore.cpp **** //todo
  14:src/KSemaphore.cpp **** void KSemaphore::wait() {
  15:src/KSemaphore.cpp ****     if(--val < 0)
  16:src/KSemaphore.cpp ****         block();
  17:src/KSemaphore.cpp **** }
  18:src/KSemaphore.cpp **** 
  19:src/KSemaphore.cpp **** //todo
  20:src/KSemaphore.cpp **** void KSemaphore::signal() {
  21:src/KSemaphore.cpp ****     if(++val <= 0)
  22:src/KSemaphore.cpp ****         unblock();
  23:src/KSemaphore.cpp ****     else
  24:src/KSemaphore.cpp ****         val = beginVal;
  25:src/KSemaphore.cpp **** }
  26:src/KSemaphore.cpp **** 
  27:src/KSemaphore.cpp **** KSemaphore::~KSemaphore() {
  50              		.loc 1 27 1 is_stmt 1
  51              		.cfi_startproc
  52              	.LVL1:
  53 0028 130101FF 		addi	sp,sp,-16
  54              		.cfi_def_cfa_offset 16
  55 002c 23348100 		sd	s0,8(sp)
  56              		.cfi_offset 8, -8
  57 0030 13040101 		addi	s0,sp,16
  58              		.cfi_def_cfa 8, 0
  28:src/KSemaphore.cpp ****     //todo
  29:src/KSemaphore.cpp **** }
  59              		.loc 1 29 1 is_stmt 0
  60 0034 03348100 		ld	s0,8(sp)
  61              		.cfi_restore 8
  62              		.cfi_def_cfa 2, 16
  63 0038 13010101 		addi	sp,sp,16
  64              		.cfi_def_cfa_offset 0
  65 003c 67800000 		jr	ra
  66              		.cfi_endproc
  67              	.LFE27:
  69              		.globl	_ZN10KSemaphoreD1Ev
  70              		.set	_ZN10KSemaphoreD1Ev,_ZN10KSemaphoreD2Ev
  71              		.align	2
  72              		.globl	_ZN10KSemaphore12addToBlockedEP3PCB
  74              	_ZN10KSemaphore12addToBlockedEP3PCB:
  75              	.LFB29:
  30:src/KSemaphore.cpp **** 
  31:src/KSemaphore.cpp **** void KSemaphore::addToBlocked(PCB* pcb)
  32:src/KSemaphore.cpp **** {
  76              		.loc 1 32 1 is_stmt 1
  77              		.cfi_startproc
  78              	.LVL2:
  79 0040 130101FF 		addi	sp,sp,-16
  80              		.cfi_def_cfa_offset 16
  81 0044 23348100 		sd	s0,8(sp)
  82              		.cfi_offset 8, -8
  83 0048 13040101 		addi	s0,sp,16
  84              		.cfi_def_cfa 8, 0
  33:src/KSemaphore.cpp ****     pcb->nextPCB = 0;
  85              		.loc 1 33 5
  86              		.loc 1 33 18 is_stmt 0
GAS LISTING /tmp/ccIgqyWS.s 			page 3


  87 004c 23B00500 		sd	zero,0(a1)
  34:src/KSemaphore.cpp ****     if(headBlocked == 0)
  88              		.loc 1 34 5 is_stmt 1
  89              		.loc 1 34 8 is_stmt 0
  90 0050 83370500 		ld	a5,0(a0)
  91              		.loc 1 34 5
  92 0054 638E0700 		beqz	a5,.L9
  35:src/KSemaphore.cpp ****     {
  36:src/KSemaphore.cpp ****         headBlocked = tailBlocked = pcb;
  37:src/KSemaphore.cpp ****     }
  38:src/KSemaphore.cpp ****     else
  39:src/KSemaphore.cpp ****     {
  40:src/KSemaphore.cpp ****         tailBlocked->nextPCB = pcb;
  93              		.loc 1 40 9 is_stmt 1
  94 0058 83378500 		ld	a5,8(a0)
  95              		.loc 1 40 30 is_stmt 0
  96 005c 23B0B700 		sd	a1,0(a5)
  41:src/KSemaphore.cpp ****         tailBlocked = pcb;
  97              		.loc 1 41 9 is_stmt 1
  98              		.loc 1 41 21 is_stmt 0
  99 0060 2334B500 		sd	a1,8(a0)
 100              	.L5:
  42:src/KSemaphore.cpp ****     }
  43:src/KSemaphore.cpp **** }
 101              		.loc 1 43 1
 102 0064 03348100 		ld	s0,8(sp)
 103              		.cfi_remember_state
 104              		.cfi_restore 8
 105              		.cfi_def_cfa 2, 16
 106 0068 13010101 		addi	sp,sp,16
 107              		.cfi_def_cfa_offset 0
 108 006c 67800000 		jr	ra
 109              	.L9:
 110              		.cfi_restore_state
  36:src/KSemaphore.cpp ****     }
 111              		.loc 1 36 9 is_stmt 1
  36:src/KSemaphore.cpp ****     }
 112              		.loc 1 36 35 is_stmt 0
 113 0070 2334B500 		sd	a1,8(a0)
  36:src/KSemaphore.cpp ****     }
 114              		.loc 1 36 21
 115 0074 2330B500 		sd	a1,0(a0)
 116 0078 6FF0DFFE 		j	.L5
 117              		.cfi_endproc
 118              	.LFE29:
 120              		.align	2
 121              		.globl	_ZN10KSemaphore5blockEv
 123              	_ZN10KSemaphore5blockEv:
 124              	.LFB30:
  44:src/KSemaphore.cpp **** 
  45:src/KSemaphore.cpp **** //todo
  46:src/KSemaphore.cpp **** void KSemaphore::block() {
 125              		.loc 1 46 26 is_stmt 1
 126              		.cfi_startproc
 127              	.LVL3:
 128 007c 130101FF 		addi	sp,sp,-16
 129              		.cfi_def_cfa_offset 16
GAS LISTING /tmp/ccIgqyWS.s 			page 4


 130 0080 23341100 		sd	ra,8(sp)
 131 0084 23308100 		sd	s0,0(sp)
 132              		.cfi_offset 1, -8
 133              		.cfi_offset 8, -16
 134 0088 13040101 		addi	s0,sp,16
 135              		.cfi_def_cfa 8, 0
  47:src/KSemaphore.cpp ****     PCB::running->setState(PCB::SUSPENDED);
 136              		.loc 1 47 5
 137              		.loc 1 47 27 is_stmt 0
 138 008c 97070000 		la	a5,_ZN3PCB7runningE
 138      83B70700 
 139 0094 83B50700 		ld	a1,0(a5)
 140              	.LVL4:
 141              	.LBB7:
 142              	.LBB8:
 143              		.file 2 "src/../h/PCB.hpp"
   1:src/../h/PCB.hpp **** //
   2:src/../h/PCB.hpp **** // Created by os on 4/27/22.
   3:src/../h/PCB.hpp **** //
   4:src/../h/PCB.hpp **** 
   5:src/../h/PCB.hpp **** #ifndef PROJECT_BASE_V1_0_PCB_HPP
   6:src/../h/PCB.hpp **** #define PROJECT_BASE_V1_0_PCB_HPP
   7:src/../h/PCB.hpp **** 
   8:src/../h/PCB.hpp **** #include "../lib/hw.h"
   9:src/../h/PCB.hpp **** #include "Scheduler.hpp"
  10:src/../h/PCB.hpp **** #include "Riscv.hpp"
  11:src/../h/PCB.hpp **** 
  12:src/../h/PCB.hpp **** class PCB
  13:src/../h/PCB.hpp **** {
  14:src/../h/PCB.hpp **** public:
  15:src/../h/PCB.hpp ****     using Body = void (*)(void*);
  16:src/../h/PCB.hpp **** 
  17:src/../h/PCB.hpp ****     PCB(Body body,  void* args, void* stack_space, uint64 timeSlice);
  18:src/../h/PCB.hpp ****     ~PCB();
  19:src/../h/PCB.hpp **** 
  20:src/../h/PCB.hpp ****     void start();
  21:src/../h/PCB.hpp ****     static void dispatch();
  22:src/../h/PCB.hpp ****     static void sleep(time_t);
  23:src/../h/PCB.hpp **** 
  24:src/../h/PCB.hpp ****     static PCB* running;
  25:src/../h/PCB.hpp ****     static PCB* exitingPCB;
  26:src/../h/PCB.hpp **** 
  27:src/../h/PCB.hpp ****     static uint64 timeSliceCounter;
  28:src/../h/PCB.hpp ****     uint64 getTimeSlice() { return timeSlice;}
  29:src/../h/PCB.hpp **** 
  30:src/../h/PCB.hpp ****     void* operator new(size_t size);
  31:src/../h/PCB.hpp ****     void operator delete(void *p);
  32:src/../h/PCB.hpp **** 
  33:src/../h/PCB.hpp ****     enum State{READY, RUNNING, SUSPENDED, FINISHED, EXITING, SLEEPING};
  34:src/../h/PCB.hpp ****     State getState() {return state;}
  35:src/../h/PCB.hpp ****     void setState(State s) {state = s;}
 144              		.loc 2 35 29 is_stmt 1
 145              		.loc 2 35 35 is_stmt 0
 146 0098 93072000 		li	a5,2
 147 009c 23A8F502 		sw	a5,48(a1)
 148              	.LVL5:
 149              	.LBE8:
GAS LISTING /tmp/ccIgqyWS.s 			page 5


 150              	.LBE7:
  48:src/KSemaphore.cpp ****     addToBlocked(PCB::running);
 151              		.loc 1 48 5 is_stmt 1
 152              		.loc 1 48 17 is_stmt 0
 153 00a0 97000000 		call	_ZN10KSemaphore12addToBlockedEP3PCB
 153      E7800000 
 154              	.LVL6:
  49:src/KSemaphore.cpp ****     PCB::dispatch();
 155              		.loc 1 49 5 is_stmt 1
 156              		.loc 1 49 18 is_stmt 0
 157 00a8 97000000 		call	_ZN3PCB8dispatchEv@plt
 157      E7800000 
 158              	.LVL7:
  50:src/KSemaphore.cpp **** }
 159              		.loc 1 50 1
 160 00b0 83308100 		ld	ra,8(sp)
 161              		.cfi_restore 1
 162 00b4 03340100 		ld	s0,0(sp)
 163              		.cfi_restore 8
 164              		.cfi_def_cfa 2, 16
 165 00b8 13010101 		addi	sp,sp,16
 166              		.cfi_def_cfa_offset 0
 167 00bc 67800000 		jr	ra
 168              		.cfi_endproc
 169              	.LFE30:
 171              		.align	2
 172              		.globl	_ZN10KSemaphore4waitEv
 174              	_ZN10KSemaphore4waitEv:
 175              	.LFB24:
  14:src/KSemaphore.cpp ****     if(--val < 0)
 176              		.loc 1 14 25 is_stmt 1
 177              		.cfi_startproc
 178              	.LVL8:
  15:src/KSemaphore.cpp ****         block();
 179              		.loc 1 15 5
  15:src/KSemaphore.cpp ****         block();
 180              		.loc 1 15 10 is_stmt 0
 181 00c0 83270501 		lw	a5,16(a0)
  15:src/KSemaphore.cpp ****         block();
 182              		.loc 1 15 8
 183 00c4 9B87F7FF 		addiw	a5,a5,-1
  15:src/KSemaphore.cpp ****         block();
 184              		.loc 1 15 14
 185 00c8 2328F500 		sw	a5,16(a0)
  15:src/KSemaphore.cpp ****         block();
 186              		.loc 1 15 5
 187 00cc 13970702 		slli	a4,a5,32
 188 00d0 63440700 		bltz	a4,.L18
 189 00d4 67800000 		ret
 190              	.L18:
  14:src/KSemaphore.cpp ****     if(--val < 0)
 191              		.loc 1 14 25
 192 00d8 130101FF 		addi	sp,sp,-16
 193              		.cfi_def_cfa_offset 16
 194 00dc 23341100 		sd	ra,8(sp)
 195 00e0 23308100 		sd	s0,0(sp)
 196              		.cfi_offset 1, -8
GAS LISTING /tmp/ccIgqyWS.s 			page 6


 197              		.cfi_offset 8, -16
 198 00e4 13040101 		addi	s0,sp,16
 199              		.cfi_def_cfa 8, 0
  16:src/KSemaphore.cpp **** }
 200              		.loc 1 16 9 is_stmt 1
  16:src/KSemaphore.cpp **** }
 201              		.loc 1 16 14 is_stmt 0
 202 00e8 97000000 		call	_ZN10KSemaphore5blockEv
 202      E7800000 
 203              	.LVL9:
  17:src/KSemaphore.cpp **** 
 204              		.loc 1 17 1
 205 00f0 83308100 		ld	ra,8(sp)
 206              		.cfi_restore 1
 207 00f4 03340100 		ld	s0,0(sp)
 208              		.cfi_restore 8
 209              		.cfi_def_cfa 2, 16
 210 00f8 13010101 		addi	sp,sp,16
 211              		.cfi_def_cfa_offset 0
 212 00fc 67800000 		jr	ra
 213              		.cfi_endproc
 214              	.LFE24:
 216              		.align	2
 217              		.globl	_ZN10KSemaphore15getFirstBlockedEv
 219              	_ZN10KSemaphore15getFirstBlockedEv:
 220              	.LFB31:
  51:src/KSemaphore.cpp **** 
  52:src/KSemaphore.cpp **** PCB* KSemaphore::getFirstBlocked()
  53:src/KSemaphore.cpp **** {
 221              		.loc 1 53 1 is_stmt 1
 222              		.cfi_startproc
 223              	.LVL10:
 224 0100 130101FF 		addi	sp,sp,-16
 225              		.cfi_def_cfa_offset 16
 226 0104 23348100 		sd	s0,8(sp)
 227              		.cfi_offset 8, -8
 228 0108 13040101 		addi	s0,sp,16
 229              		.cfi_def_cfa 8, 0
  54:src/KSemaphore.cpp ****    return headBlocked;
 230              		.loc 1 54 4
  55:src/KSemaphore.cpp **** }
 231              		.loc 1 55 1 is_stmt 0
 232 010c 03350500 		ld	a0,0(a0)
 233              	.LVL11:
 234 0110 03348100 		ld	s0,8(sp)
 235              		.cfi_restore 8
 236              		.cfi_def_cfa 2, 16
 237 0114 13010101 		addi	sp,sp,16
 238              		.cfi_def_cfa_offset 0
 239 0118 67800000 		jr	ra
 240              		.cfi_endproc
 241              	.LFE31:
 243              		.align	2
 244              		.globl	_ZN10KSemaphore18removeFirstBlockedEv
 246              	_ZN10KSemaphore18removeFirstBlockedEv:
 247              	.LFB32:
  56:src/KSemaphore.cpp **** 
GAS LISTING /tmp/ccIgqyWS.s 			page 7


  57:src/KSemaphore.cpp **** void KSemaphore::removeFirstBlocked()
  58:src/KSemaphore.cpp **** {
 248              		.loc 1 58 1 is_stmt 1
 249              		.cfi_startproc
 250              	.LVL12:
 251 011c 130101FF 		addi	sp,sp,-16
 252              		.cfi_def_cfa_offset 16
 253 0120 23348100 		sd	s0,8(sp)
 254              		.cfi_offset 8, -8
 255 0124 13040101 		addi	s0,sp,16
 256              		.cfi_def_cfa 8, 0
  59:src/KSemaphore.cpp ****     if(headBlocked == 0)
 257              		.loc 1 59 5
 258              		.loc 1 59 8 is_stmt 0
 259 0128 83370500 		ld	a5,0(a0)
 260              		.loc 1 59 5
 261 012c 638C0700 		beqz	a5,.L21
  60:src/KSemaphore.cpp ****         return;
  61:src/KSemaphore.cpp ****     PCB* first = headBlocked;
 262              		.loc 1 61 5 is_stmt 1
 263              	.LVL13:
  62:src/KSemaphore.cpp ****     headBlocked = headBlocked->nextPCB;
 264              		.loc 1 62 5
 265              		.loc 1 62 32 is_stmt 0
 266 0130 03B70700 		ld	a4,0(a5)
 267              		.loc 1 62 17
 268 0134 2330E500 		sd	a4,0(a0)
  63:src/KSemaphore.cpp ****     first->nextPCB = 0;
 269              		.loc 1 63 5 is_stmt 1
 270              		.loc 1 63 20 is_stmt 0
 271 0138 23B00700 		sd	zero,0(a5)
  64:src/KSemaphore.cpp ****     if(headBlocked == 0)
 272              		.loc 1 64 5 is_stmt 1
 273              		.loc 1 64 8 is_stmt 0
 274 013c 83370500 		ld	a5,0(a0)
 275              	.LVL14:
 276              		.loc 1 64 5
 277 0140 63880700 		beqz	a5,.L24
 278              	.L21:
  65:src/KSemaphore.cpp ****         tailBlocked =0;
  66:src/KSemaphore.cpp **** }
 279              		.loc 1 66 1
 280 0144 03348100 		ld	s0,8(sp)
 281              		.cfi_remember_state
 282              		.cfi_restore 8
 283              		.cfi_def_cfa 2, 16
 284 0148 13010101 		addi	sp,sp,16
 285              		.cfi_def_cfa_offset 0
 286 014c 67800000 		jr	ra
 287              	.L24:
 288              		.cfi_restore_state
  65:src/KSemaphore.cpp ****         tailBlocked =0;
 289              		.loc 1 65 9 is_stmt 1
  65:src/KSemaphore.cpp ****         tailBlocked =0;
 290              		.loc 1 65 21 is_stmt 0
 291 0150 23340500 		sd	zero,8(a0)
 292 0154 6FF01FFF 		j	.L21
GAS LISTING /tmp/ccIgqyWS.s 			page 8


 293              		.cfi_endproc
 294              	.LFE32:
 296              		.align	2
 297              		.globl	_ZN10KSemaphore7unblockEv
 299              	_ZN10KSemaphore7unblockEv:
 300              	.LFB33:
  67:src/KSemaphore.cpp **** 
  68:src/KSemaphore.cpp **** //todo
  69:src/KSemaphore.cpp **** void KSemaphore::unblock() {
 301              		.loc 1 69 28 is_stmt 1
 302              		.cfi_startproc
 303              	.LVL15:
 304 0158 130101FE 		addi	sp,sp,-32
 305              		.cfi_def_cfa_offset 32
 306 015c 233C1100 		sd	ra,24(sp)
 307 0160 23388100 		sd	s0,16(sp)
 308 0164 23349100 		sd	s1,8(sp)
 309 0168 23302101 		sd	s2,0(sp)
 310              		.cfi_offset 1, -8
 311              		.cfi_offset 8, -16
 312              		.cfi_offset 9, -24
 313              		.cfi_offset 18, -32
 314 016c 13040102 		addi	s0,sp,32
 315              		.cfi_def_cfa 8, 0
 316 0170 13090500 		mv	s2,a0
  70:src/KSemaphore.cpp ****     PCB* fr = getFirstBlocked();
 317              		.loc 1 70 5
 318              		.loc 1 70 30 is_stmt 0
 319 0174 97000000 		call	_ZN10KSemaphore15getFirstBlockedEv
 319      E7800000 
 320              	.LVL16:
 321 017c 93040500 		mv	s1,a0
 322              	.LVL17:
  71:src/KSemaphore.cpp ****     removeFirstBlocked();
 323              		.loc 1 71 5 is_stmt 1
 324              		.loc 1 71 23 is_stmt 0
 325 0180 13050900 		mv	a0,s2
 326 0184 97000000 		call	_ZN10KSemaphore18removeFirstBlockedEv
 326      E7800000 
 327              	.LVL18:
  72:src/KSemaphore.cpp ****     if(fr != 0)
 328              		.loc 1 72 5 is_stmt 1
 329 018c 638A0400 		beqz	s1,.L25
  73:src/KSemaphore.cpp ****     {
  74:src/KSemaphore.cpp ****         fr->setState(PCB::READY);
 330              		.loc 1 74 9
 331              	.LVL19:
 332              	.LBB9:
 333              	.LBB10:
 334              		.loc 2 35 29
 335              		.loc 2 35 35 is_stmt 0
 336 0190 23A80402 		sw	zero,48(s1)
 337              	.LVL20:
 338              	.LBE10:
 339              	.LBE9:
  75:src/KSemaphore.cpp ****         Scheduler::put(fr);
 340              		.loc 1 75 9 is_stmt 1
GAS LISTING /tmp/ccIgqyWS.s 			page 9


 341              		.loc 1 75 23 is_stmt 0
 342 0194 13850400 		mv	a0,s1
 343 0198 97000000 		call	_ZN9Scheduler3putEP3PCB@plt
 343      E7800000 
 344              	.LVL21:
 345              	.L25:
  76:src/KSemaphore.cpp ****     }
  77:src/KSemaphore.cpp **** }
 346              		.loc 1 77 1
 347 01a0 83308101 		ld	ra,24(sp)
 348              		.cfi_restore 1
 349 01a4 03340101 		ld	s0,16(sp)
 350              		.cfi_restore 8
 351              		.cfi_def_cfa 2, 32
 352 01a8 83348100 		ld	s1,8(sp)
 353              		.cfi_restore 9
 354              	.LVL22:
 355 01ac 03390100 		ld	s2,0(sp)
 356              		.cfi_restore 18
 357              	.LVL23:
 358 01b0 13010102 		addi	sp,sp,32
 359              		.cfi_def_cfa_offset 0
 360 01b4 67800000 		jr	ra
 361              		.cfi_endproc
 362              	.LFE33:
 364              		.align	2
 365              		.globl	_ZN10KSemaphore6signalEv
 367              	_ZN10KSemaphore6signalEv:
 368              	.LFB25:
  20:src/KSemaphore.cpp ****     if(++val <= 0)
 369              		.loc 1 20 27 is_stmt 1
 370              		.cfi_startproc
 371              	.LVL24:
  21:src/KSemaphore.cpp ****         unblock();
 372              		.loc 1 21 5
  21:src/KSemaphore.cpp ****         unblock();
 373              		.loc 1 21 10 is_stmt 0
 374 01b8 83270501 		lw	a5,16(a0)
  21:src/KSemaphore.cpp ****         unblock();
 375              		.loc 1 21 8
 376 01bc 9B871700 		addiw	a5,a5,1
 377 01c0 1B870700 		sext.w	a4,a5
  21:src/KSemaphore.cpp ****         unblock();
 378              		.loc 1 21 14
 379 01c4 2328F500 		sw	a5,16(a0)
  21:src/KSemaphore.cpp ****         unblock();
 380              		.loc 1 21 5
 381 01c8 6358E000 		blez	a4,.L35
  24:src/KSemaphore.cpp **** }
 382              		.loc 1 24 9 is_stmt 1
  24:src/KSemaphore.cpp **** }
 383              		.loc 1 24 15 is_stmt 0
 384 01cc 83274501 		lw	a5,20(a0)
  24:src/KSemaphore.cpp **** }
 385              		.loc 1 24 13
 386 01d0 2328F500 		sw	a5,16(a0)
 387 01d4 67800000 		ret
GAS LISTING /tmp/ccIgqyWS.s 			page 10


 388              	.L35:
  20:src/KSemaphore.cpp ****     if(++val <= 0)
 389              		.loc 1 20 27
 390 01d8 130101FF 		addi	sp,sp,-16
 391              		.cfi_def_cfa_offset 16
 392 01dc 23341100 		sd	ra,8(sp)
 393 01e0 23308100 		sd	s0,0(sp)
 394              		.cfi_offset 1, -8
 395              		.cfi_offset 8, -16
 396 01e4 13040101 		addi	s0,sp,16
 397              		.cfi_def_cfa 8, 0
  22:src/KSemaphore.cpp ****     else
 398              		.loc 1 22 9 is_stmt 1
  22:src/KSemaphore.cpp ****     else
 399              		.loc 1 22 16 is_stmt 0
 400 01e8 97000000 		call	_ZN10KSemaphore7unblockEv
 400      E7800000 
 401              	.LVL25:
  25:src/KSemaphore.cpp **** 
 402              		.loc 1 25 1
 403 01f0 83308100 		ld	ra,8(sp)
 404              		.cfi_restore 1
 405 01f4 03340100 		ld	s0,0(sp)
 406              		.cfi_restore 8
 407              		.cfi_def_cfa 2, 16
 408 01f8 13010101 		addi	sp,sp,16
 409              		.cfi_def_cfa_offset 0
 410 01fc 67800000 		jr	ra
 411              		.cfi_endproc
 412              	.LFE25:
 414              	.Letext0:
 415              		.file 3 "src/../h/../lib/hw.h"
 416              		.file 4 "src/../h/Queue.hpp"
 417              		.file 5 "src/../h/Scheduler.hpp"
 418              		.file 6 "src/../h/KSemaphore.hpp"
GAS LISTING /tmp/ccIgqyWS.s 			page 11


DEFINED SYMBOLS
                            *ABS*:0000000000000000 KSemaphore.cpp
     /tmp/ccIgqyWS.s:9      .text:0000000000000000 _ZN10KSemaphoreC2Ei
     /tmp/ccIgqyWS.s:13     .text:0000000000000000 .L0 
     /tmp/ccIgqyWS.s:15     .text:0000000000000000 .L0 
     /tmp/ccIgqyWS.s:16     .text:0000000000000004 .L0 
     /tmp/ccIgqyWS.s:18     .text:0000000000000008 .L0 
     /tmp/ccIgqyWS.s:20     .text:000000000000000c .L0 
     /tmp/ccIgqyWS.s:23     .text:000000000000000c .L0 
     /tmp/ccIgqyWS.s:24     .text:000000000000000c .L0 
     /tmp/ccIgqyWS.s:26     .text:0000000000000010 .L0 
     /tmp/ccIgqyWS.s:28     .text:0000000000000014 .L0 
     /tmp/ccIgqyWS.s:29     .text:0000000000000014 .L0 
     /tmp/ccIgqyWS.s:31     .text:0000000000000018 .L0 
     /tmp/ccIgqyWS.s:34     .text:000000000000001c .L0 
     /tmp/ccIgqyWS.s:35     .text:0000000000000020 .L0 
     /tmp/ccIgqyWS.s:36     .text:0000000000000020 .L0 
     /tmp/ccIgqyWS.s:38     .text:0000000000000024 .L0 
     /tmp/ccIgqyWS.s:40     .text:0000000000000028 .L0 
     /tmp/ccIgqyWS.s:9      .text:0000000000000000 _ZN10KSemaphoreC1Ei
     /tmp/ccIgqyWS.s:48     .text:0000000000000028 _ZN10KSemaphoreD2Ev
     /tmp/ccIgqyWS.s:51     .text:0000000000000028 .L0 
     /tmp/ccIgqyWS.s:53     .text:0000000000000028 .L0 
     /tmp/ccIgqyWS.s:54     .text:000000000000002c .L0 
     /tmp/ccIgqyWS.s:56     .text:0000000000000030 .L0 
     /tmp/ccIgqyWS.s:58     .text:0000000000000034 .L0 
     /tmp/ccIgqyWS.s:60     .text:0000000000000034 .L0 
     /tmp/ccIgqyWS.s:61     .text:0000000000000038 .L0 
     /tmp/ccIgqyWS.s:62     .text:0000000000000038 .L0 
     /tmp/ccIgqyWS.s:64     .text:000000000000003c .L0 
     /tmp/ccIgqyWS.s:66     .text:0000000000000040 .L0 
     /tmp/ccIgqyWS.s:48     .text:0000000000000028 _ZN10KSemaphoreD1Ev
     /tmp/ccIgqyWS.s:74     .text:0000000000000040 _ZN10KSemaphore12addToBlockedEP3PCB
     /tmp/ccIgqyWS.s:77     .text:0000000000000040 .L0 
     /tmp/ccIgqyWS.s:79     .text:0000000000000040 .L0 
     /tmp/ccIgqyWS.s:80     .text:0000000000000044 .L0 
     /tmp/ccIgqyWS.s:82     .text:0000000000000048 .L0 
     /tmp/ccIgqyWS.s:84     .text:000000000000004c .L0 
     /tmp/ccIgqyWS.s:86     .text:000000000000004c .L0 
     /tmp/ccIgqyWS.s:87     .text:000000000000004c .L0 
     /tmp/ccIgqyWS.s:89     .text:0000000000000050 .L0 
     /tmp/ccIgqyWS.s:90     .text:0000000000000050 .L0 
     /tmp/ccIgqyWS.s:92     .text:0000000000000054 .L0 
     /tmp/ccIgqyWS.s:94     .text:0000000000000058 .L0 
     /tmp/ccIgqyWS.s:96     .text:000000000000005c .L0 
     /tmp/ccIgqyWS.s:98     .text:0000000000000060 .L0 
     /tmp/ccIgqyWS.s:99     .text:0000000000000060 .L0 
     /tmp/ccIgqyWS.s:102    .text:0000000000000064 .L0 
     /tmp/ccIgqyWS.s:103    .text:0000000000000068 .L0 
     /tmp/ccIgqyWS.s:104    .text:0000000000000068 .L0 
     /tmp/ccIgqyWS.s:105    .text:0000000000000068 .L0 
     /tmp/ccIgqyWS.s:107    .text:000000000000006c .L0 
     /tmp/ccIgqyWS.s:110    .text:0000000000000070 .L0 
     /tmp/ccIgqyWS.s:112    .text:0000000000000070 .L0 
     /tmp/ccIgqyWS.s:113    .text:0000000000000070 .L0 
     /tmp/ccIgqyWS.s:115    .text:0000000000000074 .L0 
     /tmp/ccIgqyWS.s:117    .text:000000000000007c .L0 
GAS LISTING /tmp/ccIgqyWS.s 			page 12


     /tmp/ccIgqyWS.s:123    .text:000000000000007c _ZN10KSemaphore5blockEv
     /tmp/ccIgqyWS.s:126    .text:000000000000007c .L0 
     /tmp/ccIgqyWS.s:128    .text:000000000000007c .L0 
     /tmp/ccIgqyWS.s:129    .text:0000000000000080 .L0 
     /tmp/ccIgqyWS.s:132    .text:0000000000000088 .L0 
     /tmp/ccIgqyWS.s:133    .text:0000000000000088 .L0 
     /tmp/ccIgqyWS.s:135    .text:000000000000008c .L0 
     /tmp/ccIgqyWS.s:137    .text:000000000000008c .L0 
     /tmp/ccIgqyWS.s:138    .text:000000000000008c .L0 
     /tmp/ccIgqyWS.s:145    .text:0000000000000098 .L0 
     /tmp/ccIgqyWS.s:146    .text:0000000000000098 .L0 
     /tmp/ccIgqyWS.s:152    .text:00000000000000a0 .L0 
     /tmp/ccIgqyWS.s:153    .text:00000000000000a0 .L0 
     /tmp/ccIgqyWS.s:156    .text:00000000000000a8 .L0 
     /tmp/ccIgqyWS.s:157    .text:00000000000000a8 .L0 
     /tmp/ccIgqyWS.s:160    .text:00000000000000b0 .L0 
     /tmp/ccIgqyWS.s:161    .text:00000000000000b4 .L0 
     /tmp/ccIgqyWS.s:163    .text:00000000000000b8 .L0 
     /tmp/ccIgqyWS.s:164    .text:00000000000000b8 .L0 
     /tmp/ccIgqyWS.s:166    .text:00000000000000bc .L0 
     /tmp/ccIgqyWS.s:168    .text:00000000000000c0 .L0 
     /tmp/ccIgqyWS.s:174    .text:00000000000000c0 _ZN10KSemaphore4waitEv
     /tmp/ccIgqyWS.s:177    .text:00000000000000c0 .L0 
     /tmp/ccIgqyWS.s:179    .text:00000000000000c0 .L0 
     /tmp/ccIgqyWS.s:180    .text:00000000000000c0 .L0 
     /tmp/ccIgqyWS.s:181    .text:00000000000000c0 .L0 
     /tmp/ccIgqyWS.s:183    .text:00000000000000c4 .L0 
     /tmp/ccIgqyWS.s:185    .text:00000000000000c8 .L0 
     /tmp/ccIgqyWS.s:187    .text:00000000000000cc .L0 
     /tmp/ccIgqyWS.s:192    .text:00000000000000d8 .L0 
     /tmp/ccIgqyWS.s:193    .text:00000000000000dc .L0 
     /tmp/ccIgqyWS.s:196    .text:00000000000000e4 .L0 
     /tmp/ccIgqyWS.s:197    .text:00000000000000e4 .L0 
     /tmp/ccIgqyWS.s:199    .text:00000000000000e8 .L0 
     /tmp/ccIgqyWS.s:201    .text:00000000000000e8 .L0 
     /tmp/ccIgqyWS.s:202    .text:00000000000000e8 .L0 
     /tmp/ccIgqyWS.s:205    .text:00000000000000f0 .L0 
     /tmp/ccIgqyWS.s:206    .text:00000000000000f4 .L0 
     /tmp/ccIgqyWS.s:208    .text:00000000000000f8 .L0 
     /tmp/ccIgqyWS.s:209    .text:00000000000000f8 .L0 
     /tmp/ccIgqyWS.s:211    .text:00000000000000fc .L0 
     /tmp/ccIgqyWS.s:213    .text:0000000000000100 .L0 
     /tmp/ccIgqyWS.s:219    .text:0000000000000100 _ZN10KSemaphore15getFirstBlockedEv
     /tmp/ccIgqyWS.s:222    .text:0000000000000100 .L0 
     /tmp/ccIgqyWS.s:224    .text:0000000000000100 .L0 
     /tmp/ccIgqyWS.s:225    .text:0000000000000104 .L0 
     /tmp/ccIgqyWS.s:227    .text:0000000000000108 .L0 
     /tmp/ccIgqyWS.s:229    .text:000000000000010c .L0 
     /tmp/ccIgqyWS.s:231    .text:000000000000010c .L0 
     /tmp/ccIgqyWS.s:232    .text:000000000000010c .L0 
     /tmp/ccIgqyWS.s:235    .text:0000000000000114 .L0 
     /tmp/ccIgqyWS.s:236    .text:0000000000000114 .L0 
     /tmp/ccIgqyWS.s:238    .text:0000000000000118 .L0 
     /tmp/ccIgqyWS.s:240    .text:000000000000011c .L0 
     /tmp/ccIgqyWS.s:246    .text:000000000000011c _ZN10KSemaphore18removeFirstBlockedEv
     /tmp/ccIgqyWS.s:249    .text:000000000000011c .L0 
     /tmp/ccIgqyWS.s:251    .text:000000000000011c .L0 
GAS LISTING /tmp/ccIgqyWS.s 			page 13


     /tmp/ccIgqyWS.s:252    .text:0000000000000120 .L0 
     /tmp/ccIgqyWS.s:254    .text:0000000000000124 .L0 
     /tmp/ccIgqyWS.s:256    .text:0000000000000128 .L0 
     /tmp/ccIgqyWS.s:258    .text:0000000000000128 .L0 
     /tmp/ccIgqyWS.s:259    .text:0000000000000128 .L0 
     /tmp/ccIgqyWS.s:261    .text:000000000000012c .L0 
     /tmp/ccIgqyWS.s:264    .text:0000000000000130 .L0 
     /tmp/ccIgqyWS.s:265    .text:0000000000000130 .L0 
     /tmp/ccIgqyWS.s:266    .text:0000000000000130 .L0 
     /tmp/ccIgqyWS.s:268    .text:0000000000000134 .L0 
     /tmp/ccIgqyWS.s:270    .text:0000000000000138 .L0 
     /tmp/ccIgqyWS.s:271    .text:0000000000000138 .L0 
     /tmp/ccIgqyWS.s:273    .text:000000000000013c .L0 
     /tmp/ccIgqyWS.s:274    .text:000000000000013c .L0 
     /tmp/ccIgqyWS.s:277    .text:0000000000000140 .L0 
     /tmp/ccIgqyWS.s:280    .text:0000000000000144 .L0 
     /tmp/ccIgqyWS.s:281    .text:0000000000000148 .L0 
     /tmp/ccIgqyWS.s:282    .text:0000000000000148 .L0 
     /tmp/ccIgqyWS.s:283    .text:0000000000000148 .L0 
     /tmp/ccIgqyWS.s:285    .text:000000000000014c .L0 
     /tmp/ccIgqyWS.s:288    .text:0000000000000150 .L0 
     /tmp/ccIgqyWS.s:290    .text:0000000000000150 .L0 
     /tmp/ccIgqyWS.s:291    .text:0000000000000150 .L0 
     /tmp/ccIgqyWS.s:293    .text:0000000000000158 .L0 
     /tmp/ccIgqyWS.s:299    .text:0000000000000158 _ZN10KSemaphore7unblockEv
     /tmp/ccIgqyWS.s:302    .text:0000000000000158 .L0 
     /tmp/ccIgqyWS.s:304    .text:0000000000000158 .L0 
     /tmp/ccIgqyWS.s:305    .text:000000000000015c .L0 
     /tmp/ccIgqyWS.s:310    .text:000000000000016c .L0 
     /tmp/ccIgqyWS.s:311    .text:000000000000016c .L0 
     /tmp/ccIgqyWS.s:312    .text:000000000000016c .L0 
     /tmp/ccIgqyWS.s:313    .text:000000000000016c .L0 
     /tmp/ccIgqyWS.s:315    .text:0000000000000170 .L0 
     /tmp/ccIgqyWS.s:318    .text:0000000000000174 .L0 
     /tmp/ccIgqyWS.s:319    .text:0000000000000174 .L0 
     /tmp/ccIgqyWS.s:324    .text:0000000000000180 .L0 
     /tmp/ccIgqyWS.s:325    .text:0000000000000180 .L0 
     /tmp/ccIgqyWS.s:329    .text:000000000000018c .L0 
     /tmp/ccIgqyWS.s:334    .text:0000000000000190 .L0 
     /tmp/ccIgqyWS.s:335    .text:0000000000000190 .L0 
     /tmp/ccIgqyWS.s:336    .text:0000000000000190 .L0 
     /tmp/ccIgqyWS.s:341    .text:0000000000000194 .L0 
     /tmp/ccIgqyWS.s:342    .text:0000000000000194 .L0 
     /tmp/ccIgqyWS.s:347    .text:00000000000001a0 .L0 
     /tmp/ccIgqyWS.s:348    .text:00000000000001a4 .L0 
     /tmp/ccIgqyWS.s:350    .text:00000000000001a8 .L0 
     /tmp/ccIgqyWS.s:351    .text:00000000000001a8 .L0 
     /tmp/ccIgqyWS.s:353    .text:00000000000001ac .L0 
     /tmp/ccIgqyWS.s:356    .text:00000000000001b0 .L0 
     /tmp/ccIgqyWS.s:359    .text:00000000000001b4 .L0 
     /tmp/ccIgqyWS.s:361    .text:00000000000001b8 .L0 
     /tmp/ccIgqyWS.s:367    .text:00000000000001b8 _ZN10KSemaphore6signalEv
     /tmp/ccIgqyWS.s:370    .text:00000000000001b8 .L0 
     /tmp/ccIgqyWS.s:372    .text:00000000000001b8 .L0 
     /tmp/ccIgqyWS.s:373    .text:00000000000001b8 .L0 
     /tmp/ccIgqyWS.s:374    .text:00000000000001b8 .L0 
     /tmp/ccIgqyWS.s:376    .text:00000000000001bc .L0 
GAS LISTING /tmp/ccIgqyWS.s 			page 14


     /tmp/ccIgqyWS.s:379    .text:00000000000001c4 .L0 
     /tmp/ccIgqyWS.s:381    .text:00000000000001c8 .L0 
     /tmp/ccIgqyWS.s:383    .text:00000000000001cc .L0 
     /tmp/ccIgqyWS.s:384    .text:00000000000001cc .L0 
     /tmp/ccIgqyWS.s:386    .text:00000000000001d0 .L0 
     /tmp/ccIgqyWS.s:390    .text:00000000000001d8 .L0 
     /tmp/ccIgqyWS.s:391    .text:00000000000001dc .L0 
     /tmp/ccIgqyWS.s:394    .text:00000000000001e4 .L0 
     /tmp/ccIgqyWS.s:395    .text:00000000000001e4 .L0 
     /tmp/ccIgqyWS.s:397    .text:00000000000001e8 .L0 
     /tmp/ccIgqyWS.s:399    .text:00000000000001e8 .L0 
     /tmp/ccIgqyWS.s:400    .text:00000000000001e8 .L0 
     /tmp/ccIgqyWS.s:403    .text:00000000000001f0 .L0 
     /tmp/ccIgqyWS.s:404    .text:00000000000001f4 .L0 
     /tmp/ccIgqyWS.s:406    .text:00000000000001f8 .L0 
     /tmp/ccIgqyWS.s:407    .text:00000000000001f8 .L0 
     /tmp/ccIgqyWS.s:409    .text:00000000000001fc .L0 
     /tmp/ccIgqyWS.s:411    .text:0000000000000200 .L0 
     /tmp/ccIgqyWS.s:419    .text:0000000000000200 .L0 
     /tmp/ccIgqyWS.s:138    .text:000000000000008c .L0 
     /tmp/ccIgqyWS.s:109    .text:0000000000000070 .L9
     /tmp/ccIgqyWS.s:100    .text:0000000000000064 .L5
     /tmp/ccIgqyWS.s:190    .text:00000000000000d8 .L18
     /tmp/ccIgqyWS.s:278    .text:0000000000000144 .L21
     /tmp/ccIgqyWS.s:287    .text:0000000000000150 .L24
     /tmp/ccIgqyWS.s:345    .text:00000000000001a0 .L25
     /tmp/ccIgqyWS.s:388    .text:00000000000001d8 .L35
     /tmp/ccIgqyWS.s:1701   .debug_abbrev:0000000000000000 .Ldebug_abbrev0
     /tmp/ccIgqyWS.s:2961   .debug_str:000000000000040b .LASF133
     /tmp/ccIgqyWS.s:2927   .debug_str:0000000000000315 .LASF134
     /tmp/ccIgqyWS.s:3057   .debug_str:0000000000000749 .LASF135
     /tmp/ccIgqyWS.s:5      .text:0000000000000000 .Ltext0
     /tmp/ccIgqyWS.s:414    .text:0000000000000200 .Letext0
     /tmp/ccIgqyWS.s:2813   .debug_line:0000000000000000 .Ldebug_line0
     /tmp/ccIgqyWS.s:2921   .debug_str:00000000000002ee .LASF0
     /tmp/ccIgqyWS.s:2943   .debug_str:000000000000038d .LASF1
     /tmp/ccIgqyWS.s:2999   .debug_str:00000000000005c1 .LASF2
     /tmp/ccIgqyWS.s:3011   .debug_str:0000000000000621 .LASF4
     /tmp/ccIgqyWS.s:2931   .debug_str:0000000000000335 .LASF3
     /tmp/ccIgqyWS.s:2829   .debug_str:000000000000005a .LASF5
     /tmp/ccIgqyWS.s:2987   .debug_str:0000000000000573 .LASF6
     /tmp/ccIgqyWS.s:2983   .debug_str:0000000000000558 .LASF7
     /tmp/ccIgqyWS.s:2935   .debug_str:000000000000034c .LASF8
     /tmp/ccIgqyWS.s:2909   .debug_str:000000000000029c .LASF9
     /tmp/ccIgqyWS.s:2915   .debug_str:00000000000002d4 .LASF10
     /tmp/ccIgqyWS.s:2861   .debug_str:000000000000016f .LASF11
     /tmp/ccIgqyWS.s:2901   .debug_str:0000000000000269 .LASF12
     /tmp/ccIgqyWS.s:2873   .debug_str:00000000000001a9 .LASF13
     /tmp/ccIgqyWS.s:2859   .debug_str:000000000000015f .LASF14
     /tmp/ccIgqyWS.s:3033   .debug_str:00000000000006db .LASF15
     /tmp/ccIgqyWS.s:2895   .debug_str:0000000000000242 .LASF16
     /tmp/ccIgqyWS.s:3029   .debug_str:00000000000006a9 .LASF17
     /tmp/ccIgqyWS.s:3059   .debug_str:000000000000076c .LASF28
     /tmp/ccIgqyWS.s:3071   .debug_str:00000000000007c8 .LASF20
     /tmp/ccIgqyWS.s:2937   .debug_str:000000000000035f .LASF18
     /tmp/ccIgqyWS.s:2863   .debug_str:000000000000017e .LASF19
     /tmp/ccIgqyWS.s:3043   .debug_str:000000000000070e .LASF21
GAS LISTING /tmp/ccIgqyWS.s 			page 15


     /tmp/ccIgqyWS.s:2951   .debug_str:00000000000003bc .LASF22
     /tmp/ccIgqyWS.s:3085   .debug_str:000000000000081b .LASF39
     /tmp/ccIgqyWS.s:3069   .debug_str:00000000000007c2 .LASF24
     /tmp/ccIgqyWS.s:2877   .debug_str:00000000000001ca .LASF26
     /tmp/ccIgqyWS.s:2923   .debug_str:00000000000002fb .LASF23
     /tmp/ccIgqyWS.s:3023   .debug_str:000000000000067e .LASF29
     /tmp/ccIgqyWS.s:2941   .debug_str:0000000000000388 .LASF25
     /tmp/ccIgqyWS.s:2993   .debug_str:000000000000058d .LASF27
     /tmp/ccIgqyWS.s:2889   .debug_str:000000000000020e .LASF30
     /tmp/ccIgqyWS.s:2991   .debug_str:0000000000000586 .LASF45
     /tmp/ccIgqyWS.s:2841   .debug_str:00000000000000c7 .LASF47
     /tmp/ccIgqyWS.s:3047   .debug_str:0000000000000719 .LASF136
     /tmp/ccIgqyWS.s:2857   .debug_str:0000000000000159 .LASF31
     /tmp/ccIgqyWS.s:3025   .debug_str:0000000000000693 .LASF32
     /tmp/ccIgqyWS.s:2869   .debug_str:0000000000000195 .LASF33
     /tmp/ccIgqyWS.s:2847   .debug_str:00000000000000f1 .LASF34
     /tmp/ccIgqyWS.s:2985   .debug_str:000000000000056b .LASF35
     /tmp/ccIgqyWS.s:2867   .debug_str:000000000000018c .LASF36
     /tmp/ccIgqyWS.s:3041   .debug_str:0000000000000706 .LASF37
     /tmp/ccIgqyWS.s:2917   .debug_str:00000000000002e2 .LASF38
     /tmp/ccIgqyWS.s:3065   .debug_str:0000000000000793 .LASF40
     /tmp/ccIgqyWS.s:2973   .debug_str:000000000000050a .LASF137
     /tmp/ccIgqyWS.s:3075   .debug_str:00000000000007ea .LASF41
     /tmp/ccIgqyWS.s:3091   .debug_str:0000000000000845 .LASF42
     /tmp/ccIgqyWS.s:3087   .debug_str:000000000000082b .LASF43
     /tmp/ccIgqyWS.s:3053   .debug_str:000000000000072f .LASF44
     /tmp/ccIgqyWS.s:2885   .debug_str:0000000000000200 .LASF71
     /tmp/ccIgqyWS.s:2837   .debug_str:000000000000008c .LASF73
     /tmp/ccIgqyWS.s:2947   .debug_str:00000000000003a9 .LASF46
     /tmp/ccIgqyWS.s:2977   .debug_str:0000000000000522 .LASF48
     /tmp/ccIgqyWS.s:3049   .debug_str:000000000000071f .LASF49
     /tmp/ccIgqyWS.s:3077   .debug_str:00000000000007ef .LASF50
     /tmp/ccIgqyWS.s:3017   .debug_str:0000000000000653 .LASF51
     /tmp/ccIgqyWS.s:2949   .debug_str:00000000000003af .LASF52
     /tmp/ccIgqyWS.s:2953   .debug_str:00000000000003c1 .LASF53
     /tmp/ccIgqyWS.s:3095   .debug_str:0000000000000861 .LASF54
     /tmp/ccIgqyWS.s:2897   .debug_str:0000000000000258 .LASF55
     /tmp/ccIgqyWS.s:2823   .debug_str:0000000000000038 .LASF56
     /tmp/ccIgqyWS.s:2929   .debug_str:0000000000000328 .LASF57
     /tmp/ccIgqyWS.s:3021   .debug_str:0000000000000675 .LASF58
     /tmp/ccIgqyWS.s:2963   .debug_str:00000000000004ad .LASF59
     /tmp/ccIgqyWS.s:3005   .debug_str:00000000000005e7 .LASF60
     /tmp/ccIgqyWS.s:3031   .debug_str:00000000000006bf .LASF61
     /tmp/ccIgqyWS.s:2965   .debug_str:00000000000004c0 .LASF62
     /tmp/ccIgqyWS.s:2819   .debug_str:0000000000000019 .LASF63
     /tmp/ccIgqyWS.s:3081   .debug_str:0000000000000801 .LASF64
     /tmp/ccIgqyWS.s:2981   .debug_str:000000000000053e .LASF65
     /tmp/ccIgqyWS.s:3027   .debug_str:000000000000069b .LASF66
     /tmp/ccIgqyWS.s:2989   .debug_str:000000000000057a .LASF67
     /tmp/ccIgqyWS.s:2883   .debug_str:00000000000001f0 .LASF68
     /tmp/ccIgqyWS.s:3083   .debug_str:0000000000000810 .LASF69
     /tmp/ccIgqyWS.s:2959   .debug_str:00000000000003fb .LASF70
     /tmp/ccIgqyWS.s:2893   .debug_str:0000000000000230 .LASF72
     /tmp/ccIgqyWS.s:3073   .debug_str:00000000000007cd .LASF74
     /tmp/ccIgqyWS.s:2849   .debug_str:00000000000000fa .LASF75
     /tmp/ccIgqyWS.s:3061   .debug_str:0000000000000772 .LASF76
     /tmp/ccIgqyWS.s:3015   .debug_str:000000000000064b .LASF101
GAS LISTING /tmp/ccIgqyWS.s 			page 16


     /tmp/ccIgqyWS.s:3055   .debug_str:000000000000073f .LASF77
     /tmp/ccIgqyWS.s:2979   .debug_str:0000000000000532 .LASF78
     /tmp/ccIgqyWS.s:2881   .debug_str:00000000000001e2 .LASF79
     /tmp/ccIgqyWS.s:2839   .debug_str:000000000000009f .LASF81
     /tmp/ccIgqyWS.s:2925   .debug_str:0000000000000300 .LASF80
     /tmp/ccIgqyWS.s:2855   .debug_str:000000000000012d .LASF82
     /tmp/ccIgqyWS.s:3079   .debug_str:00000000000007fa .LASF138
     /tmp/ccIgqyWS.s:2853   .debug_str:000000000000011c .LASF139
     /tmp/ccIgqyWS.s:2821   .debug_str:0000000000000033 .LASF83
     /tmp/ccIgqyWS.s:3039   .debug_str:0000000000000701 .LASF84
     /tmp/ccIgqyWS.s:2957   .debug_str:00000000000003f3 .LASF85
     /tmp/ccIgqyWS.s:2879   .debug_str:00000000000001dc .LASF86
     /tmp/ccIgqyWS.s:3063   .debug_str:000000000000078b .LASF87
     /tmp/ccIgqyWS.s:2843   .debug_str:00000000000000d5 .LASF88
     /tmp/ccIgqyWS.s:2907   .debug_str:0000000000000292 .LASF89
     /tmp/ccIgqyWS.s:2833   .debug_str:000000000000006b .LASF140
     /tmp/ccIgqyWS.s:3089   .debug_str:0000000000000831 .LASF141
     /tmp/ccIgqyWS.s:2933   .debug_str:0000000000000347 .LASF90
     /tmp/ccIgqyWS.s:2971   .debug_str:00000000000004f1 .LASF91
     /tmp/ccIgqyWS.s:2899   .debug_str:0000000000000264 .LASF92
     /tmp/ccIgqyWS.s:2903   .debug_str:0000000000000278 .LASF96
     /tmp/ccIgqyWS.s:2845   .debug_str:00000000000000df .LASF93
     /tmp/ccIgqyWS.s:2975   .debug_str:000000000000050f .LASF94
     /tmp/ccIgqyWS.s:3051   .debug_str:0000000000000727 .LASF95
     /tmp/ccIgqyWS.s:2997   .debug_str:00000000000005a9 .LASF97
     /tmp/ccIgqyWS.s:3019   .debug_str:0000000000000664 .LASF98
     /tmp/ccIgqyWS.s:2875   .debug_str:00000000000001b9 .LASF99
     /tmp/ccIgqyWS.s:2835   .debug_str:0000000000000083 .LASF100
     /tmp/ccIgqyWS.s:2831   .debug_str:0000000000000061 .LASF102
     /tmp/ccIgqyWS.s:3045   .debug_str:0000000000000714 .LASF103
     /tmp/ccIgqyWS.s:2995   .debug_str:000000000000059e .LASF104
     /tmp/ccIgqyWS.s:2913   .debug_str:00000000000002c0 .LASF105
     /tmp/ccIgqyWS.s:2887   .debug_str:0000000000000209 .LASF106
     /tmp/ccIgqyWS.s:3067   .debug_str:00000000000007ab .LASF107
     /tmp/ccIgqyWS.s:3037   .debug_str:00000000000006fa .LASF108
     /tmp/ccIgqyWS.s:2969   .debug_str:00000000000004d8 .LASF109
     /tmp/ccIgqyWS.s:3001   .debug_str:00000000000005cf .LASF110
     /tmp/ccIgqyWS.s:2891   .debug_str:000000000000021c .LASF111
     /tmp/ccIgqyWS.s:2865   .debug_str:0000000000000183 .LASF112
     /tmp/ccIgqyWS.s:2871   .debug_str:000000000000019f .LASF113
     /tmp/ccIgqyWS.s:2967   .debug_str:00000000000004cf .LASF114
     /tmp/ccIgqyWS.s:3009   .debug_str:0000000000000616 .LASF115
     /tmp/ccIgqyWS.s:2817   .debug_str:000000000000000d .LASF116
     /tmp/ccIgqyWS.s:3003   .debug_str:00000000000005db .LASF117
     /tmp/ccIgqyWS.s:2945   .debug_str:00000000000003a0 .LASF118
     /tmp/ccIgqyWS.s:2919   .debug_str:00000000000002e8 .LASF119
     /tmp/ccIgqyWS.s:3097   .debug_str:000000000000086e .LASF120
     /tmp/ccIgqyWS.s:2825   .debug_str:0000000000000048 .LASF121
     /tmp/ccIgqyWS.s:2955   .debug_str:00000000000003d9 .LASF122
     /tmp/ccIgqyWS.s:3093   .debug_str:0000000000000851 .LASF123
     /tmp/ccIgqyWS.s:3013   .debug_str:0000000000000628 .LASF124
     /tmp/ccIgqyWS.s:3035   .debug_str:00000000000006e7 .LASF125
     /tmp/ccIgqyWS.s:3007   .debug_str:00000000000005f0 .LASF126
     /tmp/ccIgqyWS.s:2815   .debug_str:0000000000000000 .LASF127
     /tmp/ccIgqyWS.s:2939   .debug_str:0000000000000364 .LASF128
     /tmp/ccIgqyWS.s:300    .text:0000000000000158 .LFB33
     /tmp/ccIgqyWS.s:362    .text:00000000000001b8 .LFE33
GAS LISTING /tmp/ccIgqyWS.s 			page 17


     /tmp/ccIgqyWS.s:2905   .debug_str:000000000000028d .LASF129
     /tmp/ccIgqyWS.s:2682   .debug_loc:0000000000000000 .LLST6
     /tmp/ccIgqyWS.s:2700   .debug_loc:000000000000004c .LLST7
     /tmp/ccIgqyWS.s:332    .text:0000000000000190 .LBB9
     /tmp/ccIgqyWS.s:339    .text:0000000000000194 .LBE9
     /tmp/ccIgqyWS.s:2707   .debug_loc:000000000000006f .LLST8
     /tmp/ccIgqyWS.s:2715   .debug_loc:0000000000000093 .LLST9
     /tmp/ccIgqyWS.s:320    .text:000000000000017c .LVL16
     /tmp/ccIgqyWS.s:327    .text:000000000000018c .LVL18
     /tmp/ccIgqyWS.s:344    .text:00000000000001a0 .LVL21
     /tmp/ccIgqyWS.s:247    .text:000000000000011c .LFB32
     /tmp/ccIgqyWS.s:294    .text:0000000000000158 .LFE32
     /tmp/ccIgqyWS.s:2722   .debug_loc:00000000000000b6 .LLST5
     /tmp/ccIgqyWS.s:220    .text:0000000000000100 .LFB31
     /tmp/ccIgqyWS.s:241    .text:000000000000011c .LFE31
     /tmp/ccIgqyWS.s:2729   .debug_loc:00000000000000d9 .LLST4
     /tmp/ccIgqyWS.s:124    .text:000000000000007c .LFB30
     /tmp/ccIgqyWS.s:169    .text:00000000000000c0 .LFE30
     /tmp/ccIgqyWS.s:2743   .debug_loc:0000000000000112 .LLST0
     /tmp/ccIgqyWS.s:141    .text:0000000000000098 .LBB7
     /tmp/ccIgqyWS.s:150    .text:00000000000000a0 .LBE7
     /tmp/ccIgqyWS.s:2757   .debug_loc:000000000000014b .LLST1
     /tmp/ccIgqyWS.s:2765   .debug_loc:000000000000016f .LLST2
     /tmp/ccIgqyWS.s:154    .text:00000000000000a8 .LVL6
     /tmp/ccIgqyWS.s:158    .text:00000000000000b0 .LVL7
     /tmp/ccIgqyWS.s:75     .text:0000000000000040 .LFB29
     /tmp/ccIgqyWS.s:118    .text:000000000000007c .LFE29
     /tmp/ccIgqyWS.s:2827   .debug_str:0000000000000050 .LASF130
     /tmp/ccIgqyWS.s:2911   .debug_str:00000000000002ac .LASF131
     /tmp/ccIgqyWS.s:49     .text:0000000000000028 .LFB27
     /tmp/ccIgqyWS.s:67     .text:0000000000000040 .LFE27
     /tmp/ccIgqyWS.s:368    .text:00000000000001b8 .LFB25
     /tmp/ccIgqyWS.s:412    .text:0000000000000200 .LFE25
     /tmp/ccIgqyWS.s:2772   .debug_loc:0000000000000192 .LLST10
     /tmp/ccIgqyWS.s:401    .text:00000000000001f0 .LVL25
     /tmp/ccIgqyWS.s:175    .text:00000000000000c0 .LFB24
     /tmp/ccIgqyWS.s:214    .text:0000000000000100 .LFE24
     /tmp/ccIgqyWS.s:2786   .debug_loc:00000000000001cb .LLST3
     /tmp/ccIgqyWS.s:203    .text:00000000000000f0 .LVL9
     /tmp/ccIgqyWS.s:2851   .debug_str:0000000000000108 .LASF132
     /tmp/ccIgqyWS.s:10     .text:0000000000000000 .LFB22
     /tmp/ccIgqyWS.s:41     .text:0000000000000028 .LFE22
     /tmp/ccIgqyWS.s:303    .text:0000000000000158 .LVL15
     /tmp/ccIgqyWS.s:357    .text:00000000000001b0 .LVL23
     /tmp/ccIgqyWS.s:322    .text:0000000000000180 .LVL17
     /tmp/ccIgqyWS.s:354    .text:00000000000001ac .LVL22
     /tmp/ccIgqyWS.s:331    .text:0000000000000190 .LVL19
     /tmp/ccIgqyWS.s:337    .text:0000000000000194 .LVL20
     /tmp/ccIgqyWS.s:263    .text:0000000000000130 .LVL13
     /tmp/ccIgqyWS.s:275    .text:0000000000000140 .LVL14
     /tmp/ccIgqyWS.s:223    .text:0000000000000100 .LVL10
     /tmp/ccIgqyWS.s:233    .text:0000000000000110 .LVL11
     /tmp/ccIgqyWS.s:127    .text:000000000000007c .LVL3
     /tmp/ccIgqyWS.s:140    .text:0000000000000098 .LVL4
     /tmp/ccIgqyWS.s:148    .text:00000000000000a0 .LVL5
     /tmp/ccIgqyWS.s:371    .text:00000000000001b8 .LVL24
     /tmp/ccIgqyWS.s:178    .text:00000000000000c0 .LVL8
GAS LISTING /tmp/ccIgqyWS.s 			page 18


     /tmp/ccIgqyWS.s:420    .debug_info:0000000000000000 .Ldebug_info0

UNDEFINED SYMBOLS
_ZN3PCB7runningE
_ZN3PCB8dispatchEv
_ZN9Scheduler3putEP3PCB
