GAS LISTING /tmp/ccwqCs9U.s 			page 1


   1              		.file	"KSemaphore.cpp"
   2              		.option pic
   3              		.option norelax
   4              		.text
   5              	.Ltext0:
   6              		.align	2
   7              		.globl	_ZN10KSemaphoreC2Ei
   9              	_ZN10KSemaphoreC2Ei:
  10              	.LFB25:
  11              		.file 1 "src/KSemaphore.cpp"
   1:src/KSemaphore.cpp **** //
   2:src/KSemaphore.cpp **** // Created by os on 5/2/22.
   3:src/KSemaphore.cpp **** //
   4:src/KSemaphore.cpp **** 
   5:src/KSemaphore.cpp **** #include "../h/KSemaphore.h"
   6:src/KSemaphore.cpp **** #include "../h/MemoryAllocator.h"
   7:src/KSemaphore.cpp **** 
   8:src/KSemaphore.cpp **** KSemaphore::KSemaphore(int val) {
  12              		.loc 1 8 1
  13              		.cfi_startproc
  14              	.LVL0:
  15 0000 130101FE 		addi	sp,sp,-32
  16              		.cfi_def_cfa_offset 32
  17 0004 233C1100 		sd	ra,24(sp)
  18 0008 23388100 		sd	s0,16(sp)
  19 000c 23349100 		sd	s1,8(sp)
  20              		.cfi_offset 1, -8
  21              		.cfi_offset 8, -16
  22              		.cfi_offset 9, -24
  23 0010 13040102 		addi	s0,sp,32
  24              		.cfi_def_cfa 8, 0
  25 0014 93040500 		mv	s1,a0
  26              	.LBB2:
   9:src/KSemaphore.cpp ****     this->val = val;
  27              		.loc 1 9 5
  28              		.loc 1 9 15 is_stmt 0
  29 0018 2320B500 		sw	a1,0(a0)
  10:src/KSemaphore.cpp ****     queueBlocked = (Queue<PCB*>*)kmalloc(sizeof(Queue<PCB*>));
  30              		.loc 1 10 5 is_stmt 1
  31              		.loc 1 10 41 is_stmt 0
  32 001c 13050001 		li	a0,16
  33              	.LVL1:
  34 0020 97000000 		call	_Z7kmallocm@plt
  34      E7800000 
  35              	.LVL2:
  36              		.loc 1 10 18
  37 0028 23B4A400 		sd	a0,8(s1)
  38              	.LBE2:
  11:src/KSemaphore.cpp **** }
  39              		.loc 1 11 1
  40 002c 83308101 		ld	ra,24(sp)
  41              		.cfi_restore 1
  42 0030 03340101 		ld	s0,16(sp)
  43              		.cfi_restore 8
  44              		.cfi_def_cfa 2, 32
  45 0034 83348100 		ld	s1,8(sp)
  46              		.cfi_restore 9
GAS LISTING /tmp/ccwqCs9U.s 			page 2


  47              	.LVL3:
  48 0038 13010102 		addi	sp,sp,32
  49              		.cfi_def_cfa_offset 0
  50 003c 67800000 		jr	ra
  51              		.cfi_endproc
  52              	.LFE25:
  54              		.globl	_ZN10KSemaphoreC1Ei
  55              		.set	_ZN10KSemaphoreC1Ei,_ZN10KSemaphoreC2Ei
  56              		.align	2
  57              		.globl	_ZN10KSemaphore4waitEv
  59              	_ZN10KSemaphore4waitEv:
  60              	.LFB27:
  12:src/KSemaphore.cpp **** 
  13:src/KSemaphore.cpp **** void KSemaphore::wait() {
  61              		.loc 1 13 25 is_stmt 1
  62              		.cfi_startproc
  63              	.LVL4:
  64 0040 130101FF 		addi	sp,sp,-16
  65              		.cfi_def_cfa_offset 16
  66 0044 23348100 		sd	s0,8(sp)
  67              		.cfi_offset 8, -8
  68 0048 13040101 		addi	s0,sp,16
  69              		.cfi_def_cfa 8, 0
  14:src/KSemaphore.cpp ****     //todo
  15:src/KSemaphore.cpp **** }
  70              		.loc 1 15 1 is_stmt 0
  71 004c 03348100 		ld	s0,8(sp)
  72              		.cfi_restore 8
  73              		.cfi_def_cfa 2, 16
  74 0050 13010101 		addi	sp,sp,16
  75              		.cfi_def_cfa_offset 0
  76 0054 67800000 		jr	ra
  77              		.cfi_endproc
  78              	.LFE27:
  80              		.align	2
  81              		.globl	_ZN10KSemaphore6signalEv
  83              	_ZN10KSemaphore6signalEv:
  84              	.LFB28:
  16:src/KSemaphore.cpp **** 
  17:src/KSemaphore.cpp **** void KSemaphore::signal() {
  85              		.loc 1 17 27 is_stmt 1
  86              		.cfi_startproc
  87              	.LVL5:
  88 0058 130101FF 		addi	sp,sp,-16
  89              		.cfi_def_cfa_offset 16
  90 005c 23348100 		sd	s0,8(sp)
  91              		.cfi_offset 8, -8
  92 0060 13040101 		addi	s0,sp,16
  93              		.cfi_def_cfa 8, 0
  18:src/KSemaphore.cpp ****     //todo
  19:src/KSemaphore.cpp **** }
  94              		.loc 1 19 1 is_stmt 0
  95 0064 03348100 		ld	s0,8(sp)
  96              		.cfi_restore 8
  97              		.cfi_def_cfa 2, 16
  98 0068 13010101 		addi	sp,sp,16
  99              		.cfi_def_cfa_offset 0
GAS LISTING /tmp/ccwqCs9U.s 			page 3


 100 006c 67800000 		jr	ra
 101              		.cfi_endproc
 102              	.LFE28:
 104              		.align	2
 105              		.globl	_ZN10KSemaphoreD2Ev
 107              	_ZN10KSemaphoreD2Ev:
 108              	.LFB30:
  20:src/KSemaphore.cpp **** 
  21:src/KSemaphore.cpp **** KSemaphore::~KSemaphore() {
 109              		.loc 1 21 1 is_stmt 1
 110              		.cfi_startproc
 111              	.LVL6:
 112 0070 130101FF 		addi	sp,sp,-16
 113              		.cfi_def_cfa_offset 16
 114 0074 23348100 		sd	s0,8(sp)
 115              		.cfi_offset 8, -8
 116 0078 13040101 		addi	s0,sp,16
 117              		.cfi_def_cfa 8, 0
  22:src/KSemaphore.cpp ****     //todo
  23:src/KSemaphore.cpp **** }
 118              		.loc 1 23 1 is_stmt 0
 119 007c 03348100 		ld	s0,8(sp)
 120              		.cfi_restore 8
 121              		.cfi_def_cfa 2, 16
 122 0080 13010101 		addi	sp,sp,16
 123              		.cfi_def_cfa_offset 0
 124 0084 67800000 		jr	ra
 125              		.cfi_endproc
 126              	.LFE30:
 128              		.globl	_ZN10KSemaphoreD1Ev
 129              		.set	_ZN10KSemaphoreD1Ev,_ZN10KSemaphoreD2Ev
 130              	.Letext0:
 131              		.file 2 "src/../h/../lib/hw.h"
 132              		.file 3 "src/../h/Queue.h"
 133              		.file 4 "src/../h/PCB.h"
 134              		.file 5 "src/../h/KSemaphore.h"
 135              		.file 6 "src/../h/MemoryAllocator.h"
GAS LISTING /tmp/ccwqCs9U.s 			page 4


DEFINED SYMBOLS
                            *ABS*:0000000000000000 KSemaphore.cpp
     /tmp/ccwqCs9U.s:9      .text:0000000000000000 _ZN10KSemaphoreC2Ei
     /tmp/ccwqCs9U.s:13     .text:0000000000000000 .L0 
     /tmp/ccwqCs9U.s:15     .text:0000000000000000 .L0 
     /tmp/ccwqCs9U.s:16     .text:0000000000000004 .L0 
     /tmp/ccwqCs9U.s:20     .text:0000000000000010 .L0 
     /tmp/ccwqCs9U.s:21     .text:0000000000000010 .L0 
     /tmp/ccwqCs9U.s:22     .text:0000000000000010 .L0 
     /tmp/ccwqCs9U.s:24     .text:0000000000000014 .L0 
     /tmp/ccwqCs9U.s:28     .text:0000000000000018 .L0 
     /tmp/ccwqCs9U.s:29     .text:0000000000000018 .L0 
     /tmp/ccwqCs9U.s:31     .text:000000000000001c .L0 
     /tmp/ccwqCs9U.s:32     .text:000000000000001c .L0 
     /tmp/ccwqCs9U.s:37     .text:0000000000000028 .L0 
     /tmp/ccwqCs9U.s:40     .text:000000000000002c .L0 
     /tmp/ccwqCs9U.s:41     .text:0000000000000030 .L0 
     /tmp/ccwqCs9U.s:43     .text:0000000000000034 .L0 
     /tmp/ccwqCs9U.s:44     .text:0000000000000034 .L0 
     /tmp/ccwqCs9U.s:46     .text:0000000000000038 .L0 
     /tmp/ccwqCs9U.s:49     .text:000000000000003c .L0 
     /tmp/ccwqCs9U.s:51     .text:0000000000000040 .L0 
     /tmp/ccwqCs9U.s:9      .text:0000000000000000 _ZN10KSemaphoreC1Ei
     /tmp/ccwqCs9U.s:59     .text:0000000000000040 _ZN10KSemaphore4waitEv
     /tmp/ccwqCs9U.s:62     .text:0000000000000040 .L0 
     /tmp/ccwqCs9U.s:64     .text:0000000000000040 .L0 
     /tmp/ccwqCs9U.s:65     .text:0000000000000044 .L0 
     /tmp/ccwqCs9U.s:67     .text:0000000000000048 .L0 
     /tmp/ccwqCs9U.s:69     .text:000000000000004c .L0 
     /tmp/ccwqCs9U.s:71     .text:000000000000004c .L0 
     /tmp/ccwqCs9U.s:72     .text:0000000000000050 .L0 
     /tmp/ccwqCs9U.s:73     .text:0000000000000050 .L0 
     /tmp/ccwqCs9U.s:75     .text:0000000000000054 .L0 
     /tmp/ccwqCs9U.s:77     .text:0000000000000058 .L0 
     /tmp/ccwqCs9U.s:83     .text:0000000000000058 _ZN10KSemaphore6signalEv
     /tmp/ccwqCs9U.s:86     .text:0000000000000058 .L0 
     /tmp/ccwqCs9U.s:88     .text:0000000000000058 .L0 
     /tmp/ccwqCs9U.s:89     .text:000000000000005c .L0 
     /tmp/ccwqCs9U.s:91     .text:0000000000000060 .L0 
     /tmp/ccwqCs9U.s:93     .text:0000000000000064 .L0 
     /tmp/ccwqCs9U.s:95     .text:0000000000000064 .L0 
     /tmp/ccwqCs9U.s:96     .text:0000000000000068 .L0 
     /tmp/ccwqCs9U.s:97     .text:0000000000000068 .L0 
     /tmp/ccwqCs9U.s:99     .text:000000000000006c .L0 
     /tmp/ccwqCs9U.s:101    .text:0000000000000070 .L0 
     /tmp/ccwqCs9U.s:107    .text:0000000000000070 _ZN10KSemaphoreD2Ev
     /tmp/ccwqCs9U.s:110    .text:0000000000000070 .L0 
     /tmp/ccwqCs9U.s:112    .text:0000000000000070 .L0 
     /tmp/ccwqCs9U.s:113    .text:0000000000000074 .L0 
     /tmp/ccwqCs9U.s:115    .text:0000000000000078 .L0 
     /tmp/ccwqCs9U.s:117    .text:000000000000007c .L0 
     /tmp/ccwqCs9U.s:119    .text:000000000000007c .L0 
     /tmp/ccwqCs9U.s:120    .text:0000000000000080 .L0 
     /tmp/ccwqCs9U.s:121    .text:0000000000000080 .L0 
     /tmp/ccwqCs9U.s:123    .text:0000000000000084 .L0 
     /tmp/ccwqCs9U.s:125    .text:0000000000000088 .L0 
     /tmp/ccwqCs9U.s:107    .text:0000000000000070 _ZN10KSemaphoreD1Ev
GAS LISTING /tmp/ccwqCs9U.s 			page 5


     /tmp/ccwqCs9U.s:136    .text:0000000000000088 .L0 
     /tmp/ccwqCs9U.s:849    .debug_abbrev:0000000000000000 .Ldebug_abbrev0
     /tmp/ccwqCs9U.s:1674   .debug_str:0000000000000271 .LASF74
     /tmp/ccwqCs9U.s:1652   .debug_str:00000000000001cd .LASF75
     /tmp/ccwqCs9U.s:1738   .debug_str:00000000000004ad .LASF76
     /tmp/ccwqCs9U.s:5      .text:0000000000000000 .Ltext0
     /tmp/ccwqCs9U.s:130    .text:0000000000000088 .Letext0
     /tmp/ccwqCs9U.s:1590   .debug_line:0000000000000000 .Ldebug_line0
     /tmp/ccwqCs9U.s:1648   .debug_str:00000000000001bb .LASF0
     /tmp/ccwqCs9U.s:1660   .debug_str:0000000000000212 .LASF1
     /tmp/ccwqCs9U.s:1698   .debug_str:00000000000003a9 .LASF2
     /tmp/ccwqCs9U.s:1704   .debug_str:00000000000003d8 .LASF4
     /tmp/ccwqCs9U.s:1656   .debug_str:00000000000001ed .LASF3
     /tmp/ccwqCs9U.s:1598   .debug_str:000000000000002e .LASF5
     /tmp/ccwqCs9U.s:1688   .debug_str:0000000000000370 .LASF6
     /tmp/ccwqCs9U.s:1684   .debug_str:000000000000034d .LASF7
     /tmp/ccwqCs9U.s:1658   .debug_str:00000000000001ff .LASF8
     /tmp/ccwqCs9U.s:1638   .debug_str:000000000000016c .LASF9
     /tmp/ccwqCs9U.s:1642   .debug_str:0000000000000190 .LASF10
     /tmp/ccwqCs9U.s:1612   .debug_str:00000000000000a7 .LASF11
     /tmp/ccwqCs9U.s:1634   .debug_str:0000000000000158 .LASF12
     /tmp/ccwqCs9U.s:1616   .debug_str:00000000000000cd .LASF13
     /tmp/ccwqCs9U.s:1610   .debug_str:0000000000000097 .LASF14
     /tmp/ccwqCs9U.s:1716   .debug_str:0000000000000438 .LASF15
     /tmp/ccwqCs9U.s:1628   .debug_str:000000000000011d .LASF16
     /tmp/ccwqCs9U.s:1712   .debug_str:0000000000000415 .LASF17
     /tmp/ccwqCs9U.s:1756   .debug_str:000000000000051b .LASF27
     /tmp/ccwqCs9U.s:1746   .debug_str:00000000000004e4 .LASF18
     /tmp/ccwqCs9U.s:1724   .debug_str:000000000000045c .LASF19
     /tmp/ccwqCs9U.s:1666   .debug_str:0000000000000238 .LASF20
     /tmp/ccwqCs9U.s:1672   .debug_str:000000000000025a .LASF29
     /tmp/ccwqCs9U.s:1744   .debug_str:00000000000004de .LASF38
     /tmp/ccwqCs9U.s:1596   .debug_str:0000000000000015 .LASF40
     /tmp/ccwqCs9U.s:1650   .debug_str:00000000000001c8 .LASF21
     /tmp/ccwqCs9U.s:1732   .debug_str:0000000000000479 .LASF23
     /tmp/ccwqCs9U.s:1740   .debug_str:00000000000004d0 .LASF22
     /tmp/ccwqCs9U.s:1700   .debug_str:00000000000003b7 .LASF24
     /tmp/ccwqCs9U.s:1692   .debug_str:0000000000000383 .LASF25
     /tmp/ccwqCs9U.s:1680   .debug_str:0000000000000324 .LASF26
     /tmp/ccwqCs9U.s:1722   .debug_str:0000000000000454 .LASF55
     /tmp/ccwqCs9U.s:1646   .debug_str:00000000000001b5 .LASF28
     /tmp/ccwqCs9U.s:1748   .debug_str:00000000000004e9 .LASF30
     /tmp/ccwqCs9U.s:1678   .debug_str:000000000000031f .LASF77
     /tmp/ccwqCs9U.s:1758   .debug_str:0000000000000527 .LASF31
     /tmp/ccwqCs9U.s:1734   .debug_str:0000000000000493 .LASF32
     /tmp/ccwqCs9U.s:1622   .debug_str:00000000000000fb .LASF78
     /tmp/ccwqCs9U.s:1600   .debug_str:0000000000000035 .LASF79
     /tmp/ccwqCs9U.s:1662   .debug_str:0000000000000225 .LASF48
     /tmp/ccwqCs9U.s:1686   .debug_str:0000000000000360 .LASF50
     /tmp/ccwqCs9U.s:1730   .debug_str:0000000000000471 .LASF36
     /tmp/ccwqCs9U.s:1710   .debug_str:0000000000000407 .LASF33
     /tmp/ccwqCs9U.s:1690   .debug_str:0000000000000377 .LASF34
     /tmp/ccwqCs9U.s:1620   .debug_str:00000000000000eb .LASF35
     /tmp/ccwqCs9U.s:1706   .debug_str:00000000000003df .LASF37
     /tmp/ccwqCs9U.s:1664   .debug_str:000000000000022b .LASF39
     /tmp/ccwqCs9U.s:1668   .debug_str:000000000000023d .LASF41
     /tmp/ccwqCs9U.s:1606   .debug_str:000000000000007a .LASF42
GAS LISTING /tmp/ccwqCs9U.s 			page 6


     /tmp/ccwqCs9U.s:1644   .debug_str:000000000000019e .LASF43
     /tmp/ccwqCs9U.s:1676   .debug_str:0000000000000313 .LASF44
     /tmp/ccwqCs9U.s:1614   .debug_str:00000000000000b6 .LASF45
     /tmp/ccwqCs9U.s:1762   .debug_str:0000000000000532 .LASF46
     /tmp/ccwqCs9U.s:1632   .debug_str:000000000000014c .LASF47
     /tmp/ccwqCs9U.s:1594   .debug_str:0000000000000005 .LASF49
     /tmp/ccwqCs9U.s:1654   .debug_str:00000000000001e0 .LASF51
     /tmp/ccwqCs9U.s:1736   .debug_str:00000000000004a3 .LASF52
     /tmp/ccwqCs9U.s:1618   .debug_str:00000000000000dd .LASF80
     /tmp/ccwqCs9U.s:1602   .debug_str:0000000000000048 .LASF81
     /tmp/ccwqCs9U.s:1754   .debug_str:0000000000000514 .LASF82
     /tmp/ccwqCs9U.s:1608   .debug_str:0000000000000086 .LASF83
     /tmp/ccwqCs9U.s:1592   .debug_str:0000000000000000 .LASF53
     /tmp/ccwqCs9U.s:1760   .debug_str:000000000000052d .LASF54
     /tmp/ccwqCs9U.s:1742   .debug_str:00000000000004d6 .LASF56
     /tmp/ccwqCs9U.s:1728   .debug_str:0000000000000467 .LASF57
     /tmp/ccwqCs9U.s:1720   .debug_str:000000000000044b .LASF58
     /tmp/ccwqCs9U.s:1726   .debug_str:0000000000000462 .LASF59
     /tmp/ccwqCs9U.s:1670   .debug_str:0000000000000255 .LASF60
     /tmp/ccwqCs9U.s:1694   .debug_str:000000000000038a .LASF61
     /tmp/ccwqCs9U.s:1640   .debug_str:000000000000017c .LASF62
     /tmp/ccwqCs9U.s:1624   .debug_str:0000000000000104 .LASF63
     /tmp/ccwqCs9U.s:1708   .debug_str:00000000000003f0 .LASF64
     /tmp/ccwqCs9U.s:1718   .debug_str:0000000000000444 .LASF65
     /tmp/ccwqCs9U.s:1630   .debug_str:0000000000000133 .LASF66
     /tmp/ccwqCs9U.s:1702   .debug_str:00000000000003cc .LASF67
     /tmp/ccwqCs9U.s:1626   .debug_str:0000000000000109 .LASF68
     /tmp/ccwqCs9U.s:1714   .debug_str:000000000000042b .LASF69
     /tmp/ccwqCs9U.s:1636   .debug_str:0000000000000167 .LASF70
     /tmp/ccwqCs9U.s:1604   .debug_str:0000000000000070 .LASF71
     /tmp/ccwqCs9U.s:1682   .debug_str:0000000000000339 .LASF72
     /tmp/ccwqCs9U.s:108    .text:0000000000000070 .LFB30
     /tmp/ccwqCs9U.s:126    .text:0000000000000088 .LFE30
     /tmp/ccwqCs9U.s:84     .text:0000000000000058 .LFB28
     /tmp/ccwqCs9U.s:102    .text:0000000000000070 .LFE28
     /tmp/ccwqCs9U.s:60     .text:0000000000000040 .LFB27
     /tmp/ccwqCs9U.s:78     .text:0000000000000058 .LFE27
     /tmp/ccwqCs9U.s:1696   .debug_str:0000000000000395 .LASF73
     /tmp/ccwqCs9U.s:10     .text:0000000000000000 .LFB25
     /tmp/ccwqCs9U.s:52     .text:0000000000000040 .LFE25
     /tmp/ccwqCs9U.s:1545   .debug_loc:0000000000000000 .LLST0
     /tmp/ccwqCs9U.s:1563   .debug_loc:000000000000004c .LLST1
     /tmp/ccwqCs9U.s:35     .text:0000000000000028 .LVL2
     /tmp/ccwqCs9U.s:1750   .debug_str:0000000000000500 .LASF84
     /tmp/ccwqCs9U.s:1752   .debug_str:000000000000050c .LASF85
     /tmp/ccwqCs9U.s:14     .text:0000000000000000 .LVL0
     /tmp/ccwqCs9U.s:33     .text:0000000000000020 .LVL1
     /tmp/ccwqCs9U.s:47     .text:0000000000000038 .LVL3
     /tmp/ccwqCs9U.s:137    .debug_info:0000000000000000 .Ldebug_info0

UNDEFINED SYMBOLS
_Z7kmallocm
