GAS LISTING /tmp/ccCzzgPm.s 			page 1


   1              		.file	"KSemaphore.cpp"
   2              		.option pic
   3              		.option norelax
   4              		.text
   5              	.Ltext0:
   6              		.align	2
   7              		.globl	_ZN10KSemaphoreC2Ei
   9              	_ZN10KSemaphoreC2Ei:
  10              	.LFB20:
  11              		.file 1 "src/KSemaphore.cpp"
   1:src/KSemaphore.cpp **** //
   2:src/KSemaphore.cpp **** // Created by os on 5/2/22.
   3:src/KSemaphore.cpp **** //
   4:src/KSemaphore.cpp **** 
   5:src/KSemaphore.cpp **** #include "../h/KSemaphore.h"
   6:src/KSemaphore.cpp **** #include "../h/MemoryAllocator.h"
   7:src/KSemaphore.cpp **** 
   8:src/KSemaphore.cpp **** KSemaphore::KSemaphore(int val) {
  12              		.loc 1 8 1
  13              		.cfi_startproc
  14              	.LVL0:
  15 0000 130101FE 		addi	sp,sp,-32
  16              		.cfi_def_cfa_offset 32
  17 0004 233C1100 		sd	ra,24(sp)
  18 0008 23388100 		sd	s0,16(sp)
  19 000c 23349100 		sd	s1,8(sp)
  20 0010 23302101 		sd	s2,0(sp)
  21              		.cfi_offset 1, -8
  22              		.cfi_offset 8, -16
  23              		.cfi_offset 9, -24
  24              		.cfi_offset 18, -32
  25 0014 13040102 		addi	s0,sp,32
  26              		.cfi_def_cfa 8, 0
  27 0018 93040500 		mv	s1,a0
  28 001c 13890500 		mv	s2,a1
  29              	.LBB6:
  30              		.loc 1 8 31 is_stmt 0
  31 0020 13058500 		addi	a0,a0,8
  32              	.LVL1:
  33 0024 97000000 		call	_ZN5QueueC1Ev@plt
  33      E7800000 
  34              	.LVL2:
   9:src/KSemaphore.cpp ****     this->val = this->beginVal = val;
  35              		.loc 1 9 5 is_stmt 1
  36              		.loc 1 9 32 is_stmt 0
  37 002c 23A22401 		sw	s2,4(s1)
  38              		.loc 1 9 15
  39 0030 23A02401 		sw	s2,0(s1)
  40              	.LBE6:
  10:src/KSemaphore.cpp **** }
  41              		.loc 1 10 1
  42 0034 83308101 		ld	ra,24(sp)
  43              		.cfi_restore 1
  44 0038 03340101 		ld	s0,16(sp)
  45              		.cfi_restore 8
  46              		.cfi_def_cfa 2, 32
  47 003c 83348100 		ld	s1,8(sp)
GAS LISTING /tmp/ccCzzgPm.s 			page 2


  48              		.cfi_restore 9
  49              	.LVL3:
  50 0040 03390100 		ld	s2,0(sp)
  51              		.cfi_restore 18
  52 0044 13010102 		addi	sp,sp,32
  53              		.cfi_def_cfa_offset 0
  54 0048 67800000 		jr	ra
  55              		.cfi_endproc
  56              	.LFE20:
  58              		.globl	_ZN10KSemaphoreC1Ei
  59              		.set	_ZN10KSemaphoreC1Ei,_ZN10KSemaphoreC2Ei
  60              		.align	2
  61              		.globl	_ZN10KSemaphoreD2Ev
  63              	_ZN10KSemaphoreD2Ev:
  64              	.LFB25:
  11:src/KSemaphore.cpp **** 
  12:src/KSemaphore.cpp **** //todo
  13:src/KSemaphore.cpp **** void KSemaphore::wait() {
  14:src/KSemaphore.cpp ****     if(--val < 0)
  15:src/KSemaphore.cpp ****         block();
  16:src/KSemaphore.cpp **** }
  17:src/KSemaphore.cpp **** 
  18:src/KSemaphore.cpp **** //todo
  19:src/KSemaphore.cpp **** void KSemaphore::signal() {
  20:src/KSemaphore.cpp ****     if(++val <= 0)
  21:src/KSemaphore.cpp ****         unblock();
  22:src/KSemaphore.cpp ****     else
  23:src/KSemaphore.cpp ****         val = beginVal;
  24:src/KSemaphore.cpp **** }
  25:src/KSemaphore.cpp **** 
  26:src/KSemaphore.cpp **** KSemaphore::~KSemaphore() {
  65              		.loc 1 26 1 is_stmt 1
  66              		.cfi_startproc
  67              	.LVL4:
  68 004c 130101FF 		addi	sp,sp,-16
  69              		.cfi_def_cfa_offset 16
  70 0050 23341100 		sd	ra,8(sp)
  71 0054 23308100 		sd	s0,0(sp)
  72              		.cfi_offset 1, -8
  73              		.cfi_offset 8, -16
  74 0058 13040101 		addi	s0,sp,16
  75              		.cfi_def_cfa 8, 0
  76              	.LBB7:
  77              		.loc 1 26 25 is_stmt 0
  78 005c 13058500 		addi	a0,a0,8
  79              	.LVL5:
  80 0060 97000000 		call	_ZN5QueueD1Ev@plt
  80      E7800000 
  81              	.LVL6:
  82              	.LBE7:
  27:src/KSemaphore.cpp ****     //todo
  28:src/KSemaphore.cpp **** }
  83              		.loc 1 28 1
  84 0068 83308100 		ld	ra,8(sp)
  85              		.cfi_restore 1
  86 006c 03340100 		ld	s0,0(sp)
  87              		.cfi_restore 8
GAS LISTING /tmp/ccCzzgPm.s 			page 3


  88              		.cfi_def_cfa 2, 16
  89 0070 13010101 		addi	sp,sp,16
  90              		.cfi_def_cfa_offset 0
  91 0074 67800000 		jr	ra
  92              		.cfi_endproc
  93              	.LFE25:
  95              		.globl	_ZN10KSemaphoreD1Ev
  96              		.set	_ZN10KSemaphoreD1Ev,_ZN10KSemaphoreD2Ev
  97              		.align	2
  98              		.globl	_ZN10KSemaphore5blockEv
 100              	_ZN10KSemaphore5blockEv:
 101              	.LFB27:
  29:src/KSemaphore.cpp **** 
  30:src/KSemaphore.cpp **** //todo
  31:src/KSemaphore.cpp **** void KSemaphore::block() {
 102              		.loc 1 31 26 is_stmt 1
 103              		.cfi_startproc
 104              	.LVL7:
 105 0078 130101FF 		addi	sp,sp,-16
 106              		.cfi_def_cfa_offset 16
 107 007c 23341100 		sd	ra,8(sp)
 108 0080 23308100 		sd	s0,0(sp)
 109              		.cfi_offset 1, -8
 110              		.cfi_offset 8, -16
 111 0084 13040101 		addi	s0,sp,16
 112              		.cfi_def_cfa 8, 0
  32:src/KSemaphore.cpp ****     PCB::running->setState(PCB::SUSPENDED);
 113              		.loc 1 32 5
 114              		.loc 1 32 27 is_stmt 0
 115 0088 97070000 		la	a5,_ZN3PCB7runningE
 115      83B70700 
 116 0090 83B70700 		ld	a5,0(a5)
 117              	.LVL8:
 118              	.LBB8:
 119              	.LBB9:
 120              		.file 2 "src/../h/PCB.h"
   1:src/../h/PCB.h **** //
   2:src/../h/PCB.h **** // Created by os on 4/27/22.
   3:src/../h/PCB.h **** //
   4:src/../h/PCB.h **** 
   5:src/../h/PCB.h **** #ifndef PROJECT_BASE_V1_0_PCB_H
   6:src/../h/PCB.h **** #define PROJECT_BASE_V1_0_PCB_H
   7:src/../h/PCB.h **** 
   8:src/../h/PCB.h **** #include "../lib/hw.h"
   9:src/../h/PCB.h **** #include "Scheduler.h"
  10:src/../h/PCB.h **** #include "Riscv.h"
  11:src/../h/PCB.h **** 
  12:src/../h/PCB.h **** class PCB
  13:src/../h/PCB.h **** {
  14:src/../h/PCB.h **** public:
  15:src/../h/PCB.h ****     using Body = void (*)(void*);
  16:src/../h/PCB.h **** 
  17:src/../h/PCB.h ****     PCB(Body body,  void* args, void* stack_space, uint64 timeSlice);
  18:src/../h/PCB.h **** 
  19:src/../h/PCB.h ****     void start();
  20:src/../h/PCB.h ****     static void dispatch();
  21:src/../h/PCB.h ****     static void sleep(time_t);
GAS LISTING /tmp/ccCzzgPm.s 			page 4


  22:src/../h/PCB.h **** 
  23:src/../h/PCB.h ****     static PCB* running;
  24:src/../h/PCB.h **** 
  25:src/../h/PCB.h ****     static const uint64 THREAD_CREATE = 0x11;
  26:src/../h/PCB.h **** 
  27:src/../h/PCB.h ****     static const uint64 THREAD_EXIT = 0x12;
  28:src/../h/PCB.h ****     static const uint64 THREAD_DISPATCH = 0x13;
  29:src/../h/PCB.h **** 
  30:src/../h/PCB.h ****     static uint64 timeSliceCounter;
  31:src/../h/PCB.h **** 
  32:src/../h/PCB.h ****     uint64 getTimeSlice() { return timeSlice;}
  33:src/../h/PCB.h **** 
  34:src/../h/PCB.h ****     void* operator new(size_t size);
  35:src/../h/PCB.h ****     void operator delete(void *p);
  36:src/../h/PCB.h **** 
  37:src/../h/PCB.h ****     enum State{READY, RUNNING, SUSPENDED, FINISHED};
  38:src/../h/PCB.h **** 
  39:src/../h/PCB.h ****     State getState() {return state;}
  40:src/../h/PCB.h ****     void setState(State s) {state = s;}
 121              		.loc 2 40 29 is_stmt 1
 122              		.loc 2 40 35 is_stmt 0
 123 0094 13072000 		li	a4,2
 124 0098 23ACE700 		sw	a4,24(a5)
 125              	.LVL9:
 126              	.LBE9:
 127              	.LBE8:
  33:src/KSemaphore.cpp ****     PCB::dispatch();
 128              		.loc 1 33 5 is_stmt 1
 129              		.loc 1 33 18 is_stmt 0
 130 009c 97000000 		call	_ZN3PCB8dispatchEv@plt
 130      E7800000 
 131              	.LVL10:
  34:src/KSemaphore.cpp **** }
 132              		.loc 1 34 1
 133 00a4 83308100 		ld	ra,8(sp)
 134              		.cfi_restore 1
 135 00a8 03340100 		ld	s0,0(sp)
 136              		.cfi_restore 8
 137              		.cfi_def_cfa 2, 16
 138 00ac 13010101 		addi	sp,sp,16
 139              		.cfi_def_cfa_offset 0
 140 00b0 67800000 		jr	ra
 141              		.cfi_endproc
 142              	.LFE27:
 144              		.align	2
 145              		.globl	_ZN10KSemaphore4waitEv
 147              	_ZN10KSemaphore4waitEv:
 148              	.LFB22:
  13:src/KSemaphore.cpp ****     if(--val < 0)
 149              		.loc 1 13 25 is_stmt 1
 150              		.cfi_startproc
 151              	.LVL11:
  14:src/KSemaphore.cpp ****         block();
 152              		.loc 1 14 5
  14:src/KSemaphore.cpp ****         block();
 153              		.loc 1 14 10 is_stmt 0
 154 00b4 83270500 		lw	a5,0(a0)
GAS LISTING /tmp/ccCzzgPm.s 			page 5


  14:src/KSemaphore.cpp ****         block();
 155              		.loc 1 14 8
 156 00b8 9B87F7FF 		addiw	a5,a5,-1
  14:src/KSemaphore.cpp ****         block();
 157              		.loc 1 14 14
 158 00bc 2320F500 		sw	a5,0(a0)
  14:src/KSemaphore.cpp ****         block();
 159              		.loc 1 14 5
 160 00c0 13970702 		slli	a4,a5,32
 161 00c4 63440700 		bltz	a4,.L13
 162 00c8 67800000 		ret
 163              	.L13:
  13:src/KSemaphore.cpp ****     if(--val < 0)
 164              		.loc 1 13 25
 165 00cc 130101FF 		addi	sp,sp,-16
 166              		.cfi_def_cfa_offset 16
 167 00d0 23341100 		sd	ra,8(sp)
 168 00d4 23308100 		sd	s0,0(sp)
 169              		.cfi_offset 1, -8
 170              		.cfi_offset 8, -16
 171 00d8 13040101 		addi	s0,sp,16
 172              		.cfi_def_cfa 8, 0
  15:src/KSemaphore.cpp **** }
 173              		.loc 1 15 9 is_stmt 1
  15:src/KSemaphore.cpp **** }
 174              		.loc 1 15 14 is_stmt 0
 175 00dc 97000000 		call	_ZN10KSemaphore5blockEv
 175      E7800000 
 176              	.LVL12:
  16:src/KSemaphore.cpp **** 
 177              		.loc 1 16 1
 178 00e4 83308100 		ld	ra,8(sp)
 179              		.cfi_restore 1
 180 00e8 03340100 		ld	s0,0(sp)
 181              		.cfi_restore 8
 182              		.cfi_def_cfa 2, 16
 183 00ec 13010101 		addi	sp,sp,16
 184              		.cfi_def_cfa_offset 0
 185 00f0 67800000 		jr	ra
 186              		.cfi_endproc
 187              	.LFE22:
 189              		.align	2
 190              		.globl	_ZN10KSemaphore7unblockEv
 192              	_ZN10KSemaphore7unblockEv:
 193              	.LFB28:
  35:src/KSemaphore.cpp **** 
  36:src/KSemaphore.cpp **** //todo
  37:src/KSemaphore.cpp **** void KSemaphore::unblock() {
 194              		.loc 1 37 28 is_stmt 1
 195              		.cfi_startproc
 196              	.LVL13:
 197 00f4 130101FE 		addi	sp,sp,-32
 198              		.cfi_def_cfa_offset 32
 199 00f8 233C1100 		sd	ra,24(sp)
 200 00fc 23388100 		sd	s0,16(sp)
 201 0100 23349100 		sd	s1,8(sp)
 202 0104 23302101 		sd	s2,0(sp)
GAS LISTING /tmp/ccCzzgPm.s 			page 6


 203              		.cfi_offset 1, -8
 204              		.cfi_offset 8, -16
 205              		.cfi_offset 9, -24
 206              		.cfi_offset 18, -32
 207 0108 13040102 		addi	s0,sp,32
 208              		.cfi_def_cfa 8, 0
  38:src/KSemaphore.cpp ****     PCB* fr = queueBlocked.front();
 209              		.loc 1 38 5
 210              		.loc 1 38 33 is_stmt 0
 211 010c 13098500 		addi	s2,a0,8
 212 0110 13050900 		mv	a0,s2
 213              	.LVL14:
 214 0114 97000000 		call	_ZN5Queue5frontEv@plt
 214      E7800000 
 215              	.LVL15:
 216 011c 93040500 		mv	s1,a0
 217              	.LVL16:
  39:src/KSemaphore.cpp ****     queueBlocked.pop();
 218              		.loc 1 39 5 is_stmt 1
 219              		.loc 1 39 21 is_stmt 0
 220 0120 13050900 		mv	a0,s2
 221 0124 97000000 		call	_ZN5Queue3popEv@plt
 221      E7800000 
 222              	.LVL17:
  40:src/KSemaphore.cpp ****     if(fr != 0)
 223              		.loc 1 40 5 is_stmt 1
 224 012c 638A0400 		beqz	s1,.L14
  41:src/KSemaphore.cpp ****     {
  42:src/KSemaphore.cpp ****         fr->setState(PCB::READY);
 225              		.loc 1 42 9
 226              	.LVL18:
 227              	.LBB10:
 228              	.LBB11:
 229              		.loc 2 40 29
 230              		.loc 2 40 35 is_stmt 0
 231 0130 23AC0400 		sw	zero,24(s1)
 232              	.LVL19:
 233              	.LBE11:
 234              	.LBE10:
  43:src/KSemaphore.cpp ****         Scheduler::put(fr);
 235              		.loc 1 43 9 is_stmt 1
 236              		.loc 1 43 23 is_stmt 0
 237 0134 13850400 		mv	a0,s1
 238 0138 97000000 		call	_ZN9Scheduler3putEP3PCB@plt
 238      E7800000 
 239              	.LVL20:
 240              	.L14:
  44:src/KSemaphore.cpp ****     }
  45:src/KSemaphore.cpp **** }
 241              		.loc 1 45 1
 242 0140 83308101 		ld	ra,24(sp)
 243              		.cfi_restore 1
 244 0144 03340101 		ld	s0,16(sp)
 245              		.cfi_restore 8
 246              		.cfi_def_cfa 2, 32
 247 0148 83348100 		ld	s1,8(sp)
 248              		.cfi_restore 9
GAS LISTING /tmp/ccCzzgPm.s 			page 7


 249              	.LVL21:
 250 014c 03390100 		ld	s2,0(sp)
 251              		.cfi_restore 18
 252              	.LVL22:
 253 0150 13010102 		addi	sp,sp,32
 254              		.cfi_def_cfa_offset 0
 255 0154 67800000 		jr	ra
 256              		.cfi_endproc
 257              	.LFE28:
 259              		.align	2
 260              		.globl	_ZN10KSemaphore6signalEv
 262              	_ZN10KSemaphore6signalEv:
 263              	.LFB23:
  19:src/KSemaphore.cpp ****     if(++val <= 0)
 264              		.loc 1 19 27 is_stmt 1
 265              		.cfi_startproc
 266              	.LVL23:
  20:src/KSemaphore.cpp ****         unblock();
 267              		.loc 1 20 5
  20:src/KSemaphore.cpp ****         unblock();
 268              		.loc 1 20 10 is_stmt 0
 269 0158 83270500 		lw	a5,0(a0)
  20:src/KSemaphore.cpp ****         unblock();
 270              		.loc 1 20 8
 271 015c 9B871700 		addiw	a5,a5,1
 272 0160 1B870700 		sext.w	a4,a5
  20:src/KSemaphore.cpp ****         unblock();
 273              		.loc 1 20 14
 274 0164 2320F500 		sw	a5,0(a0)
  20:src/KSemaphore.cpp ****         unblock();
 275              		.loc 1 20 5
 276 0168 6358E000 		blez	a4,.L24
  23:src/KSemaphore.cpp **** }
 277              		.loc 1 23 9 is_stmt 1
  23:src/KSemaphore.cpp **** }
 278              		.loc 1 23 15 is_stmt 0
 279 016c 83274500 		lw	a5,4(a0)
  23:src/KSemaphore.cpp **** }
 280              		.loc 1 23 13
 281 0170 2320F500 		sw	a5,0(a0)
 282 0174 67800000 		ret
 283              	.L24:
  19:src/KSemaphore.cpp ****     if(++val <= 0)
 284              		.loc 1 19 27
 285 0178 130101FF 		addi	sp,sp,-16
 286              		.cfi_def_cfa_offset 16
 287 017c 23341100 		sd	ra,8(sp)
 288 0180 23308100 		sd	s0,0(sp)
 289              		.cfi_offset 1, -8
 290              		.cfi_offset 8, -16
 291 0184 13040101 		addi	s0,sp,16
 292              		.cfi_def_cfa 8, 0
  21:src/KSemaphore.cpp ****     else
 293              		.loc 1 21 9 is_stmt 1
  21:src/KSemaphore.cpp ****     else
 294              		.loc 1 21 16 is_stmt 0
 295 0188 97000000 		call	_ZN10KSemaphore7unblockEv
GAS LISTING /tmp/ccCzzgPm.s 			page 8


 295      E7800000 
 296              	.LVL24:
  24:src/KSemaphore.cpp **** 
 297              		.loc 1 24 1
 298 0190 83308100 		ld	ra,8(sp)
 299              		.cfi_restore 1
 300 0194 03340100 		ld	s0,0(sp)
 301              		.cfi_restore 8
 302              		.cfi_def_cfa 2, 16
 303 0198 13010101 		addi	sp,sp,16
 304              		.cfi_def_cfa_offset 0
 305 019c 67800000 		jr	ra
 306              		.cfi_endproc
 307              	.LFE23:
 309              	.Letext0:
 310              		.file 3 "src/../h/../lib/hw.h"
 311              		.file 4 "src/../h/Queue.h"
 312              		.file 5 "src/../h/Scheduler.h"
 313              		.file 6 "src/../h/KSemaphore.h"
GAS LISTING /tmp/ccCzzgPm.s 			page 9


DEFINED SYMBOLS
                            *ABS*:0000000000000000 KSemaphore.cpp
     /tmp/ccCzzgPm.s:9      .text:0000000000000000 _ZN10KSemaphoreC2Ei
     /tmp/ccCzzgPm.s:13     .text:0000000000000000 .L0 
     /tmp/ccCzzgPm.s:15     .text:0000000000000000 .L0 
     /tmp/ccCzzgPm.s:16     .text:0000000000000004 .L0 
     /tmp/ccCzzgPm.s:21     .text:0000000000000014 .L0 
     /tmp/ccCzzgPm.s:22     .text:0000000000000014 .L0 
     /tmp/ccCzzgPm.s:23     .text:0000000000000014 .L0 
     /tmp/ccCzzgPm.s:24     .text:0000000000000014 .L0 
     /tmp/ccCzzgPm.s:26     .text:0000000000000018 .L0 
     /tmp/ccCzzgPm.s:31     .text:0000000000000020 .L0 
     /tmp/ccCzzgPm.s:36     .text:000000000000002c .L0 
     /tmp/ccCzzgPm.s:37     .text:000000000000002c .L0 
     /tmp/ccCzzgPm.s:39     .text:0000000000000030 .L0 
     /tmp/ccCzzgPm.s:42     .text:0000000000000034 .L0 
     /tmp/ccCzzgPm.s:43     .text:0000000000000038 .L0 
     /tmp/ccCzzgPm.s:45     .text:000000000000003c .L0 
     /tmp/ccCzzgPm.s:46     .text:000000000000003c .L0 
     /tmp/ccCzzgPm.s:48     .text:0000000000000040 .L0 
     /tmp/ccCzzgPm.s:51     .text:0000000000000044 .L0 
     /tmp/ccCzzgPm.s:53     .text:0000000000000048 .L0 
     /tmp/ccCzzgPm.s:55     .text:000000000000004c .L0 
     /tmp/ccCzzgPm.s:9      .text:0000000000000000 _ZN10KSemaphoreC1Ei
     /tmp/ccCzzgPm.s:63     .text:000000000000004c _ZN10KSemaphoreD2Ev
     /tmp/ccCzzgPm.s:66     .text:000000000000004c .L0 
     /tmp/ccCzzgPm.s:68     .text:000000000000004c .L0 
     /tmp/ccCzzgPm.s:69     .text:0000000000000050 .L0 
     /tmp/ccCzzgPm.s:72     .text:0000000000000058 .L0 
     /tmp/ccCzzgPm.s:73     .text:0000000000000058 .L0 
     /tmp/ccCzzgPm.s:75     .text:000000000000005c .L0 
     /tmp/ccCzzgPm.s:78     .text:000000000000005c .L0 
     /tmp/ccCzzgPm.s:84     .text:0000000000000068 .L0 
     /tmp/ccCzzgPm.s:85     .text:000000000000006c .L0 
     /tmp/ccCzzgPm.s:87     .text:0000000000000070 .L0 
     /tmp/ccCzzgPm.s:88     .text:0000000000000070 .L0 
     /tmp/ccCzzgPm.s:90     .text:0000000000000074 .L0 
     /tmp/ccCzzgPm.s:92     .text:0000000000000078 .L0 
     /tmp/ccCzzgPm.s:63     .text:000000000000004c _ZN10KSemaphoreD1Ev
     /tmp/ccCzzgPm.s:100    .text:0000000000000078 _ZN10KSemaphore5blockEv
     /tmp/ccCzzgPm.s:103    .text:0000000000000078 .L0 
     /tmp/ccCzzgPm.s:105    .text:0000000000000078 .L0 
     /tmp/ccCzzgPm.s:106    .text:000000000000007c .L0 
     /tmp/ccCzzgPm.s:109    .text:0000000000000084 .L0 
     /tmp/ccCzzgPm.s:110    .text:0000000000000084 .L0 
     /tmp/ccCzzgPm.s:112    .text:0000000000000088 .L0 
     /tmp/ccCzzgPm.s:114    .text:0000000000000088 .L0 
     /tmp/ccCzzgPm.s:115    .text:0000000000000088 .L0 
     /tmp/ccCzzgPm.s:122    .text:0000000000000094 .L0 
     /tmp/ccCzzgPm.s:123    .text:0000000000000094 .L0 
     /tmp/ccCzzgPm.s:129    .text:000000000000009c .L0 
     /tmp/ccCzzgPm.s:130    .text:000000000000009c .L0 
     /tmp/ccCzzgPm.s:133    .text:00000000000000a4 .L0 
     /tmp/ccCzzgPm.s:134    .text:00000000000000a8 .L0 
     /tmp/ccCzzgPm.s:136    .text:00000000000000ac .L0 
     /tmp/ccCzzgPm.s:137    .text:00000000000000ac .L0 
     /tmp/ccCzzgPm.s:139    .text:00000000000000b0 .L0 
GAS LISTING /tmp/ccCzzgPm.s 			page 10


     /tmp/ccCzzgPm.s:141    .text:00000000000000b4 .L0 
     /tmp/ccCzzgPm.s:147    .text:00000000000000b4 _ZN10KSemaphore4waitEv
     /tmp/ccCzzgPm.s:150    .text:00000000000000b4 .L0 
     /tmp/ccCzzgPm.s:152    .text:00000000000000b4 .L0 
     /tmp/ccCzzgPm.s:153    .text:00000000000000b4 .L0 
     /tmp/ccCzzgPm.s:154    .text:00000000000000b4 .L0 
     /tmp/ccCzzgPm.s:156    .text:00000000000000b8 .L0 
     /tmp/ccCzzgPm.s:158    .text:00000000000000bc .L0 
     /tmp/ccCzzgPm.s:160    .text:00000000000000c0 .L0 
     /tmp/ccCzzgPm.s:165    .text:00000000000000cc .L0 
     /tmp/ccCzzgPm.s:166    .text:00000000000000d0 .L0 
     /tmp/ccCzzgPm.s:169    .text:00000000000000d8 .L0 
     /tmp/ccCzzgPm.s:170    .text:00000000000000d8 .L0 
     /tmp/ccCzzgPm.s:172    .text:00000000000000dc .L0 
     /tmp/ccCzzgPm.s:174    .text:00000000000000dc .L0 
     /tmp/ccCzzgPm.s:175    .text:00000000000000dc .L0 
     /tmp/ccCzzgPm.s:178    .text:00000000000000e4 .L0 
     /tmp/ccCzzgPm.s:179    .text:00000000000000e8 .L0 
     /tmp/ccCzzgPm.s:181    .text:00000000000000ec .L0 
     /tmp/ccCzzgPm.s:182    .text:00000000000000ec .L0 
     /tmp/ccCzzgPm.s:184    .text:00000000000000f0 .L0 
     /tmp/ccCzzgPm.s:186    .text:00000000000000f4 .L0 
     /tmp/ccCzzgPm.s:192    .text:00000000000000f4 _ZN10KSemaphore7unblockEv
     /tmp/ccCzzgPm.s:195    .text:00000000000000f4 .L0 
     /tmp/ccCzzgPm.s:197    .text:00000000000000f4 .L0 
     /tmp/ccCzzgPm.s:198    .text:00000000000000f8 .L0 
     /tmp/ccCzzgPm.s:203    .text:0000000000000108 .L0 
     /tmp/ccCzzgPm.s:204    .text:0000000000000108 .L0 
     /tmp/ccCzzgPm.s:205    .text:0000000000000108 .L0 
     /tmp/ccCzzgPm.s:206    .text:0000000000000108 .L0 
     /tmp/ccCzzgPm.s:208    .text:000000000000010c .L0 
     /tmp/ccCzzgPm.s:210    .text:000000000000010c .L0 
     /tmp/ccCzzgPm.s:211    .text:000000000000010c .L0 
     /tmp/ccCzzgPm.s:219    .text:0000000000000120 .L0 
     /tmp/ccCzzgPm.s:220    .text:0000000000000120 .L0 
     /tmp/ccCzzgPm.s:224    .text:000000000000012c .L0 
     /tmp/ccCzzgPm.s:229    .text:0000000000000130 .L0 
     /tmp/ccCzzgPm.s:230    .text:0000000000000130 .L0 
     /tmp/ccCzzgPm.s:231    .text:0000000000000130 .L0 
     /tmp/ccCzzgPm.s:236    .text:0000000000000134 .L0 
     /tmp/ccCzzgPm.s:237    .text:0000000000000134 .L0 
     /tmp/ccCzzgPm.s:242    .text:0000000000000140 .L0 
     /tmp/ccCzzgPm.s:243    .text:0000000000000144 .L0 
     /tmp/ccCzzgPm.s:245    .text:0000000000000148 .L0 
     /tmp/ccCzzgPm.s:246    .text:0000000000000148 .L0 
     /tmp/ccCzzgPm.s:248    .text:000000000000014c .L0 
     /tmp/ccCzzgPm.s:251    .text:0000000000000150 .L0 
     /tmp/ccCzzgPm.s:254    .text:0000000000000154 .L0 
     /tmp/ccCzzgPm.s:256    .text:0000000000000158 .L0 
     /tmp/ccCzzgPm.s:262    .text:0000000000000158 _ZN10KSemaphore6signalEv
     /tmp/ccCzzgPm.s:265    .text:0000000000000158 .L0 
     /tmp/ccCzzgPm.s:267    .text:0000000000000158 .L0 
     /tmp/ccCzzgPm.s:268    .text:0000000000000158 .L0 
     /tmp/ccCzzgPm.s:269    .text:0000000000000158 .L0 
     /tmp/ccCzzgPm.s:271    .text:000000000000015c .L0 
     /tmp/ccCzzgPm.s:274    .text:0000000000000164 .L0 
     /tmp/ccCzzgPm.s:276    .text:0000000000000168 .L0 
GAS LISTING /tmp/ccCzzgPm.s 			page 11


     /tmp/ccCzzgPm.s:278    .text:000000000000016c .L0 
     /tmp/ccCzzgPm.s:279    .text:000000000000016c .L0 
     /tmp/ccCzzgPm.s:281    .text:0000000000000170 .L0 
     /tmp/ccCzzgPm.s:285    .text:0000000000000178 .L0 
     /tmp/ccCzzgPm.s:286    .text:000000000000017c .L0 
     /tmp/ccCzzgPm.s:289    .text:0000000000000184 .L0 
     /tmp/ccCzzgPm.s:290    .text:0000000000000184 .L0 
     /tmp/ccCzzgPm.s:292    .text:0000000000000188 .L0 
     /tmp/ccCzzgPm.s:294    .text:0000000000000188 .L0 
     /tmp/ccCzzgPm.s:295    .text:0000000000000188 .L0 
     /tmp/ccCzzgPm.s:298    .text:0000000000000190 .L0 
     /tmp/ccCzzgPm.s:299    .text:0000000000000194 .L0 
     /tmp/ccCzzgPm.s:301    .text:0000000000000198 .L0 
     /tmp/ccCzzgPm.s:302    .text:0000000000000198 .L0 
     /tmp/ccCzzgPm.s:304    .text:000000000000019c .L0 
     /tmp/ccCzzgPm.s:306    .text:00000000000001a0 .L0 
     /tmp/ccCzzgPm.s:314    .text:00000000000001a0 .L0 
     /tmp/ccCzzgPm.s:115    .text:0000000000000088 .L0 
     /tmp/ccCzzgPm.s:163    .text:00000000000000cc .L13
     /tmp/ccCzzgPm.s:240    .text:0000000000000140 .L14
     /tmp/ccCzzgPm.s:283    .text:0000000000000178 .L24
     /tmp/ccCzzgPm.s:1312   .debug_abbrev:0000000000000000 .Ldebug_abbrev0
     /tmp/ccCzzgPm.s:2482   .debug_str:00000000000002db .LASF92
     /tmp/ccCzzgPm.s:2454   .debug_str:000000000000021c .LASF93
     /tmp/ccCzzgPm.s:2552   .debug_str:000000000000053d .LASF94
     /tmp/ccCzzgPm.s:5      .text:0000000000000000 .Ltext0
     /tmp/ccCzzgPm.s:309    .text:00000000000001a0 .Letext0
     /tmp/ccCzzgPm.s:2370   .debug_line:0000000000000000 .Ldebug_line0
     /tmp/ccCzzgPm.s:2450   .debug_str:000000000000020a .LASF0
     /tmp/ccCzzgPm.s:2466   .debug_str:000000000000026b .LASF1
     /tmp/ccCzzgPm.s:2510   .debug_str:0000000000000446 .LASF2
     /tmp/ccCzzgPm.s:2516   .debug_str:0000000000000469 .LASF4
     /tmp/ccCzzgPm.s:2458   .debug_str:000000000000023c .LASF3
     /tmp/ccCzzgPm.s:2380   .debug_str:0000000000000027 .LASF5
     /tmp/ccCzzgPm.s:2498   .debug_str:00000000000003f8 .LASF6
     /tmp/ccCzzgPm.s:2494   .debug_str:00000000000003d5 .LASF7
     /tmp/ccCzzgPm.s:2460   .debug_str:000000000000024e .LASF8
     /tmp/ccCzzgPm.s:2440   .debug_str:00000000000001cc .LASF9
     /tmp/ccCzzgPm.s:2444   .debug_str:00000000000001f0 .LASF10
     /tmp/ccCzzgPm.s:2406   .debug_str:00000000000000f8 .LASF11
     /tmp/ccCzzgPm.s:2434   .debug_str:00000000000001ae .LASF12
     /tmp/ccCzzgPm.s:2412   .debug_str:0000000000000116 .LASF13
     /tmp/ccCzzgPm.s:2404   .debug_str:00000000000000e8 .LASF14
     /tmp/ccCzzgPm.s:2534   .debug_str:00000000000004ef .LASF15
     /tmp/ccCzzgPm.s:2430   .debug_str:000000000000018c .LASF16
     /tmp/ccCzzgPm.s:2530   .debug_str:00000000000004bd .LASF17
     /tmp/ccCzzgPm.s:2554   .debug_str:0000000000000560 .LASF28
     /tmp/ccCzzgPm.s:2566   .debug_str:00000000000005b0 .LASF20
     /tmp/ccCzzgPm.s:2462   .debug_str:0000000000000261 .LASF18
     /tmp/ccCzzgPm.s:2408   .debug_str:0000000000000107 .LASF19
     /tmp/ccCzzgPm.s:2540   .debug_str:000000000000050a .LASF21
     /tmp/ccCzzgPm.s:2474   .debug_str:000000000000029a .LASF22
     /tmp/ccCzzgPm.s:2570   .debug_str:00000000000005bc .LASF37
     /tmp/ccCzzgPm.s:2564   .debug_str:00000000000005aa .LASF24
     /tmp/ccCzzgPm.s:2414   .debug_str:0000000000000126 .LASF26
     /tmp/ccCzzgPm.s:2452   .debug_str:0000000000000217 .LASF23
     /tmp/ccCzzgPm.s:2524   .debug_str:0000000000000492 .LASF29
GAS LISTING /tmp/ccCzzgPm.s 			page 12


     /tmp/ccCzzgPm.s:2464   .debug_str:0000000000000266 .LASF25
     /tmp/ccCzzgPm.s:2504   .debug_str:0000000000000412 .LASF27
     /tmp/ccCzzgPm.s:2426   .debug_str:000000000000016a .LASF30
     /tmp/ccCzzgPm.s:2502   .debug_str:000000000000040b .LASF41
     /tmp/ccCzzgPm.s:2392   .debug_str:0000000000000094 .LASF43
     /tmp/ccCzzgPm.s:2544   .debug_str:0000000000000515 .LASF95
     /tmp/ccCzzgPm.s:2402   .debug_str:00000000000000e2 .LASF31
     /tmp/ccCzzgPm.s:2526   .debug_str:00000000000004a7 .LASF32
     /tmp/ccCzzgPm.s:2410   .debug_str:000000000000010c .LASF33
     /tmp/ccCzzgPm.s:2396   .debug_str:00000000000000b4 .LASF34
     /tmp/ccCzzgPm.s:2538   .debug_str:0000000000000502 .LASF35
     /tmp/ccCzzgPm.s:2446   .debug_str:00000000000001fe .LASF36
     /tmp/ccCzzgPm.s:2558   .debug_str:000000000000056e .LASF38
     /tmp/ccCzzgPm.s:2488   .debug_str:00000000000003a9 .LASF96
     /tmp/ccCzzgPm.s:2572   .debug_str:00000000000005cc .LASF39
     /tmp/ccCzzgPm.s:2548   .debug_str:0000000000000523 .LASF40
     /tmp/ccCzzgPm.s:2422   .debug_str:000000000000015c .LASF97
     /tmp/ccCzzgPm.s:2388   .debug_str:0000000000000059 .LASF98
     /tmp/ccCzzgPm.s:2470   .debug_str:0000000000000287 .LASF42
     /tmp/ccCzzgPm.s:2496   .debug_str:00000000000003e8 .LASF44
     /tmp/ccCzzgPm.s:2546   .debug_str:000000000000051b .LASF48
     /tmp/ccCzzgPm.s:2528   .debug_str:00000000000004af .LASF45
     /tmp/ccCzzgPm.s:2500   .debug_str:00000000000003ff .LASF46
     /tmp/ccCzzgPm.s:2420   .debug_str:000000000000014c .LASF47
     /tmp/ccCzzgPm.s:2520   .debug_str:0000000000000478 .LASF49
     /tmp/ccCzzgPm.s:2472   .debug_str:000000000000028d .LASF50
     /tmp/ccCzzgPm.s:2476   .debug_str:000000000000029f .LASF51
     /tmp/ccCzzgPm.s:2578   .debug_str:00000000000005eb .LASF52
     /tmp/ccCzzgPm.s:2432   .debug_str:00000000000001a2 .LASF53
     /tmp/ccCzzgPm.s:2374   .debug_str:0000000000000005 .LASF54
     /tmp/ccCzzgPm.s:2456   .debug_str:000000000000022f .LASF55
     /tmp/ccCzzgPm.s:2522   .debug_str:0000000000000489 .LASF56
     /tmp/ccCzzgPm.s:2484   .debug_str:000000000000037d .LASF57
     /tmp/ccCzzgPm.s:2514   .debug_str:0000000000000460 .LASF58
     /tmp/ccCzzgPm.s:2532   .debug_str:00000000000004d3 .LASF59
     /tmp/ccCzzgPm.s:2550   .debug_str:0000000000000533 .LASF60
     /tmp/ccCzzgPm.s:2418   .debug_str:000000000000013e .LASF84
     /tmp/ccCzzgPm.s:2390   .debug_str:000000000000006c .LASF86
     /tmp/ccCzzgPm.s:2568   .debug_str:00000000000005b5 .LASF99
     /tmp/ccCzzgPm.s:2400   .debug_str:00000000000000d1 .LASF100
     /tmp/ccCzzgPm.s:2372   .debug_str:0000000000000000 .LASF61
     /tmp/ccCzzgPm.s:2576   .debug_str:00000000000005e6 .LASF62
     /tmp/ccCzzgPm.s:2416   .debug_str:0000000000000138 .LASF63
     /tmp/ccCzzgPm.s:2556   .debug_str:0000000000000566 .LASF64
     /tmp/ccCzzgPm.s:2480   .debug_str:00000000000002d1 .LASF65
     /tmp/ccCzzgPm.s:2438   .debug_str:00000000000001c2 .LASF66
     /tmp/ccCzzgPm.s:2384   .debug_str:0000000000000038 .LASF101
     /tmp/ccCzzgPm.s:2574   .debug_str:00000000000005d2 .LASF102
     /tmp/ccCzzgPm.s:2394   .debug_str:00000000000000a2 .LASF67
     /tmp/ccCzzgPm.s:2490   .debug_str:00000000000003ae .LASF68
     /tmp/ccCzzgPm.s:2518   .debug_str:0000000000000470 .LASF69
     /tmp/ccCzzgPm.s:2508   .debug_str:000000000000042e .LASF103
     /tmp/ccCzzgPm.s:2386   .debug_str:0000000000000050 .LASF70
     /tmp/ccCzzgPm.s:2382   .debug_str:000000000000002e .LASF104
     /tmp/ccCzzgPm.s:2542   .debug_str:0000000000000510 .LASF71
     /tmp/ccCzzgPm.s:2506   .debug_str:0000000000000423 .LASF72
     /tmp/ccCzzgPm.s:2442   .debug_str:00000000000001dc .LASF73
GAS LISTING /tmp/ccCzzgPm.s 			page 13


     /tmp/ccCzzgPm.s:2424   .debug_str:0000000000000165 .LASF74
     /tmp/ccCzzgPm.s:2560   .debug_str:0000000000000586 .LASF75
     /tmp/ccCzzgPm.s:2536   .debug_str:00000000000004fb .LASF76
     /tmp/ccCzzgPm.s:2486   .debug_str:0000000000000390 .LASF77
     /tmp/ccCzzgPm.s:2512   .debug_str:0000000000000454 .LASF78
     /tmp/ccCzzgPm.s:2428   .debug_str:0000000000000178 .LASF79
     /tmp/ccCzzgPm.s:2468   .debug_str:000000000000027e .LASF80
     /tmp/ccCzzgPm.s:2562   .debug_str:000000000000059d .LASF81
     /tmp/ccCzzgPm.s:2448   .debug_str:0000000000000204 .LASF82
     /tmp/ccCzzgPm.s:2580   .debug_str:00000000000005f8 .LASF83
     /tmp/ccCzzgPm.s:2376   .debug_str:0000000000000015 .LASF85
     /tmp/ccCzzgPm.s:2478   .debug_str:00000000000002b7 .LASF87
     /tmp/ccCzzgPm.s:193    .text:00000000000000f4 .LFB28
     /tmp/ccCzzgPm.s:257    .text:0000000000000158 .LFE28
     /tmp/ccCzzgPm.s:2436   .debug_str:00000000000001bd .LASF88
     /tmp/ccCzzgPm.s:2200   .debug_loc:0000000000000000 .LLST7
     /tmp/ccCzzgPm.s:2226   .debug_loc:0000000000000063 .LLST8
     /tmp/ccCzzgPm.s:227    .text:0000000000000130 .LBB10
     /tmp/ccCzzgPm.s:234    .text:0000000000000134 .LBE10
     /tmp/ccCzzgPm.s:2233   .debug_loc:0000000000000086 .LLST9
     /tmp/ccCzzgPm.s:2241   .debug_loc:00000000000000aa .LLST10
     /tmp/ccCzzgPm.s:215    .text:000000000000011c .LVL15
     /tmp/ccCzzgPm.s:222    .text:000000000000012c .LVL17
     /tmp/ccCzzgPm.s:239    .text:0000000000000140 .LVL20
     /tmp/ccCzzgPm.s:101    .text:0000000000000078 .LFB27
     /tmp/ccCzzgPm.s:142    .text:00000000000000b4 .LFE27
     /tmp/ccCzzgPm.s:2248   .debug_loc:00000000000000cd .LLST3
     /tmp/ccCzzgPm.s:118    .text:0000000000000094 .LBB8
     /tmp/ccCzzgPm.s:127    .text:000000000000009c .LBE8
     /tmp/ccCzzgPm.s:2262   .debug_loc:0000000000000106 .LLST4
     /tmp/ccCzzgPm.s:2270   .debug_loc:000000000000012a .LLST5
     /tmp/ccCzzgPm.s:131    .text:00000000000000a4 .LVL10
     /tmp/ccCzzgPm.s:2378   .debug_str:000000000000001d .LASF89
     /tmp/ccCzzgPm.s:2492   .debug_str:00000000000003c1 .LASF90
     /tmp/ccCzzgPm.s:64     .text:000000000000004c .LFB25
     /tmp/ccCzzgPm.s:93     .text:0000000000000078 .LFE25
     /tmp/ccCzzgPm.s:2277   .debug_loc:000000000000014d .LLST2
     /tmp/ccCzzgPm.s:81     .text:0000000000000068 .LVL6
     /tmp/ccCzzgPm.s:263    .text:0000000000000158 .LFB23
     /tmp/ccCzzgPm.s:307    .text:00000000000001a0 .LFE23
     /tmp/ccCzzgPm.s:2297   .debug_loc:000000000000019b .LLST11
     /tmp/ccCzzgPm.s:296    .text:0000000000000190 .LVL24
     /tmp/ccCzzgPm.s:148    .text:00000000000000b4 .LFB22
     /tmp/ccCzzgPm.s:187    .text:00000000000000f4 .LFE22
     /tmp/ccCzzgPm.s:2311   .debug_loc:00000000000001d4 .LLST6
     /tmp/ccCzzgPm.s:176    .text:00000000000000e4 .LVL12
     /tmp/ccCzzgPm.s:2398   .debug_str:00000000000000bd .LASF91
     /tmp/ccCzzgPm.s:10     .text:0000000000000000 .LFB20
     /tmp/ccCzzgPm.s:56     .text:000000000000004c .LFE20
     /tmp/ccCzzgPm.s:2325   .debug_loc:000000000000020d .LLST0
     /tmp/ccCzzgPm.s:2343   .debug_loc:0000000000000259 .LLST1
     /tmp/ccCzzgPm.s:34     .text:000000000000002c .LVL2
     /tmp/ccCzzgPm.s:196    .text:00000000000000f4 .LVL13
     /tmp/ccCzzgPm.s:213    .text:0000000000000114 .LVL14
     /tmp/ccCzzgPm.s:252    .text:0000000000000150 .LVL22
     /tmp/ccCzzgPm.s:217    .text:0000000000000120 .LVL16
     /tmp/ccCzzgPm.s:249    .text:000000000000014c .LVL21
GAS LISTING /tmp/ccCzzgPm.s 			page 14


     /tmp/ccCzzgPm.s:226    .text:0000000000000130 .LVL18
     /tmp/ccCzzgPm.s:232    .text:0000000000000134 .LVL19
     /tmp/ccCzzgPm.s:104    .text:0000000000000078 .LVL7
     /tmp/ccCzzgPm.s:117    .text:0000000000000094 .LVL8
     /tmp/ccCzzgPm.s:125    .text:000000000000009c .LVL9
     /tmp/ccCzzgPm.s:67     .text:000000000000004c .LVL4
     /tmp/ccCzzgPm.s:79     .text:0000000000000060 .LVL5
     /tmp/ccCzzgPm.s:266    .text:0000000000000158 .LVL23
     /tmp/ccCzzgPm.s:151    .text:00000000000000b4 .LVL11
     /tmp/ccCzzgPm.s:14     .text:0000000000000000 .LVL0
     /tmp/ccCzzgPm.s:32     .text:0000000000000024 .LVL1
     /tmp/ccCzzgPm.s:49     .text:0000000000000040 .LVL3
     /tmp/ccCzzgPm.s:315    .debug_info:0000000000000000 .Ldebug_info0

UNDEFINED SYMBOLS
_ZN5QueueC1Ev
_ZN5QueueD1Ev
_ZN3PCB7runningE
_ZN3PCB8dispatchEv
_ZN5Queue5frontEv
_ZN5Queue3popEv
_ZN9Scheduler3putEP3PCB
