GAS LISTING /tmp/ccXPOJvR.s 			page 1


   1              		.file	"KSemaphore.cpp"
   2              		.option pic
   3              		.option norelax
   4              		.text
   5              	.Ltext0:
   6              		.align	2
   7              		.globl	_ZN10KSemaphoreC2Ei
   9              	_ZN10KSemaphoreC2Ei:
  10              	.LFB26:
  11              		.file 1 "src/KSemaphore.cpp"
   1:src/KSemaphore.cpp **** //
   2:src/KSemaphore.cpp **** // Created by os on 5/2/22.
   3:src/KSemaphore.cpp **** //
   4:src/KSemaphore.cpp **** 
   5:src/KSemaphore.cpp **** #include "../h/KSemaphore.hpp"
   6:src/KSemaphore.cpp **** #include "../h/MemoryAllocator.hpp"
   7:src/KSemaphore.cpp **** 
   8:src/KSemaphore.cpp **** KSemaphore::KSemaphore(int val)
  12              		.loc 1 8 1
  13              		.cfi_startproc
  14              	.LVL0:
  15 0000 130101FF 		addi	sp,sp,-16
  16              		.cfi_def_cfa_offset 16
  17 0004 23348100 		sd	s0,8(sp)
  18              		.cfi_offset 8, -8
  19 0008 13040101 		addi	s0,sp,16
  20              		.cfi_def_cfa 8, 0
  21              	.LBB4:
   9:src/KSemaphore.cpp **** {
  10:src/KSemaphore.cpp ****     this->val = this->beginVal = val;
  22              		.loc 1 10 5
  23              		.loc 1 10 32 is_stmt 0
  24 000c 232AB500 		sw	a1,20(a0)
  25              		.loc 1 10 15
  26 0010 2328B500 		sw	a1,16(a0)
  11:src/KSemaphore.cpp ****     headBlocked = tailBlocked = 0;
  27              		.loc 1 11 5 is_stmt 1
  28              		.loc 1 11 31 is_stmt 0
  29 0014 23340500 		sd	zero,8(a0)
  30              		.loc 1 11 17
  31 0018 23300500 		sd	zero,0(a0)
  32              	.LBE4:
  12:src/KSemaphore.cpp **** }
  33              		.loc 1 12 1
  34 001c 03348100 		ld	s0,8(sp)
  35              		.cfi_restore 8
  36              		.cfi_def_cfa 2, 16
  37 0020 13010101 		addi	sp,sp,16
  38              		.cfi_def_cfa_offset 0
  39 0024 67800000 		jr	ra
  40              		.cfi_endproc
  41              	.LFE26:
  43              		.globl	_ZN10KSemaphoreC1Ei
  44              		.set	_ZN10KSemaphoreC1Ei,_ZN10KSemaphoreC2Ei
  45              		.align	2
  46              		.globl	_ZN10KSemaphore12addToBlockedEP3PCB
  48              	_ZN10KSemaphore12addToBlockedEP3PCB:
GAS LISTING /tmp/ccXPOJvR.s 			page 2


  49              	.LFB34:
  13:src/KSemaphore.cpp **** 
  14:src/KSemaphore.cpp **** uint64 KSemaphore::wait() {
  15:src/KSemaphore.cpp ****     if(--val < 0)
  16:src/KSemaphore.cpp ****         block();
  17:src/KSemaphore.cpp **** 
  18:src/KSemaphore.cpp ****     return 0;
  19:src/KSemaphore.cpp **** }
  20:src/KSemaphore.cpp **** 
  21:src/KSemaphore.cpp **** uint64 KSemaphore::signal() {
  22:src/KSemaphore.cpp ****     if(++val <= 0)
  23:src/KSemaphore.cpp ****         unblock();
  24:src/KSemaphore.cpp **** 
  25:src/KSemaphore.cpp ****     return 0;
  26:src/KSemaphore.cpp **** }
  27:src/KSemaphore.cpp **** 
  28:src/KSemaphore.cpp **** void KSemaphore::semOpenHandler()
  29:src/KSemaphore.cpp **** {
  30:src/KSemaphore.cpp ****     uint64 val;
  31:src/KSemaphore.cpp ****     KSemaphore** semaphoreHandle;
  32:src/KSemaphore.cpp ****     __asm__ volatile("mv %0, a1" : "=r"(semaphoreHandle));
  33:src/KSemaphore.cpp ****     __asm__ volatile("mv %0, a2" : "=r"(val));
  34:src/KSemaphore.cpp **** 
  35:src/KSemaphore.cpp ****     KSemaphore* newSem = new KSemaphore(val);
  36:src/KSemaphore.cpp **** 
  37:src/KSemaphore.cpp ****     (*semaphoreHandle) = newSem;
  38:src/KSemaphore.cpp **** 
  39:src/KSemaphore.cpp ****     if(newSem == 0)
  40:src/KSemaphore.cpp ****             __asm__ volatile("li a0, 0xffffffffffffffff");
  41:src/KSemaphore.cpp ****     else
  42:src/KSemaphore.cpp ****             __asm__ volatile("li a0, 0");
  43:src/KSemaphore.cpp **** }
  44:src/KSemaphore.cpp **** 
  45:src/KSemaphore.cpp **** KSemaphore::~KSemaphore()
  46:src/KSemaphore.cpp **** {
  47:src/KSemaphore.cpp ****     while(getFirstBlocked() != 0)
  48:src/KSemaphore.cpp ****     {
  49:src/KSemaphore.cpp ****         PCB* pcb = getFirstBlocked();
  50:src/KSemaphore.cpp ****         removeFirstBlocked();
  51:src/KSemaphore.cpp ****         Scheduler::put(pcb);
  52:src/KSemaphore.cpp ****     }
  53:src/KSemaphore.cpp **** }
  54:src/KSemaphore.cpp **** 
  55:src/KSemaphore.cpp **** void KSemaphore::addToBlocked(PCB* pcb)
  56:src/KSemaphore.cpp **** {
  50              		.loc 1 56 1 is_stmt 1
  51              		.cfi_startproc
  52              	.LVL1:
  53 0028 130101FF 		addi	sp,sp,-16
  54              		.cfi_def_cfa_offset 16
  55 002c 23348100 		sd	s0,8(sp)
  56              		.cfi_offset 8, -8
  57 0030 13040101 		addi	s0,sp,16
  58              		.cfi_def_cfa 8, 0
  57:src/KSemaphore.cpp ****     pcb->nextPCB = 0;
  59              		.loc 1 57 5
  60              		.loc 1 57 18 is_stmt 0
GAS LISTING /tmp/ccXPOJvR.s 			page 3


  61 0034 23B40500 		sd	zero,8(a1)
  58:src/KSemaphore.cpp ****     if(headBlocked == 0)
  62              		.loc 1 58 5 is_stmt 1
  63              		.loc 1 58 8 is_stmt 0
  64 0038 83370500 		ld	a5,0(a0)
  65              		.loc 1 58 5
  66 003c 638E0700 		beqz	a5,.L7
  59:src/KSemaphore.cpp ****     {
  60:src/KSemaphore.cpp ****         headBlocked = tailBlocked = pcb;
  61:src/KSemaphore.cpp ****     }
  62:src/KSemaphore.cpp ****     else
  63:src/KSemaphore.cpp ****     {
  64:src/KSemaphore.cpp ****         tailBlocked->nextPCB = pcb;
  67              		.loc 1 64 9 is_stmt 1
  68 0040 83378500 		ld	a5,8(a0)
  69              		.loc 1 64 30 is_stmt 0
  70 0044 23B4B700 		sd	a1,8(a5)
  65:src/KSemaphore.cpp ****         tailBlocked = pcb;
  71              		.loc 1 65 9 is_stmt 1
  72              		.loc 1 65 21 is_stmt 0
  73 0048 2334B500 		sd	a1,8(a0)
  74              	.L3:
  66:src/KSemaphore.cpp ****     }
  67:src/KSemaphore.cpp **** }
  75              		.loc 1 67 1
  76 004c 03348100 		ld	s0,8(sp)
  77              		.cfi_remember_state
  78              		.cfi_restore 8
  79              		.cfi_def_cfa 2, 16
  80 0050 13010101 		addi	sp,sp,16
  81              		.cfi_def_cfa_offset 0
  82 0054 67800000 		jr	ra
  83              	.L7:
  84              		.cfi_restore_state
  60:src/KSemaphore.cpp ****     }
  85              		.loc 1 60 9 is_stmt 1
  60:src/KSemaphore.cpp ****     }
  86              		.loc 1 60 35 is_stmt 0
  87 0058 2334B500 		sd	a1,8(a0)
  60:src/KSemaphore.cpp ****     }
  88              		.loc 1 60 21
  89 005c 2330B500 		sd	a1,0(a0)
  90 0060 6FF0DFFE 		j	.L3
  91              		.cfi_endproc
  92              	.LFE34:
  94              		.align	2
  95              		.globl	_ZN10KSemaphore5blockEv
  97              	_ZN10KSemaphore5blockEv:
  98              	.LFB35:
  68:src/KSemaphore.cpp **** 
  69:src/KSemaphore.cpp **** void KSemaphore::block()
  70:src/KSemaphore.cpp **** {
  99              		.loc 1 70 1 is_stmt 1
 100              		.cfi_startproc
 101              	.LVL2:
 102 0064 130101FF 		addi	sp,sp,-16
 103              		.cfi_def_cfa_offset 16
GAS LISTING /tmp/ccXPOJvR.s 			page 4


 104 0068 23341100 		sd	ra,8(sp)
 105 006c 23308100 		sd	s0,0(sp)
 106              		.cfi_offset 1, -8
 107              		.cfi_offset 8, -16
 108 0070 13040101 		addi	s0,sp,16
 109              		.cfi_def_cfa 8, 0
  71:src/KSemaphore.cpp ****     PCB::running->setState(PCB::SUSPENDED);
 110              		.loc 1 71 5
 111              		.loc 1 71 27 is_stmt 0
 112 0074 97070000 		la	a5,_ZN3PCB7runningE
 112      83B70700 
 113 007c 83B50700 		ld	a1,0(a5)
 114              	.LVL3:
 115              	.LBB5:
 116              	.LBB6:
 117              		.file 2 "src/../h/PCB.hpp"
   1:src/../h/PCB.hpp **** //
   2:src/../h/PCB.hpp **** // Created by os on 4/27/22.
   3:src/../h/PCB.hpp **** //
   4:src/../h/PCB.hpp **** 
   5:src/../h/PCB.hpp **** #ifndef PROJECT_BASE_V1_0_PCB_HPP
   6:src/../h/PCB.hpp **** #define PROJECT_BASE_V1_0_PCB_HPP
   7:src/../h/PCB.hpp **** 
   8:src/../h/PCB.hpp **** #include "../lib/hw.h"
   9:src/../h/PCB.hpp **** #include "Scheduler.hpp"
  10:src/../h/PCB.hpp **** #include "Riscv.hpp"
  11:src/../h/PCB.hpp **** 
  12:src/../h/PCB.hpp **** class PCB
  13:src/../h/PCB.hpp **** {
  14:src/../h/PCB.hpp **** private:
  15:src/../h/PCB.hpp ****     static uint64 savedRegA4;
  16:src/../h/PCB.hpp **** 
  17:src/../h/PCB.hpp ****     using Body = void (*)(void*);
  18:src/../h/PCB.hpp **** 
  19:src/../h/PCB.hpp ****     PCB(Body body,  void* args, void* stack_space, uint64 timeSlice);
  20:src/../h/PCB.hpp ****     ~PCB();
  21:src/../h/PCB.hpp **** 
  22:src/../h/PCB.hpp ****     void start();
  23:src/../h/PCB.hpp ****     static void dispatch();
  24:src/../h/PCB.hpp ****     static void sleep(time_t);
  25:src/../h/PCB.hpp **** 
  26:src/../h/PCB.hpp ****     static PCB* running;
  27:src/../h/PCB.hpp **** 
  28:src/../h/PCB.hpp ****     static uint64 timeSliceCounter;
  29:src/../h/PCB.hpp ****     uint64 getTimeSlice() { return timeSlice;}
  30:src/../h/PCB.hpp **** 
  31:src/../h/PCB.hpp ****     void* operator new(size_t size);
  32:src/../h/PCB.hpp ****     void operator delete(void *p);
  33:src/../h/PCB.hpp **** 
  34:src/../h/PCB.hpp ****     enum State{READY, RUNNING, SUSPENDED, FINISHED, EXITING, SLEEPING};
  35:src/../h/PCB.hpp ****     State getState() {return state;}
  36:src/../h/PCB.hpp ****     void setState(State s) {state = s;}
 118              		.loc 2 36 29 is_stmt 1
 119              		.loc 2 36 35 is_stmt 0
 120 0080 93072000 		li	a5,2
 121 0084 23A0F504 		sw	a5,64(a1)
 122              	.LVL4:
GAS LISTING /tmp/ccXPOJvR.s 			page 5


 123              	.LBE6:
 124              	.LBE5:
  72:src/KSemaphore.cpp ****     addToBlocked(PCB::running);
 125              		.loc 1 72 5 is_stmt 1
 126              		.loc 1 72 17 is_stmt 0
 127 0088 97000000 		call	_ZN10KSemaphore12addToBlockedEP3PCB
 127      E7800000 
 128              	.LVL5:
  73:src/KSemaphore.cpp ****     PCB::dispatch();
 129              		.loc 1 73 5 is_stmt 1
 130              		.loc 1 73 18 is_stmt 0
 131 0090 97000000 		call	_ZN3PCB8dispatchEv@plt
 131      E7800000 
 132              	.LVL6:
  74:src/KSemaphore.cpp **** }
 133              		.loc 1 74 1
 134 0098 83308100 		ld	ra,8(sp)
 135              		.cfi_restore 1
 136 009c 03340100 		ld	s0,0(sp)
 137              		.cfi_restore 8
 138              		.cfi_def_cfa 2, 16
 139 00a0 13010101 		addi	sp,sp,16
 140              		.cfi_def_cfa_offset 0
 141 00a4 67800000 		jr	ra
 142              		.cfi_endproc
 143              	.LFE35:
 145              		.align	2
 146              		.globl	_ZN10KSemaphore4waitEv
 148              	_ZN10KSemaphore4waitEv:
 149              	.LFB28:
  14:src/KSemaphore.cpp ****     if(--val < 0)
 150              		.loc 1 14 27 is_stmt 1
 151              		.cfi_startproc
 152              	.LVL7:
  15:src/KSemaphore.cpp ****         block();
 153              		.loc 1 15 5
  15:src/KSemaphore.cpp ****         block();
 154              		.loc 1 15 10 is_stmt 0
 155 00a8 83270501 		lw	a5,16(a0)
  15:src/KSemaphore.cpp ****         block();
 156              		.loc 1 15 8
 157 00ac 9B87F7FF 		addiw	a5,a5,-1
  15:src/KSemaphore.cpp ****         block();
 158              		.loc 1 15 14
 159 00b0 2328F500 		sw	a5,16(a0)
  15:src/KSemaphore.cpp ****         block();
 160              		.loc 1 15 5
 161 00b4 13970702 		slli	a4,a5,32
 162 00b8 63460700 		bltz	a4,.L16
  18:src/KSemaphore.cpp **** }
 163              		.loc 1 18 5 is_stmt 1
  19:src/KSemaphore.cpp **** 
 164              		.loc 1 19 1 is_stmt 0
 165 00bc 13050000 		li	a0,0
 166              	.LVL8:
 167 00c0 67800000 		ret
 168              	.LVL9:
GAS LISTING /tmp/ccXPOJvR.s 			page 6


 169              	.L16:
  14:src/KSemaphore.cpp ****     if(--val < 0)
 170              		.loc 1 14 27
 171 00c4 130101FF 		addi	sp,sp,-16
 172              		.cfi_def_cfa_offset 16
 173 00c8 23341100 		sd	ra,8(sp)
 174 00cc 23308100 		sd	s0,0(sp)
 175              		.cfi_offset 1, -8
 176              		.cfi_offset 8, -16
 177 00d0 13040101 		addi	s0,sp,16
 178              		.cfi_def_cfa 8, 0
  16:src/KSemaphore.cpp **** 
 179              		.loc 1 16 9 is_stmt 1
  16:src/KSemaphore.cpp **** 
 180              		.loc 1 16 14 is_stmt 0
 181 00d4 97000000 		call	_ZN10KSemaphore5blockEv
 181      E7800000 
 182              	.LVL10:
  18:src/KSemaphore.cpp **** }
 183              		.loc 1 18 5 is_stmt 1
  19:src/KSemaphore.cpp **** 
 184              		.loc 1 19 1 is_stmt 0
 185 00dc 13050000 		li	a0,0
 186 00e0 83308100 		ld	ra,8(sp)
 187              		.cfi_restore 1
 188 00e4 03340100 		ld	s0,0(sp)
 189              		.cfi_restore 8
 190              		.cfi_def_cfa 2, 16
 191 00e8 13010101 		addi	sp,sp,16
 192              		.cfi_def_cfa_offset 0
 193 00ec 67800000 		jr	ra
 194              		.cfi_endproc
 195              	.LFE28:
 197              		.align	2
 198              		.globl	_ZN10KSemaphore15getFirstBlockedEv
 200              	_ZN10KSemaphore15getFirstBlockedEv:
 201              	.LFB36:
  75:src/KSemaphore.cpp **** 
  76:src/KSemaphore.cpp **** PCB* KSemaphore::getFirstBlocked()
  77:src/KSemaphore.cpp **** {
 202              		.loc 1 77 1 is_stmt 1
 203              		.cfi_startproc
 204              	.LVL11:
 205 00f0 130101FF 		addi	sp,sp,-16
 206              		.cfi_def_cfa_offset 16
 207 00f4 23348100 		sd	s0,8(sp)
 208              		.cfi_offset 8, -8
 209 00f8 13040101 		addi	s0,sp,16
 210              		.cfi_def_cfa 8, 0
  78:src/KSemaphore.cpp ****    return headBlocked;
 211              		.loc 1 78 4
  79:src/KSemaphore.cpp **** }
 212              		.loc 1 79 1 is_stmt 0
 213 00fc 03350500 		ld	a0,0(a0)
 214              	.LVL12:
 215 0100 03348100 		ld	s0,8(sp)
 216              		.cfi_restore 8
GAS LISTING /tmp/ccXPOJvR.s 			page 7


 217              		.cfi_def_cfa 2, 16
 218 0104 13010101 		addi	sp,sp,16
 219              		.cfi_def_cfa_offset 0
 220 0108 67800000 		jr	ra
 221              		.cfi_endproc
 222              	.LFE36:
 224              		.align	2
 225              		.globl	_ZN10KSemaphore18removeFirstBlockedEv
 227              	_ZN10KSemaphore18removeFirstBlockedEv:
 228              	.LFB37:
  80:src/KSemaphore.cpp **** 
  81:src/KSemaphore.cpp **** void KSemaphore::removeFirstBlocked()
  82:src/KSemaphore.cpp **** {
 229              		.loc 1 82 1 is_stmt 1
 230              		.cfi_startproc
 231              	.LVL13:
 232 010c 130101FF 		addi	sp,sp,-16
 233              		.cfi_def_cfa_offset 16
 234 0110 23348100 		sd	s0,8(sp)
 235              		.cfi_offset 8, -8
 236 0114 13040101 		addi	s0,sp,16
 237              		.cfi_def_cfa 8, 0
  83:src/KSemaphore.cpp ****     if(headBlocked == 0)
 238              		.loc 1 83 5
 239              		.loc 1 83 8 is_stmt 0
 240 0118 83370500 		ld	a5,0(a0)
 241              		.loc 1 83 5
 242 011c 638C0700 		beqz	a5,.L19
  84:src/KSemaphore.cpp ****         return;
  85:src/KSemaphore.cpp ****     PCB* first = headBlocked;
 243              		.loc 1 85 5 is_stmt 1
 244              	.LVL14:
  86:src/KSemaphore.cpp ****     headBlocked = headBlocked->nextPCB;
 245              		.loc 1 86 5
 246              		.loc 1 86 32 is_stmt 0
 247 0120 03B78700 		ld	a4,8(a5)
 248              		.loc 1 86 17
 249 0124 2330E500 		sd	a4,0(a0)
  87:src/KSemaphore.cpp ****     first->nextPCB = 0;
 250              		.loc 1 87 5 is_stmt 1
 251              		.loc 1 87 20 is_stmt 0
 252 0128 23B40700 		sd	zero,8(a5)
  88:src/KSemaphore.cpp ****     if(headBlocked == 0)
 253              		.loc 1 88 5 is_stmt 1
 254              		.loc 1 88 8 is_stmt 0
 255 012c 83370500 		ld	a5,0(a0)
 256              	.LVL15:
 257              		.loc 1 88 5
 258 0130 63880700 		beqz	a5,.L22
 259              	.L19:
  89:src/KSemaphore.cpp ****         tailBlocked =0;
  90:src/KSemaphore.cpp **** }
 260              		.loc 1 90 1
 261 0134 03348100 		ld	s0,8(sp)
 262              		.cfi_remember_state
 263              		.cfi_restore 8
 264              		.cfi_def_cfa 2, 16
GAS LISTING /tmp/ccXPOJvR.s 			page 8


 265 0138 13010101 		addi	sp,sp,16
 266              		.cfi_def_cfa_offset 0
 267 013c 67800000 		jr	ra
 268              	.L22:
 269              		.cfi_restore_state
  89:src/KSemaphore.cpp ****         tailBlocked =0;
 270              		.loc 1 89 9 is_stmt 1
  89:src/KSemaphore.cpp ****         tailBlocked =0;
 271              		.loc 1 89 21 is_stmt 0
 272 0140 23340500 		sd	zero,8(a0)
 273 0144 6FF01FFF 		j	.L19
 274              		.cfi_endproc
 275              	.LFE37:
 277              		.align	2
 278              		.globl	_ZN10KSemaphoreD2Ev
 280              	_ZN10KSemaphoreD2Ev:
 281              	.LFB32:
  45:src/KSemaphore.cpp **** {
 282              		.loc 1 45 1 is_stmt 1
 283              		.cfi_startproc
 284              		.cfi_personality 0x9b,DW.ref.__gxx_personality_v0
 285              		.cfi_lsda 0x1b,.LLSDA32
 286              	.LVL16:
 287 0148 130101FE 		addi	sp,sp,-32
 288              		.cfi_def_cfa_offset 32
 289 014c 233C1100 		sd	ra,24(sp)
 290 0150 23388100 		sd	s0,16(sp)
 291 0154 23349100 		sd	s1,8(sp)
 292 0158 23302101 		sd	s2,0(sp)
 293              		.cfi_offset 1, -8
 294              		.cfi_offset 8, -16
 295              		.cfi_offset 9, -24
 296              		.cfi_offset 18, -32
 297 015c 13040102 		addi	s0,sp,32
 298              		.cfi_def_cfa 8, 0
 299 0160 13090500 		mv	s2,a0
 300              	.LVL17:
 301              	.L25:
 302              	.LBB7:
  47:src/KSemaphore.cpp ****     {
 303              		.loc 1 47 5
  47:src/KSemaphore.cpp ****     {
 304              		.loc 1 47 29
  47:src/KSemaphore.cpp ****     {
 305              		.loc 1 47 26 is_stmt 0
 306 0164 13050900 		mv	a0,s2
 307 0168 97000000 		call	_ZN10KSemaphore15getFirstBlockedEv
 307      E7800000 
 308              	.LVL18:
 309 0170 93040500 		mv	s1,a0
  47:src/KSemaphore.cpp ****     {
 310              		.loc 1 47 29
 311 0174 63000502 		beqz	a0,.L23
 312              	.LBB8:
  49:src/KSemaphore.cpp ****         removeFirstBlocked();
 313              		.loc 1 49 9 is_stmt 1
 314              	.LVL19:
GAS LISTING /tmp/ccXPOJvR.s 			page 9


  50:src/KSemaphore.cpp ****         Scheduler::put(pcb);
 315              		.loc 1 50 9
  50:src/KSemaphore.cpp ****         Scheduler::put(pcb);
 316              		.loc 1 50 27 is_stmt 0
 317 0178 13050900 		mv	a0,s2
 318 017c 97000000 		call	_ZN10KSemaphore18removeFirstBlockedEv
 318      E7800000 
 319              	.LVL20:
  51:src/KSemaphore.cpp ****     }
 320              		.loc 1 51 9 is_stmt 1
  51:src/KSemaphore.cpp ****     }
 321              		.loc 1 51 23 is_stmt 0
 322 0184 13850400 		mv	a0,s1
 323 0188 97000000 		call	_ZN9Scheduler3putEP3PCB@plt
 323      E7800000 
 324              	.LVL21:
 325              	.LBE8:
  47:src/KSemaphore.cpp ****     {
 326              		.loc 1 47 5
 327 0190 6FF05FFD 		j	.L25
 328              	.LVL22:
 329              	.L23:
 330              	.LBE7:
  53:src/KSemaphore.cpp **** 
 331              		.loc 1 53 1
 332 0194 83308101 		ld	ra,24(sp)
 333              		.cfi_restore 1
 334 0198 03340101 		ld	s0,16(sp)
 335              		.cfi_restore 8
 336              		.cfi_def_cfa 2, 32
 337 019c 83348100 		ld	s1,8(sp)
 338              		.cfi_restore 9
 339 01a0 03390100 		ld	s2,0(sp)
 340              		.cfi_restore 18
 341              	.LVL23:
 342 01a4 13010102 		addi	sp,sp,32
 343              		.cfi_def_cfa_offset 0
 344 01a8 67800000 		jr	ra
 345              		.cfi_endproc
 346              	.LFE32:
 347              		.globl	__gxx_personality_v0
 348              		.section	.gcc_except_table,"a",@progbits
 349              	.LLSDA32:
 350 0000 FF       		.byte	0xff
 351 0001 FF       		.byte	0xff
 352 0002 03       		.byte	0x3
 353 0003 00       		.byte	0
 354              		.text
 356              		.globl	_ZN10KSemaphoreD1Ev
 357              		.set	_ZN10KSemaphoreD1Ev,_ZN10KSemaphoreD2Ev
 358              		.align	2
 359              		.globl	_ZN10KSemaphore7unblockEv
 361              	_ZN10KSemaphore7unblockEv:
 362              	.LFB38:
  91:src/KSemaphore.cpp **** 
  92:src/KSemaphore.cpp **** void KSemaphore::unblock() {
 363              		.loc 1 92 28 is_stmt 1
GAS LISTING /tmp/ccXPOJvR.s 			page 10


 364              		.cfi_startproc
 365              	.LVL24:
 366 01ac 130101FE 		addi	sp,sp,-32
 367              		.cfi_def_cfa_offset 32
 368 01b0 233C1100 		sd	ra,24(sp)
 369 01b4 23388100 		sd	s0,16(sp)
 370 01b8 23349100 		sd	s1,8(sp)
 371 01bc 23302101 		sd	s2,0(sp)
 372              		.cfi_offset 1, -8
 373              		.cfi_offset 8, -16
 374              		.cfi_offset 9, -24
 375              		.cfi_offset 18, -32
 376 01c0 13040102 		addi	s0,sp,32
 377              		.cfi_def_cfa 8, 0
 378 01c4 13090500 		mv	s2,a0
  93:src/KSemaphore.cpp ****     PCB* fr = getFirstBlocked();
 379              		.loc 1 93 5
 380              		.loc 1 93 30 is_stmt 0
 381 01c8 97000000 		call	_ZN10KSemaphore15getFirstBlockedEv
 381      E7800000 
 382              	.LVL25:
 383 01d0 93040500 		mv	s1,a0
 384              	.LVL26:
  94:src/KSemaphore.cpp ****     removeFirstBlocked();
 385              		.loc 1 94 5 is_stmt 1
 386              		.loc 1 94 23 is_stmt 0
 387 01d4 13050900 		mv	a0,s2
 388 01d8 97000000 		call	_ZN10KSemaphore18removeFirstBlockedEv
 388      E7800000 
 389              	.LVL27:
  95:src/KSemaphore.cpp ****     if(fr != 0)
 390              		.loc 1 95 5 is_stmt 1
 391 01e0 63880400 		beqz	s1,.L27
  96:src/KSemaphore.cpp ****     {
  97:src/KSemaphore.cpp ****         //Riscv::printString("Unblocked thread\n");
  98:src/KSemaphore.cpp ****         Scheduler::put(fr);
 392              		.loc 1 98 9
 393              		.loc 1 98 23 is_stmt 0
 394 01e4 13850400 		mv	a0,s1
 395 01e8 97000000 		call	_ZN9Scheduler3putEP3PCB@plt
 395      E7800000 
 396              	.LVL28:
 397              	.L27:
  99:src/KSemaphore.cpp ****     }
 100:src/KSemaphore.cpp **** }
 398              		.loc 1 100 1
 399 01f0 83308101 		ld	ra,24(sp)
 400              		.cfi_restore 1
 401 01f4 03340101 		ld	s0,16(sp)
 402              		.cfi_restore 8
 403              		.cfi_def_cfa 2, 32
 404 01f8 83348100 		ld	s1,8(sp)
 405              		.cfi_restore 9
 406              	.LVL29:
 407 01fc 03390100 		ld	s2,0(sp)
 408              		.cfi_restore 18
 409              	.LVL30:
GAS LISTING /tmp/ccXPOJvR.s 			page 11


 410 0200 13010102 		addi	sp,sp,32
 411              		.cfi_def_cfa_offset 0
 412 0204 67800000 		jr	ra
 413              		.cfi_endproc
 414              	.LFE38:
 416              		.align	2
 417              		.globl	_ZN10KSemaphore6signalEv
 419              	_ZN10KSemaphore6signalEv:
 420              	.LFB29:
  21:src/KSemaphore.cpp ****     if(++val <= 0)
 421              		.loc 1 21 29 is_stmt 1
 422              		.cfi_startproc
 423              	.LVL31:
  22:src/KSemaphore.cpp ****         unblock();
 424              		.loc 1 22 5
  22:src/KSemaphore.cpp ****         unblock();
 425              		.loc 1 22 10 is_stmt 0
 426 0208 83270501 		lw	a5,16(a0)
  22:src/KSemaphore.cpp ****         unblock();
 427              		.loc 1 22 8
 428 020c 9B871700 		addiw	a5,a5,1
 429 0210 1B870700 		sext.w	a4,a5
  22:src/KSemaphore.cpp ****         unblock();
 430              		.loc 1 22 14
 431 0214 2328F500 		sw	a5,16(a0)
  22:src/KSemaphore.cpp ****         unblock();
 432              		.loc 1 22 5
 433 0218 6356E000 		blez	a4,.L36
  25:src/KSemaphore.cpp **** }
 434              		.loc 1 25 5 is_stmt 1
  26:src/KSemaphore.cpp **** 
 435              		.loc 1 26 1 is_stmt 0
 436 021c 13050000 		li	a0,0
 437              	.LVL32:
 438 0220 67800000 		ret
 439              	.LVL33:
 440              	.L36:
  21:src/KSemaphore.cpp ****     if(++val <= 0)
 441              		.loc 1 21 29
 442 0224 130101FF 		addi	sp,sp,-16
 443              		.cfi_def_cfa_offset 16
 444 0228 23341100 		sd	ra,8(sp)
 445 022c 23308100 		sd	s0,0(sp)
 446              		.cfi_offset 1, -8
 447              		.cfi_offset 8, -16
 448 0230 13040101 		addi	s0,sp,16
 449              		.cfi_def_cfa 8, 0
  23:src/KSemaphore.cpp **** 
 450              		.loc 1 23 9 is_stmt 1
  23:src/KSemaphore.cpp **** 
 451              		.loc 1 23 16 is_stmt 0
 452 0234 97000000 		call	_ZN10KSemaphore7unblockEv
 452      E7800000 
 453              	.LVL34:
  25:src/KSemaphore.cpp **** }
 454              		.loc 1 25 5 is_stmt 1
  26:src/KSemaphore.cpp **** 
GAS LISTING /tmp/ccXPOJvR.s 			page 12


 455              		.loc 1 26 1 is_stmt 0
 456 023c 13050000 		li	a0,0
 457 0240 83308100 		ld	ra,8(sp)
 458              		.cfi_restore 1
 459 0244 03340100 		ld	s0,0(sp)
 460              		.cfi_restore 8
 461              		.cfi_def_cfa 2, 16
 462 0248 13010101 		addi	sp,sp,16
 463              		.cfi_def_cfa_offset 0
 464 024c 67800000 		jr	ra
 465              		.cfi_endproc
 466              	.LFE29:
 468              		.align	2
 469              		.globl	_ZN10KSemaphorenwEm
 471              	_ZN10KSemaphorenwEm:
 472              	.LFB39:
 101:src/KSemaphore.cpp **** void *KSemaphore::operator new(size_t size) {
 473              		.loc 1 101 45 is_stmt 1
 474              		.cfi_startproc
 475              	.LVL35:
 476 0250 130101FF 		addi	sp,sp,-16
 477              		.cfi_def_cfa_offset 16
 478 0254 23341100 		sd	ra,8(sp)
 479 0258 23308100 		sd	s0,0(sp)
 480              		.cfi_offset 1, -8
 481              		.cfi_offset 8, -16
 482 025c 13040101 		addi	s0,sp,16
 483              		.cfi_def_cfa 8, 0
 102:src/KSemaphore.cpp ****     return MemoryAllocator::kmalloc(size);
 484              		.loc 1 102 5
 485              		.loc 1 102 36 is_stmt 0
 486 0260 97000000 		call	_ZN15MemoryAllocator7kmallocEm@plt
 486      E7800000 
 487              	.LVL36:
 103:src/KSemaphore.cpp **** }
 488              		.loc 1 103 1
 489 0268 83308100 		ld	ra,8(sp)
 490              		.cfi_restore 1
 491 026c 03340100 		ld	s0,0(sp)
 492              		.cfi_restore 8
 493              		.cfi_def_cfa 2, 16
 494 0270 13010101 		addi	sp,sp,16
 495              		.cfi_def_cfa_offset 0
 496 0274 67800000 		jr	ra
 497              		.cfi_endproc
 498              	.LFE39:
 500              		.align	2
 501              		.globl	_ZN10KSemaphore14semOpenHandlerEv
 503              	_ZN10KSemaphore14semOpenHandlerEv:
 504              	.LFB30:
  29:src/KSemaphore.cpp ****     uint64 val;
 505              		.loc 1 29 1 is_stmt 1
 506              		.cfi_startproc
 507 0278 130101FD 		addi	sp,sp,-48
 508              		.cfi_def_cfa_offset 48
 509 027c 23341102 		sd	ra,40(sp)
 510 0280 23308102 		sd	s0,32(sp)
GAS LISTING /tmp/ccXPOJvR.s 			page 13


 511 0284 233C9100 		sd	s1,24(sp)
 512 0288 23382101 		sd	s2,16(sp)
 513 028c 23343101 		sd	s3,8(sp)
 514              		.cfi_offset 1, -8
 515              		.cfi_offset 8, -16
 516              		.cfi_offset 9, -24
 517              		.cfi_offset 18, -32
 518              		.cfi_offset 19, -40
 519 0290 13040103 		addi	s0,sp,48
 520              		.cfi_def_cfa 8, 0
  30:src/KSemaphore.cpp ****     KSemaphore** semaphoreHandle;
 521              		.loc 1 30 5
  31:src/KSemaphore.cpp ****     __asm__ volatile("mv %0, a1" : "=r"(semaphoreHandle));
 522              		.loc 1 31 5
  32:src/KSemaphore.cpp ****     __asm__ volatile("mv %0, a2" : "=r"(val));
 523              		.loc 1 32 5
  32:src/KSemaphore.cpp ****     __asm__ volatile("mv %0, a2" : "=r"(val));
 524              		.loc 1 32 58 is_stmt 0
 525              	#APP
 526              	# 32 "src/KSemaphore.cpp" 1
 527              		mv s2, a1
 528              	# 0 "" 2
 529              	.LVL37:
  33:src/KSemaphore.cpp **** 
 530              		.loc 1 33 5 is_stmt 1
  33:src/KSemaphore.cpp **** 
 531              		.loc 1 33 46 is_stmt 0
 532              	# 33 "src/KSemaphore.cpp" 1
 533              		mv s3, a2
 534              	# 0 "" 2
 535              	.LVL38:
  35:src/KSemaphore.cpp **** 
 536              		.loc 1 35 5 is_stmt 1
  35:src/KSemaphore.cpp **** 
 537              		.loc 1 35 44 is_stmt 0
 538              	#NO_APP
 539 029c 13058001 		li	a0,24
 540 02a0 97000000 		call	_ZN10KSemaphorenwEm
 540      E7800000 
 541              	.LVL39:
 542 02a8 93040500 		mv	s1,a0
 543 02ac 9B850900 		sext.w	a1,s3
 544 02b0 97000000 		call	_ZN10KSemaphoreC1Ei
 544      E7800000 
 545              	.LVL40:
  37:src/KSemaphore.cpp **** 
 546              		.loc 1 37 5 is_stmt 1
  37:src/KSemaphore.cpp **** 
 547              		.loc 1 37 24 is_stmt 0
 548 02b8 23309900 		sd	s1,0(s2)
  39:src/KSemaphore.cpp ****             __asm__ volatile("li a0, 0xffffffffffffffff");
 549              		.loc 1 39 5 is_stmt 1
 550 02bc 63820402 		beqz	s1,.L43
  42:src/KSemaphore.cpp **** }
 551              		.loc 1 42 13
  42:src/KSemaphore.cpp **** }
 552              		.loc 1 42 41 is_stmt 0
GAS LISTING /tmp/ccXPOJvR.s 			page 14


 553              	#APP
 554              	# 42 "src/KSemaphore.cpp" 1
 555              		li a0, 0
 556              	# 0 "" 2
 557              	#NO_APP
 558              	.L39:
  43:src/KSemaphore.cpp **** 
 559              		.loc 1 43 1
 560 02c4 83308102 		ld	ra,40(sp)
 561              		.cfi_remember_state
 562              		.cfi_restore 1
 563 02c8 03340102 		ld	s0,32(sp)
 564              		.cfi_restore 8
 565              		.cfi_def_cfa 2, 48
 566 02cc 83348101 		ld	s1,24(sp)
 567              		.cfi_restore 9
 568              	.LVL41:
 569 02d0 03390101 		ld	s2,16(sp)
 570              		.cfi_restore 18
 571              	.LVL42:
 572 02d4 83398100 		ld	s3,8(sp)
 573              		.cfi_restore 19
 574              	.LVL43:
 575 02d8 13010103 		addi	sp,sp,48
 576              		.cfi_def_cfa_offset 0
 577 02dc 67800000 		jr	ra
 578              	.LVL44:
 579              	.L43:
 580              		.cfi_restore_state
  40:src/KSemaphore.cpp ****     else
 581              		.loc 1 40 13 is_stmt 1
  40:src/KSemaphore.cpp ****     else
 582              		.loc 1 40 58 is_stmt 0
 583              	#APP
 584              	# 40 "src/KSemaphore.cpp" 1
 585              		li a0, 0xffffffffffffffff
 586              	# 0 "" 2
 587              	#NO_APP
 588 02e4 6FF01FFE 		j	.L39
 589              		.cfi_endproc
 590              	.LFE30:
 592              		.align	2
 593              		.globl	_ZN10KSemaphoredlEPv
 595              	_ZN10KSemaphoredlEPv:
 596              	.LFB40:
 104:src/KSemaphore.cpp **** 
 105:src/KSemaphore.cpp **** void KSemaphore::operator delete(void *p)
 106:src/KSemaphore.cpp **** {
 597              		.loc 1 106 1 is_stmt 1
 598              		.cfi_startproc
 599              	.LVL45:
 600 02e8 130101FF 		addi	sp,sp,-16
 601              		.cfi_def_cfa_offset 16
 602 02ec 23341100 		sd	ra,8(sp)
 603 02f0 23308100 		sd	s0,0(sp)
 604              		.cfi_offset 1, -8
 605              		.cfi_offset 8, -16
GAS LISTING /tmp/ccXPOJvR.s 			page 15


 606 02f4 13040101 		addi	s0,sp,16
 607              		.cfi_def_cfa 8, 0
 107:src/KSemaphore.cpp ****     MemoryAllocator::kfree(p);
 608              		.loc 1 107 5
 609              		.loc 1 107 27 is_stmt 0
 610 02f8 97000000 		call	_ZN15MemoryAllocator5kfreeEPv@plt
 610      E7800000 
 611              	.LVL46:
 108:src/KSemaphore.cpp **** }
 612              		.loc 1 108 1
 613 0300 83308100 		ld	ra,8(sp)
 614              		.cfi_restore 1
 615 0304 03340100 		ld	s0,0(sp)
 616              		.cfi_restore 8
 617              		.cfi_def_cfa 2, 16
 618 0308 13010101 		addi	sp,sp,16
 619              		.cfi_def_cfa_offset 0
 620 030c 67800000 		jr	ra
 621              		.cfi_endproc
 622              	.LFE40:
 624              		.align	2
 625              		.globl	_ZN10KSemaphore14semWaitHandlerEv
 627              	_ZN10KSemaphore14semWaitHandlerEv:
 628              	.LFB41:
 109:src/KSemaphore.cpp **** 
 110:src/KSemaphore.cpp **** void KSemaphore::semWaitHandler()
 111:src/KSemaphore.cpp **** {
 629              		.loc 1 111 1 is_stmt 1
 630              		.cfi_startproc
 631 0310 130101FE 		addi	sp,sp,-32
 632              		.cfi_def_cfa_offset 32
 633 0314 233C1100 		sd	ra,24(sp)
 634 0318 23388100 		sd	s0,16(sp)
 635              		.cfi_offset 1, -8
 636              		.cfi_offset 8, -16
 637 031c 13040102 		addi	s0,sp,32
 638              		.cfi_def_cfa 8, 0
 112:src/KSemaphore.cpp ****     KSemaphore* kSem;
 639              		.loc 1 112 5
 113:src/KSemaphore.cpp ****     __asm__ volatile("mv %0, a1" : "=r"(kSem));
 640              		.loc 1 113 5
 641              		.loc 1 113 47 is_stmt 0
 642              	#APP
 643              	# 113 "src/KSemaphore.cpp" 1
 114              	    uint64 volatile retval = kSem->wait();
 644              		mv a0, a1
 645              	# 0 "" 2
 646              	.LVL47:
 647              		.loc 1 114 5 is_stmt 1
 648              		.loc 1 114 40 is_stmt 0
 649              	#NO_APP
 650 0324 97000000 		call	_ZN10KSemaphore4waitEv
 650      E7800000 
 651              	.LVL48:
 652              		.loc 1 114 41
 653 032c 2334A4FE 		sd	a0,-24(s0)
 115:src/KSemaphore.cpp ****     __asm__ volatile("mv a0,%0" : :"r"(retval));
GAS LISTING /tmp/ccXPOJvR.s 			page 16


 654              		.loc 1 115 5 is_stmt 1
 655              		.loc 1 115 40 is_stmt 0
 656 0330 833784FE 		ld	a5,-24(s0)
 657              		.loc 1 115 48
 658              	#APP
 659              	# 115 "src/KSemaphore.cpp" 1
 116              	    Riscv::w_a0_sscratch();
 660              		mv a0,a5
 661              	# 0 "" 2
 662              		.loc 1 116 5 is_stmt 1
 663              		.loc 1 116 25 is_stmt 0
 664              	#NO_APP
 665 0338 97000000 		call	_ZN5Riscv13w_a0_sscratchEv@plt
 665      E7800000 
 666              	.LVL49:
 117:src/KSemaphore.cpp **** }
 667              		.loc 1 117 1
 668 0340 83308101 		ld	ra,24(sp)
 669              		.cfi_restore 1
 670 0344 03340101 		ld	s0,16(sp)
 671              		.cfi_restore 8
 672              		.cfi_def_cfa 2, 32
 673 0348 13010102 		addi	sp,sp,32
 674              		.cfi_def_cfa_offset 0
 675 034c 67800000 		jr	ra
 676              		.cfi_endproc
 677              	.LFE41:
 679              		.align	2
 680              		.globl	_ZN10KSemaphore16semSignalHandlerEv
 682              	_ZN10KSemaphore16semSignalHandlerEv:
 683              	.LFB42:
 118:src/KSemaphore.cpp **** 
 119:src/KSemaphore.cpp **** void KSemaphore::semSignalHandler()
 120:src/KSemaphore.cpp **** {
 684              		.loc 1 120 1 is_stmt 1
 685              		.cfi_startproc
 686 0350 130101FE 		addi	sp,sp,-32
 687              		.cfi_def_cfa_offset 32
 688 0354 233C1100 		sd	ra,24(sp)
 689 0358 23388100 		sd	s0,16(sp)
 690              		.cfi_offset 1, -8
 691              		.cfi_offset 8, -16
 692 035c 13040102 		addi	s0,sp,32
 693              		.cfi_def_cfa 8, 0
 121:src/KSemaphore.cpp ****     KSemaphore* kSem;
 694              		.loc 1 121 5
 122:src/KSemaphore.cpp ****     __asm__ volatile("mv %0, a1" : "=r"(kSem));
 695              		.loc 1 122 5
 696              		.loc 1 122 47 is_stmt 0
 697              	#APP
 698              	# 122 "src/KSemaphore.cpp" 1
 123              	    uint64 volatile retval = kSem->signal();
 699              		mv a0, a1
 700              	# 0 "" 2
 701              	.LVL50:
 702              		.loc 1 123 5 is_stmt 1
 703              		.loc 1 123 42 is_stmt 0
GAS LISTING /tmp/ccXPOJvR.s 			page 17


 704              	#NO_APP
 705 0364 97000000 		call	_ZN10KSemaphore6signalEv
 705      E7800000 
 706              	.LVL51:
 707              		.loc 1 123 43
 708 036c 2334A4FE 		sd	a0,-24(s0)
 124:src/KSemaphore.cpp ****     __asm__ volatile("mv a0,%0" : :"r"(retval));
 709              		.loc 1 124 5 is_stmt 1
 710              		.loc 1 124 40 is_stmt 0
 711 0370 833784FE 		ld	a5,-24(s0)
 712              		.loc 1 124 48
 713              	#APP
 714              	# 124 "src/KSemaphore.cpp" 1
 125              	    Riscv::w_a0_sscratch();
 715              		mv a0,a5
 716              	# 0 "" 2
 717              		.loc 1 125 5 is_stmt 1
 718              		.loc 1 125 25 is_stmt 0
 719              	#NO_APP
 720 0378 97000000 		call	_ZN5Riscv13w_a0_sscratchEv@plt
 720      E7800000 
 721              	.LVL52:
 126:src/KSemaphore.cpp **** }
 722              		.loc 1 126 1
 723 0380 83308101 		ld	ra,24(sp)
 724              		.cfi_restore 1
 725 0384 03340101 		ld	s0,16(sp)
 726              		.cfi_restore 8
 727              		.cfi_def_cfa 2, 32
 728 0388 13010102 		addi	sp,sp,32
 729              		.cfi_def_cfa_offset 0
 730 038c 67800000 		jr	ra
 731              		.cfi_endproc
 732              	.LFE42:
 734              		.align	2
 735              		.globl	_ZN10KSemaphore15semCloseHandlerEv
 737              	_ZN10KSemaphore15semCloseHandlerEv:
 738              	.LFB43:
 127:src/KSemaphore.cpp **** 
 128:src/KSemaphore.cpp **** void KSemaphore::semCloseHandler()
 129:src/KSemaphore.cpp **** {
 739              		.loc 1 129 1 is_stmt 1
 740              		.cfi_startproc
 741 0390 130101FE 		addi	sp,sp,-32
 742              		.cfi_def_cfa_offset 32
 743 0394 233C1100 		sd	ra,24(sp)
 744 0398 23388100 		sd	s0,16(sp)
 745 039c 23349100 		sd	s1,8(sp)
 746              		.cfi_offset 1, -8
 747              		.cfi_offset 8, -16
 748              		.cfi_offset 9, -24
 749 03a0 13040102 		addi	s0,sp,32
 750              		.cfi_def_cfa 8, 0
 130:src/KSemaphore.cpp ****     KSemaphore* kSem;
 751              		.loc 1 130 5
 131:src/KSemaphore.cpp ****     __asm__ volatile("mv %0, a1" : "=r"(kSem));
 752              		.loc 1 131 5
GAS LISTING /tmp/ccXPOJvR.s 			page 18


 753              		.loc 1 131 47 is_stmt 0
 754              	#APP
 755              	# 131 "src/KSemaphore.cpp" 1
 132              	    delete kSem;
 756              		mv s1, a1
 757              	# 0 "" 2
 758              	.LVL53:
 759              		.loc 1 132 5 is_stmt 1
 760              		.loc 1 132 16 is_stmt 0
 761              	#NO_APP
 762 03a8 638E0400 		beqz	s1,.L51
 763              		.loc 1 132 12 discriminator 1
 764 03ac 13850400 		mv	a0,s1
 765 03b0 97000000 		call	_ZN10KSemaphoreD1Ev
 765      E7800000 
 766              	.LVL54:
 767 03b8 13850400 		mv	a0,s1
 768 03bc 97000000 		call	_ZN10KSemaphoredlEPv
 768      E7800000 
 769              	.LVL55:
 770              	.L51:
 133:src/KSemaphore.cpp ****     __asm__ volatile("li a0, 0");
 771              		.loc 1 133 5 is_stmt 1
 772              		.loc 1 133 33 is_stmt 0
 773              	#APP
 774              	# 133 "src/KSemaphore.cpp" 1
 134              	    Riscv::w_a0_sscratch();
 775              		li a0, 0
 776              	# 0 "" 2
 777              		.loc 1 134 5 is_stmt 1
 778              		.loc 1 134 25 is_stmt 0
 779              	#NO_APP
 780 03c8 97000000 		call	_ZN5Riscv13w_a0_sscratchEv@plt
 780      E7800000 
 781              	.LVL56:
 135:src/KSemaphore.cpp **** }
 782              		.loc 1 135 1
 783 03d0 83308101 		ld	ra,24(sp)
 784              		.cfi_restore 1
 785 03d4 03340101 		ld	s0,16(sp)
 786              		.cfi_restore 8
 787              		.cfi_def_cfa 2, 32
 788 03d8 83348100 		ld	s1,8(sp)
 789              		.cfi_restore 9
 790              	.LVL57:
 791 03dc 13010102 		addi	sp,sp,32
 792              		.cfi_def_cfa_offset 0
 793 03e0 67800000 		jr	ra
 794              		.cfi_endproc
 795              	.LFE43:
 797              	.Letext0:
 798              		.file 3 "src/../h/../lib/hw.h"
 799              		.file 4 "src/../h/MemoryAllocator.hpp"
 800              		.file 5 "src/../h/Scheduler.hpp"
 801              		.file 6 "src/../h/Riscv.hpp"
 802              		.file 7 "src/../h/KSemaphore.hpp"
 4631              		.align	3
GAS LISTING /tmp/ccXPOJvR.s 			page 19


 4634              	DW.ref.__gxx_personality_v0:
 4635 0000 00000000 		.dword	__gxx_personality_v0
 4635      00000000 
 4636              		.ident	"GCC: (Ubuntu 9.3.0-17ubuntu1~20.04) 9.3.0"
 4637              		.section	.note.GNU-stack,"",@progbits
GAS LISTING /tmp/ccXPOJvR.s 			page 20


DEFINED SYMBOLS
                            *ABS*:0000000000000000 KSemaphore.cpp
     /tmp/ccXPOJvR.s:9      .text:0000000000000000 _ZN10KSemaphoreC2Ei
     /tmp/ccXPOJvR.s:13     .text:0000000000000000 .L0 
     /tmp/ccXPOJvR.s:15     .text:0000000000000000 .L0 
     /tmp/ccXPOJvR.s:16     .text:0000000000000004 .L0 
     /tmp/ccXPOJvR.s:18     .text:0000000000000008 .L0 
     /tmp/ccXPOJvR.s:20     .text:000000000000000c .L0 
     /tmp/ccXPOJvR.s:23     .text:000000000000000c .L0 
     /tmp/ccXPOJvR.s:24     .text:000000000000000c .L0 
     /tmp/ccXPOJvR.s:26     .text:0000000000000010 .L0 
     /tmp/ccXPOJvR.s:28     .text:0000000000000014 .L0 
     /tmp/ccXPOJvR.s:29     .text:0000000000000014 .L0 
     /tmp/ccXPOJvR.s:31     .text:0000000000000018 .L0 
     /tmp/ccXPOJvR.s:34     .text:000000000000001c .L0 
     /tmp/ccXPOJvR.s:35     .text:0000000000000020 .L0 
     /tmp/ccXPOJvR.s:36     .text:0000000000000020 .L0 
     /tmp/ccXPOJvR.s:38     .text:0000000000000024 .L0 
     /tmp/ccXPOJvR.s:40     .text:0000000000000028 .L0 
     /tmp/ccXPOJvR.s:9      .text:0000000000000000 _ZN10KSemaphoreC1Ei
     /tmp/ccXPOJvR.s:48     .text:0000000000000028 _ZN10KSemaphore12addToBlockedEP3PCB
     /tmp/ccXPOJvR.s:51     .text:0000000000000028 .L0 
     /tmp/ccXPOJvR.s:53     .text:0000000000000028 .L0 
     /tmp/ccXPOJvR.s:54     .text:000000000000002c .L0 
     /tmp/ccXPOJvR.s:56     .text:0000000000000030 .L0 
     /tmp/ccXPOJvR.s:58     .text:0000000000000034 .L0 
     /tmp/ccXPOJvR.s:60     .text:0000000000000034 .L0 
     /tmp/ccXPOJvR.s:61     .text:0000000000000034 .L0 
     /tmp/ccXPOJvR.s:63     .text:0000000000000038 .L0 
     /tmp/ccXPOJvR.s:64     .text:0000000000000038 .L0 
     /tmp/ccXPOJvR.s:66     .text:000000000000003c .L0 
     /tmp/ccXPOJvR.s:68     .text:0000000000000040 .L0 
     /tmp/ccXPOJvR.s:70     .text:0000000000000044 .L0 
     /tmp/ccXPOJvR.s:72     .text:0000000000000048 .L0 
     /tmp/ccXPOJvR.s:73     .text:0000000000000048 .L0 
     /tmp/ccXPOJvR.s:76     .text:000000000000004c .L0 
     /tmp/ccXPOJvR.s:77     .text:0000000000000050 .L0 
     /tmp/ccXPOJvR.s:78     .text:0000000000000050 .L0 
     /tmp/ccXPOJvR.s:79     .text:0000000000000050 .L0 
     /tmp/ccXPOJvR.s:81     .text:0000000000000054 .L0 
     /tmp/ccXPOJvR.s:84     .text:0000000000000058 .L0 
     /tmp/ccXPOJvR.s:86     .text:0000000000000058 .L0 
     /tmp/ccXPOJvR.s:87     .text:0000000000000058 .L0 
     /tmp/ccXPOJvR.s:89     .text:000000000000005c .L0 
     /tmp/ccXPOJvR.s:91     .text:0000000000000064 .L0 
     /tmp/ccXPOJvR.s:97     .text:0000000000000064 _ZN10KSemaphore5blockEv
     /tmp/ccXPOJvR.s:100    .text:0000000000000064 .L0 
     /tmp/ccXPOJvR.s:102    .text:0000000000000064 .L0 
     /tmp/ccXPOJvR.s:103    .text:0000000000000068 .L0 
     /tmp/ccXPOJvR.s:106    .text:0000000000000070 .L0 
     /tmp/ccXPOJvR.s:107    .text:0000000000000070 .L0 
     /tmp/ccXPOJvR.s:109    .text:0000000000000074 .L0 
     /tmp/ccXPOJvR.s:111    .text:0000000000000074 .L0 
     /tmp/ccXPOJvR.s:112    .text:0000000000000074 .L0 
     /tmp/ccXPOJvR.s:119    .text:0000000000000080 .L0 
     /tmp/ccXPOJvR.s:120    .text:0000000000000080 .L0 
     /tmp/ccXPOJvR.s:126    .text:0000000000000088 .L0 
GAS LISTING /tmp/ccXPOJvR.s 			page 21


     /tmp/ccXPOJvR.s:127    .text:0000000000000088 .L0 
     /tmp/ccXPOJvR.s:130    .text:0000000000000090 .L0 
     /tmp/ccXPOJvR.s:131    .text:0000000000000090 .L0 
     /tmp/ccXPOJvR.s:134    .text:0000000000000098 .L0 
     /tmp/ccXPOJvR.s:135    .text:000000000000009c .L0 
     /tmp/ccXPOJvR.s:137    .text:00000000000000a0 .L0 
     /tmp/ccXPOJvR.s:138    .text:00000000000000a0 .L0 
     /tmp/ccXPOJvR.s:140    .text:00000000000000a4 .L0 
     /tmp/ccXPOJvR.s:142    .text:00000000000000a8 .L0 
     /tmp/ccXPOJvR.s:148    .text:00000000000000a8 _ZN10KSemaphore4waitEv
     /tmp/ccXPOJvR.s:151    .text:00000000000000a8 .L0 
     /tmp/ccXPOJvR.s:153    .text:00000000000000a8 .L0 
     /tmp/ccXPOJvR.s:154    .text:00000000000000a8 .L0 
     /tmp/ccXPOJvR.s:155    .text:00000000000000a8 .L0 
     /tmp/ccXPOJvR.s:157    .text:00000000000000ac .L0 
     /tmp/ccXPOJvR.s:159    .text:00000000000000b0 .L0 
     /tmp/ccXPOJvR.s:161    .text:00000000000000b4 .L0 
     /tmp/ccXPOJvR.s:164    .text:00000000000000bc .L0 
     /tmp/ccXPOJvR.s:165    .text:00000000000000bc .L0 
     /tmp/ccXPOJvR.s:171    .text:00000000000000c4 .L0 
     /tmp/ccXPOJvR.s:172    .text:00000000000000c8 .L0 
     /tmp/ccXPOJvR.s:175    .text:00000000000000d0 .L0 
     /tmp/ccXPOJvR.s:176    .text:00000000000000d0 .L0 
     /tmp/ccXPOJvR.s:178    .text:00000000000000d4 .L0 
     /tmp/ccXPOJvR.s:180    .text:00000000000000d4 .L0 
     /tmp/ccXPOJvR.s:181    .text:00000000000000d4 .L0 
     /tmp/ccXPOJvR.s:184    .text:00000000000000dc .L0 
     /tmp/ccXPOJvR.s:185    .text:00000000000000dc .L0 
     /tmp/ccXPOJvR.s:187    .text:00000000000000e4 .L0 
     /tmp/ccXPOJvR.s:189    .text:00000000000000e8 .L0 
     /tmp/ccXPOJvR.s:190    .text:00000000000000e8 .L0 
     /tmp/ccXPOJvR.s:192    .text:00000000000000ec .L0 
     /tmp/ccXPOJvR.s:194    .text:00000000000000f0 .L0 
     /tmp/ccXPOJvR.s:200    .text:00000000000000f0 _ZN10KSemaphore15getFirstBlockedEv
     /tmp/ccXPOJvR.s:203    .text:00000000000000f0 .L0 
     /tmp/ccXPOJvR.s:205    .text:00000000000000f0 .L0 
     /tmp/ccXPOJvR.s:206    .text:00000000000000f4 .L0 
     /tmp/ccXPOJvR.s:208    .text:00000000000000f8 .L0 
     /tmp/ccXPOJvR.s:210    .text:00000000000000fc .L0 
     /tmp/ccXPOJvR.s:212    .text:00000000000000fc .L0 
     /tmp/ccXPOJvR.s:213    .text:00000000000000fc .L0 
     /tmp/ccXPOJvR.s:216    .text:0000000000000104 .L0 
     /tmp/ccXPOJvR.s:217    .text:0000000000000104 .L0 
     /tmp/ccXPOJvR.s:219    .text:0000000000000108 .L0 
     /tmp/ccXPOJvR.s:221    .text:000000000000010c .L0 
     /tmp/ccXPOJvR.s:227    .text:000000000000010c _ZN10KSemaphore18removeFirstBlockedEv
     /tmp/ccXPOJvR.s:230    .text:000000000000010c .L0 
     /tmp/ccXPOJvR.s:232    .text:000000000000010c .L0 
     /tmp/ccXPOJvR.s:233    .text:0000000000000110 .L0 
     /tmp/ccXPOJvR.s:235    .text:0000000000000114 .L0 
     /tmp/ccXPOJvR.s:237    .text:0000000000000118 .L0 
     /tmp/ccXPOJvR.s:239    .text:0000000000000118 .L0 
     /tmp/ccXPOJvR.s:240    .text:0000000000000118 .L0 
     /tmp/ccXPOJvR.s:242    .text:000000000000011c .L0 
     /tmp/ccXPOJvR.s:245    .text:0000000000000120 .L0 
     /tmp/ccXPOJvR.s:246    .text:0000000000000120 .L0 
     /tmp/ccXPOJvR.s:247    .text:0000000000000120 .L0 
GAS LISTING /tmp/ccXPOJvR.s 			page 22


     /tmp/ccXPOJvR.s:249    .text:0000000000000124 .L0 
     /tmp/ccXPOJvR.s:251    .text:0000000000000128 .L0 
     /tmp/ccXPOJvR.s:252    .text:0000000000000128 .L0 
     /tmp/ccXPOJvR.s:254    .text:000000000000012c .L0 
     /tmp/ccXPOJvR.s:255    .text:000000000000012c .L0 
     /tmp/ccXPOJvR.s:258    .text:0000000000000130 .L0 
     /tmp/ccXPOJvR.s:261    .text:0000000000000134 .L0 
     /tmp/ccXPOJvR.s:262    .text:0000000000000138 .L0 
     /tmp/ccXPOJvR.s:263    .text:0000000000000138 .L0 
     /tmp/ccXPOJvR.s:264    .text:0000000000000138 .L0 
     /tmp/ccXPOJvR.s:266    .text:000000000000013c .L0 
     /tmp/ccXPOJvR.s:269    .text:0000000000000140 .L0 
     /tmp/ccXPOJvR.s:271    .text:0000000000000140 .L0 
     /tmp/ccXPOJvR.s:272    .text:0000000000000140 .L0 
     /tmp/ccXPOJvR.s:274    .text:0000000000000148 .L0 
     /tmp/ccXPOJvR.s:280    .text:0000000000000148 _ZN10KSemaphoreD2Ev
     /tmp/ccXPOJvR.s:283    .text:0000000000000148 .L0 
     /tmp/ccXPOJvR.s:4634   .data.rel.local.DW.ref.__gxx_personality_v0:0000000000000000 DW.ref.__gxx_personality_v0
     /tmp/ccXPOJvR.s:287    .text:0000000000000148 .L0 
     /tmp/ccXPOJvR.s:288    .text:000000000000014c .L0 
     /tmp/ccXPOJvR.s:293    .text:000000000000015c .L0 
     /tmp/ccXPOJvR.s:294    .text:000000000000015c .L0 
     /tmp/ccXPOJvR.s:295    .text:000000000000015c .L0 
     /tmp/ccXPOJvR.s:296    .text:000000000000015c .L0 
     /tmp/ccXPOJvR.s:298    .text:0000000000000160 .L0 
     /tmp/ccXPOJvR.s:304    .text:0000000000000164 .L0 
     /tmp/ccXPOJvR.s:305    .text:0000000000000164 .L0 
     /tmp/ccXPOJvR.s:306    .text:0000000000000164 .L0 
     /tmp/ccXPOJvR.s:311    .text:0000000000000174 .L0 
     /tmp/ccXPOJvR.s:315    .text:0000000000000178 .L0 
     /tmp/ccXPOJvR.s:316    .text:0000000000000178 .L0 
     /tmp/ccXPOJvR.s:317    .text:0000000000000178 .L0 
     /tmp/ccXPOJvR.s:321    .text:0000000000000184 .L0 
     /tmp/ccXPOJvR.s:322    .text:0000000000000184 .L0 
     /tmp/ccXPOJvR.s:327    .text:0000000000000190 .L0 
     /tmp/ccXPOJvR.s:332    .text:0000000000000194 .L0 
     /tmp/ccXPOJvR.s:333    .text:0000000000000198 .L0 
     /tmp/ccXPOJvR.s:335    .text:000000000000019c .L0 
     /tmp/ccXPOJvR.s:336    .text:000000000000019c .L0 
     /tmp/ccXPOJvR.s:338    .text:00000000000001a0 .L0 
     /tmp/ccXPOJvR.s:340    .text:00000000000001a4 .L0 
     /tmp/ccXPOJvR.s:343    .text:00000000000001a8 .L0 
     /tmp/ccXPOJvR.s:345    .text:00000000000001ac .L0 
     /tmp/ccXPOJvR.s:280    .text:0000000000000148 _ZN10KSemaphoreD1Ev
     /tmp/ccXPOJvR.s:361    .text:00000000000001ac _ZN10KSemaphore7unblockEv
     /tmp/ccXPOJvR.s:364    .text:00000000000001ac .L0 
     /tmp/ccXPOJvR.s:366    .text:00000000000001ac .L0 
     /tmp/ccXPOJvR.s:367    .text:00000000000001b0 .L0 
     /tmp/ccXPOJvR.s:372    .text:00000000000001c0 .L0 
     /tmp/ccXPOJvR.s:373    .text:00000000000001c0 .L0 
     /tmp/ccXPOJvR.s:374    .text:00000000000001c0 .L0 
     /tmp/ccXPOJvR.s:375    .text:00000000000001c0 .L0 
     /tmp/ccXPOJvR.s:377    .text:00000000000001c4 .L0 
     /tmp/ccXPOJvR.s:380    .text:00000000000001c8 .L0 
     /tmp/ccXPOJvR.s:381    .text:00000000000001c8 .L0 
     /tmp/ccXPOJvR.s:386    .text:00000000000001d4 .L0 
     /tmp/ccXPOJvR.s:387    .text:00000000000001d4 .L0 
GAS LISTING /tmp/ccXPOJvR.s 			page 23


     /tmp/ccXPOJvR.s:391    .text:00000000000001e0 .L0 
     /tmp/ccXPOJvR.s:393    .text:00000000000001e4 .L0 
     /tmp/ccXPOJvR.s:394    .text:00000000000001e4 .L0 
     /tmp/ccXPOJvR.s:399    .text:00000000000001f0 .L0 
     /tmp/ccXPOJvR.s:400    .text:00000000000001f4 .L0 
     /tmp/ccXPOJvR.s:402    .text:00000000000001f8 .L0 
     /tmp/ccXPOJvR.s:403    .text:00000000000001f8 .L0 
     /tmp/ccXPOJvR.s:405    .text:00000000000001fc .L0 
     /tmp/ccXPOJvR.s:408    .text:0000000000000200 .L0 
     /tmp/ccXPOJvR.s:411    .text:0000000000000204 .L0 
     /tmp/ccXPOJvR.s:413    .text:0000000000000208 .L0 
     /tmp/ccXPOJvR.s:419    .text:0000000000000208 _ZN10KSemaphore6signalEv
     /tmp/ccXPOJvR.s:422    .text:0000000000000208 .L0 
     /tmp/ccXPOJvR.s:424    .text:0000000000000208 .L0 
     /tmp/ccXPOJvR.s:425    .text:0000000000000208 .L0 
     /tmp/ccXPOJvR.s:426    .text:0000000000000208 .L0 
     /tmp/ccXPOJvR.s:428    .text:000000000000020c .L0 
     /tmp/ccXPOJvR.s:431    .text:0000000000000214 .L0 
     /tmp/ccXPOJvR.s:433    .text:0000000000000218 .L0 
     /tmp/ccXPOJvR.s:435    .text:000000000000021c .L0 
     /tmp/ccXPOJvR.s:436    .text:000000000000021c .L0 
     /tmp/ccXPOJvR.s:442    .text:0000000000000224 .L0 
     /tmp/ccXPOJvR.s:443    .text:0000000000000228 .L0 
     /tmp/ccXPOJvR.s:446    .text:0000000000000230 .L0 
     /tmp/ccXPOJvR.s:447    .text:0000000000000230 .L0 
     /tmp/ccXPOJvR.s:449    .text:0000000000000234 .L0 
     /tmp/ccXPOJvR.s:451    .text:0000000000000234 .L0 
     /tmp/ccXPOJvR.s:452    .text:0000000000000234 .L0 
     /tmp/ccXPOJvR.s:455    .text:000000000000023c .L0 
     /tmp/ccXPOJvR.s:456    .text:000000000000023c .L0 
     /tmp/ccXPOJvR.s:458    .text:0000000000000244 .L0 
     /tmp/ccXPOJvR.s:460    .text:0000000000000248 .L0 
     /tmp/ccXPOJvR.s:461    .text:0000000000000248 .L0 
     /tmp/ccXPOJvR.s:463    .text:000000000000024c .L0 
     /tmp/ccXPOJvR.s:465    .text:0000000000000250 .L0 
     /tmp/ccXPOJvR.s:471    .text:0000000000000250 _ZN10KSemaphorenwEm
     /tmp/ccXPOJvR.s:474    .text:0000000000000250 .L0 
     /tmp/ccXPOJvR.s:476    .text:0000000000000250 .L0 
     /tmp/ccXPOJvR.s:477    .text:0000000000000254 .L0 
     /tmp/ccXPOJvR.s:480    .text:000000000000025c .L0 
     /tmp/ccXPOJvR.s:481    .text:000000000000025c .L0 
     /tmp/ccXPOJvR.s:483    .text:0000000000000260 .L0 
     /tmp/ccXPOJvR.s:485    .text:0000000000000260 .L0 
     /tmp/ccXPOJvR.s:486    .text:0000000000000260 .L0 
     /tmp/ccXPOJvR.s:489    .text:0000000000000268 .L0 
     /tmp/ccXPOJvR.s:490    .text:000000000000026c .L0 
     /tmp/ccXPOJvR.s:492    .text:0000000000000270 .L0 
     /tmp/ccXPOJvR.s:493    .text:0000000000000270 .L0 
     /tmp/ccXPOJvR.s:495    .text:0000000000000274 .L0 
     /tmp/ccXPOJvR.s:497    .text:0000000000000278 .L0 
     /tmp/ccXPOJvR.s:503    .text:0000000000000278 _ZN10KSemaphore14semOpenHandlerEv
     /tmp/ccXPOJvR.s:506    .text:0000000000000278 .L0 
     /tmp/ccXPOJvR.s:507    .text:0000000000000278 .L0 
     /tmp/ccXPOJvR.s:508    .text:000000000000027c .L0 
     /tmp/ccXPOJvR.s:514    .text:0000000000000290 .L0 
     /tmp/ccXPOJvR.s:515    .text:0000000000000290 .L0 
     /tmp/ccXPOJvR.s:516    .text:0000000000000290 .L0 
GAS LISTING /tmp/ccXPOJvR.s 			page 24


     /tmp/ccXPOJvR.s:517    .text:0000000000000290 .L0 
     /tmp/ccXPOJvR.s:518    .text:0000000000000290 .L0 
     /tmp/ccXPOJvR.s:520    .text:0000000000000294 .L0 
     /tmp/ccXPOJvR.s:522    .text:0000000000000294 .L0 
     /tmp/ccXPOJvR.s:523    .text:0000000000000294 .L0 
     /tmp/ccXPOJvR.s:524    .text:0000000000000294 .L0 
  src/KSemaphore.cpp:32     .text:0000000000000294 .L0 
     /tmp/ccXPOJvR.s:531    .text:0000000000000298 .L0 
  src/KSemaphore.cpp:33     .text:0000000000000298 .L0 
     /tmp/ccXPOJvR.s:537    .text:000000000000029c .L0 
     /tmp/ccXPOJvR.s:539    .text:000000000000029c .L0 
     /tmp/ccXPOJvR.s:547    .text:00000000000002b8 .L0 
     /tmp/ccXPOJvR.s:548    .text:00000000000002b8 .L0 
     /tmp/ccXPOJvR.s:550    .text:00000000000002bc .L0 
     /tmp/ccXPOJvR.s:552    .text:00000000000002c0 .L0 
  src/KSemaphore.cpp:42     .text:00000000000002c0 .L0 
     /tmp/ccXPOJvR.s:560    .text:00000000000002c4 .L0 
     /tmp/ccXPOJvR.s:561    .text:00000000000002c8 .L0 
     /tmp/ccXPOJvR.s:562    .text:00000000000002c8 .L0 
     /tmp/ccXPOJvR.s:564    .text:00000000000002cc .L0 
     /tmp/ccXPOJvR.s:565    .text:00000000000002cc .L0 
     /tmp/ccXPOJvR.s:567    .text:00000000000002d0 .L0 
     /tmp/ccXPOJvR.s:570    .text:00000000000002d4 .L0 
     /tmp/ccXPOJvR.s:573    .text:00000000000002d8 .L0 
     /tmp/ccXPOJvR.s:576    .text:00000000000002dc .L0 
     /tmp/ccXPOJvR.s:580    .text:00000000000002e0 .L0 
     /tmp/ccXPOJvR.s:582    .text:00000000000002e0 .L0 
  src/KSemaphore.cpp:40     .text:00000000000002e0 .L0 
     /tmp/ccXPOJvR.s:589    .text:00000000000002e8 .L0 
     /tmp/ccXPOJvR.s:595    .text:00000000000002e8 _ZN10KSemaphoredlEPv
     /tmp/ccXPOJvR.s:598    .text:00000000000002e8 .L0 
     /tmp/ccXPOJvR.s:600    .text:00000000000002e8 .L0 
     /tmp/ccXPOJvR.s:601    .text:00000000000002ec .L0 
     /tmp/ccXPOJvR.s:604    .text:00000000000002f4 .L0 
     /tmp/ccXPOJvR.s:605    .text:00000000000002f4 .L0 
     /tmp/ccXPOJvR.s:607    .text:00000000000002f8 .L0 
     /tmp/ccXPOJvR.s:609    .text:00000000000002f8 .L0 
     /tmp/ccXPOJvR.s:610    .text:00000000000002f8 .L0 
     /tmp/ccXPOJvR.s:613    .text:0000000000000300 .L0 
     /tmp/ccXPOJvR.s:614    .text:0000000000000304 .L0 
     /tmp/ccXPOJvR.s:616    .text:0000000000000308 .L0 
     /tmp/ccXPOJvR.s:617    .text:0000000000000308 .L0 
     /tmp/ccXPOJvR.s:619    .text:000000000000030c .L0 
     /tmp/ccXPOJvR.s:621    .text:0000000000000310 .L0 
     /tmp/ccXPOJvR.s:627    .text:0000000000000310 _ZN10KSemaphore14semWaitHandlerEv
     /tmp/ccXPOJvR.s:630    .text:0000000000000310 .L0 
     /tmp/ccXPOJvR.s:631    .text:0000000000000310 .L0 
     /tmp/ccXPOJvR.s:632    .text:0000000000000314 .L0 
     /tmp/ccXPOJvR.s:635    .text:000000000000031c .L0 
     /tmp/ccXPOJvR.s:636    .text:000000000000031c .L0 
     /tmp/ccXPOJvR.s:638    .text:0000000000000320 .L0 
     /tmp/ccXPOJvR.s:640    .text:0000000000000320 .L0 
     /tmp/ccXPOJvR.s:641    .text:0000000000000320 .L0 
  src/KSemaphore.cpp:113    .text:0000000000000320 .L0 
     /tmp/ccXPOJvR.s:648    .text:0000000000000324 .L0 
     /tmp/ccXPOJvR.s:650    .text:0000000000000324 .L0 
     /tmp/ccXPOJvR.s:653    .text:000000000000032c .L0 
GAS LISTING /tmp/ccXPOJvR.s 			page 25


     /tmp/ccXPOJvR.s:655    .text:0000000000000330 .L0 
     /tmp/ccXPOJvR.s:656    .text:0000000000000330 .L0 
  src/KSemaphore.cpp:115    .text:0000000000000334 .L0 
     /tmp/ccXPOJvR.s:663    .text:0000000000000338 .L0 
     /tmp/ccXPOJvR.s:665    .text:0000000000000338 .L0 
     /tmp/ccXPOJvR.s:668    .text:0000000000000340 .L0 
     /tmp/ccXPOJvR.s:669    .text:0000000000000344 .L0 
     /tmp/ccXPOJvR.s:671    .text:0000000000000348 .L0 
     /tmp/ccXPOJvR.s:672    .text:0000000000000348 .L0 
     /tmp/ccXPOJvR.s:674    .text:000000000000034c .L0 
     /tmp/ccXPOJvR.s:676    .text:0000000000000350 .L0 
     /tmp/ccXPOJvR.s:682    .text:0000000000000350 _ZN10KSemaphore16semSignalHandlerEv
     /tmp/ccXPOJvR.s:685    .text:0000000000000350 .L0 
     /tmp/ccXPOJvR.s:686    .text:0000000000000350 .L0 
     /tmp/ccXPOJvR.s:687    .text:0000000000000354 .L0 
     /tmp/ccXPOJvR.s:690    .text:000000000000035c .L0 
     /tmp/ccXPOJvR.s:691    .text:000000000000035c .L0 
     /tmp/ccXPOJvR.s:693    .text:0000000000000360 .L0 
     /tmp/ccXPOJvR.s:695    .text:0000000000000360 .L0 
     /tmp/ccXPOJvR.s:696    .text:0000000000000360 .L0 
  src/KSemaphore.cpp:122    .text:0000000000000360 .L0 
     /tmp/ccXPOJvR.s:703    .text:0000000000000364 .L0 
     /tmp/ccXPOJvR.s:705    .text:0000000000000364 .L0 
     /tmp/ccXPOJvR.s:708    .text:000000000000036c .L0 
     /tmp/ccXPOJvR.s:710    .text:0000000000000370 .L0 
     /tmp/ccXPOJvR.s:711    .text:0000000000000370 .L0 
  src/KSemaphore.cpp:124    .text:0000000000000374 .L0 
     /tmp/ccXPOJvR.s:718    .text:0000000000000378 .L0 
     /tmp/ccXPOJvR.s:720    .text:0000000000000378 .L0 
     /tmp/ccXPOJvR.s:723    .text:0000000000000380 .L0 
     /tmp/ccXPOJvR.s:724    .text:0000000000000384 .L0 
     /tmp/ccXPOJvR.s:726    .text:0000000000000388 .L0 
     /tmp/ccXPOJvR.s:727    .text:0000000000000388 .L0 
     /tmp/ccXPOJvR.s:729    .text:000000000000038c .L0 
     /tmp/ccXPOJvR.s:731    .text:0000000000000390 .L0 
     /tmp/ccXPOJvR.s:737    .text:0000000000000390 _ZN10KSemaphore15semCloseHandlerEv
     /tmp/ccXPOJvR.s:740    .text:0000000000000390 .L0 
     /tmp/ccXPOJvR.s:741    .text:0000000000000390 .L0 
     /tmp/ccXPOJvR.s:742    .text:0000000000000394 .L0 
     /tmp/ccXPOJvR.s:746    .text:00000000000003a0 .L0 
     /tmp/ccXPOJvR.s:747    .text:00000000000003a0 .L0 
     /tmp/ccXPOJvR.s:748    .text:00000000000003a0 .L0 
     /tmp/ccXPOJvR.s:750    .text:00000000000003a4 .L0 
     /tmp/ccXPOJvR.s:752    .text:00000000000003a4 .L0 
     /tmp/ccXPOJvR.s:753    .text:00000000000003a4 .L0 
  src/KSemaphore.cpp:131    .text:00000000000003a4 .L0 
     /tmp/ccXPOJvR.s:760    .text:00000000000003a8 .L0 
     /tmp/ccXPOJvR.s:762    .text:00000000000003a8 .L0 
     /tmp/ccXPOJvR.s:764    .text:00000000000003ac .L0 
     /tmp/ccXPOJvR.s:772    .text:00000000000003c4 .L0 
  src/KSemaphore.cpp:133    .text:00000000000003c4 .L0 
     /tmp/ccXPOJvR.s:778    .text:00000000000003c8 .L0 
     /tmp/ccXPOJvR.s:780    .text:00000000000003c8 .L0 
     /tmp/ccXPOJvR.s:783    .text:00000000000003d0 .L0 
     /tmp/ccXPOJvR.s:784    .text:00000000000003d4 .L0 
     /tmp/ccXPOJvR.s:786    .text:00000000000003d8 .L0 
     /tmp/ccXPOJvR.s:787    .text:00000000000003d8 .L0 
GAS LISTING /tmp/ccXPOJvR.s 			page 26


     /tmp/ccXPOJvR.s:789    .text:00000000000003dc .L0 
     /tmp/ccXPOJvR.s:792    .text:00000000000003e0 .L0 
     /tmp/ccXPOJvR.s:794    .text:00000000000003e4 .L0 
     /tmp/ccXPOJvR.s:803    .text:00000000000003e4 .L0 
     /tmp/ccXPOJvR.s:112    .text:0000000000000074 .L0 
     /tmp/ccXPOJvR.s:83     .text:0000000000000058 .L7
     /tmp/ccXPOJvR.s:74     .text:000000000000004c .L3
     /tmp/ccXPOJvR.s:169    .text:00000000000000c4 .L16
     /tmp/ccXPOJvR.s:259    .text:0000000000000134 .L19
     /tmp/ccXPOJvR.s:268    .text:0000000000000140 .L22
     /tmp/ccXPOJvR.s:329    .text:0000000000000194 .L23
     /tmp/ccXPOJvR.s:301    .text:0000000000000164 .L25
     /tmp/ccXPOJvR.s:397    .text:00000000000001f0 .L27
     /tmp/ccXPOJvR.s:440    .text:0000000000000224 .L36
     /tmp/ccXPOJvR.s:579    .text:00000000000002e0 .L43
     /tmp/ccXPOJvR.s:558    .text:00000000000002c4 .L39
     /tmp/ccXPOJvR.s:770    .text:00000000000003c4 .L51
     /tmp/ccXPOJvR.s:2806   .debug_abbrev:0000000000000000 .Ldebug_abbrev0
     /tmp/ccXPOJvR.s:4144   .debug_str:00000000000001dc .LASF261
     /tmp/ccXPOJvR.s:4276   .debug_str:000000000000068d .LASF262
     /tmp/ccXPOJvR.s:4536   .debug_str:0000000000000f84 .LASF263
     /tmp/ccXPOJvR.s:5      .text:0000000000000000 .Ltext0
     /tmp/ccXPOJvR.s:797    .text:00000000000003e4 .Letext0
     /tmp/ccXPOJvR.s:4090   .debug_line:0000000000000000 .Ldebug_line0
     /tmp/ccXPOJvR.s:4266   .debug_str:0000000000000647 .LASF0
     /tmp/ccXPOJvR.s:4300   .debug_str:0000000000000772 .LASF1
     /tmp/ccXPOJvR.s:4432   .debug_str:0000000000000c2d .LASF2
     /tmp/ccXPOJvR.s:4450   .debug_str:0000000000000cc8 .LASF4
     /tmp/ccXPOJvR.s:4284   .debug_str:00000000000006d2 .LASF3
     /tmp/ccXPOJvR.s:4114   .debug_str:00000000000000d8 .LASF5
     /tmp/ccXPOJvR.s:4400   .debug_str:0000000000000af9 .LASF6
     /tmp/ccXPOJvR.s:4390   .debug_str:0000000000000a9f .LASF7
     /tmp/ccXPOJvR.s:4292   .debug_str:0000000000000723 .LASF8
     /tmp/ccXPOJvR.s:4234   .debug_str:000000000000051f .LASF9
     /tmp/ccXPOJvR.s:4242   .debug_str:0000000000000576 .LASF10
     /tmp/ccXPOJvR.s:4164   .debug_str:0000000000000327 .LASF11
     /tmp/ccXPOJvR.s:4224   .debug_str:00000000000004e4 .LASF12
     /tmp/ccXPOJvR.s:4178   .debug_str:0000000000000366 .LASF13
     /tmp/ccXPOJvR.s:4162   .debug_str:0000000000000317 .LASF14
     /tmp/ccXPOJvR.s:4502   .debug_str:0000000000000e8e .LASF15
     /tmp/ccXPOJvR.s:4216   .debug_str:000000000000049d .LASF16
     /tmp/ccXPOJvR.s:4488   .debug_str:0000000000000dec .LASF17
     /tmp/ccXPOJvR.s:4384   .debug_str:0000000000000a6e .LASF48
     /tmp/ccXPOJvR.s:4478   .debug_str:0000000000000da9 .LASF20
     /tmp/ccXPOJvR.s:4298   .debug_str:000000000000076d .LASF18
     /tmp/ccXPOJvR.s:4166   .debug_str:0000000000000336 .LASF19
     /tmp/ccXPOJvR.s:4230   .debug_str:000000000000050c .LASF21
     /tmp/ccXPOJvR.s:4302   .debug_str:0000000000000785 .LASF22
     /tmp/ccXPOJvR.s:4308   .debug_str:00000000000007a2 .LASF23
     /tmp/ccXPOJvR.s:4228   .debug_str:0000000000000503 .LASF24
     /tmp/ccXPOJvR.s:4624   .debug_str:000000000000123e .LASF25
     /tmp/ccXPOJvR.s:4340   .debug_str:00000000000008e5 .LASF26
     /tmp/ccXPOJvR.s:4118   .debug_str:00000000000000ea .LASF28
     /tmp/ccXPOJvR.s:4508   .debug_str:0000000000000eb4 .LASF27
     /tmp/ccXPOJvR.s:4342   .debug_str:00000000000008ef .LASF29
     /tmp/ccXPOJvR.s:4562   .debug_str:0000000000001049 .LASF38
     /tmp/ccXPOJvR.s:4534   .debug_str:0000000000000f61 .LASF40
GAS LISTING /tmp/ccXPOJvR.s 			page 27


     /tmp/ccXPOJvR.s:4404   .debug_str:0000000000000b0c .LASF32
     /tmp/ccXPOJvR.s:4110   .debug_str:0000000000000099 .LASF34
     /tmp/ccXPOJvR.s:4578   .debug_str:00000000000010a6 .LASF30
     /tmp/ccXPOJvR.s:4106   .debug_str:0000000000000063 .LASF31
     /tmp/ccXPOJvR.s:4514   .debug_str:0000000000000ed8 .LASF33
     /tmp/ccXPOJvR.s:4248   .debug_str:00000000000005b9 .LASF35
     /tmp/ccXPOJvR.s:4096   .debug_str:000000000000001b .LASF36
     /tmp/ccXPOJvR.s:4372   .debug_str:00000000000009f2 .LASF37
     /tmp/ccXPOJvR.s:4218   .debug_str:00000000000004b3 .LASF39
     /tmp/ccXPOJvR.s:4580   .debug_str:00000000000010bc .LASF41
     /tmp/ccXPOJvR.s:4490   .debug_str:0000000000000e02 .LASF42
     /tmp/ccXPOJvR.s:4210   .debug_str:0000000000000459 .LASF43
     /tmp/ccXPOJvR.s:4584   .debug_str:00000000000010fe .LASF44
     /tmp/ccXPOJvR.s:4334   .debug_str:0000000000000898 .LASF45
     /tmp/ccXPOJvR.s:4176   .debug_str:0000000000000360 .LASF46
     /tmp/ccXPOJvR.s:4374   .debug_str:0000000000000a1c .LASF47
     /tmp/ccXPOJvR.s:4232   .debug_str:0000000000000515 .LASF49
     /tmp/ccXPOJvR.s:4120   .debug_str:000000000000010b .LASF264
     /tmp/ccXPOJvR.s:4602   .debug_str:0000000000001195 .LASF265
     /tmp/ccXPOJvR.s:4614   .debug_str:000000000000120a .LASF50
     /tmp/ccXPOJvR.s:4138   .debug_str:00000000000001ae .LASF51
     /tmp/ccXPOJvR.s:4102   .debug_str:000000000000004b .LASF52
     /tmp/ccXPOJvR.s:4378   .debug_str:0000000000000a3f .LASF53
     /tmp/ccXPOJvR.s:4460   .debug_str:0000000000000d12 .LASF54
     /tmp/ccXPOJvR.s:4428   .debug_str:0000000000000c0a .LASF132
     /tmp/ccXPOJvR.s:4146   .debug_str:0000000000000288 .LASF55
     /tmp/ccXPOJvR.s:4608   .debug_str:00000000000011cc .LASF56
     /tmp/ccXPOJvR.s:4466   .debug_str:0000000000000d39 .LASF57
     /tmp/ccXPOJvR.s:4180   .debug_str:0000000000000376 .LASF58
     /tmp/ccXPOJvR.s:4518   .debug_str:0000000000000f08 .LASF266
     /tmp/ccXPOJvR.s:4154   .debug_str:00000000000002d9 .LASF59
     /tmp/ccXPOJvR.s:4476   .debug_str:0000000000000da1 .LASF60
     /tmp/ccXPOJvR.s:4172   .debug_str:000000000000034c .LASF61
     /tmp/ccXPOJvR.s:4142   .debug_str:00000000000001d3 .LASF62
     /tmp/ccXPOJvR.s:4394   .debug_str:0000000000000ac8 .LASF63
     /tmp/ccXPOJvR.s:4170   .debug_str:0000000000000343 .LASF64
     /tmp/ccXPOJvR.s:4574   .debug_str:0000000000001099 .LASF65
     /tmp/ccXPOJvR.s:4252   .debug_str:00000000000005fa .LASF66
     /tmp/ccXPOJvR.s:4540   .debug_str:0000000000000fb2 .LASF67
     /tmp/ccXPOJvR.s:4546   .debug_str:0000000000000fd4 .LASF267
     /tmp/ccXPOJvR.s:4376   .debug_str:0000000000000a3a .LASF68
     /tmp/ccXPOJvR.s:4576   .debug_str:00000000000010a1 .LASF69
     /tmp/ccXPOJvR.s:4364   .debug_str:000000000000099c .LASF70
     /tmp/ccXPOJvR.s:4600   .debug_str:000000000000118f .LASF71
     /tmp/ccXPOJvR.s:4526   .debug_str:0000000000000f2a .LASF72
     /tmp/ccXPOJvR.s:4198   .debug_str:000000000000041f .LASF73
     /tmp/ccXPOJvR.s:4126   .debug_str:000000000000014b .LASF74
     /tmp/ccXPOJvR.s:4306   .debug_str:000000000000079c .LASF75
     /tmp/ccXPOJvR.s:4380   .debug_str:0000000000000a52 .LASF76
     /tmp/ccXPOJvR.s:4524   .debug_str:0000000000000f22 .LASF77
     /tmp/ccXPOJvR.s:4464   .debug_str:0000000000000d28 .LASF78
     /tmp/ccXPOJvR.s:4310   .debug_str:00000000000007b5 .LASF81
     /tmp/ccXPOJvR.s:4316   .debug_str:00000000000007ec .LASF83
     /tmp/ccXPOJvR.s:4220   .debug_str:00000000000004c3 .LASF79
     /tmp/ccXPOJvR.s:4280   .debug_str:00000000000006b2 .LASF80
     /tmp/ccXPOJvR.s:4468   .debug_str:0000000000000d4a .LASF82
     /tmp/ccXPOJvR.s:4350   .debug_str:0000000000000936 .LASF84
GAS LISTING /tmp/ccXPOJvR.s 			page 28


     /tmp/ccXPOJvR.s:4444   .debug_str:0000000000000c8e .LASF85
     /tmp/ccXPOJvR.s:4496   .debug_str:0000000000000e49 .LASF86
     /tmp/ccXPOJvR.s:4352   .debug_str:0000000000000949 .LASF87
     /tmp/ccXPOJvR.s:4098   .debug_str:000000000000002c .LASF88
     /tmp/ccXPOJvR.s:4588   .debug_str:000000000000111e .LASF89
     /tmp/ccXPOJvR.s:4386   .debug_str:0000000000000a7e .LASF90
     /tmp/ccXPOJvR.s:4486   .debug_str:0000000000000dde .LASF91
     /tmp/ccXPOJvR.s:4402   .debug_str:0000000000000b00 .LASF92
     /tmp/ccXPOJvR.s:4194   .debug_str:00000000000003fd .LASF93
     /tmp/ccXPOJvR.s:4226   .debug_str:00000000000004f3 .LASF94
     /tmp/ccXPOJvR.s:4424   .debug_str:0000000000000be4 .LASF95
     /tmp/ccXPOJvR.s:4594   .debug_str:0000000000001152 .LASF96
     /tmp/ccXPOJvR.s:4286   .debug_str:00000000000006e4 .LASF97
     /tmp/ccXPOJvR.s:4482   .debug_str:0000000000000dcc .LASF98
     /tmp/ccXPOJvR.s:4606   .debug_str:00000000000011b6 .LASF99
     /tmp/ccXPOJvR.s:4510   .debug_str:0000000000000ebd .LASF100
     /tmp/ccXPOJvR.s:4188   .debug_str:00000000000003dc .LASF101
     /tmp/ccXPOJvR.s:4168   .debug_str:000000000000033b .LASF102
     /tmp/ccXPOJvR.s:4268   .debug_str:0000000000000654 .LASF103
     /tmp/ccXPOJvR.s:4360   .debug_str:0000000000000976 .LASF104
     /tmp/ccXPOJvR.s:4184   .debug_str:00000000000003ab .LASF105
     /tmp/ccXPOJvR.s:4408   .debug_str:0000000000000b4a .LASF106
     /tmp/ccXPOJvR.s:4626   .debug_str:0000000000001248 .LASF107
     /tmp/ccXPOJvR.s:4366   .debug_str:00000000000009a8 .LASF108
     /tmp/ccXPOJvR.s:4442   .debug_str:0000000000000c7b .LASF109
     /tmp/ccXPOJvR.s:4470   .debug_str:0000000000000d53 .LASF110
     /tmp/ccXPOJvR.s:4556   .debug_str:000000000000101e .LASF111
     /tmp/ccXPOJvR.s:4338   .debug_str:00000000000008c7 .LASF112
     /tmp/ccXPOJvR.s:4548   .debug_str:0000000000000fec .LASF113
     /tmp/ccXPOJvR.s:4494   .debug_str:0000000000000e29 .LASF114
     /tmp/ccXPOJvR.s:4206   .debug_str:0000000000000439 .LASF115
     /tmp/ccXPOJvR.s:4270   .debug_str:0000000000000668 .LASF116
     /tmp/ccXPOJvR.s:4532   .debug_str:0000000000000f57 .LASF117
     /tmp/ccXPOJvR.s:4382   .debug_str:0000000000000a62 .LASF118
     /tmp/ccXPOJvR.s:4598   .debug_str:0000000000001181 .LASF119
     /tmp/ccXPOJvR.s:4130   .debug_str:0000000000000166 .LASF120
     /tmp/ccXPOJvR.s:4222   .debug_str:00000000000004cf .LASF121
     /tmp/ccXPOJvR.s:4152   .debug_str:00000000000002ad .LASF122
     /tmp/ccXPOJvR.s:4618   .debug_str:0000000000001226 .LASF123
     /tmp/ccXPOJvR.s:4148   .debug_str:000000000000028e .LASF124
     /tmp/ccXPOJvR.s:4100   .debug_str:0000000000000046 .LASF125
     /tmp/ccXPOJvR.s:4554   .debug_str:0000000000001019 .LASF126
     /tmp/ccXPOJvR.s:4322   .debug_str:0000000000000831 .LASF127
     /tmp/ccXPOJvR.s:4204   .debug_str:0000000000000433 .LASF128
     /tmp/ccXPOJvR.s:4544   .debug_str:0000000000000fcc .LASF129
     /tmp/ccXPOJvR.s:4572   .debug_str:0000000000001093 .LASF130
     /tmp/ccXPOJvR.s:4260   .debug_str:000000000000061e .LASF131
     /tmp/ccXPOJvR.s:4492   .debug_str:0000000000000e11 .LASF133
     /tmp/ccXPOJvR.s:4558   .debug_str:0000000000001031 .LASF134
     /tmp/ccXPOJvR.s:4592   .debug_str:0000000000001143 .LASF135
     /tmp/ccXPOJvR.s:4472   .debug_str:0000000000000d71 .LASF136
     /tmp/ccXPOJvR.s:4538   .debug_str:0000000000000fa7 .LASF137
     /tmp/ccXPOJvR.s:4332   .debug_str:0000000000000880 .LASF138
     /tmp/ccXPOJvR.s:4214   .debug_str:0000000000000493 .LASF139
     /tmp/ccXPOJvR.s:4392   .debug_str:0000000000000ab2 .LASF140
     /tmp/ccXPOJvR.s:4336   .debug_str:00000000000008b7 .LASF141
     /tmp/ccXPOJvR.s:4564   .debug_str:0000000000001054 .LASF142
GAS LISTING /tmp/ccXPOJvR.s 			page 29


     /tmp/ccXPOJvR.s:4158   .debug_str:00000000000002f3 .LASF143
     /tmp/ccXPOJvR.s:4314   .debug_str:00000000000007ce .LASF144
     /tmp/ccXPOJvR.s:4208   .debug_str:0000000000000442 .LASF145
     /tmp/ccXPOJvR.s:4596   .debug_str:000000000000115d .LASF146
     /tmp/ccXPOJvR.s:4278   .debug_str:00000000000006a0 .LASF147
     /tmp/ccXPOJvR.s:4186   .debug_str:00000000000003bd .LASF148
     /tmp/ccXPOJvR.s:4136   .debug_str:00000000000001a4 .LASF149
     /tmp/ccXPOJvR.s:4236   .debug_str:000000000000052f .LASF150
     /tmp/ccXPOJvR.s:4462   .debug_str:0000000000000d1a .LASF151
     /tmp/ccXPOJvR.s:4418   .debug_str:0000000000000bad .LASF152
     /tmp/ccXPOJvR.s:4354   .debug_str:0000000000000958 .LASF153
     /tmp/ccXPOJvR.s:4582   .debug_str:00000000000010e4 .LASF154
     /tmp/ccXPOJvR.s:4552   .debug_str:0000000000001010 .LASF155
     /tmp/ccXPOJvR.s:4420   .debug_str:0000000000000bc8 .LASF156
     /tmp/ccXPOJvR.s:4620   .debug_str:000000000000122d .LASF157
     /tmp/ccXPOJvR.s:4370   .debug_str:00000000000009dd .LASF158
     /tmp/ccXPOJvR.s:4560   .debug_str:0000000000001042 .LASF159
     /tmp/ccXPOJvR.s:4410   .debug_str:0000000000000b67 .LASF160
     /tmp/ccXPOJvR.s:4362   .debug_str:0000000000000995 .LASF161
     /tmp/ccXPOJvR.s:4294   .debug_str:0000000000000736 .LASF162
     /tmp/ccXPOJvR.s:4128   .debug_str:000000000000015e .LASF163
     /tmp/ccXPOJvR.s:4528   .debug_str:0000000000000f3a .LASF164
     /tmp/ccXPOJvR.s:4358   .debug_str:000000000000096e .LASF165
     /tmp/ccXPOJvR.s:4368   .debug_str:00000000000009c9 .LASF166
     /tmp/ccXPOJvR.s:4346   .debug_str:000000000000091c .LASF167
     /tmp/ccXPOJvR.s:4412   .debug_str:0000000000000b7a .LASF168
     /tmp/ccXPOJvR.s:4622   .debug_str:0000000000001236 .LASF169
     /tmp/ccXPOJvR.s:4274   .debug_str:0000000000000679 .LASF170
     /tmp/ccXPOJvR.s:4256   .debug_str:000000000000060b .LASF171
     /tmp/ccXPOJvR.s:4498   .debug_str:0000000000000e65 .LASF172
     /tmp/ccXPOJvR.s:4456   .debug_str:0000000000000cf8 .LASF173
     /tmp/ccXPOJvR.s:4458   .debug_str:0000000000000d0b .LASF174
     /tmp/ccXPOJvR.s:4212   .debug_str:0000000000000480 .LASF175
     /tmp/ccXPOJvR.s:4454   .debug_str:0000000000000cf2 .LASF176
     /tmp/ccXPOJvR.s:4122   .debug_str:0000000000000123 .LASF177
     /tmp/ccXPOJvR.s:4272   .debug_str:0000000000000673 .LASF178
     /tmp/ccXPOJvR.s:4196   .debug_str:000000000000040d .LASF179
     /tmp/ccXPOJvR.s:4150   .debug_str:000000000000029f .LASF180
     /tmp/ccXPOJvR.s:4516   .debug_str:0000000000000eed .LASF181
     /tmp/ccXPOJvR.s:4116   .debug_str:00000000000000df .LASF182
     /tmp/ccXPOJvR.s:4438   .debug_str:0000000000000c57 .LASF183
     /tmp/ccXPOJvR.s:4430   .debug_str:0000000000000c22 .LASF184
     /tmp/ccXPOJvR.s:4610   .debug_str:00000000000011e2 .LASF185
     /tmp/ccXPOJvR.s:4436   .debug_str:0000000000000c50 .LASF186
     /tmp/ccXPOJvR.s:4160   .debug_str:0000000000000304 .LASF187
     /tmp/ccXPOJvR.s:4484   .debug_str:0000000000000dd7 .LASF188
     /tmp/ccXPOJvR.s:4318   .debug_str:0000000000000804 .LASF189
     /tmp/ccXPOJvR.s:4520   .debug_str:0000000000000f0e .LASF190
     /tmp/ccXPOJvR.s:4590   .debug_str:000000000000112d .LASF191
     /tmp/ccXPOJvR.s:4566   .debug_str:0000000000001072 .LASF192
     /tmp/ccXPOJvR.s:4124   .debug_str:0000000000000135 .LASF193
     /tmp/ccXPOJvR.s:4192   .debug_str:00000000000003f7 .LASF194
     /tmp/ccXPOJvR.s:4250   .debug_str:00000000000005e8 .LASF195
     /tmp/ccXPOJvR.s:4258   .debug_str:0000000000000618 .LASF196
     /tmp/ccXPOJvR.s:4568   .debug_str:000000000000107c .LASF197
     /tmp/ccXPOJvR.s:4254   .debug_str:0000000000000600 .LASF198
     /tmp/ccXPOJvR.s:4262   .debug_str:0000000000000629 .LASF199
GAS LISTING /tmp/ccXPOJvR.s 			page 30


     /tmp/ccXPOJvR.s:4550   .debug_str:0000000000001001 .LASF200
     /tmp/ccXPOJvR.s:4240   .debug_str:000000000000055a .LASF201
     /tmp/ccXPOJvR.s:4396   .debug_str:0000000000000ad0 .LASF202
     /tmp/ccXPOJvR.s:4290   .debug_str:0000000000000701 .LASF203
     /tmp/ccXPOJvR.s:4132   .debug_str:000000000000018e .LASF204
     /tmp/ccXPOJvR.s:4328   .debug_str:000000000000084f .LASF205
     /tmp/ccXPOJvR.s:4422   .debug_str:0000000000000bdd .LASF206
     /tmp/ccXPOJvR.s:4108   .debug_str:0000000000000091 .LASF207
     /tmp/ccXPOJvR.s:4616   .debug_str:0000000000001217 .LASF208
     /tmp/ccXPOJvR.s:4312   .debug_str:00000000000007c2 .LASF209
     /tmp/ccXPOJvR.s:4140   .debug_str:00000000000001c0 .LASF210
     /tmp/ccXPOJvR.s:4348   .debug_str:0000000000000924 .LASF211
     /tmp/ccXPOJvR.s:4244   .debug_str:0000000000000584 .LASF212
     /tmp/ccXPOJvR.s:4282   .debug_str:00000000000006bf .LASF213
     /tmp/ccXPOJvR.s:4156   .debug_str:00000000000002df .LASF214
     /tmp/ccXPOJvR.s:4522   .debug_str:0000000000000f18 .LASF215
     /tmp/ccXPOJvR.s:4326   .debug_str:000000000000084a .LASF216
     /tmp/ccXPOJvR.s:4416   .debug_str:0000000000000ba2 .LASF217
     /tmp/ccXPOJvR.s:4238   .debug_str:0000000000000546 .LASF218
     /tmp/ccXPOJvR.s:4344   .debug_str:0000000000000910 .LASF219
     /tmp/ccXPOJvR.s:4414   .debug_str:0000000000000b8e .LASF220
     /tmp/ccXPOJvR.s:4200   .debug_str:0000000000000428 .LASF221
     /tmp/ccXPOJvR.s:4480   .debug_str:0000000000000db5 .LASF222
     /tmp/ccXPOJvR.s:4506   .debug_str:0000000000000ead .LASF223
     /tmp/ccXPOJvR.s:4426   .debug_str:0000000000000bf1 .LASF224
     /tmp/ccXPOJvR.s:4094   .debug_str:000000000000000f .LASF225
     /tmp/ccXPOJvR.s:4440   .debug_str:0000000000000c6f .LASF226
     /tmp/ccXPOJvR.s:4330   .debug_str:000000000000086c .LASF227
     /tmp/ccXPOJvR.s:4434   .debug_str:0000000000000c3b .LASF228
     /tmp/ccXPOJvR.s:4530   .debug_str:0000000000000f4e .LASF229
     /tmp/ccXPOJvR.s:4174   .debug_str:0000000000000356 .LASF230
     /tmp/ccXPOJvR.s:4356   .debug_str:0000000000000965 .LASF231
     /tmp/ccXPOJvR.s:4448   .debug_str:0000000000000cbd .LASF232
     /tmp/ccXPOJvR.s:4092   .debug_str:0000000000000000 .LASF233
     /tmp/ccXPOJvR.s:4246   .debug_str:0000000000000597 .LASF234
     /tmp/ccXPOJvR.s:4542   .debug_str:0000000000000fbd .LASF235
     /tmp/ccXPOJvR.s:4500   .debug_str:0000000000000e6c .LASF236
     /tmp/ccXPOJvR.s:4324   .debug_str:0000000000000839 .LASF237
     /tmp/ccXPOJvR.s:4182   .debug_str:0000000000000387 .LASF238
     /tmp/ccXPOJvR.s:4512   .debug_str:0000000000000ec8 .LASF239
     /tmp/ccXPOJvR.s:4406   .debug_str:0000000000000b27 .LASF240
     /tmp/ccXPOJvR.s:4304   .debug_str:0000000000000793 .LASF241
     /tmp/ccXPOJvR.s:4264   .debug_str:0000000000000641 .LASF242
     /tmp/ccXPOJvR.s:4586   .debug_str:0000000000001106 .LASF243
     /tmp/ccXPOJvR.s:4104   .debug_str:000000000000005b .LASF244
     /tmp/ccXPOJvR.s:4320   .debug_str:0000000000000817 .LASF245
     /tmp/ccXPOJvR.s:4612   .debug_str:00000000000011fa .LASF246
     /tmp/ccXPOJvR.s:4452   .debug_str:0000000000000ccf .LASF247
     /tmp/ccXPOJvR.s:4504   .debug_str:0000000000000e9a .LASF248
     /tmp/ccXPOJvR.s:4446   .debug_str:0000000000000c97 .LASF249
     /tmp/ccXPOJvR.s:4604   .debug_str:00000000000011a9 .LASF250
     /tmp/ccXPOJvR.s:4296   .debug_str:0000000000000749 .LASF251
     /tmp/ccXPOJvR.s:738    .text:0000000000000390 .LFB43
     /tmp/ccXPOJvR.s:795    .text:00000000000003e4 .LFE43
     /tmp/ccXPOJvR.s:4570   .debug_str:000000000000108e .LASF252
     /tmp/ccXPOJvR.s:3840   .debug_loc:0000000000000000 .LLST18
     /tmp/ccXPOJvR.s:766    .text:00000000000003b8 .LVL54
GAS LISTING /tmp/ccXPOJvR.s 			page 31


     /tmp/ccXPOJvR.s:769    .text:00000000000003c4 .LVL55
     /tmp/ccXPOJvR.s:781    .text:00000000000003d0 .LVL56
     /tmp/ccXPOJvR.s:683    .text:0000000000000350 .LFB42
     /tmp/ccXPOJvR.s:732    .text:0000000000000390 .LFE42
     /tmp/ccXPOJvR.s:3847   .debug_loc:0000000000000023 .LLST17
     /tmp/ccXPOJvR.s:4134   .debug_str:000000000000019d .LASF253
     /tmp/ccXPOJvR.s:706    .text:000000000000036c .LVL51
     /tmp/ccXPOJvR.s:721    .text:0000000000000380 .LVL52
     /tmp/ccXPOJvR.s:628    .text:0000000000000310 .LFB41
     /tmp/ccXPOJvR.s:677    .text:0000000000000350 .LFE41
     /tmp/ccXPOJvR.s:3854   .debug_loc:0000000000000046 .LLST16
     /tmp/ccXPOJvR.s:651    .text:000000000000032c .LVL48
     /tmp/ccXPOJvR.s:666    .text:0000000000000340 .LVL49
     /tmp/ccXPOJvR.s:596    .text:00000000000002e8 .LFB40
     /tmp/ccXPOJvR.s:622    .text:0000000000000310 .LFE40
     /tmp/ccXPOJvR.s:3861   .debug_loc:0000000000000069 .LLST15
     /tmp/ccXPOJvR.s:611    .text:0000000000000300 .LVL46
     /tmp/ccXPOJvR.s:472    .text:0000000000000250 .LFB39
     /tmp/ccXPOJvR.s:498    .text:0000000000000278 .LFE39
     /tmp/ccXPOJvR.s:3875   .debug_loc:00000000000000a2 .LLST11
     /tmp/ccXPOJvR.s:487    .text:0000000000000268 .LVL36
     /tmp/ccXPOJvR.s:362    .text:00000000000001ac .LFB38
     /tmp/ccXPOJvR.s:414    .text:0000000000000208 .LFE38
     /tmp/ccXPOJvR.s:4190   .debug_str:00000000000003f2 .LASF254
     /tmp/ccXPOJvR.s:3889   .debug_loc:00000000000000db .LLST8
     /tmp/ccXPOJvR.s:3907   .debug_loc:0000000000000127 .LLST9
     /tmp/ccXPOJvR.s:382    .text:00000000000001d0 .LVL25
     /tmp/ccXPOJvR.s:389    .text:00000000000001e0 .LVL27
     /tmp/ccXPOJvR.s:396    .text:00000000000001f0 .LVL28
     /tmp/ccXPOJvR.s:228    .text:000000000000010c .LFB37
     /tmp/ccXPOJvR.s:275    .text:0000000000000148 .LFE37
     /tmp/ccXPOJvR.s:4202   .debug_str:000000000000042d .LASF255
     /tmp/ccXPOJvR.s:3914   .debug_loc:000000000000014a .LLST5
     /tmp/ccXPOJvR.s:201    .text:00000000000000f0 .LFB36
     /tmp/ccXPOJvR.s:222    .text:000000000000010c .LFE36
     /tmp/ccXPOJvR.s:3921   .debug_loc:000000000000016d .LLST4
     /tmp/ccXPOJvR.s:98     .text:0000000000000064 .LFB35
     /tmp/ccXPOJvR.s:143    .text:00000000000000a8 .LFE35
     /tmp/ccXPOJvR.s:3935   .debug_loc:00000000000001a6 .LLST0
     /tmp/ccXPOJvR.s:115    .text:0000000000000080 .LBB5
     /tmp/ccXPOJvR.s:124    .text:0000000000000088 .LBE5
     /tmp/ccXPOJvR.s:3949   .debug_loc:00000000000001df .LLST1
     /tmp/ccXPOJvR.s:3957   .debug_loc:0000000000000203 .LLST2
     /tmp/ccXPOJvR.s:128    .text:0000000000000090 .LVL5
     /tmp/ccXPOJvR.s:132    .text:0000000000000098 .LVL6
     /tmp/ccXPOJvR.s:49     .text:0000000000000028 .LFB34
     /tmp/ccXPOJvR.s:92     .text:0000000000000064 .LFE34
     /tmp/ccXPOJvR.s:4112   .debug_str:00000000000000ce .LASF256
     /tmp/ccXPOJvR.s:4474   .debug_str:0000000000000d8d .LASF259
     /tmp/ccXPOJvR.s:281    .text:0000000000000148 .LFB32
     /tmp/ccXPOJvR.s:346    .text:00000000000001ac .LFE32
     /tmp/ccXPOJvR.s:3964   .debug_loc:0000000000000226 .LLST6
     /tmp/ccXPOJvR.s:319    .text:0000000000000184 .LVL20
     /tmp/ccXPOJvR.s:324    .text:0000000000000190 .LVL21
     /tmp/ccXPOJvR.s:312    .text:0000000000000178 .LBB8
     /tmp/ccXPOJvR.s:325    .text:0000000000000190 .LBE8
     /tmp/ccXPOJvR.s:3982   .debug_loc:0000000000000272 .LLST7
GAS LISTING /tmp/ccXPOJvR.s 			page 32


     /tmp/ccXPOJvR.s:308    .text:0000000000000170 .LVL18
     /tmp/ccXPOJvR.s:504    .text:0000000000000278 .LFB30
     /tmp/ccXPOJvR.s:590    .text:00000000000002e8 .LFE30
     /tmp/ccXPOJvR.s:3989   .debug_loc:0000000000000295 .LLST12
     /tmp/ccXPOJvR.s:4288   .debug_str:00000000000006f1 .LASF257
     /tmp/ccXPOJvR.s:4000   .debug_loc:00000000000002cb .LLST13
     /tmp/ccXPOJvR.s:4388   .debug_str:0000000000000a98 .LASF258
     /tmp/ccXPOJvR.s:4011   .debug_loc:0000000000000301 .LLST14
     /tmp/ccXPOJvR.s:541    .text:00000000000002a8 .LVL39
     /tmp/ccXPOJvR.s:545    .text:00000000000002b8 .LVL40
     /tmp/ccXPOJvR.s:420    .text:0000000000000208 .LFB29
     /tmp/ccXPOJvR.s:466    .text:0000000000000250 .LFE29
     /tmp/ccXPOJvR.s:4027   .debug_loc:000000000000034b .LLST10
     /tmp/ccXPOJvR.s:453    .text:000000000000023c .LVL34
     /tmp/ccXPOJvR.s:149    .text:00000000000000a8 .LFB28
     /tmp/ccXPOJvR.s:195    .text:00000000000000f0 .LFE28
     /tmp/ccXPOJvR.s:4052   .debug_loc:00000000000003ad .LLST3
     /tmp/ccXPOJvR.s:182    .text:00000000000000dc .LVL10
     /tmp/ccXPOJvR.s:4398   .debug_str:0000000000000ae5 .LASF260
     /tmp/ccXPOJvR.s:10     .text:0000000000000000 .LFB26
     /tmp/ccXPOJvR.s:41     .text:0000000000000028 .LFE26
     /tmp/ccXPOJvR.s:758    .text:00000000000003a8 .LVL53
     /tmp/ccXPOJvR.s:790    .text:00000000000003dc .LVL57
     /tmp/ccXPOJvR.s:701    .text:0000000000000364 .LVL50
     /tmp/ccXPOJvR.s:646    .text:0000000000000324 .LVL47
     /tmp/ccXPOJvR.s:599    .text:00000000000002e8 .LVL45
     /tmp/ccXPOJvR.s:475    .text:0000000000000250 .LVL35
     /tmp/ccXPOJvR.s:365    .text:00000000000001ac .LVL24
     /tmp/ccXPOJvR.s:409    .text:0000000000000200 .LVL30
     /tmp/ccXPOJvR.s:384    .text:00000000000001d4 .LVL26
     /tmp/ccXPOJvR.s:406    .text:00000000000001fc .LVL29
     /tmp/ccXPOJvR.s:244    .text:0000000000000120 .LVL14
     /tmp/ccXPOJvR.s:256    .text:0000000000000130 .LVL15
     /tmp/ccXPOJvR.s:204    .text:00000000000000f0 .LVL11
     /tmp/ccXPOJvR.s:214    .text:0000000000000100 .LVL12
     /tmp/ccXPOJvR.s:101    .text:0000000000000064 .LVL2
     /tmp/ccXPOJvR.s:114    .text:0000000000000080 .LVL3
     /tmp/ccXPOJvR.s:122    .text:0000000000000088 .LVL4
     /tmp/ccXPOJvR.s:286    .text:0000000000000148 .LVL16
     /tmp/ccXPOJvR.s:300    .text:0000000000000164 .LVL17
     /tmp/ccXPOJvR.s:341    .text:00000000000001a4 .LVL23
     /tmp/ccXPOJvR.s:314    .text:0000000000000178 .LVL19
     /tmp/ccXPOJvR.s:328    .text:0000000000000194 .LVL22
     /tmp/ccXPOJvR.s:535    .text:000000000000029c .LVL38
     /tmp/ccXPOJvR.s:574    .text:00000000000002d8 .LVL43
     /tmp/ccXPOJvR.s:578    .text:00000000000002e0 .LVL44
     /tmp/ccXPOJvR.s:529    .text:0000000000000298 .LVL37
     /tmp/ccXPOJvR.s:571    .text:00000000000002d4 .LVL42
     /tmp/ccXPOJvR.s:568    .text:00000000000002d0 .LVL41
     /tmp/ccXPOJvR.s:423    .text:0000000000000208 .LVL31
     /tmp/ccXPOJvR.s:437    .text:0000000000000220 .LVL32
     /tmp/ccXPOJvR.s:439    .text:0000000000000224 .LVL33
     /tmp/ccXPOJvR.s:152    .text:00000000000000a8 .LVL7
     /tmp/ccXPOJvR.s:166    .text:00000000000000c0 .LVL8
     /tmp/ccXPOJvR.s:168    .text:00000000000000c4 .LVL9
     /tmp/ccXPOJvR.s:804    .debug_info:0000000000000000 .Ldebug_info0
     /tmp/ccXPOJvR.s:349    .gcc_except_table:0000000000000000 .LLSDA32
GAS LISTING /tmp/ccXPOJvR.s 			page 33



UNDEFINED SYMBOLS
_ZN3PCB7runningE
_ZN3PCB8dispatchEv
_ZN9Scheduler3putEP3PCB
__gxx_personality_v0
_ZN15MemoryAllocator7kmallocEm
_ZN15MemoryAllocator5kfreeEPv
_ZN5Riscv13w_a0_sscratchEv
