GAS LISTING /tmp/ccFBpNwP.s 			page 1


   1              		.file	"KSemaphore.cpp"
   2              		.option pic
   3              		.option norelax
   4              		.text
   5              	.Ltext0:
   6              		.align	2
   7              		.globl	_ZN10KSemaphoreC2Ei
   9              	_ZN10KSemaphoreC2Ei:
  10              	.LFB22:
  11              		.file 1 "src/KSemaphore.cpp"
   1:src/KSemaphore.cpp **** //
   2:src/KSemaphore.cpp **** // Created by os on 5/2/22.
   3:src/KSemaphore.cpp **** //
   4:src/KSemaphore.cpp **** 
   5:src/KSemaphore.cpp **** #include "../h/KSemaphore.hpp"
   6:src/KSemaphore.cpp **** #include "../h/MemoryAllocator.hpp"
   7:src/KSemaphore.cpp **** 
   8:src/KSemaphore.cpp **** KSemaphore::KSemaphore(int val) {
  12              		.loc 1 8 1
  13              		.cfi_startproc
  14              	.LVL0:
  15 0000 130101FF 		addi	sp,sp,-16
  16              		.cfi_def_cfa_offset 16
  17 0004 23348100 		sd	s0,8(sp)
  18              		.cfi_offset 8, -8
  19 0008 13040101 		addi	s0,sp,16
  20              		.cfi_def_cfa 8, 0
  21              	.LBB4:
   9:src/KSemaphore.cpp ****     this->val = this->beginVal = val;
  22              		.loc 1 9 5
  23              		.loc 1 9 32 is_stmt 0
  24 000c 232AB500 		sw	a1,20(a0)
  25              		.loc 1 9 15
  26 0010 2328B500 		sw	a1,16(a0)
  10:src/KSemaphore.cpp ****     headBlocked = tailBlocked = 0;
  27              		.loc 1 10 5 is_stmt 1
  28              		.loc 1 10 31 is_stmt 0
  29 0014 23340500 		sd	zero,8(a0)
  30              		.loc 1 10 17
  31 0018 23300500 		sd	zero,0(a0)
  32              	.LBE4:
  11:src/KSemaphore.cpp **** }
  33              		.loc 1 11 1
  34 001c 03348100 		ld	s0,8(sp)
  35              		.cfi_restore 8
  36              		.cfi_def_cfa 2, 16
  37 0020 13010101 		addi	sp,sp,16
  38              		.cfi_def_cfa_offset 0
  39 0024 67800000 		jr	ra
  40              		.cfi_endproc
  41              	.LFE22:
  43              		.globl	_ZN10KSemaphoreC1Ei
  44              		.set	_ZN10KSemaphoreC1Ei,_ZN10KSemaphoreC2Ei
  45              		.align	2
  46              		.globl	_ZN10KSemaphore12addToBlockedEP3PCB
  48              	_ZN10KSemaphore12addToBlockedEP3PCB:
  49              	.LFB29:
GAS LISTING /tmp/ccFBpNwP.s 			page 2


  12:src/KSemaphore.cpp **** 
  13:src/KSemaphore.cpp **** //todo
  14:src/KSemaphore.cpp **** uint64 KSemaphore::wait() {
  15:src/KSemaphore.cpp ****     if(--val < 0)
  16:src/KSemaphore.cpp ****         block();
  17:src/KSemaphore.cpp **** 
  18:src/KSemaphore.cpp ****     return 0;
  19:src/KSemaphore.cpp **** }
  20:src/KSemaphore.cpp **** 
  21:src/KSemaphore.cpp **** //todo
  22:src/KSemaphore.cpp **** uint64 KSemaphore::signal() {
  23:src/KSemaphore.cpp ****     if(++val <= 0)
  24:src/KSemaphore.cpp ****         unblock();
  25:src/KSemaphore.cpp ****     else
  26:src/KSemaphore.cpp ****         val = beginVal;
  27:src/KSemaphore.cpp **** 
  28:src/KSemaphore.cpp ****     return 0;
  29:src/KSemaphore.cpp **** }
  30:src/KSemaphore.cpp **** 
  31:src/KSemaphore.cpp **** KSemaphore::~KSemaphore() {
  32:src/KSemaphore.cpp ****     //todo
  33:src/KSemaphore.cpp ****     while(getFirstBlocked() != 0)
  34:src/KSemaphore.cpp ****     {
  35:src/KSemaphore.cpp ****         PCB* pcb = getFirstBlocked();
  36:src/KSemaphore.cpp ****         removeFirstBlocked();
  37:src/KSemaphore.cpp ****         Scheduler::put(pcb);
  38:src/KSemaphore.cpp ****     }
  39:src/KSemaphore.cpp **** }
  40:src/KSemaphore.cpp **** 
  41:src/KSemaphore.cpp **** void KSemaphore::addToBlocked(PCB* pcb)
  42:src/KSemaphore.cpp **** {
  50              		.loc 1 42 1 is_stmt 1
  51              		.cfi_startproc
  52              	.LVL1:
  53 0028 130101FF 		addi	sp,sp,-16
  54              		.cfi_def_cfa_offset 16
  55 002c 23348100 		sd	s0,8(sp)
  56              		.cfi_offset 8, -8
  57 0030 13040101 		addi	s0,sp,16
  58              		.cfi_def_cfa 8, 0
  43:src/KSemaphore.cpp ****     pcb->nextPCB = 0;
  59              		.loc 1 43 5
  60              		.loc 1 43 18 is_stmt 0
  61 0034 23B00500 		sd	zero,0(a1)
  44:src/KSemaphore.cpp ****     if(headBlocked == 0)
  62              		.loc 1 44 5 is_stmt 1
  63              		.loc 1 44 8 is_stmt 0
  64 0038 83370500 		ld	a5,0(a0)
  65              		.loc 1 44 5
  66 003c 638E0700 		beqz	a5,.L7
  45:src/KSemaphore.cpp ****     {
  46:src/KSemaphore.cpp ****         headBlocked = tailBlocked = pcb;
  47:src/KSemaphore.cpp ****     }
  48:src/KSemaphore.cpp ****     else
  49:src/KSemaphore.cpp ****     {
  50:src/KSemaphore.cpp ****         tailBlocked->nextPCB = pcb;
  67              		.loc 1 50 9 is_stmt 1
GAS LISTING /tmp/ccFBpNwP.s 			page 3


  68 0040 83378500 		ld	a5,8(a0)
  69              		.loc 1 50 30 is_stmt 0
  70 0044 23B0B700 		sd	a1,0(a5)
  51:src/KSemaphore.cpp ****         tailBlocked = pcb;
  71              		.loc 1 51 9 is_stmt 1
  72              		.loc 1 51 21 is_stmt 0
  73 0048 2334B500 		sd	a1,8(a0)
  74              	.L3:
  52:src/KSemaphore.cpp ****     }
  53:src/KSemaphore.cpp **** }
  75              		.loc 1 53 1
  76 004c 03348100 		ld	s0,8(sp)
  77              		.cfi_remember_state
  78              		.cfi_restore 8
  79              		.cfi_def_cfa 2, 16
  80 0050 13010101 		addi	sp,sp,16
  81              		.cfi_def_cfa_offset 0
  82 0054 67800000 		jr	ra
  83              	.L7:
  84              		.cfi_restore_state
  46:src/KSemaphore.cpp ****     }
  85              		.loc 1 46 9 is_stmt 1
  46:src/KSemaphore.cpp ****     }
  86              		.loc 1 46 35 is_stmt 0
  87 0058 2334B500 		sd	a1,8(a0)
  46:src/KSemaphore.cpp ****     }
  88              		.loc 1 46 21
  89 005c 2330B500 		sd	a1,0(a0)
  90 0060 6FF0DFFE 		j	.L3
  91              		.cfi_endproc
  92              	.LFE29:
  94              		.align	2
  95              		.globl	_ZN10KSemaphore5blockEv
  97              	_ZN10KSemaphore5blockEv:
  98              	.LFB30:
  54:src/KSemaphore.cpp **** 
  55:src/KSemaphore.cpp **** void KSemaphore::block() {
  99              		.loc 1 55 26 is_stmt 1
 100              		.cfi_startproc
 101              	.LVL2:
 102 0064 130101FF 		addi	sp,sp,-16
 103              		.cfi_def_cfa_offset 16
 104 0068 23341100 		sd	ra,8(sp)
 105 006c 23308100 		sd	s0,0(sp)
 106              		.cfi_offset 1, -8
 107              		.cfi_offset 8, -16
 108 0070 13040101 		addi	s0,sp,16
 109              		.cfi_def_cfa 8, 0
  56:src/KSemaphore.cpp ****     PCB::running->setState(PCB::SUSPENDED);
 110              		.loc 1 56 5
 111              		.loc 1 56 27 is_stmt 0
 112 0074 97070000 		la	a5,_ZN3PCB7runningE
 112      83B70700 
 113 007c 83B50700 		ld	a1,0(a5)
 114              	.LVL3:
 115              	.LBB5:
 116              	.LBB6:
GAS LISTING /tmp/ccFBpNwP.s 			page 4


 117              		.file 2 "src/../h/PCB.hpp"
   1:src/../h/PCB.hpp **** //
   2:src/../h/PCB.hpp **** // Created by os on 4/27/22.
   3:src/../h/PCB.hpp **** //
   4:src/../h/PCB.hpp **** 
   5:src/../h/PCB.hpp **** #ifndef PROJECT_BASE_V1_0_PCB_HPP
   6:src/../h/PCB.hpp **** #define PROJECT_BASE_V1_0_PCB_HPP
   7:src/../h/PCB.hpp **** 
   8:src/../h/PCB.hpp **** #include "../lib/hw.h"
   9:src/../h/PCB.hpp **** #include "Scheduler.hpp"
  10:src/../h/PCB.hpp **** #include "Riscv.hpp"
  11:src/../h/PCB.hpp **** 
  12:src/../h/PCB.hpp **** class PCB
  13:src/../h/PCB.hpp **** {
  14:src/../h/PCB.hpp **** public:
  15:src/../h/PCB.hpp ****     using Body = void (*)(void*);
  16:src/../h/PCB.hpp **** 
  17:src/../h/PCB.hpp ****     PCB(Body body,  void* args, void* stack_space, uint64 timeSlice);
  18:src/../h/PCB.hpp ****     ~PCB();
  19:src/../h/PCB.hpp **** 
  20:src/../h/PCB.hpp ****     void start();
  21:src/../h/PCB.hpp ****     static void dispatch();
  22:src/../h/PCB.hpp ****     static void sleep(time_t);
  23:src/../h/PCB.hpp **** 
  24:src/../h/PCB.hpp ****     static PCB* running;
  25:src/../h/PCB.hpp ****     static PCB* exitingPCB;
  26:src/../h/PCB.hpp **** 
  27:src/../h/PCB.hpp ****     static uint64 timeSliceCounter;
  28:src/../h/PCB.hpp ****     uint64 getTimeSlice() { return timeSlice;}
  29:src/../h/PCB.hpp **** 
  30:src/../h/PCB.hpp ****     void* operator new(size_t size);
  31:src/../h/PCB.hpp ****     void operator delete(void *p);
  32:src/../h/PCB.hpp **** 
  33:src/../h/PCB.hpp ****     enum State{READY, RUNNING, SUSPENDED, FINISHED, EXITING, SLEEPING};
  34:src/../h/PCB.hpp ****     State getState() {return state;}
  35:src/../h/PCB.hpp ****     void setState(State s) {state = s;}
 118              		.loc 2 35 29 is_stmt 1
 119              		.loc 2 35 35 is_stmt 0
 120 0080 93072000 		li	a5,2
 121 0084 23A8F502 		sw	a5,48(a1)
 122              	.LVL4:
 123              	.LBE6:
 124              	.LBE5:
  57:src/KSemaphore.cpp ****     addToBlocked(PCB::running);
 125              		.loc 1 57 5 is_stmt 1
 126              		.loc 1 57 17 is_stmt 0
 127 0088 97000000 		call	_ZN10KSemaphore12addToBlockedEP3PCB
 127      E7800000 
 128              	.LVL5:
  58:src/KSemaphore.cpp ****     PCB::dispatch();
 129              		.loc 1 58 5 is_stmt 1
 130              		.loc 1 58 18 is_stmt 0
 131 0090 97000000 		call	_ZN3PCB8dispatchEv@plt
 131      E7800000 
 132              	.LVL6:
  59:src/KSemaphore.cpp **** }
 133              		.loc 1 59 1
GAS LISTING /tmp/ccFBpNwP.s 			page 5


 134 0098 83308100 		ld	ra,8(sp)
 135              		.cfi_restore 1
 136 009c 03340100 		ld	s0,0(sp)
 137              		.cfi_restore 8
 138              		.cfi_def_cfa 2, 16
 139 00a0 13010101 		addi	sp,sp,16
 140              		.cfi_def_cfa_offset 0
 141 00a4 67800000 		jr	ra
 142              		.cfi_endproc
 143              	.LFE30:
 145              		.align	2
 146              		.globl	_ZN10KSemaphore4waitEv
 148              	_ZN10KSemaphore4waitEv:
 149              	.LFB24:
  14:src/KSemaphore.cpp ****     if(--val < 0)
 150              		.loc 1 14 27 is_stmt 1
 151              		.cfi_startproc
 152              	.LVL7:
  15:src/KSemaphore.cpp ****         block();
 153              		.loc 1 15 5
  15:src/KSemaphore.cpp ****         block();
 154              		.loc 1 15 10 is_stmt 0
 155 00a8 83270501 		lw	a5,16(a0)
  15:src/KSemaphore.cpp ****         block();
 156              		.loc 1 15 8
 157 00ac 9B87F7FF 		addiw	a5,a5,-1
  15:src/KSemaphore.cpp ****         block();
 158              		.loc 1 15 14
 159 00b0 2328F500 		sw	a5,16(a0)
  15:src/KSemaphore.cpp ****         block();
 160              		.loc 1 15 5
 161 00b4 13970702 		slli	a4,a5,32
 162 00b8 63460700 		bltz	a4,.L16
  18:src/KSemaphore.cpp **** }
 163              		.loc 1 18 5 is_stmt 1
  19:src/KSemaphore.cpp **** 
 164              		.loc 1 19 1 is_stmt 0
 165 00bc 13050000 		li	a0,0
 166              	.LVL8:
 167 00c0 67800000 		ret
 168              	.LVL9:
 169              	.L16:
  14:src/KSemaphore.cpp ****     if(--val < 0)
 170              		.loc 1 14 27
 171 00c4 130101FF 		addi	sp,sp,-16
 172              		.cfi_def_cfa_offset 16
 173 00c8 23341100 		sd	ra,8(sp)
 174 00cc 23308100 		sd	s0,0(sp)
 175              		.cfi_offset 1, -8
 176              		.cfi_offset 8, -16
 177 00d0 13040101 		addi	s0,sp,16
 178              		.cfi_def_cfa 8, 0
  16:src/KSemaphore.cpp **** 
 179              		.loc 1 16 9 is_stmt 1
  16:src/KSemaphore.cpp **** 
 180              		.loc 1 16 14 is_stmt 0
 181 00d4 97000000 		call	_ZN10KSemaphore5blockEv
GAS LISTING /tmp/ccFBpNwP.s 			page 6


 181      E7800000 
 182              	.LVL10:
  18:src/KSemaphore.cpp **** }
 183              		.loc 1 18 5 is_stmt 1
  19:src/KSemaphore.cpp **** 
 184              		.loc 1 19 1 is_stmt 0
 185 00dc 13050000 		li	a0,0
 186 00e0 83308100 		ld	ra,8(sp)
 187              		.cfi_restore 1
 188 00e4 03340100 		ld	s0,0(sp)
 189              		.cfi_restore 8
 190              		.cfi_def_cfa 2, 16
 191 00e8 13010101 		addi	sp,sp,16
 192              		.cfi_def_cfa_offset 0
 193 00ec 67800000 		jr	ra
 194              		.cfi_endproc
 195              	.LFE24:
 197              		.align	2
 198              		.globl	_ZN10KSemaphore15getFirstBlockedEv
 200              	_ZN10KSemaphore15getFirstBlockedEv:
 201              	.LFB31:
  60:src/KSemaphore.cpp **** 
  61:src/KSemaphore.cpp **** PCB* KSemaphore::getFirstBlocked()
  62:src/KSemaphore.cpp **** {
 202              		.loc 1 62 1 is_stmt 1
 203              		.cfi_startproc
 204              	.LVL11:
 205 00f0 130101FF 		addi	sp,sp,-16
 206              		.cfi_def_cfa_offset 16
 207 00f4 23348100 		sd	s0,8(sp)
 208              		.cfi_offset 8, -8
 209 00f8 13040101 		addi	s0,sp,16
 210              		.cfi_def_cfa 8, 0
  63:src/KSemaphore.cpp ****    return headBlocked;
 211              		.loc 1 63 4
  64:src/KSemaphore.cpp **** }
 212              		.loc 1 64 1 is_stmt 0
 213 00fc 03350500 		ld	a0,0(a0)
 214              	.LVL12:
 215 0100 03348100 		ld	s0,8(sp)
 216              		.cfi_restore 8
 217              		.cfi_def_cfa 2, 16
 218 0104 13010101 		addi	sp,sp,16
 219              		.cfi_def_cfa_offset 0
 220 0108 67800000 		jr	ra
 221              		.cfi_endproc
 222              	.LFE31:
 224              		.align	2
 225              		.globl	_ZN10KSemaphore18removeFirstBlockedEv
 227              	_ZN10KSemaphore18removeFirstBlockedEv:
 228              	.LFB32:
  65:src/KSemaphore.cpp **** 
  66:src/KSemaphore.cpp **** void KSemaphore::removeFirstBlocked()
  67:src/KSemaphore.cpp **** {
 229              		.loc 1 67 1 is_stmt 1
 230              		.cfi_startproc
 231              	.LVL13:
GAS LISTING /tmp/ccFBpNwP.s 			page 7


 232 010c 130101FF 		addi	sp,sp,-16
 233              		.cfi_def_cfa_offset 16
 234 0110 23348100 		sd	s0,8(sp)
 235              		.cfi_offset 8, -8
 236 0114 13040101 		addi	s0,sp,16
 237              		.cfi_def_cfa 8, 0
  68:src/KSemaphore.cpp ****     if(headBlocked == 0)
 238              		.loc 1 68 5
 239              		.loc 1 68 8 is_stmt 0
 240 0118 83370500 		ld	a5,0(a0)
 241              		.loc 1 68 5
 242 011c 638C0700 		beqz	a5,.L19
  69:src/KSemaphore.cpp ****         return;
  70:src/KSemaphore.cpp ****     PCB* first = headBlocked;
 243              		.loc 1 70 5 is_stmt 1
 244              	.LVL14:
  71:src/KSemaphore.cpp ****     headBlocked = headBlocked->nextPCB;
 245              		.loc 1 71 5
 246              		.loc 1 71 32 is_stmt 0
 247 0120 03B70700 		ld	a4,0(a5)
 248              		.loc 1 71 17
 249 0124 2330E500 		sd	a4,0(a0)
  72:src/KSemaphore.cpp ****     first->nextPCB = 0;
 250              		.loc 1 72 5 is_stmt 1
 251              		.loc 1 72 20 is_stmt 0
 252 0128 23B00700 		sd	zero,0(a5)
  73:src/KSemaphore.cpp ****     if(headBlocked == 0)
 253              		.loc 1 73 5 is_stmt 1
 254              		.loc 1 73 8 is_stmt 0
 255 012c 83370500 		ld	a5,0(a0)
 256              	.LVL15:
 257              		.loc 1 73 5
 258 0130 63880700 		beqz	a5,.L22
 259              	.L19:
  74:src/KSemaphore.cpp ****         tailBlocked =0;
  75:src/KSemaphore.cpp **** }
 260              		.loc 1 75 1
 261 0134 03348100 		ld	s0,8(sp)
 262              		.cfi_remember_state
 263              		.cfi_restore 8
 264              		.cfi_def_cfa 2, 16
 265 0138 13010101 		addi	sp,sp,16
 266              		.cfi_def_cfa_offset 0
 267 013c 67800000 		jr	ra
 268              	.L22:
 269              		.cfi_restore_state
  74:src/KSemaphore.cpp ****         tailBlocked =0;
 270              		.loc 1 74 9 is_stmt 1
  74:src/KSemaphore.cpp ****         tailBlocked =0;
 271              		.loc 1 74 21 is_stmt 0
 272 0140 23340500 		sd	zero,8(a0)
 273 0144 6FF01FFF 		j	.L19
 274              		.cfi_endproc
 275              	.LFE32:
 277              		.align	2
 278              		.globl	_ZN10KSemaphoreD2Ev
 280              	_ZN10KSemaphoreD2Ev:
GAS LISTING /tmp/ccFBpNwP.s 			page 8


 281              	.LFB27:
  31:src/KSemaphore.cpp ****     //todo
 282              		.loc 1 31 1 is_stmt 1
 283              		.cfi_startproc
 284              		.cfi_personality 0x9b,DW.ref.__gxx_personality_v0
 285              		.cfi_lsda 0x1b,.LLSDA27
 286              	.LVL16:
 287 0148 130101FE 		addi	sp,sp,-32
 288              		.cfi_def_cfa_offset 32
 289 014c 233C1100 		sd	ra,24(sp)
 290 0150 23388100 		sd	s0,16(sp)
 291 0154 23349100 		sd	s1,8(sp)
 292 0158 23302101 		sd	s2,0(sp)
 293              		.cfi_offset 1, -8
 294              		.cfi_offset 8, -16
 295              		.cfi_offset 9, -24
 296              		.cfi_offset 18, -32
 297 015c 13040102 		addi	s0,sp,32
 298              		.cfi_def_cfa 8, 0
 299 0160 13090500 		mv	s2,a0
 300              	.LVL17:
 301              	.L25:
 302              	.LBB7:
  33:src/KSemaphore.cpp ****     {
 303              		.loc 1 33 5
  33:src/KSemaphore.cpp ****     {
 304              		.loc 1 33 29
  33:src/KSemaphore.cpp ****     {
 305              		.loc 1 33 26 is_stmt 0
 306 0164 13050900 		mv	a0,s2
 307 0168 97000000 		call	_ZN10KSemaphore15getFirstBlockedEv
 307      E7800000 
 308              	.LVL18:
 309 0170 93040500 		mv	s1,a0
  33:src/KSemaphore.cpp ****     {
 310              		.loc 1 33 29
 311 0174 63000502 		beqz	a0,.L23
 312              	.LBB8:
  35:src/KSemaphore.cpp ****         removeFirstBlocked();
 313              		.loc 1 35 9 is_stmt 1
 314              	.LVL19:
  36:src/KSemaphore.cpp ****         Scheduler::put(pcb);
 315              		.loc 1 36 9
  36:src/KSemaphore.cpp ****         Scheduler::put(pcb);
 316              		.loc 1 36 27 is_stmt 0
 317 0178 13050900 		mv	a0,s2
 318 017c 97000000 		call	_ZN10KSemaphore18removeFirstBlockedEv
 318      E7800000 
 319              	.LVL20:
  37:src/KSemaphore.cpp ****     }
 320              		.loc 1 37 9 is_stmt 1
  37:src/KSemaphore.cpp ****     }
 321              		.loc 1 37 23 is_stmt 0
 322 0184 13850400 		mv	a0,s1
 323 0188 97000000 		call	_ZN9Scheduler3putEP3PCB@plt
 323      E7800000 
 324              	.LVL21:
GAS LISTING /tmp/ccFBpNwP.s 			page 9


 325              	.LBE8:
  33:src/KSemaphore.cpp ****     {
 326              		.loc 1 33 5
 327 0190 6FF05FFD 		j	.L25
 328              	.LVL22:
 329              	.L23:
 330              	.LBE7:
  39:src/KSemaphore.cpp **** 
 331              		.loc 1 39 1
 332 0194 83308101 		ld	ra,24(sp)
 333              		.cfi_restore 1
 334 0198 03340101 		ld	s0,16(sp)
 335              		.cfi_restore 8
 336              		.cfi_def_cfa 2, 32
 337 019c 83348100 		ld	s1,8(sp)
 338              		.cfi_restore 9
 339 01a0 03390100 		ld	s2,0(sp)
 340              		.cfi_restore 18
 341              	.LVL23:
 342 01a4 13010102 		addi	sp,sp,32
 343              		.cfi_def_cfa_offset 0
 344 01a8 67800000 		jr	ra
 345              		.cfi_endproc
 346              	.LFE27:
 347              		.globl	__gxx_personality_v0
 348              		.section	.gcc_except_table,"a",@progbits
 349              	.LLSDA27:
 350 0000 FF       		.byte	0xff
 351 0001 FF       		.byte	0xff
 352 0002 03       		.byte	0x3
 353 0003 00       		.byte	0
 354              		.text
 356              		.globl	_ZN10KSemaphoreD1Ev
 357              		.set	_ZN10KSemaphoreD1Ev,_ZN10KSemaphoreD2Ev
 358              		.align	2
 359              		.globl	_ZN10KSemaphore7unblockEv
 361              	_ZN10KSemaphore7unblockEv:
 362              	.LFB33:
  76:src/KSemaphore.cpp **** 
  77:src/KSemaphore.cpp **** void KSemaphore::unblock() {
 363              		.loc 1 77 28 is_stmt 1
 364              		.cfi_startproc
 365              	.LVL24:
 366 01ac 130101FE 		addi	sp,sp,-32
 367              		.cfi_def_cfa_offset 32
 368 01b0 233C1100 		sd	ra,24(sp)
 369 01b4 23388100 		sd	s0,16(sp)
 370 01b8 23349100 		sd	s1,8(sp)
 371 01bc 23302101 		sd	s2,0(sp)
 372              		.cfi_offset 1, -8
 373              		.cfi_offset 8, -16
 374              		.cfi_offset 9, -24
 375              		.cfi_offset 18, -32
 376 01c0 13040102 		addi	s0,sp,32
 377              		.cfi_def_cfa 8, 0
 378 01c4 13090500 		mv	s2,a0
  78:src/KSemaphore.cpp ****     PCB* fr = getFirstBlocked();
GAS LISTING /tmp/ccFBpNwP.s 			page 10


 379              		.loc 1 78 5
 380              		.loc 1 78 30 is_stmt 0
 381 01c8 97000000 		call	_ZN10KSemaphore15getFirstBlockedEv
 381      E7800000 
 382              	.LVL25:
 383 01d0 93040500 		mv	s1,a0
 384              	.LVL26:
  79:src/KSemaphore.cpp ****     removeFirstBlocked();
 385              		.loc 1 79 5 is_stmt 1
 386              		.loc 1 79 23 is_stmt 0
 387 01d4 13050900 		mv	a0,s2
 388 01d8 97000000 		call	_ZN10KSemaphore18removeFirstBlockedEv
 388      E7800000 
 389              	.LVL27:
  80:src/KSemaphore.cpp ****     if(fr != 0)
 390              		.loc 1 80 5 is_stmt 1
 391 01e0 63880400 		beqz	s1,.L27
  81:src/KSemaphore.cpp ****         Scheduler::put(fr);
 392              		.loc 1 81 9
 393              		.loc 1 81 23 is_stmt 0
 394 01e4 13850400 		mv	a0,s1
 395 01e8 97000000 		call	_ZN9Scheduler3putEP3PCB@plt
 395      E7800000 
 396              	.LVL28:
 397              	.L27:
  82:src/KSemaphore.cpp **** }
 398              		.loc 1 82 1
 399 01f0 83308101 		ld	ra,24(sp)
 400              		.cfi_restore 1
 401 01f4 03340101 		ld	s0,16(sp)
 402              		.cfi_restore 8
 403              		.cfi_def_cfa 2, 32
 404 01f8 83348100 		ld	s1,8(sp)
 405              		.cfi_restore 9
 406              	.LVL29:
 407 01fc 03390100 		ld	s2,0(sp)
 408              		.cfi_restore 18
 409              	.LVL30:
 410 0200 13010102 		addi	sp,sp,32
 411              		.cfi_def_cfa_offset 0
 412 0204 67800000 		jr	ra
 413              		.cfi_endproc
 414              	.LFE33:
 416              		.align	2
 417              		.globl	_ZN10KSemaphore6signalEv
 419              	_ZN10KSemaphore6signalEv:
 420              	.LFB25:
  22:src/KSemaphore.cpp ****     if(++val <= 0)
 421              		.loc 1 22 29 is_stmt 1
 422              		.cfi_startproc
 423              	.LVL31:
  23:src/KSemaphore.cpp ****         unblock();
 424              		.loc 1 23 5
  23:src/KSemaphore.cpp ****         unblock();
 425              		.loc 1 23 10 is_stmt 0
 426 0208 83270501 		lw	a5,16(a0)
  23:src/KSemaphore.cpp ****         unblock();
GAS LISTING /tmp/ccFBpNwP.s 			page 11


 427              		.loc 1 23 8
 428 020c 9B871700 		addiw	a5,a5,1
 429 0210 1B870700 		sext.w	a4,a5
  23:src/KSemaphore.cpp ****         unblock();
 430              		.loc 1 23 14
 431 0214 2328F500 		sw	a5,16(a0)
  23:src/KSemaphore.cpp ****         unblock();
 432              		.loc 1 23 5
 433 0218 635AE000 		blez	a4,.L37
  26:src/KSemaphore.cpp **** 
 434              		.loc 1 26 9 is_stmt 1
  26:src/KSemaphore.cpp **** 
 435              		.loc 1 26 15 is_stmt 0
 436 021c 83274501 		lw	a5,20(a0)
  26:src/KSemaphore.cpp **** 
 437              		.loc 1 26 13
 438 0220 2328F500 		sw	a5,16(a0)
  28:src/KSemaphore.cpp **** }
 439              		.loc 1 28 5 is_stmt 1
  29:src/KSemaphore.cpp **** 
 440              		.loc 1 29 1 is_stmt 0
 441 0224 13050000 		li	a0,0
 442              	.LVL32:
 443 0228 67800000 		ret
 444              	.LVL33:
 445              	.L37:
  22:src/KSemaphore.cpp ****     if(++val <= 0)
 446              		.loc 1 22 29
 447 022c 130101FF 		addi	sp,sp,-16
 448              		.cfi_def_cfa_offset 16
 449 0230 23341100 		sd	ra,8(sp)
 450 0234 23308100 		sd	s0,0(sp)
 451              		.cfi_offset 1, -8
 452              		.cfi_offset 8, -16
 453 0238 13040101 		addi	s0,sp,16
 454              		.cfi_def_cfa 8, 0
  24:src/KSemaphore.cpp ****     else
 455              		.loc 1 24 9 is_stmt 1
  24:src/KSemaphore.cpp ****     else
 456              		.loc 1 24 16 is_stmt 0
 457 023c 97000000 		call	_ZN10KSemaphore7unblockEv
 457      E7800000 
 458              	.LVL34:
  28:src/KSemaphore.cpp **** }
 459              		.loc 1 28 5 is_stmt 1
  29:src/KSemaphore.cpp **** 
 460              		.loc 1 29 1 is_stmt 0
 461 0244 13050000 		li	a0,0
 462 0248 83308100 		ld	ra,8(sp)
 463              		.cfi_restore 1
 464 024c 03340100 		ld	s0,0(sp)
 465              		.cfi_restore 8
 466              		.cfi_def_cfa 2, 16
 467 0250 13010101 		addi	sp,sp,16
 468              		.cfi_def_cfa_offset 0
 469 0254 67800000 		jr	ra
 470              		.cfi_endproc
GAS LISTING /tmp/ccFBpNwP.s 			page 12


 471              	.LFE25:
 473              		.align	2
 474              		.globl	_ZN10KSemaphorenwEm
 476              	_ZN10KSemaphorenwEm:
 477              	.LFB34:
  83:src/KSemaphore.cpp **** 
  84:src/KSemaphore.cpp **** void *KSemaphore::operator new(size_t size) {
 478              		.loc 1 84 45 is_stmt 1
 479              		.cfi_startproc
 480              	.LVL35:
 481 0258 130101FF 		addi	sp,sp,-16
 482              		.cfi_def_cfa_offset 16
 483 025c 23341100 		sd	ra,8(sp)
 484 0260 23308100 		sd	s0,0(sp)
 485              		.cfi_offset 1, -8
 486              		.cfi_offset 8, -16
 487 0264 13040101 		addi	s0,sp,16
 488              		.cfi_def_cfa 8, 0
  85:src/KSemaphore.cpp ****     return kmalloc(size);
 489              		.loc 1 85 5
 490              		.loc 1 85 19 is_stmt 0
 491 0268 97000000 		call	_Z7kmallocm@plt
 491      E7800000 
 492              	.LVL36:
  86:src/KSemaphore.cpp **** }
 493              		.loc 1 86 1
 494 0270 83308100 		ld	ra,8(sp)
 495              		.cfi_restore 1
 496 0274 03340100 		ld	s0,0(sp)
 497              		.cfi_restore 8
 498              		.cfi_def_cfa 2, 16
 499 0278 13010101 		addi	sp,sp,16
 500              		.cfi_def_cfa_offset 0
 501 027c 67800000 		jr	ra
 502              		.cfi_endproc
 503              	.LFE34:
 505              		.align	2
 506              		.globl	_ZN10KSemaphoredlEPv
 508              	_ZN10KSemaphoredlEPv:
 509              	.LFB35:
  87:src/KSemaphore.cpp **** 
  88:src/KSemaphore.cpp **** void KSemaphore::operator delete(void *p) {
 510              		.loc 1 88 43 is_stmt 1
 511              		.cfi_startproc
 512              	.LVL37:
 513 0280 130101FF 		addi	sp,sp,-16
 514              		.cfi_def_cfa_offset 16
 515 0284 23341100 		sd	ra,8(sp)
 516 0288 23308100 		sd	s0,0(sp)
 517              		.cfi_offset 1, -8
 518              		.cfi_offset 8, -16
 519 028c 13040101 		addi	s0,sp,16
 520              		.cfi_def_cfa 8, 0
  89:src/KSemaphore.cpp ****     kfree(p);
 521              		.loc 1 89 5
 522              		.loc 1 89 10 is_stmt 0
 523 0290 97000000 		call	_Z5kfreePv@plt
GAS LISTING /tmp/ccFBpNwP.s 			page 13


 523      E7800000 
 524              	.LVL38:
  90:src/KSemaphore.cpp **** }
 525              		.loc 1 90 1
 526 0298 83308100 		ld	ra,8(sp)
 527              		.cfi_restore 1
 528 029c 03340100 		ld	s0,0(sp)
 529              		.cfi_restore 8
 530              		.cfi_def_cfa 2, 16
 531 02a0 13010101 		addi	sp,sp,16
 532              		.cfi_def_cfa_offset 0
 533 02a4 67800000 		jr	ra
 534              		.cfi_endproc
 535              	.LFE35:
 537              	.Letext0:
 538              		.file 3 "src/../h/../lib/hw.h"
 539              		.file 4 "src/../h/Queue.hpp"
 540              		.file 5 "src/../h/Scheduler.hpp"
 541              		.file 6 "src/../h/KSemaphore.hpp"
 542              		.file 7 "src/../h/MemoryAllocator.hpp"
 3535              		.align	3
 3538              	DW.ref.__gxx_personality_v0:
 3539 0000 00000000 		.dword	__gxx_personality_v0
 3539      00000000 
 3540              		.ident	"GCC: (Ubuntu 9.3.0-17ubuntu1~20.04) 9.3.0"
 3541              		.section	.note.GNU-stack,"",@progbits
GAS LISTING /tmp/ccFBpNwP.s 			page 14


DEFINED SYMBOLS
                            *ABS*:0000000000000000 KSemaphore.cpp
     /tmp/ccFBpNwP.s:9      .text:0000000000000000 _ZN10KSemaphoreC2Ei
     /tmp/ccFBpNwP.s:13     .text:0000000000000000 .L0 
     /tmp/ccFBpNwP.s:15     .text:0000000000000000 .L0 
     /tmp/ccFBpNwP.s:16     .text:0000000000000004 .L0 
     /tmp/ccFBpNwP.s:18     .text:0000000000000008 .L0 
     /tmp/ccFBpNwP.s:20     .text:000000000000000c .L0 
     /tmp/ccFBpNwP.s:23     .text:000000000000000c .L0 
     /tmp/ccFBpNwP.s:24     .text:000000000000000c .L0 
     /tmp/ccFBpNwP.s:26     .text:0000000000000010 .L0 
     /tmp/ccFBpNwP.s:28     .text:0000000000000014 .L0 
     /tmp/ccFBpNwP.s:29     .text:0000000000000014 .L0 
     /tmp/ccFBpNwP.s:31     .text:0000000000000018 .L0 
     /tmp/ccFBpNwP.s:34     .text:000000000000001c .L0 
     /tmp/ccFBpNwP.s:35     .text:0000000000000020 .L0 
     /tmp/ccFBpNwP.s:36     .text:0000000000000020 .L0 
     /tmp/ccFBpNwP.s:38     .text:0000000000000024 .L0 
     /tmp/ccFBpNwP.s:40     .text:0000000000000028 .L0 
     /tmp/ccFBpNwP.s:9      .text:0000000000000000 _ZN10KSemaphoreC1Ei
     /tmp/ccFBpNwP.s:48     .text:0000000000000028 _ZN10KSemaphore12addToBlockedEP3PCB
     /tmp/ccFBpNwP.s:51     .text:0000000000000028 .L0 
     /tmp/ccFBpNwP.s:53     .text:0000000000000028 .L0 
     /tmp/ccFBpNwP.s:54     .text:000000000000002c .L0 
     /tmp/ccFBpNwP.s:56     .text:0000000000000030 .L0 
     /tmp/ccFBpNwP.s:58     .text:0000000000000034 .L0 
     /tmp/ccFBpNwP.s:60     .text:0000000000000034 .L0 
     /tmp/ccFBpNwP.s:61     .text:0000000000000034 .L0 
     /tmp/ccFBpNwP.s:63     .text:0000000000000038 .L0 
     /tmp/ccFBpNwP.s:64     .text:0000000000000038 .L0 
     /tmp/ccFBpNwP.s:66     .text:000000000000003c .L0 
     /tmp/ccFBpNwP.s:68     .text:0000000000000040 .L0 
     /tmp/ccFBpNwP.s:70     .text:0000000000000044 .L0 
     /tmp/ccFBpNwP.s:72     .text:0000000000000048 .L0 
     /tmp/ccFBpNwP.s:73     .text:0000000000000048 .L0 
     /tmp/ccFBpNwP.s:76     .text:000000000000004c .L0 
     /tmp/ccFBpNwP.s:77     .text:0000000000000050 .L0 
     /tmp/ccFBpNwP.s:78     .text:0000000000000050 .L0 
     /tmp/ccFBpNwP.s:79     .text:0000000000000050 .L0 
     /tmp/ccFBpNwP.s:81     .text:0000000000000054 .L0 
     /tmp/ccFBpNwP.s:84     .text:0000000000000058 .L0 
     /tmp/ccFBpNwP.s:86     .text:0000000000000058 .L0 
     /tmp/ccFBpNwP.s:87     .text:0000000000000058 .L0 
     /tmp/ccFBpNwP.s:89     .text:000000000000005c .L0 
     /tmp/ccFBpNwP.s:91     .text:0000000000000064 .L0 
     /tmp/ccFBpNwP.s:97     .text:0000000000000064 _ZN10KSemaphore5blockEv
     /tmp/ccFBpNwP.s:100    .text:0000000000000064 .L0 
     /tmp/ccFBpNwP.s:102    .text:0000000000000064 .L0 
     /tmp/ccFBpNwP.s:103    .text:0000000000000068 .L0 
     /tmp/ccFBpNwP.s:106    .text:0000000000000070 .L0 
     /tmp/ccFBpNwP.s:107    .text:0000000000000070 .L0 
     /tmp/ccFBpNwP.s:109    .text:0000000000000074 .L0 
     /tmp/ccFBpNwP.s:111    .text:0000000000000074 .L0 
     /tmp/ccFBpNwP.s:112    .text:0000000000000074 .L0 
     /tmp/ccFBpNwP.s:119    .text:0000000000000080 .L0 
     /tmp/ccFBpNwP.s:120    .text:0000000000000080 .L0 
     /tmp/ccFBpNwP.s:126    .text:0000000000000088 .L0 
GAS LISTING /tmp/ccFBpNwP.s 			page 15


     /tmp/ccFBpNwP.s:127    .text:0000000000000088 .L0 
     /tmp/ccFBpNwP.s:130    .text:0000000000000090 .L0 
     /tmp/ccFBpNwP.s:131    .text:0000000000000090 .L0 
     /tmp/ccFBpNwP.s:134    .text:0000000000000098 .L0 
     /tmp/ccFBpNwP.s:135    .text:000000000000009c .L0 
     /tmp/ccFBpNwP.s:137    .text:00000000000000a0 .L0 
     /tmp/ccFBpNwP.s:138    .text:00000000000000a0 .L0 
     /tmp/ccFBpNwP.s:140    .text:00000000000000a4 .L0 
     /tmp/ccFBpNwP.s:142    .text:00000000000000a8 .L0 
     /tmp/ccFBpNwP.s:148    .text:00000000000000a8 _ZN10KSemaphore4waitEv
     /tmp/ccFBpNwP.s:151    .text:00000000000000a8 .L0 
     /tmp/ccFBpNwP.s:153    .text:00000000000000a8 .L0 
     /tmp/ccFBpNwP.s:154    .text:00000000000000a8 .L0 
     /tmp/ccFBpNwP.s:155    .text:00000000000000a8 .L0 
     /tmp/ccFBpNwP.s:157    .text:00000000000000ac .L0 
     /tmp/ccFBpNwP.s:159    .text:00000000000000b0 .L0 
     /tmp/ccFBpNwP.s:161    .text:00000000000000b4 .L0 
     /tmp/ccFBpNwP.s:164    .text:00000000000000bc .L0 
     /tmp/ccFBpNwP.s:165    .text:00000000000000bc .L0 
     /tmp/ccFBpNwP.s:171    .text:00000000000000c4 .L0 
     /tmp/ccFBpNwP.s:172    .text:00000000000000c8 .L0 
     /tmp/ccFBpNwP.s:175    .text:00000000000000d0 .L0 
     /tmp/ccFBpNwP.s:176    .text:00000000000000d0 .L0 
     /tmp/ccFBpNwP.s:178    .text:00000000000000d4 .L0 
     /tmp/ccFBpNwP.s:180    .text:00000000000000d4 .L0 
     /tmp/ccFBpNwP.s:181    .text:00000000000000d4 .L0 
     /tmp/ccFBpNwP.s:184    .text:00000000000000dc .L0 
     /tmp/ccFBpNwP.s:185    .text:00000000000000dc .L0 
     /tmp/ccFBpNwP.s:187    .text:00000000000000e4 .L0 
     /tmp/ccFBpNwP.s:189    .text:00000000000000e8 .L0 
     /tmp/ccFBpNwP.s:190    .text:00000000000000e8 .L0 
     /tmp/ccFBpNwP.s:192    .text:00000000000000ec .L0 
     /tmp/ccFBpNwP.s:194    .text:00000000000000f0 .L0 
     /tmp/ccFBpNwP.s:200    .text:00000000000000f0 _ZN10KSemaphore15getFirstBlockedEv
     /tmp/ccFBpNwP.s:203    .text:00000000000000f0 .L0 
     /tmp/ccFBpNwP.s:205    .text:00000000000000f0 .L0 
     /tmp/ccFBpNwP.s:206    .text:00000000000000f4 .L0 
     /tmp/ccFBpNwP.s:208    .text:00000000000000f8 .L0 
     /tmp/ccFBpNwP.s:210    .text:00000000000000fc .L0 
     /tmp/ccFBpNwP.s:212    .text:00000000000000fc .L0 
     /tmp/ccFBpNwP.s:213    .text:00000000000000fc .L0 
     /tmp/ccFBpNwP.s:216    .text:0000000000000104 .L0 
     /tmp/ccFBpNwP.s:217    .text:0000000000000104 .L0 
     /tmp/ccFBpNwP.s:219    .text:0000000000000108 .L0 
     /tmp/ccFBpNwP.s:221    .text:000000000000010c .L0 
     /tmp/ccFBpNwP.s:227    .text:000000000000010c _ZN10KSemaphore18removeFirstBlockedEv
     /tmp/ccFBpNwP.s:230    .text:000000000000010c .L0 
     /tmp/ccFBpNwP.s:232    .text:000000000000010c .L0 
     /tmp/ccFBpNwP.s:233    .text:0000000000000110 .L0 
     /tmp/ccFBpNwP.s:235    .text:0000000000000114 .L0 
     /tmp/ccFBpNwP.s:237    .text:0000000000000118 .L0 
     /tmp/ccFBpNwP.s:239    .text:0000000000000118 .L0 
     /tmp/ccFBpNwP.s:240    .text:0000000000000118 .L0 
     /tmp/ccFBpNwP.s:242    .text:000000000000011c .L0 
     /tmp/ccFBpNwP.s:245    .text:0000000000000120 .L0 
     /tmp/ccFBpNwP.s:246    .text:0000000000000120 .L0 
     /tmp/ccFBpNwP.s:247    .text:0000000000000120 .L0 
GAS LISTING /tmp/ccFBpNwP.s 			page 16


     /tmp/ccFBpNwP.s:249    .text:0000000000000124 .L0 
     /tmp/ccFBpNwP.s:251    .text:0000000000000128 .L0 
     /tmp/ccFBpNwP.s:252    .text:0000000000000128 .L0 
     /tmp/ccFBpNwP.s:254    .text:000000000000012c .L0 
     /tmp/ccFBpNwP.s:255    .text:000000000000012c .L0 
     /tmp/ccFBpNwP.s:258    .text:0000000000000130 .L0 
     /tmp/ccFBpNwP.s:261    .text:0000000000000134 .L0 
     /tmp/ccFBpNwP.s:262    .text:0000000000000138 .L0 
     /tmp/ccFBpNwP.s:263    .text:0000000000000138 .L0 
     /tmp/ccFBpNwP.s:264    .text:0000000000000138 .L0 
     /tmp/ccFBpNwP.s:266    .text:000000000000013c .L0 
     /tmp/ccFBpNwP.s:269    .text:0000000000000140 .L0 
     /tmp/ccFBpNwP.s:271    .text:0000000000000140 .L0 
     /tmp/ccFBpNwP.s:272    .text:0000000000000140 .L0 
     /tmp/ccFBpNwP.s:274    .text:0000000000000148 .L0 
     /tmp/ccFBpNwP.s:280    .text:0000000000000148 _ZN10KSemaphoreD2Ev
     /tmp/ccFBpNwP.s:283    .text:0000000000000148 .L0 
     /tmp/ccFBpNwP.s:3538   .data.rel.local.DW.ref.__gxx_personality_v0:0000000000000000 DW.ref.__gxx_personality_v0
     /tmp/ccFBpNwP.s:287    .text:0000000000000148 .L0 
     /tmp/ccFBpNwP.s:288    .text:000000000000014c .L0 
     /tmp/ccFBpNwP.s:293    .text:000000000000015c .L0 
     /tmp/ccFBpNwP.s:294    .text:000000000000015c .L0 
     /tmp/ccFBpNwP.s:295    .text:000000000000015c .L0 
     /tmp/ccFBpNwP.s:296    .text:000000000000015c .L0 
     /tmp/ccFBpNwP.s:298    .text:0000000000000160 .L0 
     /tmp/ccFBpNwP.s:304    .text:0000000000000164 .L0 
     /tmp/ccFBpNwP.s:305    .text:0000000000000164 .L0 
     /tmp/ccFBpNwP.s:306    .text:0000000000000164 .L0 
     /tmp/ccFBpNwP.s:311    .text:0000000000000174 .L0 
     /tmp/ccFBpNwP.s:315    .text:0000000000000178 .L0 
     /tmp/ccFBpNwP.s:316    .text:0000000000000178 .L0 
     /tmp/ccFBpNwP.s:317    .text:0000000000000178 .L0 
     /tmp/ccFBpNwP.s:321    .text:0000000000000184 .L0 
     /tmp/ccFBpNwP.s:322    .text:0000000000000184 .L0 
     /tmp/ccFBpNwP.s:327    .text:0000000000000190 .L0 
     /tmp/ccFBpNwP.s:332    .text:0000000000000194 .L0 
     /tmp/ccFBpNwP.s:333    .text:0000000000000198 .L0 
     /tmp/ccFBpNwP.s:335    .text:000000000000019c .L0 
     /tmp/ccFBpNwP.s:336    .text:000000000000019c .L0 
     /tmp/ccFBpNwP.s:338    .text:00000000000001a0 .L0 
     /tmp/ccFBpNwP.s:340    .text:00000000000001a4 .L0 
     /tmp/ccFBpNwP.s:343    .text:00000000000001a8 .L0 
     /tmp/ccFBpNwP.s:345    .text:00000000000001ac .L0 
     /tmp/ccFBpNwP.s:280    .text:0000000000000148 _ZN10KSemaphoreD1Ev
     /tmp/ccFBpNwP.s:361    .text:00000000000001ac _ZN10KSemaphore7unblockEv
     /tmp/ccFBpNwP.s:364    .text:00000000000001ac .L0 
     /tmp/ccFBpNwP.s:366    .text:00000000000001ac .L0 
     /tmp/ccFBpNwP.s:367    .text:00000000000001b0 .L0 
     /tmp/ccFBpNwP.s:372    .text:00000000000001c0 .L0 
     /tmp/ccFBpNwP.s:373    .text:00000000000001c0 .L0 
     /tmp/ccFBpNwP.s:374    .text:00000000000001c0 .L0 
     /tmp/ccFBpNwP.s:375    .text:00000000000001c0 .L0 
     /tmp/ccFBpNwP.s:377    .text:00000000000001c4 .L0 
     /tmp/ccFBpNwP.s:380    .text:00000000000001c8 .L0 
     /tmp/ccFBpNwP.s:381    .text:00000000000001c8 .L0 
     /tmp/ccFBpNwP.s:386    .text:00000000000001d4 .L0 
     /tmp/ccFBpNwP.s:387    .text:00000000000001d4 .L0 
GAS LISTING /tmp/ccFBpNwP.s 			page 17


     /tmp/ccFBpNwP.s:391    .text:00000000000001e0 .L0 
     /tmp/ccFBpNwP.s:393    .text:00000000000001e4 .L0 
     /tmp/ccFBpNwP.s:394    .text:00000000000001e4 .L0 
     /tmp/ccFBpNwP.s:399    .text:00000000000001f0 .L0 
     /tmp/ccFBpNwP.s:400    .text:00000000000001f4 .L0 
     /tmp/ccFBpNwP.s:402    .text:00000000000001f8 .L0 
     /tmp/ccFBpNwP.s:403    .text:00000000000001f8 .L0 
     /tmp/ccFBpNwP.s:405    .text:00000000000001fc .L0 
     /tmp/ccFBpNwP.s:408    .text:0000000000000200 .L0 
     /tmp/ccFBpNwP.s:411    .text:0000000000000204 .L0 
     /tmp/ccFBpNwP.s:413    .text:0000000000000208 .L0 
     /tmp/ccFBpNwP.s:419    .text:0000000000000208 _ZN10KSemaphore6signalEv
     /tmp/ccFBpNwP.s:422    .text:0000000000000208 .L0 
     /tmp/ccFBpNwP.s:424    .text:0000000000000208 .L0 
     /tmp/ccFBpNwP.s:425    .text:0000000000000208 .L0 
     /tmp/ccFBpNwP.s:426    .text:0000000000000208 .L0 
     /tmp/ccFBpNwP.s:428    .text:000000000000020c .L0 
     /tmp/ccFBpNwP.s:431    .text:0000000000000214 .L0 
     /tmp/ccFBpNwP.s:433    .text:0000000000000218 .L0 
     /tmp/ccFBpNwP.s:435    .text:000000000000021c .L0 
     /tmp/ccFBpNwP.s:436    .text:000000000000021c .L0 
     /tmp/ccFBpNwP.s:438    .text:0000000000000220 .L0 
     /tmp/ccFBpNwP.s:440    .text:0000000000000224 .L0 
     /tmp/ccFBpNwP.s:441    .text:0000000000000224 .L0 
     /tmp/ccFBpNwP.s:447    .text:000000000000022c .L0 
     /tmp/ccFBpNwP.s:448    .text:0000000000000230 .L0 
     /tmp/ccFBpNwP.s:451    .text:0000000000000238 .L0 
     /tmp/ccFBpNwP.s:452    .text:0000000000000238 .L0 
     /tmp/ccFBpNwP.s:454    .text:000000000000023c .L0 
     /tmp/ccFBpNwP.s:456    .text:000000000000023c .L0 
     /tmp/ccFBpNwP.s:457    .text:000000000000023c .L0 
     /tmp/ccFBpNwP.s:460    .text:0000000000000244 .L0 
     /tmp/ccFBpNwP.s:461    .text:0000000000000244 .L0 
     /tmp/ccFBpNwP.s:463    .text:000000000000024c .L0 
     /tmp/ccFBpNwP.s:465    .text:0000000000000250 .L0 
     /tmp/ccFBpNwP.s:466    .text:0000000000000250 .L0 
     /tmp/ccFBpNwP.s:468    .text:0000000000000254 .L0 
     /tmp/ccFBpNwP.s:470    .text:0000000000000258 .L0 
     /tmp/ccFBpNwP.s:476    .text:0000000000000258 _ZN10KSemaphorenwEm
     /tmp/ccFBpNwP.s:479    .text:0000000000000258 .L0 
     /tmp/ccFBpNwP.s:481    .text:0000000000000258 .L0 
     /tmp/ccFBpNwP.s:482    .text:000000000000025c .L0 
     /tmp/ccFBpNwP.s:485    .text:0000000000000264 .L0 
     /tmp/ccFBpNwP.s:486    .text:0000000000000264 .L0 
     /tmp/ccFBpNwP.s:488    .text:0000000000000268 .L0 
     /tmp/ccFBpNwP.s:490    .text:0000000000000268 .L0 
     /tmp/ccFBpNwP.s:491    .text:0000000000000268 .L0 
     /tmp/ccFBpNwP.s:494    .text:0000000000000270 .L0 
     /tmp/ccFBpNwP.s:495    .text:0000000000000274 .L0 
     /tmp/ccFBpNwP.s:497    .text:0000000000000278 .L0 
     /tmp/ccFBpNwP.s:498    .text:0000000000000278 .L0 
     /tmp/ccFBpNwP.s:500    .text:000000000000027c .L0 
     /tmp/ccFBpNwP.s:502    .text:0000000000000280 .L0 
     /tmp/ccFBpNwP.s:508    .text:0000000000000280 _ZN10KSemaphoredlEPv
     /tmp/ccFBpNwP.s:511    .text:0000000000000280 .L0 
     /tmp/ccFBpNwP.s:513    .text:0000000000000280 .L0 
     /tmp/ccFBpNwP.s:514    .text:0000000000000284 .L0 
GAS LISTING /tmp/ccFBpNwP.s 			page 18


     /tmp/ccFBpNwP.s:517    .text:000000000000028c .L0 
     /tmp/ccFBpNwP.s:518    .text:000000000000028c .L0 
     /tmp/ccFBpNwP.s:520    .text:0000000000000290 .L0 
     /tmp/ccFBpNwP.s:522    .text:0000000000000290 .L0 
     /tmp/ccFBpNwP.s:523    .text:0000000000000290 .L0 
     /tmp/ccFBpNwP.s:526    .text:0000000000000298 .L0 
     /tmp/ccFBpNwP.s:527    .text:000000000000029c .L0 
     /tmp/ccFBpNwP.s:529    .text:00000000000002a0 .L0 
     /tmp/ccFBpNwP.s:530    .text:00000000000002a0 .L0 
     /tmp/ccFBpNwP.s:532    .text:00000000000002a4 .L0 
     /tmp/ccFBpNwP.s:534    .text:00000000000002a8 .L0 
     /tmp/ccFBpNwP.s:543    .text:00000000000002a8 .L0 
     /tmp/ccFBpNwP.s:112    .text:0000000000000074 .L0 
     /tmp/ccFBpNwP.s:83     .text:0000000000000058 .L7
     /tmp/ccFBpNwP.s:74     .text:000000000000004c .L3
     /tmp/ccFBpNwP.s:169    .text:00000000000000c4 .L16
     /tmp/ccFBpNwP.s:259    .text:0000000000000134 .L19
     /tmp/ccFBpNwP.s:268    .text:0000000000000140 .L22
     /tmp/ccFBpNwP.s:329    .text:0000000000000194 .L23
     /tmp/ccFBpNwP.s:301    .text:0000000000000164 .L25
     /tmp/ccFBpNwP.s:397    .text:00000000000001f0 .L27
     /tmp/ccFBpNwP.s:445    .text:000000000000022c .L37
     /tmp/ccFBpNwP.s:1930   .debug_abbrev:0000000000000000 .Ldebug_abbrev0
     /tmp/ccFBpNwP.s:3394   .debug_str:0000000000000429 .LASF132
     /tmp/ccFBpNwP.s:3358   .debug_str:000000000000031f .LASF133
     /tmp/ccFBpNwP.s:3488   .debug_str:000000000000074e .LASF134
     /tmp/ccFBpNwP.s:5      .text:0000000000000000 .Ltext0
     /tmp/ccFBpNwP.s:537    .text:00000000000002a8 .Letext0
     /tmp/ccFBpNwP.s:3244   .debug_line:0000000000000000 .Ldebug_line0
     /tmp/ccFBpNwP.s:3352   .debug_str:00000000000002f8 .LASF0
     /tmp/ccFBpNwP.s:3374   .debug_str:0000000000000397 .LASF1
     /tmp/ccFBpNwP.s:3430   .debug_str:00000000000005c6 .LASF2
     /tmp/ccFBpNwP.s:3442   .debug_str:0000000000000626 .LASF4
     /tmp/ccFBpNwP.s:3362   .debug_str:000000000000033f .LASF3
     /tmp/ccFBpNwP.s:3260   .debug_str:000000000000005a .LASF5
     /tmp/ccFBpNwP.s:3418   .debug_str:0000000000000578 .LASF6
     /tmp/ccFBpNwP.s:3414   .debug_str:000000000000055d .LASF7
     /tmp/ccFBpNwP.s:3366   .debug_str:0000000000000356 .LASF8
     /tmp/ccFBpNwP.s:3338   .debug_str:0000000000000291 .LASF9
     /tmp/ccFBpNwP.s:3344   .debug_str:00000000000002c9 .LASF10
     /tmp/ccFBpNwP.s:3290   .debug_str:0000000000000170 .LASF11
     /tmp/ccFBpNwP.s:3328   .debug_str:0000000000000258 .LASF12
     /tmp/ccFBpNwP.s:3302   .debug_str:00000000000001aa .LASF13
     /tmp/ccFBpNwP.s:3288   .debug_str:0000000000000160 .LASF14
     /tmp/ccFBpNwP.s:3464   .debug_str:00000000000006e0 .LASF15
     /tmp/ccFBpNwP.s:3322   .debug_str:0000000000000231 .LASF16
     /tmp/ccFBpNwP.s:3460   .debug_str:00000000000006ae .LASF17
     /tmp/ccFBpNwP.s:3490   .debug_str:0000000000000771 .LASF28
     /tmp/ccFBpNwP.s:3500   .debug_str:00000000000007b4 .LASF20
     /tmp/ccFBpNwP.s:3368   .debug_str:0000000000000369 .LASF18
     /tmp/ccFBpNwP.s:3292   .debug_str:000000000000017f .LASF19
     /tmp/ccFBpNwP.s:3474   .debug_str:0000000000000713 .LASF21
     /tmp/ccFBpNwP.s:3382   .debug_str:00000000000003c6 .LASF22
     /tmp/ccFBpNwP.s:3516   .debug_str:00000000000007fe .LASF39
     /tmp/ccFBpNwP.s:3498   .debug_str:00000000000007ae .LASF24
     /tmp/ccFBpNwP.s:3306   .debug_str:00000000000001cb .LASF26
     /tmp/ccFBpNwP.s:3354   .debug_str:0000000000000305 .LASF23
GAS LISTING /tmp/ccFBpNwP.s 			page 19


     /tmp/ccFBpNwP.s:3454   .debug_str:0000000000000683 .LASF29
     /tmp/ccFBpNwP.s:3372   .debug_str:0000000000000392 .LASF25
     /tmp/ccFBpNwP.s:3424   .debug_str:0000000000000592 .LASF27
     /tmp/ccFBpNwP.s:3318   .debug_str:000000000000020f .LASF30
     /tmp/ccFBpNwP.s:3422   .debug_str:000000000000058b .LASF45
     /tmp/ccFBpNwP.s:3270   .debug_str:00000000000000bd .LASF47
     /tmp/ccFBpNwP.s:3478   .debug_str:000000000000071e .LASF135
     /tmp/ccFBpNwP.s:3286   .debug_str:000000000000015a .LASF31
     /tmp/ccFBpNwP.s:3456   .debug_str:0000000000000698 .LASF32
     /tmp/ccFBpNwP.s:3298   .debug_str:0000000000000196 .LASF33
     /tmp/ccFBpNwP.s:3276   .debug_str:00000000000000e7 .LASF34
     /tmp/ccFBpNwP.s:3416   .debug_str:0000000000000570 .LASF35
     /tmp/ccFBpNwP.s:3296   .debug_str:000000000000018d .LASF36
     /tmp/ccFBpNwP.s:3472   .debug_str:000000000000070b .LASF37
     /tmp/ccFBpNwP.s:3346   .debug_str:00000000000002d7 .LASF38
     /tmp/ccFBpNwP.s:3494   .debug_str:000000000000077f .LASF40
     /tmp/ccFBpNwP.s:3404   .debug_str:000000000000050f .LASF136
     /tmp/ccFBpNwP.s:3504   .debug_str:00000000000007c5 .LASF41
     /tmp/ccFBpNwP.s:3522   .debug_str:0000000000000828 .LASF42
     /tmp/ccFBpNwP.s:3518   .debug_str:000000000000080e .LASF43
     /tmp/ccFBpNwP.s:3484   .debug_str:0000000000000734 .LASF44
     /tmp/ccFBpNwP.s:3314   .debug_str:0000000000000201 .LASF137
     /tmp/ccFBpNwP.s:3266   .debug_str:0000000000000082 .LASF138
     /tmp/ccFBpNwP.s:3378   .debug_str:00000000000003b3 .LASF46
     /tmp/ccFBpNwP.s:3408   .debug_str:0000000000000527 .LASF48
     /tmp/ccFBpNwP.s:3480   .debug_str:0000000000000724 .LASF49
     /tmp/ccFBpNwP.s:3506   .debug_str:00000000000007ca .LASF50
     /tmp/ccFBpNwP.s:3448   .debug_str:0000000000000658 .LASF51
     /tmp/ccFBpNwP.s:3380   .debug_str:00000000000003b9 .LASF52
     /tmp/ccFBpNwP.s:3384   .debug_str:00000000000003cb .LASF53
     /tmp/ccFBpNwP.s:3526   .debug_str:0000000000000844 .LASF54
     /tmp/ccFBpNwP.s:3324   .debug_str:0000000000000247 .LASF55
     /tmp/ccFBpNwP.s:3254   .debug_str:0000000000000038 .LASF56
     /tmp/ccFBpNwP.s:3360   .debug_str:0000000000000332 .LASF57
     /tmp/ccFBpNwP.s:3452   .debug_str:000000000000067a .LASF58
     /tmp/ccFBpNwP.s:3396   .debug_str:00000000000004cb .LASF59
     /tmp/ccFBpNwP.s:3436   .debug_str:00000000000005ec .LASF60
     /tmp/ccFBpNwP.s:3462   .debug_str:00000000000006c4 .LASF61
     /tmp/ccFBpNwP.s:3398   .debug_str:00000000000004de .LASF62
     /tmp/ccFBpNwP.s:3250   .debug_str:0000000000000019 .LASF63
     /tmp/ccFBpNwP.s:3512   .debug_str:00000000000007e4 .LASF64
     /tmp/ccFBpNwP.s:3412   .debug_str:0000000000000543 .LASF65
     /tmp/ccFBpNwP.s:3458   .debug_str:00000000000006a0 .LASF66
     /tmp/ccFBpNwP.s:3420   .debug_str:000000000000057f .LASF67
     /tmp/ccFBpNwP.s:3312   .debug_str:00000000000001f1 .LASF68
     /tmp/ccFBpNwP.s:3514   .debug_str:00000000000007f3 .LASF69
     /tmp/ccFBpNwP.s:3392   .debug_str:0000000000000419 .LASF70
     /tmp/ccFBpNwP.s:3446   .debug_str:0000000000000650 .LASF104
     /tmp/ccFBpNwP.s:3486   .debug_str:0000000000000744 .LASF71
     /tmp/ccFBpNwP.s:3410   .debug_str:0000000000000537 .LASF72
     /tmp/ccFBpNwP.s:3310   .debug_str:00000000000001e3 .LASF73
     /tmp/ccFBpNwP.s:3268   .debug_str:0000000000000095 .LASF75
     /tmp/ccFBpNwP.s:3356   .debug_str:000000000000030a .LASF74
     /tmp/ccFBpNwP.s:3284   .debug_str:000000000000012e .LASF76
     /tmp/ccFBpNwP.s:3510   .debug_str:00000000000007dd .LASF139
     /tmp/ccFBpNwP.s:3282   .debug_str:000000000000011d .LASF140
     /tmp/ccFBpNwP.s:3252   .debug_str:0000000000000033 .LASF77
GAS LISTING /tmp/ccFBpNwP.s 			page 20


     /tmp/ccFBpNwP.s:3470   .debug_str:0000000000000706 .LASF78
     /tmp/ccFBpNwP.s:3388   .debug_str:00000000000003fd .LASF79
     /tmp/ccFBpNwP.s:3308   .debug_str:00000000000001dd .LASF80
     /tmp/ccFBpNwP.s:3492   .debug_str:0000000000000777 .LASF81
     /tmp/ccFBpNwP.s:3272   .debug_str:00000000000000cb .LASF82
     /tmp/ccFBpNwP.s:3336   .debug_str:0000000000000287 .LASF83
     /tmp/ccFBpNwP.s:3262   .debug_str:0000000000000061 .LASF141
     /tmp/ccFBpNwP.s:3520   .debug_str:0000000000000814 .LASF142
     /tmp/ccFBpNwP.s:3364   .debug_str:0000000000000351 .LASF84
     /tmp/ccFBpNwP.s:3278   .debug_str:00000000000000f0 .LASF85
     /tmp/ccFBpNwP.s:3326   .debug_str:0000000000000253 .LASF86
     /tmp/ccFBpNwP.s:3330   .debug_str:0000000000000267 .LASF90
     /tmp/ccFBpNwP.s:3274   .debug_str:00000000000000d5 .LASF87
     /tmp/ccFBpNwP.s:3406   .debug_str:0000000000000514 .LASF88
     /tmp/ccFBpNwP.s:3482   .debug_str:000000000000072c .LASF89
     /tmp/ccFBpNwP.s:3428   .debug_str:00000000000005ae .LASF91
     /tmp/ccFBpNwP.s:3450   .debug_str:0000000000000669 .LASF92
     /tmp/ccFBpNwP.s:3304   .debug_str:00000000000001ba .LASF93
     /tmp/ccFBpNwP.s:3264   .debug_str:0000000000000079 .LASF94
     /tmp/ccFBpNwP.s:3476   .debug_str:0000000000000719 .LASF95
     /tmp/ccFBpNwP.s:3426   .debug_str:00000000000005a3 .LASF96
     /tmp/ccFBpNwP.s:3342   .debug_str:00000000000002b5 .LASF97
     /tmp/ccFBpNwP.s:3432   .debug_str:00000000000005d4 .LASF98
     /tmp/ccFBpNwP.s:3320   .debug_str:000000000000021d .LASF99
     /tmp/ccFBpNwP.s:3316   .debug_str:000000000000020a .LASF100
     /tmp/ccFBpNwP.s:3496   .debug_str:0000000000000797 .LASF101
     /tmp/ccFBpNwP.s:3468   .debug_str:00000000000006ff .LASF102
     /tmp/ccFBpNwP.s:3402   .debug_str:00000000000004f6 .LASF103
     /tmp/ccFBpNwP.s:3248   .debug_str:000000000000000d .LASF105
     /tmp/ccFBpNwP.s:3434   .debug_str:00000000000005e0 .LASF106
     /tmp/ccFBpNwP.s:3390   .debug_str:0000000000000405 .LASF107
     /tmp/ccFBpNwP.s:3348   .debug_str:00000000000002dd .LASF108
     /tmp/ccFBpNwP.s:3294   .debug_str:0000000000000184 .LASF109
     /tmp/ccFBpNwP.s:3300   .debug_str:00000000000001a0 .LASF110
     /tmp/ccFBpNwP.s:3400   .debug_str:00000000000004ed .LASF111
     /tmp/ccFBpNwP.s:3440   .debug_str:000000000000061b .LASF112
     /tmp/ccFBpNwP.s:3376   .debug_str:00000000000003aa .LASF113
     /tmp/ccFBpNwP.s:3350   .debug_str:00000000000002f2 .LASF114
     /tmp/ccFBpNwP.s:3530   .debug_str:000000000000085c .LASF115
     /tmp/ccFBpNwP.s:3256   .debug_str:0000000000000048 .LASF116
     /tmp/ccFBpNwP.s:3386   .debug_str:00000000000003e3 .LASF117
     /tmp/ccFBpNwP.s:3524   .debug_str:0000000000000834 .LASF118
     /tmp/ccFBpNwP.s:3444   .debug_str:000000000000062d .LASF119
     /tmp/ccFBpNwP.s:3466   .debug_str:00000000000006ec .LASF120
     /tmp/ccFBpNwP.s:3438   .debug_str:00000000000005f5 .LASF121
     /tmp/ccFBpNwP.s:3246   .debug_str:0000000000000000 .LASF122
     /tmp/ccFBpNwP.s:3370   .debug_str:000000000000036e .LASF123
     /tmp/ccFBpNwP.s:509    .text:0000000000000280 .LFB35
     /tmp/ccFBpNwP.s:535    .text:00000000000002a8 .LFE35
     /tmp/ccFBpNwP.s:3053   .debug_loc:0000000000000000 .LLST12
     /tmp/ccFBpNwP.s:524    .text:0000000000000298 .LVL38
     /tmp/ccFBpNwP.s:477    .text:0000000000000258 .LFB34
     /tmp/ccFBpNwP.s:503    .text:0000000000000280 .LFE34
     /tmp/ccFBpNwP.s:3067   .debug_loc:0000000000000039 .LLST11
     /tmp/ccFBpNwP.s:492    .text:0000000000000270 .LVL36
     /tmp/ccFBpNwP.s:362    .text:00000000000001ac .LFB33
     /tmp/ccFBpNwP.s:414    .text:0000000000000208 .LFE33
GAS LISTING /tmp/ccFBpNwP.s 			page 21


     /tmp/ccFBpNwP.s:3332   .debug_str:000000000000027c .LASF124
     /tmp/ccFBpNwP.s:3081   .debug_loc:0000000000000072 .LLST8
     /tmp/ccFBpNwP.s:3099   .debug_loc:00000000000000be .LLST9
     /tmp/ccFBpNwP.s:382    .text:00000000000001d0 .LVL25
     /tmp/ccFBpNwP.s:389    .text:00000000000001e0 .LVL27
     /tmp/ccFBpNwP.s:396    .text:00000000000001f0 .LVL28
     /tmp/ccFBpNwP.s:228    .text:000000000000010c .LFB32
     /tmp/ccFBpNwP.s:275    .text:0000000000000148 .LFE32
     /tmp/ccFBpNwP.s:3106   .debug_loc:00000000000000e1 .LLST5
     /tmp/ccFBpNwP.s:201    .text:00000000000000f0 .LFB31
     /tmp/ccFBpNwP.s:222    .text:000000000000010c .LFE31
     /tmp/ccFBpNwP.s:3113   .debug_loc:0000000000000104 .LLST4
     /tmp/ccFBpNwP.s:98     .text:0000000000000064 .LFB30
     /tmp/ccFBpNwP.s:143    .text:00000000000000a8 .LFE30
     /tmp/ccFBpNwP.s:3127   .debug_loc:000000000000013d .LLST0
     /tmp/ccFBpNwP.s:115    .text:0000000000000080 .LBB5
     /tmp/ccFBpNwP.s:124    .text:0000000000000088 .LBE5
     /tmp/ccFBpNwP.s:3141   .debug_loc:0000000000000176 .LLST1
     /tmp/ccFBpNwP.s:3149   .debug_loc:000000000000019a .LLST2
     /tmp/ccFBpNwP.s:128    .text:0000000000000090 .LVL5
     /tmp/ccFBpNwP.s:132    .text:0000000000000098 .LVL6
     /tmp/ccFBpNwP.s:49     .text:0000000000000028 .LFB29
     /tmp/ccFBpNwP.s:92     .text:0000000000000064 .LFE29
     /tmp/ccFBpNwP.s:3258   .debug_str:0000000000000050 .LASF125
     /tmp/ccFBpNwP.s:3340   .debug_str:00000000000002a1 .LASF126
     /tmp/ccFBpNwP.s:281    .text:0000000000000148 .LFB27
     /tmp/ccFBpNwP.s:346    .text:00000000000001ac .LFE27
     /tmp/ccFBpNwP.s:3156   .debug_loc:00000000000001bd .LLST6
     /tmp/ccFBpNwP.s:319    .text:0000000000000184 .LVL20
     /tmp/ccFBpNwP.s:324    .text:0000000000000190 .LVL21
     /tmp/ccFBpNwP.s:312    .text:0000000000000178 .LBB8
     /tmp/ccFBpNwP.s:325    .text:0000000000000190 .LBE8
     /tmp/ccFBpNwP.s:3174   .debug_loc:0000000000000209 .LLST7
     /tmp/ccFBpNwP.s:308    .text:0000000000000170 .LVL18
     /tmp/ccFBpNwP.s:420    .text:0000000000000208 .LFB25
     /tmp/ccFBpNwP.s:471    .text:0000000000000258 .LFE25
     /tmp/ccFBpNwP.s:3181   .debug_loc:000000000000022c .LLST10
     /tmp/ccFBpNwP.s:458    .text:0000000000000244 .LVL34
     /tmp/ccFBpNwP.s:149    .text:00000000000000a8 .LFB24
     /tmp/ccFBpNwP.s:195    .text:00000000000000f0 .LFE24
     /tmp/ccFBpNwP.s:3206   .debug_loc:000000000000028e .LLST3
     /tmp/ccFBpNwP.s:182    .text:00000000000000dc .LVL10
     /tmp/ccFBpNwP.s:3280   .debug_str:0000000000000109 .LASF127
     /tmp/ccFBpNwP.s:10     .text:0000000000000000 .LFB22
     /tmp/ccFBpNwP.s:41     .text:0000000000000028 .LFE22
     /tmp/ccFBpNwP.s:3528   .debug_str:0000000000000851 .LASF128
     /tmp/ccFBpNwP.s:3334   .debug_str:0000000000000281 .LASF130
     /tmp/ccFBpNwP.s:3502   .debug_str:00000000000007b9 .LASF129
     /tmp/ccFBpNwP.s:3508   .debug_str:00000000000007d5 .LASF131
     /tmp/ccFBpNwP.s:512    .text:0000000000000280 .LVL37
     /tmp/ccFBpNwP.s:480    .text:0000000000000258 .LVL35
     /tmp/ccFBpNwP.s:365    .text:00000000000001ac .LVL24
     /tmp/ccFBpNwP.s:409    .text:0000000000000200 .LVL30
     /tmp/ccFBpNwP.s:384    .text:00000000000001d4 .LVL26
     /tmp/ccFBpNwP.s:406    .text:00000000000001fc .LVL29
     /tmp/ccFBpNwP.s:244    .text:0000000000000120 .LVL14
     /tmp/ccFBpNwP.s:256    .text:0000000000000130 .LVL15
GAS LISTING /tmp/ccFBpNwP.s 			page 22


     /tmp/ccFBpNwP.s:204    .text:00000000000000f0 .LVL11
     /tmp/ccFBpNwP.s:214    .text:0000000000000100 .LVL12
     /tmp/ccFBpNwP.s:101    .text:0000000000000064 .LVL2
     /tmp/ccFBpNwP.s:114    .text:0000000000000080 .LVL3
     /tmp/ccFBpNwP.s:122    .text:0000000000000088 .LVL4
     /tmp/ccFBpNwP.s:286    .text:0000000000000148 .LVL16
     /tmp/ccFBpNwP.s:300    .text:0000000000000164 .LVL17
     /tmp/ccFBpNwP.s:341    .text:00000000000001a4 .LVL23
     /tmp/ccFBpNwP.s:314    .text:0000000000000178 .LVL19
     /tmp/ccFBpNwP.s:328    .text:0000000000000194 .LVL22
     /tmp/ccFBpNwP.s:423    .text:0000000000000208 .LVL31
     /tmp/ccFBpNwP.s:442    .text:0000000000000228 .LVL32
     /tmp/ccFBpNwP.s:444    .text:000000000000022c .LVL33
     /tmp/ccFBpNwP.s:152    .text:00000000000000a8 .LVL7
     /tmp/ccFBpNwP.s:166    .text:00000000000000c0 .LVL8
     /tmp/ccFBpNwP.s:168    .text:00000000000000c4 .LVL9
     /tmp/ccFBpNwP.s:544    .debug_info:0000000000000000 .Ldebug_info0
     /tmp/ccFBpNwP.s:349    .gcc_except_table:0000000000000000 .LLSDA27

UNDEFINED SYMBOLS
_ZN3PCB7runningE
_ZN3PCB8dispatchEv
_ZN9Scheduler3putEP3PCB
__gxx_personality_v0
_Z7kmallocm
_Z5kfreePv
