GAS LISTING /tmp/ccPws71A.s 			page 1


   1              		.file	"KSemaphore.cpp"
   2              		.option pic
   3              		.option norelax
   4              		.text
   5              	.Ltext0:
   6              		.align	2
   7              		.globl	_ZN10KSemaphoreC2Ei
   9              	_ZN10KSemaphoreC2Ei:
  10              	.LFB22:
  11              		.file 1 "src/KSemaphore.cpp"
   1:src/KSemaphore.cpp **** //
   2:src/KSemaphore.cpp **** // Created by os on 5/2/22.
   3:src/KSemaphore.cpp **** //
   4:src/KSemaphore.cpp **** 
   5:src/KSemaphore.cpp **** #include "../h/KSemaphore.h"
   6:src/KSemaphore.cpp **** #include "../h/MemoryAllocator.h"
   7:src/KSemaphore.cpp **** 
   8:src/KSemaphore.cpp **** KSemaphore::KSemaphore(int val) {
  12              		.loc 1 8 1
  13              		.cfi_startproc
  14              	.LVL0:
  15 0000 130101FE 		addi	sp,sp,-32
  16              		.cfi_def_cfa_offset 32
  17 0004 233C1100 		sd	ra,24(sp)
  18 0008 23388100 		sd	s0,16(sp)
  19 000c 23349100 		sd	s1,8(sp)
  20 0010 23302101 		sd	s2,0(sp)
  21              		.cfi_offset 1, -8
  22              		.cfi_offset 8, -16
  23              		.cfi_offset 9, -24
  24              		.cfi_offset 18, -32
  25 0014 13040102 		addi	s0,sp,32
  26              		.cfi_def_cfa 8, 0
  27 0018 93040500 		mv	s1,a0
  28 001c 13890500 		mv	s2,a1
  29              	.LBB6:
  30              		.loc 1 8 31 is_stmt 0
  31 0020 13058501 		addi	a0,a0,24
  32              	.LVL1:
  33 0024 97000000 		call	_ZN5QueueC1Ev@plt
  33      E7800000 
  34              	.LVL2:
   9:src/KSemaphore.cpp ****     this->val = this->beginVal = val;
  35              		.loc 1 9 5 is_stmt 1
  36              		.loc 1 9 32 is_stmt 0
  37 002c 23AA2401 		sw	s2,20(s1)
  38              		.loc 1 9 15
  39 0030 23A82401 		sw	s2,16(s1)
  10:src/KSemaphore.cpp ****     headBlocked = tailBlocked = 0;
  40              		.loc 1 10 5 is_stmt 1
  41              		.loc 1 10 31 is_stmt 0
  42 0034 23B40400 		sd	zero,8(s1)
  43              		.loc 1 10 17
  44 0038 23B00400 		sd	zero,0(s1)
  45              	.LBE6:
  11:src/KSemaphore.cpp **** }
  46              		.loc 1 11 1
GAS LISTING /tmp/ccPws71A.s 			page 2


  47 003c 83308101 		ld	ra,24(sp)
  48              		.cfi_restore 1
  49 0040 03340101 		ld	s0,16(sp)
  50              		.cfi_restore 8
  51              		.cfi_def_cfa 2, 32
  52 0044 83348100 		ld	s1,8(sp)
  53              		.cfi_restore 9
  54              	.LVL3:
  55 0048 03390100 		ld	s2,0(sp)
  56              		.cfi_restore 18
  57 004c 13010102 		addi	sp,sp,32
  58              		.cfi_def_cfa_offset 0
  59 0050 67800000 		jr	ra
  60              		.cfi_endproc
  61              	.LFE22:
  63              		.globl	_ZN10KSemaphoreC1Ei
  64              		.set	_ZN10KSemaphoreC1Ei,_ZN10KSemaphoreC2Ei
  65              		.align	2
  66              		.globl	_ZN10KSemaphoreD2Ev
  68              	_ZN10KSemaphoreD2Ev:
  69              	.LFB27:
  12:src/KSemaphore.cpp **** 
  13:src/KSemaphore.cpp **** //todo
  14:src/KSemaphore.cpp **** void KSemaphore::wait() {
  15:src/KSemaphore.cpp ****     if(--val < 0)
  16:src/KSemaphore.cpp ****         block();
  17:src/KSemaphore.cpp **** }
  18:src/KSemaphore.cpp **** 
  19:src/KSemaphore.cpp **** //todo
  20:src/KSemaphore.cpp **** void KSemaphore::signal() {
  21:src/KSemaphore.cpp ****     if(++val <= 0)
  22:src/KSemaphore.cpp ****         unblock();
  23:src/KSemaphore.cpp ****     else
  24:src/KSemaphore.cpp ****         val = beginVal;
  25:src/KSemaphore.cpp **** }
  26:src/KSemaphore.cpp **** 
  27:src/KSemaphore.cpp **** KSemaphore::~KSemaphore() {
  70              		.loc 1 27 1 is_stmt 1
  71              		.cfi_startproc
  72              	.LVL4:
  73 0054 130101FF 		addi	sp,sp,-16
  74              		.cfi_def_cfa_offset 16
  75 0058 23341100 		sd	ra,8(sp)
  76 005c 23308100 		sd	s0,0(sp)
  77              		.cfi_offset 1, -8
  78              		.cfi_offset 8, -16
  79 0060 13040101 		addi	s0,sp,16
  80              		.cfi_def_cfa 8, 0
  81              	.LBB7:
  82              		.loc 1 27 25 is_stmt 0
  83 0064 13058501 		addi	a0,a0,24
  84              	.LVL5:
  85 0068 97000000 		call	_ZN5QueueD1Ev@plt
  85      E7800000 
  86              	.LVL6:
  87              	.LBE7:
  28:src/KSemaphore.cpp ****     //todo
GAS LISTING /tmp/ccPws71A.s 			page 3


  29:src/KSemaphore.cpp **** }
  88              		.loc 1 29 1
  89 0070 83308100 		ld	ra,8(sp)
  90              		.cfi_restore 1
  91 0074 03340100 		ld	s0,0(sp)
  92              		.cfi_restore 8
  93              		.cfi_def_cfa 2, 16
  94 0078 13010101 		addi	sp,sp,16
  95              		.cfi_def_cfa_offset 0
  96 007c 67800000 		jr	ra
  97              		.cfi_endproc
  98              	.LFE27:
 100              		.globl	_ZN10KSemaphoreD1Ev
 101              		.set	_ZN10KSemaphoreD1Ev,_ZN10KSemaphoreD2Ev
 102              		.align	2
 103              		.globl	_ZN10KSemaphore12addToBlockedEP3PCB
 105              	_ZN10KSemaphore12addToBlockedEP3PCB:
 106              	.LFB29:
  30:src/KSemaphore.cpp **** 
  31:src/KSemaphore.cpp **** void KSemaphore::addToBlocked(PCB* pcb)
  32:src/KSemaphore.cpp **** {
 107              		.loc 1 32 1 is_stmt 1
 108              		.cfi_startproc
 109              	.LVL7:
 110 0080 130101FF 		addi	sp,sp,-16
 111              		.cfi_def_cfa_offset 16
 112 0084 23348100 		sd	s0,8(sp)
 113              		.cfi_offset 8, -8
 114 0088 13040101 		addi	s0,sp,16
 115              		.cfi_def_cfa 8, 0
  33:src/KSemaphore.cpp ****     pcb->nextPCB = 0;
 116              		.loc 1 33 5
 117              		.loc 1 33 18 is_stmt 0
 118 008c 23B00500 		sd	zero,0(a1)
  34:src/KSemaphore.cpp ****     if(headBlocked == 0)
 119              		.loc 1 34 5 is_stmt 1
 120              		.loc 1 34 8 is_stmt 0
 121 0090 83370500 		ld	a5,0(a0)
 122              		.loc 1 34 5
 123 0094 638E0700 		beqz	a5,.L9
  35:src/KSemaphore.cpp ****     {
  36:src/KSemaphore.cpp ****         headBlocked = tailBlocked = pcb;
  37:src/KSemaphore.cpp ****     }
  38:src/KSemaphore.cpp ****     else
  39:src/KSemaphore.cpp ****     {
  40:src/KSemaphore.cpp ****         tailBlocked->nextPCB = pcb;
 124              		.loc 1 40 9 is_stmt 1
 125 0098 83378500 		ld	a5,8(a0)
 126              		.loc 1 40 30 is_stmt 0
 127 009c 23B0B700 		sd	a1,0(a5)
  41:src/KSemaphore.cpp ****         tailBlocked = pcb;
 128              		.loc 1 41 9 is_stmt 1
 129              		.loc 1 41 21 is_stmt 0
 130 00a0 2334B500 		sd	a1,8(a0)
 131              	.L5:
  42:src/KSemaphore.cpp ****     }
  43:src/KSemaphore.cpp **** }
GAS LISTING /tmp/ccPws71A.s 			page 4


 132              		.loc 1 43 1
 133 00a4 03348100 		ld	s0,8(sp)
 134              		.cfi_remember_state
 135              		.cfi_restore 8
 136              		.cfi_def_cfa 2, 16
 137 00a8 13010101 		addi	sp,sp,16
 138              		.cfi_def_cfa_offset 0
 139 00ac 67800000 		jr	ra
 140              	.L9:
 141              		.cfi_restore_state
  36:src/KSemaphore.cpp ****     }
 142              		.loc 1 36 9 is_stmt 1
  36:src/KSemaphore.cpp ****     }
 143              		.loc 1 36 35 is_stmt 0
 144 00b0 2334B500 		sd	a1,8(a0)
  36:src/KSemaphore.cpp ****     }
 145              		.loc 1 36 21
 146 00b4 2330B500 		sd	a1,0(a0)
 147 00b8 6FF0DFFE 		j	.L5
 148              		.cfi_endproc
 149              	.LFE29:
 151              		.align	2
 152              		.globl	_ZN10KSemaphore5blockEv
 154              	_ZN10KSemaphore5blockEv:
 155              	.LFB30:
  44:src/KSemaphore.cpp **** 
  45:src/KSemaphore.cpp **** //todo
  46:src/KSemaphore.cpp **** void KSemaphore::block() {
 156              		.loc 1 46 26 is_stmt 1
 157              		.cfi_startproc
 158              	.LVL8:
 159 00bc 130101FF 		addi	sp,sp,-16
 160              		.cfi_def_cfa_offset 16
 161 00c0 23341100 		sd	ra,8(sp)
 162 00c4 23308100 		sd	s0,0(sp)
 163              		.cfi_offset 1, -8
 164              		.cfi_offset 8, -16
 165 00c8 13040101 		addi	s0,sp,16
 166              		.cfi_def_cfa 8, 0
  47:src/KSemaphore.cpp ****     PCB::running->setState(PCB::SUSPENDED);
 167              		.loc 1 47 5
 168              		.loc 1 47 27 is_stmt 0
 169 00cc 97070000 		la	a5,_ZN3PCB7runningE
 169      83B70700 
 170 00d4 83B50700 		ld	a1,0(a5)
 171              	.LVL9:
 172              	.LBB8:
 173              	.LBB9:
 174              		.file 2 "src/../h/PCB.h"
   1:src/../h/PCB.h **** //
   2:src/../h/PCB.h **** // Created by os on 4/27/22.
   3:src/../h/PCB.h **** //
   4:src/../h/PCB.h **** 
   5:src/../h/PCB.h **** #ifndef PROJECT_BASE_V1_0_PCB_H
   6:src/../h/PCB.h **** #define PROJECT_BASE_V1_0_PCB_H
   7:src/../h/PCB.h **** 
   8:src/../h/PCB.h **** #include "../lib/hw.h"
GAS LISTING /tmp/ccPws71A.s 			page 5


   9:src/../h/PCB.h **** #include "Scheduler.h"
  10:src/../h/PCB.h **** #include "Riscv.h"
  11:src/../h/PCB.h **** 
  12:src/../h/PCB.h **** class PCB
  13:src/../h/PCB.h **** {
  14:src/../h/PCB.h **** public:
  15:src/../h/PCB.h ****     using Body = void (*)(void*);
  16:src/../h/PCB.h **** 
  17:src/../h/PCB.h ****     PCB(Body body,  void* args, void* stack_space, uint64 timeSlice);
  18:src/../h/PCB.h ****     ~PCB();
  19:src/../h/PCB.h **** 
  20:src/../h/PCB.h ****     void start();
  21:src/../h/PCB.h ****     static void dispatch();
  22:src/../h/PCB.h ****     static void sleep(time_t);
  23:src/../h/PCB.h **** 
  24:src/../h/PCB.h ****     static PCB* running;
  25:src/../h/PCB.h ****     static PCB* exitingPCB;
  26:src/../h/PCB.h **** 
  27:src/../h/PCB.h ****     static uint64 timeSliceCounter;
  28:src/../h/PCB.h ****     uint64 getTimeSlice() { return timeSlice;}
  29:src/../h/PCB.h **** 
  30:src/../h/PCB.h ****     void* operator new(size_t size);
  31:src/../h/PCB.h ****     void operator delete(void *p);
  32:src/../h/PCB.h **** 
  33:src/../h/PCB.h ****     enum State{READY, RUNNING, SUSPENDED, FINISHED, EXITING, SLEEPING};
  34:src/../h/PCB.h ****     State getState() {return state;}
  35:src/../h/PCB.h ****     void setState(State s) {state = s;}
 175              		.loc 2 35 29 is_stmt 1
 176              		.loc 2 35 35 is_stmt 0
 177 00d8 93072000 		li	a5,2
 178 00dc 23A8F502 		sw	a5,48(a1)
 179              	.LVL10:
 180              	.LBE9:
 181              	.LBE8:
  48:src/KSemaphore.cpp ****     addToBlocked(PCB::running);
 182              		.loc 1 48 5 is_stmt 1
 183              		.loc 1 48 17 is_stmt 0
 184 00e0 97000000 		call	_ZN10KSemaphore12addToBlockedEP3PCB
 184      E7800000 
 185              	.LVL11:
  49:src/KSemaphore.cpp ****     PCB::dispatch();
 186              		.loc 1 49 5 is_stmt 1
 187              		.loc 1 49 18 is_stmt 0
 188 00e8 97000000 		call	_ZN3PCB8dispatchEv@plt
 188      E7800000 
 189              	.LVL12:
  50:src/KSemaphore.cpp **** }
 190              		.loc 1 50 1
 191 00f0 83308100 		ld	ra,8(sp)
 192              		.cfi_restore 1
 193 00f4 03340100 		ld	s0,0(sp)
 194              		.cfi_restore 8
 195              		.cfi_def_cfa 2, 16
 196 00f8 13010101 		addi	sp,sp,16
 197              		.cfi_def_cfa_offset 0
 198 00fc 67800000 		jr	ra
 199              		.cfi_endproc
GAS LISTING /tmp/ccPws71A.s 			page 6


 200              	.LFE30:
 202              		.align	2
 203              		.globl	_ZN10KSemaphore4waitEv
 205              	_ZN10KSemaphore4waitEv:
 206              	.LFB24:
  14:src/KSemaphore.cpp ****     if(--val < 0)
 207              		.loc 1 14 25 is_stmt 1
 208              		.cfi_startproc
 209              	.LVL13:
  15:src/KSemaphore.cpp ****         block();
 210              		.loc 1 15 5
  15:src/KSemaphore.cpp ****         block();
 211              		.loc 1 15 10 is_stmt 0
 212 0100 83270501 		lw	a5,16(a0)
  15:src/KSemaphore.cpp ****         block();
 213              		.loc 1 15 8
 214 0104 9B87F7FF 		addiw	a5,a5,-1
  15:src/KSemaphore.cpp ****         block();
 215              		.loc 1 15 14
 216 0108 2328F500 		sw	a5,16(a0)
  15:src/KSemaphore.cpp ****         block();
 217              		.loc 1 15 5
 218 010c 13970702 		slli	a4,a5,32
 219 0110 63440700 		bltz	a4,.L18
 220 0114 67800000 		ret
 221              	.L18:
  14:src/KSemaphore.cpp ****     if(--val < 0)
 222              		.loc 1 14 25
 223 0118 130101FF 		addi	sp,sp,-16
 224              		.cfi_def_cfa_offset 16
 225 011c 23341100 		sd	ra,8(sp)
 226 0120 23308100 		sd	s0,0(sp)
 227              		.cfi_offset 1, -8
 228              		.cfi_offset 8, -16
 229 0124 13040101 		addi	s0,sp,16
 230              		.cfi_def_cfa 8, 0
  16:src/KSemaphore.cpp **** }
 231              		.loc 1 16 9 is_stmt 1
  16:src/KSemaphore.cpp **** }
 232              		.loc 1 16 14 is_stmt 0
 233 0128 97000000 		call	_ZN10KSemaphore5blockEv
 233      E7800000 
 234              	.LVL14:
  17:src/KSemaphore.cpp **** 
 235              		.loc 1 17 1
 236 0130 83308100 		ld	ra,8(sp)
 237              		.cfi_restore 1
 238 0134 03340100 		ld	s0,0(sp)
 239              		.cfi_restore 8
 240              		.cfi_def_cfa 2, 16
 241 0138 13010101 		addi	sp,sp,16
 242              		.cfi_def_cfa_offset 0
 243 013c 67800000 		jr	ra
 244              		.cfi_endproc
 245              	.LFE24:
 247              		.align	2
 248              		.globl	_ZN10KSemaphore15getFirstBlockedEv
GAS LISTING /tmp/ccPws71A.s 			page 7


 250              	_ZN10KSemaphore15getFirstBlockedEv:
 251              	.LFB31:
  51:src/KSemaphore.cpp **** 
  52:src/KSemaphore.cpp **** PCB* KSemaphore::getFirstBlocked()
  53:src/KSemaphore.cpp **** {
 252              		.loc 1 53 1 is_stmt 1
 253              		.cfi_startproc
 254              	.LVL15:
 255 0140 130101FF 		addi	sp,sp,-16
 256              		.cfi_def_cfa_offset 16
 257 0144 23348100 		sd	s0,8(sp)
 258              		.cfi_offset 8, -8
 259 0148 13040101 		addi	s0,sp,16
 260              		.cfi_def_cfa 8, 0
  54:src/KSemaphore.cpp ****    return headBlocked;
 261              		.loc 1 54 4
  55:src/KSemaphore.cpp **** }
 262              		.loc 1 55 1 is_stmt 0
 263 014c 03350500 		ld	a0,0(a0)
 264              	.LVL16:
 265 0150 03348100 		ld	s0,8(sp)
 266              		.cfi_restore 8
 267              		.cfi_def_cfa 2, 16
 268 0154 13010101 		addi	sp,sp,16
 269              		.cfi_def_cfa_offset 0
 270 0158 67800000 		jr	ra
 271              		.cfi_endproc
 272              	.LFE31:
 274              		.align	2
 275              		.globl	_ZN10KSemaphore18removeFirstBlockedEv
 277              	_ZN10KSemaphore18removeFirstBlockedEv:
 278              	.LFB32:
  56:src/KSemaphore.cpp **** 
  57:src/KSemaphore.cpp **** void KSemaphore::removeFirstBlocked()
  58:src/KSemaphore.cpp **** {
 279              		.loc 1 58 1 is_stmt 1
 280              		.cfi_startproc
 281              	.LVL17:
 282 015c 130101FF 		addi	sp,sp,-16
 283              		.cfi_def_cfa_offset 16
 284 0160 23348100 		sd	s0,8(sp)
 285              		.cfi_offset 8, -8
 286 0164 13040101 		addi	s0,sp,16
 287              		.cfi_def_cfa 8, 0
  59:src/KSemaphore.cpp ****     if(headBlocked == 0)
 288              		.loc 1 59 5
 289              		.loc 1 59 8 is_stmt 0
 290 0168 83370500 		ld	a5,0(a0)
 291              		.loc 1 59 5
 292 016c 638C0700 		beqz	a5,.L21
  60:src/KSemaphore.cpp ****         return;
  61:src/KSemaphore.cpp ****     PCB* first = headBlocked;
 293              		.loc 1 61 5 is_stmt 1
 294              	.LVL18:
  62:src/KSemaphore.cpp ****     headBlocked = headBlocked->nextPCB;
 295              		.loc 1 62 5
 296              		.loc 1 62 32 is_stmt 0
GAS LISTING /tmp/ccPws71A.s 			page 8


 297 0170 03B70700 		ld	a4,0(a5)
 298              		.loc 1 62 17
 299 0174 2330E500 		sd	a4,0(a0)
  63:src/KSemaphore.cpp ****     first->nextPCB = 0;
 300              		.loc 1 63 5 is_stmt 1
 301              		.loc 1 63 20 is_stmt 0
 302 0178 23B00700 		sd	zero,0(a5)
  64:src/KSemaphore.cpp ****     if(headBlocked == 0)
 303              		.loc 1 64 5 is_stmt 1
 304              		.loc 1 64 8 is_stmt 0
 305 017c 83370500 		ld	a5,0(a0)
 306              	.LVL19:
 307              		.loc 1 64 5
 308 0180 63880700 		beqz	a5,.L24
 309              	.L21:
  65:src/KSemaphore.cpp ****         tailBlocked =0;
  66:src/KSemaphore.cpp **** }
 310              		.loc 1 66 1
 311 0184 03348100 		ld	s0,8(sp)
 312              		.cfi_remember_state
 313              		.cfi_restore 8
 314              		.cfi_def_cfa 2, 16
 315 0188 13010101 		addi	sp,sp,16
 316              		.cfi_def_cfa_offset 0
 317 018c 67800000 		jr	ra
 318              	.L24:
 319              		.cfi_restore_state
  65:src/KSemaphore.cpp ****         tailBlocked =0;
 320              		.loc 1 65 9 is_stmt 1
  65:src/KSemaphore.cpp ****         tailBlocked =0;
 321              		.loc 1 65 21 is_stmt 0
 322 0190 23340500 		sd	zero,8(a0)
 323 0194 6FF01FFF 		j	.L21
 324              		.cfi_endproc
 325              	.LFE32:
 327              		.align	2
 328              		.globl	_ZN10KSemaphore7unblockEv
 330              	_ZN10KSemaphore7unblockEv:
 331              	.LFB33:
  67:src/KSemaphore.cpp **** 
  68:src/KSemaphore.cpp **** //todo
  69:src/KSemaphore.cpp **** void KSemaphore::unblock() {
 332              		.loc 1 69 28 is_stmt 1
 333              		.cfi_startproc
 334              	.LVL20:
 335 0198 130101FE 		addi	sp,sp,-32
 336              		.cfi_def_cfa_offset 32
 337 019c 233C1100 		sd	ra,24(sp)
 338 01a0 23388100 		sd	s0,16(sp)
 339 01a4 23349100 		sd	s1,8(sp)
 340 01a8 23302101 		sd	s2,0(sp)
 341              		.cfi_offset 1, -8
 342              		.cfi_offset 8, -16
 343              		.cfi_offset 9, -24
 344              		.cfi_offset 18, -32
 345 01ac 13040102 		addi	s0,sp,32
 346              		.cfi_def_cfa 8, 0
GAS LISTING /tmp/ccPws71A.s 			page 9


 347 01b0 13090500 		mv	s2,a0
  70:src/KSemaphore.cpp ****     PCB* fr = getFirstBlocked();
 348              		.loc 1 70 5
 349              		.loc 1 70 30 is_stmt 0
 350 01b4 97000000 		call	_ZN10KSemaphore15getFirstBlockedEv
 350      E7800000 
 351              	.LVL21:
 352 01bc 93040500 		mv	s1,a0
 353              	.LVL22:
  71:src/KSemaphore.cpp ****     removeFirstBlocked();
 354              		.loc 1 71 5 is_stmt 1
 355              		.loc 1 71 23 is_stmt 0
 356 01c0 13050900 		mv	a0,s2
 357 01c4 97000000 		call	_ZN10KSemaphore18removeFirstBlockedEv
 357      E7800000 
 358              	.LVL23:
  72:src/KSemaphore.cpp ****     if(fr != 0)
 359              		.loc 1 72 5 is_stmt 1
 360 01cc 638A0400 		beqz	s1,.L25
  73:src/KSemaphore.cpp ****     {
  74:src/KSemaphore.cpp ****         fr->setState(PCB::READY);
 361              		.loc 1 74 9
 362              	.LVL24:
 363              	.LBB10:
 364              	.LBB11:
 365              		.loc 2 35 29
 366              		.loc 2 35 35 is_stmt 0
 367 01d0 23A80402 		sw	zero,48(s1)
 368              	.LVL25:
 369              	.LBE11:
 370              	.LBE10:
  75:src/KSemaphore.cpp ****         Scheduler::put(fr);
 371              		.loc 1 75 9 is_stmt 1
 372              		.loc 1 75 23 is_stmt 0
 373 01d4 13850400 		mv	a0,s1
 374 01d8 97000000 		call	_ZN9Scheduler3putEP3PCB@plt
 374      E7800000 
 375              	.LVL26:
 376              	.L25:
  76:src/KSemaphore.cpp ****     }
  77:src/KSemaphore.cpp **** }
 377              		.loc 1 77 1
 378 01e0 83308101 		ld	ra,24(sp)
 379              		.cfi_restore 1
 380 01e4 03340101 		ld	s0,16(sp)
 381              		.cfi_restore 8
 382              		.cfi_def_cfa 2, 32
 383 01e8 83348100 		ld	s1,8(sp)
 384              		.cfi_restore 9
 385              	.LVL27:
 386 01ec 03390100 		ld	s2,0(sp)
 387              		.cfi_restore 18
 388              	.LVL28:
 389 01f0 13010102 		addi	sp,sp,32
 390              		.cfi_def_cfa_offset 0
 391 01f4 67800000 		jr	ra
 392              		.cfi_endproc
GAS LISTING /tmp/ccPws71A.s 			page 10


 393              	.LFE33:
 395              		.align	2
 396              		.globl	_ZN10KSemaphore6signalEv
 398              	_ZN10KSemaphore6signalEv:
 399              	.LFB25:
  20:src/KSemaphore.cpp ****     if(++val <= 0)
 400              		.loc 1 20 27 is_stmt 1
 401              		.cfi_startproc
 402              	.LVL29:
  21:src/KSemaphore.cpp ****         unblock();
 403              		.loc 1 21 5
  21:src/KSemaphore.cpp ****         unblock();
 404              		.loc 1 21 10 is_stmt 0
 405 01f8 83270501 		lw	a5,16(a0)
  21:src/KSemaphore.cpp ****         unblock();
 406              		.loc 1 21 8
 407 01fc 9B871700 		addiw	a5,a5,1
 408 0200 1B870700 		sext.w	a4,a5
  21:src/KSemaphore.cpp ****         unblock();
 409              		.loc 1 21 14
 410 0204 2328F500 		sw	a5,16(a0)
  21:src/KSemaphore.cpp ****         unblock();
 411              		.loc 1 21 5
 412 0208 6358E000 		blez	a4,.L35
  24:src/KSemaphore.cpp **** }
 413              		.loc 1 24 9 is_stmt 1
  24:src/KSemaphore.cpp **** }
 414              		.loc 1 24 15 is_stmt 0
 415 020c 83274501 		lw	a5,20(a0)
  24:src/KSemaphore.cpp **** }
 416              		.loc 1 24 13
 417 0210 2328F500 		sw	a5,16(a0)
 418 0214 67800000 		ret
 419              	.L35:
  20:src/KSemaphore.cpp ****     if(++val <= 0)
 420              		.loc 1 20 27
 421 0218 130101FF 		addi	sp,sp,-16
 422              		.cfi_def_cfa_offset 16
 423 021c 23341100 		sd	ra,8(sp)
 424 0220 23308100 		sd	s0,0(sp)
 425              		.cfi_offset 1, -8
 426              		.cfi_offset 8, -16
 427 0224 13040101 		addi	s0,sp,16
 428              		.cfi_def_cfa 8, 0
  22:src/KSemaphore.cpp ****     else
 429              		.loc 1 22 9 is_stmt 1
  22:src/KSemaphore.cpp ****     else
 430              		.loc 1 22 16 is_stmt 0
 431 0228 97000000 		call	_ZN10KSemaphore7unblockEv
 431      E7800000 
 432              	.LVL30:
  25:src/KSemaphore.cpp **** 
 433              		.loc 1 25 1
 434 0230 83308100 		ld	ra,8(sp)
 435              		.cfi_restore 1
 436 0234 03340100 		ld	s0,0(sp)
 437              		.cfi_restore 8
GAS LISTING /tmp/ccPws71A.s 			page 11


 438              		.cfi_def_cfa 2, 16
 439 0238 13010101 		addi	sp,sp,16
 440              		.cfi_def_cfa_offset 0
 441 023c 67800000 		jr	ra
 442              		.cfi_endproc
 443              	.LFE25:
 445              	.Letext0:
 446              		.file 3 "src/../h/../lib/hw.h"
 447              		.file 4 "src/../h/Queue.h"
 448              		.file 5 "src/../h/Scheduler.h"
 449              		.file 6 "src/../h/KSemaphore.h"
GAS LISTING /tmp/ccPws71A.s 			page 12


DEFINED SYMBOLS
                            *ABS*:0000000000000000 KSemaphore.cpp
     /tmp/ccPws71A.s:9      .text:0000000000000000 _ZN10KSemaphoreC2Ei
     /tmp/ccPws71A.s:13     .text:0000000000000000 .L0 
     /tmp/ccPws71A.s:15     .text:0000000000000000 .L0 
     /tmp/ccPws71A.s:16     .text:0000000000000004 .L0 
     /tmp/ccPws71A.s:21     .text:0000000000000014 .L0 
     /tmp/ccPws71A.s:22     .text:0000000000000014 .L0 
     /tmp/ccPws71A.s:23     .text:0000000000000014 .L0 
     /tmp/ccPws71A.s:24     .text:0000000000000014 .L0 
     /tmp/ccPws71A.s:26     .text:0000000000000018 .L0 
     /tmp/ccPws71A.s:31     .text:0000000000000020 .L0 
     /tmp/ccPws71A.s:36     .text:000000000000002c .L0 
     /tmp/ccPws71A.s:37     .text:000000000000002c .L0 
     /tmp/ccPws71A.s:39     .text:0000000000000030 .L0 
     /tmp/ccPws71A.s:41     .text:0000000000000034 .L0 
     /tmp/ccPws71A.s:42     .text:0000000000000034 .L0 
     /tmp/ccPws71A.s:44     .text:0000000000000038 .L0 
     /tmp/ccPws71A.s:47     .text:000000000000003c .L0 
     /tmp/ccPws71A.s:48     .text:0000000000000040 .L0 
     /tmp/ccPws71A.s:50     .text:0000000000000044 .L0 
     /tmp/ccPws71A.s:51     .text:0000000000000044 .L0 
     /tmp/ccPws71A.s:53     .text:0000000000000048 .L0 
     /tmp/ccPws71A.s:56     .text:000000000000004c .L0 
     /tmp/ccPws71A.s:58     .text:0000000000000050 .L0 
     /tmp/ccPws71A.s:60     .text:0000000000000054 .L0 
     /tmp/ccPws71A.s:9      .text:0000000000000000 _ZN10KSemaphoreC1Ei
     /tmp/ccPws71A.s:68     .text:0000000000000054 _ZN10KSemaphoreD2Ev
     /tmp/ccPws71A.s:71     .text:0000000000000054 .L0 
     /tmp/ccPws71A.s:73     .text:0000000000000054 .L0 
     /tmp/ccPws71A.s:74     .text:0000000000000058 .L0 
     /tmp/ccPws71A.s:77     .text:0000000000000060 .L0 
     /tmp/ccPws71A.s:78     .text:0000000000000060 .L0 
     /tmp/ccPws71A.s:80     .text:0000000000000064 .L0 
     /tmp/ccPws71A.s:83     .text:0000000000000064 .L0 
     /tmp/ccPws71A.s:89     .text:0000000000000070 .L0 
     /tmp/ccPws71A.s:90     .text:0000000000000074 .L0 
     /tmp/ccPws71A.s:92     .text:0000000000000078 .L0 
     /tmp/ccPws71A.s:93     .text:0000000000000078 .L0 
     /tmp/ccPws71A.s:95     .text:000000000000007c .L0 
     /tmp/ccPws71A.s:97     .text:0000000000000080 .L0 
     /tmp/ccPws71A.s:68     .text:0000000000000054 _ZN10KSemaphoreD1Ev
     /tmp/ccPws71A.s:105    .text:0000000000000080 _ZN10KSemaphore12addToBlockedEP3PCB
     /tmp/ccPws71A.s:108    .text:0000000000000080 .L0 
     /tmp/ccPws71A.s:110    .text:0000000000000080 .L0 
     /tmp/ccPws71A.s:111    .text:0000000000000084 .L0 
     /tmp/ccPws71A.s:113    .text:0000000000000088 .L0 
     /tmp/ccPws71A.s:115    .text:000000000000008c .L0 
     /tmp/ccPws71A.s:117    .text:000000000000008c .L0 
     /tmp/ccPws71A.s:118    .text:000000000000008c .L0 
     /tmp/ccPws71A.s:120    .text:0000000000000090 .L0 
     /tmp/ccPws71A.s:121    .text:0000000000000090 .L0 
     /tmp/ccPws71A.s:123    .text:0000000000000094 .L0 
     /tmp/ccPws71A.s:125    .text:0000000000000098 .L0 
     /tmp/ccPws71A.s:127    .text:000000000000009c .L0 
     /tmp/ccPws71A.s:129    .text:00000000000000a0 .L0 
     /tmp/ccPws71A.s:130    .text:00000000000000a0 .L0 
GAS LISTING /tmp/ccPws71A.s 			page 13


     /tmp/ccPws71A.s:133    .text:00000000000000a4 .L0 
     /tmp/ccPws71A.s:134    .text:00000000000000a8 .L0 
     /tmp/ccPws71A.s:135    .text:00000000000000a8 .L0 
     /tmp/ccPws71A.s:136    .text:00000000000000a8 .L0 
     /tmp/ccPws71A.s:138    .text:00000000000000ac .L0 
     /tmp/ccPws71A.s:141    .text:00000000000000b0 .L0 
     /tmp/ccPws71A.s:143    .text:00000000000000b0 .L0 
     /tmp/ccPws71A.s:144    .text:00000000000000b0 .L0 
     /tmp/ccPws71A.s:146    .text:00000000000000b4 .L0 
     /tmp/ccPws71A.s:148    .text:00000000000000bc .L0 
     /tmp/ccPws71A.s:154    .text:00000000000000bc _ZN10KSemaphore5blockEv
     /tmp/ccPws71A.s:157    .text:00000000000000bc .L0 
     /tmp/ccPws71A.s:159    .text:00000000000000bc .L0 
     /tmp/ccPws71A.s:160    .text:00000000000000c0 .L0 
     /tmp/ccPws71A.s:163    .text:00000000000000c8 .L0 
     /tmp/ccPws71A.s:164    .text:00000000000000c8 .L0 
     /tmp/ccPws71A.s:166    .text:00000000000000cc .L0 
     /tmp/ccPws71A.s:168    .text:00000000000000cc .L0 
     /tmp/ccPws71A.s:169    .text:00000000000000cc .L0 
     /tmp/ccPws71A.s:176    .text:00000000000000d8 .L0 
     /tmp/ccPws71A.s:177    .text:00000000000000d8 .L0 
     /tmp/ccPws71A.s:183    .text:00000000000000e0 .L0 
     /tmp/ccPws71A.s:184    .text:00000000000000e0 .L0 
     /tmp/ccPws71A.s:187    .text:00000000000000e8 .L0 
     /tmp/ccPws71A.s:188    .text:00000000000000e8 .L0 
     /tmp/ccPws71A.s:191    .text:00000000000000f0 .L0 
     /tmp/ccPws71A.s:192    .text:00000000000000f4 .L0 
     /tmp/ccPws71A.s:194    .text:00000000000000f8 .L0 
     /tmp/ccPws71A.s:195    .text:00000000000000f8 .L0 
     /tmp/ccPws71A.s:197    .text:00000000000000fc .L0 
     /tmp/ccPws71A.s:199    .text:0000000000000100 .L0 
     /tmp/ccPws71A.s:205    .text:0000000000000100 _ZN10KSemaphore4waitEv
     /tmp/ccPws71A.s:208    .text:0000000000000100 .L0 
     /tmp/ccPws71A.s:210    .text:0000000000000100 .L0 
     /tmp/ccPws71A.s:211    .text:0000000000000100 .L0 
     /tmp/ccPws71A.s:212    .text:0000000000000100 .L0 
     /tmp/ccPws71A.s:214    .text:0000000000000104 .L0 
     /tmp/ccPws71A.s:216    .text:0000000000000108 .L0 
     /tmp/ccPws71A.s:218    .text:000000000000010c .L0 
     /tmp/ccPws71A.s:223    .text:0000000000000118 .L0 
     /tmp/ccPws71A.s:224    .text:000000000000011c .L0 
     /tmp/ccPws71A.s:227    .text:0000000000000124 .L0 
     /tmp/ccPws71A.s:228    .text:0000000000000124 .L0 
     /tmp/ccPws71A.s:230    .text:0000000000000128 .L0 
     /tmp/ccPws71A.s:232    .text:0000000000000128 .L0 
     /tmp/ccPws71A.s:233    .text:0000000000000128 .L0 
     /tmp/ccPws71A.s:236    .text:0000000000000130 .L0 
     /tmp/ccPws71A.s:237    .text:0000000000000134 .L0 
     /tmp/ccPws71A.s:239    .text:0000000000000138 .L0 
     /tmp/ccPws71A.s:240    .text:0000000000000138 .L0 
     /tmp/ccPws71A.s:242    .text:000000000000013c .L0 
     /tmp/ccPws71A.s:244    .text:0000000000000140 .L0 
     /tmp/ccPws71A.s:250    .text:0000000000000140 _ZN10KSemaphore15getFirstBlockedEv
     /tmp/ccPws71A.s:253    .text:0000000000000140 .L0 
     /tmp/ccPws71A.s:255    .text:0000000000000140 .L0 
     /tmp/ccPws71A.s:256    .text:0000000000000144 .L0 
     /tmp/ccPws71A.s:258    .text:0000000000000148 .L0 
GAS LISTING /tmp/ccPws71A.s 			page 14


     /tmp/ccPws71A.s:260    .text:000000000000014c .L0 
     /tmp/ccPws71A.s:262    .text:000000000000014c .L0 
     /tmp/ccPws71A.s:263    .text:000000000000014c .L0 
     /tmp/ccPws71A.s:266    .text:0000000000000154 .L0 
     /tmp/ccPws71A.s:267    .text:0000000000000154 .L0 
     /tmp/ccPws71A.s:269    .text:0000000000000158 .L0 
     /tmp/ccPws71A.s:271    .text:000000000000015c .L0 
     /tmp/ccPws71A.s:277    .text:000000000000015c _ZN10KSemaphore18removeFirstBlockedEv
     /tmp/ccPws71A.s:280    .text:000000000000015c .L0 
     /tmp/ccPws71A.s:282    .text:000000000000015c .L0 
     /tmp/ccPws71A.s:283    .text:0000000000000160 .L0 
     /tmp/ccPws71A.s:285    .text:0000000000000164 .L0 
     /tmp/ccPws71A.s:287    .text:0000000000000168 .L0 
     /tmp/ccPws71A.s:289    .text:0000000000000168 .L0 
     /tmp/ccPws71A.s:290    .text:0000000000000168 .L0 
     /tmp/ccPws71A.s:292    .text:000000000000016c .L0 
     /tmp/ccPws71A.s:295    .text:0000000000000170 .L0 
     /tmp/ccPws71A.s:296    .text:0000000000000170 .L0 
     /tmp/ccPws71A.s:297    .text:0000000000000170 .L0 
     /tmp/ccPws71A.s:299    .text:0000000000000174 .L0 
     /tmp/ccPws71A.s:301    .text:0000000000000178 .L0 
     /tmp/ccPws71A.s:302    .text:0000000000000178 .L0 
     /tmp/ccPws71A.s:304    .text:000000000000017c .L0 
     /tmp/ccPws71A.s:305    .text:000000000000017c .L0 
     /tmp/ccPws71A.s:308    .text:0000000000000180 .L0 
     /tmp/ccPws71A.s:311    .text:0000000000000184 .L0 
     /tmp/ccPws71A.s:312    .text:0000000000000188 .L0 
     /tmp/ccPws71A.s:313    .text:0000000000000188 .L0 
     /tmp/ccPws71A.s:314    .text:0000000000000188 .L0 
     /tmp/ccPws71A.s:316    .text:000000000000018c .L0 
     /tmp/ccPws71A.s:319    .text:0000000000000190 .L0 
     /tmp/ccPws71A.s:321    .text:0000000000000190 .L0 
     /tmp/ccPws71A.s:322    .text:0000000000000190 .L0 
     /tmp/ccPws71A.s:324    .text:0000000000000198 .L0 
     /tmp/ccPws71A.s:330    .text:0000000000000198 _ZN10KSemaphore7unblockEv
     /tmp/ccPws71A.s:333    .text:0000000000000198 .L0 
     /tmp/ccPws71A.s:335    .text:0000000000000198 .L0 
     /tmp/ccPws71A.s:336    .text:000000000000019c .L0 
     /tmp/ccPws71A.s:341    .text:00000000000001ac .L0 
     /tmp/ccPws71A.s:342    .text:00000000000001ac .L0 
     /tmp/ccPws71A.s:343    .text:00000000000001ac .L0 
     /tmp/ccPws71A.s:344    .text:00000000000001ac .L0 
     /tmp/ccPws71A.s:346    .text:00000000000001b0 .L0 
     /tmp/ccPws71A.s:349    .text:00000000000001b4 .L0 
     /tmp/ccPws71A.s:350    .text:00000000000001b4 .L0 
     /tmp/ccPws71A.s:355    .text:00000000000001c0 .L0 
     /tmp/ccPws71A.s:356    .text:00000000000001c0 .L0 
     /tmp/ccPws71A.s:360    .text:00000000000001cc .L0 
     /tmp/ccPws71A.s:365    .text:00000000000001d0 .L0 
     /tmp/ccPws71A.s:366    .text:00000000000001d0 .L0 
     /tmp/ccPws71A.s:367    .text:00000000000001d0 .L0 
     /tmp/ccPws71A.s:372    .text:00000000000001d4 .L0 
     /tmp/ccPws71A.s:373    .text:00000000000001d4 .L0 
     /tmp/ccPws71A.s:378    .text:00000000000001e0 .L0 
     /tmp/ccPws71A.s:379    .text:00000000000001e4 .L0 
     /tmp/ccPws71A.s:381    .text:00000000000001e8 .L0 
     /tmp/ccPws71A.s:382    .text:00000000000001e8 .L0 
GAS LISTING /tmp/ccPws71A.s 			page 15


     /tmp/ccPws71A.s:384    .text:00000000000001ec .L0 
     /tmp/ccPws71A.s:387    .text:00000000000001f0 .L0 
     /tmp/ccPws71A.s:390    .text:00000000000001f4 .L0 
     /tmp/ccPws71A.s:392    .text:00000000000001f8 .L0 
     /tmp/ccPws71A.s:398    .text:00000000000001f8 _ZN10KSemaphore6signalEv
     /tmp/ccPws71A.s:401    .text:00000000000001f8 .L0 
     /tmp/ccPws71A.s:403    .text:00000000000001f8 .L0 
     /tmp/ccPws71A.s:404    .text:00000000000001f8 .L0 
     /tmp/ccPws71A.s:405    .text:00000000000001f8 .L0 
     /tmp/ccPws71A.s:407    .text:00000000000001fc .L0 
     /tmp/ccPws71A.s:410    .text:0000000000000204 .L0 
     /tmp/ccPws71A.s:412    .text:0000000000000208 .L0 
     /tmp/ccPws71A.s:414    .text:000000000000020c .L0 
     /tmp/ccPws71A.s:415    .text:000000000000020c .L0 
     /tmp/ccPws71A.s:417    .text:0000000000000210 .L0 
     /tmp/ccPws71A.s:421    .text:0000000000000218 .L0 
     /tmp/ccPws71A.s:422    .text:000000000000021c .L0 
     /tmp/ccPws71A.s:425    .text:0000000000000224 .L0 
     /tmp/ccPws71A.s:426    .text:0000000000000224 .L0 
     /tmp/ccPws71A.s:428    .text:0000000000000228 .L0 
     /tmp/ccPws71A.s:430    .text:0000000000000228 .L0 
     /tmp/ccPws71A.s:431    .text:0000000000000228 .L0 
     /tmp/ccPws71A.s:434    .text:0000000000000230 .L0 
     /tmp/ccPws71A.s:435    .text:0000000000000234 .L0 
     /tmp/ccPws71A.s:437    .text:0000000000000238 .L0 
     /tmp/ccPws71A.s:438    .text:0000000000000238 .L0 
     /tmp/ccPws71A.s:440    .text:000000000000023c .L0 
     /tmp/ccPws71A.s:442    .text:0000000000000240 .L0 
     /tmp/ccPws71A.s:450    .text:0000000000000240 .L0 
     /tmp/ccPws71A.s:169    .text:00000000000000cc .L0 
     /tmp/ccPws71A.s:140    .text:00000000000000b0 .L9
     /tmp/ccPws71A.s:131    .text:00000000000000a4 .L5
     /tmp/ccPws71A.s:221    .text:0000000000000118 .L18
     /tmp/ccPws71A.s:309    .text:0000000000000184 .L21
     /tmp/ccPws71A.s:318    .text:0000000000000190 .L24
     /tmp/ccPws71A.s:376    .text:00000000000001e0 .L25
     /tmp/ccPws71A.s:419    .text:0000000000000218 .L35
     /tmp/ccPws71A.s:1757   .debug_abbrev:0000000000000000 .Ldebug_abbrev0
     /tmp/ccPws71A.s:3067   .debug_str:000000000000040b .LASF134
     /tmp/ccPws71A.s:3033   .debug_str:0000000000000315 .LASF135
     /tmp/ccPws71A.s:3163   .debug_str:0000000000000749 .LASF136
     /tmp/ccPws71A.s:5      .text:0000000000000000 .Ltext0
     /tmp/ccPws71A.s:445    .text:0000000000000240 .Letext0
     /tmp/ccPws71A.s:2919   .debug_line:0000000000000000 .Ldebug_line0
     /tmp/ccPws71A.s:3027   .debug_str:00000000000002ee .LASF0
     /tmp/ccPws71A.s:3049   .debug_str:000000000000038d .LASF1
     /tmp/ccPws71A.s:3105   .debug_str:00000000000005c1 .LASF2
     /tmp/ccPws71A.s:3117   .debug_str:0000000000000621 .LASF4
     /tmp/ccPws71A.s:3037   .debug_str:0000000000000335 .LASF3
     /tmp/ccPws71A.s:2935   .debug_str:000000000000005a .LASF5
     /tmp/ccPws71A.s:3093   .debug_str:0000000000000573 .LASF6
     /tmp/ccPws71A.s:3089   .debug_str:0000000000000558 .LASF7
     /tmp/ccPws71A.s:3041   .debug_str:000000000000034c .LASF8
     /tmp/ccPws71A.s:3015   .debug_str:000000000000029c .LASF9
     /tmp/ccPws71A.s:3021   .debug_str:00000000000002d4 .LASF10
     /tmp/ccPws71A.s:2967   .debug_str:000000000000016f .LASF11
     /tmp/ccPws71A.s:3007   .debug_str:0000000000000269 .LASF12
GAS LISTING /tmp/ccPws71A.s 			page 16


     /tmp/ccPws71A.s:2979   .debug_str:00000000000001a9 .LASF13
     /tmp/ccPws71A.s:2965   .debug_str:000000000000015f .LASF14
     /tmp/ccPws71A.s:3139   .debug_str:00000000000006db .LASF15
     /tmp/ccPws71A.s:3001   .debug_str:0000000000000242 .LASF16
     /tmp/ccPws71A.s:3135   .debug_str:00000000000006a9 .LASF17
     /tmp/ccPws71A.s:3165   .debug_str:000000000000076c .LASF28
     /tmp/ccPws71A.s:3179   .debug_str:00000000000007d5 .LASF20
     /tmp/ccPws71A.s:3043   .debug_str:000000000000035f .LASF18
     /tmp/ccPws71A.s:2969   .debug_str:000000000000017e .LASF19
     /tmp/ccPws71A.s:3149   .debug_str:000000000000070e .LASF21
     /tmp/ccPws71A.s:3057   .debug_str:00000000000003bc .LASF22
     /tmp/ccPws71A.s:3193   .debug_str:0000000000000828 .LASF39
     /tmp/ccPws71A.s:3177   .debug_str:00000000000007cf .LASF24
     /tmp/ccPws71A.s:2983   .debug_str:00000000000001ca .LASF26
     /tmp/ccPws71A.s:3029   .debug_str:00000000000002fb .LASF23
     /tmp/ccPws71A.s:3129   .debug_str:000000000000067e .LASF29
     /tmp/ccPws71A.s:3047   .debug_str:0000000000000388 .LASF25
     /tmp/ccPws71A.s:3099   .debug_str:000000000000058d .LASF27
     /tmp/ccPws71A.s:2995   .debug_str:000000000000020e .LASF30
     /tmp/ccPws71A.s:3097   .debug_str:0000000000000586 .LASF45
     /tmp/ccPws71A.s:2947   .debug_str:00000000000000c7 .LASF47
     /tmp/ccPws71A.s:3153   .debug_str:0000000000000719 .LASF137
     /tmp/ccPws71A.s:2963   .debug_str:0000000000000159 .LASF31
     /tmp/ccPws71A.s:3131   .debug_str:0000000000000693 .LASF32
     /tmp/ccPws71A.s:2975   .debug_str:0000000000000195 .LASF33
     /tmp/ccPws71A.s:2953   .debug_str:00000000000000f1 .LASF34
     /tmp/ccPws71A.s:3091   .debug_str:000000000000056b .LASF35
     /tmp/ccPws71A.s:2973   .debug_str:000000000000018c .LASF36
     /tmp/ccPws71A.s:3147   .debug_str:0000000000000706 .LASF37
     /tmp/ccPws71A.s:3023   .debug_str:00000000000002e2 .LASF38
     /tmp/ccPws71A.s:3171   .debug_str:0000000000000793 .LASF40
     /tmp/ccPws71A.s:3079   .debug_str:000000000000050a .LASF138
     /tmp/ccPws71A.s:3183   .debug_str:00000000000007f7 .LASF41
     /tmp/ccPws71A.s:3199   .debug_str:0000000000000852 .LASF42
     /tmp/ccPws71A.s:3195   .debug_str:0000000000000838 .LASF43
     /tmp/ccPws71A.s:3159   .debug_str:000000000000072f .LASF44
     /tmp/ccPws71A.s:2991   .debug_str:0000000000000200 .LASF71
     /tmp/ccPws71A.s:2943   .debug_str:000000000000008c .LASF73
     /tmp/ccPws71A.s:3053   .debug_str:00000000000003a9 .LASF46
     /tmp/ccPws71A.s:3083   .debug_str:0000000000000522 .LASF48
     /tmp/ccPws71A.s:3155   .debug_str:000000000000071f .LASF49
     /tmp/ccPws71A.s:3185   .debug_str:00000000000007fc .LASF50
     /tmp/ccPws71A.s:3123   .debug_str:0000000000000653 .LASF51
     /tmp/ccPws71A.s:3055   .debug_str:00000000000003af .LASF52
     /tmp/ccPws71A.s:3059   .debug_str:00000000000003c1 .LASF53
     /tmp/ccPws71A.s:3203   .debug_str:000000000000086e .LASF54
     /tmp/ccPws71A.s:3003   .debug_str:0000000000000258 .LASF55
     /tmp/ccPws71A.s:2929   .debug_str:0000000000000038 .LASF56
     /tmp/ccPws71A.s:3035   .debug_str:0000000000000328 .LASF57
     /tmp/ccPws71A.s:3127   .debug_str:0000000000000675 .LASF58
     /tmp/ccPws71A.s:3069   .debug_str:00000000000004ad .LASF59
     /tmp/ccPws71A.s:3111   .debug_str:00000000000005e7 .LASF60
     /tmp/ccPws71A.s:3137   .debug_str:00000000000006bf .LASF61
     /tmp/ccPws71A.s:3071   .debug_str:00000000000004c0 .LASF62
     /tmp/ccPws71A.s:2925   .debug_str:0000000000000019 .LASF63
     /tmp/ccPws71A.s:3189   .debug_str:000000000000080e .LASF64
     /tmp/ccPws71A.s:3087   .debug_str:000000000000053e .LASF65
GAS LISTING /tmp/ccPws71A.s 			page 17


     /tmp/ccPws71A.s:3133   .debug_str:000000000000069b .LASF66
     /tmp/ccPws71A.s:3095   .debug_str:000000000000057a .LASF67
     /tmp/ccPws71A.s:2989   .debug_str:00000000000001f0 .LASF68
     /tmp/ccPws71A.s:3191   .debug_str:000000000000081d .LASF69
     /tmp/ccPws71A.s:3065   .debug_str:00000000000003fb .LASF70
     /tmp/ccPws71A.s:2999   .debug_str:0000000000000230 .LASF72
     /tmp/ccPws71A.s:3181   .debug_str:00000000000007da .LASF74
     /tmp/ccPws71A.s:2955   .debug_str:00000000000000fa .LASF75
     /tmp/ccPws71A.s:3167   .debug_str:0000000000000772 .LASF76
     /tmp/ccPws71A.s:3121   .debug_str:000000000000064b .LASF101
     /tmp/ccPws71A.s:3161   .debug_str:000000000000073f .LASF77
     /tmp/ccPws71A.s:3085   .debug_str:0000000000000532 .LASF78
     /tmp/ccPws71A.s:2987   .debug_str:00000000000001e2 .LASF79
     /tmp/ccPws71A.s:2945   .debug_str:000000000000009f .LASF81
     /tmp/ccPws71A.s:3031   .debug_str:0000000000000300 .LASF80
     /tmp/ccPws71A.s:2961   .debug_str:000000000000012d .LASF82
     /tmp/ccPws71A.s:3187   .debug_str:0000000000000807 .LASF139
     /tmp/ccPws71A.s:2959   .debug_str:000000000000011c .LASF140
     /tmp/ccPws71A.s:2927   .debug_str:0000000000000033 .LASF83
     /tmp/ccPws71A.s:3145   .debug_str:0000000000000701 .LASF84
     /tmp/ccPws71A.s:3063   .debug_str:00000000000003f3 .LASF85
     /tmp/ccPws71A.s:2985   .debug_str:00000000000001dc .LASF86
     /tmp/ccPws71A.s:3169   .debug_str:000000000000078b .LASF87
     /tmp/ccPws71A.s:2949   .debug_str:00000000000000d5 .LASF88
     /tmp/ccPws71A.s:3013   .debug_str:0000000000000292 .LASF89
     /tmp/ccPws71A.s:2939   .debug_str:000000000000006b .LASF141
     /tmp/ccPws71A.s:3197   .debug_str:000000000000083e .LASF142
     /tmp/ccPws71A.s:3039   .debug_str:0000000000000347 .LASF90
     /tmp/ccPws71A.s:3077   .debug_str:00000000000004f1 .LASF91
     /tmp/ccPws71A.s:3005   .debug_str:0000000000000264 .LASF92
     /tmp/ccPws71A.s:3009   .debug_str:0000000000000278 .LASF96
     /tmp/ccPws71A.s:2951   .debug_str:00000000000000df .LASF93
     /tmp/ccPws71A.s:3081   .debug_str:000000000000050f .LASF94
     /tmp/ccPws71A.s:3157   .debug_str:0000000000000727 .LASF95
     /tmp/ccPws71A.s:3103   .debug_str:00000000000005a9 .LASF97
     /tmp/ccPws71A.s:3125   .debug_str:0000000000000664 .LASF98
     /tmp/ccPws71A.s:2981   .debug_str:00000000000001b9 .LASF99
     /tmp/ccPws71A.s:2941   .debug_str:0000000000000083 .LASF100
     /tmp/ccPws71A.s:2937   .debug_str:0000000000000061 .LASF102
     /tmp/ccPws71A.s:3151   .debug_str:0000000000000714 .LASF103
     /tmp/ccPws71A.s:3101   .debug_str:000000000000059e .LASF104
     /tmp/ccPws71A.s:3019   .debug_str:00000000000002c0 .LASF105
     /tmp/ccPws71A.s:2993   .debug_str:0000000000000209 .LASF106
     /tmp/ccPws71A.s:3173   .debug_str:00000000000007ab .LASF107
     /tmp/ccPws71A.s:3143   .debug_str:00000000000006fa .LASF108
     /tmp/ccPws71A.s:3075   .debug_str:00000000000004d8 .LASF109
     /tmp/ccPws71A.s:3107   .debug_str:00000000000005cf .LASF110
     /tmp/ccPws71A.s:2997   .debug_str:000000000000021c .LASF111
     /tmp/ccPws71A.s:2971   .debug_str:0000000000000183 .LASF112
     /tmp/ccPws71A.s:2977   .debug_str:000000000000019f .LASF113
     /tmp/ccPws71A.s:3073   .debug_str:00000000000004cf .LASF114
     /tmp/ccPws71A.s:3115   .debug_str:0000000000000616 .LASF115
     /tmp/ccPws71A.s:2923   .debug_str:000000000000000d .LASF116
     /tmp/ccPws71A.s:3109   .debug_str:00000000000005db .LASF117
     /tmp/ccPws71A.s:3051   .debug_str:00000000000003a0 .LASF118
     /tmp/ccPws71A.s:3175   .debug_str:00000000000007c2 .LASF119
     /tmp/ccPws71A.s:3025   .debug_str:00000000000002e8 .LASF120
GAS LISTING /tmp/ccPws71A.s 			page 18


     /tmp/ccPws71A.s:3205   .debug_str:000000000000087b .LASF121
     /tmp/ccPws71A.s:2931   .debug_str:0000000000000048 .LASF122
     /tmp/ccPws71A.s:3061   .debug_str:00000000000003d9 .LASF123
     /tmp/ccPws71A.s:3201   .debug_str:000000000000085e .LASF124
     /tmp/ccPws71A.s:3119   .debug_str:0000000000000628 .LASF125
     /tmp/ccPws71A.s:3141   .debug_str:00000000000006e7 .LASF126
     /tmp/ccPws71A.s:3113   .debug_str:00000000000005f0 .LASF127
     /tmp/ccPws71A.s:2921   .debug_str:0000000000000000 .LASF128
     /tmp/ccPws71A.s:3045   .debug_str:0000000000000364 .LASF129
     /tmp/ccPws71A.s:331    .text:0000000000000198 .LFB33
     /tmp/ccPws71A.s:393    .text:00000000000001f8 .LFE33
     /tmp/ccPws71A.s:3011   .debug_str:000000000000028d .LASF130
     /tmp/ccPws71A.s:2736   .debug_loc:0000000000000000 .LLST9
     /tmp/ccPws71A.s:2754   .debug_loc:000000000000004c .LLST10
     /tmp/ccPws71A.s:363    .text:00000000000001d0 .LBB10
     /tmp/ccPws71A.s:370    .text:00000000000001d4 .LBE10
     /tmp/ccPws71A.s:2761   .debug_loc:000000000000006f .LLST11
     /tmp/ccPws71A.s:2769   .debug_loc:0000000000000093 .LLST12
     /tmp/ccPws71A.s:351    .text:00000000000001bc .LVL21
     /tmp/ccPws71A.s:358    .text:00000000000001cc .LVL23
     /tmp/ccPws71A.s:375    .text:00000000000001e0 .LVL26
     /tmp/ccPws71A.s:278    .text:000000000000015c .LFB32
     /tmp/ccPws71A.s:325    .text:0000000000000198 .LFE32
     /tmp/ccPws71A.s:2776   .debug_loc:00000000000000b6 .LLST8
     /tmp/ccPws71A.s:251    .text:0000000000000140 .LFB31
     /tmp/ccPws71A.s:272    .text:000000000000015c .LFE31
     /tmp/ccPws71A.s:2783   .debug_loc:00000000000000d9 .LLST7
     /tmp/ccPws71A.s:155    .text:00000000000000bc .LFB30
     /tmp/ccPws71A.s:200    .text:0000000000000100 .LFE30
     /tmp/ccPws71A.s:2797   .debug_loc:0000000000000112 .LLST3
     /tmp/ccPws71A.s:172    .text:00000000000000d8 .LBB8
     /tmp/ccPws71A.s:181    .text:00000000000000e0 .LBE8
     /tmp/ccPws71A.s:2811   .debug_loc:000000000000014b .LLST4
     /tmp/ccPws71A.s:2819   .debug_loc:000000000000016f .LLST5
     /tmp/ccPws71A.s:185    .text:00000000000000e8 .LVL11
     /tmp/ccPws71A.s:189    .text:00000000000000f0 .LVL12
     /tmp/ccPws71A.s:106    .text:0000000000000080 .LFB29
     /tmp/ccPws71A.s:149    .text:00000000000000bc .LFE29
     /tmp/ccPws71A.s:2933   .debug_str:0000000000000050 .LASF131
     /tmp/ccPws71A.s:3017   .debug_str:00000000000002ac .LASF132
     /tmp/ccPws71A.s:69     .text:0000000000000054 .LFB27
     /tmp/ccPws71A.s:98     .text:0000000000000080 .LFE27
     /tmp/ccPws71A.s:2826   .debug_loc:0000000000000192 .LLST2
     /tmp/ccPws71A.s:86     .text:0000000000000070 .LVL6
     /tmp/ccPws71A.s:399    .text:00000000000001f8 .LFB25
     /tmp/ccPws71A.s:443    .text:0000000000000240 .LFE25
     /tmp/ccPws71A.s:2846   .debug_loc:00000000000001e0 .LLST13
     /tmp/ccPws71A.s:432    .text:0000000000000230 .LVL30
     /tmp/ccPws71A.s:206    .text:0000000000000100 .LFB24
     /tmp/ccPws71A.s:245    .text:0000000000000140 .LFE24
     /tmp/ccPws71A.s:2860   .debug_loc:0000000000000219 .LLST6
     /tmp/ccPws71A.s:234    .text:0000000000000130 .LVL14
     /tmp/ccPws71A.s:2957   .debug_str:0000000000000108 .LASF133
     /tmp/ccPws71A.s:10     .text:0000000000000000 .LFB22
     /tmp/ccPws71A.s:61     .text:0000000000000054 .LFE22
     /tmp/ccPws71A.s:2874   .debug_loc:0000000000000252 .LLST0
     /tmp/ccPws71A.s:2892   .debug_loc:000000000000029e .LLST1
GAS LISTING /tmp/ccPws71A.s 			page 19


     /tmp/ccPws71A.s:34     .text:000000000000002c .LVL2
     /tmp/ccPws71A.s:334    .text:0000000000000198 .LVL20
     /tmp/ccPws71A.s:388    .text:00000000000001f0 .LVL28
     /tmp/ccPws71A.s:353    .text:00000000000001c0 .LVL22
     /tmp/ccPws71A.s:385    .text:00000000000001ec .LVL27
     /tmp/ccPws71A.s:362    .text:00000000000001d0 .LVL24
     /tmp/ccPws71A.s:368    .text:00000000000001d4 .LVL25
     /tmp/ccPws71A.s:294    .text:0000000000000170 .LVL18
     /tmp/ccPws71A.s:306    .text:0000000000000180 .LVL19
     /tmp/ccPws71A.s:254    .text:0000000000000140 .LVL15
     /tmp/ccPws71A.s:264    .text:0000000000000150 .LVL16
     /tmp/ccPws71A.s:158    .text:00000000000000bc .LVL8
     /tmp/ccPws71A.s:171    .text:00000000000000d8 .LVL9
     /tmp/ccPws71A.s:179    .text:00000000000000e0 .LVL10
     /tmp/ccPws71A.s:72     .text:0000000000000054 .LVL4
     /tmp/ccPws71A.s:84     .text:0000000000000068 .LVL5
     /tmp/ccPws71A.s:402    .text:00000000000001f8 .LVL29
     /tmp/ccPws71A.s:209    .text:0000000000000100 .LVL13
     /tmp/ccPws71A.s:14     .text:0000000000000000 .LVL0
     /tmp/ccPws71A.s:32     .text:0000000000000024 .LVL1
     /tmp/ccPws71A.s:54     .text:0000000000000048 .LVL3
     /tmp/ccPws71A.s:451    .debug_info:0000000000000000 .Ldebug_info0

UNDEFINED SYMBOLS
_ZN5QueueC1Ev
_ZN5QueueD1Ev
_ZN3PCB7runningE
_ZN3PCB8dispatchEv
_ZN9Scheduler3putEP3PCB
