GAS LISTING /tmp/ccXYTfXE.s 			page 1


   1              		.file	"KSemaphore.cpp"
   2              		.option pic
   3              		.option norelax
   4              		.text
   5              	.Ltext0:
   6              		.align	2
   7              		.globl	_ZN10KSemaphoreC2Ei
   9              	_ZN10KSemaphoreC2Ei:
  10              	.LFB26:
  11              		.file 1 "src/KSemaphore.cpp"
   1:src/KSemaphore.cpp **** //
   2:src/KSemaphore.cpp **** // Created by os on 5/2/22.
   3:src/KSemaphore.cpp **** //
   4:src/KSemaphore.cpp **** 
   5:src/KSemaphore.cpp **** #include "../h/KSemaphore.hpp"
   6:src/KSemaphore.cpp **** #include "../h/MemoryAllocator.hpp"
   7:src/KSemaphore.cpp **** 
   8:src/KSemaphore.cpp **** KSemaphore::KSemaphore(int val)
  12              		.loc 1 8 1
  13              		.cfi_startproc
  14              	.LVL0:
  15 0000 130101FF 		addi	sp,sp,-16
  16              		.cfi_def_cfa_offset 16
  17 0004 23348100 		sd	s0,8(sp)
  18              		.cfi_offset 8, -8
  19 0008 13040101 		addi	s0,sp,16
  20              		.cfi_def_cfa 8, 0
  21              	.LBB4:
   9:src/KSemaphore.cpp **** {
  10:src/KSemaphore.cpp ****     this->val = this->beginVal = val;
  22              		.loc 1 10 5
  23              		.loc 1 10 32 is_stmt 0
  24 000c 232AB500 		sw	a1,20(a0)
  25              		.loc 1 10 15
  26 0010 2328B500 		sw	a1,16(a0)
  11:src/KSemaphore.cpp ****     headBlocked = tailBlocked = 0;
  27              		.loc 1 11 5 is_stmt 1
  28              		.loc 1 11 31 is_stmt 0
  29 0014 23340500 		sd	zero,8(a0)
  30              		.loc 1 11 17
  31 0018 23300500 		sd	zero,0(a0)
  32              	.LBE4:
  12:src/KSemaphore.cpp **** }
  33              		.loc 1 12 1
  34 001c 03348100 		ld	s0,8(sp)
  35              		.cfi_restore 8
  36              		.cfi_def_cfa 2, 16
  37 0020 13010101 		addi	sp,sp,16
  38              		.cfi_def_cfa_offset 0
  39 0024 67800000 		jr	ra
  40              		.cfi_endproc
  41              	.LFE26:
  43              		.globl	_ZN10KSemaphoreC1Ei
  44              		.set	_ZN10KSemaphoreC1Ei,_ZN10KSemaphoreC2Ei
  45              		.align	2
  46              		.globl	_ZN10KSemaphore12addToBlockedEP3PCB
  48              	_ZN10KSemaphore12addToBlockedEP3PCB:
GAS LISTING /tmp/ccXYTfXE.s 			page 2


  49              	.LFB34:
  13:src/KSemaphore.cpp **** 
  14:src/KSemaphore.cpp **** uint64 KSemaphore::wait() {
  15:src/KSemaphore.cpp ****     if(--val < 0)
  16:src/KSemaphore.cpp ****         block();
  17:src/KSemaphore.cpp **** 
  18:src/KSemaphore.cpp ****     return 0;
  19:src/KSemaphore.cpp **** }
  20:src/KSemaphore.cpp **** 
  21:src/KSemaphore.cpp **** uint64 KSemaphore::signal() {
  22:src/KSemaphore.cpp ****     if(++val <= 0)
  23:src/KSemaphore.cpp ****         unblock();
  24:src/KSemaphore.cpp **** 
  25:src/KSemaphore.cpp ****     return 0;
  26:src/KSemaphore.cpp **** }
  27:src/KSemaphore.cpp **** 
  28:src/KSemaphore.cpp **** void KSemaphore::semOpenHandler()
  29:src/KSemaphore.cpp **** {
  30:src/KSemaphore.cpp ****     uint64 val;
  31:src/KSemaphore.cpp ****     KSemaphore** semaphoreHandle;
  32:src/KSemaphore.cpp ****     __asm__ volatile("mv %0, a1" : "=r"(semaphoreHandle));
  33:src/KSemaphore.cpp ****     __asm__ volatile("mv %0, a2" : "=r"(val));
  34:src/KSemaphore.cpp **** 
  35:src/KSemaphore.cpp ****     KSemaphore* newSem = new KSemaphore(val);
  36:src/KSemaphore.cpp **** 
  37:src/KSemaphore.cpp ****     (*semaphoreHandle) = newSem;
  38:src/KSemaphore.cpp **** 
  39:src/KSemaphore.cpp ****     if(newSem == 0)
  40:src/KSemaphore.cpp ****             __asm__ volatile("li a0, 0xffffffffffffffff");
  41:src/KSemaphore.cpp ****     else
  42:src/KSemaphore.cpp ****             __asm__ volatile("li a0, 0");
  43:src/KSemaphore.cpp **** }
  44:src/KSemaphore.cpp **** 
  45:src/KSemaphore.cpp **** KSemaphore::~KSemaphore()
  46:src/KSemaphore.cpp **** {
  47:src/KSemaphore.cpp ****     while(getFirstBlocked() != 0)
  48:src/KSemaphore.cpp ****     {
  49:src/KSemaphore.cpp ****         PCB* pcb = getFirstBlocked();
  50:src/KSemaphore.cpp ****         removeFirstBlocked();
  51:src/KSemaphore.cpp ****         Scheduler::put(pcb);
  52:src/KSemaphore.cpp ****     }
  53:src/KSemaphore.cpp **** }
  54:src/KSemaphore.cpp **** 
  55:src/KSemaphore.cpp **** void KSemaphore::addToBlocked(PCB* pcb)
  56:src/KSemaphore.cpp **** {
  50              		.loc 1 56 1 is_stmt 1
  51              		.cfi_startproc
  52              	.LVL1:
  53 0028 130101FF 		addi	sp,sp,-16
  54              		.cfi_def_cfa_offset 16
  55 002c 23348100 		sd	s0,8(sp)
  56              		.cfi_offset 8, -8
  57 0030 13040101 		addi	s0,sp,16
  58              		.cfi_def_cfa 8, 0
  57:src/KSemaphore.cpp ****     pcb->nextPCB = 0;
  59              		.loc 1 57 5
  60              		.loc 1 57 18 is_stmt 0
GAS LISTING /tmp/ccXYTfXE.s 			page 3


  61 0034 23B40500 		sd	zero,8(a1)
  58:src/KSemaphore.cpp ****     if(headBlocked == 0)
  62              		.loc 1 58 5 is_stmt 1
  63              		.loc 1 58 8 is_stmt 0
  64 0038 83370500 		ld	a5,0(a0)
  65              		.loc 1 58 5
  66 003c 638E0700 		beqz	a5,.L7
  59:src/KSemaphore.cpp ****     {
  60:src/KSemaphore.cpp ****         headBlocked = tailBlocked = pcb;
  61:src/KSemaphore.cpp ****     }
  62:src/KSemaphore.cpp ****     else
  63:src/KSemaphore.cpp ****     {
  64:src/KSemaphore.cpp ****         tailBlocked->nextPCB = pcb;
  67              		.loc 1 64 9 is_stmt 1
  68 0040 83378500 		ld	a5,8(a0)
  69              		.loc 1 64 30 is_stmt 0
  70 0044 23B4B700 		sd	a1,8(a5)
  65:src/KSemaphore.cpp ****         tailBlocked = pcb;
  71              		.loc 1 65 9 is_stmt 1
  72              		.loc 1 65 21 is_stmt 0
  73 0048 2334B500 		sd	a1,8(a0)
  74              	.L3:
  66:src/KSemaphore.cpp ****     }
  67:src/KSemaphore.cpp **** }
  75              		.loc 1 67 1
  76 004c 03348100 		ld	s0,8(sp)
  77              		.cfi_remember_state
  78              		.cfi_restore 8
  79              		.cfi_def_cfa 2, 16
  80 0050 13010101 		addi	sp,sp,16
  81              		.cfi_def_cfa_offset 0
  82 0054 67800000 		jr	ra
  83              	.L7:
  84              		.cfi_restore_state
  60:src/KSemaphore.cpp ****     }
  85              		.loc 1 60 9 is_stmt 1
  60:src/KSemaphore.cpp ****     }
  86              		.loc 1 60 35 is_stmt 0
  87 0058 2334B500 		sd	a1,8(a0)
  60:src/KSemaphore.cpp ****     }
  88              		.loc 1 60 21
  89 005c 2330B500 		sd	a1,0(a0)
  90 0060 6FF0DFFE 		j	.L3
  91              		.cfi_endproc
  92              	.LFE34:
  94              		.align	2
  95              		.globl	_ZN10KSemaphore5blockEv
  97              	_ZN10KSemaphore5blockEv:
  98              	.LFB35:
  68:src/KSemaphore.cpp **** 
  69:src/KSemaphore.cpp **** void KSemaphore::block()
  70:src/KSemaphore.cpp **** {
  99              		.loc 1 70 1 is_stmt 1
 100              		.cfi_startproc
 101              	.LVL2:
 102 0064 130101FF 		addi	sp,sp,-16
 103              		.cfi_def_cfa_offset 16
GAS LISTING /tmp/ccXYTfXE.s 			page 4


 104 0068 23341100 		sd	ra,8(sp)
 105 006c 23308100 		sd	s0,0(sp)
 106              		.cfi_offset 1, -8
 107              		.cfi_offset 8, -16
 108 0070 13040101 		addi	s0,sp,16
 109              		.cfi_def_cfa 8, 0
  71:src/KSemaphore.cpp ****     PCB::running->setState(PCB::SUSPENDED);
 110              		.loc 1 71 5
 111              		.loc 1 71 27 is_stmt 0
 112 0074 97070000 		la	a5,_ZN3PCB7runningE
 112      83B70700 
 113 007c 83B50700 		ld	a1,0(a5)
 114              	.LVL3:
 115              	.LBB5:
 116              	.LBB6:
 117              		.file 2 "src/../h/PCB.hpp"
   1:src/../h/PCB.hpp **** //
   2:src/../h/PCB.hpp **** // Created by os on 4/27/22.
   3:src/../h/PCB.hpp **** //
   4:src/../h/PCB.hpp **** 
   5:src/../h/PCB.hpp **** #ifndef PROJECT_BASE_V1_0_PCB_HPP
   6:src/../h/PCB.hpp **** #define PROJECT_BASE_V1_0_PCB_HPP
   7:src/../h/PCB.hpp **** 
   8:src/../h/PCB.hpp **** #include "../lib/hw.h"
   9:src/../h/PCB.hpp **** #include "Scheduler.hpp"
  10:src/../h/PCB.hpp **** #include "Riscv.hpp"
  11:src/../h/PCB.hpp **** 
  12:src/../h/PCB.hpp **** class PCB
  13:src/../h/PCB.hpp **** {
  14:src/../h/PCB.hpp **** public:
  15:src/../h/PCB.hpp ****     static uint64 savedRegA4;
  16:src/../h/PCB.hpp **** 
  17:src/../h/PCB.hpp ****     using Body = void (*)(void*);
  18:src/../h/PCB.hpp **** 
  19:src/../h/PCB.hpp ****     PCB(Body body,  void* args, void* stack_space, uint64 timeSlice);
  20:src/../h/PCB.hpp ****     ~PCB();
  21:src/../h/PCB.hpp **** 
  22:src/../h/PCB.hpp ****     void start();
  23:src/../h/PCB.hpp ****     static void dispatch();
  24:src/../h/PCB.hpp ****     static void sleep(time_t);
  25:src/../h/PCB.hpp **** 
  26:src/../h/PCB.hpp ****     static PCB* running;
  27:src/../h/PCB.hpp **** 
  28:src/../h/PCB.hpp ****     static uint64 timeSliceCounter;
  29:src/../h/PCB.hpp ****     uint64 getTimeSlice() { return timeSlice;}
  30:src/../h/PCB.hpp **** 
  31:src/../h/PCB.hpp ****     void* operator new(size_t size);
  32:src/../h/PCB.hpp ****     void operator delete(void *p);
  33:src/../h/PCB.hpp **** 
  34:src/../h/PCB.hpp ****     enum State{READY, RUNNING, SUSPENDED, FINISHED, EXITING, SLEEPING};
  35:src/../h/PCB.hpp ****     State getState() {return state;}
  36:src/../h/PCB.hpp ****     void setState(State s) {state = s;}
 118              		.loc 2 36 29 is_stmt 1
 119              		.loc 2 36 35 is_stmt 0
 120 0080 93072000 		li	a5,2
 121 0084 23A0F504 		sw	a5,64(a1)
 122              	.LVL4:
GAS LISTING /tmp/ccXYTfXE.s 			page 5


 123              	.LBE6:
 124              	.LBE5:
  72:src/KSemaphore.cpp ****     addToBlocked(PCB::running);
 125              		.loc 1 72 5 is_stmt 1
 126              		.loc 1 72 17 is_stmt 0
 127 0088 97000000 		call	_ZN10KSemaphore12addToBlockedEP3PCB
 127      E7800000 
 128              	.LVL5:
  73:src/KSemaphore.cpp ****     PCB::dispatch();
 129              		.loc 1 73 5 is_stmt 1
 130              		.loc 1 73 18 is_stmt 0
 131 0090 97000000 		call	_ZN3PCB8dispatchEv@plt
 131      E7800000 
 132              	.LVL6:
  74:src/KSemaphore.cpp **** }
 133              		.loc 1 74 1
 134 0098 83308100 		ld	ra,8(sp)
 135              		.cfi_restore 1
 136 009c 03340100 		ld	s0,0(sp)
 137              		.cfi_restore 8
 138              		.cfi_def_cfa 2, 16
 139 00a0 13010101 		addi	sp,sp,16
 140              		.cfi_def_cfa_offset 0
 141 00a4 67800000 		jr	ra
 142              		.cfi_endproc
 143              	.LFE35:
 145              		.align	2
 146              		.globl	_ZN10KSemaphore4waitEv
 148              	_ZN10KSemaphore4waitEv:
 149              	.LFB28:
  14:src/KSemaphore.cpp ****     if(--val < 0)
 150              		.loc 1 14 27 is_stmt 1
 151              		.cfi_startproc
 152              	.LVL7:
  15:src/KSemaphore.cpp ****         block();
 153              		.loc 1 15 5
  15:src/KSemaphore.cpp ****         block();
 154              		.loc 1 15 10 is_stmt 0
 155 00a8 83270501 		lw	a5,16(a0)
  15:src/KSemaphore.cpp ****         block();
 156              		.loc 1 15 8
 157 00ac 9B87F7FF 		addiw	a5,a5,-1
  15:src/KSemaphore.cpp ****         block();
 158              		.loc 1 15 14
 159 00b0 2328F500 		sw	a5,16(a0)
  15:src/KSemaphore.cpp ****         block();
 160              		.loc 1 15 5
 161 00b4 13970702 		slli	a4,a5,32
 162 00b8 63460700 		bltz	a4,.L16
  18:src/KSemaphore.cpp **** }
 163              		.loc 1 18 5 is_stmt 1
  19:src/KSemaphore.cpp **** 
 164              		.loc 1 19 1 is_stmt 0
 165 00bc 13050000 		li	a0,0
 166              	.LVL8:
 167 00c0 67800000 		ret
 168              	.LVL9:
GAS LISTING /tmp/ccXYTfXE.s 			page 6


 169              	.L16:
  14:src/KSemaphore.cpp ****     if(--val < 0)
 170              		.loc 1 14 27
 171 00c4 130101FF 		addi	sp,sp,-16
 172              		.cfi_def_cfa_offset 16
 173 00c8 23341100 		sd	ra,8(sp)
 174 00cc 23308100 		sd	s0,0(sp)
 175              		.cfi_offset 1, -8
 176              		.cfi_offset 8, -16
 177 00d0 13040101 		addi	s0,sp,16
 178              		.cfi_def_cfa 8, 0
  16:src/KSemaphore.cpp **** 
 179              		.loc 1 16 9 is_stmt 1
  16:src/KSemaphore.cpp **** 
 180              		.loc 1 16 14 is_stmt 0
 181 00d4 97000000 		call	_ZN10KSemaphore5blockEv
 181      E7800000 
 182              	.LVL10:
  18:src/KSemaphore.cpp **** }
 183              		.loc 1 18 5 is_stmt 1
  19:src/KSemaphore.cpp **** 
 184              		.loc 1 19 1 is_stmt 0
 185 00dc 13050000 		li	a0,0
 186 00e0 83308100 		ld	ra,8(sp)
 187              		.cfi_restore 1
 188 00e4 03340100 		ld	s0,0(sp)
 189              		.cfi_restore 8
 190              		.cfi_def_cfa 2, 16
 191 00e8 13010101 		addi	sp,sp,16
 192              		.cfi_def_cfa_offset 0
 193 00ec 67800000 		jr	ra
 194              		.cfi_endproc
 195              	.LFE28:
 197              		.align	2
 198              		.globl	_ZN10KSemaphore15getFirstBlockedEv
 200              	_ZN10KSemaphore15getFirstBlockedEv:
 201              	.LFB36:
  75:src/KSemaphore.cpp **** 
  76:src/KSemaphore.cpp **** PCB* KSemaphore::getFirstBlocked()
  77:src/KSemaphore.cpp **** {
 202              		.loc 1 77 1 is_stmt 1
 203              		.cfi_startproc
 204              	.LVL11:
 205 00f0 130101FF 		addi	sp,sp,-16
 206              		.cfi_def_cfa_offset 16
 207 00f4 23348100 		sd	s0,8(sp)
 208              		.cfi_offset 8, -8
 209 00f8 13040101 		addi	s0,sp,16
 210              		.cfi_def_cfa 8, 0
  78:src/KSemaphore.cpp ****    return headBlocked;
 211              		.loc 1 78 4
  79:src/KSemaphore.cpp **** }
 212              		.loc 1 79 1 is_stmt 0
 213 00fc 03350500 		ld	a0,0(a0)
 214              	.LVL12:
 215 0100 03348100 		ld	s0,8(sp)
 216              		.cfi_restore 8
GAS LISTING /tmp/ccXYTfXE.s 			page 7


 217              		.cfi_def_cfa 2, 16
 218 0104 13010101 		addi	sp,sp,16
 219              		.cfi_def_cfa_offset 0
 220 0108 67800000 		jr	ra
 221              		.cfi_endproc
 222              	.LFE36:
 224              		.align	2
 225              		.globl	_ZN10KSemaphore18removeFirstBlockedEv
 227              	_ZN10KSemaphore18removeFirstBlockedEv:
 228              	.LFB37:
  80:src/KSemaphore.cpp **** 
  81:src/KSemaphore.cpp **** void KSemaphore::removeFirstBlocked()
  82:src/KSemaphore.cpp **** {
 229              		.loc 1 82 1 is_stmt 1
 230              		.cfi_startproc
 231              	.LVL13:
 232 010c 130101FF 		addi	sp,sp,-16
 233              		.cfi_def_cfa_offset 16
 234 0110 23348100 		sd	s0,8(sp)
 235              		.cfi_offset 8, -8
 236 0114 13040101 		addi	s0,sp,16
 237              		.cfi_def_cfa 8, 0
  83:src/KSemaphore.cpp ****     if(headBlocked == 0)
 238              		.loc 1 83 5
 239              		.loc 1 83 8 is_stmt 0
 240 0118 83370500 		ld	a5,0(a0)
 241              		.loc 1 83 5
 242 011c 638C0700 		beqz	a5,.L19
  84:src/KSemaphore.cpp ****         return;
  85:src/KSemaphore.cpp ****     PCB* first = headBlocked;
 243              		.loc 1 85 5 is_stmt 1
 244              	.LVL14:
  86:src/KSemaphore.cpp ****     headBlocked = headBlocked->nextPCB;
 245              		.loc 1 86 5
 246              		.loc 1 86 32 is_stmt 0
 247 0120 03B78700 		ld	a4,8(a5)
 248              		.loc 1 86 17
 249 0124 2330E500 		sd	a4,0(a0)
  87:src/KSemaphore.cpp ****     first->nextPCB = 0;
 250              		.loc 1 87 5 is_stmt 1
 251              		.loc 1 87 20 is_stmt 0
 252 0128 23B40700 		sd	zero,8(a5)
  88:src/KSemaphore.cpp ****     if(headBlocked == 0)
 253              		.loc 1 88 5 is_stmt 1
 254              		.loc 1 88 8 is_stmt 0
 255 012c 83370500 		ld	a5,0(a0)
 256              	.LVL15:
 257              		.loc 1 88 5
 258 0130 63880700 		beqz	a5,.L22
 259              	.L19:
  89:src/KSemaphore.cpp ****         tailBlocked =0;
  90:src/KSemaphore.cpp **** }
 260              		.loc 1 90 1
 261 0134 03348100 		ld	s0,8(sp)
 262              		.cfi_remember_state
 263              		.cfi_restore 8
 264              		.cfi_def_cfa 2, 16
GAS LISTING /tmp/ccXYTfXE.s 			page 8


 265 0138 13010101 		addi	sp,sp,16
 266              		.cfi_def_cfa_offset 0
 267 013c 67800000 		jr	ra
 268              	.L22:
 269              		.cfi_restore_state
  89:src/KSemaphore.cpp ****         tailBlocked =0;
 270              		.loc 1 89 9 is_stmt 1
  89:src/KSemaphore.cpp ****         tailBlocked =0;
 271              		.loc 1 89 21 is_stmt 0
 272 0140 23340500 		sd	zero,8(a0)
 273 0144 6FF01FFF 		j	.L19
 274              		.cfi_endproc
 275              	.LFE37:
 277              		.align	2
 278              		.globl	_ZN10KSemaphoreD2Ev
 280              	_ZN10KSemaphoreD2Ev:
 281              	.LFB32:
  45:src/KSemaphore.cpp **** {
 282              		.loc 1 45 1 is_stmt 1
 283              		.cfi_startproc
 284              		.cfi_personality 0x9b,DW.ref.__gxx_personality_v0
 285              		.cfi_lsda 0x1b,.LLSDA32
 286              	.LVL16:
 287 0148 130101FE 		addi	sp,sp,-32
 288              		.cfi_def_cfa_offset 32
 289 014c 233C1100 		sd	ra,24(sp)
 290 0150 23388100 		sd	s0,16(sp)
 291 0154 23349100 		sd	s1,8(sp)
 292 0158 23302101 		sd	s2,0(sp)
 293              		.cfi_offset 1, -8
 294              		.cfi_offset 8, -16
 295              		.cfi_offset 9, -24
 296              		.cfi_offset 18, -32
 297 015c 13040102 		addi	s0,sp,32
 298              		.cfi_def_cfa 8, 0
 299 0160 13090500 		mv	s2,a0
 300              	.LVL17:
 301              	.L25:
 302              	.LBB7:
  47:src/KSemaphore.cpp ****     {
 303              		.loc 1 47 5
  47:src/KSemaphore.cpp ****     {
 304              		.loc 1 47 29
  47:src/KSemaphore.cpp ****     {
 305              		.loc 1 47 26 is_stmt 0
 306 0164 13050900 		mv	a0,s2
 307 0168 97000000 		call	_ZN10KSemaphore15getFirstBlockedEv
 307      E7800000 
 308              	.LVL18:
 309 0170 93040500 		mv	s1,a0
  47:src/KSemaphore.cpp ****     {
 310              		.loc 1 47 29
 311 0174 63000502 		beqz	a0,.L23
 312              	.LBB8:
  49:src/KSemaphore.cpp ****         removeFirstBlocked();
 313              		.loc 1 49 9 is_stmt 1
 314              	.LVL19:
GAS LISTING /tmp/ccXYTfXE.s 			page 9


  50:src/KSemaphore.cpp ****         Scheduler::put(pcb);
 315              		.loc 1 50 9
  50:src/KSemaphore.cpp ****         Scheduler::put(pcb);
 316              		.loc 1 50 27 is_stmt 0
 317 0178 13050900 		mv	a0,s2
 318 017c 97000000 		call	_ZN10KSemaphore18removeFirstBlockedEv
 318      E7800000 
 319              	.LVL20:
  51:src/KSemaphore.cpp ****     }
 320              		.loc 1 51 9 is_stmt 1
  51:src/KSemaphore.cpp ****     }
 321              		.loc 1 51 23 is_stmt 0
 322 0184 13850400 		mv	a0,s1
 323 0188 97000000 		call	_ZN9Scheduler3putEP3PCB@plt
 323      E7800000 
 324              	.LVL21:
 325              	.LBE8:
  47:src/KSemaphore.cpp ****     {
 326              		.loc 1 47 5
 327 0190 6FF05FFD 		j	.L25
 328              	.LVL22:
 329              	.L23:
 330              	.LBE7:
  53:src/KSemaphore.cpp **** 
 331              		.loc 1 53 1
 332 0194 83308101 		ld	ra,24(sp)
 333              		.cfi_restore 1
 334 0198 03340101 		ld	s0,16(sp)
 335              		.cfi_restore 8
 336              		.cfi_def_cfa 2, 32
 337 019c 83348100 		ld	s1,8(sp)
 338              		.cfi_restore 9
 339 01a0 03390100 		ld	s2,0(sp)
 340              		.cfi_restore 18
 341              	.LVL23:
 342 01a4 13010102 		addi	sp,sp,32
 343              		.cfi_def_cfa_offset 0
 344 01a8 67800000 		jr	ra
 345              		.cfi_endproc
 346              	.LFE32:
 347              		.globl	__gxx_personality_v0
 348              		.section	.gcc_except_table,"a",@progbits
 349              	.LLSDA32:
 350 0000 FF       		.byte	0xff
 351 0001 FF       		.byte	0xff
 352 0002 03       		.byte	0x3
 353 0003 00       		.byte	0
 354              		.text
 356              		.globl	_ZN10KSemaphoreD1Ev
 357              		.set	_ZN10KSemaphoreD1Ev,_ZN10KSemaphoreD2Ev
 358              		.align	2
 359              		.globl	_ZN10KSemaphore7unblockEv
 361              	_ZN10KSemaphore7unblockEv:
 362              	.LFB38:
  91:src/KSemaphore.cpp **** 
  92:src/KSemaphore.cpp **** void KSemaphore::unblock() {
 363              		.loc 1 92 28 is_stmt 1
GAS LISTING /tmp/ccXYTfXE.s 			page 10


 364              		.cfi_startproc
 365              	.LVL24:
 366 01ac 130101FE 		addi	sp,sp,-32
 367              		.cfi_def_cfa_offset 32
 368 01b0 233C1100 		sd	ra,24(sp)
 369 01b4 23388100 		sd	s0,16(sp)
 370 01b8 23349100 		sd	s1,8(sp)
 371 01bc 23302101 		sd	s2,0(sp)
 372              		.cfi_offset 1, -8
 373              		.cfi_offset 8, -16
 374              		.cfi_offset 9, -24
 375              		.cfi_offset 18, -32
 376 01c0 13040102 		addi	s0,sp,32
 377              		.cfi_def_cfa 8, 0
 378 01c4 13090500 		mv	s2,a0
  93:src/KSemaphore.cpp ****     PCB* fr = getFirstBlocked();
 379              		.loc 1 93 5
 380              		.loc 1 93 30 is_stmt 0
 381 01c8 97000000 		call	_ZN10KSemaphore15getFirstBlockedEv
 381      E7800000 
 382              	.LVL25:
 383 01d0 93040500 		mv	s1,a0
 384              	.LVL26:
  94:src/KSemaphore.cpp ****     removeFirstBlocked();
 385              		.loc 1 94 5 is_stmt 1
 386              		.loc 1 94 23 is_stmt 0
 387 01d4 13050900 		mv	a0,s2
 388 01d8 97000000 		call	_ZN10KSemaphore18removeFirstBlockedEv
 388      E7800000 
 389              	.LVL27:
  95:src/KSemaphore.cpp ****     if(fr != 0)
 390              		.loc 1 95 5 is_stmt 1
 391 01e0 63880400 		beqz	s1,.L27
  96:src/KSemaphore.cpp ****     {
  97:src/KSemaphore.cpp ****         //Riscv::printString("Unblocked thread\n");
  98:src/KSemaphore.cpp ****         Scheduler::put(fr);
 392              		.loc 1 98 9
 393              		.loc 1 98 23 is_stmt 0
 394 01e4 13850400 		mv	a0,s1
 395 01e8 97000000 		call	_ZN9Scheduler3putEP3PCB@plt
 395      E7800000 
 396              	.LVL28:
 397              	.L27:
  99:src/KSemaphore.cpp ****     }
 100:src/KSemaphore.cpp **** }
 398              		.loc 1 100 1
 399 01f0 83308101 		ld	ra,24(sp)
 400              		.cfi_restore 1
 401 01f4 03340101 		ld	s0,16(sp)
 402              		.cfi_restore 8
 403              		.cfi_def_cfa 2, 32
 404 01f8 83348100 		ld	s1,8(sp)
 405              		.cfi_restore 9
 406              	.LVL29:
 407 01fc 03390100 		ld	s2,0(sp)
 408              		.cfi_restore 18
 409              	.LVL30:
GAS LISTING /tmp/ccXYTfXE.s 			page 11


 410 0200 13010102 		addi	sp,sp,32
 411              		.cfi_def_cfa_offset 0
 412 0204 67800000 		jr	ra
 413              		.cfi_endproc
 414              	.LFE38:
 416              		.align	2
 417              		.globl	_ZN10KSemaphore6signalEv
 419              	_ZN10KSemaphore6signalEv:
 420              	.LFB29:
  21:src/KSemaphore.cpp ****     if(++val <= 0)
 421              		.loc 1 21 29 is_stmt 1
 422              		.cfi_startproc
 423              	.LVL31:
  22:src/KSemaphore.cpp ****         unblock();
 424              		.loc 1 22 5
  22:src/KSemaphore.cpp ****         unblock();
 425              		.loc 1 22 10 is_stmt 0
 426 0208 83270501 		lw	a5,16(a0)
  22:src/KSemaphore.cpp ****         unblock();
 427              		.loc 1 22 8
 428 020c 9B871700 		addiw	a5,a5,1
 429 0210 1B870700 		sext.w	a4,a5
  22:src/KSemaphore.cpp ****         unblock();
 430              		.loc 1 22 14
 431 0214 2328F500 		sw	a5,16(a0)
  22:src/KSemaphore.cpp ****         unblock();
 432              		.loc 1 22 5
 433 0218 6356E000 		blez	a4,.L36
  25:src/KSemaphore.cpp **** }
 434              		.loc 1 25 5 is_stmt 1
  26:src/KSemaphore.cpp **** 
 435              		.loc 1 26 1 is_stmt 0
 436 021c 13050000 		li	a0,0
 437              	.LVL32:
 438 0220 67800000 		ret
 439              	.LVL33:
 440              	.L36:
  21:src/KSemaphore.cpp ****     if(++val <= 0)
 441              		.loc 1 21 29
 442 0224 130101FF 		addi	sp,sp,-16
 443              		.cfi_def_cfa_offset 16
 444 0228 23341100 		sd	ra,8(sp)
 445 022c 23308100 		sd	s0,0(sp)
 446              		.cfi_offset 1, -8
 447              		.cfi_offset 8, -16
 448 0230 13040101 		addi	s0,sp,16
 449              		.cfi_def_cfa 8, 0
  23:src/KSemaphore.cpp **** 
 450              		.loc 1 23 9 is_stmt 1
  23:src/KSemaphore.cpp **** 
 451              		.loc 1 23 16 is_stmt 0
 452 0234 97000000 		call	_ZN10KSemaphore7unblockEv
 452      E7800000 
 453              	.LVL34:
  25:src/KSemaphore.cpp **** }
 454              		.loc 1 25 5 is_stmt 1
  26:src/KSemaphore.cpp **** 
GAS LISTING /tmp/ccXYTfXE.s 			page 12


 455              		.loc 1 26 1 is_stmt 0
 456 023c 13050000 		li	a0,0
 457 0240 83308100 		ld	ra,8(sp)
 458              		.cfi_restore 1
 459 0244 03340100 		ld	s0,0(sp)
 460              		.cfi_restore 8
 461              		.cfi_def_cfa 2, 16
 462 0248 13010101 		addi	sp,sp,16
 463              		.cfi_def_cfa_offset 0
 464 024c 67800000 		jr	ra
 465              		.cfi_endproc
 466              	.LFE29:
 468              		.align	2
 469              		.globl	_ZN10KSemaphorenwEm
 471              	_ZN10KSemaphorenwEm:
 472              	.LFB39:
 101:src/KSemaphore.cpp **** void *KSemaphore::operator new(size_t size) {
 473              		.loc 1 101 45 is_stmt 1
 474              		.cfi_startproc
 475              	.LVL35:
 476 0250 130101FF 		addi	sp,sp,-16
 477              		.cfi_def_cfa_offset 16
 478 0254 23341100 		sd	ra,8(sp)
 479 0258 23308100 		sd	s0,0(sp)
 480              		.cfi_offset 1, -8
 481              		.cfi_offset 8, -16
 482 025c 13040101 		addi	s0,sp,16
 483              		.cfi_def_cfa 8, 0
 102:src/KSemaphore.cpp ****     return kmalloc(size);
 484              		.loc 1 102 5
 485              		.loc 1 102 19 is_stmt 0
 486 0260 97000000 		call	_Z7kmallocm@plt
 486      E7800000 
 487              	.LVL36:
 103:src/KSemaphore.cpp **** }
 488              		.loc 1 103 1
 489 0268 83308100 		ld	ra,8(sp)
 490              		.cfi_restore 1
 491 026c 03340100 		ld	s0,0(sp)
 492              		.cfi_restore 8
 493              		.cfi_def_cfa 2, 16
 494 0270 13010101 		addi	sp,sp,16
 495              		.cfi_def_cfa_offset 0
 496 0274 67800000 		jr	ra
 497              		.cfi_endproc
 498              	.LFE39:
 500              		.align	2
 501              		.globl	_ZN10KSemaphore14semOpenHandlerEv
 503              	_ZN10KSemaphore14semOpenHandlerEv:
 504              	.LFB30:
  29:src/KSemaphore.cpp ****     uint64 val;
 505              		.loc 1 29 1 is_stmt 1
 506              		.cfi_startproc
 507 0278 130101FD 		addi	sp,sp,-48
 508              		.cfi_def_cfa_offset 48
 509 027c 23341102 		sd	ra,40(sp)
 510 0280 23308102 		sd	s0,32(sp)
GAS LISTING /tmp/ccXYTfXE.s 			page 13


 511 0284 233C9100 		sd	s1,24(sp)
 512 0288 23382101 		sd	s2,16(sp)
 513 028c 23343101 		sd	s3,8(sp)
 514              		.cfi_offset 1, -8
 515              		.cfi_offset 8, -16
 516              		.cfi_offset 9, -24
 517              		.cfi_offset 18, -32
 518              		.cfi_offset 19, -40
 519 0290 13040103 		addi	s0,sp,48
 520              		.cfi_def_cfa 8, 0
  30:src/KSemaphore.cpp ****     KSemaphore** semaphoreHandle;
 521              		.loc 1 30 5
  31:src/KSemaphore.cpp ****     __asm__ volatile("mv %0, a1" : "=r"(semaphoreHandle));
 522              		.loc 1 31 5
  32:src/KSemaphore.cpp ****     __asm__ volatile("mv %0, a2" : "=r"(val));
 523              		.loc 1 32 5
  32:src/KSemaphore.cpp ****     __asm__ volatile("mv %0, a2" : "=r"(val));
 524              		.loc 1 32 58 is_stmt 0
 525              	#APP
 526              	# 32 "src/KSemaphore.cpp" 1
 527              		mv s2, a1
 528              	# 0 "" 2
 529              	.LVL37:
  33:src/KSemaphore.cpp **** 
 530              		.loc 1 33 5 is_stmt 1
  33:src/KSemaphore.cpp **** 
 531              		.loc 1 33 46 is_stmt 0
 532              	# 33 "src/KSemaphore.cpp" 1
 533              		mv s3, a2
 534              	# 0 "" 2
 535              	.LVL38:
  35:src/KSemaphore.cpp **** 
 536              		.loc 1 35 5 is_stmt 1
  35:src/KSemaphore.cpp **** 
 537              		.loc 1 35 44 is_stmt 0
 538              	#NO_APP
 539 029c 13058001 		li	a0,24
 540 02a0 97000000 		call	_ZN10KSemaphorenwEm
 540      E7800000 
 541              	.LVL39:
 542 02a8 93040500 		mv	s1,a0
 543 02ac 9B850900 		sext.w	a1,s3
 544 02b0 97000000 		call	_ZN10KSemaphoreC1Ei
 544      E7800000 
 545              	.LVL40:
  37:src/KSemaphore.cpp **** 
 546              		.loc 1 37 5 is_stmt 1
  37:src/KSemaphore.cpp **** 
 547              		.loc 1 37 24 is_stmt 0
 548 02b8 23309900 		sd	s1,0(s2)
  39:src/KSemaphore.cpp ****             __asm__ volatile("li a0, 0xffffffffffffffff");
 549              		.loc 1 39 5 is_stmt 1
 550 02bc 63820402 		beqz	s1,.L43
  42:src/KSemaphore.cpp **** }
 551              		.loc 1 42 13
  42:src/KSemaphore.cpp **** }
 552              		.loc 1 42 41 is_stmt 0
GAS LISTING /tmp/ccXYTfXE.s 			page 14


 553              	#APP
 554              	# 42 "src/KSemaphore.cpp" 1
 555              		li a0, 0
 556              	# 0 "" 2
 557              	#NO_APP
 558              	.L39:
  43:src/KSemaphore.cpp **** 
 559              		.loc 1 43 1
 560 02c4 83308102 		ld	ra,40(sp)
 561              		.cfi_remember_state
 562              		.cfi_restore 1
 563 02c8 03340102 		ld	s0,32(sp)
 564              		.cfi_restore 8
 565              		.cfi_def_cfa 2, 48
 566 02cc 83348101 		ld	s1,24(sp)
 567              		.cfi_restore 9
 568              	.LVL41:
 569 02d0 03390101 		ld	s2,16(sp)
 570              		.cfi_restore 18
 571              	.LVL42:
 572 02d4 83398100 		ld	s3,8(sp)
 573              		.cfi_restore 19
 574              	.LVL43:
 575 02d8 13010103 		addi	sp,sp,48
 576              		.cfi_def_cfa_offset 0
 577 02dc 67800000 		jr	ra
 578              	.LVL44:
 579              	.L43:
 580              		.cfi_restore_state
  40:src/KSemaphore.cpp ****     else
 581              		.loc 1 40 13 is_stmt 1
  40:src/KSemaphore.cpp ****     else
 582              		.loc 1 40 58 is_stmt 0
 583              	#APP
 584              	# 40 "src/KSemaphore.cpp" 1
 585              		li a0, 0xffffffffffffffff
 586              	# 0 "" 2
 587              	#NO_APP
 588 02e4 6FF01FFE 		j	.L39
 589              		.cfi_endproc
 590              	.LFE30:
 592              		.align	2
 593              		.globl	_ZN10KSemaphoredlEPv
 595              	_ZN10KSemaphoredlEPv:
 596              	.LFB40:
 104:src/KSemaphore.cpp **** 
 105:src/KSemaphore.cpp **** void KSemaphore::operator delete(void *p)
 106:src/KSemaphore.cpp **** {
 597              		.loc 1 106 1 is_stmt 1
 598              		.cfi_startproc
 599              	.LVL45:
 600 02e8 130101FF 		addi	sp,sp,-16
 601              		.cfi_def_cfa_offset 16
 602 02ec 23341100 		sd	ra,8(sp)
 603 02f0 23308100 		sd	s0,0(sp)
 604              		.cfi_offset 1, -8
 605              		.cfi_offset 8, -16
GAS LISTING /tmp/ccXYTfXE.s 			page 15


 606 02f4 13040101 		addi	s0,sp,16
 607              		.cfi_def_cfa 8, 0
 107:src/KSemaphore.cpp ****     kfree(p);
 608              		.loc 1 107 5
 609              		.loc 1 107 10 is_stmt 0
 610 02f8 97000000 		call	_Z5kfreePv@plt
 610      E7800000 
 611              	.LVL46:
 108:src/KSemaphore.cpp **** }
 612              		.loc 1 108 1
 613 0300 83308100 		ld	ra,8(sp)
 614              		.cfi_restore 1
 615 0304 03340100 		ld	s0,0(sp)
 616              		.cfi_restore 8
 617              		.cfi_def_cfa 2, 16
 618 0308 13010101 		addi	sp,sp,16
 619              		.cfi_def_cfa_offset 0
 620 030c 67800000 		jr	ra
 621              		.cfi_endproc
 622              	.LFE40:
 624              		.align	2
 625              		.globl	_ZN10KSemaphore14semWaitHandlerEv
 627              	_ZN10KSemaphore14semWaitHandlerEv:
 628              	.LFB41:
 109:src/KSemaphore.cpp **** 
 110:src/KSemaphore.cpp **** void KSemaphore::semWaitHandler()
 111:src/KSemaphore.cpp **** {
 629              		.loc 1 111 1 is_stmt 1
 630              		.cfi_startproc
 631 0310 130101FE 		addi	sp,sp,-32
 632              		.cfi_def_cfa_offset 32
 633 0314 233C1100 		sd	ra,24(sp)
 634 0318 23388100 		sd	s0,16(sp)
 635              		.cfi_offset 1, -8
 636              		.cfi_offset 8, -16
 637 031c 13040102 		addi	s0,sp,32
 638              		.cfi_def_cfa 8, 0
 112:src/KSemaphore.cpp ****     KSemaphore* kSem;
 639              		.loc 1 112 5
 113:src/KSemaphore.cpp ****     __asm__ volatile("mv %0, a1" : "=r"(kSem));
 640              		.loc 1 113 5
 641              		.loc 1 113 47 is_stmt 0
 642              	#APP
 643              	# 113 "src/KSemaphore.cpp" 1
 114              	    uint64 volatile retval = kSem->wait();
 644              		mv a0, a1
 645              	# 0 "" 2
 646              	.LVL47:
 647              		.loc 1 114 5 is_stmt 1
 648              		.loc 1 114 40 is_stmt 0
 649              	#NO_APP
 650 0324 97000000 		call	_ZN10KSemaphore4waitEv
 650      E7800000 
 651              	.LVL48:
 652              		.loc 1 114 41
 653 032c 2334A4FE 		sd	a0,-24(s0)
 115:src/KSemaphore.cpp ****     __asm__ volatile("mv a0,%0" : :"r"(retval));
GAS LISTING /tmp/ccXYTfXE.s 			page 16


 654              		.loc 1 115 5 is_stmt 1
 655              		.loc 1 115 40 is_stmt 0
 656 0330 833784FE 		ld	a5,-24(s0)
 657              		.loc 1 115 48
 658              	#APP
 659              	# 115 "src/KSemaphore.cpp" 1
 116              	    Riscv::w_a0_sscratch();
 660              		mv a0,a5
 661              	# 0 "" 2
 662              		.loc 1 116 5 is_stmt 1
 663              		.loc 1 116 25 is_stmt 0
 664              	#NO_APP
 665 0338 97000000 		call	_ZN5Riscv13w_a0_sscratchEv@plt
 665      E7800000 
 666              	.LVL49:
 117:src/KSemaphore.cpp **** }
 667              		.loc 1 117 1
 668 0340 83308101 		ld	ra,24(sp)
 669              		.cfi_restore 1
 670 0344 03340101 		ld	s0,16(sp)
 671              		.cfi_restore 8
 672              		.cfi_def_cfa 2, 32
 673 0348 13010102 		addi	sp,sp,32
 674              		.cfi_def_cfa_offset 0
 675 034c 67800000 		jr	ra
 676              		.cfi_endproc
 677              	.LFE41:
 679              		.align	2
 680              		.globl	_ZN10KSemaphore16semSignalHandlerEv
 682              	_ZN10KSemaphore16semSignalHandlerEv:
 683              	.LFB42:
 118:src/KSemaphore.cpp **** 
 119:src/KSemaphore.cpp **** void KSemaphore::semSignalHandler()
 120:src/KSemaphore.cpp **** {
 684              		.loc 1 120 1 is_stmt 1
 685              		.cfi_startproc
 686 0350 130101FE 		addi	sp,sp,-32
 687              		.cfi_def_cfa_offset 32
 688 0354 233C1100 		sd	ra,24(sp)
 689 0358 23388100 		sd	s0,16(sp)
 690              		.cfi_offset 1, -8
 691              		.cfi_offset 8, -16
 692 035c 13040102 		addi	s0,sp,32
 693              		.cfi_def_cfa 8, 0
 121:src/KSemaphore.cpp ****     KSemaphore* kSem;
 694              		.loc 1 121 5
 122:src/KSemaphore.cpp ****     __asm__ volatile("mv %0, a1" : "=r"(kSem));
 695              		.loc 1 122 5
 696              		.loc 1 122 47 is_stmt 0
 697              	#APP
 698              	# 122 "src/KSemaphore.cpp" 1
 123              	    uint64 volatile retval = kSem->signal();
 699              		mv a0, a1
 700              	# 0 "" 2
 701              	.LVL50:
 702              		.loc 1 123 5 is_stmt 1
 703              		.loc 1 123 42 is_stmt 0
GAS LISTING /tmp/ccXYTfXE.s 			page 17


 704              	#NO_APP
 705 0364 97000000 		call	_ZN10KSemaphore6signalEv
 705      E7800000 
 706              	.LVL51:
 707              		.loc 1 123 43
 708 036c 2334A4FE 		sd	a0,-24(s0)
 124:src/KSemaphore.cpp ****     __asm__ volatile("mv a0,%0" : :"r"(retval));
 709              		.loc 1 124 5 is_stmt 1
 710              		.loc 1 124 40 is_stmt 0
 711 0370 833784FE 		ld	a5,-24(s0)
 712              		.loc 1 124 48
 713              	#APP
 714              	# 124 "src/KSemaphore.cpp" 1
 125              	    Riscv::w_a0_sscratch();
 715              		mv a0,a5
 716              	# 0 "" 2
 717              		.loc 1 125 5 is_stmt 1
 718              		.loc 1 125 25 is_stmt 0
 719              	#NO_APP
 720 0378 97000000 		call	_ZN5Riscv13w_a0_sscratchEv@plt
 720      E7800000 
 721              	.LVL52:
 126:src/KSemaphore.cpp **** }
 722              		.loc 1 126 1
 723 0380 83308101 		ld	ra,24(sp)
 724              		.cfi_restore 1
 725 0384 03340101 		ld	s0,16(sp)
 726              		.cfi_restore 8
 727              		.cfi_def_cfa 2, 32
 728 0388 13010102 		addi	sp,sp,32
 729              		.cfi_def_cfa_offset 0
 730 038c 67800000 		jr	ra
 731              		.cfi_endproc
 732              	.LFE42:
 734              		.align	2
 735              		.globl	_ZN10KSemaphore15semCloseHandlerEv
 737              	_ZN10KSemaphore15semCloseHandlerEv:
 738              	.LFB43:
 127:src/KSemaphore.cpp **** 
 128:src/KSemaphore.cpp **** void KSemaphore::semCloseHandler()
 129:src/KSemaphore.cpp **** {
 739              		.loc 1 129 1 is_stmt 1
 740              		.cfi_startproc
 741 0390 130101FE 		addi	sp,sp,-32
 742              		.cfi_def_cfa_offset 32
 743 0394 233C1100 		sd	ra,24(sp)
 744 0398 23388100 		sd	s0,16(sp)
 745 039c 23349100 		sd	s1,8(sp)
 746              		.cfi_offset 1, -8
 747              		.cfi_offset 8, -16
 748              		.cfi_offset 9, -24
 749 03a0 13040102 		addi	s0,sp,32
 750              		.cfi_def_cfa 8, 0
 130:src/KSemaphore.cpp ****     KSemaphore* kSem;
 751              		.loc 1 130 5
 131:src/KSemaphore.cpp ****     __asm__ volatile("mv %0, a1" : "=r"(kSem));
 752              		.loc 1 131 5
GAS LISTING /tmp/ccXYTfXE.s 			page 18


 753              		.loc 1 131 47 is_stmt 0
 754              	#APP
 755              	# 131 "src/KSemaphore.cpp" 1
 132              	    delete kSem;
 756              		mv s1, a1
 757              	# 0 "" 2
 758              	.LVL53:
 759              		.loc 1 132 5 is_stmt 1
 760              		.loc 1 132 16 is_stmt 0
 761              	#NO_APP
 762 03a8 638E0400 		beqz	s1,.L51
 763              		.loc 1 132 12 discriminator 1
 764 03ac 13850400 		mv	a0,s1
 765 03b0 97000000 		call	_ZN10KSemaphoreD1Ev
 765      E7800000 
 766              	.LVL54:
 767 03b8 13850400 		mv	a0,s1
 768 03bc 97000000 		call	_ZN10KSemaphoredlEPv
 768      E7800000 
 769              	.LVL55:
 770              	.L51:
 133:src/KSemaphore.cpp ****     __asm__ volatile("li a0, 0");
 771              		.loc 1 133 5 is_stmt 1
 772              		.loc 1 133 33 is_stmt 0
 773              	#APP
 774              	# 133 "src/KSemaphore.cpp" 1
 134              	    Riscv::w_a0_sscratch();
 775              		li a0, 0
 776              	# 0 "" 2
 777              		.loc 1 134 5 is_stmt 1
 778              		.loc 1 134 25 is_stmt 0
 779              	#NO_APP
 780 03c8 97000000 		call	_ZN5Riscv13w_a0_sscratchEv@plt
 780      E7800000 
 781              	.LVL56:
 135:src/KSemaphore.cpp **** }
 782              		.loc 1 135 1
 783 03d0 83308101 		ld	ra,24(sp)
 784              		.cfi_restore 1
 785 03d4 03340101 		ld	s0,16(sp)
 786              		.cfi_restore 8
 787              		.cfi_def_cfa 2, 32
 788 03d8 83348100 		ld	s1,8(sp)
 789              		.cfi_restore 9
 790              	.LVL57:
 791 03dc 13010102 		addi	sp,sp,32
 792              		.cfi_def_cfa_offset 0
 793 03e0 67800000 		jr	ra
 794              		.cfi_endproc
 795              	.LFE43:
 797              	.Letext0:
 798              		.file 3 "src/../h/../lib/hw.h"
 799              		.file 4 "src/../h/Scheduler.hpp"
 800              		.file 5 "src/../h/Riscv.hpp"
 801              		.file 6 "src/../h/KSemaphore.hpp"
 802              		.file 7 "src/../h/MemoryAllocator.hpp"
 4654              		.align	3
GAS LISTING /tmp/ccXYTfXE.s 			page 19


 4657              	DW.ref.__gxx_personality_v0:
 4658 0000 00000000 		.dword	__gxx_personality_v0
 4658      00000000 
 4659              		.ident	"GCC: (Ubuntu 9.3.0-17ubuntu1~20.04) 9.3.0"
 4660              		.section	.note.GNU-stack,"",@progbits
GAS LISTING /tmp/ccXYTfXE.s 			page 20


DEFINED SYMBOLS
                            *ABS*:0000000000000000 KSemaphore.cpp
     /tmp/ccXYTfXE.s:9      .text:0000000000000000 _ZN10KSemaphoreC2Ei
     /tmp/ccXYTfXE.s:13     .text:0000000000000000 .L0 
     /tmp/ccXYTfXE.s:15     .text:0000000000000000 .L0 
     /tmp/ccXYTfXE.s:16     .text:0000000000000004 .L0 
     /tmp/ccXYTfXE.s:18     .text:0000000000000008 .L0 
     /tmp/ccXYTfXE.s:20     .text:000000000000000c .L0 
     /tmp/ccXYTfXE.s:23     .text:000000000000000c .L0 
     /tmp/ccXYTfXE.s:24     .text:000000000000000c .L0 
     /tmp/ccXYTfXE.s:26     .text:0000000000000010 .L0 
     /tmp/ccXYTfXE.s:28     .text:0000000000000014 .L0 
     /tmp/ccXYTfXE.s:29     .text:0000000000000014 .L0 
     /tmp/ccXYTfXE.s:31     .text:0000000000000018 .L0 
     /tmp/ccXYTfXE.s:34     .text:000000000000001c .L0 
     /tmp/ccXYTfXE.s:35     .text:0000000000000020 .L0 
     /tmp/ccXYTfXE.s:36     .text:0000000000000020 .L0 
     /tmp/ccXYTfXE.s:38     .text:0000000000000024 .L0 
     /tmp/ccXYTfXE.s:40     .text:0000000000000028 .L0 
     /tmp/ccXYTfXE.s:9      .text:0000000000000000 _ZN10KSemaphoreC1Ei
     /tmp/ccXYTfXE.s:48     .text:0000000000000028 _ZN10KSemaphore12addToBlockedEP3PCB
     /tmp/ccXYTfXE.s:51     .text:0000000000000028 .L0 
     /tmp/ccXYTfXE.s:53     .text:0000000000000028 .L0 
     /tmp/ccXYTfXE.s:54     .text:000000000000002c .L0 
     /tmp/ccXYTfXE.s:56     .text:0000000000000030 .L0 
     /tmp/ccXYTfXE.s:58     .text:0000000000000034 .L0 
     /tmp/ccXYTfXE.s:60     .text:0000000000000034 .L0 
     /tmp/ccXYTfXE.s:61     .text:0000000000000034 .L0 
     /tmp/ccXYTfXE.s:63     .text:0000000000000038 .L0 
     /tmp/ccXYTfXE.s:64     .text:0000000000000038 .L0 
     /tmp/ccXYTfXE.s:66     .text:000000000000003c .L0 
     /tmp/ccXYTfXE.s:68     .text:0000000000000040 .L0 
     /tmp/ccXYTfXE.s:70     .text:0000000000000044 .L0 
     /tmp/ccXYTfXE.s:72     .text:0000000000000048 .L0 
     /tmp/ccXYTfXE.s:73     .text:0000000000000048 .L0 
     /tmp/ccXYTfXE.s:76     .text:000000000000004c .L0 
     /tmp/ccXYTfXE.s:77     .text:0000000000000050 .L0 
     /tmp/ccXYTfXE.s:78     .text:0000000000000050 .L0 
     /tmp/ccXYTfXE.s:79     .text:0000000000000050 .L0 
     /tmp/ccXYTfXE.s:81     .text:0000000000000054 .L0 
     /tmp/ccXYTfXE.s:84     .text:0000000000000058 .L0 
     /tmp/ccXYTfXE.s:86     .text:0000000000000058 .L0 
     /tmp/ccXYTfXE.s:87     .text:0000000000000058 .L0 
     /tmp/ccXYTfXE.s:89     .text:000000000000005c .L0 
     /tmp/ccXYTfXE.s:91     .text:0000000000000064 .L0 
     /tmp/ccXYTfXE.s:97     .text:0000000000000064 _ZN10KSemaphore5blockEv
     /tmp/ccXYTfXE.s:100    .text:0000000000000064 .L0 
     /tmp/ccXYTfXE.s:102    .text:0000000000000064 .L0 
     /tmp/ccXYTfXE.s:103    .text:0000000000000068 .L0 
     /tmp/ccXYTfXE.s:106    .text:0000000000000070 .L0 
     /tmp/ccXYTfXE.s:107    .text:0000000000000070 .L0 
     /tmp/ccXYTfXE.s:109    .text:0000000000000074 .L0 
     /tmp/ccXYTfXE.s:111    .text:0000000000000074 .L0 
     /tmp/ccXYTfXE.s:112    .text:0000000000000074 .L0 
     /tmp/ccXYTfXE.s:119    .text:0000000000000080 .L0 
     /tmp/ccXYTfXE.s:120    .text:0000000000000080 .L0 
     /tmp/ccXYTfXE.s:126    .text:0000000000000088 .L0 
GAS LISTING /tmp/ccXYTfXE.s 			page 21


     /tmp/ccXYTfXE.s:127    .text:0000000000000088 .L0 
     /tmp/ccXYTfXE.s:130    .text:0000000000000090 .L0 
     /tmp/ccXYTfXE.s:131    .text:0000000000000090 .L0 
     /tmp/ccXYTfXE.s:134    .text:0000000000000098 .L0 
     /tmp/ccXYTfXE.s:135    .text:000000000000009c .L0 
     /tmp/ccXYTfXE.s:137    .text:00000000000000a0 .L0 
     /tmp/ccXYTfXE.s:138    .text:00000000000000a0 .L0 
     /tmp/ccXYTfXE.s:140    .text:00000000000000a4 .L0 
     /tmp/ccXYTfXE.s:142    .text:00000000000000a8 .L0 
     /tmp/ccXYTfXE.s:148    .text:00000000000000a8 _ZN10KSemaphore4waitEv
     /tmp/ccXYTfXE.s:151    .text:00000000000000a8 .L0 
     /tmp/ccXYTfXE.s:153    .text:00000000000000a8 .L0 
     /tmp/ccXYTfXE.s:154    .text:00000000000000a8 .L0 
     /tmp/ccXYTfXE.s:155    .text:00000000000000a8 .L0 
     /tmp/ccXYTfXE.s:157    .text:00000000000000ac .L0 
     /tmp/ccXYTfXE.s:159    .text:00000000000000b0 .L0 
     /tmp/ccXYTfXE.s:161    .text:00000000000000b4 .L0 
     /tmp/ccXYTfXE.s:164    .text:00000000000000bc .L0 
     /tmp/ccXYTfXE.s:165    .text:00000000000000bc .L0 
     /tmp/ccXYTfXE.s:171    .text:00000000000000c4 .L0 
     /tmp/ccXYTfXE.s:172    .text:00000000000000c8 .L0 
     /tmp/ccXYTfXE.s:175    .text:00000000000000d0 .L0 
     /tmp/ccXYTfXE.s:176    .text:00000000000000d0 .L0 
     /tmp/ccXYTfXE.s:178    .text:00000000000000d4 .L0 
     /tmp/ccXYTfXE.s:180    .text:00000000000000d4 .L0 
     /tmp/ccXYTfXE.s:181    .text:00000000000000d4 .L0 
     /tmp/ccXYTfXE.s:184    .text:00000000000000dc .L0 
     /tmp/ccXYTfXE.s:185    .text:00000000000000dc .L0 
     /tmp/ccXYTfXE.s:187    .text:00000000000000e4 .L0 
     /tmp/ccXYTfXE.s:189    .text:00000000000000e8 .L0 
     /tmp/ccXYTfXE.s:190    .text:00000000000000e8 .L0 
     /tmp/ccXYTfXE.s:192    .text:00000000000000ec .L0 
     /tmp/ccXYTfXE.s:194    .text:00000000000000f0 .L0 
     /tmp/ccXYTfXE.s:200    .text:00000000000000f0 _ZN10KSemaphore15getFirstBlockedEv
     /tmp/ccXYTfXE.s:203    .text:00000000000000f0 .L0 
     /tmp/ccXYTfXE.s:205    .text:00000000000000f0 .L0 
     /tmp/ccXYTfXE.s:206    .text:00000000000000f4 .L0 
     /tmp/ccXYTfXE.s:208    .text:00000000000000f8 .L0 
     /tmp/ccXYTfXE.s:210    .text:00000000000000fc .L0 
     /tmp/ccXYTfXE.s:212    .text:00000000000000fc .L0 
     /tmp/ccXYTfXE.s:213    .text:00000000000000fc .L0 
     /tmp/ccXYTfXE.s:216    .text:0000000000000104 .L0 
     /tmp/ccXYTfXE.s:217    .text:0000000000000104 .L0 
     /tmp/ccXYTfXE.s:219    .text:0000000000000108 .L0 
     /tmp/ccXYTfXE.s:221    .text:000000000000010c .L0 
     /tmp/ccXYTfXE.s:227    .text:000000000000010c _ZN10KSemaphore18removeFirstBlockedEv
     /tmp/ccXYTfXE.s:230    .text:000000000000010c .L0 
     /tmp/ccXYTfXE.s:232    .text:000000000000010c .L0 
     /tmp/ccXYTfXE.s:233    .text:0000000000000110 .L0 
     /tmp/ccXYTfXE.s:235    .text:0000000000000114 .L0 
     /tmp/ccXYTfXE.s:237    .text:0000000000000118 .L0 
     /tmp/ccXYTfXE.s:239    .text:0000000000000118 .L0 
     /tmp/ccXYTfXE.s:240    .text:0000000000000118 .L0 
     /tmp/ccXYTfXE.s:242    .text:000000000000011c .L0 
     /tmp/ccXYTfXE.s:245    .text:0000000000000120 .L0 
     /tmp/ccXYTfXE.s:246    .text:0000000000000120 .L0 
     /tmp/ccXYTfXE.s:247    .text:0000000000000120 .L0 
GAS LISTING /tmp/ccXYTfXE.s 			page 22


     /tmp/ccXYTfXE.s:249    .text:0000000000000124 .L0 
     /tmp/ccXYTfXE.s:251    .text:0000000000000128 .L0 
     /tmp/ccXYTfXE.s:252    .text:0000000000000128 .L0 
     /tmp/ccXYTfXE.s:254    .text:000000000000012c .L0 
     /tmp/ccXYTfXE.s:255    .text:000000000000012c .L0 
     /tmp/ccXYTfXE.s:258    .text:0000000000000130 .L0 
     /tmp/ccXYTfXE.s:261    .text:0000000000000134 .L0 
     /tmp/ccXYTfXE.s:262    .text:0000000000000138 .L0 
     /tmp/ccXYTfXE.s:263    .text:0000000000000138 .L0 
     /tmp/ccXYTfXE.s:264    .text:0000000000000138 .L0 
     /tmp/ccXYTfXE.s:266    .text:000000000000013c .L0 
     /tmp/ccXYTfXE.s:269    .text:0000000000000140 .L0 
     /tmp/ccXYTfXE.s:271    .text:0000000000000140 .L0 
     /tmp/ccXYTfXE.s:272    .text:0000000000000140 .L0 
     /tmp/ccXYTfXE.s:274    .text:0000000000000148 .L0 
     /tmp/ccXYTfXE.s:280    .text:0000000000000148 _ZN10KSemaphoreD2Ev
     /tmp/ccXYTfXE.s:283    .text:0000000000000148 .L0 
     /tmp/ccXYTfXE.s:4657   .data.rel.local.DW.ref.__gxx_personality_v0:0000000000000000 DW.ref.__gxx_personality_v0
     /tmp/ccXYTfXE.s:287    .text:0000000000000148 .L0 
     /tmp/ccXYTfXE.s:288    .text:000000000000014c .L0 
     /tmp/ccXYTfXE.s:293    .text:000000000000015c .L0 
     /tmp/ccXYTfXE.s:294    .text:000000000000015c .L0 
     /tmp/ccXYTfXE.s:295    .text:000000000000015c .L0 
     /tmp/ccXYTfXE.s:296    .text:000000000000015c .L0 
     /tmp/ccXYTfXE.s:298    .text:0000000000000160 .L0 
     /tmp/ccXYTfXE.s:304    .text:0000000000000164 .L0 
     /tmp/ccXYTfXE.s:305    .text:0000000000000164 .L0 
     /tmp/ccXYTfXE.s:306    .text:0000000000000164 .L0 
     /tmp/ccXYTfXE.s:311    .text:0000000000000174 .L0 
     /tmp/ccXYTfXE.s:315    .text:0000000000000178 .L0 
     /tmp/ccXYTfXE.s:316    .text:0000000000000178 .L0 
     /tmp/ccXYTfXE.s:317    .text:0000000000000178 .L0 
     /tmp/ccXYTfXE.s:321    .text:0000000000000184 .L0 
     /tmp/ccXYTfXE.s:322    .text:0000000000000184 .L0 
     /tmp/ccXYTfXE.s:327    .text:0000000000000190 .L0 
     /tmp/ccXYTfXE.s:332    .text:0000000000000194 .L0 
     /tmp/ccXYTfXE.s:333    .text:0000000000000198 .L0 
     /tmp/ccXYTfXE.s:335    .text:000000000000019c .L0 
     /tmp/ccXYTfXE.s:336    .text:000000000000019c .L0 
     /tmp/ccXYTfXE.s:338    .text:00000000000001a0 .L0 
     /tmp/ccXYTfXE.s:340    .text:00000000000001a4 .L0 
     /tmp/ccXYTfXE.s:343    .text:00000000000001a8 .L0 
     /tmp/ccXYTfXE.s:345    .text:00000000000001ac .L0 
     /tmp/ccXYTfXE.s:280    .text:0000000000000148 _ZN10KSemaphoreD1Ev
     /tmp/ccXYTfXE.s:361    .text:00000000000001ac _ZN10KSemaphore7unblockEv
     /tmp/ccXYTfXE.s:364    .text:00000000000001ac .L0 
     /tmp/ccXYTfXE.s:366    .text:00000000000001ac .L0 
     /tmp/ccXYTfXE.s:367    .text:00000000000001b0 .L0 
     /tmp/ccXYTfXE.s:372    .text:00000000000001c0 .L0 
     /tmp/ccXYTfXE.s:373    .text:00000000000001c0 .L0 
     /tmp/ccXYTfXE.s:374    .text:00000000000001c0 .L0 
     /tmp/ccXYTfXE.s:375    .text:00000000000001c0 .L0 
     /tmp/ccXYTfXE.s:377    .text:00000000000001c4 .L0 
     /tmp/ccXYTfXE.s:380    .text:00000000000001c8 .L0 
     /tmp/ccXYTfXE.s:381    .text:00000000000001c8 .L0 
     /tmp/ccXYTfXE.s:386    .text:00000000000001d4 .L0 
     /tmp/ccXYTfXE.s:387    .text:00000000000001d4 .L0 
GAS LISTING /tmp/ccXYTfXE.s 			page 23


     /tmp/ccXYTfXE.s:391    .text:00000000000001e0 .L0 
     /tmp/ccXYTfXE.s:393    .text:00000000000001e4 .L0 
     /tmp/ccXYTfXE.s:394    .text:00000000000001e4 .L0 
     /tmp/ccXYTfXE.s:399    .text:00000000000001f0 .L0 
     /tmp/ccXYTfXE.s:400    .text:00000000000001f4 .L0 
     /tmp/ccXYTfXE.s:402    .text:00000000000001f8 .L0 
     /tmp/ccXYTfXE.s:403    .text:00000000000001f8 .L0 
     /tmp/ccXYTfXE.s:405    .text:00000000000001fc .L0 
     /tmp/ccXYTfXE.s:408    .text:0000000000000200 .L0 
     /tmp/ccXYTfXE.s:411    .text:0000000000000204 .L0 
     /tmp/ccXYTfXE.s:413    .text:0000000000000208 .L0 
     /tmp/ccXYTfXE.s:419    .text:0000000000000208 _ZN10KSemaphore6signalEv
     /tmp/ccXYTfXE.s:422    .text:0000000000000208 .L0 
     /tmp/ccXYTfXE.s:424    .text:0000000000000208 .L0 
     /tmp/ccXYTfXE.s:425    .text:0000000000000208 .L0 
     /tmp/ccXYTfXE.s:426    .text:0000000000000208 .L0 
     /tmp/ccXYTfXE.s:428    .text:000000000000020c .L0 
     /tmp/ccXYTfXE.s:431    .text:0000000000000214 .L0 
     /tmp/ccXYTfXE.s:433    .text:0000000000000218 .L0 
     /tmp/ccXYTfXE.s:435    .text:000000000000021c .L0 
     /tmp/ccXYTfXE.s:436    .text:000000000000021c .L0 
     /tmp/ccXYTfXE.s:442    .text:0000000000000224 .L0 
     /tmp/ccXYTfXE.s:443    .text:0000000000000228 .L0 
     /tmp/ccXYTfXE.s:446    .text:0000000000000230 .L0 
     /tmp/ccXYTfXE.s:447    .text:0000000000000230 .L0 
     /tmp/ccXYTfXE.s:449    .text:0000000000000234 .L0 
     /tmp/ccXYTfXE.s:451    .text:0000000000000234 .L0 
     /tmp/ccXYTfXE.s:452    .text:0000000000000234 .L0 
     /tmp/ccXYTfXE.s:455    .text:000000000000023c .L0 
     /tmp/ccXYTfXE.s:456    .text:000000000000023c .L0 
     /tmp/ccXYTfXE.s:458    .text:0000000000000244 .L0 
     /tmp/ccXYTfXE.s:460    .text:0000000000000248 .L0 
     /tmp/ccXYTfXE.s:461    .text:0000000000000248 .L0 
     /tmp/ccXYTfXE.s:463    .text:000000000000024c .L0 
     /tmp/ccXYTfXE.s:465    .text:0000000000000250 .L0 
     /tmp/ccXYTfXE.s:471    .text:0000000000000250 _ZN10KSemaphorenwEm
     /tmp/ccXYTfXE.s:474    .text:0000000000000250 .L0 
     /tmp/ccXYTfXE.s:476    .text:0000000000000250 .L0 
     /tmp/ccXYTfXE.s:477    .text:0000000000000254 .L0 
     /tmp/ccXYTfXE.s:480    .text:000000000000025c .L0 
     /tmp/ccXYTfXE.s:481    .text:000000000000025c .L0 
     /tmp/ccXYTfXE.s:483    .text:0000000000000260 .L0 
     /tmp/ccXYTfXE.s:485    .text:0000000000000260 .L0 
     /tmp/ccXYTfXE.s:486    .text:0000000000000260 .L0 
     /tmp/ccXYTfXE.s:489    .text:0000000000000268 .L0 
     /tmp/ccXYTfXE.s:490    .text:000000000000026c .L0 
     /tmp/ccXYTfXE.s:492    .text:0000000000000270 .L0 
     /tmp/ccXYTfXE.s:493    .text:0000000000000270 .L0 
     /tmp/ccXYTfXE.s:495    .text:0000000000000274 .L0 
     /tmp/ccXYTfXE.s:497    .text:0000000000000278 .L0 
     /tmp/ccXYTfXE.s:503    .text:0000000000000278 _ZN10KSemaphore14semOpenHandlerEv
     /tmp/ccXYTfXE.s:506    .text:0000000000000278 .L0 
     /tmp/ccXYTfXE.s:507    .text:0000000000000278 .L0 
     /tmp/ccXYTfXE.s:508    .text:000000000000027c .L0 
     /tmp/ccXYTfXE.s:514    .text:0000000000000290 .L0 
     /tmp/ccXYTfXE.s:515    .text:0000000000000290 .L0 
     /tmp/ccXYTfXE.s:516    .text:0000000000000290 .L0 
GAS LISTING /tmp/ccXYTfXE.s 			page 24


     /tmp/ccXYTfXE.s:517    .text:0000000000000290 .L0 
     /tmp/ccXYTfXE.s:518    .text:0000000000000290 .L0 
     /tmp/ccXYTfXE.s:520    .text:0000000000000294 .L0 
     /tmp/ccXYTfXE.s:522    .text:0000000000000294 .L0 
     /tmp/ccXYTfXE.s:523    .text:0000000000000294 .L0 
     /tmp/ccXYTfXE.s:524    .text:0000000000000294 .L0 
  src/KSemaphore.cpp:32     .text:0000000000000294 .L0 
     /tmp/ccXYTfXE.s:531    .text:0000000000000298 .L0 
  src/KSemaphore.cpp:33     .text:0000000000000298 .L0 
     /tmp/ccXYTfXE.s:537    .text:000000000000029c .L0 
     /tmp/ccXYTfXE.s:539    .text:000000000000029c .L0 
     /tmp/ccXYTfXE.s:547    .text:00000000000002b8 .L0 
     /tmp/ccXYTfXE.s:548    .text:00000000000002b8 .L0 
     /tmp/ccXYTfXE.s:550    .text:00000000000002bc .L0 
     /tmp/ccXYTfXE.s:552    .text:00000000000002c0 .L0 
  src/KSemaphore.cpp:42     .text:00000000000002c0 .L0 
     /tmp/ccXYTfXE.s:560    .text:00000000000002c4 .L0 
     /tmp/ccXYTfXE.s:561    .text:00000000000002c8 .L0 
     /tmp/ccXYTfXE.s:562    .text:00000000000002c8 .L0 
     /tmp/ccXYTfXE.s:564    .text:00000000000002cc .L0 
     /tmp/ccXYTfXE.s:565    .text:00000000000002cc .L0 
     /tmp/ccXYTfXE.s:567    .text:00000000000002d0 .L0 
     /tmp/ccXYTfXE.s:570    .text:00000000000002d4 .L0 
     /tmp/ccXYTfXE.s:573    .text:00000000000002d8 .L0 
     /tmp/ccXYTfXE.s:576    .text:00000000000002dc .L0 
     /tmp/ccXYTfXE.s:580    .text:00000000000002e0 .L0 
     /tmp/ccXYTfXE.s:582    .text:00000000000002e0 .L0 
  src/KSemaphore.cpp:40     .text:00000000000002e0 .L0 
     /tmp/ccXYTfXE.s:589    .text:00000000000002e8 .L0 
     /tmp/ccXYTfXE.s:595    .text:00000000000002e8 _ZN10KSemaphoredlEPv
     /tmp/ccXYTfXE.s:598    .text:00000000000002e8 .L0 
     /tmp/ccXYTfXE.s:600    .text:00000000000002e8 .L0 
     /tmp/ccXYTfXE.s:601    .text:00000000000002ec .L0 
     /tmp/ccXYTfXE.s:604    .text:00000000000002f4 .L0 
     /tmp/ccXYTfXE.s:605    .text:00000000000002f4 .L0 
     /tmp/ccXYTfXE.s:607    .text:00000000000002f8 .L0 
     /tmp/ccXYTfXE.s:609    .text:00000000000002f8 .L0 
     /tmp/ccXYTfXE.s:610    .text:00000000000002f8 .L0 
     /tmp/ccXYTfXE.s:613    .text:0000000000000300 .L0 
     /tmp/ccXYTfXE.s:614    .text:0000000000000304 .L0 
     /tmp/ccXYTfXE.s:616    .text:0000000000000308 .L0 
     /tmp/ccXYTfXE.s:617    .text:0000000000000308 .L0 
     /tmp/ccXYTfXE.s:619    .text:000000000000030c .L0 
     /tmp/ccXYTfXE.s:621    .text:0000000000000310 .L0 
     /tmp/ccXYTfXE.s:627    .text:0000000000000310 _ZN10KSemaphore14semWaitHandlerEv
     /tmp/ccXYTfXE.s:630    .text:0000000000000310 .L0 
     /tmp/ccXYTfXE.s:631    .text:0000000000000310 .L0 
     /tmp/ccXYTfXE.s:632    .text:0000000000000314 .L0 
     /tmp/ccXYTfXE.s:635    .text:000000000000031c .L0 
     /tmp/ccXYTfXE.s:636    .text:000000000000031c .L0 
     /tmp/ccXYTfXE.s:638    .text:0000000000000320 .L0 
     /tmp/ccXYTfXE.s:640    .text:0000000000000320 .L0 
     /tmp/ccXYTfXE.s:641    .text:0000000000000320 .L0 
  src/KSemaphore.cpp:113    .text:0000000000000320 .L0 
     /tmp/ccXYTfXE.s:648    .text:0000000000000324 .L0 
     /tmp/ccXYTfXE.s:650    .text:0000000000000324 .L0 
     /tmp/ccXYTfXE.s:653    .text:000000000000032c .L0 
GAS LISTING /tmp/ccXYTfXE.s 			page 25


     /tmp/ccXYTfXE.s:655    .text:0000000000000330 .L0 
     /tmp/ccXYTfXE.s:656    .text:0000000000000330 .L0 
  src/KSemaphore.cpp:115    .text:0000000000000334 .L0 
     /tmp/ccXYTfXE.s:663    .text:0000000000000338 .L0 
     /tmp/ccXYTfXE.s:665    .text:0000000000000338 .L0 
     /tmp/ccXYTfXE.s:668    .text:0000000000000340 .L0 
     /tmp/ccXYTfXE.s:669    .text:0000000000000344 .L0 
     /tmp/ccXYTfXE.s:671    .text:0000000000000348 .L0 
     /tmp/ccXYTfXE.s:672    .text:0000000000000348 .L0 
     /tmp/ccXYTfXE.s:674    .text:000000000000034c .L0 
     /tmp/ccXYTfXE.s:676    .text:0000000000000350 .L0 
     /tmp/ccXYTfXE.s:682    .text:0000000000000350 _ZN10KSemaphore16semSignalHandlerEv
     /tmp/ccXYTfXE.s:685    .text:0000000000000350 .L0 
     /tmp/ccXYTfXE.s:686    .text:0000000000000350 .L0 
     /tmp/ccXYTfXE.s:687    .text:0000000000000354 .L0 
     /tmp/ccXYTfXE.s:690    .text:000000000000035c .L0 
     /tmp/ccXYTfXE.s:691    .text:000000000000035c .L0 
     /tmp/ccXYTfXE.s:693    .text:0000000000000360 .L0 
     /tmp/ccXYTfXE.s:695    .text:0000000000000360 .L0 
     /tmp/ccXYTfXE.s:696    .text:0000000000000360 .L0 
  src/KSemaphore.cpp:122    .text:0000000000000360 .L0 
     /tmp/ccXYTfXE.s:703    .text:0000000000000364 .L0 
     /tmp/ccXYTfXE.s:705    .text:0000000000000364 .L0 
     /tmp/ccXYTfXE.s:708    .text:000000000000036c .L0 
     /tmp/ccXYTfXE.s:710    .text:0000000000000370 .L0 
     /tmp/ccXYTfXE.s:711    .text:0000000000000370 .L0 
  src/KSemaphore.cpp:124    .text:0000000000000374 .L0 
     /tmp/ccXYTfXE.s:718    .text:0000000000000378 .L0 
     /tmp/ccXYTfXE.s:720    .text:0000000000000378 .L0 
     /tmp/ccXYTfXE.s:723    .text:0000000000000380 .L0 
     /tmp/ccXYTfXE.s:724    .text:0000000000000384 .L0 
     /tmp/ccXYTfXE.s:726    .text:0000000000000388 .L0 
     /tmp/ccXYTfXE.s:727    .text:0000000000000388 .L0 
     /tmp/ccXYTfXE.s:729    .text:000000000000038c .L0 
     /tmp/ccXYTfXE.s:731    .text:0000000000000390 .L0 
     /tmp/ccXYTfXE.s:737    .text:0000000000000390 _ZN10KSemaphore15semCloseHandlerEv
     /tmp/ccXYTfXE.s:740    .text:0000000000000390 .L0 
     /tmp/ccXYTfXE.s:741    .text:0000000000000390 .L0 
     /tmp/ccXYTfXE.s:742    .text:0000000000000394 .L0 
     /tmp/ccXYTfXE.s:746    .text:00000000000003a0 .L0 
     /tmp/ccXYTfXE.s:747    .text:00000000000003a0 .L0 
     /tmp/ccXYTfXE.s:748    .text:00000000000003a0 .L0 
     /tmp/ccXYTfXE.s:750    .text:00000000000003a4 .L0 
     /tmp/ccXYTfXE.s:752    .text:00000000000003a4 .L0 
     /tmp/ccXYTfXE.s:753    .text:00000000000003a4 .L0 
  src/KSemaphore.cpp:131    .text:00000000000003a4 .L0 
     /tmp/ccXYTfXE.s:760    .text:00000000000003a8 .L0 
     /tmp/ccXYTfXE.s:762    .text:00000000000003a8 .L0 
     /tmp/ccXYTfXE.s:764    .text:00000000000003ac .L0 
     /tmp/ccXYTfXE.s:772    .text:00000000000003c4 .L0 
  src/KSemaphore.cpp:133    .text:00000000000003c4 .L0 
     /tmp/ccXYTfXE.s:778    .text:00000000000003c8 .L0 
     /tmp/ccXYTfXE.s:780    .text:00000000000003c8 .L0 
     /tmp/ccXYTfXE.s:783    .text:00000000000003d0 .L0 
     /tmp/ccXYTfXE.s:784    .text:00000000000003d4 .L0 
     /tmp/ccXYTfXE.s:786    .text:00000000000003d8 .L0 
     /tmp/ccXYTfXE.s:787    .text:00000000000003d8 .L0 
GAS LISTING /tmp/ccXYTfXE.s 			page 26


     /tmp/ccXYTfXE.s:789    .text:00000000000003dc .L0 
     /tmp/ccXYTfXE.s:792    .text:00000000000003e0 .L0 
     /tmp/ccXYTfXE.s:794    .text:00000000000003e4 .L0 
     /tmp/ccXYTfXE.s:803    .text:00000000000003e4 .L0 
     /tmp/ccXYTfXE.s:112    .text:0000000000000074 .L0 
     /tmp/ccXYTfXE.s:83     .text:0000000000000058 .L7
     /tmp/ccXYTfXE.s:74     .text:000000000000004c .L3
     /tmp/ccXYTfXE.s:169    .text:00000000000000c4 .L16
     /tmp/ccXYTfXE.s:259    .text:0000000000000134 .L19
     /tmp/ccXYTfXE.s:268    .text:0000000000000140 .L22
     /tmp/ccXYTfXE.s:329    .text:0000000000000194 .L23
     /tmp/ccXYTfXE.s:301    .text:0000000000000164 .L25
     /tmp/ccXYTfXE.s:397    .text:00000000000001f0 .L27
     /tmp/ccXYTfXE.s:440    .text:0000000000000224 .L36
     /tmp/ccXYTfXE.s:579    .text:00000000000002e0 .L43
     /tmp/ccXYTfXE.s:558    .text:00000000000002c4 .L39
     /tmp/ccXYTfXE.s:770    .text:00000000000003c4 .L51
     /tmp/ccXYTfXE.s:2735   .debug_abbrev:0000000000000000 .Ldebug_abbrev0
     /tmp/ccXYTfXE.s:4217   .debug_str:000000000000016b .LASF231
     /tmp/ccXYTfXE.s:4347   .debug_str:00000000000005df .LASF232
     /tmp/ccXYTfXE.s:4573   .debug_str:0000000000000d5d .LASF233
     /tmp/ccXYTfXE.s:5      .text:0000000000000000 .Ltext0
     /tmp/ccXYTfXE.s:797    .text:00000000000003e4 .Letext0
     /tmp/ccXYTfXE.s:4167   .debug_line:0000000000000000 .Ldebug_line0
     /tmp/ccXYTfXE.s:4337   .debug_str:0000000000000599 .LASF0
     /tmp/ccXYTfXE.s:4371   .debug_str:00000000000006c4 .LASF1
     /tmp/ccXYTfXE.s:4483   .debug_str:0000000000000a8c .LASF2
     /tmp/ccXYTfXE.s:4501   .debug_str:0000000000000b27 .LASF4
     /tmp/ccXYTfXE.s:4355   .debug_str:0000000000000624 .LASF3
     /tmp/ccXYTfXE.s:4187   .debug_str:0000000000000079 .LASF5
     /tmp/ccXYTfXE.s:4455   .debug_str:000000000000099a .LASF6
     /tmp/ccXYTfXE.s:4445   .debug_str:0000000000000940 .LASF7
     /tmp/ccXYTfXE.s:4363   .debug_str:0000000000000675 .LASF8
     /tmp/ccXYTfXE.s:4307   .debug_str:00000000000004a0 .LASF9
     /tmp/ccXYTfXE.s:4315   .debug_str:00000000000004f7 .LASF10
     /tmp/ccXYTfXE.s:4235   .debug_str:00000000000002a5 .LASF11
     /tmp/ccXYTfXE.s:4295   .debug_str:0000000000000452 .LASF12
     /tmp/ccXYTfXE.s:4247   .debug_str:00000000000002e1 .LASF13
     /tmp/ccXYTfXE.s:4233   .debug_str:0000000000000295 .LASF14
     /tmp/ccXYTfXE.s:4547   .debug_str:0000000000000cbb .LASF15
     /tmp/ccXYTfXE.s:4287   .debug_str:0000000000000402 .LASF16
     /tmp/ccXYTfXE.s:4535   .debug_str:0000000000000c28 .LASF17
     /tmp/ccXYTfXE.s:4559   .debug_str:0000000000000d0f .LASF234
     /tmp/ccXYTfXE.s:4227   .debug_str:0000000000000268 .LASF18
     /tmp/ccXYTfXE.s:4527   .debug_str:0000000000000c00 .LASF19
     /tmp/ccXYTfXE.s:4243   .debug_str:00000000000002cd .LASF20
     /tmp/ccXYTfXE.s:4215   .debug_str:0000000000000162 .LASF21
     /tmp/ccXYTfXE.s:4449   .debug_str:0000000000000969 .LASF22
     /tmp/ccXYTfXE.s:4241   .debug_str:00000000000002c4 .LASF23
     /tmp/ccXYTfXE.s:4553   .debug_str:0000000000000ce1 .LASF86
     /tmp/ccXYTfXE.s:4323   .debug_str:000000000000054c .LASF24
     /tmp/ccXYTfXE.s:4191   .debug_str:000000000000008b .LASF29
     /tmp/ccXYTfXE.s:4579   .debug_str:0000000000000d97 .LASF235
     /tmp/ccXYTfXE.s:4433   .debug_str:00000000000008e7 .LASF236
     /tmp/ccXYTfXE.s:4369   .debug_str:00000000000006bf .LASF25
     /tmp/ccXYTfXE.s:4633   .debug_str:0000000000000f43 .LASF27
     /tmp/ccXYTfXE.s:4625   .debug_str:0000000000000f06 .LASF26
GAS LISTING /tmp/ccXYTfXE.s 			page 27


     /tmp/ccXYTfXE.s:4567   .debug_str:0000000000000d2f .LASF28
     /tmp/ccXYTfXE.s:4271   .debug_str:00000000000003ab .LASF54
     /tmp/ccXYTfXE.s:4199   .debug_str:00000000000000d6 .LASF56
     /tmp/ccXYTfXE.s:4375   .debug_str:00000000000006e0 .LASF34
     /tmp/ccXYTfXE.s:4437   .debug_str:00000000000008ff .LASF36
     /tmp/ccXYTfXE.s:4563   .debug_str:0000000000000d1f .LASF30
     /tmp/ccXYTfXE.s:4515   .debug_str:0000000000000b87 .LASF31
     /tmp/ccXYTfXE.s:4377   .debug_str:00000000000006e6 .LASF38
     /tmp/ccXYTfXE.s:4383   .debug_str:000000000000071d .LASF40
     /tmp/ccXYTfXE.s:4639   .debug_str:0000000000000f77 .LASF32
     /tmp/ccXYTfXE.s:4291   .debug_str:0000000000000431 .LASF33
     /tmp/ccXYTfXE.s:4177   .debug_str:000000000000003a .LASF35
     /tmp/ccXYTfXE.s:4351   .debug_str:0000000000000604 .LASF37
     /tmp/ccXYTfXE.s:4519   .debug_str:0000000000000ba9 .LASF39
     /tmp/ccXYTfXE.s:4409   .debug_str:0000000000000811 .LASF41
     /tmp/ccXYTfXE.s:4495   .debug_str:0000000000000aed .LASF42
     /tmp/ccXYTfXE.s:4541   .debug_str:0000000000000c76 .LASF43
     /tmp/ccXYTfXE.s:4411   .debug_str:0000000000000824 .LASF44
     /tmp/ccXYTfXE.s:4173   .debug_str:000000000000001b .LASF45
     /tmp/ccXYTfXE.s:4613   .debug_str:0000000000000e95 .LASF46
     /tmp/ccXYTfXE.s:4443   .debug_str:0000000000000926 .LASF47
     /tmp/ccXYTfXE.s:4533   .debug_str:0000000000000c1a .LASF48
     /tmp/ccXYTfXE.s:4457   .debug_str:00000000000009a1 .LASF49
     /tmp/ccXYTfXE.s:4267   .debug_str:0000000000000389 .LASF50
     /tmp/ccXYTfXE.s:4299   .debug_str:0000000000000469 .LASF51
     /tmp/ccXYTfXE.s:4477   .debug_str:0000000000000a5c .LASF52
     /tmp/ccXYTfXE.s:4619   .debug_str:0000000000000ec9 .LASF53
     /tmp/ccXYTfXE.s:4357   .debug_str:0000000000000636 .LASF60
     /tmp/ccXYTfXE.s:4529   .debug_str:0000000000000c08 .LASF55
     /tmp/ccXYTfXE.s:4631   .debug_str:0000000000000f2d .LASF57
     /tmp/ccXYTfXE.s:4555   .debug_str:0000000000000ce9 .LASF58
     /tmp/ccXYTfXE.s:4259   .debug_str:000000000000035c .LASF59
     /tmp/ccXYTfXE.s:4511   .debug_str:0000000000000b71 .LASF61
     /tmp/ccXYTfXE.s:4339   .debug_str:00000000000005a6 .LASF62
     /tmp/ccXYTfXE.s:4421   .debug_str:0000000000000867 .LASF63
     /tmp/ccXYTfXE.s:4253   .debug_str:0000000000000326 .LASF64
     /tmp/ccXYTfXE.s:4463   .debug_str:00000000000009d7 .LASF65
     /tmp/ccXYTfXE.s:4649   .debug_str:0000000000000faf .LASF66
     /tmp/ccXYTfXE.s:4425   .debug_str:000000000000088d .LASF67
     /tmp/ccXYTfXE.s:4493   .debug_str:0000000000000ada .LASF68
     /tmp/ccXYTfXE.s:4521   .debug_str:0000000000000bb2 .LASF69
     /tmp/ccXYTfXE.s:4589   .debug_str:0000000000000de1 .LASF70
     /tmp/ccXYTfXE.s:4403   .debug_str:00000000000007d9 .LASF71
     /tmp/ccXYTfXE.s:4581   .debug_str:0000000000000daf .LASF72
     /tmp/ccXYTfXE.s:4539   .debug_str:0000000000000c56 .LASF73
     /tmp/ccXYTfXE.s:4279   .debug_str:00000000000003c5 .LASF74
     /tmp/ccXYTfXE.s:4341   .debug_str:00000000000005ba .LASF75
     /tmp/ccXYTfXE.s:4571   .debug_str:0000000000000d53 .LASF76
     /tmp/ccXYTfXE.s:4439   .debug_str:000000000000090f .LASF77
     /tmp/ccXYTfXE.s:4623   .debug_str:0000000000000ef8 .LASF78
     /tmp/ccXYTfXE.s:4203   .debug_str:00000000000000f5 .LASF80
     /tmp/ccXYTfXE.s:4293   .debug_str:000000000000043d .LASF79
     /tmp/ccXYTfXE.s:4225   .debug_str:000000000000023c .LASF81
     /tmp/ccXYTfXE.s:4611   .debug_str:0000000000000e8e .LASF237
     /tmp/ccXYTfXE.s:4221   .debug_str:000000000000021d .LASF238
     /tmp/ccXYTfXE.s:4175   .debug_str:0000000000000035 .LASF82
     /tmp/ccXYTfXE.s:4587   .debug_str:0000000000000ddc .LASF83
GAS LISTING /tmp/ccXYTfXE.s 			page 28


     /tmp/ccXYTfXE.s:4389   .debug_str:0000000000000762 .LASF84
     /tmp/ccXYTfXE.s:4277   .debug_str:00000000000003bf .LASF85
     /tmp/ccXYTfXE.s:4577   .debug_str:0000000000000d8f .LASF87
     /tmp/ccXYTfXE.s:4305   .debug_str:0000000000000496 .LASF88
     /tmp/ccXYTfXE.s:4193   .debug_str:0000000000000096 .LASF239
     /tmp/ccXYTfXE.s:4627   .debug_str:0000000000000f0c .LASF240
     /tmp/ccXYTfXE.s:4211   .debug_str:000000000000013d .LASF89
     /tmp/ccXYTfXE.s:4435   .debug_str:00000000000008ec .LASF90
     /tmp/ccXYTfXE.s:4565   .debug_str:0000000000000d27 .LASF91
     /tmp/ccXYTfXE.s:4479   .debug_str:0000000000000a69 .LASF120
     /tmp/ccXYTfXE.s:4219   .debug_str:0000000000000217 .LASF92
     /tmp/ccXYTfXE.s:4419   .debug_str:0000000000000851 .LASF93
     /tmp/ccXYTfXE.s:4517   .debug_str:0000000000000b98 .LASF94
     /tmp/ccXYTfXE.s:4249   .debug_str:00000000000002f1 .LASF95
     /tmp/ccXYTfXE.s:4601   .debug_str:0000000000000e44 .LASF96
     /tmp/ccXYTfXE.s:4331   .debug_str:0000000000000570 .LASF97
     /tmp/ccXYTfXE.s:4537   .debug_str:0000000000000c3e .LASF98
     /tmp/ccXYTfXE.s:4617   .debug_str:0000000000000eba .LASF99
     /tmp/ccXYTfXE.s:4523   .debug_str:0000000000000bd0 .LASF100
     /tmp/ccXYTfXE.s:4441   .debug_str:000000000000091b .LASF101
     /tmp/ccXYTfXE.s:4399   .debug_str:00000000000007b1 .LASF102
     /tmp/ccXYTfXE.s:4285   .debug_str:00000000000003f8 .LASF103
     /tmp/ccXYTfXE.s:4447   .debug_str:0000000000000953 .LASF104
     /tmp/ccXYTfXE.s:4401   .debug_str:00000000000007c9 .LASF105
     /tmp/ccXYTfXE.s:4593   .debug_str:0000000000000e05 .LASF106
     /tmp/ccXYTfXE.s:4591   .debug_str:0000000000000df4 .LASF107
     /tmp/ccXYTfXE.s:4381   .debug_str:00000000000006ff .LASF108
     /tmp/ccXYTfXE.s:4281   .debug_str:00000000000003ce .LASF109
     /tmp/ccXYTfXE.s:4621   .debug_str:0000000000000ed4 .LASF110
     /tmp/ccXYTfXE.s:4349   .debug_str:00000000000005f2 .LASF111
     /tmp/ccXYTfXE.s:4255   .debug_str:0000000000000338 .LASF112
     /tmp/ccXYTfXE.s:4209   .debug_str:0000000000000133 .LASF113
     /tmp/ccXYTfXE.s:4309   .debug_str:00000000000004b0 .LASF114
     /tmp/ccXYTfXE.s:4513   .debug_str:0000000000000b79 .LASF115
     /tmp/ccXYTfXE.s:4473   .debug_str:0000000000000a3a .LASF116
     /tmp/ccXYTfXE.s:4413   .debug_str:0000000000000833 .LASF117
     /tmp/ccXYTfXE.s:4605   .debug_str:0000000000000e54 .LASF118
     /tmp/ccXYTfXE.s:4585   .debug_str:0000000000000dd3 .LASF119
     /tmp/ccXYTfXE.s:4183   .debug_str:000000000000005a .LASF121
     /tmp/ccXYTfXE.s:4645   .debug_str:0000000000000f9e .LASF122
     /tmp/ccXYTfXE.s:4429   .debug_str:00000000000008c2 .LASF123
     /tmp/ccXYTfXE.s:4459   .debug_str:00000000000009ad .LASF124
     /tmp/ccXYTfXE.s:4465   .debug_str:00000000000009f4 .LASF125
     /tmp/ccXYTfXE.s:4423   .debug_str:0000000000000886 .LASF126
     /tmp/ccXYTfXE.s:4365   .debug_str:0000000000000688 .LASF127
     /tmp/ccXYTfXE.s:4607   .debug_str:0000000000000e6e .LASF128
     /tmp/ccXYTfXE.s:4569   .debug_str:0000000000000d3f .LASF129
     /tmp/ccXYTfXE.s:4417   .debug_str:0000000000000849 .LASF130
     /tmp/ccXYTfXE.s:4427   .debug_str:00000000000008ae .LASF131
     /tmp/ccXYTfXE.s:4405   .debug_str:00000000000007f7 .LASF132
     /tmp/ccXYTfXE.s:4467   .debug_str:0000000000000a07 .LASF133
     /tmp/ccXYTfXE.s:4647   .debug_str:0000000000000fa7 .LASF134
     /tmp/ccXYTfXE.s:4345   .debug_str:00000000000005cb .LASF135
     /tmp/ccXYTfXE.s:4327   .debug_str:000000000000055d .LASF136
     /tmp/ccXYTfXE.s:4543   .debug_str:0000000000000c92 .LASF137
     /tmp/ccXYTfXE.s:4507   .debug_str:0000000000000b57 .LASF138
     /tmp/ccXYTfXE.s:4509   .debug_str:0000000000000b6a .LASF139
GAS LISTING /tmp/ccXYTfXE.s 			page 29


     /tmp/ccXYTfXE.s:4283   .debug_str:00000000000003e5 .LASF140
     /tmp/ccXYTfXE.s:4505   .debug_str:0000000000000b51 .LASF141
     /tmp/ccXYTfXE.s:4195   .debug_str:00000000000000ae .LASF142
     /tmp/ccXYTfXE.s:4343   .debug_str:00000000000005c5 .LASF143
     /tmp/ccXYTfXE.s:4269   .debug_str:0000000000000399 .LASF144
     /tmp/ccXYTfXE.s:4223   .debug_str:000000000000022e .LASF145
     /tmp/ccXYTfXE.s:4557   .debug_str:0000000000000cf4 .LASF146
     /tmp/ccXYTfXE.s:4189   .debug_str:0000000000000080 .LASF147
     /tmp/ccXYTfXE.s:4489   .debug_str:0000000000000ab6 .LASF148
     /tmp/ccXYTfXE.s:4481   .debug_str:0000000000000a81 .LASF149
     /tmp/ccXYTfXE.s:4635   .debug_str:0000000000000f4f .LASF150
     /tmp/ccXYTfXE.s:4487   .debug_str:0000000000000aaf .LASF151
     /tmp/ccXYTfXE.s:4231   .debug_str:0000000000000282 .LASF152
     /tmp/ccXYTfXE.s:4531   .debug_str:0000000000000c13 .LASF153
     /tmp/ccXYTfXE.s:4385   .debug_str:0000000000000735 .LASF154
     /tmp/ccXYTfXE.s:4603   .debug_str:0000000000000e4a .LASF155
     /tmp/ccXYTfXE.s:4615   .debug_str:0000000000000ea4 .LASF156
     /tmp/ccXYTfXE.s:4595   .debug_str:0000000000000e23 .LASF157
     /tmp/ccXYTfXE.s:4197   .debug_str:00000000000000c0 .LASF158
     /tmp/ccXYTfXE.s:4265   .debug_str:0000000000000383 .LASF159
     /tmp/ccXYTfXE.s:4321   .debug_str:000000000000053a .LASF160
     /tmp/ccXYTfXE.s:4329   .debug_str:000000000000056a .LASF161
     /tmp/ccXYTfXE.s:4597   .debug_str:0000000000000e2d .LASF162
     /tmp/ccXYTfXE.s:4325   .debug_str:0000000000000552 .LASF163
     /tmp/ccXYTfXE.s:4333   .debug_str:000000000000057b .LASF164
     /tmp/ccXYTfXE.s:4583   .debug_str:0000000000000dc4 .LASF165
     /tmp/ccXYTfXE.s:4313   .debug_str:00000000000004db .LASF166
     /tmp/ccXYTfXE.s:4451   .debug_str:0000000000000971 .LASF167
     /tmp/ccXYTfXE.s:4361   .debug_str:0000000000000653 .LASF168
     /tmp/ccXYTfXE.s:4205   .debug_str:000000000000011d .LASF169
     /tmp/ccXYTfXE.s:4395   .debug_str:0000000000000780 .LASF170
     /tmp/ccXYTfXE.s:4475   .debug_str:0000000000000a55 .LASF171
     /tmp/ccXYTfXE.s:4181   .debug_str:0000000000000052 .LASF172
     /tmp/ccXYTfXE.s:4641   .debug_str:0000000000000f84 .LASF173
     /tmp/ccXYTfXE.s:4379   .debug_str:00000000000006f3 .LASF174
     /tmp/ccXYTfXE.s:4213   .debug_str:000000000000014f .LASF175
     /tmp/ccXYTfXE.s:4407   .debug_str:00000000000007ff .LASF176
     /tmp/ccXYTfXE.s:4317   .debug_str:0000000000000505 .LASF177
     /tmp/ccXYTfXE.s:4353   .debug_str:0000000000000611 .LASF178
     /tmp/ccXYTfXE.s:4229   .debug_str:000000000000026e .LASF179
     /tmp/ccXYTfXE.s:4561   .debug_str:0000000000000d15 .LASF180
     /tmp/ccXYTfXE.s:4393   .debug_str:000000000000077b .LASF181
     /tmp/ccXYTfXE.s:4471   .debug_str:0000000000000a2f .LASF182
     /tmp/ccXYTfXE.s:4311   .debug_str:00000000000004c7 .LASF183
     /tmp/ccXYTfXE.s:4201   .debug_str:00000000000000e9 .LASF184
     /tmp/ccXYTfXE.s:4469   .debug_str:0000000000000a1b .LASF185
     /tmp/ccXYTfXE.s:4273   .debug_str:00000000000003b4 .LASF186
     /tmp/ccXYTfXE.s:4303   .debug_str:000000000000047f .LASF187
     /tmp/ccXYTfXE.s:4551   .debug_str:0000000000000cda .LASF188
     /tmp/ccXYTfXE.s:4289   .debug_str:0000000000000418 .LASF189
     /tmp/ccXYTfXE.s:4171   .debug_str:000000000000000f .LASF190
     /tmp/ccXYTfXE.s:4491   .debug_str:0000000000000ace .LASF191
     /tmp/ccXYTfXE.s:4397   .debug_str:000000000000079d .LASF192
     /tmp/ccXYTfXE.s:4485   .debug_str:0000000000000a9a .LASF193
     /tmp/ccXYTfXE.s:4239   .debug_str:00000000000002bb .LASF194
     /tmp/ccXYTfXE.s:4245   .debug_str:00000000000002d7 .LASF195
     /tmp/ccXYTfXE.s:4415   .debug_str:0000000000000840 .LASF196
GAS LISTING /tmp/ccXYTfXE.s 			page 30


     /tmp/ccXYTfXE.s:4499   .debug_str:0000000000000b1c .LASF197
     /tmp/ccXYTfXE.s:4169   .debug_str:0000000000000000 .LASF198
     /tmp/ccXYTfXE.s:4319   .debug_str:0000000000000518 .LASF199
     /tmp/ccXYTfXE.s:4575   .debug_str:0000000000000d80 .LASF200
     /tmp/ccXYTfXE.s:4545   .debug_str:0000000000000c99 .LASF201
     /tmp/ccXYTfXE.s:4391   .debug_str:000000000000076a .LASF202
     /tmp/ccXYTfXE.s:4251   .debug_str:0000000000000302 .LASF203
     /tmp/ccXYTfXE.s:4431   .debug_str:00000000000008d7 .LASF204
     /tmp/ccXYTfXE.s:4461   .debug_str:00000000000009b4 .LASF205
     /tmp/ccXYTfXE.s:4373   .debug_str:00000000000006d7 .LASF206
     /tmp/ccXYTfXE.s:4335   .debug_str:0000000000000593 .LASF207
     /tmp/ccXYTfXE.s:4609   .debug_str:0000000000000e76 .LASF208
     /tmp/ccXYTfXE.s:4179   .debug_str:000000000000004a .LASF209
     /tmp/ccXYTfXE.s:4387   .debug_str:0000000000000748 .LASF210
     /tmp/ccXYTfXE.s:4637   .debug_str:0000000000000f67 .LASF211
     /tmp/ccXYTfXE.s:4503   .debug_str:0000000000000b2e .LASF212
     /tmp/ccXYTfXE.s:4549   .debug_str:0000000000000cc7 .LASF213
     /tmp/ccXYTfXE.s:4497   .debug_str:0000000000000af6 .LASF214
     /tmp/ccXYTfXE.s:4629   .debug_str:0000000000000f20 .LASF215
     /tmp/ccXYTfXE.s:4367   .debug_str:000000000000069b .LASF216
     /tmp/ccXYTfXE.s:738    .text:0000000000000390 .LFB43
     /tmp/ccXYTfXE.s:795    .text:00000000000003e4 .LFE43
     /tmp/ccXYTfXE.s:4599   .debug_str:0000000000000e3f .LASF217
     /tmp/ccXYTfXE.s:3917   .debug_loc:0000000000000000 .LLST18
     /tmp/ccXYTfXE.s:766    .text:00000000000003b8 .LVL54
     /tmp/ccXYTfXE.s:769    .text:00000000000003c4 .LVL55
     /tmp/ccXYTfXE.s:781    .text:00000000000003d0 .LVL56
     /tmp/ccXYTfXE.s:683    .text:0000000000000350 .LFB42
     /tmp/ccXYTfXE.s:732    .text:0000000000000390 .LFE42
     /tmp/ccXYTfXE.s:3924   .debug_loc:0000000000000023 .LLST17
     /tmp/ccXYTfXE.s:4207   .debug_str:000000000000012c .LASF218
     /tmp/ccXYTfXE.s:706    .text:000000000000036c .LVL51
     /tmp/ccXYTfXE.s:721    .text:0000000000000380 .LVL52
     /tmp/ccXYTfXE.s:628    .text:0000000000000310 .LFB41
     /tmp/ccXYTfXE.s:677    .text:0000000000000350 .LFE41
     /tmp/ccXYTfXE.s:3931   .debug_loc:0000000000000046 .LLST16
     /tmp/ccXYTfXE.s:651    .text:000000000000032c .LVL48
     /tmp/ccXYTfXE.s:666    .text:0000000000000340 .LVL49
     /tmp/ccXYTfXE.s:596    .text:00000000000002e8 .LFB40
     /tmp/ccXYTfXE.s:622    .text:0000000000000310 .LFE40
     /tmp/ccXYTfXE.s:3938   .debug_loc:0000000000000069 .LLST15
     /tmp/ccXYTfXE.s:611    .text:0000000000000300 .LVL46
     /tmp/ccXYTfXE.s:472    .text:0000000000000250 .LFB39
     /tmp/ccXYTfXE.s:498    .text:0000000000000278 .LFE39
     /tmp/ccXYTfXE.s:4257   .debug_str:0000000000000357 .LASF219
     /tmp/ccXYTfXE.s:3952   .debug_loc:00000000000000a2 .LLST11
     /tmp/ccXYTfXE.s:487    .text:0000000000000268 .LVL36
     /tmp/ccXYTfXE.s:362    .text:00000000000001ac .LFB38
     /tmp/ccXYTfXE.s:414    .text:0000000000000208 .LFE38
     /tmp/ccXYTfXE.s:4263   .debug_str:000000000000037e .LASF220
     /tmp/ccXYTfXE.s:3966   .debug_loc:00000000000000db .LLST8
     /tmp/ccXYTfXE.s:3984   .debug_loc:0000000000000127 .LLST9
     /tmp/ccXYTfXE.s:382    .text:00000000000001d0 .LVL25
     /tmp/ccXYTfXE.s:389    .text:00000000000001e0 .LVL27
     /tmp/ccXYTfXE.s:396    .text:00000000000001f0 .LVL28
     /tmp/ccXYTfXE.s:228    .text:000000000000010c .LFB37
     /tmp/ccXYTfXE.s:275    .text:0000000000000148 .LFE37
GAS LISTING /tmp/ccXYTfXE.s 			page 31


     /tmp/ccXYTfXE.s:4275   .debug_str:00000000000003b9 .LASF221
     /tmp/ccXYTfXE.s:3991   .debug_loc:000000000000014a .LLST5
     /tmp/ccXYTfXE.s:201    .text:00000000000000f0 .LFB36
     /tmp/ccXYTfXE.s:222    .text:000000000000010c .LFE36
     /tmp/ccXYTfXE.s:3998   .debug_loc:000000000000016d .LLST4
     /tmp/ccXYTfXE.s:98     .text:0000000000000064 .LFB35
     /tmp/ccXYTfXE.s:143    .text:00000000000000a8 .LFE35
     /tmp/ccXYTfXE.s:4012   .debug_loc:00000000000001a6 .LLST0
     /tmp/ccXYTfXE.s:115    .text:0000000000000080 .LBB5
     /tmp/ccXYTfXE.s:124    .text:0000000000000088 .LBE5
     /tmp/ccXYTfXE.s:4026   .debug_loc:00000000000001df .LLST1
     /tmp/ccXYTfXE.s:4034   .debug_loc:0000000000000203 .LLST2
     /tmp/ccXYTfXE.s:128    .text:0000000000000090 .LVL5
     /tmp/ccXYTfXE.s:132    .text:0000000000000098 .LVL6
     /tmp/ccXYTfXE.s:49     .text:0000000000000028 .LFB34
     /tmp/ccXYTfXE.s:92     .text:0000000000000064 .LFE34
     /tmp/ccXYTfXE.s:4185   .debug_str:000000000000006f .LASF222
     /tmp/ccXYTfXE.s:4525   .debug_str:0000000000000bec .LASF225
     /tmp/ccXYTfXE.s:281    .text:0000000000000148 .LFB32
     /tmp/ccXYTfXE.s:346    .text:00000000000001ac .LFE32
     /tmp/ccXYTfXE.s:4041   .debug_loc:0000000000000226 .LLST6
     /tmp/ccXYTfXE.s:319    .text:0000000000000184 .LVL20
     /tmp/ccXYTfXE.s:324    .text:0000000000000190 .LVL21
     /tmp/ccXYTfXE.s:312    .text:0000000000000178 .LBB8
     /tmp/ccXYTfXE.s:325    .text:0000000000000190 .LBE8
     /tmp/ccXYTfXE.s:4059   .debug_loc:0000000000000272 .LLST7
     /tmp/ccXYTfXE.s:308    .text:0000000000000170 .LVL18
     /tmp/ccXYTfXE.s:504    .text:0000000000000278 .LFB30
     /tmp/ccXYTfXE.s:590    .text:00000000000002e8 .LFE30
     /tmp/ccXYTfXE.s:4066   .debug_loc:0000000000000295 .LLST12
     /tmp/ccXYTfXE.s:4359   .debug_str:0000000000000643 .LASF223
     /tmp/ccXYTfXE.s:4077   .debug_loc:00000000000002cb .LLST13
     /tmp/ccXYTfXE.s:4237   .debug_str:00000000000002b4 .LASF224
     /tmp/ccXYTfXE.s:4088   .debug_loc:0000000000000301 .LLST14
     /tmp/ccXYTfXE.s:541    .text:00000000000002a8 .LVL39
     /tmp/ccXYTfXE.s:545    .text:00000000000002b8 .LVL40
     /tmp/ccXYTfXE.s:420    .text:0000000000000208 .LFB29
     /tmp/ccXYTfXE.s:466    .text:0000000000000250 .LFE29
     /tmp/ccXYTfXE.s:4104   .debug_loc:000000000000034b .LLST10
     /tmp/ccXYTfXE.s:453    .text:000000000000023c .LVL34
     /tmp/ccXYTfXE.s:149    .text:00000000000000a8 .LFB28
     /tmp/ccXYTfXE.s:195    .text:00000000000000f0 .LFE28
     /tmp/ccXYTfXE.s:4129   .debug_loc:00000000000003ad .LLST3
     /tmp/ccXYTfXE.s:182    .text:00000000000000dc .LVL10
     /tmp/ccXYTfXE.s:4453   .debug_str:0000000000000986 .LASF226
     /tmp/ccXYTfXE.s:10     .text:0000000000000000 .LFB26
     /tmp/ccXYTfXE.s:41     .text:0000000000000028 .LFE26
     /tmp/ccXYTfXE.s:4643   .debug_str:0000000000000f93 .LASF227
     /tmp/ccXYTfXE.s:4301   .debug_str:0000000000000479 .LASF229
     /tmp/ccXYTfXE.s:4261   .debug_str:0000000000000372 .LASF228
     /tmp/ccXYTfXE.s:4297   .debug_str:0000000000000461 .LASF230
     /tmp/ccXYTfXE.s:758    .text:00000000000003a8 .LVL53
     /tmp/ccXYTfXE.s:790    .text:00000000000003dc .LVL57
     /tmp/ccXYTfXE.s:701    .text:0000000000000364 .LVL50
     /tmp/ccXYTfXE.s:646    .text:0000000000000324 .LVL47
     /tmp/ccXYTfXE.s:599    .text:00000000000002e8 .LVL45
     /tmp/ccXYTfXE.s:475    .text:0000000000000250 .LVL35
GAS LISTING /tmp/ccXYTfXE.s 			page 32


     /tmp/ccXYTfXE.s:365    .text:00000000000001ac .LVL24
     /tmp/ccXYTfXE.s:409    .text:0000000000000200 .LVL30
     /tmp/ccXYTfXE.s:384    .text:00000000000001d4 .LVL26
     /tmp/ccXYTfXE.s:406    .text:00000000000001fc .LVL29
     /tmp/ccXYTfXE.s:244    .text:0000000000000120 .LVL14
     /tmp/ccXYTfXE.s:256    .text:0000000000000130 .LVL15
     /tmp/ccXYTfXE.s:204    .text:00000000000000f0 .LVL11
     /tmp/ccXYTfXE.s:214    .text:0000000000000100 .LVL12
     /tmp/ccXYTfXE.s:101    .text:0000000000000064 .LVL2
     /tmp/ccXYTfXE.s:114    .text:0000000000000080 .LVL3
     /tmp/ccXYTfXE.s:122    .text:0000000000000088 .LVL4
     /tmp/ccXYTfXE.s:286    .text:0000000000000148 .LVL16
     /tmp/ccXYTfXE.s:300    .text:0000000000000164 .LVL17
     /tmp/ccXYTfXE.s:341    .text:00000000000001a4 .LVL23
     /tmp/ccXYTfXE.s:314    .text:0000000000000178 .LVL19
     /tmp/ccXYTfXE.s:328    .text:0000000000000194 .LVL22
     /tmp/ccXYTfXE.s:535    .text:000000000000029c .LVL38
     /tmp/ccXYTfXE.s:574    .text:00000000000002d8 .LVL43
     /tmp/ccXYTfXE.s:578    .text:00000000000002e0 .LVL44
     /tmp/ccXYTfXE.s:529    .text:0000000000000298 .LVL37
     /tmp/ccXYTfXE.s:571    .text:00000000000002d4 .LVL42
     /tmp/ccXYTfXE.s:568    .text:00000000000002d0 .LVL41
     /tmp/ccXYTfXE.s:423    .text:0000000000000208 .LVL31
     /tmp/ccXYTfXE.s:437    .text:0000000000000220 .LVL32
     /tmp/ccXYTfXE.s:439    .text:0000000000000224 .LVL33
     /tmp/ccXYTfXE.s:152    .text:00000000000000a8 .LVL7
     /tmp/ccXYTfXE.s:166    .text:00000000000000c0 .LVL8
     /tmp/ccXYTfXE.s:168    .text:00000000000000c4 .LVL9
     /tmp/ccXYTfXE.s:804    .debug_info:0000000000000000 .Ldebug_info0
     /tmp/ccXYTfXE.s:349    .gcc_except_table:0000000000000000 .LLSDA32

UNDEFINED SYMBOLS
_ZN3PCB7runningE
_ZN3PCB8dispatchEv
_ZN9Scheduler3putEP3PCB
__gxx_personality_v0
_Z7kmallocm
_Z5kfreePv
_ZN5Riscv13w_a0_sscratchEv
