GAS LISTING /tmp/ccljVnGl.s 			page 1


   1              		.file	"main.cpp"
   2              		.option pic
   3              		.option norelax
   4              		.text
   5              	.Ltext0:
   6              		.section	.rodata.str1.8,"aMS",@progbits,1
   7              		.align	3
   8              	.LC0:
   9 0000 54687265 		.string	"Thread 1 started..."
   9      61642031 
   9      20737461 
   9      72746564 
   9      2E2E2E00 
  10 0014 00000000 		.align	3
  11              	.LC1:
  12 0018 69203A20 		.string	"i : "
  12      00
  13 001d 000000   		.align	3
  14              	.LC2:
  15 0020 0A00     		.string	"\n"
  16              		.text
  17              		.align	2
  18              		.globl	_Z15thread1FunctionPv
  20              	_Z15thread1FunctionPv:
  21              	.LFB21:
  22              		.file 1 "src/main.cpp"
   1:src/main.cpp  **** #include "../h/syscall_cpp.h"
   2:src/main.cpp  **** #include "../lib/console.h"
   3:src/main.cpp  **** #include "../h/Riscv.h"
   4:src/main.cpp  **** 
   5:src/main.cpp  **** class Test
   6:src/main.cpp  **** {
   7:src/main.cpp  **** public:
   8:src/main.cpp  ****     uint64 a;
   9:src/main.cpp  **** };
  10:src/main.cpp  **** 
  11:src/main.cpp  **** //memory (de)allocation tests
  12:src/main.cpp  **** void mallocFree();
  13:src/main.cpp  **** void bigMalloc();
  14:src/main.cpp  **** void lotOfSmallMallocs();
  15:src/main.cpp  **** void badFree();
  16:src/main.cpp  **** void memoryAllocationTests();
  17:src/main.cpp  **** 
  18:src/main.cpp  **** //thread tests
  19:src/main.cpp  **** void thread1Function();
  20:src/main.cpp  **** void thread2Function();
  21:src/main.cpp  **** void threadTests();
  22:src/main.cpp  **** 
  23:src/main.cpp  **** void testQueue();
  24:src/main.cpp  **** 
  25:src/main.cpp  **** void main()
  26:src/main.cpp  **** {
  27:src/main.cpp  ****     Riscv::initSystem();
  28:src/main.cpp  **** 
  29:src/main.cpp  ****     //memoryAllocationTests();
  30:src/main.cpp  ****     threadTests();
  31:src/main.cpp  ****     //testQueue();
GAS LISTING /tmp/ccljVnGl.s 			page 2


  32:src/main.cpp  **** }
  33:src/main.cpp  **** 
  34:src/main.cpp  **** void testQueue()
  35:src/main.cpp  **** {
  36:src/main.cpp  ****    /* Queue<uint64> q;
  37:src/main.cpp  ****     q.push(1);
  38:src/main.cpp  ****     q.push(2);
  39:src/main.cpp  ****     uint64 x = q.front();
  40:src/main.cpp  ****     q.pop();
  41:src/main.cpp  ****     Riscv::printInteger(x);
  42:src/main.cpp  ****     Riscv::printString("\n");*/
  43:src/main.cpp  **** }
  44:src/main.cpp  **** 
  45:src/main.cpp  **** void thread1Function(void* p)
  46:src/main.cpp  **** {
  23              		.loc 1 46 1
  24              		.cfi_startproc
  25              	.LVL0:
  26 0000 130101FE 		addi	sp,sp,-32
  27              		.cfi_def_cfa_offset 32
  28 0004 233C1100 		sd	ra,24(sp)
  29 0008 23388100 		sd	s0,16(sp)
  30 000c 23349100 		sd	s1,8(sp)
  31              		.cfi_offset 1, -8
  32              		.cfi_offset 8, -16
  33              		.cfi_offset 9, -24
  34 0010 13040102 		addi	s0,sp,32
  35              		.cfi_def_cfa 8, 0
  47:src/main.cpp  ****     Riscv::printString("Thread 1 started...");
  36              		.loc 1 47 5
  37              		.loc 1 47 23 is_stmt 0
  38 0014 17050000 		lla	a0,.LC0
  38      13050500 
  39              	.LVL1:
  40 001c 97000000 		call	_ZN5Riscv11printStringEPKc@plt
  40      E7800000 
  41              	.LVL2:
  48:src/main.cpp  ****     for(int i = 0; i < 10;i++)
  42              		.loc 1 48 5 is_stmt 1
  43              	.LBB6:
  44              		.loc 1 48 13 is_stmt 0
  45 0024 93040000 		li	s1,0
  46 0028 6F004003 		j	.L4
  47              	.LVL3:
  48              	.L3:
  49:src/main.cpp  ****     {
  50:src/main.cpp  ****         Riscv::printInteger(Scheduler::getSize());
  51:src/main.cpp  ****         if(i % 4 == 0 && i > 0)
  52:src/main.cpp  ****             thread_dispatch();
  53:src/main.cpp  ****         Riscv::printString("i : ");
  49              		.loc 1 53 9 is_stmt 1 discriminator 2
  50              		.loc 1 53 27 is_stmt 0 discriminator 2
  51 002c 17050000 		lla	a0,.LC1
  51      13050500 
  52 0034 97000000 		call	_ZN5Riscv11printStringEPKc@plt
  52      E7800000 
  53              	.LVL4:
GAS LISTING /tmp/ccljVnGl.s 			page 3


  54:src/main.cpp  ****         Riscv::printInteger(i);
  54              		.loc 1 54 9 is_stmt 1 discriminator 2
  55              		.loc 1 54 28 is_stmt 0 discriminator 2
  56 003c 13850400 		mv	a0,s1
  57 0040 97000000 		call	_ZN5Riscv12printIntegerEm@plt
  57      E7800000 
  58              	.LVL5:
  55:src/main.cpp  ****         Riscv::printString("\n");
  59              		.loc 1 55 9 is_stmt 1 discriminator 2
  60              		.loc 1 55 27 is_stmt 0 discriminator 2
  61 0048 17050000 		lla	a0,.LC2
  61      13050500 
  62 0050 97000000 		call	_ZN5Riscv11printStringEPKc@plt
  62      E7800000 
  63              	.LVL6:
  48:src/main.cpp  ****     {
  64              		.loc 1 48 5 is_stmt 1 discriminator 2
  65 0058 9B841400 		addiw	s1,s1,1
  66              	.LVL7:
  67              	.L4:
  48:src/main.cpp  ****     {
  68              		.loc 1 48 22 discriminator 1
  69 005c 93079000 		li	a5,9
  70 0060 63C69702 		bgt	s1,a5,.L2
  50:src/main.cpp  ****         if(i % 4 == 0 && i > 0)
  71              		.loc 1 50 9
  50:src/main.cpp  ****         if(i % 4 == 0 && i > 0)
  72              		.loc 1 50 47 is_stmt 0
  73 0064 97000000 		call	_ZN9Scheduler7getSizeEv@plt
  73      E7800000 
  74              	.LVL8:
  50:src/main.cpp  ****         if(i % 4 == 0 && i > 0)
  75              		.loc 1 50 28
  76 006c 97000000 		call	_ZN5Riscv12printIntegerEm@plt
  76      E7800000 
  77              	.LVL9:
  51:src/main.cpp  ****             thread_dispatch();
  78              		.loc 1 51 9 is_stmt 1
  51:src/main.cpp  ****             thread_dispatch();
  79              		.loc 1 51 18 is_stmt 0
  80 0074 93F73400 		andi	a5,s1,3
  51:src/main.cpp  ****             thread_dispatch();
  81              		.loc 1 51 9
  82 0078 E39A07FA 		bnez	a5,.L3
  51:src/main.cpp  ****             thread_dispatch();
  83              		.loc 1 51 23 discriminator 1
  84 007c E35890FA 		blez	s1,.L3
  52:src/main.cpp  ****         Riscv::printString("i : ");
  85              		.loc 1 52 13 is_stmt 1
  52:src/main.cpp  ****         Riscv::printString("i : ");
  86              		.loc 1 52 28 is_stmt 0
  87 0080 97000000 		call	thread_dispatch@plt
  87      E7800000 
  88              	.LVL10:
  89 0088 6FF05FFA 		j	.L3
  90              	.L2:
  91              	.LBE6:
GAS LISTING /tmp/ccljVnGl.s 			page 4


  56:src/main.cpp  ****     }
  57:src/main.cpp  **** 
  58:src/main.cpp  ****     Thread::dispatch();
  92              		.loc 1 58 5 is_stmt 1
  93              		.loc 1 58 21 is_stmt 0
  94 008c 97000000 		call	_ZN6Thread8dispatchEv@plt
  94      E7800000 
  95              	.LVL11:
  59:src/main.cpp  **** }
  96              		.loc 1 59 1
  97 0094 83308101 		ld	ra,24(sp)
  98              		.cfi_restore 1
  99 0098 03340101 		ld	s0,16(sp)
 100              		.cfi_restore 8
 101              		.cfi_def_cfa 2, 32
 102 009c 83348100 		ld	s1,8(sp)
 103              		.cfi_restore 9
 104              	.LVL12:
 105 00a0 13010102 		addi	sp,sp,32
 106              		.cfi_def_cfa_offset 0
 107 00a4 67800000 		jr	ra
 108              		.cfi_endproc
 109              	.LFE21:
 111              		.section	.rodata.str1.8
 112 0022 00000000 		.align	3
 112      0000
 113              	.LC3:
 114 0028 54687265 		.string	"Thread 2 started..."
 114      61642032 
 114      20737461 
 114      72746564 
 114      2E2E2E00 
 115 003c 00000000 		.align	3
 116              	.LC4:
 117 0040 6A203A20 		.string	"j : "
 117      00
 118              		.text
 119              		.align	2
 120              		.globl	_Z15thread2FunctionPv
 122              	_Z15thread2FunctionPv:
 123              	.LFB22:
  60:src/main.cpp  **** 
  61:src/main.cpp  **** void thread2Function(void* p)
  62:src/main.cpp  **** {
 124              		.loc 1 62 1 is_stmt 1
 125              		.cfi_startproc
 126              	.LVL13:
 127 00a8 130101FE 		addi	sp,sp,-32
 128              		.cfi_def_cfa_offset 32
 129 00ac 233C1100 		sd	ra,24(sp)
 130 00b0 23388100 		sd	s0,16(sp)
 131 00b4 23349100 		sd	s1,8(sp)
 132              		.cfi_offset 1, -8
 133              		.cfi_offset 8, -16
 134              		.cfi_offset 9, -24
 135 00b8 13040102 		addi	s0,sp,32
 136              		.cfi_def_cfa 8, 0
GAS LISTING /tmp/ccljVnGl.s 			page 5


  63:src/main.cpp  ****     Riscv::printString("Thread 2 started...");
 137              		.loc 1 63 5
 138              		.loc 1 63 23 is_stmt 0
 139 00bc 17050000 		lla	a0,.LC3
 139      13050500 
 140              	.LVL14:
 141 00c4 97000000 		call	_ZN5Riscv11printStringEPKc@plt
 141      E7800000 
 142              	.LVL15:
  64:src/main.cpp  ****     for(int j = 0; j < 10;j++)
 143              		.loc 1 64 5 is_stmt 1
 144              	.LBB7:
 145              		.loc 1 64 13 is_stmt 0
 146 00cc 93040000 		li	s1,0
 147 00d0 6F004003 		j	.L9
 148              	.LVL16:
 149              	.L8:
  65:src/main.cpp  ****     {
  66:src/main.cpp  ****         Riscv::printInteger(Scheduler::getSize());
  67:src/main.cpp  ****         if(j % 5 == 0 && j > 0)
  68:src/main.cpp  ****             thread_dispatch();
  69:src/main.cpp  ****         Riscv::printString("j : ");
 150              		.loc 1 69 9 is_stmt 1 discriminator 2
 151              		.loc 1 69 27 is_stmt 0 discriminator 2
 152 00d4 17050000 		lla	a0,.LC4
 152      13050500 
 153 00dc 97000000 		call	_ZN5Riscv11printStringEPKc@plt
 153      E7800000 
 154              	.LVL17:
  70:src/main.cpp  ****         Riscv::printInteger(j);
 155              		.loc 1 70 9 is_stmt 1 discriminator 2
 156              		.loc 1 70 28 is_stmt 0 discriminator 2
 157 00e4 13850400 		mv	a0,s1
 158 00e8 97000000 		call	_ZN5Riscv12printIntegerEm@plt
 158      E7800000 
 159              	.LVL18:
  71:src/main.cpp  ****         Riscv::printString("\n");
 160              		.loc 1 71 9 is_stmt 1 discriminator 2
 161              		.loc 1 71 27 is_stmt 0 discriminator 2
 162 00f0 17050000 		lla	a0,.LC2
 162      13050500 
 163 00f8 97000000 		call	_ZN5Riscv11printStringEPKc@plt
 163      E7800000 
 164              	.LVL19:
  64:src/main.cpp  ****     {
 165              		.loc 1 64 5 is_stmt 1 discriminator 2
 166 0100 9B841400 		addiw	s1,s1,1
 167              	.LVL20:
 168              	.L9:
  64:src/main.cpp  ****     {
 169              		.loc 1 64 22 discriminator 1
 170 0104 93079000 		li	a5,9
 171 0108 63C89702 		bgt	s1,a5,.L7
  66:src/main.cpp  ****         if(j % 5 == 0 && j > 0)
 172              		.loc 1 66 9
  66:src/main.cpp  ****         if(j % 5 == 0 && j > 0)
 173              		.loc 1 66 47 is_stmt 0
GAS LISTING /tmp/ccljVnGl.s 			page 6


 174 010c 97000000 		call	_ZN9Scheduler7getSizeEv@plt
 174      E7800000 
 175              	.LVL21:
  66:src/main.cpp  ****         if(j % 5 == 0 && j > 0)
 176              		.loc 1 66 28
 177 0114 97000000 		call	_ZN5Riscv12printIntegerEm@plt
 177      E7800000 
 178              	.LVL22:
  67:src/main.cpp  ****             thread_dispatch();
 179              		.loc 1 67 9 is_stmt 1
  67:src/main.cpp  ****             thread_dispatch();
 180              		.loc 1 67 14 is_stmt 0
 181 011c 93075000 		li	a5,5
 182 0120 BBE7F402 		remw	a5,s1,a5
  67:src/main.cpp  ****             thread_dispatch();
 183              		.loc 1 67 9
 184 0124 E39807FA 		bnez	a5,.L8
  67:src/main.cpp  ****             thread_dispatch();
 185              		.loc 1 67 23 discriminator 1
 186 0128 E35690FA 		blez	s1,.L8
  68:src/main.cpp  ****         Riscv::printString("j : ");
 187              		.loc 1 68 13 is_stmt 1
  68:src/main.cpp  ****         Riscv::printString("j : ");
 188              		.loc 1 68 28 is_stmt 0
 189 012c 97000000 		call	thread_dispatch@plt
 189      E7800000 
 190              	.LVL23:
 191 0134 6FF01FFA 		j	.L8
 192              	.L7:
 193              	.LBE7:
  72:src/main.cpp  ****     }
  73:src/main.cpp  **** 
  74:src/main.cpp  ****     Thread::dispatch();
 194              		.loc 1 74 5 is_stmt 1
 195              		.loc 1 74 21 is_stmt 0
 196 0138 97000000 		call	_ZN6Thread8dispatchEv@plt
 196      E7800000 
 197              	.LVL24:
  75:src/main.cpp  **** }
 198              		.loc 1 75 1
 199 0140 83308101 		ld	ra,24(sp)
 200              		.cfi_restore 1
 201 0144 03340101 		ld	s0,16(sp)
 202              		.cfi_restore 8
 203              		.cfi_def_cfa 2, 32
 204 0148 83348100 		ld	s1,8(sp)
 205              		.cfi_restore 9
 206              	.LVL25:
 207 014c 13010102 		addi	sp,sp,32
 208              		.cfi_def_cfa_offset 0
 209 0150 67800000 		jr	ra
 210              		.cfi_endproc
 211              	.LFE22:
 213              		.align	2
 214              		.globl	_Z9testQueuev
 216              	_Z9testQueuev:
 217              	.LFB20:
GAS LISTING /tmp/ccljVnGl.s 			page 7


  35:src/main.cpp  ****    /* Queue<uint64> q;
 218              		.loc 1 35 1 is_stmt 1
 219              		.cfi_startproc
 220 0154 130101FF 		addi	sp,sp,-16
 221              		.cfi_def_cfa_offset 16
 222 0158 23348100 		sd	s0,8(sp)
 223              		.cfi_offset 8, -8
 224 015c 13040101 		addi	s0,sp,16
 225              		.cfi_def_cfa 8, 0
  43:src/main.cpp  **** 
 226              		.loc 1 43 1 is_stmt 0
 227 0160 03348100 		ld	s0,8(sp)
 228              		.cfi_restore 8
 229              		.cfi_def_cfa 2, 16
 230 0164 13010101 		addi	sp,sp,16
 231              		.cfi_def_cfa_offset 0
 232 0168 67800000 		jr	ra
 233              		.cfi_endproc
 234              	.LFE20:
 236              		.section	.rodata.str1.8
 237 0045 000000   		.align	3
 238              	.LC5:
 239 0048 456E642E 		.string	"End..."
 239      2E2E00
 240              		.text
 241              		.align	2
 242              		.globl	_Z11threadTestsv
 244              	_Z11threadTestsv:
 245              	.LFB23:
  76:src/main.cpp  **** 
  77:src/main.cpp  **** void threadTests()
  78:src/main.cpp  **** {
 246              		.loc 1 78 1 is_stmt 1
 247              		.cfi_startproc
 248              		.cfi_personality 0x9b,DW.ref.__gxx_personality_v0
 249              		.cfi_lsda 0x1b,.LLSDA23
 250 016c 130101FE 		addi	sp,sp,-32
 251              		.cfi_def_cfa_offset 32
 252 0170 233C1100 		sd	ra,24(sp)
 253 0174 23388100 		sd	s0,16(sp)
 254 0178 23349100 		sd	s1,8(sp)
 255 017c 23302101 		sd	s2,0(sp)
 256              		.cfi_offset 1, -8
 257              		.cfi_offset 8, -16
 258              		.cfi_offset 9, -24
 259              		.cfi_offset 18, -32
 260 0180 13040102 		addi	s0,sp,32
 261              		.cfi_def_cfa 8, 0
  79:src/main.cpp  ****     Thread* t = new Thread(0, 0);
 262              		.loc 1 79 5
 263              		.loc 1 79 32 is_stmt 0
 264 0184 13058000 		li	a0,8
 265              	.LEHB0:
 266 0188 97000000 		call	_Znwm@plt
 266      E7800000 
 267              	.LVL26:
 268              	.LEHE0:
GAS LISTING /tmp/ccljVnGl.s 			page 8


 269 0190 93040500 		mv	s1,a0
 270 0194 13060000 		li	a2,0
 271 0198 93050000 		li	a1,0
 272              	.LEHB1:
 273 019c 97000000 		call	_ZN6ThreadC1EPFvPvES0_@plt
 273      E7800000 
 274              	.LVL27:
 275              	.LEHE1:
  80:src/main.cpp  ****     PCB::running = t->myHandle;
 276              		.loc 1 80 5 is_stmt 1 discriminator 2
 277              		.loc 1 80 23 is_stmt 0 discriminator 2
 278 01a4 03B70400 		ld	a4,0(s1)
 279              		.loc 1 80 18 discriminator 2
 280 01a8 97070000 		la	a5,_ZN3PCB7runningE
 280      83B70700 
 281 01b0 23B0E700 		sd	a4,0(a5)
  81:src/main.cpp  ****     Thread* t1 = new Thread(&thread1Function, 0);
 282              		.loc 1 81 5 is_stmt 1 discriminator 2
 283              		.loc 1 81 48 is_stmt 0 discriminator 2
 284 01b4 13058000 		li	a0,8
 285              	.LEHB2:
 286 01b8 97000000 		call	_Znwm@plt
 286      E7800000 
 287              	.LVL28:
 288              	.LEHE2:
 289 01c0 93040500 		mv	s1,a0
 290              	.LVL29:
 291 01c4 13060000 		li	a2,0
 292 01c8 97050000 		lla	a1,_Z15thread1FunctionPv
 292      93850500 
 293              	.LEHB3:
 294 01d0 97000000 		call	_ZN6ThreadC1EPFvPvES0_@plt
 294      E7800000 
 295              	.LVL30:
 296              	.LEHE3:
  82:src/main.cpp  ****     Scheduler::put(t1->myHandle);
 297              		.loc 1 82 5 is_stmt 1 discriminator 2
 298              		.loc 1 82 19 is_stmt 0 discriminator 2
 299 01d8 03B50400 		ld	a0,0(s1)
 300              	.LEHB4:
 301 01dc 97000000 		call	_ZN9Scheduler3putEP3PCB@plt
 301      E7800000 
 302              	.LVL31:
  83:src/main.cpp  ****     Thread* t2 = new Thread(&thread2Function, 0);
 303              		.loc 1 83 5 is_stmt 1 discriminator 2
 304              		.loc 1 83 48 is_stmt 0 discriminator 2
 305 01e4 13058000 		li	a0,8
 306 01e8 97000000 		call	_Znwm@plt
 306      E7800000 
 307              	.LVL32:
 308              	.LEHE4:
 309 01f0 13090500 		mv	s2,a0
 310 01f4 13060000 		li	a2,0
 311 01f8 97050000 		lla	a1,_Z15thread2FunctionPv
 311      93850500 
 312              	.LEHB5:
 313 0200 97000000 		call	_ZN6ThreadC1EPFvPvES0_@plt
GAS LISTING /tmp/ccljVnGl.s 			page 9


 313      E7800000 
 314              	.LVL33:
 315              	.LEHE5:
  84:src/main.cpp  ****     Scheduler::put(t2->myHandle);
 316              		.loc 1 84 5 is_stmt 1 discriminator 2
 317              		.loc 1 84 19 is_stmt 0 discriminator 2
 318 0208 03350900 		ld	a0,0(s2)
 319              	.LEHB6:
 320 020c 97000000 		call	_ZN9Scheduler3putEP3PCB@plt
 320      E7800000 
 321              	.LVL34:
  85:src/main.cpp  **** 
  86:src/main.cpp  ****     Riscv::printInteger(Scheduler::getSize());
 322              		.loc 1 86 5 is_stmt 1 discriminator 2
 323              		.loc 1 86 43 is_stmt 0 discriminator 2
 324 0214 97000000 		call	_ZN9Scheduler7getSizeEv@plt
 324      E7800000 
 325              	.LVL35:
 326              		.loc 1 86 24 discriminator 2
 327 021c 97000000 		call	_ZN5Riscv12printIntegerEm@plt
 327      E7800000 
 328              	.LVL36:
 329              	.L15:
  87:src/main.cpp  **** 
  88:src/main.cpp  ****     while(!t1->myHandle->getFinished()
 330              		.loc 1 88 5 is_stmt 1
  89:src/main.cpp  ****         && !t2->myHandle->getFinished())
 331              		.loc 1 89 9
  88:src/main.cpp  ****         && !t2->myHandle->getFinished())
 332              		.loc 1 88 16 is_stmt 0
 333 0224 83B70400 		ld	a5,0(s1)
 334              	.LVL37:
 335              	.LBB8:
 336              	.LBB9:
 337              		.file 2 "src/../h/PCB.h"
   1:src/../h/PCB.h **** //
   2:src/../h/PCB.h **** // Created by os on 4/27/22.
   3:src/../h/PCB.h **** //
   4:src/../h/PCB.h **** 
   5:src/../h/PCB.h **** #ifndef PROJECT_BASE_V1_0_PCB_H
   6:src/../h/PCB.h **** #define PROJECT_BASE_V1_0_PCB_H
   7:src/../h/PCB.h **** 
   8:src/../h/PCB.h **** #include "../lib/hw.h"
   9:src/../h/PCB.h **** #include "Scheduler.h"
  10:src/../h/PCB.h **** #include "Riscv.h"
  11:src/../h/PCB.h **** 
  12:src/../h/PCB.h **** class PCB
  13:src/../h/PCB.h **** {
  14:src/../h/PCB.h **** public:
  15:src/../h/PCB.h ****     using Body = void (*)(void*);
  16:src/../h/PCB.h **** 
  17:src/../h/PCB.h ****     PCB(Body body,  void* args, void* stack_space);
  18:src/../h/PCB.h **** 
  19:src/../h/PCB.h ****     void start();
  20:src/../h/PCB.h ****     static void dispatch();
  21:src/../h/PCB.h ****     static void sleep(time_t);
  22:src/../h/PCB.h **** 
GAS LISTING /tmp/ccljVnGl.s 			page 10


  23:src/../h/PCB.h ****     static PCB* running;
  24:src/../h/PCB.h **** 
  25:src/../h/PCB.h ****     static const uint64 THREAD_CREATE = 0x11;
  26:src/../h/PCB.h **** 
  27:src/../h/PCB.h ****     static const uint64 THREAD_EXIT = 0x12;
  28:src/../h/PCB.h ****     static const uint64 THREAD_DISPATCH = 0x13;
  29:src/../h/PCB.h **** 
  30:src/../h/PCB.h ****     static uint64 timeSliceCounter;
  31:src/../h/PCB.h **** 
  32:src/../h/PCB.h ****     uint64 getTimeSlice() { return timeSlice;}
  33:src/../h/PCB.h **** 
  34:src/../h/PCB.h ****     void setFinished(bool f) {finished = f;}
  35:src/../h/PCB.h **** 
  36:src/../h/PCB.h ****     bool getFinished() { return finished;}
 338              		.loc 2 36 26 is_stmt 1
 339              		.loc 2 36 33 is_stmt 0
 340 0228 83C70703 		lbu	a5,48(a5)
 341              	.LVL38:
 342              	.LBE9:
 343              	.LBE8:
 344              		.loc 1 89 9
 345 022c 639E0700 		bnez	a5,.L14
 346              		.loc 1 89 17 discriminator 1
 347 0230 83370900 		ld	a5,0(s2)
 348              	.LVL39:
 349              	.LBB10:
 350              	.LBB11:
 351              		.loc 2 36 26 is_stmt 1 discriminator 1
 352              		.loc 2 36 33 is_stmt 0 discriminator 1
 353 0234 83C70703 		lbu	a5,48(a5)
 354              	.LVL40:
 355              	.LBE11:
 356              	.LBE10:
 357              		.loc 1 89 9 discriminator 1
 358 0238 63980700 		bnez	a5,.L14
  90:src/main.cpp  ****     {
  91:src/main.cpp  ****         thread_dispatch();
 359              		.loc 1 91 9 is_stmt 1
 360              		.loc 1 91 24 is_stmt 0
 361 023c 97000000 		call	thread_dispatch@plt
 361      E7800000 
 362              	.LVL41:
  88:src/main.cpp  ****         && !t2->myHandle->getFinished())
 363              		.loc 1 88 5
 364 0244 6FF01FFE 		j	.L15
 365              	.L14:
  92:src/main.cpp  ****     }
  93:src/main.cpp  **** 
  94:src/main.cpp  ****     Riscv::printString("End...");
 366              		.loc 1 94 5 is_stmt 1 discriminator 4
 367              		.loc 1 94 23 is_stmt 0 discriminator 4
 368 0248 17050000 		lla	a0,.LC5
 368      13050500 
 369 0250 97000000 		call	_ZN5Riscv11printStringEPKc@plt
 369      E7800000 
 370              	.LVL42:
 371              	.LEHE6:
GAS LISTING /tmp/ccljVnGl.s 			page 11


  95:src/main.cpp  **** }
 372              		.loc 1 95 1 discriminator 4
 373 0258 83308101 		ld	ra,24(sp)
 374              		.cfi_remember_state
 375              		.cfi_restore 1
 376 025c 03340101 		ld	s0,16(sp)
 377              		.cfi_restore 8
 378              		.cfi_def_cfa 2, 32
 379 0260 83348100 		ld	s1,8(sp)
 380              		.cfi_restore 9
 381              	.LVL43:
 382 0264 03390100 		ld	s2,0(sp)
 383              		.cfi_restore 18
 384              	.LVL44:
 385 0268 13010102 		addi	sp,sp,32
 386              		.cfi_def_cfa_offset 0
 387 026c 67800000 		jr	ra
 388              	.L19:
 389              		.cfi_restore_state
 390 0270 13090500 		mv	s2,a0
  79:src/main.cpp  ****     PCB::running = t->myHandle;
 391              		.loc 1 79 32
 392 0274 13850400 		mv	a0,s1
 393 0278 97000000 		call	_ZdlPv@plt
 393      E7800000 
 394              	.LVL45:
 395 0280 13050900 		mv	a0,s2
 396              	.LEHB7:
 397 0284 97000000 		call	_Unwind_Resume@plt
 397      E7800000 
 398              	.LVL46:
 399              	.LEHE7:
 400              	.L20:
 401 028c 13090500 		mv	s2,a0
  81:src/main.cpp  ****     Scheduler::put(t1->myHandle);
 402              		.loc 1 81 48
 403 0290 13850400 		mv	a0,s1
 404 0294 97000000 		call	_ZdlPv@plt
 404      E7800000 
 405              	.LVL47:
 406 029c 13050900 		mv	a0,s2
 407              	.LEHB8:
 408 02a0 97000000 		call	_Unwind_Resume@plt
 408      E7800000 
 409              	.LVL48:
 410              	.LEHE8:
 411              	.L21:
 412 02a8 93040500 		mv	s1,a0
 413              	.LVL49:
  83:src/main.cpp  ****     Scheduler::put(t2->myHandle);
 414              		.loc 1 83 48
 415 02ac 13050900 		mv	a0,s2
 416 02b0 97000000 		call	_ZdlPv@plt
 416      E7800000 
 417              	.LVL50:
 418 02b8 13850400 		mv	a0,s1
 419              	.LEHB9:
GAS LISTING /tmp/ccljVnGl.s 			page 12


 420 02bc 97000000 		call	_Unwind_Resume@plt
 420      E7800000 
 421              	.LVL51:
 422              	.LEHE9:
 423              		.cfi_endproc
 424              	.LFE23:
 425              		.globl	__gxx_personality_v0
 426              		.section	.gcc_except_table,"a",@progbits
 427              	.LLSDA23:
 428 0000 FF       		.byte	0xff
 429 0001 FF       		.byte	0xff
 430 0002 03       		.byte	0x3
 431 0003 8201     		.byte	0x82,0x1
 432 0005 00000000 		.4byte	.LEHB0-.LFB23
 433 0009 00000000 		.4byte	.LEHE0-.LEHB0
 434 000d 00000000 		.4byte	0
 435 0011 00       		.byte	0
 436 0012 00000000 		.4byte	.LEHB1-.LFB23
 437 0016 00000000 		.4byte	.LEHE1-.LEHB1
 438 001a 00000000 		.4byte	.L19-.LFB23
 439 001e 00       		.byte	0
 440 001f 00000000 		.4byte	.LEHB2-.LFB23
 441 0023 00000000 		.4byte	.LEHE2-.LEHB2
 442 0027 00000000 		.4byte	0
 443 002b 00       		.byte	0
 444 002c 00000000 		.4byte	.LEHB3-.LFB23
 445 0030 00000000 		.4byte	.LEHE3-.LEHB3
 446 0034 00000000 		.4byte	.L20-.LFB23
 447 0038 00       		.byte	0
 448 0039 00000000 		.4byte	.LEHB4-.LFB23
 449 003d 00000000 		.4byte	.LEHE4-.LEHB4
 450 0041 00000000 		.4byte	0
 451 0045 00       		.byte	0
 452 0046 00000000 		.4byte	.LEHB5-.LFB23
 453 004a 00000000 		.4byte	.LEHE5-.LEHB5
 454 004e 00000000 		.4byte	.L21-.LFB23
 455 0052 00       		.byte	0
 456 0053 00000000 		.4byte	.LEHB6-.LFB23
 457 0057 00000000 		.4byte	.LEHE6-.LEHB6
 458 005b 00000000 		.4byte	0
 459 005f 00       		.byte	0
 460 0060 00000000 		.4byte	.LEHB7-.LFB23
 461 0064 00000000 		.4byte	.LEHE7-.LEHB7
 462 0068 00000000 		.4byte	0
 463 006c 00       		.byte	0
 464 006d 00000000 		.4byte	.LEHB8-.LFB23
 465 0071 00000000 		.4byte	.LEHE8-.LEHB8
 466 0075 00000000 		.4byte	0
 467 0079 00       		.byte	0
 468 007a 00000000 		.4byte	.LEHB9-.LFB23
 469 007e 00000000 		.4byte	.LEHE9-.LEHB9
 470 0082 00000000 		.4byte	0
 471 0086 00       		.byte	0
 472              		.text
 474              		.align	2
 475              		.globl	main
 477              	main:
GAS LISTING /tmp/ccljVnGl.s 			page 13


 478              	.LFB19:
  26:src/main.cpp  ****     Riscv::initSystem();
 479              		.loc 1 26 1 is_stmt 1
 480              		.cfi_startproc
 481 02c4 130101FF 		addi	sp,sp,-16
 482              		.cfi_def_cfa_offset 16
 483 02c8 23341100 		sd	ra,8(sp)
 484 02cc 23308100 		sd	s0,0(sp)
 485              		.cfi_offset 1, -8
 486              		.cfi_offset 8, -16
 487 02d0 13040101 		addi	s0,sp,16
 488              		.cfi_def_cfa 8, 0
  27:src/main.cpp  **** 
 489              		.loc 1 27 5
  27:src/main.cpp  **** 
 490              		.loc 1 27 22 is_stmt 0
 491 02d4 97000000 		call	_ZN5Riscv10initSystemEv@plt
 491      E7800000 
 492              	.LVL52:
  30:src/main.cpp  ****     //testQueue();
 493              		.loc 1 30 5 is_stmt 1
  30:src/main.cpp  ****     //testQueue();
 494              		.loc 1 30 16 is_stmt 0
 495 02dc 97000000 		call	_Z11threadTestsv
 495      E7800000 
 496              	.LVL53:
  32:src/main.cpp  **** 
 497              		.loc 1 32 1
 498 02e4 83308100 		ld	ra,8(sp)
 499              		.cfi_restore 1
 500 02e8 03340100 		ld	s0,0(sp)
 501              		.cfi_restore 8
 502              		.cfi_def_cfa 2, 16
 503 02ec 13010101 		addi	sp,sp,16
 504              		.cfi_def_cfa_offset 0
 505 02f0 67800000 		jr	ra
 506              		.cfi_endproc
 507              	.LFE19:
 509              		.section	.rodata.str1.8
 510 004f 00       		.align	3
 511              	.LC6:
 512 0050 6D616C6C 		.string	"mallocFree\n"
 512      6F634672 
 512      65650A00 
 513 005c 00000000 		.align	3
 514              	.LC7:
 515 0060 6E6F7420 		.string	"not OK\n"
 515      4F4B0A00 
 516              		.align	3
 517              	.LC8:
 518 0068 4F4B0A00 		.string	"OK\n"
 519              		.text
 520              		.align	2
 521              		.globl	_Z10mallocFreev
 523              	_Z10mallocFreev:
 524              	.LFB24:
  96:src/main.cpp  **** 
GAS LISTING /tmp/ccljVnGl.s 			page 14


  97:src/main.cpp  **** 
  98:src/main.cpp  **** //memory (de)allocation tests
  99:src/main.cpp  **** void mallocFree()
 100:src/main.cpp  **** {
 525              		.loc 1 100 1 is_stmt 1
 526              		.cfi_startproc
 527 02f4 130101CC 		addi	sp,sp,-832
 528              		.cfi_def_cfa_offset 832
 529 02f8 233C1132 		sd	ra,824(sp)
 530 02fc 23388132 		sd	s0,816(sp)
 531 0300 23349132 		sd	s1,808(sp)
 532              		.cfi_offset 1, -8
 533              		.cfi_offset 8, -16
 534              		.cfi_offset 9, -24
 535 0304 13040134 		addi	s0,sp,832
 536              		.cfi_def_cfa 8, 0
 101:src/main.cpp  ****     Riscv::printString("mallocFree\n");
 537              		.loc 1 101 5
 538              		.loc 1 101 23 is_stmt 0
 539 0308 17050000 		lla	a0,.LC6
 539      13050500 
 540 0310 97000000 		call	_ZN5Riscv11printStringEPKc@plt
 540      E7800000 
 541              	.LVL54:
 542              	.LBB12:
 102:src/main.cpp  ****     constexpr int num = 100;
 103:src/main.cpp  ****     void* addrs[num];
 104:src/main.cpp  ****     for(int i = 0; i < num;i++)
 543              		.loc 1 104 13
 544 0318 93040000 		li	s1,0
 545 031c 6F008000 		j	.L30
 546              	.LVL55:
 547              	.L28:
 548              		.loc 1 104 5 is_stmt 1 discriminator 2
 549 0320 9B841400 		addiw	s1,s1,1
 550              	.LVL56:
 551              	.L30:
 552              		.loc 1 104 22 discriminator 1
 553 0324 93073006 		li	a5,99
 554 0328 63C49704 		bgt	s1,a5,.L38
 105:src/main.cpp  ****     {
 106:src/main.cpp  ****         addrs[i] = mem_alloc(100);
 555              		.loc 1 106 9
 556              		.loc 1 106 29 is_stmt 0
 557 032c 13054006 		li	a0,100
 558 0330 97000000 		call	mem_alloc@plt
 558      E7800000 
 559              	.LVL57:
 560              		.loc 1 106 18
 561 0338 93973400 		slli	a5,s1,3
 562 033c 130704FE 		addi	a4,s0,-32
 563 0340 B307F700 		add	a5,a4,a5
 564 0344 23B0A7CE 		sd	a0,-800(a5)
 107:src/main.cpp  ****         if(addrs[i] == 0)
 565              		.loc 1 107 9 is_stmt 1
 566 0348 E31C05FC 		bnez	a0,.L28
 108:src/main.cpp  ****         {
GAS LISTING /tmp/ccljVnGl.s 			page 15


 109:src/main.cpp  ****             Riscv::printString("not OK\n");
 567              		.loc 1 109 13
 568              		.loc 1 109 31 is_stmt 0
 569 034c 17050000 		lla	a0,.LC7
 569      13050500 
 570 0354 97000000 		call	_ZN5Riscv11printStringEPKc@plt
 570      E7800000 
 571              	.LVL58:
 110:src/main.cpp  ****             return;
 572              		.loc 1 110 13 is_stmt 1
 573              	.L26:
 574              	.LBE12:
 111:src/main.cpp  ****         }
 112:src/main.cpp  **** 
 113:src/main.cpp  ****     }
 114:src/main.cpp  **** 
 115:src/main.cpp  ****     for(int i = 0 ; i < num;i+=2)
 116:src/main.cpp  ****     {
 117:src/main.cpp  ****         int retval = mem_free(addrs[i]);
 118:src/main.cpp  ****         if(retval != 0)
 119:src/main.cpp  ****         {
 120:src/main.cpp  ****             Riscv::printString("not OK\n");
 121:src/main.cpp  ****             return;
 122:src/main.cpp  ****         }
 123:src/main.cpp  ****     }
 124:src/main.cpp  **** 
 125:src/main.cpp  ****     for(int i = 0 ; i < num;i+=2)
 126:src/main.cpp  ****     {
 127:src/main.cpp  ****         addrs[i] = mem_alloc(20);
 128:src/main.cpp  ****         if(addrs[i] == 0)
 129:src/main.cpp  ****         {
 130:src/main.cpp  ****             Riscv::printString("not OK\n");
 131:src/main.cpp  ****             return;
 132:src/main.cpp  ****         }
 133:src/main.cpp  ****     }
 134:src/main.cpp  **** 
 135:src/main.cpp  ****     for(int i = 0; i < num;i++)
 136:src/main.cpp  ****     {
 137:src/main.cpp  ****         int retval = mem_free(addrs[i]);
 138:src/main.cpp  ****         if(retval != 0)
 139:src/main.cpp  ****         {
 140:src/main.cpp  ****             Riscv::printString("not OK\n");
 141:src/main.cpp  ****             return;
 142:src/main.cpp  ****         }
 143:src/main.cpp  ****     }
 144:src/main.cpp  **** 
 145:src/main.cpp  ****     Riscv::printString("OK\n");
 146:src/main.cpp  **** }
 575              		.loc 1 146 1 is_stmt 0
 576 035c 83308133 		ld	ra,824(sp)
 577              		.cfi_remember_state
 578              		.cfi_restore 1
 579 0360 03340133 		ld	s0,816(sp)
 580              		.cfi_restore 8
 581              		.cfi_def_cfa 2, 832
 582 0364 83348132 		ld	s1,808(sp)
 583              		.cfi_restore 9
GAS LISTING /tmp/ccljVnGl.s 			page 16


 584 0368 13010134 		addi	sp,sp,832
 585              		.cfi_def_cfa_offset 0
 586 036c 67800000 		jr	ra
 587              	.LVL59:
 588              	.L38:
 589              		.cfi_restore_state
 590              	.LBB13:
 115:src/main.cpp  ****     {
 591              		.loc 1 115 13
 592 0370 93040000 		li	s1,0
 593              	.LVL60:
 594              	.L27:
 115:src/main.cpp  ****     {
 595              		.loc 1 115 23 is_stmt 1 discriminator 1
 596 0374 93073006 		li	a5,99
 597 0378 63CE9702 		bgt	s1,a5,.L39
 598              	.LBB14:
 117:src/main.cpp  ****         if(retval != 0)
 599              		.loc 1 117 9
 117:src/main.cpp  ****         if(retval != 0)
 600              		.loc 1 117 30 is_stmt 0
 601 037c 93973400 		slli	a5,s1,3
 602 0380 130704FE 		addi	a4,s0,-32
 603 0384 B307F700 		add	a5,a4,a5
 604 0388 03B507CE 		ld	a0,-800(a5)
 605 038c 97000000 		call	mem_free@plt
 605      E7800000 
 606              	.LVL61:
 118:src/main.cpp  ****         {
 607              		.loc 1 118 9 is_stmt 1
 608 0394 63160500 		bnez	a0,.L42
 609              	.LBE14:
 115:src/main.cpp  ****     {
 610              		.loc 1 115 5 discriminator 2
 115:src/main.cpp  ****     {
 611              		.loc 1 115 30 is_stmt 0 discriminator 2
 612 0398 9B842400 		addiw	s1,s1,2
 613              	.LVL62:
 115:src/main.cpp  ****     {
 614              		.loc 1 115 5 discriminator 2
 615 039c 6FF09FFD 		j	.L27
 616              	.LVL63:
 617              	.L42:
 618              	.LBB15:
 120:src/main.cpp  ****             return;
 619              		.loc 1 120 13 is_stmt 1
 120:src/main.cpp  ****             return;
 620              		.loc 1 120 31 is_stmt 0
 621 03a0 17050000 		lla	a0,.LC7
 621      13050500 
 622              	.LVL64:
 623 03a8 97000000 		call	_ZN5Riscv11printStringEPKc@plt
 623      E7800000 
 624              	.LVL65:
 121:src/main.cpp  ****         }
 625              		.loc 1 121 13 is_stmt 1
 626 03b0 6FF0DFFA 		j	.L26
GAS LISTING /tmp/ccljVnGl.s 			page 17


 627              	.L39:
 628              	.LBE15:
 629              	.LBE13:
 630              	.LBB16:
 125:src/main.cpp  ****     {
 631              		.loc 1 125 13 is_stmt 0
 632 03b4 93040000 		li	s1,0
 633              	.LVL66:
 634 03b8 6F008000 		j	.L31
 635              	.LVL67:
 636              	.L34:
 125:src/main.cpp  ****     {
 637              		.loc 1 125 5 is_stmt 1 discriminator 2
 125:src/main.cpp  ****     {
 638              		.loc 1 125 30 is_stmt 0 discriminator 2
 639 03bc 9B842400 		addiw	s1,s1,2
 640              	.LVL68:
 641              	.L31:
 125:src/main.cpp  ****     {
 642              		.loc 1 125 23 is_stmt 1 discriminator 1
 643 03c0 93073006 		li	a5,99
 644 03c4 63CC9702 		bgt	s1,a5,.L40
 127:src/main.cpp  ****         if(addrs[i] == 0)
 645              		.loc 1 127 9
 127:src/main.cpp  ****         if(addrs[i] == 0)
 646              		.loc 1 127 29 is_stmt 0
 647 03c8 13054001 		li	a0,20
 648 03cc 97000000 		call	mem_alloc@plt
 648      E7800000 
 649              	.LVL69:
 127:src/main.cpp  ****         if(addrs[i] == 0)
 650              		.loc 1 127 18
 651 03d4 93973400 		slli	a5,s1,3
 652 03d8 130704FE 		addi	a4,s0,-32
 653 03dc B307F700 		add	a5,a4,a5
 654 03e0 23B0A7CE 		sd	a0,-800(a5)
 128:src/main.cpp  ****         {
 655              		.loc 1 128 9 is_stmt 1
 656 03e4 E31C05FC 		bnez	a0,.L34
 130:src/main.cpp  ****             return;
 657              		.loc 1 130 13
 130:src/main.cpp  ****             return;
 658              		.loc 1 130 31 is_stmt 0
 659 03e8 17050000 		lla	a0,.LC7
 659      13050500 
 660 03f0 97000000 		call	_ZN5Riscv11printStringEPKc@plt
 660      E7800000 
 661              	.LVL70:
 131:src/main.cpp  ****         }
 662              		.loc 1 131 13 is_stmt 1
 663 03f8 6FF05FF6 		j	.L26
 664              	.L40:
 665              	.LBE16:
 666              	.LBB17:
 135:src/main.cpp  ****     {
 667              		.loc 1 135 13 is_stmt 0
 668 03fc 93040000 		li	s1,0
GAS LISTING /tmp/ccljVnGl.s 			page 18


 669              	.LVL71:
 670              	.L33:
 135:src/main.cpp  ****     {
 671              		.loc 1 135 22 is_stmt 1 discriminator 1
 672 0400 93073006 		li	a5,99
 673 0404 63CE9702 		bgt	s1,a5,.L35
 674              	.LBB18:
 137:src/main.cpp  ****         if(retval != 0)
 675              		.loc 1 137 9
 137:src/main.cpp  ****         if(retval != 0)
 676              		.loc 1 137 30 is_stmt 0
 677 0408 93973400 		slli	a5,s1,3
 678 040c 130704FE 		addi	a4,s0,-32
 679 0410 B307F700 		add	a5,a4,a5
 680 0414 03B507CE 		ld	a0,-800(a5)
 681 0418 97000000 		call	mem_free@plt
 681      E7800000 
 682              	.LVL72:
 138:src/main.cpp  ****         {
 683              		.loc 1 138 9 is_stmt 1
 684 0420 63160500 		bnez	a0,.L43
 685              	.LBE18:
 135:src/main.cpp  ****     {
 686              		.loc 1 135 5 discriminator 2
 687 0424 9B841400 		addiw	s1,s1,1
 688              	.LVL73:
 689 0428 6FF09FFD 		j	.L33
 690              	.LVL74:
 691              	.L43:
 692              	.LBB19:
 140:src/main.cpp  ****             return;
 693              		.loc 1 140 13
 140:src/main.cpp  ****             return;
 694              		.loc 1 140 31 is_stmt 0
 695 042c 17050000 		lla	a0,.LC7
 695      13050500 
 696              	.LVL75:
 697 0434 97000000 		call	_ZN5Riscv11printStringEPKc@plt
 697      E7800000 
 698              	.LVL76:
 141:src/main.cpp  ****         }
 699              		.loc 1 141 13 is_stmt 1
 700 043c 6FF01FF2 		j	.L26
 701              	.L35:
 702              	.LBE19:
 703              	.LBE17:
 145:src/main.cpp  **** }
 704              		.loc 1 145 5
 145:src/main.cpp  **** }
 705              		.loc 1 145 23 is_stmt 0
 706 0440 17050000 		lla	a0,.LC8
 706      13050500 
 707 0448 97000000 		call	_ZN5Riscv11printStringEPKc@plt
 707      E7800000 
 708              	.LVL77:
 709 0450 6FF0DFF0 		j	.L26
 710              		.cfi_endproc
GAS LISTING /tmp/ccljVnGl.s 			page 19


 711              	.LFE24:
 713              		.section	.rodata.str1.8
 714 006c 00000000 		.align	3
 715              	.LC9:
 716 0070 6269674D 		.string	"bigMalloc\n"
 716      616C6C6F 
 716      630A00
 717              		.text
 718              		.align	2
 719              		.globl	_Z9bigMallocv
 721              	_Z9bigMallocv:
 722              	.LFB25:
 147:src/main.cpp  **** void bigMalloc()
 148:src/main.cpp  **** {
 723              		.loc 1 148 1 is_stmt 1
 724              		.cfi_startproc
 725 0454 130101FF 		addi	sp,sp,-16
 726              		.cfi_def_cfa_offset 16
 727 0458 23341100 		sd	ra,8(sp)
 728 045c 23308100 		sd	s0,0(sp)
 729              		.cfi_offset 1, -8
 730              		.cfi_offset 8, -16
 731 0460 13040101 		addi	s0,sp,16
 732              		.cfi_def_cfa 8, 0
 149:src/main.cpp  ****     Riscv::printString("bigMalloc\n");
 733              		.loc 1 149 5
 734              		.loc 1 149 23 is_stmt 0
 735 0464 17050000 		lla	a0,.LC9
 735      13050500 
 736 046c 97000000 		call	_ZN5Riscv11printStringEPKc@plt
 736      E7800000 
 737              	.LVL78:
 150:src/main.cpp  ****     uint64 x = (uint64)HEAP_END_ADDR - (uint64)HEAP_START_ADDR + 100UL;
 738              		.loc 1 150 5 is_stmt 1
 739              		.loc 1 150 38 is_stmt 0
 740 0474 97070000 		la	a5,HEAP_END_ADDR
 740      83B70700 
 741 047c 03B50700 		ld	a0,0(a5)
 742 0480 97070000 		la	a5,HEAP_START_ADDR
 742      83B70700 
 743 0488 83B70700 		ld	a5,0(a5)
 744 048c 3305F540 		sub	a0,a0,a5
 745              	.LVL79:
 151:src/main.cpp  ****     void* p = mem_alloc(x);
 746              		.loc 1 151 5 is_stmt 1
 747              		.loc 1 151 24 is_stmt 0
 748 0490 13054506 		addi	a0,a0,100
 749              	.LVL80:
 750 0494 97000000 		call	mem_alloc@plt
 750      E7800000 
 751              	.LVL81:
 152:src/main.cpp  ****     if(p == 0)
 752              		.loc 1 152 5 is_stmt 1
 753 049c 63020502 		beqz	a0,.L48
 153:src/main.cpp  ****         Riscv::printString("OK\n");
 154:src/main.cpp  ****     else
 155:src/main.cpp  ****         Riscv::printString("not OK\n");
GAS LISTING /tmp/ccljVnGl.s 			page 20


 754              		.loc 1 155 9
 755              		.loc 1 155 27 is_stmt 0
 756 04a0 17050000 		lla	a0,.LC7
 756      13050500 
 757              	.LVL82:
 758 04a8 97000000 		call	_ZN5Riscv11printStringEPKc@plt
 758      E7800000 
 759              	.LVL83:
 760              	.L44:
 156:src/main.cpp  **** }
 761              		.loc 1 156 1
 762 04b0 83308100 		ld	ra,8(sp)
 763              		.cfi_remember_state
 764              		.cfi_restore 1
 765 04b4 03340100 		ld	s0,0(sp)
 766              		.cfi_restore 8
 767              		.cfi_def_cfa 2, 16
 768 04b8 13010101 		addi	sp,sp,16
 769              		.cfi_def_cfa_offset 0
 770 04bc 67800000 		jr	ra
 771              	.LVL84:
 772              	.L48:
 773              		.cfi_restore_state
 153:src/main.cpp  ****         Riscv::printString("OK\n");
 774              		.loc 1 153 9 is_stmt 1
 153:src/main.cpp  ****         Riscv::printString("OK\n");
 775              		.loc 1 153 27 is_stmt 0
 776 04c0 17050000 		lla	a0,.LC8
 776      13050500 
 777              	.LVL85:
 778 04c8 97000000 		call	_ZN5Riscv11printStringEPKc@plt
 778      E7800000 
 779              	.LVL86:
 780 04d0 6FF01FFE 		j	.L44
 781              		.cfi_endproc
 782              	.LFE25:
 784              		.section	.rodata.str1.8
 785 007b 00000000 		.align	3
 785      00
 786              	.LC10:
 787 0080 6C6F744F 		.string	"lotOfSmallMallocs\n"
 787      66536D61 
 787      6C6C4D61 
 787      6C6C6F63 
 787      730A00
 788              		.text
 789              		.align	2
 790              		.globl	_Z17lotOfSmallMallocsv
 792              	_Z17lotOfSmallMallocsv:
 793              	.LFB26:
 157:src/main.cpp  **** 
 158:src/main.cpp  **** void lotOfSmallMallocs()
 159:src/main.cpp  **** {
 794              		.loc 1 159 1 is_stmt 1
 795              		.cfi_startproc
 796 04d4 130101FD 		addi	sp,sp,-48
 797              		.cfi_def_cfa_offset 48
GAS LISTING /tmp/ccljVnGl.s 			page 21


 798 04d8 23341102 		sd	ra,40(sp)
 799 04dc 23308102 		sd	s0,32(sp)
 800 04e0 233C9100 		sd	s1,24(sp)
 801 04e4 23382101 		sd	s2,16(sp)
 802 04e8 23343101 		sd	s3,8(sp)
 803              		.cfi_offset 1, -8
 804              		.cfi_offset 8, -16
 805              		.cfi_offset 9, -24
 806              		.cfi_offset 18, -32
 807              		.cfi_offset 19, -40
 808 04ec 13040103 		addi	s0,sp,48
 809              		.cfi_def_cfa 8, 0
 160:src/main.cpp  ****     Riscv::printString("lotOfSmallMallocs\n");
 810              		.loc 1 160 5
 811              		.loc 1 160 23 is_stmt 0
 812 04f0 17050000 		lla	a0,.LC10
 812      13050500 
 813 04f8 97000000 		call	_ZN5Riscv11printStringEPKc@plt
 813      E7800000 
 814              	.LVL87:
 161:src/main.cpp  ****     uint64 cnt = 0;
 815              		.loc 1 161 5 is_stmt 1
 162:src/main.cpp  ****     uint64 sum = 0;
 816              		.loc 1 162 5
 163:src/main.cpp  ****     uint64 N = 10000UL;
 817              		.loc 1 163 5
 164:src/main.cpp  ****     uint64 X = 10UL;
 818              		.loc 1 164 5
 165:src/main.cpp  ****     for(uint64 i = 0; i < N;i++)
 819              		.loc 1 165 5
 820              	.LBB20:
 821              		.loc 1 165 16 is_stmt 0
 822 0500 93040000 		li	s1,0
 823              	.LBE20:
 162:src/main.cpp  ****     uint64 N = 10000UL;
 824              		.loc 1 162 12
 825 0504 93090000 		li	s3,0
 161:src/main.cpp  ****     uint64 sum = 0;
 826              		.loc 1 161 12
 827 0508 13090000 		li	s2,0
 828 050c 6F008001 		j	.L51
 829              	.LVL88:
 830              	.L55:
 831              	.LBB23:
 832              	.LBB21:
 166:src/main.cpp  ****     {
 167:src/main.cpp  ****         Test* t = (Test*)mem_alloc(sizeof(Test));
 168:src/main.cpp  ****         if(t == 0)
 169:src/main.cpp  ****             break;
 170:src/main.cpp  ****         t->a = X;
 833              		.loc 1 170 9 is_stmt 1 discriminator 2
 834              		.loc 1 170 14 is_stmt 0 discriminator 2
 835 0510 9307A000 		li	a5,10
 836 0514 2330F500 		sd	a5,0(a0)
 171:src/main.cpp  ****         sum+=t->a;
 837              		.loc 1 171 9 is_stmt 1 discriminator 2
 838              		.loc 1 171 12 is_stmt 0 discriminator 2
GAS LISTING /tmp/ccljVnGl.s 			page 22


 839 0518 9389A900 		addi	s3,s3,10
 840              	.LVL89:
 172:src/main.cpp  ****         cnt++;
 841              		.loc 1 172 9 is_stmt 1 discriminator 2
 842              		.loc 1 172 12 is_stmt 0 discriminator 2
 843 051c 13091900 		addi	s2,s2,1
 844              	.LVL90:
 845              	.LBE21:
 165:src/main.cpp  ****     {
 846              		.loc 1 165 5 is_stmt 1 discriminator 2
 847 0520 93841400 		addi	s1,s1,1
 848              	.LVL91:
 849              	.L51:
 165:src/main.cpp  ****     {
 850              		.loc 1 165 25 discriminator 1
 851 0524 B7270000 		li	a5,8192
 852 0528 9387F770 		addi	a5,a5,1807
 853 052c 63EA9700 		bgtu	s1,a5,.L50
 854              	.LBB22:
 167:src/main.cpp  ****         if(t == 0)
 855              		.loc 1 167 9
 167:src/main.cpp  ****         if(t == 0)
 856              		.loc 1 167 35 is_stmt 0
 857 0530 13058000 		li	a0,8
 858 0534 97000000 		call	mem_alloc@plt
 858      E7800000 
 859              	.LVL92:
 168:src/main.cpp  ****             break;
 860              		.loc 1 168 9 is_stmt 1
 861 053c E31A05FC 		bnez	a0,.L55
 862              	.LVL93:
 863              	.L50:
 864              	.LBE22:
 865              	.LBE23:
 173:src/main.cpp  ****     }
 174:src/main.cpp  ****     Riscv::printInteger(cnt);
 866              		.loc 1 174 5
 867              		.loc 1 174 24 is_stmt 0
 868 0540 13050900 		mv	a0,s2
 869 0544 97000000 		call	_ZN5Riscv12printIntegerEm@plt
 869      E7800000 
 870              	.LVL94:
 175:src/main.cpp  ****     Riscv::printString("\n");
 871              		.loc 1 175 5 is_stmt 1
 872              		.loc 1 175 23 is_stmt 0
 873 054c 17050000 		lla	a0,.LC2
 873      13050500 
 874 0554 97000000 		call	_ZN5Riscv11printStringEPKc@plt
 874      E7800000 
 875              	.LVL95:
 176:src/main.cpp  ****     if(sum == X*cnt)
 876              		.loc 1 176 5 is_stmt 1
 877              		.loc 1 176 16 is_stmt 0
 878 055c 93172900 		slli	a5,s2,2
 879 0560 33892701 		add	s2,a5,s2
 880              	.LVL96:
 881 0564 13191900 		slli	s2,s2,1
GAS LISTING /tmp/ccljVnGl.s 			page 23


 882              		.loc 1 176 5
 883 0568 63083903 		beq	s2,s3,.L56
 177:src/main.cpp  ****         Riscv::printString("OK\n");
 178:src/main.cpp  ****     else
 179:src/main.cpp  ****         Riscv::printString("not OK\n");
 884              		.loc 1 179 9 is_stmt 1
 885              		.loc 1 179 27 is_stmt 0
 886 056c 17050000 		lla	a0,.LC7
 886      13050500 
 887 0574 97000000 		call	_ZN5Riscv11printStringEPKc@plt
 887      E7800000 
 888              	.LVL97:
 889              	.L49:
 180:src/main.cpp  **** }
 890              		.loc 1 180 1
 891 057c 83308102 		ld	ra,40(sp)
 892              		.cfi_remember_state
 893              		.cfi_restore 1
 894 0580 03340102 		ld	s0,32(sp)
 895              		.cfi_restore 8
 896              		.cfi_def_cfa 2, 48
 897 0584 83348101 		ld	s1,24(sp)
 898              		.cfi_restore 9
 899              	.LVL98:
 900 0588 03390101 		ld	s2,16(sp)
 901              		.cfi_restore 18
 902 058c 83398100 		ld	s3,8(sp)
 903              		.cfi_restore 19
 904              	.LVL99:
 905 0590 13010103 		addi	sp,sp,48
 906              		.cfi_def_cfa_offset 0
 907 0594 67800000 		jr	ra
 908              	.LVL100:
 909              	.L56:
 910              		.cfi_restore_state
 177:src/main.cpp  ****         Riscv::printString("OK\n");
 911              		.loc 1 177 9 is_stmt 1
 177:src/main.cpp  ****         Riscv::printString("OK\n");
 912              		.loc 1 177 27 is_stmt 0
 913 0598 17050000 		lla	a0,.LC8
 913      13050500 
 914 05a0 97000000 		call	_ZN5Riscv11printStringEPKc@plt
 914      E7800000 
 915              	.LVL101:
 916 05a8 6FF05FFD 		j	.L49
 917              		.cfi_endproc
 918              	.LFE26:
 920              		.section	.rodata.str1.8
 921 0093 00000000 		.align	3
 921      00
 922              	.LC11:
 923 0098 62616446 		.string	"badFree\n"
 923      7265650A 
 923      00
 924              		.text
 925              		.align	2
 926              		.globl	_Z7badFreev
GAS LISTING /tmp/ccljVnGl.s 			page 24


 928              	_Z7badFreev:
 929              	.LFB27:
 181:src/main.cpp  **** void badFree()
 182:src/main.cpp  **** {
 930              		.loc 1 182 1 is_stmt 1
 931              		.cfi_startproc
 932 05ac 130101FF 		addi	sp,sp,-16
 933              		.cfi_def_cfa_offset 16
 934 05b0 23341100 		sd	ra,8(sp)
 935 05b4 23308100 		sd	s0,0(sp)
 936              		.cfi_offset 1, -8
 937              		.cfi_offset 8, -16
 938 05b8 13040101 		addi	s0,sp,16
 939              		.cfi_def_cfa 8, 0
 183:src/main.cpp  ****     Riscv::printString("badFree\n");
 940              		.loc 1 183 5
 941              		.loc 1 183 23 is_stmt 0
 942 05bc 17050000 		lla	a0,.LC11
 942      13050500 
 943 05c4 97000000 		call	_ZN5Riscv11printStringEPKc@plt
 943      E7800000 
 944              	.LVL102:
 184:src/main.cpp  ****     Test* t = (Test*)mem_alloc(sizeof(Test));
 945              		.loc 1 184 5 is_stmt 1
 946              		.loc 1 184 31 is_stmt 0
 947 05cc 13058000 		li	a0,8
 948 05d0 97000000 		call	mem_alloc@plt
 948      E7800000 
 949              	.LVL103:
 185:src/main.cpp  ****     uint64 retval = mem_free((char*)t + 2);
 950              		.loc 1 185 5 is_stmt 1
 951              		.loc 1 185 29 is_stmt 0
 952 05d8 13052500 		addi	a0,a0,2
 953              	.LVL104:
 954 05dc 97000000 		call	mem_free@plt
 954      E7800000 
 955              	.LVL105:
 186:src/main.cpp  ****     if(retval == 0)
 956              		.loc 1 186 5 is_stmt 1
 957 05e4 63120502 		bnez	a0,.L58
 187:src/main.cpp  ****         Riscv::printString("not OK\n");
 958              		.loc 1 187 9
 959              		.loc 1 187 27 is_stmt 0
 960 05e8 17050000 		lla	a0,.LC7
 960      13050500 
 961              	.LVL106:
 962 05f0 97000000 		call	_ZN5Riscv11printStringEPKc@plt
 962      E7800000 
 963              	.LVL107:
 964              	.L57:
 188:src/main.cpp  ****     else
 189:src/main.cpp  ****         Riscv::printString("OK\n");
 190:src/main.cpp  **** }
 965              		.loc 1 190 1
 966 05f8 83308100 		ld	ra,8(sp)
 967              		.cfi_remember_state
 968              		.cfi_restore 1
GAS LISTING /tmp/ccljVnGl.s 			page 25


 969 05fc 03340100 		ld	s0,0(sp)
 970              		.cfi_restore 8
 971              		.cfi_def_cfa 2, 16
 972 0600 13010101 		addi	sp,sp,16
 973              		.cfi_def_cfa_offset 0
 974 0604 67800000 		jr	ra
 975              	.LVL108:
 976              	.L58:
 977              		.cfi_restore_state
 189:src/main.cpp  **** }
 978              		.loc 1 189 9 is_stmt 1
 189:src/main.cpp  **** }
 979              		.loc 1 189 27 is_stmt 0
 980 0608 17050000 		lla	a0,.LC8
 980      13050500 
 981              	.LVL109:
 982 0610 97000000 		call	_ZN5Riscv11printStringEPKc@plt
 982      E7800000 
 983              	.LVL110:
 984              		.loc 1 190 1
 985 0618 6FF01FFE 		j	.L57
 986              		.cfi_endproc
 987              	.LFE27:
 989              		.align	2
 990              		.globl	_Z21memoryAllocationTestsv
 992              	_Z21memoryAllocationTestsv:
 993              	.LFB28:
 191:src/main.cpp  **** 
 192:src/main.cpp  **** void memoryAllocationTests()
 193:src/main.cpp  **** {
 994              		.loc 1 193 1 is_stmt 1
 995              		.cfi_startproc
 996 061c 130101FF 		addi	sp,sp,-16
 997              		.cfi_def_cfa_offset 16
 998 0620 23341100 		sd	ra,8(sp)
 999 0624 23308100 		sd	s0,0(sp)
 1000              		.cfi_offset 1, -8
 1001              		.cfi_offset 8, -16
 1002 0628 13040101 		addi	s0,sp,16
 1003              		.cfi_def_cfa 8, 0
 194:src/main.cpp  ****     //bigMalloc();
 195:src/main.cpp  ****     //lotOfSmallMallocs();
 196:src/main.cpp  ****     //mallocFree();
 197:src/main.cpp  ****     badFree();
 1004              		.loc 1 197 5
 1005              		.loc 1 197 12 is_stmt 0
 1006 062c 97000000 		call	_Z7badFreev
 1006      E7800000 
 1007              	.LVL111:
 198:src/main.cpp  **** }
 1008              		.loc 1 198 1
 1009 0634 83308100 		ld	ra,8(sp)
 1010              		.cfi_restore 1
 1011 0638 03340100 		ld	s0,0(sp)
 1012              		.cfi_restore 8
 1013              		.cfi_def_cfa 2, 16
 1014 063c 13010101 		addi	sp,sp,16
GAS LISTING /tmp/ccljVnGl.s 			page 26


 1015              		.cfi_def_cfa_offset 0
 1016 0640 67800000 		jr	ra
 1017              		.cfi_endproc
 1018              	.LFE28:
 1020              	.Letext0:
 1021              		.file 3 "src/../h/../lib/hw.h"
 1022              		.file 4 "src/../h/Queue.h"
 1023              		.file 5 "src/../h/Scheduler.h"
 1024              		.file 6 "src/../h/Riscv.h"
 1025              		.file 7 "src/../h/syscall_cpp.h"
 1026              		.file 8 "src/../h/syscall_c.h"
 4742              		.align	3
 4745              	DW.ref.__gxx_personality_v0:
 4746 0000 00000000 		.dword	__gxx_personality_v0
 4746      00000000 
 4747              		.ident	"GCC: (Ubuntu 9.3.0-17ubuntu1~20.04) 9.3.0"
 4748              		.section	.note.GNU-stack,"",@progbits
GAS LISTING /tmp/ccljVnGl.s 			page 27


DEFINED SYMBOLS
                            *ABS*:0000000000000000 main.cpp
     /tmp/ccljVnGl.s:20     .text:0000000000000000 _Z15thread1FunctionPv
     /tmp/ccljVnGl.s:24     .text:0000000000000000 .L0 
     /tmp/ccljVnGl.s:26     .text:0000000000000000 .L0 
     /tmp/ccljVnGl.s:27     .text:0000000000000004 .L0 
     /tmp/ccljVnGl.s:31     .text:0000000000000010 .L0 
     /tmp/ccljVnGl.s:32     .text:0000000000000010 .L0 
     /tmp/ccljVnGl.s:33     .text:0000000000000010 .L0 
     /tmp/ccljVnGl.s:35     .text:0000000000000014 .L0 
     /tmp/ccljVnGl.s:37     .text:0000000000000014 .L0 
     /tmp/ccljVnGl.s:38     .text:0000000000000014 .L0 
     /tmp/ccljVnGl.s:44     .text:0000000000000024 .L0 
     /tmp/ccljVnGl.s:45     .text:0000000000000024 .L0 
     /tmp/ccljVnGl.s:50     .text:000000000000002c .L0 
     /tmp/ccljVnGl.s:51     .text:000000000000002c .L0 
     /tmp/ccljVnGl.s:55     .text:000000000000003c .L0 
     /tmp/ccljVnGl.s:56     .text:000000000000003c .L0 
     /tmp/ccljVnGl.s:60     .text:0000000000000048 .L0 
     /tmp/ccljVnGl.s:61     .text:0000000000000048 .L0 
     /tmp/ccljVnGl.s:65     .text:0000000000000058 .L0 
     /tmp/ccljVnGl.s:69     .text:000000000000005c .L0 
     /tmp/ccljVnGl.s:72     .text:0000000000000064 .L0 
     /tmp/ccljVnGl.s:73     .text:0000000000000064 .L0 
     /tmp/ccljVnGl.s:76     .text:000000000000006c .L0 
     /tmp/ccljVnGl.s:79     .text:0000000000000074 .L0 
     /tmp/ccljVnGl.s:80     .text:0000000000000074 .L0 
     /tmp/ccljVnGl.s:82     .text:0000000000000078 .L0 
     /tmp/ccljVnGl.s:84     .text:000000000000007c .L0 
     /tmp/ccljVnGl.s:86     .text:0000000000000080 .L0 
     /tmp/ccljVnGl.s:87     .text:0000000000000080 .L0 
     /tmp/ccljVnGl.s:93     .text:000000000000008c .L0 
     /tmp/ccljVnGl.s:94     .text:000000000000008c .L0 
     /tmp/ccljVnGl.s:97     .text:0000000000000094 .L0 
     /tmp/ccljVnGl.s:98     .text:0000000000000098 .L0 
     /tmp/ccljVnGl.s:100    .text:000000000000009c .L0 
     /tmp/ccljVnGl.s:101    .text:000000000000009c .L0 
     /tmp/ccljVnGl.s:103    .text:00000000000000a0 .L0 
     /tmp/ccljVnGl.s:106    .text:00000000000000a4 .L0 
     /tmp/ccljVnGl.s:108    .text:00000000000000a8 .L0 
     /tmp/ccljVnGl.s:122    .text:00000000000000a8 _Z15thread2FunctionPv
     /tmp/ccljVnGl.s:125    .text:00000000000000a8 .L0 
     /tmp/ccljVnGl.s:127    .text:00000000000000a8 .L0 
     /tmp/ccljVnGl.s:128    .text:00000000000000ac .L0 
     /tmp/ccljVnGl.s:132    .text:00000000000000b8 .L0 
     /tmp/ccljVnGl.s:133    .text:00000000000000b8 .L0 
     /tmp/ccljVnGl.s:134    .text:00000000000000b8 .L0 
     /tmp/ccljVnGl.s:136    .text:00000000000000bc .L0 
     /tmp/ccljVnGl.s:138    .text:00000000000000bc .L0 
     /tmp/ccljVnGl.s:139    .text:00000000000000bc .L0 
     /tmp/ccljVnGl.s:145    .text:00000000000000cc .L0 
     /tmp/ccljVnGl.s:146    .text:00000000000000cc .L0 
     /tmp/ccljVnGl.s:151    .text:00000000000000d4 .L0 
     /tmp/ccljVnGl.s:152    .text:00000000000000d4 .L0 
     /tmp/ccljVnGl.s:156    .text:00000000000000e4 .L0 
     /tmp/ccljVnGl.s:157    .text:00000000000000e4 .L0 
     /tmp/ccljVnGl.s:161    .text:00000000000000f0 .L0 
GAS LISTING /tmp/ccljVnGl.s 			page 28


     /tmp/ccljVnGl.s:162    .text:00000000000000f0 .L0 
     /tmp/ccljVnGl.s:166    .text:0000000000000100 .L0 
     /tmp/ccljVnGl.s:170    .text:0000000000000104 .L0 
     /tmp/ccljVnGl.s:173    .text:000000000000010c .L0 
     /tmp/ccljVnGl.s:174    .text:000000000000010c .L0 
     /tmp/ccljVnGl.s:177    .text:0000000000000114 .L0 
     /tmp/ccljVnGl.s:180    .text:000000000000011c .L0 
     /tmp/ccljVnGl.s:181    .text:000000000000011c .L0 
     /tmp/ccljVnGl.s:184    .text:0000000000000124 .L0 
     /tmp/ccljVnGl.s:186    .text:0000000000000128 .L0 
     /tmp/ccljVnGl.s:188    .text:000000000000012c .L0 
     /tmp/ccljVnGl.s:189    .text:000000000000012c .L0 
     /tmp/ccljVnGl.s:195    .text:0000000000000138 .L0 
     /tmp/ccljVnGl.s:196    .text:0000000000000138 .L0 
     /tmp/ccljVnGl.s:199    .text:0000000000000140 .L0 
     /tmp/ccljVnGl.s:200    .text:0000000000000144 .L0 
     /tmp/ccljVnGl.s:202    .text:0000000000000148 .L0 
     /tmp/ccljVnGl.s:203    .text:0000000000000148 .L0 
     /tmp/ccljVnGl.s:205    .text:000000000000014c .L0 
     /tmp/ccljVnGl.s:208    .text:0000000000000150 .L0 
     /tmp/ccljVnGl.s:210    .text:0000000000000154 .L0 
     /tmp/ccljVnGl.s:216    .text:0000000000000154 _Z9testQueuev
     /tmp/ccljVnGl.s:219    .text:0000000000000154 .L0 
     /tmp/ccljVnGl.s:220    .text:0000000000000154 .L0 
     /tmp/ccljVnGl.s:221    .text:0000000000000158 .L0 
     /tmp/ccljVnGl.s:223    .text:000000000000015c .L0 
     /tmp/ccljVnGl.s:225    .text:0000000000000160 .L0 
     /tmp/ccljVnGl.s:227    .text:0000000000000160 .L0 
     /tmp/ccljVnGl.s:228    .text:0000000000000164 .L0 
     /tmp/ccljVnGl.s:229    .text:0000000000000164 .L0 
     /tmp/ccljVnGl.s:231    .text:0000000000000168 .L0 
     /tmp/ccljVnGl.s:233    .text:000000000000016c .L0 
     /tmp/ccljVnGl.s:244    .text:000000000000016c _Z11threadTestsv
     /tmp/ccljVnGl.s:247    .text:000000000000016c .L0 
     /tmp/ccljVnGl.s:4745   .data.rel.local.DW.ref.__gxx_personality_v0:0000000000000000 DW.ref.__gxx_personality_v0
     /tmp/ccljVnGl.s:250    .text:000000000000016c .L0 
     /tmp/ccljVnGl.s:251    .text:0000000000000170 .L0 
     /tmp/ccljVnGl.s:256    .text:0000000000000180 .L0 
     /tmp/ccljVnGl.s:257    .text:0000000000000180 .L0 
     /tmp/ccljVnGl.s:258    .text:0000000000000180 .L0 
     /tmp/ccljVnGl.s:259    .text:0000000000000180 .L0 
     /tmp/ccljVnGl.s:261    .text:0000000000000184 .L0 
     /tmp/ccljVnGl.s:263    .text:0000000000000184 .L0 
     /tmp/ccljVnGl.s:264    .text:0000000000000184 .L0 
     /tmp/ccljVnGl.s:277    .text:00000000000001a4 .L0 
     /tmp/ccljVnGl.s:278    .text:00000000000001a4 .L0 
     /tmp/ccljVnGl.s:280    .text:00000000000001a8 .L0 
     /tmp/ccljVnGl.s:283    .text:00000000000001b4 .L0 
     /tmp/ccljVnGl.s:284    .text:00000000000001b4 .L0 
     /tmp/ccljVnGl.s:298    .text:00000000000001d8 .L0 
     /tmp/ccljVnGl.s:299    .text:00000000000001d8 .L0 
     /tmp/ccljVnGl.s:304    .text:00000000000001e4 .L0 
     /tmp/ccljVnGl.s:305    .text:00000000000001e4 .L0 
     /tmp/ccljVnGl.s:317    .text:0000000000000208 .L0 
     /tmp/ccljVnGl.s:318    .text:0000000000000208 .L0 
     /tmp/ccljVnGl.s:323    .text:0000000000000214 .L0 
     /tmp/ccljVnGl.s:324    .text:0000000000000214 .L0 
GAS LISTING /tmp/ccljVnGl.s 			page 29


     /tmp/ccljVnGl.s:327    .text:000000000000021c .L0 
     /tmp/ccljVnGl.s:331    .text:0000000000000224 .L0 
     /tmp/ccljVnGl.s:332    .text:0000000000000224 .L0 
     /tmp/ccljVnGl.s:333    .text:0000000000000224 .L0 
     /tmp/ccljVnGl.s:339    .text:0000000000000228 .L0 
     /tmp/ccljVnGl.s:340    .text:0000000000000228 .L0 
     /tmp/ccljVnGl.s:345    .text:000000000000022c .L0 
     /tmp/ccljVnGl.s:347    .text:0000000000000230 .L0 
     /tmp/ccljVnGl.s:352    .text:0000000000000234 .L0 
     /tmp/ccljVnGl.s:353    .text:0000000000000234 .L0 
     /tmp/ccljVnGl.s:358    .text:0000000000000238 .L0 
     /tmp/ccljVnGl.s:360    .text:000000000000023c .L0 
     /tmp/ccljVnGl.s:361    .text:000000000000023c .L0 
     /tmp/ccljVnGl.s:364    .text:0000000000000244 .L0 
     /tmp/ccljVnGl.s:367    .text:0000000000000248 .L0 
     /tmp/ccljVnGl.s:368    .text:0000000000000248 .L0 
     /tmp/ccljVnGl.s:373    .text:0000000000000258 .L0 
     /tmp/ccljVnGl.s:374    .text:000000000000025c .L0 
     /tmp/ccljVnGl.s:375    .text:000000000000025c .L0 
     /tmp/ccljVnGl.s:377    .text:0000000000000260 .L0 
     /tmp/ccljVnGl.s:378    .text:0000000000000260 .L0 
     /tmp/ccljVnGl.s:380    .text:0000000000000264 .L0 
     /tmp/ccljVnGl.s:383    .text:0000000000000268 .L0 
     /tmp/ccljVnGl.s:386    .text:000000000000026c .L0 
     /tmp/ccljVnGl.s:389    .text:0000000000000270 .L0 
     /tmp/ccljVnGl.s:392    .text:0000000000000274 .L0 
     /tmp/ccljVnGl.s:403    .text:0000000000000290 .L0 
     /tmp/ccljVnGl.s:415    .text:00000000000002ac .L0 
     /tmp/ccljVnGl.s:423    .text:00000000000002c4 .L0 
     /tmp/ccljVnGl.s:477    .text:00000000000002c4 main
     /tmp/ccljVnGl.s:480    .text:00000000000002c4 .L0 
     /tmp/ccljVnGl.s:481    .text:00000000000002c4 .L0 
     /tmp/ccljVnGl.s:482    .text:00000000000002c8 .L0 
     /tmp/ccljVnGl.s:485    .text:00000000000002d0 .L0 
     /tmp/ccljVnGl.s:486    .text:00000000000002d0 .L0 
     /tmp/ccljVnGl.s:488    .text:00000000000002d4 .L0 
     /tmp/ccljVnGl.s:490    .text:00000000000002d4 .L0 
     /tmp/ccljVnGl.s:491    .text:00000000000002d4 .L0 
     /tmp/ccljVnGl.s:494    .text:00000000000002dc .L0 
     /tmp/ccljVnGl.s:495    .text:00000000000002dc .L0 
     /tmp/ccljVnGl.s:498    .text:00000000000002e4 .L0 
     /tmp/ccljVnGl.s:499    .text:00000000000002e8 .L0 
     /tmp/ccljVnGl.s:501    .text:00000000000002ec .L0 
     /tmp/ccljVnGl.s:502    .text:00000000000002ec .L0 
     /tmp/ccljVnGl.s:504    .text:00000000000002f0 .L0 
     /tmp/ccljVnGl.s:506    .text:00000000000002f4 .L0 
     /tmp/ccljVnGl.s:523    .text:00000000000002f4 _Z10mallocFreev
     /tmp/ccljVnGl.s:526    .text:00000000000002f4 .L0 
     /tmp/ccljVnGl.s:527    .text:00000000000002f4 .L0 
     /tmp/ccljVnGl.s:528    .text:00000000000002f8 .L0 
     /tmp/ccljVnGl.s:532    .text:0000000000000304 .L0 
     /tmp/ccljVnGl.s:533    .text:0000000000000304 .L0 
     /tmp/ccljVnGl.s:534    .text:0000000000000304 .L0 
     /tmp/ccljVnGl.s:536    .text:0000000000000308 .L0 
     /tmp/ccljVnGl.s:538    .text:0000000000000308 .L0 
     /tmp/ccljVnGl.s:539    .text:0000000000000308 .L0 
     /tmp/ccljVnGl.s:544    .text:0000000000000318 .L0 
GAS LISTING /tmp/ccljVnGl.s 			page 30


     /tmp/ccljVnGl.s:549    .text:0000000000000320 .L0 
     /tmp/ccljVnGl.s:553    .text:0000000000000324 .L0 
     /tmp/ccljVnGl.s:556    .text:000000000000032c .L0 
     /tmp/ccljVnGl.s:557    .text:000000000000032c .L0 
     /tmp/ccljVnGl.s:561    .text:0000000000000338 .L0 
     /tmp/ccljVnGl.s:566    .text:0000000000000348 .L0 
     /tmp/ccljVnGl.s:568    .text:000000000000034c .L0 
     /tmp/ccljVnGl.s:569    .text:000000000000034c .L0 
     /tmp/ccljVnGl.s:575    .text:000000000000035c .L0 
     /tmp/ccljVnGl.s:576    .text:000000000000035c .L0 
     /tmp/ccljVnGl.s:577    .text:0000000000000360 .L0 
     /tmp/ccljVnGl.s:578    .text:0000000000000360 .L0 
     /tmp/ccljVnGl.s:580    .text:0000000000000364 .L0 
     /tmp/ccljVnGl.s:581    .text:0000000000000364 .L0 
     /tmp/ccljVnGl.s:583    .text:0000000000000368 .L0 
     /tmp/ccljVnGl.s:585    .text:000000000000036c .L0 
     /tmp/ccljVnGl.s:589    .text:0000000000000370 .L0 
     /tmp/ccljVnGl.s:592    .text:0000000000000370 .L0 
     /tmp/ccljVnGl.s:596    .text:0000000000000374 .L0 
     /tmp/ccljVnGl.s:600    .text:000000000000037c .L0 
     /tmp/ccljVnGl.s:601    .text:000000000000037c .L0 
     /tmp/ccljVnGl.s:608    .text:0000000000000394 .L0 
     /tmp/ccljVnGl.s:611    .text:0000000000000398 .L0 
     /tmp/ccljVnGl.s:612    .text:0000000000000398 .L0 
     /tmp/ccljVnGl.s:615    .text:000000000000039c .L0 
     /tmp/ccljVnGl.s:620    .text:00000000000003a0 .L0 
     /tmp/ccljVnGl.s:621    .text:00000000000003a0 .L0 
     /tmp/ccljVnGl.s:626    .text:00000000000003b0 .L0 
     /tmp/ccljVnGl.s:632    .text:00000000000003b4 .L0 
     /tmp/ccljVnGl.s:638    .text:00000000000003bc .L0 
     /tmp/ccljVnGl.s:639    .text:00000000000003bc .L0 
     /tmp/ccljVnGl.s:643    .text:00000000000003c0 .L0 
     /tmp/ccljVnGl.s:646    .text:00000000000003c8 .L0 
     /tmp/ccljVnGl.s:647    .text:00000000000003c8 .L0 
     /tmp/ccljVnGl.s:651    .text:00000000000003d4 .L0 
     /tmp/ccljVnGl.s:656    .text:00000000000003e4 .L0 
     /tmp/ccljVnGl.s:658    .text:00000000000003e8 .L0 
     /tmp/ccljVnGl.s:659    .text:00000000000003e8 .L0 
     /tmp/ccljVnGl.s:663    .text:00000000000003f8 .L0 
     /tmp/ccljVnGl.s:668    .text:00000000000003fc .L0 
     /tmp/ccljVnGl.s:672    .text:0000000000000400 .L0 
     /tmp/ccljVnGl.s:676    .text:0000000000000408 .L0 
     /tmp/ccljVnGl.s:677    .text:0000000000000408 .L0 
     /tmp/ccljVnGl.s:684    .text:0000000000000420 .L0 
     /tmp/ccljVnGl.s:687    .text:0000000000000424 .L0 
     /tmp/ccljVnGl.s:694    .text:000000000000042c .L0 
     /tmp/ccljVnGl.s:695    .text:000000000000042c .L0 
     /tmp/ccljVnGl.s:700    .text:000000000000043c .L0 
     /tmp/ccljVnGl.s:705    .text:0000000000000440 .L0 
     /tmp/ccljVnGl.s:706    .text:0000000000000440 .L0 
     /tmp/ccljVnGl.s:710    .text:0000000000000454 .L0 
     /tmp/ccljVnGl.s:721    .text:0000000000000454 _Z9bigMallocv
     /tmp/ccljVnGl.s:724    .text:0000000000000454 .L0 
     /tmp/ccljVnGl.s:725    .text:0000000000000454 .L0 
     /tmp/ccljVnGl.s:726    .text:0000000000000458 .L0 
     /tmp/ccljVnGl.s:729    .text:0000000000000460 .L0 
     /tmp/ccljVnGl.s:730    .text:0000000000000460 .L0 
GAS LISTING /tmp/ccljVnGl.s 			page 31


     /tmp/ccljVnGl.s:732    .text:0000000000000464 .L0 
     /tmp/ccljVnGl.s:734    .text:0000000000000464 .L0 
     /tmp/ccljVnGl.s:735    .text:0000000000000464 .L0 
     /tmp/ccljVnGl.s:739    .text:0000000000000474 .L0 
     /tmp/ccljVnGl.s:740    .text:0000000000000474 .L0 
     /tmp/ccljVnGl.s:747    .text:0000000000000490 .L0 
     /tmp/ccljVnGl.s:748    .text:0000000000000490 .L0 
     /tmp/ccljVnGl.s:753    .text:000000000000049c .L0 
     /tmp/ccljVnGl.s:755    .text:00000000000004a0 .L0 
     /tmp/ccljVnGl.s:756    .text:00000000000004a0 .L0 
     /tmp/ccljVnGl.s:762    .text:00000000000004b0 .L0 
     /tmp/ccljVnGl.s:763    .text:00000000000004b4 .L0 
     /tmp/ccljVnGl.s:764    .text:00000000000004b4 .L0 
     /tmp/ccljVnGl.s:766    .text:00000000000004b8 .L0 
     /tmp/ccljVnGl.s:767    .text:00000000000004b8 .L0 
     /tmp/ccljVnGl.s:769    .text:00000000000004bc .L0 
     /tmp/ccljVnGl.s:773    .text:00000000000004c0 .L0 
     /tmp/ccljVnGl.s:775    .text:00000000000004c0 .L0 
     /tmp/ccljVnGl.s:776    .text:00000000000004c0 .L0 
     /tmp/ccljVnGl.s:781    .text:00000000000004d4 .L0 
     /tmp/ccljVnGl.s:792    .text:00000000000004d4 _Z17lotOfSmallMallocsv
     /tmp/ccljVnGl.s:795    .text:00000000000004d4 .L0 
     /tmp/ccljVnGl.s:796    .text:00000000000004d4 .L0 
     /tmp/ccljVnGl.s:797    .text:00000000000004d8 .L0 
     /tmp/ccljVnGl.s:803    .text:00000000000004ec .L0 
     /tmp/ccljVnGl.s:804    .text:00000000000004ec .L0 
     /tmp/ccljVnGl.s:805    .text:00000000000004ec .L0 
     /tmp/ccljVnGl.s:806    .text:00000000000004ec .L0 
     /tmp/ccljVnGl.s:807    .text:00000000000004ec .L0 
     /tmp/ccljVnGl.s:809    .text:00000000000004f0 .L0 
     /tmp/ccljVnGl.s:811    .text:00000000000004f0 .L0 
     /tmp/ccljVnGl.s:812    .text:00000000000004f0 .L0 
     /tmp/ccljVnGl.s:816    .text:0000000000000500 .L0 
     /tmp/ccljVnGl.s:817    .text:0000000000000500 .L0 
     /tmp/ccljVnGl.s:818    .text:0000000000000500 .L0 
     /tmp/ccljVnGl.s:819    .text:0000000000000500 .L0 
     /tmp/ccljVnGl.s:821    .text:0000000000000500 .L0 
     /tmp/ccljVnGl.s:822    .text:0000000000000500 .L0 
     /tmp/ccljVnGl.s:825    .text:0000000000000504 .L0 
     /tmp/ccljVnGl.s:827    .text:0000000000000508 .L0 
     /tmp/ccljVnGl.s:834    .text:0000000000000510 .L0 
     /tmp/ccljVnGl.s:835    .text:0000000000000510 .L0 
     /tmp/ccljVnGl.s:838    .text:0000000000000518 .L0 
     /tmp/ccljVnGl.s:839    .text:0000000000000518 .L0 
     /tmp/ccljVnGl.s:842    .text:000000000000051c .L0 
     /tmp/ccljVnGl.s:843    .text:000000000000051c .L0 
     /tmp/ccljVnGl.s:847    .text:0000000000000520 .L0 
     /tmp/ccljVnGl.s:851    .text:0000000000000524 .L0 
     /tmp/ccljVnGl.s:856    .text:0000000000000530 .L0 
     /tmp/ccljVnGl.s:857    .text:0000000000000530 .L0 
     /tmp/ccljVnGl.s:861    .text:000000000000053c .L0 
     /tmp/ccljVnGl.s:867    .text:0000000000000540 .L0 
     /tmp/ccljVnGl.s:868    .text:0000000000000540 .L0 
     /tmp/ccljVnGl.s:872    .text:000000000000054c .L0 
     /tmp/ccljVnGl.s:873    .text:000000000000054c .L0 
     /tmp/ccljVnGl.s:877    .text:000000000000055c .L0 
     /tmp/ccljVnGl.s:878    .text:000000000000055c .L0 
GAS LISTING /tmp/ccljVnGl.s 			page 32


     /tmp/ccljVnGl.s:883    .text:0000000000000568 .L0 
     /tmp/ccljVnGl.s:885    .text:000000000000056c .L0 
     /tmp/ccljVnGl.s:886    .text:000000000000056c .L0 
     /tmp/ccljVnGl.s:891    .text:000000000000057c .L0 
     /tmp/ccljVnGl.s:892    .text:0000000000000580 .L0 
     /tmp/ccljVnGl.s:893    .text:0000000000000580 .L0 
     /tmp/ccljVnGl.s:895    .text:0000000000000584 .L0 
     /tmp/ccljVnGl.s:896    .text:0000000000000584 .L0 
     /tmp/ccljVnGl.s:898    .text:0000000000000588 .L0 
     /tmp/ccljVnGl.s:901    .text:000000000000058c .L0 
     /tmp/ccljVnGl.s:903    .text:0000000000000590 .L0 
     /tmp/ccljVnGl.s:906    .text:0000000000000594 .L0 
     /tmp/ccljVnGl.s:910    .text:0000000000000598 .L0 
     /tmp/ccljVnGl.s:912    .text:0000000000000598 .L0 
     /tmp/ccljVnGl.s:913    .text:0000000000000598 .L0 
     /tmp/ccljVnGl.s:917    .text:00000000000005ac .L0 
     /tmp/ccljVnGl.s:928    .text:00000000000005ac _Z7badFreev
     /tmp/ccljVnGl.s:931    .text:00000000000005ac .L0 
     /tmp/ccljVnGl.s:932    .text:00000000000005ac .L0 
     /tmp/ccljVnGl.s:933    .text:00000000000005b0 .L0 
     /tmp/ccljVnGl.s:936    .text:00000000000005b8 .L0 
     /tmp/ccljVnGl.s:937    .text:00000000000005b8 .L0 
     /tmp/ccljVnGl.s:939    .text:00000000000005bc .L0 
     /tmp/ccljVnGl.s:941    .text:00000000000005bc .L0 
     /tmp/ccljVnGl.s:942    .text:00000000000005bc .L0 
     /tmp/ccljVnGl.s:946    .text:00000000000005cc .L0 
     /tmp/ccljVnGl.s:947    .text:00000000000005cc .L0 
     /tmp/ccljVnGl.s:951    .text:00000000000005d8 .L0 
     /tmp/ccljVnGl.s:952    .text:00000000000005d8 .L0 
     /tmp/ccljVnGl.s:957    .text:00000000000005e4 .L0 
     /tmp/ccljVnGl.s:959    .text:00000000000005e8 .L0 
     /tmp/ccljVnGl.s:960    .text:00000000000005e8 .L0 
     /tmp/ccljVnGl.s:966    .text:00000000000005f8 .L0 
     /tmp/ccljVnGl.s:967    .text:00000000000005fc .L0 
     /tmp/ccljVnGl.s:968    .text:00000000000005fc .L0 
     /tmp/ccljVnGl.s:970    .text:0000000000000600 .L0 
     /tmp/ccljVnGl.s:971    .text:0000000000000600 .L0 
     /tmp/ccljVnGl.s:973    .text:0000000000000604 .L0 
     /tmp/ccljVnGl.s:977    .text:0000000000000608 .L0 
     /tmp/ccljVnGl.s:979    .text:0000000000000608 .L0 
     /tmp/ccljVnGl.s:980    .text:0000000000000608 .L0 
     /tmp/ccljVnGl.s:985    .text:0000000000000618 .L0 
     /tmp/ccljVnGl.s:986    .text:000000000000061c .L0 
     /tmp/ccljVnGl.s:992    .text:000000000000061c _Z21memoryAllocationTestsv
     /tmp/ccljVnGl.s:995    .text:000000000000061c .L0 
     /tmp/ccljVnGl.s:996    .text:000000000000061c .L0 
     /tmp/ccljVnGl.s:997    .text:0000000000000620 .L0 
     /tmp/ccljVnGl.s:1000   .text:0000000000000628 .L0 
     /tmp/ccljVnGl.s:1001   .text:0000000000000628 .L0 
     /tmp/ccljVnGl.s:1003   .text:000000000000062c .L0 
     /tmp/ccljVnGl.s:1005   .text:000000000000062c .L0 
     /tmp/ccljVnGl.s:1006   .text:000000000000062c .L0 
     /tmp/ccljVnGl.s:1009   .text:0000000000000634 .L0 
     /tmp/ccljVnGl.s:1010   .text:0000000000000638 .L0 
     /tmp/ccljVnGl.s:1012   .text:000000000000063c .L0 
     /tmp/ccljVnGl.s:1013   .text:000000000000063c .L0 
     /tmp/ccljVnGl.s:1015   .text:0000000000000640 .L0 
GAS LISTING /tmp/ccljVnGl.s 			page 33


     /tmp/ccljVnGl.s:1017   .text:0000000000000644 .L0 
     /tmp/ccljVnGl.s:1027   .text:0000000000000644 .L0 
     /tmp/ccljVnGl.s:8      .rodata.str1.8:0000000000000000 .LC0
     /tmp/ccljVnGl.s:38     .text:0000000000000014 .L0 
     /tmp/ccljVnGl.s:11     .rodata.str1.8:0000000000000018 .LC1
     /tmp/ccljVnGl.s:51     .text:000000000000002c .L0 
     /tmp/ccljVnGl.s:14     .rodata.str1.8:0000000000000020 .LC2
     /tmp/ccljVnGl.s:61     .text:0000000000000048 .L0 
     /tmp/ccljVnGl.s:113    .rodata.str1.8:0000000000000028 .LC3
     /tmp/ccljVnGl.s:139    .text:00000000000000bc .L0 
     /tmp/ccljVnGl.s:116    .rodata.str1.8:0000000000000040 .LC4
     /tmp/ccljVnGl.s:152    .text:00000000000000d4 .L0 
     /tmp/ccljVnGl.s:162    .text:00000000000000f0 .L0 
     /tmp/ccljVnGl.s:280    .text:00000000000001a8 .L0 
     /tmp/ccljVnGl.s:292    .text:00000000000001c8 .L0 
     /tmp/ccljVnGl.s:311    .text:00000000000001f8 .L0 
     /tmp/ccljVnGl.s:238    .rodata.str1.8:0000000000000048 .LC5
     /tmp/ccljVnGl.s:368    .text:0000000000000248 .L0 
     /tmp/ccljVnGl.s:511    .rodata.str1.8:0000000000000050 .LC6
     /tmp/ccljVnGl.s:539    .text:0000000000000308 .L0 
     /tmp/ccljVnGl.s:514    .rodata.str1.8:0000000000000060 .LC7
     /tmp/ccljVnGl.s:569    .text:000000000000034c .L0 
     /tmp/ccljVnGl.s:621    .text:00000000000003a0 .L0 
     /tmp/ccljVnGl.s:659    .text:00000000000003e8 .L0 
     /tmp/ccljVnGl.s:695    .text:000000000000042c .L0 
     /tmp/ccljVnGl.s:517    .rodata.str1.8:0000000000000068 .LC8
     /tmp/ccljVnGl.s:706    .text:0000000000000440 .L0 
     /tmp/ccljVnGl.s:715    .rodata.str1.8:0000000000000070 .LC9
     /tmp/ccljVnGl.s:735    .text:0000000000000464 .L0 
     /tmp/ccljVnGl.s:740    .text:0000000000000474 .L0 
     /tmp/ccljVnGl.s:742    .text:0000000000000480 .L0 
     /tmp/ccljVnGl.s:756    .text:00000000000004a0 .L0 
     /tmp/ccljVnGl.s:776    .text:00000000000004c0 .L0 
     /tmp/ccljVnGl.s:786    .rodata.str1.8:0000000000000080 .LC10
     /tmp/ccljVnGl.s:812    .text:00000000000004f0 .L0 
     /tmp/ccljVnGl.s:873    .text:000000000000054c .L0 
     /tmp/ccljVnGl.s:886    .text:000000000000056c .L0 
     /tmp/ccljVnGl.s:913    .text:0000000000000598 .L0 
     /tmp/ccljVnGl.s:922    .rodata.str1.8:0000000000000098 .LC11
     /tmp/ccljVnGl.s:942    .text:00000000000005bc .L0 
     /tmp/ccljVnGl.s:960    .text:00000000000005e8 .L0 
     /tmp/ccljVnGl.s:980    .text:0000000000000608 .L0 
     /tmp/ccljVnGl.s:67     .text:000000000000005c .L4
     /tmp/ccljVnGl.s:90     .text:000000000000008c .L2
     /tmp/ccljVnGl.s:48     .text:000000000000002c .L3
     /tmp/ccljVnGl.s:168    .text:0000000000000104 .L9
     /tmp/ccljVnGl.s:192    .text:0000000000000138 .L7
     /tmp/ccljVnGl.s:149    .text:00000000000000d4 .L8
     /tmp/ccljVnGl.s:365    .text:0000000000000248 .L14
     /tmp/ccljVnGl.s:329    .text:0000000000000224 .L15
     /tmp/ccljVnGl.s:551    .text:0000000000000324 .L30
     /tmp/ccljVnGl.s:588    .text:0000000000000370 .L38
     /tmp/ccljVnGl.s:547    .text:0000000000000320 .L28
     /tmp/ccljVnGl.s:627    .text:00000000000003b4 .L39
     /tmp/ccljVnGl.s:617    .text:00000000000003a0 .L42
     /tmp/ccljVnGl.s:594    .text:0000000000000374 .L27
     /tmp/ccljVnGl.s:573    .text:000000000000035c .L26
GAS LISTING /tmp/ccljVnGl.s 			page 34


     /tmp/ccljVnGl.s:641    .text:00000000000003c0 .L31
     /tmp/ccljVnGl.s:664    .text:00000000000003fc .L40
     /tmp/ccljVnGl.s:636    .text:00000000000003bc .L34
     /tmp/ccljVnGl.s:701    .text:0000000000000440 .L35
     /tmp/ccljVnGl.s:691    .text:000000000000042c .L43
     /tmp/ccljVnGl.s:670    .text:0000000000000400 .L33
     /tmp/ccljVnGl.s:772    .text:00000000000004c0 .L48
     /tmp/ccljVnGl.s:760    .text:00000000000004b0 .L44
     /tmp/ccljVnGl.s:849    .text:0000000000000524 .L51
     /tmp/ccljVnGl.s:863    .text:0000000000000540 .L50
     /tmp/ccljVnGl.s:830    .text:0000000000000510 .L55
     /tmp/ccljVnGl.s:909    .text:0000000000000598 .L56
     /tmp/ccljVnGl.s:889    .text:000000000000057c .L49
     /tmp/ccljVnGl.s:976    .text:0000000000000608 .L58
     /tmp/ccljVnGl.s:964    .text:00000000000005f8 .L57
     /tmp/ccljVnGl.s:265    .text:0000000000000188 .LEHB0
     /tmp/ccljVnGl.s:245    .text:000000000000016c .LFB23
     /tmp/ccljVnGl.s:268    .text:0000000000000190 .LEHE0
     /tmp/ccljVnGl.s:272    .text:000000000000019c .LEHB1
     /tmp/ccljVnGl.s:275    .text:00000000000001a4 .LEHE1
     /tmp/ccljVnGl.s:388    .text:0000000000000270 .L19
     /tmp/ccljVnGl.s:285    .text:00000000000001b8 .LEHB2
     /tmp/ccljVnGl.s:288    .text:00000000000001c0 .LEHE2
     /tmp/ccljVnGl.s:293    .text:00000000000001d0 .LEHB3
     /tmp/ccljVnGl.s:296    .text:00000000000001d8 .LEHE3
     /tmp/ccljVnGl.s:400    .text:000000000000028c .L20
     /tmp/ccljVnGl.s:300    .text:00000000000001dc .LEHB4
     /tmp/ccljVnGl.s:308    .text:00000000000001f0 .LEHE4
     /tmp/ccljVnGl.s:312    .text:0000000000000200 .LEHB5
     /tmp/ccljVnGl.s:315    .text:0000000000000208 .LEHE5
     /tmp/ccljVnGl.s:411    .text:00000000000002a8 .L21
     /tmp/ccljVnGl.s:319    .text:000000000000020c .LEHB6
     /tmp/ccljVnGl.s:371    .text:0000000000000258 .LEHE6
     /tmp/ccljVnGl.s:396    .text:0000000000000284 .LEHB7
     /tmp/ccljVnGl.s:399    .text:000000000000028c .LEHE7
     /tmp/ccljVnGl.s:407    .text:00000000000002a0 .LEHB8
     /tmp/ccljVnGl.s:410    .text:00000000000002a8 .LEHE8
     /tmp/ccljVnGl.s:419    .text:00000000000002bc .LEHB9
     /tmp/ccljVnGl.s:422    .text:00000000000002c4 .LEHE9
     /tmp/ccljVnGl.s:3038   .debug_abbrev:0000000000000000 .Ldebug_abbrev0
     /tmp/ccljVnGl.s:4561   .debug_str:0000000000000513 .LASF163
     /tmp/ccljVnGl.s:4471   .debug_str:0000000000000299 .LASF164
     /tmp/ccljVnGl.s:4665   .debug_str:0000000000000877 .LASF165
     /tmp/ccljVnGl.s:5      .text:0000000000000000 .Ltext0
     /tmp/ccljVnGl.s:1020   .text:0000000000000644 .Letext0
     /tmp/ccljVnGl.s:4381   .debug_line:0000000000000000 .Ldebug_line0
     /tmp/ccljVnGl.s:4505   .debug_str:0000000000000387 .LASF0
     /tmp/ccljVnGl.s:4535   .debug_str:0000000000000458 .LASF1
     /tmp/ccljVnGl.s:4613   .debug_str:0000000000000713 .LASF2
     /tmp/ccljVnGl.s:4619   .debug_str:0000000000000749 .LASF4
     /tmp/ccljVnGl.s:4519   .debug_str:00000000000003d6 .LASF3
     /tmp/ccljVnGl.s:4391   .debug_str:0000000000000028 .LASF5
     /tmp/ccljVnGl.s:4593   .debug_str:0000000000000681 .LASF6
     /tmp/ccljVnGl.s:4585   .debug_str:000000000000063c .LASF7
     /tmp/ccljVnGl.s:4527   .debug_str:0000000000000428 .LASF8
     /tmp/ccljVnGl.s:4481   .debug_str:00000000000002ce .LASF9
     /tmp/ccljVnGl.s:4485   .debug_str:00000000000002fa .LASF10
GAS LISTING /tmp/ccljVnGl.s 			page 35


     /tmp/ccljVnGl.s:4429   .debug_str:0000000000000183 .LASF11
     /tmp/ccljVnGl.s:4469   .debug_str:000000000000028a .LASF12
     /tmp/ccljVnGl.s:4437   .debug_str:00000000000001c1 .LASF13
     /tmp/ccljVnGl.s:4427   .debug_str:0000000000000173 .LASF14
     /tmp/ccljVnGl.s:4641   .debug_str:00000000000007ec .LASF15
     /tmp/ccljVnGl.s:4461   .debug_str:000000000000025b .LASF16
     /tmp/ccljVnGl.s:4637   .debug_str:00000000000007cf .LASF17
     /tmp/ccljVnGl.s:4667   .debug_str:000000000000089a .LASF28
     /tmp/ccljVnGl.s:4683   .debug_str:00000000000008ed .LASF20
     /tmp/ccljVnGl.s:4531   .debug_str:000000000000044e .LASF18
     /tmp/ccljVnGl.s:4431   .debug_str:0000000000000192 .LASF19
     /tmp/ccljVnGl.s:4649   .debug_str:0000000000000819 .LASF21
     /tmp/ccljVnGl.s:4545   .debug_str:000000000000049a .LASF22
     /tmp/ccljVnGl.s:4711   .debug_str:00000000000009b8 .LASF33
     /tmp/ccljVnGl.s:4681   .debug_str:00000000000008e7 .LASF24
     /tmp/ccljVnGl.s:4441   .debug_str:00000000000001dd .LASF26
     /tmp/ccljVnGl.s:4507   .debug_str:0000000000000394 .LASF23
     /tmp/ccljVnGl.s:4633   .debug_str:00000000000007ac .LASF29
     /tmp/ccljVnGl.s:4533   .debug_str:0000000000000453 .LASF25
     /tmp/ccljVnGl.s:4605   .debug_str:00000000000006c4 .LASF27
     /tmp/ccljVnGl.s:4457   .debug_str:0000000000000247 .LASF30
     /tmp/ccljVnGl.s:4601   .debug_str:00000000000006a9 .LASF37
     /tmp/ccljVnGl.s:4411   .debug_str:00000000000000ee .LASF39
     /tmp/ccljVnGl.s:4647   .debug_str:0000000000000811 .LASF31
     /tmp/ccljVnGl.s:4497   .debug_str:000000000000034e .LASF32
     /tmp/ccljVnGl.s:4687   .debug_str:0000000000000908 .LASF34
     /tmp/ccljVnGl.s:4579   .debug_str:000000000000061e .LASF166
     /tmp/ccljVnGl.s:4717   .debug_str:00000000000009ed .LASF35
     /tmp/ccljVnGl.s:4659   .debug_str:0000000000000849 .LASF36
     /tmp/ccljVnGl.s:4453   .debug_str:0000000000000236 .LASF68
     /tmp/ccljVnGl.s:4403   .debug_str:0000000000000080 .LASF70
     /tmp/ccljVnGl.s:4539   .debug_str:0000000000000474 .LASF38
     /tmp/ccljVnGl.s:4587   .debug_str:000000000000064f .LASF40
     /tmp/ccljVnGl.s:4655   .debug_str:000000000000082e .LASF44
     /tmp/ccljVnGl.s:4635   .debug_str:00000000000007c1 .LASF41
     /tmp/ccljVnGl.s:4597   .debug_str:0000000000000696 .LASF42
     /tmp/ccljVnGl.s:4449   .debug_str:0000000000000214 .LASF43
     /tmp/ccljVnGl.s:4629   .debug_str:0000000000000780 .LASF45
     /tmp/ccljVnGl.s:4543   .debug_str:000000000000048d .LASF46
     /tmp/ccljVnGl.s:4549   .debug_str:00000000000004a7 .LASF47
     /tmp/ccljVnGl.s:4413   .debug_str:00000000000000fc .LASF48
     /tmp/ccljVnGl.s:4489   .debug_str:0000000000000312 .LASF49
     /tmp/ccljVnGl.s:4571   .debug_str:00000000000005ef .LASF50
     /tmp/ccljVnGl.s:4435   .debug_str:00000000000001aa .LASF51
     /tmp/ccljVnGl.s:4727   .debug_str:0000000000000a3a .LASF52
     /tmp/ccljVnGl.s:4463   .debug_str:0000000000000271 .LASF53
     /tmp/ccljVnGl.s:4387   .debug_str:0000000000000010 .LASF54
     /tmp/ccljVnGl.s:4517   .debug_str:00000000000003c9 .LASF55
     /tmp/ccljVnGl.s:4663   .debug_str:000000000000086d .LASF56
     /tmp/ccljVnGl.s:4443   .debug_str:00000000000001ef .LASF167
     /tmp/ccljVnGl.s:4407   .debug_str:00000000000000ae .LASF168
     /tmp/ccljVnGl.s:4705   .debug_str:000000000000098f .LASF169
     /tmp/ccljVnGl.s:4423   .debug_str:000000000000014e .LASF170
     /tmp/ccljVnGl.s:4385   .debug_str:000000000000000b .LASF57
     /tmp/ccljVnGl.s:4721   .debug_str:0000000000000a07 .LASF58
     /tmp/ccljVnGl.s:4671   .debug_str:00000000000008aa .LASF59
     /tmp/ccljVnGl.s:4653   .debug_str:0000000000000824 .LASF60
GAS LISTING /tmp/ccljVnGl.s 			page 36


     /tmp/ccljVnGl.s:4645   .debug_str:0000000000000808 .LASF61
     /tmp/ccljVnGl.s:4479   .debug_str:00000000000002c4 .LASF62
     /tmp/ccljVnGl.s:4399   .debug_str:000000000000005f .LASF171
     /tmp/ccljVnGl.s:4719   .debug_str:00000000000009f3 .LASF172
     /tmp/ccljVnGl.s:4417   .debug_str:0000000000000116 .LASF63
     /tmp/ccljVnGl.s:4581   .debug_str:0000000000000623 .LASF64
     /tmp/ccljVnGl.s:4625   .debug_str:000000000000076a .LASF65
     /tmp/ccljVnGl.s:4609   .debug_str:00000000000006f0 .LASF81
     /tmp/ccljVnGl.s:4401   .debug_str:0000000000000077 .LASF66
     /tmp/ccljVnGl.s:4397   .debug_str:0000000000000055 .LASF135
     /tmp/ccljVnGl.s:4693   .debug_str:000000000000093c .LASF67
     /tmp/ccljVnGl.s:4567   .debug_str:00000000000005d2 .LASF69
     /tmp/ccljVnGl.s:4555   .debug_str:00000000000004db .LASF71
     /tmp/ccljVnGl.s:4709   .debug_str:00000000000009ac .LASF72
     /tmp/ccljVnGl.s:4405   .debug_str:0000000000000093 .LASF73
     /tmp/ccljVnGl.s:4591   .debug_str:0000000000000674 .LASF74
     /tmp/ccljVnGl.s:4393   .debug_str:000000000000002f .LASF75
     /tmp/ccljVnGl.s:4627   .debug_str:0000000000000772 .LASF76
     /tmp/ccljVnGl.s:4631   .debug_str:0000000000000791 .LASF77
     /tmp/ccljVnGl.s:4509   .debug_str:0000000000000399 .LASF78
     /tmp/ccljVnGl.s:4701   .debug_str:000000000000096d .LASF79
     /tmp/ccljVnGl.s:4537   .debug_str:000000000000046b .LASF80
     /tmp/ccljVnGl.s:4673   .debug_str:00000000000008b2 .LASF82
     /tmp/ccljVnGl.s:4731   .debug_str:0000000000000a56 .LASF83
     /tmp/ccljVnGl.s:4575   .debug_str:0000000000000602 .LASF84
     /tmp/ccljVnGl.s:4599   .debug_str:00000000000006a2 .LASF85
     /tmp/ccljVnGl.s:4421   .debug_str:000000000000013b .LASF86
     /tmp/ccljVnGl.s:4573   .debug_str:00000000000005fb .LASF87
     /tmp/ccljVnGl.s:4529   .debug_str:000000000000043b .LASF88
     /tmp/ccljVnGl.s:4703   .debug_str:0000000000000987 .LASF89
     /tmp/ccljVnGl.s:4661   .debug_str:0000000000000859 .LASF90
     /tmp/ccljVnGl.s:4525   .debug_str:0000000000000420 .LASF91
     /tmp/ccljVnGl.s:4473   .debug_str:00000000000002a6 .LASF92
     /tmp/ccljVnGl.s:4547   .debug_str:000000000000049f .LASF93
     /tmp/ccljVnGl.s:4603   .debug_str:00000000000006b0 .LASF94
     /tmp/ccljVnGl.s:4733   .debug_str:0000000000000a5f .LASF95
     /tmp/ccljVnGl.s:4513   .debug_str:00000000000003ac .LASF96
     /tmp/ccljVnGl.s:4639   .debug_str:00000000000007e5 .LASF97
     /tmp/ccljVnGl.s:4621   .debug_str:0000000000000750 .LASF98
     /tmp/ccljVnGl.s:4623   .debug_str:0000000000000763 .LASF99
     /tmp/ccljVnGl.s:4433   .debug_str:0000000000000197 .LASF100
     /tmp/ccljVnGl.s:4459   .debug_str:0000000000000255 .LASF101
     /tmp/ccljVnGl.s:4499   .debug_str:0000000000000354 .LASF102
     /tmp/ccljVnGl.s:4511   .debug_str:00000000000003a6 .LASF103
     /tmp/ccljVnGl.s:4451   .debug_str:0000000000000224 .LASF104
     /tmp/ccljVnGl.s:4383   .debug_str:0000000000000000 .LASF105
     /tmp/ccljVnGl.s:4617   .debug_str:0000000000000731 .LASF106
     /tmp/ccljVnGl.s:4611   .debug_str:0000000000000708 .LASF107
     /tmp/ccljVnGl.s:4725   .debug_str:0000000000000a22 .LASF108
     /tmp/ccljVnGl.s:4697   .debug_str:0000000000000953 .LASF109
     /tmp/ccljVnGl.s:4707   .debug_str:0000000000000996 .LASF110
     /tmp/ccljVnGl.s:4691   .debug_str:0000000000000932 .LASF111
     /tmp/ccljVnGl.s:4557   .debug_str:00000000000004f3 .LASF112
     /tmp/ccljVnGl.s:4495   .debug_str:0000000000000343 .LASF113
     /tmp/ccljVnGl.s:4503   .debug_str:000000000000036f .LASF114
     /tmp/ccljVnGl.s:4679   .debug_str:00000000000008d8 .LASF115
     /tmp/ccljVnGl.s:4483   .debug_str:00000000000002de .LASF116
GAS LISTING /tmp/ccljVnGl.s 			page 37


     /tmp/ccljVnGl.s:4589   .debug_str:000000000000065f .LASF117
     /tmp/ccljVnGl.s:4523   .debug_str:00000000000003fe .LASF118
     /tmp/ccljVnGl.s:4447   .debug_str:000000000000020d .LASF119
     /tmp/ccljVnGl.s:4389   .debug_str:0000000000000020 .LASF120
     /tmp/ccljVnGl.s:4729   .debug_str:0000000000000a47 .LASF121
     /tmp/ccljVnGl.s:4677   .debug_str:00000000000008cc .LASF122
     /tmp/ccljVnGl.s:4419   .debug_str:0000000000000128 .LASF123
     /tmp/ccljVnGl.s:4565   .debug_str:00000000000005c0 .LASF124
     /tmp/ccljVnGl.s:4493   .debug_str:0000000000000330 .LASF125
     /tmp/ccljVnGl.s:4689   .debug_str:000000000000091f .LASF126
     /tmp/ccljVnGl.s:4425   .debug_str:000000000000015f .LASF127
     /tmp/ccljVnGl.s:4651   .debug_str:000000000000081f .LASF128
     /tmp/ccljVnGl.s:4551   .debug_str:00000000000004bf .LASF129
     /tmp/ccljVnGl.s:4491   .debug_str:0000000000000329 .LASF130
     /tmp/ccljVnGl.s:4737   .debug_str:0000000000000a76 .LASF131
     /tmp/ccljVnGl.s:4541   .debug_str:000000000000047a .LASF132
     /tmp/ccljVnGl.s:4713   .debug_str:00000000000009c8 .LASF133
     /tmp/ccljVnGl.s:4657   .debug_str:0000000000000836 .LASF134
     /tmp/ccljVnGl.s:4515   .debug_str:00000000000003c0 .LASF136
     /tmp/ccljVnGl.s:4735   .debug_str:0000000000000a67 .LASF137
     /tmp/ccljVnGl.s:4675   .debug_str:00000000000008c7 .LASF138
     /tmp/ccljVnGl.s:4723   .debug_str:0000000000000a0c .LASF139
     /tmp/ccljVnGl.s:4607   .debug_str:00000000000006d5 .LASF140
     /tmp/ccljVnGl.s:993    .text:000000000000061c .LFB28
     /tmp/ccljVnGl.s:1018   .text:0000000000000644 .LFE28
     /tmp/ccljVnGl.s:1007   .text:0000000000000634 .LVL111
     /tmp/ccljVnGl.s:4455   .debug_str:000000000000023f .LASF141
     /tmp/ccljVnGl.s:4395   .debug_str:0000000000000049 .LASF142
     /tmp/ccljVnGl.s:929    .text:00000000000005ac .LFB27
     /tmp/ccljVnGl.s:987    .text:000000000000061c .LFE27
     /tmp/ccljVnGl.s:4078   .debug_loc:0000000000000000 .LLST21
     /tmp/ccljVnGl.s:4465   .debug_str:000000000000027d .LASF143
     /tmp/ccljVnGl.s:4091   .debug_loc:0000000000000038 .LLST22
     /tmp/ccljVnGl.s:944    .text:00000000000005cc .LVL102
     /tmp/ccljVnGl.s:949    .text:00000000000005d8 .LVL103
     /tmp/ccljVnGl.s:955    .text:00000000000005e4 .LVL105
     /tmp/ccljVnGl.s:963    .text:00000000000005f8 .LVL107
     /tmp/ccljVnGl.s:983    .text:0000000000000618 .LVL110
     /tmp/ccljVnGl.s:4569   .debug_str:00000000000005dd .LASF144
     /tmp/ccljVnGl.s:4553   .debug_str:00000000000004c4 .LASF145
     /tmp/ccljVnGl.s:793    .text:00000000000004d4 .LFB26
     /tmp/ccljVnGl.s:918    .text:00000000000005ac .LFE26
     /tmp/ccljVnGl.s:4118   .debug_loc:000000000000007e .LLST17
     /tmp/ccljVnGl.s:4130   .debug_loc:00000000000000b5 .LLST18
     /tmp/ccljVnGl.s:4355   .debug_ranges:0000000000000000 .Ldebug_ranges0
     /tmp/ccljVnGl.s:4146   .debug_loc:00000000000000ff .LLST19
     /tmp/ccljVnGl.s:4162   .debug_loc:0000000000000149 .LLST20
     /tmp/ccljVnGl.s:859    .text:000000000000053c .LVL92
     /tmp/ccljVnGl.s:814    .text:0000000000000500 .LVL87
     /tmp/ccljVnGl.s:870    .text:000000000000054c .LVL94
     /tmp/ccljVnGl.s:875    .text:000000000000055c .LVL95
     /tmp/ccljVnGl.s:888    .text:000000000000057c .LVL97
     /tmp/ccljVnGl.s:915    .text:00000000000005a8 .LVL101
     /tmp/ccljVnGl.s:4669   .debug_str:00000000000008a0 .LASF146
     /tmp/ccljVnGl.s:4595   .debug_str:0000000000000688 .LASF147
     /tmp/ccljVnGl.s:722    .text:0000000000000454 .LFB25
     /tmp/ccljVnGl.s:782    .text:00000000000004d4 .LFE25
GAS LISTING /tmp/ccljVnGl.s 			page 38


     /tmp/ccljVnGl.s:4173   .debug_loc:000000000000017f .LLST15
     /tmp/ccljVnGl.s:4186   .debug_loc:00000000000001b8 .LLST16
     /tmp/ccljVnGl.s:737    .text:0000000000000474 .LVL78
     /tmp/ccljVnGl.s:751    .text:000000000000049c .LVL81
     /tmp/ccljVnGl.s:759    .text:00000000000004b0 .LVL83
     /tmp/ccljVnGl.s:779    .text:00000000000004d0 .LVL86
     /tmp/ccljVnGl.s:4563   .debug_str:00000000000005b5 .LASF148
     /tmp/ccljVnGl.s:4445   .debug_str:00000000000001fd .LASF149
     /tmp/ccljVnGl.s:524    .text:00000000000002f4 .LFB24
     /tmp/ccljVnGl.s:711    .text:0000000000000454 .LFE24
     /tmp/ccljVnGl.s:4583   .debug_str:0000000000000636 .LASF150
     /tmp/ccljVnGl.s:542    .text:0000000000000318 .LBB12
     /tmp/ccljVnGl.s:574    .text:000000000000035c .LBE12
     /tmp/ccljVnGl.s:4197   .debug_loc:00000000000001ee .LLST9
     /tmp/ccljVnGl.s:559    .text:0000000000000338 .LVL57
     /tmp/ccljVnGl.s:571    .text:000000000000035c .LVL58
     /tmp/ccljVnGl.s:590    .text:0000000000000370 .LBB13
     /tmp/ccljVnGl.s:629    .text:00000000000003b4 .LBE13
     /tmp/ccljVnGl.s:4208   .debug_loc:0000000000000224 .LLST10
     /tmp/ccljVnGl.s:4219   .debug_loc:000000000000025a .LLST11
     /tmp/ccljVnGl.s:606    .text:0000000000000394 .LVL61
     /tmp/ccljVnGl.s:624    .text:00000000000003b0 .LVL65
     /tmp/ccljVnGl.s:630    .text:00000000000003b4 .LBB16
     /tmp/ccljVnGl.s:665    .text:00000000000003fc .LBE16
     /tmp/ccljVnGl.s:4226   .debug_loc:000000000000027d .LLST12
     /tmp/ccljVnGl.s:649    .text:00000000000003d4 .LVL69
     /tmp/ccljVnGl.s:661    .text:00000000000003f8 .LVL70
     /tmp/ccljVnGl.s:666    .text:00000000000003fc .LBB17
     /tmp/ccljVnGl.s:703    .text:0000000000000440 .LBE17
     /tmp/ccljVnGl.s:4233   .debug_loc:00000000000002a0 .LLST13
     /tmp/ccljVnGl.s:4244   .debug_loc:00000000000002d6 .LLST14
     /tmp/ccljVnGl.s:682    .text:0000000000000420 .LVL72
     /tmp/ccljVnGl.s:698    .text:000000000000043c .LVL76
     /tmp/ccljVnGl.s:541    .text:0000000000000318 .LVL54
     /tmp/ccljVnGl.s:708    .text:0000000000000450 .LVL77
     /tmp/ccljVnGl.s:4439   .debug_str:00000000000001d1 .LASF151
     /tmp/ccljVnGl.s:4695   .debug_str:0000000000000942 .LASF152
     /tmp/ccljVnGl.s:424    .text:00000000000002c4 .LFE23
     /tmp/ccljVnGl.s:4251   .debug_loc:00000000000002f9 .LLST4
     /tmp/ccljVnGl.s:4258   .debug_loc:000000000000031c .LLST5
     /tmp/ccljVnGl.s:4269   .debug_loc:0000000000000352 .LLST6
     /tmp/ccljVnGl.s:335    .text:0000000000000228 .LBB8
     /tmp/ccljVnGl.s:343    .text:000000000000022c .LBE8
     /tmp/ccljVnGl.s:4276   .debug_loc:0000000000000375 .LLST7
     /tmp/ccljVnGl.s:349    .text:0000000000000234 .LBB10
     /tmp/ccljVnGl.s:356    .text:0000000000000238 .LBE10
     /tmp/ccljVnGl.s:4283   .debug_loc:0000000000000398 .LLST8
     /tmp/ccljVnGl.s:267    .text:0000000000000190 .LVL26
     /tmp/ccljVnGl.s:274    .text:00000000000001a4 .LVL27
     /tmp/ccljVnGl.s:287    .text:00000000000001c0 .LVL28
     /tmp/ccljVnGl.s:295    .text:00000000000001d8 .LVL30
     /tmp/ccljVnGl.s:302    .text:00000000000001e4 .LVL31
     /tmp/ccljVnGl.s:307    .text:00000000000001f0 .LVL32
     /tmp/ccljVnGl.s:314    .text:0000000000000208 .LVL33
     /tmp/ccljVnGl.s:321    .text:0000000000000214 .LVL34
     /tmp/ccljVnGl.s:325    .text:000000000000021c .LVL35
     /tmp/ccljVnGl.s:328    .text:0000000000000224 .LVL36
GAS LISTING /tmp/ccljVnGl.s 			page 39


     /tmp/ccljVnGl.s:362    .text:0000000000000244 .LVL41
     /tmp/ccljVnGl.s:370    .text:0000000000000258 .LVL42
     /tmp/ccljVnGl.s:394    .text:0000000000000280 .LVL45
     /tmp/ccljVnGl.s:398    .text:000000000000028c .LVL46
     /tmp/ccljVnGl.s:405    .text:000000000000029c .LVL47
     /tmp/ccljVnGl.s:409    .text:00000000000002a8 .LVL48
     /tmp/ccljVnGl.s:417    .text:00000000000002b8 .LVL50
     /tmp/ccljVnGl.s:421    .text:00000000000002c4 .LVL51
     /tmp/ccljVnGl.s:4615   .debug_str:0000000000000721 .LASF153
     /tmp/ccljVnGl.s:4685   .debug_str:00000000000008f2 .LASF154
     /tmp/ccljVnGl.s:123    .text:00000000000000a8 .LFB22
     /tmp/ccljVnGl.s:211    .text:0000000000000154 .LFE22
     /tmp/ccljVnGl.s:4290   .debug_loc:00000000000003bb .LLST2
     /tmp/ccljVnGl.s:144    .text:00000000000000cc .LBB7
     /tmp/ccljVnGl.s:193    .text:0000000000000138 .LBE7
     /tmp/ccljVnGl.s:4304   .debug_loc:00000000000003f4 .LLST3
     /tmp/ccljVnGl.s:154    .text:00000000000000e4 .LVL17
     /tmp/ccljVnGl.s:159    .text:00000000000000f0 .LVL18
     /tmp/ccljVnGl.s:164    .text:0000000000000100 .LVL19
     /tmp/ccljVnGl.s:175    .text:0000000000000114 .LVL21
     /tmp/ccljVnGl.s:178    .text:000000000000011c .LVL22
     /tmp/ccljVnGl.s:190    .text:0000000000000134 .LVL23
     /tmp/ccljVnGl.s:142    .text:00000000000000cc .LVL15
     /tmp/ccljVnGl.s:197    .text:0000000000000140 .LVL24
     /tmp/ccljVnGl.s:4699   .debug_str:000000000000095d .LASF155
     /tmp/ccljVnGl.s:4521   .debug_str:00000000000003e8 .LASF156
     /tmp/ccljVnGl.s:21     .text:0000000000000000 .LFB21
     /tmp/ccljVnGl.s:109    .text:00000000000000a8 .LFE21
     /tmp/ccljVnGl.s:4316   .debug_loc:000000000000042b .LLST0
     /tmp/ccljVnGl.s:43     .text:0000000000000024 .LBB6
     /tmp/ccljVnGl.s:91     .text:000000000000008c .LBE6
     /tmp/ccljVnGl.s:4330   .debug_loc:0000000000000464 .LLST1
     /tmp/ccljVnGl.s:53     .text:000000000000003c .LVL4
     /tmp/ccljVnGl.s:58     .text:0000000000000048 .LVL5
     /tmp/ccljVnGl.s:63     .text:0000000000000058 .LVL6
     /tmp/ccljVnGl.s:74     .text:000000000000006c .LVL8
     /tmp/ccljVnGl.s:77     .text:0000000000000074 .LVL9
     /tmp/ccljVnGl.s:88     .text:0000000000000088 .LVL10
     /tmp/ccljVnGl.s:41     .text:0000000000000024 .LVL2
     /tmp/ccljVnGl.s:95     .text:0000000000000094 .LVL11
     /tmp/ccljVnGl.s:4487   .debug_str:0000000000000308 .LASF173
     /tmp/ccljVnGl.s:4415   .debug_str:0000000000000108 .LASF174
     /tmp/ccljVnGl.s:217    .text:0000000000000154 .LFB20
     /tmp/ccljVnGl.s:234    .text:000000000000016c .LFE20
     /tmp/ccljVnGl.s:4477   .debug_str:00000000000002bf .LASF157
     /tmp/ccljVnGl.s:478    .text:00000000000002c4 .LFB19
     /tmp/ccljVnGl.s:507    .text:00000000000002f4 .LFE19
     /tmp/ccljVnGl.s:492    .text:00000000000002dc .LVL52
     /tmp/ccljVnGl.s:496    .text:00000000000002e4 .LVL53
     /tmp/ccljVnGl.s:4475   .debug_str:00000000000002ba .LASF175
     /tmp/ccljVnGl.s:4559   .debug_str:0000000000000509 .LASF158
     /tmp/ccljVnGl.s:4501   .debug_str:0000000000000366 .LASF159
     /tmp/ccljVnGl.s:4467   .debug_str:0000000000000284 .LASF160
     /tmp/ccljVnGl.s:4643   .debug_str:00000000000007f8 .LASF161
     /tmp/ccljVnGl.s:4577   .debug_str:0000000000000617 .LASF162
     /tmp/ccljVnGl.s:4715   .debug_str:00000000000009de .LASF176
     /tmp/ccljVnGl.s:4409   .debug_str:00000000000000d6 .LASF177
GAS LISTING /tmp/ccljVnGl.s 			page 40


     /tmp/ccljVnGl.s:953    .text:00000000000005dc .LVL104
     /tmp/ccljVnGl.s:961    .text:00000000000005f0 .LVL106
     /tmp/ccljVnGl.s:975    .text:0000000000000608 .LVL108
     /tmp/ccljVnGl.s:981    .text:0000000000000610 .LVL109
     /tmp/ccljVnGl.s:829    .text:0000000000000510 .LVL88
     /tmp/ccljVnGl.s:880    .text:0000000000000564 .LVL96
     /tmp/ccljVnGl.s:904    .text:0000000000000590 .LVL99
     /tmp/ccljVnGl.s:908    .text:0000000000000598 .LVL100
     /tmp/ccljVnGl.s:899    .text:0000000000000588 .LVL98
     /tmp/ccljVnGl.s:848    .text:0000000000000524 .LVL91
     /tmp/ccljVnGl.s:862    .text:0000000000000540 .LVL93
     /tmp/ccljVnGl.s:745    .text:0000000000000490 .LVL79
     /tmp/ccljVnGl.s:749    .text:0000000000000494 .LVL80
     /tmp/ccljVnGl.s:757    .text:00000000000004a8 .LVL82
     /tmp/ccljVnGl.s:771    .text:00000000000004c0 .LVL84
     /tmp/ccljVnGl.s:777    .text:00000000000004c8 .LVL85
     /tmp/ccljVnGl.s:546    .text:0000000000000320 .LVL55
     /tmp/ccljVnGl.s:587    .text:0000000000000370 .LVL59
     /tmp/ccljVnGl.s:593    .text:0000000000000374 .LVL60
     /tmp/ccljVnGl.s:613    .text:000000000000039c .LVL62
     /tmp/ccljVnGl.s:616    .text:00000000000003a0 .LVL63
     /tmp/ccljVnGl.s:633    .text:00000000000003b8 .LVL66
     /tmp/ccljVnGl.s:622    .text:00000000000003a8 .LVL64
     /tmp/ccljVnGl.s:635    .text:00000000000003bc .LVL67
     /tmp/ccljVnGl.s:669    .text:0000000000000400 .LVL71
     /tmp/ccljVnGl.s:688    .text:0000000000000428 .LVL73
     /tmp/ccljVnGl.s:690    .text:000000000000042c .LVL74
     /tmp/ccljVnGl.s:696    .text:0000000000000434 .LVL75
     /tmp/ccljVnGl.s:290    .text:00000000000001c4 .LVL29
     /tmp/ccljVnGl.s:381    .text:0000000000000264 .LVL43
     /tmp/ccljVnGl.s:413    .text:00000000000002ac .LVL49
     /tmp/ccljVnGl.s:384    .text:0000000000000268 .LVL44
     /tmp/ccljVnGl.s:334    .text:0000000000000228 .LVL37
     /tmp/ccljVnGl.s:341    .text:000000000000022c .LVL38
     /tmp/ccljVnGl.s:348    .text:0000000000000234 .LVL39
     /tmp/ccljVnGl.s:354    .text:0000000000000238 .LVL40
     /tmp/ccljVnGl.s:126    .text:00000000000000a8 .LVL13
     /tmp/ccljVnGl.s:140    .text:00000000000000c4 .LVL14
     /tmp/ccljVnGl.s:148    .text:00000000000000d4 .LVL16
     /tmp/ccljVnGl.s:206    .text:000000000000014c .LVL25
     /tmp/ccljVnGl.s:25     .text:0000000000000000 .LVL0
     /tmp/ccljVnGl.s:39     .text:000000000000001c .LVL1
     /tmp/ccljVnGl.s:47     .text:000000000000002c .LVL3
     /tmp/ccljVnGl.s:104    .text:00000000000000a0 .LVL12
     /tmp/ccljVnGl.s:1028   .debug_info:0000000000000000 .Ldebug_info0
     /tmp/ccljVnGl.s:598    .text:000000000000037c .LBB14
     /tmp/ccljVnGl.s:609    .text:0000000000000398 .LBE14
     /tmp/ccljVnGl.s:618    .text:00000000000003a0 .LBB15
     /tmp/ccljVnGl.s:628    .text:00000000000003b4 .LBE15
     /tmp/ccljVnGl.s:674    .text:0000000000000408 .LBB18
     /tmp/ccljVnGl.s:685    .text:0000000000000424 .LBE18
     /tmp/ccljVnGl.s:692    .text:000000000000042c .LBB19
     /tmp/ccljVnGl.s:702    .text:0000000000000440 .LBE19
     /tmp/ccljVnGl.s:820    .text:0000000000000500 .LBB20
     /tmp/ccljVnGl.s:823    .text:0000000000000504 .LBE20
     /tmp/ccljVnGl.s:831    .text:0000000000000510 .LBB23
     /tmp/ccljVnGl.s:865    .text:0000000000000540 .LBE23
GAS LISTING /tmp/ccljVnGl.s 			page 41


     /tmp/ccljVnGl.s:832    .text:0000000000000510 .LBB21
     /tmp/ccljVnGl.s:845    .text:0000000000000520 .LBE21
     /tmp/ccljVnGl.s:854    .text:0000000000000530 .LBB22
     /tmp/ccljVnGl.s:864    .text:0000000000000540 .LBE22
     /tmp/ccljVnGl.s:427    .gcc_except_table:0000000000000000 .LLSDA23

UNDEFINED SYMBOLS
_ZN5Riscv11printStringEPKc
_ZN5Riscv12printIntegerEm
_ZN9Scheduler7getSizeEv
thread_dispatch
_ZN6Thread8dispatchEv
_Znwm
_ZN6ThreadC1EPFvPvES0_
_ZN3PCB7runningE
_ZN9Scheduler3putEP3PCB
_ZdlPv
_Unwind_Resume
__gxx_personality_v0
_ZN5Riscv10initSystemEv
mem_alloc
mem_free
HEAP_END_ADDR
HEAP_START_ADDR
