GAS LISTING /tmp/ccSb9Eig.s 			page 1


   1              		.file	"main.cpp"
   2              		.option pic
   3              		.option norelax
   4              		.text
   5              	.Ltext0:
   6              		.section	.rodata.str1.8,"aMS",@progbits,1
   7              		.align	3
   8              	.LC0:
   9 0000 54687265 		.string	"Thread 1 started...\n"
   9      61642031 
   9      20737461 
   9      72746564 
   9      2E2E2E0A 
  10 0015 000000   		.align	3
  11              	.LC1:
  12 0018 69203A20 		.string	"i : "
  12      00
  13 001d 000000   		.align	3
  14              	.LC2:
  15 0020 0A00     		.string	"\n"
  16              		.text
  17              		.align	2
  18              		.globl	_Z15thread1FunctionPv
  20              	_Z15thread1FunctionPv:
  21              	.LFB21:
  22              		.file 1 "src/main.cpp"
   1:src/main.cpp  **** #include "../h/syscall_cpp.h"
   2:src/main.cpp  **** #include "../lib/console.h"
   3:src/main.cpp  **** #include "../h/Riscv.h"
   4:src/main.cpp  **** 
   5:src/main.cpp  **** class Test
   6:src/main.cpp  **** {
   7:src/main.cpp  **** public:
   8:src/main.cpp  ****     uint64 a;
   9:src/main.cpp  **** };
  10:src/main.cpp  **** 
  11:src/main.cpp  **** //memory (de)allocation tests
  12:src/main.cpp  **** void mallocFree();
  13:src/main.cpp  **** void bigMalloc();
  14:src/main.cpp  **** void lotOfSmallMallocs();
  15:src/main.cpp  **** void badFree();
  16:src/main.cpp  **** void stressTesting();
  17:src/main.cpp  **** void memoryAllocationTests();
  18:src/main.cpp  **** 
  19:src/main.cpp  **** //thread tests
  20:src/main.cpp  **** void thread1Function();
  21:src/main.cpp  **** void thread2Function();
  22:src/main.cpp  **** void threadTests();
  23:src/main.cpp  **** 
  24:src/main.cpp  **** void testQueue();
  25:src/main.cpp  **** 
  26:src/main.cpp  **** void main()
  27:src/main.cpp  **** {
  28:src/main.cpp  ****     Riscv::initSystem();
  29:src/main.cpp  **** 
  30:src/main.cpp  ****     memoryAllocationTests();
  31:src/main.cpp  ****     //threadTests();
GAS LISTING /tmp/ccSb9Eig.s 			page 2


  32:src/main.cpp  ****     //testQueue();
  33:src/main.cpp  **** }
  34:src/main.cpp  **** 
  35:src/main.cpp  **** void testQueue()
  36:src/main.cpp  **** {
  37:src/main.cpp  ****    /* Queue<uint64> q;
  38:src/main.cpp  ****     q.push(1);
  39:src/main.cpp  ****     q.push(2);
  40:src/main.cpp  ****     uint64 x = q.front();
  41:src/main.cpp  ****     q.pop();
  42:src/main.cpp  ****     Riscv::printInteger(x);
  43:src/main.cpp  ****     Riscv::printString("\n");*/
  44:src/main.cpp  **** }
  45:src/main.cpp  **** 
  46:src/main.cpp  **** void thread1Function(void* p)
  47:src/main.cpp  **** {
  23              		.loc 1 47 1
  24              		.cfi_startproc
  25              	.LVL0:
  26 0000 130101FE 		addi	sp,sp,-32
  27              		.cfi_def_cfa_offset 32
  28 0004 233C1100 		sd	ra,24(sp)
  29 0008 23388100 		sd	s0,16(sp)
  30 000c 23349100 		sd	s1,8(sp)
  31              		.cfi_offset 1, -8
  32              		.cfi_offset 8, -16
  33              		.cfi_offset 9, -24
  34 0010 13040102 		addi	s0,sp,32
  35              		.cfi_def_cfa 8, 0
  48:src/main.cpp  ****     Riscv::printString("Thread 1 started...\n");
  36              		.loc 1 48 5
  37              		.loc 1 48 23 is_stmt 0
  38 0014 17050000 		lla	a0,.LC0
  38      13050500 
  39              	.LVL1:
  40 001c 97000000 		call	_ZN5Riscv11printStringEPKc@plt
  40      E7800000 
  41              	.LVL2:
  49:src/main.cpp  ****     for(int i = 0; i < 10;i++)
  42              		.loc 1 49 5 is_stmt 1
  43              	.LBB8:
  44              		.loc 1 49 13 is_stmt 0
  45 0024 93040000 		li	s1,0
  46 0028 6F004003 		j	.L4
  47              	.LVL3:
  48              	.L3:
  50:src/main.cpp  ****     {
  51:src/main.cpp  ****         Riscv::printInteger(Scheduler::getSize());
  52:src/main.cpp  ****         if(i % 4 == 0 && i > 0)
  53:src/main.cpp  ****             thread_dispatch();
  54:src/main.cpp  ****         Riscv::printString("i : ");
  49              		.loc 1 54 9 is_stmt 1 discriminator 2
  50              		.loc 1 54 27 is_stmt 0 discriminator 2
  51 002c 17050000 		lla	a0,.LC1
  51      13050500 
  52 0034 97000000 		call	_ZN5Riscv11printStringEPKc@plt
  52      E7800000 
GAS LISTING /tmp/ccSb9Eig.s 			page 3


  53              	.LVL4:
  55:src/main.cpp  ****         Riscv::printInteger(i);
  54              		.loc 1 55 9 is_stmt 1 discriminator 2
  55              		.loc 1 55 28 is_stmt 0 discriminator 2
  56 003c 13850400 		mv	a0,s1
  57 0040 97000000 		call	_ZN5Riscv12printIntegerEm@plt
  57      E7800000 
  58              	.LVL5:
  56:src/main.cpp  ****         Riscv::printString("\n");
  59              		.loc 1 56 9 is_stmt 1 discriminator 2
  60              		.loc 1 56 27 is_stmt 0 discriminator 2
  61 0048 17050000 		lla	a0,.LC2
  61      13050500 
  62 0050 97000000 		call	_ZN5Riscv11printStringEPKc@plt
  62      E7800000 
  63              	.LVL6:
  49:src/main.cpp  ****     {
  64              		.loc 1 49 5 is_stmt 1 discriminator 2
  65 0058 9B841400 		addiw	s1,s1,1
  66              	.LVL7:
  67              	.L4:
  49:src/main.cpp  ****     {
  68              		.loc 1 49 22 discriminator 1
  69 005c 93079000 		li	a5,9
  70 0060 63C69702 		bgt	s1,a5,.L1
  51:src/main.cpp  ****         if(i % 4 == 0 && i > 0)
  71              		.loc 1 51 9
  51:src/main.cpp  ****         if(i % 4 == 0 && i > 0)
  72              		.loc 1 51 47 is_stmt 0
  73 0064 97000000 		call	_ZN9Scheduler7getSizeEv@plt
  73      E7800000 
  74              	.LVL8:
  51:src/main.cpp  ****         if(i % 4 == 0 && i > 0)
  75              		.loc 1 51 28
  76 006c 97000000 		call	_ZN5Riscv12printIntegerEm@plt
  76      E7800000 
  77              	.LVL9:
  52:src/main.cpp  ****             thread_dispatch();
  78              		.loc 1 52 9 is_stmt 1
  52:src/main.cpp  ****             thread_dispatch();
  79              		.loc 1 52 18 is_stmt 0
  80 0074 93F73400 		andi	a5,s1,3
  52:src/main.cpp  ****             thread_dispatch();
  81              		.loc 1 52 9
  82 0078 E39A07FA 		bnez	a5,.L3
  52:src/main.cpp  ****             thread_dispatch();
  83              		.loc 1 52 23 discriminator 1
  84 007c E35890FA 		blez	s1,.L3
  53:src/main.cpp  ****         Riscv::printString("i : ");
  85              		.loc 1 53 13 is_stmt 1
  53:src/main.cpp  ****         Riscv::printString("i : ");
  86              		.loc 1 53 28 is_stmt 0
  87 0080 97000000 		call	thread_dispatch@plt
  87      E7800000 
  88              	.LVL10:
  89 0088 6FF05FFA 		j	.L3
  90              	.L1:
GAS LISTING /tmp/ccSb9Eig.s 			page 4


  91              	.LBE8:
  57:src/main.cpp  ****     }
  58:src/main.cpp  **** }
  92              		.loc 1 58 1
  93 008c 83308101 		ld	ra,24(sp)
  94              		.cfi_restore 1
  95 0090 03340101 		ld	s0,16(sp)
  96              		.cfi_restore 8
  97              		.cfi_def_cfa 2, 32
  98 0094 83348100 		ld	s1,8(sp)
  99              		.cfi_restore 9
 100              	.LVL11:
 101 0098 13010102 		addi	sp,sp,32
 102              		.cfi_def_cfa_offset 0
 103 009c 67800000 		jr	ra
 104              		.cfi_endproc
 105              	.LFE21:
 107              		.section	.rodata.str1.8
 108 0022 00000000 		.align	3
 108      0000
 109              	.LC3:
 110 0028 54687265 		.string	"Thread 2 started...\n"
 110      61642032 
 110      20737461 
 110      72746564 
 110      2E2E2E0A 
 111 003d 000000   		.align	3
 112              	.LC4:
 113 0040 6A203A20 		.string	"j : "
 113      00
 114              		.text
 115              		.align	2
 116              		.globl	_Z15thread2FunctionPv
 118              	_Z15thread2FunctionPv:
 119              	.LFB22:
  59:src/main.cpp  **** 
  60:src/main.cpp  **** void thread2Function(void* p)
  61:src/main.cpp  **** {
 120              		.loc 1 61 1 is_stmt 1
 121              		.cfi_startproc
 122              	.LVL12:
 123 00a0 130101FE 		addi	sp,sp,-32
 124              		.cfi_def_cfa_offset 32
 125 00a4 233C1100 		sd	ra,24(sp)
 126 00a8 23388100 		sd	s0,16(sp)
 127 00ac 23349100 		sd	s1,8(sp)
 128              		.cfi_offset 1, -8
 129              		.cfi_offset 8, -16
 130              		.cfi_offset 9, -24
 131 00b0 13040102 		addi	s0,sp,32
 132              		.cfi_def_cfa 8, 0
  62:src/main.cpp  ****     Riscv::printString("Thread 2 started...\n");
 133              		.loc 1 62 5
 134              		.loc 1 62 23 is_stmt 0
 135 00b4 17050000 		lla	a0,.LC3
 135      13050500 
 136              	.LVL13:
GAS LISTING /tmp/ccSb9Eig.s 			page 5


 137 00bc 97000000 		call	_ZN5Riscv11printStringEPKc@plt
 137      E7800000 
 138              	.LVL14:
  63:src/main.cpp  ****     for(int j = 0; j < 10;j++)
 139              		.loc 1 63 5 is_stmt 1
 140              	.LBB9:
 141              		.loc 1 63 13 is_stmt 0
 142 00c4 93040000 		li	s1,0
 143 00c8 6F004003 		j	.L9
 144              	.LVL15:
 145              	.L8:
  64:src/main.cpp  ****     {
  65:src/main.cpp  ****         Riscv::printInteger(Scheduler::getSize());
  66:src/main.cpp  ****         if(j % 5 == 0 && j > 0)
  67:src/main.cpp  ****             thread_dispatch();
  68:src/main.cpp  ****         Riscv::printString("j : ");
 146              		.loc 1 68 9 is_stmt 1 discriminator 2
 147              		.loc 1 68 27 is_stmt 0 discriminator 2
 148 00cc 17050000 		lla	a0,.LC4
 148      13050500 
 149 00d4 97000000 		call	_ZN5Riscv11printStringEPKc@plt
 149      E7800000 
 150              	.LVL16:
  69:src/main.cpp  ****         Riscv::printInteger(j);
 151              		.loc 1 69 9 is_stmt 1 discriminator 2
 152              		.loc 1 69 28 is_stmt 0 discriminator 2
 153 00dc 13850400 		mv	a0,s1
 154 00e0 97000000 		call	_ZN5Riscv12printIntegerEm@plt
 154      E7800000 
 155              	.LVL17:
  70:src/main.cpp  ****         Riscv::printString("\n");
 156              		.loc 1 70 9 is_stmt 1 discriminator 2
 157              		.loc 1 70 27 is_stmt 0 discriminator 2
 158 00e8 17050000 		lla	a0,.LC2
 158      13050500 
 159 00f0 97000000 		call	_ZN5Riscv11printStringEPKc@plt
 159      E7800000 
 160              	.LVL18:
  63:src/main.cpp  ****     {
 161              		.loc 1 63 5 is_stmt 1 discriminator 2
 162 00f8 9B841400 		addiw	s1,s1,1
 163              	.LVL19:
 164              	.L9:
  63:src/main.cpp  ****     {
 165              		.loc 1 63 22 discriminator 1
 166 00fc 93079000 		li	a5,9
 167 0100 63C89702 		bgt	s1,a5,.L6
  65:src/main.cpp  ****         if(j % 5 == 0 && j > 0)
 168              		.loc 1 65 9
  65:src/main.cpp  ****         if(j % 5 == 0 && j > 0)
 169              		.loc 1 65 47 is_stmt 0
 170 0104 97000000 		call	_ZN9Scheduler7getSizeEv@plt
 170      E7800000 
 171              	.LVL20:
  65:src/main.cpp  ****         if(j % 5 == 0 && j > 0)
 172              		.loc 1 65 28
 173 010c 97000000 		call	_ZN5Riscv12printIntegerEm@plt
GAS LISTING /tmp/ccSb9Eig.s 			page 6


 173      E7800000 
 174              	.LVL21:
  66:src/main.cpp  ****             thread_dispatch();
 175              		.loc 1 66 9 is_stmt 1
  66:src/main.cpp  ****             thread_dispatch();
 176              		.loc 1 66 14 is_stmt 0
 177 0114 93075000 		li	a5,5
 178 0118 BBE7F402 		remw	a5,s1,a5
  66:src/main.cpp  ****             thread_dispatch();
 179              		.loc 1 66 9
 180 011c E39807FA 		bnez	a5,.L8
  66:src/main.cpp  ****             thread_dispatch();
 181              		.loc 1 66 23 discriminator 1
 182 0120 E35690FA 		blez	s1,.L8
  67:src/main.cpp  ****         Riscv::printString("j : ");
 183              		.loc 1 67 13 is_stmt 1
  67:src/main.cpp  ****         Riscv::printString("j : ");
 184              		.loc 1 67 28 is_stmt 0
 185 0124 97000000 		call	thread_dispatch@plt
 185      E7800000 
 186              	.LVL22:
 187 012c 6FF01FFA 		j	.L8
 188              	.L6:
 189              	.LBE9:
  71:src/main.cpp  ****     }
  72:src/main.cpp  **** }
 190              		.loc 1 72 1
 191 0130 83308101 		ld	ra,24(sp)
 192              		.cfi_restore 1
 193 0134 03340101 		ld	s0,16(sp)
 194              		.cfi_restore 8
 195              		.cfi_def_cfa 2, 32
 196 0138 83348100 		ld	s1,8(sp)
 197              		.cfi_restore 9
 198              	.LVL23:
 199 013c 13010102 		addi	sp,sp,32
 200              		.cfi_def_cfa_offset 0
 201 0140 67800000 		jr	ra
 202              		.cfi_endproc
 203              	.LFE22:
 205              		.align	2
 206              		.globl	_Z9testQueuev
 208              	_Z9testQueuev:
 209              	.LFB20:
  36:src/main.cpp  ****    /* Queue<uint64> q;
 210              		.loc 1 36 1 is_stmt 1
 211              		.cfi_startproc
 212 0144 130101FF 		addi	sp,sp,-16
 213              		.cfi_def_cfa_offset 16
 214 0148 23348100 		sd	s0,8(sp)
 215              		.cfi_offset 8, -8
 216 014c 13040101 		addi	s0,sp,16
 217              		.cfi_def_cfa 8, 0
  44:src/main.cpp  **** 
 218              		.loc 1 44 1 is_stmt 0
 219 0150 03348100 		ld	s0,8(sp)
 220              		.cfi_restore 8
GAS LISTING /tmp/ccSb9Eig.s 			page 7


 221              		.cfi_def_cfa 2, 16
 222 0154 13010101 		addi	sp,sp,16
 223              		.cfi_def_cfa_offset 0
 224 0158 67800000 		jr	ra
 225              		.cfi_endproc
 226              	.LFE20:
 228              		.section	.rodata.str1.8
 229 0045 000000   		.align	3
 230              	.LC5:
 231 0048 456E642E 		.string	"End...\n"
 231      2E2E0A00 
 232              		.text
 233              		.align	2
 234              		.globl	_Z11threadTestsv
 236              	_Z11threadTestsv:
 237              	.LFB23:
  73:src/main.cpp  **** 
  74:src/main.cpp  **** void threadTests()
  75:src/main.cpp  **** {
 238              		.loc 1 75 1 is_stmt 1
 239              		.cfi_startproc
 240              		.cfi_personality 0x9b,DW.ref.__gxx_personality_v0
 241              		.cfi_lsda 0x1b,.LLSDA23
 242 015c 130101FE 		addi	sp,sp,-32
 243              		.cfi_def_cfa_offset 32
 244 0160 233C1100 		sd	ra,24(sp)
 245 0164 23388100 		sd	s0,16(sp)
 246 0168 23349100 		sd	s1,8(sp)
 247 016c 23302101 		sd	s2,0(sp)
 248              		.cfi_offset 1, -8
 249              		.cfi_offset 8, -16
 250              		.cfi_offset 9, -24
 251              		.cfi_offset 18, -32
 252 0170 13040102 		addi	s0,sp,32
 253              		.cfi_def_cfa 8, 0
  76:src/main.cpp  ****     Thread* t = new Thread(0, 0);
 254              		.loc 1 76 5
 255              		.loc 1 76 32 is_stmt 0
 256 0174 13058000 		li	a0,8
 257              	.LEHB0:
 258 0178 97000000 		call	_Znwm@plt
 258      E7800000 
 259              	.LVL24:
 260              	.LEHE0:
 261 0180 93040500 		mv	s1,a0
 262 0184 13060000 		li	a2,0
 263 0188 93050000 		li	a1,0
 264              	.LEHB1:
 265 018c 97000000 		call	_ZN6ThreadC1EPFvPvES0_@plt
 265      E7800000 
 266              	.LVL25:
 267              	.LEHE1:
  77:src/main.cpp  ****     PCB::running = t->myHandle;
 268              		.loc 1 77 5 is_stmt 1 discriminator 2
 269              		.loc 1 77 23 is_stmt 0 discriminator 2
 270 0194 83B70400 		ld	a5,0(s1)
 271              		.loc 1 77 18 discriminator 2
GAS LISTING /tmp/ccSb9Eig.s 			page 8


 272 0198 17070000 		la	a4,_ZN3PCB7runningE
 272      03370700 
 273 01a0 2330F700 		sd	a5,0(a4)
  78:src/main.cpp  ****     PCB::running->setState(PCB::RUNNING);
 274              		.loc 1 78 5 is_stmt 1 discriminator 2
 275              	.LVL26:
 276              	.LBB10:
 277              	.LBB11:
 278              		.file 2 "src/../h/PCB.h"
   1:src/../h/PCB.h **** //
   2:src/../h/PCB.h **** // Created by os on 4/27/22.
   3:src/../h/PCB.h **** //
   4:src/../h/PCB.h **** 
   5:src/../h/PCB.h **** #ifndef PROJECT_BASE_V1_0_PCB_H
   6:src/../h/PCB.h **** #define PROJECT_BASE_V1_0_PCB_H
   7:src/../h/PCB.h **** 
   8:src/../h/PCB.h **** #include "../lib/hw.h"
   9:src/../h/PCB.h **** #include "Scheduler.h"
  10:src/../h/PCB.h **** #include "Riscv.h"
  11:src/../h/PCB.h **** 
  12:src/../h/PCB.h **** class PCB
  13:src/../h/PCB.h **** {
  14:src/../h/PCB.h **** public:
  15:src/../h/PCB.h ****     using Body = void (*)(void*);
  16:src/../h/PCB.h **** 
  17:src/../h/PCB.h ****     PCB(Body body,  void* args, void* stack_space, uint64 timeSlice);
  18:src/../h/PCB.h **** 
  19:src/../h/PCB.h ****     void start();
  20:src/../h/PCB.h ****     static void dispatch();
  21:src/../h/PCB.h ****     static void sleep(time_t);
  22:src/../h/PCB.h **** 
  23:src/../h/PCB.h ****     static PCB* running;
  24:src/../h/PCB.h **** 
  25:src/../h/PCB.h ****     static const uint64 THREAD_CREATE = 0x11;
  26:src/../h/PCB.h **** 
  27:src/../h/PCB.h ****     static const uint64 THREAD_EXIT = 0x12;
  28:src/../h/PCB.h ****     static const uint64 THREAD_DISPATCH = 0x13;
  29:src/../h/PCB.h **** 
  30:src/../h/PCB.h ****     static uint64 timeSliceCounter;
  31:src/../h/PCB.h **** 
  32:src/../h/PCB.h ****     uint64 getTimeSlice() { return timeSlice;}
  33:src/../h/PCB.h **** 
  34:src/../h/PCB.h ****     void* operator new(size_t size);
  35:src/../h/PCB.h ****     void operator delete(void *p);
  36:src/../h/PCB.h **** 
  37:src/../h/PCB.h ****     enum State{READY, RUNNING, SUSPENDED, FINISHED};
  38:src/../h/PCB.h **** 
  39:src/../h/PCB.h ****     State getState() {return state;}
  40:src/../h/PCB.h ****     void setState(State s) {state = s;}
 279              		.loc 2 40 29 discriminator 2
 280              		.loc 2 40 35 is_stmt 0 discriminator 2
 281 01a4 13071000 		li	a4,1
 282 01a8 23ACE700 		sw	a4,24(a5)
 283              	.LVL27:
 284              	.LBE11:
 285              	.LBE10:
  79:src/main.cpp  ****     Thread* t1 = new Thread(&thread1Function, 0);
GAS LISTING /tmp/ccSb9Eig.s 			page 9


 286              		.loc 1 79 5 is_stmt 1 discriminator 2
 287              		.loc 1 79 48 is_stmt 0 discriminator 2
 288 01ac 13058000 		li	a0,8
 289              	.LEHB2:
 290 01b0 97000000 		call	_Znwm@plt
 290      E7800000 
 291              	.LVL28:
 292              	.LEHE2:
 293 01b8 93040500 		mv	s1,a0
 294              	.LVL29:
 295 01bc 13060000 		li	a2,0
 296 01c0 97050000 		lla	a1,_Z15thread1FunctionPv
 296      93850500 
 297              	.LEHB3:
 298 01c8 97000000 		call	_ZN6ThreadC1EPFvPvES0_@plt
 298      E7800000 
 299              	.LVL30:
 300              	.LEHE3:
  80:src/main.cpp  ****     Scheduler::put(t1->myHandle);
 301              		.loc 1 80 5 is_stmt 1 discriminator 2
 302              		.loc 1 80 19 is_stmt 0 discriminator 2
 303 01d0 03B50400 		ld	a0,0(s1)
 304              	.LEHB4:
 305 01d4 97000000 		call	_ZN9Scheduler3putEP3PCB@plt
 305      E7800000 
 306              	.LVL31:
  81:src/main.cpp  ****     Thread* t2 = new Thread(&thread2Function, 0);
 307              		.loc 1 81 5 is_stmt 1 discriminator 2
 308              		.loc 1 81 48 is_stmt 0 discriminator 2
 309 01dc 13058000 		li	a0,8
 310 01e0 97000000 		call	_Znwm@plt
 310      E7800000 
 311              	.LVL32:
 312              	.LEHE4:
 313 01e8 13090500 		mv	s2,a0
 314 01ec 13060000 		li	a2,0
 315 01f0 97050000 		lla	a1,_Z15thread2FunctionPv
 315      93850500 
 316              	.LEHB5:
 317 01f8 97000000 		call	_ZN6ThreadC1EPFvPvES0_@plt
 317      E7800000 
 318              	.LVL33:
 319              	.LEHE5:
  82:src/main.cpp  ****     Scheduler::put(t2->myHandle);
 320              		.loc 1 82 5 is_stmt 1 discriminator 2
 321              		.loc 1 82 19 is_stmt 0 discriminator 2
 322 0200 03350900 		ld	a0,0(s2)
 323              	.LEHB6:
 324 0204 97000000 		call	_ZN9Scheduler3putEP3PCB@plt
 324      E7800000 
 325              	.LVL34:
 326 020c 6F00C000 		j	.L16
 327              	.L14:
  83:src/main.cpp  **** 
  84:src/main.cpp  ****     //Riscv::enableInterrupts();
  85:src/main.cpp  **** 
  86:src/main.cpp  ****     while(t1->myHandle->getState() != PCB::FINISHED || t2->myHandle->getState() != PCB::FINISHED)
GAS LISTING /tmp/ccSb9Eig.s 			page 10


  87:src/main.cpp  ****     {
  88:src/main.cpp  **** 
  89:src/main.cpp  ****         thread_dispatch();
 328              		.loc 1 89 9 is_stmt 1 discriminator 3
 329              		.loc 1 89 24 is_stmt 0 discriminator 3
 330 0210 97000000 		call	thread_dispatch@plt
 330      E7800000 
 331              	.LVL35:
 332              	.L16:
  86:src/main.cpp  ****     {
 333              		.loc 1 86 5 is_stmt 1
  86:src/main.cpp  ****     {
 334              		.loc 1 86 53
  86:src/main.cpp  ****     {
 335              		.loc 1 86 15 is_stmt 0
 336 0218 83B70400 		ld	a5,0(s1)
 337              	.LVL36:
 338              	.LBB12:
 339              	.LBB13:
  39:src/../h/PCB.h ****     void setState(State s) {state = s;}
 340              		.loc 2 39 23 is_stmt 1
  39:src/../h/PCB.h ****     void setState(State s) {state = s;}
 341              		.loc 2 39 30 is_stmt 0
 342 021c 03A78701 		lw	a4,24(a5)
 343              	.LVL37:
 344              	.LBE13:
 345              	.LBE12:
  86:src/main.cpp  ****     {
 346              		.loc 1 86 53
 347 0220 93073000 		li	a5,3
 348 0224 E316F7FE 		bne	a4,a5,.L14
  86:src/main.cpp  ****     {
 349              		.loc 1 86 60 discriminator 2
 350 0228 83370900 		ld	a5,0(s2)
 351              	.LVL38:
 352              	.LBB14:
 353              	.LBB15:
  39:src/../h/PCB.h ****     void setState(State s) {state = s;}
 354              		.loc 2 39 23 is_stmt 1 discriminator 2
  39:src/../h/PCB.h ****     void setState(State s) {state = s;}
 355              		.loc 2 39 30 is_stmt 0 discriminator 2
 356 022c 03A78701 		lw	a4,24(a5)
 357              	.LVL39:
 358              	.LBE15:
 359              	.LBE14:
  86:src/main.cpp  ****     {
 360              		.loc 1 86 53 discriminator 2
 361 0230 93073000 		li	a5,3
 362 0234 E31EF7FC 		bne	a4,a5,.L14
  90:src/main.cpp  ****     }
  91:src/main.cpp  **** 
  92:src/main.cpp  ****     Riscv::printString("End...\n");
 363              		.loc 1 92 5 is_stmt 1
 364              		.loc 1 92 23 is_stmt 0
 365 0238 17050000 		lla	a0,.LC5
 365      13050500 
 366 0240 97000000 		call	_ZN5Riscv11printStringEPKc@plt
GAS LISTING /tmp/ccSb9Eig.s 			page 11


 366      E7800000 
 367              	.LVL40:
 368              	.LEHE6:
  93:src/main.cpp  **** }
 369              		.loc 1 93 1
 370 0248 83308101 		ld	ra,24(sp)
 371              		.cfi_remember_state
 372              		.cfi_restore 1
 373 024c 03340101 		ld	s0,16(sp)
 374              		.cfi_restore 8
 375              		.cfi_def_cfa 2, 32
 376 0250 83348100 		ld	s1,8(sp)
 377              		.cfi_restore 9
 378              	.LVL41:
 379 0254 03390100 		ld	s2,0(sp)
 380              		.cfi_restore 18
 381              	.LVL42:
 382 0258 13010102 		addi	sp,sp,32
 383              		.cfi_def_cfa_offset 0
 384 025c 67800000 		jr	ra
 385              	.L20:
 386              		.cfi_restore_state
 387 0260 13090500 		mv	s2,a0
  76:src/main.cpp  ****     PCB::running = t->myHandle;
 388              		.loc 1 76 32
 389 0264 13850400 		mv	a0,s1
 390 0268 97000000 		call	_ZdlPv@plt
 390      E7800000 
 391              	.LVL43:
 392 0270 13050900 		mv	a0,s2
 393              	.LEHB7:
 394 0274 97000000 		call	_Unwind_Resume@plt
 394      E7800000 
 395              	.LVL44:
 396              	.LEHE7:
 397              	.L21:
 398 027c 13090500 		mv	s2,a0
  79:src/main.cpp  ****     Scheduler::put(t1->myHandle);
 399              		.loc 1 79 48
 400 0280 13850400 		mv	a0,s1
 401 0284 97000000 		call	_ZdlPv@plt
 401      E7800000 
 402              	.LVL45:
 403 028c 13050900 		mv	a0,s2
 404              	.LEHB8:
 405 0290 97000000 		call	_Unwind_Resume@plt
 405      E7800000 
 406              	.LVL46:
 407              	.LEHE8:
 408              	.L22:
 409 0298 93040500 		mv	s1,a0
 410              	.LVL47:
  81:src/main.cpp  ****     Scheduler::put(t2->myHandle);
 411              		.loc 1 81 48
 412 029c 13050900 		mv	a0,s2
 413 02a0 97000000 		call	_ZdlPv@plt
 413      E7800000 
GAS LISTING /tmp/ccSb9Eig.s 			page 12


 414              	.LVL48:
 415 02a8 13850400 		mv	a0,s1
 416              	.LEHB9:
 417 02ac 97000000 		call	_Unwind_Resume@plt
 417      E7800000 
 418              	.LVL49:
 419              	.LEHE9:
 420              		.cfi_endproc
 421              	.LFE23:
 422              		.globl	__gxx_personality_v0
 423              		.section	.gcc_except_table,"a",@progbits
 424              	.LLSDA23:
 425 0000 FF       		.byte	0xff
 426 0001 FF       		.byte	0xff
 427 0002 03       		.byte	0x3
 428 0003 8201     		.byte	0x82,0x1
 429 0005 00000000 		.4byte	.LEHB0-.LFB23
 430 0009 00000000 		.4byte	.LEHE0-.LEHB0
 431 000d 00000000 		.4byte	0
 432 0011 00       		.byte	0
 433 0012 00000000 		.4byte	.LEHB1-.LFB23
 434 0016 00000000 		.4byte	.LEHE1-.LEHB1
 435 001a 00000000 		.4byte	.L20-.LFB23
 436 001e 00       		.byte	0
 437 001f 00000000 		.4byte	.LEHB2-.LFB23
 438 0023 00000000 		.4byte	.LEHE2-.LEHB2
 439 0027 00000000 		.4byte	0
 440 002b 00       		.byte	0
 441 002c 00000000 		.4byte	.LEHB3-.LFB23
 442 0030 00000000 		.4byte	.LEHE3-.LEHB3
 443 0034 00000000 		.4byte	.L21-.LFB23
 444 0038 00       		.byte	0
 445 0039 00000000 		.4byte	.LEHB4-.LFB23
 446 003d 00000000 		.4byte	.LEHE4-.LEHB4
 447 0041 00000000 		.4byte	0
 448 0045 00       		.byte	0
 449 0046 00000000 		.4byte	.LEHB5-.LFB23
 450 004a 00000000 		.4byte	.LEHE5-.LEHB5
 451 004e 00000000 		.4byte	.L22-.LFB23
 452 0052 00       		.byte	0
 453 0053 00000000 		.4byte	.LEHB6-.LFB23
 454 0057 00000000 		.4byte	.LEHE6-.LEHB6
 455 005b 00000000 		.4byte	0
 456 005f 00       		.byte	0
 457 0060 00000000 		.4byte	.LEHB7-.LFB23
 458 0064 00000000 		.4byte	.LEHE7-.LEHB7
 459 0068 00000000 		.4byte	0
 460 006c 00       		.byte	0
 461 006d 00000000 		.4byte	.LEHB8-.LFB23
 462 0071 00000000 		.4byte	.LEHE8-.LEHB8
 463 0075 00000000 		.4byte	0
 464 0079 00       		.byte	0
 465 007a 00000000 		.4byte	.LEHB9-.LFB23
 466 007e 00000000 		.4byte	.LEHE9-.LEHB9
 467 0082 00000000 		.4byte	0
 468 0086 00       		.byte	0
 469              		.text
GAS LISTING /tmp/ccSb9Eig.s 			page 13


 471              		.section	.rodata.str1.8
 472              		.align	3
 473              	.LC6:
 474 0050 6D616C6C 		.string	"mallocFree\n"
 474      6F634672 
 474      65650A00 
 475 005c 00000000 		.align	3
 476              	.LC7:
 477 0060 6E6F7420 		.string	"not OK\n"
 477      4F4B0A00 
 478              		.align	3
 479              	.LC8:
 480 0068 4F4B0A00 		.string	"OK\n"
 481              		.text
 482              		.align	2
 483              		.globl	_Z10mallocFreev
 485              	_Z10mallocFreev:
 486              	.LFB24:
  94:src/main.cpp  **** 
  95:src/main.cpp  **** 
  96:src/main.cpp  **** //memory (de)allocation tests
  97:src/main.cpp  **** void mallocFree()
  98:src/main.cpp  **** {
 487              		.loc 1 98 1 is_stmt 1
 488              		.cfi_startproc
 489 02b4 130101CC 		addi	sp,sp,-832
 490              		.cfi_def_cfa_offset 832
 491 02b8 233C1132 		sd	ra,824(sp)
 492 02bc 23388132 		sd	s0,816(sp)
 493 02c0 23349132 		sd	s1,808(sp)
 494              		.cfi_offset 1, -8
 495              		.cfi_offset 8, -16
 496              		.cfi_offset 9, -24
 497 02c4 13040134 		addi	s0,sp,832
 498              		.cfi_def_cfa 8, 0
  99:src/main.cpp  ****     Riscv::printString("mallocFree\n");
 499              		.loc 1 99 5
 500              		.loc 1 99 23 is_stmt 0
 501 02c8 17050000 		lla	a0,.LC6
 501      13050500 
 502 02d0 97000000 		call	_ZN5Riscv11printStringEPKc@plt
 502      E7800000 
 503              	.LVL50:
 504              	.LBB16:
 100:src/main.cpp  ****     constexpr int num = 100;
 101:src/main.cpp  ****     void* addrs[num];
 102:src/main.cpp  ****     for(int i = 0; i < num;i++)
 505              		.loc 1 102 13
 506 02d8 93040000 		li	s1,0
 507 02dc 6F008000 		j	.L29
 508              	.LVL51:
 509              	.L27:
 510              		.loc 1 102 5 is_stmt 1 discriminator 2
 511 02e0 9B841400 		addiw	s1,s1,1
 512              	.LVL52:
 513              	.L29:
 514              		.loc 1 102 22 discriminator 1
GAS LISTING /tmp/ccSb9Eig.s 			page 14


 515 02e4 93073006 		li	a5,99
 516 02e8 63C49704 		bgt	s1,a5,.L37
 103:src/main.cpp  ****     {
 104:src/main.cpp  ****         addrs[i] = mem_alloc(100);
 517              		.loc 1 104 9
 518              		.loc 1 104 29 is_stmt 0
 519 02ec 13054006 		li	a0,100
 520 02f0 97000000 		call	mem_alloc@plt
 520      E7800000 
 521              	.LVL53:
 522              		.loc 1 104 18
 523 02f8 93973400 		slli	a5,s1,3
 524 02fc 130704FE 		addi	a4,s0,-32
 525 0300 B307F700 		add	a5,a4,a5
 526 0304 23B0A7CE 		sd	a0,-800(a5)
 105:src/main.cpp  ****         if(addrs[i] == 0)
 527              		.loc 1 105 9 is_stmt 1
 528 0308 E31C05FC 		bnez	a0,.L27
 106:src/main.cpp  ****         {
 107:src/main.cpp  ****             Riscv::printString("not OK\n");
 529              		.loc 1 107 13
 530              		.loc 1 107 31 is_stmt 0
 531 030c 17050000 		lla	a0,.LC7
 531      13050500 
 532 0314 97000000 		call	_ZN5Riscv11printStringEPKc@plt
 532      E7800000 
 533              	.LVL54:
 108:src/main.cpp  ****             return;
 534              		.loc 1 108 13 is_stmt 1
 535              	.L25:
 536              	.LBE16:
 109:src/main.cpp  ****         }
 110:src/main.cpp  **** 
 111:src/main.cpp  ****     }
 112:src/main.cpp  **** 
 113:src/main.cpp  ****     for(int i = 0 ; i < num;i+=2)
 114:src/main.cpp  ****     {
 115:src/main.cpp  ****         int retval = mem_free(addrs[i]);
 116:src/main.cpp  ****         if(retval != 0)
 117:src/main.cpp  ****         {
 118:src/main.cpp  ****             Riscv::printString("not OK\n");
 119:src/main.cpp  ****             return;
 120:src/main.cpp  ****         }
 121:src/main.cpp  ****     }
 122:src/main.cpp  **** 
 123:src/main.cpp  ****     for(int i = 0 ; i < num;i+=2)
 124:src/main.cpp  ****     {
 125:src/main.cpp  ****         addrs[i] = mem_alloc(20);
 126:src/main.cpp  ****         if(addrs[i] == 0)
 127:src/main.cpp  ****         {
 128:src/main.cpp  ****             Riscv::printString("not OK\n");
 129:src/main.cpp  ****             return;
 130:src/main.cpp  ****         }
 131:src/main.cpp  ****     }
 132:src/main.cpp  **** 
 133:src/main.cpp  ****     for(int i = 0; i < num;i++)
 134:src/main.cpp  ****     {
GAS LISTING /tmp/ccSb9Eig.s 			page 15


 135:src/main.cpp  ****         int retval = mem_free(addrs[i]);
 136:src/main.cpp  ****         if(retval != 0)
 137:src/main.cpp  ****         {
 138:src/main.cpp  ****             Riscv::printString("not OK\n");
 139:src/main.cpp  ****             return;
 140:src/main.cpp  ****         }
 141:src/main.cpp  ****     }
 142:src/main.cpp  **** 
 143:src/main.cpp  ****     Riscv::printString("OK\n");
 144:src/main.cpp  **** }
 537              		.loc 1 144 1 is_stmt 0
 538 031c 83308133 		ld	ra,824(sp)
 539              		.cfi_remember_state
 540              		.cfi_restore 1
 541 0320 03340133 		ld	s0,816(sp)
 542              		.cfi_restore 8
 543              		.cfi_def_cfa 2, 832
 544 0324 83348132 		ld	s1,808(sp)
 545              		.cfi_restore 9
 546 0328 13010134 		addi	sp,sp,832
 547              		.cfi_def_cfa_offset 0
 548 032c 67800000 		jr	ra
 549              	.LVL55:
 550              	.L37:
 551              		.cfi_restore_state
 552              	.LBB17:
 113:src/main.cpp  ****     {
 553              		.loc 1 113 13
 554 0330 93040000 		li	s1,0
 555              	.LVL56:
 556              	.L26:
 113:src/main.cpp  ****     {
 557              		.loc 1 113 23 is_stmt 1 discriminator 1
 558 0334 93073006 		li	a5,99
 559 0338 63CE9702 		bgt	s1,a5,.L38
 560              	.LBB18:
 115:src/main.cpp  ****         if(retval != 0)
 561              		.loc 1 115 9
 115:src/main.cpp  ****         if(retval != 0)
 562              		.loc 1 115 30 is_stmt 0
 563 033c 93973400 		slli	a5,s1,3
 564 0340 130704FE 		addi	a4,s0,-32
 565 0344 B307F700 		add	a5,a4,a5
 566 0348 03B507CE 		ld	a0,-800(a5)
 567 034c 97000000 		call	mem_free@plt
 567      E7800000 
 568              	.LVL57:
 116:src/main.cpp  ****         {
 569              		.loc 1 116 9 is_stmt 1
 570 0354 63160500 		bnez	a0,.L41
 571              	.LBE18:
 113:src/main.cpp  ****     {
 572              		.loc 1 113 5 discriminator 2
 113:src/main.cpp  ****     {
 573              		.loc 1 113 30 is_stmt 0 discriminator 2
 574 0358 9B842400 		addiw	s1,s1,2
 575              	.LVL58:
GAS LISTING /tmp/ccSb9Eig.s 			page 16


 113:src/main.cpp  ****     {
 576              		.loc 1 113 5 discriminator 2
 577 035c 6FF09FFD 		j	.L26
 578              	.LVL59:
 579              	.L41:
 580              	.LBB19:
 118:src/main.cpp  ****             return;
 581              		.loc 1 118 13 is_stmt 1
 118:src/main.cpp  ****             return;
 582              		.loc 1 118 31 is_stmt 0
 583 0360 17050000 		lla	a0,.LC7
 583      13050500 
 584              	.LVL60:
 585 0368 97000000 		call	_ZN5Riscv11printStringEPKc@plt
 585      E7800000 
 586              	.LVL61:
 119:src/main.cpp  ****         }
 587              		.loc 1 119 13 is_stmt 1
 588 0370 6FF0DFFA 		j	.L25
 589              	.L38:
 590              	.LBE19:
 591              	.LBE17:
 592              	.LBB20:
 123:src/main.cpp  ****     {
 593              		.loc 1 123 13 is_stmt 0
 594 0374 93040000 		li	s1,0
 595              	.LVL62:
 596 0378 6F008000 		j	.L30
 597              	.LVL63:
 598              	.L33:
 123:src/main.cpp  ****     {
 599              		.loc 1 123 5 is_stmt 1 discriminator 2
 123:src/main.cpp  ****     {
 600              		.loc 1 123 30 is_stmt 0 discriminator 2
 601 037c 9B842400 		addiw	s1,s1,2
 602              	.LVL64:
 603              	.L30:
 123:src/main.cpp  ****     {
 604              		.loc 1 123 23 is_stmt 1 discriminator 1
 605 0380 93073006 		li	a5,99
 606 0384 63CC9702 		bgt	s1,a5,.L39
 125:src/main.cpp  ****         if(addrs[i] == 0)
 607              		.loc 1 125 9
 125:src/main.cpp  ****         if(addrs[i] == 0)
 608              		.loc 1 125 29 is_stmt 0
 609 0388 13054001 		li	a0,20
 610 038c 97000000 		call	mem_alloc@plt
 610      E7800000 
 611              	.LVL65:
 125:src/main.cpp  ****         if(addrs[i] == 0)
 612              		.loc 1 125 18
 613 0394 93973400 		slli	a5,s1,3
 614 0398 130704FE 		addi	a4,s0,-32
 615 039c B307F700 		add	a5,a4,a5
 616 03a0 23B0A7CE 		sd	a0,-800(a5)
 126:src/main.cpp  ****         {
 617              		.loc 1 126 9 is_stmt 1
GAS LISTING /tmp/ccSb9Eig.s 			page 17


 618 03a4 E31C05FC 		bnez	a0,.L33
 128:src/main.cpp  ****             return;
 619              		.loc 1 128 13
 128:src/main.cpp  ****             return;
 620              		.loc 1 128 31 is_stmt 0
 621 03a8 17050000 		lla	a0,.LC7
 621      13050500 
 622 03b0 97000000 		call	_ZN5Riscv11printStringEPKc@plt
 622      E7800000 
 623              	.LVL66:
 129:src/main.cpp  ****         }
 624              		.loc 1 129 13 is_stmt 1
 625 03b8 6FF05FF6 		j	.L25
 626              	.L39:
 627              	.LBE20:
 628              	.LBB21:
 133:src/main.cpp  ****     {
 629              		.loc 1 133 13 is_stmt 0
 630 03bc 93040000 		li	s1,0
 631              	.LVL67:
 632              	.L32:
 133:src/main.cpp  ****     {
 633              		.loc 1 133 22 is_stmt 1 discriminator 1
 634 03c0 93073006 		li	a5,99
 635 03c4 63CE9702 		bgt	s1,a5,.L34
 636              	.LBB22:
 135:src/main.cpp  ****         if(retval != 0)
 637              		.loc 1 135 9
 135:src/main.cpp  ****         if(retval != 0)
 638              		.loc 1 135 30 is_stmt 0
 639 03c8 93973400 		slli	a5,s1,3
 640 03cc 130704FE 		addi	a4,s0,-32
 641 03d0 B307F700 		add	a5,a4,a5
 642 03d4 03B507CE 		ld	a0,-800(a5)
 643 03d8 97000000 		call	mem_free@plt
 643      E7800000 
 644              	.LVL68:
 136:src/main.cpp  ****         {
 645              		.loc 1 136 9 is_stmt 1
 646 03e0 63160500 		bnez	a0,.L42
 647              	.LBE22:
 133:src/main.cpp  ****     {
 648              		.loc 1 133 5 discriminator 2
 649 03e4 9B841400 		addiw	s1,s1,1
 650              	.LVL69:
 651 03e8 6FF09FFD 		j	.L32
 652              	.LVL70:
 653              	.L42:
 654              	.LBB23:
 138:src/main.cpp  ****             return;
 655              		.loc 1 138 13
 138:src/main.cpp  ****             return;
 656              		.loc 1 138 31 is_stmt 0
 657 03ec 17050000 		lla	a0,.LC7
 657      13050500 
 658              	.LVL71:
 659 03f4 97000000 		call	_ZN5Riscv11printStringEPKc@plt
GAS LISTING /tmp/ccSb9Eig.s 			page 18


 659      E7800000 
 660              	.LVL72:
 139:src/main.cpp  ****         }
 661              		.loc 1 139 13 is_stmt 1
 662 03fc 6FF01FF2 		j	.L25
 663              	.L34:
 664              	.LBE23:
 665              	.LBE21:
 143:src/main.cpp  **** }
 666              		.loc 1 143 5
 143:src/main.cpp  **** }
 667              		.loc 1 143 23 is_stmt 0
 668 0400 17050000 		lla	a0,.LC8
 668      13050500 
 669 0408 97000000 		call	_ZN5Riscv11printStringEPKc@plt
 669      E7800000 
 670              	.LVL73:
 671 0410 6FF0DFF0 		j	.L25
 672              		.cfi_endproc
 673              	.LFE24:
 675              		.section	.rodata.str1.8
 676 006c 00000000 		.align	3
 677              	.LC9:
 678 0070 6269674D 		.string	"bigMalloc\n"
 678      616C6C6F 
 678      630A00
 679              		.text
 680              		.align	2
 681              		.globl	_Z9bigMallocv
 683              	_Z9bigMallocv:
 684              	.LFB25:
 145:src/main.cpp  **** void bigMalloc()
 146:src/main.cpp  **** {
 685              		.loc 1 146 1 is_stmt 1
 686              		.cfi_startproc
 687 0414 130101FF 		addi	sp,sp,-16
 688              		.cfi_def_cfa_offset 16
 689 0418 23341100 		sd	ra,8(sp)
 690 041c 23308100 		sd	s0,0(sp)
 691              		.cfi_offset 1, -8
 692              		.cfi_offset 8, -16
 693 0420 13040101 		addi	s0,sp,16
 694              		.cfi_def_cfa 8, 0
 147:src/main.cpp  ****     Riscv::printString("bigMalloc\n");
 695              		.loc 1 147 5
 696              		.loc 1 147 23 is_stmt 0
 697 0424 17050000 		lla	a0,.LC9
 697      13050500 
 698 042c 97000000 		call	_ZN5Riscv11printStringEPKc@plt
 698      E7800000 
 699              	.LVL74:
 148:src/main.cpp  ****     uint64 x = (uint64)HEAP_END_ADDR - (uint64)HEAP_START_ADDR + 100UL;
 700              		.loc 1 148 5 is_stmt 1
 701              		.loc 1 148 38 is_stmt 0
 702 0434 97070000 		la	a5,HEAP_END_ADDR
 702      83B70700 
 703 043c 03B50700 		ld	a0,0(a5)
GAS LISTING /tmp/ccSb9Eig.s 			page 19


 704 0440 97070000 		la	a5,HEAP_START_ADDR
 704      83B70700 
 705 0448 83B70700 		ld	a5,0(a5)
 706 044c 3305F540 		sub	a0,a0,a5
 707              	.LVL75:
 149:src/main.cpp  ****     void* p = mem_alloc(x);
 708              		.loc 1 149 5 is_stmt 1
 709              		.loc 1 149 24 is_stmt 0
 710 0450 13054506 		addi	a0,a0,100
 711              	.LVL76:
 712 0454 97000000 		call	mem_alloc@plt
 712      E7800000 
 713              	.LVL77:
 150:src/main.cpp  ****     if(p == 0)
 714              		.loc 1 150 5 is_stmt 1
 715 045c 63020502 		beqz	a0,.L47
 151:src/main.cpp  ****         Riscv::printString("OK\n");
 152:src/main.cpp  ****     else
 153:src/main.cpp  ****         Riscv::printString("not OK\n");
 716              		.loc 1 153 9
 717              		.loc 1 153 27 is_stmt 0
 718 0460 17050000 		lla	a0,.LC7
 718      13050500 
 719              	.LVL78:
 720 0468 97000000 		call	_ZN5Riscv11printStringEPKc@plt
 720      E7800000 
 721              	.LVL79:
 722              	.L43:
 154:src/main.cpp  **** }
 723              		.loc 1 154 1
 724 0470 83308100 		ld	ra,8(sp)
 725              		.cfi_remember_state
 726              		.cfi_restore 1
 727 0474 03340100 		ld	s0,0(sp)
 728              		.cfi_restore 8
 729              		.cfi_def_cfa 2, 16
 730 0478 13010101 		addi	sp,sp,16
 731              		.cfi_def_cfa_offset 0
 732 047c 67800000 		jr	ra
 733              	.LVL80:
 734              	.L47:
 735              		.cfi_restore_state
 151:src/main.cpp  ****         Riscv::printString("OK\n");
 736              		.loc 1 151 9 is_stmt 1
 151:src/main.cpp  ****         Riscv::printString("OK\n");
 737              		.loc 1 151 27 is_stmt 0
 738 0480 17050000 		lla	a0,.LC8
 738      13050500 
 739              	.LVL81:
 740 0488 97000000 		call	_ZN5Riscv11printStringEPKc@plt
 740      E7800000 
 741              	.LVL82:
 742 0490 6FF01FFE 		j	.L43
 743              		.cfi_endproc
 744              	.LFE25:
 746              		.section	.rodata.str1.8
 747 007b 00000000 		.align	3
GAS LISTING /tmp/ccSb9Eig.s 			page 20


 747      00
 748              	.LC10:
 749 0080 6C6F744F 		.string	"lotOfSmallMallocs\n"
 749      66536D61 
 749      6C6C4D61 
 749      6C6C6F63 
 749      730A00
 750              		.text
 751              		.align	2
 752              		.globl	_Z17lotOfSmallMallocsv
 754              	_Z17lotOfSmallMallocsv:
 755              	.LFB26:
 155:src/main.cpp  **** 
 156:src/main.cpp  **** void lotOfSmallMallocs()
 157:src/main.cpp  **** {
 756              		.loc 1 157 1 is_stmt 1
 757              		.cfi_startproc
 758 0494 130101FD 		addi	sp,sp,-48
 759              		.cfi_def_cfa_offset 48
 760 0498 23341102 		sd	ra,40(sp)
 761 049c 23308102 		sd	s0,32(sp)
 762 04a0 233C9100 		sd	s1,24(sp)
 763 04a4 23382101 		sd	s2,16(sp)
 764 04a8 23343101 		sd	s3,8(sp)
 765              		.cfi_offset 1, -8
 766              		.cfi_offset 8, -16
 767              		.cfi_offset 9, -24
 768              		.cfi_offset 18, -32
 769              		.cfi_offset 19, -40
 770 04ac 13040103 		addi	s0,sp,48
 771              		.cfi_def_cfa 8, 0
 158:src/main.cpp  ****     Riscv::printString("lotOfSmallMallocs\n");
 772              		.loc 1 158 5
 773              		.loc 1 158 23 is_stmt 0
 774 04b0 17050000 		lla	a0,.LC10
 774      13050500 
 775 04b8 97000000 		call	_ZN5Riscv11printStringEPKc@plt
 775      E7800000 
 776              	.LVL83:
 159:src/main.cpp  ****     uint64 cnt = 0;
 777              		.loc 1 159 5 is_stmt 1
 160:src/main.cpp  ****     uint64 sum = 0;
 778              		.loc 1 160 5
 161:src/main.cpp  ****     uint64 N = 10000UL;
 779              		.loc 1 161 5
 162:src/main.cpp  ****     uint64 X = 10UL;
 780              		.loc 1 162 5
 163:src/main.cpp  ****     for(uint64 i = 0; i < N;i++)
 781              		.loc 1 163 5
 782              	.LBB24:
 783              		.loc 1 163 16 is_stmt 0
 784 04c0 93040000 		li	s1,0
 785              	.LBE24:
 160:src/main.cpp  ****     uint64 N = 10000UL;
 786              		.loc 1 160 12
 787 04c4 93090000 		li	s3,0
 159:src/main.cpp  ****     uint64 sum = 0;
GAS LISTING /tmp/ccSb9Eig.s 			page 21


 788              		.loc 1 159 12
 789 04c8 13090000 		li	s2,0
 790 04cc 6F008001 		j	.L50
 791              	.LVL84:
 792              	.L54:
 793              	.LBB27:
 794              	.LBB25:
 164:src/main.cpp  ****     {
 165:src/main.cpp  ****         Test* t = (Test*)mem_alloc(sizeof(Test));
 166:src/main.cpp  ****         if(t == 0)
 167:src/main.cpp  ****             break;
 168:src/main.cpp  ****         t->a = X;
 795              		.loc 1 168 9 is_stmt 1 discriminator 2
 796              		.loc 1 168 14 is_stmt 0 discriminator 2
 797 04d0 9307A000 		li	a5,10
 798 04d4 2330F500 		sd	a5,0(a0)
 169:src/main.cpp  ****         sum+=t->a;
 799              		.loc 1 169 9 is_stmt 1 discriminator 2
 800              		.loc 1 169 12 is_stmt 0 discriminator 2
 801 04d8 9389A900 		addi	s3,s3,10
 802              	.LVL85:
 170:src/main.cpp  ****         cnt++;
 803              		.loc 1 170 9 is_stmt 1 discriminator 2
 804              		.loc 1 170 12 is_stmt 0 discriminator 2
 805 04dc 13091900 		addi	s2,s2,1
 806              	.LVL86:
 807              	.LBE25:
 163:src/main.cpp  ****     {
 808              		.loc 1 163 5 is_stmt 1 discriminator 2
 809 04e0 93841400 		addi	s1,s1,1
 810              	.LVL87:
 811              	.L50:
 163:src/main.cpp  ****     {
 812              		.loc 1 163 25 discriminator 1
 813 04e4 B7270000 		li	a5,8192
 814 04e8 9387F770 		addi	a5,a5,1807
 815 04ec 63EA9700 		bgtu	s1,a5,.L49
 816              	.LBB26:
 165:src/main.cpp  ****         if(t == 0)
 817              		.loc 1 165 9
 165:src/main.cpp  ****         if(t == 0)
 818              		.loc 1 165 35 is_stmt 0
 819 04f0 13058000 		li	a0,8
 820 04f4 97000000 		call	mem_alloc@plt
 820      E7800000 
 821              	.LVL88:
 166:src/main.cpp  ****             break;
 822              		.loc 1 166 9 is_stmt 1
 823 04fc E31A05FC 		bnez	a0,.L54
 824              	.LVL89:
 825              	.L49:
 826              	.LBE26:
 827              	.LBE27:
 171:src/main.cpp  ****     }
 172:src/main.cpp  ****     Riscv::printInteger(cnt);
 828              		.loc 1 172 5
 829              		.loc 1 172 24 is_stmt 0
GAS LISTING /tmp/ccSb9Eig.s 			page 22


 830 0500 13050900 		mv	a0,s2
 831 0504 97000000 		call	_ZN5Riscv12printIntegerEm@plt
 831      E7800000 
 832              	.LVL90:
 173:src/main.cpp  ****     Riscv::printString("\n");
 833              		.loc 1 173 5 is_stmt 1
 834              		.loc 1 173 23 is_stmt 0
 835 050c 17050000 		lla	a0,.LC2
 835      13050500 
 836 0514 97000000 		call	_ZN5Riscv11printStringEPKc@plt
 836      E7800000 
 837              	.LVL91:
 174:src/main.cpp  ****     if(sum == X*cnt)
 838              		.loc 1 174 5 is_stmt 1
 839              		.loc 1 174 16 is_stmt 0
 840 051c 93172900 		slli	a5,s2,2
 841 0520 33892701 		add	s2,a5,s2
 842              	.LVL92:
 843 0524 13191900 		slli	s2,s2,1
 844              		.loc 1 174 5
 845 0528 63083903 		beq	s2,s3,.L55
 175:src/main.cpp  ****         Riscv::printString("OK\n");
 176:src/main.cpp  ****     else
 177:src/main.cpp  ****         Riscv::printString("not OK\n");
 846              		.loc 1 177 9 is_stmt 1
 847              		.loc 1 177 27 is_stmt 0
 848 052c 17050000 		lla	a0,.LC7
 848      13050500 
 849 0534 97000000 		call	_ZN5Riscv11printStringEPKc@plt
 849      E7800000 
 850              	.LVL93:
 851              	.L48:
 178:src/main.cpp  **** }
 852              		.loc 1 178 1
 853 053c 83308102 		ld	ra,40(sp)
 854              		.cfi_remember_state
 855              		.cfi_restore 1
 856 0540 03340102 		ld	s0,32(sp)
 857              		.cfi_restore 8
 858              		.cfi_def_cfa 2, 48
 859 0544 83348101 		ld	s1,24(sp)
 860              		.cfi_restore 9
 861              	.LVL94:
 862 0548 03390101 		ld	s2,16(sp)
 863              		.cfi_restore 18
 864 054c 83398100 		ld	s3,8(sp)
 865              		.cfi_restore 19
 866              	.LVL95:
 867 0550 13010103 		addi	sp,sp,48
 868              		.cfi_def_cfa_offset 0
 869 0554 67800000 		jr	ra
 870              	.LVL96:
 871              	.L55:
 872              		.cfi_restore_state
 175:src/main.cpp  ****         Riscv::printString("OK\n");
 873              		.loc 1 175 9 is_stmt 1
 175:src/main.cpp  ****         Riscv::printString("OK\n");
GAS LISTING /tmp/ccSb9Eig.s 			page 23


 874              		.loc 1 175 27 is_stmt 0
 875 0558 17050000 		lla	a0,.LC8
 875      13050500 
 876 0560 97000000 		call	_ZN5Riscv11printStringEPKc@plt
 876      E7800000 
 877              	.LVL97:
 878 0568 6FF05FFD 		j	.L48
 879              		.cfi_endproc
 880              	.LFE26:
 882              		.section	.rodata.str1.8
 883 0093 00000000 		.align	3
 883      00
 884              	.LC11:
 885 0098 62616446 		.string	"badFree\n"
 885      7265650A 
 885      00
 886              		.text
 887              		.align	2
 888              		.globl	_Z7badFreev
 890              	_Z7badFreev:
 891              	.LFB27:
 179:src/main.cpp  **** void badFree()
 180:src/main.cpp  **** {
 892              		.loc 1 180 1 is_stmt 1
 893              		.cfi_startproc
 894 056c 130101FF 		addi	sp,sp,-16
 895              		.cfi_def_cfa_offset 16
 896 0570 23341100 		sd	ra,8(sp)
 897 0574 23308100 		sd	s0,0(sp)
 898              		.cfi_offset 1, -8
 899              		.cfi_offset 8, -16
 900 0578 13040101 		addi	s0,sp,16
 901              		.cfi_def_cfa 8, 0
 181:src/main.cpp  ****     Riscv::printString("badFree\n");
 902              		.loc 1 181 5
 903              		.loc 1 181 23 is_stmt 0
 904 057c 17050000 		lla	a0,.LC11
 904      13050500 
 905 0584 97000000 		call	_ZN5Riscv11printStringEPKc@plt
 905      E7800000 
 906              	.LVL98:
 182:src/main.cpp  ****     Test* t = (Test*)mem_alloc(sizeof(Test));
 907              		.loc 1 182 5 is_stmt 1
 908              		.loc 1 182 31 is_stmt 0
 909 058c 13058000 		li	a0,8
 910 0590 97000000 		call	mem_alloc@plt
 910      E7800000 
 911              	.LVL99:
 183:src/main.cpp  ****     uint64 retval = mem_free((char*)t + 2);
 912              		.loc 1 183 5 is_stmt 1
 913              		.loc 1 183 29 is_stmt 0
 914 0598 13052500 		addi	a0,a0,2
 915              	.LVL100:
 916 059c 97000000 		call	mem_free@plt
 916      E7800000 
 917              	.LVL101:
 184:src/main.cpp  ****     if(retval == 0)
GAS LISTING /tmp/ccSb9Eig.s 			page 24


 918              		.loc 1 184 5 is_stmt 1
 919 05a4 63120502 		bnez	a0,.L57
 185:src/main.cpp  ****         Riscv::printString("not OK\n");
 920              		.loc 1 185 9
 921              		.loc 1 185 27 is_stmt 0
 922 05a8 17050000 		lla	a0,.LC7
 922      13050500 
 923              	.LVL102:
 924 05b0 97000000 		call	_ZN5Riscv11printStringEPKc@plt
 924      E7800000 
 925              	.LVL103:
 926              	.L56:
 186:src/main.cpp  ****     else
 187:src/main.cpp  ****         Riscv::printString("OK\n");
 188:src/main.cpp  **** }
 927              		.loc 1 188 1
 928 05b8 83308100 		ld	ra,8(sp)
 929              		.cfi_remember_state
 930              		.cfi_restore 1
 931 05bc 03340100 		ld	s0,0(sp)
 932              		.cfi_restore 8
 933              		.cfi_def_cfa 2, 16
 934 05c0 13010101 		addi	sp,sp,16
 935              		.cfi_def_cfa_offset 0
 936 05c4 67800000 		jr	ra
 937              	.LVL104:
 938              	.L57:
 939              		.cfi_restore_state
 187:src/main.cpp  **** }
 940              		.loc 1 187 9 is_stmt 1
 187:src/main.cpp  **** }
 941              		.loc 1 187 27 is_stmt 0
 942 05c8 17050000 		lla	a0,.LC8
 942      13050500 
 943              	.LVL105:
 944 05d0 97000000 		call	_ZN5Riscv11printStringEPKc@plt
 944      E7800000 
 945              	.LVL106:
 946              		.loc 1 188 1
 947 05d8 6FF01FFE 		j	.L56
 948              		.cfi_endproc
 949              	.LFE27:
 951              		.section	.rodata.str1.8
 952 00a1 00000000 		.align	3
 952      000000
 953              	.LC12:
 954 00a8 73747265 		.string	"stressTesting\n"
 954      73735465 
 954      7374696E 
 954      670A00
 955 00b7 00       		.align	3
 956              	.LC13:
 957 00b8 737A203A 		.string	"sz : "
 957      2000
 958 00be 0000     		.align	3
 959              	.LC14:
 960 00c0 66726565 		.string	"free\n"
GAS LISTING /tmp/ccSb9Eig.s 			page 25


 960      0A00
 961 00c6 0000     		.align	3
 962              	.LC15:
 963 00c8 616C6C6F 		.string	"alloc\n"
 963      630A00
 964 00cf 00       		.align	3
 965              	.LC16:
 966 00d0 6E6F7420 		.string	"not Ok\n"
 966      4F6B0A00 
 967              		.text
 968              		.align	2
 969              		.globl	_Z13stressTestingv
 971              	_Z13stressTestingv:
 972              	.LFB28:
 189:src/main.cpp  **** 
 190:src/main.cpp  **** void stressTesting()
 191:src/main.cpp  **** {
 973              		.loc 1 191 1 is_stmt 1
 974              		.cfi_startproc
 975 05dc 130101CB 		addi	sp,sp,-848
 976              		.cfi_def_cfa_offset 848
 977 05e0 23341134 		sd	ra,840(sp)
 978 05e4 23308134 		sd	s0,832(sp)
 979 05e8 233C9132 		sd	s1,824(sp)
 980 05ec 23382133 		sd	s2,816(sp)
 981 05f0 23343133 		sd	s3,808(sp)
 982              		.cfi_offset 1, -8
 983              		.cfi_offset 8, -16
 984              		.cfi_offset 9, -24
 985              		.cfi_offset 18, -32
 986              		.cfi_offset 19, -40
 987 05f4 13040135 		addi	s0,sp,848
 988              		.cfi_def_cfa 8, 0
 192:src/main.cpp  ****     Riscv::printString("stressTesting\n");
 989              		.loc 1 192 5
 990              		.loc 1 192 23 is_stmt 0
 991 05f8 17050000 		lla	a0,.LC12
 991      13050500 
 992 0600 97000000 		call	_ZN5Riscv11printStringEPKc@plt
 992      E7800000 
 993              	.LVL107:
 994              	.LBB28:
 193:src/main.cpp  ****     constexpr int num = 100;
 194:src/main.cpp  ****     void* addrs[num];
 195:src/main.cpp  ****     for(int i = 0; i < num;i++)
 995              		.loc 1 195 13
 996 0608 93040000 		li	s1,0
 997 060c 6F008000 		j	.L64
 998              	.LVL108:
 999              	.L62:
 1000              		.loc 1 195 5 is_stmt 1 discriminator 2
 1001 0610 9B841400 		addiw	s1,s1,1
 1002              	.LVL109:
 1003              	.L64:
 1004              		.loc 1 195 22 discriminator 1
 1005 0614 93073006 		li	a5,99
 1006 0618 63C89704 		bgt	s1,a5,.L74
GAS LISTING /tmp/ccSb9Eig.s 			page 26


 196:src/main.cpp  ****     {
 197:src/main.cpp  ****         addrs[i] = mem_alloc(1);
 1007              		.loc 1 197 9
 1008              		.loc 1 197 29 is_stmt 0
 1009 061c 13051000 		li	a0,1
 1010 0620 97000000 		call	mem_alloc@plt
 1010      E7800000 
 1011              	.LVL110:
 1012              		.loc 1 197 18
 1013 0628 93973400 		slli	a5,s1,3
 1014 062c 130704FD 		addi	a4,s0,-48
 1015 0630 B307F700 		add	a5,a4,a5
 1016 0634 23B0A7CE 		sd	a0,-800(a5)
 198:src/main.cpp  ****         if(addrs[i] == 0)
 1017              		.loc 1 198 9 is_stmt 1
 1018 0638 E31C05FC 		bnez	a0,.L62
 199:src/main.cpp  ****         {
 200:src/main.cpp  ****             Riscv::printString("not OK\n");
 1019              		.loc 1 200 13
 1020              		.loc 1 200 31 is_stmt 0
 1021 063c 17050000 		lla	a0,.LC7
 1021      13050500 
 1022 0644 97000000 		call	_ZN5Riscv11printStringEPKc@plt
 1022      E7800000 
 1023              	.LVL111:
 201:src/main.cpp  ****             return;
 1024              		.loc 1 201 13 is_stmt 1
 1025              	.L60:
 1026              	.LBE28:
 202:src/main.cpp  ****         }
 203:src/main.cpp  **** 
 204:src/main.cpp  ****     }
 205:src/main.cpp  ****     int sz = 5;
 206:src/main.cpp  ****     while(sz > 0)
 207:src/main.cpp  ****     {
 208:src/main.cpp  ****         Riscv::printString("sz : ");
 209:src/main.cpp  ****         Riscv::printInteger(sz);
 210:src/main.cpp  ****         for(int i = 0 ; i < num;i+=2)
 211:src/main.cpp  ****         {
 212:src/main.cpp  ****             Riscv::printString("i : ");
 213:src/main.cpp  ****             Riscv::printInteger(i);
 214:src/main.cpp  ****             Riscv::printString("free\n");
 215:src/main.cpp  ****             int retval = mem_free(addrs[i]);
 216:src/main.cpp  ****             if(retval != 0)
 217:src/main.cpp  ****             {
 218:src/main.cpp  ****                 Riscv::printString("not OK\n");
 219:src/main.cpp  ****                 return;
 220:src/main.cpp  ****             }
 221:src/main.cpp  ****             Riscv::printString("alloc\n");
 222:src/main.cpp  ****             addrs[i] = mem_alloc(sz/2);
 223:src/main.cpp  ****             if(addrs[i] == 0)
 224:src/main.cpp  ****             {
 225:src/main.cpp  ****                 Riscv::printString("not Ok\n");
 226:src/main.cpp  ****                 return;
 227:src/main.cpp  ****             }
 228:src/main.cpp  **** 
 229:src/main.cpp  ****         }
GAS LISTING /tmp/ccSb9Eig.s 			page 27


 230:src/main.cpp  **** 
 231:src/main.cpp  ****         for(int i = 1 ; i < num;i+=2)
 232:src/main.cpp  ****         {
 233:src/main.cpp  ****             Riscv::printString("i : ");
 234:src/main.cpp  ****             Riscv::printInteger(i);
 235:src/main.cpp  ****             Riscv::printString("free\n");
 236:src/main.cpp  ****             int retval = mem_free(addrs[i]);
 237:src/main.cpp  ****             if(retval != 0)
 238:src/main.cpp  ****             {
 239:src/main.cpp  ****                 Riscv::printString("not OK\n");
 240:src/main.cpp  ****                 return;
 241:src/main.cpp  ****             }
 242:src/main.cpp  ****             Riscv::printString("alloc\n");
 243:src/main.cpp  ****             addrs[i] = mem_alloc(sz);
 244:src/main.cpp  ****             if(addrs[i] == 0)
 245:src/main.cpp  ****             {
 246:src/main.cpp  ****                 Riscv::printString("not Ok\n");
 247:src/main.cpp  ****                 return;
 248:src/main.cpp  ****             }
 249:src/main.cpp  **** 
 250:src/main.cpp  ****         }
 251:src/main.cpp  ****         sz-=10;
 252:src/main.cpp  ****     }
 253:src/main.cpp  **** 
 254:src/main.cpp  ****     Riscv::printString("OK\n");
 255:src/main.cpp  **** }
 1027              		.loc 1 255 1 is_stmt 0
 1028 064c 83308134 		ld	ra,840(sp)
 1029              		.cfi_remember_state
 1030              		.cfi_restore 1
 1031 0650 03340134 		ld	s0,832(sp)
 1032              		.cfi_restore 8
 1033              		.cfi_def_cfa 2, 848
 1034 0654 83348133 		ld	s1,824(sp)
 1035              		.cfi_restore 9
 1036 0658 03390133 		ld	s2,816(sp)
 1037              		.cfi_restore 18
 1038 065c 83398132 		ld	s3,808(sp)
 1039              		.cfi_restore 19
 1040 0660 13010135 		addi	sp,sp,848
 1041              		.cfi_def_cfa_offset 0
 1042 0664 67800000 		jr	ra
 1043              	.LVL112:
 1044              	.L74:
 1045              		.cfi_restore_state
 205:src/main.cpp  ****     while(sz > 0)
 1046              		.loc 1 205 9
 1047 0668 13095000 		li	s2,5
 1048              	.LVL113:
 1049              	.L61:
 206:src/main.cpp  ****     {
 1050              		.loc 1 206 5 is_stmt 1
 206:src/main.cpp  ****     {
 1051              		.loc 1 206 14
 1052 066c 635E2019 		blez	s2,.L65
 1053              	.LBB29:
 208:src/main.cpp  ****         Riscv::printInteger(sz);
GAS LISTING /tmp/ccSb9Eig.s 			page 28


 1054              		.loc 1 208 9
 208:src/main.cpp  ****         Riscv::printInteger(sz);
 1055              		.loc 1 208 27 is_stmt 0
 1056 0670 17050000 		lla	a0,.LC13
 1056      13050500 
 1057 0678 97000000 		call	_ZN5Riscv11printStringEPKc@plt
 1057      E7800000 
 1058              	.LVL114:
 209:src/main.cpp  ****         for(int i = 0 ; i < num;i+=2)
 1059              		.loc 1 209 9 is_stmt 1
 209:src/main.cpp  ****         for(int i = 0 ; i < num;i+=2)
 1060              		.loc 1 209 28 is_stmt 0
 1061 0680 93090900 		mv	s3,s2
 1062 0684 13050900 		mv	a0,s2
 1063 0688 97000000 		call	_ZN5Riscv12printIntegerEm@plt
 1063      E7800000 
 1064              	.LVL115:
 1065              	.LBB30:
 210:src/main.cpp  ****         {
 1066              		.loc 1 210 17
 1067 0690 93040000 		li	s1,0
 1068              	.L69:
 1069              	.LVL116:
 210:src/main.cpp  ****         {
 1070              		.loc 1 210 27 is_stmt 1 discriminator 1
 1071 0694 93073006 		li	a5,99
 1072 0698 63CA970A 		bgt	s1,a5,.L75
 1073              	.LBB31:
 212:src/main.cpp  ****             Riscv::printInteger(i);
 1074              		.loc 1 212 13
 212:src/main.cpp  ****             Riscv::printInteger(i);
 1075              		.loc 1 212 31 is_stmt 0
 1076 069c 17050000 		lla	a0,.LC1
 1076      13050500 
 1077 06a4 97000000 		call	_ZN5Riscv11printStringEPKc@plt
 1077      E7800000 
 1078              	.LVL117:
 213:src/main.cpp  ****             Riscv::printString("free\n");
 1079              		.loc 1 213 13 is_stmt 1
 213:src/main.cpp  ****             Riscv::printString("free\n");
 1080              		.loc 1 213 32 is_stmt 0
 1081 06ac 13850400 		mv	a0,s1
 1082 06b0 97000000 		call	_ZN5Riscv12printIntegerEm@plt
 1082      E7800000 
 1083              	.LVL118:
 214:src/main.cpp  ****             int retval = mem_free(addrs[i]);
 1084              		.loc 1 214 13 is_stmt 1
 214:src/main.cpp  ****             int retval = mem_free(addrs[i]);
 1085              		.loc 1 214 31 is_stmt 0
 1086 06b8 17050000 		lla	a0,.LC14
 1086      13050500 
 1087 06c0 97000000 		call	_ZN5Riscv11printStringEPKc@plt
 1087      E7800000 
 1088              	.LVL119:
 215:src/main.cpp  ****             if(retval != 0)
 1089              		.loc 1 215 13 is_stmt 1
 215:src/main.cpp  ****             if(retval != 0)
GAS LISTING /tmp/ccSb9Eig.s 			page 29


 1090              		.loc 1 215 34 is_stmt 0
 1091 06c8 93973400 		slli	a5,s1,3
 1092 06cc 130704FD 		addi	a4,s0,-48
 1093 06d0 B307F700 		add	a5,a4,a5
 1094 06d4 03B507CE 		ld	a0,-800(a5)
 1095 06d8 97000000 		call	mem_free@plt
 1095      E7800000 
 1096              	.LVL120:
 216:src/main.cpp  ****             {
 1097              		.loc 1 216 13 is_stmt 1
 1098 06e0 63120504 		bnez	a0,.L77
 221:src/main.cpp  ****             addrs[i] = mem_alloc(sz/2);
 1099              		.loc 1 221 13
 221:src/main.cpp  ****             addrs[i] = mem_alloc(sz/2);
 1100              		.loc 1 221 31 is_stmt 0
 1101 06e4 17050000 		lla	a0,.LC15
 1101      13050500 
 1102              	.LVL121:
 1103 06ec 97000000 		call	_ZN5Riscv11printStringEPKc@plt
 1103      E7800000 
 1104              	.LVL122:
 222:src/main.cpp  ****             if(addrs[i] == 0)
 1105              		.loc 1 222 13 is_stmt 1
 222:src/main.cpp  ****             if(addrs[i] == 0)
 1106              		.loc 1 222 36 is_stmt 0
 1107 06f4 1B55F901 		srliw	a0,s2,31
 1108 06f8 3B052501 		addw	a0,a0,s2
 222:src/main.cpp  ****             if(addrs[i] == 0)
 1109              		.loc 1 222 33
 1110 06fc 1B551540 		sraiw	a0,a0,1
 1111 0700 97000000 		call	mem_alloc@plt
 1111      E7800000 
 1112              	.LVL123:
 222:src/main.cpp  ****             if(addrs[i] == 0)
 1113              		.loc 1 222 22
 1114 0708 93973400 		slli	a5,s1,3
 1115 070c 130704FD 		addi	a4,s0,-48
 1116 0710 B307F700 		add	a5,a4,a5
 1117 0714 23B0A7CE 		sd	a0,-800(a5)
 223:src/main.cpp  ****             {
 1118              		.loc 1 223 13 is_stmt 1
 1119 0718 63000502 		beqz	a0,.L78
 1120              	.LBE31:
 210:src/main.cpp  ****         {
 1121              		.loc 1 210 9 discriminator 2
 210:src/main.cpp  ****         {
 1122              		.loc 1 210 34 is_stmt 0 discriminator 2
 1123 071c 9B842400 		addiw	s1,s1,2
 1124              	.LVL124:
 210:src/main.cpp  ****         {
 1125              		.loc 1 210 9 discriminator 2
 1126 0720 6FF05FF7 		j	.L69
 1127              	.LVL125:
 1128              	.L77:
 1129              	.LBB32:
 218:src/main.cpp  ****                 return;
 1130              		.loc 1 218 17 is_stmt 1
GAS LISTING /tmp/ccSb9Eig.s 			page 30


 218:src/main.cpp  ****                 return;
 1131              		.loc 1 218 35 is_stmt 0
 1132 0724 17050000 		lla	a0,.LC7
 1132      13050500 
 1133              	.LVL126:
 1134 072c 97000000 		call	_ZN5Riscv11printStringEPKc@plt
 1134      E7800000 
 1135              	.LVL127:
 219:src/main.cpp  ****             }
 1136              		.loc 1 219 17 is_stmt 1
 1137 0734 6FF09FF1 		j	.L60
 1138              	.L78:
 225:src/main.cpp  ****                 return;
 1139              		.loc 1 225 17
 225:src/main.cpp  ****                 return;
 1140              		.loc 1 225 35 is_stmt 0
 1141 0738 17050000 		lla	a0,.LC16
 1141      13050500 
 1142 0740 97000000 		call	_ZN5Riscv11printStringEPKc@plt
 1142      E7800000 
 1143              	.LVL128:
 226:src/main.cpp  ****             }
 1144              		.loc 1 226 17 is_stmt 1
 1145 0748 6FF05FF0 		j	.L60
 1146              	.L75:
 1147              	.LBE32:
 1148              	.LBE30:
 1149              	.LBB33:
 231:src/main.cpp  ****         {
 1150              		.loc 1 231 17 is_stmt 0
 1151 074c 93041000 		li	s1,1
 1152              	.LVL129:
 1153              	.L66:
 231:src/main.cpp  ****         {
 1154              		.loc 1 231 27 is_stmt 1 discriminator 1
 1155 0750 93073006 		li	a5,99
 1156 0754 63C6970A 		bgt	s1,a5,.L70
 1157              	.LBB34:
 233:src/main.cpp  ****             Riscv::printInteger(i);
 1158              		.loc 1 233 13
 233:src/main.cpp  ****             Riscv::printInteger(i);
 1159              		.loc 1 233 31 is_stmt 0
 1160 0758 17050000 		lla	a0,.LC1
 1160      13050500 
 1161 0760 97000000 		call	_ZN5Riscv11printStringEPKc@plt
 1161      E7800000 
 1162              	.LVL130:
 234:src/main.cpp  ****             Riscv::printString("free\n");
 1163              		.loc 1 234 13 is_stmt 1
 234:src/main.cpp  ****             Riscv::printString("free\n");
 1164              		.loc 1 234 32 is_stmt 0
 1165 0768 13850400 		mv	a0,s1
 1166 076c 97000000 		call	_ZN5Riscv12printIntegerEm@plt
 1166      E7800000 
 1167              	.LVL131:
 235:src/main.cpp  ****             int retval = mem_free(addrs[i]);
 1168              		.loc 1 235 13 is_stmt 1
GAS LISTING /tmp/ccSb9Eig.s 			page 31


 235:src/main.cpp  ****             int retval = mem_free(addrs[i]);
 1169              		.loc 1 235 31 is_stmt 0
 1170 0774 17050000 		lla	a0,.LC14
 1170      13050500 
 1171 077c 97000000 		call	_ZN5Riscv11printStringEPKc@plt
 1171      E7800000 
 1172              	.LVL132:
 236:src/main.cpp  ****             if(retval != 0)
 1173              		.loc 1 236 13 is_stmt 1
 236:src/main.cpp  ****             if(retval != 0)
 1174              		.loc 1 236 34 is_stmt 0
 1175 0784 93973400 		slli	a5,s1,3
 1176 0788 130704FD 		addi	a4,s0,-48
 1177 078c B307F700 		add	a5,a4,a5
 1178 0790 03B507CE 		ld	a0,-800(a5)
 1179 0794 97000000 		call	mem_free@plt
 1179      E7800000 
 1180              	.LVL133:
 237:src/main.cpp  ****             {
 1181              		.loc 1 237 13 is_stmt 1
 1182 079c 631E0502 		bnez	a0,.L79
 242:src/main.cpp  ****             addrs[i] = mem_alloc(sz);
 1183              		.loc 1 242 13
 242:src/main.cpp  ****             addrs[i] = mem_alloc(sz);
 1184              		.loc 1 242 31 is_stmt 0
 1185 07a0 17050000 		lla	a0,.LC15
 1185      13050500 
 1186              	.LVL134:
 1187 07a8 97000000 		call	_ZN5Riscv11printStringEPKc@plt
 1187      E7800000 
 1188              	.LVL135:
 243:src/main.cpp  ****             if(addrs[i] == 0)
 1189              		.loc 1 243 13 is_stmt 1
 243:src/main.cpp  ****             if(addrs[i] == 0)
 1190              		.loc 1 243 33 is_stmt 0
 1191 07b0 13850900 		mv	a0,s3
 1192 07b4 97000000 		call	mem_alloc@plt
 1192      E7800000 
 1193              	.LVL136:
 243:src/main.cpp  ****             if(addrs[i] == 0)
 1194              		.loc 1 243 22
 1195 07bc 93973400 		slli	a5,s1,3
 1196 07c0 130704FD 		addi	a4,s0,-48
 1197 07c4 B307F700 		add	a5,a4,a5
 1198 07c8 23B0A7CE 		sd	a0,-800(a5)
 244:src/main.cpp  ****             {
 1199              		.loc 1 244 13 is_stmt 1
 1200 07cc 63000502 		beqz	a0,.L80
 1201              	.LBE34:
 231:src/main.cpp  ****         {
 1202              		.loc 1 231 9 discriminator 2
 231:src/main.cpp  ****         {
 1203              		.loc 1 231 34 is_stmt 0 discriminator 2
 1204 07d0 9B842400 		addiw	s1,s1,2
 1205              	.LVL137:
 231:src/main.cpp  ****         {
 1206              		.loc 1 231 9 discriminator 2
GAS LISTING /tmp/ccSb9Eig.s 			page 32


 1207 07d4 6FF0DFF7 		j	.L66
 1208              	.LVL138:
 1209              	.L79:
 1210              	.LBB35:
 239:src/main.cpp  ****                 return;
 1211              		.loc 1 239 17 is_stmt 1
 239:src/main.cpp  ****                 return;
 1212              		.loc 1 239 35 is_stmt 0
 1213 07d8 17050000 		lla	a0,.LC7
 1213      13050500 
 1214              	.LVL139:
 1215 07e0 97000000 		call	_ZN5Riscv11printStringEPKc@plt
 1215      E7800000 
 1216              	.LVL140:
 240:src/main.cpp  ****             }
 1217              		.loc 1 240 17 is_stmt 1
 1218 07e8 6FF05FE6 		j	.L60
 1219              	.L80:
 246:src/main.cpp  ****                 return;
 1220              		.loc 1 246 17
 246:src/main.cpp  ****                 return;
 1221              		.loc 1 246 35 is_stmt 0
 1222 07ec 17050000 		lla	a0,.LC16
 1222      13050500 
 1223 07f4 97000000 		call	_ZN5Riscv11printStringEPKc@plt
 1223      E7800000 
 1224              	.LVL141:
 247:src/main.cpp  ****             }
 1225              		.loc 1 247 17 is_stmt 1
 1226 07fc 6FF01FE5 		j	.L60
 1227              	.L70:
 1228              	.LBE35:
 1229              	.LBE33:
 251:src/main.cpp  ****     }
 1230              		.loc 1 251 9
 251:src/main.cpp  ****     }
 1231              		.loc 1 251 11 is_stmt 0
 1232 0800 1B0969FF 		addiw	s2,s2,-10
 1233              	.LVL142:
 1234              	.LBE29:
 206:src/main.cpp  ****     {
 1235              		.loc 1 206 5
 1236 0804 6FF09FE6 		j	.L61
 1237              	.LVL143:
 1238              	.L65:
 254:src/main.cpp  **** }
 1239              		.loc 1 254 5 is_stmt 1
 254:src/main.cpp  **** }
 1240              		.loc 1 254 23 is_stmt 0
 1241 0808 17050000 		lla	a0,.LC8
 1241      13050500 
 1242 0810 97000000 		call	_ZN5Riscv11printStringEPKc@plt
 1242      E7800000 
 1243              	.LVL144:
 1244 0818 6FF05FE3 		j	.L60
 1245              		.cfi_endproc
 1246              	.LFE28:
GAS LISTING /tmp/ccSb9Eig.s 			page 33


 1248              		.align	2
 1249              		.globl	_Z21memoryAllocationTestsv
 1251              	_Z21memoryAllocationTestsv:
 1252              	.LFB29:
 256:src/main.cpp  **** 
 257:src/main.cpp  **** void memoryAllocationTests()
 258:src/main.cpp  **** {
 1253              		.loc 1 258 1 is_stmt 1
 1254              		.cfi_startproc
 1255 081c 130101FF 		addi	sp,sp,-16
 1256              		.cfi_def_cfa_offset 16
 1257 0820 23341100 		sd	ra,8(sp)
 1258 0824 23308100 		sd	s0,0(sp)
 1259              		.cfi_offset 1, -8
 1260              		.cfi_offset 8, -16
 1261 0828 13040101 		addi	s0,sp,16
 1262              		.cfi_def_cfa 8, 0
 259:src/main.cpp  ****     //bigMalloc();
 260:src/main.cpp  ****     //lotOfSmallMallocs();
 261:src/main.cpp  ****     //mallocFree();
 262:src/main.cpp  ****     //badFree();
 263:src/main.cpp  ****     stressTesting();
 1263              		.loc 1 263 5
 1264              		.loc 1 263 18 is_stmt 0
 1265 082c 97000000 		call	_Z13stressTestingv
 1265      E7800000 
 1266              	.LVL145:
 264:src/main.cpp  **** }
 1267              		.loc 1 264 1
 1268 0834 83308100 		ld	ra,8(sp)
 1269              		.cfi_restore 1
 1270 0838 03340100 		ld	s0,0(sp)
 1271              		.cfi_restore 8
 1272              		.cfi_def_cfa 2, 16
 1273 083c 13010101 		addi	sp,sp,16
 1274              		.cfi_def_cfa_offset 0
 1275 0840 67800000 		jr	ra
 1276              		.cfi_endproc
 1277              	.LFE29:
 1279              		.align	2
 1280              		.globl	main
 1282              	main:
 1283              	.LFB19:
  27:src/main.cpp  ****     Riscv::initSystem();
 1284              		.loc 1 27 1 is_stmt 1
 1285              		.cfi_startproc
 1286 0844 130101FF 		addi	sp,sp,-16
 1287              		.cfi_def_cfa_offset 16
 1288 0848 23341100 		sd	ra,8(sp)
 1289 084c 23308100 		sd	s0,0(sp)
 1290              		.cfi_offset 1, -8
 1291              		.cfi_offset 8, -16
 1292 0850 13040101 		addi	s0,sp,16
 1293              		.cfi_def_cfa 8, 0
  28:src/main.cpp  **** 
 1294              		.loc 1 28 5
  28:src/main.cpp  **** 
GAS LISTING /tmp/ccSb9Eig.s 			page 34


 1295              		.loc 1 28 22 is_stmt 0
 1296 0854 97000000 		call	_ZN5Riscv10initSystemEv@plt
 1296      E7800000 
 1297              	.LVL146:
  30:src/main.cpp  ****     //threadTests();
 1298              		.loc 1 30 5 is_stmt 1
  30:src/main.cpp  ****     //threadTests();
 1299              		.loc 1 30 26 is_stmt 0
 1300 085c 97000000 		call	_Z21memoryAllocationTestsv
 1300      E7800000 
 1301              	.LVL147:
  33:src/main.cpp  **** 
 1302              		.loc 1 33 1
 1303 0864 83308100 		ld	ra,8(sp)
 1304              		.cfi_restore 1
 1305 0868 03340100 		ld	s0,0(sp)
 1306              		.cfi_restore 8
 1307              		.cfi_def_cfa 2, 16
 1308 086c 13010101 		addi	sp,sp,16
 1309              		.cfi_def_cfa_offset 0
 1310 0870 67800000 		jr	ra
 1311              		.cfi_endproc
 1312              	.LFE19:
 1314              	.Letext0:
 1315              		.file 3 "src/../h/../lib/hw.h"
 1316              		.file 4 "src/../h/Queue.h"
 1317              		.file 5 "src/../h/Scheduler.h"
 1318              		.file 6 "src/../h/Riscv.h"
 1319              		.file 7 "src/../h/syscall_cpp.h"
 1320              		.file 8 "src/../h/syscall_c.h"
 5632              		.align	3
 5635              	DW.ref.__gxx_personality_v0:
 5636 0000 00000000 		.dword	__gxx_personality_v0
 5636      00000000 
 5637              		.ident	"GCC: (Ubuntu 9.3.0-17ubuntu1~20.04) 9.3.0"
 5638              		.section	.note.GNU-stack,"",@progbits
GAS LISTING /tmp/ccSb9Eig.s 			page 35


DEFINED SYMBOLS
                            *ABS*:0000000000000000 main.cpp
     /tmp/ccSb9Eig.s:20     .text:0000000000000000 _Z15thread1FunctionPv
     /tmp/ccSb9Eig.s:24     .text:0000000000000000 .L0 
     /tmp/ccSb9Eig.s:26     .text:0000000000000000 .L0 
     /tmp/ccSb9Eig.s:27     .text:0000000000000004 .L0 
     /tmp/ccSb9Eig.s:31     .text:0000000000000010 .L0 
     /tmp/ccSb9Eig.s:32     .text:0000000000000010 .L0 
     /tmp/ccSb9Eig.s:33     .text:0000000000000010 .L0 
     /tmp/ccSb9Eig.s:35     .text:0000000000000014 .L0 
     /tmp/ccSb9Eig.s:37     .text:0000000000000014 .L0 
     /tmp/ccSb9Eig.s:38     .text:0000000000000014 .L0 
     /tmp/ccSb9Eig.s:44     .text:0000000000000024 .L0 
     /tmp/ccSb9Eig.s:45     .text:0000000000000024 .L0 
     /tmp/ccSb9Eig.s:50     .text:000000000000002c .L0 
     /tmp/ccSb9Eig.s:51     .text:000000000000002c .L0 
     /tmp/ccSb9Eig.s:55     .text:000000000000003c .L0 
     /tmp/ccSb9Eig.s:56     .text:000000000000003c .L0 
     /tmp/ccSb9Eig.s:60     .text:0000000000000048 .L0 
     /tmp/ccSb9Eig.s:61     .text:0000000000000048 .L0 
     /tmp/ccSb9Eig.s:65     .text:0000000000000058 .L0 
     /tmp/ccSb9Eig.s:69     .text:000000000000005c .L0 
     /tmp/ccSb9Eig.s:72     .text:0000000000000064 .L0 
     /tmp/ccSb9Eig.s:73     .text:0000000000000064 .L0 
     /tmp/ccSb9Eig.s:76     .text:000000000000006c .L0 
     /tmp/ccSb9Eig.s:79     .text:0000000000000074 .L0 
     /tmp/ccSb9Eig.s:80     .text:0000000000000074 .L0 
     /tmp/ccSb9Eig.s:82     .text:0000000000000078 .L0 
     /tmp/ccSb9Eig.s:84     .text:000000000000007c .L0 
     /tmp/ccSb9Eig.s:86     .text:0000000000000080 .L0 
     /tmp/ccSb9Eig.s:87     .text:0000000000000080 .L0 
     /tmp/ccSb9Eig.s:93     .text:000000000000008c .L0 
     /tmp/ccSb9Eig.s:94     .text:0000000000000090 .L0 
     /tmp/ccSb9Eig.s:96     .text:0000000000000094 .L0 
     /tmp/ccSb9Eig.s:97     .text:0000000000000094 .L0 
     /tmp/ccSb9Eig.s:99     .text:0000000000000098 .L0 
     /tmp/ccSb9Eig.s:102    .text:000000000000009c .L0 
     /tmp/ccSb9Eig.s:104    .text:00000000000000a0 .L0 
     /tmp/ccSb9Eig.s:118    .text:00000000000000a0 _Z15thread2FunctionPv
     /tmp/ccSb9Eig.s:121    .text:00000000000000a0 .L0 
     /tmp/ccSb9Eig.s:123    .text:00000000000000a0 .L0 
     /tmp/ccSb9Eig.s:124    .text:00000000000000a4 .L0 
     /tmp/ccSb9Eig.s:128    .text:00000000000000b0 .L0 
     /tmp/ccSb9Eig.s:129    .text:00000000000000b0 .L0 
     /tmp/ccSb9Eig.s:130    .text:00000000000000b0 .L0 
     /tmp/ccSb9Eig.s:132    .text:00000000000000b4 .L0 
     /tmp/ccSb9Eig.s:134    .text:00000000000000b4 .L0 
     /tmp/ccSb9Eig.s:135    .text:00000000000000b4 .L0 
     /tmp/ccSb9Eig.s:141    .text:00000000000000c4 .L0 
     /tmp/ccSb9Eig.s:142    .text:00000000000000c4 .L0 
     /tmp/ccSb9Eig.s:147    .text:00000000000000cc .L0 
     /tmp/ccSb9Eig.s:148    .text:00000000000000cc .L0 
     /tmp/ccSb9Eig.s:152    .text:00000000000000dc .L0 
     /tmp/ccSb9Eig.s:153    .text:00000000000000dc .L0 
     /tmp/ccSb9Eig.s:157    .text:00000000000000e8 .L0 
     /tmp/ccSb9Eig.s:158    .text:00000000000000e8 .L0 
     /tmp/ccSb9Eig.s:162    .text:00000000000000f8 .L0 
GAS LISTING /tmp/ccSb9Eig.s 			page 36


     /tmp/ccSb9Eig.s:166    .text:00000000000000fc .L0 
     /tmp/ccSb9Eig.s:169    .text:0000000000000104 .L0 
     /tmp/ccSb9Eig.s:170    .text:0000000000000104 .L0 
     /tmp/ccSb9Eig.s:173    .text:000000000000010c .L0 
     /tmp/ccSb9Eig.s:176    .text:0000000000000114 .L0 
     /tmp/ccSb9Eig.s:177    .text:0000000000000114 .L0 
     /tmp/ccSb9Eig.s:180    .text:000000000000011c .L0 
     /tmp/ccSb9Eig.s:182    .text:0000000000000120 .L0 
     /tmp/ccSb9Eig.s:184    .text:0000000000000124 .L0 
     /tmp/ccSb9Eig.s:185    .text:0000000000000124 .L0 
     /tmp/ccSb9Eig.s:191    .text:0000000000000130 .L0 
     /tmp/ccSb9Eig.s:192    .text:0000000000000134 .L0 
     /tmp/ccSb9Eig.s:194    .text:0000000000000138 .L0 
     /tmp/ccSb9Eig.s:195    .text:0000000000000138 .L0 
     /tmp/ccSb9Eig.s:197    .text:000000000000013c .L0 
     /tmp/ccSb9Eig.s:200    .text:0000000000000140 .L0 
     /tmp/ccSb9Eig.s:202    .text:0000000000000144 .L0 
     /tmp/ccSb9Eig.s:208    .text:0000000000000144 _Z9testQueuev
     /tmp/ccSb9Eig.s:211    .text:0000000000000144 .L0 
     /tmp/ccSb9Eig.s:212    .text:0000000000000144 .L0 
     /tmp/ccSb9Eig.s:213    .text:0000000000000148 .L0 
     /tmp/ccSb9Eig.s:215    .text:000000000000014c .L0 
     /tmp/ccSb9Eig.s:217    .text:0000000000000150 .L0 
     /tmp/ccSb9Eig.s:219    .text:0000000000000150 .L0 
     /tmp/ccSb9Eig.s:220    .text:0000000000000154 .L0 
     /tmp/ccSb9Eig.s:221    .text:0000000000000154 .L0 
     /tmp/ccSb9Eig.s:223    .text:0000000000000158 .L0 
     /tmp/ccSb9Eig.s:225    .text:000000000000015c .L0 
     /tmp/ccSb9Eig.s:236    .text:000000000000015c _Z11threadTestsv
     /tmp/ccSb9Eig.s:239    .text:000000000000015c .L0 
     /tmp/ccSb9Eig.s:5635   .data.rel.local.DW.ref.__gxx_personality_v0:0000000000000000 DW.ref.__gxx_personality_v0
     /tmp/ccSb9Eig.s:242    .text:000000000000015c .L0 
     /tmp/ccSb9Eig.s:243    .text:0000000000000160 .L0 
     /tmp/ccSb9Eig.s:248    .text:0000000000000170 .L0 
     /tmp/ccSb9Eig.s:249    .text:0000000000000170 .L0 
     /tmp/ccSb9Eig.s:250    .text:0000000000000170 .L0 
     /tmp/ccSb9Eig.s:251    .text:0000000000000170 .L0 
     /tmp/ccSb9Eig.s:253    .text:0000000000000174 .L0 
     /tmp/ccSb9Eig.s:255    .text:0000000000000174 .L0 
     /tmp/ccSb9Eig.s:256    .text:0000000000000174 .L0 
     /tmp/ccSb9Eig.s:269    .text:0000000000000194 .L0 
     /tmp/ccSb9Eig.s:270    .text:0000000000000194 .L0 
     /tmp/ccSb9Eig.s:272    .text:0000000000000198 .L0 
     /tmp/ccSb9Eig.s:279    .text:00000000000001a4 .L0 
     /tmp/ccSb9Eig.s:280    .text:00000000000001a4 .L0 
     /tmp/ccSb9Eig.s:281    .text:00000000000001a4 .L0 
     /tmp/ccSb9Eig.s:287    .text:00000000000001ac .L0 
     /tmp/ccSb9Eig.s:288    .text:00000000000001ac .L0 
     /tmp/ccSb9Eig.s:302    .text:00000000000001d0 .L0 
     /tmp/ccSb9Eig.s:303    .text:00000000000001d0 .L0 
     /tmp/ccSb9Eig.s:308    .text:00000000000001dc .L0 
     /tmp/ccSb9Eig.s:309    .text:00000000000001dc .L0 
     /tmp/ccSb9Eig.s:321    .text:0000000000000200 .L0 
     /tmp/ccSb9Eig.s:322    .text:0000000000000200 .L0 
     /tmp/ccSb9Eig.s:329    .text:0000000000000210 .L0 
     /tmp/ccSb9Eig.s:330    .text:0000000000000210 .L0 
     /tmp/ccSb9Eig.s:334    .text:0000000000000218 .L0 
GAS LISTING /tmp/ccSb9Eig.s 			page 37


     /tmp/ccSb9Eig.s:335    .text:0000000000000218 .L0 
     /tmp/ccSb9Eig.s:336    .text:0000000000000218 .L0 
     /tmp/ccSb9Eig.s:341    .text:000000000000021c .L0 
     /tmp/ccSb9Eig.s:342    .text:000000000000021c .L0 
     /tmp/ccSb9Eig.s:347    .text:0000000000000220 .L0 
     /tmp/ccSb9Eig.s:350    .text:0000000000000228 .L0 
     /tmp/ccSb9Eig.s:355    .text:000000000000022c .L0 
     /tmp/ccSb9Eig.s:356    .text:000000000000022c .L0 
     /tmp/ccSb9Eig.s:361    .text:0000000000000230 .L0 
     /tmp/ccSb9Eig.s:364    .text:0000000000000238 .L0 
     /tmp/ccSb9Eig.s:365    .text:0000000000000238 .L0 
     /tmp/ccSb9Eig.s:370    .text:0000000000000248 .L0 
     /tmp/ccSb9Eig.s:371    .text:000000000000024c .L0 
     /tmp/ccSb9Eig.s:372    .text:000000000000024c .L0 
     /tmp/ccSb9Eig.s:374    .text:0000000000000250 .L0 
     /tmp/ccSb9Eig.s:375    .text:0000000000000250 .L0 
     /tmp/ccSb9Eig.s:377    .text:0000000000000254 .L0 
     /tmp/ccSb9Eig.s:380    .text:0000000000000258 .L0 
     /tmp/ccSb9Eig.s:383    .text:000000000000025c .L0 
     /tmp/ccSb9Eig.s:386    .text:0000000000000260 .L0 
     /tmp/ccSb9Eig.s:389    .text:0000000000000264 .L0 
     /tmp/ccSb9Eig.s:400    .text:0000000000000280 .L0 
     /tmp/ccSb9Eig.s:412    .text:000000000000029c .L0 
     /tmp/ccSb9Eig.s:420    .text:00000000000002b4 .L0 
     /tmp/ccSb9Eig.s:485    .text:00000000000002b4 _Z10mallocFreev
     /tmp/ccSb9Eig.s:488    .text:00000000000002b4 .L0 
     /tmp/ccSb9Eig.s:489    .text:00000000000002b4 .L0 
     /tmp/ccSb9Eig.s:490    .text:00000000000002b8 .L0 
     /tmp/ccSb9Eig.s:494    .text:00000000000002c4 .L0 
     /tmp/ccSb9Eig.s:495    .text:00000000000002c4 .L0 
     /tmp/ccSb9Eig.s:496    .text:00000000000002c4 .L0 
     /tmp/ccSb9Eig.s:498    .text:00000000000002c8 .L0 
     /tmp/ccSb9Eig.s:500    .text:00000000000002c8 .L0 
     /tmp/ccSb9Eig.s:501    .text:00000000000002c8 .L0 
     /tmp/ccSb9Eig.s:506    .text:00000000000002d8 .L0 
     /tmp/ccSb9Eig.s:511    .text:00000000000002e0 .L0 
     /tmp/ccSb9Eig.s:515    .text:00000000000002e4 .L0 
     /tmp/ccSb9Eig.s:518    .text:00000000000002ec .L0 
     /tmp/ccSb9Eig.s:519    .text:00000000000002ec .L0 
     /tmp/ccSb9Eig.s:523    .text:00000000000002f8 .L0 
     /tmp/ccSb9Eig.s:528    .text:0000000000000308 .L0 
     /tmp/ccSb9Eig.s:530    .text:000000000000030c .L0 
     /tmp/ccSb9Eig.s:531    .text:000000000000030c .L0 
     /tmp/ccSb9Eig.s:537    .text:000000000000031c .L0 
     /tmp/ccSb9Eig.s:538    .text:000000000000031c .L0 
     /tmp/ccSb9Eig.s:539    .text:0000000000000320 .L0 
     /tmp/ccSb9Eig.s:540    .text:0000000000000320 .L0 
     /tmp/ccSb9Eig.s:542    .text:0000000000000324 .L0 
     /tmp/ccSb9Eig.s:543    .text:0000000000000324 .L0 
     /tmp/ccSb9Eig.s:545    .text:0000000000000328 .L0 
     /tmp/ccSb9Eig.s:547    .text:000000000000032c .L0 
     /tmp/ccSb9Eig.s:551    .text:0000000000000330 .L0 
     /tmp/ccSb9Eig.s:554    .text:0000000000000330 .L0 
     /tmp/ccSb9Eig.s:558    .text:0000000000000334 .L0 
     /tmp/ccSb9Eig.s:562    .text:000000000000033c .L0 
     /tmp/ccSb9Eig.s:563    .text:000000000000033c .L0 
     /tmp/ccSb9Eig.s:570    .text:0000000000000354 .L0 
GAS LISTING /tmp/ccSb9Eig.s 			page 38


     /tmp/ccSb9Eig.s:573    .text:0000000000000358 .L0 
     /tmp/ccSb9Eig.s:574    .text:0000000000000358 .L0 
     /tmp/ccSb9Eig.s:577    .text:000000000000035c .L0 
     /tmp/ccSb9Eig.s:582    .text:0000000000000360 .L0 
     /tmp/ccSb9Eig.s:583    .text:0000000000000360 .L0 
     /tmp/ccSb9Eig.s:588    .text:0000000000000370 .L0 
     /tmp/ccSb9Eig.s:594    .text:0000000000000374 .L0 
     /tmp/ccSb9Eig.s:600    .text:000000000000037c .L0 
     /tmp/ccSb9Eig.s:601    .text:000000000000037c .L0 
     /tmp/ccSb9Eig.s:605    .text:0000000000000380 .L0 
     /tmp/ccSb9Eig.s:608    .text:0000000000000388 .L0 
     /tmp/ccSb9Eig.s:609    .text:0000000000000388 .L0 
     /tmp/ccSb9Eig.s:613    .text:0000000000000394 .L0 
     /tmp/ccSb9Eig.s:618    .text:00000000000003a4 .L0 
     /tmp/ccSb9Eig.s:620    .text:00000000000003a8 .L0 
     /tmp/ccSb9Eig.s:621    .text:00000000000003a8 .L0 
     /tmp/ccSb9Eig.s:625    .text:00000000000003b8 .L0 
     /tmp/ccSb9Eig.s:630    .text:00000000000003bc .L0 
     /tmp/ccSb9Eig.s:634    .text:00000000000003c0 .L0 
     /tmp/ccSb9Eig.s:638    .text:00000000000003c8 .L0 
     /tmp/ccSb9Eig.s:639    .text:00000000000003c8 .L0 
     /tmp/ccSb9Eig.s:646    .text:00000000000003e0 .L0 
     /tmp/ccSb9Eig.s:649    .text:00000000000003e4 .L0 
     /tmp/ccSb9Eig.s:656    .text:00000000000003ec .L0 
     /tmp/ccSb9Eig.s:657    .text:00000000000003ec .L0 
     /tmp/ccSb9Eig.s:662    .text:00000000000003fc .L0 
     /tmp/ccSb9Eig.s:667    .text:0000000000000400 .L0 
     /tmp/ccSb9Eig.s:668    .text:0000000000000400 .L0 
     /tmp/ccSb9Eig.s:672    .text:0000000000000414 .L0 
     /tmp/ccSb9Eig.s:683    .text:0000000000000414 _Z9bigMallocv
     /tmp/ccSb9Eig.s:686    .text:0000000000000414 .L0 
     /tmp/ccSb9Eig.s:687    .text:0000000000000414 .L0 
     /tmp/ccSb9Eig.s:688    .text:0000000000000418 .L0 
     /tmp/ccSb9Eig.s:691    .text:0000000000000420 .L0 
     /tmp/ccSb9Eig.s:692    .text:0000000000000420 .L0 
     /tmp/ccSb9Eig.s:694    .text:0000000000000424 .L0 
     /tmp/ccSb9Eig.s:696    .text:0000000000000424 .L0 
     /tmp/ccSb9Eig.s:697    .text:0000000000000424 .L0 
     /tmp/ccSb9Eig.s:701    .text:0000000000000434 .L0 
     /tmp/ccSb9Eig.s:702    .text:0000000000000434 .L0 
     /tmp/ccSb9Eig.s:709    .text:0000000000000450 .L0 
     /tmp/ccSb9Eig.s:710    .text:0000000000000450 .L0 
     /tmp/ccSb9Eig.s:715    .text:000000000000045c .L0 
     /tmp/ccSb9Eig.s:717    .text:0000000000000460 .L0 
     /tmp/ccSb9Eig.s:718    .text:0000000000000460 .L0 
     /tmp/ccSb9Eig.s:724    .text:0000000000000470 .L0 
     /tmp/ccSb9Eig.s:725    .text:0000000000000474 .L0 
     /tmp/ccSb9Eig.s:726    .text:0000000000000474 .L0 
     /tmp/ccSb9Eig.s:728    .text:0000000000000478 .L0 
     /tmp/ccSb9Eig.s:729    .text:0000000000000478 .L0 
     /tmp/ccSb9Eig.s:731    .text:000000000000047c .L0 
     /tmp/ccSb9Eig.s:735    .text:0000000000000480 .L0 
     /tmp/ccSb9Eig.s:737    .text:0000000000000480 .L0 
     /tmp/ccSb9Eig.s:738    .text:0000000000000480 .L0 
     /tmp/ccSb9Eig.s:743    .text:0000000000000494 .L0 
     /tmp/ccSb9Eig.s:754    .text:0000000000000494 _Z17lotOfSmallMallocsv
     /tmp/ccSb9Eig.s:757    .text:0000000000000494 .L0 
GAS LISTING /tmp/ccSb9Eig.s 			page 39


     /tmp/ccSb9Eig.s:758    .text:0000000000000494 .L0 
     /tmp/ccSb9Eig.s:759    .text:0000000000000498 .L0 
     /tmp/ccSb9Eig.s:765    .text:00000000000004ac .L0 
     /tmp/ccSb9Eig.s:766    .text:00000000000004ac .L0 
     /tmp/ccSb9Eig.s:767    .text:00000000000004ac .L0 
     /tmp/ccSb9Eig.s:768    .text:00000000000004ac .L0 
     /tmp/ccSb9Eig.s:769    .text:00000000000004ac .L0 
     /tmp/ccSb9Eig.s:771    .text:00000000000004b0 .L0 
     /tmp/ccSb9Eig.s:773    .text:00000000000004b0 .L0 
     /tmp/ccSb9Eig.s:774    .text:00000000000004b0 .L0 
     /tmp/ccSb9Eig.s:778    .text:00000000000004c0 .L0 
     /tmp/ccSb9Eig.s:779    .text:00000000000004c0 .L0 
     /tmp/ccSb9Eig.s:780    .text:00000000000004c0 .L0 
     /tmp/ccSb9Eig.s:781    .text:00000000000004c0 .L0 
     /tmp/ccSb9Eig.s:783    .text:00000000000004c0 .L0 
     /tmp/ccSb9Eig.s:784    .text:00000000000004c0 .L0 
     /tmp/ccSb9Eig.s:787    .text:00000000000004c4 .L0 
     /tmp/ccSb9Eig.s:789    .text:00000000000004c8 .L0 
     /tmp/ccSb9Eig.s:796    .text:00000000000004d0 .L0 
     /tmp/ccSb9Eig.s:797    .text:00000000000004d0 .L0 
     /tmp/ccSb9Eig.s:800    .text:00000000000004d8 .L0 
     /tmp/ccSb9Eig.s:801    .text:00000000000004d8 .L0 
     /tmp/ccSb9Eig.s:804    .text:00000000000004dc .L0 
     /tmp/ccSb9Eig.s:805    .text:00000000000004dc .L0 
     /tmp/ccSb9Eig.s:809    .text:00000000000004e0 .L0 
     /tmp/ccSb9Eig.s:813    .text:00000000000004e4 .L0 
     /tmp/ccSb9Eig.s:818    .text:00000000000004f0 .L0 
     /tmp/ccSb9Eig.s:819    .text:00000000000004f0 .L0 
     /tmp/ccSb9Eig.s:823    .text:00000000000004fc .L0 
     /tmp/ccSb9Eig.s:829    .text:0000000000000500 .L0 
     /tmp/ccSb9Eig.s:830    .text:0000000000000500 .L0 
     /tmp/ccSb9Eig.s:834    .text:000000000000050c .L0 
     /tmp/ccSb9Eig.s:835    .text:000000000000050c .L0 
     /tmp/ccSb9Eig.s:839    .text:000000000000051c .L0 
     /tmp/ccSb9Eig.s:840    .text:000000000000051c .L0 
     /tmp/ccSb9Eig.s:845    .text:0000000000000528 .L0 
     /tmp/ccSb9Eig.s:847    .text:000000000000052c .L0 
     /tmp/ccSb9Eig.s:848    .text:000000000000052c .L0 
     /tmp/ccSb9Eig.s:853    .text:000000000000053c .L0 
     /tmp/ccSb9Eig.s:854    .text:0000000000000540 .L0 
     /tmp/ccSb9Eig.s:855    .text:0000000000000540 .L0 
     /tmp/ccSb9Eig.s:857    .text:0000000000000544 .L0 
     /tmp/ccSb9Eig.s:858    .text:0000000000000544 .L0 
     /tmp/ccSb9Eig.s:860    .text:0000000000000548 .L0 
     /tmp/ccSb9Eig.s:863    .text:000000000000054c .L0 
     /tmp/ccSb9Eig.s:865    .text:0000000000000550 .L0 
     /tmp/ccSb9Eig.s:868    .text:0000000000000554 .L0 
     /tmp/ccSb9Eig.s:872    .text:0000000000000558 .L0 
     /tmp/ccSb9Eig.s:874    .text:0000000000000558 .L0 
     /tmp/ccSb9Eig.s:875    .text:0000000000000558 .L0 
     /tmp/ccSb9Eig.s:879    .text:000000000000056c .L0 
     /tmp/ccSb9Eig.s:890    .text:000000000000056c _Z7badFreev
     /tmp/ccSb9Eig.s:893    .text:000000000000056c .L0 
     /tmp/ccSb9Eig.s:894    .text:000000000000056c .L0 
     /tmp/ccSb9Eig.s:895    .text:0000000000000570 .L0 
     /tmp/ccSb9Eig.s:898    .text:0000000000000578 .L0 
     /tmp/ccSb9Eig.s:899    .text:0000000000000578 .L0 
GAS LISTING /tmp/ccSb9Eig.s 			page 40


     /tmp/ccSb9Eig.s:901    .text:000000000000057c .L0 
     /tmp/ccSb9Eig.s:903    .text:000000000000057c .L0 
     /tmp/ccSb9Eig.s:904    .text:000000000000057c .L0 
     /tmp/ccSb9Eig.s:908    .text:000000000000058c .L0 
     /tmp/ccSb9Eig.s:909    .text:000000000000058c .L0 
     /tmp/ccSb9Eig.s:913    .text:0000000000000598 .L0 
     /tmp/ccSb9Eig.s:914    .text:0000000000000598 .L0 
     /tmp/ccSb9Eig.s:919    .text:00000000000005a4 .L0 
     /tmp/ccSb9Eig.s:921    .text:00000000000005a8 .L0 
     /tmp/ccSb9Eig.s:922    .text:00000000000005a8 .L0 
     /tmp/ccSb9Eig.s:928    .text:00000000000005b8 .L0 
     /tmp/ccSb9Eig.s:929    .text:00000000000005bc .L0 
     /tmp/ccSb9Eig.s:930    .text:00000000000005bc .L0 
     /tmp/ccSb9Eig.s:932    .text:00000000000005c0 .L0 
     /tmp/ccSb9Eig.s:933    .text:00000000000005c0 .L0 
     /tmp/ccSb9Eig.s:935    .text:00000000000005c4 .L0 
     /tmp/ccSb9Eig.s:939    .text:00000000000005c8 .L0 
     /tmp/ccSb9Eig.s:941    .text:00000000000005c8 .L0 
     /tmp/ccSb9Eig.s:942    .text:00000000000005c8 .L0 
     /tmp/ccSb9Eig.s:947    .text:00000000000005d8 .L0 
     /tmp/ccSb9Eig.s:948    .text:00000000000005dc .L0 
     /tmp/ccSb9Eig.s:971    .text:00000000000005dc _Z13stressTestingv
     /tmp/ccSb9Eig.s:974    .text:00000000000005dc .L0 
     /tmp/ccSb9Eig.s:975    .text:00000000000005dc .L0 
     /tmp/ccSb9Eig.s:976    .text:00000000000005e0 .L0 
     /tmp/ccSb9Eig.s:982    .text:00000000000005f4 .L0 
     /tmp/ccSb9Eig.s:983    .text:00000000000005f4 .L0 
     /tmp/ccSb9Eig.s:984    .text:00000000000005f4 .L0 
     /tmp/ccSb9Eig.s:985    .text:00000000000005f4 .L0 
     /tmp/ccSb9Eig.s:986    .text:00000000000005f4 .L0 
     /tmp/ccSb9Eig.s:988    .text:00000000000005f8 .L0 
     /tmp/ccSb9Eig.s:990    .text:00000000000005f8 .L0 
     /tmp/ccSb9Eig.s:991    .text:00000000000005f8 .L0 
     /tmp/ccSb9Eig.s:996    .text:0000000000000608 .L0 
     /tmp/ccSb9Eig.s:1001   .text:0000000000000610 .L0 
     /tmp/ccSb9Eig.s:1005   .text:0000000000000614 .L0 
     /tmp/ccSb9Eig.s:1008   .text:000000000000061c .L0 
     /tmp/ccSb9Eig.s:1009   .text:000000000000061c .L0 
     /tmp/ccSb9Eig.s:1013   .text:0000000000000628 .L0 
     /tmp/ccSb9Eig.s:1018   .text:0000000000000638 .L0 
     /tmp/ccSb9Eig.s:1020   .text:000000000000063c .L0 
     /tmp/ccSb9Eig.s:1021   .text:000000000000063c .L0 
     /tmp/ccSb9Eig.s:1027   .text:000000000000064c .L0 
     /tmp/ccSb9Eig.s:1028   .text:000000000000064c .L0 
     /tmp/ccSb9Eig.s:1029   .text:0000000000000650 .L0 
     /tmp/ccSb9Eig.s:1030   .text:0000000000000650 .L0 
     /tmp/ccSb9Eig.s:1032   .text:0000000000000654 .L0 
     /tmp/ccSb9Eig.s:1033   .text:0000000000000654 .L0 
     /tmp/ccSb9Eig.s:1035   .text:0000000000000658 .L0 
     /tmp/ccSb9Eig.s:1037   .text:000000000000065c .L0 
     /tmp/ccSb9Eig.s:1039   .text:0000000000000660 .L0 
     /tmp/ccSb9Eig.s:1041   .text:0000000000000664 .L0 
     /tmp/ccSb9Eig.s:1045   .text:0000000000000668 .L0 
     /tmp/ccSb9Eig.s:1047   .text:0000000000000668 .L0 
     /tmp/ccSb9Eig.s:1051   .text:000000000000066c .L0 
     /tmp/ccSb9Eig.s:1052   .text:000000000000066c .L0 
     /tmp/ccSb9Eig.s:1055   .text:0000000000000670 .L0 
GAS LISTING /tmp/ccSb9Eig.s 			page 41


     /tmp/ccSb9Eig.s:1056   .text:0000000000000670 .L0 
     /tmp/ccSb9Eig.s:1060   .text:0000000000000680 .L0 
     /tmp/ccSb9Eig.s:1061   .text:0000000000000680 .L0 
     /tmp/ccSb9Eig.s:1067   .text:0000000000000690 .L0 
     /tmp/ccSb9Eig.s:1071   .text:0000000000000694 .L0 
     /tmp/ccSb9Eig.s:1075   .text:000000000000069c .L0 
     /tmp/ccSb9Eig.s:1076   .text:000000000000069c .L0 
     /tmp/ccSb9Eig.s:1080   .text:00000000000006ac .L0 
     /tmp/ccSb9Eig.s:1081   .text:00000000000006ac .L0 
     /tmp/ccSb9Eig.s:1085   .text:00000000000006b8 .L0 
     /tmp/ccSb9Eig.s:1086   .text:00000000000006b8 .L0 
     /tmp/ccSb9Eig.s:1090   .text:00000000000006c8 .L0 
     /tmp/ccSb9Eig.s:1091   .text:00000000000006c8 .L0 
     /tmp/ccSb9Eig.s:1098   .text:00000000000006e0 .L0 
     /tmp/ccSb9Eig.s:1100   .text:00000000000006e4 .L0 
     /tmp/ccSb9Eig.s:1101   .text:00000000000006e4 .L0 
     /tmp/ccSb9Eig.s:1106   .text:00000000000006f4 .L0 
     /tmp/ccSb9Eig.s:1107   .text:00000000000006f4 .L0 
     /tmp/ccSb9Eig.s:1110   .text:00000000000006fc .L0 
     /tmp/ccSb9Eig.s:1114   .text:0000000000000708 .L0 
     /tmp/ccSb9Eig.s:1119   .text:0000000000000718 .L0 
     /tmp/ccSb9Eig.s:1122   .text:000000000000071c .L0 
     /tmp/ccSb9Eig.s:1123   .text:000000000000071c .L0 
     /tmp/ccSb9Eig.s:1126   .text:0000000000000720 .L0 
     /tmp/ccSb9Eig.s:1131   .text:0000000000000724 .L0 
     /tmp/ccSb9Eig.s:1132   .text:0000000000000724 .L0 
     /tmp/ccSb9Eig.s:1137   .text:0000000000000734 .L0 
     /tmp/ccSb9Eig.s:1140   .text:0000000000000738 .L0 
     /tmp/ccSb9Eig.s:1141   .text:0000000000000738 .L0 
     /tmp/ccSb9Eig.s:1145   .text:0000000000000748 .L0 
     /tmp/ccSb9Eig.s:1151   .text:000000000000074c .L0 
     /tmp/ccSb9Eig.s:1155   .text:0000000000000750 .L0 
     /tmp/ccSb9Eig.s:1159   .text:0000000000000758 .L0 
     /tmp/ccSb9Eig.s:1160   .text:0000000000000758 .L0 
     /tmp/ccSb9Eig.s:1164   .text:0000000000000768 .L0 
     /tmp/ccSb9Eig.s:1165   .text:0000000000000768 .L0 
     /tmp/ccSb9Eig.s:1169   .text:0000000000000774 .L0 
     /tmp/ccSb9Eig.s:1170   .text:0000000000000774 .L0 
     /tmp/ccSb9Eig.s:1174   .text:0000000000000784 .L0 
     /tmp/ccSb9Eig.s:1175   .text:0000000000000784 .L0 
     /tmp/ccSb9Eig.s:1182   .text:000000000000079c .L0 
     /tmp/ccSb9Eig.s:1184   .text:00000000000007a0 .L0 
     /tmp/ccSb9Eig.s:1185   .text:00000000000007a0 .L0 
     /tmp/ccSb9Eig.s:1190   .text:00000000000007b0 .L0 
     /tmp/ccSb9Eig.s:1191   .text:00000000000007b0 .L0 
     /tmp/ccSb9Eig.s:1195   .text:00000000000007bc .L0 
     /tmp/ccSb9Eig.s:1200   .text:00000000000007cc .L0 
     /tmp/ccSb9Eig.s:1203   .text:00000000000007d0 .L0 
     /tmp/ccSb9Eig.s:1204   .text:00000000000007d0 .L0 
     /tmp/ccSb9Eig.s:1207   .text:00000000000007d4 .L0 
     /tmp/ccSb9Eig.s:1212   .text:00000000000007d8 .L0 
     /tmp/ccSb9Eig.s:1213   .text:00000000000007d8 .L0 
     /tmp/ccSb9Eig.s:1218   .text:00000000000007e8 .L0 
     /tmp/ccSb9Eig.s:1221   .text:00000000000007ec .L0 
     /tmp/ccSb9Eig.s:1222   .text:00000000000007ec .L0 
     /tmp/ccSb9Eig.s:1226   .text:00000000000007fc .L0 
     /tmp/ccSb9Eig.s:1231   .text:0000000000000800 .L0 
GAS LISTING /tmp/ccSb9Eig.s 			page 42


     /tmp/ccSb9Eig.s:1232   .text:0000000000000800 .L0 
     /tmp/ccSb9Eig.s:1236   .text:0000000000000804 .L0 
     /tmp/ccSb9Eig.s:1240   .text:0000000000000808 .L0 
     /tmp/ccSb9Eig.s:1241   .text:0000000000000808 .L0 
     /tmp/ccSb9Eig.s:1245   .text:000000000000081c .L0 
     /tmp/ccSb9Eig.s:1251   .text:000000000000081c _Z21memoryAllocationTestsv
     /tmp/ccSb9Eig.s:1254   .text:000000000000081c .L0 
     /tmp/ccSb9Eig.s:1255   .text:000000000000081c .L0 
     /tmp/ccSb9Eig.s:1256   .text:0000000000000820 .L0 
     /tmp/ccSb9Eig.s:1259   .text:0000000000000828 .L0 
     /tmp/ccSb9Eig.s:1260   .text:0000000000000828 .L0 
     /tmp/ccSb9Eig.s:1262   .text:000000000000082c .L0 
     /tmp/ccSb9Eig.s:1264   .text:000000000000082c .L0 
     /tmp/ccSb9Eig.s:1265   .text:000000000000082c .L0 
     /tmp/ccSb9Eig.s:1268   .text:0000000000000834 .L0 
     /tmp/ccSb9Eig.s:1269   .text:0000000000000838 .L0 
     /tmp/ccSb9Eig.s:1271   .text:000000000000083c .L0 
     /tmp/ccSb9Eig.s:1272   .text:000000000000083c .L0 
     /tmp/ccSb9Eig.s:1274   .text:0000000000000840 .L0 
     /tmp/ccSb9Eig.s:1276   .text:0000000000000844 .L0 
     /tmp/ccSb9Eig.s:1282   .text:0000000000000844 main
     /tmp/ccSb9Eig.s:1285   .text:0000000000000844 .L0 
     /tmp/ccSb9Eig.s:1286   .text:0000000000000844 .L0 
     /tmp/ccSb9Eig.s:1287   .text:0000000000000848 .L0 
     /tmp/ccSb9Eig.s:1290   .text:0000000000000850 .L0 
     /tmp/ccSb9Eig.s:1291   .text:0000000000000850 .L0 
     /tmp/ccSb9Eig.s:1293   .text:0000000000000854 .L0 
     /tmp/ccSb9Eig.s:1295   .text:0000000000000854 .L0 
     /tmp/ccSb9Eig.s:1296   .text:0000000000000854 .L0 
     /tmp/ccSb9Eig.s:1299   .text:000000000000085c .L0 
     /tmp/ccSb9Eig.s:1300   .text:000000000000085c .L0 
     /tmp/ccSb9Eig.s:1303   .text:0000000000000864 .L0 
     /tmp/ccSb9Eig.s:1304   .text:0000000000000868 .L0 
     /tmp/ccSb9Eig.s:1306   .text:000000000000086c .L0 
     /tmp/ccSb9Eig.s:1307   .text:000000000000086c .L0 
     /tmp/ccSb9Eig.s:1309   .text:0000000000000870 .L0 
     /tmp/ccSb9Eig.s:1311   .text:0000000000000874 .L0 
     /tmp/ccSb9Eig.s:1321   .text:0000000000000874 .L0 
     /tmp/ccSb9Eig.s:8      .rodata.str1.8:0000000000000000 .LC0
     /tmp/ccSb9Eig.s:38     .text:0000000000000014 .L0 
     /tmp/ccSb9Eig.s:11     .rodata.str1.8:0000000000000018 .LC1
     /tmp/ccSb9Eig.s:51     .text:000000000000002c .L0 
     /tmp/ccSb9Eig.s:14     .rodata.str1.8:0000000000000020 .LC2
     /tmp/ccSb9Eig.s:61     .text:0000000000000048 .L0 
     /tmp/ccSb9Eig.s:109    .rodata.str1.8:0000000000000028 .LC3
     /tmp/ccSb9Eig.s:135    .text:00000000000000b4 .L0 
     /tmp/ccSb9Eig.s:112    .rodata.str1.8:0000000000000040 .LC4
     /tmp/ccSb9Eig.s:148    .text:00000000000000cc .L0 
     /tmp/ccSb9Eig.s:158    .text:00000000000000e8 .L0 
     /tmp/ccSb9Eig.s:272    .text:0000000000000198 .L0 
     /tmp/ccSb9Eig.s:296    .text:00000000000001c0 .L0 
     /tmp/ccSb9Eig.s:315    .text:00000000000001f0 .L0 
     /tmp/ccSb9Eig.s:230    .rodata.str1.8:0000000000000048 .LC5
     /tmp/ccSb9Eig.s:365    .text:0000000000000238 .L0 
     /tmp/ccSb9Eig.s:473    .rodata.str1.8:0000000000000050 .LC6
     /tmp/ccSb9Eig.s:501    .text:00000000000002c8 .L0 
     /tmp/ccSb9Eig.s:476    .rodata.str1.8:0000000000000060 .LC7
GAS LISTING /tmp/ccSb9Eig.s 			page 43


     /tmp/ccSb9Eig.s:531    .text:000000000000030c .L0 
     /tmp/ccSb9Eig.s:583    .text:0000000000000360 .L0 
     /tmp/ccSb9Eig.s:621    .text:00000000000003a8 .L0 
     /tmp/ccSb9Eig.s:657    .text:00000000000003ec .L0 
     /tmp/ccSb9Eig.s:479    .rodata.str1.8:0000000000000068 .LC8
     /tmp/ccSb9Eig.s:668    .text:0000000000000400 .L0 
     /tmp/ccSb9Eig.s:677    .rodata.str1.8:0000000000000070 .LC9
     /tmp/ccSb9Eig.s:697    .text:0000000000000424 .L0 
     /tmp/ccSb9Eig.s:702    .text:0000000000000434 .L0 
     /tmp/ccSb9Eig.s:704    .text:0000000000000440 .L0 
     /tmp/ccSb9Eig.s:718    .text:0000000000000460 .L0 
     /tmp/ccSb9Eig.s:738    .text:0000000000000480 .L0 
     /tmp/ccSb9Eig.s:748    .rodata.str1.8:0000000000000080 .LC10
     /tmp/ccSb9Eig.s:774    .text:00000000000004b0 .L0 
     /tmp/ccSb9Eig.s:835    .text:000000000000050c .L0 
     /tmp/ccSb9Eig.s:848    .text:000000000000052c .L0 
     /tmp/ccSb9Eig.s:875    .text:0000000000000558 .L0 
     /tmp/ccSb9Eig.s:884    .rodata.str1.8:0000000000000098 .LC11
     /tmp/ccSb9Eig.s:904    .text:000000000000057c .L0 
     /tmp/ccSb9Eig.s:922    .text:00000000000005a8 .L0 
     /tmp/ccSb9Eig.s:942    .text:00000000000005c8 .L0 
     /tmp/ccSb9Eig.s:953    .rodata.str1.8:00000000000000a8 .LC12
     /tmp/ccSb9Eig.s:991    .text:00000000000005f8 .L0 
     /tmp/ccSb9Eig.s:1021   .text:000000000000063c .L0 
     /tmp/ccSb9Eig.s:956    .rodata.str1.8:00000000000000b8 .LC13
     /tmp/ccSb9Eig.s:1056   .text:0000000000000670 .L0 
     /tmp/ccSb9Eig.s:1076   .text:000000000000069c .L0 
     /tmp/ccSb9Eig.s:959    .rodata.str1.8:00000000000000c0 .LC14
     /tmp/ccSb9Eig.s:1086   .text:00000000000006b8 .L0 
     /tmp/ccSb9Eig.s:962    .rodata.str1.8:00000000000000c8 .LC15
     /tmp/ccSb9Eig.s:1101   .text:00000000000006e4 .L0 
     /tmp/ccSb9Eig.s:1132   .text:0000000000000724 .L0 
     /tmp/ccSb9Eig.s:965    .rodata.str1.8:00000000000000d0 .LC16
     /tmp/ccSb9Eig.s:1141   .text:0000000000000738 .L0 
     /tmp/ccSb9Eig.s:1160   .text:0000000000000758 .L0 
     /tmp/ccSb9Eig.s:1170   .text:0000000000000774 .L0 
     /tmp/ccSb9Eig.s:1185   .text:00000000000007a0 .L0 
     /tmp/ccSb9Eig.s:1213   .text:00000000000007d8 .L0 
     /tmp/ccSb9Eig.s:1222   .text:00000000000007ec .L0 
     /tmp/ccSb9Eig.s:1241   .text:0000000000000808 .L0 
     /tmp/ccSb9Eig.s:67     .text:000000000000005c .L4
     /tmp/ccSb9Eig.s:90     .text:000000000000008c .L1
     /tmp/ccSb9Eig.s:48     .text:000000000000002c .L3
     /tmp/ccSb9Eig.s:164    .text:00000000000000fc .L9
     /tmp/ccSb9Eig.s:188    .text:0000000000000130 .L6
     /tmp/ccSb9Eig.s:145    .text:00000000000000cc .L8
     /tmp/ccSb9Eig.s:332    .text:0000000000000218 .L16
     /tmp/ccSb9Eig.s:327    .text:0000000000000210 .L14
     /tmp/ccSb9Eig.s:513    .text:00000000000002e4 .L29
     /tmp/ccSb9Eig.s:550    .text:0000000000000330 .L37
     /tmp/ccSb9Eig.s:509    .text:00000000000002e0 .L27
     /tmp/ccSb9Eig.s:589    .text:0000000000000374 .L38
     /tmp/ccSb9Eig.s:579    .text:0000000000000360 .L41
     /tmp/ccSb9Eig.s:556    .text:0000000000000334 .L26
     /tmp/ccSb9Eig.s:535    .text:000000000000031c .L25
     /tmp/ccSb9Eig.s:603    .text:0000000000000380 .L30
     /tmp/ccSb9Eig.s:626    .text:00000000000003bc .L39
GAS LISTING /tmp/ccSb9Eig.s 			page 44


     /tmp/ccSb9Eig.s:598    .text:000000000000037c .L33
     /tmp/ccSb9Eig.s:663    .text:0000000000000400 .L34
     /tmp/ccSb9Eig.s:653    .text:00000000000003ec .L42
     /tmp/ccSb9Eig.s:632    .text:00000000000003c0 .L32
     /tmp/ccSb9Eig.s:734    .text:0000000000000480 .L47
     /tmp/ccSb9Eig.s:722    .text:0000000000000470 .L43
     /tmp/ccSb9Eig.s:811    .text:00000000000004e4 .L50
     /tmp/ccSb9Eig.s:825    .text:0000000000000500 .L49
     /tmp/ccSb9Eig.s:792    .text:00000000000004d0 .L54
     /tmp/ccSb9Eig.s:871    .text:0000000000000558 .L55
     /tmp/ccSb9Eig.s:851    .text:000000000000053c .L48
     /tmp/ccSb9Eig.s:938    .text:00000000000005c8 .L57
     /tmp/ccSb9Eig.s:926    .text:00000000000005b8 .L56
     /tmp/ccSb9Eig.s:1003   .text:0000000000000614 .L64
     /tmp/ccSb9Eig.s:1044   .text:0000000000000668 .L74
     /tmp/ccSb9Eig.s:999    .text:0000000000000610 .L62
     /tmp/ccSb9Eig.s:1238   .text:0000000000000808 .L65
     /tmp/ccSb9Eig.s:1146   .text:000000000000074c .L75
     /tmp/ccSb9Eig.s:1128   .text:0000000000000724 .L77
     /tmp/ccSb9Eig.s:1138   .text:0000000000000738 .L78
     /tmp/ccSb9Eig.s:1068   .text:0000000000000694 .L69
     /tmp/ccSb9Eig.s:1025   .text:000000000000064c .L60
     /tmp/ccSb9Eig.s:1227   .text:0000000000000800 .L70
     /tmp/ccSb9Eig.s:1209   .text:00000000000007d8 .L79
     /tmp/ccSb9Eig.s:1219   .text:00000000000007ec .L80
     /tmp/ccSb9Eig.s:1153   .text:0000000000000750 .L66
     /tmp/ccSb9Eig.s:1049   .text:000000000000066c .L61
     /tmp/ccSb9Eig.s:257    .text:0000000000000178 .LEHB0
     /tmp/ccSb9Eig.s:237    .text:000000000000015c .LFB23
     /tmp/ccSb9Eig.s:260    .text:0000000000000180 .LEHE0
     /tmp/ccSb9Eig.s:264    .text:000000000000018c .LEHB1
     /tmp/ccSb9Eig.s:267    .text:0000000000000194 .LEHE1
     /tmp/ccSb9Eig.s:385    .text:0000000000000260 .L20
     /tmp/ccSb9Eig.s:289    .text:00000000000001b0 .LEHB2
     /tmp/ccSb9Eig.s:292    .text:00000000000001b8 .LEHE2
     /tmp/ccSb9Eig.s:297    .text:00000000000001c8 .LEHB3
     /tmp/ccSb9Eig.s:300    .text:00000000000001d0 .LEHE3
     /tmp/ccSb9Eig.s:397    .text:000000000000027c .L21
     /tmp/ccSb9Eig.s:304    .text:00000000000001d4 .LEHB4
     /tmp/ccSb9Eig.s:312    .text:00000000000001e8 .LEHE4
     /tmp/ccSb9Eig.s:316    .text:00000000000001f8 .LEHB5
     /tmp/ccSb9Eig.s:319    .text:0000000000000200 .LEHE5
     /tmp/ccSb9Eig.s:408    .text:0000000000000298 .L22
     /tmp/ccSb9Eig.s:323    .text:0000000000000204 .LEHB6
     /tmp/ccSb9Eig.s:368    .text:0000000000000248 .LEHE6
     /tmp/ccSb9Eig.s:393    .text:0000000000000274 .LEHB7
     /tmp/ccSb9Eig.s:396    .text:000000000000027c .LEHE7
     /tmp/ccSb9Eig.s:404    .text:0000000000000290 .LEHB8
     /tmp/ccSb9Eig.s:407    .text:0000000000000298 .LEHE8
     /tmp/ccSb9Eig.s:416    .text:00000000000002ac .LEHB9
     /tmp/ccSb9Eig.s:419    .text:00000000000002b4 .LEHE9
     /tmp/ccSb9Eig.s:3741   .debug_abbrev:0000000000000000 .Ldebug_abbrev0
     /tmp/ccSb9Eig.s:5435   .debug_str:0000000000000540 .LASF172
     /tmp/ccSb9Eig.s:5347   .debug_str:00000000000002b8 .LASF173
     /tmp/ccSb9Eig.s:5553   .debug_str:000000000000090a .LASF174
     /tmp/ccSb9Eig.s:5      .text:0000000000000000 .Ltext0
     /tmp/ccSb9Eig.s:1314   .text:0000000000000874 .Letext0
GAS LISTING /tmp/ccSb9Eig.s 			page 45


     /tmp/ccSb9Eig.s:5251   .debug_line:0000000000000000 .Ldebug_line0
     /tmp/ccSb9Eig.s:5381   .debug_str:00000000000003a5 .LASF0
     /tmp/ccSb9Eig.s:5409   .debug_str:000000000000046a .LASF1
     /tmp/ccSb9Eig.s:5491   .debug_str:000000000000075f .LASF2
     /tmp/ccSb9Eig.s:5499   .debug_str:000000000000079e .LASF4
     /tmp/ccSb9Eig.s:5397   .debug_str:0000000000000406 .LASF3
     /tmp/ccSb9Eig.s:5263   .debug_str:000000000000003d .LASF5
     /tmp/ccSb9Eig.s:5471   .debug_str:00000000000006cd .LASF6
     /tmp/ccSb9Eig.s:5461   .debug_str:0000000000000675 .LASF7
     /tmp/ccSb9Eig.s:5401   .debug_str:000000000000043a .LASF8
     /tmp/ccSb9Eig.s:5357   .debug_str:00000000000002ed .LASF9
     /tmp/ccSb9Eig.s:5361   .debug_str:0000000000000319 .LASF10
     /tmp/ccSb9Eig.s:5303   .debug_str:0000000000000196 .LASF11
     /tmp/ccSb9Eig.s:5345   .debug_str:00000000000002a9 .LASF12
     /tmp/ccSb9Eig.s:5311   .debug_str:00000000000001c7 .LASF13
     /tmp/ccSb9Eig.s:5301   .debug_str:0000000000000186 .LASF14
     /tmp/ccSb9Eig.s:5529   .debug_str:0000000000000879 .LASF15
     /tmp/ccSb9Eig.s:5337   .debug_str:000000000000027a .LASF16
     /tmp/ccSb9Eig.s:5523   .debug_str:0000000000000840 .LASF17
     /tmp/ccSb9Eig.s:5555   .debug_str:000000000000092d .LASF28
     /tmp/ccSb9Eig.s:5571   .debug_str:0000000000000983 .LASF20
     /tmp/ccSb9Eig.s:5405   .debug_str:0000000000000460 .LASF18
     /tmp/ccSb9Eig.s:5305   .debug_str:00000000000001a5 .LASF19
     /tmp/ccSb9Eig.s:5535   .debug_str:000000000000089d .LASF21
     /tmp/ccSb9Eig.s:5419   .debug_str:00000000000004ac .LASF22
     /tmp/ccSb9Eig.s:5601   .debug_str:0000000000000a54 .LASF37
     /tmp/ccSb9Eig.s:5569   .debug_str:000000000000097d .LASF24
     /tmp/ccSb9Eig.s:5313   .debug_str:00000000000001d7 .LASF26
     /tmp/ccSb9Eig.s:5383   .debug_str:00000000000003b2 .LASF23
     /tmp/ccSb9Eig.s:5515   .debug_str:000000000000080a .LASF29
     /tmp/ccSb9Eig.s:5407   .debug_str:0000000000000465 .LASF25
     /tmp/ccSb9Eig.s:5483   .debug_str:0000000000000710 .LASF27
     /tmp/ccSb9Eig.s:5333   .debug_str:0000000000000266 .LASF30
     /tmp/ccSb9Eig.s:5479   .debug_str:00000000000006f5 .LASF41
     /tmp/ccSb9Eig.s:5285   .debug_str:0000000000000111 .LASF43
     /tmp/ccSb9Eig.s:5541   .debug_str:00000000000008bb .LASF175
     /tmp/ccSb9Eig.s:5297   .debug_str:000000000000016c .LASF31
     /tmp/ccSb9Eig.s:5519   .debug_str:000000000000082a .LASF32
     /tmp/ccSb9Eig.s:5309   .debug_str:00000000000001bd .LASF33
     /tmp/ccSb9Eig.s:5293   .debug_str:0000000000000152 .LASF34
     /tmp/ccSb9Eig.s:5533   .debug_str:0000000000000895 .LASF35
     /tmp/ccSb9Eig.s:5373   .debug_str:000000000000036c .LASF36
     /tmp/ccSb9Eig.s:5561   .debug_str:0000000000000945 .LASF38
     /tmp/ccSb9Eig.s:5453   .debug_str:000000000000064c .LASF176
     /tmp/ccSb9Eig.s:5607   .debug_str:0000000000000a89 .LASF39
     /tmp/ccSb9Eig.s:5547   .debug_str:00000000000008dc .LASF40
     /tmp/ccSb9Eig.s:5329   .debug_str:0000000000000255 .LASF72
     /tmp/ccSb9Eig.s:5277   .debug_str:00000000000000a3 .LASF74
     /tmp/ccSb9Eig.s:5413   .debug_str:0000000000000486 .LASF42
     /tmp/ccSb9Eig.s:5463   .debug_str:0000000000000688 .LASF44
     /tmp/ccSb9Eig.s:5543   .debug_str:00000000000008c1 .LASF48
     /tmp/ccSb9Eig.s:5521   .debug_str:0000000000000832 .LASF45
     /tmp/ccSb9Eig.s:5475   .debug_str:00000000000006e2 .LASF46
     /tmp/ccSb9Eig.s:5325   .debug_str:0000000000000233 .LASF47
     /tmp/ccSb9Eig.s:5509   .debug_str:00000000000007d5 .LASF49
     /tmp/ccSb9Eig.s:5417   .debug_str:000000000000049f .LASF50
     /tmp/ccSb9Eig.s:5423   .debug_str:00000000000004cf .LASF51
GAS LISTING /tmp/ccSb9Eig.s 			page 46


     /tmp/ccSb9Eig.s:5617   .debug_str:0000000000000ad6 .LASF52
     /tmp/ccSb9Eig.s:5339   .debug_str:0000000000000290 .LASF53
     /tmp/ccSb9Eig.s:5257   .debug_str:0000000000000010 .LASF54
     /tmp/ccSb9Eig.s:5395   .debug_str:00000000000003f9 .LASF55
     /tmp/ccSb9Eig.s:5511   .debug_str:00000000000007e6 .LASF56
     /tmp/ccSb9Eig.s:5441   .debug_str:00000000000005fc .LASF57
     /tmp/ccSb9Eig.s:5497   .debug_str:0000000000000795 .LASF58
     /tmp/ccSb9Eig.s:5525   .debug_str:0000000000000856 .LASF59
     /tmp/ccSb9Eig.s:5551   .debug_str:0000000000000900 .LASF60
     /tmp/ccSb9Eig.s:5319   .debug_str:000000000000020e .LASF177
     /tmp/ccSb9Eig.s:5281   .debug_str:00000000000000d1 .LASF178
     /tmp/ccSb9Eig.s:5595   .debug_str:0000000000000a2b .LASF179
     /tmp/ccSb9Eig.s:5295   .debug_str:000000000000015b .LASF180
     /tmp/ccSb9Eig.s:5255   .debug_str:000000000000000b .LASF61
     /tmp/ccSb9Eig.s:5611   .debug_str:0000000000000aa3 .LASF62
     /tmp/ccSb9Eig.s:5317   .debug_str:0000000000000208 .LASF63
     /tmp/ccSb9Eig.s:5559   .debug_str:000000000000093d .LASF64
     /tmp/ccSb9Eig.s:5425   .debug_str:00000000000004e7 .LASF65
     /tmp/ccSb9Eig.s:5355   .debug_str:00000000000002e3 .LASF66
     /tmp/ccSb9Eig.s:5271   .debug_str:0000000000000074 .LASF181
     /tmp/ccSb9Eig.s:5609   .debug_str:0000000000000a8f .LASF182
     /tmp/ccSb9Eig.s:5289   .debug_str:000000000000012d .LASF67
     /tmp/ccSb9Eig.s:5455   .debug_str:0000000000000651 .LASF68
     /tmp/ccSb9Eig.s:5505   .debug_str:00000000000007bf .LASF69
     /tmp/ccSb9Eig.s:5487   .debug_str:000000000000073c .LASF89
     /tmp/ccSb9Eig.s:5273   .debug_str:000000000000008c .LASF70
     /tmp/ccSb9Eig.s:5269   .debug_str:000000000000006a .LASF142
     /tmp/ccSb9Eig.s:5583   .debug_str:00000000000009d8 .LASF71
     /tmp/ccSb9Eig.s:5457   .debug_str:0000000000000664 .LASF73
     /tmp/ccSb9Eig.s:5429   .debug_str:0000000000000508 .LASF75
     /tmp/ccSb9Eig.s:5573   .debug_str:0000000000000988 .LASF76
     /tmp/ccSb9Eig.s:5421   .debug_str:00000000000004b1 .LASF77
     /tmp/ccSb9Eig.s:5393   .debug_str:00000000000003e7 .LASF78
     /tmp/ccSb9Eig.s:5315   .debug_str:00000000000001e9 .LASF79
     /tmp/ccSb9Eig.s:5599   .debug_str:0000000000000a48 .LASF80
     /tmp/ccSb9Eig.s:5279   .debug_str:00000000000000b6 .LASF81
     /tmp/ccSb9Eig.s:5467   .debug_str:00000000000006ad .LASF82
     /tmp/ccSb9Eig.s:5265   .debug_str:0000000000000044 .LASF83
     /tmp/ccSb9Eig.s:5507   .debug_str:00000000000007c7 .LASF84
     /tmp/ccSb9Eig.s:5513   .debug_str:00000000000007ef .LASF85
     /tmp/ccSb9Eig.s:5385   .debug_str:00000000000003b7 .LASF86
     /tmp/ccSb9Eig.s:5591   .debug_str:0000000000000a09 .LASF87
     /tmp/ccSb9Eig.s:5411   .debug_str:000000000000047d .LASF88
     /tmp/ccSb9Eig.s:5261   .debug_str:0000000000000028 .LASF90
     /tmp/ccSb9Eig.s:5621   .debug_str:0000000000000af2 .LASF91
     /tmp/ccSb9Eig.s:5449   .debug_str:0000000000000630 .LASF92
     /tmp/ccSb9Eig.s:5477   .debug_str:00000000000006ee .LASF93
     /tmp/ccSb9Eig.s:5469   .debug_str:00000000000006ba .LASF94
     /tmp/ccSb9Eig.s:5447   .debug_str:0000000000000629 .LASF95
     /tmp/ccSb9Eig.s:5403   .debug_str:000000000000044d .LASF96
     /tmp/ccSb9Eig.s:5593   .debug_str:0000000000000a23 .LASF97
     /tmp/ccSb9Eig.s:5549   .debug_str:00000000000008ec .LASF98
     /tmp/ccSb9Eig.s:5445   .debug_str:0000000000000621 .LASF99
     /tmp/ccSb9Eig.s:5349   .debug_str:00000000000002c5 .LASF100
     /tmp/ccSb9Eig.s:5437   .debug_str:00000000000005e2 .LASF101
     /tmp/ccSb9Eig.s:5481   .debug_str:00000000000006fc .LASF102
     /tmp/ccSb9Eig.s:5623   .debug_str:0000000000000afb .LASF103
GAS LISTING /tmp/ccSb9Eig.s 			page 47


     /tmp/ccSb9Eig.s:5389   .debug_str:00000000000003ca .LASF104
     /tmp/ccSb9Eig.s:5527   .debug_str:0000000000000872 .LASF105
     /tmp/ccSb9Eig.s:5501   .debug_str:00000000000007a5 .LASF106
     /tmp/ccSb9Eig.s:5503   .debug_str:00000000000007b8 .LASF107
     /tmp/ccSb9Eig.s:5307   .debug_str:00000000000001aa .LASF108
     /tmp/ccSb9Eig.s:5335   .debug_str:0000000000000274 .LASF109
     /tmp/ccSb9Eig.s:5375   .debug_str:0000000000000372 .LASF110
     /tmp/ccSb9Eig.s:5387   .debug_str:00000000000003c4 .LASF111
     /tmp/ccSb9Eig.s:5327   .debug_str:0000000000000243 .LASF112
     /tmp/ccSb9Eig.s:5253   .debug_str:0000000000000000 .LASF113
     /tmp/ccSb9Eig.s:5495   .debug_str:000000000000077d .LASF114
     /tmp/ccSb9Eig.s:5489   .debug_str:0000000000000754 .LASF115
     /tmp/ccSb9Eig.s:5615   .debug_str:0000000000000abe .LASF116
     /tmp/ccSb9Eig.s:5587   .debug_str:00000000000009ef .LASF117
     /tmp/ccSb9Eig.s:5597   .debug_str:0000000000000a32 .LASF118
     /tmp/ccSb9Eig.s:5581   .debug_str:00000000000009ce .LASF119
     /tmp/ccSb9Eig.s:5431   .debug_str:0000000000000520 .LASF120
     /tmp/ccSb9Eig.s:5371   .debug_str:0000000000000361 .LASF121
     /tmp/ccSb9Eig.s:5379   .debug_str:000000000000038d .LASF122
     /tmp/ccSb9Eig.s:5567   .debug_str:000000000000096e .LASF123
     /tmp/ccSb9Eig.s:5359   .debug_str:00000000000002fd .LASF124
     /tmp/ccSb9Eig.s:5465   .debug_str:0000000000000698 .LASF125
     /tmp/ccSb9Eig.s:5399   .debug_str:0000000000000418 .LASF126
     /tmp/ccSb9Eig.s:5323   .debug_str:000000000000022c .LASF127
     /tmp/ccSb9Eig.s:5259   .debug_str:0000000000000020 .LASF128
     /tmp/ccSb9Eig.s:5619   .debug_str:0000000000000ae3 .LASF129
     /tmp/ccSb9Eig.s:5565   .debug_str:0000000000000962 .LASF130
     /tmp/ccSb9Eig.s:5291   .debug_str:000000000000013f .LASF131
     /tmp/ccSb9Eig.s:5439   .debug_str:00000000000005ea .LASF132
     /tmp/ccSb9Eig.s:5365   .debug_str:0000000000000331 .LASF133
     /tmp/ccSb9Eig.s:5579   .debug_str:00000000000009bb .LASF134
     /tmp/ccSb9Eig.s:5299   .debug_str:0000000000000172 .LASF135
     /tmp/ccSb9Eig.s:5537   .debug_str:00000000000008a3 .LASF136
     /tmp/ccSb9Eig.s:5367   .debug_str:0000000000000344 .LASF137
     /tmp/ccSb9Eig.s:5627   .debug_str:0000000000000b12 .LASF138
     /tmp/ccSb9Eig.s:5415   .debug_str:000000000000048c .LASF139
     /tmp/ccSb9Eig.s:5603   .debug_str:0000000000000a64 .LASF140
     /tmp/ccSb9Eig.s:5545   .debug_str:00000000000008c9 .LASF141
     /tmp/ccSb9Eig.s:5391   .debug_str:00000000000003de .LASF143
     /tmp/ccSb9Eig.s:5625   .debug_str:0000000000000b03 .LASF144
     /tmp/ccSb9Eig.s:5563   .debug_str:000000000000095d .LASF145
     /tmp/ccSb9Eig.s:5613   .debug_str:0000000000000aa8 .LASF146
     /tmp/ccSb9Eig.s:5485   .debug_str:0000000000000721 .LASF183
     /tmp/ccSb9Eig.s:1252   .text:000000000000081c .LFB29
     /tmp/ccSb9Eig.s:1277   .text:0000000000000844 .LFE29
     /tmp/ccSb9Eig.s:1266   .text:0000000000000834 .LVL145
     /tmp/ccSb9Eig.s:5275   .debug_str:0000000000000095 .LASF147
     /tmp/ccSb9Eig.s:5539   .debug_str:00000000000008a8 .LASF148
     /tmp/ccSb9Eig.s:972    .text:00000000000005dc .LFB28
     /tmp/ccSb9Eig.s:1246   .text:000000000000081c .LFE28
     /tmp/ccSb9Eig.s:5459   .debug_str:000000000000066f .LASF149
     /tmp/ccSb9Eig.s:4855   .debug_loc:0000000000000000 .LLST25
     /tmp/ccSb9Eig.s:994    .text:0000000000000608 .LBB28
     /tmp/ccSb9Eig.s:1026   .text:000000000000064c .LBE28
     /tmp/ccSb9Eig.s:4866   .debug_loc:0000000000000036 .LLST26
     /tmp/ccSb9Eig.s:1011   .text:0000000000000628 .LVL110
     /tmp/ccSb9Eig.s:1023   .text:000000000000064c .LVL111
GAS LISTING /tmp/ccSb9Eig.s 			page 48


     /tmp/ccSb9Eig.s:1065   .text:0000000000000690 .LBB30
     /tmp/ccSb9Eig.s:1148   .text:000000000000074c .LBE30
     /tmp/ccSb9Eig.s:4877   .debug_loc:000000000000006c .LLST27
     /tmp/ccSb9Eig.s:5213   .debug_ranges:0000000000000000 .Ldebug_ranges0
     /tmp/ccSb9Eig.s:5341   .debug_str:000000000000029c .LASF150
     /tmp/ccSb9Eig.s:4888   .debug_loc:00000000000000a2 .LLST28
     /tmp/ccSb9Eig.s:1078   .text:00000000000006ac .LVL117
     /tmp/ccSb9Eig.s:1083   .text:00000000000006b8 .LVL118
     /tmp/ccSb9Eig.s:1088   .text:00000000000006c8 .LVL119
     /tmp/ccSb9Eig.s:1096   .text:00000000000006e0 .LVL120
     /tmp/ccSb9Eig.s:1104   .text:00000000000006f4 .LVL122
     /tmp/ccSb9Eig.s:1112   .text:0000000000000708 .LVL123
     /tmp/ccSb9Eig.s:1135   .text:0000000000000734 .LVL127
     /tmp/ccSb9Eig.s:1143   .text:0000000000000748 .LVL128
     /tmp/ccSb9Eig.s:1149   .text:000000000000074c .LBB33
     /tmp/ccSb9Eig.s:1229   .text:0000000000000800 .LBE33
     /tmp/ccSb9Eig.s:4899   .debug_loc:00000000000000d8 .LLST29
     /tmp/ccSb9Eig.s:4910   .debug_loc:000000000000010e .LLST30
     /tmp/ccSb9Eig.s:1162   .text:0000000000000768 .LVL130
     /tmp/ccSb9Eig.s:1167   .text:0000000000000774 .LVL131
     /tmp/ccSb9Eig.s:1172   .text:0000000000000784 .LVL132
     /tmp/ccSb9Eig.s:1180   .text:000000000000079c .LVL133
     /tmp/ccSb9Eig.s:1188   .text:00000000000007b0 .LVL135
     /tmp/ccSb9Eig.s:1193   .text:00000000000007bc .LVL136
     /tmp/ccSb9Eig.s:1216   .text:00000000000007e8 .LVL140
     /tmp/ccSb9Eig.s:1224   .text:00000000000007fc .LVL141
     /tmp/ccSb9Eig.s:993    .text:0000000000000608 .LVL107
     /tmp/ccSb9Eig.s:1058   .text:0000000000000680 .LVL114
     /tmp/ccSb9Eig.s:1064   .text:0000000000000690 .LVL115
     /tmp/ccSb9Eig.s:1243   .text:0000000000000818 .LVL144
     /tmp/ccSb9Eig.s:5331   .debug_str:000000000000025e .LASF151
     /tmp/ccSb9Eig.s:5267   .debug_str:000000000000005e .LASF152
     /tmp/ccSb9Eig.s:891    .text:000000000000056c .LFB27
     /tmp/ccSb9Eig.s:949    .text:00000000000005dc .LFE27
     /tmp/ccSb9Eig.s:4921   .debug_loc:0000000000000144 .LLST23
     /tmp/ccSb9Eig.s:4934   .debug_loc:000000000000017c .LLST24
     /tmp/ccSb9Eig.s:906    .text:000000000000058c .LVL98
     /tmp/ccSb9Eig.s:911    .text:0000000000000598 .LVL99
     /tmp/ccSb9Eig.s:917    .text:00000000000005a4 .LVL101
     /tmp/ccSb9Eig.s:925    .text:00000000000005b8 .LVL103
     /tmp/ccSb9Eig.s:945    .text:00000000000005d8 .LVL106
     /tmp/ccSb9Eig.s:5443   .debug_str:000000000000060f .LASF153
     /tmp/ccSb9Eig.s:5427   .debug_str:00000000000004f1 .LASF154
     /tmp/ccSb9Eig.s:755    .text:0000000000000494 .LFB26
     /tmp/ccSb9Eig.s:880    .text:000000000000056c .LFE26
     /tmp/ccSb9Eig.s:4961   .debug_loc:00000000000001c2 .LLST19
     /tmp/ccSb9Eig.s:4973   .debug_loc:00000000000001f9 .LLST20
     /tmp/ccSb9Eig.s:4989   .debug_loc:0000000000000243 .LLST21
     /tmp/ccSb9Eig.s:5005   .debug_loc:000000000000028d .LLST22
     /tmp/ccSb9Eig.s:821    .text:00000000000004fc .LVL88
     /tmp/ccSb9Eig.s:776    .text:00000000000004c0 .LVL83
     /tmp/ccSb9Eig.s:832    .text:000000000000050c .LVL90
     /tmp/ccSb9Eig.s:837    .text:000000000000051c .LVL91
     /tmp/ccSb9Eig.s:850    .text:000000000000053c .LVL93
     /tmp/ccSb9Eig.s:877    .text:0000000000000568 .LVL97
     /tmp/ccSb9Eig.s:5557   .debug_str:0000000000000933 .LASF155
     /tmp/ccSb9Eig.s:5473   .debug_str:00000000000006d4 .LASF156
GAS LISTING /tmp/ccSb9Eig.s 			page 49


     /tmp/ccSb9Eig.s:684    .text:0000000000000414 .LFB25
     /tmp/ccSb9Eig.s:744    .text:0000000000000494 .LFE25
     /tmp/ccSb9Eig.s:5016   .debug_loc:00000000000002c3 .LLST17
     /tmp/ccSb9Eig.s:5029   .debug_loc:00000000000002fc .LLST18
     /tmp/ccSb9Eig.s:699    .text:0000000000000434 .LVL74
     /tmp/ccSb9Eig.s:713    .text:000000000000045c .LVL77
     /tmp/ccSb9Eig.s:721    .text:0000000000000470 .LVL79
     /tmp/ccSb9Eig.s:741    .text:0000000000000490 .LVL82
     /tmp/ccSb9Eig.s:5517   .debug_str:000000000000081f .LASF157
     /tmp/ccSb9Eig.s:5321   .debug_str:000000000000021c .LASF158
     /tmp/ccSb9Eig.s:486    .text:00000000000002b4 .LFB24
     /tmp/ccSb9Eig.s:673    .text:0000000000000414 .LFE24
     /tmp/ccSb9Eig.s:504    .text:00000000000002d8 .LBB16
     /tmp/ccSb9Eig.s:536    .text:000000000000031c .LBE16
     /tmp/ccSb9Eig.s:5040   .debug_loc:0000000000000332 .LLST11
     /tmp/ccSb9Eig.s:521    .text:00000000000002f8 .LVL53
     /tmp/ccSb9Eig.s:533    .text:000000000000031c .LVL54
     /tmp/ccSb9Eig.s:552    .text:0000000000000330 .LBB17
     /tmp/ccSb9Eig.s:591    .text:0000000000000374 .LBE17
     /tmp/ccSb9Eig.s:5051   .debug_loc:0000000000000368 .LLST12
     /tmp/ccSb9Eig.s:5062   .debug_loc:000000000000039e .LLST13
     /tmp/ccSb9Eig.s:568    .text:0000000000000354 .LVL57
     /tmp/ccSb9Eig.s:586    .text:0000000000000370 .LVL61
     /tmp/ccSb9Eig.s:592    .text:0000000000000374 .LBB20
     /tmp/ccSb9Eig.s:627    .text:00000000000003bc .LBE20
     /tmp/ccSb9Eig.s:5069   .debug_loc:00000000000003c1 .LLST14
     /tmp/ccSb9Eig.s:611    .text:0000000000000394 .LVL65
     /tmp/ccSb9Eig.s:623    .text:00000000000003b8 .LVL66
     /tmp/ccSb9Eig.s:628    .text:00000000000003bc .LBB21
     /tmp/ccSb9Eig.s:665    .text:0000000000000400 .LBE21
     /tmp/ccSb9Eig.s:5076   .debug_loc:00000000000003e4 .LLST15
     /tmp/ccSb9Eig.s:5087   .debug_loc:000000000000041a .LLST16
     /tmp/ccSb9Eig.s:644    .text:00000000000003e0 .LVL68
     /tmp/ccSb9Eig.s:660    .text:00000000000003fc .LVL72
     /tmp/ccSb9Eig.s:503    .text:00000000000002d8 .LVL50
     /tmp/ccSb9Eig.s:670    .text:0000000000000410 .LVL73
     /tmp/ccSb9Eig.s:5577   .debug_str:00000000000009af .LASF159
     /tmp/ccSb9Eig.s:5585   .debug_str:00000000000009de .LASF160
     /tmp/ccSb9Eig.s:421    .text:00000000000002b4 .LFE23
     /tmp/ccSb9Eig.s:5094   .debug_loc:000000000000043d .LLST4
     /tmp/ccSb9Eig.s:5101   .debug_loc:0000000000000460 .LLST5
     /tmp/ccSb9Eig.s:5112   .debug_loc:0000000000000496 .LLST6
     /tmp/ccSb9Eig.s:276    .text:00000000000001a4 .LBB10
     /tmp/ccSb9Eig.s:285    .text:00000000000001ac .LBE10
     /tmp/ccSb9Eig.s:5119   .debug_loc:00000000000004b9 .LLST7
     /tmp/ccSb9Eig.s:5127   .debug_loc:00000000000004dd .LLST8
     /tmp/ccSb9Eig.s:338    .text:000000000000021c .LBB12
     /tmp/ccSb9Eig.s:345    .text:0000000000000220 .LBE12
     /tmp/ccSb9Eig.s:5134   .debug_loc:0000000000000500 .LLST9
     /tmp/ccSb9Eig.s:352    .text:000000000000022c .LBB14
     /tmp/ccSb9Eig.s:359    .text:0000000000000230 .LBE14
     /tmp/ccSb9Eig.s:5141   .debug_loc:0000000000000523 .LLST10
     /tmp/ccSb9Eig.s:259    .text:0000000000000180 .LVL24
     /tmp/ccSb9Eig.s:266    .text:0000000000000194 .LVL25
     /tmp/ccSb9Eig.s:291    .text:00000000000001b8 .LVL28
     /tmp/ccSb9Eig.s:299    .text:00000000000001d0 .LVL30
     /tmp/ccSb9Eig.s:306    .text:00000000000001dc .LVL31
GAS LISTING /tmp/ccSb9Eig.s 			page 50


     /tmp/ccSb9Eig.s:311    .text:00000000000001e8 .LVL32
     /tmp/ccSb9Eig.s:318    .text:0000000000000200 .LVL33
     /tmp/ccSb9Eig.s:325    .text:000000000000020c .LVL34
     /tmp/ccSb9Eig.s:331    .text:0000000000000218 .LVL35
     /tmp/ccSb9Eig.s:367    .text:0000000000000248 .LVL40
     /tmp/ccSb9Eig.s:391    .text:0000000000000270 .LVL43
     /tmp/ccSb9Eig.s:395    .text:000000000000027c .LVL44
     /tmp/ccSb9Eig.s:402    .text:000000000000028c .LVL45
     /tmp/ccSb9Eig.s:406    .text:0000000000000298 .LVL46
     /tmp/ccSb9Eig.s:414    .text:00000000000002a8 .LVL48
     /tmp/ccSb9Eig.s:418    .text:00000000000002b4 .LVL49
     /tmp/ccSb9Eig.s:5493   .debug_str:000000000000076d .LASF161
     /tmp/ccSb9Eig.s:5575   .debug_str:0000000000000999 .LASF162
     /tmp/ccSb9Eig.s:119    .text:00000000000000a0 .LFB22
     /tmp/ccSb9Eig.s:203    .text:0000000000000144 .LFE22
     /tmp/ccSb9Eig.s:5148   .debug_loc:0000000000000546 .LLST2
     /tmp/ccSb9Eig.s:140    .text:00000000000000c4 .LBB9
     /tmp/ccSb9Eig.s:189    .text:0000000000000130 .LBE9
     /tmp/ccSb9Eig.s:5162   .debug_loc:000000000000057f .LLST3
     /tmp/ccSb9Eig.s:150    .text:00000000000000dc .LVL16
     /tmp/ccSb9Eig.s:155    .text:00000000000000e8 .LVL17
     /tmp/ccSb9Eig.s:160    .text:00000000000000f8 .LVL18
     /tmp/ccSb9Eig.s:171    .text:000000000000010c .LVL20
     /tmp/ccSb9Eig.s:174    .text:0000000000000114 .LVL21
     /tmp/ccSb9Eig.s:186    .text:000000000000012c .LVL22
     /tmp/ccSb9Eig.s:138    .text:00000000000000c4 .LVL14
     /tmp/ccSb9Eig.s:5589   .debug_str:00000000000009f9 .LASF163
     /tmp/ccSb9Eig.s:5369   .debug_str:000000000000034b .LASF164
     /tmp/ccSb9Eig.s:21     .text:0000000000000000 .LFB21
     /tmp/ccSb9Eig.s:105    .text:00000000000000a0 .LFE21
     /tmp/ccSb9Eig.s:5174   .debug_loc:00000000000005b6 .LLST0
     /tmp/ccSb9Eig.s:43     .text:0000000000000024 .LBB8
     /tmp/ccSb9Eig.s:91     .text:000000000000008c .LBE8
     /tmp/ccSb9Eig.s:5188   .debug_loc:00000000000005ef .LLST1
     /tmp/ccSb9Eig.s:53     .text:000000000000003c .LVL4
     /tmp/ccSb9Eig.s:58     .text:0000000000000048 .LVL5
     /tmp/ccSb9Eig.s:63     .text:0000000000000058 .LVL6
     /tmp/ccSb9Eig.s:74     .text:000000000000006c .LVL8
     /tmp/ccSb9Eig.s:77     .text:0000000000000074 .LVL9
     /tmp/ccSb9Eig.s:88     .text:0000000000000088 .LVL10
     /tmp/ccSb9Eig.s:41     .text:0000000000000024 .LVL2
     /tmp/ccSb9Eig.s:5363   .debug_str:0000000000000327 .LASF184
     /tmp/ccSb9Eig.s:5287   .debug_str:000000000000011f .LASF185
     /tmp/ccSb9Eig.s:209    .text:0000000000000144 .LFB20
     /tmp/ccSb9Eig.s:226    .text:000000000000015c .LFE20
     /tmp/ccSb9Eig.s:5353   .debug_str:00000000000002de .LASF165
     /tmp/ccSb9Eig.s:1283   .text:0000000000000844 .LFB19
     /tmp/ccSb9Eig.s:1312   .text:0000000000000874 .LFE19
     /tmp/ccSb9Eig.s:1297   .text:000000000000085c .LVL146
     /tmp/ccSb9Eig.s:1301   .text:0000000000000864 .LVL147
     /tmp/ccSb9Eig.s:5351   .debug_str:00000000000002d9 .LASF166
     /tmp/ccSb9Eig.s:5433   .debug_str:0000000000000536 .LASF167
     /tmp/ccSb9Eig.s:5377   .debug_str:0000000000000384 .LASF168
     /tmp/ccSb9Eig.s:5343   .debug_str:00000000000002a3 .LASF169
     /tmp/ccSb9Eig.s:5531   .debug_str:0000000000000885 .LASF170
     /tmp/ccSb9Eig.s:5451   .debug_str:0000000000000645 .LASF171
     /tmp/ccSb9Eig.s:5605   .debug_str:0000000000000a7a .LASF186
GAS LISTING /tmp/ccSb9Eig.s 			page 51


     /tmp/ccSb9Eig.s:5283   .debug_str:00000000000000f9 .LASF187
     /tmp/ccSb9Eig.s:1048   .text:000000000000066c .LVL113
     /tmp/ccSb9Eig.s:1233   .text:0000000000000804 .LVL142
     /tmp/ccSb9Eig.s:1237   .text:0000000000000808 .LVL143
     /tmp/ccSb9Eig.s:998    .text:0000000000000610 .LVL108
     /tmp/ccSb9Eig.s:1043   .text:0000000000000668 .LVL112
     /tmp/ccSb9Eig.s:1069   .text:0000000000000694 .LVL116
     /tmp/ccSb9Eig.s:1124   .text:0000000000000720 .LVL124
     /tmp/ccSb9Eig.s:1127   .text:0000000000000724 .LVL125
     /tmp/ccSb9Eig.s:1152   .text:0000000000000750 .LVL129
     /tmp/ccSb9Eig.s:1102   .text:00000000000006ec .LVL121
     /tmp/ccSb9Eig.s:1133   .text:000000000000072c .LVL126
     /tmp/ccSb9Eig.s:1205   .text:00000000000007d4 .LVL137
     /tmp/ccSb9Eig.s:1208   .text:00000000000007d8 .LVL138
     /tmp/ccSb9Eig.s:1186   .text:00000000000007a8 .LVL134
     /tmp/ccSb9Eig.s:1214   .text:00000000000007e0 .LVL139
     /tmp/ccSb9Eig.s:915    .text:000000000000059c .LVL100
     /tmp/ccSb9Eig.s:923    .text:00000000000005b0 .LVL102
     /tmp/ccSb9Eig.s:937    .text:00000000000005c8 .LVL104
     /tmp/ccSb9Eig.s:943    .text:00000000000005d0 .LVL105
     /tmp/ccSb9Eig.s:791    .text:00000000000004d0 .LVL84
     /tmp/ccSb9Eig.s:842    .text:0000000000000524 .LVL92
     /tmp/ccSb9Eig.s:866    .text:0000000000000550 .LVL95
     /tmp/ccSb9Eig.s:870    .text:0000000000000558 .LVL96
     /tmp/ccSb9Eig.s:861    .text:0000000000000548 .LVL94
     /tmp/ccSb9Eig.s:810    .text:00000000000004e4 .LVL87
     /tmp/ccSb9Eig.s:824    .text:0000000000000500 .LVL89
     /tmp/ccSb9Eig.s:707    .text:0000000000000450 .LVL75
     /tmp/ccSb9Eig.s:711    .text:0000000000000454 .LVL76
     /tmp/ccSb9Eig.s:719    .text:0000000000000468 .LVL78
     /tmp/ccSb9Eig.s:733    .text:0000000000000480 .LVL80
     /tmp/ccSb9Eig.s:739    .text:0000000000000488 .LVL81
     /tmp/ccSb9Eig.s:508    .text:00000000000002e0 .LVL51
     /tmp/ccSb9Eig.s:549    .text:0000000000000330 .LVL55
     /tmp/ccSb9Eig.s:555    .text:0000000000000334 .LVL56
     /tmp/ccSb9Eig.s:575    .text:000000000000035c .LVL58
     /tmp/ccSb9Eig.s:578    .text:0000000000000360 .LVL59
     /tmp/ccSb9Eig.s:595    .text:0000000000000378 .LVL62
     /tmp/ccSb9Eig.s:584    .text:0000000000000368 .LVL60
     /tmp/ccSb9Eig.s:597    .text:000000000000037c .LVL63
     /tmp/ccSb9Eig.s:631    .text:00000000000003c0 .LVL67
     /tmp/ccSb9Eig.s:650    .text:00000000000003e8 .LVL69
     /tmp/ccSb9Eig.s:652    .text:00000000000003ec .LVL70
     /tmp/ccSb9Eig.s:658    .text:00000000000003f4 .LVL71
     /tmp/ccSb9Eig.s:294    .text:00000000000001bc .LVL29
     /tmp/ccSb9Eig.s:378    .text:0000000000000254 .LVL41
     /tmp/ccSb9Eig.s:410    .text:000000000000029c .LVL47
     /tmp/ccSb9Eig.s:381    .text:0000000000000258 .LVL42
     /tmp/ccSb9Eig.s:275    .text:00000000000001a4 .LVL26
     /tmp/ccSb9Eig.s:283    .text:00000000000001ac .LVL27
     /tmp/ccSb9Eig.s:337    .text:000000000000021c .LVL36
     /tmp/ccSb9Eig.s:343    .text:0000000000000220 .LVL37
     /tmp/ccSb9Eig.s:351    .text:000000000000022c .LVL38
     /tmp/ccSb9Eig.s:357    .text:0000000000000230 .LVL39
     /tmp/ccSb9Eig.s:122    .text:00000000000000a0 .LVL12
     /tmp/ccSb9Eig.s:136    .text:00000000000000bc .LVL13
     /tmp/ccSb9Eig.s:144    .text:00000000000000cc .LVL15
GAS LISTING /tmp/ccSb9Eig.s 			page 52


     /tmp/ccSb9Eig.s:198    .text:000000000000013c .LVL23
     /tmp/ccSb9Eig.s:25     .text:0000000000000000 .LVL0
     /tmp/ccSb9Eig.s:39     .text:000000000000001c .LVL1
     /tmp/ccSb9Eig.s:47     .text:000000000000002c .LVL3
     /tmp/ccSb9Eig.s:100    .text:0000000000000098 .LVL11
     /tmp/ccSb9Eig.s:1322   .debug_info:0000000000000000 .Ldebug_info0
     /tmp/ccSb9Eig.s:560    .text:000000000000033c .LBB18
     /tmp/ccSb9Eig.s:571    .text:0000000000000358 .LBE18
     /tmp/ccSb9Eig.s:580    .text:0000000000000360 .LBB19
     /tmp/ccSb9Eig.s:590    .text:0000000000000374 .LBE19
     /tmp/ccSb9Eig.s:636    .text:00000000000003c8 .LBB22
     /tmp/ccSb9Eig.s:647    .text:00000000000003e4 .LBE22
     /tmp/ccSb9Eig.s:654    .text:00000000000003ec .LBB23
     /tmp/ccSb9Eig.s:664    .text:0000000000000400 .LBE23
     /tmp/ccSb9Eig.s:782    .text:00000000000004c0 .LBB24
     /tmp/ccSb9Eig.s:785    .text:00000000000004c4 .LBE24
     /tmp/ccSb9Eig.s:793    .text:00000000000004d0 .LBB27
     /tmp/ccSb9Eig.s:827    .text:0000000000000500 .LBE27
     /tmp/ccSb9Eig.s:794    .text:00000000000004d0 .LBB25
     /tmp/ccSb9Eig.s:807    .text:00000000000004e0 .LBE25
     /tmp/ccSb9Eig.s:816    .text:00000000000004f0 .LBB26
     /tmp/ccSb9Eig.s:826    .text:0000000000000500 .LBE26
     /tmp/ccSb9Eig.s:1073   .text:000000000000069c .LBB31
     /tmp/ccSb9Eig.s:1120   .text:000000000000071c .LBE31
     /tmp/ccSb9Eig.s:1129   .text:0000000000000724 .LBB32
     /tmp/ccSb9Eig.s:1147   .text:000000000000074c .LBE32
     /tmp/ccSb9Eig.s:1157   .text:0000000000000758 .LBB34
     /tmp/ccSb9Eig.s:1201   .text:00000000000007d0 .LBE34
     /tmp/ccSb9Eig.s:1210   .text:00000000000007d8 .LBB35
     /tmp/ccSb9Eig.s:1228   .text:0000000000000800 .LBE35
     /tmp/ccSb9Eig.s:424    .gcc_except_table:0000000000000000 .LLSDA23

UNDEFINED SYMBOLS
_ZN5Riscv11printStringEPKc
_ZN5Riscv12printIntegerEm
_ZN9Scheduler7getSizeEv
thread_dispatch
_Znwm
_ZN6ThreadC1EPFvPvES0_
_ZN3PCB7runningE
_ZN9Scheduler3putEP3PCB
_ZdlPv
_Unwind_Resume
__gxx_personality_v0
mem_alloc
mem_free
HEAP_END_ADDR
HEAP_START_ADDR
_ZN5Riscv10initSystemEv
