GAS LISTING /tmp/ccnrKuSV.s 			page 1


   1              		.file	"main.cpp"
   2              		.option pic
   3              		.option norelax
   4              		.text
   5              	.Ltext0:
   6              		.section	.rodata.str1.8,"aMS",@progbits,1
   7              		.align	3
   8              	.LC0:
   9 0000 54687265 		.string	"Thread 1 started...\n"
   9      61642031 
   9      20737461 
   9      72746564 
   9      2E2E2E0A 
  10 0015 000000   		.align	3
  11              	.LC1:
  12 0018 69203A20 		.string	"i : "
  12      00
  13 001d 000000   		.align	3
  14              	.LC2:
  15 0020 0A00     		.string	"\n"
  16              		.text
  17              		.align	2
  18              		.globl	_Z15thread1FunctionPv
  20              	_Z15thread1FunctionPv:
  21              	.LFB21:
  22              		.file 1 "src/main.cpp"
   1:src/main.cpp  **** #include "../h/syscall_cpp.h"
   2:src/main.cpp  **** #include "../lib/console.h"
   3:src/main.cpp  **** #include "../h/Riscv.h"
   4:src/main.cpp  **** 
   5:src/main.cpp  **** class Test
   6:src/main.cpp  **** {
   7:src/main.cpp  **** public:
   8:src/main.cpp  ****     uint64 a;
   9:src/main.cpp  **** };
  10:src/main.cpp  **** 
  11:src/main.cpp  **** //memory (de)allocation tests
  12:src/main.cpp  **** void mallocFree();
  13:src/main.cpp  **** void bigMalloc();
  14:src/main.cpp  **** void lotOfSmallMallocs();
  15:src/main.cpp  **** void badFree();
  16:src/main.cpp  **** void memoryAllocationTests();
  17:src/main.cpp  **** 
  18:src/main.cpp  **** //thread tests
  19:src/main.cpp  **** void thread1Function();
  20:src/main.cpp  **** void thread2Function();
  21:src/main.cpp  **** void threadTests();
  22:src/main.cpp  **** 
  23:src/main.cpp  **** void testQueue();
  24:src/main.cpp  **** 
  25:src/main.cpp  **** void main()
  26:src/main.cpp  **** {
  27:src/main.cpp  ****     Riscv::initSystem();
  28:src/main.cpp  **** 
  29:src/main.cpp  ****     //memoryAllocationTests();
  30:src/main.cpp  ****     threadTests();
  31:src/main.cpp  ****     //testQueue();
GAS LISTING /tmp/ccnrKuSV.s 			page 2


  32:src/main.cpp  **** }
  33:src/main.cpp  **** 
  34:src/main.cpp  **** void testQueue()
  35:src/main.cpp  **** {
  36:src/main.cpp  ****    /* Queue<uint64> q;
  37:src/main.cpp  ****     q.push(1);
  38:src/main.cpp  ****     q.push(2);
  39:src/main.cpp  ****     uint64 x = q.front();
  40:src/main.cpp  ****     q.pop();
  41:src/main.cpp  ****     Riscv::printInteger(x);
  42:src/main.cpp  ****     Riscv::printString("\n");*/
  43:src/main.cpp  **** }
  44:src/main.cpp  **** 
  45:src/main.cpp  **** void thread1Function(void* p)
  46:src/main.cpp  **** {
  23              		.loc 1 46 1
  24              		.cfi_startproc
  25              	.LVL0:
  26 0000 130101FE 		addi	sp,sp,-32
  27              		.cfi_def_cfa_offset 32
  28 0004 233C1100 		sd	ra,24(sp)
  29 0008 23388100 		sd	s0,16(sp)
  30 000c 23349100 		sd	s1,8(sp)
  31              		.cfi_offset 1, -8
  32              		.cfi_offset 8, -16
  33              		.cfi_offset 9, -24
  34 0010 13040102 		addi	s0,sp,32
  35              		.cfi_def_cfa 8, 0
  47:src/main.cpp  ****     Riscv::printString("Thread 1 started...\n");
  36              		.loc 1 47 5
  37              		.loc 1 47 23 is_stmt 0
  38 0014 17050000 		lla	a0,.LC0
  38      13050500 
  39              	.LVL1:
  40 001c 97000000 		call	_ZN5Riscv11printStringEPKc@plt
  40      E7800000 
  41              	.LVL2:
  48:src/main.cpp  ****     for(int i = 0; i < 10;i++)
  42              		.loc 1 48 5 is_stmt 1
  43              	.LBB6:
  44              		.loc 1 48 13 is_stmt 0
  45 0024 93040000 		li	s1,0
  46 0028 6F004003 		j	.L4
  47              	.LVL3:
  48              	.L3:
  49:src/main.cpp  ****     {
  50:src/main.cpp  ****         Riscv::printInteger(Scheduler::getSize());
  51:src/main.cpp  ****         if(i % 4 == 0 && i > 0)
  52:src/main.cpp  ****             thread_dispatch();
  53:src/main.cpp  ****         Riscv::printString("i : ");
  49              		.loc 1 53 9 is_stmt 1 discriminator 2
  50              		.loc 1 53 27 is_stmt 0 discriminator 2
  51 002c 17050000 		lla	a0,.LC1
  51      13050500 
  52 0034 97000000 		call	_ZN5Riscv11printStringEPKc@plt
  52      E7800000 
  53              	.LVL4:
GAS LISTING /tmp/ccnrKuSV.s 			page 3


  54:src/main.cpp  ****         Riscv::printInteger(i);
  54              		.loc 1 54 9 is_stmt 1 discriminator 2
  55              		.loc 1 54 28 is_stmt 0 discriminator 2
  56 003c 13850400 		mv	a0,s1
  57 0040 97000000 		call	_ZN5Riscv12printIntegerEm@plt
  57      E7800000 
  58              	.LVL5:
  55:src/main.cpp  ****         Riscv::printString("\n");
  59              		.loc 1 55 9 is_stmt 1 discriminator 2
  60              		.loc 1 55 27 is_stmt 0 discriminator 2
  61 0048 17050000 		lla	a0,.LC2
  61      13050500 
  62 0050 97000000 		call	_ZN5Riscv11printStringEPKc@plt
  62      E7800000 
  63              	.LVL6:
  48:src/main.cpp  ****     {
  64              		.loc 1 48 5 is_stmt 1 discriminator 2
  65 0058 9B841400 		addiw	s1,s1,1
  66              	.LVL7:
  67              	.L4:
  48:src/main.cpp  ****     {
  68              		.loc 1 48 22 discriminator 1
  69 005c 93079000 		li	a5,9
  70 0060 63C69702 		bgt	s1,a5,.L1
  50:src/main.cpp  ****         if(i % 4 == 0 && i > 0)
  71              		.loc 1 50 9
  50:src/main.cpp  ****         if(i % 4 == 0 && i > 0)
  72              		.loc 1 50 47 is_stmt 0
  73 0064 97000000 		call	_ZN9Scheduler7getSizeEv@plt
  73      E7800000 
  74              	.LVL8:
  50:src/main.cpp  ****         if(i % 4 == 0 && i > 0)
  75              		.loc 1 50 28
  76 006c 97000000 		call	_ZN5Riscv12printIntegerEm@plt
  76      E7800000 
  77              	.LVL9:
  51:src/main.cpp  ****             thread_dispatch();
  78              		.loc 1 51 9 is_stmt 1
  51:src/main.cpp  ****             thread_dispatch();
  79              		.loc 1 51 18 is_stmt 0
  80 0074 93F73400 		andi	a5,s1,3
  51:src/main.cpp  ****             thread_dispatch();
  81              		.loc 1 51 9
  82 0078 E39A07FA 		bnez	a5,.L3
  51:src/main.cpp  ****             thread_dispatch();
  83              		.loc 1 51 23 discriminator 1
  84 007c E35890FA 		blez	s1,.L3
  52:src/main.cpp  ****         Riscv::printString("i : ");
  85              		.loc 1 52 13 is_stmt 1
  52:src/main.cpp  ****         Riscv::printString("i : ");
  86              		.loc 1 52 28 is_stmt 0
  87 0080 97000000 		call	thread_dispatch@plt
  87      E7800000 
  88              	.LVL10:
  89 0088 6FF05FFA 		j	.L3
  90              	.L1:
  91              	.LBE6:
GAS LISTING /tmp/ccnrKuSV.s 			page 4


  56:src/main.cpp  ****     }
  57:src/main.cpp  **** }
  92              		.loc 1 57 1
  93 008c 83308101 		ld	ra,24(sp)
  94              		.cfi_restore 1
  95 0090 03340101 		ld	s0,16(sp)
  96              		.cfi_restore 8
  97              		.cfi_def_cfa 2, 32
  98 0094 83348100 		ld	s1,8(sp)
  99              		.cfi_restore 9
 100              	.LVL11:
 101 0098 13010102 		addi	sp,sp,32
 102              		.cfi_def_cfa_offset 0
 103 009c 67800000 		jr	ra
 104              		.cfi_endproc
 105              	.LFE21:
 107              		.section	.rodata.str1.8
 108 0022 00000000 		.align	3
 108      0000
 109              	.LC3:
 110 0028 54687265 		.string	"Thread 2 started...\n"
 110      61642032 
 110      20737461 
 110      72746564 
 110      2E2E2E0A 
 111 003d 000000   		.align	3
 112              	.LC4:
 113 0040 6A203A20 		.string	"j : "
 113      00
 114              		.text
 115              		.align	2
 116              		.globl	_Z15thread2FunctionPv
 118              	_Z15thread2FunctionPv:
 119              	.LFB22:
  58:src/main.cpp  **** 
  59:src/main.cpp  **** void thread2Function(void* p)
  60:src/main.cpp  **** {
 120              		.loc 1 60 1 is_stmt 1
 121              		.cfi_startproc
 122              	.LVL12:
 123 00a0 130101FE 		addi	sp,sp,-32
 124              		.cfi_def_cfa_offset 32
 125 00a4 233C1100 		sd	ra,24(sp)
 126 00a8 23388100 		sd	s0,16(sp)
 127 00ac 23349100 		sd	s1,8(sp)
 128              		.cfi_offset 1, -8
 129              		.cfi_offset 8, -16
 130              		.cfi_offset 9, -24
 131 00b0 13040102 		addi	s0,sp,32
 132              		.cfi_def_cfa 8, 0
  61:src/main.cpp  ****     Riscv::printString("Thread 2 started...\n");
 133              		.loc 1 61 5
 134              		.loc 1 61 23 is_stmt 0
 135 00b4 17050000 		lla	a0,.LC3
 135      13050500 
 136              	.LVL13:
 137 00bc 97000000 		call	_ZN5Riscv11printStringEPKc@plt
GAS LISTING /tmp/ccnrKuSV.s 			page 5


 137      E7800000 
 138              	.LVL14:
  62:src/main.cpp  ****     for(int j = 0; j < 10;j++)
 139              		.loc 1 62 5 is_stmt 1
 140              	.LBB7:
 141              		.loc 1 62 13 is_stmt 0
 142 00c4 93040000 		li	s1,0
 143 00c8 6F004003 		j	.L9
 144              	.LVL15:
 145              	.L8:
  63:src/main.cpp  ****     {
  64:src/main.cpp  ****         Riscv::printInteger(Scheduler::getSize());
  65:src/main.cpp  ****         if(j % 5 == 0 && j > 0)
  66:src/main.cpp  ****             thread_dispatch();
  67:src/main.cpp  ****         Riscv::printString("j : ");
 146              		.loc 1 67 9 is_stmt 1 discriminator 2
 147              		.loc 1 67 27 is_stmt 0 discriminator 2
 148 00cc 17050000 		lla	a0,.LC4
 148      13050500 
 149 00d4 97000000 		call	_ZN5Riscv11printStringEPKc@plt
 149      E7800000 
 150              	.LVL16:
  68:src/main.cpp  ****         Riscv::printInteger(j);
 151              		.loc 1 68 9 is_stmt 1 discriminator 2
 152              		.loc 1 68 28 is_stmt 0 discriminator 2
 153 00dc 13850400 		mv	a0,s1
 154 00e0 97000000 		call	_ZN5Riscv12printIntegerEm@plt
 154      E7800000 
 155              	.LVL17:
  69:src/main.cpp  ****         Riscv::printString("\n");
 156              		.loc 1 69 9 is_stmt 1 discriminator 2
 157              		.loc 1 69 27 is_stmt 0 discriminator 2
 158 00e8 17050000 		lla	a0,.LC2
 158      13050500 
 159 00f0 97000000 		call	_ZN5Riscv11printStringEPKc@plt
 159      E7800000 
 160              	.LVL18:
  62:src/main.cpp  ****     {
 161              		.loc 1 62 5 is_stmt 1 discriminator 2
 162 00f8 9B841400 		addiw	s1,s1,1
 163              	.LVL19:
 164              	.L9:
  62:src/main.cpp  ****     {
 165              		.loc 1 62 22 discriminator 1
 166 00fc 93079000 		li	a5,9
 167 0100 63C89702 		bgt	s1,a5,.L6
  64:src/main.cpp  ****         if(j % 5 == 0 && j > 0)
 168              		.loc 1 64 9
  64:src/main.cpp  ****         if(j % 5 == 0 && j > 0)
 169              		.loc 1 64 47 is_stmt 0
 170 0104 97000000 		call	_ZN9Scheduler7getSizeEv@plt
 170      E7800000 
 171              	.LVL20:
  64:src/main.cpp  ****         if(j % 5 == 0 && j > 0)
 172              		.loc 1 64 28
 173 010c 97000000 		call	_ZN5Riscv12printIntegerEm@plt
 173      E7800000 
GAS LISTING /tmp/ccnrKuSV.s 			page 6


 174              	.LVL21:
  65:src/main.cpp  ****             thread_dispatch();
 175              		.loc 1 65 9 is_stmt 1
  65:src/main.cpp  ****             thread_dispatch();
 176              		.loc 1 65 14 is_stmt 0
 177 0114 93075000 		li	a5,5
 178 0118 BBE7F402 		remw	a5,s1,a5
  65:src/main.cpp  ****             thread_dispatch();
 179              		.loc 1 65 9
 180 011c E39807FA 		bnez	a5,.L8
  65:src/main.cpp  ****             thread_dispatch();
 181              		.loc 1 65 23 discriminator 1
 182 0120 E35690FA 		blez	s1,.L8
  66:src/main.cpp  ****         Riscv::printString("j : ");
 183              		.loc 1 66 13 is_stmt 1
  66:src/main.cpp  ****         Riscv::printString("j : ");
 184              		.loc 1 66 28 is_stmt 0
 185 0124 97000000 		call	thread_dispatch@plt
 185      E7800000 
 186              	.LVL22:
 187 012c 6FF01FFA 		j	.L8
 188              	.L6:
 189              	.LBE7:
  70:src/main.cpp  ****     }
  71:src/main.cpp  **** }
 190              		.loc 1 71 1
 191 0130 83308101 		ld	ra,24(sp)
 192              		.cfi_restore 1
 193 0134 03340101 		ld	s0,16(sp)
 194              		.cfi_restore 8
 195              		.cfi_def_cfa 2, 32
 196 0138 83348100 		ld	s1,8(sp)
 197              		.cfi_restore 9
 198              	.LVL23:
 199 013c 13010102 		addi	sp,sp,32
 200              		.cfi_def_cfa_offset 0
 201 0140 67800000 		jr	ra
 202              		.cfi_endproc
 203              	.LFE22:
 205              		.align	2
 206              		.globl	_Z9testQueuev
 208              	_Z9testQueuev:
 209              	.LFB20:
  35:src/main.cpp  ****    /* Queue<uint64> q;
 210              		.loc 1 35 1 is_stmt 1
 211              		.cfi_startproc
 212 0144 130101FF 		addi	sp,sp,-16
 213              		.cfi_def_cfa_offset 16
 214 0148 23348100 		sd	s0,8(sp)
 215              		.cfi_offset 8, -8
 216 014c 13040101 		addi	s0,sp,16
 217              		.cfi_def_cfa 8, 0
  43:src/main.cpp  **** 
 218              		.loc 1 43 1 is_stmt 0
 219 0150 03348100 		ld	s0,8(sp)
 220              		.cfi_restore 8
 221              		.cfi_def_cfa 2, 16
GAS LISTING /tmp/ccnrKuSV.s 			page 7


 222 0154 13010101 		addi	sp,sp,16
 223              		.cfi_def_cfa_offset 0
 224 0158 67800000 		jr	ra
 225              		.cfi_endproc
 226              	.LFE20:
 228              		.section	.rodata.str1.8
 229 0045 000000   		.align	3
 230              	.LC5:
 231 0048 456E642E 		.string	"End..."
 231      2E2E00
 232              		.text
 233              		.align	2
 234              		.globl	_Z11threadTestsv
 236              	_Z11threadTestsv:
 237              	.LFB23:
  72:src/main.cpp  **** 
  73:src/main.cpp  **** void threadTests()
  74:src/main.cpp  **** {
 238              		.loc 1 74 1 is_stmt 1
 239              		.cfi_startproc
 240              		.cfi_personality 0x9b,DW.ref.__gxx_personality_v0
 241              		.cfi_lsda 0x1b,.LLSDA23
 242 015c 130101FE 		addi	sp,sp,-32
 243              		.cfi_def_cfa_offset 32
 244 0160 233C1100 		sd	ra,24(sp)
 245 0164 23388100 		sd	s0,16(sp)
 246 0168 23349100 		sd	s1,8(sp)
 247 016c 23302101 		sd	s2,0(sp)
 248              		.cfi_offset 1, -8
 249              		.cfi_offset 8, -16
 250              		.cfi_offset 9, -24
 251              		.cfi_offset 18, -32
 252 0170 13040102 		addi	s0,sp,32
 253              		.cfi_def_cfa 8, 0
  75:src/main.cpp  ****     Thread* t = new Thread(0, 0);
 254              		.loc 1 75 5
 255              		.loc 1 75 32 is_stmt 0
 256 0174 13058000 		li	a0,8
 257              	.LEHB0:
 258 0178 97000000 		call	_Znwm@plt
 258      E7800000 
 259              	.LVL24:
 260              	.LEHE0:
 261 0180 93040500 		mv	s1,a0
 262 0184 13060000 		li	a2,0
 263 0188 93050000 		li	a1,0
 264              	.LEHB1:
 265 018c 97000000 		call	_ZN6ThreadC1EPFvPvES0_@plt
 265      E7800000 
 266              	.LVL25:
 267              	.LEHE1:
  76:src/main.cpp  ****     PCB::running = t->myHandle;
 268              		.loc 1 76 5 is_stmt 1 discriminator 2
 269              		.loc 1 76 23 is_stmt 0 discriminator 2
 270 0194 03B70400 		ld	a4,0(s1)
 271              		.loc 1 76 18 discriminator 2
 272 0198 97070000 		la	a5,_ZN3PCB7runningE
GAS LISTING /tmp/ccnrKuSV.s 			page 8


 272      83B70700 
 273 01a0 23B0E700 		sd	a4,0(a5)
  77:src/main.cpp  ****     Thread* t1 = new Thread(&thread1Function, 0);
 274              		.loc 1 77 5 is_stmt 1 discriminator 2
 275              		.loc 1 77 48 is_stmt 0 discriminator 2
 276 01a4 13058000 		li	a0,8
 277              	.LEHB2:
 278 01a8 97000000 		call	_Znwm@plt
 278      E7800000 
 279              	.LVL26:
 280              	.LEHE2:
 281 01b0 93040500 		mv	s1,a0
 282              	.LVL27:
 283 01b4 13060000 		li	a2,0
 284 01b8 97050000 		lla	a1,_Z15thread1FunctionPv
 284      93850500 
 285              	.LEHB3:
 286 01c0 97000000 		call	_ZN6ThreadC1EPFvPvES0_@plt
 286      E7800000 
 287              	.LVL28:
 288              	.LEHE3:
  78:src/main.cpp  ****     Scheduler::put(t1->myHandle);
 289              		.loc 1 78 5 is_stmt 1 discriminator 2
 290              		.loc 1 78 19 is_stmt 0 discriminator 2
 291 01c8 03B50400 		ld	a0,0(s1)
 292              	.LEHB4:
 293 01cc 97000000 		call	_ZN9Scheduler3putEP3PCB@plt
 293      E7800000 
 294              	.LVL29:
  79:src/main.cpp  ****     Thread* t2 = new Thread(&thread2Function, 0);
 295              		.loc 1 79 5 is_stmt 1 discriminator 2
 296              		.loc 1 79 48 is_stmt 0 discriminator 2
 297 01d4 13058000 		li	a0,8
 298 01d8 97000000 		call	_Znwm@plt
 298      E7800000 
 299              	.LVL30:
 300              	.LEHE4:
 301 01e0 13090500 		mv	s2,a0
 302 01e4 13060000 		li	a2,0
 303 01e8 97050000 		lla	a1,_Z15thread2FunctionPv
 303      93850500 
 304              	.LEHB5:
 305 01f0 97000000 		call	_ZN6ThreadC1EPFvPvES0_@plt
 305      E7800000 
 306              	.LVL31:
 307              	.LEHE5:
  80:src/main.cpp  ****     Scheduler::put(t2->myHandle);
 308              		.loc 1 80 5 is_stmt 1 discriminator 2
 309              		.loc 1 80 19 is_stmt 0 discriminator 2
 310 01f8 03350900 		ld	a0,0(s2)
 311              	.LEHB6:
 312 01fc 97000000 		call	_ZN9Scheduler3putEP3PCB@plt
 312      E7800000 
 313              	.LVL32:
 314 0204 6F00C000 		j	.L16
 315              	.L14:
  81:src/main.cpp  **** 
GAS LISTING /tmp/ccnrKuSV.s 			page 9


  82:src/main.cpp  ****     //Riscv::enableInterrupts();
  83:src/main.cpp  **** 
  84:src/main.cpp  ****     while(!t1->myHandle->getFinished()
  85:src/main.cpp  ****         || !t2->myHandle->getFinished())
  86:src/main.cpp  ****     {
  87:src/main.cpp  ****         thread_dispatch();
 316              		.loc 1 87 9 is_stmt 1 discriminator 3
 317              		.loc 1 87 24 is_stmt 0 discriminator 3
 318 0208 97000000 		call	thread_dispatch@plt
 318      E7800000 
 319              	.LVL33:
 320              	.L16:
  84:src/main.cpp  ****         || !t2->myHandle->getFinished())
 321              		.loc 1 84 5 is_stmt 1
  85:src/main.cpp  ****     {
 322              		.loc 1 85 9
  84:src/main.cpp  ****         || !t2->myHandle->getFinished())
 323              		.loc 1 84 16 is_stmt 0
 324 0210 83B70400 		ld	a5,0(s1)
 325              	.LVL34:
 326              	.LBB8:
 327              	.LBB9:
 328              		.file 2 "src/../h/PCB.h"
   1:src/../h/PCB.h **** //
   2:src/../h/PCB.h **** // Created by os on 4/27/22.
   3:src/../h/PCB.h **** //
   4:src/../h/PCB.h **** 
   5:src/../h/PCB.h **** #ifndef PROJECT_BASE_V1_0_PCB_H
   6:src/../h/PCB.h **** #define PROJECT_BASE_V1_0_PCB_H
   7:src/../h/PCB.h **** 
   8:src/../h/PCB.h **** #include "../lib/hw.h"
   9:src/../h/PCB.h **** #include "Scheduler.h"
  10:src/../h/PCB.h **** #include "Riscv.h"
  11:src/../h/PCB.h **** 
  12:src/../h/PCB.h **** class PCB
  13:src/../h/PCB.h **** {
  14:src/../h/PCB.h **** public:
  15:src/../h/PCB.h ****     using Body = void (*)(void*);
  16:src/../h/PCB.h **** 
  17:src/../h/PCB.h ****     PCB(Body body,  void* args, void* stack_space, uint64 timeSlice);
  18:src/../h/PCB.h **** 
  19:src/../h/PCB.h ****     void start();
  20:src/../h/PCB.h ****     static void dispatch();
  21:src/../h/PCB.h ****     static void sleep(time_t);
  22:src/../h/PCB.h **** 
  23:src/../h/PCB.h ****     static PCB* running;
  24:src/../h/PCB.h **** 
  25:src/../h/PCB.h ****     static const uint64 THREAD_CREATE = 0x11;
  26:src/../h/PCB.h **** 
  27:src/../h/PCB.h ****     static const uint64 THREAD_EXIT = 0x12;
  28:src/../h/PCB.h ****     static const uint64 THREAD_DISPATCH = 0x13;
  29:src/../h/PCB.h **** 
  30:src/../h/PCB.h ****     static uint64 timeSliceCounter;
  31:src/../h/PCB.h **** 
  32:src/../h/PCB.h ****     uint64 getTimeSlice() { return timeSlice;}
  33:src/../h/PCB.h **** 
  34:src/../h/PCB.h ****     void setFinished(bool f) {finished = f;}
GAS LISTING /tmp/ccnrKuSV.s 			page 10


  35:src/../h/PCB.h **** 
  36:src/../h/PCB.h ****     bool getFinished() { return finished;}
 329              		.loc 2 36 26 is_stmt 1
 330              		.loc 2 36 33 is_stmt 0
 331 0214 83C70703 		lbu	a5,48(a5)
 332              	.LVL35:
 333              	.LBE9:
 334              	.LBE8:
  85:src/main.cpp  ****     {
 335              		.loc 1 85 9
 336 0218 E38807FE 		beqz	a5,.L14
  85:src/main.cpp  ****     {
 337              		.loc 1 85 17 discriminator 2
 338 021c 83370900 		ld	a5,0(s2)
 339              	.LVL36:
 340              	.LBB10:
 341              	.LBB11:
 342              		.loc 2 36 26 is_stmt 1 discriminator 2
 343              		.loc 2 36 33 is_stmt 0 discriminator 2
 344 0220 83C70703 		lbu	a5,48(a5)
 345              	.LVL37:
 346              	.LBE11:
 347              	.LBE10:
  85:src/main.cpp  ****     {
 348              		.loc 1 85 9 discriminator 2
 349 0224 E38207FE 		beqz	a5,.L14
  88:src/main.cpp  ****     }
  89:src/main.cpp  **** 
  90:src/main.cpp  ****     Riscv::printString("End...");
 350              		.loc 1 90 5 is_stmt 1
 351              		.loc 1 90 23 is_stmt 0
 352 0228 17050000 		lla	a0,.LC5
 352      13050500 
 353 0230 97000000 		call	_ZN5Riscv11printStringEPKc@plt
 353      E7800000 
 354              	.LVL38:
 355              	.LEHE6:
  91:src/main.cpp  **** }
 356              		.loc 1 91 1
 357 0238 83308101 		ld	ra,24(sp)
 358              		.cfi_remember_state
 359              		.cfi_restore 1
 360 023c 03340101 		ld	s0,16(sp)
 361              		.cfi_restore 8
 362              		.cfi_def_cfa 2, 32
 363 0240 83348100 		ld	s1,8(sp)
 364              		.cfi_restore 9
 365              	.LVL39:
 366 0244 03390100 		ld	s2,0(sp)
 367              		.cfi_restore 18
 368              	.LVL40:
 369 0248 13010102 		addi	sp,sp,32
 370              		.cfi_def_cfa_offset 0
 371 024c 67800000 		jr	ra
 372              	.L20:
 373              		.cfi_restore_state
 374 0250 13090500 		mv	s2,a0
GAS LISTING /tmp/ccnrKuSV.s 			page 11


  75:src/main.cpp  ****     PCB::running = t->myHandle;
 375              		.loc 1 75 32
 376 0254 13850400 		mv	a0,s1
 377 0258 97000000 		call	_ZdlPv@plt
 377      E7800000 
 378              	.LVL41:
 379 0260 13050900 		mv	a0,s2
 380              	.LEHB7:
 381 0264 97000000 		call	_Unwind_Resume@plt
 381      E7800000 
 382              	.LVL42:
 383              	.LEHE7:
 384              	.L21:
 385 026c 13090500 		mv	s2,a0
  77:src/main.cpp  ****     Scheduler::put(t1->myHandle);
 386              		.loc 1 77 48
 387 0270 13850400 		mv	a0,s1
 388 0274 97000000 		call	_ZdlPv@plt
 388      E7800000 
 389              	.LVL43:
 390 027c 13050900 		mv	a0,s2
 391              	.LEHB8:
 392 0280 97000000 		call	_Unwind_Resume@plt
 392      E7800000 
 393              	.LVL44:
 394              	.LEHE8:
 395              	.L22:
 396 0288 93040500 		mv	s1,a0
 397              	.LVL45:
  79:src/main.cpp  ****     Scheduler::put(t2->myHandle);
 398              		.loc 1 79 48
 399 028c 13050900 		mv	a0,s2
 400 0290 97000000 		call	_ZdlPv@plt
 400      E7800000 
 401              	.LVL46:
 402 0298 13850400 		mv	a0,s1
 403              	.LEHB9:
 404 029c 97000000 		call	_Unwind_Resume@plt
 404      E7800000 
 405              	.LVL47:
 406              	.LEHE9:
 407              		.cfi_endproc
 408              	.LFE23:
 409              		.globl	__gxx_personality_v0
 410              		.section	.gcc_except_table,"a",@progbits
 411              	.LLSDA23:
 412 0000 FF       		.byte	0xff
 413 0001 FF       		.byte	0xff
 414 0002 03       		.byte	0x3
 415 0003 8201     		.byte	0x82,0x1
 416 0005 00000000 		.4byte	.LEHB0-.LFB23
 417 0009 00000000 		.4byte	.LEHE0-.LEHB0
 418 000d 00000000 		.4byte	0
 419 0011 00       		.byte	0
 420 0012 00000000 		.4byte	.LEHB1-.LFB23
 421 0016 00000000 		.4byte	.LEHE1-.LEHB1
 422 001a 00000000 		.4byte	.L20-.LFB23
GAS LISTING /tmp/ccnrKuSV.s 			page 12


 423 001e 00       		.byte	0
 424 001f 00000000 		.4byte	.LEHB2-.LFB23
 425 0023 00000000 		.4byte	.LEHE2-.LEHB2
 426 0027 00000000 		.4byte	0
 427 002b 00       		.byte	0
 428 002c 00000000 		.4byte	.LEHB3-.LFB23
 429 0030 00000000 		.4byte	.LEHE3-.LEHB3
 430 0034 00000000 		.4byte	.L21-.LFB23
 431 0038 00       		.byte	0
 432 0039 00000000 		.4byte	.LEHB4-.LFB23
 433 003d 00000000 		.4byte	.LEHE4-.LEHB4
 434 0041 00000000 		.4byte	0
 435 0045 00       		.byte	0
 436 0046 00000000 		.4byte	.LEHB5-.LFB23
 437 004a 00000000 		.4byte	.LEHE5-.LEHB5
 438 004e 00000000 		.4byte	.L22-.LFB23
 439 0052 00       		.byte	0
 440 0053 00000000 		.4byte	.LEHB6-.LFB23
 441 0057 00000000 		.4byte	.LEHE6-.LEHB6
 442 005b 00000000 		.4byte	0
 443 005f 00       		.byte	0
 444 0060 00000000 		.4byte	.LEHB7-.LFB23
 445 0064 00000000 		.4byte	.LEHE7-.LEHB7
 446 0068 00000000 		.4byte	0
 447 006c 00       		.byte	0
 448 006d 00000000 		.4byte	.LEHB8-.LFB23
 449 0071 00000000 		.4byte	.LEHE8-.LEHB8
 450 0075 00000000 		.4byte	0
 451 0079 00       		.byte	0
 452 007a 00000000 		.4byte	.LEHB9-.LFB23
 453 007e 00000000 		.4byte	.LEHE9-.LEHB9
 454 0082 00000000 		.4byte	0
 455 0086 00       		.byte	0
 456              		.text
 458              		.align	2
 459              		.globl	main
 461              	main:
 462              	.LFB19:
  26:src/main.cpp  ****     Riscv::initSystem();
 463              		.loc 1 26 1 is_stmt 1
 464              		.cfi_startproc
 465 02a4 130101FF 		addi	sp,sp,-16
 466              		.cfi_def_cfa_offset 16
 467 02a8 23341100 		sd	ra,8(sp)
 468 02ac 23308100 		sd	s0,0(sp)
 469              		.cfi_offset 1, -8
 470              		.cfi_offset 8, -16
 471 02b0 13040101 		addi	s0,sp,16
 472              		.cfi_def_cfa 8, 0
  27:src/main.cpp  **** 
 473              		.loc 1 27 5
  27:src/main.cpp  **** 
 474              		.loc 1 27 22 is_stmt 0
 475 02b4 97000000 		call	_ZN5Riscv10initSystemEv@plt
 475      E7800000 
 476              	.LVL48:
  30:src/main.cpp  ****     //testQueue();
GAS LISTING /tmp/ccnrKuSV.s 			page 13


 477              		.loc 1 30 5 is_stmt 1
  30:src/main.cpp  ****     //testQueue();
 478              		.loc 1 30 16 is_stmt 0
 479 02bc 97000000 		call	_Z11threadTestsv
 479      E7800000 
 480              	.LVL49:
  32:src/main.cpp  **** 
 481              		.loc 1 32 1
 482 02c4 83308100 		ld	ra,8(sp)
 483              		.cfi_restore 1
 484 02c8 03340100 		ld	s0,0(sp)
 485              		.cfi_restore 8
 486              		.cfi_def_cfa 2, 16
 487 02cc 13010101 		addi	sp,sp,16
 488              		.cfi_def_cfa_offset 0
 489 02d0 67800000 		jr	ra
 490              		.cfi_endproc
 491              	.LFE19:
 493              		.section	.rodata.str1.8
 494 004f 00       		.align	3
 495              	.LC6:
 496 0050 6D616C6C 		.string	"mallocFree\n"
 496      6F634672 
 496      65650A00 
 497 005c 00000000 		.align	3
 498              	.LC7:
 499 0060 6E6F7420 		.string	"not OK\n"
 499      4F4B0A00 
 500              		.align	3
 501              	.LC8:
 502 0068 4F4B0A00 		.string	"OK\n"
 503              		.text
 504              		.align	2
 505              		.globl	_Z10mallocFreev
 507              	_Z10mallocFreev:
 508              	.LFB24:
  92:src/main.cpp  **** 
  93:src/main.cpp  **** 
  94:src/main.cpp  **** //memory (de)allocation tests
  95:src/main.cpp  **** void mallocFree()
  96:src/main.cpp  **** {
 509              		.loc 1 96 1 is_stmt 1
 510              		.cfi_startproc
 511 02d4 130101CC 		addi	sp,sp,-832
 512              		.cfi_def_cfa_offset 832
 513 02d8 233C1132 		sd	ra,824(sp)
 514 02dc 23388132 		sd	s0,816(sp)
 515 02e0 23349132 		sd	s1,808(sp)
 516              		.cfi_offset 1, -8
 517              		.cfi_offset 8, -16
 518              		.cfi_offset 9, -24
 519 02e4 13040134 		addi	s0,sp,832
 520              		.cfi_def_cfa 8, 0
  97:src/main.cpp  ****     Riscv::printString("mallocFree\n");
 521              		.loc 1 97 5
 522              		.loc 1 97 23 is_stmt 0
 523 02e8 17050000 		lla	a0,.LC6
GAS LISTING /tmp/ccnrKuSV.s 			page 14


 523      13050500 
 524 02f0 97000000 		call	_ZN5Riscv11printStringEPKc@plt
 524      E7800000 
 525              	.LVL50:
 526              	.LBB12:
  98:src/main.cpp  ****     constexpr int num = 100;
  99:src/main.cpp  ****     void* addrs[num];
 100:src/main.cpp  ****     for(int i = 0; i < num;i++)
 527              		.loc 1 100 13
 528 02f8 93040000 		li	s1,0
 529 02fc 6F008000 		j	.L31
 530              	.LVL51:
 531              	.L29:
 532              		.loc 1 100 5 is_stmt 1 discriminator 2
 533 0300 9B841400 		addiw	s1,s1,1
 534              	.LVL52:
 535              	.L31:
 536              		.loc 1 100 22 discriminator 1
 537 0304 93073006 		li	a5,99
 538 0308 63C49704 		bgt	s1,a5,.L39
 101:src/main.cpp  ****     {
 102:src/main.cpp  ****         addrs[i] = mem_alloc(100);
 539              		.loc 1 102 9
 540              		.loc 1 102 29 is_stmt 0
 541 030c 13054006 		li	a0,100
 542 0310 97000000 		call	mem_alloc@plt
 542      E7800000 
 543              	.LVL53:
 544              		.loc 1 102 18
 545 0318 93973400 		slli	a5,s1,3
 546 031c 130704FE 		addi	a4,s0,-32
 547 0320 B307F700 		add	a5,a4,a5
 548 0324 23B0A7CE 		sd	a0,-800(a5)
 103:src/main.cpp  ****         if(addrs[i] == 0)
 549              		.loc 1 103 9 is_stmt 1
 550 0328 E31C05FC 		bnez	a0,.L29
 104:src/main.cpp  ****         {
 105:src/main.cpp  ****             Riscv::printString("not OK\n");
 551              		.loc 1 105 13
 552              		.loc 1 105 31 is_stmt 0
 553 032c 17050000 		lla	a0,.LC7
 553      13050500 
 554 0334 97000000 		call	_ZN5Riscv11printStringEPKc@plt
 554      E7800000 
 555              	.LVL54:
 106:src/main.cpp  ****             return;
 556              		.loc 1 106 13 is_stmt 1
 557              	.L27:
 558              	.LBE12:
 107:src/main.cpp  ****         }
 108:src/main.cpp  **** 
 109:src/main.cpp  ****     }
 110:src/main.cpp  **** 
 111:src/main.cpp  ****     for(int i = 0 ; i < num;i+=2)
 112:src/main.cpp  ****     {
 113:src/main.cpp  ****         int retval = mem_free(addrs[i]);
 114:src/main.cpp  ****         if(retval != 0)
GAS LISTING /tmp/ccnrKuSV.s 			page 15


 115:src/main.cpp  ****         {
 116:src/main.cpp  ****             Riscv::printString("not OK\n");
 117:src/main.cpp  ****             return;
 118:src/main.cpp  ****         }
 119:src/main.cpp  ****     }
 120:src/main.cpp  **** 
 121:src/main.cpp  ****     for(int i = 0 ; i < num;i+=2)
 122:src/main.cpp  ****     {
 123:src/main.cpp  ****         addrs[i] = mem_alloc(20);
 124:src/main.cpp  ****         if(addrs[i] == 0)
 125:src/main.cpp  ****         {
 126:src/main.cpp  ****             Riscv::printString("not OK\n");
 127:src/main.cpp  ****             return;
 128:src/main.cpp  ****         }
 129:src/main.cpp  ****     }
 130:src/main.cpp  **** 
 131:src/main.cpp  ****     for(int i = 0; i < num;i++)
 132:src/main.cpp  ****     {
 133:src/main.cpp  ****         int retval = mem_free(addrs[i]);
 134:src/main.cpp  ****         if(retval != 0)
 135:src/main.cpp  ****         {
 136:src/main.cpp  ****             Riscv::printString("not OK\n");
 137:src/main.cpp  ****             return;
 138:src/main.cpp  ****         }
 139:src/main.cpp  ****     }
 140:src/main.cpp  **** 
 141:src/main.cpp  ****     Riscv::printString("OK\n");
 142:src/main.cpp  **** }
 559              		.loc 1 142 1 is_stmt 0
 560 033c 83308133 		ld	ra,824(sp)
 561              		.cfi_remember_state
 562              		.cfi_restore 1
 563 0340 03340133 		ld	s0,816(sp)
 564              		.cfi_restore 8
 565              		.cfi_def_cfa 2, 832
 566 0344 83348132 		ld	s1,808(sp)
 567              		.cfi_restore 9
 568 0348 13010134 		addi	sp,sp,832
 569              		.cfi_def_cfa_offset 0
 570 034c 67800000 		jr	ra
 571              	.LVL55:
 572              	.L39:
 573              		.cfi_restore_state
 574              	.LBB13:
 111:src/main.cpp  ****     {
 575              		.loc 1 111 13
 576 0350 93040000 		li	s1,0
 577              	.LVL56:
 578              	.L28:
 111:src/main.cpp  ****     {
 579              		.loc 1 111 23 is_stmt 1 discriminator 1
 580 0354 93073006 		li	a5,99
 581 0358 63CE9702 		bgt	s1,a5,.L40
 582              	.LBB14:
 113:src/main.cpp  ****         if(retval != 0)
 583              		.loc 1 113 9
 113:src/main.cpp  ****         if(retval != 0)
GAS LISTING /tmp/ccnrKuSV.s 			page 16


 584              		.loc 1 113 30 is_stmt 0
 585 035c 93973400 		slli	a5,s1,3
 586 0360 130704FE 		addi	a4,s0,-32
 587 0364 B307F700 		add	a5,a4,a5
 588 0368 03B507CE 		ld	a0,-800(a5)
 589 036c 97000000 		call	mem_free@plt
 589      E7800000 
 590              	.LVL57:
 114:src/main.cpp  ****         {
 591              		.loc 1 114 9 is_stmt 1
 592 0374 63160500 		bnez	a0,.L43
 593              	.LBE14:
 111:src/main.cpp  ****     {
 594              		.loc 1 111 5 discriminator 2
 111:src/main.cpp  ****     {
 595              		.loc 1 111 30 is_stmt 0 discriminator 2
 596 0378 9B842400 		addiw	s1,s1,2
 597              	.LVL58:
 111:src/main.cpp  ****     {
 598              		.loc 1 111 5 discriminator 2
 599 037c 6FF09FFD 		j	.L28
 600              	.LVL59:
 601              	.L43:
 602              	.LBB15:
 116:src/main.cpp  ****             return;
 603              		.loc 1 116 13 is_stmt 1
 116:src/main.cpp  ****             return;
 604              		.loc 1 116 31 is_stmt 0
 605 0380 17050000 		lla	a0,.LC7
 605      13050500 
 606              	.LVL60:
 607 0388 97000000 		call	_ZN5Riscv11printStringEPKc@plt
 607      E7800000 
 608              	.LVL61:
 117:src/main.cpp  ****         }
 609              		.loc 1 117 13 is_stmt 1
 610 0390 6FF0DFFA 		j	.L27
 611              	.L40:
 612              	.LBE15:
 613              	.LBE13:
 614              	.LBB16:
 121:src/main.cpp  ****     {
 615              		.loc 1 121 13 is_stmt 0
 616 0394 93040000 		li	s1,0
 617              	.LVL62:
 618 0398 6F008000 		j	.L32
 619              	.LVL63:
 620              	.L35:
 121:src/main.cpp  ****     {
 621              		.loc 1 121 5 is_stmt 1 discriminator 2
 121:src/main.cpp  ****     {
 622              		.loc 1 121 30 is_stmt 0 discriminator 2
 623 039c 9B842400 		addiw	s1,s1,2
 624              	.LVL64:
 625              	.L32:
 121:src/main.cpp  ****     {
 626              		.loc 1 121 23 is_stmt 1 discriminator 1
GAS LISTING /tmp/ccnrKuSV.s 			page 17


 627 03a0 93073006 		li	a5,99
 628 03a4 63CC9702 		bgt	s1,a5,.L41
 123:src/main.cpp  ****         if(addrs[i] == 0)
 629              		.loc 1 123 9
 123:src/main.cpp  ****         if(addrs[i] == 0)
 630              		.loc 1 123 29 is_stmt 0
 631 03a8 13054001 		li	a0,20
 632 03ac 97000000 		call	mem_alloc@plt
 632      E7800000 
 633              	.LVL65:
 123:src/main.cpp  ****         if(addrs[i] == 0)
 634              		.loc 1 123 18
 635 03b4 93973400 		slli	a5,s1,3
 636 03b8 130704FE 		addi	a4,s0,-32
 637 03bc B307F700 		add	a5,a4,a5
 638 03c0 23B0A7CE 		sd	a0,-800(a5)
 124:src/main.cpp  ****         {
 639              		.loc 1 124 9 is_stmt 1
 640 03c4 E31C05FC 		bnez	a0,.L35
 126:src/main.cpp  ****             return;
 641              		.loc 1 126 13
 126:src/main.cpp  ****             return;
 642              		.loc 1 126 31 is_stmt 0
 643 03c8 17050000 		lla	a0,.LC7
 643      13050500 
 644 03d0 97000000 		call	_ZN5Riscv11printStringEPKc@plt
 644      E7800000 
 645              	.LVL66:
 127:src/main.cpp  ****         }
 646              		.loc 1 127 13 is_stmt 1
 647 03d8 6FF05FF6 		j	.L27
 648              	.L41:
 649              	.LBE16:
 650              	.LBB17:
 131:src/main.cpp  ****     {
 651              		.loc 1 131 13 is_stmt 0
 652 03dc 93040000 		li	s1,0
 653              	.LVL67:
 654              	.L34:
 131:src/main.cpp  ****     {
 655              		.loc 1 131 22 is_stmt 1 discriminator 1
 656 03e0 93073006 		li	a5,99
 657 03e4 63CE9702 		bgt	s1,a5,.L36
 658              	.LBB18:
 133:src/main.cpp  ****         if(retval != 0)
 659              		.loc 1 133 9
 133:src/main.cpp  ****         if(retval != 0)
 660              		.loc 1 133 30 is_stmt 0
 661 03e8 93973400 		slli	a5,s1,3
 662 03ec 130704FE 		addi	a4,s0,-32
 663 03f0 B307F700 		add	a5,a4,a5
 664 03f4 03B507CE 		ld	a0,-800(a5)
 665 03f8 97000000 		call	mem_free@plt
 665      E7800000 
 666              	.LVL68:
 134:src/main.cpp  ****         {
 667              		.loc 1 134 9 is_stmt 1
GAS LISTING /tmp/ccnrKuSV.s 			page 18


 668 0400 63160500 		bnez	a0,.L44
 669              	.LBE18:
 131:src/main.cpp  ****     {
 670              		.loc 1 131 5 discriminator 2
 671 0404 9B841400 		addiw	s1,s1,1
 672              	.LVL69:
 673 0408 6FF09FFD 		j	.L34
 674              	.LVL70:
 675              	.L44:
 676              	.LBB19:
 136:src/main.cpp  ****             return;
 677              		.loc 1 136 13
 136:src/main.cpp  ****             return;
 678              		.loc 1 136 31 is_stmt 0
 679 040c 17050000 		lla	a0,.LC7
 679      13050500 
 680              	.LVL71:
 681 0414 97000000 		call	_ZN5Riscv11printStringEPKc@plt
 681      E7800000 
 682              	.LVL72:
 137:src/main.cpp  ****         }
 683              		.loc 1 137 13 is_stmt 1
 684 041c 6FF01FF2 		j	.L27
 685              	.L36:
 686              	.LBE19:
 687              	.LBE17:
 141:src/main.cpp  **** }
 688              		.loc 1 141 5
 141:src/main.cpp  **** }
 689              		.loc 1 141 23 is_stmt 0
 690 0420 17050000 		lla	a0,.LC8
 690      13050500 
 691 0428 97000000 		call	_ZN5Riscv11printStringEPKc@plt
 691      E7800000 
 692              	.LVL73:
 693 0430 6FF0DFF0 		j	.L27
 694              		.cfi_endproc
 695              	.LFE24:
 697              		.section	.rodata.str1.8
 698 006c 00000000 		.align	3
 699              	.LC9:
 700 0070 6269674D 		.string	"bigMalloc\n"
 700      616C6C6F 
 700      630A00
 701              		.text
 702              		.align	2
 703              		.globl	_Z9bigMallocv
 705              	_Z9bigMallocv:
 706              	.LFB25:
 143:src/main.cpp  **** void bigMalloc()
 144:src/main.cpp  **** {
 707              		.loc 1 144 1 is_stmt 1
 708              		.cfi_startproc
 709 0434 130101FF 		addi	sp,sp,-16
 710              		.cfi_def_cfa_offset 16
 711 0438 23341100 		sd	ra,8(sp)
 712 043c 23308100 		sd	s0,0(sp)
GAS LISTING /tmp/ccnrKuSV.s 			page 19


 713              		.cfi_offset 1, -8
 714              		.cfi_offset 8, -16
 715 0440 13040101 		addi	s0,sp,16
 716              		.cfi_def_cfa 8, 0
 145:src/main.cpp  ****     Riscv::printString("bigMalloc\n");
 717              		.loc 1 145 5
 718              		.loc 1 145 23 is_stmt 0
 719 0444 17050000 		lla	a0,.LC9
 719      13050500 
 720 044c 97000000 		call	_ZN5Riscv11printStringEPKc@plt
 720      E7800000 
 721              	.LVL74:
 146:src/main.cpp  ****     uint64 x = (uint64)HEAP_END_ADDR - (uint64)HEAP_START_ADDR + 100UL;
 722              		.loc 1 146 5 is_stmt 1
 723              		.loc 1 146 38 is_stmt 0
 724 0454 97070000 		la	a5,HEAP_END_ADDR
 724      83B70700 
 725 045c 03B50700 		ld	a0,0(a5)
 726 0460 97070000 		la	a5,HEAP_START_ADDR
 726      83B70700 
 727 0468 83B70700 		ld	a5,0(a5)
 728 046c 3305F540 		sub	a0,a0,a5
 729              	.LVL75:
 147:src/main.cpp  ****     void* p = mem_alloc(x);
 730              		.loc 1 147 5 is_stmt 1
 731              		.loc 1 147 24 is_stmt 0
 732 0470 13054506 		addi	a0,a0,100
 733              	.LVL76:
 734 0474 97000000 		call	mem_alloc@plt
 734      E7800000 
 735              	.LVL77:
 148:src/main.cpp  ****     if(p == 0)
 736              		.loc 1 148 5 is_stmt 1
 737 047c 63020502 		beqz	a0,.L49
 149:src/main.cpp  ****         Riscv::printString("OK\n");
 150:src/main.cpp  ****     else
 151:src/main.cpp  ****         Riscv::printString("not OK\n");
 738              		.loc 1 151 9
 739              		.loc 1 151 27 is_stmt 0
 740 0480 17050000 		lla	a0,.LC7
 740      13050500 
 741              	.LVL78:
 742 0488 97000000 		call	_ZN5Riscv11printStringEPKc@plt
 742      E7800000 
 743              	.LVL79:
 744              	.L45:
 152:src/main.cpp  **** }
 745              		.loc 1 152 1
 746 0490 83308100 		ld	ra,8(sp)
 747              		.cfi_remember_state
 748              		.cfi_restore 1
 749 0494 03340100 		ld	s0,0(sp)
 750              		.cfi_restore 8
 751              		.cfi_def_cfa 2, 16
 752 0498 13010101 		addi	sp,sp,16
 753              		.cfi_def_cfa_offset 0
 754 049c 67800000 		jr	ra
GAS LISTING /tmp/ccnrKuSV.s 			page 20


 755              	.LVL80:
 756              	.L49:
 757              		.cfi_restore_state
 149:src/main.cpp  ****         Riscv::printString("OK\n");
 758              		.loc 1 149 9 is_stmt 1
 149:src/main.cpp  ****         Riscv::printString("OK\n");
 759              		.loc 1 149 27 is_stmt 0
 760 04a0 17050000 		lla	a0,.LC8
 760      13050500 
 761              	.LVL81:
 762 04a8 97000000 		call	_ZN5Riscv11printStringEPKc@plt
 762      E7800000 
 763              	.LVL82:
 764 04b0 6FF01FFE 		j	.L45
 765              		.cfi_endproc
 766              	.LFE25:
 768              		.section	.rodata.str1.8
 769 007b 00000000 		.align	3
 769      00
 770              	.LC10:
 771 0080 6C6F744F 		.string	"lotOfSmallMallocs\n"
 771      66536D61 
 771      6C6C4D61 
 771      6C6C6F63 
 771      730A00
 772              		.text
 773              		.align	2
 774              		.globl	_Z17lotOfSmallMallocsv
 776              	_Z17lotOfSmallMallocsv:
 777              	.LFB26:
 153:src/main.cpp  **** 
 154:src/main.cpp  **** void lotOfSmallMallocs()
 155:src/main.cpp  **** {
 778              		.loc 1 155 1 is_stmt 1
 779              		.cfi_startproc
 780 04b4 130101FD 		addi	sp,sp,-48
 781              		.cfi_def_cfa_offset 48
 782 04b8 23341102 		sd	ra,40(sp)
 783 04bc 23308102 		sd	s0,32(sp)
 784 04c0 233C9100 		sd	s1,24(sp)
 785 04c4 23382101 		sd	s2,16(sp)
 786 04c8 23343101 		sd	s3,8(sp)
 787              		.cfi_offset 1, -8
 788              		.cfi_offset 8, -16
 789              		.cfi_offset 9, -24
 790              		.cfi_offset 18, -32
 791              		.cfi_offset 19, -40
 792 04cc 13040103 		addi	s0,sp,48
 793              		.cfi_def_cfa 8, 0
 156:src/main.cpp  ****     Riscv::printString("lotOfSmallMallocs\n");
 794              		.loc 1 156 5
 795              		.loc 1 156 23 is_stmt 0
 796 04d0 17050000 		lla	a0,.LC10
 796      13050500 
 797 04d8 97000000 		call	_ZN5Riscv11printStringEPKc@plt
 797      E7800000 
 798              	.LVL83:
GAS LISTING /tmp/ccnrKuSV.s 			page 21


 157:src/main.cpp  ****     uint64 cnt = 0;
 799              		.loc 1 157 5 is_stmt 1
 158:src/main.cpp  ****     uint64 sum = 0;
 800              		.loc 1 158 5
 159:src/main.cpp  ****     uint64 N = 10000UL;
 801              		.loc 1 159 5
 160:src/main.cpp  ****     uint64 X = 10UL;
 802              		.loc 1 160 5
 161:src/main.cpp  ****     for(uint64 i = 0; i < N;i++)
 803              		.loc 1 161 5
 804              	.LBB20:
 805              		.loc 1 161 16 is_stmt 0
 806 04e0 93040000 		li	s1,0
 807              	.LBE20:
 158:src/main.cpp  ****     uint64 N = 10000UL;
 808              		.loc 1 158 12
 809 04e4 93090000 		li	s3,0
 157:src/main.cpp  ****     uint64 sum = 0;
 810              		.loc 1 157 12
 811 04e8 13090000 		li	s2,0
 812 04ec 6F008001 		j	.L52
 813              	.LVL84:
 814              	.L56:
 815              	.LBB23:
 816              	.LBB21:
 162:src/main.cpp  ****     {
 163:src/main.cpp  ****         Test* t = (Test*)mem_alloc(sizeof(Test));
 164:src/main.cpp  ****         if(t == 0)
 165:src/main.cpp  ****             break;
 166:src/main.cpp  ****         t->a = X;
 817              		.loc 1 166 9 is_stmt 1 discriminator 2
 818              		.loc 1 166 14 is_stmt 0 discriminator 2
 819 04f0 9307A000 		li	a5,10
 820 04f4 2330F500 		sd	a5,0(a0)
 167:src/main.cpp  ****         sum+=t->a;
 821              		.loc 1 167 9 is_stmt 1 discriminator 2
 822              		.loc 1 167 12 is_stmt 0 discriminator 2
 823 04f8 9389A900 		addi	s3,s3,10
 824              	.LVL85:
 168:src/main.cpp  ****         cnt++;
 825              		.loc 1 168 9 is_stmt 1 discriminator 2
 826              		.loc 1 168 12 is_stmt 0 discriminator 2
 827 04fc 13091900 		addi	s2,s2,1
 828              	.LVL86:
 829              	.LBE21:
 161:src/main.cpp  ****     {
 830              		.loc 1 161 5 is_stmt 1 discriminator 2
 831 0500 93841400 		addi	s1,s1,1
 832              	.LVL87:
 833              	.L52:
 161:src/main.cpp  ****     {
 834              		.loc 1 161 25 discriminator 1
 835 0504 B7270000 		li	a5,8192
 836 0508 9387F770 		addi	a5,a5,1807
 837 050c 63EA9700 		bgtu	s1,a5,.L51
 838              	.LBB22:
 163:src/main.cpp  ****         if(t == 0)
GAS LISTING /tmp/ccnrKuSV.s 			page 22


 839              		.loc 1 163 9
 163:src/main.cpp  ****         if(t == 0)
 840              		.loc 1 163 35 is_stmt 0
 841 0510 13058000 		li	a0,8
 842 0514 97000000 		call	mem_alloc@plt
 842      E7800000 
 843              	.LVL88:
 164:src/main.cpp  ****             break;
 844              		.loc 1 164 9 is_stmt 1
 845 051c E31A05FC 		bnez	a0,.L56
 846              	.LVL89:
 847              	.L51:
 848              	.LBE22:
 849              	.LBE23:
 169:src/main.cpp  ****     }
 170:src/main.cpp  ****     Riscv::printInteger(cnt);
 850              		.loc 1 170 5
 851              		.loc 1 170 24 is_stmt 0
 852 0520 13050900 		mv	a0,s2
 853 0524 97000000 		call	_ZN5Riscv12printIntegerEm@plt
 853      E7800000 
 854              	.LVL90:
 171:src/main.cpp  ****     Riscv::printString("\n");
 855              		.loc 1 171 5 is_stmt 1
 856              		.loc 1 171 23 is_stmt 0
 857 052c 17050000 		lla	a0,.LC2
 857      13050500 
 858 0534 97000000 		call	_ZN5Riscv11printStringEPKc@plt
 858      E7800000 
 859              	.LVL91:
 172:src/main.cpp  ****     if(sum == X*cnt)
 860              		.loc 1 172 5 is_stmt 1
 861              		.loc 1 172 16 is_stmt 0
 862 053c 93172900 		slli	a5,s2,2
 863 0540 33892701 		add	s2,a5,s2
 864              	.LVL92:
 865 0544 13191900 		slli	s2,s2,1
 866              		.loc 1 172 5
 867 0548 63083903 		beq	s2,s3,.L57
 173:src/main.cpp  ****         Riscv::printString("OK\n");
 174:src/main.cpp  ****     else
 175:src/main.cpp  ****         Riscv::printString("not OK\n");
 868              		.loc 1 175 9 is_stmt 1
 869              		.loc 1 175 27 is_stmt 0
 870 054c 17050000 		lla	a0,.LC7
 870      13050500 
 871 0554 97000000 		call	_ZN5Riscv11printStringEPKc@plt
 871      E7800000 
 872              	.LVL93:
 873              	.L50:
 176:src/main.cpp  **** }
 874              		.loc 1 176 1
 875 055c 83308102 		ld	ra,40(sp)
 876              		.cfi_remember_state
 877              		.cfi_restore 1
 878 0560 03340102 		ld	s0,32(sp)
 879              		.cfi_restore 8
GAS LISTING /tmp/ccnrKuSV.s 			page 23


 880              		.cfi_def_cfa 2, 48
 881 0564 83348101 		ld	s1,24(sp)
 882              		.cfi_restore 9
 883              	.LVL94:
 884 0568 03390101 		ld	s2,16(sp)
 885              		.cfi_restore 18
 886 056c 83398100 		ld	s3,8(sp)
 887              		.cfi_restore 19
 888              	.LVL95:
 889 0570 13010103 		addi	sp,sp,48
 890              		.cfi_def_cfa_offset 0
 891 0574 67800000 		jr	ra
 892              	.LVL96:
 893              	.L57:
 894              		.cfi_restore_state
 173:src/main.cpp  ****         Riscv::printString("OK\n");
 895              		.loc 1 173 9 is_stmt 1
 173:src/main.cpp  ****         Riscv::printString("OK\n");
 896              		.loc 1 173 27 is_stmt 0
 897 0578 17050000 		lla	a0,.LC8
 897      13050500 
 898 0580 97000000 		call	_ZN5Riscv11printStringEPKc@plt
 898      E7800000 
 899              	.LVL97:
 900 0588 6FF05FFD 		j	.L50
 901              		.cfi_endproc
 902              	.LFE26:
 904              		.section	.rodata.str1.8
 905 0093 00000000 		.align	3
 905      00
 906              	.LC11:
 907 0098 62616446 		.string	"badFree\n"
 907      7265650A 
 907      00
 908              		.text
 909              		.align	2
 910              		.globl	_Z7badFreev
 912              	_Z7badFreev:
 913              	.LFB27:
 177:src/main.cpp  **** void badFree()
 178:src/main.cpp  **** {
 914              		.loc 1 178 1 is_stmt 1
 915              		.cfi_startproc
 916 058c 130101FF 		addi	sp,sp,-16
 917              		.cfi_def_cfa_offset 16
 918 0590 23341100 		sd	ra,8(sp)
 919 0594 23308100 		sd	s0,0(sp)
 920              		.cfi_offset 1, -8
 921              		.cfi_offset 8, -16
 922 0598 13040101 		addi	s0,sp,16
 923              		.cfi_def_cfa 8, 0
 179:src/main.cpp  ****     Riscv::printString("badFree\n");
 924              		.loc 1 179 5
 925              		.loc 1 179 23 is_stmt 0
 926 059c 17050000 		lla	a0,.LC11
 926      13050500 
 927 05a4 97000000 		call	_ZN5Riscv11printStringEPKc@plt
GAS LISTING /tmp/ccnrKuSV.s 			page 24


 927      E7800000 
 928              	.LVL98:
 180:src/main.cpp  ****     Test* t = (Test*)mem_alloc(sizeof(Test));
 929              		.loc 1 180 5 is_stmt 1
 930              		.loc 1 180 31 is_stmt 0
 931 05ac 13058000 		li	a0,8
 932 05b0 97000000 		call	mem_alloc@plt
 932      E7800000 
 933              	.LVL99:
 181:src/main.cpp  ****     uint64 retval = mem_free((char*)t + 2);
 934              		.loc 1 181 5 is_stmt 1
 935              		.loc 1 181 29 is_stmt 0
 936 05b8 13052500 		addi	a0,a0,2
 937              	.LVL100:
 938 05bc 97000000 		call	mem_free@plt
 938      E7800000 
 939              	.LVL101:
 182:src/main.cpp  ****     if(retval == 0)
 940              		.loc 1 182 5 is_stmt 1
 941 05c4 63120502 		bnez	a0,.L59
 183:src/main.cpp  ****         Riscv::printString("not OK\n");
 942              		.loc 1 183 9
 943              		.loc 1 183 27 is_stmt 0
 944 05c8 17050000 		lla	a0,.LC7
 944      13050500 
 945              	.LVL102:
 946 05d0 97000000 		call	_ZN5Riscv11printStringEPKc@plt
 946      E7800000 
 947              	.LVL103:
 948              	.L58:
 184:src/main.cpp  ****     else
 185:src/main.cpp  ****         Riscv::printString("OK\n");
 186:src/main.cpp  **** }
 949              		.loc 1 186 1
 950 05d8 83308100 		ld	ra,8(sp)
 951              		.cfi_remember_state
 952              		.cfi_restore 1
 953 05dc 03340100 		ld	s0,0(sp)
 954              		.cfi_restore 8
 955              		.cfi_def_cfa 2, 16
 956 05e0 13010101 		addi	sp,sp,16
 957              		.cfi_def_cfa_offset 0
 958 05e4 67800000 		jr	ra
 959              	.LVL104:
 960              	.L59:
 961              		.cfi_restore_state
 185:src/main.cpp  **** }
 962              		.loc 1 185 9 is_stmt 1
 185:src/main.cpp  **** }
 963              		.loc 1 185 27 is_stmt 0
 964 05e8 17050000 		lla	a0,.LC8
 964      13050500 
 965              	.LVL105:
 966 05f0 97000000 		call	_ZN5Riscv11printStringEPKc@plt
 966      E7800000 
 967              	.LVL106:
 968              		.loc 1 186 1
GAS LISTING /tmp/ccnrKuSV.s 			page 25


 969 05f8 6FF01FFE 		j	.L58
 970              		.cfi_endproc
 971              	.LFE27:
 973              		.align	2
 974              		.globl	_Z21memoryAllocationTestsv
 976              	_Z21memoryAllocationTestsv:
 977              	.LFB28:
 187:src/main.cpp  **** 
 188:src/main.cpp  **** void memoryAllocationTests()
 189:src/main.cpp  **** {
 978              		.loc 1 189 1 is_stmt 1
 979              		.cfi_startproc
 980 05fc 130101FF 		addi	sp,sp,-16
 981              		.cfi_def_cfa_offset 16
 982 0600 23341100 		sd	ra,8(sp)
 983 0604 23308100 		sd	s0,0(sp)
 984              		.cfi_offset 1, -8
 985              		.cfi_offset 8, -16
 986 0608 13040101 		addi	s0,sp,16
 987              		.cfi_def_cfa 8, 0
 190:src/main.cpp  ****     //bigMalloc();
 191:src/main.cpp  ****     //lotOfSmallMallocs();
 192:src/main.cpp  ****     //mallocFree();
 193:src/main.cpp  ****     badFree();
 988              		.loc 1 193 5
 989              		.loc 1 193 12 is_stmt 0
 990 060c 97000000 		call	_Z7badFreev
 990      E7800000 
 991              	.LVL107:
 194:src/main.cpp  **** }
 992              		.loc 1 194 1
 993 0614 83308100 		ld	ra,8(sp)
 994              		.cfi_restore 1
 995 0618 03340100 		ld	s0,0(sp)
 996              		.cfi_restore 8
 997              		.cfi_def_cfa 2, 16
 998 061c 13010101 		addi	sp,sp,16
 999              		.cfi_def_cfa_offset 0
 1000 0620 67800000 		jr	ra
 1001              		.cfi_endproc
 1002              	.LFE28:
 1004              	.Letext0:
 1005              		.file 3 "src/../h/../lib/hw.h"
 1006              		.file 4 "src/../h/Queue.h"
 1007              		.file 5 "src/../h/Scheduler.h"
 1008              		.file 6 "src/../h/Riscv.h"
 1009              		.file 7 "src/../h/syscall_cpp.h"
 1010              		.file 8 "src/../h/syscall_c.h"
 4736              		.align	3
 4739              	DW.ref.__gxx_personality_v0:
 4740 0000 00000000 		.dword	__gxx_personality_v0
 4740      00000000 
 4741              		.ident	"GCC: (Ubuntu 9.3.0-17ubuntu1~20.04) 9.3.0"
 4742              		.section	.note.GNU-stack,"",@progbits
GAS LISTING /tmp/ccnrKuSV.s 			page 26


DEFINED SYMBOLS
                            *ABS*:0000000000000000 main.cpp
     /tmp/ccnrKuSV.s:20     .text:0000000000000000 _Z15thread1FunctionPv
     /tmp/ccnrKuSV.s:24     .text:0000000000000000 .L0 
     /tmp/ccnrKuSV.s:26     .text:0000000000000000 .L0 
     /tmp/ccnrKuSV.s:27     .text:0000000000000004 .L0 
     /tmp/ccnrKuSV.s:31     .text:0000000000000010 .L0 
     /tmp/ccnrKuSV.s:32     .text:0000000000000010 .L0 
     /tmp/ccnrKuSV.s:33     .text:0000000000000010 .L0 
     /tmp/ccnrKuSV.s:35     .text:0000000000000014 .L0 
     /tmp/ccnrKuSV.s:37     .text:0000000000000014 .L0 
     /tmp/ccnrKuSV.s:38     .text:0000000000000014 .L0 
     /tmp/ccnrKuSV.s:44     .text:0000000000000024 .L0 
     /tmp/ccnrKuSV.s:45     .text:0000000000000024 .L0 
     /tmp/ccnrKuSV.s:50     .text:000000000000002c .L0 
     /tmp/ccnrKuSV.s:51     .text:000000000000002c .L0 
     /tmp/ccnrKuSV.s:55     .text:000000000000003c .L0 
     /tmp/ccnrKuSV.s:56     .text:000000000000003c .L0 
     /tmp/ccnrKuSV.s:60     .text:0000000000000048 .L0 
     /tmp/ccnrKuSV.s:61     .text:0000000000000048 .L0 
     /tmp/ccnrKuSV.s:65     .text:0000000000000058 .L0 
     /tmp/ccnrKuSV.s:69     .text:000000000000005c .L0 
     /tmp/ccnrKuSV.s:72     .text:0000000000000064 .L0 
     /tmp/ccnrKuSV.s:73     .text:0000000000000064 .L0 
     /tmp/ccnrKuSV.s:76     .text:000000000000006c .L0 
     /tmp/ccnrKuSV.s:79     .text:0000000000000074 .L0 
     /tmp/ccnrKuSV.s:80     .text:0000000000000074 .L0 
     /tmp/ccnrKuSV.s:82     .text:0000000000000078 .L0 
     /tmp/ccnrKuSV.s:84     .text:000000000000007c .L0 
     /tmp/ccnrKuSV.s:86     .text:0000000000000080 .L0 
     /tmp/ccnrKuSV.s:87     .text:0000000000000080 .L0 
     /tmp/ccnrKuSV.s:93     .text:000000000000008c .L0 
     /tmp/ccnrKuSV.s:94     .text:0000000000000090 .L0 
     /tmp/ccnrKuSV.s:96     .text:0000000000000094 .L0 
     /tmp/ccnrKuSV.s:97     .text:0000000000000094 .L0 
     /tmp/ccnrKuSV.s:99     .text:0000000000000098 .L0 
     /tmp/ccnrKuSV.s:102    .text:000000000000009c .L0 
     /tmp/ccnrKuSV.s:104    .text:00000000000000a0 .L0 
     /tmp/ccnrKuSV.s:118    .text:00000000000000a0 _Z15thread2FunctionPv
     /tmp/ccnrKuSV.s:121    .text:00000000000000a0 .L0 
     /tmp/ccnrKuSV.s:123    .text:00000000000000a0 .L0 
     /tmp/ccnrKuSV.s:124    .text:00000000000000a4 .L0 
     /tmp/ccnrKuSV.s:128    .text:00000000000000b0 .L0 
     /tmp/ccnrKuSV.s:129    .text:00000000000000b0 .L0 
     /tmp/ccnrKuSV.s:130    .text:00000000000000b0 .L0 
     /tmp/ccnrKuSV.s:132    .text:00000000000000b4 .L0 
     /tmp/ccnrKuSV.s:134    .text:00000000000000b4 .L0 
     /tmp/ccnrKuSV.s:135    .text:00000000000000b4 .L0 
     /tmp/ccnrKuSV.s:141    .text:00000000000000c4 .L0 
     /tmp/ccnrKuSV.s:142    .text:00000000000000c4 .L0 
     /tmp/ccnrKuSV.s:147    .text:00000000000000cc .L0 
     /tmp/ccnrKuSV.s:148    .text:00000000000000cc .L0 
     /tmp/ccnrKuSV.s:152    .text:00000000000000dc .L0 
     /tmp/ccnrKuSV.s:153    .text:00000000000000dc .L0 
     /tmp/ccnrKuSV.s:157    .text:00000000000000e8 .L0 
     /tmp/ccnrKuSV.s:158    .text:00000000000000e8 .L0 
     /tmp/ccnrKuSV.s:162    .text:00000000000000f8 .L0 
GAS LISTING /tmp/ccnrKuSV.s 			page 27


     /tmp/ccnrKuSV.s:166    .text:00000000000000fc .L0 
     /tmp/ccnrKuSV.s:169    .text:0000000000000104 .L0 
     /tmp/ccnrKuSV.s:170    .text:0000000000000104 .L0 
     /tmp/ccnrKuSV.s:173    .text:000000000000010c .L0 
     /tmp/ccnrKuSV.s:176    .text:0000000000000114 .L0 
     /tmp/ccnrKuSV.s:177    .text:0000000000000114 .L0 
     /tmp/ccnrKuSV.s:180    .text:000000000000011c .L0 
     /tmp/ccnrKuSV.s:182    .text:0000000000000120 .L0 
     /tmp/ccnrKuSV.s:184    .text:0000000000000124 .L0 
     /tmp/ccnrKuSV.s:185    .text:0000000000000124 .L0 
     /tmp/ccnrKuSV.s:191    .text:0000000000000130 .L0 
     /tmp/ccnrKuSV.s:192    .text:0000000000000134 .L0 
     /tmp/ccnrKuSV.s:194    .text:0000000000000138 .L0 
     /tmp/ccnrKuSV.s:195    .text:0000000000000138 .L0 
     /tmp/ccnrKuSV.s:197    .text:000000000000013c .L0 
     /tmp/ccnrKuSV.s:200    .text:0000000000000140 .L0 
     /tmp/ccnrKuSV.s:202    .text:0000000000000144 .L0 
     /tmp/ccnrKuSV.s:208    .text:0000000000000144 _Z9testQueuev
     /tmp/ccnrKuSV.s:211    .text:0000000000000144 .L0 
     /tmp/ccnrKuSV.s:212    .text:0000000000000144 .L0 
     /tmp/ccnrKuSV.s:213    .text:0000000000000148 .L0 
     /tmp/ccnrKuSV.s:215    .text:000000000000014c .L0 
     /tmp/ccnrKuSV.s:217    .text:0000000000000150 .L0 
     /tmp/ccnrKuSV.s:219    .text:0000000000000150 .L0 
     /tmp/ccnrKuSV.s:220    .text:0000000000000154 .L0 
     /tmp/ccnrKuSV.s:221    .text:0000000000000154 .L0 
     /tmp/ccnrKuSV.s:223    .text:0000000000000158 .L0 
     /tmp/ccnrKuSV.s:225    .text:000000000000015c .L0 
     /tmp/ccnrKuSV.s:236    .text:000000000000015c _Z11threadTestsv
     /tmp/ccnrKuSV.s:239    .text:000000000000015c .L0 
     /tmp/ccnrKuSV.s:4739   .data.rel.local.DW.ref.__gxx_personality_v0:0000000000000000 DW.ref.__gxx_personality_v0
     /tmp/ccnrKuSV.s:242    .text:000000000000015c .L0 
     /tmp/ccnrKuSV.s:243    .text:0000000000000160 .L0 
     /tmp/ccnrKuSV.s:248    .text:0000000000000170 .L0 
     /tmp/ccnrKuSV.s:249    .text:0000000000000170 .L0 
     /tmp/ccnrKuSV.s:250    .text:0000000000000170 .L0 
     /tmp/ccnrKuSV.s:251    .text:0000000000000170 .L0 
     /tmp/ccnrKuSV.s:253    .text:0000000000000174 .L0 
     /tmp/ccnrKuSV.s:255    .text:0000000000000174 .L0 
     /tmp/ccnrKuSV.s:256    .text:0000000000000174 .L0 
     /tmp/ccnrKuSV.s:269    .text:0000000000000194 .L0 
     /tmp/ccnrKuSV.s:270    .text:0000000000000194 .L0 
     /tmp/ccnrKuSV.s:272    .text:0000000000000198 .L0 
     /tmp/ccnrKuSV.s:275    .text:00000000000001a4 .L0 
     /tmp/ccnrKuSV.s:276    .text:00000000000001a4 .L0 
     /tmp/ccnrKuSV.s:290    .text:00000000000001c8 .L0 
     /tmp/ccnrKuSV.s:291    .text:00000000000001c8 .L0 
     /tmp/ccnrKuSV.s:296    .text:00000000000001d4 .L0 
     /tmp/ccnrKuSV.s:297    .text:00000000000001d4 .L0 
     /tmp/ccnrKuSV.s:309    .text:00000000000001f8 .L0 
     /tmp/ccnrKuSV.s:310    .text:00000000000001f8 .L0 
     /tmp/ccnrKuSV.s:317    .text:0000000000000208 .L0 
     /tmp/ccnrKuSV.s:318    .text:0000000000000208 .L0 
     /tmp/ccnrKuSV.s:322    .text:0000000000000210 .L0 
     /tmp/ccnrKuSV.s:323    .text:0000000000000210 .L0 
     /tmp/ccnrKuSV.s:324    .text:0000000000000210 .L0 
     /tmp/ccnrKuSV.s:330    .text:0000000000000214 .L0 
GAS LISTING /tmp/ccnrKuSV.s 			page 28


     /tmp/ccnrKuSV.s:331    .text:0000000000000214 .L0 
     /tmp/ccnrKuSV.s:336    .text:0000000000000218 .L0 
     /tmp/ccnrKuSV.s:338    .text:000000000000021c .L0 
     /tmp/ccnrKuSV.s:343    .text:0000000000000220 .L0 
     /tmp/ccnrKuSV.s:344    .text:0000000000000220 .L0 
     /tmp/ccnrKuSV.s:349    .text:0000000000000224 .L0 
     /tmp/ccnrKuSV.s:351    .text:0000000000000228 .L0 
     /tmp/ccnrKuSV.s:352    .text:0000000000000228 .L0 
     /tmp/ccnrKuSV.s:357    .text:0000000000000238 .L0 
     /tmp/ccnrKuSV.s:358    .text:000000000000023c .L0 
     /tmp/ccnrKuSV.s:359    .text:000000000000023c .L0 
     /tmp/ccnrKuSV.s:361    .text:0000000000000240 .L0 
     /tmp/ccnrKuSV.s:362    .text:0000000000000240 .L0 
     /tmp/ccnrKuSV.s:364    .text:0000000000000244 .L0 
     /tmp/ccnrKuSV.s:367    .text:0000000000000248 .L0 
     /tmp/ccnrKuSV.s:370    .text:000000000000024c .L0 
     /tmp/ccnrKuSV.s:373    .text:0000000000000250 .L0 
     /tmp/ccnrKuSV.s:376    .text:0000000000000254 .L0 
     /tmp/ccnrKuSV.s:387    .text:0000000000000270 .L0 
     /tmp/ccnrKuSV.s:399    .text:000000000000028c .L0 
     /tmp/ccnrKuSV.s:407    .text:00000000000002a4 .L0 
     /tmp/ccnrKuSV.s:461    .text:00000000000002a4 main
     /tmp/ccnrKuSV.s:464    .text:00000000000002a4 .L0 
     /tmp/ccnrKuSV.s:465    .text:00000000000002a4 .L0 
     /tmp/ccnrKuSV.s:466    .text:00000000000002a8 .L0 
     /tmp/ccnrKuSV.s:469    .text:00000000000002b0 .L0 
     /tmp/ccnrKuSV.s:470    .text:00000000000002b0 .L0 
     /tmp/ccnrKuSV.s:472    .text:00000000000002b4 .L0 
     /tmp/ccnrKuSV.s:474    .text:00000000000002b4 .L0 
     /tmp/ccnrKuSV.s:475    .text:00000000000002b4 .L0 
     /tmp/ccnrKuSV.s:478    .text:00000000000002bc .L0 
     /tmp/ccnrKuSV.s:479    .text:00000000000002bc .L0 
     /tmp/ccnrKuSV.s:482    .text:00000000000002c4 .L0 
     /tmp/ccnrKuSV.s:483    .text:00000000000002c8 .L0 
     /tmp/ccnrKuSV.s:485    .text:00000000000002cc .L0 
     /tmp/ccnrKuSV.s:486    .text:00000000000002cc .L0 
     /tmp/ccnrKuSV.s:488    .text:00000000000002d0 .L0 
     /tmp/ccnrKuSV.s:490    .text:00000000000002d4 .L0 
     /tmp/ccnrKuSV.s:507    .text:00000000000002d4 _Z10mallocFreev
     /tmp/ccnrKuSV.s:510    .text:00000000000002d4 .L0 
     /tmp/ccnrKuSV.s:511    .text:00000000000002d4 .L0 
     /tmp/ccnrKuSV.s:512    .text:00000000000002d8 .L0 
     /tmp/ccnrKuSV.s:516    .text:00000000000002e4 .L0 
     /tmp/ccnrKuSV.s:517    .text:00000000000002e4 .L0 
     /tmp/ccnrKuSV.s:518    .text:00000000000002e4 .L0 
     /tmp/ccnrKuSV.s:520    .text:00000000000002e8 .L0 
     /tmp/ccnrKuSV.s:522    .text:00000000000002e8 .L0 
     /tmp/ccnrKuSV.s:523    .text:00000000000002e8 .L0 
     /tmp/ccnrKuSV.s:528    .text:00000000000002f8 .L0 
     /tmp/ccnrKuSV.s:533    .text:0000000000000300 .L0 
     /tmp/ccnrKuSV.s:537    .text:0000000000000304 .L0 
     /tmp/ccnrKuSV.s:540    .text:000000000000030c .L0 
     /tmp/ccnrKuSV.s:541    .text:000000000000030c .L0 
     /tmp/ccnrKuSV.s:545    .text:0000000000000318 .L0 
     /tmp/ccnrKuSV.s:550    .text:0000000000000328 .L0 
     /tmp/ccnrKuSV.s:552    .text:000000000000032c .L0 
     /tmp/ccnrKuSV.s:553    .text:000000000000032c .L0 
GAS LISTING /tmp/ccnrKuSV.s 			page 29


     /tmp/ccnrKuSV.s:559    .text:000000000000033c .L0 
     /tmp/ccnrKuSV.s:560    .text:000000000000033c .L0 
     /tmp/ccnrKuSV.s:561    .text:0000000000000340 .L0 
     /tmp/ccnrKuSV.s:562    .text:0000000000000340 .L0 
     /tmp/ccnrKuSV.s:564    .text:0000000000000344 .L0 
     /tmp/ccnrKuSV.s:565    .text:0000000000000344 .L0 
     /tmp/ccnrKuSV.s:567    .text:0000000000000348 .L0 
     /tmp/ccnrKuSV.s:569    .text:000000000000034c .L0 
     /tmp/ccnrKuSV.s:573    .text:0000000000000350 .L0 
     /tmp/ccnrKuSV.s:576    .text:0000000000000350 .L0 
     /tmp/ccnrKuSV.s:580    .text:0000000000000354 .L0 
     /tmp/ccnrKuSV.s:584    .text:000000000000035c .L0 
     /tmp/ccnrKuSV.s:585    .text:000000000000035c .L0 
     /tmp/ccnrKuSV.s:592    .text:0000000000000374 .L0 
     /tmp/ccnrKuSV.s:595    .text:0000000000000378 .L0 
     /tmp/ccnrKuSV.s:596    .text:0000000000000378 .L0 
     /tmp/ccnrKuSV.s:599    .text:000000000000037c .L0 
     /tmp/ccnrKuSV.s:604    .text:0000000000000380 .L0 
     /tmp/ccnrKuSV.s:605    .text:0000000000000380 .L0 
     /tmp/ccnrKuSV.s:610    .text:0000000000000390 .L0 
     /tmp/ccnrKuSV.s:616    .text:0000000000000394 .L0 
     /tmp/ccnrKuSV.s:622    .text:000000000000039c .L0 
     /tmp/ccnrKuSV.s:623    .text:000000000000039c .L0 
     /tmp/ccnrKuSV.s:627    .text:00000000000003a0 .L0 
     /tmp/ccnrKuSV.s:630    .text:00000000000003a8 .L0 
     /tmp/ccnrKuSV.s:631    .text:00000000000003a8 .L0 
     /tmp/ccnrKuSV.s:635    .text:00000000000003b4 .L0 
     /tmp/ccnrKuSV.s:640    .text:00000000000003c4 .L0 
     /tmp/ccnrKuSV.s:642    .text:00000000000003c8 .L0 
     /tmp/ccnrKuSV.s:643    .text:00000000000003c8 .L0 
     /tmp/ccnrKuSV.s:647    .text:00000000000003d8 .L0 
     /tmp/ccnrKuSV.s:652    .text:00000000000003dc .L0 
     /tmp/ccnrKuSV.s:656    .text:00000000000003e0 .L0 
     /tmp/ccnrKuSV.s:660    .text:00000000000003e8 .L0 
     /tmp/ccnrKuSV.s:661    .text:00000000000003e8 .L0 
     /tmp/ccnrKuSV.s:668    .text:0000000000000400 .L0 
     /tmp/ccnrKuSV.s:671    .text:0000000000000404 .L0 
     /tmp/ccnrKuSV.s:678    .text:000000000000040c .L0 
     /tmp/ccnrKuSV.s:679    .text:000000000000040c .L0 
     /tmp/ccnrKuSV.s:684    .text:000000000000041c .L0 
     /tmp/ccnrKuSV.s:689    .text:0000000000000420 .L0 
     /tmp/ccnrKuSV.s:690    .text:0000000000000420 .L0 
     /tmp/ccnrKuSV.s:694    .text:0000000000000434 .L0 
     /tmp/ccnrKuSV.s:705    .text:0000000000000434 _Z9bigMallocv
     /tmp/ccnrKuSV.s:708    .text:0000000000000434 .L0 
     /tmp/ccnrKuSV.s:709    .text:0000000000000434 .L0 
     /tmp/ccnrKuSV.s:710    .text:0000000000000438 .L0 
     /tmp/ccnrKuSV.s:713    .text:0000000000000440 .L0 
     /tmp/ccnrKuSV.s:714    .text:0000000000000440 .L0 
     /tmp/ccnrKuSV.s:716    .text:0000000000000444 .L0 
     /tmp/ccnrKuSV.s:718    .text:0000000000000444 .L0 
     /tmp/ccnrKuSV.s:719    .text:0000000000000444 .L0 
     /tmp/ccnrKuSV.s:723    .text:0000000000000454 .L0 
     /tmp/ccnrKuSV.s:724    .text:0000000000000454 .L0 
     /tmp/ccnrKuSV.s:731    .text:0000000000000470 .L0 
     /tmp/ccnrKuSV.s:732    .text:0000000000000470 .L0 
     /tmp/ccnrKuSV.s:737    .text:000000000000047c .L0 
GAS LISTING /tmp/ccnrKuSV.s 			page 30


     /tmp/ccnrKuSV.s:739    .text:0000000000000480 .L0 
     /tmp/ccnrKuSV.s:740    .text:0000000000000480 .L0 
     /tmp/ccnrKuSV.s:746    .text:0000000000000490 .L0 
     /tmp/ccnrKuSV.s:747    .text:0000000000000494 .L0 
     /tmp/ccnrKuSV.s:748    .text:0000000000000494 .L0 
     /tmp/ccnrKuSV.s:750    .text:0000000000000498 .L0 
     /tmp/ccnrKuSV.s:751    .text:0000000000000498 .L0 
     /tmp/ccnrKuSV.s:753    .text:000000000000049c .L0 
     /tmp/ccnrKuSV.s:757    .text:00000000000004a0 .L0 
     /tmp/ccnrKuSV.s:759    .text:00000000000004a0 .L0 
     /tmp/ccnrKuSV.s:760    .text:00000000000004a0 .L0 
     /tmp/ccnrKuSV.s:765    .text:00000000000004b4 .L0 
     /tmp/ccnrKuSV.s:776    .text:00000000000004b4 _Z17lotOfSmallMallocsv
     /tmp/ccnrKuSV.s:779    .text:00000000000004b4 .L0 
     /tmp/ccnrKuSV.s:780    .text:00000000000004b4 .L0 
     /tmp/ccnrKuSV.s:781    .text:00000000000004b8 .L0 
     /tmp/ccnrKuSV.s:787    .text:00000000000004cc .L0 
     /tmp/ccnrKuSV.s:788    .text:00000000000004cc .L0 
     /tmp/ccnrKuSV.s:789    .text:00000000000004cc .L0 
     /tmp/ccnrKuSV.s:790    .text:00000000000004cc .L0 
     /tmp/ccnrKuSV.s:791    .text:00000000000004cc .L0 
     /tmp/ccnrKuSV.s:793    .text:00000000000004d0 .L0 
     /tmp/ccnrKuSV.s:795    .text:00000000000004d0 .L0 
     /tmp/ccnrKuSV.s:796    .text:00000000000004d0 .L0 
     /tmp/ccnrKuSV.s:800    .text:00000000000004e0 .L0 
     /tmp/ccnrKuSV.s:801    .text:00000000000004e0 .L0 
     /tmp/ccnrKuSV.s:802    .text:00000000000004e0 .L0 
     /tmp/ccnrKuSV.s:803    .text:00000000000004e0 .L0 
     /tmp/ccnrKuSV.s:805    .text:00000000000004e0 .L0 
     /tmp/ccnrKuSV.s:806    .text:00000000000004e0 .L0 
     /tmp/ccnrKuSV.s:809    .text:00000000000004e4 .L0 
     /tmp/ccnrKuSV.s:811    .text:00000000000004e8 .L0 
     /tmp/ccnrKuSV.s:818    .text:00000000000004f0 .L0 
     /tmp/ccnrKuSV.s:819    .text:00000000000004f0 .L0 
     /tmp/ccnrKuSV.s:822    .text:00000000000004f8 .L0 
     /tmp/ccnrKuSV.s:823    .text:00000000000004f8 .L0 
     /tmp/ccnrKuSV.s:826    .text:00000000000004fc .L0 
     /tmp/ccnrKuSV.s:827    .text:00000000000004fc .L0 
     /tmp/ccnrKuSV.s:831    .text:0000000000000500 .L0 
     /tmp/ccnrKuSV.s:835    .text:0000000000000504 .L0 
     /tmp/ccnrKuSV.s:840    .text:0000000000000510 .L0 
     /tmp/ccnrKuSV.s:841    .text:0000000000000510 .L0 
     /tmp/ccnrKuSV.s:845    .text:000000000000051c .L0 
     /tmp/ccnrKuSV.s:851    .text:0000000000000520 .L0 
     /tmp/ccnrKuSV.s:852    .text:0000000000000520 .L0 
     /tmp/ccnrKuSV.s:856    .text:000000000000052c .L0 
     /tmp/ccnrKuSV.s:857    .text:000000000000052c .L0 
     /tmp/ccnrKuSV.s:861    .text:000000000000053c .L0 
     /tmp/ccnrKuSV.s:862    .text:000000000000053c .L0 
     /tmp/ccnrKuSV.s:867    .text:0000000000000548 .L0 
     /tmp/ccnrKuSV.s:869    .text:000000000000054c .L0 
     /tmp/ccnrKuSV.s:870    .text:000000000000054c .L0 
     /tmp/ccnrKuSV.s:875    .text:000000000000055c .L0 
     /tmp/ccnrKuSV.s:876    .text:0000000000000560 .L0 
     /tmp/ccnrKuSV.s:877    .text:0000000000000560 .L0 
     /tmp/ccnrKuSV.s:879    .text:0000000000000564 .L0 
     /tmp/ccnrKuSV.s:880    .text:0000000000000564 .L0 
GAS LISTING /tmp/ccnrKuSV.s 			page 31


     /tmp/ccnrKuSV.s:882    .text:0000000000000568 .L0 
     /tmp/ccnrKuSV.s:885    .text:000000000000056c .L0 
     /tmp/ccnrKuSV.s:887    .text:0000000000000570 .L0 
     /tmp/ccnrKuSV.s:890    .text:0000000000000574 .L0 
     /tmp/ccnrKuSV.s:894    .text:0000000000000578 .L0 
     /tmp/ccnrKuSV.s:896    .text:0000000000000578 .L0 
     /tmp/ccnrKuSV.s:897    .text:0000000000000578 .L0 
     /tmp/ccnrKuSV.s:901    .text:000000000000058c .L0 
     /tmp/ccnrKuSV.s:912    .text:000000000000058c _Z7badFreev
     /tmp/ccnrKuSV.s:915    .text:000000000000058c .L0 
     /tmp/ccnrKuSV.s:916    .text:000000000000058c .L0 
     /tmp/ccnrKuSV.s:917    .text:0000000000000590 .L0 
     /tmp/ccnrKuSV.s:920    .text:0000000000000598 .L0 
     /tmp/ccnrKuSV.s:921    .text:0000000000000598 .L0 
     /tmp/ccnrKuSV.s:923    .text:000000000000059c .L0 
     /tmp/ccnrKuSV.s:925    .text:000000000000059c .L0 
     /tmp/ccnrKuSV.s:926    .text:000000000000059c .L0 
     /tmp/ccnrKuSV.s:930    .text:00000000000005ac .L0 
     /tmp/ccnrKuSV.s:931    .text:00000000000005ac .L0 
     /tmp/ccnrKuSV.s:935    .text:00000000000005b8 .L0 
     /tmp/ccnrKuSV.s:936    .text:00000000000005b8 .L0 
     /tmp/ccnrKuSV.s:941    .text:00000000000005c4 .L0 
     /tmp/ccnrKuSV.s:943    .text:00000000000005c8 .L0 
     /tmp/ccnrKuSV.s:944    .text:00000000000005c8 .L0 
     /tmp/ccnrKuSV.s:950    .text:00000000000005d8 .L0 
     /tmp/ccnrKuSV.s:951    .text:00000000000005dc .L0 
     /tmp/ccnrKuSV.s:952    .text:00000000000005dc .L0 
     /tmp/ccnrKuSV.s:954    .text:00000000000005e0 .L0 
     /tmp/ccnrKuSV.s:955    .text:00000000000005e0 .L0 
     /tmp/ccnrKuSV.s:957    .text:00000000000005e4 .L0 
     /tmp/ccnrKuSV.s:961    .text:00000000000005e8 .L0 
     /tmp/ccnrKuSV.s:963    .text:00000000000005e8 .L0 
     /tmp/ccnrKuSV.s:964    .text:00000000000005e8 .L0 
     /tmp/ccnrKuSV.s:969    .text:00000000000005f8 .L0 
     /tmp/ccnrKuSV.s:970    .text:00000000000005fc .L0 
     /tmp/ccnrKuSV.s:976    .text:00000000000005fc _Z21memoryAllocationTestsv
     /tmp/ccnrKuSV.s:979    .text:00000000000005fc .L0 
     /tmp/ccnrKuSV.s:980    .text:00000000000005fc .L0 
     /tmp/ccnrKuSV.s:981    .text:0000000000000600 .L0 
     /tmp/ccnrKuSV.s:984    .text:0000000000000608 .L0 
     /tmp/ccnrKuSV.s:985    .text:0000000000000608 .L0 
     /tmp/ccnrKuSV.s:987    .text:000000000000060c .L0 
     /tmp/ccnrKuSV.s:989    .text:000000000000060c .L0 
     /tmp/ccnrKuSV.s:990    .text:000000000000060c .L0 
     /tmp/ccnrKuSV.s:993    .text:0000000000000614 .L0 
     /tmp/ccnrKuSV.s:994    .text:0000000000000618 .L0 
     /tmp/ccnrKuSV.s:996    .text:000000000000061c .L0 
     /tmp/ccnrKuSV.s:997    .text:000000000000061c .L0 
     /tmp/ccnrKuSV.s:999    .text:0000000000000620 .L0 
     /tmp/ccnrKuSV.s:1001   .text:0000000000000624 .L0 
     /tmp/ccnrKuSV.s:1011   .text:0000000000000624 .L0 
     /tmp/ccnrKuSV.s:8      .rodata.str1.8:0000000000000000 .LC0
     /tmp/ccnrKuSV.s:38     .text:0000000000000014 .L0 
     /tmp/ccnrKuSV.s:11     .rodata.str1.8:0000000000000018 .LC1
     /tmp/ccnrKuSV.s:51     .text:000000000000002c .L0 
     /tmp/ccnrKuSV.s:14     .rodata.str1.8:0000000000000020 .LC2
     /tmp/ccnrKuSV.s:61     .text:0000000000000048 .L0 
GAS LISTING /tmp/ccnrKuSV.s 			page 32


     /tmp/ccnrKuSV.s:109    .rodata.str1.8:0000000000000028 .LC3
     /tmp/ccnrKuSV.s:135    .text:00000000000000b4 .L0 
     /tmp/ccnrKuSV.s:112    .rodata.str1.8:0000000000000040 .LC4
     /tmp/ccnrKuSV.s:148    .text:00000000000000cc .L0 
     /tmp/ccnrKuSV.s:158    .text:00000000000000e8 .L0 
     /tmp/ccnrKuSV.s:272    .text:0000000000000198 .L0 
     /tmp/ccnrKuSV.s:284    .text:00000000000001b8 .L0 
     /tmp/ccnrKuSV.s:303    .text:00000000000001e8 .L0 
     /tmp/ccnrKuSV.s:230    .rodata.str1.8:0000000000000048 .LC5
     /tmp/ccnrKuSV.s:352    .text:0000000000000228 .L0 
     /tmp/ccnrKuSV.s:495    .rodata.str1.8:0000000000000050 .LC6
     /tmp/ccnrKuSV.s:523    .text:00000000000002e8 .L0 
     /tmp/ccnrKuSV.s:498    .rodata.str1.8:0000000000000060 .LC7
     /tmp/ccnrKuSV.s:553    .text:000000000000032c .L0 
     /tmp/ccnrKuSV.s:605    .text:0000000000000380 .L0 
     /tmp/ccnrKuSV.s:643    .text:00000000000003c8 .L0 
     /tmp/ccnrKuSV.s:679    .text:000000000000040c .L0 
     /tmp/ccnrKuSV.s:501    .rodata.str1.8:0000000000000068 .LC8
     /tmp/ccnrKuSV.s:690    .text:0000000000000420 .L0 
     /tmp/ccnrKuSV.s:699    .rodata.str1.8:0000000000000070 .LC9
     /tmp/ccnrKuSV.s:719    .text:0000000000000444 .L0 
     /tmp/ccnrKuSV.s:724    .text:0000000000000454 .L0 
     /tmp/ccnrKuSV.s:726    .text:0000000000000460 .L0 
     /tmp/ccnrKuSV.s:740    .text:0000000000000480 .L0 
     /tmp/ccnrKuSV.s:760    .text:00000000000004a0 .L0 
     /tmp/ccnrKuSV.s:770    .rodata.str1.8:0000000000000080 .LC10
     /tmp/ccnrKuSV.s:796    .text:00000000000004d0 .L0 
     /tmp/ccnrKuSV.s:857    .text:000000000000052c .L0 
     /tmp/ccnrKuSV.s:870    .text:000000000000054c .L0 
     /tmp/ccnrKuSV.s:897    .text:0000000000000578 .L0 
     /tmp/ccnrKuSV.s:906    .rodata.str1.8:0000000000000098 .LC11
     /tmp/ccnrKuSV.s:926    .text:000000000000059c .L0 
     /tmp/ccnrKuSV.s:944    .text:00000000000005c8 .L0 
     /tmp/ccnrKuSV.s:964    .text:00000000000005e8 .L0 
     /tmp/ccnrKuSV.s:67     .text:000000000000005c .L4
     /tmp/ccnrKuSV.s:90     .text:000000000000008c .L1
     /tmp/ccnrKuSV.s:48     .text:000000000000002c .L3
     /tmp/ccnrKuSV.s:164    .text:00000000000000fc .L9
     /tmp/ccnrKuSV.s:188    .text:0000000000000130 .L6
     /tmp/ccnrKuSV.s:145    .text:00000000000000cc .L8
     /tmp/ccnrKuSV.s:320    .text:0000000000000210 .L16
     /tmp/ccnrKuSV.s:315    .text:0000000000000208 .L14
     /tmp/ccnrKuSV.s:535    .text:0000000000000304 .L31
     /tmp/ccnrKuSV.s:572    .text:0000000000000350 .L39
     /tmp/ccnrKuSV.s:531    .text:0000000000000300 .L29
     /tmp/ccnrKuSV.s:611    .text:0000000000000394 .L40
     /tmp/ccnrKuSV.s:601    .text:0000000000000380 .L43
     /tmp/ccnrKuSV.s:578    .text:0000000000000354 .L28
     /tmp/ccnrKuSV.s:557    .text:000000000000033c .L27
     /tmp/ccnrKuSV.s:625    .text:00000000000003a0 .L32
     /tmp/ccnrKuSV.s:648    .text:00000000000003dc .L41
     /tmp/ccnrKuSV.s:620    .text:000000000000039c .L35
     /tmp/ccnrKuSV.s:685    .text:0000000000000420 .L36
     /tmp/ccnrKuSV.s:675    .text:000000000000040c .L44
     /tmp/ccnrKuSV.s:654    .text:00000000000003e0 .L34
     /tmp/ccnrKuSV.s:756    .text:00000000000004a0 .L49
     /tmp/ccnrKuSV.s:744    .text:0000000000000490 .L45
GAS LISTING /tmp/ccnrKuSV.s 			page 33


     /tmp/ccnrKuSV.s:833    .text:0000000000000504 .L52
     /tmp/ccnrKuSV.s:847    .text:0000000000000520 .L51
     /tmp/ccnrKuSV.s:814    .text:00000000000004f0 .L56
     /tmp/ccnrKuSV.s:893    .text:0000000000000578 .L57
     /tmp/ccnrKuSV.s:873    .text:000000000000055c .L50
     /tmp/ccnrKuSV.s:960    .text:00000000000005e8 .L59
     /tmp/ccnrKuSV.s:948    .text:00000000000005d8 .L58
     /tmp/ccnrKuSV.s:257    .text:0000000000000178 .LEHB0
     /tmp/ccnrKuSV.s:237    .text:000000000000015c .LFB23
     /tmp/ccnrKuSV.s:260    .text:0000000000000180 .LEHE0
     /tmp/ccnrKuSV.s:264    .text:000000000000018c .LEHB1
     /tmp/ccnrKuSV.s:267    .text:0000000000000194 .LEHE1
     /tmp/ccnrKuSV.s:372    .text:0000000000000250 .L20
     /tmp/ccnrKuSV.s:277    .text:00000000000001a8 .LEHB2
     /tmp/ccnrKuSV.s:280    .text:00000000000001b0 .LEHE2
     /tmp/ccnrKuSV.s:285    .text:00000000000001c0 .LEHB3
     /tmp/ccnrKuSV.s:288    .text:00000000000001c8 .LEHE3
     /tmp/ccnrKuSV.s:384    .text:000000000000026c .L21
     /tmp/ccnrKuSV.s:292    .text:00000000000001cc .LEHB4
     /tmp/ccnrKuSV.s:300    .text:00000000000001e0 .LEHE4
     /tmp/ccnrKuSV.s:304    .text:00000000000001f0 .LEHB5
     /tmp/ccnrKuSV.s:307    .text:00000000000001f8 .LEHE5
     /tmp/ccnrKuSV.s:395    .text:0000000000000288 .L22
     /tmp/ccnrKuSV.s:311    .text:00000000000001fc .LEHB6
     /tmp/ccnrKuSV.s:355    .text:0000000000000238 .LEHE6
     /tmp/ccnrKuSV.s:380    .text:0000000000000264 .LEHB7
     /tmp/ccnrKuSV.s:383    .text:000000000000026c .LEHE7
     /tmp/ccnrKuSV.s:391    .text:0000000000000280 .LEHB8
     /tmp/ccnrKuSV.s:394    .text:0000000000000288 .LEHE8
     /tmp/ccnrKuSV.s:403    .text:000000000000029c .LEHB9
     /tmp/ccnrKuSV.s:406    .text:00000000000002a4 .LEHE9
     /tmp/ccnrKuSV.s:3024   .debug_abbrev:0000000000000000 .Ldebug_abbrev0
     /tmp/ccnrKuSV.s:4551   .debug_str:0000000000000563 .LASF167
     /tmp/ccnrKuSV.s:4457   .debug_str:00000000000002ac .LASF168
     /tmp/ccnrKuSV.s:4657   .debug_str:00000000000008cf .LASF169
     /tmp/ccnrKuSV.s:5      .text:0000000000000000 .Ltext0
     /tmp/ccnrKuSV.s:1004   .text:0000000000000624 .Letext0
     /tmp/ccnrKuSV.s:4367   .debug_line:0000000000000000 .Ldebug_line0
     /tmp/ccnrKuSV.s:4491   .debug_str:000000000000039a .LASF0
     /tmp/ccnrKuSV.s:4523   .debug_str:000000000000047d .LASF1
     /tmp/ccnrKuSV.s:4603   .debug_str:0000000000000760 .LASF2
     /tmp/ccnrKuSV.s:4609   .debug_str:0000000000000796 .LASF4
     /tmp/ccnrKuSV.s:4507   .debug_str:00000000000003fb .LASF3
     /tmp/ccnrKuSV.s:4377   .debug_str:0000000000000028 .LASF5
     /tmp/ccnrKuSV.s:4583   .debug_str:00000000000006ce .LASF6
     /tmp/ccnrKuSV.s:4575   .debug_str:0000000000000689 .LASF7
     /tmp/ccnrKuSV.s:4515   .debug_str:000000000000044d .LASF8
     /tmp/ccnrKuSV.s:4467   .debug_str:00000000000002e1 .LASF9
     /tmp/ccnrKuSV.s:4471   .debug_str:000000000000030d .LASF10
     /tmp/ccnrKuSV.s:4415   .debug_str:0000000000000183 .LASF11
     /tmp/ccnrKuSV.s:4455   .debug_str:000000000000029d .LASF12
     /tmp/ccnrKuSV.s:4423   .debug_str:00000000000001c1 .LASF13
     /tmp/ccnrKuSV.s:4413   .debug_str:0000000000000173 .LASF14
     /tmp/ccnrKuSV.s:4633   .debug_str:0000000000000844 .LASF15
     /tmp/ccnrKuSV.s:4447   .debug_str:000000000000026e .LASF16
     /tmp/ccnrKuSV.s:4629   .debug_str:0000000000000827 .LASF17
     /tmp/ccnrKuSV.s:4659   .debug_str:00000000000008f2 .LASF28
GAS LISTING /tmp/ccnrKuSV.s 			page 34


     /tmp/ccnrKuSV.s:4675   .debug_str:0000000000000948 .LASF20
     /tmp/ccnrKuSV.s:4519   .debug_str:0000000000000473 .LASF18
     /tmp/ccnrKuSV.s:4417   .debug_str:0000000000000192 .LASF19
     /tmp/ccnrKuSV.s:4641   .debug_str:0000000000000871 .LASF21
     /tmp/ccnrKuSV.s:4533   .debug_str:00000000000004bf .LASF22
     /tmp/ccnrKuSV.s:4705   .debug_str:0000000000000a19 .LASF33
     /tmp/ccnrKuSV.s:4673   .debug_str:0000000000000942 .LASF24
     /tmp/ccnrKuSV.s:4425   .debug_str:00000000000001d1 .LASF26
     /tmp/ccnrKuSV.s:4493   .debug_str:00000000000003a7 .LASF23
     /tmp/ccnrKuSV.s:4623   .debug_str:00000000000007f9 .LASF29
     /tmp/ccnrKuSV.s:4521   .debug_str:0000000000000478 .LASF25
     /tmp/ccnrKuSV.s:4595   .debug_str:0000000000000711 .LASF27
     /tmp/ccnrKuSV.s:4443   .debug_str:000000000000025a .LASF30
     /tmp/ccnrKuSV.s:4591   .debug_str:00000000000006f6 .LASF37
     /tmp/ccnrKuSV.s:4397   .debug_str:00000000000000ee .LASF39
     /tmp/ccnrKuSV.s:4639   .debug_str:0000000000000869 .LASF31
     /tmp/ccnrKuSV.s:4483   .debug_str:0000000000000361 .LASF32
     /tmp/ccnrKuSV.s:4665   .debug_str:000000000000090a .LASF34
     /tmp/ccnrKuSV.s:4569   .debug_str:000000000000066b .LASF170
     /tmp/ccnrKuSV.s:4711   .debug_str:0000000000000a4e .LASF35
     /tmp/ccnrKuSV.s:4651   .debug_str:00000000000008a1 .LASF36
     /tmp/ccnrKuSV.s:4439   .debug_str:0000000000000249 .LASF68
     /tmp/ccnrKuSV.s:4389   .debug_str:0000000000000080 .LASF70
     /tmp/ccnrKuSV.s:4527   .debug_str:0000000000000499 .LASF38
     /tmp/ccnrKuSV.s:4577   .debug_str:000000000000069c .LASF40
     /tmp/ccnrKuSV.s:4647   .debug_str:0000000000000886 .LASF44
     /tmp/ccnrKuSV.s:4627   .debug_str:0000000000000819 .LASF41
     /tmp/ccnrKuSV.s:4587   .debug_str:00000000000006e3 .LASF42
     /tmp/ccnrKuSV.s:4435   .debug_str:0000000000000227 .LASF43
     /tmp/ccnrKuSV.s:4619   .debug_str:00000000000007cd .LASF45
     /tmp/ccnrKuSV.s:4531   .debug_str:00000000000004b2 .LASF46
     /tmp/ccnrKuSV.s:4537   .debug_str:00000000000004e2 .LASF47
     /tmp/ccnrKuSV.s:4399   .debug_str:00000000000000fc .LASF48
     /tmp/ccnrKuSV.s:4475   .debug_str:0000000000000325 .LASF49
     /tmp/ccnrKuSV.s:4561   .debug_str:000000000000063c .LASF50
     /tmp/ccnrKuSV.s:4421   .debug_str:00000000000001aa .LASF51
     /tmp/ccnrKuSV.s:4721   .debug_str:0000000000000a9b .LASF52
     /tmp/ccnrKuSV.s:4449   .debug_str:0000000000000284 .LASF53
     /tmp/ccnrKuSV.s:4373   .debug_str:0000000000000010 .LASF54
     /tmp/ccnrKuSV.s:4505   .debug_str:00000000000003ee .LASF55
     /tmp/ccnrKuSV.s:4655   .debug_str:00000000000008c5 .LASF56
     /tmp/ccnrKuSV.s:4429   .debug_str:0000000000000202 .LASF171
     /tmp/ccnrKuSV.s:4393   .debug_str:00000000000000ae .LASF172
     /tmp/ccnrKuSV.s:4699   .debug_str:00000000000009f0 .LASF173
     /tmp/ccnrKuSV.s:4409   .debug_str:000000000000014e .LASF174
     /tmp/ccnrKuSV.s:4371   .debug_str:000000000000000b .LASF57
     /tmp/ccnrKuSV.s:4715   .debug_str:0000000000000a68 .LASF58
     /tmp/ccnrKuSV.s:4663   .debug_str:0000000000000902 .LASF59
     /tmp/ccnrKuSV.s:4645   .debug_str:000000000000087c .LASF60
     /tmp/ccnrKuSV.s:4637   .debug_str:0000000000000860 .LASF61
     /tmp/ccnrKuSV.s:4465   .debug_str:00000000000002d7 .LASF62
     /tmp/ccnrKuSV.s:4385   .debug_str:000000000000005f .LASF175
     /tmp/ccnrKuSV.s:4713   .debug_str:0000000000000a54 .LASF176
     /tmp/ccnrKuSV.s:4403   .debug_str:0000000000000116 .LASF63
     /tmp/ccnrKuSV.s:4571   .debug_str:0000000000000670 .LASF64
     /tmp/ccnrKuSV.s:4615   .debug_str:00000000000007b7 .LASF65
     /tmp/ccnrKuSV.s:4599   .debug_str:000000000000073d .LASF85
GAS LISTING /tmp/ccnrKuSV.s 			page 35


     /tmp/ccnrKuSV.s:4387   .debug_str:0000000000000077 .LASF66
     /tmp/ccnrKuSV.s:4383   .debug_str:0000000000000055 .LASF139
     /tmp/ccnrKuSV.s:4687   .debug_str:000000000000099d .LASF67
     /tmp/ccnrKuSV.s:4557   .debug_str:000000000000061f .LASF69
     /tmp/ccnrKuSV.s:4545   .debug_str:000000000000052b .LASF71
     /tmp/ccnrKuSV.s:4677   .debug_str:000000000000094d .LASF72
     /tmp/ccnrKuSV.s:4535   .debug_str:00000000000004c4 .LASF73
     /tmp/ccnrKuSV.s:4503   .debug_str:00000000000003dc .LASF74
     /tmp/ccnrKuSV.s:4427   .debug_str:00000000000001e3 .LASF75
     /tmp/ccnrKuSV.s:4703   .debug_str:0000000000000a0d .LASF76
     /tmp/ccnrKuSV.s:4391   .debug_str:0000000000000093 .LASF77
     /tmp/ccnrKuSV.s:4581   .debug_str:00000000000006c1 .LASF78
     /tmp/ccnrKuSV.s:4379   .debug_str:000000000000002f .LASF79
     /tmp/ccnrKuSV.s:4617   .debug_str:00000000000007bf .LASF80
     /tmp/ccnrKuSV.s:4621   .debug_str:00000000000007de .LASF81
     /tmp/ccnrKuSV.s:4495   .debug_str:00000000000003ac .LASF82
     /tmp/ccnrKuSV.s:4695   .debug_str:00000000000009ce .LASF83
     /tmp/ccnrKuSV.s:4525   .debug_str:0000000000000490 .LASF84
     /tmp/ccnrKuSV.s:4539   .debug_str:00000000000004fa .LASF86
     /tmp/ccnrKuSV.s:4725   .debug_str:0000000000000ab7 .LASF87
     /tmp/ccnrKuSV.s:4565   .debug_str:000000000000064f .LASF88
     /tmp/ccnrKuSV.s:4589   .debug_str:00000000000006ef .LASF89
     /tmp/ccnrKuSV.s:4407   .debug_str:000000000000013b .LASF90
     /tmp/ccnrKuSV.s:4563   .debug_str:0000000000000648 .LASF91
     /tmp/ccnrKuSV.s:4517   .debug_str:0000000000000460 .LASF92
     /tmp/ccnrKuSV.s:4697   .debug_str:00000000000009e8 .LASF93
     /tmp/ccnrKuSV.s:4653   .debug_str:00000000000008b1 .LASF94
     /tmp/ccnrKuSV.s:4513   .debug_str:0000000000000445 .LASF95
     /tmp/ccnrKuSV.s:4459   .debug_str:00000000000002b9 .LASF96
     /tmp/ccnrKuSV.s:4553   .debug_str:0000000000000605 .LASF97
     /tmp/ccnrKuSV.s:4593   .debug_str:00000000000006fd .LASF98
     /tmp/ccnrKuSV.s:4727   .debug_str:0000000000000ac0 .LASF99
     /tmp/ccnrKuSV.s:4499   .debug_str:00000000000003bf .LASF100
     /tmp/ccnrKuSV.s:4631   .debug_str:000000000000083d .LASF101
     /tmp/ccnrKuSV.s:4611   .debug_str:000000000000079d .LASF102
     /tmp/ccnrKuSV.s:4613   .debug_str:00000000000007b0 .LASF103
     /tmp/ccnrKuSV.s:4419   .debug_str:0000000000000197 .LASF104
     /tmp/ccnrKuSV.s:4445   .debug_str:0000000000000268 .LASF105
     /tmp/ccnrKuSV.s:4485   .debug_str:0000000000000367 .LASF106
     /tmp/ccnrKuSV.s:4497   .debug_str:00000000000003b9 .LASF107
     /tmp/ccnrKuSV.s:4437   .debug_str:0000000000000237 .LASF108
     /tmp/ccnrKuSV.s:4369   .debug_str:0000000000000000 .LASF109
     /tmp/ccnrKuSV.s:4607   .debug_str:000000000000077e .LASF110
     /tmp/ccnrKuSV.s:4601   .debug_str:0000000000000755 .LASF111
     /tmp/ccnrKuSV.s:4719   .debug_str:0000000000000a83 .LASF112
     /tmp/ccnrKuSV.s:4691   .debug_str:00000000000009b4 .LASF113
     /tmp/ccnrKuSV.s:4701   .debug_str:00000000000009f7 .LASF114
     /tmp/ccnrKuSV.s:4685   .debug_str:0000000000000993 .LASF115
     /tmp/ccnrKuSV.s:4547   .debug_str:0000000000000543 .LASF116
     /tmp/ccnrKuSV.s:4481   .debug_str:0000000000000356 .LASF117
     /tmp/ccnrKuSV.s:4489   .debug_str:0000000000000382 .LASF118
     /tmp/ccnrKuSV.s:4671   .debug_str:0000000000000933 .LASF119
     /tmp/ccnrKuSV.s:4469   .debug_str:00000000000002f1 .LASF120
     /tmp/ccnrKuSV.s:4579   .debug_str:00000000000006ac .LASF121
     /tmp/ccnrKuSV.s:4511   .debug_str:0000000000000423 .LASF122
     /tmp/ccnrKuSV.s:4433   .debug_str:0000000000000220 .LASF123
     /tmp/ccnrKuSV.s:4375   .debug_str:0000000000000020 .LASF124
GAS LISTING /tmp/ccnrKuSV.s 			page 36


     /tmp/ccnrKuSV.s:4723   .debug_str:0000000000000aa8 .LASF125
     /tmp/ccnrKuSV.s:4669   .debug_str:0000000000000927 .LASF126
     /tmp/ccnrKuSV.s:4405   .debug_str:0000000000000128 .LASF127
     /tmp/ccnrKuSV.s:4555   .debug_str:000000000000060d .LASF128
     /tmp/ccnrKuSV.s:4479   .debug_str:0000000000000343 .LASF129
     /tmp/ccnrKuSV.s:4683   .debug_str:0000000000000980 .LASF130
     /tmp/ccnrKuSV.s:4411   .debug_str:000000000000015f .LASF131
     /tmp/ccnrKuSV.s:4643   .debug_str:0000000000000877 .LASF132
     /tmp/ccnrKuSV.s:4541   .debug_str:000000000000050f .LASF133
     /tmp/ccnrKuSV.s:4477   .debug_str:000000000000033c .LASF134
     /tmp/ccnrKuSV.s:4731   .debug_str:0000000000000ad7 .LASF135
     /tmp/ccnrKuSV.s:4529   .debug_str:000000000000049f .LASF136
     /tmp/ccnrKuSV.s:4707   .debug_str:0000000000000a29 .LASF137
     /tmp/ccnrKuSV.s:4649   .debug_str:000000000000088e .LASF138
     /tmp/ccnrKuSV.s:4501   .debug_str:00000000000003d3 .LASF140
     /tmp/ccnrKuSV.s:4729   .debug_str:0000000000000ac8 .LASF141
     /tmp/ccnrKuSV.s:4667   .debug_str:0000000000000922 .LASF142
     /tmp/ccnrKuSV.s:4717   .debug_str:0000000000000a6d .LASF143
     /tmp/ccnrKuSV.s:4597   .debug_str:0000000000000722 .LASF144
     /tmp/ccnrKuSV.s:977    .text:00000000000005fc .LFB28
     /tmp/ccnrKuSV.s:1002   .text:0000000000000624 .LFE28
     /tmp/ccnrKuSV.s:991    .text:0000000000000614 .LVL107
     /tmp/ccnrKuSV.s:4441   .debug_str:0000000000000252 .LASF145
     /tmp/ccnrKuSV.s:4381   .debug_str:0000000000000049 .LASF146
     /tmp/ccnrKuSV.s:913    .text:000000000000058c .LFB27
     /tmp/ccnrKuSV.s:971    .text:00000000000005fc .LFE27
     /tmp/ccnrKuSV.s:4064   .debug_loc:0000000000000000 .LLST21
     /tmp/ccnrKuSV.s:4451   .debug_str:0000000000000290 .LASF147
     /tmp/ccnrKuSV.s:4077   .debug_loc:0000000000000038 .LLST22
     /tmp/ccnrKuSV.s:928    .text:00000000000005ac .LVL98
     /tmp/ccnrKuSV.s:933    .text:00000000000005b8 .LVL99
     /tmp/ccnrKuSV.s:939    .text:00000000000005c4 .LVL101
     /tmp/ccnrKuSV.s:947    .text:00000000000005d8 .LVL103
     /tmp/ccnrKuSV.s:967    .text:00000000000005f8 .LVL106
     /tmp/ccnrKuSV.s:4559   .debug_str:000000000000062a .LASF148
     /tmp/ccnrKuSV.s:4543   .debug_str:0000000000000514 .LASF149
     /tmp/ccnrKuSV.s:777    .text:00000000000004b4 .LFB26
     /tmp/ccnrKuSV.s:902    .text:000000000000058c .LFE26
     /tmp/ccnrKuSV.s:4104   .debug_loc:000000000000007e .LLST17
     /tmp/ccnrKuSV.s:4116   .debug_loc:00000000000000b5 .LLST18
     /tmp/ccnrKuSV.s:4341   .debug_ranges:0000000000000000 .Ldebug_ranges0
     /tmp/ccnrKuSV.s:4132   .debug_loc:00000000000000ff .LLST19
     /tmp/ccnrKuSV.s:4148   .debug_loc:0000000000000149 .LLST20
     /tmp/ccnrKuSV.s:843    .text:000000000000051c .LVL88
     /tmp/ccnrKuSV.s:798    .text:00000000000004e0 .LVL83
     /tmp/ccnrKuSV.s:854    .text:000000000000052c .LVL90
     /tmp/ccnrKuSV.s:859    .text:000000000000053c .LVL91
     /tmp/ccnrKuSV.s:872    .text:000000000000055c .LVL93
     /tmp/ccnrKuSV.s:899    .text:0000000000000588 .LVL97
     /tmp/ccnrKuSV.s:4661   .debug_str:00000000000008f8 .LASF150
     /tmp/ccnrKuSV.s:4585   .debug_str:00000000000006d5 .LASF151
     /tmp/ccnrKuSV.s:706    .text:0000000000000434 .LFB25
     /tmp/ccnrKuSV.s:766    .text:00000000000004b4 .LFE25
     /tmp/ccnrKuSV.s:4159   .debug_loc:000000000000017f .LLST15
     /tmp/ccnrKuSV.s:4172   .debug_loc:00000000000001b8 .LLST16
     /tmp/ccnrKuSV.s:721    .text:0000000000000454 .LVL74
     /tmp/ccnrKuSV.s:735    .text:000000000000047c .LVL77
GAS LISTING /tmp/ccnrKuSV.s 			page 37


     /tmp/ccnrKuSV.s:743    .text:0000000000000490 .LVL79
     /tmp/ccnrKuSV.s:763    .text:00000000000004b0 .LVL82
     /tmp/ccnrKuSV.s:4625   .debug_str:000000000000080e .LASF152
     /tmp/ccnrKuSV.s:4431   .debug_str:0000000000000210 .LASF153
     /tmp/ccnrKuSV.s:508    .text:00000000000002d4 .LFB24
     /tmp/ccnrKuSV.s:695    .text:0000000000000434 .LFE24
     /tmp/ccnrKuSV.s:4573   .debug_str:0000000000000683 .LASF154
     /tmp/ccnrKuSV.s:526    .text:00000000000002f8 .LBB12
     /tmp/ccnrKuSV.s:558    .text:000000000000033c .LBE12
     /tmp/ccnrKuSV.s:4183   .debug_loc:00000000000001ee .LLST9
     /tmp/ccnrKuSV.s:543    .text:0000000000000318 .LVL53
     /tmp/ccnrKuSV.s:555    .text:000000000000033c .LVL54
     /tmp/ccnrKuSV.s:574    .text:0000000000000350 .LBB13
     /tmp/ccnrKuSV.s:613    .text:0000000000000394 .LBE13
     /tmp/ccnrKuSV.s:4194   .debug_loc:0000000000000224 .LLST10
     /tmp/ccnrKuSV.s:4205   .debug_loc:000000000000025a .LLST11
     /tmp/ccnrKuSV.s:590    .text:0000000000000374 .LVL57
     /tmp/ccnrKuSV.s:608    .text:0000000000000390 .LVL61
     /tmp/ccnrKuSV.s:614    .text:0000000000000394 .LBB16
     /tmp/ccnrKuSV.s:649    .text:00000000000003dc .LBE16
     /tmp/ccnrKuSV.s:4212   .debug_loc:000000000000027d .LLST12
     /tmp/ccnrKuSV.s:633    .text:00000000000003b4 .LVL65
     /tmp/ccnrKuSV.s:645    .text:00000000000003d8 .LVL66
     /tmp/ccnrKuSV.s:650    .text:00000000000003dc .LBB17
     /tmp/ccnrKuSV.s:687    .text:0000000000000420 .LBE17
     /tmp/ccnrKuSV.s:4219   .debug_loc:00000000000002a0 .LLST13
     /tmp/ccnrKuSV.s:4230   .debug_loc:00000000000002d6 .LLST14
     /tmp/ccnrKuSV.s:666    .text:0000000000000400 .LVL68
     /tmp/ccnrKuSV.s:682    .text:000000000000041c .LVL72
     /tmp/ccnrKuSV.s:525    .text:00000000000002f8 .LVL50
     /tmp/ccnrKuSV.s:692    .text:0000000000000430 .LVL73
     /tmp/ccnrKuSV.s:4681   .debug_str:0000000000000974 .LASF155
     /tmp/ccnrKuSV.s:4689   .debug_str:00000000000009a3 .LASF156
     /tmp/ccnrKuSV.s:408    .text:00000000000002a4 .LFE23
     /tmp/ccnrKuSV.s:4237   .debug_loc:00000000000002f9 .LLST4
     /tmp/ccnrKuSV.s:4244   .debug_loc:000000000000031c .LLST5
     /tmp/ccnrKuSV.s:4255   .debug_loc:0000000000000352 .LLST6
     /tmp/ccnrKuSV.s:326    .text:0000000000000214 .LBB8
     /tmp/ccnrKuSV.s:334    .text:0000000000000218 .LBE8
     /tmp/ccnrKuSV.s:4262   .debug_loc:0000000000000375 .LLST7
     /tmp/ccnrKuSV.s:340    .text:0000000000000220 .LBB10
     /tmp/ccnrKuSV.s:347    .text:0000000000000224 .LBE10
     /tmp/ccnrKuSV.s:4269   .debug_loc:0000000000000398 .LLST8
     /tmp/ccnrKuSV.s:259    .text:0000000000000180 .LVL24
     /tmp/ccnrKuSV.s:266    .text:0000000000000194 .LVL25
     /tmp/ccnrKuSV.s:279    .text:00000000000001b0 .LVL26
     /tmp/ccnrKuSV.s:287    .text:00000000000001c8 .LVL28
     /tmp/ccnrKuSV.s:294    .text:00000000000001d4 .LVL29
     /tmp/ccnrKuSV.s:299    .text:00000000000001e0 .LVL30
     /tmp/ccnrKuSV.s:306    .text:00000000000001f8 .LVL31
     /tmp/ccnrKuSV.s:313    .text:0000000000000204 .LVL32
     /tmp/ccnrKuSV.s:319    .text:0000000000000210 .LVL33
     /tmp/ccnrKuSV.s:354    .text:0000000000000238 .LVL38
     /tmp/ccnrKuSV.s:378    .text:0000000000000260 .LVL41
     /tmp/ccnrKuSV.s:382    .text:000000000000026c .LVL42
     /tmp/ccnrKuSV.s:389    .text:000000000000027c .LVL43
     /tmp/ccnrKuSV.s:393    .text:0000000000000288 .LVL44
GAS LISTING /tmp/ccnrKuSV.s 			page 38


     /tmp/ccnrKuSV.s:401    .text:0000000000000298 .LVL46
     /tmp/ccnrKuSV.s:405    .text:00000000000002a4 .LVL47
     /tmp/ccnrKuSV.s:4605   .debug_str:000000000000076e .LASF157
     /tmp/ccnrKuSV.s:4679   .debug_str:000000000000095e .LASF158
     /tmp/ccnrKuSV.s:119    .text:00000000000000a0 .LFB22
     /tmp/ccnrKuSV.s:203    .text:0000000000000144 .LFE22
     /tmp/ccnrKuSV.s:4276   .debug_loc:00000000000003bb .LLST2
     /tmp/ccnrKuSV.s:140    .text:00000000000000c4 .LBB7
     /tmp/ccnrKuSV.s:189    .text:0000000000000130 .LBE7
     /tmp/ccnrKuSV.s:4290   .debug_loc:00000000000003f4 .LLST3
     /tmp/ccnrKuSV.s:150    .text:00000000000000dc .LVL16
     /tmp/ccnrKuSV.s:155    .text:00000000000000e8 .LVL17
     /tmp/ccnrKuSV.s:160    .text:00000000000000f8 .LVL18
     /tmp/ccnrKuSV.s:171    .text:000000000000010c .LVL20
     /tmp/ccnrKuSV.s:174    .text:0000000000000114 .LVL21
     /tmp/ccnrKuSV.s:186    .text:000000000000012c .LVL22
     /tmp/ccnrKuSV.s:138    .text:00000000000000c4 .LVL14
     /tmp/ccnrKuSV.s:4693   .debug_str:00000000000009be .LASF159
     /tmp/ccnrKuSV.s:4509   .debug_str:000000000000040d .LASF160
     /tmp/ccnrKuSV.s:21     .text:0000000000000000 .LFB21
     /tmp/ccnrKuSV.s:105    .text:00000000000000a0 .LFE21
     /tmp/ccnrKuSV.s:4302   .debug_loc:000000000000042b .LLST0
     /tmp/ccnrKuSV.s:43     .text:0000000000000024 .LBB6
     /tmp/ccnrKuSV.s:91     .text:000000000000008c .LBE6
     /tmp/ccnrKuSV.s:4316   .debug_loc:0000000000000464 .LLST1
     /tmp/ccnrKuSV.s:53     .text:000000000000003c .LVL4
     /tmp/ccnrKuSV.s:58     .text:0000000000000048 .LVL5
     /tmp/ccnrKuSV.s:63     .text:0000000000000058 .LVL6
     /tmp/ccnrKuSV.s:74     .text:000000000000006c .LVL8
     /tmp/ccnrKuSV.s:77     .text:0000000000000074 .LVL9
     /tmp/ccnrKuSV.s:88     .text:0000000000000088 .LVL10
     /tmp/ccnrKuSV.s:41     .text:0000000000000024 .LVL2
     /tmp/ccnrKuSV.s:4473   .debug_str:000000000000031b .LASF177
     /tmp/ccnrKuSV.s:4401   .debug_str:0000000000000108 .LASF178
     /tmp/ccnrKuSV.s:209    .text:0000000000000144 .LFB20
     /tmp/ccnrKuSV.s:226    .text:000000000000015c .LFE20
     /tmp/ccnrKuSV.s:4463   .debug_str:00000000000002d2 .LASF161
     /tmp/ccnrKuSV.s:462    .text:00000000000002a4 .LFB19
     /tmp/ccnrKuSV.s:491    .text:00000000000002d4 .LFE19
     /tmp/ccnrKuSV.s:476    .text:00000000000002bc .LVL48
     /tmp/ccnrKuSV.s:480    .text:00000000000002c4 .LVL49
     /tmp/ccnrKuSV.s:4461   .debug_str:00000000000002cd .LASF179
     /tmp/ccnrKuSV.s:4549   .debug_str:0000000000000559 .LASF162
     /tmp/ccnrKuSV.s:4487   .debug_str:0000000000000379 .LASF163
     /tmp/ccnrKuSV.s:4453   .debug_str:0000000000000297 .LASF164
     /tmp/ccnrKuSV.s:4635   .debug_str:0000000000000850 .LASF165
     /tmp/ccnrKuSV.s:4567   .debug_str:0000000000000664 .LASF166
     /tmp/ccnrKuSV.s:4709   .debug_str:0000000000000a3f .LASF180
     /tmp/ccnrKuSV.s:4395   .debug_str:00000000000000d6 .LASF181
     /tmp/ccnrKuSV.s:937    .text:00000000000005bc .LVL100
     /tmp/ccnrKuSV.s:945    .text:00000000000005d0 .LVL102
     /tmp/ccnrKuSV.s:959    .text:00000000000005e8 .LVL104
     /tmp/ccnrKuSV.s:965    .text:00000000000005f0 .LVL105
     /tmp/ccnrKuSV.s:813    .text:00000000000004f0 .LVL84
     /tmp/ccnrKuSV.s:864    .text:0000000000000544 .LVL92
     /tmp/ccnrKuSV.s:888    .text:0000000000000570 .LVL95
     /tmp/ccnrKuSV.s:892    .text:0000000000000578 .LVL96
GAS LISTING /tmp/ccnrKuSV.s 			page 39


     /tmp/ccnrKuSV.s:883    .text:0000000000000568 .LVL94
     /tmp/ccnrKuSV.s:832    .text:0000000000000504 .LVL87
     /tmp/ccnrKuSV.s:846    .text:0000000000000520 .LVL89
     /tmp/ccnrKuSV.s:729    .text:0000000000000470 .LVL75
     /tmp/ccnrKuSV.s:733    .text:0000000000000474 .LVL76
     /tmp/ccnrKuSV.s:741    .text:0000000000000488 .LVL78
     /tmp/ccnrKuSV.s:755    .text:00000000000004a0 .LVL80
     /tmp/ccnrKuSV.s:761    .text:00000000000004a8 .LVL81
     /tmp/ccnrKuSV.s:530    .text:0000000000000300 .LVL51
     /tmp/ccnrKuSV.s:571    .text:0000000000000350 .LVL55
     /tmp/ccnrKuSV.s:577    .text:0000000000000354 .LVL56
     /tmp/ccnrKuSV.s:597    .text:000000000000037c .LVL58
     /tmp/ccnrKuSV.s:600    .text:0000000000000380 .LVL59
     /tmp/ccnrKuSV.s:617    .text:0000000000000398 .LVL62
     /tmp/ccnrKuSV.s:606    .text:0000000000000388 .LVL60
     /tmp/ccnrKuSV.s:619    .text:000000000000039c .LVL63
     /tmp/ccnrKuSV.s:653    .text:00000000000003e0 .LVL67
     /tmp/ccnrKuSV.s:672    .text:0000000000000408 .LVL69
     /tmp/ccnrKuSV.s:674    .text:000000000000040c .LVL70
     /tmp/ccnrKuSV.s:680    .text:0000000000000414 .LVL71
     /tmp/ccnrKuSV.s:282    .text:00000000000001b4 .LVL27
     /tmp/ccnrKuSV.s:365    .text:0000000000000244 .LVL39
     /tmp/ccnrKuSV.s:397    .text:000000000000028c .LVL45
     /tmp/ccnrKuSV.s:368    .text:0000000000000248 .LVL40
     /tmp/ccnrKuSV.s:325    .text:0000000000000214 .LVL34
     /tmp/ccnrKuSV.s:332    .text:0000000000000218 .LVL35
     /tmp/ccnrKuSV.s:339    .text:0000000000000220 .LVL36
     /tmp/ccnrKuSV.s:345    .text:0000000000000224 .LVL37
     /tmp/ccnrKuSV.s:122    .text:00000000000000a0 .LVL12
     /tmp/ccnrKuSV.s:136    .text:00000000000000bc .LVL13
     /tmp/ccnrKuSV.s:144    .text:00000000000000cc .LVL15
     /tmp/ccnrKuSV.s:198    .text:000000000000013c .LVL23
     /tmp/ccnrKuSV.s:25     .text:0000000000000000 .LVL0
     /tmp/ccnrKuSV.s:39     .text:000000000000001c .LVL1
     /tmp/ccnrKuSV.s:47     .text:000000000000002c .LVL3
     /tmp/ccnrKuSV.s:100    .text:0000000000000098 .LVL11
     /tmp/ccnrKuSV.s:1012   .debug_info:0000000000000000 .Ldebug_info0
     /tmp/ccnrKuSV.s:582    .text:000000000000035c .LBB14
     /tmp/ccnrKuSV.s:593    .text:0000000000000378 .LBE14
     /tmp/ccnrKuSV.s:602    .text:0000000000000380 .LBB15
     /tmp/ccnrKuSV.s:612    .text:0000000000000394 .LBE15
     /tmp/ccnrKuSV.s:658    .text:00000000000003e8 .LBB18
     /tmp/ccnrKuSV.s:669    .text:0000000000000404 .LBE18
     /tmp/ccnrKuSV.s:676    .text:000000000000040c .LBB19
     /tmp/ccnrKuSV.s:686    .text:0000000000000420 .LBE19
     /tmp/ccnrKuSV.s:804    .text:00000000000004e0 .LBB20
     /tmp/ccnrKuSV.s:807    .text:00000000000004e4 .LBE20
     /tmp/ccnrKuSV.s:815    .text:00000000000004f0 .LBB23
     /tmp/ccnrKuSV.s:849    .text:0000000000000520 .LBE23
     /tmp/ccnrKuSV.s:816    .text:00000000000004f0 .LBB21
     /tmp/ccnrKuSV.s:829    .text:0000000000000500 .LBE21
     /tmp/ccnrKuSV.s:838    .text:0000000000000510 .LBB22
     /tmp/ccnrKuSV.s:848    .text:0000000000000520 .LBE22
     /tmp/ccnrKuSV.s:411    .gcc_except_table:0000000000000000 .LLSDA23

UNDEFINED SYMBOLS
_ZN5Riscv11printStringEPKc
GAS LISTING /tmp/ccnrKuSV.s 			page 40


_ZN5Riscv12printIntegerEm
_ZN9Scheduler7getSizeEv
thread_dispatch
_Znwm
_ZN6ThreadC1EPFvPvES0_
_ZN3PCB7runningE
_ZN9Scheduler3putEP3PCB
_ZdlPv
_Unwind_Resume
__gxx_personality_v0
_ZN5Riscv10initSystemEv
mem_alloc
mem_free
HEAP_END_ADDR
HEAP_START_ADDR
