GAS LISTING /tmp/ccvbRfgQ.s 			page 1


   1              		.file	"MemoryAllocator.cpp"
   2              		.option pic
   3              		.option norelax
   4              		.text
   5              	.Ltext0:
   6              		.align	2
   7              		.globl	_ZN15MemoryAllocator10initMemoryEv
   9              	_ZN15MemoryAllocator10initMemoryEv:
  10              	.LFB21:
  11              		.file 1 "src/MemoryAllocator.cpp"
   1:src/MemoryAllocator.cpp **** //
   2:src/MemoryAllocator.cpp **** // Created by os on 4/27/22.
   3:src/MemoryAllocator.cpp **** //
   4:src/MemoryAllocator.cpp **** 
   5:src/MemoryAllocator.cpp **** #include "../h/MemoryAllocator.hpp"
   6:src/MemoryAllocator.cpp **** #include "../h/Riscv.hpp"
   7:src/MemoryAllocator.cpp **** 
   8:src/MemoryAllocator.cpp **** MemoryAllocator::BlockHeader* MemoryAllocator::headAllocated = 0;
   9:src/MemoryAllocator.cpp **** MemoryAllocator::BlockHeader* MemoryAllocator::headFree = 0;
  10:src/MemoryAllocator.cpp **** int MemoryAllocator::memoryInitiliaized = 0;
  11:src/MemoryAllocator.cpp **** 
  12:src/MemoryAllocator.cpp **** void *MemoryAllocator::mem_alloc(size_t size)
  13:src/MemoryAllocator.cpp **** {
  14:src/MemoryAllocator.cpp ****     return tryToAllocateFragment(size);
  15:src/MemoryAllocator.cpp **** }
  16:src/MemoryAllocator.cpp **** 
  17:src/MemoryAllocator.cpp **** uint64 MemoryAllocator::mem_free(void * addr)
  18:src/MemoryAllocator.cpp **** {
  19:src/MemoryAllocator.cpp ****     return tryToFreeSegment(addr);
  20:src/MemoryAllocator.cpp **** }
  21:src/MemoryAllocator.cpp **** 
  22:src/MemoryAllocator.cpp **** void MemoryAllocator::initMemory()
  23:src/MemoryAllocator.cpp **** {
  12              		.loc 1 23 1
  13              		.cfi_startproc
  14 0000 130101FF 		addi	sp,sp,-16
  15              		.cfi_def_cfa_offset 16
  16 0004 23348100 		sd	s0,8(sp)
  17              		.cfi_offset 8, -8
  18 0008 13040101 		addi	s0,sp,16
  19              		.cfi_def_cfa 8, 0
  24:src/MemoryAllocator.cpp ****     if(memoryInitiliaized == 1)
  20              		.loc 1 24 5
  21              		.loc 1 24 27 is_stmt 0
  22 000c 17070000 		lw	a4,.LANCHOR0
  22      03270700 
  23              		.loc 1 24 5
  24 0014 93071000 		li	a5,1
  25 0018 6302F704 		beq	a4,a5,.L1
  25:src/MemoryAllocator.cpp ****         return;
  26:src/MemoryAllocator.cpp ****     memoryInitiliaized = 1;
  26              		.loc 1 26 5 is_stmt 1
  27              		.loc 1 26 24 is_stmt 0
  28 001c 97070000 		lla	a5,.LANCHOR0
  28      93870700 
  29 0024 13071000 		li	a4,1
  30 0028 23A0E700 		sw	a4,0(a5)
GAS LISTING /tmp/ccvbRfgQ.s 			page 2


  27:src/MemoryAllocator.cpp ****     headAllocated = 0;
  31              		.loc 1 27 5 is_stmt 1
  32              		.loc 1 27 19 is_stmt 0
  33 002c 23B40700 		sd	zero,8(a5)
  28:src/MemoryAllocator.cpp ****     headFree = (BlockHeader*)HEAP_START_ADDR;
  34              		.loc 1 28 5 is_stmt 1
  35              		.loc 1 28 14 is_stmt 0
  36 0030 17070000 		la	a4,HEAP_START_ADDR
  36      03370700 
  37 0038 03370700 		ld	a4,0(a4)
  38 003c 23B8E700 		sd	a4,16(a5)
  29:src/MemoryAllocator.cpp ****     headFree->next = 0;
  39              		.loc 1 29 5 is_stmt 1
  40              		.loc 1 29 20 is_stmt 0
  41 0040 23340700 		sd	zero,8(a4)
  30:src/MemoryAllocator.cpp ****     headFree->size = (size_t)((size_t)HEAP_END_ADDR - (size_t)HEAP_START_ADDR + 1 - sizeof(BlockHea
  42              		.loc 1 30 5 is_stmt 1
  43              		.loc 1 30 53 is_stmt 0
  44 0044 97070000 		la	a5,HEAP_END_ADDR
  44      83B70700 
  45 004c 83B70700 		ld	a5,0(a5)
  46 0050 B387E740 		sub	a5,a5,a4
  47              		.loc 1 30 83
  48 0054 938717FF 		addi	a5,a5,-15
  49              		.loc 1 30 20
  50 0058 2330F700 		sd	a5,0(a4)
  51              	.L1:
  31:src/MemoryAllocator.cpp **** }
  52              		.loc 1 31 1
  53 005c 03348100 		ld	s0,8(sp)
  54              		.cfi_restore 8
  55              		.cfi_def_cfa 2, 16
  56 0060 13010101 		addi	sp,sp,16
  57              		.cfi_def_cfa_offset 0
  58 0064 67800000 		jr	ra
  59              		.cfi_endproc
  60              	.LFE21:
  62              		.align	2
  63              		.globl	_ZN15MemoryAllocator26insertNewAllocatedFragmentEPvm
  65              	_ZN15MemoryAllocator26insertNewAllocatedFragmentEPvm:
  66              	.LFB22:
  32:src/MemoryAllocator.cpp **** 
  33:src/MemoryAllocator.cpp **** void MemoryAllocator::insertNewAllocatedFragment(void *addr, size_t size)
  34:src/MemoryAllocator.cpp **** {
  67              		.loc 1 34 1 is_stmt 1
  68              		.cfi_startproc
  69              	.LVL0:
  70 0068 130101FE 		addi	sp,sp,-32
  71              		.cfi_def_cfa_offset 32
  72 006c 233C1100 		sd	ra,24(sp)
  73 0070 23388100 		sd	s0,16(sp)
  74 0074 23349100 		sd	s1,8(sp)
  75 0078 23302101 		sd	s2,0(sp)
  76              		.cfi_offset 1, -8
  77              		.cfi_offset 8, -16
  78              		.cfi_offset 9, -24
  79              		.cfi_offset 18, -32
GAS LISTING /tmp/ccvbRfgQ.s 			page 3


  80 007c 13040102 		addi	s0,sp,32
  81              		.cfi_def_cfa 8, 0
  82 0080 93040500 		mv	s1,a0
  83 0084 13890500 		mv	s2,a1
  35:src/MemoryAllocator.cpp ****     initMemory();
  84              		.loc 1 35 5
  85              		.loc 1 35 15 is_stmt 0
  86 0088 97000000 		call	_ZN15MemoryAllocator10initMemoryEv
  86      E7800000 
  87              	.LVL1:
  36:src/MemoryAllocator.cpp ****     BlockHeader* prev = 0;
  88              		.loc 1 36 5 is_stmt 1
  37:src/MemoryAllocator.cpp ****     BlockHeader* curr =  headAllocated;
  89              		.loc 1 37 5
  90              		.loc 1 37 18 is_stmt 0
  91 0090 97070000 		ld	a5,.LANCHOR0+8
  91      83B70700 
  92              	.LVL2:
  38:src/MemoryAllocator.cpp ****     BlockHeader* newAllocated = (BlockHeader*)addr;
  93              		.loc 1 38 5 is_stmt 1
  39:src/MemoryAllocator.cpp ****     newAllocated->next = 0;
  94              		.loc 1 39 5
  95              		.loc 1 39 24 is_stmt 0
  96 0098 23B40400 		sd	zero,8(s1)
  40:src/MemoryAllocator.cpp ****     newAllocated->size = size;
  97              		.loc 1 40 5 is_stmt 1
  98              		.loc 1 40 24 is_stmt 0
  99 009c 23B02401 		sd	s2,0(s1)
  36:src/MemoryAllocator.cpp ****     BlockHeader* curr =  headAllocated;
 100              		.loc 1 36 18
 101 00a0 13070000 		li	a4,0
 102              	.LVL3:
 103              	.L7:
  41:src/MemoryAllocator.cpp ****     while(curr != 0)
 104              		.loc 1 41 5 is_stmt 1
 105              		.loc 1 41 16
 106 00a4 638C0700 		beqz	a5,.L5
  42:src/MemoryAllocator.cpp ****     {
  43:src/MemoryAllocator.cpp ****         if((void*)curr > addr)
 107              		.loc 1 43 9
 108 00a8 63E8F400 		bgtu	a5,s1,.L11
  44:src/MemoryAllocator.cpp ****         {
  45:src/MemoryAllocator.cpp ****             newAllocated->next = curr;
  46:src/MemoryAllocator.cpp ****             break;
  47:src/MemoryAllocator.cpp ****         }
  48:src/MemoryAllocator.cpp ****         prev = curr;
 109              		.loc 1 48 9
 110              	.LVL4:
  49:src/MemoryAllocator.cpp ****         curr = curr->next;
 111              		.loc 1 49 9
  48:src/MemoryAllocator.cpp ****         curr = curr->next;
 112              		.loc 1 48 14 is_stmt 0
 113 00ac 13870700 		mv	a4,a5
 114              		.loc 1 49 14
 115 00b0 83B78700 		ld	a5,8(a5)
 116              	.LVL5:
  41:src/MemoryAllocator.cpp ****     {
GAS LISTING /tmp/ccvbRfgQ.s 			page 4


 117              		.loc 1 41 5
 118 00b4 6FF01FFF 		j	.L7
 119              	.L11:
  45:src/MemoryAllocator.cpp ****             break;
 120              		.loc 1 45 13 is_stmt 1
  45:src/MemoryAllocator.cpp ****             break;
 121              		.loc 1 45 32 is_stmt 0
 122 00b8 23B4F400 		sd	a5,8(s1)
  46:src/MemoryAllocator.cpp ****         }
 123              		.loc 1 46 13 is_stmt 1
 124              	.L5:
  50:src/MemoryAllocator.cpp ****     }
  51:src/MemoryAllocator.cpp **** 
  52:src/MemoryAllocator.cpp ****     if(prev == 0)
 125              		.loc 1 52 5
 126 00bc 63000702 		beqz	a4,.L12
  53:src/MemoryAllocator.cpp ****         headAllocated = newAllocated;
  54:src/MemoryAllocator.cpp ****     else
  55:src/MemoryAllocator.cpp ****         prev->next = newAllocated;
 127              		.loc 1 55 9
 128              		.loc 1 55 20 is_stmt 0
 129 00c0 23349700 		sd	s1,8(a4)
 130              	.LVL6:
 131              	.L4:
  56:src/MemoryAllocator.cpp **** }
 132              		.loc 1 56 1
 133 00c4 83308101 		ld	ra,24(sp)
 134              		.cfi_remember_state
 135              		.cfi_restore 1
 136 00c8 03340101 		ld	s0,16(sp)
 137              		.cfi_restore 8
 138              		.cfi_def_cfa 2, 32
 139 00cc 83348100 		ld	s1,8(sp)
 140              		.cfi_restore 9
 141              	.LVL7:
 142 00d0 03390100 		ld	s2,0(sp)
 143              		.cfi_restore 18
 144              	.LVL8:
 145 00d4 13010102 		addi	sp,sp,32
 146              		.cfi_def_cfa_offset 0
 147 00d8 67800000 		jr	ra
 148              	.LVL9:
 149              	.L12:
 150              		.cfi_restore_state
  53:src/MemoryAllocator.cpp ****         headAllocated = newAllocated;
 151              		.loc 1 53 9 is_stmt 1
  53:src/MemoryAllocator.cpp ****         headAllocated = newAllocated;
 152              		.loc 1 53 23 is_stmt 0
 153 00dc 97070000 		sd	s1,.LANCHOR0+8,a5
 153      23B09700 
 154              	.LVL10:
 155 00e4 6FF01FFE 		j	.L4
 156              		.cfi_endproc
 157              	.LFE22:
 159              		.align	2
 160              		.globl	_ZN15MemoryAllocator21tryToAllocateFragmentEm
 162              	_ZN15MemoryAllocator21tryToAllocateFragmentEm:
GAS LISTING /tmp/ccvbRfgQ.s 			page 5


 163              	.LFB23:
  57:src/MemoryAllocator.cpp **** 
  58:src/MemoryAllocator.cpp **** void* MemoryAllocator::tryToAllocateFragment(size_t size)
  59:src/MemoryAllocator.cpp **** {
 164              		.loc 1 59 1 is_stmt 1
 165              		.cfi_startproc
 166              	.LVL11:
 167 00e8 130101FE 		addi	sp,sp,-32
 168              		.cfi_def_cfa_offset 32
 169 00ec 233C1100 		sd	ra,24(sp)
 170 00f0 23388100 		sd	s0,16(sp)
 171 00f4 23349100 		sd	s1,8(sp)
 172 00f8 23302101 		sd	s2,0(sp)
 173              		.cfi_offset 1, -8
 174              		.cfi_offset 8, -16
 175              		.cfi_offset 9, -24
 176              		.cfi_offset 18, -32
 177 00fc 13040102 		addi	s0,sp,32
 178              		.cfi_def_cfa 8, 0
 179 0100 13090500 		mv	s2,a0
  60:src/MemoryAllocator.cpp ****     initMemory();
 180              		.loc 1 60 5
 181              		.loc 1 60 15 is_stmt 0
 182 0104 97000000 		call	_ZN15MemoryAllocator10initMemoryEv
 182      E7800000 
 183              	.LVL12:
  61:src/MemoryAllocator.cpp ****     uint64 retval = 0;
 184              		.loc 1 61 5 is_stmt 1
  62:src/MemoryAllocator.cpp ****     BlockHeader* prev = 0;
 185              		.loc 1 62 5
  63:src/MemoryAllocator.cpp ****     BlockHeader* curr = headFree;
 186              		.loc 1 63 5
 187              		.loc 1 63 18 is_stmt 0
 188 010c 97040000 		ld	s1,.LANCHOR0+16
 188      83B40400 
 189              	.LVL13:
  62:src/MemoryAllocator.cpp ****     BlockHeader* prev = 0;
 190              		.loc 1 62 18
 191 0114 13070000 		li	a4,0
 192              	.LVL14:
 193              	.L22:
  64:src/MemoryAllocator.cpp ****     while(curr != 0)
 194              		.loc 1 64 5 is_stmt 1
 195              		.loc 1 64 16
 196 0118 6388040A 		beqz	s1,.L23
 197              	.LBB2:
  65:src/MemoryAllocator.cpp ****     {
  66:src/MemoryAllocator.cpp ****         if(curr->size >= size)
 198              		.loc 1 66 9
 199              	.LBB3:
 200              		.loc 1 66 18 is_stmt 0
 201 011c 83B70400 		ld	a5,0(s1)
 202              		.loc 1 66 9
 203 0120 63F82701 		bgeu	a5,s2,.L25
 204              	.LBE3:
  67:src/MemoryAllocator.cpp ****         {
  68:src/MemoryAllocator.cpp ****             void* oldAddr = curr;
GAS LISTING /tmp/ccvbRfgQ.s 			page 6


  69:src/MemoryAllocator.cpp ****             void* newAddr = ((char*)curr + size + sizeof(BlockHeader));
  70:src/MemoryAllocator.cpp ****             if(newAddr <= HEAP_END_ADDR)
  71:src/MemoryAllocator.cpp ****             {
  72:src/MemoryAllocator.cpp ****                 uint64 size2 = curr->size - size;
  73:src/MemoryAllocator.cpp **** 
  74:src/MemoryAllocator.cpp ****                 if(size2 > sizeof(BlockHeader))
  75:src/MemoryAllocator.cpp ****                 {
  76:src/MemoryAllocator.cpp ****                     BlockHeader *newFree = (BlockHeader *) newAddr;
  77:src/MemoryAllocator.cpp ****                     newFree->next = curr->next;
  78:src/MemoryAllocator.cpp ****                     newFree->size = size2 - sizeof(BlockHeader);
  79:src/MemoryAllocator.cpp ****                     if (prev != 0)
  80:src/MemoryAllocator.cpp ****                         prev->next = newFree;
  81:src/MemoryAllocator.cpp ****                     else
  82:src/MemoryAllocator.cpp ****                         headFree = newFree;
  83:src/MemoryAllocator.cpp ****                 }
  84:src/MemoryAllocator.cpp ****                 else
  85:src/MemoryAllocator.cpp ****                 {
  86:src/MemoryAllocator.cpp ****                     if(prev != 0)
  87:src/MemoryAllocator.cpp ****                         prev->next = curr->next;
  88:src/MemoryAllocator.cpp ****                     else
  89:src/MemoryAllocator.cpp ****                         headFree = curr->next;
  90:src/MemoryAllocator.cpp ****                 }
  91:src/MemoryAllocator.cpp ****             }
  92:src/MemoryAllocator.cpp ****             else
  93:src/MemoryAllocator.cpp ****             {
  94:src/MemoryAllocator.cpp ****                 if(prev != 0)
  95:src/MemoryAllocator.cpp ****                     prev->next = 0;
  96:src/MemoryAllocator.cpp ****                 else
  97:src/MemoryAllocator.cpp ****                     headFree = 0;
  98:src/MemoryAllocator.cpp ****             }
  99:src/MemoryAllocator.cpp ****             insertNewAllocatedFragment(oldAddr, size);
 100:src/MemoryAllocator.cpp ****             uint64 oldA = (uint64)((char*)oldAddr + sizeof(BlockHeader));
 101:src/MemoryAllocator.cpp ****             retval = oldA;
 102:src/MemoryAllocator.cpp ****             break;
 103:src/MemoryAllocator.cpp ****         }
 104:src/MemoryAllocator.cpp ****         prev = curr;
 205              		.loc 1 104 9 is_stmt 1
 206              	.LVL15:
 105:src/MemoryAllocator.cpp ****         curr = curr->next;
 207              		.loc 1 105 9
 104:src/MemoryAllocator.cpp ****         curr = curr->next;
 208              		.loc 1 104 14 is_stmt 0
 209 0124 13870400 		mv	a4,s1
 210              		.loc 1 105 14
 211 0128 83B48400 		ld	s1,8(s1)
 212              	.LVL16:
 213              	.LBE2:
  64:src/MemoryAllocator.cpp ****     {
 214              		.loc 1 64 5
 215 012c 6FF0DFFE 		j	.L22
 216              	.L25:
 217              	.LBB11:
 218              	.LBB10:
 219              	.LBB4:
  68:src/MemoryAllocator.cpp ****             void* newAddr = ((char*)curr + size + sizeof(BlockHeader));
 220              		.loc 1 68 13 is_stmt 1
 221              	.LVL17:
GAS LISTING /tmp/ccvbRfgQ.s 			page 7


  69:src/MemoryAllocator.cpp ****             if(newAddr <= HEAP_END_ADDR)
 222              		.loc 1 69 13
  69:src/MemoryAllocator.cpp ****             if(newAddr <= HEAP_END_ADDR)
 223              		.loc 1 69 49 is_stmt 0
 224 0130 93060901 		addi	a3,s2,16
  69:src/MemoryAllocator.cpp ****             if(newAddr <= HEAP_END_ADDR)
 225              		.loc 1 69 19
 226 0134 B386D400 		add	a3,s1,a3
 227              	.LVL18:
  70:src/MemoryAllocator.cpp ****             {
 228              		.loc 1 70 13 is_stmt 1
 229              	.LBB5:
  70:src/MemoryAllocator.cpp ****             {
 230              		.loc 1 70 24 is_stmt 0
 231 0138 17060000 		la	a2,HEAP_END_ADDR
 231      03360600 
 232 0140 03360600 		ld	a2,0(a2)
  70:src/MemoryAllocator.cpp ****             {
 233              		.loc 1 70 13
 234 0144 636CD604 		bltu	a2,a3,.L16
 235              	.LBB6:
  72:src/MemoryAllocator.cpp **** 
 236              		.loc 1 72 17 is_stmt 1
  72:src/MemoryAllocator.cpp **** 
 237              		.loc 1 72 24 is_stmt 0
 238 0148 B3872741 		sub	a5,a5,s2
 239              	.LVL19:
  74:src/MemoryAllocator.cpp ****                 {
 240              		.loc 1 74 17 is_stmt 1
 241              	.LBB7:
 242 014c 13060001 		li	a2,16
 243 0150 6376F602 		bleu	a5,a2,.L17
 244              	.LBB8:
  76:src/MemoryAllocator.cpp ****                     newFree->next = curr->next;
 245              		.loc 1 76 21
 246              	.LVL20:
  77:src/MemoryAllocator.cpp ****                     newFree->size = size2 - sizeof(BlockHeader);
 247              		.loc 1 77 21
  77:src/MemoryAllocator.cpp ****                     newFree->size = size2 - sizeof(BlockHeader);
 248              		.loc 1 77 43 is_stmt 0
 249 0154 03B68400 		ld	a2,8(s1)
  77:src/MemoryAllocator.cpp ****                     newFree->size = size2 - sizeof(BlockHeader);
 250              		.loc 1 77 35
 251 0158 23B4C600 		sd	a2,8(a3)
  78:src/MemoryAllocator.cpp ****                     if (prev != 0)
 252              		.loc 1 78 21 is_stmt 1
  78:src/MemoryAllocator.cpp ****                     if (prev != 0)
 253              		.loc 1 78 43 is_stmt 0
 254 015c 938707FF 		addi	a5,a5,-16
 255              	.LVL21:
  78:src/MemoryAllocator.cpp ****                     if (prev != 0)
 256              		.loc 1 78 35
 257 0160 23B0F600 		sd	a5,0(a3)
  79:src/MemoryAllocator.cpp ****                         prev->next = newFree;
 258              		.loc 1 79 21 is_stmt 1
 259 0164 63060700 		beqz	a4,.L18
  80:src/MemoryAllocator.cpp ****                     else
GAS LISTING /tmp/ccvbRfgQ.s 			page 8


 260              		.loc 1 80 25
  80:src/MemoryAllocator.cpp ****                     else
 261              		.loc 1 80 36 is_stmt 0
 262 0168 2334D700 		sd	a3,8(a4)
 263 016c 6F008003 		j	.L19
 264              	.L18:
  82:src/MemoryAllocator.cpp ****                 }
 265              		.loc 1 82 25 is_stmt 1
  82:src/MemoryAllocator.cpp ****                 }
 266              		.loc 1 82 34 is_stmt 0
 267 0170 97070000 		sd	a3,.LANCHOR0+16,a5
 267      23B0D700 
 268              	.LVL22:
 269 0178 6F00C002 		j	.L19
 270              	.LVL23:
 271              	.L17:
 272              	.LBE8:
  86:src/MemoryAllocator.cpp ****                         prev->next = curr->next;
 273              		.loc 1 86 21 is_stmt 1
 274 017c 63080700 		beqz	a4,.L20
  87:src/MemoryAllocator.cpp ****                     else
 275              		.loc 1 87 25
  87:src/MemoryAllocator.cpp ****                     else
 276              		.loc 1 87 44 is_stmt 0
 277 0180 83B78400 		ld	a5,8(s1)
 278              	.LVL24:
  87:src/MemoryAllocator.cpp ****                     else
 279              		.loc 1 87 36
 280 0184 2334F700 		sd	a5,8(a4)
 281              	.LVL25:
 282 0188 6F00C001 		j	.L19
 283              	.LVL26:
 284              	.L20:
  89:src/MemoryAllocator.cpp ****                 }
 285              		.loc 1 89 25 is_stmt 1
  89:src/MemoryAllocator.cpp ****                 }
 286              		.loc 1 89 42 is_stmt 0
 287 018c 83B78400 		ld	a5,8(s1)
 288              	.LVL27:
  89:src/MemoryAllocator.cpp ****                 }
 289              		.loc 1 89 34
 290 0190 17070000 		sd	a5,.LANCHOR0+16,a4
 290      2330F700 
 291              	.LVL28:
 292 0198 6F00C000 		j	.L19
 293              	.LVL29:
 294              	.L16:
 295              	.LBE7:
 296              	.LBE6:
  94:src/MemoryAllocator.cpp ****                     prev->next = 0;
 297              		.loc 1 94 17 is_stmt 1
 298 019c 63000702 		beqz	a4,.L21
  95:src/MemoryAllocator.cpp ****                 else
 299              		.loc 1 95 21
  95:src/MemoryAllocator.cpp ****                 else
 300              		.loc 1 95 32 is_stmt 0
 301 01a0 23340700 		sd	zero,8(a4)
GAS LISTING /tmp/ccvbRfgQ.s 			page 9


 302              	.LVL30:
 303              	.L19:
 304              	.LBE5:
  99:src/MemoryAllocator.cpp ****             uint64 oldA = (uint64)((char*)oldAddr + sizeof(BlockHeader));
 305              		.loc 1 99 13 is_stmt 1
  99:src/MemoryAllocator.cpp ****             uint64 oldA = (uint64)((char*)oldAddr + sizeof(BlockHeader));
 306              		.loc 1 99 39 is_stmt 0
 307 01a4 93050900 		mv	a1,s2
 308 01a8 13850400 		mv	a0,s1
 309 01ac 97000000 		call	_ZN15MemoryAllocator26insertNewAllocatedFragmentEPvm
 309      E7800000 
 310              	.LVL31:
 100:src/MemoryAllocator.cpp ****             retval = oldA;
 311              		.loc 1 100 13 is_stmt 1
 100:src/MemoryAllocator.cpp ****             retval = oldA;
 312              		.loc 1 100 51 is_stmt 0
 313 01b4 13850401 		addi	a0,s1,16
 314              	.LVL32:
 101:src/MemoryAllocator.cpp ****             break;
 315              		.loc 1 101 13 is_stmt 1
 102:src/MemoryAllocator.cpp ****         }
 316              		.loc 1 102 13
 317 01b8 6F004001 		j	.L14
 318              	.LVL33:
 319              	.L21:
 320              	.LBB9:
  97:src/MemoryAllocator.cpp ****             }
 321              		.loc 1 97 21
  97:src/MemoryAllocator.cpp ****             }
 322              		.loc 1 97 30 is_stmt 0
 323 01bc 97070000 		sd	zero,.LANCHOR0+16,a5
 323      23B00700 
 324 01c4 6FF01FFE 		j	.L19
 325              	.LVL34:
 326              	.L23:
 327              	.LBE9:
 328              	.LBE4:
 329              	.LBE10:
 330              	.LBE11:
  61:src/MemoryAllocator.cpp ****     BlockHeader* prev = 0;
 331              		.loc 1 61 12
 332 01c8 13050000 		li	a0,0
 333              	.LVL35:
 334              	.L14:
 106:src/MemoryAllocator.cpp ****     }
 107:src/MemoryAllocator.cpp **** 
 108:src/MemoryAllocator.cpp ****     return (void*)retval;
 335              		.loc 1 108 5 is_stmt 1
 109:src/MemoryAllocator.cpp **** }
 336              		.loc 1 109 1 is_stmt 0
 337 01cc 83308101 		ld	ra,24(sp)
 338              		.cfi_restore 1
 339 01d0 03340101 		ld	s0,16(sp)
 340              		.cfi_restore 8
 341              		.cfi_def_cfa 2, 32
 342 01d4 83348100 		ld	s1,8(sp)
 343              		.cfi_restore 9
GAS LISTING /tmp/ccvbRfgQ.s 			page 10


 344              	.LVL36:
 345 01d8 03390100 		ld	s2,0(sp)
 346              		.cfi_restore 18
 347              	.LVL37:
 348 01dc 13010102 		addi	sp,sp,32
 349              		.cfi_def_cfa_offset 0
 350 01e0 67800000 		jr	ra
 351              		.cfi_endproc
 352              	.LFE23:
 354              		.align	2
 355              		.globl	_ZN15MemoryAllocator9mem_allocEm
 357              	_ZN15MemoryAllocator9mem_allocEm:
 358              	.LFB19:
  13:src/MemoryAllocator.cpp ****     return tryToAllocateFragment(size);
 359              		.loc 1 13 1 is_stmt 1
 360              		.cfi_startproc
 361              	.LVL38:
 362 01e4 130101FF 		addi	sp,sp,-16
 363              		.cfi_def_cfa_offset 16
 364 01e8 23341100 		sd	ra,8(sp)
 365 01ec 23308100 		sd	s0,0(sp)
 366              		.cfi_offset 1, -8
 367              		.cfi_offset 8, -16
 368 01f0 13040101 		addi	s0,sp,16
 369              		.cfi_def_cfa 8, 0
  14:src/MemoryAllocator.cpp **** }
 370              		.loc 1 14 5
  14:src/MemoryAllocator.cpp **** }
 371              		.loc 1 14 33 is_stmt 0
 372 01f4 97000000 		call	_ZN15MemoryAllocator21tryToAllocateFragmentEm
 372      E7800000 
 373              	.LVL39:
  15:src/MemoryAllocator.cpp **** 
 374              		.loc 1 15 1
 375 01fc 83308100 		ld	ra,8(sp)
 376              		.cfi_restore 1
 377 0200 03340100 		ld	s0,0(sp)
 378              		.cfi_restore 8
 379              		.cfi_def_cfa 2, 16
 380 0204 13010101 		addi	sp,sp,16
 381              		.cfi_def_cfa_offset 0
 382 0208 67800000 		jr	ra
 383              		.cfi_endproc
 384              	.LFE19:
 386              		.align	2
 387              		.globl	_ZN15MemoryAllocator20insertNewFreeSegmentEPvm
 389              	_ZN15MemoryAllocator20insertNewFreeSegmentEPvm:
 390              	.LFB24:
 110:src/MemoryAllocator.cpp **** 
 111:src/MemoryAllocator.cpp **** void MemoryAllocator::insertNewFreeSegment(void* addr, size_t size)
 112:src/MemoryAllocator.cpp **** {
 391              		.loc 1 112 1 is_stmt 1
 392              		.cfi_startproc
 393              	.LVL40:
 394 020c 130101FE 		addi	sp,sp,-32
 395              		.cfi_def_cfa_offset 32
 396 0210 233C1100 		sd	ra,24(sp)
GAS LISTING /tmp/ccvbRfgQ.s 			page 11


 397 0214 23388100 		sd	s0,16(sp)
 398 0218 23349100 		sd	s1,8(sp)
 399 021c 23302101 		sd	s2,0(sp)
 400              		.cfi_offset 1, -8
 401              		.cfi_offset 8, -16
 402              		.cfi_offset 9, -24
 403              		.cfi_offset 18, -32
 404 0220 13040102 		addi	s0,sp,32
 405              		.cfi_def_cfa 8, 0
 406 0224 93040500 		mv	s1,a0
 407 0228 13890500 		mv	s2,a1
 113:src/MemoryAllocator.cpp ****     initMemory();
 408              		.loc 1 113 5
 409              		.loc 1 113 15 is_stmt 0
 410 022c 97000000 		call	_ZN15MemoryAllocator10initMemoryEv
 410      E7800000 
 411              	.LVL41:
 114:src/MemoryAllocator.cpp ****     BlockHeader* prev = 0;
 412              		.loc 1 114 5 is_stmt 1
 115:src/MemoryAllocator.cpp ****     BlockHeader* curr = headFree;
 413              		.loc 1 115 5
 414              		.loc 1 115 18 is_stmt 0
 415 0234 97070000 		ld	a5,.LANCHOR0+16
 415      83B70700 
 416              	.LVL42:
 116:src/MemoryAllocator.cpp ****     BlockHeader* newSegment = (BlockHeader*)addr;
 417              		.loc 1 116 5 is_stmt 1
 117:src/MemoryAllocator.cpp ****     newSegment->size = size;
 418              		.loc 1 117 5
 419              		.loc 1 117 22 is_stmt 0
 420 023c 23B02401 		sd	s2,0(s1)
 118:src/MemoryAllocator.cpp ****     newSegment->next = 0;
 421              		.loc 1 118 5 is_stmt 1
 422              		.loc 1 118 22 is_stmt 0
 423 0240 23B40400 		sd	zero,8(s1)
 114:src/MemoryAllocator.cpp ****     BlockHeader* curr = headFree;
 424              		.loc 1 114 18
 425 0244 13070000 		li	a4,0
 426              	.LVL43:
 427              	.L31:
 119:src/MemoryAllocator.cpp ****     while(curr != 0)
 428              		.loc 1 119 5 is_stmt 1
 429              		.loc 1 119 16
 430 0248 638C0700 		beqz	a5,.L29
 120:src/MemoryAllocator.cpp ****     {
 121:src/MemoryAllocator.cpp ****         if((void*)curr > addr)
 431              		.loc 1 121 9
 432 024c 63E8F400 		bgtu	a5,s1,.L37
 122:src/MemoryAllocator.cpp ****         {
 123:src/MemoryAllocator.cpp ****             newSegment->next = curr;
 124:src/MemoryAllocator.cpp ****             break;
 125:src/MemoryAllocator.cpp ****         }
 126:src/MemoryAllocator.cpp **** 
 127:src/MemoryAllocator.cpp ****         prev = curr;
 433              		.loc 1 127 9
 434              	.LVL44:
 128:src/MemoryAllocator.cpp ****         curr = curr->next;
GAS LISTING /tmp/ccvbRfgQ.s 			page 12


 435              		.loc 1 128 9
 127:src/MemoryAllocator.cpp ****         curr = curr->next;
 436              		.loc 1 127 14 is_stmt 0
 437 0250 13870700 		mv	a4,a5
 438              		.loc 1 128 14
 439 0254 83B78700 		ld	a5,8(a5)
 440              	.LVL45:
 119:src/MemoryAllocator.cpp ****     {
 441              		.loc 1 119 5
 442 0258 6FF01FFF 		j	.L31
 443              	.L37:
 123:src/MemoryAllocator.cpp ****             break;
 444              		.loc 1 123 13 is_stmt 1
 123:src/MemoryAllocator.cpp ****             break;
 445              		.loc 1 123 30 is_stmt 0
 446 025c 23B4F400 		sd	a5,8(s1)
 124:src/MemoryAllocator.cpp ****         }
 447              		.loc 1 124 13 is_stmt 1
 448              	.L29:
 129:src/MemoryAllocator.cpp ****     }
 130:src/MemoryAllocator.cpp **** 
 131:src/MemoryAllocator.cpp ****     if(prev == 0)
 449              		.loc 1 131 5
 450 0260 63060704 		beqz	a4,.L38
 132:src/MemoryAllocator.cpp ****         headFree = newSegment;
 133:src/MemoryAllocator.cpp ****     else
 134:src/MemoryAllocator.cpp ****         prev->next = newSegment;
 451              		.loc 1 134 9
 452              		.loc 1 134 20 is_stmt 0
 453 0264 23349700 		sd	s1,8(a4)
 454              	.LVL46:
 455              	.L33:
 135:src/MemoryAllocator.cpp **** 
 136:src/MemoryAllocator.cpp ****     if(newSegment->next != 0 && (char*)newSegment->next == (char*)newSegment + newSegment->size + s
 456              		.loc 1 136 5 is_stmt 1
 457              		.loc 1 136 20 is_stmt 0
 458 0268 83B78400 		ld	a5,8(s1)
 459              		.loc 1 136 5
 460 026c 638A0700 		beqz	a5,.L34
 461              		.loc 1 136 92 discriminator 1
 462 0270 03B60400 		ld	a2,0(s1)
 463              		.loc 1 136 97 discriminator 1
 464 0274 93060601 		addi	a3,a2,16
 465 0278 B386D400 		add	a3,s1,a3
 466              		.loc 1 136 30 discriminator 1
 467 027c 638ED702 		beq	a5,a3,.L39
 468              	.L34:
 137:src/MemoryAllocator.cpp ****     {
 138:src/MemoryAllocator.cpp ****         newSegment->size += newSegment->next->size + sizeof(BlockHeader);
 139:src/MemoryAllocator.cpp ****         newSegment->next = newSegment->next->next;
 140:src/MemoryAllocator.cpp ****     }
 141:src/MemoryAllocator.cpp **** 
 142:src/MemoryAllocator.cpp ****     if(prev != 0 && (char*)newSegment == (char*)prev + prev->size + sizeof(BlockHeader))
 469              		.loc 1 142 5 is_stmt 1
 470 0280 630A0700 		beqz	a4,.L28
 471              		.loc 1 142 62 is_stmt 0 discriminator 1
 472 0284 83360700 		ld	a3,0(a4)
GAS LISTING /tmp/ccvbRfgQ.s 			page 13


 473              		.loc 1 142 67 discriminator 1
 474 0288 93870601 		addi	a5,a3,16
 475 028c B307F700 		add	a5,a4,a5
 476              		.loc 1 142 18 discriminator 1
 477 0290 63829704 		beq	a5,s1,.L40
 478              	.L28:
 143:src/MemoryAllocator.cpp ****     {
 144:src/MemoryAllocator.cpp ****         prev->size+=newSegment->size + sizeof(BlockHeader);
 145:src/MemoryAllocator.cpp ****         prev->next = newSegment->next;
 146:src/MemoryAllocator.cpp ****     }
 147:src/MemoryAllocator.cpp **** }
 479              		.loc 1 147 1
 480 0294 83308101 		ld	ra,24(sp)
 481              		.cfi_remember_state
 482              		.cfi_restore 1
 483 0298 03340101 		ld	s0,16(sp)
 484              		.cfi_restore 8
 485              		.cfi_def_cfa 2, 32
 486 029c 83348100 		ld	s1,8(sp)
 487              		.cfi_restore 9
 488              	.LVL47:
 489 02a0 03390100 		ld	s2,0(sp)
 490              		.cfi_restore 18
 491              	.LVL48:
 492 02a4 13010102 		addi	sp,sp,32
 493              		.cfi_def_cfa_offset 0
 494 02a8 67800000 		jr	ra
 495              	.LVL49:
 496              	.L38:
 497              		.cfi_restore_state
 132:src/MemoryAllocator.cpp ****     else
 498              		.loc 1 132 9 is_stmt 1
 132:src/MemoryAllocator.cpp ****     else
 499              		.loc 1 132 18 is_stmt 0
 500 02ac 97070000 		sd	s1,.LANCHOR0+16,a5
 500      23B09700 
 501              	.LVL50:
 502 02b4 6FF05FFB 		j	.L33
 503              	.L39:
 138:src/MemoryAllocator.cpp ****         newSegment->next = newSegment->next->next;
 504              		.loc 1 138 9 is_stmt 1
 138:src/MemoryAllocator.cpp ****         newSegment->next = newSegment->next->next;
 505              		.loc 1 138 47 is_stmt 0
 506 02b8 83B60700 		ld	a3,0(a5)
 138:src/MemoryAllocator.cpp ****         newSegment->next = newSegment->next->next;
 507              		.loc 1 138 26
 508 02bc 3306D600 		add	a2,a2,a3
 509 02c0 13060601 		addi	a2,a2,16
 510 02c4 23B0C400 		sd	a2,0(s1)
 139:src/MemoryAllocator.cpp ****     }
 511              		.loc 1 139 9 is_stmt 1
 139:src/MemoryAllocator.cpp ****     }
 512              		.loc 1 139 46 is_stmt 0
 513 02c8 83B78700 		ld	a5,8(a5)
 139:src/MemoryAllocator.cpp ****     }
 514              		.loc 1 139 26
 515 02cc 23B4F400 		sd	a5,8(s1)
GAS LISTING /tmp/ccvbRfgQ.s 			page 14


 516 02d0 6FF01FFB 		j	.L34
 517              	.L40:
 144:src/MemoryAllocator.cpp ****         prev->next = newSegment->next;
 518              		.loc 1 144 9 is_stmt 1
 144:src/MemoryAllocator.cpp ****         prev->next = newSegment->next;
 519              		.loc 1 144 33 is_stmt 0
 520 02d4 83B70400 		ld	a5,0(s1)
 144:src/MemoryAllocator.cpp ****         prev->next = newSegment->next;
 521              		.loc 1 144 19
 522 02d8 B386F600 		add	a3,a3,a5
 523 02dc 93860601 		addi	a3,a3,16
 524 02e0 2330D700 		sd	a3,0(a4)
 145:src/MemoryAllocator.cpp ****     }
 525              		.loc 1 145 9 is_stmt 1
 145:src/MemoryAllocator.cpp ****     }
 526              		.loc 1 145 34 is_stmt 0
 527 02e4 83B78400 		ld	a5,8(s1)
 145:src/MemoryAllocator.cpp ****     }
 528              		.loc 1 145 20
 529 02e8 2334F700 		sd	a5,8(a4)
 530              		.loc 1 147 1
 531 02ec 6FF09FFA 		j	.L28
 532              		.cfi_endproc
 533              	.LFE24:
 535              		.align	2
 536              		.globl	_ZN15MemoryAllocator16tryToFreeSegmentEPv
 538              	_ZN15MemoryAllocator16tryToFreeSegmentEPv:
 539              	.LFB25:
 148:src/MemoryAllocator.cpp **** 
 149:src/MemoryAllocator.cpp **** uint64 MemoryAllocator::tryToFreeSegment(void* addr)
 150:src/MemoryAllocator.cpp **** {
 540              		.loc 1 150 1 is_stmt 1
 541              		.cfi_startproc
 542              	.LVL51:
 543 02f0 130101FE 		addi	sp,sp,-32
 544              		.cfi_def_cfa_offset 32
 545 02f4 233C1100 		sd	ra,24(sp)
 546 02f8 23388100 		sd	s0,16(sp)
 547 02fc 23349100 		sd	s1,8(sp)
 548 0300 23302101 		sd	s2,0(sp)
 549              		.cfi_offset 1, -8
 550              		.cfi_offset 8, -16
 551              		.cfi_offset 9, -24
 552              		.cfi_offset 18, -32
 553 0304 13040102 		addi	s0,sp,32
 554              		.cfi_def_cfa 8, 0
 555 0308 13090500 		mv	s2,a0
 151:src/MemoryAllocator.cpp ****     initMemory();
 556              		.loc 1 151 5
 557              		.loc 1 151 15 is_stmt 0
 558 030c 97000000 		call	_ZN15MemoryAllocator10initMemoryEv
 558      E7800000 
 559              	.LVL52:
 152:src/MemoryAllocator.cpp ****     BlockHeader* prev = 0;
 560              		.loc 1 152 5 is_stmt 1
 153:src/MemoryAllocator.cpp ****     BlockHeader* curr = headAllocated;
 561              		.loc 1 153 5
GAS LISTING /tmp/ccvbRfgQ.s 			page 15


 562              		.loc 1 153 18 is_stmt 0
 563 0314 97040000 		ld	s1,.LANCHOR0+8
 563      83B40400 
 564              	.LVL53:
 152:src/MemoryAllocator.cpp ****     BlockHeader* prev = 0;
 565              		.loc 1 152 18
 566 031c 13070000 		li	a4,0
 567              	.LVL54:
 568              	.L46:
 154:src/MemoryAllocator.cpp ****     while(curr != 0)
 569              		.loc 1 154 5 is_stmt 1
 570              		.loc 1 154 16
 571 0320 638A0402 		beqz	s1,.L42
 155:src/MemoryAllocator.cpp ****     {
 156:src/MemoryAllocator.cpp ****         if(addr == (void*)((char*)curr + sizeof(BlockHeader)))
 572              		.loc 1 156 9
 573              		.loc 1 156 20 is_stmt 0
 574 0324 93870401 		addi	a5,s1,16
 575              		.loc 1 156 9
 576 0328 63882701 		beq	a5,s2,.L50
 157:src/MemoryAllocator.cpp ****         {
 158:src/MemoryAllocator.cpp ****             if(prev != 0)
 159:src/MemoryAllocator.cpp ****                 prev->next = curr->next;
 160:src/MemoryAllocator.cpp ****             else
 161:src/MemoryAllocator.cpp ****                 headAllocated = curr->next;
 162:src/MemoryAllocator.cpp **** 
 163:src/MemoryAllocator.cpp ****             insertNewFreeSegment((void*)curr, curr->size);
 164:src/MemoryAllocator.cpp **** 
 165:src/MemoryAllocator.cpp ****             break;
 166:src/MemoryAllocator.cpp ****         }
 167:src/MemoryAllocator.cpp **** 
 168:src/MemoryAllocator.cpp ****         prev = curr;
 577              		.loc 1 168 9 is_stmt 1
 578              	.LVL55:
 169:src/MemoryAllocator.cpp ****         curr = curr->next;
 579              		.loc 1 169 9
 168:src/MemoryAllocator.cpp ****         curr = curr->next;
 580              		.loc 1 168 14 is_stmt 0
 581 032c 13870400 		mv	a4,s1
 582              		.loc 1 169 14
 583 0330 83B48400 		ld	s1,8(s1)
 584              	.LVL56:
 154:src/MemoryAllocator.cpp ****     {
 585              		.loc 1 154 5
 586 0334 6FF0DFFE 		j	.L46
 587              	.L50:
 158:src/MemoryAllocator.cpp ****                 prev->next = curr->next;
 588              		.loc 1 158 13 is_stmt 1
 589 0338 630E0702 		beqz	a4,.L44
 159:src/MemoryAllocator.cpp ****             else
 590              		.loc 1 159 17
 159:src/MemoryAllocator.cpp ****             else
 591              		.loc 1 159 36 is_stmt 0
 592 033c 83B78400 		ld	a5,8(s1)
 159:src/MemoryAllocator.cpp ****             else
 593              		.loc 1 159 28
 594 0340 2334F700 		sd	a5,8(a4)
GAS LISTING /tmp/ccvbRfgQ.s 			page 16


 595              	.LVL57:
 596              	.L45:
 163:src/MemoryAllocator.cpp **** 
 597              		.loc 1 163 13 is_stmt 1
 163:src/MemoryAllocator.cpp **** 
 598              		.loc 1 163 33 is_stmt 0
 599 0344 83B50400 		ld	a1,0(s1)
 600 0348 13850400 		mv	a0,s1
 601 034c 97000000 		call	_ZN15MemoryAllocator20insertNewFreeSegmentEPvm
 601      E7800000 
 602              	.LVL58:
 165:src/MemoryAllocator.cpp ****         }
 603              		.loc 1 165 13 is_stmt 1
 604              	.L42:
 170:src/MemoryAllocator.cpp ****     }
 171:src/MemoryAllocator.cpp **** 
 172:src/MemoryAllocator.cpp ****     if(curr != 0)
 605              		.loc 1 172 5
 606 0354 63880402 		beqz	s1,.L48
 173:src/MemoryAllocator.cpp ****         return 0;
 607              		.loc 1 173 16 is_stmt 0
 608 0358 13050000 		li	a0,0
 609              	.L41:
 174:src/MemoryAllocator.cpp ****     else
 175:src/MemoryAllocator.cpp ****         return 1;
 176:src/MemoryAllocator.cpp **** }
 610              		.loc 1 176 1
 611 035c 83308101 		ld	ra,24(sp)
 612              		.cfi_remember_state
 613              		.cfi_restore 1
 614 0360 03340101 		ld	s0,16(sp)
 615              		.cfi_restore 8
 616              		.cfi_def_cfa 2, 32
 617 0364 83348100 		ld	s1,8(sp)
 618              		.cfi_restore 9
 619              	.LVL59:
 620 0368 03390100 		ld	s2,0(sp)
 621              		.cfi_restore 18
 622              	.LVL60:
 623 036c 13010102 		addi	sp,sp,32
 624              		.cfi_def_cfa_offset 0
 625 0370 67800000 		jr	ra
 626              	.LVL61:
 627              	.L44:
 628              		.cfi_restore_state
 161:src/MemoryAllocator.cpp **** 
 629              		.loc 1 161 17 is_stmt 1
 161:src/MemoryAllocator.cpp **** 
 630              		.loc 1 161 39 is_stmt 0
 631 0374 83B78400 		ld	a5,8(s1)
 161:src/MemoryAllocator.cpp **** 
 632              		.loc 1 161 31
 633 0378 17070000 		sd	a5,.LANCHOR0+8,a4
 633      2330F700 
 634              	.LVL62:
 635 0380 6FF05FFC 		j	.L45
 636              	.L48:
GAS LISTING /tmp/ccvbRfgQ.s 			page 17


 175:src/MemoryAllocator.cpp **** }
 637              		.loc 1 175 16
 638 0384 13051000 		li	a0,1
 639 0388 6FF05FFD 		j	.L41
 640              		.cfi_endproc
 641              	.LFE25:
 643              		.align	2
 644              		.globl	_ZN15MemoryAllocator8mem_freeEPv
 646              	_ZN15MemoryAllocator8mem_freeEPv:
 647              	.LFB20:
  18:src/MemoryAllocator.cpp ****     return tryToFreeSegment(addr);
 648              		.loc 1 18 1 is_stmt 1
 649              		.cfi_startproc
 650              	.LVL63:
 651 038c 130101FF 		addi	sp,sp,-16
 652              		.cfi_def_cfa_offset 16
 653 0390 23341100 		sd	ra,8(sp)
 654 0394 23308100 		sd	s0,0(sp)
 655              		.cfi_offset 1, -8
 656              		.cfi_offset 8, -16
 657 0398 13040101 		addi	s0,sp,16
 658              		.cfi_def_cfa 8, 0
  19:src/MemoryAllocator.cpp **** }
 659              		.loc 1 19 5
  19:src/MemoryAllocator.cpp **** }
 660              		.loc 1 19 28 is_stmt 0
 661 039c 97000000 		call	_ZN15MemoryAllocator16tryToFreeSegmentEPv
 661      E7800000 
 662              	.LVL64:
  20:src/MemoryAllocator.cpp **** 
 663              		.loc 1 20 1
 664 03a4 83308100 		ld	ra,8(sp)
 665              		.cfi_restore 1
 666 03a8 03340100 		ld	s0,0(sp)
 667              		.cfi_restore 8
 668              		.cfi_def_cfa 2, 16
 669 03ac 13010101 		addi	sp,sp,16
 670              		.cfi_def_cfa_offset 0
 671 03b0 67800000 		jr	ra
 672              		.cfi_endproc
 673              	.LFE20:
 675              		.align	2
 676              		.globl	_Z7kmallocm
 678              	_Z7kmallocm:
 679              	.LFB28:
 177:src/MemoryAllocator.cpp **** 
 178:src/MemoryAllocator.cpp **** void MemoryAllocator::memAllocHandler()
 179:src/MemoryAllocator.cpp **** {
 180:src/MemoryAllocator.cpp ****     size_t size;
 181:src/MemoryAllocator.cpp ****     __asm__ volatile("mv %0, a1" : "=r"(size));
 182:src/MemoryAllocator.cpp ****     size*=MEM_BLOCK_SIZE;
 183:src/MemoryAllocator.cpp ****     void* allocatedAddr = kmalloc(size);
 184:src/MemoryAllocator.cpp ****     __asm__ volatile("mv a0,%0" : : "r"((uint64)allocatedAddr));
 185:src/MemoryAllocator.cpp ****     Riscv::w_a0_sscratch();
 186:src/MemoryAllocator.cpp **** }
 187:src/MemoryAllocator.cpp **** 
 188:src/MemoryAllocator.cpp **** void MemoryAllocator::memFreeHandler()
GAS LISTING /tmp/ccvbRfgQ.s 			page 18


 189:src/MemoryAllocator.cpp **** {
 190:src/MemoryAllocator.cpp ****     uint64 addr = 0;
 191:src/MemoryAllocator.cpp ****     __asm__ volatile("mv %0, a1" : "=r"(addr));
 192:src/MemoryAllocator.cpp ****     uint64 retval = kfree((void*)addr);
 193:src/MemoryAllocator.cpp ****     __asm__ volatile("mv a0,%0" : :"r"(retval));
 194:src/MemoryAllocator.cpp ****     Riscv::w_a0_sscratch();
 195:src/MemoryAllocator.cpp **** }
 196:src/MemoryAllocator.cpp **** 
 197:src/MemoryAllocator.cpp **** void* kmalloc(size_t size)
 198:src/MemoryAllocator.cpp **** {
 680              		.loc 1 198 1 is_stmt 1
 681              		.cfi_startproc
 682              	.LVL65:
 683 03b4 130101FF 		addi	sp,sp,-16
 684              		.cfi_def_cfa_offset 16
 685 03b8 23341100 		sd	ra,8(sp)
 686 03bc 23308100 		sd	s0,0(sp)
 687              		.cfi_offset 1, -8
 688              		.cfi_offset 8, -16
 689 03c0 13040101 		addi	s0,sp,16
 690              		.cfi_def_cfa 8, 0
 199:src/MemoryAllocator.cpp ****     return MemoryAllocator::mem_alloc(size);
 691              		.loc 1 199 5
 692              		.loc 1 199 38 is_stmt 0
 693 03c4 97000000 		call	_ZN15MemoryAllocator9mem_allocEm
 693      E7800000 
 694              	.LVL66:
 200:src/MemoryAllocator.cpp **** }
 695              		.loc 1 200 1
 696 03cc 83308100 		ld	ra,8(sp)
 697              		.cfi_restore 1
 698 03d0 03340100 		ld	s0,0(sp)
 699              		.cfi_restore 8
 700              		.cfi_def_cfa 2, 16
 701 03d4 13010101 		addi	sp,sp,16
 702              		.cfi_def_cfa_offset 0
 703 03d8 67800000 		jr	ra
 704              		.cfi_endproc
 705              	.LFE28:
 707              		.align	2
 708              		.globl	_ZN15MemoryAllocator15memAllocHandlerEv
 710              	_ZN15MemoryAllocator15memAllocHandlerEv:
 711              	.LFB26:
 179:src/MemoryAllocator.cpp ****     size_t size;
 712              		.loc 1 179 1 is_stmt 1
 713              		.cfi_startproc
 714 03dc 130101FF 		addi	sp,sp,-16
 715              		.cfi_def_cfa_offset 16
 716 03e0 23341100 		sd	ra,8(sp)
 717 03e4 23308100 		sd	s0,0(sp)
 718              		.cfi_offset 1, -8
 719              		.cfi_offset 8, -16
 720 03e8 13040101 		addi	s0,sp,16
 721              		.cfi_def_cfa 8, 0
 180:src/MemoryAllocator.cpp ****     __asm__ volatile("mv %0, a1" : "=r"(size));
 722              		.loc 1 180 5
 181:src/MemoryAllocator.cpp ****     size*=MEM_BLOCK_SIZE;
GAS LISTING /tmp/ccvbRfgQ.s 			page 19


 723              		.loc 1 181 5
 181:src/MemoryAllocator.cpp ****     size*=MEM_BLOCK_SIZE;
 724              		.loc 1 181 47 is_stmt 0
 725              	#APP
 726              	# 181 "src/MemoryAllocator.cpp" 1
 727              		mv a0, a1
 728              	# 0 "" 2
 729              	.LVL67:
 182:src/MemoryAllocator.cpp ****     void* allocatedAddr = kmalloc(size);
 730              		.loc 1 182 5 is_stmt 1
 183:src/MemoryAllocator.cpp ****     __asm__ volatile("mv a0,%0" : : "r"((uint64)allocatedAddr));
 731              		.loc 1 183 5
 183:src/MemoryAllocator.cpp ****     __asm__ volatile("mv a0,%0" : : "r"((uint64)allocatedAddr));
 732              		.loc 1 183 34 is_stmt 0
 733              	#NO_APP
 734 03f0 13156500 		slli	a0,a0,6
 735              	.LVL68:
 736 03f4 97000000 		call	_Z7kmallocm
 736      E7800000 
 737              	.LVL69:
 184:src/MemoryAllocator.cpp ****     Riscv::w_a0_sscratch();
 738              		.loc 1 184 5 is_stmt 1
 184:src/MemoryAllocator.cpp ****     Riscv::w_a0_sscratch();
 739              		.loc 1 184 64 is_stmt 0
 740              	#APP
 741              	# 184 "src/MemoryAllocator.cpp" 1
 185:src/MemoryAllocator.cpp **** }
 742              		mv a0,a0
 743              	# 0 "" 2
 744              		.loc 1 185 5 is_stmt 1
 185:src/MemoryAllocator.cpp **** }
 745              		.loc 1 185 25 is_stmt 0
 746              	#NO_APP
 747 0400 97000000 		call	_ZN5Riscv13w_a0_sscratchEv@plt
 747      E7800000 
 748              	.LVL70:
 186:src/MemoryAllocator.cpp **** 
 749              		.loc 1 186 1
 750 0408 83308100 		ld	ra,8(sp)
 751              		.cfi_restore 1
 752 040c 03340100 		ld	s0,0(sp)
 753              		.cfi_restore 8
 754              		.cfi_def_cfa 2, 16
 755 0410 13010101 		addi	sp,sp,16
 756              		.cfi_def_cfa_offset 0
 757 0414 67800000 		jr	ra
 758              		.cfi_endproc
 759              	.LFE26:
 761              		.align	2
 762              		.globl	_Z5kfreePv
 764              	_Z5kfreePv:
 765              	.LFB29:
 201:src/MemoryAllocator.cpp **** 
 202:src/MemoryAllocator.cpp **** uint64 kfree(void* p)
 203:src/MemoryAllocator.cpp **** {
 766              		.loc 1 203 1 is_stmt 1
 767              		.cfi_startproc
GAS LISTING /tmp/ccvbRfgQ.s 			page 20


 768              	.LVL71:
 769 0418 130101FF 		addi	sp,sp,-16
 770              		.cfi_def_cfa_offset 16
 771 041c 23341100 		sd	ra,8(sp)
 772 0420 23308100 		sd	s0,0(sp)
 773              		.cfi_offset 1, -8
 774              		.cfi_offset 8, -16
 775 0424 13040101 		addi	s0,sp,16
 776              		.cfi_def_cfa 8, 0
 204:src/MemoryAllocator.cpp ****     return MemoryAllocator::mem_free(p);
 777              		.loc 1 204 5
 778              		.loc 1 204 37 is_stmt 0
 779 0428 97000000 		call	_ZN15MemoryAllocator8mem_freeEPv
 779      E7800000 
 780              	.LVL72:
 205:src/MemoryAllocator.cpp **** }...
 781              		.loc 1 205 1
 782 0430 83308100 		ld	ra,8(sp)
 783              		.cfi_restore 1
 784 0434 03340100 		ld	s0,0(sp)
 785              		.cfi_restore 8
 786              		.cfi_def_cfa 2, 16
 787 0438 13010101 		addi	sp,sp,16
 788              		.cfi_def_cfa_offset 0
 789 043c 67800000 		jr	ra
 790              		.cfi_endproc
 791              	.LFE29:
 793              		.align	2
 794              		.globl	_ZN15MemoryAllocator14memFreeHandlerEv
 796              	_ZN15MemoryAllocator14memFreeHandlerEv:
 797              	.LFB27:
 189:src/MemoryAllocator.cpp **** {
 798              		.loc 1 189 1 is_stmt 1
 799              		.cfi_startproc
 800 0440 130101FF 		addi	sp,sp,-16
 801              		.cfi_def_cfa_offset 16
 802 0444 23341100 		sd	ra,8(sp)
 803 0448 23308100 		sd	s0,0(sp)
 804              		.cfi_offset 1, -8
 805              		.cfi_offset 8, -16
 806 044c 13040101 		addi	s0,sp,16
 807              		.cfi_def_cfa 8, 0
 190:src/MemoryAllocator.cpp ****     uint64 addr = 0;
 808              		.loc 1 190 5
 809              	.LVL73:
 191:src/MemoryAllocator.cpp ****     __asm__ volatile("mv %0, a1" : "=r"(addr));
 810              		.loc 1 191 5
 191:src/MemoryAllocator.cpp ****     __asm__ volatile("mv %0, a1" : "=r"(addr));
 811              		.loc 1 191 47 is_stmt 0
 812              	#APP
 813              	# 191 "src/MemoryAllocator.cpp" 1
 814              		mv a0, a1
 815              	# 0 "" 2
 816              	.LVL74:
 192:src/MemoryAllocator.cpp ****     uint64 retval = kfree((void*)addr);
 817              		.loc 1 192 5 is_stmt 1
 192:src/MemoryAllocator.cpp ****     uint64 retval = kfree((void*)addr);
GAS LISTING /tmp/ccvbRfgQ.s 			page 21


 818              		.loc 1 192 26 is_stmt 0
 819              	#NO_APP
 820 0454 97000000 		call	_Z5kfreePv
 820      E7800000 
 821              	.LVL75:
 193:src/MemoryAllocator.cpp ****     __asm__ volatile("mv a0,%0" : :"r"(retval));
 822              		.loc 1 193 5 is_stmt 1
 193:src/MemoryAllocator.cpp ****     __asm__ volatile("mv a0,%0" : :"r"(retval));
 823              		.loc 1 193 48 is_stmt 0
 824              	#APP
 825              	# 193 "src/MemoryAllocator.cpp" 1
 194:src/MemoryAllocator.cpp ****     Riscv::w_a0_sscratch();
 826              		mv a0,a0
 827              	# 0 "" 2
 828              		.loc 1 194 5 is_stmt 1
 194:src/MemoryAllocator.cpp ****     Riscv::w_a0_sscratch();
 829              		.loc 1 194 25 is_stmt 0
 830              	#NO_APP
 831 0460 97000000 		call	_ZN5Riscv13w_a0_sscratchEv@plt
 831      E7800000 
 832              	.LVL76:
 195:src/MemoryAllocator.cpp **** }
 833              		.loc 1 195 1
 834 0468 83308100 		ld	ra,8(sp)
 835              		.cfi_restore 1
 836 046c 03340100 		ld	s0,0(sp)
 837              		.cfi_restore 8
 838              		.cfi_def_cfa 2, 16
 839 0470 13010101 		addi	sp,sp,16
 840              		.cfi_def_cfa_offset 0
 841 0474 67800000 		jr	ra
 842              		.cfi_endproc
 843              	.LFE27:
 845              		.globl	_ZN15MemoryAllocator18memoryInitiliaizedE
 846              		.globl	_ZN15MemoryAllocator8headFreeE
 847              		.globl	_ZN15MemoryAllocator13headAllocatedE
 848              		.bss
 849              		.align	3
 850              		.set	.LANCHOR0,. + 0
 853              	_ZN15MemoryAllocator18memoryInitiliaizedE:
 854 0000 00000000 		.zero	4
 855 0004 00000000 		.zero	4
 858              	_ZN15MemoryAllocator13headAllocatedE:
 859 0008 00000000 		.zero	8
 859      00000000 
 862              	_ZN15MemoryAllocator8headFreeE:
 863 0010 00000000 		.zero	8
 863      00000000 
 864              		.text
 865              	.Letext0:
 866              		.file 2 "src/../h/../lib/hw.h"
 867              		.file 3 "src/../h/MemoryAllocator.hpp"
 868              		.file 4 "src/../h/Riscv.hpp"
GAS LISTING /tmp/ccvbRfgQ.s 			page 22


DEFINED SYMBOLS
                            *ABS*:0000000000000000 MemoryAllocator.cpp
     /tmp/ccvbRfgQ.s:9      .text:0000000000000000 _ZN15MemoryAllocator10initMemoryEv
     /tmp/ccvbRfgQ.s:13     .text:0000000000000000 .L0 
     /tmp/ccvbRfgQ.s:14     .text:0000000000000000 .L0 
     /tmp/ccvbRfgQ.s:15     .text:0000000000000004 .L0 
     /tmp/ccvbRfgQ.s:17     .text:0000000000000008 .L0 
     /tmp/ccvbRfgQ.s:19     .text:000000000000000c .L0 
     /tmp/ccvbRfgQ.s:21     .text:000000000000000c .L0 
     /tmp/ccvbRfgQ.s:22     .text:000000000000000c .L0 
     /tmp/ccvbRfgQ.s:24     .text:0000000000000014 .L0 
     /tmp/ccvbRfgQ.s:27     .text:000000000000001c .L0 
     /tmp/ccvbRfgQ.s:28     .text:000000000000001c .L0 
     /tmp/ccvbRfgQ.s:32     .text:000000000000002c .L0 
     /tmp/ccvbRfgQ.s:33     .text:000000000000002c .L0 
     /tmp/ccvbRfgQ.s:35     .text:0000000000000030 .L0 
     /tmp/ccvbRfgQ.s:36     .text:0000000000000030 .L0 
     /tmp/ccvbRfgQ.s:40     .text:0000000000000040 .L0 
     /tmp/ccvbRfgQ.s:41     .text:0000000000000040 .L0 
     /tmp/ccvbRfgQ.s:43     .text:0000000000000044 .L0 
     /tmp/ccvbRfgQ.s:44     .text:0000000000000044 .L0 
     /tmp/ccvbRfgQ.s:48     .text:0000000000000054 .L0 
     /tmp/ccvbRfgQ.s:50     .text:0000000000000058 .L0 
     /tmp/ccvbRfgQ.s:53     .text:000000000000005c .L0 
     /tmp/ccvbRfgQ.s:54     .text:0000000000000060 .L0 
     /tmp/ccvbRfgQ.s:55     .text:0000000000000060 .L0 
     /tmp/ccvbRfgQ.s:57     .text:0000000000000064 .L0 
     /tmp/ccvbRfgQ.s:59     .text:0000000000000068 .L0 
     /tmp/ccvbRfgQ.s:65     .text:0000000000000068 _ZN15MemoryAllocator26insertNewAllocatedFragmentEPvm
     /tmp/ccvbRfgQ.s:68     .text:0000000000000068 .L0 
     /tmp/ccvbRfgQ.s:70     .text:0000000000000068 .L0 
     /tmp/ccvbRfgQ.s:71     .text:000000000000006c .L0 
     /tmp/ccvbRfgQ.s:76     .text:000000000000007c .L0 
     /tmp/ccvbRfgQ.s:77     .text:000000000000007c .L0 
     /tmp/ccvbRfgQ.s:78     .text:000000000000007c .L0 
     /tmp/ccvbRfgQ.s:79     .text:000000000000007c .L0 
     /tmp/ccvbRfgQ.s:81     .text:0000000000000080 .L0 
     /tmp/ccvbRfgQ.s:85     .text:0000000000000088 .L0 
     /tmp/ccvbRfgQ.s:86     .text:0000000000000088 .L0 
     /tmp/ccvbRfgQ.s:89     .text:0000000000000090 .L0 
     /tmp/ccvbRfgQ.s:90     .text:0000000000000090 .L0 
     /tmp/ccvbRfgQ.s:91     .text:0000000000000090 .L0 
     /tmp/ccvbRfgQ.s:94     .text:0000000000000098 .L0 
     /tmp/ccvbRfgQ.s:95     .text:0000000000000098 .L0 
     /tmp/ccvbRfgQ.s:96     .text:0000000000000098 .L0 
     /tmp/ccvbRfgQ.s:98     .text:000000000000009c .L0 
     /tmp/ccvbRfgQ.s:99     .text:000000000000009c .L0 
     /tmp/ccvbRfgQ.s:101    .text:00000000000000a0 .L0 
     /tmp/ccvbRfgQ.s:105    .text:00000000000000a4 .L0 
     /tmp/ccvbRfgQ.s:106    .text:00000000000000a4 .L0 
     /tmp/ccvbRfgQ.s:108    .text:00000000000000a8 .L0 
     /tmp/ccvbRfgQ.s:111    .text:00000000000000ac .L0 
     /tmp/ccvbRfgQ.s:112    .text:00000000000000ac .L0 
     /tmp/ccvbRfgQ.s:113    .text:00000000000000ac .L0 
     /tmp/ccvbRfgQ.s:115    .text:00000000000000b0 .L0 
     /tmp/ccvbRfgQ.s:118    .text:00000000000000b4 .L0 
     /tmp/ccvbRfgQ.s:121    .text:00000000000000b8 .L0 
GAS LISTING /tmp/ccvbRfgQ.s 			page 23


     /tmp/ccvbRfgQ.s:122    .text:00000000000000b8 .L0 
     /tmp/ccvbRfgQ.s:125    .text:00000000000000bc .L0 
     /tmp/ccvbRfgQ.s:126    .text:00000000000000bc .L0 
     /tmp/ccvbRfgQ.s:128    .text:00000000000000c0 .L0 
     /tmp/ccvbRfgQ.s:129    .text:00000000000000c0 .L0 
     /tmp/ccvbRfgQ.s:133    .text:00000000000000c4 .L0 
     /tmp/ccvbRfgQ.s:134    .text:00000000000000c8 .L0 
     /tmp/ccvbRfgQ.s:135    .text:00000000000000c8 .L0 
     /tmp/ccvbRfgQ.s:137    .text:00000000000000cc .L0 
     /tmp/ccvbRfgQ.s:138    .text:00000000000000cc .L0 
     /tmp/ccvbRfgQ.s:140    .text:00000000000000d0 .L0 
     /tmp/ccvbRfgQ.s:143    .text:00000000000000d4 .L0 
     /tmp/ccvbRfgQ.s:146    .text:00000000000000d8 .L0 
     /tmp/ccvbRfgQ.s:150    .text:00000000000000dc .L0 
     /tmp/ccvbRfgQ.s:152    .text:00000000000000dc .L0 
     /tmp/ccvbRfgQ.s:153    .text:00000000000000dc .L0 
     /tmp/ccvbRfgQ.s:156    .text:00000000000000e8 .L0 
     /tmp/ccvbRfgQ.s:162    .text:00000000000000e8 _ZN15MemoryAllocator21tryToAllocateFragmentEm
     /tmp/ccvbRfgQ.s:165    .text:00000000000000e8 .L0 
     /tmp/ccvbRfgQ.s:167    .text:00000000000000e8 .L0 
     /tmp/ccvbRfgQ.s:168    .text:00000000000000ec .L0 
     /tmp/ccvbRfgQ.s:173    .text:00000000000000fc .L0 
     /tmp/ccvbRfgQ.s:174    .text:00000000000000fc .L0 
     /tmp/ccvbRfgQ.s:175    .text:00000000000000fc .L0 
     /tmp/ccvbRfgQ.s:176    .text:00000000000000fc .L0 
     /tmp/ccvbRfgQ.s:178    .text:0000000000000100 .L0 
     /tmp/ccvbRfgQ.s:181    .text:0000000000000104 .L0 
     /tmp/ccvbRfgQ.s:182    .text:0000000000000104 .L0 
     /tmp/ccvbRfgQ.s:185    .text:000000000000010c .L0 
     /tmp/ccvbRfgQ.s:186    .text:000000000000010c .L0 
     /tmp/ccvbRfgQ.s:187    .text:000000000000010c .L0 
     /tmp/ccvbRfgQ.s:188    .text:000000000000010c .L0 
     /tmp/ccvbRfgQ.s:191    .text:0000000000000114 .L0 
     /tmp/ccvbRfgQ.s:195    .text:0000000000000118 .L0 
     /tmp/ccvbRfgQ.s:196    .text:0000000000000118 .L0 
     /tmp/ccvbRfgQ.s:200    .text:000000000000011c .L0 
     /tmp/ccvbRfgQ.s:201    .text:000000000000011c .L0 
     /tmp/ccvbRfgQ.s:203    .text:0000000000000120 .L0 
     /tmp/ccvbRfgQ.s:207    .text:0000000000000124 .L0 
     /tmp/ccvbRfgQ.s:208    .text:0000000000000124 .L0 
     /tmp/ccvbRfgQ.s:209    .text:0000000000000124 .L0 
     /tmp/ccvbRfgQ.s:211    .text:0000000000000128 .L0 
     /tmp/ccvbRfgQ.s:215    .text:000000000000012c .L0 
     /tmp/ccvbRfgQ.s:222    .text:0000000000000130 .L0 
     /tmp/ccvbRfgQ.s:223    .text:0000000000000130 .L0 
     /tmp/ccvbRfgQ.s:224    .text:0000000000000130 .L0 
     /tmp/ccvbRfgQ.s:226    .text:0000000000000134 .L0 
     /tmp/ccvbRfgQ.s:230    .text:0000000000000138 .L0 
     /tmp/ccvbRfgQ.s:231    .text:0000000000000138 .L0 
     /tmp/ccvbRfgQ.s:234    .text:0000000000000144 .L0 
     /tmp/ccvbRfgQ.s:237    .text:0000000000000148 .L0 
     /tmp/ccvbRfgQ.s:238    .text:0000000000000148 .L0 
     /tmp/ccvbRfgQ.s:242    .text:000000000000014c .L0 
     /tmp/ccvbRfgQ.s:247    .text:0000000000000154 .L0 
     /tmp/ccvbRfgQ.s:248    .text:0000000000000154 .L0 
     /tmp/ccvbRfgQ.s:249    .text:0000000000000154 .L0 
     /tmp/ccvbRfgQ.s:251    .text:0000000000000158 .L0 
GAS LISTING /tmp/ccvbRfgQ.s 			page 24


     /tmp/ccvbRfgQ.s:253    .text:000000000000015c .L0 
     /tmp/ccvbRfgQ.s:254    .text:000000000000015c .L0 
     /tmp/ccvbRfgQ.s:257    .text:0000000000000160 .L0 
     /tmp/ccvbRfgQ.s:259    .text:0000000000000164 .L0 
     /tmp/ccvbRfgQ.s:261    .text:0000000000000168 .L0 
     /tmp/ccvbRfgQ.s:262    .text:0000000000000168 .L0 
     /tmp/ccvbRfgQ.s:266    .text:0000000000000170 .L0 
     /tmp/ccvbRfgQ.s:267    .text:0000000000000170 .L0 
     /tmp/ccvbRfgQ.s:274    .text:000000000000017c .L0 
     /tmp/ccvbRfgQ.s:276    .text:0000000000000180 .L0 
     /tmp/ccvbRfgQ.s:277    .text:0000000000000180 .L0 
     /tmp/ccvbRfgQ.s:280    .text:0000000000000184 .L0 
     /tmp/ccvbRfgQ.s:286    .text:000000000000018c .L0 
     /tmp/ccvbRfgQ.s:287    .text:000000000000018c .L0 
     /tmp/ccvbRfgQ.s:290    .text:0000000000000190 .L0 
     /tmp/ccvbRfgQ.s:298    .text:000000000000019c .L0 
     /tmp/ccvbRfgQ.s:300    .text:00000000000001a0 .L0 
     /tmp/ccvbRfgQ.s:301    .text:00000000000001a0 .L0 
     /tmp/ccvbRfgQ.s:306    .text:00000000000001a4 .L0 
     /tmp/ccvbRfgQ.s:307    .text:00000000000001a4 .L0 
     /tmp/ccvbRfgQ.s:312    .text:00000000000001b4 .L0 
     /tmp/ccvbRfgQ.s:313    .text:00000000000001b4 .L0 
     /tmp/ccvbRfgQ.s:316    .text:00000000000001b8 .L0 
     /tmp/ccvbRfgQ.s:317    .text:00000000000001b8 .L0 
     /tmp/ccvbRfgQ.s:322    .text:00000000000001bc .L0 
     /tmp/ccvbRfgQ.s:323    .text:00000000000001bc .L0 
     /tmp/ccvbRfgQ.s:332    .text:00000000000001c8 .L0 
     /tmp/ccvbRfgQ.s:336    .text:00000000000001cc .L0 
     /tmp/ccvbRfgQ.s:337    .text:00000000000001cc .L0 
     /tmp/ccvbRfgQ.s:338    .text:00000000000001d0 .L0 
     /tmp/ccvbRfgQ.s:340    .text:00000000000001d4 .L0 
     /tmp/ccvbRfgQ.s:341    .text:00000000000001d4 .L0 
     /tmp/ccvbRfgQ.s:343    .text:00000000000001d8 .L0 
     /tmp/ccvbRfgQ.s:346    .text:00000000000001dc .L0 
     /tmp/ccvbRfgQ.s:349    .text:00000000000001e0 .L0 
     /tmp/ccvbRfgQ.s:351    .text:00000000000001e4 .L0 
     /tmp/ccvbRfgQ.s:357    .text:00000000000001e4 _ZN15MemoryAllocator9mem_allocEm
     /tmp/ccvbRfgQ.s:360    .text:00000000000001e4 .L0 
     /tmp/ccvbRfgQ.s:362    .text:00000000000001e4 .L0 
     /tmp/ccvbRfgQ.s:363    .text:00000000000001e8 .L0 
     /tmp/ccvbRfgQ.s:366    .text:00000000000001f0 .L0 
     /tmp/ccvbRfgQ.s:367    .text:00000000000001f0 .L0 
     /tmp/ccvbRfgQ.s:369    .text:00000000000001f4 .L0 
     /tmp/ccvbRfgQ.s:371    .text:00000000000001f4 .L0 
     /tmp/ccvbRfgQ.s:372    .text:00000000000001f4 .L0 
     /tmp/ccvbRfgQ.s:375    .text:00000000000001fc .L0 
     /tmp/ccvbRfgQ.s:376    .text:0000000000000200 .L0 
     /tmp/ccvbRfgQ.s:378    .text:0000000000000204 .L0 
     /tmp/ccvbRfgQ.s:379    .text:0000000000000204 .L0 
     /tmp/ccvbRfgQ.s:381    .text:0000000000000208 .L0 
     /tmp/ccvbRfgQ.s:383    .text:000000000000020c .L0 
     /tmp/ccvbRfgQ.s:389    .text:000000000000020c _ZN15MemoryAllocator20insertNewFreeSegmentEPvm
     /tmp/ccvbRfgQ.s:392    .text:000000000000020c .L0 
     /tmp/ccvbRfgQ.s:394    .text:000000000000020c .L0 
     /tmp/ccvbRfgQ.s:395    .text:0000000000000210 .L0 
     /tmp/ccvbRfgQ.s:400    .text:0000000000000220 .L0 
     /tmp/ccvbRfgQ.s:401    .text:0000000000000220 .L0 
GAS LISTING /tmp/ccvbRfgQ.s 			page 25


     /tmp/ccvbRfgQ.s:402    .text:0000000000000220 .L0 
     /tmp/ccvbRfgQ.s:403    .text:0000000000000220 .L0 
     /tmp/ccvbRfgQ.s:405    .text:0000000000000224 .L0 
     /tmp/ccvbRfgQ.s:409    .text:000000000000022c .L0 
     /tmp/ccvbRfgQ.s:410    .text:000000000000022c .L0 
     /tmp/ccvbRfgQ.s:413    .text:0000000000000234 .L0 
     /tmp/ccvbRfgQ.s:414    .text:0000000000000234 .L0 
     /tmp/ccvbRfgQ.s:415    .text:0000000000000234 .L0 
     /tmp/ccvbRfgQ.s:418    .text:000000000000023c .L0 
     /tmp/ccvbRfgQ.s:419    .text:000000000000023c .L0 
     /tmp/ccvbRfgQ.s:420    .text:000000000000023c .L0 
     /tmp/ccvbRfgQ.s:422    .text:0000000000000240 .L0 
     /tmp/ccvbRfgQ.s:423    .text:0000000000000240 .L0 
     /tmp/ccvbRfgQ.s:425    .text:0000000000000244 .L0 
     /tmp/ccvbRfgQ.s:429    .text:0000000000000248 .L0 
     /tmp/ccvbRfgQ.s:430    .text:0000000000000248 .L0 
     /tmp/ccvbRfgQ.s:432    .text:000000000000024c .L0 
     /tmp/ccvbRfgQ.s:435    .text:0000000000000250 .L0 
     /tmp/ccvbRfgQ.s:436    .text:0000000000000250 .L0 
     /tmp/ccvbRfgQ.s:437    .text:0000000000000250 .L0 
     /tmp/ccvbRfgQ.s:439    .text:0000000000000254 .L0 
     /tmp/ccvbRfgQ.s:442    .text:0000000000000258 .L0 
     /tmp/ccvbRfgQ.s:445    .text:000000000000025c .L0 
     /tmp/ccvbRfgQ.s:446    .text:000000000000025c .L0 
     /tmp/ccvbRfgQ.s:449    .text:0000000000000260 .L0 
     /tmp/ccvbRfgQ.s:450    .text:0000000000000260 .L0 
     /tmp/ccvbRfgQ.s:452    .text:0000000000000264 .L0 
     /tmp/ccvbRfgQ.s:453    .text:0000000000000264 .L0 
     /tmp/ccvbRfgQ.s:457    .text:0000000000000268 .L0 
     /tmp/ccvbRfgQ.s:458    .text:0000000000000268 .L0 
     /tmp/ccvbRfgQ.s:460    .text:000000000000026c .L0 
     /tmp/ccvbRfgQ.s:462    .text:0000000000000270 .L0 
     /tmp/ccvbRfgQ.s:464    .text:0000000000000274 .L0 
     /tmp/ccvbRfgQ.s:467    .text:000000000000027c .L0 
     /tmp/ccvbRfgQ.s:470    .text:0000000000000280 .L0 
     /tmp/ccvbRfgQ.s:472    .text:0000000000000284 .L0 
     /tmp/ccvbRfgQ.s:474    .text:0000000000000288 .L0 
     /tmp/ccvbRfgQ.s:477    .text:0000000000000290 .L0 
     /tmp/ccvbRfgQ.s:480    .text:0000000000000294 .L0 
     /tmp/ccvbRfgQ.s:481    .text:0000000000000298 .L0 
     /tmp/ccvbRfgQ.s:482    .text:0000000000000298 .L0 
     /tmp/ccvbRfgQ.s:484    .text:000000000000029c .L0 
     /tmp/ccvbRfgQ.s:485    .text:000000000000029c .L0 
     /tmp/ccvbRfgQ.s:487    .text:00000000000002a0 .L0 
     /tmp/ccvbRfgQ.s:490    .text:00000000000002a4 .L0 
     /tmp/ccvbRfgQ.s:493    .text:00000000000002a8 .L0 
     /tmp/ccvbRfgQ.s:497    .text:00000000000002ac .L0 
     /tmp/ccvbRfgQ.s:499    .text:00000000000002ac .L0 
     /tmp/ccvbRfgQ.s:500    .text:00000000000002ac .L0 
     /tmp/ccvbRfgQ.s:505    .text:00000000000002b8 .L0 
     /tmp/ccvbRfgQ.s:506    .text:00000000000002b8 .L0 
     /tmp/ccvbRfgQ.s:508    .text:00000000000002bc .L0 
     /tmp/ccvbRfgQ.s:512    .text:00000000000002c8 .L0 
     /tmp/ccvbRfgQ.s:513    .text:00000000000002c8 .L0 
     /tmp/ccvbRfgQ.s:515    .text:00000000000002cc .L0 
     /tmp/ccvbRfgQ.s:519    .text:00000000000002d4 .L0 
     /tmp/ccvbRfgQ.s:520    .text:00000000000002d4 .L0 
GAS LISTING /tmp/ccvbRfgQ.s 			page 26


     /tmp/ccvbRfgQ.s:522    .text:00000000000002d8 .L0 
     /tmp/ccvbRfgQ.s:526    .text:00000000000002e4 .L0 
     /tmp/ccvbRfgQ.s:527    .text:00000000000002e4 .L0 
     /tmp/ccvbRfgQ.s:529    .text:00000000000002e8 .L0 
     /tmp/ccvbRfgQ.s:531    .text:00000000000002ec .L0 
     /tmp/ccvbRfgQ.s:532    .text:00000000000002f0 .L0 
     /tmp/ccvbRfgQ.s:538    .text:00000000000002f0 _ZN15MemoryAllocator16tryToFreeSegmentEPv
     /tmp/ccvbRfgQ.s:541    .text:00000000000002f0 .L0 
     /tmp/ccvbRfgQ.s:543    .text:00000000000002f0 .L0 
     /tmp/ccvbRfgQ.s:544    .text:00000000000002f4 .L0 
     /tmp/ccvbRfgQ.s:549    .text:0000000000000304 .L0 
     /tmp/ccvbRfgQ.s:550    .text:0000000000000304 .L0 
     /tmp/ccvbRfgQ.s:551    .text:0000000000000304 .L0 
     /tmp/ccvbRfgQ.s:552    .text:0000000000000304 .L0 
     /tmp/ccvbRfgQ.s:554    .text:0000000000000308 .L0 
     /tmp/ccvbRfgQ.s:557    .text:000000000000030c .L0 
     /tmp/ccvbRfgQ.s:558    .text:000000000000030c .L0 
     /tmp/ccvbRfgQ.s:561    .text:0000000000000314 .L0 
     /tmp/ccvbRfgQ.s:562    .text:0000000000000314 .L0 
     /tmp/ccvbRfgQ.s:563    .text:0000000000000314 .L0 
     /tmp/ccvbRfgQ.s:566    .text:000000000000031c .L0 
     /tmp/ccvbRfgQ.s:570    .text:0000000000000320 .L0 
     /tmp/ccvbRfgQ.s:571    .text:0000000000000320 .L0 
     /tmp/ccvbRfgQ.s:573    .text:0000000000000324 .L0 
     /tmp/ccvbRfgQ.s:574    .text:0000000000000324 .L0 
     /tmp/ccvbRfgQ.s:576    .text:0000000000000328 .L0 
     /tmp/ccvbRfgQ.s:579    .text:000000000000032c .L0 
     /tmp/ccvbRfgQ.s:580    .text:000000000000032c .L0 
     /tmp/ccvbRfgQ.s:581    .text:000000000000032c .L0 
     /tmp/ccvbRfgQ.s:583    .text:0000000000000330 .L0 
     /tmp/ccvbRfgQ.s:586    .text:0000000000000334 .L0 
     /tmp/ccvbRfgQ.s:589    .text:0000000000000338 .L0 
     /tmp/ccvbRfgQ.s:591    .text:000000000000033c .L0 
     /tmp/ccvbRfgQ.s:592    .text:000000000000033c .L0 
     /tmp/ccvbRfgQ.s:594    .text:0000000000000340 .L0 
     /tmp/ccvbRfgQ.s:598    .text:0000000000000344 .L0 
     /tmp/ccvbRfgQ.s:599    .text:0000000000000344 .L0 
     /tmp/ccvbRfgQ.s:605    .text:0000000000000354 .L0 
     /tmp/ccvbRfgQ.s:606    .text:0000000000000354 .L0 
     /tmp/ccvbRfgQ.s:608    .text:0000000000000358 .L0 
     /tmp/ccvbRfgQ.s:611    .text:000000000000035c .L0 
     /tmp/ccvbRfgQ.s:612    .text:0000000000000360 .L0 
     /tmp/ccvbRfgQ.s:613    .text:0000000000000360 .L0 
     /tmp/ccvbRfgQ.s:615    .text:0000000000000364 .L0 
     /tmp/ccvbRfgQ.s:616    .text:0000000000000364 .L0 
     /tmp/ccvbRfgQ.s:618    .text:0000000000000368 .L0 
     /tmp/ccvbRfgQ.s:621    .text:000000000000036c .L0 
     /tmp/ccvbRfgQ.s:624    .text:0000000000000370 .L0 
     /tmp/ccvbRfgQ.s:628    .text:0000000000000374 .L0 
     /tmp/ccvbRfgQ.s:630    .text:0000000000000374 .L0 
     /tmp/ccvbRfgQ.s:631    .text:0000000000000374 .L0 
     /tmp/ccvbRfgQ.s:633    .text:0000000000000378 .L0 
     /tmp/ccvbRfgQ.s:638    .text:0000000000000384 .L0 
     /tmp/ccvbRfgQ.s:640    .text:000000000000038c .L0 
     /tmp/ccvbRfgQ.s:646    .text:000000000000038c _ZN15MemoryAllocator8mem_freeEPv
     /tmp/ccvbRfgQ.s:649    .text:000000000000038c .L0 
     /tmp/ccvbRfgQ.s:651    .text:000000000000038c .L0 
GAS LISTING /tmp/ccvbRfgQ.s 			page 27


     /tmp/ccvbRfgQ.s:652    .text:0000000000000390 .L0 
     /tmp/ccvbRfgQ.s:655    .text:0000000000000398 .L0 
     /tmp/ccvbRfgQ.s:656    .text:0000000000000398 .L0 
     /tmp/ccvbRfgQ.s:658    .text:000000000000039c .L0 
     /tmp/ccvbRfgQ.s:660    .text:000000000000039c .L0 
     /tmp/ccvbRfgQ.s:661    .text:000000000000039c .L0 
     /tmp/ccvbRfgQ.s:664    .text:00000000000003a4 .L0 
     /tmp/ccvbRfgQ.s:665    .text:00000000000003a8 .L0 
     /tmp/ccvbRfgQ.s:667    .text:00000000000003ac .L0 
     /tmp/ccvbRfgQ.s:668    .text:00000000000003ac .L0 
     /tmp/ccvbRfgQ.s:670    .text:00000000000003b0 .L0 
     /tmp/ccvbRfgQ.s:672    .text:00000000000003b4 .L0 
     /tmp/ccvbRfgQ.s:678    .text:00000000000003b4 _Z7kmallocm
     /tmp/ccvbRfgQ.s:681    .text:00000000000003b4 .L0 
     /tmp/ccvbRfgQ.s:683    .text:00000000000003b4 .L0 
     /tmp/ccvbRfgQ.s:684    .text:00000000000003b8 .L0 
     /tmp/ccvbRfgQ.s:687    .text:00000000000003c0 .L0 
     /tmp/ccvbRfgQ.s:688    .text:00000000000003c0 .L0 
     /tmp/ccvbRfgQ.s:690    .text:00000000000003c4 .L0 
     /tmp/ccvbRfgQ.s:692    .text:00000000000003c4 .L0 
     /tmp/ccvbRfgQ.s:693    .text:00000000000003c4 .L0 
     /tmp/ccvbRfgQ.s:696    .text:00000000000003cc .L0 
     /tmp/ccvbRfgQ.s:697    .text:00000000000003d0 .L0 
     /tmp/ccvbRfgQ.s:699    .text:00000000000003d4 .L0 
     /tmp/ccvbRfgQ.s:700    .text:00000000000003d4 .L0 
     /tmp/ccvbRfgQ.s:702    .text:00000000000003d8 .L0 
     /tmp/ccvbRfgQ.s:704    .text:00000000000003dc .L0 
     /tmp/ccvbRfgQ.s:710    .text:00000000000003dc _ZN15MemoryAllocator15memAllocHandlerEv
     /tmp/ccvbRfgQ.s:713    .text:00000000000003dc .L0 
     /tmp/ccvbRfgQ.s:714    .text:00000000000003dc .L0 
     /tmp/ccvbRfgQ.s:715    .text:00000000000003e0 .L0 
     /tmp/ccvbRfgQ.s:718    .text:00000000000003e8 .L0 
     /tmp/ccvbRfgQ.s:719    .text:00000000000003e8 .L0 
     /tmp/ccvbRfgQ.s:721    .text:00000000000003ec .L0 
     /tmp/ccvbRfgQ.s:723    .text:00000000000003ec .L0 
     /tmp/ccvbRfgQ.s:724    .text:00000000000003ec .L0 
src/MemoryAllocator.cpp:181    .text:00000000000003ec .L0 
     /tmp/ccvbRfgQ.s:731    .text:00000000000003f0 .L0 
     /tmp/ccvbRfgQ.s:732    .text:00000000000003f0 .L0 
     /tmp/ccvbRfgQ.s:734    .text:00000000000003f0 .L0 
     /tmp/ccvbRfgQ.s:739    .text:00000000000003fc .L0 
src/MemoryAllocator.cpp:184    .text:00000000000003fc .L0 
     /tmp/ccvbRfgQ.s:745    .text:0000000000000400 .L0 
     /tmp/ccvbRfgQ.s:747    .text:0000000000000400 .L0 
     /tmp/ccvbRfgQ.s:750    .text:0000000000000408 .L0 
     /tmp/ccvbRfgQ.s:751    .text:000000000000040c .L0 
     /tmp/ccvbRfgQ.s:753    .text:0000000000000410 .L0 
     /tmp/ccvbRfgQ.s:754    .text:0000000000000410 .L0 
     /tmp/ccvbRfgQ.s:756    .text:0000000000000414 .L0 
     /tmp/ccvbRfgQ.s:758    .text:0000000000000418 .L0 
     /tmp/ccvbRfgQ.s:764    .text:0000000000000418 _Z5kfreePv
     /tmp/ccvbRfgQ.s:767    .text:0000000000000418 .L0 
     /tmp/ccvbRfgQ.s:769    .text:0000000000000418 .L0 
     /tmp/ccvbRfgQ.s:770    .text:000000000000041c .L0 
     /tmp/ccvbRfgQ.s:773    .text:0000000000000424 .L0 
     /tmp/ccvbRfgQ.s:774    .text:0000000000000424 .L0 
     /tmp/ccvbRfgQ.s:776    .text:0000000000000428 .L0 
GAS LISTING /tmp/ccvbRfgQ.s 			page 28


     /tmp/ccvbRfgQ.s:778    .text:0000000000000428 .L0 
     /tmp/ccvbRfgQ.s:779    .text:0000000000000428 .L0 
     /tmp/ccvbRfgQ.s:782    .text:0000000000000430 .L0 
     /tmp/ccvbRfgQ.s:783    .text:0000000000000434 .L0 
     /tmp/ccvbRfgQ.s:785    .text:0000000000000438 .L0 
     /tmp/ccvbRfgQ.s:786    .text:0000000000000438 .L0 
     /tmp/ccvbRfgQ.s:788    .text:000000000000043c .L0 
     /tmp/ccvbRfgQ.s:790    .text:0000000000000440 .L0 
     /tmp/ccvbRfgQ.s:796    .text:0000000000000440 _ZN15MemoryAllocator14memFreeHandlerEv
     /tmp/ccvbRfgQ.s:799    .text:0000000000000440 .L0 
     /tmp/ccvbRfgQ.s:800    .text:0000000000000440 .L0 
     /tmp/ccvbRfgQ.s:801    .text:0000000000000444 .L0 
     /tmp/ccvbRfgQ.s:804    .text:000000000000044c .L0 
     /tmp/ccvbRfgQ.s:805    .text:000000000000044c .L0 
     /tmp/ccvbRfgQ.s:807    .text:0000000000000450 .L0 
     /tmp/ccvbRfgQ.s:810    .text:0000000000000450 .L0 
     /tmp/ccvbRfgQ.s:811    .text:0000000000000450 .L0 
src/MemoryAllocator.cpp:191    .text:0000000000000450 .L0 
     /tmp/ccvbRfgQ.s:818    .text:0000000000000454 .L0 
     /tmp/ccvbRfgQ.s:820    .text:0000000000000454 .L0 
     /tmp/ccvbRfgQ.s:823    .text:000000000000045c .L0 
src/MemoryAllocator.cpp:193    .text:000000000000045c .L0 
     /tmp/ccvbRfgQ.s:829    .text:0000000000000460 .L0 
     /tmp/ccvbRfgQ.s:831    .text:0000000000000460 .L0 
     /tmp/ccvbRfgQ.s:834    .text:0000000000000468 .L0 
     /tmp/ccvbRfgQ.s:835    .text:000000000000046c .L0 
     /tmp/ccvbRfgQ.s:837    .text:0000000000000470 .L0 
     /tmp/ccvbRfgQ.s:838    .text:0000000000000470 .L0 
     /tmp/ccvbRfgQ.s:840    .text:0000000000000474 .L0 
     /tmp/ccvbRfgQ.s:842    .text:0000000000000478 .L0 
     /tmp/ccvbRfgQ.s:853    .bss:0000000000000000 _ZN15MemoryAllocator18memoryInitiliaizedE
     /tmp/ccvbRfgQ.s:862    .bss:0000000000000010 _ZN15MemoryAllocator8headFreeE
     /tmp/ccvbRfgQ.s:858    .bss:0000000000000008 _ZN15MemoryAllocator13headAllocatedE
     /tmp/ccvbRfgQ.s:850    .bss:0000000000000000 .LANCHOR0
     /tmp/ccvbRfgQ.s:869    .text:0000000000000478 .L0 
     /tmp/ccvbRfgQ.s:22     .text:000000000000000c .L0 
     /tmp/ccvbRfgQ.s:28     .text:000000000000001c .L0 
     /tmp/ccvbRfgQ.s:36     .text:0000000000000030 .L0 
     /tmp/ccvbRfgQ.s:44     .text:0000000000000044 .L0 
     /tmp/ccvbRfgQ.s:91     .text:0000000000000090 .L0 
     /tmp/ccvbRfgQ.s:153    .text:00000000000000dc .L0 
     /tmp/ccvbRfgQ.s:188    .text:000000000000010c .L0 
     /tmp/ccvbRfgQ.s:231    .text:0000000000000138 .L0 
     /tmp/ccvbRfgQ.s:267    .text:0000000000000170 .L0 
     /tmp/ccvbRfgQ.s:290    .text:0000000000000190 .L0 
     /tmp/ccvbRfgQ.s:323    .text:00000000000001bc .L0 
     /tmp/ccvbRfgQ.s:415    .text:0000000000000234 .L0 
     /tmp/ccvbRfgQ.s:500    .text:00000000000002ac .L0 
     /tmp/ccvbRfgQ.s:563    .text:0000000000000314 .L0 
     /tmp/ccvbRfgQ.s:633    .text:0000000000000378 .L0 
     /tmp/ccvbRfgQ.s:51     .text:000000000000005c .L1
     /tmp/ccvbRfgQ.s:124    .text:00000000000000bc .L5
     /tmp/ccvbRfgQ.s:119    .text:00000000000000b8 .L11
     /tmp/ccvbRfgQ.s:103    .text:00000000000000a4 .L7
     /tmp/ccvbRfgQ.s:149    .text:00000000000000dc .L12
     /tmp/ccvbRfgQ.s:131    .text:00000000000000c4 .L4
     /tmp/ccvbRfgQ.s:326    .text:00000000000001c8 .L23
GAS LISTING /tmp/ccvbRfgQ.s 			page 29


     /tmp/ccvbRfgQ.s:216    .text:0000000000000130 .L25
     /tmp/ccvbRfgQ.s:193    .text:0000000000000118 .L22
     /tmp/ccvbRfgQ.s:294    .text:000000000000019c .L16
     /tmp/ccvbRfgQ.s:271    .text:000000000000017c .L17
     /tmp/ccvbRfgQ.s:264    .text:0000000000000170 .L18
     /tmp/ccvbRfgQ.s:303    .text:00000000000001a4 .L19
     /tmp/ccvbRfgQ.s:284    .text:000000000000018c .L20
     /tmp/ccvbRfgQ.s:319    .text:00000000000001bc .L21
     /tmp/ccvbRfgQ.s:334    .text:00000000000001cc .L14
     /tmp/ccvbRfgQ.s:448    .text:0000000000000260 .L29
     /tmp/ccvbRfgQ.s:443    .text:000000000000025c .L37
     /tmp/ccvbRfgQ.s:427    .text:0000000000000248 .L31
     /tmp/ccvbRfgQ.s:496    .text:00000000000002ac .L38
     /tmp/ccvbRfgQ.s:468    .text:0000000000000280 .L34
     /tmp/ccvbRfgQ.s:503    .text:00000000000002b8 .L39
     /tmp/ccvbRfgQ.s:478    .text:0000000000000294 .L28
     /tmp/ccvbRfgQ.s:517    .text:00000000000002d4 .L40
     /tmp/ccvbRfgQ.s:455    .text:0000000000000268 .L33
     /tmp/ccvbRfgQ.s:604    .text:0000000000000354 .L42
     /tmp/ccvbRfgQ.s:587    .text:0000000000000338 .L50
     /tmp/ccvbRfgQ.s:568    .text:0000000000000320 .L46
     /tmp/ccvbRfgQ.s:627    .text:0000000000000374 .L44
     /tmp/ccvbRfgQ.s:636    .text:0000000000000384 .L48
     /tmp/ccvbRfgQ.s:596    .text:0000000000000344 .L45
     /tmp/ccvbRfgQ.s:609    .text:000000000000035c .L41
     /tmp/ccvbRfgQ.s:2059   .debug_abbrev:0000000000000000 .Ldebug_abbrev0
     /tmp/ccvbRfgQ.s:3317   .debug_str:0000000000000338 .LASF145
     /tmp/ccvbRfgQ.s:3495   .debug_str:0000000000000a0b .LASF146
     /tmp/ccvbRfgQ.s:3283   .debug_str:00000000000001fa .LASF147
     /tmp/ccvbRfgQ.s:5      .text:0000000000000000 .Ltext0
     /tmp/ccvbRfgQ.s:865    .text:0000000000000478 .Letext0
     /tmp/ccvbRfgQ.s:3217   .debug_line:0000000000000000 .Ldebug_line0
     /tmp/ccvbRfgQ.s:3381   .debug_str:000000000000063e .LASF0
     /tmp/ccvbRfgQ.s:3393   .debug_str:00000000000006a6 .LASF1
     /tmp/ccvbRfgQ.s:3365   .debug_str:00000000000005b1 .LASF2
     /tmp/ccvbRfgQ.s:3345   .debug_str:000000000000052b .LASF4
     /tmp/ccvbRfgQ.s:3443   .debug_str:000000000000085b .LASF3
     /tmp/ccvbRfgQ.s:3251   .debug_str:0000000000000103 .LASF5
     /tmp/ccvbRfgQ.s:3397   .debug_str:00000000000006c1 .LASF6
     /tmp/ccvbRfgQ.s:3379   .debug_str:000000000000062b .LASF7
     /tmp/ccvbRfgQ.s:3479   .debug_str:0000000000000991 .LASF8
     /tmp/ccvbRfgQ.s:3329   .debug_str:0000000000000486 .LASF9
     /tmp/ccvbRfgQ.s:3409   .debug_str:0000000000000732 .LASF10
     /tmp/ccvbRfgQ.s:3467   .debug_str:0000000000000902 .LASF11
     /tmp/ccvbRfgQ.s:3257   .debug_str:000000000000013c .LASF12
     /tmp/ccvbRfgQ.s:3225   .debug_str:0000000000000034 .LASF13
     /tmp/ccvbRfgQ.s:3271   .debug_str:00000000000001ab .LASF14
     /tmp/ccvbRfgQ.s:3435   .debug_str:0000000000000802 .LASF15
     /tmp/ccvbRfgQ.s:3285   .debug_str:000000000000021d .LASF16
     /tmp/ccvbRfgQ.s:3361   .debug_str:0000000000000596 .LASF42
     /tmp/ccvbRfgQ.s:3259   .debug_str:000000000000014c .LASF148
     /tmp/ccvbRfgQ.s:3459   .debug_str:00000000000008d8 .LASF17
     /tmp/ccvbRfgQ.s:3509   .debug_str:0000000000000a88 .LASF18
     /tmp/ccvbRfgQ.s:3497   .debug_str:0000000000000a23 .LASF19
     /tmp/ccvbRfgQ.s:3289   .debug_str:0000000000000257 .LASF20
     /tmp/ccvbRfgQ.s:3293   .debug_str:0000000000000287 .LASF21
     /tmp/ccvbRfgQ.s:3425   .debug_str:00000000000007ac .LASF22
GAS LISTING /tmp/ccvbRfgQ.s 			page 30


     /tmp/ccvbRfgQ.s:3451   .debug_str:0000000000000891 .LASF23
     /tmp/ccvbRfgQ.s:3445   .debug_str:000000000000086d .LASF24
     /tmp/ccvbRfgQ.s:3457   .debug_str:00000000000008b7 .LASF26
     /tmp/ccvbRfgQ.s:3413   .debug_str:000000000000074c .LASF25
     /tmp/ccvbRfgQ.s:3327   .debug_str:0000000000000465 .LASF27
     /tmp/ccvbRfgQ.s:3245   .debug_str:00000000000000d8 .LASF36
     /tmp/ccvbRfgQ.s:3427   .debug_str:00000000000007b5 .LASF38
     /tmp/ccvbRfgQ.s:3333   .debug_str:000000000000049a .LASF30
     /tmp/ccvbRfgQ.s:3319   .debug_str:00000000000003e4 .LASF32
     /tmp/ccvbRfgQ.s:3487   .debug_str:00000000000009c2 .LASF28
     /tmp/ccvbRfgQ.s:3323   .debug_str:0000000000000431 .LASF29
     /tmp/ccvbRfgQ.s:3499   .debug_str:0000000000000a2c .LASF31
     /tmp/ccvbRfgQ.s:3389   .debug_str:0000000000000671 .LASF33
     /tmp/ccvbRfgQ.s:3353   .debug_str:0000000000000551 .LASF34
     /tmp/ccvbRfgQ.s:3405   .debug_str:00000000000006fb .LASF35
     /tmp/ccvbRfgQ.s:3357   .debug_str:0000000000000568 .LASF37
     /tmp/ccvbRfgQ.s:3477   .debug_str:0000000000000969 .LASF39
     /tmp/ccvbRfgQ.s:3237   .debug_str:00000000000000ae .LASF40
     /tmp/ccvbRfgQ.s:3339   .debug_str:00000000000004e6 .LASF41
     /tmp/ccvbRfgQ.s:3391   .debug_str:00000000000006a0 .LASF43
     /tmp/ccvbRfgQ.s:3387   .debug_str:0000000000000666 .LASF44
     /tmp/ccvbRfgQ.s:3321   .debug_str:0000000000000419 .LASF45
     /tmp/ccvbRfgQ.s:3371   .debug_str:00000000000005d9 .LASF46
     /tmp/ccvbRfgQ.s:3231   .debug_str:000000000000006b .LASF47
     /tmp/ccvbRfgQ.s:3303   .debug_str:00000000000002d6 .LASF48
     /tmp/ccvbRfgQ.s:3295   .debug_str:000000000000029a .LASF49
     /tmp/ccvbRfgQ.s:3235   .debug_str:000000000000009e .LASF50
     /tmp/ccvbRfgQ.s:3229   .debug_str:000000000000004d .LASF51
     /tmp/ccvbRfgQ.s:3261   .debug_str:0000000000000158 .LASF52
     /tmp/ccvbRfgQ.s:3359   .debug_str:0000000000000578 .LASF53
     /tmp/ccvbRfgQ.s:3419   .debug_str:000000000000077a .LASF54
     /tmp/ccvbRfgQ.s:3287   .debug_str:0000000000000233 .LASF55
     /tmp/ccvbRfgQ.s:3415   .debug_str:0000000000000755 .LASF56
     /tmp/ccvbRfgQ.s:3377   .debug_str:000000000000060c .LASF57
     /tmp/ccvbRfgQ.s:3351   .debug_str:0000000000000545 .LASF58
     /tmp/ccvbRfgQ.s:3337   .debug_str:00000000000004cb .LASF59
     /tmp/ccvbRfgQ.s:3373   .debug_str:00000000000005e4 .LASF60
     /tmp/ccvbRfgQ.s:3255   .debug_str:0000000000000122 .LASF61
     /tmp/ccvbRfgQ.s:3431   .debug_str:00000000000007ec .LASF62
     /tmp/ccvbRfgQ.s:3503   .debug_str:0000000000000a59 .LASF63
     /tmp/ccvbRfgQ.s:3247   .debug_str:00000000000000e3 .LASF64
     /tmp/ccvbRfgQ.s:3233   .debug_str:0000000000000083 .LASF65
     /tmp/ccvbRfgQ.s:3313   .debug_str:0000000000000318 .LASF66
     /tmp/ccvbRfgQ.s:3223   .debug_str:000000000000001a .LASF67
     /tmp/ccvbRfgQ.s:3227   .debug_str:0000000000000044 .LASF70
     /tmp/ccvbRfgQ.s:3455   .debug_str:00000000000008a2 .LASF72
     /tmp/ccvbRfgQ.s:3299   .debug_str:00000000000002c5 .LASF68
     /tmp/ccvbRfgQ.s:3297   .debug_str:00000000000002b0 .LASF69
     /tmp/ccvbRfgQ.s:3369   .debug_str:00000000000005d2 .LASF71
     /tmp/ccvbRfgQ.s:3417   .debug_str:0000000000000767 .LASF73
     /tmp/ccvbRfgQ.s:3465   .debug_str:00000000000008fb .LASF74
     /tmp/ccvbRfgQ.s:3475   .debug_str:0000000000000956 .LASF75
     /tmp/ccvbRfgQ.s:3395   .debug_str:00000000000006b9 .LASF76
     /tmp/ccvbRfgQ.s:3309   .debug_str:00000000000002fa .LASF77
     /tmp/ccvbRfgQ.s:3221   .debug_str:0000000000000012 .LASF78
     /tmp/ccvbRfgQ.s:3385   .debug_str:0000000000000652 .LASF79
     /tmp/ccvbRfgQ.s:3307   .debug_str:00000000000002f2 .LASF80
GAS LISTING /tmp/ccvbRfgQ.s 			page 31


     /tmp/ccvbRfgQ.s:3265   .debug_str:0000000000000171 .LASF81
     /tmp/ccvbRfgQ.s:3341   .debug_str:000000000000050d .LASF82
     /tmp/ccvbRfgQ.s:3429   .debug_str:00000000000007d8 .LASF83
     /tmp/ccvbRfgQ.s:3383   .debug_str:000000000000064b .LASF84
     /tmp/ccvbRfgQ.s:3507   .debug_str:0000000000000a75 .LASF85
     /tmp/ccvbRfgQ.s:3243   .debug_str:00000000000000d1 .LASF86
     /tmp/ccvbRfgQ.s:3469   .debug_str:0000000000000911 .LASF87
     /tmp/ccvbRfgQ.s:3325   .debug_str:000000000000045f .LASF88
     /tmp/ccvbRfgQ.s:3463   .debug_str:00000000000008e9 .LASF89
     /tmp/ccvbRfgQ.s:3241   .debug_str:00000000000000cb .LASF90
     /tmp/ccvbRfgQ.s:3515   .debug_str:0000000000000aa6 .LASF91
     /tmp/ccvbRfgQ.s:3439   .debug_str:0000000000000835 .LASF92
     /tmp/ccvbRfgQ.s:3375   .debug_str:00000000000005f1 .LASF93
     /tmp/ccvbRfgQ.s:3411   .debug_str:0000000000000741 .LASF94
     /tmp/ccvbRfgQ.s:3441   .debug_str:0000000000000843 .LASF95
     /tmp/ccvbRfgQ.s:3349   .debug_str:000000000000053a .LASF96
     /tmp/ccvbRfgQ.s:3253   .debug_str:000000000000010a .LASF97
     /tmp/ccvbRfgQ.s:3453   .debug_str:000000000000089b .LASF98
     /tmp/ccvbRfgQ.s:3367   .debug_str:00000000000005bf .LASF99
     /tmp/ccvbRfgQ.s:3269   .debug_str:00000000000001a1 .LASF100
     /tmp/ccvbRfgQ.s:3343   .debug_str:0000000000000515 .LASF101
     /tmp/ccvbRfgQ.s:3311   .debug_str:000000000000030e .LASF102
     /tmp/ccvbRfgQ.s:3335   .debug_str:00000000000004b5 .LASF103
     /tmp/ccvbRfgQ.s:3355   .debug_str:0000000000000562 .LASF104
     /tmp/ccvbRfgQ.s:3219   .debug_str:0000000000000000 .LASF105
     /tmp/ccvbRfgQ.s:3275   .debug_str:00000000000001c2 .LASF106
     /tmp/ccvbRfgQ.s:3305   .debug_str:00000000000002e0 .LASF107
     /tmp/ccvbRfgQ.s:3447   .debug_str:0000000000000877 .LASF108
     /tmp/ccvbRfgQ.s:3501   .debug_str:0000000000000a41 .LASF109
     /tmp/ccvbRfgQ.s:3449   .debug_str:0000000000000882 .LASF110
     /tmp/ccvbRfgQ.s:3267   .debug_str:0000000000000185 .LASF111
     /tmp/ccvbRfgQ.s:3483   .debug_str:00000000000009a6 .LASF112
     /tmp/ccvbRfgQ.s:3291   .debug_str:0000000000000265 .LASF113
     /tmp/ccvbRfgQ.s:3489   .debug_str:00000000000009d8 .LASF114
     /tmp/ccvbRfgQ.s:3437   .debug_str:0000000000000818 .LASF115
     /tmp/ccvbRfgQ.s:3485   .debug_str:00000000000009bb .LASF116
     /tmp/ccvbRfgQ.s:3263   .debug_str:0000000000000169 .LASF117
     /tmp/ccvbRfgQ.s:3403   .debug_str:00000000000006ec .LASF118
     /tmp/ccvbRfgQ.s:3461   .debug_str:00000000000008dd .LASF119
     /tmp/ccvbRfgQ.s:3423   .debug_str:0000000000000799 .LASF120
     /tmp/ccvbRfgQ.s:3249   .debug_str:00000000000000f1 .LASF121
     /tmp/ccvbRfgQ.s:3399   .debug_str:00000000000006d4 .LASF122
     /tmp/ccvbRfgQ.s:3315   .debug_str:0000000000000325 .LASF123
     /tmp/ccvbRfgQ.s:3513   .debug_str:0000000000000a92 .LASF124
     /tmp/ccvbRfgQ.s:3401   .debug_str:00000000000006e7 .LASF125
     /tmp/ccvbRfgQ.s:3279   .debug_str:00000000000001ce .LASF126
     /tmp/ccvbRfgQ.s:3491   .debug_str:00000000000009e7 .LASF127
     /tmp/ccvbRfgQ.s:3471   .debug_str:0000000000000924 .LASF128
     /tmp/ccvbRfgQ.s:3277   .debug_str:00000000000001c8 .LASF129
     /tmp/ccvbRfgQ.s:3363   .debug_str:00000000000005a6 .LASF131
     /tmp/ccvbRfgQ.s:765    .text:0000000000000418 .LFB29
     /tmp/ccvbRfgQ.s:791    .text:0000000000000440 .LFE29
     /tmp/ccvbRfgQ.s:2670   .debug_loc:0000000000000000 .LLST27
     /tmp/ccvbRfgQ.s:780    .text:0000000000000430 .LVL72
     /tmp/ccvbRfgQ.s:3473   .debug_str:000000000000094e .LASF130
     /tmp/ccvbRfgQ.s:3433   .debug_str:00000000000007f6 .LASF132
     /tmp/ccvbRfgQ.s:679    .text:00000000000003b4 .LFB28
GAS LISTING /tmp/ccvbRfgQ.s 			page 32


     /tmp/ccvbRfgQ.s:705    .text:00000000000003dc .LFE28
     /tmp/ccvbRfgQ.s:2684   .debug_loc:0000000000000039 .LLST24
     /tmp/ccvbRfgQ.s:694    .text:00000000000003cc .LVL66
     /tmp/ccvbRfgQ.s:797    .text:0000000000000440 .LFB27
     /tmp/ccvbRfgQ.s:843    .text:0000000000000478 .LFE27
     /tmp/ccvbRfgQ.s:3505   .debug_str:0000000000000a70 .LASF133
     /tmp/ccvbRfgQ.s:2698   .debug_loc:0000000000000072 .LLST28
     /tmp/ccvbRfgQ.s:3281   .debug_str:00000000000001f3 .LASF134
     /tmp/ccvbRfgQ.s:2710   .debug_loc:00000000000000a9 .LLST29
     /tmp/ccvbRfgQ.s:821    .text:000000000000045c .LVL75
     /tmp/ccvbRfgQ.s:832    .text:0000000000000468 .LVL76
     /tmp/ccvbRfgQ.s:711    .text:00000000000003dc .LFB26
     /tmp/ccvbRfgQ.s:759    .text:0000000000000418 .LFE26
     /tmp/ccvbRfgQ.s:2717   .debug_loc:00000000000000cc .LLST25
     /tmp/ccvbRfgQ.s:3239   .debug_str:00000000000000bd .LASF135
     /tmp/ccvbRfgQ.s:2732   .debug_loc:0000000000000106 .LLST26
     /tmp/ccvbRfgQ.s:737    .text:00000000000003fc .LVL69
     /tmp/ccvbRfgQ.s:748    .text:0000000000000408 .LVL70
     /tmp/ccvbRfgQ.s:539    .text:00000000000002f0 .LFB25
     /tmp/ccvbRfgQ.s:641    .text:000000000000038c .LFE25
     /tmp/ccvbRfgQ.s:2739   .debug_loc:0000000000000129 .LLST20
     /tmp/ccvbRfgQ.s:3493   .debug_str:0000000000000a06 .LASF136
     /tmp/ccvbRfgQ.s:2761   .debug_loc:0000000000000188 .LLST21
     /tmp/ccvbRfgQ.s:3511   .debug_str:0000000000000a8d .LASF137
     /tmp/ccvbRfgQ.s:2785   .debug_loc:00000000000001f8 .LLST22
     /tmp/ccvbRfgQ.s:559    .text:0000000000000314 .LVL52
     /tmp/ccvbRfgQ.s:602    .text:0000000000000354 .LVL58
     /tmp/ccvbRfgQ.s:390    .text:000000000000020c .LFB24
     /tmp/ccvbRfgQ.s:533    .text:00000000000002f0 .LFE24
     /tmp/ccvbRfgQ.s:2805   .debug_loc:0000000000000255 .LLST15
     /tmp/ccvbRfgQ.s:2827   .debug_loc:00000000000002b4 .LLST16
     /tmp/ccvbRfgQ.s:2849   .debug_loc:0000000000000313 .LLST17
     /tmp/ccvbRfgQ.s:2869   .debug_loc:0000000000000370 .LLST18
     /tmp/ccvbRfgQ.s:3273   .debug_str:00000000000001b7 .LASF138
     /tmp/ccvbRfgQ.s:2889   .debug_loc:00000000000003cd .LLST19
     /tmp/ccvbRfgQ.s:411    .text:0000000000000234 .LVL41
     /tmp/ccvbRfgQ.s:163    .text:00000000000000e8 .LFB23
     /tmp/ccvbRfgQ.s:352    .text:00000000000001e4 .LFE23
     /tmp/ccvbRfgQ.s:2907   .debug_loc:0000000000000419 .LLST5
     /tmp/ccvbRfgQ.s:2925   .debug_loc:0000000000000465 .LLST6
     /tmp/ccvbRfgQ.s:2946   .debug_loc:00000000000004c3 .LLST7
     /tmp/ccvbRfgQ.s:2974   .debug_loc:0000000000000546 .LLST8
     /tmp/ccvbRfgQ.s:219    .text:0000000000000130 .LBB4
     /tmp/ccvbRfgQ.s:328    .text:00000000000001c8 .LBE4
     /tmp/ccvbRfgQ.s:3301   .debug_str:00000000000002ce .LASF139
     /tmp/ccvbRfgQ.s:2990   .debug_loc:0000000000000590 .LLST9
     /tmp/ccvbRfgQ.s:3347   .debug_str:0000000000000532 .LASF140
     /tmp/ccvbRfgQ.s:2997   .debug_loc:00000000000005b3 .LLST10
     /tmp/ccvbRfgQ.s:3481   .debug_str:00000000000009a1 .LASF141
     /tmp/ccvbRfgQ.s:3019   .debug_loc:0000000000000603 .LLST11
     /tmp/ccvbRfgQ.s:235    .text:0000000000000148 .LBB6
     /tmp/ccvbRfgQ.s:296    .text:000000000000019c .LBE6
     /tmp/ccvbRfgQ.s:3331   .debug_str:0000000000000494 .LASF142
     /tmp/ccvbRfgQ.s:3026   .debug_loc:0000000000000626 .LLST12
     /tmp/ccvbRfgQ.s:244    .text:0000000000000154 .LBB8
     /tmp/ccvbRfgQ.s:272    .text:000000000000017c .LBE8
     /tmp/ccvbRfgQ.s:3421   .debug_str:0000000000000791 .LASF143
GAS LISTING /tmp/ccvbRfgQ.s 			page 33


     /tmp/ccvbRfgQ.s:3067   .debug_loc:00000000000006b6 .LLST13
     /tmp/ccvbRfgQ.s:310    .text:00000000000001b4 .LVL31
     /tmp/ccvbRfgQ.s:183    .text:000000000000010c .LVL12
     /tmp/ccvbRfgQ.s:66     .text:0000000000000068 .LFB22
     /tmp/ccvbRfgQ.s:157    .text:00000000000000e8 .LFE22
     /tmp/ccvbRfgQ.s:3074   .debug_loc:00000000000006d9 .LLST0
     /tmp/ccvbRfgQ.s:3096   .debug_loc:0000000000000738 .LLST1
     /tmp/ccvbRfgQ.s:3118   .debug_loc:0000000000000797 .LLST2
     /tmp/ccvbRfgQ.s:3138   .debug_loc:00000000000007f4 .LLST3
     /tmp/ccvbRfgQ.s:3407   .debug_str:0000000000000725 .LASF144
     /tmp/ccvbRfgQ.s:3158   .debug_loc:0000000000000851 .LLST4
     /tmp/ccvbRfgQ.s:87     .text:0000000000000090 .LVL1
     /tmp/ccvbRfgQ.s:10     .text:0000000000000000 .LFB21
     /tmp/ccvbRfgQ.s:60     .text:0000000000000068 .LFE21
     /tmp/ccvbRfgQ.s:647    .text:000000000000038c .LFB20
     /tmp/ccvbRfgQ.s:673    .text:00000000000003b4 .LFE20
     /tmp/ccvbRfgQ.s:3176   .debug_loc:000000000000089d .LLST23
     /tmp/ccvbRfgQ.s:662    .text:00000000000003a4 .LVL64
     /tmp/ccvbRfgQ.s:358    .text:00000000000001e4 .LFB19
     /tmp/ccvbRfgQ.s:384    .text:000000000000020c .LFE19
     /tmp/ccvbRfgQ.s:3190   .debug_loc:00000000000008d6 .LLST14
     /tmp/ccvbRfgQ.s:373    .text:00000000000001fc .LVL39
     /tmp/ccvbRfgQ.s:768    .text:0000000000000418 .LVL71
     /tmp/ccvbRfgQ.s:682    .text:00000000000003b4 .LVL65
     /tmp/ccvbRfgQ.s:809    .text:0000000000000450 .LVL73
     /tmp/ccvbRfgQ.s:816    .text:0000000000000454 .LVL74
     /tmp/ccvbRfgQ.s:729    .text:00000000000003f0 .LVL67
     /tmp/ccvbRfgQ.s:735    .text:00000000000003f4 .LVL68
     /tmp/ccvbRfgQ.s:542    .text:00000000000002f0 .LVL51
     /tmp/ccvbRfgQ.s:622    .text:000000000000036c .LVL60
     /tmp/ccvbRfgQ.s:626    .text:0000000000000374 .LVL61
     /tmp/ccvbRfgQ.s:567    .text:0000000000000320 .LVL54
     /tmp/ccvbRfgQ.s:578    .text:000000000000032c .LVL55
     /tmp/ccvbRfgQ.s:584    .text:0000000000000334 .LVL56
     /tmp/ccvbRfgQ.s:595    .text:0000000000000344 .LVL57
     /tmp/ccvbRfgQ.s:634    .text:0000000000000380 .LVL62
     /tmp/ccvbRfgQ.s:564    .text:000000000000031c .LVL53
     /tmp/ccvbRfgQ.s:619    .text:0000000000000368 .LVL59
     /tmp/ccvbRfgQ.s:393    .text:000000000000020c .LVL40
     /tmp/ccvbRfgQ.s:488    .text:00000000000002a0 .LVL47
     /tmp/ccvbRfgQ.s:495    .text:00000000000002ac .LVL49
     /tmp/ccvbRfgQ.s:491    .text:00000000000002a4 .LVL48
     /tmp/ccvbRfgQ.s:426    .text:0000000000000248 .LVL43
     /tmp/ccvbRfgQ.s:434    .text:0000000000000250 .LVL44
     /tmp/ccvbRfgQ.s:440    .text:0000000000000258 .LVL45
     /tmp/ccvbRfgQ.s:416    .text:000000000000023c .LVL42
     /tmp/ccvbRfgQ.s:454    .text:0000000000000268 .LVL46
     /tmp/ccvbRfgQ.s:501    .text:00000000000002b4 .LVL50
     /tmp/ccvbRfgQ.s:166    .text:00000000000000e8 .LVL11
     /tmp/ccvbRfgQ.s:347    .text:00000000000001dc .LVL37
     /tmp/ccvbRfgQ.s:314    .text:00000000000001b8 .LVL32
     /tmp/ccvbRfgQ.s:318    .text:00000000000001bc .LVL33
     /tmp/ccvbRfgQ.s:333    .text:00000000000001cc .LVL35
     /tmp/ccvbRfgQ.s:192    .text:0000000000000118 .LVL14
     /tmp/ccvbRfgQ.s:206    .text:0000000000000124 .LVL15
     /tmp/ccvbRfgQ.s:212    .text:000000000000012c .LVL16
     /tmp/ccvbRfgQ.s:291    .text:0000000000000198 .LVL28
GAS LISTING /tmp/ccvbRfgQ.s 			page 34


     /tmp/ccvbRfgQ.s:293    .text:000000000000019c .LVL29
     /tmp/ccvbRfgQ.s:302    .text:00000000000001a4 .LVL30
     /tmp/ccvbRfgQ.s:189    .text:0000000000000114 .LVL13
     /tmp/ccvbRfgQ.s:344    .text:00000000000001d8 .LVL36
     /tmp/ccvbRfgQ.s:221    .text:0000000000000130 .LVL17
     /tmp/ccvbRfgQ.s:325    .text:00000000000001c8 .LVL34
     /tmp/ccvbRfgQ.s:227    .text:0000000000000138 .LVL18
     /tmp/ccvbRfgQ.s:239    .text:000000000000014c .LVL19
     /tmp/ccvbRfgQ.s:255    .text:0000000000000160 .LVL21
     /tmp/ccvbRfgQ.s:268    .text:0000000000000178 .LVL22
     /tmp/ccvbRfgQ.s:270    .text:000000000000017c .LVL23
     /tmp/ccvbRfgQ.s:278    .text:0000000000000184 .LVL24
     /tmp/ccvbRfgQ.s:281    .text:0000000000000188 .LVL25
     /tmp/ccvbRfgQ.s:283    .text:000000000000018c .LVL26
     /tmp/ccvbRfgQ.s:288    .text:0000000000000190 .LVL27
     /tmp/ccvbRfgQ.s:246    .text:0000000000000154 .LVL20
     /tmp/ccvbRfgQ.s:69     .text:0000000000000068 .LVL0
     /tmp/ccvbRfgQ.s:141    .text:00000000000000d0 .LVL7
     /tmp/ccvbRfgQ.s:148    .text:00000000000000dc .LVL9
     /tmp/ccvbRfgQ.s:144    .text:00000000000000d4 .LVL8
     /tmp/ccvbRfgQ.s:102    .text:00000000000000a4 .LVL3
     /tmp/ccvbRfgQ.s:110    .text:00000000000000ac .LVL4
     /tmp/ccvbRfgQ.s:116    .text:00000000000000b4 .LVL5
     /tmp/ccvbRfgQ.s:92     .text:0000000000000098 .LVL2
     /tmp/ccvbRfgQ.s:130    .text:00000000000000c4 .LVL6
     /tmp/ccvbRfgQ.s:154    .text:00000000000000e4 .LVL10
     /tmp/ccvbRfgQ.s:650    .text:000000000000038c .LVL63
     /tmp/ccvbRfgQ.s:361    .text:00000000000001e4 .LVL38
     /tmp/ccvbRfgQ.s:870    .debug_info:0000000000000000 .Ldebug_info0

UNDEFINED SYMBOLS
HEAP_START_ADDR
HEAP_END_ADDR
_ZN5Riscv13w_a0_sscratchEv
