GAS LISTING /tmp/cctGEoaS.s 			page 1


   1              		.file	"MemoryAllocator.cpp"
   2              		.option pic
   3              		.option norelax
   4              		.text
   5              	.Ltext0:
   6              		.align	2
   7              		.globl	_ZN15MemoryAllocator9mem_allocEm
   9              	_ZN15MemoryAllocator9mem_allocEm:
  10              	.LFB0:
  11              		.file 1 "src/MemoryAllocator.cpp"
   1:src/MemoryAllocator.cpp **** //
   2:src/MemoryAllocator.cpp **** // Created by os on 4/27/22.
   3:src/MemoryAllocator.cpp **** //
   4:src/MemoryAllocator.cpp **** 
   5:src/MemoryAllocator.cpp **** #include "../h/MemoryAllocator.h"
   6:src/MemoryAllocator.cpp **** 
   7:src/MemoryAllocator.cpp **** MemoryAllocator::AllocatedFragment* MemoryAllocator::headAllocated = 0;
   8:src/MemoryAllocator.cpp **** MemoryAllocator::FreeFragment* MemoryAllocator::headFree = 0;
   9:src/MemoryAllocator.cpp **** int MemoryAllocator::memoryInitiliaized = 0;
  10:src/MemoryAllocator.cpp **** 
  11:src/MemoryAllocator.cpp **** void *MemoryAllocator::mem_alloc(size_t size) {
  12              		.loc 1 11 47
  13              		.cfi_startproc
  14              	.LVL0:
  15 0000 130101FF 		addi	sp,sp,-16
  16              		.cfi_def_cfa_offset 16
  17 0004 23348100 		sd	s0,8(sp)
  18              		.cfi_offset 8, -8
  19 0008 13040101 		addi	s0,sp,16
  20              		.cfi_def_cfa 8, 0
  12:src/MemoryAllocator.cpp ****     return 0;
  21              		.loc 1 12 5
  13:src/MemoryAllocator.cpp ****     //todo
  14:src/MemoryAllocator.cpp ****     //sta ovde treba kao parametar
  15:src/MemoryAllocator.cpp ****     //svuda pogledaj to
  16:src/MemoryAllocator.cpp ****     //return ::mem_alloc(sizeof(MemoryAllocator));
  17:src/MemoryAllocator.cpp **** }
  22              		.loc 1 17 1 is_stmt 0
  23 000c 13050000 		li	a0,0
  24              	.LVL1:
  25 0010 03348100 		ld	s0,8(sp)
  26              		.cfi_restore 8
  27              		.cfi_def_cfa 2, 16
  28 0014 13010101 		addi	sp,sp,16
  29              		.cfi_def_cfa_offset 0
  30 0018 67800000 		jr	ra
  31              		.cfi_endproc
  32              	.LFE0:
  34              		.align	2
  35              		.globl	_ZN15MemoryAllocator8mem_freeEPv
  37              	_ZN15MemoryAllocator8mem_freeEPv:
  38              	.LFB1:
  18:src/MemoryAllocator.cpp **** 
  19:src/MemoryAllocator.cpp **** int MemoryAllocator::mem_free(void * addr) {
  39              		.loc 1 19 44 is_stmt 1
  40              		.cfi_startproc
  41              	.LVL2:
GAS LISTING /tmp/cctGEoaS.s 			page 2


  42 001c 130101FF 		addi	sp,sp,-16
  43              		.cfi_def_cfa_offset 16
  44 0020 23348100 		sd	s0,8(sp)
  45              		.cfi_offset 8, -8
  46 0024 13040101 		addi	s0,sp,16
  47              		.cfi_def_cfa 8, 0
  20:src/MemoryAllocator.cpp ****     return 0;
  48              		.loc 1 20 5
  21:src/MemoryAllocator.cpp ****     //return ::mem_free(addr);
  22:src/MemoryAllocator.cpp **** }
  49              		.loc 1 22 1 is_stmt 0
  50 0028 13050000 		li	a0,0
  51              	.LVL3:
  52 002c 03348100 		ld	s0,8(sp)
  53              		.cfi_restore 8
  54              		.cfi_def_cfa 2, 16
  55 0030 13010101 		addi	sp,sp,16
  56              		.cfi_def_cfa_offset 0
  57 0034 67800000 		jr	ra
  58              		.cfi_endproc
  59              	.LFE1:
  61              		.align	2
  62              		.globl	_ZN15MemoryAllocator10initMemoryEv
  64              	_ZN15MemoryAllocator10initMemoryEv:
  65              	.LFB2:
  23:src/MemoryAllocator.cpp **** 
  24:src/MemoryAllocator.cpp **** void MemoryAllocator::initMemory()
  25:src/MemoryAllocator.cpp **** {
  66              		.loc 1 25 1 is_stmt 1
  67              		.cfi_startproc
  68 0038 130101FF 		addi	sp,sp,-16
  69              		.cfi_def_cfa_offset 16
  70 003c 23348100 		sd	s0,8(sp)
  71              		.cfi_offset 8, -8
  72 0040 13040101 		addi	s0,sp,16
  73              		.cfi_def_cfa 8, 0
  26:src/MemoryAllocator.cpp ****     if(memoryInitiliaized == 1)
  74              		.loc 1 26 5
  75              		.loc 1 26 27 is_stmt 0
  76 0044 17070000 		lw	a4,.LANCHOR0
  76      03270700 
  77              		.loc 1 26 5
  78 004c 93071000 		li	a5,1
  79 0050 6302F704 		beq	a4,a5,.L5
  27:src/MemoryAllocator.cpp ****         return;
  28:src/MemoryAllocator.cpp ****     memoryInitiliaized = 1;
  80              		.loc 1 28 5 is_stmt 1
  81              		.loc 1 28 24 is_stmt 0
  82 0054 97070000 		lla	a5,.LANCHOR0
  82      93870700 
  83 005c 13071000 		li	a4,1
  84 0060 23A0E700 		sw	a4,0(a5)
  29:src/MemoryAllocator.cpp ****     headAllocated = 0;
  85              		.loc 1 29 5 is_stmt 1
  86              		.loc 1 29 19 is_stmt 0
  87 0064 23B40700 		sd	zero,8(a5)
  30:src/MemoryAllocator.cpp ****     headFree = (FreeFragment*)HEAP_START_ADDR;
GAS LISTING /tmp/cctGEoaS.s 			page 3


  88              		.loc 1 30 5 is_stmt 1
  89              		.loc 1 30 14 is_stmt 0
  90 0068 17070000 		la	a4,HEAP_START_ADDR
  90      03370700 
  91 0070 03370700 		ld	a4,0(a4)
  92 0074 23B8E700 		sd	a4,16(a5)
  31:src/MemoryAllocator.cpp ****     headFree->next = 0;
  93              		.loc 1 31 5 is_stmt 1
  94              		.loc 1 31 20 is_stmt 0
  95 0078 23340700 		sd	zero,8(a4)
  32:src/MemoryAllocator.cpp ****     headFree->size = (size_t)((size_t)HEAP_END_ADDR - (size_t)HEAP_START_ADDR + 1);
  96              		.loc 1 32 5 is_stmt 1
  97              		.loc 1 32 53 is_stmt 0
  98 007c 97070000 		la	a5,HEAP_END_ADDR
  98      83B70700 
  99 0084 83B70700 		ld	a5,0(a5)
 100 0088 B387E740 		sub	a5,a5,a4
 101              		.loc 1 32 79
 102 008c 93871700 		addi	a5,a5,1
 103              		.loc 1 32 20
 104 0090 2330F700 		sd	a5,0(a4)
 105              	.L5:
  33:src/MemoryAllocator.cpp **** }
 106              		.loc 1 33 1
 107 0094 03348100 		ld	s0,8(sp)
 108              		.cfi_restore 8
 109              		.cfi_def_cfa 2, 16
 110 0098 13010101 		addi	sp,sp,16
 111              		.cfi_def_cfa_offset 0
 112 009c 67800000 		jr	ra
 113              		.cfi_endproc
 114              	.LFE2:
 116              		.align	2
 117              		.globl	_ZN15MemoryAllocator26insertNewAllocatedFragmentEPvm
 119              	_ZN15MemoryAllocator26insertNewAllocatedFragmentEPvm:
 120              	.LFB3:
  34:src/MemoryAllocator.cpp **** 
  35:src/MemoryAllocator.cpp **** void MemoryAllocator::insertNewAllocatedFragment(void* addr, size_t size) {
 121              		.loc 1 35 75 is_stmt 1
 122              		.cfi_startproc
 123              	.LVL4:
 124 00a0 130101FE 		addi	sp,sp,-32
 125              		.cfi_def_cfa_offset 32
 126 00a4 233C1100 		sd	ra,24(sp)
 127 00a8 23388100 		sd	s0,16(sp)
 128 00ac 23349100 		sd	s1,8(sp)
 129 00b0 23302101 		sd	s2,0(sp)
 130              		.cfi_offset 1, -8
 131              		.cfi_offset 8, -16
 132              		.cfi_offset 9, -24
 133              		.cfi_offset 18, -32
 134 00b4 13040102 		addi	s0,sp,32
 135              		.cfi_def_cfa 8, 0
 136 00b8 93040500 		mv	s1,a0
 137 00bc 13890500 		mv	s2,a1
  36:src/MemoryAllocator.cpp **** 
  37:src/MemoryAllocator.cpp ****     initMemory();
GAS LISTING /tmp/cctGEoaS.s 			page 4


 138              		.loc 1 37 5
 139              		.loc 1 37 15 is_stmt 0
 140 00c0 97000000 		call	_ZN15MemoryAllocator10initMemoryEv
 140      E7800000 
 141              	.LVL5:
  38:src/MemoryAllocator.cpp ****     AllocatedFragment* prev = 0;
 142              		.loc 1 38 5 is_stmt 1
  39:src/MemoryAllocator.cpp ****     AllocatedFragment* after =  headAllocated;
 143              		.loc 1 39 5
 144              		.loc 1 39 24 is_stmt 0
 145 00c8 97070000 		ld	a5,.LANCHOR0+8
 145      83B70700 
 146              	.LVL6:
  38:src/MemoryAllocator.cpp ****     AllocatedFragment* prev = 0;
 147              		.loc 1 38 24
 148 00d0 13070000 		li	a4,0
 149              	.LVL7:
 150              	.L10:
  40:src/MemoryAllocator.cpp ****     while(after != 0) {
 151              		.loc 1 40 5 is_stmt 1
 152              		.loc 1 40 17
 153 00d4 638A0700 		beqz	a5,.L9
  41:src/MemoryAllocator.cpp ****         if((void*)after > addr)
 154              		.loc 1 41 9
 155 00d8 63E8F400 		bgtu	a5,s1,.L9
  42:src/MemoryAllocator.cpp ****             break;
  43:src/MemoryAllocator.cpp **** 
  44:src/MemoryAllocator.cpp ****         prev = after;
 156              		.loc 1 44 9
 157              	.LVL8:
  45:src/MemoryAllocator.cpp ****         after = after->next;
 158              		.loc 1 45 9
  44:src/MemoryAllocator.cpp ****         after = after->next;
 159              		.loc 1 44 14 is_stmt 0
 160 00dc 13870700 		mv	a4,a5
 161              		.loc 1 45 15
 162 00e0 83B78700 		ld	a5,8(a5)
 163              	.LVL9:
  40:src/MemoryAllocator.cpp ****         if((void*)after > addr)
 164              		.loc 1 40 5
 165 00e4 6FF01FFF 		j	.L10
 166              	.L9:
  46:src/MemoryAllocator.cpp ****     }
  47:src/MemoryAllocator.cpp **** 
  48:src/MemoryAllocator.cpp ****     AllocatedFragment* newAllocated = (AllocatedFragment*)addr;
 167              		.loc 1 48 5 is_stmt 1
 168              	.LVL10:
  49:src/MemoryAllocator.cpp ****     newAllocated->next = 0;
 169              		.loc 1 49 5
 170              		.loc 1 49 24 is_stmt 0
 171 00e8 23B40400 		sd	zero,8(s1)
  50:src/MemoryAllocator.cpp ****     newAllocated->size = size;
 172              		.loc 1 50 5 is_stmt 1
 173              		.loc 1 50 24 is_stmt 0
 174 00ec 23B02401 		sd	s2,0(s1)
  51:src/MemoryAllocator.cpp ****     if(after == 0) {
 175              		.loc 1 51 5 is_stmt 1
GAS LISTING /tmp/cctGEoaS.s 			page 5


 176 00f0 63840702 		beqz	a5,.L16
  52:src/MemoryAllocator.cpp ****         if(prev == 0)
  53:src/MemoryAllocator.cpp ****             headAllocated = newAllocated;
  54:src/MemoryAllocator.cpp ****         else
  55:src/MemoryAllocator.cpp ****             prev->next = newAllocated;
  56:src/MemoryAllocator.cpp ****     }
  57:src/MemoryAllocator.cpp ****     else {
  58:src/MemoryAllocator.cpp ****         if(prev == 0) {
 177              		.loc 1 58 9
 178 00f4 630E0702 		beqz	a4,.L17
  59:src/MemoryAllocator.cpp ****             newAllocated->next = headAllocated;
  60:src/MemoryAllocator.cpp ****             headAllocated = newAllocated;
  61:src/MemoryAllocator.cpp ****         }
  62:src/MemoryAllocator.cpp ****         else {
  63:src/MemoryAllocator.cpp ****             newAllocated->next = after;
 179              		.loc 1 63 13
 180              		.loc 1 63 32 is_stmt 0
 181 00f8 23B4F400 		sd	a5,8(s1)
  64:src/MemoryAllocator.cpp ****             prev->next = newAllocated;
 182              		.loc 1 64 13 is_stmt 1
 183              		.loc 1 64 24 is_stmt 0
 184 00fc 23349700 		sd	s1,8(a4)
 185              	.LVL11:
 186              	.L8:
  65:src/MemoryAllocator.cpp ****         }
  66:src/MemoryAllocator.cpp ****     }
  67:src/MemoryAllocator.cpp **** }
 187              		.loc 1 67 1
 188 0100 83308101 		ld	ra,24(sp)
 189              		.cfi_remember_state
 190              		.cfi_restore 1
 191 0104 03340101 		ld	s0,16(sp)
 192              		.cfi_restore 8
 193              		.cfi_def_cfa 2, 32
 194 0108 83348100 		ld	s1,8(sp)
 195              		.cfi_restore 9
 196              	.LVL12:
 197 010c 03390100 		ld	s2,0(sp)
 198              		.cfi_restore 18
 199              	.LVL13:
 200 0110 13010102 		addi	sp,sp,32
 201              		.cfi_def_cfa_offset 0
 202 0114 67800000 		jr	ra
 203              	.LVL14:
 204              	.L16:
 205              		.cfi_restore_state
  52:src/MemoryAllocator.cpp ****             headAllocated = newAllocated;
 206              		.loc 1 52 9 is_stmt 1
 207 0118 63060700 		beqz	a4,.L18
  55:src/MemoryAllocator.cpp ****     }
 208              		.loc 1 55 13
  55:src/MemoryAllocator.cpp ****     }
 209              		.loc 1 55 24 is_stmt 0
 210 011c 23349700 		sd	s1,8(a4)
 211 0120 6FF01FFE 		j	.L8
 212              	.L18:
  53:src/MemoryAllocator.cpp ****         else
GAS LISTING /tmp/cctGEoaS.s 			page 6


 213              		.loc 1 53 13 is_stmt 1
  53:src/MemoryAllocator.cpp ****         else
 214              		.loc 1 53 27 is_stmt 0
 215 0124 97070000 		sd	s1,.LANCHOR0+8,a5
 215      23B09700 
 216              	.LVL15:
 217 012c 6FF05FFD 		j	.L8
 218              	.LVL16:
 219              	.L17:
  59:src/MemoryAllocator.cpp ****             headAllocated = newAllocated;
 220              		.loc 1 59 13 is_stmt 1
  59:src/MemoryAllocator.cpp ****             headAllocated = newAllocated;
 221              		.loc 1 59 32 is_stmt 0
 222 0130 97070000 		lla	a5,.LANCHOR0
 222      93870700 
 223              	.LVL17:
 224 0138 03B78700 		ld	a4,8(a5)
 225              	.LVL18:
 226 013c 23B4E400 		sd	a4,8(s1)
  60:src/MemoryAllocator.cpp ****         }
 227              		.loc 1 60 13 is_stmt 1
  60:src/MemoryAllocator.cpp ****         }
 228              		.loc 1 60 27 is_stmt 0
 229 0140 23B49700 		sd	s1,8(a5)
 230 0144 6FF0DFFB 		j	.L8
 231              		.cfi_endproc
 232              	.LFE3:
 234              		.align	2
 235              		.globl	_ZN15MemoryAllocator21tryToAllocateFragmentEm
 237              	_ZN15MemoryAllocator21tryToAllocateFragmentEm:
 238              	.LFB4:
  68:src/MemoryAllocator.cpp **** 
  69:src/MemoryAllocator.cpp **** void* MemoryAllocator::tryToAllocateFragment(size_t size) {
 239              		.loc 1 69 59 is_stmt 1
 240              		.cfi_startproc
 241              	.LVL19:
 242 0148 130101FE 		addi	sp,sp,-32
 243              		.cfi_def_cfa_offset 32
 244 014c 233C1100 		sd	ra,24(sp)
 245 0150 23388100 		sd	s0,16(sp)
 246 0154 23349100 		sd	s1,8(sp)
 247 0158 23302101 		sd	s2,0(sp)
 248              		.cfi_offset 1, -8
 249              		.cfi_offset 8, -16
 250              		.cfi_offset 9, -24
 251              		.cfi_offset 18, -32
 252 015c 13040102 		addi	s0,sp,32
 253              		.cfi_def_cfa 8, 0
 254 0160 13090500 		mv	s2,a0
  70:src/MemoryAllocator.cpp ****     initMemory();
 255              		.loc 1 70 5
 256              		.loc 1 70 15 is_stmt 0
 257 0164 97000000 		call	_ZN15MemoryAllocator10initMemoryEv
 257      E7800000 
 258              	.LVL20:
  71:src/MemoryAllocator.cpp ****     FreeFragment* prev = 0;
 259              		.loc 1 71 5 is_stmt 1
GAS LISTING /tmp/cctGEoaS.s 			page 7


  72:src/MemoryAllocator.cpp ****     FreeFragment* curr = headFree;
 260              		.loc 1 72 5
 261              		.loc 1 72 19 is_stmt 0
 262 016c 97040000 		ld	s1,.LANCHOR0+16
 262      83B40400 
 263              	.LVL21:
  73:src/MemoryAllocator.cpp ****     uint64 newSize = size + sizeof(AllocatedFragment);
 264              		.loc 1 73 5 is_stmt 1
 265              		.loc 1 73 12 is_stmt 0
 266 0174 93060901 		addi	a3,s2,16
 267              	.LVL22:
  71:src/MemoryAllocator.cpp ****     FreeFragment* prev = 0;
 268              		.loc 1 71 19
 269 0178 13070000 		li	a4,0
 270 017c 6F000007 		j	.L29
 271              	.LVL23:
 272              	.L31:
 273              	.LBB2:
 274              	.LBB3:
 275              	.LBB4:
 276              	.LBB5:
 277              	.LBB6:
  74:src/MemoryAllocator.cpp ****     while(curr != 0) {
  75:src/MemoryAllocator.cpp **** 
  76:src/MemoryAllocator.cpp ****         if(curr->size >= newSize) {
  77:src/MemoryAllocator.cpp **** 
  78:src/MemoryAllocator.cpp ****             void* oldAddr = curr;
  79:src/MemoryAllocator.cpp ****             void* newAddr = ((char*)curr + newSize);
  80:src/MemoryAllocator.cpp ****             if(newAddr <= HEAP_END_ADDR) {
  81:src/MemoryAllocator.cpp **** 
  82:src/MemoryAllocator.cpp ****                 FreeFragment *newFree = (FreeFragment *) newAddr;
 278              		.loc 1 82 17 is_stmt 1
  83:src/MemoryAllocator.cpp **** 
  84:src/MemoryAllocator.cpp ****                 if (prev != 0)
 279              		.loc 1 84 17
 280 0180 63020704 		beqz	a4,.L23
  85:src/MemoryAllocator.cpp ****                     prev->next = newFree;
 281              		.loc 1 85 21
 282              		.loc 1 85 32 is_stmt 0
 283 0184 2334F700 		sd	a5,8(a4)
 284              	.L24:
  86:src/MemoryAllocator.cpp ****                 else
  87:src/MemoryAllocator.cpp ****                     headFree = newFree;
  88:src/MemoryAllocator.cpp **** 
  89:src/MemoryAllocator.cpp ****                 newFree->next = curr->next;
 285              		.loc 1 89 17 is_stmt 1
 286              		.loc 1 89 39 is_stmt 0
 287 0188 03B68400 		ld	a2,8(s1)
 288              		.loc 1 89 31
 289 018c 23B4C700 		sd	a2,8(a5)
  90:src/MemoryAllocator.cpp ****                 newFree->size = curr->size - newSize;
 290              		.loc 1 90 17 is_stmt 1
 291              		.loc 1 90 39 is_stmt 0
 292 0190 03B60400 		ld	a2,0(s1)
 293              		.loc 1 90 44
 294 0194 B306D640 		sub	a3,a2,a3
 295              	.LVL24:
GAS LISTING /tmp/cctGEoaS.s 			page 8


 296              		.loc 1 90 31
 297 0198 23B0D700 		sd	a3,0(a5)
  91:src/MemoryAllocator.cpp **** 
  92:src/MemoryAllocator.cpp ****                 if(newFree->size == 0)
 298              		.loc 1 92 17 is_stmt 1
 299 019c 63980600 		bnez	a3,.L25
  93:src/MemoryAllocator.cpp ****                 {
  94:src/MemoryAllocator.cpp ****                     if(prev != 0)
 300              		.loc 1 94 21
 301 01a0 63080702 		beqz	a4,.L26
  95:src/MemoryAllocator.cpp ****                         prev->next = curr->next;
 302              		.loc 1 95 25
 303              		.loc 1 95 44 is_stmt 0
 304 01a4 83B78400 		ld	a5,8(s1)
 305              	.LVL25:
 306              		.loc 1 95 36
 307 01a8 2334F700 		sd	a5,8(a4)
 308              	.L25:
  96:src/MemoryAllocator.cpp ****                     else
  97:src/MemoryAllocator.cpp ****                         headFree = 0;
  98:src/MemoryAllocator.cpp ****                 }
  99:src/MemoryAllocator.cpp **** 
 100:src/MemoryAllocator.cpp ****                 insertNewAllocatedFragment(oldAddr, size);
 309              		.loc 1 100 17 is_stmt 1
 310              		.loc 1 100 43 is_stmt 0
 311 01ac 93050900 		mv	a1,s2
 312 01b0 13850400 		mv	a0,s1
 313 01b4 97000000 		call	_ZN15MemoryAllocator26insertNewAllocatedFragmentEPvm
 313      E7800000 
 314              	.LVL26:
 101:src/MemoryAllocator.cpp **** 
 102:src/MemoryAllocator.cpp **** 
 103:src/MemoryAllocator.cpp **** 
 104:src/MemoryAllocator.cpp ****                 uint64 oldA = (uint64) ((char*)oldAddr + sizeof(AllocatedFragment));
 315              		.loc 1 104 17 is_stmt 1
 316              		.loc 1 104 56 is_stmt 0
 317 01bc 93840401 		addi	s1,s1,16
 318              	.LVL27:
 105:src/MemoryAllocator.cpp **** 
 106:src/MemoryAllocator.cpp ****                 return (void*)oldA;
 319              		.loc 1 106 17 is_stmt 1
 320              		.loc 1 106 31 is_stmt 0
 321 01c0 6F000006 		j	.L19
 322              	.LVL28:
 323              	.L23:
  87:src/MemoryAllocator.cpp **** 
 324              		.loc 1 87 21 is_stmt 1
  87:src/MemoryAllocator.cpp **** 
 325              		.loc 1 87 30 is_stmt 0
 326 01c4 17060000 		sd	a5,.LANCHOR0+16,a2
 326      2330F600 
 327 01cc 6FF0DFFB 		j	.L24
 328              	.LVL29:
 329              	.L26:
  97:src/MemoryAllocator.cpp ****                 }
 330              		.loc 1 97 25 is_stmt 1
  97:src/MemoryAllocator.cpp ****                 }
GAS LISTING /tmp/cctGEoaS.s 			page 9


 331              		.loc 1 97 34 is_stmt 0
 332 01d0 97070000 		sd	zero,.LANCHOR0+16,a5
 332      23B00700 
 333              	.LVL30:
 334 01d8 6FF05FFD 		j	.L25
 335              	.LVL31:
 336              	.L28:
 337              	.LBE6:
 107:src/MemoryAllocator.cpp **** 
 108:src/MemoryAllocator.cpp ****                 //__asm__ volatile("mv a0,%0" : : "r"(oldA));
 109:src/MemoryAllocator.cpp **** 
 110:src/MemoryAllocator.cpp ****                 //return;
 111:src/MemoryAllocator.cpp ****             }
 112:src/MemoryAllocator.cpp ****             else {
 113:src/MemoryAllocator.cpp ****                 if(prev != 0)
 114:src/MemoryAllocator.cpp ****                 {
 115:src/MemoryAllocator.cpp ****                     prev->next = 0;
 116:src/MemoryAllocator.cpp ****                 }
 117:src/MemoryAllocator.cpp ****                 else
 118:src/MemoryAllocator.cpp ****                 {
 119:src/MemoryAllocator.cpp ****                     headFree = 0;
 338              		.loc 1 119 21 is_stmt 1
 339              		.loc 1 119 30 is_stmt 0
 340 01dc 97070000 		sd	zero,.LANCHOR0+16,a5
 340      23B00700 
 341              	.LVL32:
 342              	.L21:
 343              	.LBE5:
 344              	.LBE4:
 345              	.LBE3:
 120:src/MemoryAllocator.cpp ****                 }
 121:src/MemoryAllocator.cpp ****             }
 122:src/MemoryAllocator.cpp ****         }
 123:src/MemoryAllocator.cpp ****         prev = curr;
 346              		.loc 1 123 9 is_stmt 1
 124:src/MemoryAllocator.cpp ****         curr = curr->next;
 347              		.loc 1 124 9
 123:src/MemoryAllocator.cpp ****         curr = curr->next;
 348              		.loc 1 123 14 is_stmt 0
 349 01e4 13870400 		mv	a4,s1
 350              		.loc 1 124 14
 351 01e8 83B48400 		ld	s1,8(s1)
 352              	.LVL33:
 353              	.L29:
 354              	.LBE2:
  74:src/MemoryAllocator.cpp **** 
 355              		.loc 1 74 5 is_stmt 1
  74:src/MemoryAllocator.cpp **** 
 356              		.loc 1 74 16
 357 01ec 63860402 		beqz	s1,.L20
 358              	.LBB10:
  76:src/MemoryAllocator.cpp **** 
 359              		.loc 1 76 9
 360              	.LBB9:
  76:src/MemoryAllocator.cpp **** 
 361              		.loc 1 76 18 is_stmt 0
 362 01f0 83B70400 		ld	a5,0(s1)
GAS LISTING /tmp/cctGEoaS.s 			page 10


  76:src/MemoryAllocator.cpp **** 
 363              		.loc 1 76 9
 364 01f4 E3E8D7FE 		bltu	a5,a3,.L21
 365              	.LBB8:
  78:src/MemoryAllocator.cpp ****             void* newAddr = ((char*)curr + newSize);
 366              		.loc 1 78 13 is_stmt 1
 367              	.LVL34:
  79:src/MemoryAllocator.cpp ****             if(newAddr <= HEAP_END_ADDR) {
 368              		.loc 1 79 13
  79:src/MemoryAllocator.cpp ****             if(newAddr <= HEAP_END_ADDR) {
 369              		.loc 1 79 19 is_stmt 0
 370 01f8 B387D400 		add	a5,s1,a3
 371              	.LVL35:
  80:src/MemoryAllocator.cpp **** 
 372              		.loc 1 80 13 is_stmt 1
 373              	.LBB7:
  80:src/MemoryAllocator.cpp **** 
 374              		.loc 1 80 24 is_stmt 0
 375 01fc 17060000 		la	a2,HEAP_END_ADDR
 375      03360600 
 376 0204 03360600 		ld	a2,0(a2)
  80:src/MemoryAllocator.cpp **** 
 377              		.loc 1 80 13
 378 0208 E37CF6F6 		bgeu	a2,a5,.L31
 113:src/MemoryAllocator.cpp ****                 {
 379              		.loc 1 113 17 is_stmt 1
 380 020c E30807FC 		beqz	a4,.L28
 115:src/MemoryAllocator.cpp ****                 }
 381              		.loc 1 115 21
 115:src/MemoryAllocator.cpp ****                 }
 382              		.loc 1 115 32 is_stmt 0
 383 0210 23340700 		sd	zero,8(a4)
 384 0214 6FF01FFD 		j	.L21
 385              	.LVL36:
 386              	.L20:
 387              	.LBE7:
 388              	.LBE8:
 389              	.LBE9:
 390              	.LBE10:
 125:src/MemoryAllocator.cpp ****     }
 126:src/MemoryAllocator.cpp **** 
 127:src/MemoryAllocator.cpp ****     uint64 x = 0;
 391              		.loc 1 127 5 is_stmt 1
 128:src/MemoryAllocator.cpp ****     __asm__ volatile("mv a0,%0" : : "r"(x));
 392              		.loc 1 128 5
 393              		.loc 1 128 44 is_stmt 0
 394 0218 93070000 		li	a5,0
 395              	#APP
 396              	# 128 "src/MemoryAllocator.cpp" 1
 129              	
 130:src/MemoryAllocator.cpp ****     return 0;
 397              		mv a0,a5
 398              	# 0 "" 2
 399              		.loc 1 130 5 is_stmt 1
 400              	.LVL37:
 401              	#NO_APP
 402              	.L19:
GAS LISTING /tmp/cctGEoaS.s 			page 11


 131:src/MemoryAllocator.cpp **** }
 403              		.loc 1 131 1 is_stmt 0
 404 0220 13850400 		mv	a0,s1
 405 0224 83308101 		ld	ra,24(sp)
 406              		.cfi_restore 1
 407 0228 03340101 		ld	s0,16(sp)
 408              		.cfi_restore 8
 409              		.cfi_def_cfa 2, 32
 410 022c 83348100 		ld	s1,8(sp)
 411              		.cfi_restore 9
 412 0230 03390100 		ld	s2,0(sp)
 413              		.cfi_restore 18
 414              	.LVL38:
 415 0234 13010102 		addi	sp,sp,32
 416              		.cfi_def_cfa_offset 0
 417 0238 67800000 		jr	ra
 418              		.cfi_endproc
 419              	.LFE4:
 421              		.align	2
 422              		.globl	_ZN15MemoryAllocator20insertNewFreeSegmentEPvm
 424              	_ZN15MemoryAllocator20insertNewFreeSegmentEPvm:
 425              	.LFB5:
 132:src/MemoryAllocator.cpp **** 
 133:src/MemoryAllocator.cpp **** void MemoryAllocator::insertNewFreeSegment(void* addr, size_t size)
 134:src/MemoryAllocator.cpp **** {
 426              		.loc 1 134 1 is_stmt 1
 427              		.cfi_startproc
 428              	.LVL39:
 429 023c 130101FE 		addi	sp,sp,-32
 430              		.cfi_def_cfa_offset 32
 431 0240 233C1100 		sd	ra,24(sp)
 432 0244 23388100 		sd	s0,16(sp)
 433 0248 23349100 		sd	s1,8(sp)
 434 024c 23302101 		sd	s2,0(sp)
 435              		.cfi_offset 1, -8
 436              		.cfi_offset 8, -16
 437              		.cfi_offset 9, -24
 438              		.cfi_offset 18, -32
 439 0250 13040102 		addi	s0,sp,32
 440              		.cfi_def_cfa 8, 0
 441 0254 93040500 		mv	s1,a0
 442 0258 13890500 		mv	s2,a1
 135:src/MemoryAllocator.cpp ****     initMemory();
 443              		.loc 1 135 5
 444              		.loc 1 135 15 is_stmt 0
 445 025c 97000000 		call	_ZN15MemoryAllocator10initMemoryEv
 445      E7800000 
 446              	.LVL40:
 136:src/MemoryAllocator.cpp ****     FreeFragment* prev = 0;
 447              		.loc 1 136 5 is_stmt 1
 137:src/MemoryAllocator.cpp ****     FreeFragment* curr = headFree;
 448              		.loc 1 137 5
 449              		.loc 1 137 19 is_stmt 0
 450 0264 97070000 		ld	a5,.LANCHOR0+16
 450      83B70700 
 451              	.LVL41:
 138:src/MemoryAllocator.cpp ****     FreeFragment* newSegment = (FreeFragment*) addr;
GAS LISTING /tmp/cctGEoaS.s 			page 12


 452              		.loc 1 138 5 is_stmt 1
 139:src/MemoryAllocator.cpp ****     newSegment->size = size;
 453              		.loc 1 139 5
 454              		.loc 1 139 22 is_stmt 0
 455 026c 23B02401 		sd	s2,0(s1)
 140:src/MemoryAllocator.cpp ****     newSegment->next = 0;
 456              		.loc 1 140 5 is_stmt 1
 457              		.loc 1 140 22 is_stmt 0
 458 0270 23B40400 		sd	zero,8(s1)
 136:src/MemoryAllocator.cpp ****     FreeFragment* curr = headFree;
 459              		.loc 1 136 19
 460 0274 13070000 		li	a4,0
 461              	.LVL42:
 462              	.L35:
 141:src/MemoryAllocator.cpp ****     while(curr != 0)
 463              		.loc 1 141 5 is_stmt 1
 464              		.loc 1 141 16
 465 0278 638C0700 		beqz	a5,.L33
 142:src/MemoryAllocator.cpp ****     {
 143:src/MemoryAllocator.cpp ****         if((void*)curr > addr)
 466              		.loc 1 143 9
 467 027c 63E8F400 		bgtu	a5,s1,.L39
 144:src/MemoryAllocator.cpp ****         {
 145:src/MemoryAllocator.cpp ****             newSegment->next = curr;
 146:src/MemoryAllocator.cpp ****             break;
 147:src/MemoryAllocator.cpp ****         }
 148:src/MemoryAllocator.cpp **** 
 149:src/MemoryAllocator.cpp ****         prev = curr;
 468              		.loc 1 149 9
 469              	.LVL43:
 150:src/MemoryAllocator.cpp ****         curr = curr->next;
 470              		.loc 1 150 9
 149:src/MemoryAllocator.cpp ****         curr = curr->next;
 471              		.loc 1 149 14 is_stmt 0
 472 0280 13870700 		mv	a4,a5
 473              		.loc 1 150 14
 474 0284 83B78700 		ld	a5,8(a5)
 475              	.LVL44:
 141:src/MemoryAllocator.cpp ****     {
 476              		.loc 1 141 5
 477 0288 6FF01FFF 		j	.L35
 478              	.L39:
 145:src/MemoryAllocator.cpp ****             break;
 479              		.loc 1 145 13 is_stmt 1
 145:src/MemoryAllocator.cpp ****             break;
 480              		.loc 1 145 30 is_stmt 0
 481 028c 23B4F400 		sd	a5,8(s1)
 146:src/MemoryAllocator.cpp ****         }
 482              		.loc 1 146 13 is_stmt 1
 483              	.L33:
 151:src/MemoryAllocator.cpp ****     }
 152:src/MemoryAllocator.cpp **** 
 153:src/MemoryAllocator.cpp ****     if(prev == 0)
 484              		.loc 1 153 5
 485 0290 63000702 		beqz	a4,.L40
 154:src/MemoryAllocator.cpp ****         headFree = newSegment;
 155:src/MemoryAllocator.cpp ****     else
GAS LISTING /tmp/cctGEoaS.s 			page 13


 156:src/MemoryAllocator.cpp ****         prev->next = newSegment;
 486              		.loc 1 156 9
 487              		.loc 1 156 20 is_stmt 0
 488 0294 23349700 		sd	s1,8(a4)
 489              	.LVL45:
 490              	.L32:
 157:src/MemoryAllocator.cpp **** }
 491              		.loc 1 157 1
 492 0298 83308101 		ld	ra,24(sp)
 493              		.cfi_remember_state
 494              		.cfi_restore 1
 495 029c 03340101 		ld	s0,16(sp)
 496              		.cfi_restore 8
 497              		.cfi_def_cfa 2, 32
 498 02a0 83348100 		ld	s1,8(sp)
 499              		.cfi_restore 9
 500              	.LVL46:
 501 02a4 03390100 		ld	s2,0(sp)
 502              		.cfi_restore 18
 503              	.LVL47:
 504 02a8 13010102 		addi	sp,sp,32
 505              		.cfi_def_cfa_offset 0
 506 02ac 67800000 		jr	ra
 507              	.LVL48:
 508              	.L40:
 509              		.cfi_restore_state
 154:src/MemoryAllocator.cpp ****         headFree = newSegment;
 510              		.loc 1 154 9 is_stmt 1
 154:src/MemoryAllocator.cpp ****         headFree = newSegment;
 511              		.loc 1 154 18 is_stmt 0
 512 02b0 97070000 		sd	s1,.LANCHOR0+16,a5
 512      23B09700 
 513              	.LVL49:
 514 02b8 6FF01FFE 		j	.L32
 515              		.cfi_endproc
 516              	.LFE5:
 518              		.align	2
 519              		.globl	_ZN15MemoryAllocator16tryToFreeSegmentEPv
 521              	_ZN15MemoryAllocator16tryToFreeSegmentEPv:
 522              	.LFB6:
 158:src/MemoryAllocator.cpp **** 
 159:src/MemoryAllocator.cpp **** void MemoryAllocator::tryToFreeSegment(void* addr)
 160:src/MemoryAllocator.cpp **** {
 523              		.loc 1 160 1 is_stmt 1
 524              		.cfi_startproc
 525              	.LVL50:
 526 02bc 130101FE 		addi	sp,sp,-32
 527              		.cfi_def_cfa_offset 32
 528 02c0 233C1100 		sd	ra,24(sp)
 529 02c4 23388100 		sd	s0,16(sp)
 530 02c8 23349100 		sd	s1,8(sp)
 531 02cc 23302101 		sd	s2,0(sp)
 532              		.cfi_offset 1, -8
 533              		.cfi_offset 8, -16
 534              		.cfi_offset 9, -24
 535              		.cfi_offset 18, -32
 536 02d0 13040102 		addi	s0,sp,32
GAS LISTING /tmp/cctGEoaS.s 			page 14


 537              		.cfi_def_cfa 8, 0
 538 02d4 13090500 		mv	s2,a0
 161:src/MemoryAllocator.cpp ****     initMemory();
 539              		.loc 1 161 5
 540              		.loc 1 161 15 is_stmt 0
 541 02d8 97000000 		call	_ZN15MemoryAllocator10initMemoryEv
 541      E7800000 
 542              	.LVL51:
 162:src/MemoryAllocator.cpp ****     AllocatedFragment* prev = 0;
 543              		.loc 1 162 5 is_stmt 1
 163:src/MemoryAllocator.cpp ****     AllocatedFragment* curr = headAllocated;
 544              		.loc 1 163 5
 545              		.loc 1 163 24 is_stmt 0
 546 02e0 97040000 		ld	s1,.LANCHOR0+8
 546      83B40400 
 547              	.LVL52:
 164:src/MemoryAllocator.cpp ****     int found = 0;
 548              		.loc 1 164 5 is_stmt 1
 549              		.loc 1 164 9 is_stmt 0
 550 02e8 93060000 		li	a3,0
 162:src/MemoryAllocator.cpp ****     AllocatedFragment* prev = 0;
 551              		.loc 1 162 24
 552 02ec 13070000 		li	a4,0
 553 02f0 6F000003 		j	.L46
 554              	.LVL53:
 555              	.L44:
 165:src/MemoryAllocator.cpp ****     while(curr != 0 && !found)
 166:src/MemoryAllocator.cpp ****     {
 167:src/MemoryAllocator.cpp ****         if(addr == (void*)((char*)curr + sizeof(AllocatedFragment)))
 168:src/MemoryAllocator.cpp ****         {
 169:src/MemoryAllocator.cpp ****             if(prev != 0) {
 170:src/MemoryAllocator.cpp ****                 prev->next = curr->next;
 171:src/MemoryAllocator.cpp ****             }
 172:src/MemoryAllocator.cpp ****             else {
 173:src/MemoryAllocator.cpp ****                 headAllocated = curr->next;
 556              		.loc 1 173 17 is_stmt 1
 557              		.loc 1 173 39 is_stmt 0
 558 02f4 83B78400 		ld	a5,8(s1)
 559              		.loc 1 173 31
 560 02f8 17070000 		sd	a5,.LANCHOR0+8,a4
 560      2330F700 
 561              	.LVL54:
 562              	.L45:
 174:src/MemoryAllocator.cpp ****             }
 175:src/MemoryAllocator.cpp **** 
 176:src/MemoryAllocator.cpp ****             insertNewFreeSegment((void*)curr, curr->size + sizeof(AllocatedFragment));
 563              		.loc 1 176 13 is_stmt 1
 564              		.loc 1 176 53 is_stmt 0
 565 0300 83B50400 		ld	a1,0(s1)
 566              		.loc 1 176 33
 567 0304 93850501 		addi	a1,a1,16
 568 0308 13850400 		mv	a0,s1
 569 030c 97000000 		call	_ZN15MemoryAllocator20insertNewFreeSegmentEPvm
 569      E7800000 
 570              	.LVL55:
 177:src/MemoryAllocator.cpp **** 
 178:src/MemoryAllocator.cpp ****             found = 1;
GAS LISTING /tmp/cctGEoaS.s 			page 15


 571              		.loc 1 178 13 is_stmt 1
 572              		.loc 1 178 19 is_stmt 0
 573 0314 93061000 		li	a3,1
 574              	.LVL56:
 575              	.L43:
 179:src/MemoryAllocator.cpp ****         }
 180:src/MemoryAllocator.cpp **** 
 181:src/MemoryAllocator.cpp ****         prev = curr;
 576              		.loc 1 181 9 is_stmt 1
 182:src/MemoryAllocator.cpp ****         curr = curr->next;
 577              		.loc 1 182 9
 181:src/MemoryAllocator.cpp ****         curr = curr->next;
 578              		.loc 1 181 14 is_stmt 0
 579 0318 13870400 		mv	a4,s1
 580              		.loc 1 182 14
 581 031c 83B48400 		ld	s1,8(s1)
 582              	.LVL57:
 583              	.L46:
 165:src/MemoryAllocator.cpp ****     {
 584              		.loc 1 165 5 is_stmt 1
 165:src/MemoryAllocator.cpp ****     {
 585              		.loc 1 165 21
 586 0320 63800402 		beqz	s1,.L42
 165:src/MemoryAllocator.cpp ****     {
 587              		.loc 1 165 21 is_stmt 0 discriminator 1
 588 0324 639E0600 		bnez	a3,.L42
 167:src/MemoryAllocator.cpp ****         {
 589              		.loc 1 167 9 is_stmt 1
 167:src/MemoryAllocator.cpp ****         {
 590              		.loc 1 167 20 is_stmt 0
 591 0328 93870401 		addi	a5,s1,16
 167:src/MemoryAllocator.cpp ****         {
 592              		.loc 1 167 9
 593 032c E39627FF 		bne	a5,s2,.L43
 169:src/MemoryAllocator.cpp ****                 prev->next = curr->next;
 594              		.loc 1 169 13 is_stmt 1
 595 0330 E30207FC 		beqz	a4,.L44
 170:src/MemoryAllocator.cpp ****             }
 596              		.loc 1 170 17
 170:src/MemoryAllocator.cpp ****             }
 597              		.loc 1 170 36 is_stmt 0
 598 0334 83B78400 		ld	a5,8(s1)
 170:src/MemoryAllocator.cpp ****             }
 599              		.loc 1 170 28
 600 0338 2334F700 		sd	a5,8(a4)
 601 033c 6FF05FFC 		j	.L45
 602              	.L42:
 183:src/MemoryAllocator.cpp ****     }
 184:src/MemoryAllocator.cpp **** 
 185:src/MemoryAllocator.cpp ****     if(found) {
 603              		.loc 1 185 5 is_stmt 1
 604 0340 63800602 		beqz	a3,.L47
 186:src/MemoryAllocator.cpp ****         __asm__ volatile("li a0, 0");
 605              		.loc 1 186 9
 606              		.loc 1 186 37 is_stmt 0
 607              	#APP
 608              	# 186 "src/MemoryAllocator.cpp" 1
GAS LISTING /tmp/cctGEoaS.s 			page 16


 187              	    }
 609              		li a0, 0
 610              	# 0 "" 2
 611              	#NO_APP
 612              	.L41:
 188:src/MemoryAllocator.cpp ****     else {
 189:src/MemoryAllocator.cpp ****         __asm__ volatile("li a0, 1");
 190:src/MemoryAllocator.cpp ****     }
 191:src/MemoryAllocator.cpp **** }...
 613              		.loc 1 191 1
 614 0348 83308101 		ld	ra,24(sp)
 615              		.cfi_remember_state
 616              		.cfi_restore 1
 617 034c 03340101 		ld	s0,16(sp)
 618              		.cfi_restore 8
 619              		.cfi_def_cfa 2, 32
 620 0350 83348100 		ld	s1,8(sp)
 621              		.cfi_restore 9
 622              	.LVL58:
 623 0354 03390100 		ld	s2,0(sp)
 624              		.cfi_restore 18
 625              	.LVL59:
 626 0358 13010102 		addi	sp,sp,32
 627              		.cfi_def_cfa_offset 0
 628 035c 67800000 		jr	ra
 629              	.LVL60:
 630              	.L47:
 631              		.cfi_restore_state
 189:src/MemoryAllocator.cpp ****         __asm__ volatile("li a0, 1");
 632              		.loc 1 189 9 is_stmt 1
 189:src/MemoryAllocator.cpp ****         __asm__ volatile("li a0, 1");
 633              		.loc 1 189 37 is_stmt 0
 634              	#APP
 635              	# 189 "src/MemoryAllocator.cpp" 1
 636              		li a0, 1
 637              	# 0 "" 2
 638              		.loc 1 191 1
 639              	#NO_APP
 640 0364 6FF05FFE 		j	.L41
 641              		.cfi_endproc
 642              	.LFE6:
 644              		.globl	_ZN15MemoryAllocator18memoryInitiliaizedE
 645              		.globl	_ZN15MemoryAllocator8headFreeE
 646              		.globl	_ZN15MemoryAllocator13headAllocatedE
 647              		.bss
 648              		.align	3
 649              		.set	.LANCHOR0,. + 0
 652              	_ZN15MemoryAllocator18memoryInitiliaizedE:
 653 0000 00000000 		.zero	4
 654 0004 00000000 		.zero	4
 657              	_ZN15MemoryAllocator13headAllocatedE:
 658 0008 00000000 		.zero	8
 658      00000000 
 661              	_ZN15MemoryAllocator8headFreeE:
 662 0010 00000000 		.zero	8
 662      00000000 
 663              		.text
GAS LISTING /tmp/cctGEoaS.s 			page 17


 664              	.Letext0:
 665              		.file 2 "src/../h/../lib/hw.h"
 666              		.file 3 "src/../h/MemoryAllocator.h"
GAS LISTING /tmp/cctGEoaS.s 			page 18


DEFINED SYMBOLS
                            *ABS*:0000000000000000 MemoryAllocator.cpp
     /tmp/cctGEoaS.s:9      .text:0000000000000000 _ZN15MemoryAllocator9mem_allocEm
     /tmp/cctGEoaS.s:13     .text:0000000000000000 .L0 
     /tmp/cctGEoaS.s:15     .text:0000000000000000 .L0 
     /tmp/cctGEoaS.s:16     .text:0000000000000004 .L0 
     /tmp/cctGEoaS.s:18     .text:0000000000000008 .L0 
     /tmp/cctGEoaS.s:20     .text:000000000000000c .L0 
     /tmp/cctGEoaS.s:22     .text:000000000000000c .L0 
     /tmp/cctGEoaS.s:23     .text:000000000000000c .L0 
     /tmp/cctGEoaS.s:26     .text:0000000000000014 .L0 
     /tmp/cctGEoaS.s:27     .text:0000000000000014 .L0 
     /tmp/cctGEoaS.s:29     .text:0000000000000018 .L0 
     /tmp/cctGEoaS.s:31     .text:000000000000001c .L0 
     /tmp/cctGEoaS.s:37     .text:000000000000001c _ZN15MemoryAllocator8mem_freeEPv
     /tmp/cctGEoaS.s:40     .text:000000000000001c .L0 
     /tmp/cctGEoaS.s:42     .text:000000000000001c .L0 
     /tmp/cctGEoaS.s:43     .text:0000000000000020 .L0 
     /tmp/cctGEoaS.s:45     .text:0000000000000024 .L0 
     /tmp/cctGEoaS.s:47     .text:0000000000000028 .L0 
     /tmp/cctGEoaS.s:49     .text:0000000000000028 .L0 
     /tmp/cctGEoaS.s:50     .text:0000000000000028 .L0 
     /tmp/cctGEoaS.s:53     .text:0000000000000030 .L0 
     /tmp/cctGEoaS.s:54     .text:0000000000000030 .L0 
     /tmp/cctGEoaS.s:56     .text:0000000000000034 .L0 
     /tmp/cctGEoaS.s:58     .text:0000000000000038 .L0 
     /tmp/cctGEoaS.s:64     .text:0000000000000038 _ZN15MemoryAllocator10initMemoryEv
     /tmp/cctGEoaS.s:67     .text:0000000000000038 .L0 
     /tmp/cctGEoaS.s:68     .text:0000000000000038 .L0 
     /tmp/cctGEoaS.s:69     .text:000000000000003c .L0 
     /tmp/cctGEoaS.s:71     .text:0000000000000040 .L0 
     /tmp/cctGEoaS.s:73     .text:0000000000000044 .L0 
     /tmp/cctGEoaS.s:75     .text:0000000000000044 .L0 
     /tmp/cctGEoaS.s:76     .text:0000000000000044 .L0 
     /tmp/cctGEoaS.s:78     .text:000000000000004c .L0 
     /tmp/cctGEoaS.s:81     .text:0000000000000054 .L0 
     /tmp/cctGEoaS.s:82     .text:0000000000000054 .L0 
     /tmp/cctGEoaS.s:86     .text:0000000000000064 .L0 
     /tmp/cctGEoaS.s:87     .text:0000000000000064 .L0 
     /tmp/cctGEoaS.s:89     .text:0000000000000068 .L0 
     /tmp/cctGEoaS.s:90     .text:0000000000000068 .L0 
     /tmp/cctGEoaS.s:94     .text:0000000000000078 .L0 
     /tmp/cctGEoaS.s:95     .text:0000000000000078 .L0 
     /tmp/cctGEoaS.s:97     .text:000000000000007c .L0 
     /tmp/cctGEoaS.s:98     .text:000000000000007c .L0 
     /tmp/cctGEoaS.s:102    .text:000000000000008c .L0 
     /tmp/cctGEoaS.s:104    .text:0000000000000090 .L0 
     /tmp/cctGEoaS.s:107    .text:0000000000000094 .L0 
     /tmp/cctGEoaS.s:108    .text:0000000000000098 .L0 
     /tmp/cctGEoaS.s:109    .text:0000000000000098 .L0 
     /tmp/cctGEoaS.s:111    .text:000000000000009c .L0 
     /tmp/cctGEoaS.s:113    .text:00000000000000a0 .L0 
     /tmp/cctGEoaS.s:119    .text:00000000000000a0 _ZN15MemoryAllocator26insertNewAllocatedFragmentEPvm
     /tmp/cctGEoaS.s:122    .text:00000000000000a0 .L0 
     /tmp/cctGEoaS.s:124    .text:00000000000000a0 .L0 
     /tmp/cctGEoaS.s:125    .text:00000000000000a4 .L0 
     /tmp/cctGEoaS.s:130    .text:00000000000000b4 .L0 
GAS LISTING /tmp/cctGEoaS.s 			page 19


     /tmp/cctGEoaS.s:131    .text:00000000000000b4 .L0 
     /tmp/cctGEoaS.s:132    .text:00000000000000b4 .L0 
     /tmp/cctGEoaS.s:133    .text:00000000000000b4 .L0 
     /tmp/cctGEoaS.s:135    .text:00000000000000b8 .L0 
     /tmp/cctGEoaS.s:139    .text:00000000000000c0 .L0 
     /tmp/cctGEoaS.s:140    .text:00000000000000c0 .L0 
     /tmp/cctGEoaS.s:143    .text:00000000000000c8 .L0 
     /tmp/cctGEoaS.s:144    .text:00000000000000c8 .L0 
     /tmp/cctGEoaS.s:145    .text:00000000000000c8 .L0 
     /tmp/cctGEoaS.s:148    .text:00000000000000d0 .L0 
     /tmp/cctGEoaS.s:152    .text:00000000000000d4 .L0 
     /tmp/cctGEoaS.s:153    .text:00000000000000d4 .L0 
     /tmp/cctGEoaS.s:155    .text:00000000000000d8 .L0 
     /tmp/cctGEoaS.s:158    .text:00000000000000dc .L0 
     /tmp/cctGEoaS.s:159    .text:00000000000000dc .L0 
     /tmp/cctGEoaS.s:160    .text:00000000000000dc .L0 
     /tmp/cctGEoaS.s:162    .text:00000000000000e0 .L0 
     /tmp/cctGEoaS.s:165    .text:00000000000000e4 .L0 
     /tmp/cctGEoaS.s:169    .text:00000000000000e8 .L0 
     /tmp/cctGEoaS.s:170    .text:00000000000000e8 .L0 
     /tmp/cctGEoaS.s:171    .text:00000000000000e8 .L0 
     /tmp/cctGEoaS.s:173    .text:00000000000000ec .L0 
     /tmp/cctGEoaS.s:174    .text:00000000000000ec .L0 
     /tmp/cctGEoaS.s:176    .text:00000000000000f0 .L0 
     /tmp/cctGEoaS.s:178    .text:00000000000000f4 .L0 
     /tmp/cctGEoaS.s:180    .text:00000000000000f8 .L0 
     /tmp/cctGEoaS.s:181    .text:00000000000000f8 .L0 
     /tmp/cctGEoaS.s:183    .text:00000000000000fc .L0 
     /tmp/cctGEoaS.s:184    .text:00000000000000fc .L0 
     /tmp/cctGEoaS.s:188    .text:0000000000000100 .L0 
     /tmp/cctGEoaS.s:189    .text:0000000000000104 .L0 
     /tmp/cctGEoaS.s:190    .text:0000000000000104 .L0 
     /tmp/cctGEoaS.s:192    .text:0000000000000108 .L0 
     /tmp/cctGEoaS.s:193    .text:0000000000000108 .L0 
     /tmp/cctGEoaS.s:195    .text:000000000000010c .L0 
     /tmp/cctGEoaS.s:198    .text:0000000000000110 .L0 
     /tmp/cctGEoaS.s:201    .text:0000000000000114 .L0 
     /tmp/cctGEoaS.s:205    .text:0000000000000118 .L0 
     /tmp/cctGEoaS.s:207    .text:0000000000000118 .L0 
     /tmp/cctGEoaS.s:209    .text:000000000000011c .L0 
     /tmp/cctGEoaS.s:210    .text:000000000000011c .L0 
     /tmp/cctGEoaS.s:214    .text:0000000000000124 .L0 
     /tmp/cctGEoaS.s:215    .text:0000000000000124 .L0 
     /tmp/cctGEoaS.s:221    .text:0000000000000130 .L0 
     /tmp/cctGEoaS.s:222    .text:0000000000000130 .L0 
     /tmp/cctGEoaS.s:228    .text:0000000000000140 .L0 
     /tmp/cctGEoaS.s:229    .text:0000000000000140 .L0 
     /tmp/cctGEoaS.s:231    .text:0000000000000148 .L0 
     /tmp/cctGEoaS.s:237    .text:0000000000000148 _ZN15MemoryAllocator21tryToAllocateFragmentEm
     /tmp/cctGEoaS.s:240    .text:0000000000000148 .L0 
     /tmp/cctGEoaS.s:242    .text:0000000000000148 .L0 
     /tmp/cctGEoaS.s:243    .text:000000000000014c .L0 
     /tmp/cctGEoaS.s:248    .text:000000000000015c .L0 
     /tmp/cctGEoaS.s:249    .text:000000000000015c .L0 
     /tmp/cctGEoaS.s:250    .text:000000000000015c .L0 
     /tmp/cctGEoaS.s:251    .text:000000000000015c .L0 
     /tmp/cctGEoaS.s:253    .text:0000000000000160 .L0 
GAS LISTING /tmp/cctGEoaS.s 			page 20


     /tmp/cctGEoaS.s:256    .text:0000000000000164 .L0 
     /tmp/cctGEoaS.s:257    .text:0000000000000164 .L0 
     /tmp/cctGEoaS.s:260    .text:000000000000016c .L0 
     /tmp/cctGEoaS.s:261    .text:000000000000016c .L0 
     /tmp/cctGEoaS.s:262    .text:000000000000016c .L0 
     /tmp/cctGEoaS.s:265    .text:0000000000000174 .L0 
     /tmp/cctGEoaS.s:266    .text:0000000000000174 .L0 
     /tmp/cctGEoaS.s:269    .text:0000000000000178 .L0 
     /tmp/cctGEoaS.s:279    .text:0000000000000180 .L0 
     /tmp/cctGEoaS.s:280    .text:0000000000000180 .L0 
     /tmp/cctGEoaS.s:282    .text:0000000000000184 .L0 
     /tmp/cctGEoaS.s:283    .text:0000000000000184 .L0 
     /tmp/cctGEoaS.s:286    .text:0000000000000188 .L0 
     /tmp/cctGEoaS.s:287    .text:0000000000000188 .L0 
     /tmp/cctGEoaS.s:289    .text:000000000000018c .L0 
     /tmp/cctGEoaS.s:291    .text:0000000000000190 .L0 
     /tmp/cctGEoaS.s:292    .text:0000000000000190 .L0 
     /tmp/cctGEoaS.s:294    .text:0000000000000194 .L0 
     /tmp/cctGEoaS.s:297    .text:0000000000000198 .L0 
     /tmp/cctGEoaS.s:299    .text:000000000000019c .L0 
     /tmp/cctGEoaS.s:301    .text:00000000000001a0 .L0 
     /tmp/cctGEoaS.s:303    .text:00000000000001a4 .L0 
     /tmp/cctGEoaS.s:304    .text:00000000000001a4 .L0 
     /tmp/cctGEoaS.s:307    .text:00000000000001a8 .L0 
     /tmp/cctGEoaS.s:310    .text:00000000000001ac .L0 
     /tmp/cctGEoaS.s:311    .text:00000000000001ac .L0 
     /tmp/cctGEoaS.s:316    .text:00000000000001bc .L0 
     /tmp/cctGEoaS.s:317    .text:00000000000001bc .L0 
     /tmp/cctGEoaS.s:320    .text:00000000000001c0 .L0 
     /tmp/cctGEoaS.s:321    .text:00000000000001c0 .L0 
     /tmp/cctGEoaS.s:325    .text:00000000000001c4 .L0 
     /tmp/cctGEoaS.s:326    .text:00000000000001c4 .L0 
     /tmp/cctGEoaS.s:331    .text:00000000000001d0 .L0 
     /tmp/cctGEoaS.s:332    .text:00000000000001d0 .L0 
     /tmp/cctGEoaS.s:339    .text:00000000000001dc .L0 
     /tmp/cctGEoaS.s:340    .text:00000000000001dc .L0 
     /tmp/cctGEoaS.s:347    .text:00000000000001e4 .L0 
     /tmp/cctGEoaS.s:348    .text:00000000000001e4 .L0 
     /tmp/cctGEoaS.s:349    .text:00000000000001e4 .L0 
     /tmp/cctGEoaS.s:351    .text:00000000000001e8 .L0 
     /tmp/cctGEoaS.s:356    .text:00000000000001ec .L0 
     /tmp/cctGEoaS.s:357    .text:00000000000001ec .L0 
     /tmp/cctGEoaS.s:361    .text:00000000000001f0 .L0 
     /tmp/cctGEoaS.s:362    .text:00000000000001f0 .L0 
     /tmp/cctGEoaS.s:364    .text:00000000000001f4 .L0 
     /tmp/cctGEoaS.s:368    .text:00000000000001f8 .L0 
     /tmp/cctGEoaS.s:369    .text:00000000000001f8 .L0 
     /tmp/cctGEoaS.s:370    .text:00000000000001f8 .L0 
     /tmp/cctGEoaS.s:374    .text:00000000000001fc .L0 
     /tmp/cctGEoaS.s:375    .text:00000000000001fc .L0 
     /tmp/cctGEoaS.s:378    .text:0000000000000208 .L0 
     /tmp/cctGEoaS.s:380    .text:000000000000020c .L0 
     /tmp/cctGEoaS.s:382    .text:0000000000000210 .L0 
     /tmp/cctGEoaS.s:383    .text:0000000000000210 .L0 
     /tmp/cctGEoaS.s:392    .text:0000000000000218 .L0 
     /tmp/cctGEoaS.s:393    .text:0000000000000218 .L0 
     /tmp/cctGEoaS.s:394    .text:0000000000000218 .L0 
GAS LISTING /tmp/cctGEoaS.s 			page 21


     /tmp/cctGEoaS.s:403    .text:0000000000000220 .L0 
     /tmp/cctGEoaS.s:404    .text:0000000000000220 .L0 
     /tmp/cctGEoaS.s:406    .text:0000000000000228 .L0 
     /tmp/cctGEoaS.s:408    .text:000000000000022c .L0 
     /tmp/cctGEoaS.s:409    .text:000000000000022c .L0 
     /tmp/cctGEoaS.s:411    .text:0000000000000230 .L0 
     /tmp/cctGEoaS.s:413    .text:0000000000000234 .L0 
     /tmp/cctGEoaS.s:416    .text:0000000000000238 .L0 
     /tmp/cctGEoaS.s:418    .text:000000000000023c .L0 
     /tmp/cctGEoaS.s:424    .text:000000000000023c _ZN15MemoryAllocator20insertNewFreeSegmentEPvm
     /tmp/cctGEoaS.s:427    .text:000000000000023c .L0 
     /tmp/cctGEoaS.s:429    .text:000000000000023c .L0 
     /tmp/cctGEoaS.s:430    .text:0000000000000240 .L0 
     /tmp/cctGEoaS.s:435    .text:0000000000000250 .L0 
     /tmp/cctGEoaS.s:436    .text:0000000000000250 .L0 
     /tmp/cctGEoaS.s:437    .text:0000000000000250 .L0 
     /tmp/cctGEoaS.s:438    .text:0000000000000250 .L0 
     /tmp/cctGEoaS.s:440    .text:0000000000000254 .L0 
     /tmp/cctGEoaS.s:444    .text:000000000000025c .L0 
     /tmp/cctGEoaS.s:445    .text:000000000000025c .L0 
     /tmp/cctGEoaS.s:448    .text:0000000000000264 .L0 
     /tmp/cctGEoaS.s:449    .text:0000000000000264 .L0 
     /tmp/cctGEoaS.s:450    .text:0000000000000264 .L0 
     /tmp/cctGEoaS.s:453    .text:000000000000026c .L0 
     /tmp/cctGEoaS.s:454    .text:000000000000026c .L0 
     /tmp/cctGEoaS.s:455    .text:000000000000026c .L0 
     /tmp/cctGEoaS.s:457    .text:0000000000000270 .L0 
     /tmp/cctGEoaS.s:458    .text:0000000000000270 .L0 
     /tmp/cctGEoaS.s:460    .text:0000000000000274 .L0 
     /tmp/cctGEoaS.s:464    .text:0000000000000278 .L0 
     /tmp/cctGEoaS.s:465    .text:0000000000000278 .L0 
     /tmp/cctGEoaS.s:467    .text:000000000000027c .L0 
     /tmp/cctGEoaS.s:470    .text:0000000000000280 .L0 
     /tmp/cctGEoaS.s:471    .text:0000000000000280 .L0 
     /tmp/cctGEoaS.s:472    .text:0000000000000280 .L0 
     /tmp/cctGEoaS.s:474    .text:0000000000000284 .L0 
     /tmp/cctGEoaS.s:477    .text:0000000000000288 .L0 
     /tmp/cctGEoaS.s:480    .text:000000000000028c .L0 
     /tmp/cctGEoaS.s:481    .text:000000000000028c .L0 
     /tmp/cctGEoaS.s:484    .text:0000000000000290 .L0 
     /tmp/cctGEoaS.s:485    .text:0000000000000290 .L0 
     /tmp/cctGEoaS.s:487    .text:0000000000000294 .L0 
     /tmp/cctGEoaS.s:488    .text:0000000000000294 .L0 
     /tmp/cctGEoaS.s:492    .text:0000000000000298 .L0 
     /tmp/cctGEoaS.s:493    .text:000000000000029c .L0 
     /tmp/cctGEoaS.s:494    .text:000000000000029c .L0 
     /tmp/cctGEoaS.s:496    .text:00000000000002a0 .L0 
     /tmp/cctGEoaS.s:497    .text:00000000000002a0 .L0 
     /tmp/cctGEoaS.s:499    .text:00000000000002a4 .L0 
     /tmp/cctGEoaS.s:502    .text:00000000000002a8 .L0 
     /tmp/cctGEoaS.s:505    .text:00000000000002ac .L0 
     /tmp/cctGEoaS.s:509    .text:00000000000002b0 .L0 
     /tmp/cctGEoaS.s:511    .text:00000000000002b0 .L0 
     /tmp/cctGEoaS.s:512    .text:00000000000002b0 .L0 
     /tmp/cctGEoaS.s:515    .text:00000000000002bc .L0 
     /tmp/cctGEoaS.s:521    .text:00000000000002bc _ZN15MemoryAllocator16tryToFreeSegmentEPv
     /tmp/cctGEoaS.s:524    .text:00000000000002bc .L0 
GAS LISTING /tmp/cctGEoaS.s 			page 22


     /tmp/cctGEoaS.s:526    .text:00000000000002bc .L0 
     /tmp/cctGEoaS.s:527    .text:00000000000002c0 .L0 
     /tmp/cctGEoaS.s:532    .text:00000000000002d0 .L0 
     /tmp/cctGEoaS.s:533    .text:00000000000002d0 .L0 
     /tmp/cctGEoaS.s:534    .text:00000000000002d0 .L0 
     /tmp/cctGEoaS.s:535    .text:00000000000002d0 .L0 
     /tmp/cctGEoaS.s:537    .text:00000000000002d4 .L0 
     /tmp/cctGEoaS.s:540    .text:00000000000002d8 .L0 
     /tmp/cctGEoaS.s:541    .text:00000000000002d8 .L0 
     /tmp/cctGEoaS.s:544    .text:00000000000002e0 .L0 
     /tmp/cctGEoaS.s:545    .text:00000000000002e0 .L0 
     /tmp/cctGEoaS.s:546    .text:00000000000002e0 .L0 
     /tmp/cctGEoaS.s:549    .text:00000000000002e8 .L0 
     /tmp/cctGEoaS.s:550    .text:00000000000002e8 .L0 
     /tmp/cctGEoaS.s:552    .text:00000000000002ec .L0 
     /tmp/cctGEoaS.s:557    .text:00000000000002f4 .L0 
     /tmp/cctGEoaS.s:558    .text:00000000000002f4 .L0 
     /tmp/cctGEoaS.s:560    .text:00000000000002f8 .L0 
     /tmp/cctGEoaS.s:564    .text:0000000000000300 .L0 
     /tmp/cctGEoaS.s:565    .text:0000000000000300 .L0 
     /tmp/cctGEoaS.s:567    .text:0000000000000304 .L0 
     /tmp/cctGEoaS.s:572    .text:0000000000000314 .L0 
     /tmp/cctGEoaS.s:573    .text:0000000000000314 .L0 
     /tmp/cctGEoaS.s:577    .text:0000000000000318 .L0 
     /tmp/cctGEoaS.s:578    .text:0000000000000318 .L0 
     /tmp/cctGEoaS.s:579    .text:0000000000000318 .L0 
     /tmp/cctGEoaS.s:581    .text:000000000000031c .L0 
     /tmp/cctGEoaS.s:585    .text:0000000000000320 .L0 
     /tmp/cctGEoaS.s:586    .text:0000000000000320 .L0 
     /tmp/cctGEoaS.s:588    .text:0000000000000324 .L0 
     /tmp/cctGEoaS.s:590    .text:0000000000000328 .L0 
     /tmp/cctGEoaS.s:591    .text:0000000000000328 .L0 
     /tmp/cctGEoaS.s:593    .text:000000000000032c .L0 
     /tmp/cctGEoaS.s:595    .text:0000000000000330 .L0 
     /tmp/cctGEoaS.s:597    .text:0000000000000334 .L0 
     /tmp/cctGEoaS.s:598    .text:0000000000000334 .L0 
     /tmp/cctGEoaS.s:600    .text:0000000000000338 .L0 
     /tmp/cctGEoaS.s:604    .text:0000000000000340 .L0 
     /tmp/cctGEoaS.s:606    .text:0000000000000344 .L0 
src/MemoryAllocator.cpp:186    .text:0000000000000344 .L0 
     /tmp/cctGEoaS.s:614    .text:0000000000000348 .L0 
     /tmp/cctGEoaS.s:615    .text:000000000000034c .L0 
     /tmp/cctGEoaS.s:616    .text:000000000000034c .L0 
     /tmp/cctGEoaS.s:618    .text:0000000000000350 .L0 
     /tmp/cctGEoaS.s:619    .text:0000000000000350 .L0 
     /tmp/cctGEoaS.s:621    .text:0000000000000354 .L0 
     /tmp/cctGEoaS.s:624    .text:0000000000000358 .L0 
     /tmp/cctGEoaS.s:627    .text:000000000000035c .L0 
     /tmp/cctGEoaS.s:631    .text:0000000000000360 .L0 
     /tmp/cctGEoaS.s:633    .text:0000000000000360 .L0 
src/MemoryAllocator.cpp:189    .text:0000000000000360 .L0 
     /tmp/cctGEoaS.s:640    .text:0000000000000364 .L0 
     /tmp/cctGEoaS.s:641    .text:0000000000000368 .L0 
     /tmp/cctGEoaS.s:652    .bss:0000000000000000 _ZN15MemoryAllocator18memoryInitiliaizedE
     /tmp/cctGEoaS.s:661    .bss:0000000000000010 _ZN15MemoryAllocator8headFreeE
     /tmp/cctGEoaS.s:657    .bss:0000000000000008 _ZN15MemoryAllocator13headAllocatedE
     /tmp/cctGEoaS.s:649    .bss:0000000000000000 .LANCHOR0
GAS LISTING /tmp/cctGEoaS.s 			page 23


     /tmp/cctGEoaS.s:667    .text:0000000000000368 .L0 
     /tmp/cctGEoaS.s:76     .text:0000000000000044 .L0 
     /tmp/cctGEoaS.s:82     .text:0000000000000054 .L0 
     /tmp/cctGEoaS.s:90     .text:0000000000000068 .L0 
     /tmp/cctGEoaS.s:98     .text:000000000000007c .L0 
     /tmp/cctGEoaS.s:145    .text:00000000000000c8 .L0 
     /tmp/cctGEoaS.s:215    .text:0000000000000124 .L0 
     /tmp/cctGEoaS.s:222    .text:0000000000000130 .L0 
     /tmp/cctGEoaS.s:262    .text:000000000000016c .L0 
     /tmp/cctGEoaS.s:326    .text:00000000000001c4 .L0 
     /tmp/cctGEoaS.s:332    .text:00000000000001d0 .L0 
     /tmp/cctGEoaS.s:340    .text:00000000000001dc .L0 
     /tmp/cctGEoaS.s:375    .text:00000000000001fc .L0 
     /tmp/cctGEoaS.s:450    .text:0000000000000264 .L0 
     /tmp/cctGEoaS.s:512    .text:00000000000002b0 .L0 
     /tmp/cctGEoaS.s:546    .text:00000000000002e0 .L0 
     /tmp/cctGEoaS.s:560    .text:00000000000002f8 .L0 
     /tmp/cctGEoaS.s:105    .text:0000000000000094 .L5
     /tmp/cctGEoaS.s:166    .text:00000000000000e8 .L9
     /tmp/cctGEoaS.s:150    .text:00000000000000d4 .L10
     /tmp/cctGEoaS.s:204    .text:0000000000000118 .L16
     /tmp/cctGEoaS.s:219    .text:0000000000000130 .L17
     /tmp/cctGEoaS.s:212    .text:0000000000000124 .L18
     /tmp/cctGEoaS.s:186    .text:0000000000000100 .L8
     /tmp/cctGEoaS.s:353    .text:00000000000001ec .L29
     /tmp/cctGEoaS.s:323    .text:00000000000001c4 .L23
     /tmp/cctGEoaS.s:308    .text:00000000000001ac .L25
     /tmp/cctGEoaS.s:329    .text:00000000000001d0 .L26
     /tmp/cctGEoaS.s:402    .text:0000000000000220 .L19
     /tmp/cctGEoaS.s:284    .text:0000000000000188 .L24
     /tmp/cctGEoaS.s:386    .text:0000000000000218 .L20
     /tmp/cctGEoaS.s:342    .text:00000000000001e4 .L21
     /tmp/cctGEoaS.s:272    .text:0000000000000180 .L31
     /tmp/cctGEoaS.s:336    .text:00000000000001dc .L28
     /tmp/cctGEoaS.s:483    .text:0000000000000290 .L33
     /tmp/cctGEoaS.s:478    .text:000000000000028c .L39
     /tmp/cctGEoaS.s:462    .text:0000000000000278 .L35
     /tmp/cctGEoaS.s:508    .text:00000000000002b0 .L40
     /tmp/cctGEoaS.s:490    .text:0000000000000298 .L32
     /tmp/cctGEoaS.s:583    .text:0000000000000320 .L46
     /tmp/cctGEoaS.s:602    .text:0000000000000340 .L42
     /tmp/cctGEoaS.s:575    .text:0000000000000318 .L43
     /tmp/cctGEoaS.s:555    .text:00000000000002f4 .L44
     /tmp/cctGEoaS.s:562    .text:0000000000000300 .L45
     /tmp/cctGEoaS.s:630    .text:0000000000000360 .L47
     /tmp/cctGEoaS.s:612    .text:0000000000000348 .L41
     /tmp/cctGEoaS.s:1312   .debug_abbrev:0000000000000000 .Ldebug_abbrev0
     /tmp/cctGEoaS.s:2442   .debug_str:0000000000000044 .LASF51
     /tmp/cctGEoaS.s:2506   .debug_str:00000000000002f6 .LASF52
     /tmp/cctGEoaS.s:2512   .debug_str:0000000000000327 .LASF53
     /tmp/cctGEoaS.s:5      .text:0000000000000000 .Ltext0
     /tmp/cctGEoaS.s:664    .text:0000000000000368 .Letext0
     /tmp/cctGEoaS.s:2430   .debug_line:0000000000000000 .Ldebug_line0
     /tmp/cctGEoaS.s:2488   .debug_str:0000000000000256 .LASF0
     /tmp/cctGEoaS.s:2478   .debug_str:0000000000000200 .LASF1
     /tmp/cctGEoaS.s:2470   .debug_str:00000000000001bf .LASF2
     /tmp/cctGEoaS.s:2448   .debug_str:00000000000000f9 .LASF4
GAS LISTING /tmp/cctGEoaS.s 			page 24


     /tmp/cctGEoaS.s:2474   .debug_str:00000000000001d8 .LASF3
     /tmp/cctGEoaS.s:2436   .debug_str:0000000000000023 .LASF5
     /tmp/cctGEoaS.s:2432   .debug_str:0000000000000000 .LASF6
     /tmp/cctGEoaS.s:2460   .debug_str:0000000000000145 .LASF7
     /tmp/cctGEoaS.s:2500   .debug_str:00000000000002ca .LASF8
     /tmp/cctGEoaS.s:2446   .debug_str:00000000000000eb .LASF9
     /tmp/cctGEoaS.s:2548   .debug_str:00000000000004a8 .LASF10
     /tmp/cctGEoaS.s:2466   .debug_str:000000000000018f .LASF11
     /tmp/cctGEoaS.s:2532   .debug_str:000000000000043a .LASF12
     /tmp/cctGEoaS.s:2508   .debug_str:000000000000030e .LASF13
     /tmp/cctGEoaS.s:2480   .debug_str:0000000000000213 .LASF14
     /tmp/cctGEoaS.s:2452   .debug_str:0000000000000106 .LASF15
     /tmp/cctGEoaS.s:2504   .debug_str:00000000000002e0 .LASF16
     /tmp/cctGEoaS.s:2434   .debug_str:0000000000000013 .LASF54
     /tmp/cctGEoaS.s:2540   .debug_str:0000000000000486 .LASF19
     /tmp/cctGEoaS.s:2492   .debug_str:0000000000000275 .LASF17
     /tmp/cctGEoaS.s:2438   .debug_str:000000000000002a .LASF18
     /tmp/cctGEoaS.s:2490   .debug_str:0000000000000263 .LASF20
     /tmp/cctGEoaS.s:2456   .debug_str:0000000000000137 .LASF21
     /tmp/cctGEoaS.s:2484   .debug_str:0000000000000229 .LASF22
     /tmp/cctGEoaS.s:2522   .debug_str:00000000000003c7 .LASF23
     /tmp/cctGEoaS.s:2530   .debug_str:0000000000000431 .LASF24
     /tmp/cctGEoaS.s:2482   .debug_str:000000000000021f .LASF25
     /tmp/cctGEoaS.s:2536   .debug_str:0000000000000474 .LASF26
     /tmp/cctGEoaS.s:2524   .debug_str:00000000000003da .LASF28
     /tmp/cctGEoaS.s:2510   .debug_str:000000000000031e .LASF27
     /tmp/cctGEoaS.s:2468   .debug_str:000000000000019e .LASF29
     /tmp/cctGEoaS.s:2542   .debug_str:0000000000000493 .LASF55
     /tmp/cctGEoaS.s:2494   .debug_str:000000000000027a .LASF56
     /tmp/cctGEoaS.s:2454   .debug_str:000000000000011c .LASF32
     /tmp/cctGEoaS.s:2514   .debug_str:000000000000034a .LASF34
     /tmp/cctGEoaS.s:2476   .debug_str:00000000000001ea .LASF30
     /tmp/cctGEoaS.s:2526   .debug_str:00000000000003fb .LASF31
     /tmp/cctGEoaS.s:2440   .debug_str:000000000000002f .LASF33
     /tmp/cctGEoaS.s:2464   .debug_str:0000000000000160 .LASF35
     /tmp/cctGEoaS.s:2520   .debug_str:00000000000003b6 .LASF57
     /tmp/cctGEoaS.s:2534   .debug_str:000000000000044a .LASF58
     /tmp/cctGEoaS.s:2498   .debug_str:00000000000002a5 .LASF36
     /tmp/cctGEoaS.s:2486   .debug_str:0000000000000237 .LASF37
     /tmp/cctGEoaS.s:2518   .debug_str:000000000000038c .LASF38
     /tmp/cctGEoaS.s:522    .text:00000000000002bc .LFB6
     /tmp/cctGEoaS.s:642    .text:0000000000000368 .LFE6
     /tmp/cctGEoaS.s:2458   .debug_str:0000000000000140 .LASF42
     /tmp/cctGEoaS.s:1848   .debug_loc:0000000000000000 .LLST21
     /tmp/cctGEoaS.s:2544   .debug_str:000000000000049e .LASF39
     /tmp/cctGEoaS.s:1870   .debug_loc:000000000000005f .LLST22
     /tmp/cctGEoaS.s:2444   .debug_str:00000000000000e6 .LASF40
     /tmp/cctGEoaS.s:1890   .debug_loc:00000000000000bc .LLST23
     /tmp/cctGEoaS.s:2450   .debug_str:0000000000000100 .LASF41
     /tmp/cctGEoaS.s:1910   .debug_loc:0000000000000119 .LLST24
     /tmp/cctGEoaS.s:542    .text:00000000000002e0 .LVL51
     /tmp/cctGEoaS.s:570    .text:0000000000000314 .LVL55
     /tmp/cctGEoaS.s:425    .text:000000000000023c .LFB5
     /tmp/cctGEoaS.s:516    .text:00000000000002bc .LFE5
     /tmp/cctGEoaS.s:1931   .debug_loc:0000000000000177 .LLST16
     /tmp/cctGEoaS.s:1953   .debug_loc:00000000000001d6 .LLST17
     /tmp/cctGEoaS.s:1975   .debug_loc:0000000000000235 .LLST18
GAS LISTING /tmp/cctGEoaS.s 			page 25


     /tmp/cctGEoaS.s:1995   .debug_loc:0000000000000292 .LLST19
     /tmp/cctGEoaS.s:2472   .debug_str:00000000000001cd .LASF43
     /tmp/cctGEoaS.s:2015   .debug_loc:00000000000002ef .LLST20
     /tmp/cctGEoaS.s:446    .text:0000000000000264 .LVL40
     /tmp/cctGEoaS.s:238    .text:0000000000000148 .LFB4
     /tmp/cctGEoaS.s:419    .text:000000000000023c .LFE4
     /tmp/cctGEoaS.s:2033   .debug_loc:000000000000033b .LLST7
     /tmp/cctGEoaS.s:2051   .debug_loc:0000000000000387 .LLST8
     /tmp/cctGEoaS.s:2075   .debug_loc:00000000000003f7 .LLST9
     /tmp/cctGEoaS.s:2538   .debug_str:000000000000047e .LASF44
     /tmp/cctGEoaS.s:2101   .debug_loc:0000000000000469 .LLST10
     /tmp/cctGEoaS.s:2143   .debug_loc:0000000000000509 .LLST11
     /tmp/cctGEoaS.s:2422   .debug_ranges:0000000000000000 .Ldebug_ranges0
     /tmp/cctGEoaS.s:2496   .debug_str:000000000000029d .LASF45
     /tmp/cctGEoaS.s:2151   .debug_loc:000000000000052d .LLST12
     /tmp/cctGEoaS.s:2528   .debug_str:0000000000000429 .LASF46
     /tmp/cctGEoaS.s:2172   .debug_loc:000000000000058b .LLST13
     /tmp/cctGEoaS.s:277    .text:0000000000000180 .LBB6
     /tmp/cctGEoaS.s:337    .text:00000000000001dc .LBE6
     /tmp/cctGEoaS.s:2462   .debug_str:0000000000000158 .LASF47
     /tmp/cctGEoaS.s:2222   .debug_loc:0000000000000633 .LLST14
     /tmp/cctGEoaS.s:2546   .debug_str:00000000000004a3 .LASF48
     /tmp/cctGEoaS.s:2264   .debug_loc:00000000000006b5 .LLST15
     /tmp/cctGEoaS.s:314    .text:00000000000001bc .LVL26
     /tmp/cctGEoaS.s:258    .text:000000000000016c .LVL20
     /tmp/cctGEoaS.s:120    .text:00000000000000a0 .LFB3
     /tmp/cctGEoaS.s:232    .text:0000000000000148 .LFE3
     /tmp/cctGEoaS.s:2271   .debug_loc:00000000000006d8 .LLST2
     /tmp/cctGEoaS.s:2293   .debug_loc:0000000000000737 .LLST3
     /tmp/cctGEoaS.s:2315   .debug_loc:0000000000000796 .LLST4
     /tmp/cctGEoaS.s:2502   .debug_str:00000000000002da .LASF49
     /tmp/cctGEoaS.s:2339   .debug_loc:0000000000000806 .LLST5
     /tmp/cctGEoaS.s:2516   .debug_str:000000000000037f .LASF50
     /tmp/cctGEoaS.s:2363   .debug_loc:0000000000000876 .LLST6
     /tmp/cctGEoaS.s:141    .text:00000000000000c8 .LVL5
     /tmp/cctGEoaS.s:65     .text:0000000000000038 .LFB2
     /tmp/cctGEoaS.s:114    .text:00000000000000a0 .LFE2
     /tmp/cctGEoaS.s:38     .text:000000000000001c .LFB1
     /tmp/cctGEoaS.s:59     .text:0000000000000038 .LFE1
     /tmp/cctGEoaS.s:2381   .debug_loc:00000000000008c2 .LLST1
     /tmp/cctGEoaS.s:10     .text:0000000000000000 .LFB0
     /tmp/cctGEoaS.s:32     .text:000000000000001c .LFE0
     /tmp/cctGEoaS.s:2395   .debug_loc:00000000000008fb .LLST0
     /tmp/cctGEoaS.s:525    .text:00000000000002bc .LVL50
     /tmp/cctGEoaS.s:625    .text:0000000000000358 .LVL59
     /tmp/cctGEoaS.s:629    .text:0000000000000360 .LVL60
     /tmp/cctGEoaS.s:554    .text:00000000000002f4 .LVL53
     /tmp/cctGEoaS.s:561    .text:0000000000000300 .LVL54
     /tmp/cctGEoaS.s:574    .text:0000000000000318 .LVL56
     /tmp/cctGEoaS.s:582    .text:0000000000000320 .LVL57
     /tmp/cctGEoaS.s:547    .text:00000000000002e8 .LVL52
     /tmp/cctGEoaS.s:622    .text:0000000000000354 .LVL58
     /tmp/cctGEoaS.s:428    .text:000000000000023c .LVL39
     /tmp/cctGEoaS.s:500    .text:00000000000002a4 .LVL46
     /tmp/cctGEoaS.s:507    .text:00000000000002b0 .LVL48
     /tmp/cctGEoaS.s:503    .text:00000000000002a8 .LVL47
     /tmp/cctGEoaS.s:461    .text:0000000000000278 .LVL42
GAS LISTING /tmp/cctGEoaS.s 			page 26


     /tmp/cctGEoaS.s:469    .text:0000000000000280 .LVL43
     /tmp/cctGEoaS.s:475    .text:0000000000000288 .LVL44
     /tmp/cctGEoaS.s:451    .text:000000000000026c .LVL41
     /tmp/cctGEoaS.s:489    .text:0000000000000298 .LVL45
     /tmp/cctGEoaS.s:513    .text:00000000000002b8 .LVL49
     /tmp/cctGEoaS.s:241    .text:0000000000000148 .LVL19
     /tmp/cctGEoaS.s:414    .text:0000000000000234 .LVL38
     /tmp/cctGEoaS.s:271    .text:0000000000000180 .LVL23
     /tmp/cctGEoaS.s:322    .text:00000000000001c4 .LVL28
     /tmp/cctGEoaS.s:341    .text:00000000000001e4 .LVL32
     /tmp/cctGEoaS.s:352    .text:00000000000001ec .LVL33
     /tmp/cctGEoaS.s:400    .text:0000000000000220 .LVL37
     /tmp/cctGEoaS.s:263    .text:0000000000000174 .LVL21
     /tmp/cctGEoaS.s:318    .text:00000000000001c0 .LVL27
     /tmp/cctGEoaS.s:267    .text:0000000000000178 .LVL22
     /tmp/cctGEoaS.s:295    .text:0000000000000198 .LVL24
     /tmp/cctGEoaS.s:328    .text:00000000000001d0 .LVL29
     /tmp/cctGEoaS.s:335    .text:00000000000001dc .LVL31
     /tmp/cctGEoaS.s:385    .text:0000000000000218 .LVL36
     /tmp/cctGEoaS.s:367    .text:00000000000001f8 .LVL34
     /tmp/cctGEoaS.s:305    .text:00000000000001a8 .LVL25
     /tmp/cctGEoaS.s:333    .text:00000000000001d8 .LVL30
     /tmp/cctGEoaS.s:371    .text:00000000000001fc .LVL35
     /tmp/cctGEoaS.s:123    .text:00000000000000a0 .LVL4
     /tmp/cctGEoaS.s:196    .text:000000000000010c .LVL12
     /tmp/cctGEoaS.s:203    .text:0000000000000118 .LVL14
     /tmp/cctGEoaS.s:199    .text:0000000000000110 .LVL13
     /tmp/cctGEoaS.s:149    .text:00000000000000d4 .LVL7
     /tmp/cctGEoaS.s:157    .text:00000000000000dc .LVL8
     /tmp/cctGEoaS.s:163    .text:00000000000000e4 .LVL9
     /tmp/cctGEoaS.s:185    .text:0000000000000100 .LVL11
     /tmp/cctGEoaS.s:225    .text:000000000000013c .LVL18
     /tmp/cctGEoaS.s:146    .text:00000000000000d0 .LVL6
     /tmp/cctGEoaS.s:216    .text:000000000000012c .LVL15
     /tmp/cctGEoaS.s:218    .text:0000000000000130 .LVL16
     /tmp/cctGEoaS.s:223    .text:0000000000000138 .LVL17
     /tmp/cctGEoaS.s:168    .text:00000000000000e8 .LVL10
     /tmp/cctGEoaS.s:41     .text:000000000000001c .LVL2
     /tmp/cctGEoaS.s:51     .text:000000000000002c .LVL3
     /tmp/cctGEoaS.s:14     .text:0000000000000000 .LVL0
     /tmp/cctGEoaS.s:24     .text:0000000000000010 .LVL1
     /tmp/cctGEoaS.s:668    .debug_info:0000000000000000 .Ldebug_info0
     /tmp/cctGEoaS.s:275    .text:0000000000000180 .LBB4
     /tmp/cctGEoaS.s:344    .text:00000000000001e4 .LBE4
     /tmp/cctGEoaS.s:365    .text:00000000000001f8 .LBB8
     /tmp/cctGEoaS.s:388    .text:0000000000000218 .LBE8

UNDEFINED SYMBOLS
HEAP_START_ADDR
HEAP_END_ADDR
