GAS LISTING /tmp/ccyuZUST.s 			page 1


   1              		.file	"MemoryAllocator.cpp"
   2              		.option pic
   3              		.option norelax
   4              		.text
   5              	.Ltext0:
   6              		.align	2
   7              		.globl	_ZN15MemoryAllocator10initMemoryEv
   9              	_ZN15MemoryAllocator10initMemoryEv:
  10              	.LFB2:
  11              		.file 1 "src/MemoryAllocator.cpp"
   1:src/MemoryAllocator.cpp **** //
   2:src/MemoryAllocator.cpp **** // Created by os on 4/27/22.
   3:src/MemoryAllocator.cpp **** //
   4:src/MemoryAllocator.cpp **** 
   5:src/MemoryAllocator.cpp **** #include "../h/MemoryAllocator.hpp"
   6:src/MemoryAllocator.cpp **** 
   7:src/MemoryAllocator.cpp **** MemoryAllocator::BlockHeader* MemoryAllocator::headAllocated = 0;
   8:src/MemoryAllocator.cpp **** MemoryAllocator::BlockHeader* MemoryAllocator::headFree = 0;
   9:src/MemoryAllocator.cpp **** int MemoryAllocator::memoryInitiliaized = 0;
  10:src/MemoryAllocator.cpp **** 
  11:src/MemoryAllocator.cpp **** void *MemoryAllocator::mem_alloc(size_t size) {
  12:src/MemoryAllocator.cpp ****     return tryToAllocateFragment(size);
  13:src/MemoryAllocator.cpp **** }
  14:src/MemoryAllocator.cpp **** 
  15:src/MemoryAllocator.cpp **** uint64 MemoryAllocator::mem_free(void * addr) {
  16:src/MemoryAllocator.cpp ****     return tryToFreeSegment(addr);
  17:src/MemoryAllocator.cpp **** }
  18:src/MemoryAllocator.cpp **** 
  19:src/MemoryAllocator.cpp **** void MemoryAllocator::initMemory()
  20:src/MemoryAllocator.cpp **** {
  12              		.loc 1 20 1
  13              		.cfi_startproc
  14 0000 130101FF 		addi	sp,sp,-16
  15              		.cfi_def_cfa_offset 16
  16 0004 23348100 		sd	s0,8(sp)
  17              		.cfi_offset 8, -8
  18 0008 13040101 		addi	s0,sp,16
  19              		.cfi_def_cfa 8, 0
  21:src/MemoryAllocator.cpp ****     if(memoryInitiliaized == 1)
  20              		.loc 1 21 5
  21              		.loc 1 21 27 is_stmt 0
  22 000c 17070000 		lw	a4,.LANCHOR0
  22      03270700 
  23              		.loc 1 21 5
  24 0014 93071000 		li	a5,1
  25 0018 6302F704 		beq	a4,a5,.L1
  22:src/MemoryAllocator.cpp ****         return;
  23:src/MemoryAllocator.cpp ****     memoryInitiliaized = 1;
  26              		.loc 1 23 5 is_stmt 1
  27              		.loc 1 23 24 is_stmt 0
  28 001c 97070000 		lla	a5,.LANCHOR0
  28      93870700 
  29 0024 13071000 		li	a4,1
  30 0028 23A0E700 		sw	a4,0(a5)
  24:src/MemoryAllocator.cpp ****     headAllocated = 0;
  31              		.loc 1 24 5 is_stmt 1
  32              		.loc 1 24 19 is_stmt 0
GAS LISTING /tmp/ccyuZUST.s 			page 2


  33 002c 23B40700 		sd	zero,8(a5)
  25:src/MemoryAllocator.cpp ****     headFree = (BlockHeader*)HEAP_START_ADDR;
  34              		.loc 1 25 5 is_stmt 1
  35              		.loc 1 25 14 is_stmt 0
  36 0030 17070000 		la	a4,HEAP_START_ADDR
  36      03370700 
  37 0038 03370700 		ld	a4,0(a4)
  38 003c 23B8E700 		sd	a4,16(a5)
  26:src/MemoryAllocator.cpp ****     headFree->next = 0;
  39              		.loc 1 26 5 is_stmt 1
  40              		.loc 1 26 20 is_stmt 0
  41 0040 23340700 		sd	zero,8(a4)
  27:src/MemoryAllocator.cpp ****     //todo
  28:src/MemoryAllocator.cpp ****     //+-1
  29:src/MemoryAllocator.cpp ****     headFree->size = (size_t)((size_t)HEAP_END_ADDR - (size_t)HEAP_START_ADDR + 1 - sizeof(BlockHea
  42              		.loc 1 29 5 is_stmt 1
  43              		.loc 1 29 53 is_stmt 0
  44 0044 97070000 		la	a5,HEAP_END_ADDR
  44      83B70700 
  45 004c 83B70700 		ld	a5,0(a5)
  46 0050 B387E740 		sub	a5,a5,a4
  47              		.loc 1 29 83
  48 0054 938717FF 		addi	a5,a5,-15
  49              		.loc 1 29 20
  50 0058 2330F700 		sd	a5,0(a4)
  51              	.L1:
  30:src/MemoryAllocator.cpp **** }
  52              		.loc 1 30 1
  53 005c 03348100 		ld	s0,8(sp)
  54              		.cfi_restore 8
  55              		.cfi_def_cfa 2, 16
  56 0060 13010101 		addi	sp,sp,16
  57              		.cfi_def_cfa_offset 0
  58 0064 67800000 		jr	ra
  59              		.cfi_endproc
  60              	.LFE2:
  62              		.align	2
  63              		.globl	_ZN15MemoryAllocator26insertNewAllocatedFragmentEPvm
  65              	_ZN15MemoryAllocator26insertNewAllocatedFragmentEPvm:
  66              	.LFB3:
  31:src/MemoryAllocator.cpp **** 
  32:src/MemoryAllocator.cpp **** void MemoryAllocator::insertNewAllocatedFragment(void *addr, size_t size) {
  67              		.loc 1 32 75 is_stmt 1
  68              		.cfi_startproc
  69              	.LVL0:
  70 0068 130101FE 		addi	sp,sp,-32
  71              		.cfi_def_cfa_offset 32
  72 006c 233C1100 		sd	ra,24(sp)
  73 0070 23388100 		sd	s0,16(sp)
  74 0074 23349100 		sd	s1,8(sp)
  75 0078 23302101 		sd	s2,0(sp)
  76              		.cfi_offset 1, -8
  77              		.cfi_offset 8, -16
  78              		.cfi_offset 9, -24
  79              		.cfi_offset 18, -32
  80 007c 13040102 		addi	s0,sp,32
  81              		.cfi_def_cfa 8, 0
GAS LISTING /tmp/ccyuZUST.s 			page 3


  82 0080 93040500 		mv	s1,a0
  83 0084 13890500 		mv	s2,a1
  33:src/MemoryAllocator.cpp **** 
  34:src/MemoryAllocator.cpp ****     initMemory();
  84              		.loc 1 34 5
  85              		.loc 1 34 15 is_stmt 0
  86 0088 97000000 		call	_ZN15MemoryAllocator10initMemoryEv
  86      E7800000 
  87              	.LVL1:
  35:src/MemoryAllocator.cpp ****     BlockHeader* prev = 0;
  88              		.loc 1 35 5 is_stmt 1
  36:src/MemoryAllocator.cpp ****     BlockHeader* curr =  headAllocated;
  89              		.loc 1 36 5
  90              		.loc 1 36 18 is_stmt 0
  91 0090 97070000 		ld	a5,.LANCHOR0+8
  91      83B70700 
  92              	.LVL2:
  37:src/MemoryAllocator.cpp ****     BlockHeader* newAllocated = (BlockHeader*)addr;
  93              		.loc 1 37 5 is_stmt 1
  38:src/MemoryAllocator.cpp ****     newAllocated->next = 0;
  94              		.loc 1 38 5
  95              		.loc 1 38 24 is_stmt 0
  96 0098 23B40400 		sd	zero,8(s1)
  39:src/MemoryAllocator.cpp ****     newAllocated->size = size;
  97              		.loc 1 39 5 is_stmt 1
  98              		.loc 1 39 24 is_stmt 0
  99 009c 23B02401 		sd	s2,0(s1)
  35:src/MemoryAllocator.cpp ****     BlockHeader* curr =  headAllocated;
 100              		.loc 1 35 18
 101 00a0 13070000 		li	a4,0
 102              	.LVL3:
 103              	.L7:
  40:src/MemoryAllocator.cpp ****     while(curr != 0)
 104              		.loc 1 40 5 is_stmt 1
 105              		.loc 1 40 16
 106 00a4 638C0700 		beqz	a5,.L5
  41:src/MemoryAllocator.cpp ****     {
  42:src/MemoryAllocator.cpp ****         if((void*)curr > addr)
 107              		.loc 1 42 9
 108 00a8 63E8F400 		bgtu	a5,s1,.L11
  43:src/MemoryAllocator.cpp ****         {
  44:src/MemoryAllocator.cpp ****             newAllocated->next = curr;
  45:src/MemoryAllocator.cpp ****             break;
  46:src/MemoryAllocator.cpp ****         }
  47:src/MemoryAllocator.cpp ****         prev = curr;
 109              		.loc 1 47 9
 110              	.LVL4:
  48:src/MemoryAllocator.cpp ****         curr = curr->next;
 111              		.loc 1 48 9
  47:src/MemoryAllocator.cpp ****         curr = curr->next;
 112              		.loc 1 47 14 is_stmt 0
 113 00ac 13870700 		mv	a4,a5
 114              		.loc 1 48 14
 115 00b0 83B78700 		ld	a5,8(a5)
 116              	.LVL5:
  40:src/MemoryAllocator.cpp ****     {
 117              		.loc 1 40 5
GAS LISTING /tmp/ccyuZUST.s 			page 4


 118 00b4 6FF01FFF 		j	.L7
 119              	.L11:
  44:src/MemoryAllocator.cpp ****             break;
 120              		.loc 1 44 13 is_stmt 1
  44:src/MemoryAllocator.cpp ****             break;
 121              		.loc 1 44 32 is_stmt 0
 122 00b8 23B4F400 		sd	a5,8(s1)
  45:src/MemoryAllocator.cpp ****         }
 123              		.loc 1 45 13 is_stmt 1
 124              	.L5:
  49:src/MemoryAllocator.cpp ****     }
  50:src/MemoryAllocator.cpp **** 
  51:src/MemoryAllocator.cpp ****     if(prev == 0)
 125              		.loc 1 51 5
 126 00bc 63000702 		beqz	a4,.L12
  52:src/MemoryAllocator.cpp ****         headAllocated = newAllocated;
  53:src/MemoryAllocator.cpp ****     else
  54:src/MemoryAllocator.cpp ****         prev->next = newAllocated;
 127              		.loc 1 54 9
 128              		.loc 1 54 20 is_stmt 0
 129 00c0 23349700 		sd	s1,8(a4)
 130              	.LVL6:
 131              	.L4:
  55:src/MemoryAllocator.cpp **** }
 132              		.loc 1 55 1
 133 00c4 83308101 		ld	ra,24(sp)
 134              		.cfi_remember_state
 135              		.cfi_restore 1
 136 00c8 03340101 		ld	s0,16(sp)
 137              		.cfi_restore 8
 138              		.cfi_def_cfa 2, 32
 139 00cc 83348100 		ld	s1,8(sp)
 140              		.cfi_restore 9
 141              	.LVL7:
 142 00d0 03390100 		ld	s2,0(sp)
 143              		.cfi_restore 18
 144              	.LVL8:
 145 00d4 13010102 		addi	sp,sp,32
 146              		.cfi_def_cfa_offset 0
 147 00d8 67800000 		jr	ra
 148              	.LVL9:
 149              	.L12:
 150              		.cfi_restore_state
  52:src/MemoryAllocator.cpp ****         headAllocated = newAllocated;
 151              		.loc 1 52 9 is_stmt 1
  52:src/MemoryAllocator.cpp ****         headAllocated = newAllocated;
 152              		.loc 1 52 23 is_stmt 0
 153 00dc 97070000 		sd	s1,.LANCHOR0+8,a5
 153      23B09700 
 154              	.LVL10:
 155 00e4 6FF01FFE 		j	.L4
 156              		.cfi_endproc
 157              	.LFE3:
 159              		.align	2
 160              		.globl	_ZN15MemoryAllocator21tryToAllocateFragmentEm
 162              	_ZN15MemoryAllocator21tryToAllocateFragmentEm:
 163              	.LFB4:
GAS LISTING /tmp/ccyuZUST.s 			page 5


  56:src/MemoryAllocator.cpp **** 
  57:src/MemoryAllocator.cpp **** void* MemoryAllocator::tryToAllocateFragment(size_t size) {
 164              		.loc 1 57 59 is_stmt 1
 165              		.cfi_startproc
 166              	.LVL11:
 167 00e8 130101FE 		addi	sp,sp,-32
 168              		.cfi_def_cfa_offset 32
 169 00ec 233C1100 		sd	ra,24(sp)
 170 00f0 23388100 		sd	s0,16(sp)
 171 00f4 23349100 		sd	s1,8(sp)
 172 00f8 23302101 		sd	s2,0(sp)
 173              		.cfi_offset 1, -8
 174              		.cfi_offset 8, -16
 175              		.cfi_offset 9, -24
 176              		.cfi_offset 18, -32
 177 00fc 13040102 		addi	s0,sp,32
 178              		.cfi_def_cfa 8, 0
 179 0100 13090500 		mv	s2,a0
  58:src/MemoryAllocator.cpp ****     initMemory();
 180              		.loc 1 58 5
 181              		.loc 1 58 15 is_stmt 0
 182 0104 97000000 		call	_ZN15MemoryAllocator10initMemoryEv
 182      E7800000 
 183              	.LVL12:
  59:src/MemoryAllocator.cpp ****     uint64 retval = 0;
 184              		.loc 1 59 5 is_stmt 1
  60:src/MemoryAllocator.cpp ****     BlockHeader* prev = 0;
 185              		.loc 1 60 5
  61:src/MemoryAllocator.cpp ****     BlockHeader* curr = headFree;
 186              		.loc 1 61 5
 187              		.loc 1 61 18 is_stmt 0
 188 010c 97040000 		ld	s1,.LANCHOR0+16
 188      83B40400 
 189              	.LVL13:
  60:src/MemoryAllocator.cpp ****     BlockHeader* prev = 0;
 190              		.loc 1 60 18
 191 0114 13070000 		li	a4,0
 192              	.LVL14:
 193              	.L22:
  62:src/MemoryAllocator.cpp ****     while(curr != 0)
 194              		.loc 1 62 5 is_stmt 1
 195              		.loc 1 62 16
 196 0118 6388040A 		beqz	s1,.L23
 197              	.LBB2:
  63:src/MemoryAllocator.cpp ****     {
  64:src/MemoryAllocator.cpp ****         if(curr->size >= size)
 198              		.loc 1 64 9
 199              	.LBB3:
 200              		.loc 1 64 18 is_stmt 0
 201 011c 83B70400 		ld	a5,0(s1)
 202              		.loc 1 64 9
 203 0120 63F82701 		bgeu	a5,s2,.L25
 204              	.LBE3:
  65:src/MemoryAllocator.cpp ****         {
  66:src/MemoryAllocator.cpp ****             void* oldAddr = curr;
  67:src/MemoryAllocator.cpp ****             void* newAddr = ((char*)curr + size + sizeof(BlockHeader));
  68:src/MemoryAllocator.cpp ****             if(newAddr <= HEAP_END_ADDR)
GAS LISTING /tmp/ccyuZUST.s 			page 6


  69:src/MemoryAllocator.cpp ****             {
  70:src/MemoryAllocator.cpp ****                 uint64 size2 = curr->size - size;
  71:src/MemoryAllocator.cpp **** 
  72:src/MemoryAllocator.cpp ****                 if(size2 > sizeof(BlockHeader))
  73:src/MemoryAllocator.cpp ****                 {
  74:src/MemoryAllocator.cpp ****                     BlockHeader *newFree = (BlockHeader *) newAddr;
  75:src/MemoryAllocator.cpp ****                     newFree->next = curr->next;
  76:src/MemoryAllocator.cpp ****                     newFree->size = size2 - sizeof(BlockHeader);
  77:src/MemoryAllocator.cpp ****                     if (prev != 0)
  78:src/MemoryAllocator.cpp ****                         prev->next = newFree;
  79:src/MemoryAllocator.cpp ****                     else
  80:src/MemoryAllocator.cpp ****                         headFree = newFree;
  81:src/MemoryAllocator.cpp ****                 }
  82:src/MemoryAllocator.cpp ****                 else
  83:src/MemoryAllocator.cpp ****                 {
  84:src/MemoryAllocator.cpp ****                     if(prev != 0)
  85:src/MemoryAllocator.cpp ****                         prev->next = curr->next;
  86:src/MemoryAllocator.cpp ****                     else
  87:src/MemoryAllocator.cpp ****                         headFree = curr->next;
  88:src/MemoryAllocator.cpp ****                 }
  89:src/MemoryAllocator.cpp ****             }
  90:src/MemoryAllocator.cpp ****             else
  91:src/MemoryAllocator.cpp ****             {
  92:src/MemoryAllocator.cpp ****                 if(prev != 0)
  93:src/MemoryAllocator.cpp ****                     prev->next = 0;
  94:src/MemoryAllocator.cpp ****                 else
  95:src/MemoryAllocator.cpp ****                     headFree = 0;
  96:src/MemoryAllocator.cpp ****             }
  97:src/MemoryAllocator.cpp ****             insertNewAllocatedFragment(oldAddr, size);
  98:src/MemoryAllocator.cpp ****             uint64 oldA = (uint64)((char*)oldAddr + sizeof(BlockHeader));
  99:src/MemoryAllocator.cpp ****             retval = oldA;
 100:src/MemoryAllocator.cpp ****             break;
 101:src/MemoryAllocator.cpp ****         }
 102:src/MemoryAllocator.cpp ****         prev = curr;
 205              		.loc 1 102 9 is_stmt 1
 206              	.LVL15:
 103:src/MemoryAllocator.cpp ****         curr = curr->next;
 207              		.loc 1 103 9
 102:src/MemoryAllocator.cpp ****         curr = curr->next;
 208              		.loc 1 102 14 is_stmt 0
 209 0124 13870400 		mv	a4,s1
 210              		.loc 1 103 14
 211 0128 83B48400 		ld	s1,8(s1)
 212              	.LVL16:
 213              	.LBE2:
  62:src/MemoryAllocator.cpp ****     {
 214              		.loc 1 62 5
 215 012c 6FF0DFFE 		j	.L22
 216              	.L25:
 217              	.LBB11:
 218              	.LBB10:
 219              	.LBB4:
  66:src/MemoryAllocator.cpp ****             void* newAddr = ((char*)curr + size + sizeof(BlockHeader));
 220              		.loc 1 66 13 is_stmt 1
 221              	.LVL17:
  67:src/MemoryAllocator.cpp ****             if(newAddr <= HEAP_END_ADDR)
 222              		.loc 1 67 13
GAS LISTING /tmp/ccyuZUST.s 			page 7


  67:src/MemoryAllocator.cpp ****             if(newAddr <= HEAP_END_ADDR)
 223              		.loc 1 67 49 is_stmt 0
 224 0130 93060901 		addi	a3,s2,16
  67:src/MemoryAllocator.cpp ****             if(newAddr <= HEAP_END_ADDR)
 225              		.loc 1 67 19
 226 0134 B386D400 		add	a3,s1,a3
 227              	.LVL18:
  68:src/MemoryAllocator.cpp ****             {
 228              		.loc 1 68 13 is_stmt 1
 229              	.LBB5:
  68:src/MemoryAllocator.cpp ****             {
 230              		.loc 1 68 24 is_stmt 0
 231 0138 17060000 		la	a2,HEAP_END_ADDR
 231      03360600 
 232 0140 03360600 		ld	a2,0(a2)
  68:src/MemoryAllocator.cpp ****             {
 233              		.loc 1 68 13
 234 0144 636CD604 		bltu	a2,a3,.L16
 235              	.LBB6:
  70:src/MemoryAllocator.cpp **** 
 236              		.loc 1 70 17 is_stmt 1
  70:src/MemoryAllocator.cpp **** 
 237              		.loc 1 70 24 is_stmt 0
 238 0148 B3872741 		sub	a5,a5,s2
 239              	.LVL19:
  72:src/MemoryAllocator.cpp ****                 {
 240              		.loc 1 72 17 is_stmt 1
 241              	.LBB7:
 242 014c 13060001 		li	a2,16
 243 0150 6376F602 		bleu	a5,a2,.L17
 244              	.LBB8:
  74:src/MemoryAllocator.cpp ****                     newFree->next = curr->next;
 245              		.loc 1 74 21
 246              	.LVL20:
  75:src/MemoryAllocator.cpp ****                     newFree->size = size2 - sizeof(BlockHeader);
 247              		.loc 1 75 21
  75:src/MemoryAllocator.cpp ****                     newFree->size = size2 - sizeof(BlockHeader);
 248              		.loc 1 75 43 is_stmt 0
 249 0154 03B68400 		ld	a2,8(s1)
  75:src/MemoryAllocator.cpp ****                     newFree->size = size2 - sizeof(BlockHeader);
 250              		.loc 1 75 35
 251 0158 23B4C600 		sd	a2,8(a3)
  76:src/MemoryAllocator.cpp ****                     if (prev != 0)
 252              		.loc 1 76 21 is_stmt 1
  76:src/MemoryAllocator.cpp ****                     if (prev != 0)
 253              		.loc 1 76 43 is_stmt 0
 254 015c 938707FF 		addi	a5,a5,-16
 255              	.LVL21:
  76:src/MemoryAllocator.cpp ****                     if (prev != 0)
 256              		.loc 1 76 35
 257 0160 23B0F600 		sd	a5,0(a3)
  77:src/MemoryAllocator.cpp ****                         prev->next = newFree;
 258              		.loc 1 77 21 is_stmt 1
 259 0164 63060700 		beqz	a4,.L18
  78:src/MemoryAllocator.cpp ****                     else
 260              		.loc 1 78 25
  78:src/MemoryAllocator.cpp ****                     else
GAS LISTING /tmp/ccyuZUST.s 			page 8


 261              		.loc 1 78 36 is_stmt 0
 262 0168 2334D700 		sd	a3,8(a4)
 263 016c 6F008003 		j	.L19
 264              	.L18:
  80:src/MemoryAllocator.cpp ****                 }
 265              		.loc 1 80 25 is_stmt 1
  80:src/MemoryAllocator.cpp ****                 }
 266              		.loc 1 80 34 is_stmt 0
 267 0170 97070000 		sd	a3,.LANCHOR0+16,a5
 267      23B0D700 
 268              	.LVL22:
 269 0178 6F00C002 		j	.L19
 270              	.LVL23:
 271              	.L17:
 272              	.LBE8:
  84:src/MemoryAllocator.cpp ****                         prev->next = curr->next;
 273              		.loc 1 84 21 is_stmt 1
 274 017c 63080700 		beqz	a4,.L20
  85:src/MemoryAllocator.cpp ****                     else
 275              		.loc 1 85 25
  85:src/MemoryAllocator.cpp ****                     else
 276              		.loc 1 85 44 is_stmt 0
 277 0180 83B78400 		ld	a5,8(s1)
 278              	.LVL24:
  85:src/MemoryAllocator.cpp ****                     else
 279              		.loc 1 85 36
 280 0184 2334F700 		sd	a5,8(a4)
 281              	.LVL25:
 282 0188 6F00C001 		j	.L19
 283              	.LVL26:
 284              	.L20:
  87:src/MemoryAllocator.cpp ****                 }
 285              		.loc 1 87 25 is_stmt 1
  87:src/MemoryAllocator.cpp ****                 }
 286              		.loc 1 87 42 is_stmt 0
 287 018c 83B78400 		ld	a5,8(s1)
 288              	.LVL27:
  87:src/MemoryAllocator.cpp ****                 }
 289              		.loc 1 87 34
 290 0190 17070000 		sd	a5,.LANCHOR0+16,a4
 290      2330F700 
 291              	.LVL28:
 292 0198 6F00C000 		j	.L19
 293              	.LVL29:
 294              	.L16:
 295              	.LBE7:
 296              	.LBE6:
  92:src/MemoryAllocator.cpp ****                     prev->next = 0;
 297              		.loc 1 92 17 is_stmt 1
 298 019c 63000702 		beqz	a4,.L21
  93:src/MemoryAllocator.cpp ****                 else
 299              		.loc 1 93 21
  93:src/MemoryAllocator.cpp ****                 else
 300              		.loc 1 93 32 is_stmt 0
 301 01a0 23340700 		sd	zero,8(a4)
 302              	.LVL30:
 303              	.L19:
GAS LISTING /tmp/ccyuZUST.s 			page 9


 304              	.LBE5:
  97:src/MemoryAllocator.cpp ****             uint64 oldA = (uint64)((char*)oldAddr + sizeof(BlockHeader));
 305              		.loc 1 97 13 is_stmt 1
  97:src/MemoryAllocator.cpp ****             uint64 oldA = (uint64)((char*)oldAddr + sizeof(BlockHeader));
 306              		.loc 1 97 39 is_stmt 0
 307 01a4 93050900 		mv	a1,s2
 308 01a8 13850400 		mv	a0,s1
 309 01ac 97000000 		call	_ZN15MemoryAllocator26insertNewAllocatedFragmentEPvm
 309      E7800000 
 310              	.LVL31:
  98:src/MemoryAllocator.cpp ****             retval = oldA;
 311              		.loc 1 98 13 is_stmt 1
  98:src/MemoryAllocator.cpp ****             retval = oldA;
 312              		.loc 1 98 51 is_stmt 0
 313 01b4 13850401 		addi	a0,s1,16
 314              	.LVL32:
  99:src/MemoryAllocator.cpp ****             break;
 315              		.loc 1 99 13 is_stmt 1
 100:src/MemoryAllocator.cpp ****         }
 316              		.loc 1 100 13
 317 01b8 6F004001 		j	.L14
 318              	.LVL33:
 319              	.L21:
 320              	.LBB9:
  95:src/MemoryAllocator.cpp ****             }
 321              		.loc 1 95 21
  95:src/MemoryAllocator.cpp ****             }
 322              		.loc 1 95 30 is_stmt 0
 323 01bc 97070000 		sd	zero,.LANCHOR0+16,a5
 323      23B00700 
 324 01c4 6FF01FFE 		j	.L19
 325              	.LVL34:
 326              	.L23:
 327              	.LBE9:
 328              	.LBE4:
 329              	.LBE10:
 330              	.LBE11:
  59:src/MemoryAllocator.cpp ****     BlockHeader* prev = 0;
 331              		.loc 1 59 12
 332 01c8 13050000 		li	a0,0
 333              	.LVL35:
 334              	.L14:
 104:src/MemoryAllocator.cpp ****     }
 105:src/MemoryAllocator.cpp **** 
 106:src/MemoryAllocator.cpp ****     return (void*)retval;
 335              		.loc 1 106 5 is_stmt 1
 107:src/MemoryAllocator.cpp **** }
 336              		.loc 1 107 1 is_stmt 0
 337 01cc 83308101 		ld	ra,24(sp)
 338              		.cfi_restore 1
 339 01d0 03340101 		ld	s0,16(sp)
 340              		.cfi_restore 8
 341              		.cfi_def_cfa 2, 32
 342 01d4 83348100 		ld	s1,8(sp)
 343              		.cfi_restore 9
 344              	.LVL36:
 345 01d8 03390100 		ld	s2,0(sp)
GAS LISTING /tmp/ccyuZUST.s 			page 10


 346              		.cfi_restore 18
 347              	.LVL37:
 348 01dc 13010102 		addi	sp,sp,32
 349              		.cfi_def_cfa_offset 0
 350 01e0 67800000 		jr	ra
 351              		.cfi_endproc
 352              	.LFE4:
 354              		.align	2
 355              		.globl	_ZN15MemoryAllocator9mem_allocEm
 357              	_ZN15MemoryAllocator9mem_allocEm:
 358              	.LFB0:
  11:src/MemoryAllocator.cpp ****     return tryToAllocateFragment(size);
 359              		.loc 1 11 47 is_stmt 1
 360              		.cfi_startproc
 361              	.LVL38:
 362 01e4 130101FF 		addi	sp,sp,-16
 363              		.cfi_def_cfa_offset 16
 364 01e8 23341100 		sd	ra,8(sp)
 365 01ec 23308100 		sd	s0,0(sp)
 366              		.cfi_offset 1, -8
 367              		.cfi_offset 8, -16
 368 01f0 13040101 		addi	s0,sp,16
 369              		.cfi_def_cfa 8, 0
  12:src/MemoryAllocator.cpp **** }
 370              		.loc 1 12 5
  12:src/MemoryAllocator.cpp **** }
 371              		.loc 1 12 33 is_stmt 0
 372 01f4 97000000 		call	_ZN15MemoryAllocator21tryToAllocateFragmentEm
 372      E7800000 
 373              	.LVL39:
  13:src/MemoryAllocator.cpp **** 
 374              		.loc 1 13 1
 375 01fc 83308100 		ld	ra,8(sp)
 376              		.cfi_restore 1
 377 0200 03340100 		ld	s0,0(sp)
 378              		.cfi_restore 8
 379              		.cfi_def_cfa 2, 16
 380 0204 13010101 		addi	sp,sp,16
 381              		.cfi_def_cfa_offset 0
 382 0208 67800000 		jr	ra
 383              		.cfi_endproc
 384              	.LFE0:
 386              		.align	2
 387              		.globl	_ZN15MemoryAllocator20insertNewFreeSegmentEPvm
 389              	_ZN15MemoryAllocator20insertNewFreeSegmentEPvm:
 390              	.LFB5:
 108:src/MemoryAllocator.cpp **** 
 109:src/MemoryAllocator.cpp **** void MemoryAllocator::insertNewFreeSegment(void* addr, size_t size)
 110:src/MemoryAllocator.cpp **** {
 391              		.loc 1 110 1 is_stmt 1
 392              		.cfi_startproc
 393              	.LVL40:
 394 020c 130101FE 		addi	sp,sp,-32
 395              		.cfi_def_cfa_offset 32
 396 0210 233C1100 		sd	ra,24(sp)
 397 0214 23388100 		sd	s0,16(sp)
 398 0218 23349100 		sd	s1,8(sp)
GAS LISTING /tmp/ccyuZUST.s 			page 11


 399 021c 23302101 		sd	s2,0(sp)
 400              		.cfi_offset 1, -8
 401              		.cfi_offset 8, -16
 402              		.cfi_offset 9, -24
 403              		.cfi_offset 18, -32
 404 0220 13040102 		addi	s0,sp,32
 405              		.cfi_def_cfa 8, 0
 406 0224 93040500 		mv	s1,a0
 407 0228 13890500 		mv	s2,a1
 111:src/MemoryAllocator.cpp ****     initMemory();
 408              		.loc 1 111 5
 409              		.loc 1 111 15 is_stmt 0
 410 022c 97000000 		call	_ZN15MemoryAllocator10initMemoryEv
 410      E7800000 
 411              	.LVL41:
 112:src/MemoryAllocator.cpp ****     BlockHeader* prev = 0;
 412              		.loc 1 112 5 is_stmt 1
 113:src/MemoryAllocator.cpp ****     BlockHeader* curr = headFree;
 413              		.loc 1 113 5
 414              		.loc 1 113 18 is_stmt 0
 415 0234 97070000 		ld	a5,.LANCHOR0+16
 415      83B70700 
 416              	.LVL42:
 114:src/MemoryAllocator.cpp ****     BlockHeader* newSegment = (BlockHeader*)addr;
 417              		.loc 1 114 5 is_stmt 1
 115:src/MemoryAllocator.cpp ****     newSegment->size = size;
 418              		.loc 1 115 5
 419              		.loc 1 115 22 is_stmt 0
 420 023c 23B02401 		sd	s2,0(s1)
 116:src/MemoryAllocator.cpp ****     newSegment->next = 0;
 421              		.loc 1 116 5 is_stmt 1
 422              		.loc 1 116 22 is_stmt 0
 423 0240 23B40400 		sd	zero,8(s1)
 112:src/MemoryAllocator.cpp ****     BlockHeader* curr = headFree;
 424              		.loc 1 112 18
 425 0244 13070000 		li	a4,0
 426              	.LVL43:
 427              	.L31:
 117:src/MemoryAllocator.cpp ****     while(curr != 0)
 428              		.loc 1 117 5 is_stmt 1
 429              		.loc 1 117 16
 430 0248 638C0700 		beqz	a5,.L29
 118:src/MemoryAllocator.cpp ****     {
 119:src/MemoryAllocator.cpp ****         if((void*)curr > addr)
 431              		.loc 1 119 9
 432 024c 63E8F400 		bgtu	a5,s1,.L37
 120:src/MemoryAllocator.cpp ****         {
 121:src/MemoryAllocator.cpp ****             newSegment->next = curr;
 122:src/MemoryAllocator.cpp ****             break;
 123:src/MemoryAllocator.cpp ****         }
 124:src/MemoryAllocator.cpp **** 
 125:src/MemoryAllocator.cpp ****         prev = curr;
 433              		.loc 1 125 9
 434              	.LVL44:
 126:src/MemoryAllocator.cpp ****         curr = curr->next;
 435              		.loc 1 126 9
 125:src/MemoryAllocator.cpp ****         curr = curr->next;
GAS LISTING /tmp/ccyuZUST.s 			page 12


 436              		.loc 1 125 14 is_stmt 0
 437 0250 13870700 		mv	a4,a5
 438              		.loc 1 126 14
 439 0254 83B78700 		ld	a5,8(a5)
 440              	.LVL45:
 117:src/MemoryAllocator.cpp ****     {
 441              		.loc 1 117 5
 442 0258 6FF01FFF 		j	.L31
 443              	.L37:
 121:src/MemoryAllocator.cpp ****             break;
 444              		.loc 1 121 13 is_stmt 1
 121:src/MemoryAllocator.cpp ****             break;
 445              		.loc 1 121 30 is_stmt 0
 446 025c 23B4F400 		sd	a5,8(s1)
 122:src/MemoryAllocator.cpp ****         }
 447              		.loc 1 122 13 is_stmt 1
 448              	.L29:
 127:src/MemoryAllocator.cpp ****     }
 128:src/MemoryAllocator.cpp **** 
 129:src/MemoryAllocator.cpp ****     if(prev == 0)
 449              		.loc 1 129 5
 450 0260 63060704 		beqz	a4,.L38
 130:src/MemoryAllocator.cpp ****         headFree = newSegment;
 131:src/MemoryAllocator.cpp ****     else
 132:src/MemoryAllocator.cpp ****         prev->next = newSegment;
 451              		.loc 1 132 9
 452              		.loc 1 132 20 is_stmt 0
 453 0264 23349700 		sd	s1,8(a4)
 454              	.LVL46:
 455              	.L33:
 133:src/MemoryAllocator.cpp **** 
 134:src/MemoryAllocator.cpp ****     //todo
 135:src/MemoryAllocator.cpp ****     //test it
 136:src/MemoryAllocator.cpp ****     if(newSegment->next != 0 && (char*)newSegment->next == (char*)newSegment + newSegment->size + s
 456              		.loc 1 136 5 is_stmt 1
 457              		.loc 1 136 20 is_stmt 0
 458 0268 83B78400 		ld	a5,8(s1)
 459              		.loc 1 136 5
 460 026c 638A0700 		beqz	a5,.L34
 461              		.loc 1 136 92 discriminator 1
 462 0270 03B60400 		ld	a2,0(s1)
 463              		.loc 1 136 97 discriminator 1
 464 0274 93060601 		addi	a3,a2,16
 465 0278 B386D400 		add	a3,s1,a3
 466              		.loc 1 136 30 discriminator 1
 467 027c 638ED702 		beq	a5,a3,.L39
 468              	.L34:
 137:src/MemoryAllocator.cpp ****     {
 138:src/MemoryAllocator.cpp ****         newSegment->size += newSegment->next->size + sizeof(BlockHeader);
 139:src/MemoryAllocator.cpp ****         newSegment->next = newSegment->next->next;
 140:src/MemoryAllocator.cpp ****     }
 141:src/MemoryAllocator.cpp **** 
 142:src/MemoryAllocator.cpp ****     if(prev != 0 && (char*)newSegment == (char*)prev + prev->size + sizeof(BlockHeader))
 469              		.loc 1 142 5 is_stmt 1
 470 0280 630A0700 		beqz	a4,.L28
 471              		.loc 1 142 62 is_stmt 0 discriminator 1
 472 0284 83360700 		ld	a3,0(a4)
GAS LISTING /tmp/ccyuZUST.s 			page 13


 473              		.loc 1 142 67 discriminator 1
 474 0288 93870601 		addi	a5,a3,16
 475 028c B307F700 		add	a5,a4,a5
 476              		.loc 1 142 18 discriminator 1
 477 0290 63829704 		beq	a5,s1,.L40
 478              	.L28:
 143:src/MemoryAllocator.cpp ****     {
 144:src/MemoryAllocator.cpp ****         prev->size+=newSegment->size + sizeof(BlockHeader);
 145:src/MemoryAllocator.cpp ****         prev->next = newSegment->next;
 146:src/MemoryAllocator.cpp ****     }
 147:src/MemoryAllocator.cpp **** }
 479              		.loc 1 147 1
 480 0294 83308101 		ld	ra,24(sp)
 481              		.cfi_remember_state
 482              		.cfi_restore 1
 483 0298 03340101 		ld	s0,16(sp)
 484              		.cfi_restore 8
 485              		.cfi_def_cfa 2, 32
 486 029c 83348100 		ld	s1,8(sp)
 487              		.cfi_restore 9
 488              	.LVL47:
 489 02a0 03390100 		ld	s2,0(sp)
 490              		.cfi_restore 18
 491              	.LVL48:
 492 02a4 13010102 		addi	sp,sp,32
 493              		.cfi_def_cfa_offset 0
 494 02a8 67800000 		jr	ra
 495              	.LVL49:
 496              	.L38:
 497              		.cfi_restore_state
 130:src/MemoryAllocator.cpp ****     else
 498              		.loc 1 130 9 is_stmt 1
 130:src/MemoryAllocator.cpp ****     else
 499              		.loc 1 130 18 is_stmt 0
 500 02ac 97070000 		sd	s1,.LANCHOR0+16,a5
 500      23B09700 
 501              	.LVL50:
 502 02b4 6FF05FFB 		j	.L33
 503              	.L39:
 138:src/MemoryAllocator.cpp ****         newSegment->next = newSegment->next->next;
 504              		.loc 1 138 9 is_stmt 1
 138:src/MemoryAllocator.cpp ****         newSegment->next = newSegment->next->next;
 505              		.loc 1 138 47 is_stmt 0
 506 02b8 83B60700 		ld	a3,0(a5)
 138:src/MemoryAllocator.cpp ****         newSegment->next = newSegment->next->next;
 507              		.loc 1 138 26
 508 02bc 3306D600 		add	a2,a2,a3
 509 02c0 13060601 		addi	a2,a2,16
 510 02c4 23B0C400 		sd	a2,0(s1)
 139:src/MemoryAllocator.cpp ****     }
 511              		.loc 1 139 9 is_stmt 1
 139:src/MemoryAllocator.cpp ****     }
 512              		.loc 1 139 46 is_stmt 0
 513 02c8 83B78700 		ld	a5,8(a5)
 139:src/MemoryAllocator.cpp ****     }
 514              		.loc 1 139 26
 515 02cc 23B4F400 		sd	a5,8(s1)
GAS LISTING /tmp/ccyuZUST.s 			page 14


 516 02d0 6FF01FFB 		j	.L34
 517              	.L40:
 144:src/MemoryAllocator.cpp ****         prev->next = newSegment->next;
 518              		.loc 1 144 9 is_stmt 1
 144:src/MemoryAllocator.cpp ****         prev->next = newSegment->next;
 519              		.loc 1 144 33 is_stmt 0
 520 02d4 83B70400 		ld	a5,0(s1)
 144:src/MemoryAllocator.cpp ****         prev->next = newSegment->next;
 521              		.loc 1 144 19
 522 02d8 B386F600 		add	a3,a3,a5
 523 02dc 93860601 		addi	a3,a3,16
 524 02e0 2330D700 		sd	a3,0(a4)
 145:src/MemoryAllocator.cpp ****     }
 525              		.loc 1 145 9 is_stmt 1
 145:src/MemoryAllocator.cpp ****     }
 526              		.loc 1 145 34 is_stmt 0
 527 02e4 83B78400 		ld	a5,8(s1)
 145:src/MemoryAllocator.cpp ****     }
 528              		.loc 1 145 20
 529 02e8 2334F700 		sd	a5,8(a4)
 530              		.loc 1 147 1
 531 02ec 6FF09FFA 		j	.L28
 532              		.cfi_endproc
 533              	.LFE5:
 535              		.align	2
 536              		.globl	_ZN15MemoryAllocator16tryToFreeSegmentEPv
 538              	_ZN15MemoryAllocator16tryToFreeSegmentEPv:
 539              	.LFB6:
 148:src/MemoryAllocator.cpp **** 
 149:src/MemoryAllocator.cpp **** uint64 MemoryAllocator::tryToFreeSegment(void* addr)
 150:src/MemoryAllocator.cpp **** {
 540              		.loc 1 150 1 is_stmt 1
 541              		.cfi_startproc
 542              	.LVL51:
 543 02f0 130101FE 		addi	sp,sp,-32
 544              		.cfi_def_cfa_offset 32
 545 02f4 233C1100 		sd	ra,24(sp)
 546 02f8 23388100 		sd	s0,16(sp)
 547 02fc 23349100 		sd	s1,8(sp)
 548 0300 23302101 		sd	s2,0(sp)
 549              		.cfi_offset 1, -8
 550              		.cfi_offset 8, -16
 551              		.cfi_offset 9, -24
 552              		.cfi_offset 18, -32
 553 0304 13040102 		addi	s0,sp,32
 554              		.cfi_def_cfa 8, 0
 555 0308 13090500 		mv	s2,a0
 151:src/MemoryAllocator.cpp ****     initMemory();
 556              		.loc 1 151 5
 557              		.loc 1 151 15 is_stmt 0
 558 030c 97000000 		call	_ZN15MemoryAllocator10initMemoryEv
 558      E7800000 
 559              	.LVL52:
 152:src/MemoryAllocator.cpp ****     BlockHeader* prev = 0;
 560              		.loc 1 152 5 is_stmt 1
 153:src/MemoryAllocator.cpp ****     BlockHeader* curr = headAllocated;
 561              		.loc 1 153 5
GAS LISTING /tmp/ccyuZUST.s 			page 15


 562              		.loc 1 153 18 is_stmt 0
 563 0314 97040000 		ld	s1,.LANCHOR0+8
 563      83B40400 
 564              	.LVL53:
 152:src/MemoryAllocator.cpp ****     BlockHeader* prev = 0;
 565              		.loc 1 152 18
 566 031c 13070000 		li	a4,0
 567              	.LVL54:
 568              	.L46:
 154:src/MemoryAllocator.cpp ****     while(curr != 0)
 569              		.loc 1 154 5 is_stmt 1
 570              		.loc 1 154 16
 571 0320 638A0402 		beqz	s1,.L42
 155:src/MemoryAllocator.cpp ****     {
 156:src/MemoryAllocator.cpp ****         if(addr == (void*)((char*)curr + sizeof(BlockHeader)))
 572              		.loc 1 156 9
 573              		.loc 1 156 20 is_stmt 0
 574 0324 93870401 		addi	a5,s1,16
 575              		.loc 1 156 9
 576 0328 63882701 		beq	a5,s2,.L50
 157:src/MemoryAllocator.cpp ****         {
 158:src/MemoryAllocator.cpp ****             if(prev != 0)
 159:src/MemoryAllocator.cpp ****                 prev->next = curr->next;
 160:src/MemoryAllocator.cpp ****             else
 161:src/MemoryAllocator.cpp ****                 headAllocated = curr->next;
 162:src/MemoryAllocator.cpp **** 
 163:src/MemoryAllocator.cpp ****             insertNewFreeSegment((void*)curr, curr->size);
 164:src/MemoryAllocator.cpp **** 
 165:src/MemoryAllocator.cpp ****             break;
 166:src/MemoryAllocator.cpp ****         }
 167:src/MemoryAllocator.cpp **** 
 168:src/MemoryAllocator.cpp ****         prev = curr;
 577              		.loc 1 168 9 is_stmt 1
 578              	.LVL55:
 169:src/MemoryAllocator.cpp ****         curr = curr->next;
 579              		.loc 1 169 9
 168:src/MemoryAllocator.cpp ****         curr = curr->next;
 580              		.loc 1 168 14 is_stmt 0
 581 032c 13870400 		mv	a4,s1
 582              		.loc 1 169 14
 583 0330 83B48400 		ld	s1,8(s1)
 584              	.LVL56:
 154:src/MemoryAllocator.cpp ****     {
 585              		.loc 1 154 5
 586 0334 6FF0DFFE 		j	.L46
 587              	.L50:
 158:src/MemoryAllocator.cpp ****                 prev->next = curr->next;
 588              		.loc 1 158 13 is_stmt 1
 589 0338 630E0702 		beqz	a4,.L44
 159:src/MemoryAllocator.cpp ****             else
 590              		.loc 1 159 17
 159:src/MemoryAllocator.cpp ****             else
 591              		.loc 1 159 36 is_stmt 0
 592 033c 83B78400 		ld	a5,8(s1)
 159:src/MemoryAllocator.cpp ****             else
 593              		.loc 1 159 28
 594 0340 2334F700 		sd	a5,8(a4)
GAS LISTING /tmp/ccyuZUST.s 			page 16


 595              	.LVL57:
 596              	.L45:
 163:src/MemoryAllocator.cpp **** 
 597              		.loc 1 163 13 is_stmt 1
 163:src/MemoryAllocator.cpp **** 
 598              		.loc 1 163 33 is_stmt 0
 599 0344 83B50400 		ld	a1,0(s1)
 600 0348 13850400 		mv	a0,s1
 601 034c 97000000 		call	_ZN15MemoryAllocator20insertNewFreeSegmentEPvm
 601      E7800000 
 602              	.LVL58:
 165:src/MemoryAllocator.cpp ****         }
 603              		.loc 1 165 13 is_stmt 1
 604              	.L42:
 170:src/MemoryAllocator.cpp ****     }
 171:src/MemoryAllocator.cpp **** 
 172:src/MemoryAllocator.cpp ****     if(curr != 0)
 605              		.loc 1 172 5
 606 0354 63880402 		beqz	s1,.L48
 173:src/MemoryAllocator.cpp ****         return 0;
 607              		.loc 1 173 16 is_stmt 0
 608 0358 13050000 		li	a0,0
 609              	.L41:
 174:src/MemoryAllocator.cpp ****     else
 175:src/MemoryAllocator.cpp ****         return 1;
 176:src/MemoryAllocator.cpp **** }
 610              		.loc 1 176 1
 611 035c 83308101 		ld	ra,24(sp)
 612              		.cfi_remember_state
 613              		.cfi_restore 1
 614 0360 03340101 		ld	s0,16(sp)
 615              		.cfi_restore 8
 616              		.cfi_def_cfa 2, 32
 617 0364 83348100 		ld	s1,8(sp)
 618              		.cfi_restore 9
 619              	.LVL59:
 620 0368 03390100 		ld	s2,0(sp)
 621              		.cfi_restore 18
 622              	.LVL60:
 623 036c 13010102 		addi	sp,sp,32
 624              		.cfi_def_cfa_offset 0
 625 0370 67800000 		jr	ra
 626              	.LVL61:
 627              	.L44:
 628              		.cfi_restore_state
 161:src/MemoryAllocator.cpp **** 
 629              		.loc 1 161 17 is_stmt 1
 161:src/MemoryAllocator.cpp **** 
 630              		.loc 1 161 39 is_stmt 0
 631 0374 83B78400 		ld	a5,8(s1)
 161:src/MemoryAllocator.cpp **** 
 632              		.loc 1 161 31
 633 0378 17070000 		sd	a5,.LANCHOR0+8,a4
 633      2330F700 
 634              	.LVL62:
 635 0380 6FF05FFC 		j	.L45
 636              	.L48:
GAS LISTING /tmp/ccyuZUST.s 			page 17


 175:src/MemoryAllocator.cpp **** }
 637              		.loc 1 175 16
 638 0384 13051000 		li	a0,1
 639 0388 6FF05FFD 		j	.L41
 640              		.cfi_endproc
 641              	.LFE6:
 643              		.align	2
 644              		.globl	_ZN15MemoryAllocator8mem_freeEPv
 646              	_ZN15MemoryAllocator8mem_freeEPv:
 647              	.LFB1:
  15:src/MemoryAllocator.cpp ****     return tryToFreeSegment(addr);
 648              		.loc 1 15 47 is_stmt 1
 649              		.cfi_startproc
 650              	.LVL63:
 651 038c 130101FF 		addi	sp,sp,-16
 652              		.cfi_def_cfa_offset 16
 653 0390 23341100 		sd	ra,8(sp)
 654 0394 23308100 		sd	s0,0(sp)
 655              		.cfi_offset 1, -8
 656              		.cfi_offset 8, -16
 657 0398 13040101 		addi	s0,sp,16
 658              		.cfi_def_cfa 8, 0
  16:src/MemoryAllocator.cpp **** }
 659              		.loc 1 16 5
  16:src/MemoryAllocator.cpp **** }
 660              		.loc 1 16 28 is_stmt 0
 661 039c 97000000 		call	_ZN15MemoryAllocator16tryToFreeSegmentEPv
 661      E7800000 
 662              	.LVL64:
  17:src/MemoryAllocator.cpp **** 
 663              		.loc 1 17 1
 664 03a4 83308100 		ld	ra,8(sp)
 665              		.cfi_restore 1
 666 03a8 03340100 		ld	s0,0(sp)
 667              		.cfi_restore 8
 668              		.cfi_def_cfa 2, 16
 669 03ac 13010101 		addi	sp,sp,16
 670              		.cfi_def_cfa_offset 0
 671 03b0 67800000 		jr	ra
 672              		.cfi_endproc
 673              	.LFE1:
 675              		.align	2
 676              		.globl	_Z7kmallocm
 678              	_Z7kmallocm:
 679              	.LFB7:
 177:src/MemoryAllocator.cpp **** 
 178:src/MemoryAllocator.cpp **** void* kmalloc(size_t size)
 179:src/MemoryAllocator.cpp **** {
 680              		.loc 1 179 1 is_stmt 1
 681              		.cfi_startproc
 682              	.LVL65:
 683 03b4 130101FF 		addi	sp,sp,-16
 684              		.cfi_def_cfa_offset 16
 685 03b8 23341100 		sd	ra,8(sp)
 686 03bc 23308100 		sd	s0,0(sp)
 687              		.cfi_offset 1, -8
 688              		.cfi_offset 8, -16
GAS LISTING /tmp/ccyuZUST.s 			page 18


 689 03c0 13040101 		addi	s0,sp,16
 690              		.cfi_def_cfa 8, 0
 180:src/MemoryAllocator.cpp ****     return MemoryAllocator::mem_alloc(size);
 691              		.loc 1 180 5
 692              		.loc 1 180 38 is_stmt 0
 693 03c4 97000000 		call	_ZN15MemoryAllocator9mem_allocEm
 693      E7800000 
 694              	.LVL66:
 181:src/MemoryAllocator.cpp **** }
 695              		.loc 1 181 1
 696 03cc 83308100 		ld	ra,8(sp)
 697              		.cfi_restore 1
 698 03d0 03340100 		ld	s0,0(sp)
 699              		.cfi_restore 8
 700              		.cfi_def_cfa 2, 16
 701 03d4 13010101 		addi	sp,sp,16
 702              		.cfi_def_cfa_offset 0
 703 03d8 67800000 		jr	ra
 704              		.cfi_endproc
 705              	.LFE7:
 707              		.align	2
 708              		.globl	_Z5kfreePv
 710              	_Z5kfreePv:
 711              	.LFB8:
 182:src/MemoryAllocator.cpp **** 
 183:src/MemoryAllocator.cpp **** uint64 kfree(void* p)
 184:src/MemoryAllocator.cpp **** {
 712              		.loc 1 184 1 is_stmt 1
 713              		.cfi_startproc
 714              	.LVL67:
 715 03dc 130101FF 		addi	sp,sp,-16
 716              		.cfi_def_cfa_offset 16
 717 03e0 23341100 		sd	ra,8(sp)
 718 03e4 23308100 		sd	s0,0(sp)
 719              		.cfi_offset 1, -8
 720              		.cfi_offset 8, -16
 721 03e8 13040101 		addi	s0,sp,16
 722              		.cfi_def_cfa 8, 0
 185:src/MemoryAllocator.cpp ****     return MemoryAllocator::mem_free(p);
 723              		.loc 1 185 5
 724              		.loc 1 185 37 is_stmt 0
 725 03ec 97000000 		call	_ZN15MemoryAllocator8mem_freeEPv
 725      E7800000 
 726              	.LVL68:
 186:src/MemoryAllocator.cpp **** }...
 727              		.loc 1 186 1
 728 03f4 83308100 		ld	ra,8(sp)
 729              		.cfi_restore 1
 730 03f8 03340100 		ld	s0,0(sp)
 731              		.cfi_restore 8
 732              		.cfi_def_cfa 2, 16
 733 03fc 13010101 		addi	sp,sp,16
 734              		.cfi_def_cfa_offset 0
 735 0400 67800000 		jr	ra
 736              		.cfi_endproc
 737              	.LFE8:
 739              		.globl	_ZN15MemoryAllocator18memoryInitiliaizedE
GAS LISTING /tmp/ccyuZUST.s 			page 19


 740              		.globl	_ZN15MemoryAllocator8headFreeE
 741              		.globl	_ZN15MemoryAllocator13headAllocatedE
 742              		.bss
 743              		.align	3
 744              		.set	.LANCHOR0,. + 0
 747              	_ZN15MemoryAllocator18memoryInitiliaizedE:
 748 0000 00000000 		.zero	4
 749 0004 00000000 		.zero	4
 752              	_ZN15MemoryAllocator13headAllocatedE:
 753 0008 00000000 		.zero	8
 753      00000000 
 756              	_ZN15MemoryAllocator8headFreeE:
 757 0010 00000000 		.zero	8
 757      00000000 
 758              		.text
 759              	.Letext0:
 760              		.file 2 "src/../h/../lib/hw.h"
 761              		.file 3 "src/../h/MemoryAllocator.hpp"
GAS LISTING /tmp/ccyuZUST.s 			page 20


DEFINED SYMBOLS
                            *ABS*:0000000000000000 MemoryAllocator.cpp
     /tmp/ccyuZUST.s:9      .text:0000000000000000 _ZN15MemoryAllocator10initMemoryEv
     /tmp/ccyuZUST.s:13     .text:0000000000000000 .L0 
     /tmp/ccyuZUST.s:14     .text:0000000000000000 .L0 
     /tmp/ccyuZUST.s:15     .text:0000000000000004 .L0 
     /tmp/ccyuZUST.s:17     .text:0000000000000008 .L0 
     /tmp/ccyuZUST.s:19     .text:000000000000000c .L0 
     /tmp/ccyuZUST.s:21     .text:000000000000000c .L0 
     /tmp/ccyuZUST.s:22     .text:000000000000000c .L0 
     /tmp/ccyuZUST.s:24     .text:0000000000000014 .L0 
     /tmp/ccyuZUST.s:27     .text:000000000000001c .L0 
     /tmp/ccyuZUST.s:28     .text:000000000000001c .L0 
     /tmp/ccyuZUST.s:32     .text:000000000000002c .L0 
     /tmp/ccyuZUST.s:33     .text:000000000000002c .L0 
     /tmp/ccyuZUST.s:35     .text:0000000000000030 .L0 
     /tmp/ccyuZUST.s:36     .text:0000000000000030 .L0 
     /tmp/ccyuZUST.s:40     .text:0000000000000040 .L0 
     /tmp/ccyuZUST.s:41     .text:0000000000000040 .L0 
     /tmp/ccyuZUST.s:43     .text:0000000000000044 .L0 
     /tmp/ccyuZUST.s:44     .text:0000000000000044 .L0 
     /tmp/ccyuZUST.s:48     .text:0000000000000054 .L0 
     /tmp/ccyuZUST.s:50     .text:0000000000000058 .L0 
     /tmp/ccyuZUST.s:53     .text:000000000000005c .L0 
     /tmp/ccyuZUST.s:54     .text:0000000000000060 .L0 
     /tmp/ccyuZUST.s:55     .text:0000000000000060 .L0 
     /tmp/ccyuZUST.s:57     .text:0000000000000064 .L0 
     /tmp/ccyuZUST.s:59     .text:0000000000000068 .L0 
     /tmp/ccyuZUST.s:65     .text:0000000000000068 _ZN15MemoryAllocator26insertNewAllocatedFragmentEPvm
     /tmp/ccyuZUST.s:68     .text:0000000000000068 .L0 
     /tmp/ccyuZUST.s:70     .text:0000000000000068 .L0 
     /tmp/ccyuZUST.s:71     .text:000000000000006c .L0 
     /tmp/ccyuZUST.s:76     .text:000000000000007c .L0 
     /tmp/ccyuZUST.s:77     .text:000000000000007c .L0 
     /tmp/ccyuZUST.s:78     .text:000000000000007c .L0 
     /tmp/ccyuZUST.s:79     .text:000000000000007c .L0 
     /tmp/ccyuZUST.s:81     .text:0000000000000080 .L0 
     /tmp/ccyuZUST.s:85     .text:0000000000000088 .L0 
     /tmp/ccyuZUST.s:86     .text:0000000000000088 .L0 
     /tmp/ccyuZUST.s:89     .text:0000000000000090 .L0 
     /tmp/ccyuZUST.s:90     .text:0000000000000090 .L0 
     /tmp/ccyuZUST.s:91     .text:0000000000000090 .L0 
     /tmp/ccyuZUST.s:94     .text:0000000000000098 .L0 
     /tmp/ccyuZUST.s:95     .text:0000000000000098 .L0 
     /tmp/ccyuZUST.s:96     .text:0000000000000098 .L0 
     /tmp/ccyuZUST.s:98     .text:000000000000009c .L0 
     /tmp/ccyuZUST.s:99     .text:000000000000009c .L0 
     /tmp/ccyuZUST.s:101    .text:00000000000000a0 .L0 
     /tmp/ccyuZUST.s:105    .text:00000000000000a4 .L0 
     /tmp/ccyuZUST.s:106    .text:00000000000000a4 .L0 
     /tmp/ccyuZUST.s:108    .text:00000000000000a8 .L0 
     /tmp/ccyuZUST.s:111    .text:00000000000000ac .L0 
     /tmp/ccyuZUST.s:112    .text:00000000000000ac .L0 
     /tmp/ccyuZUST.s:113    .text:00000000000000ac .L0 
     /tmp/ccyuZUST.s:115    .text:00000000000000b0 .L0 
     /tmp/ccyuZUST.s:118    .text:00000000000000b4 .L0 
     /tmp/ccyuZUST.s:121    .text:00000000000000b8 .L0 
GAS LISTING /tmp/ccyuZUST.s 			page 21


     /tmp/ccyuZUST.s:122    .text:00000000000000b8 .L0 
     /tmp/ccyuZUST.s:125    .text:00000000000000bc .L0 
     /tmp/ccyuZUST.s:126    .text:00000000000000bc .L0 
     /tmp/ccyuZUST.s:128    .text:00000000000000c0 .L0 
     /tmp/ccyuZUST.s:129    .text:00000000000000c0 .L0 
     /tmp/ccyuZUST.s:133    .text:00000000000000c4 .L0 
     /tmp/ccyuZUST.s:134    .text:00000000000000c8 .L0 
     /tmp/ccyuZUST.s:135    .text:00000000000000c8 .L0 
     /tmp/ccyuZUST.s:137    .text:00000000000000cc .L0 
     /tmp/ccyuZUST.s:138    .text:00000000000000cc .L0 
     /tmp/ccyuZUST.s:140    .text:00000000000000d0 .L0 
     /tmp/ccyuZUST.s:143    .text:00000000000000d4 .L0 
     /tmp/ccyuZUST.s:146    .text:00000000000000d8 .L0 
     /tmp/ccyuZUST.s:150    .text:00000000000000dc .L0 
     /tmp/ccyuZUST.s:152    .text:00000000000000dc .L0 
     /tmp/ccyuZUST.s:153    .text:00000000000000dc .L0 
     /tmp/ccyuZUST.s:156    .text:00000000000000e8 .L0 
     /tmp/ccyuZUST.s:162    .text:00000000000000e8 _ZN15MemoryAllocator21tryToAllocateFragmentEm
     /tmp/ccyuZUST.s:165    .text:00000000000000e8 .L0 
     /tmp/ccyuZUST.s:167    .text:00000000000000e8 .L0 
     /tmp/ccyuZUST.s:168    .text:00000000000000ec .L0 
     /tmp/ccyuZUST.s:173    .text:00000000000000fc .L0 
     /tmp/ccyuZUST.s:174    .text:00000000000000fc .L0 
     /tmp/ccyuZUST.s:175    .text:00000000000000fc .L0 
     /tmp/ccyuZUST.s:176    .text:00000000000000fc .L0 
     /tmp/ccyuZUST.s:178    .text:0000000000000100 .L0 
     /tmp/ccyuZUST.s:181    .text:0000000000000104 .L0 
     /tmp/ccyuZUST.s:182    .text:0000000000000104 .L0 
     /tmp/ccyuZUST.s:185    .text:000000000000010c .L0 
     /tmp/ccyuZUST.s:186    .text:000000000000010c .L0 
     /tmp/ccyuZUST.s:187    .text:000000000000010c .L0 
     /tmp/ccyuZUST.s:188    .text:000000000000010c .L0 
     /tmp/ccyuZUST.s:191    .text:0000000000000114 .L0 
     /tmp/ccyuZUST.s:195    .text:0000000000000118 .L0 
     /tmp/ccyuZUST.s:196    .text:0000000000000118 .L0 
     /tmp/ccyuZUST.s:200    .text:000000000000011c .L0 
     /tmp/ccyuZUST.s:201    .text:000000000000011c .L0 
     /tmp/ccyuZUST.s:203    .text:0000000000000120 .L0 
     /tmp/ccyuZUST.s:207    .text:0000000000000124 .L0 
     /tmp/ccyuZUST.s:208    .text:0000000000000124 .L0 
     /tmp/ccyuZUST.s:209    .text:0000000000000124 .L0 
     /tmp/ccyuZUST.s:211    .text:0000000000000128 .L0 
     /tmp/ccyuZUST.s:215    .text:000000000000012c .L0 
     /tmp/ccyuZUST.s:222    .text:0000000000000130 .L0 
     /tmp/ccyuZUST.s:223    .text:0000000000000130 .L0 
     /tmp/ccyuZUST.s:224    .text:0000000000000130 .L0 
     /tmp/ccyuZUST.s:226    .text:0000000000000134 .L0 
     /tmp/ccyuZUST.s:230    .text:0000000000000138 .L0 
     /tmp/ccyuZUST.s:231    .text:0000000000000138 .L0 
     /tmp/ccyuZUST.s:234    .text:0000000000000144 .L0 
     /tmp/ccyuZUST.s:237    .text:0000000000000148 .L0 
     /tmp/ccyuZUST.s:238    .text:0000000000000148 .L0 
     /tmp/ccyuZUST.s:242    .text:000000000000014c .L0 
     /tmp/ccyuZUST.s:247    .text:0000000000000154 .L0 
     /tmp/ccyuZUST.s:248    .text:0000000000000154 .L0 
     /tmp/ccyuZUST.s:249    .text:0000000000000154 .L0 
     /tmp/ccyuZUST.s:251    .text:0000000000000158 .L0 
GAS LISTING /tmp/ccyuZUST.s 			page 22


     /tmp/ccyuZUST.s:253    .text:000000000000015c .L0 
     /tmp/ccyuZUST.s:254    .text:000000000000015c .L0 
     /tmp/ccyuZUST.s:257    .text:0000000000000160 .L0 
     /tmp/ccyuZUST.s:259    .text:0000000000000164 .L0 
     /tmp/ccyuZUST.s:261    .text:0000000000000168 .L0 
     /tmp/ccyuZUST.s:262    .text:0000000000000168 .L0 
     /tmp/ccyuZUST.s:266    .text:0000000000000170 .L0 
     /tmp/ccyuZUST.s:267    .text:0000000000000170 .L0 
     /tmp/ccyuZUST.s:274    .text:000000000000017c .L0 
     /tmp/ccyuZUST.s:276    .text:0000000000000180 .L0 
     /tmp/ccyuZUST.s:277    .text:0000000000000180 .L0 
     /tmp/ccyuZUST.s:280    .text:0000000000000184 .L0 
     /tmp/ccyuZUST.s:286    .text:000000000000018c .L0 
     /tmp/ccyuZUST.s:287    .text:000000000000018c .L0 
     /tmp/ccyuZUST.s:290    .text:0000000000000190 .L0 
     /tmp/ccyuZUST.s:298    .text:000000000000019c .L0 
     /tmp/ccyuZUST.s:300    .text:00000000000001a0 .L0 
     /tmp/ccyuZUST.s:301    .text:00000000000001a0 .L0 
     /tmp/ccyuZUST.s:306    .text:00000000000001a4 .L0 
     /tmp/ccyuZUST.s:307    .text:00000000000001a4 .L0 
     /tmp/ccyuZUST.s:312    .text:00000000000001b4 .L0 
     /tmp/ccyuZUST.s:313    .text:00000000000001b4 .L0 
     /tmp/ccyuZUST.s:316    .text:00000000000001b8 .L0 
     /tmp/ccyuZUST.s:317    .text:00000000000001b8 .L0 
     /tmp/ccyuZUST.s:322    .text:00000000000001bc .L0 
     /tmp/ccyuZUST.s:323    .text:00000000000001bc .L0 
     /tmp/ccyuZUST.s:332    .text:00000000000001c8 .L0 
     /tmp/ccyuZUST.s:336    .text:00000000000001cc .L0 
     /tmp/ccyuZUST.s:337    .text:00000000000001cc .L0 
     /tmp/ccyuZUST.s:338    .text:00000000000001d0 .L0 
     /tmp/ccyuZUST.s:340    .text:00000000000001d4 .L0 
     /tmp/ccyuZUST.s:341    .text:00000000000001d4 .L0 
     /tmp/ccyuZUST.s:343    .text:00000000000001d8 .L0 
     /tmp/ccyuZUST.s:346    .text:00000000000001dc .L0 
     /tmp/ccyuZUST.s:349    .text:00000000000001e0 .L0 
     /tmp/ccyuZUST.s:351    .text:00000000000001e4 .L0 
     /tmp/ccyuZUST.s:357    .text:00000000000001e4 _ZN15MemoryAllocator9mem_allocEm
     /tmp/ccyuZUST.s:360    .text:00000000000001e4 .L0 
     /tmp/ccyuZUST.s:362    .text:00000000000001e4 .L0 
     /tmp/ccyuZUST.s:363    .text:00000000000001e8 .L0 
     /tmp/ccyuZUST.s:366    .text:00000000000001f0 .L0 
     /tmp/ccyuZUST.s:367    .text:00000000000001f0 .L0 
     /tmp/ccyuZUST.s:369    .text:00000000000001f4 .L0 
     /tmp/ccyuZUST.s:371    .text:00000000000001f4 .L0 
     /tmp/ccyuZUST.s:372    .text:00000000000001f4 .L0 
     /tmp/ccyuZUST.s:375    .text:00000000000001fc .L0 
     /tmp/ccyuZUST.s:376    .text:0000000000000200 .L0 
     /tmp/ccyuZUST.s:378    .text:0000000000000204 .L0 
     /tmp/ccyuZUST.s:379    .text:0000000000000204 .L0 
     /tmp/ccyuZUST.s:381    .text:0000000000000208 .L0 
     /tmp/ccyuZUST.s:383    .text:000000000000020c .L0 
     /tmp/ccyuZUST.s:389    .text:000000000000020c _ZN15MemoryAllocator20insertNewFreeSegmentEPvm
     /tmp/ccyuZUST.s:392    .text:000000000000020c .L0 
     /tmp/ccyuZUST.s:394    .text:000000000000020c .L0 
     /tmp/ccyuZUST.s:395    .text:0000000000000210 .L0 
     /tmp/ccyuZUST.s:400    .text:0000000000000220 .L0 
     /tmp/ccyuZUST.s:401    .text:0000000000000220 .L0 
GAS LISTING /tmp/ccyuZUST.s 			page 23


     /tmp/ccyuZUST.s:402    .text:0000000000000220 .L0 
     /tmp/ccyuZUST.s:403    .text:0000000000000220 .L0 
     /tmp/ccyuZUST.s:405    .text:0000000000000224 .L0 
     /tmp/ccyuZUST.s:409    .text:000000000000022c .L0 
     /tmp/ccyuZUST.s:410    .text:000000000000022c .L0 
     /tmp/ccyuZUST.s:413    .text:0000000000000234 .L0 
     /tmp/ccyuZUST.s:414    .text:0000000000000234 .L0 
     /tmp/ccyuZUST.s:415    .text:0000000000000234 .L0 
     /tmp/ccyuZUST.s:418    .text:000000000000023c .L0 
     /tmp/ccyuZUST.s:419    .text:000000000000023c .L0 
     /tmp/ccyuZUST.s:420    .text:000000000000023c .L0 
     /tmp/ccyuZUST.s:422    .text:0000000000000240 .L0 
     /tmp/ccyuZUST.s:423    .text:0000000000000240 .L0 
     /tmp/ccyuZUST.s:425    .text:0000000000000244 .L0 
     /tmp/ccyuZUST.s:429    .text:0000000000000248 .L0 
     /tmp/ccyuZUST.s:430    .text:0000000000000248 .L0 
     /tmp/ccyuZUST.s:432    .text:000000000000024c .L0 
     /tmp/ccyuZUST.s:435    .text:0000000000000250 .L0 
     /tmp/ccyuZUST.s:436    .text:0000000000000250 .L0 
     /tmp/ccyuZUST.s:437    .text:0000000000000250 .L0 
     /tmp/ccyuZUST.s:439    .text:0000000000000254 .L0 
     /tmp/ccyuZUST.s:442    .text:0000000000000258 .L0 
     /tmp/ccyuZUST.s:445    .text:000000000000025c .L0 
     /tmp/ccyuZUST.s:446    .text:000000000000025c .L0 
     /tmp/ccyuZUST.s:449    .text:0000000000000260 .L0 
     /tmp/ccyuZUST.s:450    .text:0000000000000260 .L0 
     /tmp/ccyuZUST.s:452    .text:0000000000000264 .L0 
     /tmp/ccyuZUST.s:453    .text:0000000000000264 .L0 
     /tmp/ccyuZUST.s:457    .text:0000000000000268 .L0 
     /tmp/ccyuZUST.s:458    .text:0000000000000268 .L0 
     /tmp/ccyuZUST.s:460    .text:000000000000026c .L0 
     /tmp/ccyuZUST.s:462    .text:0000000000000270 .L0 
     /tmp/ccyuZUST.s:464    .text:0000000000000274 .L0 
     /tmp/ccyuZUST.s:467    .text:000000000000027c .L0 
     /tmp/ccyuZUST.s:470    .text:0000000000000280 .L0 
     /tmp/ccyuZUST.s:472    .text:0000000000000284 .L0 
     /tmp/ccyuZUST.s:474    .text:0000000000000288 .L0 
     /tmp/ccyuZUST.s:477    .text:0000000000000290 .L0 
     /tmp/ccyuZUST.s:480    .text:0000000000000294 .L0 
     /tmp/ccyuZUST.s:481    .text:0000000000000298 .L0 
     /tmp/ccyuZUST.s:482    .text:0000000000000298 .L0 
     /tmp/ccyuZUST.s:484    .text:000000000000029c .L0 
     /tmp/ccyuZUST.s:485    .text:000000000000029c .L0 
     /tmp/ccyuZUST.s:487    .text:00000000000002a0 .L0 
     /tmp/ccyuZUST.s:490    .text:00000000000002a4 .L0 
     /tmp/ccyuZUST.s:493    .text:00000000000002a8 .L0 
     /tmp/ccyuZUST.s:497    .text:00000000000002ac .L0 
     /tmp/ccyuZUST.s:499    .text:00000000000002ac .L0 
     /tmp/ccyuZUST.s:500    .text:00000000000002ac .L0 
     /tmp/ccyuZUST.s:505    .text:00000000000002b8 .L0 
     /tmp/ccyuZUST.s:506    .text:00000000000002b8 .L0 
     /tmp/ccyuZUST.s:508    .text:00000000000002bc .L0 
     /tmp/ccyuZUST.s:512    .text:00000000000002c8 .L0 
     /tmp/ccyuZUST.s:513    .text:00000000000002c8 .L0 
     /tmp/ccyuZUST.s:515    .text:00000000000002cc .L0 
     /tmp/ccyuZUST.s:519    .text:00000000000002d4 .L0 
     /tmp/ccyuZUST.s:520    .text:00000000000002d4 .L0 
GAS LISTING /tmp/ccyuZUST.s 			page 24


     /tmp/ccyuZUST.s:522    .text:00000000000002d8 .L0 
     /tmp/ccyuZUST.s:526    .text:00000000000002e4 .L0 
     /tmp/ccyuZUST.s:527    .text:00000000000002e4 .L0 
     /tmp/ccyuZUST.s:529    .text:00000000000002e8 .L0 
     /tmp/ccyuZUST.s:531    .text:00000000000002ec .L0 
     /tmp/ccyuZUST.s:532    .text:00000000000002f0 .L0 
     /tmp/ccyuZUST.s:538    .text:00000000000002f0 _ZN15MemoryAllocator16tryToFreeSegmentEPv
     /tmp/ccyuZUST.s:541    .text:00000000000002f0 .L0 
     /tmp/ccyuZUST.s:543    .text:00000000000002f0 .L0 
     /tmp/ccyuZUST.s:544    .text:00000000000002f4 .L0 
     /tmp/ccyuZUST.s:549    .text:0000000000000304 .L0 
     /tmp/ccyuZUST.s:550    .text:0000000000000304 .L0 
     /tmp/ccyuZUST.s:551    .text:0000000000000304 .L0 
     /tmp/ccyuZUST.s:552    .text:0000000000000304 .L0 
     /tmp/ccyuZUST.s:554    .text:0000000000000308 .L0 
     /tmp/ccyuZUST.s:557    .text:000000000000030c .L0 
     /tmp/ccyuZUST.s:558    .text:000000000000030c .L0 
     /tmp/ccyuZUST.s:561    .text:0000000000000314 .L0 
     /tmp/ccyuZUST.s:562    .text:0000000000000314 .L0 
     /tmp/ccyuZUST.s:563    .text:0000000000000314 .L0 
     /tmp/ccyuZUST.s:566    .text:000000000000031c .L0 
     /tmp/ccyuZUST.s:570    .text:0000000000000320 .L0 
     /tmp/ccyuZUST.s:571    .text:0000000000000320 .L0 
     /tmp/ccyuZUST.s:573    .text:0000000000000324 .L0 
     /tmp/ccyuZUST.s:574    .text:0000000000000324 .L0 
     /tmp/ccyuZUST.s:576    .text:0000000000000328 .L0 
     /tmp/ccyuZUST.s:579    .text:000000000000032c .L0 
     /tmp/ccyuZUST.s:580    .text:000000000000032c .L0 
     /tmp/ccyuZUST.s:581    .text:000000000000032c .L0 
     /tmp/ccyuZUST.s:583    .text:0000000000000330 .L0 
     /tmp/ccyuZUST.s:586    .text:0000000000000334 .L0 
     /tmp/ccyuZUST.s:589    .text:0000000000000338 .L0 
     /tmp/ccyuZUST.s:591    .text:000000000000033c .L0 
     /tmp/ccyuZUST.s:592    .text:000000000000033c .L0 
     /tmp/ccyuZUST.s:594    .text:0000000000000340 .L0 
     /tmp/ccyuZUST.s:598    .text:0000000000000344 .L0 
     /tmp/ccyuZUST.s:599    .text:0000000000000344 .L0 
     /tmp/ccyuZUST.s:605    .text:0000000000000354 .L0 
     /tmp/ccyuZUST.s:606    .text:0000000000000354 .L0 
     /tmp/ccyuZUST.s:608    .text:0000000000000358 .L0 
     /tmp/ccyuZUST.s:611    .text:000000000000035c .L0 
     /tmp/ccyuZUST.s:612    .text:0000000000000360 .L0 
     /tmp/ccyuZUST.s:613    .text:0000000000000360 .L0 
     /tmp/ccyuZUST.s:615    .text:0000000000000364 .L0 
     /tmp/ccyuZUST.s:616    .text:0000000000000364 .L0 
     /tmp/ccyuZUST.s:618    .text:0000000000000368 .L0 
     /tmp/ccyuZUST.s:621    .text:000000000000036c .L0 
     /tmp/ccyuZUST.s:624    .text:0000000000000370 .L0 
     /tmp/ccyuZUST.s:628    .text:0000000000000374 .L0 
     /tmp/ccyuZUST.s:630    .text:0000000000000374 .L0 
     /tmp/ccyuZUST.s:631    .text:0000000000000374 .L0 
     /tmp/ccyuZUST.s:633    .text:0000000000000378 .L0 
     /tmp/ccyuZUST.s:638    .text:0000000000000384 .L0 
     /tmp/ccyuZUST.s:640    .text:000000000000038c .L0 
     /tmp/ccyuZUST.s:646    .text:000000000000038c _ZN15MemoryAllocator8mem_freeEPv
     /tmp/ccyuZUST.s:649    .text:000000000000038c .L0 
     /tmp/ccyuZUST.s:651    .text:000000000000038c .L0 
GAS LISTING /tmp/ccyuZUST.s 			page 25


     /tmp/ccyuZUST.s:652    .text:0000000000000390 .L0 
     /tmp/ccyuZUST.s:655    .text:0000000000000398 .L0 
     /tmp/ccyuZUST.s:656    .text:0000000000000398 .L0 
     /tmp/ccyuZUST.s:658    .text:000000000000039c .L0 
     /tmp/ccyuZUST.s:660    .text:000000000000039c .L0 
     /tmp/ccyuZUST.s:661    .text:000000000000039c .L0 
     /tmp/ccyuZUST.s:664    .text:00000000000003a4 .L0 
     /tmp/ccyuZUST.s:665    .text:00000000000003a8 .L0 
     /tmp/ccyuZUST.s:667    .text:00000000000003ac .L0 
     /tmp/ccyuZUST.s:668    .text:00000000000003ac .L0 
     /tmp/ccyuZUST.s:670    .text:00000000000003b0 .L0 
     /tmp/ccyuZUST.s:672    .text:00000000000003b4 .L0 
     /tmp/ccyuZUST.s:678    .text:00000000000003b4 _Z7kmallocm
     /tmp/ccyuZUST.s:681    .text:00000000000003b4 .L0 
     /tmp/ccyuZUST.s:683    .text:00000000000003b4 .L0 
     /tmp/ccyuZUST.s:684    .text:00000000000003b8 .L0 
     /tmp/ccyuZUST.s:687    .text:00000000000003c0 .L0 
     /tmp/ccyuZUST.s:688    .text:00000000000003c0 .L0 
     /tmp/ccyuZUST.s:690    .text:00000000000003c4 .L0 
     /tmp/ccyuZUST.s:692    .text:00000000000003c4 .L0 
     /tmp/ccyuZUST.s:693    .text:00000000000003c4 .L0 
     /tmp/ccyuZUST.s:696    .text:00000000000003cc .L0 
     /tmp/ccyuZUST.s:697    .text:00000000000003d0 .L0 
     /tmp/ccyuZUST.s:699    .text:00000000000003d4 .L0 
     /tmp/ccyuZUST.s:700    .text:00000000000003d4 .L0 
     /tmp/ccyuZUST.s:702    .text:00000000000003d8 .L0 
     /tmp/ccyuZUST.s:704    .text:00000000000003dc .L0 
     /tmp/ccyuZUST.s:710    .text:00000000000003dc _Z5kfreePv
     /tmp/ccyuZUST.s:713    .text:00000000000003dc .L0 
     /tmp/ccyuZUST.s:715    .text:00000000000003dc .L0 
     /tmp/ccyuZUST.s:716    .text:00000000000003e0 .L0 
     /tmp/ccyuZUST.s:719    .text:00000000000003e8 .L0 
     /tmp/ccyuZUST.s:720    .text:00000000000003e8 .L0 
     /tmp/ccyuZUST.s:722    .text:00000000000003ec .L0 
     /tmp/ccyuZUST.s:724    .text:00000000000003ec .L0 
     /tmp/ccyuZUST.s:725    .text:00000000000003ec .L0 
     /tmp/ccyuZUST.s:728    .text:00000000000003f4 .L0 
     /tmp/ccyuZUST.s:729    .text:00000000000003f8 .L0 
     /tmp/ccyuZUST.s:731    .text:00000000000003fc .L0 
     /tmp/ccyuZUST.s:732    .text:00000000000003fc .L0 
     /tmp/ccyuZUST.s:734    .text:0000000000000400 .L0 
     /tmp/ccyuZUST.s:736    .text:0000000000000404 .L0 
     /tmp/ccyuZUST.s:747    .bss:0000000000000000 _ZN15MemoryAllocator18memoryInitiliaizedE
     /tmp/ccyuZUST.s:756    .bss:0000000000000010 _ZN15MemoryAllocator8headFreeE
     /tmp/ccyuZUST.s:752    .bss:0000000000000008 _ZN15MemoryAllocator13headAllocatedE
     /tmp/ccyuZUST.s:744    .bss:0000000000000000 .LANCHOR0
     /tmp/ccyuZUST.s:762    .text:0000000000000404 .L0 
     /tmp/ccyuZUST.s:22     .text:000000000000000c .L0 
     /tmp/ccyuZUST.s:28     .text:000000000000001c .L0 
     /tmp/ccyuZUST.s:36     .text:0000000000000030 .L0 
     /tmp/ccyuZUST.s:44     .text:0000000000000044 .L0 
     /tmp/ccyuZUST.s:91     .text:0000000000000090 .L0 
     /tmp/ccyuZUST.s:153    .text:00000000000000dc .L0 
     /tmp/ccyuZUST.s:188    .text:000000000000010c .L0 
     /tmp/ccyuZUST.s:231    .text:0000000000000138 .L0 
     /tmp/ccyuZUST.s:267    .text:0000000000000170 .L0 
     /tmp/ccyuZUST.s:290    .text:0000000000000190 .L0 
GAS LISTING /tmp/ccyuZUST.s 			page 26


     /tmp/ccyuZUST.s:323    .text:00000000000001bc .L0 
     /tmp/ccyuZUST.s:415    .text:0000000000000234 .L0 
     /tmp/ccyuZUST.s:500    .text:00000000000002ac .L0 
     /tmp/ccyuZUST.s:563    .text:0000000000000314 .L0 
     /tmp/ccyuZUST.s:633    .text:0000000000000378 .L0 
     /tmp/ccyuZUST.s:51     .text:000000000000005c .L1
     /tmp/ccyuZUST.s:124    .text:00000000000000bc .L5
     /tmp/ccyuZUST.s:119    .text:00000000000000b8 .L11
     /tmp/ccyuZUST.s:103    .text:00000000000000a4 .L7
     /tmp/ccyuZUST.s:149    .text:00000000000000dc .L12
     /tmp/ccyuZUST.s:131    .text:00000000000000c4 .L4
     /tmp/ccyuZUST.s:326    .text:00000000000001c8 .L23
     /tmp/ccyuZUST.s:216    .text:0000000000000130 .L25
     /tmp/ccyuZUST.s:193    .text:0000000000000118 .L22
     /tmp/ccyuZUST.s:294    .text:000000000000019c .L16
     /tmp/ccyuZUST.s:271    .text:000000000000017c .L17
     /tmp/ccyuZUST.s:264    .text:0000000000000170 .L18
     /tmp/ccyuZUST.s:303    .text:00000000000001a4 .L19
     /tmp/ccyuZUST.s:284    .text:000000000000018c .L20
     /tmp/ccyuZUST.s:319    .text:00000000000001bc .L21
     /tmp/ccyuZUST.s:334    .text:00000000000001cc .L14
     /tmp/ccyuZUST.s:448    .text:0000000000000260 .L29
     /tmp/ccyuZUST.s:443    .text:000000000000025c .L37
     /tmp/ccyuZUST.s:427    .text:0000000000000248 .L31
     /tmp/ccyuZUST.s:496    .text:00000000000002ac .L38
     /tmp/ccyuZUST.s:468    .text:0000000000000280 .L34
     /tmp/ccyuZUST.s:503    .text:00000000000002b8 .L39
     /tmp/ccyuZUST.s:478    .text:0000000000000294 .L28
     /tmp/ccyuZUST.s:517    .text:00000000000002d4 .L40
     /tmp/ccyuZUST.s:455    .text:0000000000000268 .L33
     /tmp/ccyuZUST.s:604    .text:0000000000000354 .L42
     /tmp/ccyuZUST.s:587    .text:0000000000000338 .L50
     /tmp/ccyuZUST.s:568    .text:0000000000000320 .L46
     /tmp/ccyuZUST.s:627    .text:0000000000000374 .L44
     /tmp/ccyuZUST.s:636    .text:0000000000000384 .L48
     /tmp/ccyuZUST.s:596    .text:0000000000000344 .L45
     /tmp/ccyuZUST.s:609    .text:000000000000035c .L41
     /tmp/ccyuZUST.s:1457   .debug_abbrev:0000000000000000 .Ldebug_abbrev0
     /tmp/ccyuZUST.s:2544   .debug_str:0000000000000044 .LASF55
     /tmp/ccyuZUST.s:2608   .debug_str:00000000000002ee .LASF56
     /tmp/ccyuZUST.s:2614   .debug_str:000000000000031f .LASF57
     /tmp/ccyuZUST.s:5      .text:0000000000000000 .Ltext0
     /tmp/ccyuZUST.s:759    .text:0000000000000404 .Letext0
     /tmp/ccyuZUST.s:2532   .debug_line:0000000000000000 .Ldebug_line0
     /tmp/ccyuZUST.s:2596   .debug_str:0000000000000268 .LASF0
     /tmp/ccyuZUST.s:2582   .debug_str:0000000000000215 .LASF1
     /tmp/ccyuZUST.s:2574   .debug_str:00000000000001d4 .LASF2
     /tmp/ccyuZUST.s:2552   .debug_str:0000000000000109 .LASF4
     /tmp/ccyuZUST.s:2578   .debug_str:00000000000001ed .LASF3
     /tmp/ccyuZUST.s:2538   .debug_str:0000000000000023 .LASF5
     /tmp/ccyuZUST.s:2534   .debug_str:0000000000000000 .LASF6
     /tmp/ccyuZUST.s:2564   .debug_str:000000000000015a .LASF7
     /tmp/ccyuZUST.s:2604   .debug_str:00000000000002c8 .LASF8
     /tmp/ccyuZUST.s:2550   .debug_str:00000000000000fb .LASF9
     /tmp/ccyuZUST.s:2654   .debug_str:00000000000004bd .LASF10
     /tmp/ccyuZUST.s:2570   .debug_str:00000000000001a4 .LASF11
     /tmp/ccyuZUST.s:2640   .debug_str:000000000000044b .LASF12
GAS LISTING /tmp/ccyuZUST.s 			page 27


     /tmp/ccyuZUST.s:2610   .debug_str:0000000000000306 .LASF13
     /tmp/ccyuZUST.s:2584   .debug_str:0000000000000228 .LASF14
     /tmp/ccyuZUST.s:2556   .debug_str:000000000000011b .LASF15
     /tmp/ccyuZUST.s:2606   .debug_str:00000000000002d8 .LASF16
     /tmp/ccyuZUST.s:2536   .debug_str:0000000000000013 .LASF58
     /tmp/ccyuZUST.s:2590   .debug_str:0000000000000246 .LASF19
     /tmp/ccyuZUST.s:2646   .debug_str:000000000000048f .LASF17
     /tmp/ccyuZUST.s:2540   .debug_str:000000000000002a .LASF18
     /tmp/ccyuZUST.s:2560   .debug_str:000000000000014c .LASF20
     /tmp/ccyuZUST.s:2592   .debug_str:0000000000000252 .LASF21
     /tmp/ccyuZUST.s:2628   .debug_str:00000000000003d2 .LASF22
     /tmp/ccyuZUST.s:2638   .debug_str:0000000000000442 .LASF23
     /tmp/ccyuZUST.s:2588   .debug_str:000000000000023c .LASF24
     /tmp/ccyuZUST.s:2644   .debug_str:0000000000000485 .LASF25
     /tmp/ccyuZUST.s:2632   .debug_str:00000000000003eb .LASF27
     /tmp/ccyuZUST.s:2612   .debug_str:0000000000000316 .LASF26
     /tmp/ccyuZUST.s:2572   .debug_str:00000000000001b3 .LASF28
     /tmp/ccyuZUST.s:2598   .debug_str:0000000000000275 .LASF59
     /tmp/ccyuZUST.s:2600   .debug_str:0000000000000280 .LASF60
     /tmp/ccyuZUST.s:2558   .debug_str:0000000000000131 .LASF31
     /tmp/ccyuZUST.s:2616   .debug_str:0000000000000342 .LASF33
     /tmp/ccyuZUST.s:2580   .debug_str:00000000000001ff .LASF29
     /tmp/ccyuZUST.s:2634   .debug_str:000000000000040c .LASF30
     /tmp/ccyuZUST.s:2542   .debug_str:000000000000002f .LASF32
     /tmp/ccyuZUST.s:2568   .debug_str:0000000000000175 .LASF34
     /tmp/ccyuZUST.s:2624   .debug_str:00000000000003ba .LASF35
     /tmp/ccyuZUST.s:2642   .debug_str:000000000000045b .LASF36
     /tmp/ccyuZUST.s:2602   .debug_str:00000000000002a3 .LASF37
     /tmp/ccyuZUST.s:2648   .debug_str:0000000000000494 .LASF38
     /tmp/ccyuZUST.s:2622   .debug_str:0000000000000390 .LASF39
     /tmp/ccyuZUST.s:2630   .debug_str:00000000000003e5 .LASF40
     /tmp/ccyuZUST.s:2554   .debug_str:0000000000000110 .LASF42
     /tmp/ccyuZUST.s:711    .text:00000000000003dc .LFB8
     /tmp/ccyuZUST.s:737    .text:0000000000000404 .LFE8
     /tmp/ccyuZUST.s:2026   .debug_loc:0000000000000000 .LLST25
     /tmp/ccyuZUST.s:726    .text:00000000000003f4 .LVL68
     /tmp/ccyuZUST.s:2586   .debug_str:0000000000000234 .LASF41
     /tmp/ccyuZUST.s:2618   .debug_str:0000000000000377 .LASF43
     /tmp/ccyuZUST.s:679    .text:00000000000003b4 .LFB7
     /tmp/ccyuZUST.s:705    .text:00000000000003dc .LFE7
     /tmp/ccyuZUST.s:2040   .debug_loc:0000000000000039 .LLST24
     /tmp/ccyuZUST.s:694    .text:00000000000003cc .LVL66
     /tmp/ccyuZUST.s:539    .text:00000000000002f0 .LFB6
     /tmp/ccyuZUST.s:641    .text:000000000000038c .LFE6
     /tmp/ccyuZUST.s:2562   .debug_str:0000000000000155 .LASF44
     /tmp/ccyuZUST.s:2054   .debug_loc:0000000000000072 .LLST20
     /tmp/ccyuZUST.s:2650   .debug_str:00000000000004b3 .LASF45
     /tmp/ccyuZUST.s:2076   .debug_loc:00000000000000d1 .LLST21
     /tmp/ccyuZUST.s:2546   .debug_str:00000000000000f0 .LASF46
     /tmp/ccyuZUST.s:2100   .debug_loc:0000000000000141 .LLST22
     /tmp/ccyuZUST.s:559    .text:0000000000000314 .LVL52
     /tmp/ccyuZUST.s:602    .text:0000000000000354 .LVL58
     /tmp/ccyuZUST.s:390    .text:000000000000020c .LFB5
     /tmp/ccyuZUST.s:533    .text:00000000000002f0 .LFE5
     /tmp/ccyuZUST.s:2120   .debug_loc:000000000000019e .LLST15
     /tmp/ccyuZUST.s:2142   .debug_loc:00000000000001fd .LLST16
     /tmp/ccyuZUST.s:2164   .debug_loc:000000000000025c .LLST17
GAS LISTING /tmp/ccyuZUST.s 			page 28


     /tmp/ccyuZUST.s:2184   .debug_loc:00000000000002b9 .LLST18
     /tmp/ccyuZUST.s:2576   .debug_str:00000000000001e2 .LASF47
     /tmp/ccyuZUST.s:2204   .debug_loc:0000000000000316 .LLST19
     /tmp/ccyuZUST.s:411    .text:0000000000000234 .LVL41
     /tmp/ccyuZUST.s:163    .text:00000000000000e8 .LFB4
     /tmp/ccyuZUST.s:352    .text:00000000000001e4 .LFE4
     /tmp/ccyuZUST.s:2222   .debug_loc:0000000000000362 .LLST5
     /tmp/ccyuZUST.s:2626   .debug_str:00000000000003cb .LASF48
     /tmp/ccyuZUST.s:2240   .debug_loc:00000000000003ae .LLST6
     /tmp/ccyuZUST.s:2261   .debug_loc:000000000000040c .LLST7
     /tmp/ccyuZUST.s:2289   .debug_loc:000000000000048f .LLST8
     /tmp/ccyuZUST.s:219    .text:0000000000000130 .LBB4
     /tmp/ccyuZUST.s:328    .text:00000000000001c8 .LBE4
     /tmp/ccyuZUST.s:2594   .debug_str:0000000000000260 .LASF49
     /tmp/ccyuZUST.s:2305   .debug_loc:00000000000004d9 .LLST9
     /tmp/ccyuZUST.s:2636   .debug_str:000000000000043a .LASF50
     /tmp/ccyuZUST.s:2312   .debug_loc:00000000000004fc .LLST10
     /tmp/ccyuZUST.s:2652   .debug_str:00000000000004b8 .LASF51
     /tmp/ccyuZUST.s:2334   .debug_loc:000000000000054c .LLST11
     /tmp/ccyuZUST.s:235    .text:0000000000000148 .LBB6
     /tmp/ccyuZUST.s:296    .text:000000000000019c .LBE6
     /tmp/ccyuZUST.s:2548   .debug_str:00000000000000f5 .LASF52
     /tmp/ccyuZUST.s:2341   .debug_loc:000000000000056f .LLST12
     /tmp/ccyuZUST.s:244    .text:0000000000000154 .LBB8
     /tmp/ccyuZUST.s:272    .text:000000000000017c .LBE8
     /tmp/ccyuZUST.s:2566   .debug_str:000000000000016d .LASF53
     /tmp/ccyuZUST.s:2382   .debug_loc:00000000000005ff .LLST13
     /tmp/ccyuZUST.s:310    .text:00000000000001b4 .LVL31
     /tmp/ccyuZUST.s:183    .text:000000000000010c .LVL12
     /tmp/ccyuZUST.s:66     .text:0000000000000068 .LFB3
     /tmp/ccyuZUST.s:157    .text:00000000000000e8 .LFE3
     /tmp/ccyuZUST.s:2389   .debug_loc:0000000000000622 .LLST0
     /tmp/ccyuZUST.s:2411   .debug_loc:0000000000000681 .LLST1
     /tmp/ccyuZUST.s:2433   .debug_loc:00000000000006e0 .LLST2
     /tmp/ccyuZUST.s:2453   .debug_loc:000000000000073d .LLST3
     /tmp/ccyuZUST.s:2620   .debug_str:0000000000000383 .LASF54
     /tmp/ccyuZUST.s:2473   .debug_loc:000000000000079a .LLST4
     /tmp/ccyuZUST.s:87     .text:0000000000000090 .LVL1
     /tmp/ccyuZUST.s:10     .text:0000000000000000 .LFB2
     /tmp/ccyuZUST.s:60     .text:0000000000000068 .LFE2
     /tmp/ccyuZUST.s:647    .text:000000000000038c .LFB1
     /tmp/ccyuZUST.s:673    .text:00000000000003b4 .LFE1
     /tmp/ccyuZUST.s:2491   .debug_loc:00000000000007e6 .LLST23
     /tmp/ccyuZUST.s:662    .text:00000000000003a4 .LVL64
     /tmp/ccyuZUST.s:358    .text:00000000000001e4 .LFB0
     /tmp/ccyuZUST.s:384    .text:000000000000020c .LFE0
     /tmp/ccyuZUST.s:2505   .debug_loc:000000000000081f .LLST14
     /tmp/ccyuZUST.s:373    .text:00000000000001fc .LVL39
     /tmp/ccyuZUST.s:714    .text:00000000000003dc .LVL67
     /tmp/ccyuZUST.s:682    .text:00000000000003b4 .LVL65
     /tmp/ccyuZUST.s:542    .text:00000000000002f0 .LVL51
     /tmp/ccyuZUST.s:622    .text:000000000000036c .LVL60
     /tmp/ccyuZUST.s:626    .text:0000000000000374 .LVL61
     /tmp/ccyuZUST.s:567    .text:0000000000000320 .LVL54
     /tmp/ccyuZUST.s:578    .text:000000000000032c .LVL55
     /tmp/ccyuZUST.s:584    .text:0000000000000334 .LVL56
     /tmp/ccyuZUST.s:595    .text:0000000000000344 .LVL57
GAS LISTING /tmp/ccyuZUST.s 			page 29


     /tmp/ccyuZUST.s:634    .text:0000000000000380 .LVL62
     /tmp/ccyuZUST.s:564    .text:000000000000031c .LVL53
     /tmp/ccyuZUST.s:619    .text:0000000000000368 .LVL59
     /tmp/ccyuZUST.s:393    .text:000000000000020c .LVL40
     /tmp/ccyuZUST.s:488    .text:00000000000002a0 .LVL47
     /tmp/ccyuZUST.s:495    .text:00000000000002ac .LVL49
     /tmp/ccyuZUST.s:491    .text:00000000000002a4 .LVL48
     /tmp/ccyuZUST.s:426    .text:0000000000000248 .LVL43
     /tmp/ccyuZUST.s:434    .text:0000000000000250 .LVL44
     /tmp/ccyuZUST.s:440    .text:0000000000000258 .LVL45
     /tmp/ccyuZUST.s:416    .text:000000000000023c .LVL42
     /tmp/ccyuZUST.s:454    .text:0000000000000268 .LVL46
     /tmp/ccyuZUST.s:501    .text:00000000000002b4 .LVL50
     /tmp/ccyuZUST.s:166    .text:00000000000000e8 .LVL11
     /tmp/ccyuZUST.s:347    .text:00000000000001dc .LVL37
     /tmp/ccyuZUST.s:314    .text:00000000000001b8 .LVL32
     /tmp/ccyuZUST.s:318    .text:00000000000001bc .LVL33
     /tmp/ccyuZUST.s:333    .text:00000000000001cc .LVL35
     /tmp/ccyuZUST.s:192    .text:0000000000000118 .LVL14
     /tmp/ccyuZUST.s:206    .text:0000000000000124 .LVL15
     /tmp/ccyuZUST.s:212    .text:000000000000012c .LVL16
     /tmp/ccyuZUST.s:291    .text:0000000000000198 .LVL28
     /tmp/ccyuZUST.s:293    .text:000000000000019c .LVL29
     /tmp/ccyuZUST.s:302    .text:00000000000001a4 .LVL30
     /tmp/ccyuZUST.s:189    .text:0000000000000114 .LVL13
     /tmp/ccyuZUST.s:344    .text:00000000000001d8 .LVL36
     /tmp/ccyuZUST.s:221    .text:0000000000000130 .LVL17
     /tmp/ccyuZUST.s:325    .text:00000000000001c8 .LVL34
     /tmp/ccyuZUST.s:227    .text:0000000000000138 .LVL18
     /tmp/ccyuZUST.s:239    .text:000000000000014c .LVL19
     /tmp/ccyuZUST.s:255    .text:0000000000000160 .LVL21
     /tmp/ccyuZUST.s:268    .text:0000000000000178 .LVL22
     /tmp/ccyuZUST.s:270    .text:000000000000017c .LVL23
     /tmp/ccyuZUST.s:278    .text:0000000000000184 .LVL24
     /tmp/ccyuZUST.s:281    .text:0000000000000188 .LVL25
     /tmp/ccyuZUST.s:283    .text:000000000000018c .LVL26
     /tmp/ccyuZUST.s:288    .text:0000000000000190 .LVL27
     /tmp/ccyuZUST.s:246    .text:0000000000000154 .LVL20
     /tmp/ccyuZUST.s:69     .text:0000000000000068 .LVL0
     /tmp/ccyuZUST.s:141    .text:00000000000000d0 .LVL7
     /tmp/ccyuZUST.s:148    .text:00000000000000dc .LVL9
     /tmp/ccyuZUST.s:144    .text:00000000000000d4 .LVL8
     /tmp/ccyuZUST.s:102    .text:00000000000000a4 .LVL3
     /tmp/ccyuZUST.s:110    .text:00000000000000ac .LVL4
     /tmp/ccyuZUST.s:116    .text:00000000000000b4 .LVL5
     /tmp/ccyuZUST.s:92     .text:0000000000000098 .LVL2
     /tmp/ccyuZUST.s:130    .text:00000000000000c4 .LVL6
     /tmp/ccyuZUST.s:154    .text:00000000000000e4 .LVL10
     /tmp/ccyuZUST.s:650    .text:000000000000038c .LVL63
     /tmp/ccyuZUST.s:361    .text:00000000000001e4 .LVL38
     /tmp/ccyuZUST.s:763    .debug_info:0000000000000000 .Ldebug_info0

UNDEFINED SYMBOLS
HEAP_START_ADDR
HEAP_END_ADDR
