GAS LISTING /tmp/cc5hX2bs.s 			page 1


   1              		.file	"MemoryAllocator.cpp"
   2              		.option pic
   3              		.option norelax
   4              		.text
   5              	.Ltext0:
   6              		.align	2
   7              		.globl	_ZN15MemoryAllocator10initMemoryEv
   9              	_ZN15MemoryAllocator10initMemoryEv:
  10              	.LFB2:
  11              		.file 1 "src/MemoryAllocator.cpp"
   1:src/MemoryAllocator.cpp **** //
   2:src/MemoryAllocator.cpp **** // Created by os on 4/27/22.
   3:src/MemoryAllocator.cpp **** //
   4:src/MemoryAllocator.cpp **** 
   5:src/MemoryAllocator.cpp **** #include "../h/MemoryAllocator.h"
   6:src/MemoryAllocator.cpp **** 
   7:src/MemoryAllocator.cpp **** MemoryAllocator::BlockHeader* MemoryAllocator::headAllocated = 0;
   8:src/MemoryAllocator.cpp **** MemoryAllocator::BlockHeader* MemoryAllocator::headFree = 0;
   9:src/MemoryAllocator.cpp **** int MemoryAllocator::memoryInitiliaized = 0;
  10:src/MemoryAllocator.cpp **** 
  11:src/MemoryAllocator.cpp **** void *MemoryAllocator::mem_alloc(size_t size) {
  12:src/MemoryAllocator.cpp ****     return tryToAllocateFragment(size);
  13:src/MemoryAllocator.cpp **** }
  14:src/MemoryAllocator.cpp **** 
  15:src/MemoryAllocator.cpp **** uint64 MemoryAllocator::mem_free(void * addr) {
  16:src/MemoryAllocator.cpp ****     return tryToFreeSegment(addr);
  17:src/MemoryAllocator.cpp **** }
  18:src/MemoryAllocator.cpp **** 
  19:src/MemoryAllocator.cpp **** void MemoryAllocator::initMemory()
  20:src/MemoryAllocator.cpp **** {
  12              		.loc 1 20 1
  13              		.cfi_startproc
  14 0000 130101FF 		addi	sp,sp,-16
  15              		.cfi_def_cfa_offset 16
  16 0004 23348100 		sd	s0,8(sp)
  17              		.cfi_offset 8, -8
  18 0008 13040101 		addi	s0,sp,16
  19              		.cfi_def_cfa 8, 0
  21:src/MemoryAllocator.cpp ****     if(memoryInitiliaized == 1)
  20              		.loc 1 21 5
  21              		.loc 1 21 27 is_stmt 0
  22 000c 17070000 		lw	a4,.LANCHOR0
  22      03270700 
  23              		.loc 1 21 5
  24 0014 93071000 		li	a5,1
  25 0018 6302F704 		beq	a4,a5,.L1
  22:src/MemoryAllocator.cpp ****         return;
  23:src/MemoryAllocator.cpp ****     memoryInitiliaized = 1;
  26              		.loc 1 23 5 is_stmt 1
  27              		.loc 1 23 24 is_stmt 0
  28 001c 97070000 		lla	a5,.LANCHOR0
  28      93870700 
  29 0024 13071000 		li	a4,1
  30 0028 23A0E700 		sw	a4,0(a5)
  24:src/MemoryAllocator.cpp ****     headAllocated = 0;
  31              		.loc 1 24 5 is_stmt 1
  32              		.loc 1 24 19 is_stmt 0
GAS LISTING /tmp/cc5hX2bs.s 			page 2


  33 002c 23B40700 		sd	zero,8(a5)
  25:src/MemoryAllocator.cpp ****     headFree = (BlockHeader*)HEAP_START_ADDR;
  34              		.loc 1 25 5 is_stmt 1
  35              		.loc 1 25 14 is_stmt 0
  36 0030 17070000 		la	a4,HEAP_START_ADDR
  36      03370700 
  37 0038 03370700 		ld	a4,0(a4)
  38 003c 23B8E700 		sd	a4,16(a5)
  26:src/MemoryAllocator.cpp ****     headFree->next = 0;
  39              		.loc 1 26 5 is_stmt 1
  40              		.loc 1 26 20 is_stmt 0
  41 0040 23340700 		sd	zero,8(a4)
  27:src/MemoryAllocator.cpp ****     headFree->size = (size_t)((size_t)HEAP_END_ADDR - (size_t)HEAP_START_ADDR + 1 - sizeof(BlockHea
  42              		.loc 1 27 5 is_stmt 1
  43              		.loc 1 27 53 is_stmt 0
  44 0044 97070000 		la	a5,HEAP_END_ADDR
  44      83B70700 
  45 004c 83B70700 		ld	a5,0(a5)
  46 0050 B387E740 		sub	a5,a5,a4
  47              		.loc 1 27 83
  48 0054 938717FF 		addi	a5,a5,-15
  49              		.loc 1 27 20
  50 0058 2330F700 		sd	a5,0(a4)
  51              	.L1:
  28:src/MemoryAllocator.cpp **** }
  52              		.loc 1 28 1
  53 005c 03348100 		ld	s0,8(sp)
  54              		.cfi_restore 8
  55              		.cfi_def_cfa 2, 16
  56 0060 13010101 		addi	sp,sp,16
  57              		.cfi_def_cfa_offset 0
  58 0064 67800000 		jr	ra
  59              		.cfi_endproc
  60              	.LFE2:
  62              		.align	2
  63              		.globl	_ZN15MemoryAllocator26insertNewAllocatedFragmentEPvm
  65              	_ZN15MemoryAllocator26insertNewAllocatedFragmentEPvm:
  66              	.LFB3:
  29:src/MemoryAllocator.cpp **** 
  30:src/MemoryAllocator.cpp **** void MemoryAllocator::insertNewAllocatedFragment(void *addr, size_t size) {
  67              		.loc 1 30 75 is_stmt 1
  68              		.cfi_startproc
  69              	.LVL0:
  70 0068 130101FE 		addi	sp,sp,-32
  71              		.cfi_def_cfa_offset 32
  72 006c 233C1100 		sd	ra,24(sp)
  73 0070 23388100 		sd	s0,16(sp)
  74 0074 23349100 		sd	s1,8(sp)
  75 0078 23302101 		sd	s2,0(sp)
  76              		.cfi_offset 1, -8
  77              		.cfi_offset 8, -16
  78              		.cfi_offset 9, -24
  79              		.cfi_offset 18, -32
  80 007c 13040102 		addi	s0,sp,32
  81              		.cfi_def_cfa 8, 0
  82 0080 93040500 		mv	s1,a0
  83 0084 13890500 		mv	s2,a1
GAS LISTING /tmp/cc5hX2bs.s 			page 3


  31:src/MemoryAllocator.cpp **** 
  32:src/MemoryAllocator.cpp ****     initMemory();
  84              		.loc 1 32 5
  85              		.loc 1 32 15 is_stmt 0
  86 0088 97000000 		call	_ZN15MemoryAllocator10initMemoryEv
  86      E7800000 
  87              	.LVL1:
  33:src/MemoryAllocator.cpp ****     BlockHeader* prev = 0;
  88              		.loc 1 33 5 is_stmt 1
  34:src/MemoryAllocator.cpp ****     BlockHeader* curr =  headAllocated;
  89              		.loc 1 34 5
  90              		.loc 1 34 18 is_stmt 0
  91 0090 97070000 		ld	a5,.LANCHOR0+8
  91      83B70700 
  92              	.LVL2:
  35:src/MemoryAllocator.cpp ****     BlockHeader* newAllocated = (BlockHeader*)addr;
  93              		.loc 1 35 5 is_stmt 1
  36:src/MemoryAllocator.cpp ****     newAllocated->next = 0;
  94              		.loc 1 36 5
  95              		.loc 1 36 24 is_stmt 0
  96 0098 23B40400 		sd	zero,8(s1)
  37:src/MemoryAllocator.cpp ****     newAllocated->size = size;
  97              		.loc 1 37 5 is_stmt 1
  98              		.loc 1 37 24 is_stmt 0
  99 009c 23B02401 		sd	s2,0(s1)
  33:src/MemoryAllocator.cpp ****     BlockHeader* curr =  headAllocated;
 100              		.loc 1 33 18
 101 00a0 13070000 		li	a4,0
 102              	.LVL3:
 103              	.L7:
  38:src/MemoryAllocator.cpp ****     while(curr != 0)
 104              		.loc 1 38 5 is_stmt 1
 105              		.loc 1 38 16
 106 00a4 638C0700 		beqz	a5,.L5
  39:src/MemoryAllocator.cpp ****     {
  40:src/MemoryAllocator.cpp ****         if((void*)curr > addr)
 107              		.loc 1 40 9
 108 00a8 63E8F400 		bgtu	a5,s1,.L11
  41:src/MemoryAllocator.cpp ****         {
  42:src/MemoryAllocator.cpp ****             newAllocated->next = curr;
  43:src/MemoryAllocator.cpp ****             break;
  44:src/MemoryAllocator.cpp ****         }
  45:src/MemoryAllocator.cpp ****         prev = curr;
 109              		.loc 1 45 9
 110              	.LVL4:
  46:src/MemoryAllocator.cpp ****         curr = curr->next;
 111              		.loc 1 46 9
  45:src/MemoryAllocator.cpp ****         curr = curr->next;
 112              		.loc 1 45 14 is_stmt 0
 113 00ac 13870700 		mv	a4,a5
 114              		.loc 1 46 14
 115 00b0 83B78700 		ld	a5,8(a5)
 116              	.LVL5:
  38:src/MemoryAllocator.cpp ****     {
 117              		.loc 1 38 5
 118 00b4 6FF01FFF 		j	.L7
 119              	.L11:
GAS LISTING /tmp/cc5hX2bs.s 			page 4


  42:src/MemoryAllocator.cpp ****             break;
 120              		.loc 1 42 13 is_stmt 1
  42:src/MemoryAllocator.cpp ****             break;
 121              		.loc 1 42 32 is_stmt 0
 122 00b8 23B4F400 		sd	a5,8(s1)
  43:src/MemoryAllocator.cpp ****         }
 123              		.loc 1 43 13 is_stmt 1
 124              	.L5:
  47:src/MemoryAllocator.cpp ****     }
  48:src/MemoryAllocator.cpp **** 
  49:src/MemoryAllocator.cpp ****     if(prev == 0)
 125              		.loc 1 49 5
 126 00bc 63000702 		beqz	a4,.L12
  50:src/MemoryAllocator.cpp ****         headAllocated = newAllocated;
  51:src/MemoryAllocator.cpp ****     else
  52:src/MemoryAllocator.cpp ****         prev->next = newAllocated;
 127              		.loc 1 52 9
 128              		.loc 1 52 20 is_stmt 0
 129 00c0 23349700 		sd	s1,8(a4)
 130              	.LVL6:
 131              	.L4:
  53:src/MemoryAllocator.cpp **** }
 132              		.loc 1 53 1
 133 00c4 83308101 		ld	ra,24(sp)
 134              		.cfi_remember_state
 135              		.cfi_restore 1
 136 00c8 03340101 		ld	s0,16(sp)
 137              		.cfi_restore 8
 138              		.cfi_def_cfa 2, 32
 139 00cc 83348100 		ld	s1,8(sp)
 140              		.cfi_restore 9
 141              	.LVL7:
 142 00d0 03390100 		ld	s2,0(sp)
 143              		.cfi_restore 18
 144              	.LVL8:
 145 00d4 13010102 		addi	sp,sp,32
 146              		.cfi_def_cfa_offset 0
 147 00d8 67800000 		jr	ra
 148              	.LVL9:
 149              	.L12:
 150              		.cfi_restore_state
  50:src/MemoryAllocator.cpp ****         headAllocated = newAllocated;
 151              		.loc 1 50 9 is_stmt 1
  50:src/MemoryAllocator.cpp ****         headAllocated = newAllocated;
 152              		.loc 1 50 23 is_stmt 0
 153 00dc 97070000 		sd	s1,.LANCHOR0+8,a5
 153      23B09700 
 154              	.LVL10:
 155 00e4 6FF01FFE 		j	.L4
 156              		.cfi_endproc
 157              	.LFE3:
 159              		.align	2
 160              		.globl	_ZN15MemoryAllocator21tryToAllocateFragmentEm
 162              	_ZN15MemoryAllocator21tryToAllocateFragmentEm:
 163              	.LFB4:
  54:src/MemoryAllocator.cpp **** 
  55:src/MemoryAllocator.cpp **** void* MemoryAllocator::tryToAllocateFragment(size_t size) {
GAS LISTING /tmp/cc5hX2bs.s 			page 5


 164              		.loc 1 55 59 is_stmt 1
 165              		.cfi_startproc
 166              	.LVL11:
 167 00e8 130101FE 		addi	sp,sp,-32
 168              		.cfi_def_cfa_offset 32
 169 00ec 233C1100 		sd	ra,24(sp)
 170 00f0 23388100 		sd	s0,16(sp)
 171 00f4 23349100 		sd	s1,8(sp)
 172 00f8 23302101 		sd	s2,0(sp)
 173              		.cfi_offset 1, -8
 174              		.cfi_offset 8, -16
 175              		.cfi_offset 9, -24
 176              		.cfi_offset 18, -32
 177 00fc 13040102 		addi	s0,sp,32
 178              		.cfi_def_cfa 8, 0
 179 0100 13090500 		mv	s2,a0
  56:src/MemoryAllocator.cpp ****     initMemory();
 180              		.loc 1 56 5
 181              		.loc 1 56 15 is_stmt 0
 182 0104 97000000 		call	_ZN15MemoryAllocator10initMemoryEv
 182      E7800000 
 183              	.LVL12:
  57:src/MemoryAllocator.cpp ****     uint64 retval = 0;
 184              		.loc 1 57 5 is_stmt 1
  58:src/MemoryAllocator.cpp ****     BlockHeader* prev = 0;
 185              		.loc 1 58 5
  59:src/MemoryAllocator.cpp ****     BlockHeader* curr = headFree;
 186              		.loc 1 59 5
 187              		.loc 1 59 18 is_stmt 0
 188 010c 97040000 		ld	s1,.LANCHOR0+16
 188      83B40400 
 189              	.LVL13:
  58:src/MemoryAllocator.cpp ****     BlockHeader* prev = 0;
 190              		.loc 1 58 18
 191 0114 13070000 		li	a4,0
 192              	.LVL14:
 193              	.L22:
  60:src/MemoryAllocator.cpp ****     while(curr != 0) {
 194              		.loc 1 60 5 is_stmt 1
 195              		.loc 1 60 16
 196 0118 6388040A 		beqz	s1,.L23
 197              	.LBB2:
  61:src/MemoryAllocator.cpp **** 
  62:src/MemoryAllocator.cpp ****         if(curr->size >= size) {
 198              		.loc 1 62 9
 199              	.LBB3:
 200              		.loc 1 62 18 is_stmt 0
 201 011c 83B70400 		ld	a5,0(s1)
 202              		.loc 1 62 9
 203 0120 63F82701 		bgeu	a5,s2,.L25
 204              	.LBE3:
  63:src/MemoryAllocator.cpp **** 
  64:src/MemoryAllocator.cpp ****             void* oldAddr = curr;
  65:src/MemoryAllocator.cpp ****             void* newAddr = ((char*)curr + size + sizeof(BlockHeader));
  66:src/MemoryAllocator.cpp ****             if(newAddr <= HEAP_END_ADDR)
  67:src/MemoryAllocator.cpp ****             {
  68:src/MemoryAllocator.cpp ****                 uint64 size2 = curr->size - size;
GAS LISTING /tmp/cc5hX2bs.s 			page 6


  69:src/MemoryAllocator.cpp **** 
  70:src/MemoryAllocator.cpp ****                 if(size2 > sizeof(BlockHeader))
  71:src/MemoryAllocator.cpp ****                 {
  72:src/MemoryAllocator.cpp ****                     BlockHeader *newFree = (BlockHeader *) newAddr;
  73:src/MemoryAllocator.cpp ****                     newFree->next = curr->next;
  74:src/MemoryAllocator.cpp ****                     newFree->size = size2 - sizeof(BlockHeader);
  75:src/MemoryAllocator.cpp ****                     if (prev != 0)
  76:src/MemoryAllocator.cpp ****                         prev->next = newFree;
  77:src/MemoryAllocator.cpp ****                     else
  78:src/MemoryAllocator.cpp ****                         headFree = newFree;
  79:src/MemoryAllocator.cpp ****                 }
  80:src/MemoryAllocator.cpp ****                 else
  81:src/MemoryAllocator.cpp ****                 {
  82:src/MemoryAllocator.cpp ****                     if(prev != 0)
  83:src/MemoryAllocator.cpp ****                         prev->next = curr->next;
  84:src/MemoryAllocator.cpp ****                     else
  85:src/MemoryAllocator.cpp ****                         headFree = curr->next;
  86:src/MemoryAllocator.cpp ****                 }
  87:src/MemoryAllocator.cpp **** 
  88:src/MemoryAllocator.cpp ****             }
  89:src/MemoryAllocator.cpp ****             else
  90:src/MemoryAllocator.cpp ****             {
  91:src/MemoryAllocator.cpp ****                 if(prev != 0)
  92:src/MemoryAllocator.cpp ****                     prev->next = 0;
  93:src/MemoryAllocator.cpp ****                 else
  94:src/MemoryAllocator.cpp ****                     headFree = 0;
  95:src/MemoryAllocator.cpp ****             }
  96:src/MemoryAllocator.cpp ****             insertNewAllocatedFragment(oldAddr, size);
  97:src/MemoryAllocator.cpp ****             uint64 oldA = (uint64)((char*)oldAddr + sizeof(BlockHeader));
  98:src/MemoryAllocator.cpp ****             retval = oldA;
  99:src/MemoryAllocator.cpp ****             break;
 100:src/MemoryAllocator.cpp ****         }
 101:src/MemoryAllocator.cpp ****         prev = curr;
 205              		.loc 1 101 9 is_stmt 1
 206              	.LVL15:
 102:src/MemoryAllocator.cpp ****         curr = curr->next;
 207              		.loc 1 102 9
 101:src/MemoryAllocator.cpp ****         curr = curr->next;
 208              		.loc 1 101 14 is_stmt 0
 209 0124 13870400 		mv	a4,s1
 210              		.loc 1 102 14
 211 0128 83B48400 		ld	s1,8(s1)
 212              	.LVL16:
 213              	.LBE2:
  60:src/MemoryAllocator.cpp **** 
 214              		.loc 1 60 5
 215 012c 6FF0DFFE 		j	.L22
 216              	.L25:
 217              	.LBB11:
 218              	.LBB10:
 219              	.LBB4:
  64:src/MemoryAllocator.cpp ****             void* newAddr = ((char*)curr + size + sizeof(BlockHeader));
 220              		.loc 1 64 13 is_stmt 1
 221              	.LVL17:
  65:src/MemoryAllocator.cpp ****             if(newAddr <= HEAP_END_ADDR)
 222              		.loc 1 65 13
  65:src/MemoryAllocator.cpp ****             if(newAddr <= HEAP_END_ADDR)
GAS LISTING /tmp/cc5hX2bs.s 			page 7


 223              		.loc 1 65 49 is_stmt 0
 224 0130 93060901 		addi	a3,s2,16
  65:src/MemoryAllocator.cpp ****             if(newAddr <= HEAP_END_ADDR)
 225              		.loc 1 65 19
 226 0134 B386D400 		add	a3,s1,a3
 227              	.LVL18:
  66:src/MemoryAllocator.cpp ****             {
 228              		.loc 1 66 13 is_stmt 1
 229              	.LBB5:
  66:src/MemoryAllocator.cpp ****             {
 230              		.loc 1 66 24 is_stmt 0
 231 0138 17060000 		la	a2,HEAP_END_ADDR
 231      03360600 
 232 0140 03360600 		ld	a2,0(a2)
  66:src/MemoryAllocator.cpp ****             {
 233              		.loc 1 66 13
 234 0144 636CD604 		bltu	a2,a3,.L16
 235              	.LBB6:
  68:src/MemoryAllocator.cpp **** 
 236              		.loc 1 68 17 is_stmt 1
  68:src/MemoryAllocator.cpp **** 
 237              		.loc 1 68 24 is_stmt 0
 238 0148 B3872741 		sub	a5,a5,s2
 239              	.LVL19:
  70:src/MemoryAllocator.cpp ****                 {
 240              		.loc 1 70 17 is_stmt 1
 241              	.LBB7:
 242 014c 13060001 		li	a2,16
 243 0150 6376F602 		bleu	a5,a2,.L17
 244              	.LBB8:
  72:src/MemoryAllocator.cpp ****                     newFree->next = curr->next;
 245              		.loc 1 72 21
 246              	.LVL20:
  73:src/MemoryAllocator.cpp ****                     newFree->size = size2 - sizeof(BlockHeader);
 247              		.loc 1 73 21
  73:src/MemoryAllocator.cpp ****                     newFree->size = size2 - sizeof(BlockHeader);
 248              		.loc 1 73 43 is_stmt 0
 249 0154 03B68400 		ld	a2,8(s1)
  73:src/MemoryAllocator.cpp ****                     newFree->size = size2 - sizeof(BlockHeader);
 250              		.loc 1 73 35
 251 0158 23B4C600 		sd	a2,8(a3)
  74:src/MemoryAllocator.cpp ****                     if (prev != 0)
 252              		.loc 1 74 21 is_stmt 1
  74:src/MemoryAllocator.cpp ****                     if (prev != 0)
 253              		.loc 1 74 43 is_stmt 0
 254 015c 938707FF 		addi	a5,a5,-16
 255              	.LVL21:
  74:src/MemoryAllocator.cpp ****                     if (prev != 0)
 256              		.loc 1 74 35
 257 0160 23B0F600 		sd	a5,0(a3)
  75:src/MemoryAllocator.cpp ****                         prev->next = newFree;
 258              		.loc 1 75 21 is_stmt 1
 259 0164 63060700 		beqz	a4,.L18
  76:src/MemoryAllocator.cpp ****                     else
 260              		.loc 1 76 25
  76:src/MemoryAllocator.cpp ****                     else
 261              		.loc 1 76 36 is_stmt 0
GAS LISTING /tmp/cc5hX2bs.s 			page 8


 262 0168 2334D700 		sd	a3,8(a4)
 263 016c 6F008003 		j	.L19
 264              	.L18:
  78:src/MemoryAllocator.cpp ****                 }
 265              		.loc 1 78 25 is_stmt 1
  78:src/MemoryAllocator.cpp ****                 }
 266              		.loc 1 78 34 is_stmt 0
 267 0170 97070000 		sd	a3,.LANCHOR0+16,a5
 267      23B0D700 
 268              	.LVL22:
 269 0178 6F00C002 		j	.L19
 270              	.LVL23:
 271              	.L17:
 272              	.LBE8:
  82:src/MemoryAllocator.cpp ****                         prev->next = curr->next;
 273              		.loc 1 82 21 is_stmt 1
 274 017c 63080700 		beqz	a4,.L20
  83:src/MemoryAllocator.cpp ****                     else
 275              		.loc 1 83 25
  83:src/MemoryAllocator.cpp ****                     else
 276              		.loc 1 83 44 is_stmt 0
 277 0180 83B78400 		ld	a5,8(s1)
 278              	.LVL24:
  83:src/MemoryAllocator.cpp ****                     else
 279              		.loc 1 83 36
 280 0184 2334F700 		sd	a5,8(a4)
 281              	.LVL25:
 282 0188 6F00C001 		j	.L19
 283              	.LVL26:
 284              	.L20:
  85:src/MemoryAllocator.cpp ****                 }
 285              		.loc 1 85 25 is_stmt 1
  85:src/MemoryAllocator.cpp ****                 }
 286              		.loc 1 85 42 is_stmt 0
 287 018c 83B78400 		ld	a5,8(s1)
 288              	.LVL27:
  85:src/MemoryAllocator.cpp ****                 }
 289              		.loc 1 85 34
 290 0190 17070000 		sd	a5,.LANCHOR0+16,a4
 290      2330F700 
 291              	.LVL28:
 292 0198 6F00C000 		j	.L19
 293              	.LVL29:
 294              	.L16:
 295              	.LBE7:
 296              	.LBE6:
  91:src/MemoryAllocator.cpp ****                     prev->next = 0;
 297              		.loc 1 91 17 is_stmt 1
 298 019c 63000702 		beqz	a4,.L21
  92:src/MemoryAllocator.cpp ****                 else
 299              		.loc 1 92 21
  92:src/MemoryAllocator.cpp ****                 else
 300              		.loc 1 92 32 is_stmt 0
 301 01a0 23340700 		sd	zero,8(a4)
 302              	.LVL30:
 303              	.L19:
 304              	.LBE5:
GAS LISTING /tmp/cc5hX2bs.s 			page 9


  96:src/MemoryAllocator.cpp ****             uint64 oldA = (uint64)((char*)oldAddr + sizeof(BlockHeader));
 305              		.loc 1 96 13 is_stmt 1
  96:src/MemoryAllocator.cpp ****             uint64 oldA = (uint64)((char*)oldAddr + sizeof(BlockHeader));
 306              		.loc 1 96 39 is_stmt 0
 307 01a4 93050900 		mv	a1,s2
 308 01a8 13850400 		mv	a0,s1
 309 01ac 97000000 		call	_ZN15MemoryAllocator26insertNewAllocatedFragmentEPvm
 309      E7800000 
 310              	.LVL31:
  97:src/MemoryAllocator.cpp ****             retval = oldA;
 311              		.loc 1 97 13 is_stmt 1
  97:src/MemoryAllocator.cpp ****             retval = oldA;
 312              		.loc 1 97 51 is_stmt 0
 313 01b4 13850401 		addi	a0,s1,16
 314              	.LVL32:
  98:src/MemoryAllocator.cpp ****             break;
 315              		.loc 1 98 13 is_stmt 1
  99:src/MemoryAllocator.cpp ****         }
 316              		.loc 1 99 13
 317 01b8 6F004001 		j	.L14
 318              	.LVL33:
 319              	.L21:
 320              	.LBB9:
  94:src/MemoryAllocator.cpp ****             }
 321              		.loc 1 94 21
  94:src/MemoryAllocator.cpp ****             }
 322              		.loc 1 94 30 is_stmt 0
 323 01bc 97070000 		sd	zero,.LANCHOR0+16,a5
 323      23B00700 
 324 01c4 6FF01FFE 		j	.L19
 325              	.LVL34:
 326              	.L23:
 327              	.LBE9:
 328              	.LBE4:
 329              	.LBE10:
 330              	.LBE11:
  57:src/MemoryAllocator.cpp ****     BlockHeader* prev = 0;
 331              		.loc 1 57 12
 332 01c8 13050000 		li	a0,0
 333              	.LVL35:
 334              	.L14:
 103:src/MemoryAllocator.cpp ****     }
 104:src/MemoryAllocator.cpp **** 
 105:src/MemoryAllocator.cpp ****     return (void*)retval;
 335              		.loc 1 105 5 is_stmt 1
 106:src/MemoryAllocator.cpp **** }
 336              		.loc 1 106 1 is_stmt 0
 337 01cc 83308101 		ld	ra,24(sp)
 338              		.cfi_restore 1
 339 01d0 03340101 		ld	s0,16(sp)
 340              		.cfi_restore 8
 341              		.cfi_def_cfa 2, 32
 342 01d4 83348100 		ld	s1,8(sp)
 343              		.cfi_restore 9
 344              	.LVL36:
 345 01d8 03390100 		ld	s2,0(sp)
 346              		.cfi_restore 18
GAS LISTING /tmp/cc5hX2bs.s 			page 10


 347              	.LVL37:
 348 01dc 13010102 		addi	sp,sp,32
 349              		.cfi_def_cfa_offset 0
 350 01e0 67800000 		jr	ra
 351              		.cfi_endproc
 352              	.LFE4:
 354              		.align	2
 355              		.globl	_ZN15MemoryAllocator9mem_allocEm
 357              	_ZN15MemoryAllocator9mem_allocEm:
 358              	.LFB0:
  11:src/MemoryAllocator.cpp ****     return tryToAllocateFragment(size);
 359              		.loc 1 11 47 is_stmt 1
 360              		.cfi_startproc
 361              	.LVL38:
 362 01e4 130101FF 		addi	sp,sp,-16
 363              		.cfi_def_cfa_offset 16
 364 01e8 23341100 		sd	ra,8(sp)
 365 01ec 23308100 		sd	s0,0(sp)
 366              		.cfi_offset 1, -8
 367              		.cfi_offset 8, -16
 368 01f0 13040101 		addi	s0,sp,16
 369              		.cfi_def_cfa 8, 0
  12:src/MemoryAllocator.cpp **** }
 370              		.loc 1 12 5
  12:src/MemoryAllocator.cpp **** }
 371              		.loc 1 12 33 is_stmt 0
 372 01f4 97000000 		call	_ZN15MemoryAllocator21tryToAllocateFragmentEm
 372      E7800000 
 373              	.LVL39:
  13:src/MemoryAllocator.cpp **** 
 374              		.loc 1 13 1
 375 01fc 83308100 		ld	ra,8(sp)
 376              		.cfi_restore 1
 377 0200 03340100 		ld	s0,0(sp)
 378              		.cfi_restore 8
 379              		.cfi_def_cfa 2, 16
 380 0204 13010101 		addi	sp,sp,16
 381              		.cfi_def_cfa_offset 0
 382 0208 67800000 		jr	ra
 383              		.cfi_endproc
 384              	.LFE0:
 386              		.align	2
 387              		.globl	_ZN15MemoryAllocator20insertNewFreeSegmentEPvm
 389              	_ZN15MemoryAllocator20insertNewFreeSegmentEPvm:
 390              	.LFB5:
 107:src/MemoryAllocator.cpp **** 
 108:src/MemoryAllocator.cpp **** void MemoryAllocator::insertNewFreeSegment(void* addr, size_t size)
 109:src/MemoryAllocator.cpp **** {
 391              		.loc 1 109 1 is_stmt 1
 392              		.cfi_startproc
 393              	.LVL40:
 394 020c 130101FE 		addi	sp,sp,-32
 395              		.cfi_def_cfa_offset 32
 396 0210 233C1100 		sd	ra,24(sp)
 397 0214 23388100 		sd	s0,16(sp)
 398 0218 23349100 		sd	s1,8(sp)
 399 021c 23302101 		sd	s2,0(sp)
GAS LISTING /tmp/cc5hX2bs.s 			page 11


 400              		.cfi_offset 1, -8
 401              		.cfi_offset 8, -16
 402              		.cfi_offset 9, -24
 403              		.cfi_offset 18, -32
 404 0220 13040102 		addi	s0,sp,32
 405              		.cfi_def_cfa 8, 0
 406 0224 93040500 		mv	s1,a0
 407 0228 13890500 		mv	s2,a1
 110:src/MemoryAllocator.cpp ****     initMemory();
 408              		.loc 1 110 5
 409              		.loc 1 110 15 is_stmt 0
 410 022c 97000000 		call	_ZN15MemoryAllocator10initMemoryEv
 410      E7800000 
 411              	.LVL41:
 111:src/MemoryAllocator.cpp ****     BlockHeader* prev = 0;
 412              		.loc 1 111 5 is_stmt 1
 112:src/MemoryAllocator.cpp ****     BlockHeader* curr = headFree;
 413              		.loc 1 112 5
 414              		.loc 1 112 18 is_stmt 0
 415 0234 97070000 		ld	a5,.LANCHOR0+16
 415      83B70700 
 416              	.LVL42:
 113:src/MemoryAllocator.cpp ****     BlockHeader* newSegment = (BlockHeader*)addr;
 417              		.loc 1 113 5 is_stmt 1
 114:src/MemoryAllocator.cpp ****     newSegment->size = size;
 418              		.loc 1 114 5
 419              		.loc 1 114 22 is_stmt 0
 420 023c 23B02401 		sd	s2,0(s1)
 115:src/MemoryAllocator.cpp ****     newSegment->next = 0;
 421              		.loc 1 115 5 is_stmt 1
 422              		.loc 1 115 22 is_stmt 0
 423 0240 23B40400 		sd	zero,8(s1)
 111:src/MemoryAllocator.cpp ****     BlockHeader* curr = headFree;
 424              		.loc 1 111 18
 425 0244 13070000 		li	a4,0
 426              	.LVL43:
 427              	.L31:
 116:src/MemoryAllocator.cpp ****     while(curr != 0)
 428              		.loc 1 116 5 is_stmt 1
 429              		.loc 1 116 16
 430 0248 638C0700 		beqz	a5,.L29
 117:src/MemoryAllocator.cpp ****     {
 118:src/MemoryAllocator.cpp ****         if((void*)curr > addr)
 431              		.loc 1 118 9
 432 024c 63E8F400 		bgtu	a5,s1,.L35
 119:src/MemoryAllocator.cpp ****         {
 120:src/MemoryAllocator.cpp ****             newSegment->next = curr;
 121:src/MemoryAllocator.cpp ****             break;
 122:src/MemoryAllocator.cpp ****         }
 123:src/MemoryAllocator.cpp **** 
 124:src/MemoryAllocator.cpp ****         prev = curr;
 433              		.loc 1 124 9
 434              	.LVL44:
 125:src/MemoryAllocator.cpp ****         curr = curr->next;
 435              		.loc 1 125 9
 124:src/MemoryAllocator.cpp ****         curr = curr->next;
 436              		.loc 1 124 14 is_stmt 0
GAS LISTING /tmp/cc5hX2bs.s 			page 12


 437 0250 13870700 		mv	a4,a5
 438              		.loc 1 125 14
 439 0254 83B78700 		ld	a5,8(a5)
 440              	.LVL45:
 116:src/MemoryAllocator.cpp ****     {
 441              		.loc 1 116 5
 442 0258 6FF01FFF 		j	.L31
 443              	.L35:
 120:src/MemoryAllocator.cpp ****             break;
 444              		.loc 1 120 13 is_stmt 1
 120:src/MemoryAllocator.cpp ****             break;
 445              		.loc 1 120 30 is_stmt 0
 446 025c 23B4F400 		sd	a5,8(s1)
 121:src/MemoryAllocator.cpp ****         }
 447              		.loc 1 121 13 is_stmt 1
 448              	.L29:
 126:src/MemoryAllocator.cpp ****     }
 127:src/MemoryAllocator.cpp **** 
 128:src/MemoryAllocator.cpp ****     if(prev == 0)
 449              		.loc 1 128 5
 450 0260 63000702 		beqz	a4,.L36
 129:src/MemoryAllocator.cpp ****         headFree = newSegment;
 130:src/MemoryAllocator.cpp ****     else
 131:src/MemoryAllocator.cpp ****         prev->next = newSegment;
 451              		.loc 1 131 9
 452              		.loc 1 131 20 is_stmt 0
 453 0264 23349700 		sd	s1,8(a4)
 454              	.LVL46:
 455              	.L28:
 132:src/MemoryAllocator.cpp **** 
 133:src/MemoryAllocator.cpp ****     //todo
 134:src/MemoryAllocator.cpp ****     //kad proradi kfree odkomentarisi ovo
 135:src/MemoryAllocator.cpp ****     /*if(newSegment->next != 0 && (char*)newSegment->next == (char*)newSegment + newSegment->size +
 136:src/MemoryAllocator.cpp ****     {
 137:src/MemoryAllocator.cpp ****         newSegment->size += newSegment->next->size + sizeof(BlockHeader);
 138:src/MemoryAllocator.cpp ****         newSegment->next = newSegment->next->next;
 139:src/MemoryAllocator.cpp ****     }
 140:src/MemoryAllocator.cpp **** 
 141:src/MemoryAllocator.cpp ****     if(prev != 0 && (char*)newSegment == (char*)prev + prev->size + sizeof(BlockHeader))
 142:src/MemoryAllocator.cpp ****     {
 143:src/MemoryAllocator.cpp ****         prev->size+=newSegment->size + sizeof(BlockHeader);
 144:src/MemoryAllocator.cpp ****         prev->next = newSegment->next;
 145:src/MemoryAllocator.cpp ****     }*/
 146:src/MemoryAllocator.cpp **** 
 147:src/MemoryAllocator.cpp **** }
 456              		.loc 1 147 1
 457 0268 83308101 		ld	ra,24(sp)
 458              		.cfi_remember_state
 459              		.cfi_restore 1
 460 026c 03340101 		ld	s0,16(sp)
 461              		.cfi_restore 8
 462              		.cfi_def_cfa 2, 32
 463 0270 83348100 		ld	s1,8(sp)
 464              		.cfi_restore 9
 465              	.LVL47:
 466 0274 03390100 		ld	s2,0(sp)
 467              		.cfi_restore 18
GAS LISTING /tmp/cc5hX2bs.s 			page 13


 468              	.LVL48:
 469 0278 13010102 		addi	sp,sp,32
 470              		.cfi_def_cfa_offset 0
 471 027c 67800000 		jr	ra
 472              	.LVL49:
 473              	.L36:
 474              		.cfi_restore_state
 129:src/MemoryAllocator.cpp ****         headFree = newSegment;
 475              		.loc 1 129 9 is_stmt 1
 129:src/MemoryAllocator.cpp ****         headFree = newSegment;
 476              		.loc 1 129 18 is_stmt 0
 477 0280 97070000 		sd	s1,.LANCHOR0+16,a5
 477      23B09700 
 478              	.LVL50:
 479 0288 6FF01FFE 		j	.L28
 480              		.cfi_endproc
 481              	.LFE5:
 483              		.align	2
 484              		.globl	_ZN15MemoryAllocator16tryToFreeSegmentEPv
 486              	_ZN15MemoryAllocator16tryToFreeSegmentEPv:
 487              	.LFB6:
 148:src/MemoryAllocator.cpp **** 
 149:src/MemoryAllocator.cpp **** uint64 MemoryAllocator::tryToFreeSegment(void* addr)
 150:src/MemoryAllocator.cpp **** {
 488              		.loc 1 150 1 is_stmt 1
 489              		.cfi_startproc
 490              	.LVL51:
 491 028c 130101FE 		addi	sp,sp,-32
 492              		.cfi_def_cfa_offset 32
 493 0290 233C1100 		sd	ra,24(sp)
 494 0294 23388100 		sd	s0,16(sp)
 495 0298 23349100 		sd	s1,8(sp)
 496 029c 23302101 		sd	s2,0(sp)
 497              		.cfi_offset 1, -8
 498              		.cfi_offset 8, -16
 499              		.cfi_offset 9, -24
 500              		.cfi_offset 18, -32
 501 02a0 13040102 		addi	s0,sp,32
 502              		.cfi_def_cfa 8, 0
 503 02a4 13090500 		mv	s2,a0
 151:src/MemoryAllocator.cpp ****     initMemory();
 504              		.loc 1 151 5
 505              		.loc 1 151 15 is_stmt 0
 506 02a8 97000000 		call	_ZN15MemoryAllocator10initMemoryEv
 506      E7800000 
 507              	.LVL52:
 152:src/MemoryAllocator.cpp ****     BlockHeader* prev = 0;
 508              		.loc 1 152 5 is_stmt 1
 153:src/MemoryAllocator.cpp ****     BlockHeader* curr = headAllocated;
 509              		.loc 1 153 5
 510              		.loc 1 153 18 is_stmt 0
 511 02b0 97040000 		ld	s1,.LANCHOR0+8
 511      83B40400 
 512              	.LVL53:
 152:src/MemoryAllocator.cpp ****     BlockHeader* prev = 0;
 513              		.loc 1 152 18
 514 02b8 13070000 		li	a4,0
GAS LISTING /tmp/cc5hX2bs.s 			page 14


 515              	.LVL54:
 516              	.L42:
 154:src/MemoryAllocator.cpp ****     while(curr != 0)
 517              		.loc 1 154 5 is_stmt 1
 518              		.loc 1 154 16
 519 02bc 638A0402 		beqz	s1,.L38
 155:src/MemoryAllocator.cpp ****     {
 156:src/MemoryAllocator.cpp ****         if(addr == (void*)((char*)curr + sizeof(BlockHeader)))
 520              		.loc 1 156 9
 521              		.loc 1 156 20 is_stmt 0
 522 02c0 93870401 		addi	a5,s1,16
 523              		.loc 1 156 9
 524 02c4 63882701 		beq	a5,s2,.L46
 157:src/MemoryAllocator.cpp ****         {
 158:src/MemoryAllocator.cpp ****             if(prev != 0)
 159:src/MemoryAllocator.cpp ****                 prev->next = curr->next;
 160:src/MemoryAllocator.cpp ****             else
 161:src/MemoryAllocator.cpp ****                 headAllocated = curr->next;
 162:src/MemoryAllocator.cpp **** 
 163:src/MemoryAllocator.cpp ****             insertNewFreeSegment((void*)curr, curr->size);
 164:src/MemoryAllocator.cpp **** 
 165:src/MemoryAllocator.cpp ****             break;
 166:src/MemoryAllocator.cpp ****         }
 167:src/MemoryAllocator.cpp **** 
 168:src/MemoryAllocator.cpp ****         prev = curr;
 525              		.loc 1 168 9 is_stmt 1
 526              	.LVL55:
 169:src/MemoryAllocator.cpp ****         curr = curr->next;
 527              		.loc 1 169 9
 168:src/MemoryAllocator.cpp ****         curr = curr->next;
 528              		.loc 1 168 14 is_stmt 0
 529 02c8 13870400 		mv	a4,s1
 530              		.loc 1 169 14
 531 02cc 83B48400 		ld	s1,8(s1)
 532              	.LVL56:
 154:src/MemoryAllocator.cpp ****     {
 533              		.loc 1 154 5
 534 02d0 6FF0DFFE 		j	.L42
 535              	.L46:
 158:src/MemoryAllocator.cpp ****                 prev->next = curr->next;
 536              		.loc 1 158 13 is_stmt 1
 537 02d4 630E0702 		beqz	a4,.L40
 159:src/MemoryAllocator.cpp ****             else
 538              		.loc 1 159 17
 159:src/MemoryAllocator.cpp ****             else
 539              		.loc 1 159 36 is_stmt 0
 540 02d8 83B78400 		ld	a5,8(s1)
 159:src/MemoryAllocator.cpp ****             else
 541              		.loc 1 159 28
 542 02dc 2334F700 		sd	a5,8(a4)
 543              	.LVL57:
 544              	.L41:
 163:src/MemoryAllocator.cpp **** 
 545              		.loc 1 163 13 is_stmt 1
 163:src/MemoryAllocator.cpp **** 
 546              		.loc 1 163 33 is_stmt 0
 547 02e0 83B50400 		ld	a1,0(s1)
GAS LISTING /tmp/cc5hX2bs.s 			page 15


 548 02e4 13850400 		mv	a0,s1
 549 02e8 97000000 		call	_ZN15MemoryAllocator20insertNewFreeSegmentEPvm
 549      E7800000 
 550              	.LVL58:
 165:src/MemoryAllocator.cpp ****         }
 551              		.loc 1 165 13 is_stmt 1
 552              	.L38:
 170:src/MemoryAllocator.cpp ****     }
 171:src/MemoryAllocator.cpp **** 
 172:src/MemoryAllocator.cpp ****     if(curr != 0)
 553              		.loc 1 172 5
 554 02f0 63880402 		beqz	s1,.L44
 173:src/MemoryAllocator.cpp ****         return 0;
 555              		.loc 1 173 16 is_stmt 0
 556 02f4 13050000 		li	a0,0
 557              	.L37:
 174:src/MemoryAllocator.cpp ****     else
 175:src/MemoryAllocator.cpp ****         return 1;
 176:src/MemoryAllocator.cpp **** }
 558              		.loc 1 176 1
 559 02f8 83308101 		ld	ra,24(sp)
 560              		.cfi_remember_state
 561              		.cfi_restore 1
 562 02fc 03340101 		ld	s0,16(sp)
 563              		.cfi_restore 8
 564              		.cfi_def_cfa 2, 32
 565 0300 83348100 		ld	s1,8(sp)
 566              		.cfi_restore 9
 567              	.LVL59:
 568 0304 03390100 		ld	s2,0(sp)
 569              		.cfi_restore 18
 570              	.LVL60:
 571 0308 13010102 		addi	sp,sp,32
 572              		.cfi_def_cfa_offset 0
 573 030c 67800000 		jr	ra
 574              	.LVL61:
 575              	.L40:
 576              		.cfi_restore_state
 161:src/MemoryAllocator.cpp **** 
 577              		.loc 1 161 17 is_stmt 1
 161:src/MemoryAllocator.cpp **** 
 578              		.loc 1 161 39 is_stmt 0
 579 0310 83B78400 		ld	a5,8(s1)
 161:src/MemoryAllocator.cpp **** 
 580              		.loc 1 161 31
 581 0314 17070000 		sd	a5,.LANCHOR0+8,a4
 581      2330F700 
 582              	.LVL62:
 583 031c 6FF05FFC 		j	.L41
 584              	.L44:
 175:src/MemoryAllocator.cpp **** }
 585              		.loc 1 175 16
 586 0320 13051000 		li	a0,1
 587 0324 6FF05FFD 		j	.L37
 588              		.cfi_endproc
 589              	.LFE6:
 591              		.align	2
GAS LISTING /tmp/cc5hX2bs.s 			page 16


 592              		.globl	_ZN15MemoryAllocator8mem_freeEPv
 594              	_ZN15MemoryAllocator8mem_freeEPv:
 595              	.LFB1:
  15:src/MemoryAllocator.cpp ****     return tryToFreeSegment(addr);
 596              		.loc 1 15 47 is_stmt 1
 597              		.cfi_startproc
 598              	.LVL63:
 599 0328 130101FF 		addi	sp,sp,-16
 600              		.cfi_def_cfa_offset 16
 601 032c 23341100 		sd	ra,8(sp)
 602 0330 23308100 		sd	s0,0(sp)
 603              		.cfi_offset 1, -8
 604              		.cfi_offset 8, -16
 605 0334 13040101 		addi	s0,sp,16
 606              		.cfi_def_cfa 8, 0
  16:src/MemoryAllocator.cpp **** }
 607              		.loc 1 16 5
  16:src/MemoryAllocator.cpp **** }
 608              		.loc 1 16 28 is_stmt 0
 609 0338 97000000 		call	_ZN15MemoryAllocator16tryToFreeSegmentEPv
 609      E7800000 
 610              	.LVL64:
  17:src/MemoryAllocator.cpp **** 
 611              		.loc 1 17 1
 612 0340 83308100 		ld	ra,8(sp)
 613              		.cfi_restore 1
 614 0344 03340100 		ld	s0,0(sp)
 615              		.cfi_restore 8
 616              		.cfi_def_cfa 2, 16
 617 0348 13010101 		addi	sp,sp,16
 618              		.cfi_def_cfa_offset 0
 619 034c 67800000 		jr	ra
 620              		.cfi_endproc
 621              	.LFE1:
 623              		.align	2
 624              		.globl	_Z7kmallocm
 626              	_Z7kmallocm:
 627              	.LFB7:
 177:src/MemoryAllocator.cpp **** 
 178:src/MemoryAllocator.cpp **** void* kmalloc(size_t size)
 179:src/MemoryAllocator.cpp **** {
 628              		.loc 1 179 1 is_stmt 1
 629              		.cfi_startproc
 630              	.LVL65:
 631 0350 130101FF 		addi	sp,sp,-16
 632              		.cfi_def_cfa_offset 16
 633 0354 23341100 		sd	ra,8(sp)
 634 0358 23308100 		sd	s0,0(sp)
 635              		.cfi_offset 1, -8
 636              		.cfi_offset 8, -16
 637 035c 13040101 		addi	s0,sp,16
 638              		.cfi_def_cfa 8, 0
 180:src/MemoryAllocator.cpp ****     return MemoryAllocator::mem_alloc(size);
 639              		.loc 1 180 5
 640              		.loc 1 180 38 is_stmt 0
 641 0360 97000000 		call	_ZN15MemoryAllocator9mem_allocEm
 641      E7800000 
GAS LISTING /tmp/cc5hX2bs.s 			page 17


 642              	.LVL66:
 181:src/MemoryAllocator.cpp **** }
 643              		.loc 1 181 1
 644 0368 83308100 		ld	ra,8(sp)
 645              		.cfi_restore 1
 646 036c 03340100 		ld	s0,0(sp)
 647              		.cfi_restore 8
 648              		.cfi_def_cfa 2, 16
 649 0370 13010101 		addi	sp,sp,16
 650              		.cfi_def_cfa_offset 0
 651 0374 67800000 		jr	ra
 652              		.cfi_endproc
 653              	.LFE7:
 655              		.align	2
 656              		.globl	_Z5kfreePv
 658              	_Z5kfreePv:
 659              	.LFB8:
 182:src/MemoryAllocator.cpp **** 
 183:src/MemoryAllocator.cpp **** uint64 kfree(void* p)
 184:src/MemoryAllocator.cpp **** {
 660              		.loc 1 184 1 is_stmt 1
 661              		.cfi_startproc
 662              	.LVL67:
 663 0378 130101FF 		addi	sp,sp,-16
 664              		.cfi_def_cfa_offset 16
 665 037c 23341100 		sd	ra,8(sp)
 666 0380 23308100 		sd	s0,0(sp)
 667              		.cfi_offset 1, -8
 668              		.cfi_offset 8, -16
 669 0384 13040101 		addi	s0,sp,16
 670              		.cfi_def_cfa 8, 0
 185:src/MemoryAllocator.cpp ****     return MemoryAllocator::mem_free(p);
 671              		.loc 1 185 5
 672              		.loc 1 185 37 is_stmt 0
 673 0388 97000000 		call	_ZN15MemoryAllocator8mem_freeEPv
 673      E7800000 
 674              	.LVL68:
 186:src/MemoryAllocator.cpp **** }...
 675              		.loc 1 186 1
 676 0390 83308100 		ld	ra,8(sp)
 677              		.cfi_restore 1
 678 0394 03340100 		ld	s0,0(sp)
 679              		.cfi_restore 8
 680              		.cfi_def_cfa 2, 16
 681 0398 13010101 		addi	sp,sp,16
 682              		.cfi_def_cfa_offset 0
 683 039c 67800000 		jr	ra
 684              		.cfi_endproc
 685              	.LFE8:
 687              		.globl	_ZN15MemoryAllocator18memoryInitiliaizedE
 688              		.globl	_ZN15MemoryAllocator8headFreeE
 689              		.globl	_ZN15MemoryAllocator13headAllocatedE
 690              		.bss
 691              		.align	3
 692              		.set	.LANCHOR0,. + 0
 695              	_ZN15MemoryAllocator18memoryInitiliaizedE:
 696 0000 00000000 		.zero	4
GAS LISTING /tmp/cc5hX2bs.s 			page 18


 697 0004 00000000 		.zero	4
 700              	_ZN15MemoryAllocator13headAllocatedE:
 701 0008 00000000 		.zero	8
 701      00000000 
 704              	_ZN15MemoryAllocator8headFreeE:
 705 0010 00000000 		.zero	8
 705      00000000 
 706              		.text
 707              	.Letext0:
 708              		.file 2 "src/../h/../lib/hw.h"
 709              		.file 3 "src/../h/MemoryAllocator.h"
GAS LISTING /tmp/cc5hX2bs.s 			page 19


DEFINED SYMBOLS
                            *ABS*:0000000000000000 MemoryAllocator.cpp
     /tmp/cc5hX2bs.s:9      .text:0000000000000000 _ZN15MemoryAllocator10initMemoryEv
     /tmp/cc5hX2bs.s:13     .text:0000000000000000 .L0 
     /tmp/cc5hX2bs.s:14     .text:0000000000000000 .L0 
     /tmp/cc5hX2bs.s:15     .text:0000000000000004 .L0 
     /tmp/cc5hX2bs.s:17     .text:0000000000000008 .L0 
     /tmp/cc5hX2bs.s:19     .text:000000000000000c .L0 
     /tmp/cc5hX2bs.s:21     .text:000000000000000c .L0 
     /tmp/cc5hX2bs.s:22     .text:000000000000000c .L0 
     /tmp/cc5hX2bs.s:24     .text:0000000000000014 .L0 
     /tmp/cc5hX2bs.s:27     .text:000000000000001c .L0 
     /tmp/cc5hX2bs.s:28     .text:000000000000001c .L0 
     /tmp/cc5hX2bs.s:32     .text:000000000000002c .L0 
     /tmp/cc5hX2bs.s:33     .text:000000000000002c .L0 
     /tmp/cc5hX2bs.s:35     .text:0000000000000030 .L0 
     /tmp/cc5hX2bs.s:36     .text:0000000000000030 .L0 
     /tmp/cc5hX2bs.s:40     .text:0000000000000040 .L0 
     /tmp/cc5hX2bs.s:41     .text:0000000000000040 .L0 
     /tmp/cc5hX2bs.s:43     .text:0000000000000044 .L0 
     /tmp/cc5hX2bs.s:44     .text:0000000000000044 .L0 
     /tmp/cc5hX2bs.s:48     .text:0000000000000054 .L0 
     /tmp/cc5hX2bs.s:50     .text:0000000000000058 .L0 
     /tmp/cc5hX2bs.s:53     .text:000000000000005c .L0 
     /tmp/cc5hX2bs.s:54     .text:0000000000000060 .L0 
     /tmp/cc5hX2bs.s:55     .text:0000000000000060 .L0 
     /tmp/cc5hX2bs.s:57     .text:0000000000000064 .L0 
     /tmp/cc5hX2bs.s:59     .text:0000000000000068 .L0 
     /tmp/cc5hX2bs.s:65     .text:0000000000000068 _ZN15MemoryAllocator26insertNewAllocatedFragmentEPvm
     /tmp/cc5hX2bs.s:68     .text:0000000000000068 .L0 
     /tmp/cc5hX2bs.s:70     .text:0000000000000068 .L0 
     /tmp/cc5hX2bs.s:71     .text:000000000000006c .L0 
     /tmp/cc5hX2bs.s:76     .text:000000000000007c .L0 
     /tmp/cc5hX2bs.s:77     .text:000000000000007c .L0 
     /tmp/cc5hX2bs.s:78     .text:000000000000007c .L0 
     /tmp/cc5hX2bs.s:79     .text:000000000000007c .L0 
     /tmp/cc5hX2bs.s:81     .text:0000000000000080 .L0 
     /tmp/cc5hX2bs.s:85     .text:0000000000000088 .L0 
     /tmp/cc5hX2bs.s:86     .text:0000000000000088 .L0 
     /tmp/cc5hX2bs.s:89     .text:0000000000000090 .L0 
     /tmp/cc5hX2bs.s:90     .text:0000000000000090 .L0 
     /tmp/cc5hX2bs.s:91     .text:0000000000000090 .L0 
     /tmp/cc5hX2bs.s:94     .text:0000000000000098 .L0 
     /tmp/cc5hX2bs.s:95     .text:0000000000000098 .L0 
     /tmp/cc5hX2bs.s:96     .text:0000000000000098 .L0 
     /tmp/cc5hX2bs.s:98     .text:000000000000009c .L0 
     /tmp/cc5hX2bs.s:99     .text:000000000000009c .L0 
     /tmp/cc5hX2bs.s:101    .text:00000000000000a0 .L0 
     /tmp/cc5hX2bs.s:105    .text:00000000000000a4 .L0 
     /tmp/cc5hX2bs.s:106    .text:00000000000000a4 .L0 
     /tmp/cc5hX2bs.s:108    .text:00000000000000a8 .L0 
     /tmp/cc5hX2bs.s:111    .text:00000000000000ac .L0 
     /tmp/cc5hX2bs.s:112    .text:00000000000000ac .L0 
     /tmp/cc5hX2bs.s:113    .text:00000000000000ac .L0 
     /tmp/cc5hX2bs.s:115    .text:00000000000000b0 .L0 
     /tmp/cc5hX2bs.s:118    .text:00000000000000b4 .L0 
     /tmp/cc5hX2bs.s:121    .text:00000000000000b8 .L0 
GAS LISTING /tmp/cc5hX2bs.s 			page 20


     /tmp/cc5hX2bs.s:122    .text:00000000000000b8 .L0 
     /tmp/cc5hX2bs.s:125    .text:00000000000000bc .L0 
     /tmp/cc5hX2bs.s:126    .text:00000000000000bc .L0 
     /tmp/cc5hX2bs.s:128    .text:00000000000000c0 .L0 
     /tmp/cc5hX2bs.s:129    .text:00000000000000c0 .L0 
     /tmp/cc5hX2bs.s:133    .text:00000000000000c4 .L0 
     /tmp/cc5hX2bs.s:134    .text:00000000000000c8 .L0 
     /tmp/cc5hX2bs.s:135    .text:00000000000000c8 .L0 
     /tmp/cc5hX2bs.s:137    .text:00000000000000cc .L0 
     /tmp/cc5hX2bs.s:138    .text:00000000000000cc .L0 
     /tmp/cc5hX2bs.s:140    .text:00000000000000d0 .L0 
     /tmp/cc5hX2bs.s:143    .text:00000000000000d4 .L0 
     /tmp/cc5hX2bs.s:146    .text:00000000000000d8 .L0 
     /tmp/cc5hX2bs.s:150    .text:00000000000000dc .L0 
     /tmp/cc5hX2bs.s:152    .text:00000000000000dc .L0 
     /tmp/cc5hX2bs.s:153    .text:00000000000000dc .L0 
     /tmp/cc5hX2bs.s:156    .text:00000000000000e8 .L0 
     /tmp/cc5hX2bs.s:162    .text:00000000000000e8 _ZN15MemoryAllocator21tryToAllocateFragmentEm
     /tmp/cc5hX2bs.s:165    .text:00000000000000e8 .L0 
     /tmp/cc5hX2bs.s:167    .text:00000000000000e8 .L0 
     /tmp/cc5hX2bs.s:168    .text:00000000000000ec .L0 
     /tmp/cc5hX2bs.s:173    .text:00000000000000fc .L0 
     /tmp/cc5hX2bs.s:174    .text:00000000000000fc .L0 
     /tmp/cc5hX2bs.s:175    .text:00000000000000fc .L0 
     /tmp/cc5hX2bs.s:176    .text:00000000000000fc .L0 
     /tmp/cc5hX2bs.s:178    .text:0000000000000100 .L0 
     /tmp/cc5hX2bs.s:181    .text:0000000000000104 .L0 
     /tmp/cc5hX2bs.s:182    .text:0000000000000104 .L0 
     /tmp/cc5hX2bs.s:185    .text:000000000000010c .L0 
     /tmp/cc5hX2bs.s:186    .text:000000000000010c .L0 
     /tmp/cc5hX2bs.s:187    .text:000000000000010c .L0 
     /tmp/cc5hX2bs.s:188    .text:000000000000010c .L0 
     /tmp/cc5hX2bs.s:191    .text:0000000000000114 .L0 
     /tmp/cc5hX2bs.s:195    .text:0000000000000118 .L0 
     /tmp/cc5hX2bs.s:196    .text:0000000000000118 .L0 
     /tmp/cc5hX2bs.s:200    .text:000000000000011c .L0 
     /tmp/cc5hX2bs.s:201    .text:000000000000011c .L0 
     /tmp/cc5hX2bs.s:203    .text:0000000000000120 .L0 
     /tmp/cc5hX2bs.s:207    .text:0000000000000124 .L0 
     /tmp/cc5hX2bs.s:208    .text:0000000000000124 .L0 
     /tmp/cc5hX2bs.s:209    .text:0000000000000124 .L0 
     /tmp/cc5hX2bs.s:211    .text:0000000000000128 .L0 
     /tmp/cc5hX2bs.s:215    .text:000000000000012c .L0 
     /tmp/cc5hX2bs.s:222    .text:0000000000000130 .L0 
     /tmp/cc5hX2bs.s:223    .text:0000000000000130 .L0 
     /tmp/cc5hX2bs.s:224    .text:0000000000000130 .L0 
     /tmp/cc5hX2bs.s:226    .text:0000000000000134 .L0 
     /tmp/cc5hX2bs.s:230    .text:0000000000000138 .L0 
     /tmp/cc5hX2bs.s:231    .text:0000000000000138 .L0 
     /tmp/cc5hX2bs.s:234    .text:0000000000000144 .L0 
     /tmp/cc5hX2bs.s:237    .text:0000000000000148 .L0 
     /tmp/cc5hX2bs.s:238    .text:0000000000000148 .L0 
     /tmp/cc5hX2bs.s:242    .text:000000000000014c .L0 
     /tmp/cc5hX2bs.s:247    .text:0000000000000154 .L0 
     /tmp/cc5hX2bs.s:248    .text:0000000000000154 .L0 
     /tmp/cc5hX2bs.s:249    .text:0000000000000154 .L0 
     /tmp/cc5hX2bs.s:251    .text:0000000000000158 .L0 
GAS LISTING /tmp/cc5hX2bs.s 			page 21


     /tmp/cc5hX2bs.s:253    .text:000000000000015c .L0 
     /tmp/cc5hX2bs.s:254    .text:000000000000015c .L0 
     /tmp/cc5hX2bs.s:257    .text:0000000000000160 .L0 
     /tmp/cc5hX2bs.s:259    .text:0000000000000164 .L0 
     /tmp/cc5hX2bs.s:261    .text:0000000000000168 .L0 
     /tmp/cc5hX2bs.s:262    .text:0000000000000168 .L0 
     /tmp/cc5hX2bs.s:266    .text:0000000000000170 .L0 
     /tmp/cc5hX2bs.s:267    .text:0000000000000170 .L0 
     /tmp/cc5hX2bs.s:274    .text:000000000000017c .L0 
     /tmp/cc5hX2bs.s:276    .text:0000000000000180 .L0 
     /tmp/cc5hX2bs.s:277    .text:0000000000000180 .L0 
     /tmp/cc5hX2bs.s:280    .text:0000000000000184 .L0 
     /tmp/cc5hX2bs.s:286    .text:000000000000018c .L0 
     /tmp/cc5hX2bs.s:287    .text:000000000000018c .L0 
     /tmp/cc5hX2bs.s:290    .text:0000000000000190 .L0 
     /tmp/cc5hX2bs.s:298    .text:000000000000019c .L0 
     /tmp/cc5hX2bs.s:300    .text:00000000000001a0 .L0 
     /tmp/cc5hX2bs.s:301    .text:00000000000001a0 .L0 
     /tmp/cc5hX2bs.s:306    .text:00000000000001a4 .L0 
     /tmp/cc5hX2bs.s:307    .text:00000000000001a4 .L0 
     /tmp/cc5hX2bs.s:312    .text:00000000000001b4 .L0 
     /tmp/cc5hX2bs.s:313    .text:00000000000001b4 .L0 
     /tmp/cc5hX2bs.s:316    .text:00000000000001b8 .L0 
     /tmp/cc5hX2bs.s:317    .text:00000000000001b8 .L0 
     /tmp/cc5hX2bs.s:322    .text:00000000000001bc .L0 
     /tmp/cc5hX2bs.s:323    .text:00000000000001bc .L0 
     /tmp/cc5hX2bs.s:332    .text:00000000000001c8 .L0 
     /tmp/cc5hX2bs.s:336    .text:00000000000001cc .L0 
     /tmp/cc5hX2bs.s:337    .text:00000000000001cc .L0 
     /tmp/cc5hX2bs.s:338    .text:00000000000001d0 .L0 
     /tmp/cc5hX2bs.s:340    .text:00000000000001d4 .L0 
     /tmp/cc5hX2bs.s:341    .text:00000000000001d4 .L0 
     /tmp/cc5hX2bs.s:343    .text:00000000000001d8 .L0 
     /tmp/cc5hX2bs.s:346    .text:00000000000001dc .L0 
     /tmp/cc5hX2bs.s:349    .text:00000000000001e0 .L0 
     /tmp/cc5hX2bs.s:351    .text:00000000000001e4 .L0 
     /tmp/cc5hX2bs.s:357    .text:00000000000001e4 _ZN15MemoryAllocator9mem_allocEm
     /tmp/cc5hX2bs.s:360    .text:00000000000001e4 .L0 
     /tmp/cc5hX2bs.s:362    .text:00000000000001e4 .L0 
     /tmp/cc5hX2bs.s:363    .text:00000000000001e8 .L0 
     /tmp/cc5hX2bs.s:366    .text:00000000000001f0 .L0 
     /tmp/cc5hX2bs.s:367    .text:00000000000001f0 .L0 
     /tmp/cc5hX2bs.s:369    .text:00000000000001f4 .L0 
     /tmp/cc5hX2bs.s:371    .text:00000000000001f4 .L0 
     /tmp/cc5hX2bs.s:372    .text:00000000000001f4 .L0 
     /tmp/cc5hX2bs.s:375    .text:00000000000001fc .L0 
     /tmp/cc5hX2bs.s:376    .text:0000000000000200 .L0 
     /tmp/cc5hX2bs.s:378    .text:0000000000000204 .L0 
     /tmp/cc5hX2bs.s:379    .text:0000000000000204 .L0 
     /tmp/cc5hX2bs.s:381    .text:0000000000000208 .L0 
     /tmp/cc5hX2bs.s:383    .text:000000000000020c .L0 
     /tmp/cc5hX2bs.s:389    .text:000000000000020c _ZN15MemoryAllocator20insertNewFreeSegmentEPvm
     /tmp/cc5hX2bs.s:392    .text:000000000000020c .L0 
     /tmp/cc5hX2bs.s:394    .text:000000000000020c .L0 
     /tmp/cc5hX2bs.s:395    .text:0000000000000210 .L0 
     /tmp/cc5hX2bs.s:400    .text:0000000000000220 .L0 
     /tmp/cc5hX2bs.s:401    .text:0000000000000220 .L0 
GAS LISTING /tmp/cc5hX2bs.s 			page 22


     /tmp/cc5hX2bs.s:402    .text:0000000000000220 .L0 
     /tmp/cc5hX2bs.s:403    .text:0000000000000220 .L0 
     /tmp/cc5hX2bs.s:405    .text:0000000000000224 .L0 
     /tmp/cc5hX2bs.s:409    .text:000000000000022c .L0 
     /tmp/cc5hX2bs.s:410    .text:000000000000022c .L0 
     /tmp/cc5hX2bs.s:413    .text:0000000000000234 .L0 
     /tmp/cc5hX2bs.s:414    .text:0000000000000234 .L0 
     /tmp/cc5hX2bs.s:415    .text:0000000000000234 .L0 
     /tmp/cc5hX2bs.s:418    .text:000000000000023c .L0 
     /tmp/cc5hX2bs.s:419    .text:000000000000023c .L0 
     /tmp/cc5hX2bs.s:420    .text:000000000000023c .L0 
     /tmp/cc5hX2bs.s:422    .text:0000000000000240 .L0 
     /tmp/cc5hX2bs.s:423    .text:0000000000000240 .L0 
     /tmp/cc5hX2bs.s:425    .text:0000000000000244 .L0 
     /tmp/cc5hX2bs.s:429    .text:0000000000000248 .L0 
     /tmp/cc5hX2bs.s:430    .text:0000000000000248 .L0 
     /tmp/cc5hX2bs.s:432    .text:000000000000024c .L0 
     /tmp/cc5hX2bs.s:435    .text:0000000000000250 .L0 
     /tmp/cc5hX2bs.s:436    .text:0000000000000250 .L0 
     /tmp/cc5hX2bs.s:437    .text:0000000000000250 .L0 
     /tmp/cc5hX2bs.s:439    .text:0000000000000254 .L0 
     /tmp/cc5hX2bs.s:442    .text:0000000000000258 .L0 
     /tmp/cc5hX2bs.s:445    .text:000000000000025c .L0 
     /tmp/cc5hX2bs.s:446    .text:000000000000025c .L0 
     /tmp/cc5hX2bs.s:449    .text:0000000000000260 .L0 
     /tmp/cc5hX2bs.s:450    .text:0000000000000260 .L0 
     /tmp/cc5hX2bs.s:452    .text:0000000000000264 .L0 
     /tmp/cc5hX2bs.s:453    .text:0000000000000264 .L0 
     /tmp/cc5hX2bs.s:457    .text:0000000000000268 .L0 
     /tmp/cc5hX2bs.s:458    .text:000000000000026c .L0 
     /tmp/cc5hX2bs.s:459    .text:000000000000026c .L0 
     /tmp/cc5hX2bs.s:461    .text:0000000000000270 .L0 
     /tmp/cc5hX2bs.s:462    .text:0000000000000270 .L0 
     /tmp/cc5hX2bs.s:464    .text:0000000000000274 .L0 
     /tmp/cc5hX2bs.s:467    .text:0000000000000278 .L0 
     /tmp/cc5hX2bs.s:470    .text:000000000000027c .L0 
     /tmp/cc5hX2bs.s:474    .text:0000000000000280 .L0 
     /tmp/cc5hX2bs.s:476    .text:0000000000000280 .L0 
     /tmp/cc5hX2bs.s:477    .text:0000000000000280 .L0 
     /tmp/cc5hX2bs.s:480    .text:000000000000028c .L0 
     /tmp/cc5hX2bs.s:486    .text:000000000000028c _ZN15MemoryAllocator16tryToFreeSegmentEPv
     /tmp/cc5hX2bs.s:489    .text:000000000000028c .L0 
     /tmp/cc5hX2bs.s:491    .text:000000000000028c .L0 
     /tmp/cc5hX2bs.s:492    .text:0000000000000290 .L0 
     /tmp/cc5hX2bs.s:497    .text:00000000000002a0 .L0 
     /tmp/cc5hX2bs.s:498    .text:00000000000002a0 .L0 
     /tmp/cc5hX2bs.s:499    .text:00000000000002a0 .L0 
     /tmp/cc5hX2bs.s:500    .text:00000000000002a0 .L0 
     /tmp/cc5hX2bs.s:502    .text:00000000000002a4 .L0 
     /tmp/cc5hX2bs.s:505    .text:00000000000002a8 .L0 
     /tmp/cc5hX2bs.s:506    .text:00000000000002a8 .L0 
     /tmp/cc5hX2bs.s:509    .text:00000000000002b0 .L0 
     /tmp/cc5hX2bs.s:510    .text:00000000000002b0 .L0 
     /tmp/cc5hX2bs.s:511    .text:00000000000002b0 .L0 
     /tmp/cc5hX2bs.s:514    .text:00000000000002b8 .L0 
     /tmp/cc5hX2bs.s:518    .text:00000000000002bc .L0 
     /tmp/cc5hX2bs.s:519    .text:00000000000002bc .L0 
GAS LISTING /tmp/cc5hX2bs.s 			page 23


     /tmp/cc5hX2bs.s:521    .text:00000000000002c0 .L0 
     /tmp/cc5hX2bs.s:522    .text:00000000000002c0 .L0 
     /tmp/cc5hX2bs.s:524    .text:00000000000002c4 .L0 
     /tmp/cc5hX2bs.s:527    .text:00000000000002c8 .L0 
     /tmp/cc5hX2bs.s:528    .text:00000000000002c8 .L0 
     /tmp/cc5hX2bs.s:529    .text:00000000000002c8 .L0 
     /tmp/cc5hX2bs.s:531    .text:00000000000002cc .L0 
     /tmp/cc5hX2bs.s:534    .text:00000000000002d0 .L0 
     /tmp/cc5hX2bs.s:537    .text:00000000000002d4 .L0 
     /tmp/cc5hX2bs.s:539    .text:00000000000002d8 .L0 
     /tmp/cc5hX2bs.s:540    .text:00000000000002d8 .L0 
     /tmp/cc5hX2bs.s:542    .text:00000000000002dc .L0 
     /tmp/cc5hX2bs.s:546    .text:00000000000002e0 .L0 
     /tmp/cc5hX2bs.s:547    .text:00000000000002e0 .L0 
     /tmp/cc5hX2bs.s:553    .text:00000000000002f0 .L0 
     /tmp/cc5hX2bs.s:554    .text:00000000000002f0 .L0 
     /tmp/cc5hX2bs.s:556    .text:00000000000002f4 .L0 
     /tmp/cc5hX2bs.s:559    .text:00000000000002f8 .L0 
     /tmp/cc5hX2bs.s:560    .text:00000000000002fc .L0 
     /tmp/cc5hX2bs.s:561    .text:00000000000002fc .L0 
     /tmp/cc5hX2bs.s:563    .text:0000000000000300 .L0 
     /tmp/cc5hX2bs.s:564    .text:0000000000000300 .L0 
     /tmp/cc5hX2bs.s:566    .text:0000000000000304 .L0 
     /tmp/cc5hX2bs.s:569    .text:0000000000000308 .L0 
     /tmp/cc5hX2bs.s:572    .text:000000000000030c .L0 
     /tmp/cc5hX2bs.s:576    .text:0000000000000310 .L0 
     /tmp/cc5hX2bs.s:578    .text:0000000000000310 .L0 
     /tmp/cc5hX2bs.s:579    .text:0000000000000310 .L0 
     /tmp/cc5hX2bs.s:581    .text:0000000000000314 .L0 
     /tmp/cc5hX2bs.s:586    .text:0000000000000320 .L0 
     /tmp/cc5hX2bs.s:588    .text:0000000000000328 .L0 
     /tmp/cc5hX2bs.s:594    .text:0000000000000328 _ZN15MemoryAllocator8mem_freeEPv
     /tmp/cc5hX2bs.s:597    .text:0000000000000328 .L0 
     /tmp/cc5hX2bs.s:599    .text:0000000000000328 .L0 
     /tmp/cc5hX2bs.s:600    .text:000000000000032c .L0 
     /tmp/cc5hX2bs.s:603    .text:0000000000000334 .L0 
     /tmp/cc5hX2bs.s:604    .text:0000000000000334 .L0 
     /tmp/cc5hX2bs.s:606    .text:0000000000000338 .L0 
     /tmp/cc5hX2bs.s:608    .text:0000000000000338 .L0 
     /tmp/cc5hX2bs.s:609    .text:0000000000000338 .L0 
     /tmp/cc5hX2bs.s:612    .text:0000000000000340 .L0 
     /tmp/cc5hX2bs.s:613    .text:0000000000000344 .L0 
     /tmp/cc5hX2bs.s:615    .text:0000000000000348 .L0 
     /tmp/cc5hX2bs.s:616    .text:0000000000000348 .L0 
     /tmp/cc5hX2bs.s:618    .text:000000000000034c .L0 
     /tmp/cc5hX2bs.s:620    .text:0000000000000350 .L0 
     /tmp/cc5hX2bs.s:626    .text:0000000000000350 _Z7kmallocm
     /tmp/cc5hX2bs.s:629    .text:0000000000000350 .L0 
     /tmp/cc5hX2bs.s:631    .text:0000000000000350 .L0 
     /tmp/cc5hX2bs.s:632    .text:0000000000000354 .L0 
     /tmp/cc5hX2bs.s:635    .text:000000000000035c .L0 
     /tmp/cc5hX2bs.s:636    .text:000000000000035c .L0 
     /tmp/cc5hX2bs.s:638    .text:0000000000000360 .L0 
     /tmp/cc5hX2bs.s:640    .text:0000000000000360 .L0 
     /tmp/cc5hX2bs.s:641    .text:0000000000000360 .L0 
     /tmp/cc5hX2bs.s:644    .text:0000000000000368 .L0 
     /tmp/cc5hX2bs.s:645    .text:000000000000036c .L0 
GAS LISTING /tmp/cc5hX2bs.s 			page 24


     /tmp/cc5hX2bs.s:647    .text:0000000000000370 .L0 
     /tmp/cc5hX2bs.s:648    .text:0000000000000370 .L0 
     /tmp/cc5hX2bs.s:650    .text:0000000000000374 .L0 
     /tmp/cc5hX2bs.s:652    .text:0000000000000378 .L0 
     /tmp/cc5hX2bs.s:658    .text:0000000000000378 _Z5kfreePv
     /tmp/cc5hX2bs.s:661    .text:0000000000000378 .L0 
     /tmp/cc5hX2bs.s:663    .text:0000000000000378 .L0 
     /tmp/cc5hX2bs.s:664    .text:000000000000037c .L0 
     /tmp/cc5hX2bs.s:667    .text:0000000000000384 .L0 
     /tmp/cc5hX2bs.s:668    .text:0000000000000384 .L0 
     /tmp/cc5hX2bs.s:670    .text:0000000000000388 .L0 
     /tmp/cc5hX2bs.s:672    .text:0000000000000388 .L0 
     /tmp/cc5hX2bs.s:673    .text:0000000000000388 .L0 
     /tmp/cc5hX2bs.s:676    .text:0000000000000390 .L0 
     /tmp/cc5hX2bs.s:677    .text:0000000000000394 .L0 
     /tmp/cc5hX2bs.s:679    .text:0000000000000398 .L0 
     /tmp/cc5hX2bs.s:680    .text:0000000000000398 .L0 
     /tmp/cc5hX2bs.s:682    .text:000000000000039c .L0 
     /tmp/cc5hX2bs.s:684    .text:00000000000003a0 .L0 
     /tmp/cc5hX2bs.s:695    .bss:0000000000000000 _ZN15MemoryAllocator18memoryInitiliaizedE
     /tmp/cc5hX2bs.s:704    .bss:0000000000000010 _ZN15MemoryAllocator8headFreeE
     /tmp/cc5hX2bs.s:700    .bss:0000000000000008 _ZN15MemoryAllocator13headAllocatedE
     /tmp/cc5hX2bs.s:692    .bss:0000000000000000 .LANCHOR0
     /tmp/cc5hX2bs.s:710    .text:00000000000003a0 .L0 
     /tmp/cc5hX2bs.s:22     .text:000000000000000c .L0 
     /tmp/cc5hX2bs.s:28     .text:000000000000001c .L0 
     /tmp/cc5hX2bs.s:36     .text:0000000000000030 .L0 
     /tmp/cc5hX2bs.s:44     .text:0000000000000044 .L0 
     /tmp/cc5hX2bs.s:91     .text:0000000000000090 .L0 
     /tmp/cc5hX2bs.s:153    .text:00000000000000dc .L0 
     /tmp/cc5hX2bs.s:188    .text:000000000000010c .L0 
     /tmp/cc5hX2bs.s:231    .text:0000000000000138 .L0 
     /tmp/cc5hX2bs.s:267    .text:0000000000000170 .L0 
     /tmp/cc5hX2bs.s:290    .text:0000000000000190 .L0 
     /tmp/cc5hX2bs.s:323    .text:00000000000001bc .L0 
     /tmp/cc5hX2bs.s:415    .text:0000000000000234 .L0 
     /tmp/cc5hX2bs.s:477    .text:0000000000000280 .L0 
     /tmp/cc5hX2bs.s:511    .text:00000000000002b0 .L0 
     /tmp/cc5hX2bs.s:581    .text:0000000000000314 .L0 
     /tmp/cc5hX2bs.s:51     .text:000000000000005c .L1
     /tmp/cc5hX2bs.s:124    .text:00000000000000bc .L5
     /tmp/cc5hX2bs.s:119    .text:00000000000000b8 .L11
     /tmp/cc5hX2bs.s:103    .text:00000000000000a4 .L7
     /tmp/cc5hX2bs.s:149    .text:00000000000000dc .L12
     /tmp/cc5hX2bs.s:131    .text:00000000000000c4 .L4
     /tmp/cc5hX2bs.s:326    .text:00000000000001c8 .L23
     /tmp/cc5hX2bs.s:216    .text:0000000000000130 .L25
     /tmp/cc5hX2bs.s:193    .text:0000000000000118 .L22
     /tmp/cc5hX2bs.s:294    .text:000000000000019c .L16
     /tmp/cc5hX2bs.s:271    .text:000000000000017c .L17
     /tmp/cc5hX2bs.s:264    .text:0000000000000170 .L18
     /tmp/cc5hX2bs.s:303    .text:00000000000001a4 .L19
     /tmp/cc5hX2bs.s:284    .text:000000000000018c .L20
     /tmp/cc5hX2bs.s:319    .text:00000000000001bc .L21
     /tmp/cc5hX2bs.s:334    .text:00000000000001cc .L14
     /tmp/cc5hX2bs.s:448    .text:0000000000000260 .L29
     /tmp/cc5hX2bs.s:443    .text:000000000000025c .L35
GAS LISTING /tmp/cc5hX2bs.s 			page 25


     /tmp/cc5hX2bs.s:427    .text:0000000000000248 .L31
     /tmp/cc5hX2bs.s:473    .text:0000000000000280 .L36
     /tmp/cc5hX2bs.s:455    .text:0000000000000268 .L28
     /tmp/cc5hX2bs.s:552    .text:00000000000002f0 .L38
     /tmp/cc5hX2bs.s:535    .text:00000000000002d4 .L46
     /tmp/cc5hX2bs.s:516    .text:00000000000002bc .L42
     /tmp/cc5hX2bs.s:575    .text:0000000000000310 .L40
     /tmp/cc5hX2bs.s:584    .text:0000000000000320 .L44
     /tmp/cc5hX2bs.s:544    .text:00000000000002e0 .L41
     /tmp/cc5hX2bs.s:557    .text:00000000000002f8 .L37
     /tmp/cc5hX2bs.s:1405   .debug_abbrev:0000000000000000 .Ldebug_abbrev0
     /tmp/cc5hX2bs.s:2492   .debug_str:0000000000000044 .LASF55
     /tmp/cc5hX2bs.s:2556   .debug_str:00000000000002e4 .LASF56
     /tmp/cc5hX2bs.s:2562   .debug_str:0000000000000315 .LASF57
     /tmp/cc5hX2bs.s:5      .text:0000000000000000 .Ltext0
     /tmp/cc5hX2bs.s:707    .text:00000000000003a0 .Letext0
     /tmp/cc5hX2bs.s:2480   .debug_line:0000000000000000 .Ldebug_line0
     /tmp/cc5hX2bs.s:2544   .debug_str:000000000000025e .LASF0
     /tmp/cc5hX2bs.s:2530   .debug_str:000000000000020b .LASF1
     /tmp/cc5hX2bs.s:2522   .debug_str:00000000000001ca .LASF2
     /tmp/cc5hX2bs.s:2500   .debug_str:00000000000000ff .LASF4
     /tmp/cc5hX2bs.s:2526   .debug_str:00000000000001e3 .LASF3
     /tmp/cc5hX2bs.s:2486   .debug_str:0000000000000023 .LASF5
     /tmp/cc5hX2bs.s:2482   .debug_str:0000000000000000 .LASF6
     /tmp/cc5hX2bs.s:2512   .debug_str:0000000000000150 .LASF7
     /tmp/cc5hX2bs.s:2552   .debug_str:00000000000002be .LASF8
     /tmp/cc5hX2bs.s:2498   .debug_str:00000000000000f1 .LASF9
     /tmp/cc5hX2bs.s:2602   .debug_str:00000000000004b3 .LASF10
     /tmp/cc5hX2bs.s:2518   .debug_str:000000000000019a .LASF11
     /tmp/cc5hX2bs.s:2588   .debug_str:0000000000000441 .LASF12
     /tmp/cc5hX2bs.s:2558   .debug_str:00000000000002fc .LASF13
     /tmp/cc5hX2bs.s:2532   .debug_str:000000000000021e .LASF14
     /tmp/cc5hX2bs.s:2504   .debug_str:0000000000000111 .LASF15
     /tmp/cc5hX2bs.s:2554   .debug_str:00000000000002ce .LASF16
     /tmp/cc5hX2bs.s:2484   .debug_str:0000000000000013 .LASF58
     /tmp/cc5hX2bs.s:2538   .debug_str:000000000000023c .LASF19
     /tmp/cc5hX2bs.s:2594   .debug_str:0000000000000485 .LASF17
     /tmp/cc5hX2bs.s:2488   .debug_str:000000000000002a .LASF18
     /tmp/cc5hX2bs.s:2508   .debug_str:0000000000000142 .LASF20
     /tmp/cc5hX2bs.s:2540   .debug_str:0000000000000248 .LASF21
     /tmp/cc5hX2bs.s:2576   .debug_str:00000000000003c8 .LASF22
     /tmp/cc5hX2bs.s:2586   .debug_str:0000000000000438 .LASF23
     /tmp/cc5hX2bs.s:2536   .debug_str:0000000000000232 .LASF24
     /tmp/cc5hX2bs.s:2592   .debug_str:000000000000047b .LASF25
     /tmp/cc5hX2bs.s:2580   .debug_str:00000000000003e1 .LASF27
     /tmp/cc5hX2bs.s:2560   .debug_str:000000000000030c .LASF26
     /tmp/cc5hX2bs.s:2520   .debug_str:00000000000001a9 .LASF28
     /tmp/cc5hX2bs.s:2546   .debug_str:000000000000026b .LASF59
     /tmp/cc5hX2bs.s:2548   .debug_str:0000000000000276 .LASF60
     /tmp/cc5hX2bs.s:2506   .debug_str:0000000000000127 .LASF31
     /tmp/cc5hX2bs.s:2564   .debug_str:0000000000000338 .LASF33
     /tmp/cc5hX2bs.s:2528   .debug_str:00000000000001f5 .LASF29
     /tmp/cc5hX2bs.s:2582   .debug_str:0000000000000402 .LASF30
     /tmp/cc5hX2bs.s:2490   .debug_str:000000000000002f .LASF32
     /tmp/cc5hX2bs.s:2516   .debug_str:000000000000016b .LASF34
     /tmp/cc5hX2bs.s:2572   .debug_str:00000000000003b0 .LASF35
     /tmp/cc5hX2bs.s:2590   .debug_str:0000000000000451 .LASF36
GAS LISTING /tmp/cc5hX2bs.s 			page 26


     /tmp/cc5hX2bs.s:2550   .debug_str:0000000000000299 .LASF37
     /tmp/cc5hX2bs.s:2596   .debug_str:000000000000048a .LASF38
     /tmp/cc5hX2bs.s:2570   .debug_str:0000000000000386 .LASF39
     /tmp/cc5hX2bs.s:2578   .debug_str:00000000000003db .LASF40
     /tmp/cc5hX2bs.s:2502   .debug_str:0000000000000106 .LASF42
     /tmp/cc5hX2bs.s:659    .text:0000000000000378 .LFB8
     /tmp/cc5hX2bs.s:685    .text:00000000000003a0 .LFE8
     /tmp/cc5hX2bs.s:1974   .debug_loc:0000000000000000 .LLST25
     /tmp/cc5hX2bs.s:674    .text:0000000000000390 .LVL68
     /tmp/cc5hX2bs.s:2534   .debug_str:000000000000022a .LASF41
     /tmp/cc5hX2bs.s:2566   .debug_str:000000000000036d .LASF43
     /tmp/cc5hX2bs.s:627    .text:0000000000000350 .LFB7
     /tmp/cc5hX2bs.s:653    .text:0000000000000378 .LFE7
     /tmp/cc5hX2bs.s:1988   .debug_loc:0000000000000039 .LLST24
     /tmp/cc5hX2bs.s:642    .text:0000000000000368 .LVL66
     /tmp/cc5hX2bs.s:487    .text:000000000000028c .LFB6
     /tmp/cc5hX2bs.s:589    .text:0000000000000328 .LFE6
     /tmp/cc5hX2bs.s:2510   .debug_str:000000000000014b .LASF44
     /tmp/cc5hX2bs.s:2002   .debug_loc:0000000000000072 .LLST20
     /tmp/cc5hX2bs.s:2598   .debug_str:00000000000004a9 .LASF45
     /tmp/cc5hX2bs.s:2024   .debug_loc:00000000000000d1 .LLST21
     /tmp/cc5hX2bs.s:2494   .debug_str:00000000000000e6 .LASF46
     /tmp/cc5hX2bs.s:2048   .debug_loc:0000000000000141 .LLST22
     /tmp/cc5hX2bs.s:507    .text:00000000000002b0 .LVL52
     /tmp/cc5hX2bs.s:550    .text:00000000000002f0 .LVL58
     /tmp/cc5hX2bs.s:390    .text:000000000000020c .LFB5
     /tmp/cc5hX2bs.s:481    .text:000000000000028c .LFE5
     /tmp/cc5hX2bs.s:2068   .debug_loc:000000000000019e .LLST15
     /tmp/cc5hX2bs.s:2090   .debug_loc:00000000000001fd .LLST16
     /tmp/cc5hX2bs.s:2112   .debug_loc:000000000000025c .LLST17
     /tmp/cc5hX2bs.s:2132   .debug_loc:00000000000002b9 .LLST18
     /tmp/cc5hX2bs.s:2524   .debug_str:00000000000001d8 .LASF47
     /tmp/cc5hX2bs.s:2152   .debug_loc:0000000000000316 .LLST19
     /tmp/cc5hX2bs.s:411    .text:0000000000000234 .LVL41
     /tmp/cc5hX2bs.s:163    .text:00000000000000e8 .LFB4
     /tmp/cc5hX2bs.s:352    .text:00000000000001e4 .LFE4
     /tmp/cc5hX2bs.s:2170   .debug_loc:0000000000000362 .LLST5
     /tmp/cc5hX2bs.s:2574   .debug_str:00000000000003c1 .LASF48
     /tmp/cc5hX2bs.s:2188   .debug_loc:00000000000003ae .LLST6
     /tmp/cc5hX2bs.s:2209   .debug_loc:000000000000040c .LLST7
     /tmp/cc5hX2bs.s:2237   .debug_loc:000000000000048f .LLST8
     /tmp/cc5hX2bs.s:219    .text:0000000000000130 .LBB4
     /tmp/cc5hX2bs.s:328    .text:00000000000001c8 .LBE4
     /tmp/cc5hX2bs.s:2542   .debug_str:0000000000000256 .LASF49
     /tmp/cc5hX2bs.s:2253   .debug_loc:00000000000004d9 .LLST9
     /tmp/cc5hX2bs.s:2584   .debug_str:0000000000000430 .LASF50
     /tmp/cc5hX2bs.s:2260   .debug_loc:00000000000004fc .LLST10
     /tmp/cc5hX2bs.s:2600   .debug_str:00000000000004ae .LASF51
     /tmp/cc5hX2bs.s:2282   .debug_loc:000000000000054c .LLST11
     /tmp/cc5hX2bs.s:235    .text:0000000000000148 .LBB6
     /tmp/cc5hX2bs.s:296    .text:000000000000019c .LBE6
     /tmp/cc5hX2bs.s:2496   .debug_str:00000000000000eb .LASF52
     /tmp/cc5hX2bs.s:2289   .debug_loc:000000000000056f .LLST12
     /tmp/cc5hX2bs.s:244    .text:0000000000000154 .LBB8
     /tmp/cc5hX2bs.s:272    .text:000000000000017c .LBE8
     /tmp/cc5hX2bs.s:2514   .debug_str:0000000000000163 .LASF53
     /tmp/cc5hX2bs.s:2330   .debug_loc:00000000000005ff .LLST13
GAS LISTING /tmp/cc5hX2bs.s 			page 27


     /tmp/cc5hX2bs.s:310    .text:00000000000001b4 .LVL31
     /tmp/cc5hX2bs.s:183    .text:000000000000010c .LVL12
     /tmp/cc5hX2bs.s:66     .text:0000000000000068 .LFB3
     /tmp/cc5hX2bs.s:157    .text:00000000000000e8 .LFE3
     /tmp/cc5hX2bs.s:2337   .debug_loc:0000000000000622 .LLST0
     /tmp/cc5hX2bs.s:2359   .debug_loc:0000000000000681 .LLST1
     /tmp/cc5hX2bs.s:2381   .debug_loc:00000000000006e0 .LLST2
     /tmp/cc5hX2bs.s:2401   .debug_loc:000000000000073d .LLST3
     /tmp/cc5hX2bs.s:2568   .debug_str:0000000000000379 .LASF54
     /tmp/cc5hX2bs.s:2421   .debug_loc:000000000000079a .LLST4
     /tmp/cc5hX2bs.s:87     .text:0000000000000090 .LVL1
     /tmp/cc5hX2bs.s:10     .text:0000000000000000 .LFB2
     /tmp/cc5hX2bs.s:60     .text:0000000000000068 .LFE2
     /tmp/cc5hX2bs.s:595    .text:0000000000000328 .LFB1
     /tmp/cc5hX2bs.s:621    .text:0000000000000350 .LFE1
     /tmp/cc5hX2bs.s:2439   .debug_loc:00000000000007e6 .LLST23
     /tmp/cc5hX2bs.s:610    .text:0000000000000340 .LVL64
     /tmp/cc5hX2bs.s:358    .text:00000000000001e4 .LFB0
     /tmp/cc5hX2bs.s:384    .text:000000000000020c .LFE0
     /tmp/cc5hX2bs.s:2453   .debug_loc:000000000000081f .LLST14
     /tmp/cc5hX2bs.s:373    .text:00000000000001fc .LVL39
     /tmp/cc5hX2bs.s:662    .text:0000000000000378 .LVL67
     /tmp/cc5hX2bs.s:630    .text:0000000000000350 .LVL65
     /tmp/cc5hX2bs.s:490    .text:000000000000028c .LVL51
     /tmp/cc5hX2bs.s:570    .text:0000000000000308 .LVL60
     /tmp/cc5hX2bs.s:574    .text:0000000000000310 .LVL61
     /tmp/cc5hX2bs.s:515    .text:00000000000002bc .LVL54
     /tmp/cc5hX2bs.s:526    .text:00000000000002c8 .LVL55
     /tmp/cc5hX2bs.s:532    .text:00000000000002d0 .LVL56
     /tmp/cc5hX2bs.s:543    .text:00000000000002e0 .LVL57
     /tmp/cc5hX2bs.s:582    .text:000000000000031c .LVL62
     /tmp/cc5hX2bs.s:512    .text:00000000000002b8 .LVL53
     /tmp/cc5hX2bs.s:567    .text:0000000000000304 .LVL59
     /tmp/cc5hX2bs.s:393    .text:000000000000020c .LVL40
     /tmp/cc5hX2bs.s:465    .text:0000000000000274 .LVL47
     /tmp/cc5hX2bs.s:472    .text:0000000000000280 .LVL49
     /tmp/cc5hX2bs.s:468    .text:0000000000000278 .LVL48
     /tmp/cc5hX2bs.s:426    .text:0000000000000248 .LVL43
     /tmp/cc5hX2bs.s:434    .text:0000000000000250 .LVL44
     /tmp/cc5hX2bs.s:440    .text:0000000000000258 .LVL45
     /tmp/cc5hX2bs.s:416    .text:000000000000023c .LVL42
     /tmp/cc5hX2bs.s:454    .text:0000000000000268 .LVL46
     /tmp/cc5hX2bs.s:478    .text:0000000000000288 .LVL50
     /tmp/cc5hX2bs.s:166    .text:00000000000000e8 .LVL11
     /tmp/cc5hX2bs.s:347    .text:00000000000001dc .LVL37
     /tmp/cc5hX2bs.s:314    .text:00000000000001b8 .LVL32
     /tmp/cc5hX2bs.s:318    .text:00000000000001bc .LVL33
     /tmp/cc5hX2bs.s:333    .text:00000000000001cc .LVL35
     /tmp/cc5hX2bs.s:192    .text:0000000000000118 .LVL14
     /tmp/cc5hX2bs.s:206    .text:0000000000000124 .LVL15
     /tmp/cc5hX2bs.s:212    .text:000000000000012c .LVL16
     /tmp/cc5hX2bs.s:291    .text:0000000000000198 .LVL28
     /tmp/cc5hX2bs.s:293    .text:000000000000019c .LVL29
     /tmp/cc5hX2bs.s:302    .text:00000000000001a4 .LVL30
     /tmp/cc5hX2bs.s:189    .text:0000000000000114 .LVL13
     /tmp/cc5hX2bs.s:344    .text:00000000000001d8 .LVL36
     /tmp/cc5hX2bs.s:221    .text:0000000000000130 .LVL17
GAS LISTING /tmp/cc5hX2bs.s 			page 28


     /tmp/cc5hX2bs.s:325    .text:00000000000001c8 .LVL34
     /tmp/cc5hX2bs.s:227    .text:0000000000000138 .LVL18
     /tmp/cc5hX2bs.s:239    .text:000000000000014c .LVL19
     /tmp/cc5hX2bs.s:255    .text:0000000000000160 .LVL21
     /tmp/cc5hX2bs.s:268    .text:0000000000000178 .LVL22
     /tmp/cc5hX2bs.s:270    .text:000000000000017c .LVL23
     /tmp/cc5hX2bs.s:278    .text:0000000000000184 .LVL24
     /tmp/cc5hX2bs.s:281    .text:0000000000000188 .LVL25
     /tmp/cc5hX2bs.s:283    .text:000000000000018c .LVL26
     /tmp/cc5hX2bs.s:288    .text:0000000000000190 .LVL27
     /tmp/cc5hX2bs.s:246    .text:0000000000000154 .LVL20
     /tmp/cc5hX2bs.s:69     .text:0000000000000068 .LVL0
     /tmp/cc5hX2bs.s:141    .text:00000000000000d0 .LVL7
     /tmp/cc5hX2bs.s:148    .text:00000000000000dc .LVL9
     /tmp/cc5hX2bs.s:144    .text:00000000000000d4 .LVL8
     /tmp/cc5hX2bs.s:102    .text:00000000000000a4 .LVL3
     /tmp/cc5hX2bs.s:110    .text:00000000000000ac .LVL4
     /tmp/cc5hX2bs.s:116    .text:00000000000000b4 .LVL5
     /tmp/cc5hX2bs.s:92     .text:0000000000000098 .LVL2
     /tmp/cc5hX2bs.s:130    .text:00000000000000c4 .LVL6
     /tmp/cc5hX2bs.s:154    .text:00000000000000e4 .LVL10
     /tmp/cc5hX2bs.s:598    .text:0000000000000328 .LVL63
     /tmp/cc5hX2bs.s:361    .text:00000000000001e4 .LVL38
     /tmp/cc5hX2bs.s:711    .debug_info:0000000000000000 .Ldebug_info0

UNDEFINED SYMBOLS
HEAP_START_ADDR
HEAP_END_ADDR
