GAS LISTING /tmp/ccCoXpHH.s 			page 1


   1              		.file	"MemoryAllocator.cpp"
   2              		.option pic
   3              		.option norelax
   4              		.text
   5              	.Ltext0:
   6              		.align	2
   7              		.globl	_ZN15MemoryAllocator10initMemoryEv
   9              	_ZN15MemoryAllocator10initMemoryEv:
  10              	.LFB18:
  11              		.file 1 "src/MemoryAllocator.cpp"
   1:src/MemoryAllocator.cpp **** //
   2:src/MemoryAllocator.cpp **** // Created by os on 4/27/22.
   3:src/MemoryAllocator.cpp **** //
   4:src/MemoryAllocator.cpp **** 
   5:src/MemoryAllocator.cpp **** #include "../h/MemoryAllocator.hpp"
   6:src/MemoryAllocator.cpp **** #include "../h/Riscv.hpp"
   7:src/MemoryAllocator.cpp **** 
   8:src/MemoryAllocator.cpp **** MemoryAllocator::BlockHeader* MemoryAllocator::headAllocated = 0;
   9:src/MemoryAllocator.cpp **** MemoryAllocator::BlockHeader* MemoryAllocator::headFree = 0;
  10:src/MemoryAllocator.cpp **** int MemoryAllocator::memoryInitiliaized = 0;
  11:src/MemoryAllocator.cpp **** 
  12:src/MemoryAllocator.cpp **** void *MemoryAllocator::mem_alloc(size_t size)
  13:src/MemoryAllocator.cpp **** {
  14:src/MemoryAllocator.cpp ****     return tryToAllocateFragment(size);
  15:src/MemoryAllocator.cpp **** }
  16:src/MemoryAllocator.cpp **** 
  17:src/MemoryAllocator.cpp **** uint64 MemoryAllocator::mem_free(void * addr)
  18:src/MemoryAllocator.cpp **** {
  19:src/MemoryAllocator.cpp ****     return tryToFreeSegment(addr);
  20:src/MemoryAllocator.cpp **** }
  21:src/MemoryAllocator.cpp **** 
  22:src/MemoryAllocator.cpp **** void MemoryAllocator::initMemory()
  23:src/MemoryAllocator.cpp **** {
  12              		.loc 1 23 1
  13              		.cfi_startproc
  14 0000 130101FF 		addi	sp,sp,-16
  15              		.cfi_def_cfa_offset 16
  16 0004 23348100 		sd	s0,8(sp)
  17              		.cfi_offset 8, -8
  18 0008 13040101 		addi	s0,sp,16
  19              		.cfi_def_cfa 8, 0
  24:src/MemoryAllocator.cpp ****     if(memoryInitiliaized == 1)
  20              		.loc 1 24 5
  21              		.loc 1 24 27 is_stmt 0
  22 000c 17070000 		lw	a4,.LANCHOR0
  22      03270700 
  23              		.loc 1 24 5
  24 0014 93071000 		li	a5,1
  25 0018 6302F704 		beq	a4,a5,.L1
  25:src/MemoryAllocator.cpp ****         return;
  26:src/MemoryAllocator.cpp ****     memoryInitiliaized = 1;
  26              		.loc 1 26 5 is_stmt 1
  27              		.loc 1 26 24 is_stmt 0
  28 001c 97070000 		lla	a5,.LANCHOR0
  28      93870700 
  29 0024 13071000 		li	a4,1
  30 0028 23A0E700 		sw	a4,0(a5)
GAS LISTING /tmp/ccCoXpHH.s 			page 2


  27:src/MemoryAllocator.cpp ****     headAllocated = 0;
  31              		.loc 1 27 5 is_stmt 1
  32              		.loc 1 27 19 is_stmt 0
  33 002c 23B40700 		sd	zero,8(a5)
  28:src/MemoryAllocator.cpp ****     headFree = (BlockHeader*)HEAP_START_ADDR;
  34              		.loc 1 28 5 is_stmt 1
  35              		.loc 1 28 14 is_stmt 0
  36 0030 17070000 		la	a4,HEAP_START_ADDR
  36      03370700 
  37 0038 03370700 		ld	a4,0(a4)
  38 003c 23B8E700 		sd	a4,16(a5)
  29:src/MemoryAllocator.cpp ****     headFree->next = 0;
  39              		.loc 1 29 5 is_stmt 1
  40              		.loc 1 29 20 is_stmt 0
  41 0040 23340700 		sd	zero,8(a4)
  30:src/MemoryAllocator.cpp ****     headFree->size = (size_t)((size_t)HEAP_END_ADDR - (size_t)HEAP_START_ADDR + 1 - sizeof(BlockHea
  42              		.loc 1 30 5 is_stmt 1
  43              		.loc 1 30 53 is_stmt 0
  44 0044 97070000 		la	a5,HEAP_END_ADDR
  44      83B70700 
  45 004c 83B70700 		ld	a5,0(a5)
  46 0050 B387E740 		sub	a5,a5,a4
  47              		.loc 1 30 83
  48 0054 938717FF 		addi	a5,a5,-15
  49              		.loc 1 30 20
  50 0058 2330F700 		sd	a5,0(a4)
  51              	.L1:
  31:src/MemoryAllocator.cpp **** }
  52              		.loc 1 31 1
  53 005c 03348100 		ld	s0,8(sp)
  54              		.cfi_restore 8
  55              		.cfi_def_cfa 2, 16
  56 0060 13010101 		addi	sp,sp,16
  57              		.cfi_def_cfa_offset 0
  58 0064 67800000 		jr	ra
  59              		.cfi_endproc
  60              	.LFE18:
  62              		.align	2
  63              		.globl	_ZN15MemoryAllocator26insertNewAllocatedFragmentEPvm
  65              	_ZN15MemoryAllocator26insertNewAllocatedFragmentEPvm:
  66              	.LFB19:
  32:src/MemoryAllocator.cpp **** 
  33:src/MemoryAllocator.cpp **** void MemoryAllocator::insertNewAllocatedFragment(void *addr, size_t size)
  34:src/MemoryAllocator.cpp **** {
  67              		.loc 1 34 1 is_stmt 1
  68              		.cfi_startproc
  69              	.LVL0:
  70 0068 130101FE 		addi	sp,sp,-32
  71              		.cfi_def_cfa_offset 32
  72 006c 233C1100 		sd	ra,24(sp)
  73 0070 23388100 		sd	s0,16(sp)
  74 0074 23349100 		sd	s1,8(sp)
  75 0078 23302101 		sd	s2,0(sp)
  76              		.cfi_offset 1, -8
  77              		.cfi_offset 8, -16
  78              		.cfi_offset 9, -24
  79              		.cfi_offset 18, -32
GAS LISTING /tmp/ccCoXpHH.s 			page 3


  80 007c 13040102 		addi	s0,sp,32
  81              		.cfi_def_cfa 8, 0
  82 0080 93040500 		mv	s1,a0
  83 0084 13890500 		mv	s2,a1
  35:src/MemoryAllocator.cpp ****     initMemory();
  84              		.loc 1 35 5
  85              		.loc 1 35 15 is_stmt 0
  86 0088 97000000 		call	_ZN15MemoryAllocator10initMemoryEv
  86      E7800000 
  87              	.LVL1:
  36:src/MemoryAllocator.cpp ****     BlockHeader* prev = 0;
  88              		.loc 1 36 5 is_stmt 1
  37:src/MemoryAllocator.cpp ****     BlockHeader* curr =  headAllocated;
  89              		.loc 1 37 5
  90              		.loc 1 37 18 is_stmt 0
  91 0090 97070000 		ld	a5,.LANCHOR0+8
  91      83B70700 
  92              	.LVL2:
  38:src/MemoryAllocator.cpp ****     BlockHeader* newAllocated = (BlockHeader*)addr;
  93              		.loc 1 38 5 is_stmt 1
  39:src/MemoryAllocator.cpp ****     newAllocated->next = 0;
  94              		.loc 1 39 5
  95              		.loc 1 39 24 is_stmt 0
  96 0098 23B40400 		sd	zero,8(s1)
  40:src/MemoryAllocator.cpp ****     newAllocated->size = size;
  97              		.loc 1 40 5 is_stmt 1
  98              		.loc 1 40 24 is_stmt 0
  99 009c 23B02401 		sd	s2,0(s1)
  36:src/MemoryAllocator.cpp ****     BlockHeader* curr =  headAllocated;
 100              		.loc 1 36 18
 101 00a0 13070000 		li	a4,0
 102              	.LVL3:
 103              	.L7:
  41:src/MemoryAllocator.cpp ****     while(curr != 0)
 104              		.loc 1 41 5 is_stmt 1
 105              		.loc 1 41 16
 106 00a4 638C0700 		beqz	a5,.L5
  42:src/MemoryAllocator.cpp ****     {
  43:src/MemoryAllocator.cpp ****         if((void*)curr > addr)
 107              		.loc 1 43 9
 108 00a8 63E8F400 		bgtu	a5,s1,.L11
  44:src/MemoryAllocator.cpp ****         {
  45:src/MemoryAllocator.cpp ****             newAllocated->next = curr;
  46:src/MemoryAllocator.cpp ****             break;
  47:src/MemoryAllocator.cpp ****         }
  48:src/MemoryAllocator.cpp ****         prev = curr;
 109              		.loc 1 48 9
 110              	.LVL4:
  49:src/MemoryAllocator.cpp ****         curr = curr->next;
 111              		.loc 1 49 9
  48:src/MemoryAllocator.cpp ****         curr = curr->next;
 112              		.loc 1 48 14 is_stmt 0
 113 00ac 13870700 		mv	a4,a5
 114              		.loc 1 49 14
 115 00b0 83B78700 		ld	a5,8(a5)
 116              	.LVL5:
  41:src/MemoryAllocator.cpp ****     {
GAS LISTING /tmp/ccCoXpHH.s 			page 4


 117              		.loc 1 41 5
 118 00b4 6FF01FFF 		j	.L7
 119              	.L11:
  45:src/MemoryAllocator.cpp ****             break;
 120              		.loc 1 45 13 is_stmt 1
  45:src/MemoryAllocator.cpp ****             break;
 121              		.loc 1 45 32 is_stmt 0
 122 00b8 23B4F400 		sd	a5,8(s1)
  46:src/MemoryAllocator.cpp ****         }
 123              		.loc 1 46 13 is_stmt 1
 124              	.L5:
  50:src/MemoryAllocator.cpp ****     }
  51:src/MemoryAllocator.cpp **** 
  52:src/MemoryAllocator.cpp ****     if(prev == 0)
 125              		.loc 1 52 5
 126 00bc 63000702 		beqz	a4,.L12
  53:src/MemoryAllocator.cpp ****         headAllocated = newAllocated;
  54:src/MemoryAllocator.cpp ****     else
  55:src/MemoryAllocator.cpp ****         prev->next = newAllocated;
 127              		.loc 1 55 9
 128              		.loc 1 55 20 is_stmt 0
 129 00c0 23349700 		sd	s1,8(a4)
 130              	.LVL6:
 131              	.L4:
  56:src/MemoryAllocator.cpp **** }
 132              		.loc 1 56 1
 133 00c4 83308101 		ld	ra,24(sp)
 134              		.cfi_remember_state
 135              		.cfi_restore 1
 136 00c8 03340101 		ld	s0,16(sp)
 137              		.cfi_restore 8
 138              		.cfi_def_cfa 2, 32
 139 00cc 83348100 		ld	s1,8(sp)
 140              		.cfi_restore 9
 141              	.LVL7:
 142 00d0 03390100 		ld	s2,0(sp)
 143              		.cfi_restore 18
 144              	.LVL8:
 145 00d4 13010102 		addi	sp,sp,32
 146              		.cfi_def_cfa_offset 0
 147 00d8 67800000 		jr	ra
 148              	.LVL9:
 149              	.L12:
 150              		.cfi_restore_state
  53:src/MemoryAllocator.cpp ****         headAllocated = newAllocated;
 151              		.loc 1 53 9 is_stmt 1
  53:src/MemoryAllocator.cpp ****         headAllocated = newAllocated;
 152              		.loc 1 53 23 is_stmt 0
 153 00dc 97070000 		sd	s1,.LANCHOR0+8,a5
 153      23B09700 
 154              	.LVL10:
 155 00e4 6FF01FFE 		j	.L4
 156              		.cfi_endproc
 157              	.LFE19:
 159              		.align	2
 160              		.globl	_ZN15MemoryAllocator21tryToAllocateFragmentEm
 162              	_ZN15MemoryAllocator21tryToAllocateFragmentEm:
GAS LISTING /tmp/ccCoXpHH.s 			page 5


 163              	.LFB20:
  57:src/MemoryAllocator.cpp **** 
  58:src/MemoryAllocator.cpp **** void* MemoryAllocator::tryToAllocateFragment(size_t size)
  59:src/MemoryAllocator.cpp **** {
 164              		.loc 1 59 1 is_stmt 1
 165              		.cfi_startproc
 166              	.LVL11:
 167 00e8 130101FE 		addi	sp,sp,-32
 168              		.cfi_def_cfa_offset 32
 169 00ec 233C1100 		sd	ra,24(sp)
 170 00f0 23388100 		sd	s0,16(sp)
 171 00f4 23349100 		sd	s1,8(sp)
 172 00f8 23302101 		sd	s2,0(sp)
 173              		.cfi_offset 1, -8
 174              		.cfi_offset 8, -16
 175              		.cfi_offset 9, -24
 176              		.cfi_offset 18, -32
 177 00fc 13040102 		addi	s0,sp,32
 178              		.cfi_def_cfa 8, 0
 179 0100 13090500 		mv	s2,a0
  60:src/MemoryAllocator.cpp ****     initMemory();
 180              		.loc 1 60 5
 181              		.loc 1 60 15 is_stmt 0
 182 0104 97000000 		call	_ZN15MemoryAllocator10initMemoryEv
 182      E7800000 
 183              	.LVL12:
  61:src/MemoryAllocator.cpp ****     uint64 retval = 0;
 184              		.loc 1 61 5 is_stmt 1
  62:src/MemoryAllocator.cpp ****     BlockHeader* prev = 0;
 185              		.loc 1 62 5
  63:src/MemoryAllocator.cpp ****     BlockHeader* curr = headFree;
 186              		.loc 1 63 5
 187              		.loc 1 63 18 is_stmt 0
 188 010c 97040000 		ld	s1,.LANCHOR0+16
 188      83B40400 
 189              	.LVL13:
  62:src/MemoryAllocator.cpp ****     BlockHeader* prev = 0;
 190              		.loc 1 62 18
 191 0114 13070000 		li	a4,0
 192              	.LVL14:
 193              	.L22:
  64:src/MemoryAllocator.cpp ****     while(curr != 0)
 194              		.loc 1 64 5 is_stmt 1
 195              		.loc 1 64 16
 196 0118 6388040A 		beqz	s1,.L23
 197              	.LBB2:
  65:src/MemoryAllocator.cpp ****     {
  66:src/MemoryAllocator.cpp ****         if(curr->size >= size)
 198              		.loc 1 66 9
 199              	.LBB3:
 200              		.loc 1 66 18 is_stmt 0
 201 011c 83B70400 		ld	a5,0(s1)
 202              		.loc 1 66 9
 203 0120 63F82701 		bgeu	a5,s2,.L25
 204              	.LBE3:
  67:src/MemoryAllocator.cpp ****         {
  68:src/MemoryAllocator.cpp ****             void* oldAddr = curr;
GAS LISTING /tmp/ccCoXpHH.s 			page 6


  69:src/MemoryAllocator.cpp ****             void* newAddr = ((char*)curr + size + sizeof(BlockHeader));
  70:src/MemoryAllocator.cpp ****             if(newAddr <= HEAP_END_ADDR)
  71:src/MemoryAllocator.cpp ****             {
  72:src/MemoryAllocator.cpp ****                 uint64 size2 = curr->size - size;
  73:src/MemoryAllocator.cpp **** 
  74:src/MemoryAllocator.cpp ****                 if(size2 > sizeof(BlockHeader))
  75:src/MemoryAllocator.cpp ****                 {
  76:src/MemoryAllocator.cpp ****                     BlockHeader *newFree = (BlockHeader *) newAddr;
  77:src/MemoryAllocator.cpp ****                     newFree->next = curr->next;
  78:src/MemoryAllocator.cpp ****                     newFree->size = size2 - sizeof(BlockHeader);
  79:src/MemoryAllocator.cpp ****                     if (prev != 0)
  80:src/MemoryAllocator.cpp ****                         prev->next = newFree;
  81:src/MemoryAllocator.cpp ****                     else
  82:src/MemoryAllocator.cpp ****                         headFree = newFree;
  83:src/MemoryAllocator.cpp ****                 }
  84:src/MemoryAllocator.cpp ****                 else
  85:src/MemoryAllocator.cpp ****                 {
  86:src/MemoryAllocator.cpp ****                     if(prev != 0)
  87:src/MemoryAllocator.cpp ****                         prev->next = curr->next;
  88:src/MemoryAllocator.cpp ****                     else
  89:src/MemoryAllocator.cpp ****                         headFree = curr->next;
  90:src/MemoryAllocator.cpp ****                 }
  91:src/MemoryAllocator.cpp ****             }
  92:src/MemoryAllocator.cpp ****             else
  93:src/MemoryAllocator.cpp ****             {
  94:src/MemoryAllocator.cpp ****                 if(prev != 0)
  95:src/MemoryAllocator.cpp ****                     prev->next = 0;
  96:src/MemoryAllocator.cpp ****                 else
  97:src/MemoryAllocator.cpp ****                     headFree = 0;
  98:src/MemoryAllocator.cpp ****             }
  99:src/MemoryAllocator.cpp ****             insertNewAllocatedFragment(oldAddr, size);
 100:src/MemoryAllocator.cpp ****             uint64 oldA = (uint64)((char*)oldAddr + sizeof(BlockHeader));
 101:src/MemoryAllocator.cpp ****             retval = oldA;
 102:src/MemoryAllocator.cpp ****             break;
 103:src/MemoryAllocator.cpp ****         }
 104:src/MemoryAllocator.cpp ****         prev = curr;
 205              		.loc 1 104 9 is_stmt 1
 206              	.LVL15:
 105:src/MemoryAllocator.cpp ****         curr = curr->next;
 207              		.loc 1 105 9
 104:src/MemoryAllocator.cpp ****         curr = curr->next;
 208              		.loc 1 104 14 is_stmt 0
 209 0124 13870400 		mv	a4,s1
 210              		.loc 1 105 14
 211 0128 83B48400 		ld	s1,8(s1)
 212              	.LVL16:
 213              	.LBE2:
  64:src/MemoryAllocator.cpp ****     {
 214              		.loc 1 64 5
 215 012c 6FF0DFFE 		j	.L22
 216              	.L25:
 217              	.LBB11:
 218              	.LBB10:
 219              	.LBB4:
  68:src/MemoryAllocator.cpp ****             void* newAddr = ((char*)curr + size + sizeof(BlockHeader));
 220              		.loc 1 68 13 is_stmt 1
 221              	.LVL17:
GAS LISTING /tmp/ccCoXpHH.s 			page 7


  69:src/MemoryAllocator.cpp ****             if(newAddr <= HEAP_END_ADDR)
 222              		.loc 1 69 13
  69:src/MemoryAllocator.cpp ****             if(newAddr <= HEAP_END_ADDR)
 223              		.loc 1 69 49 is_stmt 0
 224 0130 93060901 		addi	a3,s2,16
  69:src/MemoryAllocator.cpp ****             if(newAddr <= HEAP_END_ADDR)
 225              		.loc 1 69 19
 226 0134 B386D400 		add	a3,s1,a3
 227              	.LVL18:
  70:src/MemoryAllocator.cpp ****             {
 228              		.loc 1 70 13 is_stmt 1
 229              	.LBB5:
  70:src/MemoryAllocator.cpp ****             {
 230              		.loc 1 70 24 is_stmt 0
 231 0138 17060000 		la	a2,HEAP_END_ADDR
 231      03360600 
 232 0140 03360600 		ld	a2,0(a2)
  70:src/MemoryAllocator.cpp ****             {
 233              		.loc 1 70 13
 234 0144 636CD604 		bltu	a2,a3,.L16
 235              	.LBB6:
  72:src/MemoryAllocator.cpp **** 
 236              		.loc 1 72 17 is_stmt 1
  72:src/MemoryAllocator.cpp **** 
 237              		.loc 1 72 24 is_stmt 0
 238 0148 B3872741 		sub	a5,a5,s2
 239              	.LVL19:
  74:src/MemoryAllocator.cpp ****                 {
 240              		.loc 1 74 17 is_stmt 1
 241              	.LBB7:
 242 014c 13060001 		li	a2,16
 243 0150 6376F602 		bleu	a5,a2,.L17
 244              	.LBB8:
  76:src/MemoryAllocator.cpp ****                     newFree->next = curr->next;
 245              		.loc 1 76 21
 246              	.LVL20:
  77:src/MemoryAllocator.cpp ****                     newFree->size = size2 - sizeof(BlockHeader);
 247              		.loc 1 77 21
  77:src/MemoryAllocator.cpp ****                     newFree->size = size2 - sizeof(BlockHeader);
 248              		.loc 1 77 43 is_stmt 0
 249 0154 03B68400 		ld	a2,8(s1)
  77:src/MemoryAllocator.cpp ****                     newFree->size = size2 - sizeof(BlockHeader);
 250              		.loc 1 77 35
 251 0158 23B4C600 		sd	a2,8(a3)
  78:src/MemoryAllocator.cpp ****                     if (prev != 0)
 252              		.loc 1 78 21 is_stmt 1
  78:src/MemoryAllocator.cpp ****                     if (prev != 0)
 253              		.loc 1 78 43 is_stmt 0
 254 015c 938707FF 		addi	a5,a5,-16
 255              	.LVL21:
  78:src/MemoryAllocator.cpp ****                     if (prev != 0)
 256              		.loc 1 78 35
 257 0160 23B0F600 		sd	a5,0(a3)
  79:src/MemoryAllocator.cpp ****                         prev->next = newFree;
 258              		.loc 1 79 21 is_stmt 1
 259 0164 63060700 		beqz	a4,.L18
  80:src/MemoryAllocator.cpp ****                     else
GAS LISTING /tmp/ccCoXpHH.s 			page 8


 260              		.loc 1 80 25
  80:src/MemoryAllocator.cpp ****                     else
 261              		.loc 1 80 36 is_stmt 0
 262 0168 2334D700 		sd	a3,8(a4)
 263 016c 6F008003 		j	.L19
 264              	.L18:
  82:src/MemoryAllocator.cpp ****                 }
 265              		.loc 1 82 25 is_stmt 1
  82:src/MemoryAllocator.cpp ****                 }
 266              		.loc 1 82 34 is_stmt 0
 267 0170 97070000 		sd	a3,.LANCHOR0+16,a5
 267      23B0D700 
 268              	.LVL22:
 269 0178 6F00C002 		j	.L19
 270              	.LVL23:
 271              	.L17:
 272              	.LBE8:
  86:src/MemoryAllocator.cpp ****                         prev->next = curr->next;
 273              		.loc 1 86 21 is_stmt 1
 274 017c 63080700 		beqz	a4,.L20
  87:src/MemoryAllocator.cpp ****                     else
 275              		.loc 1 87 25
  87:src/MemoryAllocator.cpp ****                     else
 276              		.loc 1 87 44 is_stmt 0
 277 0180 83B78400 		ld	a5,8(s1)
 278              	.LVL24:
  87:src/MemoryAllocator.cpp ****                     else
 279              		.loc 1 87 36
 280 0184 2334F700 		sd	a5,8(a4)
 281              	.LVL25:
 282 0188 6F00C001 		j	.L19
 283              	.LVL26:
 284              	.L20:
  89:src/MemoryAllocator.cpp ****                 }
 285              		.loc 1 89 25 is_stmt 1
  89:src/MemoryAllocator.cpp ****                 }
 286              		.loc 1 89 42 is_stmt 0
 287 018c 83B78400 		ld	a5,8(s1)
 288              	.LVL27:
  89:src/MemoryAllocator.cpp ****                 }
 289              		.loc 1 89 34
 290 0190 17070000 		sd	a5,.LANCHOR0+16,a4
 290      2330F700 
 291              	.LVL28:
 292 0198 6F00C000 		j	.L19
 293              	.LVL29:
 294              	.L16:
 295              	.LBE7:
 296              	.LBE6:
  94:src/MemoryAllocator.cpp ****                     prev->next = 0;
 297              		.loc 1 94 17 is_stmt 1
 298 019c 63000702 		beqz	a4,.L21
  95:src/MemoryAllocator.cpp ****                 else
 299              		.loc 1 95 21
  95:src/MemoryAllocator.cpp ****                 else
 300              		.loc 1 95 32 is_stmt 0
 301 01a0 23340700 		sd	zero,8(a4)
GAS LISTING /tmp/ccCoXpHH.s 			page 9


 302              	.LVL30:
 303              	.L19:
 304              	.LBE5:
  99:src/MemoryAllocator.cpp ****             uint64 oldA = (uint64)((char*)oldAddr + sizeof(BlockHeader));
 305              		.loc 1 99 13 is_stmt 1
  99:src/MemoryAllocator.cpp ****             uint64 oldA = (uint64)((char*)oldAddr + sizeof(BlockHeader));
 306              		.loc 1 99 39 is_stmt 0
 307 01a4 93050900 		mv	a1,s2
 308 01a8 13850400 		mv	a0,s1
 309 01ac 97000000 		call	_ZN15MemoryAllocator26insertNewAllocatedFragmentEPvm
 309      E7800000 
 310              	.LVL31:
 100:src/MemoryAllocator.cpp ****             retval = oldA;
 311              		.loc 1 100 13 is_stmt 1
 100:src/MemoryAllocator.cpp ****             retval = oldA;
 312              		.loc 1 100 51 is_stmt 0
 313 01b4 13850401 		addi	a0,s1,16
 314              	.LVL32:
 101:src/MemoryAllocator.cpp ****             break;
 315              		.loc 1 101 13 is_stmt 1
 102:src/MemoryAllocator.cpp ****         }
 316              		.loc 1 102 13
 317 01b8 6F004001 		j	.L14
 318              	.LVL33:
 319              	.L21:
 320              	.LBB9:
  97:src/MemoryAllocator.cpp ****             }
 321              		.loc 1 97 21
  97:src/MemoryAllocator.cpp ****             }
 322              		.loc 1 97 30 is_stmt 0
 323 01bc 97070000 		sd	zero,.LANCHOR0+16,a5
 323      23B00700 
 324 01c4 6FF01FFE 		j	.L19
 325              	.LVL34:
 326              	.L23:
 327              	.LBE9:
 328              	.LBE4:
 329              	.LBE10:
 330              	.LBE11:
  61:src/MemoryAllocator.cpp ****     BlockHeader* prev = 0;
 331              		.loc 1 61 12
 332 01c8 13050000 		li	a0,0
 333              	.LVL35:
 334              	.L14:
 106:src/MemoryAllocator.cpp ****     }
 107:src/MemoryAllocator.cpp **** 
 108:src/MemoryAllocator.cpp ****     return (void*)retval;
 335              		.loc 1 108 5 is_stmt 1
 109:src/MemoryAllocator.cpp **** }
 336              		.loc 1 109 1 is_stmt 0
 337 01cc 83308101 		ld	ra,24(sp)
 338              		.cfi_restore 1
 339 01d0 03340101 		ld	s0,16(sp)
 340              		.cfi_restore 8
 341              		.cfi_def_cfa 2, 32
 342 01d4 83348100 		ld	s1,8(sp)
 343              		.cfi_restore 9
GAS LISTING /tmp/ccCoXpHH.s 			page 10


 344              	.LVL36:
 345 01d8 03390100 		ld	s2,0(sp)
 346              		.cfi_restore 18
 347              	.LVL37:
 348 01dc 13010102 		addi	sp,sp,32
 349              		.cfi_def_cfa_offset 0
 350 01e0 67800000 		jr	ra
 351              		.cfi_endproc
 352              	.LFE20:
 354              		.align	2
 355              		.globl	_ZN15MemoryAllocator9mem_allocEm
 357              	_ZN15MemoryAllocator9mem_allocEm:
 358              	.LFB16:
  13:src/MemoryAllocator.cpp ****     return tryToAllocateFragment(size);
 359              		.loc 1 13 1 is_stmt 1
 360              		.cfi_startproc
 361              	.LVL38:
 362 01e4 130101FF 		addi	sp,sp,-16
 363              		.cfi_def_cfa_offset 16
 364 01e8 23341100 		sd	ra,8(sp)
 365 01ec 23308100 		sd	s0,0(sp)
 366              		.cfi_offset 1, -8
 367              		.cfi_offset 8, -16
 368 01f0 13040101 		addi	s0,sp,16
 369              		.cfi_def_cfa 8, 0
  14:src/MemoryAllocator.cpp **** }
 370              		.loc 1 14 5
  14:src/MemoryAllocator.cpp **** }
 371              		.loc 1 14 33 is_stmt 0
 372 01f4 97000000 		call	_ZN15MemoryAllocator21tryToAllocateFragmentEm
 372      E7800000 
 373              	.LVL39:
  15:src/MemoryAllocator.cpp **** 
 374              		.loc 1 15 1
 375 01fc 83308100 		ld	ra,8(sp)
 376              		.cfi_restore 1
 377 0200 03340100 		ld	s0,0(sp)
 378              		.cfi_restore 8
 379              		.cfi_def_cfa 2, 16
 380 0204 13010101 		addi	sp,sp,16
 381              		.cfi_def_cfa_offset 0
 382 0208 67800000 		jr	ra
 383              		.cfi_endproc
 384              	.LFE16:
 386              		.align	2
 387              		.globl	_ZN15MemoryAllocator20insertNewFreeSegmentEPvm
 389              	_ZN15MemoryAllocator20insertNewFreeSegmentEPvm:
 390              	.LFB21:
 110:src/MemoryAllocator.cpp **** 
 111:src/MemoryAllocator.cpp **** void MemoryAllocator::insertNewFreeSegment(void* addr, size_t size)
 112:src/MemoryAllocator.cpp **** {
 391              		.loc 1 112 1 is_stmt 1
 392              		.cfi_startproc
 393              	.LVL40:
 394 020c 130101FE 		addi	sp,sp,-32
 395              		.cfi_def_cfa_offset 32
 396 0210 233C1100 		sd	ra,24(sp)
GAS LISTING /tmp/ccCoXpHH.s 			page 11


 397 0214 23388100 		sd	s0,16(sp)
 398 0218 23349100 		sd	s1,8(sp)
 399 021c 23302101 		sd	s2,0(sp)
 400              		.cfi_offset 1, -8
 401              		.cfi_offset 8, -16
 402              		.cfi_offset 9, -24
 403              		.cfi_offset 18, -32
 404 0220 13040102 		addi	s0,sp,32
 405              		.cfi_def_cfa 8, 0
 406 0224 93040500 		mv	s1,a0
 407 0228 13890500 		mv	s2,a1
 113:src/MemoryAllocator.cpp ****     initMemory();
 408              		.loc 1 113 5
 409              		.loc 1 113 15 is_stmt 0
 410 022c 97000000 		call	_ZN15MemoryAllocator10initMemoryEv
 410      E7800000 
 411              	.LVL41:
 114:src/MemoryAllocator.cpp ****     BlockHeader* prev = 0;
 412              		.loc 1 114 5 is_stmt 1
 115:src/MemoryAllocator.cpp ****     BlockHeader* curr = headFree;
 413              		.loc 1 115 5
 414              		.loc 1 115 18 is_stmt 0
 415 0234 97070000 		ld	a5,.LANCHOR0+16
 415      83B70700 
 416              	.LVL42:
 116:src/MemoryAllocator.cpp ****     BlockHeader* newSegment = (BlockHeader*)addr;
 417              		.loc 1 116 5 is_stmt 1
 117:src/MemoryAllocator.cpp ****     newSegment->size = size;
 418              		.loc 1 117 5
 419              		.loc 1 117 22 is_stmt 0
 420 023c 23B02401 		sd	s2,0(s1)
 118:src/MemoryAllocator.cpp ****     newSegment->next = 0;
 421              		.loc 1 118 5 is_stmt 1
 422              		.loc 1 118 22 is_stmt 0
 423 0240 23B40400 		sd	zero,8(s1)
 114:src/MemoryAllocator.cpp ****     BlockHeader* curr = headFree;
 424              		.loc 1 114 18
 425 0244 13070000 		li	a4,0
 426              	.LVL43:
 427              	.L31:
 119:src/MemoryAllocator.cpp ****     while(curr != 0)
 428              		.loc 1 119 5 is_stmt 1
 429              		.loc 1 119 16
 430 0248 638C0700 		beqz	a5,.L29
 120:src/MemoryAllocator.cpp ****     {
 121:src/MemoryAllocator.cpp ****         if((void*)curr > addr)
 431              		.loc 1 121 9
 432 024c 63E8F400 		bgtu	a5,s1,.L37
 122:src/MemoryAllocator.cpp ****         {
 123:src/MemoryAllocator.cpp ****             newSegment->next = curr;
 124:src/MemoryAllocator.cpp ****             break;
 125:src/MemoryAllocator.cpp ****         }
 126:src/MemoryAllocator.cpp **** 
 127:src/MemoryAllocator.cpp ****         prev = curr;
 433              		.loc 1 127 9
 434              	.LVL44:
 128:src/MemoryAllocator.cpp ****         curr = curr->next;
GAS LISTING /tmp/ccCoXpHH.s 			page 12


 435              		.loc 1 128 9
 127:src/MemoryAllocator.cpp ****         curr = curr->next;
 436              		.loc 1 127 14 is_stmt 0
 437 0250 13870700 		mv	a4,a5
 438              		.loc 1 128 14
 439 0254 83B78700 		ld	a5,8(a5)
 440              	.LVL45:
 119:src/MemoryAllocator.cpp ****     {
 441              		.loc 1 119 5
 442 0258 6FF01FFF 		j	.L31
 443              	.L37:
 123:src/MemoryAllocator.cpp ****             break;
 444              		.loc 1 123 13 is_stmt 1
 123:src/MemoryAllocator.cpp ****             break;
 445              		.loc 1 123 30 is_stmt 0
 446 025c 23B4F400 		sd	a5,8(s1)
 124:src/MemoryAllocator.cpp ****         }
 447              		.loc 1 124 13 is_stmt 1
 448              	.L29:
 129:src/MemoryAllocator.cpp ****     }
 130:src/MemoryAllocator.cpp **** 
 131:src/MemoryAllocator.cpp ****     if(prev == 0)
 449              		.loc 1 131 5
 450 0260 63060704 		beqz	a4,.L38
 132:src/MemoryAllocator.cpp ****         headFree = newSegment;
 133:src/MemoryAllocator.cpp ****     else
 134:src/MemoryAllocator.cpp ****         prev->next = newSegment;
 451              		.loc 1 134 9
 452              		.loc 1 134 20 is_stmt 0
 453 0264 23349700 		sd	s1,8(a4)
 454              	.LVL46:
 455              	.L33:
 135:src/MemoryAllocator.cpp **** 
 136:src/MemoryAllocator.cpp ****     if(newSegment->next != 0 && (char*)newSegment->next == (char*)newSegment + newSegment->size + s
 456              		.loc 1 136 5 is_stmt 1
 457              		.loc 1 136 20 is_stmt 0
 458 0268 83B78400 		ld	a5,8(s1)
 459              		.loc 1 136 5
 460 026c 638A0700 		beqz	a5,.L34
 461              		.loc 1 136 92 discriminator 1
 462 0270 03B60400 		ld	a2,0(s1)
 463              		.loc 1 136 97 discriminator 1
 464 0274 93060601 		addi	a3,a2,16
 465 0278 B386D400 		add	a3,s1,a3
 466              		.loc 1 136 30 discriminator 1
 467 027c 638ED702 		beq	a5,a3,.L39
 468              	.L34:
 137:src/MemoryAllocator.cpp ****     {
 138:src/MemoryAllocator.cpp ****         //Riscv::printString("Merged front\n");
 139:src/MemoryAllocator.cpp ****         newSegment->size += newSegment->next->size + sizeof(BlockHeader);
 140:src/MemoryAllocator.cpp ****         newSegment->next = newSegment->next->next;
 141:src/MemoryAllocator.cpp ****     }
 142:src/MemoryAllocator.cpp **** 
 143:src/MemoryAllocator.cpp ****     if(prev != 0 && (char*)newSegment == (char*)prev + prev->size + sizeof(BlockHeader))
 469              		.loc 1 143 5 is_stmt 1
 470 0280 630A0700 		beqz	a4,.L28
 471              		.loc 1 143 62 is_stmt 0 discriminator 1
GAS LISTING /tmp/ccCoXpHH.s 			page 13


 472 0284 83360700 		ld	a3,0(a4)
 473              		.loc 1 143 67 discriminator 1
 474 0288 93870601 		addi	a5,a3,16
 475 028c B307F700 		add	a5,a4,a5
 476              		.loc 1 143 18 discriminator 1
 477 0290 63829704 		beq	a5,s1,.L40
 478              	.L28:
 144:src/MemoryAllocator.cpp ****     {
 145:src/MemoryAllocator.cpp ****         //Riscv::printString("Merged back\n");
 146:src/MemoryAllocator.cpp ****         prev->size+=newSegment->size + sizeof(BlockHeader);
 147:src/MemoryAllocator.cpp ****         prev->next = newSegment->next;
 148:src/MemoryAllocator.cpp ****     }
 149:src/MemoryAllocator.cpp **** }
 479              		.loc 1 149 1
 480 0294 83308101 		ld	ra,24(sp)
 481              		.cfi_remember_state
 482              		.cfi_restore 1
 483 0298 03340101 		ld	s0,16(sp)
 484              		.cfi_restore 8
 485              		.cfi_def_cfa 2, 32
 486 029c 83348100 		ld	s1,8(sp)
 487              		.cfi_restore 9
 488              	.LVL47:
 489 02a0 03390100 		ld	s2,0(sp)
 490              		.cfi_restore 18
 491              	.LVL48:
 492 02a4 13010102 		addi	sp,sp,32
 493              		.cfi_def_cfa_offset 0
 494 02a8 67800000 		jr	ra
 495              	.LVL49:
 496              	.L38:
 497              		.cfi_restore_state
 132:src/MemoryAllocator.cpp ****     else
 498              		.loc 1 132 9 is_stmt 1
 132:src/MemoryAllocator.cpp ****     else
 499              		.loc 1 132 18 is_stmt 0
 500 02ac 97070000 		sd	s1,.LANCHOR0+16,a5
 500      23B09700 
 501              	.LVL50:
 502 02b4 6FF05FFB 		j	.L33
 503              	.L39:
 139:src/MemoryAllocator.cpp ****         newSegment->next = newSegment->next->next;
 504              		.loc 1 139 9 is_stmt 1
 139:src/MemoryAllocator.cpp ****         newSegment->next = newSegment->next->next;
 505              		.loc 1 139 47 is_stmt 0
 506 02b8 83B60700 		ld	a3,0(a5)
 139:src/MemoryAllocator.cpp ****         newSegment->next = newSegment->next->next;
 507              		.loc 1 139 26
 508 02bc 3306D600 		add	a2,a2,a3
 509 02c0 13060601 		addi	a2,a2,16
 510 02c4 23B0C400 		sd	a2,0(s1)
 140:src/MemoryAllocator.cpp ****     }
 511              		.loc 1 140 9 is_stmt 1
 140:src/MemoryAllocator.cpp ****     }
 512              		.loc 1 140 46 is_stmt 0
 513 02c8 83B78700 		ld	a5,8(a5)
 140:src/MemoryAllocator.cpp ****     }
GAS LISTING /tmp/ccCoXpHH.s 			page 14


 514              		.loc 1 140 26
 515 02cc 23B4F400 		sd	a5,8(s1)
 516 02d0 6FF01FFB 		j	.L34
 517              	.L40:
 146:src/MemoryAllocator.cpp ****         prev->next = newSegment->next;
 518              		.loc 1 146 9 is_stmt 1
 146:src/MemoryAllocator.cpp ****         prev->next = newSegment->next;
 519              		.loc 1 146 33 is_stmt 0
 520 02d4 83B70400 		ld	a5,0(s1)
 146:src/MemoryAllocator.cpp ****         prev->next = newSegment->next;
 521              		.loc 1 146 19
 522 02d8 B386F600 		add	a3,a3,a5
 523 02dc 93860601 		addi	a3,a3,16
 524 02e0 2330D700 		sd	a3,0(a4)
 147:src/MemoryAllocator.cpp ****     }
 525              		.loc 1 147 9 is_stmt 1
 147:src/MemoryAllocator.cpp ****     }
 526              		.loc 1 147 34 is_stmt 0
 527 02e4 83B78400 		ld	a5,8(s1)
 147:src/MemoryAllocator.cpp ****     }
 528              		.loc 1 147 20
 529 02e8 2334F700 		sd	a5,8(a4)
 530              		.loc 1 149 1
 531 02ec 6FF09FFA 		j	.L28
 532              		.cfi_endproc
 533              	.LFE21:
 535              		.align	2
 536              		.globl	_ZN15MemoryAllocator16tryToFreeSegmentEPv
 538              	_ZN15MemoryAllocator16tryToFreeSegmentEPv:
 539              	.LFB22:
 150:src/MemoryAllocator.cpp **** 
 151:src/MemoryAllocator.cpp **** uint64 MemoryAllocator::tryToFreeSegment(void* addr)
 152:src/MemoryAllocator.cpp **** {
 540              		.loc 1 152 1 is_stmt 1
 541              		.cfi_startproc
 542              	.LVL51:
 543 02f0 130101FE 		addi	sp,sp,-32
 544              		.cfi_def_cfa_offset 32
 545 02f4 233C1100 		sd	ra,24(sp)
 546 02f8 23388100 		sd	s0,16(sp)
 547 02fc 23349100 		sd	s1,8(sp)
 548 0300 23302101 		sd	s2,0(sp)
 549              		.cfi_offset 1, -8
 550              		.cfi_offset 8, -16
 551              		.cfi_offset 9, -24
 552              		.cfi_offset 18, -32
 553 0304 13040102 		addi	s0,sp,32
 554              		.cfi_def_cfa 8, 0
 555 0308 13090500 		mv	s2,a0
 153:src/MemoryAllocator.cpp ****     initMemory();
 556              		.loc 1 153 5
 557              		.loc 1 153 15 is_stmt 0
 558 030c 97000000 		call	_ZN15MemoryAllocator10initMemoryEv
 558      E7800000 
 559              	.LVL52:
 154:src/MemoryAllocator.cpp ****     BlockHeader* prev = 0;
 560              		.loc 1 154 5 is_stmt 1
GAS LISTING /tmp/ccCoXpHH.s 			page 15


 155:src/MemoryAllocator.cpp ****     BlockHeader* curr = headAllocated;
 561              		.loc 1 155 5
 562              		.loc 1 155 18 is_stmt 0
 563 0314 97040000 		ld	s1,.LANCHOR0+8
 563      83B40400 
 564              	.LVL53:
 154:src/MemoryAllocator.cpp ****     BlockHeader* prev = 0;
 565              		.loc 1 154 18
 566 031c 13070000 		li	a4,0
 567              	.LVL54:
 568              	.L46:
 156:src/MemoryAllocator.cpp ****     while(curr != 0)
 569              		.loc 1 156 5 is_stmt 1
 570              		.loc 1 156 16
 571 0320 638A0402 		beqz	s1,.L42
 157:src/MemoryAllocator.cpp ****     {
 158:src/MemoryAllocator.cpp ****         if(addr == (void*)((char*)curr + sizeof(BlockHeader)))
 572              		.loc 1 158 9
 573              		.loc 1 158 20 is_stmt 0
 574 0324 93870401 		addi	a5,s1,16
 575              		.loc 1 158 9
 576 0328 63882701 		beq	a5,s2,.L50
 159:src/MemoryAllocator.cpp ****         {
 160:src/MemoryAllocator.cpp ****             if(prev != 0)
 161:src/MemoryAllocator.cpp ****                 prev->next = curr->next;
 162:src/MemoryAllocator.cpp ****             else
 163:src/MemoryAllocator.cpp ****                 headAllocated = curr->next;
 164:src/MemoryAllocator.cpp **** 
 165:src/MemoryAllocator.cpp ****             insertNewFreeSegment((void*)curr, curr->size);
 166:src/MemoryAllocator.cpp **** 
 167:src/MemoryAllocator.cpp ****             break;
 168:src/MemoryAllocator.cpp ****         }
 169:src/MemoryAllocator.cpp **** 
 170:src/MemoryAllocator.cpp ****         prev = curr;
 577              		.loc 1 170 9 is_stmt 1
 578              	.LVL55:
 171:src/MemoryAllocator.cpp ****         curr = curr->next;
 579              		.loc 1 171 9
 170:src/MemoryAllocator.cpp ****         curr = curr->next;
 580              		.loc 1 170 14 is_stmt 0
 581 032c 13870400 		mv	a4,s1
 582              		.loc 1 171 14
 583 0330 83B48400 		ld	s1,8(s1)
 584              	.LVL56:
 156:src/MemoryAllocator.cpp ****     {
 585              		.loc 1 156 5
 586 0334 6FF0DFFE 		j	.L46
 587              	.L50:
 160:src/MemoryAllocator.cpp ****                 prev->next = curr->next;
 588              		.loc 1 160 13 is_stmt 1
 589 0338 630E0702 		beqz	a4,.L44
 161:src/MemoryAllocator.cpp ****             else
 590              		.loc 1 161 17
 161:src/MemoryAllocator.cpp ****             else
 591              		.loc 1 161 36 is_stmt 0
 592 033c 83B78400 		ld	a5,8(s1)
 161:src/MemoryAllocator.cpp ****             else
GAS LISTING /tmp/ccCoXpHH.s 			page 16


 593              		.loc 1 161 28
 594 0340 2334F700 		sd	a5,8(a4)
 595              	.LVL57:
 596              	.L45:
 165:src/MemoryAllocator.cpp **** 
 597              		.loc 1 165 13 is_stmt 1
 165:src/MemoryAllocator.cpp **** 
 598              		.loc 1 165 33 is_stmt 0
 599 0344 83B50400 		ld	a1,0(s1)
 600 0348 13850400 		mv	a0,s1
 601 034c 97000000 		call	_ZN15MemoryAllocator20insertNewFreeSegmentEPvm
 601      E7800000 
 602              	.LVL58:
 167:src/MemoryAllocator.cpp ****         }
 603              		.loc 1 167 13 is_stmt 1
 604              	.L42:
 172:src/MemoryAllocator.cpp ****     }
 173:src/MemoryAllocator.cpp **** 
 174:src/MemoryAllocator.cpp ****     if(curr != 0)
 605              		.loc 1 174 5
 606 0354 63880402 		beqz	s1,.L48
 175:src/MemoryAllocator.cpp ****         return 0;
 607              		.loc 1 175 16 is_stmt 0
 608 0358 13050000 		li	a0,0
 609              	.L41:
 176:src/MemoryAllocator.cpp ****     else
 177:src/MemoryAllocator.cpp ****         return 1;
 178:src/MemoryAllocator.cpp **** }
 610              		.loc 1 178 1
 611 035c 83308101 		ld	ra,24(sp)
 612              		.cfi_remember_state
 613              		.cfi_restore 1
 614 0360 03340101 		ld	s0,16(sp)
 615              		.cfi_restore 8
 616              		.cfi_def_cfa 2, 32
 617 0364 83348100 		ld	s1,8(sp)
 618              		.cfi_restore 9
 619              	.LVL59:
 620 0368 03390100 		ld	s2,0(sp)
 621              		.cfi_restore 18
 622              	.LVL60:
 623 036c 13010102 		addi	sp,sp,32
 624              		.cfi_def_cfa_offset 0
 625 0370 67800000 		jr	ra
 626              	.LVL61:
 627              	.L44:
 628              		.cfi_restore_state
 163:src/MemoryAllocator.cpp **** 
 629              		.loc 1 163 17 is_stmt 1
 163:src/MemoryAllocator.cpp **** 
 630              		.loc 1 163 39 is_stmt 0
 631 0374 83B78400 		ld	a5,8(s1)
 163:src/MemoryAllocator.cpp **** 
 632              		.loc 1 163 31
 633 0378 17070000 		sd	a5,.LANCHOR0+8,a4
 633      2330F700 
 634              	.LVL62:
GAS LISTING /tmp/ccCoXpHH.s 			page 17


 635 0380 6FF05FFC 		j	.L45
 636              	.L48:
 177:src/MemoryAllocator.cpp **** }
 637              		.loc 1 177 16
 638 0384 13051000 		li	a0,1
 639 0388 6FF05FFD 		j	.L41
 640              		.cfi_endproc
 641              	.LFE22:
 643              		.align	2
 644              		.globl	_ZN15MemoryAllocator8mem_freeEPv
 646              	_ZN15MemoryAllocator8mem_freeEPv:
 647              	.LFB17:
  18:src/MemoryAllocator.cpp ****     return tryToFreeSegment(addr);
 648              		.loc 1 18 1 is_stmt 1
 649              		.cfi_startproc
 650              	.LVL63:
 651 038c 130101FF 		addi	sp,sp,-16
 652              		.cfi_def_cfa_offset 16
 653 0390 23341100 		sd	ra,8(sp)
 654 0394 23308100 		sd	s0,0(sp)
 655              		.cfi_offset 1, -8
 656              		.cfi_offset 8, -16
 657 0398 13040101 		addi	s0,sp,16
 658              		.cfi_def_cfa 8, 0
  19:src/MemoryAllocator.cpp **** }
 659              		.loc 1 19 5
  19:src/MemoryAllocator.cpp **** }
 660              		.loc 1 19 28 is_stmt 0
 661 039c 97000000 		call	_ZN15MemoryAllocator16tryToFreeSegmentEPv
 661      E7800000 
 662              	.LVL64:
  20:src/MemoryAllocator.cpp **** 
 663              		.loc 1 20 1
 664 03a4 83308100 		ld	ra,8(sp)
 665              		.cfi_restore 1
 666 03a8 03340100 		ld	s0,0(sp)
 667              		.cfi_restore 8
 668              		.cfi_def_cfa 2, 16
 669 03ac 13010101 		addi	sp,sp,16
 670              		.cfi_def_cfa_offset 0
 671 03b0 67800000 		jr	ra
 672              		.cfi_endproc
 673              	.LFE17:
 675              		.align	2
 676              		.globl	_Z7kmallocm
 678              	_Z7kmallocm:
 679              	.LFB25:
 179:src/MemoryAllocator.cpp **** 
 180:src/MemoryAllocator.cpp **** void MemoryAllocator::memAllocHandler()
 181:src/MemoryAllocator.cpp **** {
 182:src/MemoryAllocator.cpp ****     size_t size;
 183:src/MemoryAllocator.cpp ****     __asm__ volatile("mv %0, a1" : "=r"(size));
 184:src/MemoryAllocator.cpp ****     size*=MEM_BLOCK_SIZE;
 185:src/MemoryAllocator.cpp ****     void* allocatedAddr = kmalloc(size);
 186:src/MemoryAllocator.cpp ****     __asm__ volatile("mv a0,%0" : : "r"((uint64)allocatedAddr));
 187:src/MemoryAllocator.cpp **** }
 188:src/MemoryAllocator.cpp **** 
GAS LISTING /tmp/ccCoXpHH.s 			page 18


 189:src/MemoryAllocator.cpp **** void MemoryAllocator::memFreeHandler()
 190:src/MemoryAllocator.cpp **** {
 191:src/MemoryAllocator.cpp ****     uint64 addr = 0;
 192:src/MemoryAllocator.cpp ****     __asm__ volatile("mv %0, a1" : "=r"(addr));
 193:src/MemoryAllocator.cpp ****     uint64 retval = kfree((void*)addr);
 194:src/MemoryAllocator.cpp ****     __asm__ volatile("mv a0,%0" : :"r"(retval));
 195:src/MemoryAllocator.cpp **** }
 196:src/MemoryAllocator.cpp **** 
 197:src/MemoryAllocator.cpp **** void* kmalloc(size_t size)
 198:src/MemoryAllocator.cpp **** {
 680              		.loc 1 198 1 is_stmt 1
 681              		.cfi_startproc
 682              	.LVL65:
 683 03b4 130101FF 		addi	sp,sp,-16
 684              		.cfi_def_cfa_offset 16
 685 03b8 23341100 		sd	ra,8(sp)
 686 03bc 23308100 		sd	s0,0(sp)
 687              		.cfi_offset 1, -8
 688              		.cfi_offset 8, -16
 689 03c0 13040101 		addi	s0,sp,16
 690              		.cfi_def_cfa 8, 0
 199:src/MemoryAllocator.cpp ****     return MemoryAllocator::mem_alloc(size);
 691              		.loc 1 199 5
 692              		.loc 1 199 38 is_stmt 0
 693 03c4 97000000 		call	_ZN15MemoryAllocator9mem_allocEm
 693      E7800000 
 694              	.LVL66:
 200:src/MemoryAllocator.cpp **** }
 695              		.loc 1 200 1
 696 03cc 83308100 		ld	ra,8(sp)
 697              		.cfi_restore 1
 698 03d0 03340100 		ld	s0,0(sp)
 699              		.cfi_restore 8
 700              		.cfi_def_cfa 2, 16
 701 03d4 13010101 		addi	sp,sp,16
 702              		.cfi_def_cfa_offset 0
 703 03d8 67800000 		jr	ra
 704              		.cfi_endproc
 705              	.LFE25:
 707              		.align	2
 708              		.globl	_ZN15MemoryAllocator15memAllocHandlerEv
 710              	_ZN15MemoryAllocator15memAllocHandlerEv:
 711              	.LFB23:
 181:src/MemoryAllocator.cpp ****     size_t size;
 712              		.loc 1 181 1 is_stmt 1
 713              		.cfi_startproc
 714 03dc 130101FF 		addi	sp,sp,-16
 715              		.cfi_def_cfa_offset 16
 716 03e0 23341100 		sd	ra,8(sp)
 717 03e4 23308100 		sd	s0,0(sp)
 718              		.cfi_offset 1, -8
 719              		.cfi_offset 8, -16
 720 03e8 13040101 		addi	s0,sp,16
 721              		.cfi_def_cfa 8, 0
 182:src/MemoryAllocator.cpp ****     __asm__ volatile("mv %0, a1" : "=r"(size));
 722              		.loc 1 182 5
 183:src/MemoryAllocator.cpp ****     size*=MEM_BLOCK_SIZE;
GAS LISTING /tmp/ccCoXpHH.s 			page 19


 723              		.loc 1 183 5
 183:src/MemoryAllocator.cpp ****     size*=MEM_BLOCK_SIZE;
 724              		.loc 1 183 47 is_stmt 0
 725              	#APP
 726              	# 183 "src/MemoryAllocator.cpp" 1
 727              		mv a0, a1
 728              	# 0 "" 2
 729              	.LVL67:
 184:src/MemoryAllocator.cpp ****     void* allocatedAddr = kmalloc(size);
 730              		.loc 1 184 5 is_stmt 1
 185:src/MemoryAllocator.cpp ****     __asm__ volatile("mv a0,%0" : : "r"((uint64)allocatedAddr));
 731              		.loc 1 185 5
 185:src/MemoryAllocator.cpp ****     __asm__ volatile("mv a0,%0" : : "r"((uint64)allocatedAddr));
 732              		.loc 1 185 34 is_stmt 0
 733              	#NO_APP
 734 03f0 13156500 		slli	a0,a0,6
 735              	.LVL68:
 736 03f4 97000000 		call	_Z7kmallocm
 736      E7800000 
 737              	.LVL69:
 186:src/MemoryAllocator.cpp **** }
 738              		.loc 1 186 5 is_stmt 1
 186:src/MemoryAllocator.cpp **** }
 739              		.loc 1 186 64 is_stmt 0
 740              	#APP
 741              	# 186 "src/MemoryAllocator.cpp" 1
 187:src/MemoryAllocator.cpp **** 
 742              		mv a0,a0
 743              	# 0 "" 2
 744              		.loc 1 187 1
 745              	#NO_APP
 746 0400 83308100 		ld	ra,8(sp)
 747              		.cfi_restore 1
 748 0404 03340100 		ld	s0,0(sp)
 749              		.cfi_restore 8
 750              		.cfi_def_cfa 2, 16
 751 0408 13010101 		addi	sp,sp,16
 752              		.cfi_def_cfa_offset 0
 753 040c 67800000 		jr	ra
 754              		.cfi_endproc
 755              	.LFE23:
 757              		.align	2
 758              		.globl	_Z5kfreePv
 760              	_Z5kfreePv:
 761              	.LFB26:
 201:src/MemoryAllocator.cpp **** 
 202:src/MemoryAllocator.cpp **** uint64 kfree(void* p)
 203:src/MemoryAllocator.cpp **** {
 762              		.loc 1 203 1 is_stmt 1
 763              		.cfi_startproc
 764              	.LVL70:
 765 0410 130101FF 		addi	sp,sp,-16
 766              		.cfi_def_cfa_offset 16
 767 0414 23341100 		sd	ra,8(sp)
 768 0418 23308100 		sd	s0,0(sp)
 769              		.cfi_offset 1, -8
 770              		.cfi_offset 8, -16
GAS LISTING /tmp/ccCoXpHH.s 			page 20


 771 041c 13040101 		addi	s0,sp,16
 772              		.cfi_def_cfa 8, 0
 204:src/MemoryAllocator.cpp ****     return MemoryAllocator::mem_free(p);
 773              		.loc 1 204 5
 774              		.loc 1 204 37 is_stmt 0
 775 0420 97000000 		call	_ZN15MemoryAllocator8mem_freeEPv
 775      E7800000 
 776              	.LVL71:
 205:src/MemoryAllocator.cpp **** }...
 777              		.loc 1 205 1
 778 0428 83308100 		ld	ra,8(sp)
 779              		.cfi_restore 1
 780 042c 03340100 		ld	s0,0(sp)
 781              		.cfi_restore 8
 782              		.cfi_def_cfa 2, 16
 783 0430 13010101 		addi	sp,sp,16
 784              		.cfi_def_cfa_offset 0
 785 0434 67800000 		jr	ra
 786              		.cfi_endproc
 787              	.LFE26:
 789              		.align	2
 790              		.globl	_ZN15MemoryAllocator14memFreeHandlerEv
 792              	_ZN15MemoryAllocator14memFreeHandlerEv:
 793              	.LFB24:
 190:src/MemoryAllocator.cpp **** {
 794              		.loc 1 190 1 is_stmt 1
 795              		.cfi_startproc
 796 0438 130101FF 		addi	sp,sp,-16
 797              		.cfi_def_cfa_offset 16
 798 043c 23341100 		sd	ra,8(sp)
 799 0440 23308100 		sd	s0,0(sp)
 800              		.cfi_offset 1, -8
 801              		.cfi_offset 8, -16
 802 0444 13040101 		addi	s0,sp,16
 803              		.cfi_def_cfa 8, 0
 191:src/MemoryAllocator.cpp ****     uint64 addr = 0;
 804              		.loc 1 191 5
 805              	.LVL72:
 192:src/MemoryAllocator.cpp ****     __asm__ volatile("mv %0, a1" : "=r"(addr));
 806              		.loc 1 192 5
 192:src/MemoryAllocator.cpp ****     __asm__ volatile("mv %0, a1" : "=r"(addr));
 807              		.loc 1 192 47 is_stmt 0
 808              	#APP
 809              	# 192 "src/MemoryAllocator.cpp" 1
 810              		mv a0, a1
 811              	# 0 "" 2
 812              	.LVL73:
 193:src/MemoryAllocator.cpp ****     uint64 retval = kfree((void*)addr);
 813              		.loc 1 193 5 is_stmt 1
 193:src/MemoryAllocator.cpp ****     uint64 retval = kfree((void*)addr);
 814              		.loc 1 193 26 is_stmt 0
 815              	#NO_APP
 816 044c 97000000 		call	_Z5kfreePv
 816      E7800000 
 817              	.LVL74:
 194:src/MemoryAllocator.cpp ****     __asm__ volatile("mv a0,%0" : :"r"(retval));
 818              		.loc 1 194 5 is_stmt 1
GAS LISTING /tmp/ccCoXpHH.s 			page 21


 194:src/MemoryAllocator.cpp ****     __asm__ volatile("mv a0,%0" : :"r"(retval));
 819              		.loc 1 194 48 is_stmt 0
 820              	#APP
 821              	# 194 "src/MemoryAllocator.cpp" 1
 195:src/MemoryAllocator.cpp **** }
 822              		mv a0,a0
 823              	# 0 "" 2
 824              		.loc 1 195 1
 825              	#NO_APP
 826 0458 83308100 		ld	ra,8(sp)
 827              		.cfi_restore 1
 828 045c 03340100 		ld	s0,0(sp)
 829              		.cfi_restore 8
 830              		.cfi_def_cfa 2, 16
 831 0460 13010101 		addi	sp,sp,16
 832              		.cfi_def_cfa_offset 0
 833 0464 67800000 		jr	ra
 834              		.cfi_endproc
 835              	.LFE24:
 837              		.globl	_ZN15MemoryAllocator18memoryInitiliaizedE
 838              		.globl	_ZN15MemoryAllocator8headFreeE
 839              		.globl	_ZN15MemoryAllocator13headAllocatedE
 840              		.bss
 841              		.align	3
 842              		.set	.LANCHOR0,. + 0
 845              	_ZN15MemoryAllocator18memoryInitiliaizedE:
 846 0000 00000000 		.zero	4
 847 0004 00000000 		.zero	4
 850              	_ZN15MemoryAllocator13headAllocatedE:
 851 0008 00000000 		.zero	8
 851      00000000 
 854              	_ZN15MemoryAllocator8headFreeE:
 855 0010 00000000 		.zero	8
 855      00000000 
 856              		.text
 857              	.Letext0:
 858              		.file 2 "src/../h/../lib/hw.h"
 859              		.file 3 "src/../h/MemoryAllocator.hpp"
GAS LISTING /tmp/ccCoXpHH.s 			page 22


DEFINED SYMBOLS
                            *ABS*:0000000000000000 MemoryAllocator.cpp
     /tmp/ccCoXpHH.s:9      .text:0000000000000000 _ZN15MemoryAllocator10initMemoryEv
     /tmp/ccCoXpHH.s:13     .text:0000000000000000 .L0 
     /tmp/ccCoXpHH.s:14     .text:0000000000000000 .L0 
     /tmp/ccCoXpHH.s:15     .text:0000000000000004 .L0 
     /tmp/ccCoXpHH.s:17     .text:0000000000000008 .L0 
     /tmp/ccCoXpHH.s:19     .text:000000000000000c .L0 
     /tmp/ccCoXpHH.s:21     .text:000000000000000c .L0 
     /tmp/ccCoXpHH.s:22     .text:000000000000000c .L0 
     /tmp/ccCoXpHH.s:24     .text:0000000000000014 .L0 
     /tmp/ccCoXpHH.s:27     .text:000000000000001c .L0 
     /tmp/ccCoXpHH.s:28     .text:000000000000001c .L0 
     /tmp/ccCoXpHH.s:32     .text:000000000000002c .L0 
     /tmp/ccCoXpHH.s:33     .text:000000000000002c .L0 
     /tmp/ccCoXpHH.s:35     .text:0000000000000030 .L0 
     /tmp/ccCoXpHH.s:36     .text:0000000000000030 .L0 
     /tmp/ccCoXpHH.s:40     .text:0000000000000040 .L0 
     /tmp/ccCoXpHH.s:41     .text:0000000000000040 .L0 
     /tmp/ccCoXpHH.s:43     .text:0000000000000044 .L0 
     /tmp/ccCoXpHH.s:44     .text:0000000000000044 .L0 
     /tmp/ccCoXpHH.s:48     .text:0000000000000054 .L0 
     /tmp/ccCoXpHH.s:50     .text:0000000000000058 .L0 
     /tmp/ccCoXpHH.s:53     .text:000000000000005c .L0 
     /tmp/ccCoXpHH.s:54     .text:0000000000000060 .L0 
     /tmp/ccCoXpHH.s:55     .text:0000000000000060 .L0 
     /tmp/ccCoXpHH.s:57     .text:0000000000000064 .L0 
     /tmp/ccCoXpHH.s:59     .text:0000000000000068 .L0 
     /tmp/ccCoXpHH.s:65     .text:0000000000000068 _ZN15MemoryAllocator26insertNewAllocatedFragmentEPvm
     /tmp/ccCoXpHH.s:68     .text:0000000000000068 .L0 
     /tmp/ccCoXpHH.s:70     .text:0000000000000068 .L0 
     /tmp/ccCoXpHH.s:71     .text:000000000000006c .L0 
     /tmp/ccCoXpHH.s:76     .text:000000000000007c .L0 
     /tmp/ccCoXpHH.s:77     .text:000000000000007c .L0 
     /tmp/ccCoXpHH.s:78     .text:000000000000007c .L0 
     /tmp/ccCoXpHH.s:79     .text:000000000000007c .L0 
     /tmp/ccCoXpHH.s:81     .text:0000000000000080 .L0 
     /tmp/ccCoXpHH.s:85     .text:0000000000000088 .L0 
     /tmp/ccCoXpHH.s:86     .text:0000000000000088 .L0 
     /tmp/ccCoXpHH.s:89     .text:0000000000000090 .L0 
     /tmp/ccCoXpHH.s:90     .text:0000000000000090 .L0 
     /tmp/ccCoXpHH.s:91     .text:0000000000000090 .L0 
     /tmp/ccCoXpHH.s:94     .text:0000000000000098 .L0 
     /tmp/ccCoXpHH.s:95     .text:0000000000000098 .L0 
     /tmp/ccCoXpHH.s:96     .text:0000000000000098 .L0 
     /tmp/ccCoXpHH.s:98     .text:000000000000009c .L0 
     /tmp/ccCoXpHH.s:99     .text:000000000000009c .L0 
     /tmp/ccCoXpHH.s:101    .text:00000000000000a0 .L0 
     /tmp/ccCoXpHH.s:105    .text:00000000000000a4 .L0 
     /tmp/ccCoXpHH.s:106    .text:00000000000000a4 .L0 
     /tmp/ccCoXpHH.s:108    .text:00000000000000a8 .L0 
     /tmp/ccCoXpHH.s:111    .text:00000000000000ac .L0 
     /tmp/ccCoXpHH.s:112    .text:00000000000000ac .L0 
     /tmp/ccCoXpHH.s:113    .text:00000000000000ac .L0 
     /tmp/ccCoXpHH.s:115    .text:00000000000000b0 .L0 
     /tmp/ccCoXpHH.s:118    .text:00000000000000b4 .L0 
     /tmp/ccCoXpHH.s:121    .text:00000000000000b8 .L0 
GAS LISTING /tmp/ccCoXpHH.s 			page 23


     /tmp/ccCoXpHH.s:122    .text:00000000000000b8 .L0 
     /tmp/ccCoXpHH.s:125    .text:00000000000000bc .L0 
     /tmp/ccCoXpHH.s:126    .text:00000000000000bc .L0 
     /tmp/ccCoXpHH.s:128    .text:00000000000000c0 .L0 
     /tmp/ccCoXpHH.s:129    .text:00000000000000c0 .L0 
     /tmp/ccCoXpHH.s:133    .text:00000000000000c4 .L0 
     /tmp/ccCoXpHH.s:134    .text:00000000000000c8 .L0 
     /tmp/ccCoXpHH.s:135    .text:00000000000000c8 .L0 
     /tmp/ccCoXpHH.s:137    .text:00000000000000cc .L0 
     /tmp/ccCoXpHH.s:138    .text:00000000000000cc .L0 
     /tmp/ccCoXpHH.s:140    .text:00000000000000d0 .L0 
     /tmp/ccCoXpHH.s:143    .text:00000000000000d4 .L0 
     /tmp/ccCoXpHH.s:146    .text:00000000000000d8 .L0 
     /tmp/ccCoXpHH.s:150    .text:00000000000000dc .L0 
     /tmp/ccCoXpHH.s:152    .text:00000000000000dc .L0 
     /tmp/ccCoXpHH.s:153    .text:00000000000000dc .L0 
     /tmp/ccCoXpHH.s:156    .text:00000000000000e8 .L0 
     /tmp/ccCoXpHH.s:162    .text:00000000000000e8 _ZN15MemoryAllocator21tryToAllocateFragmentEm
     /tmp/ccCoXpHH.s:165    .text:00000000000000e8 .L0 
     /tmp/ccCoXpHH.s:167    .text:00000000000000e8 .L0 
     /tmp/ccCoXpHH.s:168    .text:00000000000000ec .L0 
     /tmp/ccCoXpHH.s:173    .text:00000000000000fc .L0 
     /tmp/ccCoXpHH.s:174    .text:00000000000000fc .L0 
     /tmp/ccCoXpHH.s:175    .text:00000000000000fc .L0 
     /tmp/ccCoXpHH.s:176    .text:00000000000000fc .L0 
     /tmp/ccCoXpHH.s:178    .text:0000000000000100 .L0 
     /tmp/ccCoXpHH.s:181    .text:0000000000000104 .L0 
     /tmp/ccCoXpHH.s:182    .text:0000000000000104 .L0 
     /tmp/ccCoXpHH.s:185    .text:000000000000010c .L0 
     /tmp/ccCoXpHH.s:186    .text:000000000000010c .L0 
     /tmp/ccCoXpHH.s:187    .text:000000000000010c .L0 
     /tmp/ccCoXpHH.s:188    .text:000000000000010c .L0 
     /tmp/ccCoXpHH.s:191    .text:0000000000000114 .L0 
     /tmp/ccCoXpHH.s:195    .text:0000000000000118 .L0 
     /tmp/ccCoXpHH.s:196    .text:0000000000000118 .L0 
     /tmp/ccCoXpHH.s:200    .text:000000000000011c .L0 
     /tmp/ccCoXpHH.s:201    .text:000000000000011c .L0 
     /tmp/ccCoXpHH.s:203    .text:0000000000000120 .L0 
     /tmp/ccCoXpHH.s:207    .text:0000000000000124 .L0 
     /tmp/ccCoXpHH.s:208    .text:0000000000000124 .L0 
     /tmp/ccCoXpHH.s:209    .text:0000000000000124 .L0 
     /tmp/ccCoXpHH.s:211    .text:0000000000000128 .L0 
     /tmp/ccCoXpHH.s:215    .text:000000000000012c .L0 
     /tmp/ccCoXpHH.s:222    .text:0000000000000130 .L0 
     /tmp/ccCoXpHH.s:223    .text:0000000000000130 .L0 
     /tmp/ccCoXpHH.s:224    .text:0000000000000130 .L0 
     /tmp/ccCoXpHH.s:226    .text:0000000000000134 .L0 
     /tmp/ccCoXpHH.s:230    .text:0000000000000138 .L0 
     /tmp/ccCoXpHH.s:231    .text:0000000000000138 .L0 
     /tmp/ccCoXpHH.s:234    .text:0000000000000144 .L0 
     /tmp/ccCoXpHH.s:237    .text:0000000000000148 .L0 
     /tmp/ccCoXpHH.s:238    .text:0000000000000148 .L0 
     /tmp/ccCoXpHH.s:242    .text:000000000000014c .L0 
     /tmp/ccCoXpHH.s:247    .text:0000000000000154 .L0 
     /tmp/ccCoXpHH.s:248    .text:0000000000000154 .L0 
     /tmp/ccCoXpHH.s:249    .text:0000000000000154 .L0 
     /tmp/ccCoXpHH.s:251    .text:0000000000000158 .L0 
GAS LISTING /tmp/ccCoXpHH.s 			page 24


     /tmp/ccCoXpHH.s:253    .text:000000000000015c .L0 
     /tmp/ccCoXpHH.s:254    .text:000000000000015c .L0 
     /tmp/ccCoXpHH.s:257    .text:0000000000000160 .L0 
     /tmp/ccCoXpHH.s:259    .text:0000000000000164 .L0 
     /tmp/ccCoXpHH.s:261    .text:0000000000000168 .L0 
     /tmp/ccCoXpHH.s:262    .text:0000000000000168 .L0 
     /tmp/ccCoXpHH.s:266    .text:0000000000000170 .L0 
     /tmp/ccCoXpHH.s:267    .text:0000000000000170 .L0 
     /tmp/ccCoXpHH.s:274    .text:000000000000017c .L0 
     /tmp/ccCoXpHH.s:276    .text:0000000000000180 .L0 
     /tmp/ccCoXpHH.s:277    .text:0000000000000180 .L0 
     /tmp/ccCoXpHH.s:280    .text:0000000000000184 .L0 
     /tmp/ccCoXpHH.s:286    .text:000000000000018c .L0 
     /tmp/ccCoXpHH.s:287    .text:000000000000018c .L0 
     /tmp/ccCoXpHH.s:290    .text:0000000000000190 .L0 
     /tmp/ccCoXpHH.s:298    .text:000000000000019c .L0 
     /tmp/ccCoXpHH.s:300    .text:00000000000001a0 .L0 
     /tmp/ccCoXpHH.s:301    .text:00000000000001a0 .L0 
     /tmp/ccCoXpHH.s:306    .text:00000000000001a4 .L0 
     /tmp/ccCoXpHH.s:307    .text:00000000000001a4 .L0 
     /tmp/ccCoXpHH.s:312    .text:00000000000001b4 .L0 
     /tmp/ccCoXpHH.s:313    .text:00000000000001b4 .L0 
     /tmp/ccCoXpHH.s:316    .text:00000000000001b8 .L0 
     /tmp/ccCoXpHH.s:317    .text:00000000000001b8 .L0 
     /tmp/ccCoXpHH.s:322    .text:00000000000001bc .L0 
     /tmp/ccCoXpHH.s:323    .text:00000000000001bc .L0 
     /tmp/ccCoXpHH.s:332    .text:00000000000001c8 .L0 
     /tmp/ccCoXpHH.s:336    .text:00000000000001cc .L0 
     /tmp/ccCoXpHH.s:337    .text:00000000000001cc .L0 
     /tmp/ccCoXpHH.s:338    .text:00000000000001d0 .L0 
     /tmp/ccCoXpHH.s:340    .text:00000000000001d4 .L0 
     /tmp/ccCoXpHH.s:341    .text:00000000000001d4 .L0 
     /tmp/ccCoXpHH.s:343    .text:00000000000001d8 .L0 
     /tmp/ccCoXpHH.s:346    .text:00000000000001dc .L0 
     /tmp/ccCoXpHH.s:349    .text:00000000000001e0 .L0 
     /tmp/ccCoXpHH.s:351    .text:00000000000001e4 .L0 
     /tmp/ccCoXpHH.s:357    .text:00000000000001e4 _ZN15MemoryAllocator9mem_allocEm
     /tmp/ccCoXpHH.s:360    .text:00000000000001e4 .L0 
     /tmp/ccCoXpHH.s:362    .text:00000000000001e4 .L0 
     /tmp/ccCoXpHH.s:363    .text:00000000000001e8 .L0 
     /tmp/ccCoXpHH.s:366    .text:00000000000001f0 .L0 
     /tmp/ccCoXpHH.s:367    .text:00000000000001f0 .L0 
     /tmp/ccCoXpHH.s:369    .text:00000000000001f4 .L0 
     /tmp/ccCoXpHH.s:371    .text:00000000000001f4 .L0 
     /tmp/ccCoXpHH.s:372    .text:00000000000001f4 .L0 
     /tmp/ccCoXpHH.s:375    .text:00000000000001fc .L0 
     /tmp/ccCoXpHH.s:376    .text:0000000000000200 .L0 
     /tmp/ccCoXpHH.s:378    .text:0000000000000204 .L0 
     /tmp/ccCoXpHH.s:379    .text:0000000000000204 .L0 
     /tmp/ccCoXpHH.s:381    .text:0000000000000208 .L0 
     /tmp/ccCoXpHH.s:383    .text:000000000000020c .L0 
     /tmp/ccCoXpHH.s:389    .text:000000000000020c _ZN15MemoryAllocator20insertNewFreeSegmentEPvm
     /tmp/ccCoXpHH.s:392    .text:000000000000020c .L0 
     /tmp/ccCoXpHH.s:394    .text:000000000000020c .L0 
     /tmp/ccCoXpHH.s:395    .text:0000000000000210 .L0 
     /tmp/ccCoXpHH.s:400    .text:0000000000000220 .L0 
     /tmp/ccCoXpHH.s:401    .text:0000000000000220 .L0 
GAS LISTING /tmp/ccCoXpHH.s 			page 25


     /tmp/ccCoXpHH.s:402    .text:0000000000000220 .L0 
     /tmp/ccCoXpHH.s:403    .text:0000000000000220 .L0 
     /tmp/ccCoXpHH.s:405    .text:0000000000000224 .L0 
     /tmp/ccCoXpHH.s:409    .text:000000000000022c .L0 
     /tmp/ccCoXpHH.s:410    .text:000000000000022c .L0 
     /tmp/ccCoXpHH.s:413    .text:0000000000000234 .L0 
     /tmp/ccCoXpHH.s:414    .text:0000000000000234 .L0 
     /tmp/ccCoXpHH.s:415    .text:0000000000000234 .L0 
     /tmp/ccCoXpHH.s:418    .text:000000000000023c .L0 
     /tmp/ccCoXpHH.s:419    .text:000000000000023c .L0 
     /tmp/ccCoXpHH.s:420    .text:000000000000023c .L0 
     /tmp/ccCoXpHH.s:422    .text:0000000000000240 .L0 
     /tmp/ccCoXpHH.s:423    .text:0000000000000240 .L0 
     /tmp/ccCoXpHH.s:425    .text:0000000000000244 .L0 
     /tmp/ccCoXpHH.s:429    .text:0000000000000248 .L0 
     /tmp/ccCoXpHH.s:430    .text:0000000000000248 .L0 
     /tmp/ccCoXpHH.s:432    .text:000000000000024c .L0 
     /tmp/ccCoXpHH.s:435    .text:0000000000000250 .L0 
     /tmp/ccCoXpHH.s:436    .text:0000000000000250 .L0 
     /tmp/ccCoXpHH.s:437    .text:0000000000000250 .L0 
     /tmp/ccCoXpHH.s:439    .text:0000000000000254 .L0 
     /tmp/ccCoXpHH.s:442    .text:0000000000000258 .L0 
     /tmp/ccCoXpHH.s:445    .text:000000000000025c .L0 
     /tmp/ccCoXpHH.s:446    .text:000000000000025c .L0 
     /tmp/ccCoXpHH.s:449    .text:0000000000000260 .L0 
     /tmp/ccCoXpHH.s:450    .text:0000000000000260 .L0 
     /tmp/ccCoXpHH.s:452    .text:0000000000000264 .L0 
     /tmp/ccCoXpHH.s:453    .text:0000000000000264 .L0 
     /tmp/ccCoXpHH.s:457    .text:0000000000000268 .L0 
     /tmp/ccCoXpHH.s:458    .text:0000000000000268 .L0 
     /tmp/ccCoXpHH.s:460    .text:000000000000026c .L0 
     /tmp/ccCoXpHH.s:462    .text:0000000000000270 .L0 
     /tmp/ccCoXpHH.s:464    .text:0000000000000274 .L0 
     /tmp/ccCoXpHH.s:467    .text:000000000000027c .L0 
     /tmp/ccCoXpHH.s:470    .text:0000000000000280 .L0 
     /tmp/ccCoXpHH.s:472    .text:0000000000000284 .L0 
     /tmp/ccCoXpHH.s:474    .text:0000000000000288 .L0 
     /tmp/ccCoXpHH.s:477    .text:0000000000000290 .L0 
     /tmp/ccCoXpHH.s:480    .text:0000000000000294 .L0 
     /tmp/ccCoXpHH.s:481    .text:0000000000000298 .L0 
     /tmp/ccCoXpHH.s:482    .text:0000000000000298 .L0 
     /tmp/ccCoXpHH.s:484    .text:000000000000029c .L0 
     /tmp/ccCoXpHH.s:485    .text:000000000000029c .L0 
     /tmp/ccCoXpHH.s:487    .text:00000000000002a0 .L0 
     /tmp/ccCoXpHH.s:490    .text:00000000000002a4 .L0 
     /tmp/ccCoXpHH.s:493    .text:00000000000002a8 .L0 
     /tmp/ccCoXpHH.s:497    .text:00000000000002ac .L0 
     /tmp/ccCoXpHH.s:499    .text:00000000000002ac .L0 
     /tmp/ccCoXpHH.s:500    .text:00000000000002ac .L0 
     /tmp/ccCoXpHH.s:505    .text:00000000000002b8 .L0 
     /tmp/ccCoXpHH.s:506    .text:00000000000002b8 .L0 
     /tmp/ccCoXpHH.s:508    .text:00000000000002bc .L0 
     /tmp/ccCoXpHH.s:512    .text:00000000000002c8 .L0 
     /tmp/ccCoXpHH.s:513    .text:00000000000002c8 .L0 
     /tmp/ccCoXpHH.s:515    .text:00000000000002cc .L0 
     /tmp/ccCoXpHH.s:519    .text:00000000000002d4 .L0 
     /tmp/ccCoXpHH.s:520    .text:00000000000002d4 .L0 
GAS LISTING /tmp/ccCoXpHH.s 			page 26


     /tmp/ccCoXpHH.s:522    .text:00000000000002d8 .L0 
     /tmp/ccCoXpHH.s:526    .text:00000000000002e4 .L0 
     /tmp/ccCoXpHH.s:527    .text:00000000000002e4 .L0 
     /tmp/ccCoXpHH.s:529    .text:00000000000002e8 .L0 
     /tmp/ccCoXpHH.s:531    .text:00000000000002ec .L0 
     /tmp/ccCoXpHH.s:532    .text:00000000000002f0 .L0 
     /tmp/ccCoXpHH.s:538    .text:00000000000002f0 _ZN15MemoryAllocator16tryToFreeSegmentEPv
     /tmp/ccCoXpHH.s:541    .text:00000000000002f0 .L0 
     /tmp/ccCoXpHH.s:543    .text:00000000000002f0 .L0 
     /tmp/ccCoXpHH.s:544    .text:00000000000002f4 .L0 
     /tmp/ccCoXpHH.s:549    .text:0000000000000304 .L0 
     /tmp/ccCoXpHH.s:550    .text:0000000000000304 .L0 
     /tmp/ccCoXpHH.s:551    .text:0000000000000304 .L0 
     /tmp/ccCoXpHH.s:552    .text:0000000000000304 .L0 
     /tmp/ccCoXpHH.s:554    .text:0000000000000308 .L0 
     /tmp/ccCoXpHH.s:557    .text:000000000000030c .L0 
     /tmp/ccCoXpHH.s:558    .text:000000000000030c .L0 
     /tmp/ccCoXpHH.s:561    .text:0000000000000314 .L0 
     /tmp/ccCoXpHH.s:562    .text:0000000000000314 .L0 
     /tmp/ccCoXpHH.s:563    .text:0000000000000314 .L0 
     /tmp/ccCoXpHH.s:566    .text:000000000000031c .L0 
     /tmp/ccCoXpHH.s:570    .text:0000000000000320 .L0 
     /tmp/ccCoXpHH.s:571    .text:0000000000000320 .L0 
     /tmp/ccCoXpHH.s:573    .text:0000000000000324 .L0 
     /tmp/ccCoXpHH.s:574    .text:0000000000000324 .L0 
     /tmp/ccCoXpHH.s:576    .text:0000000000000328 .L0 
     /tmp/ccCoXpHH.s:579    .text:000000000000032c .L0 
     /tmp/ccCoXpHH.s:580    .text:000000000000032c .L0 
     /tmp/ccCoXpHH.s:581    .text:000000000000032c .L0 
     /tmp/ccCoXpHH.s:583    .text:0000000000000330 .L0 
     /tmp/ccCoXpHH.s:586    .text:0000000000000334 .L0 
     /tmp/ccCoXpHH.s:589    .text:0000000000000338 .L0 
     /tmp/ccCoXpHH.s:591    .text:000000000000033c .L0 
     /tmp/ccCoXpHH.s:592    .text:000000000000033c .L0 
     /tmp/ccCoXpHH.s:594    .text:0000000000000340 .L0 
     /tmp/ccCoXpHH.s:598    .text:0000000000000344 .L0 
     /tmp/ccCoXpHH.s:599    .text:0000000000000344 .L0 
     /tmp/ccCoXpHH.s:605    .text:0000000000000354 .L0 
     /tmp/ccCoXpHH.s:606    .text:0000000000000354 .L0 
     /tmp/ccCoXpHH.s:608    .text:0000000000000358 .L0 
     /tmp/ccCoXpHH.s:611    .text:000000000000035c .L0 
     /tmp/ccCoXpHH.s:612    .text:0000000000000360 .L0 
     /tmp/ccCoXpHH.s:613    .text:0000000000000360 .L0 
     /tmp/ccCoXpHH.s:615    .text:0000000000000364 .L0 
     /tmp/ccCoXpHH.s:616    .text:0000000000000364 .L0 
     /tmp/ccCoXpHH.s:618    .text:0000000000000368 .L0 
     /tmp/ccCoXpHH.s:621    .text:000000000000036c .L0 
     /tmp/ccCoXpHH.s:624    .text:0000000000000370 .L0 
     /tmp/ccCoXpHH.s:628    .text:0000000000000374 .L0 
     /tmp/ccCoXpHH.s:630    .text:0000000000000374 .L0 
     /tmp/ccCoXpHH.s:631    .text:0000000000000374 .L0 
     /tmp/ccCoXpHH.s:633    .text:0000000000000378 .L0 
     /tmp/ccCoXpHH.s:638    .text:0000000000000384 .L0 
     /tmp/ccCoXpHH.s:640    .text:000000000000038c .L0 
     /tmp/ccCoXpHH.s:646    .text:000000000000038c _ZN15MemoryAllocator8mem_freeEPv
     /tmp/ccCoXpHH.s:649    .text:000000000000038c .L0 
     /tmp/ccCoXpHH.s:651    .text:000000000000038c .L0 
GAS LISTING /tmp/ccCoXpHH.s 			page 27


     /tmp/ccCoXpHH.s:652    .text:0000000000000390 .L0 
     /tmp/ccCoXpHH.s:655    .text:0000000000000398 .L0 
     /tmp/ccCoXpHH.s:656    .text:0000000000000398 .L0 
     /tmp/ccCoXpHH.s:658    .text:000000000000039c .L0 
     /tmp/ccCoXpHH.s:660    .text:000000000000039c .L0 
     /tmp/ccCoXpHH.s:661    .text:000000000000039c .L0 
     /tmp/ccCoXpHH.s:664    .text:00000000000003a4 .L0 
     /tmp/ccCoXpHH.s:665    .text:00000000000003a8 .L0 
     /tmp/ccCoXpHH.s:667    .text:00000000000003ac .L0 
     /tmp/ccCoXpHH.s:668    .text:00000000000003ac .L0 
     /tmp/ccCoXpHH.s:670    .text:00000000000003b0 .L0 
     /tmp/ccCoXpHH.s:672    .text:00000000000003b4 .L0 
     /tmp/ccCoXpHH.s:678    .text:00000000000003b4 _Z7kmallocm
     /tmp/ccCoXpHH.s:681    .text:00000000000003b4 .L0 
     /tmp/ccCoXpHH.s:683    .text:00000000000003b4 .L0 
     /tmp/ccCoXpHH.s:684    .text:00000000000003b8 .L0 
     /tmp/ccCoXpHH.s:687    .text:00000000000003c0 .L0 
     /tmp/ccCoXpHH.s:688    .text:00000000000003c0 .L0 
     /tmp/ccCoXpHH.s:690    .text:00000000000003c4 .L0 
     /tmp/ccCoXpHH.s:692    .text:00000000000003c4 .L0 
     /tmp/ccCoXpHH.s:693    .text:00000000000003c4 .L0 
     /tmp/ccCoXpHH.s:696    .text:00000000000003cc .L0 
     /tmp/ccCoXpHH.s:697    .text:00000000000003d0 .L0 
     /tmp/ccCoXpHH.s:699    .text:00000000000003d4 .L0 
     /tmp/ccCoXpHH.s:700    .text:00000000000003d4 .L0 
     /tmp/ccCoXpHH.s:702    .text:00000000000003d8 .L0 
     /tmp/ccCoXpHH.s:704    .text:00000000000003dc .L0 
     /tmp/ccCoXpHH.s:710    .text:00000000000003dc _ZN15MemoryAllocator15memAllocHandlerEv
     /tmp/ccCoXpHH.s:713    .text:00000000000003dc .L0 
     /tmp/ccCoXpHH.s:714    .text:00000000000003dc .L0 
     /tmp/ccCoXpHH.s:715    .text:00000000000003e0 .L0 
     /tmp/ccCoXpHH.s:718    .text:00000000000003e8 .L0 
     /tmp/ccCoXpHH.s:719    .text:00000000000003e8 .L0 
     /tmp/ccCoXpHH.s:721    .text:00000000000003ec .L0 
     /tmp/ccCoXpHH.s:723    .text:00000000000003ec .L0 
     /tmp/ccCoXpHH.s:724    .text:00000000000003ec .L0 
src/MemoryAllocator.cpp:183    .text:00000000000003ec .L0 
     /tmp/ccCoXpHH.s:731    .text:00000000000003f0 .L0 
     /tmp/ccCoXpHH.s:732    .text:00000000000003f0 .L0 
     /tmp/ccCoXpHH.s:734    .text:00000000000003f0 .L0 
     /tmp/ccCoXpHH.s:739    .text:00000000000003fc .L0 
src/MemoryAllocator.cpp:186    .text:00000000000003fc .L0 
     /tmp/ccCoXpHH.s:746    .text:0000000000000400 .L0 
     /tmp/ccCoXpHH.s:747    .text:0000000000000404 .L0 
     /tmp/ccCoXpHH.s:749    .text:0000000000000408 .L0 
     /tmp/ccCoXpHH.s:750    .text:0000000000000408 .L0 
     /tmp/ccCoXpHH.s:752    .text:000000000000040c .L0 
     /tmp/ccCoXpHH.s:754    .text:0000000000000410 .L0 
     /tmp/ccCoXpHH.s:760    .text:0000000000000410 _Z5kfreePv
     /tmp/ccCoXpHH.s:763    .text:0000000000000410 .L0 
     /tmp/ccCoXpHH.s:765    .text:0000000000000410 .L0 
     /tmp/ccCoXpHH.s:766    .text:0000000000000414 .L0 
     /tmp/ccCoXpHH.s:769    .text:000000000000041c .L0 
     /tmp/ccCoXpHH.s:770    .text:000000000000041c .L0 
     /tmp/ccCoXpHH.s:772    .text:0000000000000420 .L0 
     /tmp/ccCoXpHH.s:774    .text:0000000000000420 .L0 
     /tmp/ccCoXpHH.s:775    .text:0000000000000420 .L0 
GAS LISTING /tmp/ccCoXpHH.s 			page 28


     /tmp/ccCoXpHH.s:778    .text:0000000000000428 .L0 
     /tmp/ccCoXpHH.s:779    .text:000000000000042c .L0 
     /tmp/ccCoXpHH.s:781    .text:0000000000000430 .L0 
     /tmp/ccCoXpHH.s:782    .text:0000000000000430 .L0 
     /tmp/ccCoXpHH.s:784    .text:0000000000000434 .L0 
     /tmp/ccCoXpHH.s:786    .text:0000000000000438 .L0 
     /tmp/ccCoXpHH.s:792    .text:0000000000000438 _ZN15MemoryAllocator14memFreeHandlerEv
     /tmp/ccCoXpHH.s:795    .text:0000000000000438 .L0 
     /tmp/ccCoXpHH.s:796    .text:0000000000000438 .L0 
     /tmp/ccCoXpHH.s:797    .text:000000000000043c .L0 
     /tmp/ccCoXpHH.s:800    .text:0000000000000444 .L0 
     /tmp/ccCoXpHH.s:801    .text:0000000000000444 .L0 
     /tmp/ccCoXpHH.s:803    .text:0000000000000448 .L0 
     /tmp/ccCoXpHH.s:806    .text:0000000000000448 .L0 
     /tmp/ccCoXpHH.s:807    .text:0000000000000448 .L0 
src/MemoryAllocator.cpp:192    .text:0000000000000448 .L0 
     /tmp/ccCoXpHH.s:814    .text:000000000000044c .L0 
     /tmp/ccCoXpHH.s:816    .text:000000000000044c .L0 
     /tmp/ccCoXpHH.s:819    .text:0000000000000454 .L0 
src/MemoryAllocator.cpp:194    .text:0000000000000454 .L0 
     /tmp/ccCoXpHH.s:826    .text:0000000000000458 .L0 
     /tmp/ccCoXpHH.s:827    .text:000000000000045c .L0 
     /tmp/ccCoXpHH.s:829    .text:0000000000000460 .L0 
     /tmp/ccCoXpHH.s:830    .text:0000000000000460 .L0 
     /tmp/ccCoXpHH.s:832    .text:0000000000000464 .L0 
     /tmp/ccCoXpHH.s:834    .text:0000000000000468 .L0 
     /tmp/ccCoXpHH.s:845    .bss:0000000000000000 _ZN15MemoryAllocator18memoryInitiliaizedE
     /tmp/ccCoXpHH.s:854    .bss:0000000000000010 _ZN15MemoryAllocator8headFreeE
     /tmp/ccCoXpHH.s:850    .bss:0000000000000008 _ZN15MemoryAllocator13headAllocatedE
     /tmp/ccCoXpHH.s:842    .bss:0000000000000000 .LANCHOR0
     /tmp/ccCoXpHH.s:860    .text:0000000000000468 .L0 
     /tmp/ccCoXpHH.s:22     .text:000000000000000c .L0 
     /tmp/ccCoXpHH.s:28     .text:000000000000001c .L0 
     /tmp/ccCoXpHH.s:36     .text:0000000000000030 .L0 
     /tmp/ccCoXpHH.s:44     .text:0000000000000044 .L0 
     /tmp/ccCoXpHH.s:91     .text:0000000000000090 .L0 
     /tmp/ccCoXpHH.s:153    .text:00000000000000dc .L0 
     /tmp/ccCoXpHH.s:188    .text:000000000000010c .L0 
     /tmp/ccCoXpHH.s:231    .text:0000000000000138 .L0 
     /tmp/ccCoXpHH.s:267    .text:0000000000000170 .L0 
     /tmp/ccCoXpHH.s:290    .text:0000000000000190 .L0 
     /tmp/ccCoXpHH.s:323    .text:00000000000001bc .L0 
     /tmp/ccCoXpHH.s:415    .text:0000000000000234 .L0 
     /tmp/ccCoXpHH.s:500    .text:00000000000002ac .L0 
     /tmp/ccCoXpHH.s:563    .text:0000000000000314 .L0 
     /tmp/ccCoXpHH.s:633    .text:0000000000000378 .L0 
     /tmp/ccCoXpHH.s:51     .text:000000000000005c .L1
     /tmp/ccCoXpHH.s:124    .text:00000000000000bc .L5
     /tmp/ccCoXpHH.s:119    .text:00000000000000b8 .L11
     /tmp/ccCoXpHH.s:103    .text:00000000000000a4 .L7
     /tmp/ccCoXpHH.s:149    .text:00000000000000dc .L12
     /tmp/ccCoXpHH.s:131    .text:00000000000000c4 .L4
     /tmp/ccCoXpHH.s:326    .text:00000000000001c8 .L23
     /tmp/ccCoXpHH.s:216    .text:0000000000000130 .L25
     /tmp/ccCoXpHH.s:193    .text:0000000000000118 .L22
     /tmp/ccCoXpHH.s:294    .text:000000000000019c .L16
     /tmp/ccCoXpHH.s:271    .text:000000000000017c .L17
GAS LISTING /tmp/ccCoXpHH.s 			page 29


     /tmp/ccCoXpHH.s:264    .text:0000000000000170 .L18
     /tmp/ccCoXpHH.s:303    .text:00000000000001a4 .L19
     /tmp/ccCoXpHH.s:284    .text:000000000000018c .L20
     /tmp/ccCoXpHH.s:319    .text:00000000000001bc .L21
     /tmp/ccCoXpHH.s:334    .text:00000000000001cc .L14
     /tmp/ccCoXpHH.s:448    .text:0000000000000260 .L29
     /tmp/ccCoXpHH.s:443    .text:000000000000025c .L37
     /tmp/ccCoXpHH.s:427    .text:0000000000000248 .L31
     /tmp/ccCoXpHH.s:496    .text:00000000000002ac .L38
     /tmp/ccCoXpHH.s:468    .text:0000000000000280 .L34
     /tmp/ccCoXpHH.s:503    .text:00000000000002b8 .L39
     /tmp/ccCoXpHH.s:478    .text:0000000000000294 .L28
     /tmp/ccCoXpHH.s:517    .text:00000000000002d4 .L40
     /tmp/ccCoXpHH.s:455    .text:0000000000000268 .L33
     /tmp/ccCoXpHH.s:604    .text:0000000000000354 .L42
     /tmp/ccCoXpHH.s:587    .text:0000000000000338 .L50
     /tmp/ccCoXpHH.s:568    .text:0000000000000320 .L46
     /tmp/ccCoXpHH.s:627    .text:0000000000000374 .L44
     /tmp/ccCoXpHH.s:636    .text:0000000000000384 .L48
     /tmp/ccCoXpHH.s:596    .text:0000000000000344 .L45
     /tmp/ccCoXpHH.s:609    .text:000000000000035c .L41
     /tmp/ccCoXpHH.s:1634   .debug_abbrev:0000000000000000 .Ldebug_abbrev0
     /tmp/ccCoXpHH.s:2787   .debug_str:0000000000000106 .LASF62
     /tmp/ccCoXpHH.s:2873   .debug_str:00000000000004ff .LASF63
     /tmp/ccCoXpHH.s:2779   .debug_str:00000000000000ac .LASF64
     /tmp/ccCoXpHH.s:5      .text:0000000000000000 .Ltext0
     /tmp/ccCoXpHH.s:857    .text:0000000000000468 .Letext0
     /tmp/ccCoXpHH.s:2749   .debug_line:0000000000000000 .Ldebug_line0
     /tmp/ccCoXpHH.s:2817   .debug_str:00000000000002f2 .LASF0
     /tmp/ccCoXpHH.s:2821   .debug_str:000000000000032e .LASF1
     /tmp/ccCoXpHH.s:2811   .debug_str:00000000000002c9 .LASF2
     /tmp/ccCoXpHH.s:2801   .debug_str:0000000000000286 .LASF4
     /tmp/ccCoXpHH.s:2845   .debug_str:00000000000003fb .LASF3
     /tmp/ccCoXpHH.s:2759   .debug_str:0000000000000032 .LASF5
     /tmp/ccCoXpHH.s:2823   .debug_str:0000000000000341 .LASF6
     /tmp/ccCoXpHH.s:2815   .debug_str:00000000000002df .LASF7
     /tmp/ccCoXpHH.s:2863   .debug_str:00000000000004b0 .LASF8
     /tmp/ccCoXpHH.s:2795   .debug_str:0000000000000236 .LASF9
     /tmp/ccCoXpHH.s:2831   .debug_str:0000000000000390 .LASF10
     /tmp/ccCoXpHH.s:2855   .debug_str:0000000000000447 .LASF11
     /tmp/ccCoXpHH.s:2761   .debug_str:0000000000000039 .LASF12
     /tmp/ccCoXpHH.s:2751   .debug_str:0000000000000000 .LASF13
     /tmp/ccCoXpHH.s:2767   .debug_str:000000000000005b .LASF14
     /tmp/ccCoXpHH.s:2843   .debug_str:00000000000003e5 .LASF15
     /tmp/ccCoXpHH.s:2781   .debug_str:00000000000000cf .LASF16
     /tmp/ccCoXpHH.s:2807   .debug_str:00000000000002ae .LASF65
     /tmp/ccCoXpHH.s:2763   .debug_str:0000000000000049 .LASF66
     /tmp/ccCoXpHH.s:2853   .debug_str:0000000000000442 .LASF17
     /tmp/ccCoXpHH.s:2879   .debug_str:0000000000000535 .LASF18
     /tmp/ccCoXpHH.s:2875   .debug_str:0000000000000517 .LASF19
     /tmp/ccCoXpHH.s:2783   .debug_str:00000000000000e5 .LASF20
     /tmp/ccCoXpHH.s:2785   .debug_str:00000000000000f3 .LASF21
     /tmp/ccCoXpHH.s:2837   .debug_str:00000000000003ad .LASF22
     /tmp/ccCoXpHH.s:2849   .debug_str:0000000000000417 .LASF23
     /tmp/ccCoXpHH.s:2847   .debug_str:000000000000040d .LASF24
     /tmp/ccCoXpHH.s:2851   .debug_str:0000000000000421 .LASF26
     /tmp/ccCoXpHH.s:2835   .debug_str:00000000000003a4 .LASF25
GAS LISTING /tmp/ccCoXpHH.s 			page 30


     /tmp/ccCoXpHH.s:2793   .debug_str:0000000000000215 .LASF27
     /tmp/ccCoXpHH.s:2757   .debug_str:0000000000000027 .LASF36
     /tmp/ccCoXpHH.s:2839   .debug_str:00000000000003b6 .LASF38
     /tmp/ccCoXpHH.s:2797   .debug_str:0000000000000244 .LASF30
     /tmp/ccCoXpHH.s:2789   .debug_str:00000000000001b2 .LASF32
     /tmp/ccCoXpHH.s:2867   .debug_str:00000000000004c5 .LASF28
     /tmp/ccCoXpHH.s:2791   .debug_str:00000000000001e7 .LASF29
     /tmp/ccCoXpHH.s:2877   .debug_str:0000000000000520 .LASF31
     /tmp/ccCoXpHH.s:2819   .debug_str:00000000000002ff .LASF33
     /tmp/ccCoXpHH.s:2803   .debug_str:000000000000028d .LASF34
     /tmp/ccCoXpHH.s:2827   .debug_str:0000000000000359 .LASF35
     /tmp/ccCoXpHH.s:2805   .debug_str:000000000000029e .LASF37
     /tmp/ccCoXpHH.s:2861   .debug_str:0000000000000488 .LASF39
     /tmp/ccCoXpHH.s:2755   .debug_str:0000000000000018 .LASF40
     /tmp/ccCoXpHH.s:2799   .debug_str:000000000000025f .LASF41
     /tmp/ccCoXpHH.s:2825   .debug_str:0000000000000354 .LASF42
     /tmp/ccCoXpHH.s:2775   .debug_str:0000000000000080 .LASF43
     /tmp/ccCoXpHH.s:2869   .debug_str:00000000000004db .LASF44
     /tmp/ccCoXpHH.s:2857   .debug_str:0000000000000456 .LASF45
     /tmp/ccCoXpHH.s:2773   .debug_str:000000000000007a .LASF46
     /tmp/ccCoXpHH.s:2809   .debug_str:00000000000002be .LASF48
     /tmp/ccCoXpHH.s:761    .text:0000000000000410 .LFB26
     /tmp/ccCoXpHH.s:787    .text:0000000000000438 .LFE26
     /tmp/ccCoXpHH.s:2216   .debug_loc:0000000000000000 .LLST26
     /tmp/ccCoXpHH.s:776    .text:0000000000000428 .LVL71
     /tmp/ccCoXpHH.s:2859   .debug_str:0000000000000480 .LASF47
     /tmp/ccCoXpHH.s:2841   .debug_str:00000000000003d9 .LASF49
     /tmp/ccCoXpHH.s:679    .text:00000000000003b4 .LFB25
     /tmp/ccCoXpHH.s:705    .text:00000000000003dc .LFE25
     /tmp/ccCoXpHH.s:2230   .debug_loc:0000000000000039 .LLST24
     /tmp/ccCoXpHH.s:694    .text:00000000000003cc .LVL66
     /tmp/ccCoXpHH.s:793    .text:0000000000000438 .LFB24
     /tmp/ccCoXpHH.s:835    .text:0000000000000468 .LFE24
     /tmp/ccCoXpHH.s:2833   .debug_str:000000000000039f .LASF50
     /tmp/ccCoXpHH.s:2244   .debug_loc:0000000000000072 .LLST27
     /tmp/ccCoXpHH.s:2777   .debug_str:00000000000000a5 .LASF51
     /tmp/ccCoXpHH.s:817    .text:0000000000000454 .LVL74
     /tmp/ccCoXpHH.s:711    .text:00000000000003dc .LFB23
     /tmp/ccCoXpHH.s:755    .text:0000000000000410 .LFE23
     /tmp/ccCoXpHH.s:2256   .debug_loc:00000000000000a9 .LLST25
     /tmp/ccCoXpHH.s:2883   .debug_str:000000000000053f .LASF52
     /tmp/ccCoXpHH.s:737    .text:00000000000003fc .LVL69
     /tmp/ccCoXpHH.s:539    .text:00000000000002f0 .LFB22
     /tmp/ccCoXpHH.s:641    .text:000000000000038c .LFE22
     /tmp/ccCoXpHH.s:2271   .debug_loc:00000000000000e3 .LLST20
     /tmp/ccCoXpHH.s:2871   .debug_str:00000000000004fa .LASF53
     /tmp/ccCoXpHH.s:2293   .debug_loc:0000000000000142 .LLST21
     /tmp/ccCoXpHH.s:2881   .debug_str:000000000000053a .LASF54
     /tmp/ccCoXpHH.s:2317   .debug_loc:00000000000001b2 .LLST22
     /tmp/ccCoXpHH.s:559    .text:0000000000000314 .LVL52
     /tmp/ccCoXpHH.s:602    .text:0000000000000354 .LVL58
     /tmp/ccCoXpHH.s:390    .text:000000000000020c .LFB21
     /tmp/ccCoXpHH.s:533    .text:00000000000002f0 .LFE21
     /tmp/ccCoXpHH.s:2337   .debug_loc:000000000000020f .LLST15
     /tmp/ccCoXpHH.s:2359   .debug_loc:000000000000026e .LLST16
     /tmp/ccCoXpHH.s:2381   .debug_loc:00000000000002cd .LLST17
     /tmp/ccCoXpHH.s:2401   .debug_loc:000000000000032a .LLST18
GAS LISTING /tmp/ccCoXpHH.s 			page 31


     /tmp/ccCoXpHH.s:2769   .debug_str:0000000000000067 .LASF55
     /tmp/ccCoXpHH.s:2421   .debug_loc:0000000000000387 .LLST19
     /tmp/ccCoXpHH.s:411    .text:0000000000000234 .LVL41
     /tmp/ccCoXpHH.s:163    .text:00000000000000e8 .LFB20
     /tmp/ccCoXpHH.s:352    .text:00000000000001e4 .LFE20
     /tmp/ccCoXpHH.s:2439   .debug_loc:00000000000003d3 .LLST5
     /tmp/ccCoXpHH.s:2457   .debug_loc:000000000000041f .LLST6
     /tmp/ccCoXpHH.s:2478   .debug_loc:000000000000047d .LLST7
     /tmp/ccCoXpHH.s:2506   .debug_loc:0000000000000500 .LLST8
     /tmp/ccCoXpHH.s:219    .text:0000000000000130 .LBB4
     /tmp/ccCoXpHH.s:328    .text:00000000000001c8 .LBE4
     /tmp/ccCoXpHH.s:2813   .debug_str:00000000000002d7 .LASF56
     /tmp/ccCoXpHH.s:2522   .debug_loc:000000000000054a .LLST9
     /tmp/ccCoXpHH.s:2771   .debug_str:0000000000000072 .LASF57
     /tmp/ccCoXpHH.s:2529   .debug_loc:000000000000056d .LLST10
     /tmp/ccCoXpHH.s:2865   .debug_str:00000000000004c0 .LASF58
     /tmp/ccCoXpHH.s:2551   .debug_loc:00000000000005bd .LLST11
     /tmp/ccCoXpHH.s:235    .text:0000000000000148 .LBB6
     /tmp/ccCoXpHH.s:296    .text:000000000000019c .LBE6
     /tmp/ccCoXpHH.s:2765   .debug_str:0000000000000055 .LASF59
     /tmp/ccCoXpHH.s:2558   .debug_loc:00000000000005e0 .LLST12
     /tmp/ccCoXpHH.s:244    .text:0000000000000154 .LBB8
     /tmp/ccCoXpHH.s:272    .text:000000000000017c .LBE8
     /tmp/ccCoXpHH.s:2753   .debug_str:0000000000000010 .LASF60
     /tmp/ccCoXpHH.s:2599   .debug_loc:0000000000000670 .LLST13
     /tmp/ccCoXpHH.s:310    .text:00000000000001b4 .LVL31
     /tmp/ccCoXpHH.s:183    .text:000000000000010c .LVL12
     /tmp/ccCoXpHH.s:66     .text:0000000000000068 .LFB19
     /tmp/ccCoXpHH.s:157    .text:00000000000000e8 .LFE19
     /tmp/ccCoXpHH.s:2606   .debug_loc:0000000000000693 .LLST0
     /tmp/ccCoXpHH.s:2628   .debug_loc:00000000000006f2 .LLST1
     /tmp/ccCoXpHH.s:2650   .debug_loc:0000000000000751 .LLST2
     /tmp/ccCoXpHH.s:2670   .debug_loc:00000000000007ae .LLST3
     /tmp/ccCoXpHH.s:2829   .debug_str:0000000000000383 .LASF61
     /tmp/ccCoXpHH.s:2690   .debug_loc:000000000000080b .LLST4
     /tmp/ccCoXpHH.s:87     .text:0000000000000090 .LVL1
     /tmp/ccCoXpHH.s:10     .text:0000000000000000 .LFB18
     /tmp/ccCoXpHH.s:60     .text:0000000000000068 .LFE18
     /tmp/ccCoXpHH.s:647    .text:000000000000038c .LFB17
     /tmp/ccCoXpHH.s:673    .text:00000000000003b4 .LFE17
     /tmp/ccCoXpHH.s:2708   .debug_loc:0000000000000857 .LLST23
     /tmp/ccCoXpHH.s:662    .text:00000000000003a4 .LVL64
     /tmp/ccCoXpHH.s:358    .text:00000000000001e4 .LFB16
     /tmp/ccCoXpHH.s:384    .text:000000000000020c .LFE16
     /tmp/ccCoXpHH.s:2722   .debug_loc:0000000000000890 .LLST14
     /tmp/ccCoXpHH.s:373    .text:00000000000001fc .LVL39
     /tmp/ccCoXpHH.s:764    .text:0000000000000410 .LVL70
     /tmp/ccCoXpHH.s:682    .text:00000000000003b4 .LVL65
     /tmp/ccCoXpHH.s:805    .text:0000000000000448 .LVL72
     /tmp/ccCoXpHH.s:812    .text:000000000000044c .LVL73
     /tmp/ccCoXpHH.s:729    .text:00000000000003f0 .LVL67
     /tmp/ccCoXpHH.s:735    .text:00000000000003f4 .LVL68
     /tmp/ccCoXpHH.s:542    .text:00000000000002f0 .LVL51
     /tmp/ccCoXpHH.s:622    .text:000000000000036c .LVL60
     /tmp/ccCoXpHH.s:626    .text:0000000000000374 .LVL61
     /tmp/ccCoXpHH.s:567    .text:0000000000000320 .LVL54
     /tmp/ccCoXpHH.s:578    .text:000000000000032c .LVL55
GAS LISTING /tmp/ccCoXpHH.s 			page 32


     /tmp/ccCoXpHH.s:584    .text:0000000000000334 .LVL56
     /tmp/ccCoXpHH.s:595    .text:0000000000000344 .LVL57
     /tmp/ccCoXpHH.s:634    .text:0000000000000380 .LVL62
     /tmp/ccCoXpHH.s:564    .text:000000000000031c .LVL53
     /tmp/ccCoXpHH.s:619    .text:0000000000000368 .LVL59
     /tmp/ccCoXpHH.s:393    .text:000000000000020c .LVL40
     /tmp/ccCoXpHH.s:488    .text:00000000000002a0 .LVL47
     /tmp/ccCoXpHH.s:495    .text:00000000000002ac .LVL49
     /tmp/ccCoXpHH.s:491    .text:00000000000002a4 .LVL48
     /tmp/ccCoXpHH.s:426    .text:0000000000000248 .LVL43
     /tmp/ccCoXpHH.s:434    .text:0000000000000250 .LVL44
     /tmp/ccCoXpHH.s:440    .text:0000000000000258 .LVL45
     /tmp/ccCoXpHH.s:416    .text:000000000000023c .LVL42
     /tmp/ccCoXpHH.s:454    .text:0000000000000268 .LVL46
     /tmp/ccCoXpHH.s:501    .text:00000000000002b4 .LVL50
     /tmp/ccCoXpHH.s:166    .text:00000000000000e8 .LVL11
     /tmp/ccCoXpHH.s:347    .text:00000000000001dc .LVL37
     /tmp/ccCoXpHH.s:314    .text:00000000000001b8 .LVL32
     /tmp/ccCoXpHH.s:318    .text:00000000000001bc .LVL33
     /tmp/ccCoXpHH.s:333    .text:00000000000001cc .LVL35
     /tmp/ccCoXpHH.s:192    .text:0000000000000118 .LVL14
     /tmp/ccCoXpHH.s:206    .text:0000000000000124 .LVL15
     /tmp/ccCoXpHH.s:212    .text:000000000000012c .LVL16
     /tmp/ccCoXpHH.s:291    .text:0000000000000198 .LVL28
     /tmp/ccCoXpHH.s:293    .text:000000000000019c .LVL29
     /tmp/ccCoXpHH.s:302    .text:00000000000001a4 .LVL30
     /tmp/ccCoXpHH.s:189    .text:0000000000000114 .LVL13
     /tmp/ccCoXpHH.s:344    .text:00000000000001d8 .LVL36
     /tmp/ccCoXpHH.s:221    .text:0000000000000130 .LVL17
     /tmp/ccCoXpHH.s:325    .text:00000000000001c8 .LVL34
     /tmp/ccCoXpHH.s:227    .text:0000000000000138 .LVL18
     /tmp/ccCoXpHH.s:239    .text:000000000000014c .LVL19
     /tmp/ccCoXpHH.s:255    .text:0000000000000160 .LVL21
     /tmp/ccCoXpHH.s:268    .text:0000000000000178 .LVL22
     /tmp/ccCoXpHH.s:270    .text:000000000000017c .LVL23
     /tmp/ccCoXpHH.s:278    .text:0000000000000184 .LVL24
     /tmp/ccCoXpHH.s:281    .text:0000000000000188 .LVL25
     /tmp/ccCoXpHH.s:283    .text:000000000000018c .LVL26
     /tmp/ccCoXpHH.s:288    .text:0000000000000190 .LVL27
     /tmp/ccCoXpHH.s:246    .text:0000000000000154 .LVL20
     /tmp/ccCoXpHH.s:69     .text:0000000000000068 .LVL0
     /tmp/ccCoXpHH.s:141    .text:00000000000000d0 .LVL7
     /tmp/ccCoXpHH.s:148    .text:00000000000000dc .LVL9
     /tmp/ccCoXpHH.s:144    .text:00000000000000d4 .LVL8
     /tmp/ccCoXpHH.s:102    .text:00000000000000a4 .LVL3
     /tmp/ccCoXpHH.s:110    .text:00000000000000ac .LVL4
     /tmp/ccCoXpHH.s:116    .text:00000000000000b4 .LVL5
     /tmp/ccCoXpHH.s:92     .text:0000000000000098 .LVL2
     /tmp/ccCoXpHH.s:130    .text:00000000000000c4 .LVL6
     /tmp/ccCoXpHH.s:154    .text:00000000000000e4 .LVL10
     /tmp/ccCoXpHH.s:650    .text:000000000000038c .LVL63
     /tmp/ccCoXpHH.s:361    .text:00000000000001e4 .LVL38
     /tmp/ccCoXpHH.s:861    .debug_info:0000000000000000 .Ldebug_info0

UNDEFINED SYMBOLS
HEAP_START_ADDR
HEAP_END_ADDR
GAS LISTING /tmp/ccCoXpHH.s 			page 33


