GAS LISTING /tmp/ccMAmxH9.s 			page 1


   1              		.file	"MemoryAllocator.cpp"
   2              		.option pic
   3              		.option norelax
   4              		.text
   5              	.Ltext0:
   6              		.align	2
   7              		.globl	_ZN15MemoryAllocator10initMemoryEv
   9              	_ZN15MemoryAllocator10initMemoryEv:
  10              	.LFB2:
  11              		.file 1 "src/MemoryAllocator.cpp"
   1:src/MemoryAllocator.cpp **** //
   2:src/MemoryAllocator.cpp **** // Created by os on 4/27/22.
   3:src/MemoryAllocator.cpp **** //
   4:src/MemoryAllocator.cpp **** 
   5:src/MemoryAllocator.cpp **** #include "../h/MemoryAllocator.h"
   6:src/MemoryAllocator.cpp **** 
   7:src/MemoryAllocator.cpp **** MemoryAllocator::BlockHeader* MemoryAllocator::headAllocated = 0;
   8:src/MemoryAllocator.cpp **** MemoryAllocator::BlockHeader* MemoryAllocator::headFree = 0;
   9:src/MemoryAllocator.cpp **** int MemoryAllocator::memoryInitiliaized = 0;
  10:src/MemoryAllocator.cpp **** 
  11:src/MemoryAllocator.cpp **** void *MemoryAllocator::mem_alloc(size_t size) {
  12:src/MemoryAllocator.cpp ****     return tryToAllocateFragment(size);
  13:src/MemoryAllocator.cpp **** }
  14:src/MemoryAllocator.cpp **** 
  15:src/MemoryAllocator.cpp **** uint64 MemoryAllocator::mem_free(void * addr) {
  16:src/MemoryAllocator.cpp ****     return tryToFreeSegment(addr);
  17:src/MemoryAllocator.cpp **** }
  18:src/MemoryAllocator.cpp **** 
  19:src/MemoryAllocator.cpp **** void MemoryAllocator::initMemory()
  20:src/MemoryAllocator.cpp **** {
  12              		.loc 1 20 1
  13              		.cfi_startproc
  14 0000 130101FF 		addi	sp,sp,-16
  15              		.cfi_def_cfa_offset 16
  16 0004 23348100 		sd	s0,8(sp)
  17              		.cfi_offset 8, -8
  18 0008 13040101 		addi	s0,sp,16
  19              		.cfi_def_cfa 8, 0
  21:src/MemoryAllocator.cpp ****     if(memoryInitiliaized == 1)
  20              		.loc 1 21 5
  21              		.loc 1 21 27 is_stmt 0
  22 000c 17070000 		lw	a4,.LANCHOR0
  22      03270700 
  23              		.loc 1 21 5
  24 0014 93071000 		li	a5,1
  25 0018 6302F704 		beq	a4,a5,.L1
  22:src/MemoryAllocator.cpp ****         return;
  23:src/MemoryAllocator.cpp ****     memoryInitiliaized = 1;
  26              		.loc 1 23 5 is_stmt 1
  27              		.loc 1 23 24 is_stmt 0
  28 001c 97070000 		lla	a5,.LANCHOR0
  28      93870700 
  29 0024 13071000 		li	a4,1
  30 0028 23A0E700 		sw	a4,0(a5)
  24:src/MemoryAllocator.cpp ****     headAllocated = 0;
  31              		.loc 1 24 5 is_stmt 1
  32              		.loc 1 24 19 is_stmt 0
GAS LISTING /tmp/ccMAmxH9.s 			page 2


  33 002c 23B40700 		sd	zero,8(a5)
  25:src/MemoryAllocator.cpp ****     headFree = (BlockHeader*)HEAP_START_ADDR;
  34              		.loc 1 25 5 is_stmt 1
  35              		.loc 1 25 14 is_stmt 0
  36 0030 17070000 		la	a4,HEAP_START_ADDR
  36      03370700 
  37 0038 03370700 		ld	a4,0(a4)
  38 003c 23B8E700 		sd	a4,16(a5)
  26:src/MemoryAllocator.cpp ****     headFree->next = 0;
  39              		.loc 1 26 5 is_stmt 1
  40              		.loc 1 26 20 is_stmt 0
  41 0040 23340700 		sd	zero,8(a4)
  27:src/MemoryAllocator.cpp ****     headFree->size = (size_t)((size_t)HEAP_END_ADDR - (size_t)HEAP_START_ADDR + 1 - sizeof(BlockHea
  42              		.loc 1 27 5 is_stmt 1
  43              		.loc 1 27 53 is_stmt 0
  44 0044 97070000 		la	a5,HEAP_END_ADDR
  44      83B70700 
  45 004c 83B70700 		ld	a5,0(a5)
  46 0050 B387E740 		sub	a5,a5,a4
  47              		.loc 1 27 83
  48 0054 938717FF 		addi	a5,a5,-15
  49              		.loc 1 27 20
  50 0058 2330F700 		sd	a5,0(a4)
  51              	.L1:
  28:src/MemoryAllocator.cpp **** }
  52              		.loc 1 28 1
  53 005c 03348100 		ld	s0,8(sp)
  54              		.cfi_restore 8
  55              		.cfi_def_cfa 2, 16
  56 0060 13010101 		addi	sp,sp,16
  57              		.cfi_def_cfa_offset 0
  58 0064 67800000 		jr	ra
  59              		.cfi_endproc
  60              	.LFE2:
  62              		.align	2
  63              		.globl	_ZN15MemoryAllocator26insertNewAllocatedFragmentEPvm
  65              	_ZN15MemoryAllocator26insertNewAllocatedFragmentEPvm:
  66              	.LFB3:
  29:src/MemoryAllocator.cpp **** 
  30:src/MemoryAllocator.cpp **** void MemoryAllocator::insertNewAllocatedFragment(void *addr, size_t size) {
  67              		.loc 1 30 75 is_stmt 1
  68              		.cfi_startproc
  69              	.LVL0:
  70 0068 130101FE 		addi	sp,sp,-32
  71              		.cfi_def_cfa_offset 32
  72 006c 233C1100 		sd	ra,24(sp)
  73 0070 23388100 		sd	s0,16(sp)
  74 0074 23349100 		sd	s1,8(sp)
  75 0078 23302101 		sd	s2,0(sp)
  76              		.cfi_offset 1, -8
  77              		.cfi_offset 8, -16
  78              		.cfi_offset 9, -24
  79              		.cfi_offset 18, -32
  80 007c 13040102 		addi	s0,sp,32
  81              		.cfi_def_cfa 8, 0
  82 0080 93040500 		mv	s1,a0
  83 0084 13890500 		mv	s2,a1
GAS LISTING /tmp/ccMAmxH9.s 			page 3


  31:src/MemoryAllocator.cpp **** 
  32:src/MemoryAllocator.cpp ****     initMemory();
  84              		.loc 1 32 5
  85              		.loc 1 32 15 is_stmt 0
  86 0088 97000000 		call	_ZN15MemoryAllocator10initMemoryEv
  86      E7800000 
  87              	.LVL1:
  33:src/MemoryAllocator.cpp ****     BlockHeader* prev = 0;
  88              		.loc 1 33 5 is_stmt 1
  34:src/MemoryAllocator.cpp ****     BlockHeader* after =  headAllocated;
  89              		.loc 1 34 5
  90              		.loc 1 34 18 is_stmt 0
  91 0090 97070000 		ld	a5,.LANCHOR0+8
  91      83B70700 
  92              	.LVL2:
  35:src/MemoryAllocator.cpp ****     BlockHeader* newAllocated = (BlockHeader*)addr;
  93              		.loc 1 35 5 is_stmt 1
  36:src/MemoryAllocator.cpp ****     newAllocated->next = 0;
  94              		.loc 1 36 5
  95              		.loc 1 36 24 is_stmt 0
  96 0098 23B40400 		sd	zero,8(s1)
  37:src/MemoryAllocator.cpp ****     newAllocated->size = size;
  97              		.loc 1 37 5 is_stmt 1
  98              		.loc 1 37 24 is_stmt 0
  99 009c 23B02401 		sd	s2,0(s1)
  33:src/MemoryAllocator.cpp ****     BlockHeader* after =  headAllocated;
 100              		.loc 1 33 18
 101 00a0 13070000 		li	a4,0
 102              	.LVL3:
 103              	.L7:
  38:src/MemoryAllocator.cpp ****     while(after != 0)
 104              		.loc 1 38 5 is_stmt 1
 105              		.loc 1 38 17
 106 00a4 638C0700 		beqz	a5,.L5
  39:src/MemoryAllocator.cpp ****     {
  40:src/MemoryAllocator.cpp ****         if((void*)after > addr)
 107              		.loc 1 40 9
 108 00a8 63E8F400 		bgtu	a5,s1,.L11
  41:src/MemoryAllocator.cpp ****         {
  42:src/MemoryAllocator.cpp ****             newAllocated->next = after;
  43:src/MemoryAllocator.cpp ****             break;
  44:src/MemoryAllocator.cpp ****         }
  45:src/MemoryAllocator.cpp ****         prev = after;
 109              		.loc 1 45 9
 110              	.LVL4:
  46:src/MemoryAllocator.cpp ****         after = after->next;
 111              		.loc 1 46 9
  45:src/MemoryAllocator.cpp ****         after = after->next;
 112              		.loc 1 45 14 is_stmt 0
 113 00ac 13870700 		mv	a4,a5
 114              		.loc 1 46 15
 115 00b0 83B78700 		ld	a5,8(a5)
 116              	.LVL5:
  38:src/MemoryAllocator.cpp ****     {
 117              		.loc 1 38 5
 118 00b4 6FF01FFF 		j	.L7
 119              	.L11:
GAS LISTING /tmp/ccMAmxH9.s 			page 4


  42:src/MemoryAllocator.cpp ****             break;
 120              		.loc 1 42 13 is_stmt 1
  42:src/MemoryAllocator.cpp ****             break;
 121              		.loc 1 42 32 is_stmt 0
 122 00b8 23B4F400 		sd	a5,8(s1)
  43:src/MemoryAllocator.cpp ****         }
 123              		.loc 1 43 13 is_stmt 1
 124              	.L5:
  47:src/MemoryAllocator.cpp ****     }
  48:src/MemoryAllocator.cpp **** 
  49:src/MemoryAllocator.cpp ****     if(prev == 0)
 125              		.loc 1 49 5
 126 00bc 63000702 		beqz	a4,.L12
  50:src/MemoryAllocator.cpp ****         headAllocated = newAllocated;
  51:src/MemoryAllocator.cpp ****     else
  52:src/MemoryAllocator.cpp ****         prev->next = newAllocated;
 127              		.loc 1 52 9
 128              		.loc 1 52 20 is_stmt 0
 129 00c0 23349700 		sd	s1,8(a4)
 130              	.LVL6:
 131              	.L4:
  53:src/MemoryAllocator.cpp **** }
 132              		.loc 1 53 1
 133 00c4 83308101 		ld	ra,24(sp)
 134              		.cfi_remember_state
 135              		.cfi_restore 1
 136 00c8 03340101 		ld	s0,16(sp)
 137              		.cfi_restore 8
 138              		.cfi_def_cfa 2, 32
 139 00cc 83348100 		ld	s1,8(sp)
 140              		.cfi_restore 9
 141              	.LVL7:
 142 00d0 03390100 		ld	s2,0(sp)
 143              		.cfi_restore 18
 144              	.LVL8:
 145 00d4 13010102 		addi	sp,sp,32
 146              		.cfi_def_cfa_offset 0
 147 00d8 67800000 		jr	ra
 148              	.LVL9:
 149              	.L12:
 150              		.cfi_restore_state
  50:src/MemoryAllocator.cpp ****         headAllocated = newAllocated;
 151              		.loc 1 50 9 is_stmt 1
  50:src/MemoryAllocator.cpp ****         headAllocated = newAllocated;
 152              		.loc 1 50 23 is_stmt 0
 153 00dc 97070000 		sd	s1,.LANCHOR0+8,a5
 153      23B09700 
 154              	.LVL10:
 155 00e4 6FF01FFE 		j	.L4
 156              		.cfi_endproc
 157              	.LFE3:
 159              		.align	2
 160              		.globl	_ZN15MemoryAllocator21tryToAllocateFragmentEm
 162              	_ZN15MemoryAllocator21tryToAllocateFragmentEm:
 163              	.LFB4:
  54:src/MemoryAllocator.cpp **** 
  55:src/MemoryAllocator.cpp **** void* MemoryAllocator::tryToAllocateFragment(size_t size) {
GAS LISTING /tmp/ccMAmxH9.s 			page 5


 164              		.loc 1 55 59 is_stmt 1
 165              		.cfi_startproc
 166              	.LVL11:
 167 00e8 130101FE 		addi	sp,sp,-32
 168              		.cfi_def_cfa_offset 32
 169 00ec 233C1100 		sd	ra,24(sp)
 170 00f0 23388100 		sd	s0,16(sp)
 171 00f4 23349100 		sd	s1,8(sp)
 172 00f8 23302101 		sd	s2,0(sp)
 173              		.cfi_offset 1, -8
 174              		.cfi_offset 8, -16
 175              		.cfi_offset 9, -24
 176              		.cfi_offset 18, -32
 177 00fc 13040102 		addi	s0,sp,32
 178              		.cfi_def_cfa 8, 0
 179 0100 13090500 		mv	s2,a0
  56:src/MemoryAllocator.cpp ****     initMemory();
 180              		.loc 1 56 5
 181              		.loc 1 56 15 is_stmt 0
 182 0104 97000000 		call	_ZN15MemoryAllocator10initMemoryEv
 182      E7800000 
 183              	.LVL12:
  57:src/MemoryAllocator.cpp ****     uint64 retval = 0;
 184              		.loc 1 57 5 is_stmt 1
  58:src/MemoryAllocator.cpp ****     BlockHeader* prev = 0;
 185              		.loc 1 58 5
  59:src/MemoryAllocator.cpp ****     BlockHeader* curr = headFree;
 186              		.loc 1 59 5
 187              		.loc 1 59 18 is_stmt 0
 188 010c 97040000 		ld	s1,.LANCHOR0+16
 188      83B40400 
 189              	.LVL13:
  60:src/MemoryAllocator.cpp ****     //uint64 newSize = size + sizeof(BlockHeader);
  61:src/MemoryAllocator.cpp ****     uint64 newSize = size;
 190              		.loc 1 61 5 is_stmt 1
  58:src/MemoryAllocator.cpp ****     BlockHeader* curr = headFree;
 191              		.loc 1 58 18 is_stmt 0
 192 0114 13070000 		li	a4,0
 193              	.LVL14:
 194              	.L20:
  62:src/MemoryAllocator.cpp ****     while(curr != 0) {
 195              		.loc 1 62 5 is_stmt 1
 196              		.loc 1 62 16
 197 0118 63880408 		beqz	s1,.L21
 198              	.LBB2:
  63:src/MemoryAllocator.cpp **** 
  64:src/MemoryAllocator.cpp ****         if(curr->size >= newSize) {
 199              		.loc 1 64 9
 200              	.LBB3:
 201              		.loc 1 64 18 is_stmt 0
 202 011c 83B70400 		ld	a5,0(s1)
 203              		.loc 1 64 9
 204 0120 63F82701 		bgeu	a5,s2,.L23
 205              	.LBE3:
  65:src/MemoryAllocator.cpp **** 
  66:src/MemoryAllocator.cpp ****             void* oldAddr = curr;
  67:src/MemoryAllocator.cpp ****             void* newAddr = ((char*)curr + size + sizeof(BlockHeader));
GAS LISTING /tmp/ccMAmxH9.s 			page 6


  68:src/MemoryAllocator.cpp ****             if(newAddr <= HEAP_END_ADDR) {
  69:src/MemoryAllocator.cpp **** 
  70:src/MemoryAllocator.cpp ****                 uint64 size2 = curr->size - size;
  71:src/MemoryAllocator.cpp **** 
  72:src/MemoryAllocator.cpp ****                 if(size2 > sizeof(BlockHeader))
  73:src/MemoryAllocator.cpp ****                 {
  74:src/MemoryAllocator.cpp ****                     BlockHeader *newFree = (BlockHeader *) newAddr;
  75:src/MemoryAllocator.cpp ****                     newFree->next = curr->next;
  76:src/MemoryAllocator.cpp ****                     newFree->size = size2 - sizeof(BlockHeader);
  77:src/MemoryAllocator.cpp ****                     if (prev != 0)
  78:src/MemoryAllocator.cpp ****                         prev->next = newFree;
  79:src/MemoryAllocator.cpp ****                     else
  80:src/MemoryAllocator.cpp ****                         headFree = newFree;
  81:src/MemoryAllocator.cpp ****                 }
  82:src/MemoryAllocator.cpp ****             }
  83:src/MemoryAllocator.cpp ****             else
  84:src/MemoryAllocator.cpp ****             {
  85:src/MemoryAllocator.cpp ****                 if(prev != 0)
  86:src/MemoryAllocator.cpp ****                     prev->next = 0;
  87:src/MemoryAllocator.cpp ****                 else
  88:src/MemoryAllocator.cpp ****                     headFree = 0;
  89:src/MemoryAllocator.cpp ****             }
  90:src/MemoryAllocator.cpp ****             insertNewAllocatedFragment(oldAddr, size);
  91:src/MemoryAllocator.cpp ****             uint64 oldA = (uint64)((char*)oldAddr + sizeof(BlockHeader));
  92:src/MemoryAllocator.cpp ****             retval = oldA;
  93:src/MemoryAllocator.cpp ****             break;
  94:src/MemoryAllocator.cpp ****         }
  95:src/MemoryAllocator.cpp ****         prev = curr;
 206              		.loc 1 95 9 is_stmt 1
 207              	.LVL15:
  96:src/MemoryAllocator.cpp ****         curr = curr->next;
 208              		.loc 1 96 9
  95:src/MemoryAllocator.cpp ****         curr = curr->next;
 209              		.loc 1 95 14 is_stmt 0
 210 0124 13870400 		mv	a4,s1
 211              		.loc 1 96 14
 212 0128 83B48400 		ld	s1,8(s1)
 213              	.LVL16:
 214              	.LBE2:
  62:src/MemoryAllocator.cpp **** 
 215              		.loc 1 62 5
 216 012c 6FF0DFFE 		j	.L20
 217              	.L23:
 218              	.LBB11:
 219              	.LBB10:
 220              	.LBB4:
  66:src/MemoryAllocator.cpp ****             void* newAddr = ((char*)curr + size + sizeof(BlockHeader));
 221              		.loc 1 66 13 is_stmt 1
 222              	.LVL17:
  67:src/MemoryAllocator.cpp ****             if(newAddr <= HEAP_END_ADDR) {
 223              		.loc 1 67 13
  67:src/MemoryAllocator.cpp ****             if(newAddr <= HEAP_END_ADDR) {
 224              		.loc 1 67 49 is_stmt 0
 225 0130 93060901 		addi	a3,s2,16
  67:src/MemoryAllocator.cpp ****             if(newAddr <= HEAP_END_ADDR) {
 226              		.loc 1 67 19
 227 0134 B386D400 		add	a3,s1,a3
GAS LISTING /tmp/ccMAmxH9.s 			page 7


 228              	.LVL18:
  68:src/MemoryAllocator.cpp **** 
 229              		.loc 1 68 13 is_stmt 1
 230              	.LBB5:
  68:src/MemoryAllocator.cpp **** 
 231              		.loc 1 68 24 is_stmt 0
 232 0138 17060000 		la	a2,HEAP_END_ADDR
 232      03360600 
 233 0140 03360600 		ld	a2,0(a2)
  68:src/MemoryAllocator.cpp **** 
 234              		.loc 1 68 13
 235 0144 636CD602 		bltu	a2,a3,.L16
 236              	.LBB6:
  70:src/MemoryAllocator.cpp **** 
 237              		.loc 1 70 17 is_stmt 1
  70:src/MemoryAllocator.cpp **** 
 238              		.loc 1 70 24 is_stmt 0
 239 0148 B3872741 		sub	a5,a5,s2
 240              	.LVL19:
  72:src/MemoryAllocator.cpp ****                 {
 241              		.loc 1 72 17 is_stmt 1
 242              	.LBB7:
 243 014c 13060001 		li	a2,16
 244 0150 637AF602 		bleu	a5,a2,.L17
 245              	.LBB8:
  74:src/MemoryAllocator.cpp ****                     newFree->next = curr->next;
 246              		.loc 1 74 21
 247              	.LVL20:
  75:src/MemoryAllocator.cpp ****                     newFree->size = size2 - sizeof(BlockHeader);
 248              		.loc 1 75 21
  75:src/MemoryAllocator.cpp ****                     newFree->size = size2 - sizeof(BlockHeader);
 249              		.loc 1 75 43 is_stmt 0
 250 0154 03B68400 		ld	a2,8(s1)
  75:src/MemoryAllocator.cpp ****                     newFree->size = size2 - sizeof(BlockHeader);
 251              		.loc 1 75 35
 252 0158 23B4C600 		sd	a2,8(a3)
  76:src/MemoryAllocator.cpp ****                     if (prev != 0)
 253              		.loc 1 76 21 is_stmt 1
  76:src/MemoryAllocator.cpp ****                     if (prev != 0)
 254              		.loc 1 76 43 is_stmt 0
 255 015c 938707FF 		addi	a5,a5,-16
 256              	.LVL21:
  76:src/MemoryAllocator.cpp ****                     if (prev != 0)
 257              		.loc 1 76 35
 258 0160 23B0F600 		sd	a5,0(a3)
  77:src/MemoryAllocator.cpp ****                         prev->next = newFree;
 259              		.loc 1 77 21 is_stmt 1
 260 0164 63060700 		beqz	a4,.L18
  78:src/MemoryAllocator.cpp ****                     else
 261              		.loc 1 78 25
  78:src/MemoryAllocator.cpp ****                     else
 262              		.loc 1 78 36 is_stmt 0
 263 0168 2334D700 		sd	a3,8(a4)
 264 016c 6F008001 		j	.L17
 265              	.L18:
  80:src/MemoryAllocator.cpp ****                 }
 266              		.loc 1 80 25 is_stmt 1
GAS LISTING /tmp/ccMAmxH9.s 			page 8


  80:src/MemoryAllocator.cpp ****                 }
 267              		.loc 1 80 34 is_stmt 0
 268 0170 97070000 		sd	a3,.LANCHOR0+16,a5
 268      23B0D700 
 269              	.LVL22:
 270 0178 6F00C000 		j	.L17
 271              	.LVL23:
 272              	.L16:
 273              	.LBE8:
 274              	.LBE7:
 275              	.LBE6:
  85:src/MemoryAllocator.cpp ****                     prev->next = 0;
 276              		.loc 1 85 17 is_stmt 1
 277 017c 63000702 		beqz	a4,.L19
  86:src/MemoryAllocator.cpp ****                 else
 278              		.loc 1 86 21
  86:src/MemoryAllocator.cpp ****                 else
 279              		.loc 1 86 32 is_stmt 0
 280 0180 23340700 		sd	zero,8(a4)
 281              	.L17:
 282              	.LBE5:
  90:src/MemoryAllocator.cpp ****             uint64 oldA = (uint64)((char*)oldAddr + sizeof(BlockHeader));
 283              		.loc 1 90 13 is_stmt 1
  90:src/MemoryAllocator.cpp ****             uint64 oldA = (uint64)((char*)oldAddr + sizeof(BlockHeader));
 284              		.loc 1 90 39 is_stmt 0
 285 0184 93050900 		mv	a1,s2
 286 0188 13850400 		mv	a0,s1
 287 018c 97000000 		call	_ZN15MemoryAllocator26insertNewAllocatedFragmentEPvm
 287      E7800000 
 288              	.LVL24:
  91:src/MemoryAllocator.cpp ****             retval = oldA;
 289              		.loc 1 91 13 is_stmt 1
  91:src/MemoryAllocator.cpp ****             retval = oldA;
 290              		.loc 1 91 51 is_stmt 0
 291 0194 13850401 		addi	a0,s1,16
 292              	.LVL25:
  92:src/MemoryAllocator.cpp ****             break;
 293              		.loc 1 92 13 is_stmt 1
  93:src/MemoryAllocator.cpp ****         }
 294              		.loc 1 93 13
 295 0198 6F004001 		j	.L14
 296              	.LVL26:
 297              	.L19:
 298              	.LBB9:
  88:src/MemoryAllocator.cpp ****             }
 299              		.loc 1 88 21
  88:src/MemoryAllocator.cpp ****             }
 300              		.loc 1 88 30 is_stmt 0
 301 019c 97070000 		sd	zero,.LANCHOR0+16,a5
 301      23B00700 
 302 01a4 6FF01FFE 		j	.L17
 303              	.LVL27:
 304              	.L21:
 305              	.LBE9:
 306              	.LBE4:
 307              	.LBE10:
 308              	.LBE11:
GAS LISTING /tmp/ccMAmxH9.s 			page 9


  57:src/MemoryAllocator.cpp ****     BlockHeader* prev = 0;
 309              		.loc 1 57 12
 310 01a8 13050000 		li	a0,0
 311              	.LVL28:
 312              	.L14:
  97:src/MemoryAllocator.cpp ****     }
  98:src/MemoryAllocator.cpp **** 
  99:src/MemoryAllocator.cpp ****     if(headFree == 0)
 313              		.loc 1 99 5 is_stmt 1
 100:src/MemoryAllocator.cpp ****     {
 101:src/MemoryAllocator.cpp ****         //...
 102:src/MemoryAllocator.cpp ****         uint64 x = 2;
 103:src/MemoryAllocator.cpp ****         x++;
 104:src/MemoryAllocator.cpp ****     }
 105:src/MemoryAllocator.cpp **** 
 106:src/MemoryAllocator.cpp ****     return (void*)retval;
 314              		.loc 1 106 5
 107:src/MemoryAllocator.cpp **** }
 315              		.loc 1 107 1 is_stmt 0
 316 01ac 83308101 		ld	ra,24(sp)
 317              		.cfi_restore 1
 318 01b0 03340101 		ld	s0,16(sp)
 319              		.cfi_restore 8
 320              		.cfi_def_cfa 2, 32
 321 01b4 83348100 		ld	s1,8(sp)
 322              		.cfi_restore 9
 323              	.LVL29:
 324 01b8 03390100 		ld	s2,0(sp)
 325              		.cfi_restore 18
 326              	.LVL30:
 327 01bc 13010102 		addi	sp,sp,32
 328              		.cfi_def_cfa_offset 0
 329 01c0 67800000 		jr	ra
 330              		.cfi_endproc
 331              	.LFE4:
 333              		.align	2
 334              		.globl	_ZN15MemoryAllocator9mem_allocEm
 336              	_ZN15MemoryAllocator9mem_allocEm:
 337              	.LFB0:
  11:src/MemoryAllocator.cpp ****     return tryToAllocateFragment(size);
 338              		.loc 1 11 47 is_stmt 1
 339              		.cfi_startproc
 340              	.LVL31:
 341 01c4 130101FF 		addi	sp,sp,-16
 342              		.cfi_def_cfa_offset 16
 343 01c8 23341100 		sd	ra,8(sp)
 344 01cc 23308100 		sd	s0,0(sp)
 345              		.cfi_offset 1, -8
 346              		.cfi_offset 8, -16
 347 01d0 13040101 		addi	s0,sp,16
 348              		.cfi_def_cfa 8, 0
  12:src/MemoryAllocator.cpp **** }
 349              		.loc 1 12 5
  12:src/MemoryAllocator.cpp **** }
 350              		.loc 1 12 33 is_stmt 0
 351 01d4 97000000 		call	_ZN15MemoryAllocator21tryToAllocateFragmentEm
 351      E7800000 
GAS LISTING /tmp/ccMAmxH9.s 			page 10


 352              	.LVL32:
  13:src/MemoryAllocator.cpp **** 
 353              		.loc 1 13 1
 354 01dc 83308100 		ld	ra,8(sp)
 355              		.cfi_restore 1
 356 01e0 03340100 		ld	s0,0(sp)
 357              		.cfi_restore 8
 358              		.cfi_def_cfa 2, 16
 359 01e4 13010101 		addi	sp,sp,16
 360              		.cfi_def_cfa_offset 0
 361 01e8 67800000 		jr	ra
 362              		.cfi_endproc
 363              	.LFE0:
 365              		.align	2
 366              		.globl	_ZN15MemoryAllocator20insertNewFreeSegmentEPvm
 368              	_ZN15MemoryAllocator20insertNewFreeSegmentEPvm:
 369              	.LFB5:
 108:src/MemoryAllocator.cpp **** 
 109:src/MemoryAllocator.cpp **** void MemoryAllocator::insertNewFreeSegment(void* addr, size_t size)
 110:src/MemoryAllocator.cpp **** {
 370              		.loc 1 110 1 is_stmt 1
 371              		.cfi_startproc
 372              	.LVL33:
 373 01ec 130101FE 		addi	sp,sp,-32
 374              		.cfi_def_cfa_offset 32
 375 01f0 233C1100 		sd	ra,24(sp)
 376 01f4 23388100 		sd	s0,16(sp)
 377 01f8 23349100 		sd	s1,8(sp)
 378 01fc 23302101 		sd	s2,0(sp)
 379              		.cfi_offset 1, -8
 380              		.cfi_offset 8, -16
 381              		.cfi_offset 9, -24
 382              		.cfi_offset 18, -32
 383 0200 13040102 		addi	s0,sp,32
 384              		.cfi_def_cfa 8, 0
 385 0204 93040500 		mv	s1,a0
 386 0208 13890500 		mv	s2,a1
 111:src/MemoryAllocator.cpp ****     initMemory();
 387              		.loc 1 111 5
 388              		.loc 1 111 15 is_stmt 0
 389 020c 97000000 		call	_ZN15MemoryAllocator10initMemoryEv
 389      E7800000 
 390              	.LVL34:
 112:src/MemoryAllocator.cpp ****     BlockHeader* prev = 0;
 391              		.loc 1 112 5 is_stmt 1
 113:src/MemoryAllocator.cpp ****     BlockHeader* curr = headFree;
 392              		.loc 1 113 5
 393              		.loc 1 113 18 is_stmt 0
 394 0214 97070000 		ld	a5,.LANCHOR0+16
 394      83B70700 
 395              	.LVL35:
 114:src/MemoryAllocator.cpp ****     BlockHeader* newSegment = (BlockHeader*) addr;
 396              		.loc 1 114 5 is_stmt 1
 115:src/MemoryAllocator.cpp ****     newSegment->size = size;
 397              		.loc 1 115 5
 398              		.loc 1 115 22 is_stmt 0
 399 021c 23B02401 		sd	s2,0(s1)
GAS LISTING /tmp/ccMAmxH9.s 			page 11


 116:src/MemoryAllocator.cpp ****     newSegment->next = 0;
 400              		.loc 1 116 5 is_stmt 1
 401              		.loc 1 116 22 is_stmt 0
 402 0220 23B40400 		sd	zero,8(s1)
 112:src/MemoryAllocator.cpp ****     BlockHeader* curr = headFree;
 403              		.loc 1 112 18
 404 0224 13070000 		li	a4,0
 405              	.LVL36:
 406              	.L29:
 117:src/MemoryAllocator.cpp ****     while(curr != 0)
 407              		.loc 1 117 5 is_stmt 1
 408              		.loc 1 117 16
 409 0228 638C0700 		beqz	a5,.L27
 118:src/MemoryAllocator.cpp ****     {
 119:src/MemoryAllocator.cpp ****         if((void*)curr > addr)
 410              		.loc 1 119 9
 411 022c 63E8F400 		bgtu	a5,s1,.L35
 120:src/MemoryAllocator.cpp ****         {
 121:src/MemoryAllocator.cpp ****             newSegment->next = curr;
 122:src/MemoryAllocator.cpp ****             break;
 123:src/MemoryAllocator.cpp ****         }
 124:src/MemoryAllocator.cpp **** 
 125:src/MemoryAllocator.cpp ****         prev = curr;
 412              		.loc 1 125 9
 413              	.LVL37:
 126:src/MemoryAllocator.cpp ****         curr = curr->next;
 414              		.loc 1 126 9
 125:src/MemoryAllocator.cpp ****         curr = curr->next;
 415              		.loc 1 125 14 is_stmt 0
 416 0230 13870700 		mv	a4,a5
 417              		.loc 1 126 14
 418 0234 83B78700 		ld	a5,8(a5)
 419              	.LVL38:
 117:src/MemoryAllocator.cpp ****     {
 420              		.loc 1 117 5
 421 0238 6FF01FFF 		j	.L29
 422              	.L35:
 121:src/MemoryAllocator.cpp ****             break;
 423              		.loc 1 121 13 is_stmt 1
 121:src/MemoryAllocator.cpp ****             break;
 424              		.loc 1 121 30 is_stmt 0
 425 023c 23B4F400 		sd	a5,8(s1)
 122:src/MemoryAllocator.cpp ****         }
 426              		.loc 1 122 13 is_stmt 1
 427              	.L27:
 127:src/MemoryAllocator.cpp ****     }
 128:src/MemoryAllocator.cpp **** 
 129:src/MemoryAllocator.cpp ****     if(prev == 0)
 428              		.loc 1 129 5
 429 0240 63060704 		beqz	a4,.L36
 130:src/MemoryAllocator.cpp ****         headFree = newSegment;
 131:src/MemoryAllocator.cpp ****     else
 132:src/MemoryAllocator.cpp ****         prev->next = newSegment;
 430              		.loc 1 132 9
 431              		.loc 1 132 20 is_stmt 0
 432 0244 23349700 		sd	s1,8(a4)
 433              	.LVL39:
GAS LISTING /tmp/ccMAmxH9.s 			page 12


 434              	.L31:
 133:src/MemoryAllocator.cpp **** 
 134:src/MemoryAllocator.cpp ****     if(newSegment->next != 0 && (char*)newSegment->next == (char*)newSegment + newSegment->size + s
 435              		.loc 1 134 5 is_stmt 1
 436              		.loc 1 134 20 is_stmt 0
 437 0248 83B78400 		ld	a5,8(s1)
 438              		.loc 1 134 5
 439 024c 638A0700 		beqz	a5,.L32
 440              		.loc 1 134 92 discriminator 1
 441 0250 03B60400 		ld	a2,0(s1)
 442              		.loc 1 134 97 discriminator 1
 443 0254 93060601 		addi	a3,a2,16
 444 0258 B386D400 		add	a3,s1,a3
 445              		.loc 1 134 30 discriminator 1
 446 025c 638ED702 		beq	a5,a3,.L37
 447              	.L32:
 135:src/MemoryAllocator.cpp ****     {
 136:src/MemoryAllocator.cpp ****         newSegment->size += newSegment->next->size + sizeof(BlockHeader);
 137:src/MemoryAllocator.cpp ****         newSegment->next = newSegment->next->next;
 138:src/MemoryAllocator.cpp ****     }
 139:src/MemoryAllocator.cpp **** 
 140:src/MemoryAllocator.cpp ****     if(prev != 0 && (char*)newSegment == (char*)prev + prev->size + sizeof(BlockHeader))
 448              		.loc 1 140 5 is_stmt 1
 449 0260 630A0700 		beqz	a4,.L26
 450              		.loc 1 140 62 is_stmt 0 discriminator 1
 451 0264 83360700 		ld	a3,0(a4)
 452              		.loc 1 140 67 discriminator 1
 453 0268 93870601 		addi	a5,a3,16
 454 026c B307F700 		add	a5,a4,a5
 455              		.loc 1 140 18 discriminator 1
 456 0270 63829704 		beq	a5,s1,.L38
 457              	.L26:
 141:src/MemoryAllocator.cpp ****     {
 142:src/MemoryAllocator.cpp ****         prev->size+=newSegment->size + sizeof(BlockHeader);
 143:src/MemoryAllocator.cpp ****         prev->next = newSegment->next;
 144:src/MemoryAllocator.cpp ****     }
 145:src/MemoryAllocator.cpp **** 
 146:src/MemoryAllocator.cpp **** }
 458              		.loc 1 146 1
 459 0274 83308101 		ld	ra,24(sp)
 460              		.cfi_remember_state
 461              		.cfi_restore 1
 462 0278 03340101 		ld	s0,16(sp)
 463              		.cfi_restore 8
 464              		.cfi_def_cfa 2, 32
 465 027c 83348100 		ld	s1,8(sp)
 466              		.cfi_restore 9
 467              	.LVL40:
 468 0280 03390100 		ld	s2,0(sp)
 469              		.cfi_restore 18
 470              	.LVL41:
 471 0284 13010102 		addi	sp,sp,32
 472              		.cfi_def_cfa_offset 0
 473 0288 67800000 		jr	ra
 474              	.LVL42:
 475              	.L36:
 476              		.cfi_restore_state
GAS LISTING /tmp/ccMAmxH9.s 			page 13


 130:src/MemoryAllocator.cpp ****     else
 477              		.loc 1 130 9 is_stmt 1
 130:src/MemoryAllocator.cpp ****     else
 478              		.loc 1 130 18 is_stmt 0
 479 028c 97070000 		sd	s1,.LANCHOR0+16,a5
 479      23B09700 
 480              	.LVL43:
 481 0294 6FF05FFB 		j	.L31
 482              	.L37:
 136:src/MemoryAllocator.cpp ****         newSegment->next = newSegment->next->next;
 483              		.loc 1 136 9 is_stmt 1
 136:src/MemoryAllocator.cpp ****         newSegment->next = newSegment->next->next;
 484              		.loc 1 136 47 is_stmt 0
 485 0298 83B60700 		ld	a3,0(a5)
 136:src/MemoryAllocator.cpp ****         newSegment->next = newSegment->next->next;
 486              		.loc 1 136 26
 487 029c 3306D600 		add	a2,a2,a3
 488 02a0 13060601 		addi	a2,a2,16
 489 02a4 23B0C400 		sd	a2,0(s1)
 137:src/MemoryAllocator.cpp ****     }
 490              		.loc 1 137 9 is_stmt 1
 137:src/MemoryAllocator.cpp ****     }
 491              		.loc 1 137 46 is_stmt 0
 492 02a8 83B78700 		ld	a5,8(a5)
 137:src/MemoryAllocator.cpp ****     }
 493              		.loc 1 137 26
 494 02ac 23B4F400 		sd	a5,8(s1)
 495 02b0 6FF01FFB 		j	.L32
 496              	.L38:
 142:src/MemoryAllocator.cpp ****         prev->next = newSegment->next;
 497              		.loc 1 142 9 is_stmt 1
 142:src/MemoryAllocator.cpp ****         prev->next = newSegment->next;
 498              		.loc 1 142 33 is_stmt 0
 499 02b4 83B70400 		ld	a5,0(s1)
 142:src/MemoryAllocator.cpp ****         prev->next = newSegment->next;
 500              		.loc 1 142 19
 501 02b8 B386F600 		add	a3,a3,a5
 502 02bc 93860601 		addi	a3,a3,16
 503 02c0 2330D700 		sd	a3,0(a4)
 143:src/MemoryAllocator.cpp ****     }
 504              		.loc 1 143 9 is_stmt 1
 143:src/MemoryAllocator.cpp ****     }
 505              		.loc 1 143 34 is_stmt 0
 506 02c4 83B78400 		ld	a5,8(s1)
 143:src/MemoryAllocator.cpp ****     }
 507              		.loc 1 143 20
 508 02c8 2334F700 		sd	a5,8(a4)
 509              		.loc 1 146 1
 510 02cc 6FF09FFA 		j	.L26
 511              		.cfi_endproc
 512              	.LFE5:
 514              		.align	2
 515              		.globl	_ZN15MemoryAllocator16tryToFreeSegmentEPv
 517              	_ZN15MemoryAllocator16tryToFreeSegmentEPv:
 518              	.LFB6:
 147:src/MemoryAllocator.cpp **** 
 148:src/MemoryAllocator.cpp **** uint64 MemoryAllocator::tryToFreeSegment(void* addr)
GAS LISTING /tmp/ccMAmxH9.s 			page 14


 149:src/MemoryAllocator.cpp **** {
 519              		.loc 1 149 1 is_stmt 1
 520              		.cfi_startproc
 521              	.LVL44:
 522 02d0 130101FE 		addi	sp,sp,-32
 523              		.cfi_def_cfa_offset 32
 524 02d4 233C1100 		sd	ra,24(sp)
 525 02d8 23388100 		sd	s0,16(sp)
 526 02dc 23349100 		sd	s1,8(sp)
 527              		.cfi_offset 1, -8
 528              		.cfi_offset 8, -16
 529              		.cfi_offset 9, -24
 530 02e0 13040102 		addi	s0,sp,32
 531              		.cfi_def_cfa 8, 0
 532 02e4 93040500 		mv	s1,a0
 150:src/MemoryAllocator.cpp ****     initMemory();
 533              		.loc 1 150 5
 534              		.loc 1 150 15 is_stmt 0
 535 02e8 97000000 		call	_ZN15MemoryAllocator10initMemoryEv
 535      E7800000 
 536              	.LVL45:
 151:src/MemoryAllocator.cpp ****     BlockHeader* prev = 0;
 537              		.loc 1 151 5 is_stmt 1
 152:src/MemoryAllocator.cpp ****     BlockHeader* curr = headAllocated;
 538              		.loc 1 152 5
 539              		.loc 1 152 18 is_stmt 0
 540 02f0 17050000 		ld	a0,.LANCHOR0+8
 540      03350500 
 541              	.LVL46:
 153:src/MemoryAllocator.cpp ****     int found = 0;
 542              		.loc 1 153 5 is_stmt 1
 151:src/MemoryAllocator.cpp ****     BlockHeader* prev = 0;
 543              		.loc 1 151 18 is_stmt 0
 544 02f8 13070000 		li	a4,0
 545              	.LVL47:
 546              	.L44:
 154:src/MemoryAllocator.cpp ****     while(curr != 0)
 547              		.loc 1 154 5 is_stmt 1
 548              		.loc 1 154 16
 549 02fc 63040504 		beqz	a0,.L45
 155:src/MemoryAllocator.cpp ****     {
 156:src/MemoryAllocator.cpp ****         if(addr == (void*)((char*)curr + sizeof(BlockHeader)))
 550              		.loc 1 156 9
 551              		.loc 1 156 20 is_stmt 0
 552 0300 93070501 		addi	a5,a0,16
 553              		.loc 1 156 9
 554 0304 63889700 		beq	a5,s1,.L47
 157:src/MemoryAllocator.cpp ****         {
 158:src/MemoryAllocator.cpp ****             if(prev != 0)
 159:src/MemoryAllocator.cpp ****                 prev->next = curr->next;
 160:src/MemoryAllocator.cpp ****             else
 161:src/MemoryAllocator.cpp ****                 headAllocated = curr->next;
 162:src/MemoryAllocator.cpp **** 
 163:src/MemoryAllocator.cpp ****             insertNewFreeSegment((void*)curr, curr->size);
 164:src/MemoryAllocator.cpp **** 
 165:src/MemoryAllocator.cpp ****             found = 1;
 166:src/MemoryAllocator.cpp ****             break;
GAS LISTING /tmp/ccMAmxH9.s 			page 15


 167:src/MemoryAllocator.cpp ****         }
 168:src/MemoryAllocator.cpp **** 
 169:src/MemoryAllocator.cpp ****         prev = curr;
 555              		.loc 1 169 9 is_stmt 1
 556              	.LVL48:
 170:src/MemoryAllocator.cpp ****         curr = curr->next;
 557              		.loc 1 170 9
 169:src/MemoryAllocator.cpp ****         curr = curr->next;
 558              		.loc 1 169 14 is_stmt 0
 559 0308 13070500 		mv	a4,a0
 560              		.loc 1 170 14
 561 030c 03358500 		ld	a0,8(a0)
 562              	.LVL49:
 154:src/MemoryAllocator.cpp ****     {
 563              		.loc 1 154 5
 564 0310 6FF0DFFE 		j	.L44
 565              	.L47:
 158:src/MemoryAllocator.cpp ****                 prev->next = curr->next;
 566              		.loc 1 158 13 is_stmt 1
 567 0314 63000702 		beqz	a4,.L42
 159:src/MemoryAllocator.cpp ****             else
 568              		.loc 1 159 17
 159:src/MemoryAllocator.cpp ****             else
 569              		.loc 1 159 36 is_stmt 0
 570 0318 83378500 		ld	a5,8(a0)
 159:src/MemoryAllocator.cpp ****             else
 571              		.loc 1 159 28
 572 031c 2334F700 		sd	a5,8(a4)
 573              	.LVL50:
 574              	.L43:
 163:src/MemoryAllocator.cpp **** 
 575              		.loc 1 163 13 is_stmt 1
 163:src/MemoryAllocator.cpp **** 
 576              		.loc 1 163 33 is_stmt 0
 577 0320 83350500 		ld	a1,0(a0)
 578 0324 97000000 		call	_ZN15MemoryAllocator20insertNewFreeSegmentEPvm
 578      E7800000 
 579              	.LVL51:
 165:src/MemoryAllocator.cpp ****             break;
 580              		.loc 1 165 13 is_stmt 1
 166:src/MemoryAllocator.cpp ****         }
 581              		.loc 1 166 13
 171:src/MemoryAllocator.cpp ****     }
 172:src/MemoryAllocator.cpp **** 
 173:src/MemoryAllocator.cpp ****     if(found)
 582              		.loc 1 173 5
 174:src/MemoryAllocator.cpp ****         return 0;
 583              		.loc 1 174 9
 584              		.loc 1 174 16 is_stmt 0
 585 032c 13050000 		li	a0,0
 586 0330 6F008001 		j	.L39
 587              	.LVL52:
 588              	.L42:
 161:src/MemoryAllocator.cpp **** 
 589              		.loc 1 161 17 is_stmt 1
 161:src/MemoryAllocator.cpp **** 
 590              		.loc 1 161 39 is_stmt 0
GAS LISTING /tmp/ccMAmxH9.s 			page 16


 591 0334 83378500 		ld	a5,8(a0)
 161:src/MemoryAllocator.cpp **** 
 592              		.loc 1 161 31
 593 0338 17070000 		sd	a5,.LANCHOR0+8,a4
 593      2330F700 
 594              	.LVL53:
 595 0340 6FF01FFE 		j	.L43
 596              	.LVL54:
 597              	.L45:
 175:src/MemoryAllocator.cpp ****     else
 176:src/MemoryAllocator.cpp ****         return 1;
 598              		.loc 1 176 16
 599 0344 13051000 		li	a0,1
 600              	.LVL55:
 601              	.L39:
 177:src/MemoryAllocator.cpp **** }
 602              		.loc 1 177 1
 603 0348 83308101 		ld	ra,24(sp)
 604              		.cfi_restore 1
 605 034c 03340101 		ld	s0,16(sp)
 606              		.cfi_restore 8
 607              		.cfi_def_cfa 2, 32
 608 0350 83348100 		ld	s1,8(sp)
 609              		.cfi_restore 9
 610              	.LVL56:
 611 0354 13010102 		addi	sp,sp,32
 612              		.cfi_def_cfa_offset 0
 613 0358 67800000 		jr	ra
 614              		.cfi_endproc
 615              	.LFE6:
 617              		.align	2
 618              		.globl	_ZN15MemoryAllocator8mem_freeEPv
 620              	_ZN15MemoryAllocator8mem_freeEPv:
 621              	.LFB1:
  15:src/MemoryAllocator.cpp ****     return tryToFreeSegment(addr);
 622              		.loc 1 15 47 is_stmt 1
 623              		.cfi_startproc
 624              	.LVL57:
 625 035c 130101FF 		addi	sp,sp,-16
 626              		.cfi_def_cfa_offset 16
 627 0360 23341100 		sd	ra,8(sp)
 628 0364 23308100 		sd	s0,0(sp)
 629              		.cfi_offset 1, -8
 630              		.cfi_offset 8, -16
 631 0368 13040101 		addi	s0,sp,16
 632              		.cfi_def_cfa 8, 0
  16:src/MemoryAllocator.cpp **** }
 633              		.loc 1 16 5
  16:src/MemoryAllocator.cpp **** }
 634              		.loc 1 16 28 is_stmt 0
 635 036c 97000000 		call	_ZN15MemoryAllocator16tryToFreeSegmentEPv
 635      E7800000 
 636              	.LVL58:
  17:src/MemoryAllocator.cpp **** 
 637              		.loc 1 17 1
 638 0374 83308100 		ld	ra,8(sp)
 639              		.cfi_restore 1
GAS LISTING /tmp/ccMAmxH9.s 			page 17


 640 0378 03340100 		ld	s0,0(sp)
 641              		.cfi_restore 8
 642              		.cfi_def_cfa 2, 16
 643 037c 13010101 		addi	sp,sp,16
 644              		.cfi_def_cfa_offset 0
 645 0380 67800000 		jr	ra
 646              		.cfi_endproc
 647              	.LFE1:
 649              		.align	2
 650              		.globl	_Z7kmallocm
 652              	_Z7kmallocm:
 653              	.LFB7:
 178:src/MemoryAllocator.cpp **** 
 179:src/MemoryAllocator.cpp **** void* kmalloc(size_t size)
 180:src/MemoryAllocator.cpp **** {
 654              		.loc 1 180 1 is_stmt 1
 655              		.cfi_startproc
 656              	.LVL59:
 657 0384 130101FF 		addi	sp,sp,-16
 658              		.cfi_def_cfa_offset 16
 659 0388 23341100 		sd	ra,8(sp)
 660 038c 23308100 		sd	s0,0(sp)
 661              		.cfi_offset 1, -8
 662              		.cfi_offset 8, -16
 663 0390 13040101 		addi	s0,sp,16
 664              		.cfi_def_cfa 8, 0
 181:src/MemoryAllocator.cpp ****     return MemoryAllocator::mem_alloc(size);
 665              		.loc 1 181 5
 666              		.loc 1 181 38 is_stmt 0
 667 0394 97000000 		call	_ZN15MemoryAllocator9mem_allocEm
 667      E7800000 
 668              	.LVL60:
 182:src/MemoryAllocator.cpp **** }
 669              		.loc 1 182 1
 670 039c 83308100 		ld	ra,8(sp)
 671              		.cfi_restore 1
 672 03a0 03340100 		ld	s0,0(sp)
 673              		.cfi_restore 8
 674              		.cfi_def_cfa 2, 16
 675 03a4 13010101 		addi	sp,sp,16
 676              		.cfi_def_cfa_offset 0
 677 03a8 67800000 		jr	ra
 678              		.cfi_endproc
 679              	.LFE7:
 681              		.align	2
 682              		.globl	_Z5kfreePv
 684              	_Z5kfreePv:
 685              	.LFB8:
 183:src/MemoryAllocator.cpp **** 
 184:src/MemoryAllocator.cpp **** uint64 kfree(void* p)
 185:src/MemoryAllocator.cpp **** {
 686              		.loc 1 185 1 is_stmt 1
 687              		.cfi_startproc
 688              	.LVL61:
 689 03ac 130101FF 		addi	sp,sp,-16
 690              		.cfi_def_cfa_offset 16
 691 03b0 23341100 		sd	ra,8(sp)
GAS LISTING /tmp/ccMAmxH9.s 			page 18


 692 03b4 23308100 		sd	s0,0(sp)
 693              		.cfi_offset 1, -8
 694              		.cfi_offset 8, -16
 695 03b8 13040101 		addi	s0,sp,16
 696              		.cfi_def_cfa 8, 0
 186:src/MemoryAllocator.cpp ****     return MemoryAllocator::mem_free(p);
 697              		.loc 1 186 5
 698              		.loc 1 186 37 is_stmt 0
 699 03bc 97000000 		call	_ZN15MemoryAllocator8mem_freeEPv
 699      E7800000 
 700              	.LVL62:
 187:src/MemoryAllocator.cpp **** }...
 701              		.loc 1 187 1
 702 03c4 83308100 		ld	ra,8(sp)
 703              		.cfi_restore 1
 704 03c8 03340100 		ld	s0,0(sp)
 705              		.cfi_restore 8
 706              		.cfi_def_cfa 2, 16
 707 03cc 13010101 		addi	sp,sp,16
 708              		.cfi_def_cfa_offset 0
 709 03d0 67800000 		jr	ra
 710              		.cfi_endproc
 711              	.LFE8:
 713              		.globl	_ZN15MemoryAllocator18memoryInitiliaizedE
 714              		.globl	_ZN15MemoryAllocator8headFreeE
 715              		.globl	_ZN15MemoryAllocator13headAllocatedE
 716              		.bss
 717              		.align	3
 718              		.set	.LANCHOR0,. + 0
 721              	_ZN15MemoryAllocator18memoryInitiliaizedE:
 722 0000 00000000 		.zero	4
 723 0004 00000000 		.zero	4
 726              	_ZN15MemoryAllocator13headAllocatedE:
 727 0008 00000000 		.zero	8
 727      00000000 
 730              	_ZN15MemoryAllocator8headFreeE:
 731 0010 00000000 		.zero	8
 731      00000000 
 732              		.text
 733              	.Letext0:
 734              		.file 2 "src/../h/../lib/hw.h"
 735              		.file 3 "src/../h/MemoryAllocator.h"
GAS LISTING /tmp/ccMAmxH9.s 			page 19

