GAS LISTING /tmp/ccByqQSI.s 			page 1


   1              		.file	"memoryHandler.c"
   2              		.option nopic
   3              		.option norelax
   4              		.text
   5              	.Ltext0:
   6              		.cfi_sections	.debug_frame
   7              		.align	2
   8              		.globl	initMemory
  10              	initMemory:
  11              	.LFB0:
  12              		.file 1 "src/memoryHandler.c"
   1:src/memoryHandler.c **** //
   2:src/memoryHandler.c **** // Created by os on 4/13/22.
   3:src/memoryHandler.c **** //
   4:src/memoryHandler.c **** 
   5:src/memoryHandler.c **** #include "../h/memoryHandler.h"
   6:src/memoryHandler.c **** 
   7:src/memoryHandler.c **** AllocatedFragment* headAllocated = 0;
   8:src/memoryHandler.c **** FreeFragment* headFree = 0;
   9:src/memoryHandler.c **** int memoryInitiliaized = 0;
  10:src/memoryHandler.c **** int MEM_ALLOC = 1;
  11:src/memoryHandler.c **** int MEM_FREE = 2;
  12:src/memoryHandler.c **** 
  13:src/memoryHandler.c **** void initMemory()
  14:src/memoryHandler.c **** {
  13              		.loc 1 14 1
  14              		.cfi_startproc
  15 0000 130101FF 		addi	sp,sp,-16
  16              		.cfi_def_cfa_offset 16
  17 0004 23348100 		sd	s0,8(sp)
  18              		.cfi_offset 8, -8
  19 0008 13040101 		addi	s0,sp,16
  20              		.cfi_def_cfa 8, 0
  15:src/memoryHandler.c ****     if(!memoryInitiliaized)
  21              		.loc 1 15 5
  22              		.loc 1 15 8 is_stmt 0
  23 000c 97070000 		lw	a5,memoryInitiliaized
  23      83A70700 
  24              		.loc 1 15 7
  25 0014 63800704 		beqz	a5,.L1
  16:src/memoryHandler.c ****         return;
  17:src/memoryHandler.c ****     memoryInitiliaized = 1;
  26              		.loc 1 17 5 is_stmt 1
  27              		.loc 1 17 24 is_stmt 0
  28 0018 93071000 		li	a5,1
  29 001c 17070000 		sw	a5,memoryInitiliaized,a4
  29      2320F700 
  18:src/memoryHandler.c ****     headAllocated = 0;
  30              		.loc 1 18 5 is_stmt 1
  31              		.loc 1 18 19 is_stmt 0
  32 0024 97070000 		sd	zero,headAllocated,a5
  32      23B00700 
  19:src/memoryHandler.c ****     headFree = (struct FreeFragment*)HEAP_START_ADDR;
  33              		.loc 1 19 5 is_stmt 1
  34              		.loc 1 19 14 is_stmt 0
  35 002c 17070000 		ld	a4,HEAP_START_ADDR
  35      03370700 
GAS LISTING /tmp/ccByqQSI.s 			page 2


  36 0034 97070000 		sd	a4,headFree,a5
  36      23B0E700 
  20:src/memoryHandler.c ****     headFree->next = 0;
  37              		.loc 1 20 5 is_stmt 1
  38              		.loc 1 20 20 is_stmt 0
  39 003c 23340700 		sd	zero,8(a4)
  21:src/memoryHandler.c ****     headFree->size = (size_t)((size_t)HEAP_END_ADDR - (size_t)HEAP_START_ADDR + 1);
  40              		.loc 1 21 5 is_stmt 1
  41              		.loc 1 21 31 is_stmt 0
  42 0040 97070000 		ld	a5,HEAP_END_ADDR
  42      83B70700 
  43              		.loc 1 21 53
  44 0048 B387E740 		sub	a5,a5,a4
  45              		.loc 1 21 22
  46 004c 93871700 		addi	a5,a5,1
  47              		.loc 1 21 20
  48 0050 2330F700 		sd	a5,0(a4)
  49              	.L1:
  22:src/memoryHandler.c **** }
  50              		.loc 1 22 1
  51 0054 03348100 		ld	s0,8(sp)
  52              		.cfi_restore 8
  53              		.cfi_def_cfa 2, 16
  54 0058 13010101 		addi	sp,sp,16
  55              		.cfi_def_cfa_offset 0
  56 005c 67800000 		jr	ra
  57              		.cfi_endproc
  58              	.LFE0:
  60              		.align	2
  61              		.globl	insertNewAllocatedFragment
  63              	insertNewAllocatedFragment:
  64              	.LFB1:
  23:src/memoryHandler.c **** 
  24:src/memoryHandler.c **** void insertNewAllocatedFragment(void* addr, size_t size) {
  65              		.loc 1 24 58 is_stmt 1
  66              		.cfi_startproc
  67              	.LVL0:
  68 0060 130101FE 		addi	sp,sp,-32
  69              		.cfi_def_cfa_offset 32
  70 0064 233C1100 		sd	ra,24(sp)
  71 0068 23388100 		sd	s0,16(sp)
  72 006c 23349100 		sd	s1,8(sp)
  73 0070 23302101 		sd	s2,0(sp)
  74              		.cfi_offset 1, -8
  75              		.cfi_offset 8, -16
  76              		.cfi_offset 9, -24
  77              		.cfi_offset 18, -32
  78 0074 13040102 		addi	s0,sp,32
  79              		.cfi_def_cfa 8, 0
  80 0078 93040500 		mv	s1,a0
  81 007c 13890500 		mv	s2,a1
  25:src/memoryHandler.c **** 
  26:src/memoryHandler.c ****     initMemory();
  82              		.loc 1 26 5
  83 0080 97000000 		call	initMemory
  83      E7800000 
  84              	.LVL1:
GAS LISTING /tmp/ccByqQSI.s 			page 3


  27:src/memoryHandler.c ****     AllocatedFragment* prev = 0;
  85              		.loc 1 27 5
  28:src/memoryHandler.c ****     AllocatedFragment* after =  headAllocated;
  86              		.loc 1 28 5
  87              		.loc 1 28 24 is_stmt 0
  88 0088 97070000 		ld	a5,headAllocated
  88      83B70700 
  89              	.LVL2:
  29:src/memoryHandler.c ****     while(after != 0) {
  90              		.loc 1 29 5 is_stmt 1
  27:src/memoryHandler.c ****     AllocatedFragment* prev = 0;
  91              		.loc 1 27 24 is_stmt 0
  92 0090 13070000 		li	a4,0
  93              	.LVL3:
  94              	.L5:
  95              		.loc 1 29 10 is_stmt 1
  96 0094 638A0700 		beqz	a5,.L6
  30:src/memoryHandler.c ****         if((void*)after > addr)
  97              		.loc 1 30 9
  98              		.loc 1 30 11 is_stmt 0
  99 0098 63E8F400 		bgtu	a5,s1,.L6
  31:src/memoryHandler.c ****             break;
  32:src/memoryHandler.c **** 
  33:src/memoryHandler.c ****         prev = after;
 100              		.loc 1 33 9 is_stmt 1
 101              	.LVL4:
  34:src/memoryHandler.c ****         after = after->next;
 102              		.loc 1 34 9
  33:src/memoryHandler.c ****         after = after->next;
 103              		.loc 1 33 14 is_stmt 0
 104 009c 13870700 		mv	a4,a5
 105              		.loc 1 34 15
 106 00a0 83B78700 		ld	a5,8(a5)
 107              	.LVL5:
 108 00a4 6FF01FFF 		j	.L5
 109              	.L6:
  35:src/memoryHandler.c ****     }
  36:src/memoryHandler.c **** 
  37:src/memoryHandler.c ****     AllocatedFragment* newAllocated = (AllocatedFragment*)addr;
 110              		.loc 1 37 5 is_stmt 1
 111              	.LVL6:
  38:src/memoryHandler.c ****     newAllocated->next = 0;
 112              		.loc 1 38 5
 113              		.loc 1 38 24 is_stmt 0
 114 00a8 23B40400 		sd	zero,8(s1)
  39:src/memoryHandler.c ****     newAllocated->size = size;
 115              		.loc 1 39 5 is_stmt 1
 116              		.loc 1 39 24 is_stmt 0
 117 00ac 23B02401 		sd	s2,0(s1)
  40:src/memoryHandler.c ****     if(after == 0) {
 118              		.loc 1 40 5 is_stmt 1
 119              		.loc 1 40 7 is_stmt 0
 120 00b0 63840702 		beqz	a5,.L13
  41:src/memoryHandler.c ****         if(prev == 0)
  42:src/memoryHandler.c ****             headAllocated = newAllocated;
  43:src/memoryHandler.c ****         else
  44:src/memoryHandler.c ****             prev->next = newAllocated;
GAS LISTING /tmp/ccByqQSI.s 			page 4


  45:src/memoryHandler.c ****     }
  46:src/memoryHandler.c ****     else {
  47:src/memoryHandler.c ****         if(prev == 0) {
 121              		.loc 1 47 9 is_stmt 1
 122              		.loc 1 47 11 is_stmt 0
 123 00b4 630E0702 		beqz	a4,.L14
  48:src/memoryHandler.c ****             newAllocated->next = headAllocated;
  49:src/memoryHandler.c ****             headAllocated = newAllocated;
  50:src/memoryHandler.c ****         }
  51:src/memoryHandler.c ****         else {
  52:src/memoryHandler.c ****             newAllocated->next = after;
 124              		.loc 1 52 13 is_stmt 1
 125              		.loc 1 52 32 is_stmt 0
 126 00b8 23B4F400 		sd	a5,8(s1)
  53:src/memoryHandler.c ****             prev->next = newAllocated;
 127              		.loc 1 53 13 is_stmt 1
 128              		.loc 1 53 24 is_stmt 0
 129 00bc 23349700 		sd	s1,8(a4)
 130              	.LVL7:
 131              	.L4:
  54:src/memoryHandler.c ****         }
  55:src/memoryHandler.c ****     }
  56:src/memoryHandler.c **** }
 132              		.loc 1 56 1
 133 00c0 83308101 		ld	ra,24(sp)
 134              		.cfi_remember_state
 135              		.cfi_restore 1
 136 00c4 03340101 		ld	s0,16(sp)
 137              		.cfi_restore 8
 138              		.cfi_def_cfa 2, 32
 139 00c8 83348100 		ld	s1,8(sp)
 140              		.cfi_restore 9
 141              	.LVL8:
 142 00cc 03390100 		ld	s2,0(sp)
 143              		.cfi_restore 18
 144              	.LVL9:
 145 00d0 13010102 		addi	sp,sp,32
 146              		.cfi_def_cfa_offset 0
 147 00d4 67800000 		jr	ra
 148              	.LVL10:
 149              	.L13:
 150              		.cfi_restore_state
  41:src/memoryHandler.c ****             headAllocated = newAllocated;
 151              		.loc 1 41 9 is_stmt 1
  41:src/memoryHandler.c ****             headAllocated = newAllocated;
 152              		.loc 1 41 11 is_stmt 0
 153 00d8 63060700 		beqz	a4,.L15
  44:src/memoryHandler.c ****     }
 154              		.loc 1 44 13 is_stmt 1
  44:src/memoryHandler.c ****     }
 155              		.loc 1 44 24 is_stmt 0
 156 00dc 23349700 		sd	s1,8(a4)
 157 00e0 6FF01FFE 		j	.L4
 158              	.L15:
  42:src/memoryHandler.c ****         else
 159              		.loc 1 42 13 is_stmt 1
  42:src/memoryHandler.c ****         else
GAS LISTING /tmp/ccByqQSI.s 			page 5


 160              		.loc 1 42 27 is_stmt 0
 161 00e4 97070000 		sd	s1,headAllocated,a5
 161      23B09700 
 162              	.LVL11:
 163 00ec 6FF05FFD 		j	.L4
 164              	.LVL12:
 165              	.L14:
  48:src/memoryHandler.c ****             headAllocated = newAllocated;
 166              		.loc 1 48 13 is_stmt 1
  48:src/memoryHandler.c ****             headAllocated = newAllocated;
 167              		.loc 1 48 32 is_stmt 0
 168 00f0 97070000 		lla	a5,headAllocated
 168      93870700 
 169              	.LVL13:
 170 00f8 03B70700 		ld	a4,0(a5)
 171              	.LVL14:
 172 00fc 23B4E400 		sd	a4,8(s1)
  49:src/memoryHandler.c ****         }
 173              		.loc 1 49 13 is_stmt 1
  49:src/memoryHandler.c ****         }
 174              		.loc 1 49 27 is_stmt 0
 175 0100 23B09700 		sd	s1,0(a5)
 176 0104 6FF0DFFB 		j	.L4
 177              		.cfi_endproc
 178              	.LFE1:
 180              		.align	2
 181              		.globl	tryToAllocateFragment
 183              	tryToAllocateFragment:
 184              	.LFB2:
  57:src/memoryHandler.c **** 
  58:src/memoryHandler.c **** void tryToAllocateFragment(size_t size) {
 185              		.loc 1 58 41 is_stmt 1
 186              		.cfi_startproc
 187              	.LVL15:
 188 0108 130101FE 		addi	sp,sp,-32
 189              		.cfi_def_cfa_offset 32
 190 010c 233C1100 		sd	ra,24(sp)
 191 0110 23388100 		sd	s0,16(sp)
 192 0114 23349100 		sd	s1,8(sp)
 193 0118 23302101 		sd	s2,0(sp)
 194              		.cfi_offset 1, -8
 195              		.cfi_offset 8, -16
 196              		.cfi_offset 9, -24
 197              		.cfi_offset 18, -32
 198 011c 13040102 		addi	s0,sp,32
 199              		.cfi_def_cfa 8, 0
 200 0120 13090500 		mv	s2,a0
  59:src/memoryHandler.c ****     initMemory();
 201              		.loc 1 59 5
 202 0124 97000000 		call	initMemory
 202      E7800000 
 203              	.LVL16:
  60:src/memoryHandler.c ****     FreeFragment* prev = 0;
 204              		.loc 1 60 5
  61:src/memoryHandler.c ****     FreeFragment* curr = headFree;
 205              		.loc 1 61 5
 206              		.loc 1 61 19 is_stmt 0
GAS LISTING /tmp/ccByqQSI.s 			page 6


 207 012c 97040000 		ld	s1,headFree
 207      83B40400 
 208              	.LVL17:
  62:src/memoryHandler.c ****     uint64 newSize = size + sizeof(AllocatedFragment);
 209              		.loc 1 62 5 is_stmt 1
 210              		.loc 1 62 12 is_stmt 0
 211 0134 93060901 		addi	a3,s2,16
 212              	.LVL18:
  63:src/memoryHandler.c ****     while(curr != 0) {
 213              		.loc 1 63 5 is_stmt 1
  60:src/memoryHandler.c ****     FreeFragment* curr = headFree;
 214              		.loc 1 60 19 is_stmt 0
 215 0138 13070000 		li	a4,0
 216              		.loc 1 63 10
 217 013c 6F004007 		j	.L17
 218              	.LVL19:
 219              	.L29:
 220              	.LBB2:
 221              	.LBB3:
  64:src/memoryHandler.c **** 
  65:src/memoryHandler.c ****         if(curr->size >= newSize) {
  66:src/memoryHandler.c **** 
  67:src/memoryHandler.c ****             void* oldAddr = curr;
  68:src/memoryHandler.c ****             void* newAddr = ((char*)curr + newSize);
  69:src/memoryHandler.c ****             if(newAddr <= HEAP_END_ADDR) {
  70:src/memoryHandler.c **** 
  71:src/memoryHandler.c ****                 FreeFragment *newFree = (FreeFragment *) newAddr;
 222              		.loc 1 71 17 is_stmt 1
  72:src/memoryHandler.c **** 
  73:src/memoryHandler.c ****                 if (prev != 0)
 223              		.loc 1 73 17
 224              		.loc 1 73 20 is_stmt 0
 225 0140 63040704 		beqz	a4,.L20
  74:src/memoryHandler.c ****                     prev->next = newFree;
 226              		.loc 1 74 21 is_stmt 1
 227              		.loc 1 74 32 is_stmt 0
 228 0144 2334F700 		sd	a5,8(a4)
 229              	.L21:
  75:src/memoryHandler.c ****                 else
  76:src/memoryHandler.c ****                     headFree = newFree;
  77:src/memoryHandler.c **** 
  78:src/memoryHandler.c ****                 newFree->next = curr->next;
 230              		.loc 1 78 17 is_stmt 1
 231              		.loc 1 78 37 is_stmt 0
 232 0148 03B68400 		ld	a2,8(s1)
 233              		.loc 1 78 31
 234 014c 23B4C700 		sd	a2,8(a5)
  79:src/memoryHandler.c ****                 newFree->size = curr->size - newSize;
 235              		.loc 1 79 17 is_stmt 1
 236              		.loc 1 79 37 is_stmt 0
 237 0150 03B60400 		ld	a2,0(s1)
 238              		.loc 1 79 44
 239 0154 B306D640 		sub	a3,a2,a3
 240              	.LVL20:
 241              		.loc 1 79 31
 242 0158 23B0D700 		sd	a3,0(a5)
  80:src/memoryHandler.c **** 
GAS LISTING /tmp/ccByqQSI.s 			page 7


  81:src/memoryHandler.c ****                 if(newFree->size == 0)
 243              		.loc 1 81 17 is_stmt 1
 244              		.loc 1 81 19 is_stmt 0
 245 015c 63980600 		bnez	a3,.L22
  82:src/memoryHandler.c ****                 {
  83:src/memoryHandler.c ****                     if(prev != 0)
 246              		.loc 1 83 21 is_stmt 1
 247              		.loc 1 83 23 is_stmt 0
 248 0160 630A0702 		beqz	a4,.L23
  84:src/memoryHandler.c ****                         prev->next = curr->next;
 249              		.loc 1 84 25 is_stmt 1
 250              		.loc 1 84 42 is_stmt 0
 251 0164 83B78400 		ld	a5,8(s1)
 252              	.LVL21:
 253              		.loc 1 84 36
 254 0168 2334F700 		sd	a5,8(a4)
 255              	.L22:
  85:src/memoryHandler.c ****                     else
  86:src/memoryHandler.c ****                         headFree = 0;
  87:src/memoryHandler.c ****                 }
  88:src/memoryHandler.c **** 
  89:src/memoryHandler.c ****                 insertNewAllocatedFragment(oldAddr, size);
 256              		.loc 1 89 17 is_stmt 1
 257 016c 93050900 		mv	a1,s2
 258 0170 13850400 		mv	a0,s1
 259 0174 97000000 		call	insertNewAllocatedFragment
 259      E7800000 
 260              	.LVL22:
  90:src/memoryHandler.c **** 
  91:src/memoryHandler.c ****                 uint64 oldA = (uint64) ((char*)oldAddr + sizeof(AllocatedFragment));
 261              		.loc 1 91 17
 262              		.loc 1 91 56 is_stmt 0
 263 017c 93840401 		addi	s1,s1,16
 264              	.LVL23:
  92:src/memoryHandler.c ****                 __asm__ volatile("mv a0,%0" : : "r"(oldA));
 265              		.loc 1 92 17 is_stmt 1
 266              	#APP
 267              	# 92 "src/memoryHandler.c" 1
  93              	
  94:src/memoryHandler.c ****                 return;
 268              		mv a0,s1
 269              	# 0 "" 2
 270              		.loc 1 94 17
 271              	#NO_APP
 272 0184 6F00C005 		j	.L16
 273              	.LVL24:
 274              	.L20:
  76:src/memoryHandler.c **** 
 275              		.loc 1 76 21
  76:src/memoryHandler.c **** 
 276              		.loc 1 76 30 is_stmt 0
 277 0188 17060000 		sd	a5,headFree,a2
 277      2330F600 
 278 0190 6FF09FFB 		j	.L21
 279              	.LVL25:
 280              	.L23:
  86:src/memoryHandler.c ****                 }
GAS LISTING /tmp/ccByqQSI.s 			page 8


 281              		.loc 1 86 25 is_stmt 1
  86:src/memoryHandler.c ****                 }
 282              		.loc 1 86 34 is_stmt 0
 283 0194 97070000 		sd	zero,headFree,a5
 283      23B00700 
 284              	.LVL26:
 285 019c 6FF01FFD 		j	.L22
 286              	.LVL27:
 287              	.L25:
 288              	.LBE3:
  95:src/memoryHandler.c ****             }
  96:src/memoryHandler.c ****             else {
  97:src/memoryHandler.c ****                 if(prev != 0)
  98:src/memoryHandler.c ****                 {
  99:src/memoryHandler.c ****                     prev->next = 0;
 100:src/memoryHandler.c ****                 }
 101:src/memoryHandler.c ****                 else
 102:src/memoryHandler.c ****                 {
 103:src/memoryHandler.c ****                     headFree = 0;
 289              		.loc 1 103 21 is_stmt 1
 290              		.loc 1 103 30 is_stmt 0
 291 01a0 97070000 		sd	zero,headFree,a5
 291      23B00700 
 292              	.LVL28:
 293              	.L18:
 294              	.LBE2:
 104:src/memoryHandler.c ****                 }
 105:src/memoryHandler.c ****             }
 106:src/memoryHandler.c ****         }
 107:src/memoryHandler.c ****         prev = curr;
 295              		.loc 1 107 9 is_stmt 1
 108:src/memoryHandler.c ****         curr = curr->next;
 296              		.loc 1 108 9
 107:src/memoryHandler.c ****         curr = curr->next;
 297              		.loc 1 107 14 is_stmt 0
 298 01a8 13870400 		mv	a4,s1
 299              		.loc 1 108 14
 300 01ac 83B48400 		ld	s1,8(s1)
 301              	.LVL29:
 302              	.L17:
  63:src/memoryHandler.c **** 
 303              		.loc 1 63 10 is_stmt 1
 304 01b0 63840402 		beqz	s1,.L28
  65:src/memoryHandler.c **** 
 305              		.loc 1 65 9
  65:src/memoryHandler.c **** 
 306              		.loc 1 65 16 is_stmt 0
 307 01b4 83B70400 		ld	a5,0(s1)
  65:src/memoryHandler.c **** 
 308              		.loc 1 65 11
 309 01b8 E3E8D7FE 		bltu	a5,a3,.L18
 310              	.LBB4:
  67:src/memoryHandler.c ****             void* newAddr = ((char*)curr + newSize);
 311              		.loc 1 67 13 is_stmt 1
 312              	.LVL30:
  68:src/memoryHandler.c ****             if(newAddr <= HEAP_END_ADDR) {
 313              		.loc 1 68 13
GAS LISTING /tmp/ccByqQSI.s 			page 9


  68:src/memoryHandler.c ****             if(newAddr <= HEAP_END_ADDR) {
 314              		.loc 1 68 19 is_stmt 0
 315 01bc B387D400 		add	a5,s1,a3
 316              	.LVL31:
  69:src/memoryHandler.c **** 
 317              		.loc 1 69 13 is_stmt 1
  69:src/memoryHandler.c **** 
 318              		.loc 1 69 24 is_stmt 0
 319 01c0 17060000 		ld	a2,HEAP_END_ADDR
 319      03360600 
  69:src/memoryHandler.c **** 
 320              		.loc 1 69 15
 321 01c8 E37CF6F6 		bgeu	a2,a5,.L29
  97:src/memoryHandler.c ****                 {
 322              		.loc 1 97 17 is_stmt 1
  97:src/memoryHandler.c ****                 {
 323              		.loc 1 97 19 is_stmt 0
 324 01cc E30A07FC 		beqz	a4,.L25
  99:src/memoryHandler.c ****                 }
 325              		.loc 1 99 21 is_stmt 1
  99:src/memoryHandler.c ****                 }
 326              		.loc 1 99 32 is_stmt 0
 327 01d0 23340700 		sd	zero,8(a4)
 328 01d4 6FF05FFD 		j	.L18
 329              	.LVL32:
 330              	.L28:
 331              	.LBE4:
 109:src/memoryHandler.c ****     }
 110:src/memoryHandler.c **** 
 111:src/memoryHandler.c ****     uint64 x = 0;
 332              		.loc 1 111 5 is_stmt 1
 112:src/memoryHandler.c ****     __asm__ volatile("mv a0,%0" : : "r"(x));
 333              		.loc 1 112 5
 334 01d8 93070000 		li	a5,0
 335              	#APP
 336              	# 112 "src/memoryHandler.c" 1
 113              	}
 337              		mv a0,a5
 338              	# 0 "" 2
 339              	.LVL33:
 340              	#NO_APP
 341              	.L16:
 342              		.loc 1 113 1 is_stmt 0
 343 01e0 83308101 		ld	ra,24(sp)
 344              		.cfi_restore 1
 345 01e4 03340101 		ld	s0,16(sp)
 346              		.cfi_restore 8
 347              		.cfi_def_cfa 2, 32
 348 01e8 83348100 		ld	s1,8(sp)
 349              		.cfi_restore 9
 350 01ec 03390100 		ld	s2,0(sp)
 351              		.cfi_restore 18
 352              	.LVL34:
 353 01f0 13010102 		addi	sp,sp,32
 354              		.cfi_def_cfa_offset 0
 355 01f4 67800000 		jr	ra
 356              		.cfi_endproc
GAS LISTING /tmp/ccByqQSI.s 			page 10


 357              	.LFE2:
 359              		.align	2
 360              		.globl	insertNewFreeSegment
 362              	insertNewFreeSegment:
 363              	.LFB3:
 114:src/memoryHandler.c **** 
 115:src/memoryHandler.c **** void insertNewFreeSegment(void* addr, size_t size)
 116:src/memoryHandler.c **** {
 364              		.loc 1 116 1 is_stmt 1
 365              		.cfi_startproc
 366              	.LVL35:
 367 01f8 130101FE 		addi	sp,sp,-32
 368              		.cfi_def_cfa_offset 32
 369 01fc 233C1100 		sd	ra,24(sp)
 370 0200 23388100 		sd	s0,16(sp)
 371 0204 23349100 		sd	s1,8(sp)
 372 0208 23302101 		sd	s2,0(sp)
 373              		.cfi_offset 1, -8
 374              		.cfi_offset 8, -16
 375              		.cfi_offset 9, -24
 376              		.cfi_offset 18, -32
 377 020c 13040102 		addi	s0,sp,32
 378              		.cfi_def_cfa 8, 0
 379 0210 93040500 		mv	s1,a0
 380 0214 13890500 		mv	s2,a1
 117:src/memoryHandler.c ****     initMemory();
 381              		.loc 1 117 5
 382 0218 97000000 		call	initMemory
 382      E7800000 
 383              	.LVL36:
 118:src/memoryHandler.c ****     FreeFragment* prev = 0;
 384              		.loc 1 118 5
 119:src/memoryHandler.c ****     FreeFragment* curr = headFree;
 385              		.loc 1 119 5
 386              		.loc 1 119 19 is_stmt 0
 387 0220 97070000 		ld	a5,headFree
 387      83B70700 
 388              	.LVL37:
 120:src/memoryHandler.c ****     FreeFragment* newSegment = (FreeFragment*) addr;
 389              		.loc 1 120 5 is_stmt 1
 121:src/memoryHandler.c ****     newSegment->size = size;
 390              		.loc 1 121 5
 391              		.loc 1 121 22 is_stmt 0
 392 0228 23B02401 		sd	s2,0(s1)
 122:src/memoryHandler.c ****     newSegment->next = 0;
 393              		.loc 1 122 5 is_stmt 1
 394              		.loc 1 122 22 is_stmt 0
 395 022c 23B40400 		sd	zero,8(s1)
 123:src/memoryHandler.c ****     while(curr != 0)
 396              		.loc 1 123 5 is_stmt 1
 118:src/memoryHandler.c ****     FreeFragment* curr = headFree;
 397              		.loc 1 118 19 is_stmt 0
 398 0230 13070000 		li	a4,0
 399              	.LVL38:
 400              	.L31:
 401              		.loc 1 123 10 is_stmt 1
 402 0234 638C0700 		beqz	a5,.L33
GAS LISTING /tmp/ccByqQSI.s 			page 11


 124:src/memoryHandler.c ****     {
 125:src/memoryHandler.c ****         if((void*)curr > addr)
 403              		.loc 1 125 9
 404              		.loc 1 125 11 is_stmt 0
 405 0238 63E8F400 		bgtu	a5,s1,.L38
 126:src/memoryHandler.c ****         {
 127:src/memoryHandler.c ****             newSegment->next = curr;
 128:src/memoryHandler.c ****             break;
 129:src/memoryHandler.c ****         }
 130:src/memoryHandler.c **** 
 131:src/memoryHandler.c ****         prev = curr;
 406              		.loc 1 131 9 is_stmt 1
 407              	.LVL39:
 132:src/memoryHandler.c ****         curr = curr->next;
 408              		.loc 1 132 9
 131:src/memoryHandler.c ****         curr = curr->next;
 409              		.loc 1 131 14 is_stmt 0
 410 023c 13870700 		mv	a4,a5
 411              		.loc 1 132 14
 412 0240 83B78700 		ld	a5,8(a5)
 413              	.LVL40:
 414 0244 6FF01FFF 		j	.L31
 415              	.L38:
 127:src/memoryHandler.c ****             break;
 416              		.loc 1 127 13 is_stmt 1
 127:src/memoryHandler.c ****             break;
 417              		.loc 1 127 30 is_stmt 0
 418 0248 23B4F400 		sd	a5,8(s1)
 128:src/memoryHandler.c ****         }
 419              		.loc 1 128 13 is_stmt 1
 420              	.L33:
 133:src/memoryHandler.c ****     }
 134:src/memoryHandler.c **** 
 135:src/memoryHandler.c ****     if(prev == 0)
 421              		.loc 1 135 5
 422              		.loc 1 135 7 is_stmt 0
 423 024c 63000702 		beqz	a4,.L39
 136:src/memoryHandler.c ****         headFree = newSegment;
 137:src/memoryHandler.c ****     else
 138:src/memoryHandler.c ****         prev->next = newSegment;
 424              		.loc 1 138 9 is_stmt 1
 425              		.loc 1 138 20 is_stmt 0
 426 0250 23349700 		sd	s1,8(a4)
 427              	.LVL41:
 428              	.L30:
 139:src/memoryHandler.c **** }
 429              		.loc 1 139 1
 430 0254 83308101 		ld	ra,24(sp)
 431              		.cfi_remember_state
 432              		.cfi_restore 1
 433 0258 03340101 		ld	s0,16(sp)
 434              		.cfi_restore 8
 435              		.cfi_def_cfa 2, 32
 436 025c 83348100 		ld	s1,8(sp)
 437              		.cfi_restore 9
 438              	.LVL42:
 439 0260 03390100 		ld	s2,0(sp)
GAS LISTING /tmp/ccByqQSI.s 			page 12


 440              		.cfi_restore 18
 441              	.LVL43:
 442 0264 13010102 		addi	sp,sp,32
 443              		.cfi_def_cfa_offset 0
 444 0268 67800000 		jr	ra
 445              	.LVL44:
 446              	.L39:
 447              		.cfi_restore_state
 136:src/memoryHandler.c ****         headFree = newSegment;
 448              		.loc 1 136 9 is_stmt 1
 136:src/memoryHandler.c ****         headFree = newSegment;
 449              		.loc 1 136 18 is_stmt 0
 450 026c 97070000 		sd	s1,headFree,a5
 450      23B09700 
 451              	.LVL45:
 452 0274 6FF01FFE 		j	.L30
 453              		.cfi_endproc
 454              	.LFE3:
 456              		.align	2
 457              		.globl	tryToFreeSegment
 459              	tryToFreeSegment:
 460              	.LFB4:
 140:src/memoryHandler.c **** 
 141:src/memoryHandler.c **** void tryToFreeSegment(void* addr)
 142:src/memoryHandler.c **** {
 461              		.loc 1 142 1 is_stmt 1
 462              		.cfi_startproc
 463              	.LVL46:
 464 0278 130101FE 		addi	sp,sp,-32
 465              		.cfi_def_cfa_offset 32
 466 027c 233C1100 		sd	ra,24(sp)
 467 0280 23388100 		sd	s0,16(sp)
 468 0284 23349100 		sd	s1,8(sp)
 469 0288 23302101 		sd	s2,0(sp)
 470              		.cfi_offset 1, -8
 471              		.cfi_offset 8, -16
 472              		.cfi_offset 9, -24
 473              		.cfi_offset 18, -32
 474 028c 13040102 		addi	s0,sp,32
 475              		.cfi_def_cfa 8, 0
 476 0290 13090500 		mv	s2,a0
 143:src/memoryHandler.c ****     initMemory();
 477              		.loc 1 143 5
 478 0294 97000000 		call	initMemory
 478      E7800000 
 479              	.LVL47:
 144:src/memoryHandler.c ****     AllocatedFragment* prev = 0;
 480              		.loc 1 144 5
 145:src/memoryHandler.c ****     AllocatedFragment* curr = headAllocated;
 481              		.loc 1 145 5
 482              		.loc 1 145 24 is_stmt 0
 483 029c 97040000 		ld	s1,headAllocated
 483      83B40400 
 484              	.LVL48:
 146:src/memoryHandler.c ****     int found = 0;
 485              		.loc 1 146 5 is_stmt 1
 147:src/memoryHandler.c ****     while(curr != 0 && !found)
GAS LISTING /tmp/ccByqQSI.s 			page 13


 486              		.loc 1 147 5
 146:src/memoryHandler.c ****     int found = 0;
 487              		.loc 1 146 9 is_stmt 0
 488 02a4 93060000 		li	a3,0
 144:src/memoryHandler.c ****     AllocatedFragment* curr = headAllocated;
 489              		.loc 1 144 24
 490 02a8 13070000 		li	a4,0
 491              		.loc 1 147 10
 492 02ac 6F000003 		j	.L41
 493              	.LVL49:
 494              	.L43:
 148:src/memoryHandler.c ****     {
 149:src/memoryHandler.c ****         if(addr == (void*)((char*)curr + sizeof(AllocatedFragment)))
 150:src/memoryHandler.c ****         {
 151:src/memoryHandler.c ****             if(prev != 0) {
 152:src/memoryHandler.c ****                 prev->next = curr->next;
 153:src/memoryHandler.c ****             }
 154:src/memoryHandler.c ****             else {
 155:src/memoryHandler.c ****                 headAllocated = curr->next;
 495              		.loc 1 155 17 is_stmt 1
 496              		.loc 1 155 37 is_stmt 0
 497 02b0 83B78400 		ld	a5,8(s1)
 498              		.loc 1 155 31
 499 02b4 17070000 		sd	a5,headAllocated,a4
 499      2330F700 
 500              	.LVL50:
 501              	.L44:
 156:src/memoryHandler.c ****             }
 157:src/memoryHandler.c **** 
 158:src/memoryHandler.c ****             insertNewFreeSegment((void*)curr, curr->size + sizeof(AllocatedFragment));
 502              		.loc 1 158 13 is_stmt 1
 503              		.loc 1 158 51 is_stmt 0
 504 02bc 83B50400 		ld	a1,0(s1)
 505              		.loc 1 158 13
 506 02c0 93850501 		addi	a1,a1,16
 507 02c4 13850400 		mv	a0,s1
 508 02c8 97000000 		call	insertNewFreeSegment
 508      E7800000 
 509              	.LVL51:
 159:src/memoryHandler.c **** 
 160:src/memoryHandler.c ****             found = 1;
 510              		.loc 1 160 13 is_stmt 1
 511              		.loc 1 160 19 is_stmt 0
 512 02d0 93061000 		li	a3,1
 513              	.LVL52:
 514              	.L42:
 161:src/memoryHandler.c ****         }
 162:src/memoryHandler.c **** 
 163:src/memoryHandler.c ****         prev = curr;
 515              		.loc 1 163 9 is_stmt 1
 164:src/memoryHandler.c ****         curr = curr->next;
 516              		.loc 1 164 9
 163:src/memoryHandler.c ****         curr = curr->next;
 517              		.loc 1 163 14 is_stmt 0
 518 02d4 13870400 		mv	a4,s1
 519              		.loc 1 164 14
 520 02d8 83B48400 		ld	s1,8(s1)
GAS LISTING /tmp/ccByqQSI.s 			page 14


 521              	.LVL53:
 522              	.L41:
 147:src/memoryHandler.c ****     {
 523              		.loc 1 147 10 is_stmt 1
 524 02dc 63800402 		beqz	s1,.L45
 147:src/memoryHandler.c ****     {
 525              		.loc 1 147 21 is_stmt 0 discriminator 1
 526 02e0 639E0600 		bnez	a3,.L45
 149:src/memoryHandler.c ****         {
 527              		.loc 1 149 9 is_stmt 1
 149:src/memoryHandler.c ****         {
 528              		.loc 1 149 20 is_stmt 0
 529 02e4 93870401 		addi	a5,s1,16
 149:src/memoryHandler.c ****         {
 530              		.loc 1 149 11
 531 02e8 E39627FF 		bne	a5,s2,.L42
 151:src/memoryHandler.c ****                 prev->next = curr->next;
 532              		.loc 1 151 13 is_stmt 1
 151:src/memoryHandler.c ****                 prev->next = curr->next;
 533              		.loc 1 151 15 is_stmt 0
 534 02ec E30207FC 		beqz	a4,.L43
 152:src/memoryHandler.c ****             }
 535              		.loc 1 152 17 is_stmt 1
 152:src/memoryHandler.c ****             }
 536              		.loc 1 152 34 is_stmt 0
 537 02f0 83B78400 		ld	a5,8(s1)
 152:src/memoryHandler.c ****             }
 538              		.loc 1 152 28
 539 02f4 2334F700 		sd	a5,8(a4)
 540 02f8 6FF05FFC 		j	.L44
 541              	.L45:
 165:src/memoryHandler.c ****     }
 166:src/memoryHandler.c **** 
 167:src/memoryHandler.c ****     if(found) {
 542              		.loc 1 167 5 is_stmt 1
 543              		.loc 1 167 7 is_stmt 0
 544 02fc 63800602 		beqz	a3,.L47
 168:src/memoryHandler.c ****         __asm__ volatile("li a0, 0");
 545              		.loc 1 168 9 is_stmt 1
 546              	#APP
 547              	# 168 "src/memoryHandler.c" 1
 169              	    }
 548              		li a0, 0
 549              	# 0 "" 2
 550              	#NO_APP
 551              	.L40:
 170:src/memoryHandler.c ****     else {
 171:src/memoryHandler.c ****         __asm__ volatile("li a0, 1");
 172:src/memoryHandler.c ****     }
 173:src/memoryHandler.c **** }
 552              		.loc 1 173 1 is_stmt 0
 553 0304 83308101 		ld	ra,24(sp)
 554              		.cfi_remember_state
 555              		.cfi_restore 1
 556 0308 03340101 		ld	s0,16(sp)
 557              		.cfi_restore 8
 558              		.cfi_def_cfa 2, 32
GAS LISTING /tmp/ccByqQSI.s 			page 15


 559 030c 83348100 		ld	s1,8(sp)
 560              		.cfi_restore 9
 561              	.LVL54:
 562 0310 03390100 		ld	s2,0(sp)
 563              		.cfi_restore 18
 564              	.LVL55:
 565 0314 13010102 		addi	sp,sp,32
 566              		.cfi_def_cfa_offset 0
 567 0318 67800000 		jr	ra
 568              	.LVL56:
 569              	.L47:
 570              		.cfi_restore_state
 171:src/memoryHandler.c ****     }
 571              		.loc 1 171 9 is_stmt 1
 572              	#APP
 573              	# 171 "src/memoryHandler.c" 1
 574              		li a0, 1
 575              	# 0 "" 2
 576              		.loc 1 173 1 is_stmt 0
 577              	#NO_APP
 578 0320 6FF05FFE 		j	.L40
 579              		.cfi_endproc
 580              	.LFE4:
 582              		.globl	MEM_FREE
 583              		.globl	MEM_ALLOC
 584              		.globl	memoryInitiliaized
 585              		.globl	headFree
 586              		.globl	headAllocated
 587              		.section	.sbss,"aw",@nobits
 588              		.align	3
 591              	memoryInitiliaized:
 592 0000 00000000 		.zero	4
 593 0004 00000000 		.zero	4
 596              	headFree:
 597 0008 00000000 		.zero	8
 597      00000000 
 600              	headAllocated:
 601 0010 00000000 		.zero	8
 601      00000000 
 602              		.section	.sdata,"aw"
 603              		.align	2
 606              	MEM_FREE:
 607 0000 02000000 		.word	2
 610              	MEM_ALLOC:
 611 0004 01000000 		.word	1
 612              		.text
 613              	.Letext0:
 614              		.file 2 "src/../h/../lib/hw.h"
 615              		.file 3 "src/../h/memoryHandler.h"
GAS LISTING /tmp/ccByqQSI.s 			page 16

