GAS LISTING /tmp/ccH1DSUj.s 			page 1


   1              		.file	"PCB.cpp"
   2              		.option pic
   3              		.option norelax
   4              		.text
   5              	.Ltext0:
   6              		.section	.rodata.str1.8,"aMS",@progbits,1
   7              		.align	3
   8              	.LC0:
   9 0000 52756E6E 		.string	"Runner started...\n"
   9      65722073 
   9      74617274 
   9      65642E2E 
   9      2E0A00
  10              		.text
  11              		.align	2
  12              		.globl	_ZN3PCB6runnerEv
  14              	_ZN3PCB6runnerEv:
  15              	.LFB26:
  16              		.file 1 "src/PCB.cpp"
   1:src/PCB.cpp   **** //
   2:src/PCB.cpp   **** // Created by os on 4/27/22.
   3:src/PCB.cpp   **** //
   4:src/PCB.cpp   **** 
   5:src/PCB.cpp   **** #include "../h/PCB.hpp"
   6:src/PCB.cpp   **** #include "../h/syscall_c.h"
   7:src/PCB.cpp   **** #include "../h/SleepPCBList.hpp"
   8:src/PCB.cpp   **** 
   9:src/PCB.cpp   **** PCB* PCB::running = 0;
  10:src/PCB.cpp   **** uint64 PCB::timeSliceCounter = 0;
  11:src/PCB.cpp   **** 
  12:src/PCB.cpp   **** PCB::PCB(Body body, void *args, void* stack_space, uint64 timeSlice) :
  13:src/PCB.cpp   ****     timeSlice(timeSlice),
  14:src/PCB.cpp   ****     body(body),
  15:src/PCB.cpp   ****     args(args),
  16:src/PCB.cpp   ****     beginSP(stack_space),
  17:src/PCB.cpp   ****     context({
  18:src/PCB.cpp   ****         (uint64)((char*)stack_space + DEFAULT_STACK_SIZE),
  19:src/PCB.cpp   ****         (uint64)&PCB::runner
  20:src/PCB.cpp   ****     })
  21:src/PCB.cpp   **** {
  22:src/PCB.cpp   ****     Scheduler::put(this);
  23:src/PCB.cpp   ****     nextPCB = 0;
  24:src/PCB.cpp   **** }
  25:src/PCB.cpp   **** 
  26:src/PCB.cpp   **** void PCB::sleep(time_t time)
  27:src/PCB.cpp   **** {
  28:src/PCB.cpp   ****     //todo
  29:src/PCB.cpp   **** }
  30:src/PCB.cpp   **** 
  31:src/PCB.cpp   **** void PCB::start()
  32:src/PCB.cpp   **** {
  33:src/PCB.cpp   ****     Scheduler::put(this);
  34:src/PCB.cpp   **** }
  35:src/PCB.cpp   **** 
  36:src/PCB.cpp   **** void PCB::runner()
  37:src/PCB.cpp   **** {
  17              		.loc 1 37 1
GAS LISTING /tmp/ccH1DSUj.s 			page 2


  18              		.cfi_startproc
  19 0000 130101FF 		addi	sp,sp,-16
  20              		.cfi_def_cfa_offset 16
  21 0004 23341100 		sd	ra,8(sp)
  22 0008 23308100 		sd	s0,0(sp)
  23              		.cfi_offset 1, -8
  24              		.cfi_offset 8, -16
  25 000c 13040101 		addi	s0,sp,16
  26              		.cfi_def_cfa 8, 0
  38:src/PCB.cpp   ****     Riscv::printString("Runner started...\n");
  27              		.loc 1 38 5
  28              		.loc 1 38 23 is_stmt 0
  29 0010 17050000 		lla	a0,.LC0
  29      13050500 
  30 0018 97000000 		call	_ZN5Riscv11printStringEPKc@plt
  30      E7800000 
  31              	.LVL0:
  39:src/PCB.cpp   ****     Riscv::popSppSpie();
  32              		.loc 1 39 5 is_stmt 1
  33              		.loc 1 39 22 is_stmt 0
  34 0020 97000000 		call	_ZN5Riscv10popSppSpieEv@plt
  34      E7800000 
  35              	.LVL1:
  40:src/PCB.cpp   **** 
  41:src/PCB.cpp   ****     running->body(running->args);
  36              		.loc 1 41 5 is_stmt 1
  37              		.loc 1 41 14 is_stmt 0
  38 0028 97070000 		ld	a5,.LANCHOR0
  38      83B70700 
  39 0030 03B70702 		ld	a4,32(a5)
  40              		.loc 1 41 18
  41 0034 03B58702 		ld	a0,40(a5)
  42 0038 E7000700 		jalr	a4
  43              	.LVL2:
  42:src/PCB.cpp   **** 
  43:src/PCB.cpp   ****     thread_exit();
  44              		.loc 1 43 5 is_stmt 1
  45              		.loc 1 43 16 is_stmt 0
  46 003c 97000000 		call	thread_exit@plt
  46      E7800000 
  47              	.LVL3:
  44:src/PCB.cpp   **** }
  48              		.loc 1 44 1
  49 0044 83308100 		ld	ra,8(sp)
  50              		.cfi_restore 1
  51 0048 03340100 		ld	s0,0(sp)
  52              		.cfi_restore 8
  53              		.cfi_def_cfa 2, 16
  54 004c 13010101 		addi	sp,sp,16
  55              		.cfi_def_cfa_offset 0
  56 0050 67800000 		jr	ra
  57              		.cfi_endproc
  58              	.LFE26:
  60              		.align	2
  61              		.globl	_ZN3PCBC2EPFvPvES0_S0_m
  63              	_ZN3PCBC2EPFvPvES0_S0_m:
  64              	.LFB22:
GAS LISTING /tmp/ccH1DSUj.s 			page 3


  12:src/PCB.cpp   ****     timeSlice(timeSlice),
  65              		.loc 1 12 1 is_stmt 1
  66              		.cfi_startproc
  67              	.LVL4:
  68 0054 130101FE 		addi	sp,sp,-32
  69              		.cfi_def_cfa_offset 32
  70 0058 233C1100 		sd	ra,24(sp)
  71 005c 23388100 		sd	s0,16(sp)
  72 0060 23349100 		sd	s1,8(sp)
  73              		.cfi_offset 1, -8
  74              		.cfi_offset 8, -16
  75              		.cfi_offset 9, -24
  76 0064 13040102 		addi	s0,sp,32
  77              		.cfi_def_cfa 8, 0
  78 0068 93040500 		mv	s1,a0
  79              	.LBB30:
  20:src/PCB.cpp   **** {
  80              		.loc 1 20 6 is_stmt 0
  81 006c 23000500 		sb	zero,0(a0)
  82 0070 2338E500 		sd	a4,16(a0)
  83 0074 233C0500 		sd	zero,24(a0)
  84 0078 2330B502 		sd	a1,32(a0)
  85 007c 2334C502 		sd	a2,40(a0)
  86 0080 2338D502 		sd	a3,48(a0)
  18:src/PCB.cpp   ****         (uint64)&PCB::runner
  87              		.loc 1 18 37
  88 0084 B7170000 		li	a5,4096
  89 0088 B386F600 		add	a3,a3,a5
  90              	.LVL5:
  20:src/PCB.cpp   **** {
  91              		.loc 1 20 6
  92 008c 2330D504 		sd	a3,64(a0)
  93 0090 97070000 		lla	a5,_ZN3PCB6runnerEv
  93      93870700 
  94 0098 2334F504 		sd	a5,72(a0)
  22:src/PCB.cpp   ****     nextPCB = 0;
  95              		.loc 1 22 5 is_stmt 1
  22:src/PCB.cpp   ****     nextPCB = 0;
  96              		.loc 1 22 19 is_stmt 0
  97 009c 97000000 		call	_ZN9Scheduler3putEP3PCB@plt
  97      E7800000 
  98              	.LVL6:
  23:src/PCB.cpp   **** }
  99              		.loc 1 23 5 is_stmt 1
  23:src/PCB.cpp   **** }
 100              		.loc 1 23 13 is_stmt 0
 101 00a4 23B40400 		sd	zero,8(s1)
 102              	.LBE30:
  24:src/PCB.cpp   **** 
 103              		.loc 1 24 1
 104 00a8 83308101 		ld	ra,24(sp)
 105              		.cfi_restore 1
 106 00ac 03340101 		ld	s0,16(sp)
 107              		.cfi_restore 8
 108              		.cfi_def_cfa 2, 32
 109 00b0 83348100 		ld	s1,8(sp)
 110              		.cfi_restore 9
GAS LISTING /tmp/ccH1DSUj.s 			page 4


 111              	.LVL7:
 112 00b4 13010102 		addi	sp,sp,32
 113              		.cfi_def_cfa_offset 0
 114 00b8 67800000 		jr	ra
 115              		.cfi_endproc
 116              	.LFE22:
 118              		.globl	_ZN3PCBC1EPFvPvES0_S0_m
 119              		.set	_ZN3PCBC1EPFvPvES0_S0_m,_ZN3PCBC2EPFvPvES0_S0_m
 120              		.align	2
 121              		.globl	_ZN3PCB5sleepEm
 123              	_ZN3PCB5sleepEm:
 124              	.LFB24:
  27:src/PCB.cpp   ****     //todo
 125              		.loc 1 27 1 is_stmt 1
 126              		.cfi_startproc
 127              	.LVL8:
 128 00bc 130101FF 		addi	sp,sp,-16
 129              		.cfi_def_cfa_offset 16
 130 00c0 23348100 		sd	s0,8(sp)
 131              		.cfi_offset 8, -8
 132 00c4 13040101 		addi	s0,sp,16
 133              		.cfi_def_cfa 8, 0
  29:src/PCB.cpp   **** 
 134              		.loc 1 29 1 is_stmt 0
 135 00c8 03348100 		ld	s0,8(sp)
 136              		.cfi_restore 8
 137              		.cfi_def_cfa 2, 16
 138 00cc 13010101 		addi	sp,sp,16
 139              		.cfi_def_cfa_offset 0
 140 00d0 67800000 		jr	ra
 141              		.cfi_endproc
 142              	.LFE24:
 144              		.align	2
 145              		.globl	_ZN3PCB5startEv
 147              	_ZN3PCB5startEv:
 148              	.LFB25:
  32:src/PCB.cpp   ****     Scheduler::put(this);
 149              		.loc 1 32 1 is_stmt 1
 150              		.cfi_startproc
 151              	.LVL9:
 152 00d4 130101FF 		addi	sp,sp,-16
 153              		.cfi_def_cfa_offset 16
 154 00d8 23341100 		sd	ra,8(sp)
 155 00dc 23308100 		sd	s0,0(sp)
 156              		.cfi_offset 1, -8
 157              		.cfi_offset 8, -16
 158 00e0 13040101 		addi	s0,sp,16
 159              		.cfi_def_cfa 8, 0
  33:src/PCB.cpp   **** }
 160              		.loc 1 33 5
  33:src/PCB.cpp   **** }
 161              		.loc 1 33 19 is_stmt 0
 162 00e4 97000000 		call	_ZN9Scheduler3putEP3PCB@plt
 162      E7800000 
 163              	.LVL10:
  34:src/PCB.cpp   **** 
 164              		.loc 1 34 1
GAS LISTING /tmp/ccH1DSUj.s 			page 5


 165 00ec 83308100 		ld	ra,8(sp)
 166              		.cfi_restore 1
 167 00f0 03340100 		ld	s0,0(sp)
 168              		.cfi_restore 8
 169              		.cfi_def_cfa 2, 16
 170 00f4 13010101 		addi	sp,sp,16
 171              		.cfi_def_cfa_offset 0
 172 00f8 67800000 		jr	ra
 173              		.cfi_endproc
 174              	.LFE25:
 176              		.align	2
 177              		.globl	_ZN3PCB8dispatchEv
 179              	_ZN3PCB8dispatchEv:
 180              	.LFB27:
  45:src/PCB.cpp   **** 
  46:src/PCB.cpp   **** void PCB::dispatch()
  47:src/PCB.cpp   **** {
 181              		.loc 1 47 1 is_stmt 1
 182              		.cfi_startproc
 183 00fc 130101FE 		addi	sp,sp,-32
 184              		.cfi_def_cfa_offset 32
 185 0100 233C1100 		sd	ra,24(sp)
 186 0104 23388100 		sd	s0,16(sp)
 187 0108 23349100 		sd	s1,8(sp)
 188              		.cfi_offset 1, -8
 189              		.cfi_offset 8, -16
 190              		.cfi_offset 9, -24
 191 010c 13040102 		addi	s0,sp,32
 192              		.cfi_def_cfa 8, 0
  48:src/PCB.cpp   ****     //Scheduler::print();
  49:src/PCB.cpp   ****     //Riscv::printInteger(Scheduler::getSize());
  50:src/PCB.cpp   ****     //Riscv::printString("Dispatch called...\n");
  51:src/PCB.cpp   ****     PCB* old = running;
 193              		.loc 1 51 5
 194              		.loc 1 51 10 is_stmt 0
 195 0110 97040000 		ld	s1,.LANCHOR0
 195      83B40400 
 196              	.LVL11:
  52:src/PCB.cpp   ****     if(old->getState() == PCB::RUNNING)
 197              		.loc 1 52 5 is_stmt 1
 198              	.LBB31:
 199              	.LBB32:
 200              		.file 2 "src/../h/PCB.hpp"
   1:src/../h/PCB.hpp **** //
   2:src/../h/PCB.hpp **** // Created by os on 4/27/22.
   3:src/../h/PCB.hpp **** //
   4:src/../h/PCB.hpp **** 
   5:src/../h/PCB.hpp **** #ifndef PROJECT_BASE_V1_0_PCB_HPP
   6:src/../h/PCB.hpp **** #define PROJECT_BASE_V1_0_PCB_HPP
   7:src/../h/PCB.hpp **** 
   8:src/../h/PCB.hpp **** #include "../lib/hw.h"
   9:src/../h/PCB.hpp **** #include "Scheduler.hpp"
  10:src/../h/PCB.hpp **** #include "Riscv.hpp"
  11:src/../h/PCB.hpp **** 
  12:src/../h/PCB.hpp **** class PCB
  13:src/../h/PCB.hpp **** {
  14:src/../h/PCB.hpp **** public:
GAS LISTING /tmp/ccH1DSUj.s 			page 6


  15:src/../h/PCB.hpp ****     using Body = void (*)(void*);
  16:src/../h/PCB.hpp **** 
  17:src/../h/PCB.hpp ****     PCB(Body body,  void* args, void* stack_space, uint64 timeSlice);
  18:src/../h/PCB.hpp ****     ~PCB();
  19:src/../h/PCB.hpp **** 
  20:src/../h/PCB.hpp ****     void start();
  21:src/../h/PCB.hpp ****     static void dispatch();
  22:src/../h/PCB.hpp ****     static void sleep(time_t);
  23:src/../h/PCB.hpp **** 
  24:src/../h/PCB.hpp ****     static PCB* running;
  25:src/../h/PCB.hpp **** 
  26:src/../h/PCB.hpp ****     static uint64 timeSliceCounter;
  27:src/../h/PCB.hpp ****     uint64 getTimeSlice() { return timeSlice;}
  28:src/../h/PCB.hpp **** 
  29:src/../h/PCB.hpp ****     void* operator new(size_t size);
  30:src/../h/PCB.hpp ****     void operator delete(void *p);
  31:src/../h/PCB.hpp **** 
  32:src/../h/PCB.hpp ****     enum State{READY, RUNNING, SUSPENDED, FINISHED, EXITING, SLEEPING};
  33:src/../h/PCB.hpp ****     State getState() {return state;}
 201              		.loc 2 33 23
 202              		.loc 2 33 30 is_stmt 0
 203 0118 03A78403 		lw	a4,56(s1)
 204              	.LVL12:
 205              	.LBE32:
 206              	.LBE31:
 207              		.loc 1 52 5
 208 011c 93071000 		li	a5,1
 209 0120 6308F704 		beq	a4,a5,.L14
 210              	.L10:
  53:src/PCB.cpp   ****         Scheduler::put(old);
  54:src/PCB.cpp   ****     PCB::running = Scheduler::get();
 211              		.loc 1 54 5 is_stmt 1
 212              		.loc 1 54 34 is_stmt 0
 213 0124 97000000 		call	_ZN9Scheduler3getEv@plt
 213      E7800000 
 214              	.LVL13:
 215              		.loc 1 54 18
 216 012c 97070000 		sd	a0,.LANCHOR0,a5
 216      23B0A700 
  55:src/PCB.cpp   ****     PCB::running->setState(PCB::RUNNING);
 217              		.loc 1 55 5 is_stmt 1
 218              	.LVL14:
 219              	.LBB33:
 220              	.LBB34:
  34:src/../h/PCB.hpp ****     void setState(State s) {state = s;}
 221              		.loc 2 34 29
 222              		.loc 2 34 35 is_stmt 0
 223 0134 93071000 		li	a5,1
 224 0138 232CF502 		sw	a5,56(a0)
 225              	.LVL15:
 226              	.LBE34:
 227              	.LBE33:
  56:src/PCB.cpp   ****     //Riscv::printString("Switching context...\n");
  57:src/PCB.cpp   **** 
  58:src/PCB.cpp   ****     if(PCB::running->systemThread)
 228              		.loc 1 58 5 is_stmt 1
 229              		.loc 1 58 22 is_stmt 0
GAS LISTING /tmp/ccH1DSUj.s 			page 7


 230 013c 83470500 		lbu	a5,0(a0)
 231              		.loc 1 58 5
 232 0140 63800704 		beqz	a5,.L11
  59:src/PCB.cpp   ****         Riscv::ms_sstatus(Riscv::SSTATUS_SPP);
 233              		.loc 1 59 9 is_stmt 1
 234              	.LVL16:
 235              	.LBB35:
 236              	.LBB36:
 237              		.file 3 "src/../h/Riscv.hpp"
   1:src/../h/Riscv.hpp **** //
   2:src/../h/Riscv.hpp **** // Created by os on 4/27/22.
   3:src/../h/Riscv.hpp **** //
   4:src/../h/Riscv.hpp **** 
   5:src/../h/Riscv.hpp **** #ifndef PROJECT_BASE_V1_0_RISCV_HPP
   6:src/../h/Riscv.hpp **** #define PROJECT_BASE_V1_0_RISCV_HPP
   7:src/../h/Riscv.hpp **** 
   8:src/../h/Riscv.hpp **** #include "../lib/hw.h"
   9:src/../h/Riscv.hpp **** 
  10:src/../h/Riscv.hpp **** class Riscv
  11:src/../h/Riscv.hpp **** {
  12:src/../h/Riscv.hpp **** private:
  13:src/../h/Riscv.hpp **** 
  14:src/../h/Riscv.hpp **** public:
  15:src/../h/Riscv.hpp ****     static void kernelMain();
  16:src/../h/Riscv.hpp **** 
  17:src/../h/Riscv.hpp ****     static void initSystem();
  18:src/../h/Riscv.hpp ****     static void endSystem();
  19:src/../h/Riscv.hpp **** 
  20:src/../h/Riscv.hpp ****     static void userMainWrapper(void* p);
  21:src/../h/Riscv.hpp **** 
  22:src/../h/Riscv.hpp ****     static void enableInterrupts();
  23:src/../h/Riscv.hpp **** 
  24:src/../h/Riscv.hpp ****     static void disableInterrupts();
  25:src/../h/Riscv.hpp **** 
  26:src/../h/Riscv.hpp ****     static void printString(char const *string);
  27:src/../h/Riscv.hpp **** 
  28:src/../h/Riscv.hpp ****     static void printInteger(uint64 num);
  29:src/../h/Riscv.hpp **** 
  30:src/../h/Riscv.hpp ****     static void pushRegisters();
  31:src/../h/Riscv.hpp ****     static void popRegisters();
  32:src/../h/Riscv.hpp **** 
  33:src/../h/Riscv.hpp ****     static uint64 r_scause();
  34:src/../h/Riscv.hpp ****     static void w_scause(uint64 scause);
  35:src/../h/Riscv.hpp **** 
  36:src/../h/Riscv.hpp ****     static uint64 r_sepc();
  37:src/../h/Riscv.hpp ****     static void w_sepc(uint64 sepc);
  38:src/../h/Riscv.hpp **** 
  39:src/../h/Riscv.hpp ****     static uint64 r_stvec();
  40:src/../h/Riscv.hpp ****     static void w_stvec(uint64 stvec);
  41:src/../h/Riscv.hpp **** 
  42:src/../h/Riscv.hpp ****     static uint64 r_stval();
  43:src/../h/Riscv.hpp ****     static void w_stval(uint64 stval);
  44:src/../h/Riscv.hpp **** 
  45:src/../h/Riscv.hpp ****     enum BitMaskSip
  46:src/../h/Riscv.hpp ****     {
  47:src/../h/Riscv.hpp ****         SIP_SSIP = (1 << 1),
  48:src/../h/Riscv.hpp ****         SIP_STIP = (1 << 5),
GAS LISTING /tmp/ccH1DSUj.s 			page 8


  49:src/../h/Riscv.hpp ****         SIP_SEIP = (1 << 9),
  50:src/../h/Riscv.hpp ****     };
  51:src/../h/Riscv.hpp **** 
  52:src/../h/Riscv.hpp ****     static void ms_sip(uint64 mask);
  53:src/../h/Riscv.hpp **** 
  54:src/../h/Riscv.hpp ****     static void mc_sip(uint64 mask);
  55:src/../h/Riscv.hpp **** 
  56:src/../h/Riscv.hpp ****     static uint64 r_sip();
  57:src/../h/Riscv.hpp **** 
  58:src/../h/Riscv.hpp ****     static void w_sip(uint64 sip);
  59:src/../h/Riscv.hpp **** 
  60:src/../h/Riscv.hpp ****     enum BitMaskSstatus
  61:src/../h/Riscv.hpp ****     {
  62:src/../h/Riscv.hpp ****         SSTATUS_SIE = (1 << 1),
  63:src/../h/Riscv.hpp ****         SSTATUS_SPIE = (1 << 5),
  64:src/../h/Riscv.hpp ****         SSTATUS_SPP = (1 << 8),
  65:src/../h/Riscv.hpp ****     };
  66:src/../h/Riscv.hpp **** 
  67:src/../h/Riscv.hpp ****     static void ms_sstatus(uint64 mask);
  68:src/../h/Riscv.hpp **** 
  69:src/../h/Riscv.hpp ****     static void mc_sstatus(uint64 mask);
  70:src/../h/Riscv.hpp **** 
  71:src/../h/Riscv.hpp ****     static uint64 r_sstatus();
  72:src/../h/Riscv.hpp **** 
  73:src/../h/Riscv.hpp ****     static void w_sstatus(uint64 sstatus);
  74:src/../h/Riscv.hpp **** 
  75:src/../h/Riscv.hpp ****     static void popSppSpie();
  76:src/../h/Riscv.hpp **** 
  77:src/../h/Riscv.hpp ****     static void supervisorTrap();
  78:src/../h/Riscv.hpp ****     static void handleSupervisorTrap();
  79:src/../h/Riscv.hpp **** 
  80:src/../h/Riscv.hpp ****     static const uint64 bntOne = 1UL << 63;;
  81:src/../h/Riscv.hpp ****     static const uint64 bntZero = 0UL;
  82:src/../h/Riscv.hpp ****     static const uint64 timerInterrupt = bntOne + 1UL;
  83:src/../h/Riscv.hpp ****     static const uint64 hwInterrupt = bntOne + 9UL;
  84:src/../h/Riscv.hpp ****     static const uint64 operationInterrupt = bntZero + 2UL;
  85:src/../h/Riscv.hpp ****     static const uint64 addrReadInterrupt = bntZero + 5UL;
  86:src/../h/Riscv.hpp ****     static const uint64 addrWriteInterrupt = bntZero + 7UL;
  87:src/../h/Riscv.hpp ****     static const uint64 ecallUserInterrupt = bntZero + 8UL;
  88:src/../h/Riscv.hpp ****     static const uint64 ecallSystemInterupt = bntZero + 9UL;
  89:src/../h/Riscv.hpp **** };
  90:src/../h/Riscv.hpp **** 
  91:src/../h/Riscv.hpp **** inline uint64 Riscv::r_scause() {
  92:src/../h/Riscv.hpp ****     uint64 volatile scause;
  93:src/../h/Riscv.hpp ****     __asm__ volatile("csrr %0, scause" : "=r"(scause));
  94:src/../h/Riscv.hpp ****     return scause;
  95:src/../h/Riscv.hpp **** }
  96:src/../h/Riscv.hpp **** 
  97:src/../h/Riscv.hpp **** inline void Riscv::w_scause(uint64 scause) {
  98:src/../h/Riscv.hpp ****     __asm__ volatile("csrw scause, %0" : :"r"(scause));
  99:src/../h/Riscv.hpp **** }
 100:src/../h/Riscv.hpp **** 
 101:src/../h/Riscv.hpp **** inline uint64 Riscv::r_sepc() {
 102:src/../h/Riscv.hpp ****     uint64 volatile sepc;
 103:src/../h/Riscv.hpp ****     __asm__ volatile("csrr %0, sepc" : "=r"(sepc));
 104:src/../h/Riscv.hpp ****     return sepc;
 105:src/../h/Riscv.hpp **** }
GAS LISTING /tmp/ccH1DSUj.s 			page 9


 106:src/../h/Riscv.hpp **** 
 107:src/../h/Riscv.hpp **** inline void Riscv::w_sepc(uint64 sepc) {
 108:src/../h/Riscv.hpp ****     __asm__ volatile("csrw sepc, %0" : :"r"(sepc));
 109:src/../h/Riscv.hpp **** }
 110:src/../h/Riscv.hpp **** 
 111:src/../h/Riscv.hpp **** inline uint64 Riscv::r_stvec() {
 112:src/../h/Riscv.hpp ****     uint64 volatile stvec;
 113:src/../h/Riscv.hpp ****     __asm__ volatile("csrr %0, stvec" : "=r"(stvec));
 114:src/../h/Riscv.hpp ****     return stvec;
 115:src/../h/Riscv.hpp **** }
 116:src/../h/Riscv.hpp **** 
 117:src/../h/Riscv.hpp **** inline void Riscv::w_stvec(uint64 stvec) {
 118:src/../h/Riscv.hpp ****     __asm__ volatile("csrw stvec, %0" : :"r"(stvec));
 119:src/../h/Riscv.hpp **** }
 120:src/../h/Riscv.hpp **** 
 121:src/../h/Riscv.hpp **** inline uint64 Riscv::r_stval() {
 122:src/../h/Riscv.hpp ****     uint64 volatile stval;
 123:src/../h/Riscv.hpp ****     __asm__ volatile("csrr %0, stval" : "=r"(stval));
 124:src/../h/Riscv.hpp ****     return stval;
 125:src/../h/Riscv.hpp **** }
 126:src/../h/Riscv.hpp **** 
 127:src/../h/Riscv.hpp **** inline void Riscv::w_stval(uint64 stval) {
 128:src/../h/Riscv.hpp ****     __asm__ volatile("csrw stval, %0" : :"r"(stval));
 129:src/../h/Riscv.hpp **** }
 130:src/../h/Riscv.hpp **** 
 131:src/../h/Riscv.hpp **** inline void Riscv::ms_sip(uint64 mask) {
 132:src/../h/Riscv.hpp ****     __asm__ volatile("csrs sip, %0" : :"r"(mask));
 133:src/../h/Riscv.hpp **** }
 134:src/../h/Riscv.hpp **** 
 135:src/../h/Riscv.hpp **** inline void Riscv::mc_sip(uint64 mask) {
 136:src/../h/Riscv.hpp ****     __asm__ volatile("csrc sip, %0" : :"r"(mask));
 137:src/../h/Riscv.hpp **** }
 138:src/../h/Riscv.hpp **** 
 139:src/../h/Riscv.hpp **** inline uint64 Riscv::r_sip() {
 140:src/../h/Riscv.hpp ****     uint64 volatile sip;
 141:src/../h/Riscv.hpp ****     __asm__ volatile("csrr %0, sip" : "=r"(sip));
 142:src/../h/Riscv.hpp ****     return sip;
 143:src/../h/Riscv.hpp **** }
 144:src/../h/Riscv.hpp **** 
 145:src/../h/Riscv.hpp **** inline void Riscv::w_sip(uint64 sip) {
 146:src/../h/Riscv.hpp ****     __asm__ volatile("csrw sip, %0" : :"r"(sip));
 147:src/../h/Riscv.hpp **** }
 148:src/../h/Riscv.hpp **** 
 149:src/../h/Riscv.hpp **** inline void Riscv::ms_sstatus(uint64 mask) {
 150:src/../h/Riscv.hpp ****     __asm__ volatile("csrs sstatus, %0" : :"r"(mask));
 238              		.loc 3 150 5
 239              		.loc 3 150 54 is_stmt 0
 240 0144 93070010 		li	a5,256
 241              	#APP
 242              	# 150 "src/../h/Riscv.hpp" 1
 151              	}
 243              		csrs sstatus, a5
 244              	# 0 "" 2
 245              	.LVL17:
 246              	#NO_APP
 247              	.L12:
 248              	.LBE36:
GAS LISTING /tmp/ccH1DSUj.s 			page 10


 249              	.LBE35:
  60:src/PCB.cpp   ****     else
  61:src/PCB.cpp   ****         Riscv::mc_sstatus(Riscv::SSTATUS_SPP);
  62:src/PCB.cpp   **** 
  63:src/PCB.cpp   **** 
  64:src/PCB.cpp   ****     PCB::contextSwitch(&old->context, &running->context);
 250              		.loc 1 64 5 is_stmt 1
 251              		.loc 1 64 23 is_stmt 0
 252 014c 93050504 		addi	a1,a0,64
 253 0150 13850404 		addi	a0,s1,64
 254 0154 97000000 		call	_ZN3PCB13contextSwitchEPNS_7ContextES1_@plt
 254      E7800000 
 255              	.LVL18:
  65:src/PCB.cpp   **** }
 256              		.loc 1 65 1
 257 015c 83308101 		ld	ra,24(sp)
 258              		.cfi_remember_state
 259              		.cfi_restore 1
 260 0160 03340101 		ld	s0,16(sp)
 261              		.cfi_restore 8
 262              		.cfi_def_cfa 2, 32
 263 0164 83348100 		ld	s1,8(sp)
 264              		.cfi_restore 9
 265              	.LVL19:
 266 0168 13010102 		addi	sp,sp,32
 267              		.cfi_def_cfa_offset 0
 268 016c 67800000 		jr	ra
 269              	.LVL20:
 270              	.L14:
 271              		.cfi_restore_state
  53:src/PCB.cpp   ****     PCB::running = Scheduler::get();
 272              		.loc 1 53 9 is_stmt 1
  53:src/PCB.cpp   ****     PCB::running = Scheduler::get();
 273              		.loc 1 53 23 is_stmt 0
 274 0170 13850400 		mv	a0,s1
 275 0174 97000000 		call	_ZN9Scheduler3putEP3PCB@plt
 275      E7800000 
 276              	.LVL21:
 277 017c 6FF09FFA 		j	.L10
 278              	.L11:
  61:src/PCB.cpp   **** 
 279              		.loc 1 61 9 is_stmt 1
 280              	.LVL22:
 281              	.LBB37:
 282              	.LBB38:
 152:src/../h/Riscv.hpp **** 
 153:src/../h/Riscv.hpp **** inline void Riscv::mc_sstatus(uint64 mask) {
 154:src/../h/Riscv.hpp ****     __asm__ volatile("csrc sstatus, %0" : :"r"(mask));
 283              		.loc 3 154 5
 284              		.loc 3 154 54 is_stmt 0
 285 0180 93070010 		li	a5,256
 286              	#APP
 287              	# 154 "src/../h/Riscv.hpp" 1
 155              	}
 288              		csrc sstatus, a5
 289              	# 0 "" 2
 290              		.loc 3 155 1
GAS LISTING /tmp/ccH1DSUj.s 			page 11


 291              	#NO_APP
 292 0188 6FF05FFC 		j	.L12
 293              	.LBE38:
 294              	.LBE37:
 295              		.cfi_endproc
 296              	.LFE27:
 298              		.align	2
 299              		.globl	_ZN3PCBnwEm
 301              	_ZN3PCBnwEm:
 302              	.LFB28:
  66:src/PCB.cpp   **** 
  67:src/PCB.cpp   **** void *PCB::operator new(size_t size) {
 303              		.loc 1 67 38 is_stmt 1
 304              		.cfi_startproc
 305              	.LVL23:
 306 018c 130101FF 		addi	sp,sp,-16
 307              		.cfi_def_cfa_offset 16
 308 0190 23341100 		sd	ra,8(sp)
 309 0194 23308100 		sd	s0,0(sp)
 310              		.cfi_offset 1, -8
 311              		.cfi_offset 8, -16
 312 0198 13040101 		addi	s0,sp,16
 313              		.cfi_def_cfa 8, 0
  68:src/PCB.cpp   ****     return kmalloc(size);
 314              		.loc 1 68 5
 315              		.loc 1 68 19 is_stmt 0
 316 019c 97000000 		call	_Z7kmallocm@plt
 316      E7800000 
 317              	.LVL24:
  69:src/PCB.cpp   **** }
 318              		.loc 1 69 1
 319 01a4 83308100 		ld	ra,8(sp)
 320              		.cfi_restore 1
 321 01a8 03340100 		ld	s0,0(sp)
 322              		.cfi_restore 8
 323              		.cfi_def_cfa 2, 16
 324 01ac 13010101 		addi	sp,sp,16
 325              		.cfi_def_cfa_offset 0
 326 01b0 67800000 		jr	ra
 327              		.cfi_endproc
 328              	.LFE28:
 330              		.align	2
 331              		.globl	_ZN3PCBdlEPv
 333              	_ZN3PCBdlEPv:
 334              	.LFB29:
  70:src/PCB.cpp   **** 
  71:src/PCB.cpp   **** void PCB::operator delete(void *p) {
 335              		.loc 1 71 36 is_stmt 1
 336              		.cfi_startproc
 337              	.LVL25:
 338 01b4 130101FF 		addi	sp,sp,-16
 339              		.cfi_def_cfa_offset 16
 340 01b8 23341100 		sd	ra,8(sp)
 341 01bc 23308100 		sd	s0,0(sp)
 342              		.cfi_offset 1, -8
 343              		.cfi_offset 8, -16
 344 01c0 13040101 		addi	s0,sp,16
GAS LISTING /tmp/ccH1DSUj.s 			page 12


 345              		.cfi_def_cfa 8, 0
  72:src/PCB.cpp   ****     kfree(p);
 346              		.loc 1 72 5
 347              		.loc 1 72 10 is_stmt 0
 348 01c4 97000000 		call	_Z5kfreePv@plt
 348      E7800000 
 349              	.LVL26:
  73:src/PCB.cpp   **** }
 350              		.loc 1 73 1
 351 01cc 83308100 		ld	ra,8(sp)
 352              		.cfi_restore 1
 353 01d0 03340100 		ld	s0,0(sp)
 354              		.cfi_restore 8
 355              		.cfi_def_cfa 2, 16
 356 01d4 13010101 		addi	sp,sp,16
 357              		.cfi_def_cfa_offset 0
 358 01d8 67800000 		jr	ra
 359              		.cfi_endproc
 360              	.LFE29:
 362              		.align	2
 363              		.globl	_ZN3PCBD2Ev
 365              	_ZN3PCBD2Ev:
 366              	.LFB31:
  74:src/PCB.cpp   **** 
  75:src/PCB.cpp   **** PCB::~PCB() {
 367              		.loc 1 75 1 is_stmt 1
 368              		.cfi_startproc
 369              		.cfi_personality 0x9b,DW.ref.__gxx_personality_v0
 370              		.cfi_lsda 0x1b,.LLSDA31
 371              	.LVL27:
 372 01dc 130101FF 		addi	sp,sp,-16
 373              		.cfi_def_cfa_offset 16
 374 01e0 23341100 		sd	ra,8(sp)
 375 01e4 23308100 		sd	s0,0(sp)
 376              		.cfi_offset 1, -8
 377              		.cfi_offset 8, -16
 378 01e8 13040101 		addi	s0,sp,16
 379              		.cfi_def_cfa 8, 0
 380              	.LBB39:
  76:src/PCB.cpp   ****     kfree(beginSP);
 381              		.loc 1 76 5
 382              		.loc 1 76 10 is_stmt 0
 383 01ec 03350503 		ld	a0,48(a0)
 384              	.LVL28:
 385 01f0 97000000 		call	_Z5kfreePv@plt
 385      E7800000 
 386              	.LVL29:
 387              	.LBE39:
  77:src/PCB.cpp   **** }
 388              		.loc 1 77 1
 389 01f8 83308100 		ld	ra,8(sp)
 390              		.cfi_restore 1
 391 01fc 03340100 		ld	s0,0(sp)
 392              		.cfi_restore 8
 393              		.cfi_def_cfa 2, 16
 394 0200 13010101 		addi	sp,sp,16
 395              		.cfi_def_cfa_offset 0
GAS LISTING /tmp/ccH1DSUj.s 			page 13


 396 0204 67800000 		jr	ra
 397              		.cfi_endproc
 398              	.LFE31:
 399              		.globl	__gxx_personality_v0
 400              		.section	.gcc_except_table,"a",@progbits
 401              	.LLSDA31:
 402 0000 FF       		.byte	0xff
 403 0001 FF       		.byte	0xff
 404 0002 03       		.byte	0x3
 405 0003 00       		.byte	0
 406              		.text
 408              		.globl	_ZN3PCBD1Ev
 409              		.set	_ZN3PCBD1Ev,_ZN3PCBD2Ev
 410              		.align	2
 411              		.globl	_ZN3PCB10initializeEv
 413              	_ZN3PCB10initializeEv:
 414              	.LFB33:
  78:src/PCB.cpp   **** 
  79:src/PCB.cpp   **** void PCB::initialize()
  80:src/PCB.cpp   **** {
 415              		.loc 1 80 1 is_stmt 1
 416              		.cfi_startproc
 417              		.cfi_personality 0x9b,DW.ref.__gxx_personality_v0
 418              		.cfi_lsda 0x1b,.LLSDA33
 419 0208 130101FE 		addi	sp,sp,-32
 420              		.cfi_def_cfa_offset 32
 421 020c 233C1100 		sd	ra,24(sp)
 422 0210 23388100 		sd	s0,16(sp)
 423 0214 23349100 		sd	s1,8(sp)
 424 0218 23302101 		sd	s2,0(sp)
 425              		.cfi_offset 1, -8
 426              		.cfi_offset 8, -16
 427              		.cfi_offset 9, -24
 428              		.cfi_offset 18, -32
 429 021c 13040102 		addi	s0,sp,32
 430              		.cfi_def_cfa 8, 0
  81:src/PCB.cpp   ****     PCB* mainSystem = new PCB(0, 0, 0, 0);
 431              		.loc 1 81 5
 432              		.loc 1 81 41 is_stmt 0
 433 0220 13050005 		li	a0,80
 434              	.LEHB0:
 435 0224 97000000 		call	_ZN3PCBnwEm
 435      E7800000 
 436              	.LVL30:
 437              	.LEHE0:
 438 022c 93040500 		mv	s1,a0
 439 0230 13070000 		li	a4,0
 440 0234 93060000 		li	a3,0
 441 0238 13060000 		li	a2,0
 442 023c 93050000 		li	a1,0
 443              	.LEHB1:
 444 0240 97000000 		call	_ZN3PCBC1EPFvPvES0_S0_m
 444      E7800000 
 445              	.LVL31:
 446              	.LEHE1:
  82:src/PCB.cpp   ****     mainSystem->systemThread = true;
 447              		.loc 1 82 5 is_stmt 1 discriminator 2
GAS LISTING /tmp/ccH1DSUj.s 			page 14


 448              		.loc 1 82 30 is_stmt 0 discriminator 2
 449 0248 93071000 		li	a5,1
 450 024c 2380F400 		sb	a5,0(s1)
  83:src/PCB.cpp   ****     PCB::running = Scheduler::get();
 451              		.loc 1 83 5 is_stmt 1 discriminator 2
 452              	.LEHB2:
 453              		.loc 1 83 34 is_stmt 0 discriminator 2
 454 0250 97000000 		call	_ZN9Scheduler3getEv@plt
 454      E7800000 
 455              	.LVL32:
 456              	.LEHE2:
 457              		.loc 1 83 18 discriminator 2
 458 0258 97070000 		sd	a0,.LANCHOR0,a5
 458      23B0A700 
  84:src/PCB.cpp   ****     PCB::running->setState(PCB::RUNNING);
 459              		.loc 1 84 5 is_stmt 1 discriminator 2
 460              	.LVL33:
 461              	.LBB40:
 462              	.LBB41:
 463              		.loc 2 34 29 discriminator 2
 464              		.loc 2 34 35 is_stmt 0 discriminator 2
 465 0260 93071000 		li	a5,1
 466 0264 232CF502 		sw	a5,56(a0)
 467              	.LVL34:
 468              	.LBE41:
 469              	.LBE40:
  85:src/PCB.cpp   **** }
 470              		.loc 1 85 1 discriminator 2
 471 0268 83308101 		ld	ra,24(sp)
 472              		.cfi_remember_state
 473              		.cfi_restore 1
 474 026c 03340101 		ld	s0,16(sp)
 475              		.cfi_restore 8
 476              		.cfi_def_cfa 2, 32
 477 0270 83348100 		ld	s1,8(sp)
 478              		.cfi_restore 9
 479              	.LVL35:
 480 0274 03390100 		ld	s2,0(sp)
 481              		.cfi_restore 18
 482 0278 13010102 		addi	sp,sp,32
 483              		.cfi_def_cfa_offset 0
 484 027c 67800000 		jr	ra
 485              	.L23:
 486              		.cfi_restore_state
 487 0280 13090500 		mv	s2,a0
  81:src/PCB.cpp   ****     mainSystem->systemThread = true;
 488              		.loc 1 81 41
 489 0284 13850400 		mv	a0,s1
 490 0288 97000000 		call	_ZN3PCBdlEPv
 490      E7800000 
 491              	.LVL36:
 492 0290 13050900 		mv	a0,s2
 493              	.LEHB3:
 494 0294 97000000 		call	_Unwind_Resume@plt
 494      E7800000 
 495              	.LVL37:
 496              	.LEHE3:
GAS LISTING /tmp/ccH1DSUj.s 			page 15


 497              		.cfi_endproc
 498              	.LFE33:
 499              		.section	.gcc_except_table
 500              	.LLSDA33:
 501 0004 FF       		.byte	0xff
 502 0005 FF       		.byte	0xff
 503 0006 03       		.byte	0x3
 504 0007 34       		.byte	0x34
 505 0008 00000000 		.4byte	.LEHB0-.LFB33
 506 000c 00000000 		.4byte	.LEHE0-.LEHB0
 507 0010 00000000 		.4byte	0
 508 0014 00       		.byte	0
 509 0015 00000000 		.4byte	.LEHB1-.LFB33
 510 0019 00000000 		.4byte	.LEHE1-.LEHB1
 511 001d 00000000 		.4byte	.L23-.LFB33
 512 0021 00       		.byte	0
 513 0022 00000000 		.4byte	.LEHB2-.LFB33
 514 0026 00000000 		.4byte	.LEHE2-.LEHB2
 515 002a 00000000 		.4byte	0
 516 002e 00       		.byte	0
 517 002f 00000000 		.4byte	.LEHB3-.LFB33
 518 0033 00000000 		.4byte	.LEHE3-.LEHB3
 519 0037 00000000 		.4byte	0
 520 003b 00       		.byte	0
 521              		.text
 523              		.align	2
 524              		.globl	_ZN3PCB10isFinishedEv
 526              	_ZN3PCB10isFinishedEv:
 527              	.LFB34:
  86:src/PCB.cpp   **** 
  87:src/PCB.cpp   **** bool PCB::isFinished()
  88:src/PCB.cpp   **** {
 528              		.loc 1 88 1 is_stmt 1
 529              		.cfi_startproc
 530              	.LVL38:
 531 029c 130101FF 		addi	sp,sp,-16
 532              		.cfi_def_cfa_offset 16
 533 02a0 23348100 		sd	s0,8(sp)
 534              		.cfi_offset 8, -8
 535 02a4 13040101 		addi	s0,sp,16
 536              		.cfi_def_cfa 8, 0
  89:src/PCB.cpp   ****     return state == PCB::FINISHED;
 537              		.loc 1 89 5
 538              		.loc 1 89 12 is_stmt 0
 539 02a8 03258503 		lw	a0,56(a0)
 540              	.LVL39:
 541              		.loc 1 89 26
 542 02ac 1305D5FF 		addi	a0,a0,-3
  90:src/PCB.cpp   **** }
 543              		.loc 1 90 1
 544 02b0 13351500 		seqz	a0,a0
 545 02b4 03348100 		ld	s0,8(sp)
 546              		.cfi_restore 8
 547              		.cfi_def_cfa 2, 16
 548 02b8 13010101 		addi	sp,sp,16
 549              		.cfi_def_cfa_offset 0
 550 02bc 67800000 		jr	ra
GAS LISTING /tmp/ccH1DSUj.s 			page 16


 551              		.cfi_endproc
 552              	.LFE34:
 554              		.align	2
 555              		.globl	_ZN3PCB19threadCreateHandlerEv
 557              	_ZN3PCB19threadCreateHandlerEv:
 558              	.LFB35:
  91:src/PCB.cpp   **** 
  92:src/PCB.cpp   **** void PCB::threadCreateHandler()
  93:src/PCB.cpp   **** {
 559              		.loc 1 93 1 is_stmt 1
 560              		.cfi_startproc
 561 02c0 130101FF 		addi	sp,sp,-16
 562              		.cfi_def_cfa_offset 16
 563 02c4 23348100 		sd	s0,8(sp)
 564              		.cfi_offset 8, -8
 565 02c8 13040101 		addi	s0,sp,16
 566              		.cfi_def_cfa 8, 0
  94:src/PCB.cpp   **** 
  95:src/PCB.cpp   **** }
 567              		.loc 1 95 1 is_stmt 0
 568 02cc 03348100 		ld	s0,8(sp)
 569              		.cfi_restore 8
 570              		.cfi_def_cfa 2, 16
 571 02d0 13010101 		addi	sp,sp,16
 572              		.cfi_def_cfa_offset 0
 573 02d4 67800000 		jr	ra
 574              		.cfi_endproc
 575              	.LFE35:
 577              		.section	.rodata.str1.8
 578 0013 00000000 		.align	3
 578      00
 579              	.LC1:
 580 0018 45786974 		.string	"Exiting thread...\n"
 580      696E6720 
 580      74687265 
 580      61642E2E 
 580      2E0A00
 581              		.text
 582              		.align	2
 583              		.globl	_ZN3PCB17threadExitHandlerEv
 585              	_ZN3PCB17threadExitHandlerEv:
 586              	.LFB36:
  96:src/PCB.cpp   **** 
  97:src/PCB.cpp   **** void PCB::threadExitHandler()
  98:src/PCB.cpp   **** {
 587              		.loc 1 98 1 is_stmt 1
 588              		.cfi_startproc
 589 02d8 130101FE 		addi	sp,sp,-32
 590              		.cfi_def_cfa_offset 32
 591 02dc 233C1100 		sd	ra,24(sp)
 592 02e0 23388100 		sd	s0,16(sp)
 593              		.cfi_offset 1, -8
 594              		.cfi_offset 8, -16
 595 02e4 13040102 		addi	s0,sp,32
 596              		.cfi_def_cfa 8, 0
  99:src/PCB.cpp   ****     Riscv::printString("Exiting thread...\n");
 597              		.loc 1 99 5
GAS LISTING /tmp/ccH1DSUj.s 			page 17


 598              		.loc 1 99 23 is_stmt 0
 599 02e8 17050000 		lla	a0,.LC1
 599      13050500 
 600 02f0 97000000 		call	_ZN5Riscv11printStringEPKc@plt
 600      E7800000 
 601              	.LVL40:
 100:src/PCB.cpp   ****     volatile uint64 sstatus = Riscv::r_sstatus();
 602              		.loc 1 100 5 is_stmt 1
 603              	.LBB42:
 604              	.LBB43:
 156:src/../h/Riscv.hpp **** 
 157:src/../h/Riscv.hpp **** inline uint64 Riscv::r_sstatus() {
 158:src/../h/Riscv.hpp ****     uint64 volatile sstatus;
 605              		.loc 3 158 5
 159:src/../h/Riscv.hpp ****     __asm__ volatile("csrr %0, sstatus" : "=r"(sstatus));
 606              		.loc 3 159 5
 607              		.loc 3 159 57 is_stmt 0
 608              	#APP
 609              	# 159 "src/../h/Riscv.hpp" 1
 160              	    return sstatus;
 610              		csrr a5, sstatus
 611              	# 0 "" 2
 612              	#NO_APP
 613 02fc 2330F4FE 		sd	a5,-32(s0)
 614              		.loc 3 160 5 is_stmt 1
 615              		.loc 3 160 12 is_stmt 0
 616 0300 833704FE 		ld	a5,-32(s0)
 617              	.LBE43:
 618              	.LBE42:
 619              		.loc 1 100 48
 620 0304 2334F4FE 		sd	a5,-24(s0)
 101:src/PCB.cpp   ****     PCB::timeSliceCounter = 0;
 621              		.loc 1 101 5 is_stmt 1
 622              		.loc 1 101 27 is_stmt 0
 623 0308 97070000 		lla	a5,.LANCHOR0
 623      93870700 
 624 0310 23B40700 		sd	zero,8(a5)
 102:src/PCB.cpp   ****     PCB::running->setState(PCB::EXITING);
 625              		.loc 1 102 5 is_stmt 1
 626              		.loc 1 102 27 is_stmt 0
 627 0314 83B70700 		ld	a5,0(a5)
 628              	.LVL41:
 629              		.loc 2 34 29 is_stmt 1
 103:src/PCB.cpp   ****     PCB::running->setState(PCB::FINISHED);
 630              		.loc 1 103 5
 631              	.LBB44:
 632              	.LBB45:
 633              		.loc 2 34 29
 634              		.loc 2 34 35 is_stmt 0
 635 0318 13073000 		li	a4,3
 636 031c 23ACE702 		sw	a4,56(a5)
 637              	.LVL42:
 638              	.LBE45:
 639              	.LBE44:
 104:src/PCB.cpp   ****     PCB::dispatch();
 640              		.loc 1 104 5 is_stmt 1
 641              		.loc 1 104 18 is_stmt 0
GAS LISTING /tmp/ccH1DSUj.s 			page 18


 642 0320 97000000 		call	_ZN3PCB8dispatchEv
 642      E7800000 
 643              	.LVL43:
 105:src/PCB.cpp   ****     Riscv::w_sstatus(sstatus);
 644              		.loc 1 105 5 is_stmt 1
 645              		.loc 1 105 21 is_stmt 0
 646 0328 833784FE 		ld	a5,-24(s0)
 647              	.LVL44:
 648              	.LBB46:
 649              	.LBB47:
 161:src/../h/Riscv.hpp **** }
 162:src/../h/Riscv.hpp **** 
 163:src/../h/Riscv.hpp **** inline void Riscv::w_sstatus(uint64 sstatus) {
 164:src/../h/Riscv.hpp ****     __asm__ volatile("csrw sstatus, %0" : :"r"(sstatus));
 650              		.loc 3 164 5 is_stmt 1
 651              		.loc 3 164 57 is_stmt 0
 652              	#APP
 653              	# 164 "src/../h/Riscv.hpp" 1
 165              	}
 654              		csrw sstatus, a5
 655              	# 0 "" 2
 656              	.LVL45:
 657              	#NO_APP
 658              	.LBE47:
 659              	.LBE46:
 106:src/PCB.cpp   ****     __asm__ volatile("li a0, 0");
 660              		.loc 1 106 5 is_stmt 1
 661              		.loc 1 106 33 is_stmt 0
 662              	#APP
 663              	# 106 "src/PCB.cpp" 1
 107              	}
 664              		li a0, 0
 665              	# 0 "" 2
 666              		.loc 1 107 1
 667              	#NO_APP
 668 0334 83308101 		ld	ra,24(sp)
 669              		.cfi_restore 1
 670 0338 03340101 		ld	s0,16(sp)
 671              		.cfi_restore 8
 672              		.cfi_def_cfa 2, 32
 673 033c 13010102 		addi	sp,sp,32
 674              		.cfi_def_cfa_offset 0
 675 0340 67800000 		jr	ra
 676              		.cfi_endproc
 677              	.LFE36:
 679              		.align	2
 680              		.globl	_ZN3PCB21threadDispatchHandlerEv
 682              	_ZN3PCB21threadDispatchHandlerEv:
 683              	.LFB37:
 108:src/PCB.cpp   **** 
 109:src/PCB.cpp   **** void PCB::threadDispatchHandler()
 110:src/PCB.cpp   **** {
 684              		.loc 1 110 1 is_stmt 1
 685              		.cfi_startproc
 686 0344 130101FE 		addi	sp,sp,-32
 687              		.cfi_def_cfa_offset 32
 688 0348 233C1100 		sd	ra,24(sp)
GAS LISTING /tmp/ccH1DSUj.s 			page 19


 689 034c 23388100 		sd	s0,16(sp)
 690              		.cfi_offset 1, -8
 691              		.cfi_offset 8, -16
 692 0350 13040102 		addi	s0,sp,32
 693              		.cfi_def_cfa 8, 0
 111:src/PCB.cpp   ****     volatile uint64 sstatus = Riscv::r_sstatus();
 694              		.loc 1 111 5
 695              	.LBB48:
 696              	.LBB49:
 158:src/../h/Riscv.hpp ****     __asm__ volatile("csrr %0, sstatus" : "=r"(sstatus));
 697              		.loc 3 158 5
 159:src/../h/Riscv.hpp ****     return sstatus;
 698              		.loc 3 159 5
 159:src/../h/Riscv.hpp ****     return sstatus;
 699              		.loc 3 159 57 is_stmt 0
 700              	#APP
 701              	# 159 "src/../h/Riscv.hpp" 1
 702              		csrr a5, sstatus
 703              	# 0 "" 2
 704              	#NO_APP
 705 0358 2330F4FE 		sd	a5,-32(s0)
 160:src/../h/Riscv.hpp **** }
 706              		.loc 3 160 5 is_stmt 1
 160:src/../h/Riscv.hpp **** }
 707              		.loc 3 160 12 is_stmt 0
 708 035c 833704FE 		ld	a5,-32(s0)
 709              	.LBE49:
 710              	.LBE48:
 711              		.loc 1 111 48
 712 0360 2334F4FE 		sd	a5,-24(s0)
 112:src/PCB.cpp   ****     PCB::timeSliceCounter = 0;
 713              		.loc 1 112 5 is_stmt 1
 714              		.loc 1 112 27 is_stmt 0
 715 0364 97070000 		sd	zero,.LANCHOR0+8,a5
 715      23B00700 
 113:src/PCB.cpp   ****     PCB::dispatch();
 716              		.loc 1 113 5 is_stmt 1
 717              		.loc 1 113 18 is_stmt 0
 718 036c 97000000 		call	_ZN3PCB8dispatchEv
 718      E7800000 
 719              	.LVL46:
 114:src/PCB.cpp   ****     Riscv::w_sstatus(sstatus);
 720              		.loc 1 114 5 is_stmt 1
 721              		.loc 1 114 21 is_stmt 0
 722 0374 833784FE 		ld	a5,-24(s0)
 723              	.LVL47:
 724              	.LBB50:
 725              	.LBB51:
 164:src/../h/Riscv.hpp **** }
 726              		.loc 3 164 5 is_stmt 1
 164:src/../h/Riscv.hpp **** }
 727              		.loc 3 164 57 is_stmt 0
 728              	#APP
 729              	# 164 "src/../h/Riscv.hpp" 1
 730              		csrw sstatus, a5
 731              	# 0 "" 2
 732              	.LVL48:
GAS LISTING /tmp/ccH1DSUj.s 			page 20


 733              	#NO_APP
 734              	.LBE51:
 735              	.LBE50:
 115:src/PCB.cpp   **** }
 736              		.loc 1 115 1
 737 037c 83308101 		ld	ra,24(sp)
 738              		.cfi_restore 1
 739 0380 03340101 		ld	s0,16(sp)
 740              		.cfi_restore 8
 741              		.cfi_def_cfa 2, 32
 742 0384 13010102 		addi	sp,sp,32
 743              		.cfi_def_cfa_offset 0
 744 0388 67800000 		jr	ra
 745              		.cfi_endproc
 746              	.LFE37:
 748              		.align	2
 749              		.globl	_ZN3PCB18threadSleepHandlerEv
 751              	_ZN3PCB18threadSleepHandlerEv:
 752              	.LFB38:
 116:src/PCB.cpp   **** 
 117:src/PCB.cpp   **** void PCB::threadSleepHandler()
 118:src/PCB.cpp   **** {
 753              		.loc 1 118 1 is_stmt 1
 754              		.cfi_startproc
 755 038c 130101FE 		addi	sp,sp,-32
 756              		.cfi_def_cfa_offset 32
 757 0390 233C1100 		sd	ra,24(sp)
 758 0394 23388100 		sd	s0,16(sp)
 759              		.cfi_offset 1, -8
 760              		.cfi_offset 8, -16
 761 0398 13040102 		addi	s0,sp,32
 762              		.cfi_def_cfa 8, 0
 119:src/PCB.cpp   ****     uint64 time;
 763              		.loc 1 119 5
 120:src/PCB.cpp   ****     __asm__ volatile("mv %0, a1" : "=r"(time));
 764              		.loc 1 120 5
 765              		.loc 1 120 47 is_stmt 0
 766              	#APP
 767              	# 120 "src/PCB.cpp" 1
 121              	    volatile uint64 sstatus = Riscv::r_sstatus();
 768              		mv a4, a1
 769              	# 0 "" 2
 770              	.LVL49:
 771              		.loc 1 121 5 is_stmt 1
 772              	#NO_APP
 773              	.LBB52:
 774              	.LBB53:
 158:src/../h/Riscv.hpp ****     __asm__ volatile("csrr %0, sstatus" : "=r"(sstatus));
 775              		.loc 3 158 5
 159:src/../h/Riscv.hpp ****     return sstatus;
 776              		.loc 3 159 5
 159:src/../h/Riscv.hpp ****     return sstatus;
 777              		.loc 3 159 57 is_stmt 0
 778              	#APP
 779              	# 159 "src/../h/Riscv.hpp" 1
 780              		csrr a5, sstatus
 781              	# 0 "" 2
GAS LISTING /tmp/ccH1DSUj.s 			page 21


 782              	#NO_APP
 783 03a4 2330F4FE 		sd	a5,-32(s0)
 160:src/../h/Riscv.hpp **** }
 784              		.loc 3 160 5 is_stmt 1
 160:src/../h/Riscv.hpp **** }
 785              		.loc 3 160 12 is_stmt 0
 786 03a8 833704FE 		ld	a5,-32(s0)
 787              	.LBE53:
 788              	.LBE52:
 789              		.loc 1 121 48
 790 03ac 2334F4FE 		sd	a5,-24(s0)
 122:src/PCB.cpp   ****     PCB::timeSliceCounter = 0;
 791              		.loc 1 122 5 is_stmt 1
 792              		.loc 1 122 27 is_stmt 0
 793 03b0 97070000 		lla	a5,.LANCHOR0
 793      93870700 
 794 03b8 23B40700 		sd	zero,8(a5)
 123:src/PCB.cpp   ****     PCB::running->setTimeToSleep(time);
 795              		.loc 1 123 5 is_stmt 1
 796              		.loc 1 123 33 is_stmt 0
 797 03bc 83B70700 		ld	a5,0(a5)
 798              	.LVL50:
 799              	.LBB54:
 800              	.LBB55:
  35:src/../h/PCB.hpp ****     void setTimeToSleep(uint64 time) {timeToSleep = time;}
 801              		.loc 2 35 39 is_stmt 1
 802              		.loc 2 35 51 is_stmt 0
 803 03c0 23BCE700 		sd	a4,24(a5)
 804              	.LVL51:
 805              	.LBE55:
 806              	.LBE54:
 124:src/PCB.cpp   ****     SleepPCBList::insertSleepingPCB();
 807              		.loc 1 124 5 is_stmt 1
 808              		.loc 1 124 36 is_stmt 0
 809 03c4 97000000 		call	_ZN12SleepPCBList17insertSleepingPCBEv@plt
 809      E7800000 
 810              	.LVL52:
 125:src/PCB.cpp   ****     PCB::dispatch();
 811              		.loc 1 125 5 is_stmt 1
 812              		.loc 1 125 18 is_stmt 0
 813 03cc 97000000 		call	_ZN3PCB8dispatchEv
 813      E7800000 
 814              	.LVL53:
 126:src/PCB.cpp   ****     Riscv::w_sstatus(sstatus);
 815              		.loc 1 126 5 is_stmt 1
 816              		.loc 1 126 21 is_stmt 0
 817 03d4 833784FE 		ld	a5,-24(s0)
 818              	.LVL54:
 819              	.LBB56:
 820              	.LBB57:
 164:src/../h/Riscv.hpp **** }
 821              		.loc 3 164 5 is_stmt 1
 164:src/../h/Riscv.hpp **** }
 822              		.loc 3 164 57 is_stmt 0
 823              	#APP
 824              	# 164 "src/../h/Riscv.hpp" 1
 825              		csrw sstatus, a5
GAS LISTING /tmp/ccH1DSUj.s 			page 22


 826              	# 0 "" 2
 827              	.LVL55:
 828              	#NO_APP
 829              	.LBE57:
 830              	.LBE56:
 127:src/PCB.cpp   ****     __asm__ volatile("li a0, 0x0");
 831              		.loc 1 127 5 is_stmt 1
 832              		.loc 1 127 35 is_stmt 0
 833              	#APP
 834              	# 127 "src/PCB.cpp" 1
 128              	}
 835              		li a0, 0x0
 836              	# 0 "" 2
 837              		.loc 1 128 1
 838              	#NO_APP
 839 03e0 83308101 		ld	ra,24(sp)
 840              		.cfi_restore 1
 841 03e4 03340101 		ld	s0,16(sp)
 842              		.cfi_restore 8
 843              		.cfi_def_cfa 2, 32
 844 03e8 13010102 		addi	sp,sp,32
 845              		.cfi_def_cfa_offset 0
 846 03ec 67800000 		jr	ra
 847              		.cfi_endproc
 848              	.LFE38:
 850              		.globl	_ZN3PCB16timeSliceCounterE
 851              		.globl	_ZN3PCB7runningE
 852              		.bss
 853              		.align	3
 854              		.set	.LANCHOR0,. + 0
 857              	_ZN3PCB7runningE:
 858 0000 00000000 		.zero	8
 858      00000000 
 861              	_ZN3PCB16timeSliceCounterE:
 862 0008 00000000 		.zero	8
 862      00000000 
 863              		.text
 864              	.Letext0:
 865              		.file 4 "src/../h/../lib/hw.h"
 866              		.file 5 "src/../h/Scheduler.hpp"
 867              		.file 6 "src/../h/SleepPCBList.hpp"
 868              		.file 7 "src/../h/MemoryAllocator.hpp"
 869              		.file 8 "src/../h/syscall_c.h"
 4551              		.align	3
 4554              	DW.ref.__gxx_personality_v0:
 4555 0000 00000000 		.dword	__gxx_personality_v0
 4555      00000000 
 4556              		.ident	"GCC: (Ubuntu 9.3.0-17ubuntu1~20.04) 9.3.0"
 4557              		.section	.note.GNU-stack,"",@progbits
GAS LISTING /tmp/ccH1DSUj.s 			page 23


DEFINED SYMBOLS
                            *ABS*:0000000000000000 PCB.cpp
     /tmp/ccH1DSUj.s:14     .text:0000000000000000 _ZN3PCB6runnerEv
     /tmp/ccH1DSUj.s:18     .text:0000000000000000 .L0 
     /tmp/ccH1DSUj.s:19     .text:0000000000000000 .L0 
     /tmp/ccH1DSUj.s:20     .text:0000000000000004 .L0 
     /tmp/ccH1DSUj.s:23     .text:000000000000000c .L0 
     /tmp/ccH1DSUj.s:24     .text:000000000000000c .L0 
     /tmp/ccH1DSUj.s:26     .text:0000000000000010 .L0 
     /tmp/ccH1DSUj.s:28     .text:0000000000000010 .L0 
     /tmp/ccH1DSUj.s:29     .text:0000000000000010 .L0 
     /tmp/ccH1DSUj.s:33     .text:0000000000000020 .L0 
     /tmp/ccH1DSUj.s:34     .text:0000000000000020 .L0 
     /tmp/ccH1DSUj.s:37     .text:0000000000000028 .L0 
     /tmp/ccH1DSUj.s:38     .text:0000000000000028 .L0 
     /tmp/ccH1DSUj.s:41     .text:0000000000000034 .L0 
     /tmp/ccH1DSUj.s:45     .text:000000000000003c .L0 
     /tmp/ccH1DSUj.s:46     .text:000000000000003c .L0 
     /tmp/ccH1DSUj.s:49     .text:0000000000000044 .L0 
     /tmp/ccH1DSUj.s:50     .text:0000000000000048 .L0 
     /tmp/ccH1DSUj.s:52     .text:000000000000004c .L0 
     /tmp/ccH1DSUj.s:53     .text:000000000000004c .L0 
     /tmp/ccH1DSUj.s:55     .text:0000000000000050 .L0 
     /tmp/ccH1DSUj.s:57     .text:0000000000000054 .L0 
     /tmp/ccH1DSUj.s:63     .text:0000000000000054 _ZN3PCBC2EPFvPvES0_S0_m
     /tmp/ccH1DSUj.s:66     .text:0000000000000054 .L0 
     /tmp/ccH1DSUj.s:68     .text:0000000000000054 .L0 
     /tmp/ccH1DSUj.s:69     .text:0000000000000058 .L0 
     /tmp/ccH1DSUj.s:73     .text:0000000000000064 .L0 
     /tmp/ccH1DSUj.s:74     .text:0000000000000064 .L0 
     /tmp/ccH1DSUj.s:75     .text:0000000000000064 .L0 
     /tmp/ccH1DSUj.s:77     .text:0000000000000068 .L0 
     /tmp/ccH1DSUj.s:81     .text:000000000000006c .L0 
     /tmp/ccH1DSUj.s:88     .text:0000000000000084 .L0 
     /tmp/ccH1DSUj.s:92     .text:000000000000008c .L0 
     /tmp/ccH1DSUj.s:96     .text:000000000000009c .L0 
     /tmp/ccH1DSUj.s:97     .text:000000000000009c .L0 
     /tmp/ccH1DSUj.s:100    .text:00000000000000a4 .L0 
     /tmp/ccH1DSUj.s:101    .text:00000000000000a4 .L0 
     /tmp/ccH1DSUj.s:104    .text:00000000000000a8 .L0 
     /tmp/ccH1DSUj.s:105    .text:00000000000000ac .L0 
     /tmp/ccH1DSUj.s:107    .text:00000000000000b0 .L0 
     /tmp/ccH1DSUj.s:108    .text:00000000000000b0 .L0 
     /tmp/ccH1DSUj.s:110    .text:00000000000000b4 .L0 
     /tmp/ccH1DSUj.s:113    .text:00000000000000b8 .L0 
     /tmp/ccH1DSUj.s:115    .text:00000000000000bc .L0 
     /tmp/ccH1DSUj.s:63     .text:0000000000000054 _ZN3PCBC1EPFvPvES0_S0_m
     /tmp/ccH1DSUj.s:123    .text:00000000000000bc _ZN3PCB5sleepEm
     /tmp/ccH1DSUj.s:126    .text:00000000000000bc .L0 
     /tmp/ccH1DSUj.s:128    .text:00000000000000bc .L0 
     /tmp/ccH1DSUj.s:129    .text:00000000000000c0 .L0 
     /tmp/ccH1DSUj.s:131    .text:00000000000000c4 .L0 
     /tmp/ccH1DSUj.s:133    .text:00000000000000c8 .L0 
     /tmp/ccH1DSUj.s:135    .text:00000000000000c8 .L0 
     /tmp/ccH1DSUj.s:136    .text:00000000000000cc .L0 
     /tmp/ccH1DSUj.s:137    .text:00000000000000cc .L0 
     /tmp/ccH1DSUj.s:139    .text:00000000000000d0 .L0 
GAS LISTING /tmp/ccH1DSUj.s 			page 24


     /tmp/ccH1DSUj.s:141    .text:00000000000000d4 .L0 
     /tmp/ccH1DSUj.s:147    .text:00000000000000d4 _ZN3PCB5startEv
     /tmp/ccH1DSUj.s:150    .text:00000000000000d4 .L0 
     /tmp/ccH1DSUj.s:152    .text:00000000000000d4 .L0 
     /tmp/ccH1DSUj.s:153    .text:00000000000000d8 .L0 
     /tmp/ccH1DSUj.s:156    .text:00000000000000e0 .L0 
     /tmp/ccH1DSUj.s:157    .text:00000000000000e0 .L0 
     /tmp/ccH1DSUj.s:159    .text:00000000000000e4 .L0 
     /tmp/ccH1DSUj.s:161    .text:00000000000000e4 .L0 
     /tmp/ccH1DSUj.s:162    .text:00000000000000e4 .L0 
     /tmp/ccH1DSUj.s:165    .text:00000000000000ec .L0 
     /tmp/ccH1DSUj.s:166    .text:00000000000000f0 .L0 
     /tmp/ccH1DSUj.s:168    .text:00000000000000f4 .L0 
     /tmp/ccH1DSUj.s:169    .text:00000000000000f4 .L0 
     /tmp/ccH1DSUj.s:171    .text:00000000000000f8 .L0 
     /tmp/ccH1DSUj.s:173    .text:00000000000000fc .L0 
     /tmp/ccH1DSUj.s:179    .text:00000000000000fc _ZN3PCB8dispatchEv
     /tmp/ccH1DSUj.s:182    .text:00000000000000fc .L0 
     /tmp/ccH1DSUj.s:183    .text:00000000000000fc .L0 
     /tmp/ccH1DSUj.s:184    .text:0000000000000100 .L0 
     /tmp/ccH1DSUj.s:188    .text:000000000000010c .L0 
     /tmp/ccH1DSUj.s:189    .text:000000000000010c .L0 
     /tmp/ccH1DSUj.s:190    .text:000000000000010c .L0 
     /tmp/ccH1DSUj.s:192    .text:0000000000000110 .L0 
     /tmp/ccH1DSUj.s:194    .text:0000000000000110 .L0 
     /tmp/ccH1DSUj.s:195    .text:0000000000000110 .L0 
     /tmp/ccH1DSUj.s:201    .text:0000000000000118 .L0 
     /tmp/ccH1DSUj.s:202    .text:0000000000000118 .L0 
     /tmp/ccH1DSUj.s:203    .text:0000000000000118 .L0 
     /tmp/ccH1DSUj.s:208    .text:000000000000011c .L0 
     /tmp/ccH1DSUj.s:212    .text:0000000000000124 .L0 
     /tmp/ccH1DSUj.s:213    .text:0000000000000124 .L0 
     /tmp/ccH1DSUj.s:216    .text:000000000000012c .L0 
     /tmp/ccH1DSUj.s:221    .text:0000000000000134 .L0 
     /tmp/ccH1DSUj.s:222    .text:0000000000000134 .L0 
     /tmp/ccH1DSUj.s:223    .text:0000000000000134 .L0 
     /tmp/ccH1DSUj.s:229    .text:000000000000013c .L0 
     /tmp/ccH1DSUj.s:230    .text:000000000000013c .L0 
     /tmp/ccH1DSUj.s:232    .text:0000000000000140 .L0 
     /tmp/ccH1DSUj.s:238    .text:0000000000000144 .L0 
     /tmp/ccH1DSUj.s:239    .text:0000000000000144 .L0 
     /tmp/ccH1DSUj.s:240    .text:0000000000000144 .L0 
     /tmp/ccH1DSUj.s:251    .text:000000000000014c .L0 
     /tmp/ccH1DSUj.s:252    .text:000000000000014c .L0 
     /tmp/ccH1DSUj.s:257    .text:000000000000015c .L0 
     /tmp/ccH1DSUj.s:258    .text:0000000000000160 .L0 
     /tmp/ccH1DSUj.s:259    .text:0000000000000160 .L0 
     /tmp/ccH1DSUj.s:261    .text:0000000000000164 .L0 
     /tmp/ccH1DSUj.s:262    .text:0000000000000164 .L0 
     /tmp/ccH1DSUj.s:264    .text:0000000000000168 .L0 
     /tmp/ccH1DSUj.s:267    .text:000000000000016c .L0 
     /tmp/ccH1DSUj.s:271    .text:0000000000000170 .L0 
     /tmp/ccH1DSUj.s:273    .text:0000000000000170 .L0 
     /tmp/ccH1DSUj.s:274    .text:0000000000000170 .L0 
     /tmp/ccH1DSUj.s:283    .text:0000000000000180 .L0 
     /tmp/ccH1DSUj.s:284    .text:0000000000000180 .L0 
     /tmp/ccH1DSUj.s:285    .text:0000000000000180 .L0 
GAS LISTING /tmp/ccH1DSUj.s 			page 25


     /tmp/ccH1DSUj.s:292    .text:0000000000000188 .L0 
     /tmp/ccH1DSUj.s:295    .text:000000000000018c .L0 
     /tmp/ccH1DSUj.s:301    .text:000000000000018c _ZN3PCBnwEm
     /tmp/ccH1DSUj.s:304    .text:000000000000018c .L0 
     /tmp/ccH1DSUj.s:306    .text:000000000000018c .L0 
     /tmp/ccH1DSUj.s:307    .text:0000000000000190 .L0 
     /tmp/ccH1DSUj.s:310    .text:0000000000000198 .L0 
     /tmp/ccH1DSUj.s:311    .text:0000000000000198 .L0 
     /tmp/ccH1DSUj.s:313    .text:000000000000019c .L0 
     /tmp/ccH1DSUj.s:315    .text:000000000000019c .L0 
     /tmp/ccH1DSUj.s:316    .text:000000000000019c .L0 
     /tmp/ccH1DSUj.s:319    .text:00000000000001a4 .L0 
     /tmp/ccH1DSUj.s:320    .text:00000000000001a8 .L0 
     /tmp/ccH1DSUj.s:322    .text:00000000000001ac .L0 
     /tmp/ccH1DSUj.s:323    .text:00000000000001ac .L0 
     /tmp/ccH1DSUj.s:325    .text:00000000000001b0 .L0 
     /tmp/ccH1DSUj.s:327    .text:00000000000001b4 .L0 
     /tmp/ccH1DSUj.s:333    .text:00000000000001b4 _ZN3PCBdlEPv
     /tmp/ccH1DSUj.s:336    .text:00000000000001b4 .L0 
     /tmp/ccH1DSUj.s:338    .text:00000000000001b4 .L0 
     /tmp/ccH1DSUj.s:339    .text:00000000000001b8 .L0 
     /tmp/ccH1DSUj.s:342    .text:00000000000001c0 .L0 
     /tmp/ccH1DSUj.s:343    .text:00000000000001c0 .L0 
     /tmp/ccH1DSUj.s:345    .text:00000000000001c4 .L0 
     /tmp/ccH1DSUj.s:347    .text:00000000000001c4 .L0 
     /tmp/ccH1DSUj.s:348    .text:00000000000001c4 .L0 
     /tmp/ccH1DSUj.s:351    .text:00000000000001cc .L0 
     /tmp/ccH1DSUj.s:352    .text:00000000000001d0 .L0 
     /tmp/ccH1DSUj.s:354    .text:00000000000001d4 .L0 
     /tmp/ccH1DSUj.s:355    .text:00000000000001d4 .L0 
     /tmp/ccH1DSUj.s:357    .text:00000000000001d8 .L0 
     /tmp/ccH1DSUj.s:359    .text:00000000000001dc .L0 
     /tmp/ccH1DSUj.s:365    .text:00000000000001dc _ZN3PCBD2Ev
     /tmp/ccH1DSUj.s:368    .text:00000000000001dc .L0 
     /tmp/ccH1DSUj.s:4554   .data.rel.local.DW.ref.__gxx_personality_v0:0000000000000000 DW.ref.__gxx_personality_v0
     /tmp/ccH1DSUj.s:372    .text:00000000000001dc .L0 
     /tmp/ccH1DSUj.s:373    .text:00000000000001e0 .L0 
     /tmp/ccH1DSUj.s:376    .text:00000000000001e8 .L0 
     /tmp/ccH1DSUj.s:377    .text:00000000000001e8 .L0 
     /tmp/ccH1DSUj.s:379    .text:00000000000001ec .L0 
     /tmp/ccH1DSUj.s:382    .text:00000000000001ec .L0 
     /tmp/ccH1DSUj.s:383    .text:00000000000001ec .L0 
     /tmp/ccH1DSUj.s:389    .text:00000000000001f8 .L0 
     /tmp/ccH1DSUj.s:390    .text:00000000000001fc .L0 
     /tmp/ccH1DSUj.s:392    .text:0000000000000200 .L0 
     /tmp/ccH1DSUj.s:393    .text:0000000000000200 .L0 
     /tmp/ccH1DSUj.s:395    .text:0000000000000204 .L0 
     /tmp/ccH1DSUj.s:397    .text:0000000000000208 .L0 
     /tmp/ccH1DSUj.s:365    .text:00000000000001dc _ZN3PCBD1Ev
     /tmp/ccH1DSUj.s:413    .text:0000000000000208 _ZN3PCB10initializeEv
     /tmp/ccH1DSUj.s:416    .text:0000000000000208 .L0 
     /tmp/ccH1DSUj.s:419    .text:0000000000000208 .L0 
     /tmp/ccH1DSUj.s:420    .text:000000000000020c .L0 
     /tmp/ccH1DSUj.s:425    .text:000000000000021c .L0 
     /tmp/ccH1DSUj.s:426    .text:000000000000021c .L0 
     /tmp/ccH1DSUj.s:427    .text:000000000000021c .L0 
     /tmp/ccH1DSUj.s:428    .text:000000000000021c .L0 
GAS LISTING /tmp/ccH1DSUj.s 			page 26


     /tmp/ccH1DSUj.s:430    .text:0000000000000220 .L0 
     /tmp/ccH1DSUj.s:432    .text:0000000000000220 .L0 
     /tmp/ccH1DSUj.s:433    .text:0000000000000220 .L0 
     /tmp/ccH1DSUj.s:448    .text:0000000000000248 .L0 
     /tmp/ccH1DSUj.s:449    .text:0000000000000248 .L0 
     /tmp/ccH1DSUj.s:453    .text:0000000000000250 .L0 
     /tmp/ccH1DSUj.s:454    .text:0000000000000250 .L0 
     /tmp/ccH1DSUj.s:458    .text:0000000000000258 .L0 
     /tmp/ccH1DSUj.s:463    .text:0000000000000260 .L0 
     /tmp/ccH1DSUj.s:464    .text:0000000000000260 .L0 
     /tmp/ccH1DSUj.s:465    .text:0000000000000260 .L0 
     /tmp/ccH1DSUj.s:471    .text:0000000000000268 .L0 
     /tmp/ccH1DSUj.s:472    .text:000000000000026c .L0 
     /tmp/ccH1DSUj.s:473    .text:000000000000026c .L0 
     /tmp/ccH1DSUj.s:475    .text:0000000000000270 .L0 
     /tmp/ccH1DSUj.s:476    .text:0000000000000270 .L0 
     /tmp/ccH1DSUj.s:478    .text:0000000000000274 .L0 
     /tmp/ccH1DSUj.s:481    .text:0000000000000278 .L0 
     /tmp/ccH1DSUj.s:483    .text:000000000000027c .L0 
     /tmp/ccH1DSUj.s:486    .text:0000000000000280 .L0 
     /tmp/ccH1DSUj.s:489    .text:0000000000000284 .L0 
     /tmp/ccH1DSUj.s:497    .text:000000000000029c .L0 
     /tmp/ccH1DSUj.s:526    .text:000000000000029c _ZN3PCB10isFinishedEv
     /tmp/ccH1DSUj.s:529    .text:000000000000029c .L0 
     /tmp/ccH1DSUj.s:531    .text:000000000000029c .L0 
     /tmp/ccH1DSUj.s:532    .text:00000000000002a0 .L0 
     /tmp/ccH1DSUj.s:534    .text:00000000000002a4 .L0 
     /tmp/ccH1DSUj.s:536    .text:00000000000002a8 .L0 
     /tmp/ccH1DSUj.s:538    .text:00000000000002a8 .L0 
     /tmp/ccH1DSUj.s:539    .text:00000000000002a8 .L0 
     /tmp/ccH1DSUj.s:542    .text:00000000000002ac .L0 
     /tmp/ccH1DSUj.s:544    .text:00000000000002b0 .L0 
     /tmp/ccH1DSUj.s:546    .text:00000000000002b8 .L0 
     /tmp/ccH1DSUj.s:547    .text:00000000000002b8 .L0 
     /tmp/ccH1DSUj.s:549    .text:00000000000002bc .L0 
     /tmp/ccH1DSUj.s:551    .text:00000000000002c0 .L0 
     /tmp/ccH1DSUj.s:557    .text:00000000000002c0 _ZN3PCB19threadCreateHandlerEv
     /tmp/ccH1DSUj.s:560    .text:00000000000002c0 .L0 
     /tmp/ccH1DSUj.s:561    .text:00000000000002c0 .L0 
     /tmp/ccH1DSUj.s:562    .text:00000000000002c4 .L0 
     /tmp/ccH1DSUj.s:564    .text:00000000000002c8 .L0 
     /tmp/ccH1DSUj.s:566    .text:00000000000002cc .L0 
     /tmp/ccH1DSUj.s:568    .text:00000000000002cc .L0 
     /tmp/ccH1DSUj.s:569    .text:00000000000002d0 .L0 
     /tmp/ccH1DSUj.s:570    .text:00000000000002d0 .L0 
     /tmp/ccH1DSUj.s:572    .text:00000000000002d4 .L0 
     /tmp/ccH1DSUj.s:574    .text:00000000000002d8 .L0 
     /tmp/ccH1DSUj.s:585    .text:00000000000002d8 _ZN3PCB17threadExitHandlerEv
     /tmp/ccH1DSUj.s:588    .text:00000000000002d8 .L0 
     /tmp/ccH1DSUj.s:589    .text:00000000000002d8 .L0 
     /tmp/ccH1DSUj.s:590    .text:00000000000002dc .L0 
     /tmp/ccH1DSUj.s:593    .text:00000000000002e4 .L0 
     /tmp/ccH1DSUj.s:594    .text:00000000000002e4 .L0 
     /tmp/ccH1DSUj.s:596    .text:00000000000002e8 .L0 
     /tmp/ccH1DSUj.s:598    .text:00000000000002e8 .L0 
     /tmp/ccH1DSUj.s:599    .text:00000000000002e8 .L0 
     /tmp/ccH1DSUj.s:605    .text:00000000000002f8 .L0 
GAS LISTING /tmp/ccH1DSUj.s 			page 27


     /tmp/ccH1DSUj.s:606    .text:00000000000002f8 .L0 
     /tmp/ccH1DSUj.s:607    .text:00000000000002f8 .L0 
  src/../h/Riscv.hpp:159    .text:00000000000002f8 .L0 
     /tmp/ccH1DSUj.s:615    .text:0000000000000300 .L0 
     /tmp/ccH1DSUj.s:616    .text:0000000000000300 .L0 
     /tmp/ccH1DSUj.s:620    .text:0000000000000304 .L0 
     /tmp/ccH1DSUj.s:622    .text:0000000000000308 .L0 
     /tmp/ccH1DSUj.s:623    .text:0000000000000308 .L0 
     /tmp/ccH1DSUj.s:626    .text:0000000000000314 .L0 
     /tmp/ccH1DSUj.s:627    .text:0000000000000314 .L0 
     /tmp/ccH1DSUj.s:630    .text:0000000000000318 .L0 
     /tmp/ccH1DSUj.s:633    .text:0000000000000318 .L0 
     /tmp/ccH1DSUj.s:634    .text:0000000000000318 .L0 
     /tmp/ccH1DSUj.s:635    .text:0000000000000318 .L0 
     /tmp/ccH1DSUj.s:641    .text:0000000000000320 .L0 
     /tmp/ccH1DSUj.s:642    .text:0000000000000320 .L0 
     /tmp/ccH1DSUj.s:645    .text:0000000000000328 .L0 
     /tmp/ccH1DSUj.s:646    .text:0000000000000328 .L0 
     /tmp/ccH1DSUj.s:651    .text:000000000000032c .L0 
  src/../h/Riscv.hpp:164    .text:000000000000032c .L0 
     /tmp/ccH1DSUj.s:661    .text:0000000000000330 .L0 
         src/PCB.cpp:106    .text:0000000000000330 .L0 
     /tmp/ccH1DSUj.s:668    .text:0000000000000334 .L0 
     /tmp/ccH1DSUj.s:669    .text:0000000000000338 .L0 
     /tmp/ccH1DSUj.s:671    .text:000000000000033c .L0 
     /tmp/ccH1DSUj.s:672    .text:000000000000033c .L0 
     /tmp/ccH1DSUj.s:674    .text:0000000000000340 .L0 
     /tmp/ccH1DSUj.s:676    .text:0000000000000344 .L0 
     /tmp/ccH1DSUj.s:682    .text:0000000000000344 _ZN3PCB21threadDispatchHandlerEv
     /tmp/ccH1DSUj.s:685    .text:0000000000000344 .L0 
     /tmp/ccH1DSUj.s:686    .text:0000000000000344 .L0 
     /tmp/ccH1DSUj.s:687    .text:0000000000000348 .L0 
     /tmp/ccH1DSUj.s:690    .text:0000000000000350 .L0 
     /tmp/ccH1DSUj.s:691    .text:0000000000000350 .L0 
     /tmp/ccH1DSUj.s:693    .text:0000000000000354 .L0 
     /tmp/ccH1DSUj.s:697    .text:0000000000000354 .L0 
     /tmp/ccH1DSUj.s:698    .text:0000000000000354 .L0 
     /tmp/ccH1DSUj.s:699    .text:0000000000000354 .L0 
  src/../h/Riscv.hpp:159    .text:0000000000000354 .L0 
     /tmp/ccH1DSUj.s:707    .text:000000000000035c .L0 
     /tmp/ccH1DSUj.s:708    .text:000000000000035c .L0 
     /tmp/ccH1DSUj.s:712    .text:0000000000000360 .L0 
     /tmp/ccH1DSUj.s:714    .text:0000000000000364 .L0 
     /tmp/ccH1DSUj.s:715    .text:0000000000000364 .L0 
     /tmp/ccH1DSUj.s:717    .text:000000000000036c .L0 
     /tmp/ccH1DSUj.s:718    .text:000000000000036c .L0 
     /tmp/ccH1DSUj.s:721    .text:0000000000000374 .L0 
     /tmp/ccH1DSUj.s:722    .text:0000000000000374 .L0 
     /tmp/ccH1DSUj.s:727    .text:0000000000000378 .L0 
  src/../h/Riscv.hpp:164    .text:0000000000000378 .L0 
     /tmp/ccH1DSUj.s:737    .text:000000000000037c .L0 
     /tmp/ccH1DSUj.s:738    .text:0000000000000380 .L0 
     /tmp/ccH1DSUj.s:740    .text:0000000000000384 .L0 
     /tmp/ccH1DSUj.s:741    .text:0000000000000384 .L0 
     /tmp/ccH1DSUj.s:743    .text:0000000000000388 .L0 
     /tmp/ccH1DSUj.s:745    .text:000000000000038c .L0 
     /tmp/ccH1DSUj.s:751    .text:000000000000038c _ZN3PCB18threadSleepHandlerEv
GAS LISTING /tmp/ccH1DSUj.s 			page 28


     /tmp/ccH1DSUj.s:754    .text:000000000000038c .L0 
     /tmp/ccH1DSUj.s:755    .text:000000000000038c .L0 
     /tmp/ccH1DSUj.s:756    .text:0000000000000390 .L0 
     /tmp/ccH1DSUj.s:759    .text:0000000000000398 .L0 
     /tmp/ccH1DSUj.s:760    .text:0000000000000398 .L0 
     /tmp/ccH1DSUj.s:762    .text:000000000000039c .L0 
     /tmp/ccH1DSUj.s:764    .text:000000000000039c .L0 
     /tmp/ccH1DSUj.s:765    .text:000000000000039c .L0 
         src/PCB.cpp:120    .text:000000000000039c .L0 
     /tmp/ccH1DSUj.s:775    .text:00000000000003a0 .L0 
     /tmp/ccH1DSUj.s:776    .text:00000000000003a0 .L0 
     /tmp/ccH1DSUj.s:777    .text:00000000000003a0 .L0 
  src/../h/Riscv.hpp:159    .text:00000000000003a0 .L0 
     /tmp/ccH1DSUj.s:785    .text:00000000000003a8 .L0 
     /tmp/ccH1DSUj.s:786    .text:00000000000003a8 .L0 
     /tmp/ccH1DSUj.s:790    .text:00000000000003ac .L0 
     /tmp/ccH1DSUj.s:792    .text:00000000000003b0 .L0 
     /tmp/ccH1DSUj.s:793    .text:00000000000003b0 .L0 
     /tmp/ccH1DSUj.s:796    .text:00000000000003bc .L0 
     /tmp/ccH1DSUj.s:797    .text:00000000000003bc .L0 
     /tmp/ccH1DSUj.s:802    .text:00000000000003c0 .L0 
     /tmp/ccH1DSUj.s:803    .text:00000000000003c0 .L0 
     /tmp/ccH1DSUj.s:808    .text:00000000000003c4 .L0 
     /tmp/ccH1DSUj.s:809    .text:00000000000003c4 .L0 
     /tmp/ccH1DSUj.s:812    .text:00000000000003cc .L0 
     /tmp/ccH1DSUj.s:813    .text:00000000000003cc .L0 
     /tmp/ccH1DSUj.s:816    .text:00000000000003d4 .L0 
     /tmp/ccH1DSUj.s:817    .text:00000000000003d4 .L0 
     /tmp/ccH1DSUj.s:822    .text:00000000000003d8 .L0 
  src/../h/Riscv.hpp:164    .text:00000000000003d8 .L0 
     /tmp/ccH1DSUj.s:832    .text:00000000000003dc .L0 
         src/PCB.cpp:127    .text:00000000000003dc .L0 
     /tmp/ccH1DSUj.s:839    .text:00000000000003e0 .L0 
     /tmp/ccH1DSUj.s:840    .text:00000000000003e4 .L0 
     /tmp/ccH1DSUj.s:842    .text:00000000000003e8 .L0 
     /tmp/ccH1DSUj.s:843    .text:00000000000003e8 .L0 
     /tmp/ccH1DSUj.s:845    .text:00000000000003ec .L0 
     /tmp/ccH1DSUj.s:847    .text:00000000000003f0 .L0 
     /tmp/ccH1DSUj.s:861    .bss:0000000000000008 _ZN3PCB16timeSliceCounterE
     /tmp/ccH1DSUj.s:857    .bss:0000000000000000 _ZN3PCB7runningE
     /tmp/ccH1DSUj.s:854    .bss:0000000000000000 .LANCHOR0
     /tmp/ccH1DSUj.s:870    .text:00000000000003f0 .L0 
     /tmp/ccH1DSUj.s:8      .rodata.str1.8:0000000000000000 .LC0
     /tmp/ccH1DSUj.s:29     .text:0000000000000010 .L0 
     /tmp/ccH1DSUj.s:38     .text:0000000000000028 .L0 
     /tmp/ccH1DSUj.s:93     .text:0000000000000090 .L0 
     /tmp/ccH1DSUj.s:195    .text:0000000000000110 .L0 
     /tmp/ccH1DSUj.s:216    .text:000000000000012c .L0 
     /tmp/ccH1DSUj.s:458    .text:0000000000000258 .L0 
     /tmp/ccH1DSUj.s:579    .rodata.str1.8:0000000000000018 .LC1
     /tmp/ccH1DSUj.s:599    .text:00000000000002e8 .L0 
     /tmp/ccH1DSUj.s:623    .text:0000000000000308 .L0 
     /tmp/ccH1DSUj.s:715    .text:0000000000000364 .L0 
     /tmp/ccH1DSUj.s:793    .text:00000000000003b0 .L0 
     /tmp/ccH1DSUj.s:270    .text:0000000000000170 .L14
     /tmp/ccH1DSUj.s:278    .text:0000000000000180 .L11
     /tmp/ccH1DSUj.s:210    .text:0000000000000124 .L10
GAS LISTING /tmp/ccH1DSUj.s 			page 29


     /tmp/ccH1DSUj.s:247    .text:000000000000014c .L12
     /tmp/ccH1DSUj.s:434    .text:0000000000000224 .LEHB0
     /tmp/ccH1DSUj.s:414    .text:0000000000000208 .LFB33
     /tmp/ccH1DSUj.s:437    .text:000000000000022c .LEHE0
     /tmp/ccH1DSUj.s:443    .text:0000000000000240 .LEHB1
     /tmp/ccH1DSUj.s:446    .text:0000000000000248 .LEHE1
     /tmp/ccH1DSUj.s:485    .text:0000000000000280 .L23
     /tmp/ccH1DSUj.s:452    .text:0000000000000250 .LEHB2
     /tmp/ccH1DSUj.s:456    .text:0000000000000258 .LEHE2
     /tmp/ccH1DSUj.s:493    .text:0000000000000294 .LEHB3
     /tmp/ccH1DSUj.s:496    .text:000000000000029c .LEHE3
     /tmp/ccH1DSUj.s:2697   .debug_abbrev:0000000000000000 .Ldebug_abbrev0
     /tmp/ccH1DSUj.s:4194   .debug_str:0000000000000179 .LASF186
     /tmp/ccH1DSUj.s:4486   .debug_str:0000000000000afc .LASF187
     /tmp/ccH1DSUj.s:4476   .debug_str:0000000000000a9e .LASF188
     /tmp/ccH1DSUj.s:5      .text:0000000000000000 .Ltext0
     /tmp/ccH1DSUj.s:864    .text:00000000000003f0 .Letext0
     /tmp/ccH1DSUj.s:4152   .debug_line:0000000000000000 .Ldebug_line0
     /tmp/ccH1DSUj.s:4286   .debug_str:00000000000004d0 .LASF0
     /tmp/ccH1DSUj.s:4314   .debug_str:00000000000005b7 .LASF1
     /tmp/ccH1DSUj.s:4412   .debug_str:00000000000008e9 .LASF2
     /tmp/ccH1DSUj.s:4422   .debug_str:0000000000000937 .LASF4
     /tmp/ccH1DSUj.s:4302   .debug_str:000000000000054b .LASF3
     /tmp/ccH1DSUj.s:4168   .debug_str:0000000000000061 .LASF5
     /tmp/ccH1DSUj.s:4390   .debug_str:0000000000000835 .LASF6
     /tmp/ccH1DSUj.s:4378   .debug_str:00000000000007dd .LASF7
     /tmp/ccH1DSUj.s:4308   .debug_str:000000000000058c .LASF8
     /tmp/ccH1DSUj.s:4270   .debug_str:000000000000044f .LASF9
     /tmp/ccH1DSUj.s:4274   .debug_str:000000000000047b .LASF10
     /tmp/ccH1DSUj.s:4210   .debug_str:00000000000002a3 .LASF11
     /tmp/ccH1DSUj.s:4260   .debug_str:0000000000000423 .LASF12
     /tmp/ccH1DSUj.s:4216   .debug_str:00000000000002c5 .LASF13
     /tmp/ccH1DSUj.s:4208   .debug_str:0000000000000293 .LASF14
     /tmp/ccH1DSUj.s:4454   .debug_str:0000000000000a29 .LASF15
     /tmp/ccH1DSUj.s:4252   .debug_str:00000000000003ce .LASF16
     /tmp/ccH1DSUj.s:4446   .debug_str:00000000000009d8 .LASF17
     /tmp/ccH1DSUj.s:4462   .debug_str:0000000000000a4d .LASF88
     /tmp/ccH1DSUj.s:4202   .debug_str:0000000000000268 .LASF18
     /tmp/ccH1DSUj.s:4440   .debug_str:00000000000009b7 .LASF19
     /tmp/ccH1DSUj.s:4214   .debug_str:00000000000002bb .LASF20
     /tmp/ccH1DSUj.s:4190   .debug_str:0000000000000162 .LASF21
     /tmp/ccH1DSUj.s:4382   .debug_str:0000000000000806 .LASF22
     /tmp/ccH1DSUj.s:4212   .debug_str:00000000000002b2 .LASF23
     /tmp/ccH1DSUj.s:4456   .debug_str:0000000000000a35 .LASF77
     /tmp/ccH1DSUj.s:4280   .debug_str:00000000000004a7 .LASF24
     /tmp/ccH1DSUj.s:4480   .debug_str:0000000000000ac9 .LASF189
     /tmp/ccH1DSUj.s:4366   .debug_str:0000000000000784 .LASF190
     /tmp/ccH1DSUj.s:4312   .debug_str:00000000000005b2 .LASF25
     /tmp/ccH1DSUj.s:4532   .debug_str:0000000000000c29 .LASF27
     /tmp/ccH1DSUj.s:4526   .debug_str:0000000000000bf9 .LASF26
     /tmp/ccH1DSUj.s:4470   .debug_str:0000000000000a70 .LASF28
     /tmp/ccH1DSUj.s:4238   .debug_str:0000000000000377 .LASF51
     /tmp/ccH1DSUj.s:4178   .debug_str:00000000000000cf .LASF53
     /tmp/ccH1DSUj.s:4316   .debug_str:00000000000005ca .LASF33
     /tmp/ccH1DSUj.s:4370   .debug_str:000000000000079c .LASF35
     /tmp/ccH1DSUj.s:4464   .debug_str:0000000000000a53 .LASF29
     /tmp/ccH1DSUj.s:4432   .debug_str:000000000000096e .LASF30
GAS LISTING /tmp/ccH1DSUj.s 			page 30


     /tmp/ccH1DSUj.s:4318   .debug_str:00000000000005d0 .LASF37
     /tmp/ccH1DSUj.s:4322   .debug_str:00000000000005fb .LASF39
     /tmp/ccH1DSUj.s:4536   .debug_str:0000000000000c4d .LASF31
     /tmp/ccH1DSUj.s:4254   .debug_str:00000000000003e4 .LASF32
     /tmp/ccH1DSUj.s:4160   .debug_str:000000000000002a .LASF34
     /tmp/ccH1DSUj.s:4298   .debug_str:0000000000000532 .LASF36
     /tmp/ccH1DSUj.s:4436   .debug_str:0000000000000990 .LASF38
     /tmp/ccH1DSUj.s:4344   .debug_str:00000000000006af .LASF40
     /tmp/ccH1DSUj.s:4420   .debug_str:000000000000092e .LASF41
     /tmp/ccH1DSUj.s:4450   .debug_str:0000000000000a06 .LASF42
     /tmp/ccH1DSUj.s:4346   .debug_str:00000000000006c2 .LASF43
     /tmp/ccH1DSUj.s:4156   .debug_str:000000000000000b .LASF44
     /tmp/ccH1DSUj.s:4514   .debug_str:0000000000000ba0 .LASF45
     /tmp/ccH1DSUj.s:4376   .debug_str:00000000000007c3 .LASF46
     /tmp/ccH1DSUj.s:4444   .debug_str:00000000000009ca .LASF47
     /tmp/ccH1DSUj.s:4392   .debug_str:000000000000083c .LASF48
     /tmp/ccH1DSUj.s:4234   .debug_str:0000000000000355 .LASF49
     /tmp/ccH1DSUj.s:4520   .debug_str:0000000000000bd1 .LASF50
     /tmp/ccH1DSUj.s:4304   .debug_str:000000000000055d .LASF57
     /tmp/ccH1DSUj.s:4442   .debug_str:00000000000009bf .LASF52
     /tmp/ccH1DSUj.s:4530   .debug_str:0000000000000c13 .LASF54
     /tmp/ccH1DSUj.s:4458   .debug_str:0000000000000a3d .LASF55
     /tmp/ccH1DSUj.s:4226   .debug_str:000000000000031c .LASF56
     /tmp/ccH1DSUj.s:4428   .debug_str:0000000000000958 .LASF58
     /tmp/ccH1DSUj.s:4288   .debug_str:00000000000004dd .LASF59
     /tmp/ccH1DSUj.s:4354   .debug_str:00000000000006fc .LASF60
     /tmp/ccH1DSUj.s:4220   .debug_str:00000000000002e6 .LASF61
     /tmp/ccH1DSUj.s:4396   .debug_str:000000000000084f .LASF62
     /tmp/ccH1DSUj.s:4546   .debug_str:0000000000000c85 .LASF63
     /tmp/ccH1DSUj.s:4358   .debug_str:0000000000000722 .LASF64
     /tmp/ccH1DSUj.s:4418   .debug_str:000000000000091b .LASF65
     /tmp/ccH1DSUj.s:4438   .debug_str:0000000000000999 .LASF66
     /tmp/ccH1DSUj.s:4474   .debug_str:0000000000000a94 .LASF67
     /tmp/ccH1DSUj.s:4372   .debug_str:00000000000007ac .LASF68
     /tmp/ccH1DSUj.s:4524   .debug_str:0000000000000beb .LASF69
     /tmp/ccH1DSUj.s:4182   .debug_str:00000000000000fd .LASF71
     /tmp/ccH1DSUj.s:4290   .debug_str:00000000000004f1 .LASF70
     /tmp/ccH1DSUj.s:4200   .debug_str:000000000000023c .LASF72
     /tmp/ccH1DSUj.s:4512   .debug_str:0000000000000b99 .LASF191
     /tmp/ccH1DSUj.s:4198   .debug_str:000000000000022b .LASF192
     /tmp/ccH1DSUj.s:4158   .debug_str:0000000000000025 .LASF73
     /tmp/ccH1DSUj.s:4490   .debug_str:0000000000000b11 .LASF74
     /tmp/ccH1DSUj.s:4326   .debug_str:000000000000062e .LASF75
     /tmp/ccH1DSUj.s:4240   .debug_str:0000000000000380 .LASF76
     /tmp/ccH1DSUj.s:4478   .debug_str:0000000000000ac1 .LASF78
     /tmp/ccH1DSUj.s:4268   .debug_str:0000000000000445 .LASF79
     /tmp/ccH1DSUj.s:4172   .debug_str:0000000000000082 .LASF193
     /tmp/ccH1DSUj.s:4528   .debug_str:0000000000000bff .LASF194
     /tmp/ccH1DSUj.s:4186   .debug_str:000000000000013d .LASF80
     /tmp/ccH1DSUj.s:4368   .debug_str:0000000000000789 .LASF81
     /tmp/ccH1DSUj.s:4468   .debug_str:0000000000000a68 .LASF82
     /tmp/ccH1DSUj.s:4406   .debug_str:00000000000008b5 .LASF114
     /tmp/ccH1DSUj.s:4196   .debug_str:0000000000000225 .LASF83
     /tmp/ccH1DSUj.s:4352   .debug_str:00000000000006e6 .LASF84
     /tmp/ccH1DSUj.s:4434   .debug_str:000000000000097f .LASF85
     /tmp/ccH1DSUj.s:4218   .debug_str:00000000000002d5 .LASF86
     /tmp/ccH1DSUj.s:4500   .debug_str:0000000000000b52 .LASF87
GAS LISTING /tmp/ccH1DSUj.s 			page 31


     /tmp/ccH1DSUj.s:4492   .debug_str:0000000000000b16 .LASF89
     /tmp/ccH1DSUj.s:4256   .debug_str:00000000000003f0 .LASF90
     /tmp/ccH1DSUj.s:4466   .debug_str:0000000000000a5b .LASF91
     /tmp/ccH1DSUj.s:4232   .debug_str:0000000000000349 .LASF92
     /tmp/ccH1DSUj.s:4282   .debug_str:00000000000004ad .LASF93
     /tmp/ccH1DSUj.s:4448   .debug_str:00000000000009ee .LASF94
     /tmp/ccH1DSUj.s:4374   .debug_str:00000000000007b8 .LASF95
     /tmp/ccH1DSUj.s:4332   .debug_str:0000000000000647 .LASF96
     /tmp/ccH1DSUj.s:4250   .debug_str:00000000000003c4 .LASF97
     /tmp/ccH1DSUj.s:4380   .debug_str:00000000000007f0 .LASF98
     /tmp/ccH1DSUj.s:4334   .debug_str:000000000000065f .LASF99
     /tmp/ccH1DSUj.s:4496   .debug_str:0000000000000b2a .LASF100
     /tmp/ccH1DSUj.s:4206   .debug_str:0000000000000282 .LASF101
     /tmp/ccH1DSUj.s:4320   .debug_str:00000000000005dd .LASF102
     /tmp/ccH1DSUj.s:4296   .debug_str:0000000000000520 .LASF103
     /tmp/ccH1DSUj.s:4222   .debug_str:00000000000002f8 .LASF104
     /tmp/ccH1DSUj.s:4518   .debug_str:0000000000000bc5 .LASF105
     /tmp/ccH1DSUj.s:4180   .debug_str:00000000000000e2 .LASF106
     /tmp/ccH1DSUj.s:4388   .debug_str:0000000000000828 .LASF107
     /tmp/ccH1DSUj.s:4170   .debug_str:0000000000000068 .LASF108
     /tmp/ccH1DSUj.s:4430   .debug_str:0000000000000960 .LASF109
     /tmp/ccH1DSUj.s:4402   .debug_str:0000000000000893 .LASF110
     /tmp/ccH1DSUj.s:4348   .debug_str:00000000000006d1 .LASF111
     /tmp/ccH1DSUj.s:4506   .debug_str:0000000000000b6a .LASF112
     /tmp/ccH1DSUj.s:4488   .debug_str:0000000000000b08 .LASF113
     /tmp/ccH1DSUj.s:4164   .debug_str:0000000000000042 .LASF115
     /tmp/ccH1DSUj.s:4542   .debug_str:0000000000000c74 .LASF116
     /tmp/ccH1DSUj.s:4362   .debug_str:0000000000000757 .LASF117
     /tmp/ccH1DSUj.s:4394   .debug_str:0000000000000848 .LASF118
     /tmp/ccH1DSUj.s:4398   .debug_str:000000000000086c .LASF119
     /tmp/ccH1DSUj.s:4356   .debug_str:000000000000071b .LASF120
     /tmp/ccH1DSUj.s:4310   .debug_str:000000000000059f .LASF121
     /tmp/ccH1DSUj.s:4508   .debug_str:0000000000000b84 .LASF122
     /tmp/ccH1DSUj.s:4472   .debug_str:0000000000000a80 .LASF123
     /tmp/ccH1DSUj.s:4350   .debug_str:00000000000006de .LASF124
     /tmp/ccH1DSUj.s:4360   .debug_str:0000000000000743 .LASF125
     /tmp/ccH1DSUj.s:4340   .debug_str:0000000000000695 .LASF126
     /tmp/ccH1DSUj.s:4400   .debug_str:000000000000087f .LASF127
     /tmp/ccH1DSUj.s:4544   .debug_str:0000000000000c7d .LASF128
     /tmp/ccH1DSUj.s:4294   .debug_str:000000000000050c .LASF129
     /tmp/ccH1DSUj.s:4452   .debug_str:0000000000000a22 .LASF130
     /tmp/ccH1DSUj.s:4424   .debug_str:000000000000093e .LASF131
     /tmp/ccH1DSUj.s:4426   .debug_str:0000000000000951 .LASF132
     /tmp/ccH1DSUj.s:4248   .debug_str:00000000000003b1 .LASF133
     /tmp/ccH1DSUj.s:4242   .debug_str:0000000000000386 .LASF134
     /tmp/ccH1DSUj.s:4174   .debug_str:000000000000009a .LASF135
     /tmp/ccH1DSUj.s:4292   .debug_str:0000000000000506 .LASF136
     /tmp/ccH1DSUj.s:4236   .debug_str:0000000000000365 .LASF137
     /tmp/ccH1DSUj.s:4154   .debug_str:0000000000000000 .LASF138
     /tmp/ccH1DSUj.s:4416   .debug_str:0000000000000903 .LASF139
     /tmp/ccH1DSUj.s:4410   .debug_str:00000000000008de .LASF140
     /tmp/ccH1DSUj.s:4534   .debug_str:0000000000000c35 .LASF141
     /tmp/ccH1DSUj.s:4502   .debug_str:0000000000000b58 .LASF142
     /tmp/ccH1DSUj.s:4516   .debug_str:0000000000000baf .LASF143
     /tmp/ccH1DSUj.s:4498   .debug_str:0000000000000b48 .LASF144
     /tmp/ccH1DSUj.s:4336   .debug_str:000000000000066f .LASF145
     /tmp/ccH1DSUj.s:4278   .debug_str:000000000000049c .LASF146
GAS LISTING /tmp/ccH1DSUj.s 			page 32


     /tmp/ccH1DSUj.s:4284   .debug_str:00000000000004b8 .LASF147
     /tmp/ccH1DSUj.s:4484   .debug_str:0000000000000aed .LASF148
     /tmp/ccH1DSUj.s:4272   .debug_str:000000000000045f .LASF149
     /tmp/ccH1DSUj.s:4386   .debug_str:0000000000000813 .LASF150
     /tmp/ccH1DSUj.s:4306   .debug_str:000000000000056a .LASF151
     /tmp/ccH1DSUj.s:4404   .debug_str:00000000000008ae .LASF152
     /tmp/ccH1DSUj.s:4162   .debug_str:000000000000003a .LASF153
     /tmp/ccH1DSUj.s:4538   .debug_str:0000000000000c5a .LASF154
     /tmp/ccH1DSUj.s:4482   .debug_str:0000000000000ae1 .LASF155
     /tmp/ccH1DSUj.s:4188   .debug_str:000000000000014f .LASF156
     /tmp/ccH1DSUj.s:4342   .debug_str:000000000000069d .LASF157
     /tmp/ccH1DSUj.s:4276   .debug_str:0000000000000489 .LASF158
     /tmp/ccH1DSUj.s:4244   .debug_str:000000000000038c .LASF159
     /tmp/ccH1DSUj.s:4204   .debug_str:000000000000026e .LASF160
     /tmp/ccH1DSUj.s:4460   .debug_str:0000000000000a48 .LASF161
     /tmp/ccH1DSUj.s:4328   .debug_str:0000000000000636 .LASF162
     /tmp/ccH1DSUj.s:4510   .debug_str:0000000000000b8c .LASF163
     /tmp/ccH1DSUj.s:4338   .debug_str:0000000000000685 .LASF164
     /tmp/ccH1DSUj.s:4246   .debug_str:000000000000039f .LASF165
     /tmp/ccH1DSUj.s:4258   .debug_str:00000000000003fc .LASF166
     /tmp/ccH1DSUj.s:4192   .debug_str:000000000000016b .LASF167
     /tmp/ccH1DSUj.s:4176   .debug_str:00000000000000ac .LASF168
     /tmp/ccH1DSUj.s:4408   .debug_str:00000000000008cd .LASF169
     /tmp/ccH1DSUj.s:4324   .debug_str:0000000000000613 .LASF170
     /tmp/ccH1DSUj.s:752    .text:000000000000038c .LFB38
     /tmp/ccH1DSUj.s:848    .text:00000000000003f0 .LFE38
     /tmp/ccH1DSUj.s:4384   .debug_str:000000000000080e .LASF171
     /tmp/ccH1DSUj.s:3869   .debug_loc:0000000000000000 .LLST22
     /tmp/ccH1DSUj.s:4504   .debug_str:0000000000000b62 .LASF172
     /tmp/ccH1DSUj.s:773    .text:00000000000003a0 .LBB52
     /tmp/ccH1DSUj.s:788    .text:00000000000003ac .LBE52
     /tmp/ccH1DSUj.s:799    .text:00000000000003c0 .LBB54
     /tmp/ccH1DSUj.s:806    .text:00000000000003c4 .LBE54
     /tmp/ccH1DSUj.s:3876   .debug_loc:0000000000000023 .LLST23
     /tmp/ccH1DSUj.s:3883   .debug_loc:0000000000000046 .LLST24
     /tmp/ccH1DSUj.s:819    .text:00000000000003d8 .LBB56
     /tmp/ccH1DSUj.s:830    .text:00000000000003dc .LBE56
     /tmp/ccH1DSUj.s:3890   .debug_loc:0000000000000069 .LLST25
     /tmp/ccH1DSUj.s:810    .text:00000000000003cc .LVL52
     /tmp/ccH1DSUj.s:814    .text:00000000000003d4 .LVL53
     /tmp/ccH1DSUj.s:683    .text:0000000000000344 .LFB37
     /tmp/ccH1DSUj.s:746    .text:000000000000038c .LFE37
     /tmp/ccH1DSUj.s:695    .text:0000000000000354 .LBB48
     /tmp/ccH1DSUj.s:710    .text:0000000000000360 .LBE48
     /tmp/ccH1DSUj.s:724    .text:0000000000000378 .LBB50
     /tmp/ccH1DSUj.s:735    .text:000000000000037c .LBE50
     /tmp/ccH1DSUj.s:3897   .debug_loc:000000000000008c .LLST21
     /tmp/ccH1DSUj.s:719    .text:0000000000000374 .LVL46
     /tmp/ccH1DSUj.s:586    .text:00000000000002d8 .LFB36
     /tmp/ccH1DSUj.s:677    .text:0000000000000344 .LFE36
     /tmp/ccH1DSUj.s:603    .text:00000000000002f8 .LBB42
     /tmp/ccH1DSUj.s:618    .text:0000000000000304 .LBE42
     /tmp/ccH1DSUj.s:631    .text:0000000000000318 .LBB44
     /tmp/ccH1DSUj.s:639    .text:0000000000000320 .LBE44
     /tmp/ccH1DSUj.s:3904   .debug_loc:00000000000000af .LLST18
     /tmp/ccH1DSUj.s:3912   .debug_loc:00000000000000d3 .LLST19
     /tmp/ccH1DSUj.s:648    .text:000000000000032c .LBB46
GAS LISTING /tmp/ccH1DSUj.s 			page 33


     /tmp/ccH1DSUj.s:659    .text:0000000000000330 .LBE46
     /tmp/ccH1DSUj.s:3919   .debug_loc:00000000000000f6 .LLST20
     /tmp/ccH1DSUj.s:601    .text:00000000000002f8 .LVL40
     /tmp/ccH1DSUj.s:643    .text:0000000000000328 .LVL43
     /tmp/ccH1DSUj.s:558    .text:00000000000002c0 .LFB35
     /tmp/ccH1DSUj.s:575    .text:00000000000002d8 .LFE35
     /tmp/ccH1DSUj.s:527    .text:000000000000029c .LFB34
     /tmp/ccH1DSUj.s:552    .text:00000000000002c0 .LFE34
     /tmp/ccH1DSUj.s:4264   .debug_str:000000000000043a .LASF174
     /tmp/ccH1DSUj.s:3926   .debug_loc:0000000000000119 .LLST17
     /tmp/ccH1DSUj.s:498    .text:000000000000029c .LFE33
     /tmp/ccH1DSUj.s:4230   .debug_str:000000000000033e .LASF173
     /tmp/ccH1DSUj.s:3940   .debug_loc:0000000000000152 .LLST14
     /tmp/ccH1DSUj.s:461    .text:0000000000000260 .LBB40
     /tmp/ccH1DSUj.s:469    .text:0000000000000268 .LBE40
     /tmp/ccH1DSUj.s:3947   .debug_loc:0000000000000175 .LLST15
     /tmp/ccH1DSUj.s:3955   .debug_loc:0000000000000199 .LLST16
     /tmp/ccH1DSUj.s:436    .text:000000000000022c .LVL30
     /tmp/ccH1DSUj.s:445    .text:0000000000000248 .LVL31
     /tmp/ccH1DSUj.s:455    .text:0000000000000258 .LVL32
     /tmp/ccH1DSUj.s:491    .text:0000000000000290 .LVL36
     /tmp/ccH1DSUj.s:495    .text:000000000000029c .LVL37
     /tmp/ccH1DSUj.s:4166   .debug_str:0000000000000057 .LASF175
     /tmp/ccH1DSUj.s:4228   .debug_str:0000000000000332 .LASF178
     /tmp/ccH1DSUj.s:366    .text:00000000000001dc .LFB31
     /tmp/ccH1DSUj.s:398    .text:0000000000000208 .LFE31
     /tmp/ccH1DSUj.s:3962   .debug_loc:00000000000001bc .LLST13
     /tmp/ccH1DSUj.s:386    .text:00000000000001f8 .LVL29
     /tmp/ccH1DSUj.s:334    .text:00000000000001b4 .LFB29
     /tmp/ccH1DSUj.s:360    .text:00000000000001dc .LFE29
     /tmp/ccH1DSUj.s:3976   .debug_loc:00000000000001f5 .LLST12
     /tmp/ccH1DSUj.s:349    .text:00000000000001cc .LVL26
     /tmp/ccH1DSUj.s:302    .text:000000000000018c .LFB28
     /tmp/ccH1DSUj.s:328    .text:00000000000001b4 .LFE28
     /tmp/ccH1DSUj.s:4224   .debug_str:0000000000000317 .LASF176
     /tmp/ccH1DSUj.s:3990   .debug_loc:000000000000022e .LLST11
     /tmp/ccH1DSUj.s:317    .text:00000000000001a4 .LVL24
     /tmp/ccH1DSUj.s:180    .text:00000000000000fc .LFB27
     /tmp/ccH1DSUj.s:296    .text:000000000000018c .LFE27
     /tmp/ccH1DSUj.s:4004   .debug_loc:0000000000000267 .LLST6
     /tmp/ccH1DSUj.s:198    .text:0000000000000118 .LBB31
     /tmp/ccH1DSUj.s:206    .text:000000000000011c .LBE31
     /tmp/ccH1DSUj.s:4015   .debug_loc:000000000000029d .LLST7
     /tmp/ccH1DSUj.s:219    .text:0000000000000134 .LBB33
     /tmp/ccH1DSUj.s:227    .text:000000000000013c .LBE33
     /tmp/ccH1DSUj.s:4022   .debug_loc:00000000000002c0 .LLST8
     /tmp/ccH1DSUj.s:4030   .debug_loc:00000000000002e4 .LLST9
     /tmp/ccH1DSUj.s:235    .text:0000000000000144 .LBB35
     /tmp/ccH1DSUj.s:249    .text:000000000000014c .LBE35
     /tmp/ccH1DSUj.s:4037   .debug_loc:0000000000000307 .LLST10
     /tmp/ccH1DSUj.s:281    .text:0000000000000180 .LBB37
     /tmp/ccH1DSUj.s:294    .text:000000000000018c .LBE37
     /tmp/ccH1DSUj.s:214    .text:000000000000012c .LVL13
     /tmp/ccH1DSUj.s:255    .text:000000000000015c .LVL18
     /tmp/ccH1DSUj.s:276    .text:000000000000017c .LVL21
     /tmp/ccH1DSUj.s:15     .text:0000000000000000 .LFB26
     /tmp/ccH1DSUj.s:58     .text:0000000000000054 .LFE26
GAS LISTING /tmp/ccH1DSUj.s 			page 34


     /tmp/ccH1DSUj.s:31     .text:0000000000000020 .LVL0
     /tmp/ccH1DSUj.s:35     .text:0000000000000028 .LVL1
     /tmp/ccH1DSUj.s:47     .text:0000000000000044 .LVL3
     /tmp/ccH1DSUj.s:148    .text:00000000000000d4 .LFB25
     /tmp/ccH1DSUj.s:174    .text:00000000000000fc .LFE25
     /tmp/ccH1DSUj.s:4046   .debug_loc:000000000000032d .LLST5
     /tmp/ccH1DSUj.s:163    .text:00000000000000ec .LVL10
     /tmp/ccH1DSUj.s:124    .text:00000000000000bc .LFB24
     /tmp/ccH1DSUj.s:142    .text:00000000000000d4 .LFE24
     /tmp/ccH1DSUj.s:4330   .debug_str:000000000000063b .LASF177
     /tmp/ccH1DSUj.s:4364   .debug_str:000000000000076c .LASF179
     /tmp/ccH1DSUj.s:64     .text:0000000000000054 .LFB22
     /tmp/ccH1DSUj.s:116    .text:00000000000000bc .LFE22
     /tmp/ccH1DSUj.s:4060   .debug_loc:0000000000000366 .LLST0
     /tmp/ccH1DSUj.s:4078   .debug_loc:00000000000003b2 .LLST1
     /tmp/ccH1DSUj.s:4092   .debug_loc:00000000000003eb .LLST2
     /tmp/ccH1DSUj.s:4106   .debug_loc:0000000000000424 .LLST3
     /tmp/ccH1DSUj.s:4125   .debug_loc:0000000000000471 .LLST4
     /tmp/ccH1DSUj.s:98     .text:00000000000000a4 .LVL6
     /tmp/ccH1DSUj.s:4494   .debug_str:0000000000000b25 .LASF180
     /tmp/ccH1DSUj.s:4522   .debug_str:0000000000000bdc .LASF195
     /tmp/ccH1DSUj.s:4184   .debug_str:0000000000000125 .LASF196
     /tmp/ccH1DSUj.s:4540   .debug_str:0000000000000c69 .LASF181
     /tmp/ccH1DSUj.s:4266   .debug_str:000000000000043f .LASF183
     /tmp/ccH1DSUj.s:4414   .debug_str:00000000000008f7 .LASF182
     /tmp/ccH1DSUj.s:4262   .debug_str:0000000000000432 .LASF184
     /tmp/ccH1DSUj.s:4300   .debug_str:000000000000053f .LASF185
     /tmp/ccH1DSUj.s:770    .text:00000000000003a0 .LVL49
     /tmp/ccH1DSUj.s:798    .text:00000000000003c0 .LVL50
     /tmp/ccH1DSUj.s:804    .text:00000000000003c4 .LVL51
     /tmp/ccH1DSUj.s:818    .text:00000000000003d8 .LVL54
     /tmp/ccH1DSUj.s:827    .text:00000000000003dc .LVL55
     /tmp/ccH1DSUj.s:723    .text:0000000000000378 .LVL47
     /tmp/ccH1DSUj.s:732    .text:000000000000037c .LVL48
     /tmp/ccH1DSUj.s:628    .text:0000000000000318 .LVL41
     /tmp/ccH1DSUj.s:637    .text:0000000000000320 .LVL42
     /tmp/ccH1DSUj.s:647    .text:000000000000032c .LVL44
     /tmp/ccH1DSUj.s:656    .text:0000000000000330 .LVL45
     /tmp/ccH1DSUj.s:530    .text:000000000000029c .LVL38
     /tmp/ccH1DSUj.s:540    .text:00000000000002ac .LVL39
     /tmp/ccH1DSUj.s:479    .text:0000000000000274 .LVL35
     /tmp/ccH1DSUj.s:460    .text:0000000000000260 .LVL33
     /tmp/ccH1DSUj.s:467    .text:0000000000000268 .LVL34
     /tmp/ccH1DSUj.s:371    .text:00000000000001dc .LVL27
     /tmp/ccH1DSUj.s:384    .text:00000000000001f0 .LVL28
     /tmp/ccH1DSUj.s:337    .text:00000000000001b4 .LVL25
     /tmp/ccH1DSUj.s:305    .text:000000000000018c .LVL23
     /tmp/ccH1DSUj.s:196    .text:0000000000000118 .LVL11
     /tmp/ccH1DSUj.s:265    .text:0000000000000168 .LVL19
     /tmp/ccH1DSUj.s:269    .text:0000000000000170 .LVL20
     /tmp/ccH1DSUj.s:204    .text:000000000000011c .LVL12
     /tmp/ccH1DSUj.s:218    .text:0000000000000134 .LVL14
     /tmp/ccH1DSUj.s:225    .text:000000000000013c .LVL15
     /tmp/ccH1DSUj.s:234    .text:0000000000000144 .LVL16
     /tmp/ccH1DSUj.s:245    .text:000000000000014c .LVL17
     /tmp/ccH1DSUj.s:151    .text:00000000000000d4 .LVL9
     /tmp/ccH1DSUj.s:67     .text:0000000000000054 .LVL4
GAS LISTING /tmp/ccH1DSUj.s 			page 35


     /tmp/ccH1DSUj.s:111    .text:00000000000000b4 .LVL7
     /tmp/ccH1DSUj.s:90     .text:000000000000008c .LVL5
     /tmp/ccH1DSUj.s:871    .debug_info:0000000000000000 .Ldebug_info0
     /tmp/ccH1DSUj.s:401    .gcc_except_table:0000000000000000 .LLSDA31
     /tmp/ccH1DSUj.s:500    .gcc_except_table:0000000000000004 .LLSDA33

UNDEFINED SYMBOLS
_ZN5Riscv11printStringEPKc
_ZN5Riscv10popSppSpieEv
thread_exit
_ZN9Scheduler3putEP3PCB
_ZN9Scheduler3getEv
_ZN3PCB13contextSwitchEPNS_7ContextES1_
_Z7kmallocm
_Z5kfreePv
__gxx_personality_v0
_Unwind_Resume
_ZN12SleepPCBList17insertSleepingPCBEv
