GAS LISTING /tmp/ccslPeov.s 			page 1


   1              		.file	"PCB.cpp"
   2              		.option pic
   3              		.option norelax
   4              		.text
   5              	.Ltext0:
   6              		.section	.rodata.str1.8,"aMS",@progbits,1
   7              		.align	3
   8              	.LC0:
   9 0000 52756E6E 		.string	"Runner started...\n"
   9      65722073 
   9      74617274 
   9      65642E2E 
   9      2E0A00
  10 0013 00000000 		.align	3
  10      00
  11              	.LC1:
  12 0018 50434220 		.string	"PCB finished\n"
  12      66696E69 
  12      73686564 
  12      0A00
  13              		.text
  14              		.align	2
  15              		.globl	_ZN3PCB6runnerEv
  17              	_ZN3PCB6runnerEv:
  18              	.LFB26:
  19              		.file 1 "src/PCB.cpp"
   1:src/PCB.cpp   **** //
   2:src/PCB.cpp   **** // Created by os on 4/27/22.
   3:src/PCB.cpp   **** //
   4:src/PCB.cpp   **** 
   5:src/PCB.cpp   **** #include "../h/PCB.hpp"
   6:src/PCB.cpp   **** #include "../h/syscall_c.h"
   7:src/PCB.cpp   **** 
   8:src/PCB.cpp   **** PCB* PCB::running = 0;
   9:src/PCB.cpp   **** PCB* PCB::exitingPCB = 0;
  10:src/PCB.cpp   **** uint64 PCB::timeSliceCounter = 0;
  11:src/PCB.cpp   **** PCB* PCB::sleepingPCBHead = 0;
  12:src/PCB.cpp   **** 
  13:src/PCB.cpp   **** PCB::PCB(Body body, void *args, void* stack_space, uint64 timeSlice) :
  14:src/PCB.cpp   ****     timeSlice(timeSlice),
  15:src/PCB.cpp   ****     body(body),
  16:src/PCB.cpp   ****     args(args),
  17:src/PCB.cpp   ****     beginSP(stack_space),
  18:src/PCB.cpp   ****     context({
  19:src/PCB.cpp   ****         (uint64)((char*)stack_space + DEFAULT_STACK_SIZE),
  20:src/PCB.cpp   ****         (uint64)&PCB::runner
  21:src/PCB.cpp   ****     })
  22:src/PCB.cpp   **** {
  23:src/PCB.cpp   ****     Scheduler::put(this);
  24:src/PCB.cpp   ****     nextPCB = 0;
  25:src/PCB.cpp   **** }
  26:src/PCB.cpp   **** 
  27:src/PCB.cpp   **** void PCB::sleep(time_t time)
  28:src/PCB.cpp   **** {
  29:src/PCB.cpp   ****     //todo
  30:src/PCB.cpp   **** }
  31:src/PCB.cpp   **** 
GAS LISTING /tmp/ccslPeov.s 			page 2


  32:src/PCB.cpp   **** //todo
  33:src/PCB.cpp   **** //da li ovde vec treba da bude lockovano
  34:src/PCB.cpp   **** //ili treba ovde bas lock da se uradi
  35:src/PCB.cpp   **** //ili se ovo uvek poziva iz sistemskog rezima
  36:src/PCB.cpp   **** void PCB::start()
  37:src/PCB.cpp   **** {
  38:src/PCB.cpp   ****     Scheduler::put(this);
  39:src/PCB.cpp   **** }
  40:src/PCB.cpp   **** 
  41:src/PCB.cpp   **** //todo
  42:src/PCB.cpp   **** void PCB::runner()
  43:src/PCB.cpp   **** {
  20              		.loc 1 43 1
  21              		.cfi_startproc
  22 0000 130101FE 		addi	sp,sp,-32
  23              		.cfi_def_cfa_offset 32
  24 0004 233C1100 		sd	ra,24(sp)
  25 0008 23388100 		sd	s0,16(sp)
  26 000c 23349100 		sd	s1,8(sp)
  27              		.cfi_offset 1, -8
  28              		.cfi_offset 8, -16
  29              		.cfi_offset 9, -24
  30 0010 13040102 		addi	s0,sp,32
  31              		.cfi_def_cfa 8, 0
  44:src/PCB.cpp   ****     Riscv::printString("Runner started...\n");
  32              		.loc 1 44 5
  33              		.loc 1 44 23 is_stmt 0
  34 0014 17050000 		lla	a0,.LC0
  34      13050500 
  35 001c 97000000 		call	_ZN5Riscv11printStringEPKc@plt
  35      E7800000 
  36              	.LVL0:
  45:src/PCB.cpp   ****     Riscv::popSppSpie();
  37              		.loc 1 45 5 is_stmt 1
  38              		.loc 1 45 22 is_stmt 0
  39 0024 97000000 		call	_ZN5Riscv10popSppSpieEv@plt
  39      E7800000 
  40              	.LVL1:
  46:src/PCB.cpp   ****     running->body(running->args);
  41              		.loc 1 46 5 is_stmt 1
  42              		.loc 1 46 14 is_stmt 0
  43 002c 97040000 		lla	s1,.LANCHOR0
  43      93840400 
  44 0034 83B70400 		ld	a5,0(s1)
  45 0038 03B78701 		ld	a4,24(a5)
  46              		.loc 1 46 18
  47 003c 03B50702 		ld	a0,32(a5)
  48 0040 E7000700 		jalr	a4
  49              	.LVL2:
  47:src/PCB.cpp   ****     running->setState(PCB::FINISHED);
  50              		.loc 1 47 5 is_stmt 1
  51              		.loc 1 47 22 is_stmt 0
  52 0044 83B70400 		ld	a5,0(s1)
  53              	.LVL3:
  54              	.LBB22:
  55              	.LBB23:
  56              		.file 2 "src/../h/PCB.hpp"
GAS LISTING /tmp/ccslPeov.s 			page 3


   1:src/../h/PCB.hpp **** //
   2:src/../h/PCB.hpp **** // Created by os on 4/27/22.
   3:src/../h/PCB.hpp **** //
   4:src/../h/PCB.hpp **** 
   5:src/../h/PCB.hpp **** #ifndef PROJECT_BASE_V1_0_PCB_HPP
   6:src/../h/PCB.hpp **** #define PROJECT_BASE_V1_0_PCB_HPP
   7:src/../h/PCB.hpp **** 
   8:src/../h/PCB.hpp **** #include "../lib/hw.h"
   9:src/../h/PCB.hpp **** #include "Scheduler.hpp"
  10:src/../h/PCB.hpp **** #include "Riscv.hpp"
  11:src/../h/PCB.hpp **** 
  12:src/../h/PCB.hpp **** class PCB
  13:src/../h/PCB.hpp **** {
  14:src/../h/PCB.hpp **** public:
  15:src/../h/PCB.hpp ****     using Body = void (*)(void*);
  16:src/../h/PCB.hpp **** 
  17:src/../h/PCB.hpp ****     PCB(Body body,  void* args, void* stack_space, uint64 timeSlice);
  18:src/../h/PCB.hpp ****     ~PCB();
  19:src/../h/PCB.hpp **** 
  20:src/../h/PCB.hpp ****     void start();
  21:src/../h/PCB.hpp ****     static void dispatch();
  22:src/../h/PCB.hpp ****     static void sleep(time_t);
  23:src/../h/PCB.hpp **** 
  24:src/../h/PCB.hpp ****     static PCB* running;
  25:src/../h/PCB.hpp ****     static PCB* exitingPCB;
  26:src/../h/PCB.hpp **** 
  27:src/../h/PCB.hpp ****     static uint64 timeSliceCounter;
  28:src/../h/PCB.hpp ****     uint64 getTimeSlice() { return timeSlice;}
  29:src/../h/PCB.hpp **** 
  30:src/../h/PCB.hpp ****     void* operator new(size_t size);
  31:src/../h/PCB.hpp ****     void operator delete(void *p);
  32:src/../h/PCB.hpp **** 
  33:src/../h/PCB.hpp ****     enum State{READY, RUNNING, SUSPENDED, FINISHED, EXITING, SLEEPING};
  34:src/../h/PCB.hpp ****     State getState() {return state;}
  35:src/../h/PCB.hpp ****     void setState(State s) {state = s;}
  57              		.loc 2 35 29 is_stmt 1
  58              		.loc 2 35 35 is_stmt 0
  59 0048 13073000 		li	a4,3
  60 004c 23A8E702 		sw	a4,48(a5)
  61              	.LVL4:
  62              	.LBE23:
  63              	.LBE22:
  48:src/PCB.cpp   ****     Riscv::printString("PCB finished\n");
  64              		.loc 1 48 5 is_stmt 1
  65              		.loc 1 48 23 is_stmt 0
  66 0050 17050000 		lla	a0,.LC1
  66      13050500 
  67 0058 97000000 		call	_ZN5Riscv11printStringEPKc@plt
  67      E7800000 
  68              	.LVL5:
  49:src/PCB.cpp   **** 
  50:src/PCB.cpp   ****     //todo
  51:src/PCB.cpp   ****     //da li thread_exit ili dispatch
  52:src/PCB.cpp   ****     //thread_exit();
  53:src/PCB.cpp   ****     thread_dispatch();
  69              		.loc 1 53 5 is_stmt 1
  70              		.loc 1 53 20 is_stmt 0
GAS LISTING /tmp/ccslPeov.s 			page 4


  71 0060 97000000 		call	thread_dispatch@plt
  71      E7800000 
  72              	.LVL6:
  54:src/PCB.cpp   **** }
  73              		.loc 1 54 1
  74 0068 83308101 		ld	ra,24(sp)
  75              		.cfi_restore 1
  76 006c 03340101 		ld	s0,16(sp)
  77              		.cfi_restore 8
  78              		.cfi_def_cfa 2, 32
  79 0070 83348100 		ld	s1,8(sp)
  80              		.cfi_restore 9
  81 0074 13010102 		addi	sp,sp,32
  82              		.cfi_def_cfa_offset 0
  83 0078 67800000 		jr	ra
  84              		.cfi_endproc
  85              	.LFE26:
  87              		.align	2
  88              		.globl	_ZN3PCBC2EPFvPvES0_S0_m
  90              	_ZN3PCBC2EPFvPvES0_S0_m:
  91              	.LFB22:
  13:src/PCB.cpp   ****     timeSlice(timeSlice),
  92              		.loc 1 13 1 is_stmt 1
  93              		.cfi_startproc
  94              	.LVL7:
  95 007c 130101FE 		addi	sp,sp,-32
  96              		.cfi_def_cfa_offset 32
  97 0080 233C1100 		sd	ra,24(sp)
  98 0084 23388100 		sd	s0,16(sp)
  99 0088 23349100 		sd	s1,8(sp)
 100              		.cfi_offset 1, -8
 101              		.cfi_offset 8, -16
 102              		.cfi_offset 9, -24
 103 008c 13040102 		addi	s0,sp,32
 104              		.cfi_def_cfa 8, 0
 105 0090 93040500 		mv	s1,a0
 106              	.LBB24:
  21:src/PCB.cpp   **** {
 107              		.loc 1 21 6 is_stmt 0
 108 0094 2334E500 		sd	a4,8(a0)
 109 0098 23380500 		sd	zero,16(a0)
 110 009c 233CB500 		sd	a1,24(a0)
 111 00a0 2330C502 		sd	a2,32(a0)
 112 00a4 2334D502 		sd	a3,40(a0)
  19:src/PCB.cpp   ****         (uint64)&PCB::runner
 113              		.loc 1 19 37
 114 00a8 B7170000 		li	a5,4096
 115 00ac B386F600 		add	a3,a3,a5
 116              	.LVL8:
  21:src/PCB.cpp   **** {
 117              		.loc 1 21 6
 118 00b0 233CD502 		sd	a3,56(a0)
 119 00b4 97070000 		lla	a5,_ZN3PCB6runnerEv
 119      93870700 
 120 00bc 2330F504 		sd	a5,64(a0)
  23:src/PCB.cpp   ****     nextPCB = 0;
 121              		.loc 1 23 5 is_stmt 1
GAS LISTING /tmp/ccslPeov.s 			page 5


  23:src/PCB.cpp   ****     nextPCB = 0;
 122              		.loc 1 23 19 is_stmt 0
 123 00c0 97000000 		call	_ZN9Scheduler3putEP3PCB@plt
 123      E7800000 
 124              	.LVL9:
  24:src/PCB.cpp   **** }
 125              		.loc 1 24 5 is_stmt 1
  24:src/PCB.cpp   **** }
 126              		.loc 1 24 13 is_stmt 0
 127 00c8 23B00400 		sd	zero,0(s1)
 128              	.LBE24:
  25:src/PCB.cpp   **** 
 129              		.loc 1 25 1
 130 00cc 83308101 		ld	ra,24(sp)
 131              		.cfi_restore 1
 132 00d0 03340101 		ld	s0,16(sp)
 133              		.cfi_restore 8
 134              		.cfi_def_cfa 2, 32
 135 00d4 83348100 		ld	s1,8(sp)
 136              		.cfi_restore 9
 137              	.LVL10:
 138 00d8 13010102 		addi	sp,sp,32
 139              		.cfi_def_cfa_offset 0
 140 00dc 67800000 		jr	ra
 141              		.cfi_endproc
 142              	.LFE22:
 144              		.globl	_ZN3PCBC1EPFvPvES0_S0_m
 145              		.set	_ZN3PCBC1EPFvPvES0_S0_m,_ZN3PCBC2EPFvPvES0_S0_m
 146              		.align	2
 147              		.globl	_ZN3PCB5sleepEm
 149              	_ZN3PCB5sleepEm:
 150              	.LFB24:
  28:src/PCB.cpp   ****     //todo
 151              		.loc 1 28 1 is_stmt 1
 152              		.cfi_startproc
 153              	.LVL11:
 154 00e0 130101FF 		addi	sp,sp,-16
 155              		.cfi_def_cfa_offset 16
 156 00e4 23348100 		sd	s0,8(sp)
 157              		.cfi_offset 8, -8
 158 00e8 13040101 		addi	s0,sp,16
 159              		.cfi_def_cfa 8, 0
  30:src/PCB.cpp   **** 
 160              		.loc 1 30 1 is_stmt 0
 161 00ec 03348100 		ld	s0,8(sp)
 162              		.cfi_restore 8
 163              		.cfi_def_cfa 2, 16
 164 00f0 13010101 		addi	sp,sp,16
 165              		.cfi_def_cfa_offset 0
 166 00f4 67800000 		jr	ra
 167              		.cfi_endproc
 168              	.LFE24:
 170              		.align	2
 171              		.globl	_ZN3PCB5startEv
 173              	_ZN3PCB5startEv:
 174              	.LFB25:
  37:src/PCB.cpp   ****     Scheduler::put(this);
GAS LISTING /tmp/ccslPeov.s 			page 6


 175              		.loc 1 37 1 is_stmt 1
 176              		.cfi_startproc
 177              	.LVL12:
 178 00f8 130101FF 		addi	sp,sp,-16
 179              		.cfi_def_cfa_offset 16
 180 00fc 23341100 		sd	ra,8(sp)
 181 0100 23308100 		sd	s0,0(sp)
 182              		.cfi_offset 1, -8
 183              		.cfi_offset 8, -16
 184 0104 13040101 		addi	s0,sp,16
 185              		.cfi_def_cfa 8, 0
  38:src/PCB.cpp   **** }
 186              		.loc 1 38 5
  38:src/PCB.cpp   **** }
 187              		.loc 1 38 19 is_stmt 0
 188 0108 97000000 		call	_ZN9Scheduler3putEP3PCB@plt
 188      E7800000 
 189              	.LVL13:
  39:src/PCB.cpp   **** 
 190              		.loc 1 39 1
 191 0110 83308100 		ld	ra,8(sp)
 192              		.cfi_restore 1
 193 0114 03340100 		ld	s0,0(sp)
 194              		.cfi_restore 8
 195              		.cfi_def_cfa 2, 16
 196 0118 13010101 		addi	sp,sp,16
 197              		.cfi_def_cfa_offset 0
 198 011c 67800000 		jr	ra
 199              		.cfi_endproc
 200              	.LFE25:
 202              		.align	2
 203              		.globl	_ZN3PCBnwEm
 205              	_ZN3PCBnwEm:
 206              	.LFB28:
  55:src/PCB.cpp   **** 
  56:src/PCB.cpp   **** void PCB::dispatch()
  57:src/PCB.cpp   **** {
  58:src/PCB.cpp   ****     //Riscv::printString("Dispatch called...\n");
  59:src/PCB.cpp   ****     PCB* old = running;
  60:src/PCB.cpp   ****     if(old->getState() == PCB::RUNNING)
  61:src/PCB.cpp   ****         Scheduler::put(old);
  62:src/PCB.cpp   ****     PCB::running = Scheduler::get();
  63:src/PCB.cpp   ****     PCB::running->setState(PCB::RUNNING);
  64:src/PCB.cpp   ****     //Riscv::printString("Switching context...\n");
  65:src/PCB.cpp   **** 
  66:src/PCB.cpp   ****     if(PCB::exitingPCB == 0)
  67:src/PCB.cpp   ****     {
  68:src/PCB.cpp   ****         PCB::contextSwitch(&old->context, &running->context);
  69:src/PCB.cpp   ****     }
  70:src/PCB.cpp   ****     else
  71:src/PCB.cpp   ****     {
  72:src/PCB.cpp   ****         delete PCB::exitingPCB;
  73:src/PCB.cpp   ****         PCB::exitingPCB = 0;
  74:src/PCB.cpp   ****         PCB::contextSwitchExiting(&running->context);
  75:src/PCB.cpp   ****     }
  76:src/PCB.cpp   **** 
  77:src/PCB.cpp   **** }
GAS LISTING /tmp/ccslPeov.s 			page 7


  78:src/PCB.cpp   **** 
  79:src/PCB.cpp   **** void *PCB::operator new(size_t size) {
 207              		.loc 1 79 38 is_stmt 1
 208              		.cfi_startproc
 209              	.LVL14:
 210 0120 130101FF 		addi	sp,sp,-16
 211              		.cfi_def_cfa_offset 16
 212 0124 23341100 		sd	ra,8(sp)
 213 0128 23308100 		sd	s0,0(sp)
 214              		.cfi_offset 1, -8
 215              		.cfi_offset 8, -16
 216 012c 13040101 		addi	s0,sp,16
 217              		.cfi_def_cfa 8, 0
  80:src/PCB.cpp   ****     return kmalloc(size);
 218              		.loc 1 80 5
 219              		.loc 1 80 19 is_stmt 0
 220 0130 97000000 		call	_Z7kmallocm@plt
 220      E7800000 
 221              	.LVL15:
  81:src/PCB.cpp   **** }
 222              		.loc 1 81 1
 223 0138 83308100 		ld	ra,8(sp)
 224              		.cfi_restore 1
 225 013c 03340100 		ld	s0,0(sp)
 226              		.cfi_restore 8
 227              		.cfi_def_cfa 2, 16
 228 0140 13010101 		addi	sp,sp,16
 229              		.cfi_def_cfa_offset 0
 230 0144 67800000 		jr	ra
 231              		.cfi_endproc
 232              	.LFE28:
 234              		.align	2
 235              		.globl	_ZN3PCBdlEPv
 237              	_ZN3PCBdlEPv:
 238              	.LFB29:
  82:src/PCB.cpp   **** 
  83:src/PCB.cpp   **** void PCB::operator delete(void *p) {
 239              		.loc 1 83 36 is_stmt 1
 240              		.cfi_startproc
 241              	.LVL16:
 242 0148 130101FF 		addi	sp,sp,-16
 243              		.cfi_def_cfa_offset 16
 244 014c 23341100 		sd	ra,8(sp)
 245 0150 23308100 		sd	s0,0(sp)
 246              		.cfi_offset 1, -8
 247              		.cfi_offset 8, -16
 248 0154 13040101 		addi	s0,sp,16
 249              		.cfi_def_cfa 8, 0
  84:src/PCB.cpp   ****     //todo
  85:src/PCB.cpp   ****     kfree(p);
 250              		.loc 1 85 5
 251              		.loc 1 85 10 is_stmt 0
 252 0158 97000000 		call	_Z5kfreePv@plt
 252      E7800000 
 253              	.LVL17:
  86:src/PCB.cpp   **** }
 254              		.loc 1 86 1
GAS LISTING /tmp/ccslPeov.s 			page 8


 255 0160 83308100 		ld	ra,8(sp)
 256              		.cfi_restore 1
 257 0164 03340100 		ld	s0,0(sp)
 258              		.cfi_restore 8
 259              		.cfi_def_cfa 2, 16
 260 0168 13010101 		addi	sp,sp,16
 261              		.cfi_def_cfa_offset 0
 262 016c 67800000 		jr	ra
 263              		.cfi_endproc
 264              	.LFE29:
 266              		.align	2
 267              		.globl	_ZN3PCBD2Ev
 269              	_ZN3PCBD2Ev:
 270              	.LFB31:
  87:src/PCB.cpp   **** 
  88:src/PCB.cpp   **** PCB::~PCB() {
 271              		.loc 1 88 1 is_stmt 1
 272              		.cfi_startproc
 273              		.cfi_personality 0x9b,DW.ref.__gxx_personality_v0
 274              		.cfi_lsda 0x1b,.LLSDA31
 275              	.LVL18:
 276 0170 130101FF 		addi	sp,sp,-16
 277              		.cfi_def_cfa_offset 16
 278 0174 23341100 		sd	ra,8(sp)
 279 0178 23308100 		sd	s0,0(sp)
 280              		.cfi_offset 1, -8
 281              		.cfi_offset 8, -16
 282 017c 13040101 		addi	s0,sp,16
 283              		.cfi_def_cfa 8, 0
 284              	.LBB25:
  89:src/PCB.cpp   ****     kfree(beginSP);
 285              		.loc 1 89 5
 286              		.loc 1 89 10 is_stmt 0
 287 0180 03358502 		ld	a0,40(a0)
 288              	.LVL19:
 289 0184 97000000 		call	_Z5kfreePv@plt
 289      E7800000 
 290              	.LVL20:
 291              	.LBE25:
  90:src/PCB.cpp   **** }
 292              		.loc 1 90 1
 293 018c 83308100 		ld	ra,8(sp)
 294              		.cfi_restore 1
 295 0190 03340100 		ld	s0,0(sp)
 296              		.cfi_restore 8
 297              		.cfi_def_cfa 2, 16
 298 0194 13010101 		addi	sp,sp,16
 299              		.cfi_def_cfa_offset 0
 300 0198 67800000 		jr	ra
 301              		.cfi_endproc
 302              	.LFE31:
 303              		.globl	__gxx_personality_v0
 304              		.section	.gcc_except_table,"a",@progbits
 305              	.LLSDA31:
 306 0000 FF       		.byte	0xff
 307 0001 FF       		.byte	0xff
 308 0002 03       		.byte	0x3
GAS LISTING /tmp/ccslPeov.s 			page 9


 309 0003 00       		.byte	0
 310              		.text
 312              		.globl	_ZN3PCBD1Ev
 313              		.set	_ZN3PCBD1Ev,_ZN3PCBD2Ev
 314              		.align	2
 315              		.globl	_ZN3PCB8dispatchEv
 317              	_ZN3PCB8dispatchEv:
 318              	.LFB27:
  57:src/PCB.cpp   ****     //Riscv::printString("Dispatch called...\n");
 319              		.loc 1 57 1 is_stmt 1
 320              		.cfi_startproc
 321 019c 130101FE 		addi	sp,sp,-32
 322              		.cfi_def_cfa_offset 32
 323 01a0 233C1100 		sd	ra,24(sp)
 324 01a4 23388100 		sd	s0,16(sp)
 325 01a8 23349100 		sd	s1,8(sp)
 326 01ac 23302101 		sd	s2,0(sp)
 327              		.cfi_offset 1, -8
 328              		.cfi_offset 8, -16
 329              		.cfi_offset 9, -24
 330              		.cfi_offset 18, -32
 331 01b0 13040102 		addi	s0,sp,32
 332              		.cfi_def_cfa 8, 0
  59:src/PCB.cpp   ****     if(old->getState() == PCB::RUNNING)
 333              		.loc 1 59 5
  59:src/PCB.cpp   ****     if(old->getState() == PCB::RUNNING)
 334              		.loc 1 59 10 is_stmt 0
 335 01b4 17090000 		ld	s2,.LANCHOR0
 335      03390900 
 336              	.LVL21:
  60:src/PCB.cpp   ****         Scheduler::put(old);
 337              		.loc 1 60 5 is_stmt 1
 338              	.LBB26:
 339              	.LBB27:
  34:src/../h/PCB.hpp ****     void setState(State s) {state = s;}
 340              		.loc 2 34 23
  34:src/../h/PCB.hpp ****     void setState(State s) {state = s;}
 341              		.loc 2 34 30 is_stmt 0
 342 01bc 03270903 		lw	a4,48(s2)
 343              	.LVL22:
 344              	.LBE27:
 345              	.LBE26:
  60:src/PCB.cpp   ****         Scheduler::put(old);
 346              		.loc 1 60 5
 347 01c0 93071000 		li	a5,1
 348 01c4 630AF706 		beq	a4,a5,.L20
 349              	.L16:
  62:src/PCB.cpp   ****     PCB::running->setState(PCB::RUNNING);
 350              		.loc 1 62 5 is_stmt 1
  62:src/PCB.cpp   ****     PCB::running->setState(PCB::RUNNING);
 351              		.loc 1 62 34 is_stmt 0
 352 01c8 97000000 		call	_ZN9Scheduler3getEv@plt
 352      E7800000 
 353              	.LVL23:
  62:src/PCB.cpp   ****     PCB::running->setState(PCB::RUNNING);
 354              		.loc 1 62 18
 355 01d0 97070000 		lla	a5,.LANCHOR0
GAS LISTING /tmp/ccslPeov.s 			page 10


 355      93870700 
 356 01d8 23B0A700 		sd	a0,0(a5)
  63:src/PCB.cpp   ****     //Riscv::printString("Switching context...\n");
 357              		.loc 1 63 5 is_stmt 1
 358              	.LVL24:
 359              	.LBB28:
 360              	.LBB29:
 361              		.loc 2 35 29
 362              		.loc 2 35 35 is_stmt 0
 363 01dc 13071000 		li	a4,1
 364 01e0 2328E502 		sw	a4,48(a0)
 365              	.LVL25:
 366              	.LBE29:
 367              	.LBE28:
  66:src/PCB.cpp   ****     {
 368              		.loc 1 66 5 is_stmt 1
  66:src/PCB.cpp   ****     {
 369              		.loc 1 66 24 is_stmt 0
 370 01e4 83B48700 		ld	s1,8(a5)
  66:src/PCB.cpp   ****     {
 371              		.loc 1 66 5
 372 01e8 63800406 		beqz	s1,.L21
  72:src/PCB.cpp   ****         PCB::exitingPCB = 0;
 373              		.loc 1 72 9 is_stmt 1 discriminator 1
  72:src/PCB.cpp   ****         PCB::exitingPCB = 0;
 374              		.loc 1 72 21 is_stmt 0 discriminator 1
 375 01ec 13850400 		mv	a0,s1
 376 01f0 97000000 		call	_ZN3PCBD1Ev
 376      E7800000 
 377              	.LVL26:
 378 01f8 13850400 		mv	a0,s1
 379 01fc 97000000 		call	_ZN3PCBdlEPv
 379      E7800000 
 380              	.LVL27:
  73:src/PCB.cpp   ****         PCB::contextSwitchExiting(&running->context);
 381              		.loc 1 73 9 is_stmt 1 discriminator 1
  73:src/PCB.cpp   ****         PCB::contextSwitchExiting(&running->context);
 382              		.loc 1 73 25 is_stmt 0 discriminator 1
 383 0204 97070000 		lla	a5,.LANCHOR0
 383      93870700 
 384 020c 23B40700 		sd	zero,8(a5)
  74:src/PCB.cpp   ****     }
 385              		.loc 1 74 9 is_stmt 1 discriminator 1
  74:src/PCB.cpp   ****     }
 386              		.loc 1 74 45 is_stmt 0 discriminator 1
 387 0210 03B50700 		ld	a0,0(a5)
  74:src/PCB.cpp   ****     }
 388              		.loc 1 74 34 discriminator 1
 389 0214 13058503 		addi	a0,a0,56
 390 0218 97000000 		call	_ZN3PCB20contextSwitchExitingEPNS_7ContextE@plt
 390      E7800000 
 391              	.LVL28:
 392              	.L15:
  77:src/PCB.cpp   **** 
 393              		.loc 1 77 1
 394 0220 83308101 		ld	ra,24(sp)
 395              		.cfi_remember_state
GAS LISTING /tmp/ccslPeov.s 			page 11


 396              		.cfi_restore 1
 397 0224 03340101 		ld	s0,16(sp)
 398              		.cfi_restore 8
 399              		.cfi_def_cfa 2, 32
 400 0228 83348100 		ld	s1,8(sp)
 401              		.cfi_restore 9
 402 022c 03390100 		ld	s2,0(sp)
 403              		.cfi_restore 18
 404              	.LVL29:
 405 0230 13010102 		addi	sp,sp,32
 406              		.cfi_def_cfa_offset 0
 407 0234 67800000 		jr	ra
 408              	.LVL30:
 409              	.L20:
 410              		.cfi_restore_state
  61:src/PCB.cpp   ****     PCB::running = Scheduler::get();
 411              		.loc 1 61 9 is_stmt 1
  61:src/PCB.cpp   ****     PCB::running = Scheduler::get();
 412              		.loc 1 61 23 is_stmt 0
 413 0238 13050900 		mv	a0,s2
 414 023c 97000000 		call	_ZN9Scheduler3putEP3PCB@plt
 414      E7800000 
 415              	.LVL31:
 416 0244 6FF05FF8 		j	.L16
 417              	.L21:
  68:src/PCB.cpp   ****     }
 418              		.loc 1 68 9 is_stmt 1
  68:src/PCB.cpp   ****     }
 419              		.loc 1 68 27 is_stmt 0
 420 0248 93058503 		addi	a1,a0,56
 421 024c 13058903 		addi	a0,s2,56
 422 0250 97000000 		call	_ZN3PCB13contextSwitchEPNS_7ContextES1_@plt
 422      E7800000 
 423              	.LVL32:
 424 0258 6FF09FFC 		j	.L15
 425              		.cfi_endproc
 426              	.LFE27:
 428              		.section	.rodata.str1.8
 429 0026 0000     		.align	3
 430              	.LC2:
 431 0028 496E7365 		.string	"Inserting sleeping PCB...\n"
 431      7274696E 
 431      6720736C 
 431      65657069 
 431      6E672050 
 432              		.text
 433              		.align	2
 434              		.globl	_ZN3PCB17insertSleepingPCBEv
 436              	_ZN3PCB17insertSleepingPCBEv:
 437              	.LFB33:
  91:src/PCB.cpp   **** 
  92:src/PCB.cpp   **** void PCB::insertSleepingPCB()
  93:src/PCB.cpp   **** {
 438              		.loc 1 93 1 is_stmt 1
 439              		.cfi_startproc
 440 025c 130101FF 		addi	sp,sp,-16
 441              		.cfi_def_cfa_offset 16
GAS LISTING /tmp/ccslPeov.s 			page 12


 442 0260 23341100 		sd	ra,8(sp)
 443 0264 23308100 		sd	s0,0(sp)
 444              		.cfi_offset 1, -8
 445              		.cfi_offset 8, -16
 446 0268 13040101 		addi	s0,sp,16
 447              		.cfi_def_cfa 8, 0
  94:src/PCB.cpp   ****     Riscv::printString("Inserting sleeping PCB...\n");
 448              		.loc 1 94 5
 449              		.loc 1 94 23 is_stmt 0
 450 026c 17050000 		lla	a0,.LC2
 450      13050500 
 451 0274 97000000 		call	_ZN5Riscv11printStringEPKc@plt
 451      E7800000 
 452              	.LVL33:
  95:src/PCB.cpp   ****     PCB* prev = 0;
 453              		.loc 1 95 5 is_stmt 1
  96:src/PCB.cpp   ****     PCB* curr = sleepingPCBHead;
 454              		.loc 1 96 5
 455              		.loc 1 96 10 is_stmt 0
 456 027c 97070000 		ld	a5,.LANCHOR0+16
 456      83B70700 
 457              	.LVL34:
  95:src/PCB.cpp   ****     PCB* prev = 0;
 458              		.loc 1 95 10
 459 0284 93050000 		li	a1,0
 460              	.LVL35:
 461              	.L25:
  97:src/PCB.cpp   ****     while(curr != 0)
 462              		.loc 1 97 5 is_stmt 1
 463              		.loc 1 97 16
 464 0288 63840702 		beqz	a5,.L23
  98:src/PCB.cpp   ****     {
  99:src/PCB.cpp   ****         if(PCB::running->getTimeToSleep() < curr->getTimeToSleep())
 465              		.loc 1 99 9
 466              		.loc 1 99 40 is_stmt 0
 467 028c 17070000 		ld	a4,.LANCHOR0
 467      03370700 
 468              	.LVL36:
 469              	.LBB30:
 470              	.LBB31:
  36:src/../h/PCB.hpp ****     void setTimeToSleep(uint64 time) {timeToSleep = time;}
  37:src/../h/PCB.hpp ****     uint64 getTimeToSleep() {return timeToSleep;}
 471              		.loc 2 37 30 is_stmt 1
 472              		.loc 2 37 37 is_stmt 0
 473 0294 03360701 		ld	a2,16(a4)
 474              	.LVL37:
 475              	.LBE31:
 476              	.LBE30:
 477              	.LBB32:
 478              	.LBB33:
 479              		.loc 2 37 30 is_stmt 1
 480              		.loc 2 37 37 is_stmt 0
 481 0298 83B60701 		ld	a3,16(a5)
 482              	.LVL38:
 483              	.LBE33:
 484              	.LBE32:
 485              		.loc 1 99 9
GAS LISTING /tmp/ccslPeov.s 			page 13


 486 029c 6368D600 		bltu	a2,a3,.L29
 100:src/PCB.cpp   ****         {
 101:src/PCB.cpp   ****             PCB::running->nextPCB = curr;
 102:src/PCB.cpp   ****             break;
 103:src/PCB.cpp   ****         }
 104:src/PCB.cpp   ****         prev = curr;
 487              		.loc 1 104 9 is_stmt 1
 488              	.LVL39:
 105:src/PCB.cpp   ****         curr=curr->nextPCB;
 489              		.loc 1 105 9
 104:src/PCB.cpp   ****         curr=curr->nextPCB;
 490              		.loc 1 104 14 is_stmt 0
 491 02a0 93850700 		mv	a1,a5
 492              		.loc 1 105 13
 493 02a4 83B70700 		ld	a5,0(a5)
 494              	.LVL40:
  97:src/PCB.cpp   ****     {
 495              		.loc 1 97 5
 496 02a8 6FF01FFE 		j	.L25
 497              	.L29:
 101:src/PCB.cpp   ****             break;
 498              		.loc 1 101 13 is_stmt 1
 101:src/PCB.cpp   ****             break;
 499              		.loc 1 101 35 is_stmt 0
 500 02ac 2330F700 		sd	a5,0(a4)
 102:src/PCB.cpp   ****         }
 501              		.loc 1 102 13 is_stmt 1
 502              	.L23:
 106:src/PCB.cpp   ****     }
 107:src/PCB.cpp   **** 
 108:src/PCB.cpp   ****     if(prev == 0)
 503              		.loc 1 108 5
 504 02b0 63800502 		beqz	a1,.L30
 109:src/PCB.cpp   ****         sleepingPCBHead = PCB::running;
 110:src/PCB.cpp   ****     else
 111:src/PCB.cpp   ****         prev->nextPCB = PCB::running;
 505              		.loc 1 111 9
 506              		.loc 1 111 23 is_stmt 0
 507 02b4 97070000 		ld	a5,.LANCHOR0
 507      83B70700 
 508              	.LVL41:
 509 02bc 23B0F500 		sd	a5,0(a1)
 510              	.L22:
 112:src/PCB.cpp   **** }
 511              		.loc 1 112 1
 512 02c0 83308100 		ld	ra,8(sp)
 513              		.cfi_remember_state
 514              		.cfi_restore 1
 515 02c4 03340100 		ld	s0,0(sp)
 516              		.cfi_restore 8
 517              		.cfi_def_cfa 2, 16
 518 02c8 13010101 		addi	sp,sp,16
 519              		.cfi_def_cfa_offset 0
 520 02cc 67800000 		jr	ra
 521              	.LVL42:
 522              	.L30:
 523              		.cfi_restore_state
GAS LISTING /tmp/ccslPeov.s 			page 14


 109:src/PCB.cpp   ****         sleepingPCBHead = PCB::running;
 524              		.loc 1 109 9 is_stmt 1
 109:src/PCB.cpp   ****         sleepingPCBHead = PCB::running;
 525              		.loc 1 109 25 is_stmt 0
 526 02d0 97070000 		lla	a5,.LANCHOR0
 526      93870700 
 527              	.LVL43:
 528 02d8 03B70700 		ld	a4,0(a5)
 529 02dc 23B8E700 		sd	a4,16(a5)
 530 02e0 6FF01FFE 		j	.L22
 531              		.cfi_endproc
 532              	.LFE33:
 534              		.section	.rodata.str1.8
 535 0043 00000000 		.align	3
 535      00
 536              	.LC3:
 537 0048 57616B69 		.string	"Waking PCBs...\n"
 537      6E672050 
 537      4342732E 
 537      2E2E0A00 
 538              		.align	3
 539              	.LC4:
 540 0058 50434220 		.string	"PCB woken...\n"
 540      776F6B65 
 540      6E2E2E2E 
 540      0A00
 541              		.text
 542              		.align	2
 543              		.globl	_ZN3PCB13tryToWakePCBsEv
 545              	_ZN3PCB13tryToWakePCBsEv:
 546              	.LFB34:
 113:src/PCB.cpp   **** 
 114:src/PCB.cpp   **** void PCB::tryToWakePCBs() {
 547              		.loc 1 114 27 is_stmt 1
 548              		.cfi_startproc
 549 02e4 130101FE 		addi	sp,sp,-32
 550              		.cfi_def_cfa_offset 32
 551 02e8 233C1100 		sd	ra,24(sp)
 552 02ec 23388100 		sd	s0,16(sp)
 553 02f0 23349100 		sd	s1,8(sp)
 554 02f4 23302101 		sd	s2,0(sp)
 555              		.cfi_offset 1, -8
 556              		.cfi_offset 8, -16
 557              		.cfi_offset 9, -24
 558              		.cfi_offset 18, -32
 559 02f8 13040102 		addi	s0,sp,32
 560              		.cfi_def_cfa 8, 0
 115:src/PCB.cpp   ****     Riscv::printString("Waking PCBs...\n");
 561              		.loc 1 115 5
 562              		.loc 1 115 23 is_stmt 0
 563 02fc 17050000 		lla	a0,.LC3
 563      13050500 
 564 0304 97000000 		call	_ZN5Riscv11printStringEPKc@plt
 564      E7800000 
 565              	.LVL44:
 116:src/PCB.cpp   ****     PCB* curr = sleepingPCBHead;
 566              		.loc 1 116 5 is_stmt 1
GAS LISTING /tmp/ccslPeov.s 			page 15


 567              		.loc 1 116 10 is_stmt 0
 568 030c 97040000 		ld	s1,.LANCHOR0+16
 568      83B40400 
 569              	.LVL45:
 570 0314 6F008003 		j	.L32
 571              	.L37:
 572              	.LBB34:
 573              	.LBB35:
 117:src/PCB.cpp   ****     while(curr != 0)
 118:src/PCB.cpp   ****     {
 119:src/PCB.cpp   ****         if(curr->getTimeToSleep() == 1UL)
 120:src/PCB.cpp   ****         {
 121:src/PCB.cpp   ****             Riscv::printString("PCB woken...\n");
 574              		.loc 1 121 13 is_stmt 1
 575              		.loc 1 121 31 is_stmt 0
 576 0318 17050000 		lla	a0,.LC4
 576      13050500 
 577 0320 97000000 		call	_ZN5Riscv11printStringEPKc@plt
 577      E7800000 
 578              	.LVL46:
 122:src/PCB.cpp   ****             PCB* old = curr;
 579              		.loc 1 122 13 is_stmt 1
 123:src/PCB.cpp   ****             curr=curr->nextPCB;
 580              		.loc 1 123 13
 581              		.loc 1 123 17 is_stmt 0
 582 0328 03B90400 		ld	s2,0(s1)
 583              	.LVL47:
 124:src/PCB.cpp   ****             old->setState(PCB::READY);
 584              		.loc 1 124 13 is_stmt 1
 585              	.LBB36:
 586              	.LBB37:
  35:src/../h/PCB.hpp ****     void setTimeToSleep(uint64 time) {timeToSleep = time;}
 587              		.loc 2 35 29
  35:src/../h/PCB.hpp ****     void setTimeToSleep(uint64 time) {timeToSleep = time;}
 588              		.loc 2 35 35 is_stmt 0
 589 032c 23A80402 		sw	zero,48(s1)
 590              	.LVL48:
 591              	.LBE37:
 592              	.LBE36:
 125:src/PCB.cpp   ****             old->nextPCB = 0;
 593              		.loc 1 125 13 is_stmt 1
 594              		.loc 1 125 26 is_stmt 0
 595 0330 23B00400 		sd	zero,0(s1)
 126:src/PCB.cpp   ****             Scheduler::put(old);
 596              		.loc 1 126 13 is_stmt 1
 597              		.loc 1 126 27 is_stmt 0
 598 0334 13850400 		mv	a0,s1
 599 0338 97000000 		call	_ZN9Scheduler3putEP3PCB@plt
 599      E7800000 
 600              	.LVL49:
 127:src/PCB.cpp   ****             sleepingPCBHead = curr;
 601              		.loc 1 127 13 is_stmt 1
 602              		.loc 1 127 29 is_stmt 0
 603 0340 97070000 		sd	s2,.LANCHOR0+16,a5
 603      23B02701 
 123:src/PCB.cpp   ****             old->setState(PCB::READY);
 604              		.loc 1 123 17
GAS LISTING /tmp/ccslPeov.s 			page 16


 605 0348 93040900 		mv	s1,s2
 606              	.LVL50:
 607              	.L32:
 608              	.LBE35:
 609              	.LBE34:
 117:src/PCB.cpp   ****     {
 610              		.loc 1 117 5 is_stmt 1
 117:src/PCB.cpp   ****     {
 611              		.loc 1 117 16
 612 034c 63800402 		beqz	s1,.L31
 119:src/PCB.cpp   ****         {
 613              		.loc 1 119 9
 614              	.LVL51:
 615              	.LBB42:
 616              	.LBB38:
 617              	.LBB39:
 618              		.loc 2 37 30
 619              		.loc 2 37 37 is_stmt 0
 620 0350 83B70401 		ld	a5,16(s1)
 621              	.LVL52:
 622              	.LBE39:
 623              	.LBE38:
 119:src/PCB.cpp   ****         {
 624              		.loc 1 119 9
 625 0354 13071000 		li	a4,1
 626 0358 E380E7FC 		beq	a5,a4,.L37
 128:src/PCB.cpp   ****         }
 129:src/PCB.cpp   ****         else
 130:src/PCB.cpp   ****         {
 131:src/PCB.cpp   ****             curr->setTimeToSleep(curr->getTimeToSleep() - 1);
 627              		.loc 1 131 13 is_stmt 1
 628              	.LVL53:
 629              	.LBE42:
 630              		.loc 2 37 30
 631              	.LBB43:
 632              		.loc 1 131 33 is_stmt 0
 633 035c 9387F7FF 		addi	a5,a5,-1
 634              	.LVL54:
 635              	.LBB40:
 636              	.LBB41:
  36:src/../h/PCB.hpp ****     uint64 getTimeToSleep() {return timeToSleep;}
 637              		.loc 2 36 39 is_stmt 1
  36:src/../h/PCB.hpp ****     uint64 getTimeToSleep() {return timeToSleep;}
 638              		.loc 2 36 51 is_stmt 0
 639 0360 23B8F400 		sd	a5,16(s1)
 640              	.LVL55:
 641              	.LBE41:
 642              	.LBE40:
 132:src/PCB.cpp   ****             curr = curr->nextPCB;
 643              		.loc 1 132 13 is_stmt 1
 644              		.loc 1 132 18 is_stmt 0
 645 0364 83B40400 		ld	s1,0(s1)
 646              	.LVL56:
 647 0368 6FF05FFE 		j	.L32
 648              	.L31:
 649              	.LBE43:
 133:src/PCB.cpp   ****         }
GAS LISTING /tmp/ccslPeov.s 			page 17


 134:src/PCB.cpp   ****     }
 135:src/PCB.cpp   **** }
 650              		.loc 1 135 1
 651 036c 83308101 		ld	ra,24(sp)
 652              		.cfi_restore 1
 653 0370 03340101 		ld	s0,16(sp)
 654              		.cfi_restore 8
 655              		.cfi_def_cfa 2, 32
 656 0374 83348100 		ld	s1,8(sp)
 657              		.cfi_restore 9
 658              	.LVL57:
 659 0378 03390100 		ld	s2,0(sp)
 660              		.cfi_restore 18
 661 037c 13010102 		addi	sp,sp,32
 662              		.cfi_def_cfa_offset 0
 663 0380 67800000 		jr	ra
 664              		.cfi_endproc
 665              	.LFE34:
 667              		.globl	_ZN3PCB15sleepingPCBHeadE
 668              		.globl	_ZN3PCB16timeSliceCounterE
 669              		.globl	_ZN3PCB10exitingPCBE
 670              		.globl	_ZN3PCB7runningE
 671              		.bss
 672              		.align	3
 673              		.set	.LANCHOR0,. + 0
 676              	_ZN3PCB7runningE:
 677 0000 00000000 		.zero	8
 677      00000000 
 680              	_ZN3PCB10exitingPCBE:
 681 0008 00000000 		.zero	8
 681      00000000 
 684              	_ZN3PCB15sleepingPCBHeadE:
 685 0010 00000000 		.zero	8
 685      00000000 
 688              	_ZN3PCB16timeSliceCounterE:
 689 0018 00000000 		.zero	8
 689      00000000 
 690              		.text
 691              	.Letext0:
 692              		.file 3 "src/../h/../lib/hw.h"
 693              		.file 4 "src/../h/Queue.hpp"
 694              		.file 5 "src/../h/Scheduler.hpp"
 695              		.file 6 "src/../h/Riscv.hpp"
 696              		.file 7 "src/../h/MemoryAllocator.hpp"
 697              		.file 8 "src/../h/syscall_c.h"
 4236              		.align	3
 4239              	DW.ref.__gxx_personality_v0:
 4240 0000 00000000 		.dword	__gxx_personality_v0
 4240      00000000 
 4241              		.ident	"GCC: (Ubuntu 9.3.0-17ubuntu1~20.04) 9.3.0"
 4242              		.section	.note.GNU-stack,"",@progbits
GAS LISTING /tmp/ccslPeov.s 			page 18


DEFINED SYMBOLS
                            *ABS*:0000000000000000 PCB.cpp
     /tmp/ccslPeov.s:17     .text:0000000000000000 _ZN3PCB6runnerEv
     /tmp/ccslPeov.s:21     .text:0000000000000000 .L0 
     /tmp/ccslPeov.s:22     .text:0000000000000000 .L0 
     /tmp/ccslPeov.s:23     .text:0000000000000004 .L0 
     /tmp/ccslPeov.s:27     .text:0000000000000010 .L0 
     /tmp/ccslPeov.s:28     .text:0000000000000010 .L0 
     /tmp/ccslPeov.s:29     .text:0000000000000010 .L0 
     /tmp/ccslPeov.s:31     .text:0000000000000014 .L0 
     /tmp/ccslPeov.s:33     .text:0000000000000014 .L0 
     /tmp/ccslPeov.s:34     .text:0000000000000014 .L0 
     /tmp/ccslPeov.s:38     .text:0000000000000024 .L0 
     /tmp/ccslPeov.s:39     .text:0000000000000024 .L0 
     /tmp/ccslPeov.s:42     .text:000000000000002c .L0 
     /tmp/ccslPeov.s:43     .text:000000000000002c .L0 
     /tmp/ccslPeov.s:47     .text:000000000000003c .L0 
     /tmp/ccslPeov.s:51     .text:0000000000000044 .L0 
     /tmp/ccslPeov.s:52     .text:0000000000000044 .L0 
     /tmp/ccslPeov.s:58     .text:0000000000000048 .L0 
     /tmp/ccslPeov.s:59     .text:0000000000000048 .L0 
     /tmp/ccslPeov.s:65     .text:0000000000000050 .L0 
     /tmp/ccslPeov.s:66     .text:0000000000000050 .L0 
     /tmp/ccslPeov.s:70     .text:0000000000000060 .L0 
     /tmp/ccslPeov.s:71     .text:0000000000000060 .L0 
     /tmp/ccslPeov.s:74     .text:0000000000000068 .L0 
     /tmp/ccslPeov.s:75     .text:000000000000006c .L0 
     /tmp/ccslPeov.s:77     .text:0000000000000070 .L0 
     /tmp/ccslPeov.s:78     .text:0000000000000070 .L0 
     /tmp/ccslPeov.s:80     .text:0000000000000074 .L0 
     /tmp/ccslPeov.s:82     .text:0000000000000078 .L0 
     /tmp/ccslPeov.s:84     .text:000000000000007c .L0 
     /tmp/ccslPeov.s:90     .text:000000000000007c _ZN3PCBC2EPFvPvES0_S0_m
     /tmp/ccslPeov.s:93     .text:000000000000007c .L0 
     /tmp/ccslPeov.s:95     .text:000000000000007c .L0 
     /tmp/ccslPeov.s:96     .text:0000000000000080 .L0 
     /tmp/ccslPeov.s:100    .text:000000000000008c .L0 
     /tmp/ccslPeov.s:101    .text:000000000000008c .L0 
     /tmp/ccslPeov.s:102    .text:000000000000008c .L0 
     /tmp/ccslPeov.s:104    .text:0000000000000090 .L0 
     /tmp/ccslPeov.s:108    .text:0000000000000094 .L0 
     /tmp/ccslPeov.s:114    .text:00000000000000a8 .L0 
     /tmp/ccslPeov.s:118    .text:00000000000000b0 .L0 
     /tmp/ccslPeov.s:122    .text:00000000000000c0 .L0 
     /tmp/ccslPeov.s:123    .text:00000000000000c0 .L0 
     /tmp/ccslPeov.s:126    .text:00000000000000c8 .L0 
     /tmp/ccslPeov.s:127    .text:00000000000000c8 .L0 
     /tmp/ccslPeov.s:130    .text:00000000000000cc .L0 
     /tmp/ccslPeov.s:131    .text:00000000000000d0 .L0 
     /tmp/ccslPeov.s:133    .text:00000000000000d4 .L0 
     /tmp/ccslPeov.s:134    .text:00000000000000d4 .L0 
     /tmp/ccslPeov.s:136    .text:00000000000000d8 .L0 
     /tmp/ccslPeov.s:139    .text:00000000000000dc .L0 
     /tmp/ccslPeov.s:141    .text:00000000000000e0 .L0 
     /tmp/ccslPeov.s:90     .text:000000000000007c _ZN3PCBC1EPFvPvES0_S0_m
     /tmp/ccslPeov.s:149    .text:00000000000000e0 _ZN3PCB5sleepEm
     /tmp/ccslPeov.s:152    .text:00000000000000e0 .L0 
GAS LISTING /tmp/ccslPeov.s 			page 19


     /tmp/ccslPeov.s:154    .text:00000000000000e0 .L0 
     /tmp/ccslPeov.s:155    .text:00000000000000e4 .L0 
     /tmp/ccslPeov.s:157    .text:00000000000000e8 .L0 
     /tmp/ccslPeov.s:159    .text:00000000000000ec .L0 
     /tmp/ccslPeov.s:161    .text:00000000000000ec .L0 
     /tmp/ccslPeov.s:162    .text:00000000000000f0 .L0 
     /tmp/ccslPeov.s:163    .text:00000000000000f0 .L0 
     /tmp/ccslPeov.s:165    .text:00000000000000f4 .L0 
     /tmp/ccslPeov.s:167    .text:00000000000000f8 .L0 
     /tmp/ccslPeov.s:173    .text:00000000000000f8 _ZN3PCB5startEv
     /tmp/ccslPeov.s:176    .text:00000000000000f8 .L0 
     /tmp/ccslPeov.s:178    .text:00000000000000f8 .L0 
     /tmp/ccslPeov.s:179    .text:00000000000000fc .L0 
     /tmp/ccslPeov.s:182    .text:0000000000000104 .L0 
     /tmp/ccslPeov.s:183    .text:0000000000000104 .L0 
     /tmp/ccslPeov.s:185    .text:0000000000000108 .L0 
     /tmp/ccslPeov.s:187    .text:0000000000000108 .L0 
     /tmp/ccslPeov.s:188    .text:0000000000000108 .L0 
     /tmp/ccslPeov.s:191    .text:0000000000000110 .L0 
     /tmp/ccslPeov.s:192    .text:0000000000000114 .L0 
     /tmp/ccslPeov.s:194    .text:0000000000000118 .L0 
     /tmp/ccslPeov.s:195    .text:0000000000000118 .L0 
     /tmp/ccslPeov.s:197    .text:000000000000011c .L0 
     /tmp/ccslPeov.s:199    .text:0000000000000120 .L0 
     /tmp/ccslPeov.s:205    .text:0000000000000120 _ZN3PCBnwEm
     /tmp/ccslPeov.s:208    .text:0000000000000120 .L0 
     /tmp/ccslPeov.s:210    .text:0000000000000120 .L0 
     /tmp/ccslPeov.s:211    .text:0000000000000124 .L0 
     /tmp/ccslPeov.s:214    .text:000000000000012c .L0 
     /tmp/ccslPeov.s:215    .text:000000000000012c .L0 
     /tmp/ccslPeov.s:217    .text:0000000000000130 .L0 
     /tmp/ccslPeov.s:219    .text:0000000000000130 .L0 
     /tmp/ccslPeov.s:220    .text:0000000000000130 .L0 
     /tmp/ccslPeov.s:223    .text:0000000000000138 .L0 
     /tmp/ccslPeov.s:224    .text:000000000000013c .L0 
     /tmp/ccslPeov.s:226    .text:0000000000000140 .L0 
     /tmp/ccslPeov.s:227    .text:0000000000000140 .L0 
     /tmp/ccslPeov.s:229    .text:0000000000000144 .L0 
     /tmp/ccslPeov.s:231    .text:0000000000000148 .L0 
     /tmp/ccslPeov.s:237    .text:0000000000000148 _ZN3PCBdlEPv
     /tmp/ccslPeov.s:240    .text:0000000000000148 .L0 
     /tmp/ccslPeov.s:242    .text:0000000000000148 .L0 
     /tmp/ccslPeov.s:243    .text:000000000000014c .L0 
     /tmp/ccslPeov.s:246    .text:0000000000000154 .L0 
     /tmp/ccslPeov.s:247    .text:0000000000000154 .L0 
     /tmp/ccslPeov.s:249    .text:0000000000000158 .L0 
     /tmp/ccslPeov.s:251    .text:0000000000000158 .L0 
     /tmp/ccslPeov.s:252    .text:0000000000000158 .L0 
     /tmp/ccslPeov.s:255    .text:0000000000000160 .L0 
     /tmp/ccslPeov.s:256    .text:0000000000000164 .L0 
     /tmp/ccslPeov.s:258    .text:0000000000000168 .L0 
     /tmp/ccslPeov.s:259    .text:0000000000000168 .L0 
     /tmp/ccslPeov.s:261    .text:000000000000016c .L0 
     /tmp/ccslPeov.s:263    .text:0000000000000170 .L0 
     /tmp/ccslPeov.s:269    .text:0000000000000170 _ZN3PCBD2Ev
     /tmp/ccslPeov.s:272    .text:0000000000000170 .L0 
     /tmp/ccslPeov.s:4239   .data.rel.local.DW.ref.__gxx_personality_v0:0000000000000000 DW.ref.__gxx_personality_v0
GAS LISTING /tmp/ccslPeov.s 			page 20


     /tmp/ccslPeov.s:276    .text:0000000000000170 .L0 
     /tmp/ccslPeov.s:277    .text:0000000000000174 .L0 
     /tmp/ccslPeov.s:280    .text:000000000000017c .L0 
     /tmp/ccslPeov.s:281    .text:000000000000017c .L0 
     /tmp/ccslPeov.s:283    .text:0000000000000180 .L0 
     /tmp/ccslPeov.s:286    .text:0000000000000180 .L0 
     /tmp/ccslPeov.s:287    .text:0000000000000180 .L0 
     /tmp/ccslPeov.s:293    .text:000000000000018c .L0 
     /tmp/ccslPeov.s:294    .text:0000000000000190 .L0 
     /tmp/ccslPeov.s:296    .text:0000000000000194 .L0 
     /tmp/ccslPeov.s:297    .text:0000000000000194 .L0 
     /tmp/ccslPeov.s:299    .text:0000000000000198 .L0 
     /tmp/ccslPeov.s:301    .text:000000000000019c .L0 
     /tmp/ccslPeov.s:269    .text:0000000000000170 _ZN3PCBD1Ev
     /tmp/ccslPeov.s:317    .text:000000000000019c _ZN3PCB8dispatchEv
     /tmp/ccslPeov.s:320    .text:000000000000019c .L0 
     /tmp/ccslPeov.s:321    .text:000000000000019c .L0 
     /tmp/ccslPeov.s:322    .text:00000000000001a0 .L0 
     /tmp/ccslPeov.s:327    .text:00000000000001b0 .L0 
     /tmp/ccslPeov.s:328    .text:00000000000001b0 .L0 
     /tmp/ccslPeov.s:329    .text:00000000000001b0 .L0 
     /tmp/ccslPeov.s:330    .text:00000000000001b0 .L0 
     /tmp/ccslPeov.s:332    .text:00000000000001b4 .L0 
     /tmp/ccslPeov.s:334    .text:00000000000001b4 .L0 
     /tmp/ccslPeov.s:335    .text:00000000000001b4 .L0 
     /tmp/ccslPeov.s:340    .text:00000000000001bc .L0 
     /tmp/ccslPeov.s:341    .text:00000000000001bc .L0 
     /tmp/ccslPeov.s:342    .text:00000000000001bc .L0 
     /tmp/ccslPeov.s:347    .text:00000000000001c0 .L0 
     /tmp/ccslPeov.s:351    .text:00000000000001c8 .L0 
     /tmp/ccslPeov.s:352    .text:00000000000001c8 .L0 
     /tmp/ccslPeov.s:355    .text:00000000000001d0 .L0 
     /tmp/ccslPeov.s:361    .text:00000000000001dc .L0 
     /tmp/ccslPeov.s:362    .text:00000000000001dc .L0 
     /tmp/ccslPeov.s:363    .text:00000000000001dc .L0 
     /tmp/ccslPeov.s:369    .text:00000000000001e4 .L0 
     /tmp/ccslPeov.s:370    .text:00000000000001e4 .L0 
     /tmp/ccslPeov.s:372    .text:00000000000001e8 .L0 
     /tmp/ccslPeov.s:374    .text:00000000000001ec .L0 
     /tmp/ccslPeov.s:375    .text:00000000000001ec .L0 
     /tmp/ccslPeov.s:382    .text:0000000000000204 .L0 
     /tmp/ccslPeov.s:383    .text:0000000000000204 .L0 
     /tmp/ccslPeov.s:386    .text:0000000000000210 .L0 
     /tmp/ccslPeov.s:387    .text:0000000000000210 .L0 
     /tmp/ccslPeov.s:389    .text:0000000000000214 .L0 
     /tmp/ccslPeov.s:394    .text:0000000000000220 .L0 
     /tmp/ccslPeov.s:395    .text:0000000000000224 .L0 
     /tmp/ccslPeov.s:396    .text:0000000000000224 .L0 
     /tmp/ccslPeov.s:398    .text:0000000000000228 .L0 
     /tmp/ccslPeov.s:399    .text:0000000000000228 .L0 
     /tmp/ccslPeov.s:401    .text:000000000000022c .L0 
     /tmp/ccslPeov.s:403    .text:0000000000000230 .L0 
     /tmp/ccslPeov.s:406    .text:0000000000000234 .L0 
     /tmp/ccslPeov.s:410    .text:0000000000000238 .L0 
     /tmp/ccslPeov.s:412    .text:0000000000000238 .L0 
     /tmp/ccslPeov.s:413    .text:0000000000000238 .L0 
     /tmp/ccslPeov.s:419    .text:0000000000000248 .L0 
GAS LISTING /tmp/ccslPeov.s 			page 21


     /tmp/ccslPeov.s:420    .text:0000000000000248 .L0 
     /tmp/ccslPeov.s:425    .text:000000000000025c .L0 
     /tmp/ccslPeov.s:436    .text:000000000000025c _ZN3PCB17insertSleepingPCBEv
     /tmp/ccslPeov.s:439    .text:000000000000025c .L0 
     /tmp/ccslPeov.s:440    .text:000000000000025c .L0 
     /tmp/ccslPeov.s:441    .text:0000000000000260 .L0 
     /tmp/ccslPeov.s:444    .text:0000000000000268 .L0 
     /tmp/ccslPeov.s:445    .text:0000000000000268 .L0 
     /tmp/ccslPeov.s:447    .text:000000000000026c .L0 
     /tmp/ccslPeov.s:449    .text:000000000000026c .L0 
     /tmp/ccslPeov.s:450    .text:000000000000026c .L0 
     /tmp/ccslPeov.s:454    .text:000000000000027c .L0 
     /tmp/ccslPeov.s:455    .text:000000000000027c .L0 
     /tmp/ccslPeov.s:456    .text:000000000000027c .L0 
     /tmp/ccslPeov.s:459    .text:0000000000000284 .L0 
     /tmp/ccslPeov.s:463    .text:0000000000000288 .L0 
     /tmp/ccslPeov.s:464    .text:0000000000000288 .L0 
     /tmp/ccslPeov.s:466    .text:000000000000028c .L0 
     /tmp/ccslPeov.s:467    .text:000000000000028c .L0 
     /tmp/ccslPeov.s:472    .text:0000000000000294 .L0 
     /tmp/ccslPeov.s:473    .text:0000000000000294 .L0 
     /tmp/ccslPeov.s:480    .text:0000000000000298 .L0 
     /tmp/ccslPeov.s:481    .text:0000000000000298 .L0 
     /tmp/ccslPeov.s:486    .text:000000000000029c .L0 
     /tmp/ccslPeov.s:489    .text:00000000000002a0 .L0 
     /tmp/ccslPeov.s:490    .text:00000000000002a0 .L0 
     /tmp/ccslPeov.s:491    .text:00000000000002a0 .L0 
     /tmp/ccslPeov.s:493    .text:00000000000002a4 .L0 
     /tmp/ccslPeov.s:496    .text:00000000000002a8 .L0 
     /tmp/ccslPeov.s:499    .text:00000000000002ac .L0 
     /tmp/ccslPeov.s:500    .text:00000000000002ac .L0 
     /tmp/ccslPeov.s:503    .text:00000000000002b0 .L0 
     /tmp/ccslPeov.s:504    .text:00000000000002b0 .L0 
     /tmp/ccslPeov.s:506    .text:00000000000002b4 .L0 
     /tmp/ccslPeov.s:507    .text:00000000000002b4 .L0 
     /tmp/ccslPeov.s:512    .text:00000000000002c0 .L0 
     /tmp/ccslPeov.s:513    .text:00000000000002c4 .L0 
     /tmp/ccslPeov.s:514    .text:00000000000002c4 .L0 
     /tmp/ccslPeov.s:516    .text:00000000000002c8 .L0 
     /tmp/ccslPeov.s:517    .text:00000000000002c8 .L0 
     /tmp/ccslPeov.s:519    .text:00000000000002cc .L0 
     /tmp/ccslPeov.s:523    .text:00000000000002d0 .L0 
     /tmp/ccslPeov.s:525    .text:00000000000002d0 .L0 
     /tmp/ccslPeov.s:526    .text:00000000000002d0 .L0 
     /tmp/ccslPeov.s:531    .text:00000000000002e4 .L0 
     /tmp/ccslPeov.s:545    .text:00000000000002e4 _ZN3PCB13tryToWakePCBsEv
     /tmp/ccslPeov.s:548    .text:00000000000002e4 .L0 
     /tmp/ccslPeov.s:549    .text:00000000000002e4 .L0 
     /tmp/ccslPeov.s:550    .text:00000000000002e8 .L0 
     /tmp/ccslPeov.s:555    .text:00000000000002f8 .L0 
     /tmp/ccslPeov.s:556    .text:00000000000002f8 .L0 
     /tmp/ccslPeov.s:557    .text:00000000000002f8 .L0 
     /tmp/ccslPeov.s:558    .text:00000000000002f8 .L0 
     /tmp/ccslPeov.s:560    .text:00000000000002fc .L0 
     /tmp/ccslPeov.s:562    .text:00000000000002fc .L0 
     /tmp/ccslPeov.s:563    .text:00000000000002fc .L0 
     /tmp/ccslPeov.s:567    .text:000000000000030c .L0 
GAS LISTING /tmp/ccslPeov.s 			page 22


     /tmp/ccslPeov.s:568    .text:000000000000030c .L0 
     /tmp/ccslPeov.s:575    .text:0000000000000318 .L0 
     /tmp/ccslPeov.s:576    .text:0000000000000318 .L0 
     /tmp/ccslPeov.s:580    .text:0000000000000328 .L0 
     /tmp/ccslPeov.s:581    .text:0000000000000328 .L0 
     /tmp/ccslPeov.s:582    .text:0000000000000328 .L0 
     /tmp/ccslPeov.s:587    .text:000000000000032c .L0 
     /tmp/ccslPeov.s:588    .text:000000000000032c .L0 
     /tmp/ccslPeov.s:589    .text:000000000000032c .L0 
     /tmp/ccslPeov.s:594    .text:0000000000000330 .L0 
     /tmp/ccslPeov.s:595    .text:0000000000000330 .L0 
     /tmp/ccslPeov.s:597    .text:0000000000000334 .L0 
     /tmp/ccslPeov.s:598    .text:0000000000000334 .L0 
     /tmp/ccslPeov.s:602    .text:0000000000000340 .L0 
     /tmp/ccslPeov.s:603    .text:0000000000000340 .L0 
     /tmp/ccslPeov.s:605    .text:0000000000000348 .L0 
     /tmp/ccslPeov.s:611    .text:000000000000034c .L0 
     /tmp/ccslPeov.s:612    .text:000000000000034c .L0 
     /tmp/ccslPeov.s:618    .text:0000000000000350 .L0 
     /tmp/ccslPeov.s:619    .text:0000000000000350 .L0 
     /tmp/ccslPeov.s:620    .text:0000000000000350 .L0 
     /tmp/ccslPeov.s:625    .text:0000000000000354 .L0 
     /tmp/ccslPeov.s:630    .text:000000000000035c .L0 
     /tmp/ccslPeov.s:632    .text:000000000000035c .L0 
     /tmp/ccslPeov.s:633    .text:000000000000035c .L0 
     /tmp/ccslPeov.s:638    .text:0000000000000360 .L0 
     /tmp/ccslPeov.s:639    .text:0000000000000360 .L0 
     /tmp/ccslPeov.s:644    .text:0000000000000364 .L0 
     /tmp/ccslPeov.s:645    .text:0000000000000364 .L0 
     /tmp/ccslPeov.s:651    .text:000000000000036c .L0 
     /tmp/ccslPeov.s:652    .text:0000000000000370 .L0 
     /tmp/ccslPeov.s:654    .text:0000000000000374 .L0 
     /tmp/ccslPeov.s:655    .text:0000000000000374 .L0 
     /tmp/ccslPeov.s:657    .text:0000000000000378 .L0 
     /tmp/ccslPeov.s:660    .text:000000000000037c .L0 
     /tmp/ccslPeov.s:662    .text:0000000000000380 .L0 
     /tmp/ccslPeov.s:664    .text:0000000000000384 .L0 
     /tmp/ccslPeov.s:684    .bss:0000000000000010 _ZN3PCB15sleepingPCBHeadE
     /tmp/ccslPeov.s:688    .bss:0000000000000018 _ZN3PCB16timeSliceCounterE
     /tmp/ccslPeov.s:680    .bss:0000000000000008 _ZN3PCB10exitingPCBE
     /tmp/ccslPeov.s:676    .bss:0000000000000000 _ZN3PCB7runningE
     /tmp/ccslPeov.s:673    .bss:0000000000000000 .LANCHOR0
     /tmp/ccslPeov.s:698    .text:0000000000000384 .L0 
     /tmp/ccslPeov.s:8      .rodata.str1.8:0000000000000000 .LC0
     /tmp/ccslPeov.s:34     .text:0000000000000014 .L0 
     /tmp/ccslPeov.s:43     .text:000000000000002c .L0 
     /tmp/ccslPeov.s:11     .rodata.str1.8:0000000000000018 .LC1
     /tmp/ccslPeov.s:66     .text:0000000000000050 .L0 
     /tmp/ccslPeov.s:119    .text:00000000000000b4 .L0 
     /tmp/ccslPeov.s:335    .text:00000000000001b4 .L0 
     /tmp/ccslPeov.s:355    .text:00000000000001d0 .L0 
     /tmp/ccslPeov.s:383    .text:0000000000000204 .L0 
     /tmp/ccslPeov.s:430    .rodata.str1.8:0000000000000028 .LC2
     /tmp/ccslPeov.s:450    .text:000000000000026c .L0 
     /tmp/ccslPeov.s:456    .text:000000000000027c .L0 
     /tmp/ccslPeov.s:467    .text:000000000000028c .L0 
     /tmp/ccslPeov.s:507    .text:00000000000002b4 .L0 
GAS LISTING /tmp/ccslPeov.s 			page 23


     /tmp/ccslPeov.s:526    .text:00000000000002d0 .L0 
     /tmp/ccslPeov.s:536    .rodata.str1.8:0000000000000048 .LC3
     /tmp/ccslPeov.s:563    .text:00000000000002fc .L0 
     /tmp/ccslPeov.s:568    .text:000000000000030c .L0 
     /tmp/ccslPeov.s:539    .rodata.str1.8:0000000000000058 .LC4
     /tmp/ccslPeov.s:576    .text:0000000000000318 .L0 
     /tmp/ccslPeov.s:603    .text:0000000000000340 .L0 
     /tmp/ccslPeov.s:409    .text:0000000000000238 .L20
     /tmp/ccslPeov.s:417    .text:0000000000000248 .L21
     /tmp/ccslPeov.s:349    .text:00000000000001c8 .L16
     /tmp/ccslPeov.s:392    .text:0000000000000220 .L15
     /tmp/ccslPeov.s:502    .text:00000000000002b0 .L23
     /tmp/ccslPeov.s:497    .text:00000000000002ac .L29
     /tmp/ccslPeov.s:461    .text:0000000000000288 .L25
     /tmp/ccslPeov.s:522    .text:00000000000002d0 .L30
     /tmp/ccslPeov.s:510    .text:00000000000002c0 .L22
     /tmp/ccslPeov.s:607    .text:000000000000034c .L32
     /tmp/ccslPeov.s:648    .text:000000000000036c .L31
     /tmp/ccslPeov.s:571    .text:0000000000000318 .L37
     /tmp/ccslPeov.s:2444   .debug_abbrev:0000000000000000 .Ldebug_abbrev0
     /tmp/ccslPeov.s:4027   .debug_str:000000000000056d .LASF185
     /tmp/ccslPeov.s:4173   .debug_str:0000000000000a16 .LASF186
     /tmp/ccslPeov.s:4159   .debug_str:0000000000000999 .LASF187
     /tmp/ccslPeov.s:5      .text:0000000000000000 .Ltext0
     /tmp/ccslPeov.s:691    .text:0000000000000384 .Letext0
     /tmp/ccslPeov.s:3843   .debug_line:0000000000000000 .Ldebug_line0
     /tmp/ccslPeov.s:3973   .debug_str:00000000000003cd .LASF0
     /tmp/ccslPeov.s:4001   .debug_str:0000000000000496 .LASF1
     /tmp/ccslPeov.s:4095   .debug_str:00000000000007fb .LASF2
     /tmp/ccslPeov.s:4105   .debug_str:000000000000083b .LASF4
     /tmp/ccslPeov.s:3987   .debug_str:000000000000042d .LASF3
     /tmp/ccslPeov.s:3859   .debug_str:0000000000000061 .LASF5
     /tmp/ccslPeov.s:4075   .debug_str:0000000000000771 .LASF6
     /tmp/ccslPeov.s:4061   .debug_str:0000000000000706 .LASF7
     /tmp/ccslPeov.s:3993   .debug_str:0000000000000466 .LASF8
     /tmp/ccslPeov.s:3957   .debug_str:0000000000000345 .LASF9
     /tmp/ccslPeov.s:3961   .debug_str:0000000000000371 .LASF10
     /tmp/ccslPeov.s:3899   .debug_str:00000000000001c3 .LASF11
     /tmp/ccslPeov.s:3945   .debug_str:00000000000002f8 .LASF12
     /tmp/ccslPeov.s:3907   .debug_str:00000000000001ea .LASF13
     /tmp/ccslPeov.s:3897   .debug_str:00000000000001b3 .LASF14
     /tmp/ccslPeov.s:4135   .debug_str:000000000000091c .LASF15
     /tmp/ccslPeov.s:3939   .debug_str:00000000000002d1 .LASF16
     /tmp/ccslPeov.s:4129   .debug_str:00000000000008e3 .LASF17
     /tmp/ccslPeov.s:4161   .debug_str:00000000000009bc .LASF28
     /tmp/ccslPeov.s:4177   .debug_str:0000000000000a28 .LASF20
     /tmp/ccslPeov.s:3997   .debug_str:000000000000048c .LASF18
     /tmp/ccslPeov.s:3901   .debug_str:00000000000001d2 .LASF19
     /tmp/ccslPeov.s:4141   .debug_str:0000000000000935 .LASF21
     /tmp/ccslPeov.s:4009   .debug_str:00000000000004c5 .LASF22
     /tmp/ccslPeov.s:4211   .debug_str:0000000000000b05 .LASF39
     /tmp/ccslPeov.s:4175   .debug_str:0000000000000a22 .LASF24
     /tmp/ccslPeov.s:3911   .debug_str:000000000000020b .LASF26
     /tmp/ccslPeov.s:3975   .debug_str:00000000000003da .LASF23
     /tmp/ccslPeov.s:4123   .debug_str:00000000000008b8 .LASF29
     /tmp/ccslPeov.s:3999   .debug_str:0000000000000491 .LASF25
     /tmp/ccslPeov.s:4085   .debug_str:00000000000007a6 .LASF27
GAS LISTING /tmp/ccslPeov.s 			page 24


     /tmp/ccslPeov.s:3929   .debug_str:000000000000028e .LASF30
     /tmp/ccslPeov.s:4081   .debug_str:000000000000078b .LASF45
     /tmp/ccslPeov.s:3877   .debug_str:0000000000000108 .LASF47
     /tmp/ccslPeov.s:4145   .debug_str:0000000000000940 .LASF188
     /tmp/ccslPeov.s:3893   .debug_str:0000000000000199 .LASF31
     /tmp/ccslPeov.s:4125   .debug_str:00000000000008cd .LASF32
     /tmp/ccslPeov.s:3905   .debug_str:00000000000001e0 .LASF33
     /tmp/ccslPeov.s:3885   .debug_str:0000000000000145 .LASF34
     /tmp/ccslPeov.s:4065   .debug_str:000000000000072f .LASF35
     /tmp/ccslPeov.s:3903   .debug_str:00000000000001d7 .LASF36
     /tmp/ccslPeov.s:4139   .debug_str:000000000000092d .LASF37
     /tmp/ccslPeov.s:3967   .debug_str:000000000000039d .LASF38
     /tmp/ccslPeov.s:4167   .debug_str:00000000000009e3 .LASF40
     /tmp/ccslPeov.s:4049   .debug_str:00000000000006ad .LASF189
     /tmp/ccslPeov.s:4193   .debug_str:0000000000000a90 .LASF41
     /tmp/ccslPeov.s:4219   .debug_str:0000000000000b49 .LASF42
     /tmp/ccslPeov.s:4215   .debug_str:0000000000000b2f .LASF43
     /tmp/ccslPeov.s:4153   .debug_str:000000000000096b .LASF44
     /tmp/ccslPeov.s:3927   .debug_str:0000000000000285 .LASF71
     /tmp/ccslPeov.s:3869   .debug_str:00000000000000ad .LASF73
     /tmp/ccslPeov.s:4005   .debug_str:00000000000004b2 .LASF46
     /tmp/ccslPeov.s:4053   .debug_str:00000000000006c5 .LASF48
     /tmp/ccslPeov.s:4149   .debug_str:000000000000095b .LASF49
     /tmp/ccslPeov.s:4195   .debug_str:0000000000000a95 .LASF50
     /tmp/ccslPeov.s:4115   .debug_str:0000000000000872 .LASF51
     /tmp/ccslPeov.s:4007   .debug_str:00000000000004b8 .LASF52
     /tmp/ccslPeov.s:4013   .debug_str:00000000000004e8 .LASF53
     /tmp/ccslPeov.s:4223   .debug_str:0000000000000b6d .LASF54
     /tmp/ccslPeov.s:3941   .debug_str:00000000000002e7 .LASF55
     /tmp/ccslPeov.s:3851   .debug_str:000000000000002a .LASF56
     /tmp/ccslPeov.s:3985   .debug_str:0000000000000420 .LASF57
     /tmp/ccslPeov.s:4119   .debug_str:0000000000000894 .LASF58
     /tmp/ccslPeov.s:4033   .debug_str:0000000000000629 .LASF59
     /tmp/ccslPeov.s:4103   .debug_str:0000000000000832 .LASF60
     /tmp/ccslPeov.s:4131   .debug_str:00000000000008f9 .LASF61
     /tmp/ccslPeov.s:4035   .debug_str:000000000000063c .LASF62
     /tmp/ccslPeov.s:3847   .debug_str:000000000000000b .LASF63
     /tmp/ccslPeov.s:4203   .debug_str:0000000000000ac9 .LASF64
     /tmp/ccslPeov.s:4059   .debug_str:00000000000006ec .LASF65
     /tmp/ccslPeov.s:4127   .debug_str:00000000000008d5 .LASF66
     /tmp/ccslPeov.s:4077   .debug_str:0000000000000778 .LASF67
     /tmp/ccslPeov.s:3923   .debug_str:0000000000000263 .LASF68
     /tmp/ccslPeov.s:4209   .debug_str:0000000000000afa .LASF69
     /tmp/ccslPeov.s:4025   .debug_str:000000000000055d .LASF70
     /tmp/ccslPeov.s:3933   .debug_str:00000000000002a2 .LASF72
     /tmp/ccslPeov.s:4179   .debug_str:0000000000000a2d .LASF74
     /tmp/ccslPeov.s:3887   .debug_str:000000000000014e .LASF75
     /tmp/ccslPeov.s:4163   .debug_str:00000000000009c2 .LASF76
     /tmp/ccslPeov.s:4111   .debug_str:000000000000085c .LASF101
     /tmp/ccslPeov.s:4157   .debug_str:000000000000098f .LASF77
     /tmp/ccslPeov.s:4055   .debug_str:00000000000006d5 .LASF78
     /tmp/ccslPeov.s:3917   .debug_str:0000000000000242 .LASF79
     /tmp/ccslPeov.s:3875   .debug_str:00000000000000e0 .LASF81
     /tmp/ccslPeov.s:3977   .debug_str:00000000000003df .LASF80
     /tmp/ccslPeov.s:3891   .debug_str:000000000000016d .LASF82
     /tmp/ccslPeov.s:4201   .debug_str:0000000000000ac2 .LASF190
     /tmp/ccslPeov.s:3889   .debug_str:000000000000015c .LASF191
GAS LISTING /tmp/ccslPeov.s 			page 25


     /tmp/ccslPeov.s:3849   .debug_str:0000000000000025 .LASF83
     /tmp/ccslPeov.s:4137   .debug_str:0000000000000928 .LASF84
     /tmp/ccslPeov.s:4017   .debug_str:000000000000051b .LASF85
     /tmp/ccslPeov.s:3915   .debug_str:000000000000023c .LASF86
     /tmp/ccslPeov.s:4165   .debug_str:00000000000009db .LASF87
     /tmp/ccslPeov.s:3879   .debug_str:0000000000000116 .LASF88
     /tmp/ccslPeov.s:3955   .debug_str:000000000000033b .LASF89
     /tmp/ccslPeov.s:3865   .debug_str:000000000000008c .LASF192
     /tmp/ccslPeov.s:4217   .debug_str:0000000000000b35 .LASF193
     /tmp/ccslPeov.s:3989   .debug_str:000000000000043f .LASF90
     /tmp/ccslPeov.s:4043   .debug_str:0000000000000667 .LASF91
     /tmp/ccslPeov.s:3943   .debug_str:00000000000002f3 .LASF92
     /tmp/ccslPeov.s:3947   .debug_str:0000000000000307 .LASF96
     /tmp/ccslPeov.s:3881   .debug_str:0000000000000120 .LASF93
     /tmp/ccslPeov.s:4051   .debug_str:00000000000006b2 .LASF94
     /tmp/ccslPeov.s:4151   .debug_str:0000000000000963 .LASF95
     /tmp/ccslPeov.s:4089   .debug_str:00000000000007c7 .LASF97
     /tmp/ccslPeov.s:4117   .debug_str:0000000000000883 .LASF98
     /tmp/ccslPeov.s:3909   .debug_str:00000000000001fa .LASF99
     /tmp/ccslPeov.s:3867   .debug_str:00000000000000a4 .LASF100
     /tmp/ccslPeov.s:3863   .debug_str:0000000000000082 .LASF102
     /tmp/ccslPeov.s:4189   .debug_str:0000000000000a80 .LASF103
     /tmp/ccslPeov.s:4057   .debug_str:00000000000006e1 .LASF104
     /tmp/ccslPeov.s:4021   .debug_str:000000000000052f .LASF105
     /tmp/ccslPeov.s:3937   .debug_str:00000000000002c7 .LASF106
     /tmp/ccslPeov.s:4063   .debug_str:0000000000000719 .LASF107
     /tmp/ccslPeov.s:4181   .debug_str:0000000000000a4a .LASF108
     /tmp/ccslPeov.s:4011   .debug_str:00000000000004ca .LASF109
     /tmp/ccslPeov.s:3983   .debug_str:000000000000040e .LASF110
     /tmp/ccslPeov.s:3913   .debug_str:000000000000021d .LASF111
     /tmp/ccslPeov.s:4207   .debug_str:0000000000000aee .LASF112
     /tmp/ccslPeov.s:3871   .debug_str:00000000000000c0 .LASF113
     /tmp/ccslPeov.s:4071   .debug_str:0000000000000751 .LASF114
     /tmp/ccslPeov.s:3861   .debug_str:0000000000000068 .LASF115
     /tmp/ccslPeov.s:4113   .debug_str:0000000000000864 .LASF116
     /tmp/ccslPeov.s:4121   .debug_str:000000000000089d .LASF117
     /tmp/ccslPeov.s:4037   .debug_str:000000000000064b .LASF118
     /tmp/ccslPeov.s:4197   .debug_str:0000000000000aa0 .LASF119
     /tmp/ccslPeov.s:4003   .debug_str:00000000000004a9 .LASF120
     /tmp/ccslPeov.s:3855   .debug_str:0000000000000042 .LASF121
     /tmp/ccslPeov.s:4229   .debug_str:0000000000000b94 .LASF122
     /tmp/ccslPeov.s:4045   .debug_str:0000000000000680 .LASF123
     /tmp/ccslPeov.s:4079   .debug_str:0000000000000784 .LASF124
     /tmp/ccslPeov.s:4073   .debug_str:000000000000075e .LASF125
     /tmp/ccslPeov.s:4041   .debug_str:0000000000000660 .LASF126
     /tmp/ccslPeov.s:3995   .debug_str:0000000000000479 .LASF127
     /tmp/ccslPeov.s:4199   .debug_str:0000000000000aba .LASF128
     /tmp/ccslPeov.s:4155   .debug_str:000000000000097b .LASF129
     /tmp/ccslPeov.s:4039   .debug_str:0000000000000658 .LASF130
     /tmp/ccslPeov.s:3949   .debug_str:000000000000031c .LASF131
     /tmp/ccslPeov.s:4029   .debug_str:000000000000060f .LASF132
     /tmp/ccslPeov.s:4083   .debug_str:0000000000000792 .LASF133
     /tmp/ccslPeov.s:4231   .debug_str:0000000000000b9d .LASF134
     /tmp/ccslPeov.s:3981   .debug_str:00000000000003fa .LASF135
     /tmp/ccslPeov.s:4133   .debug_str:0000000000000915 .LASF136
     /tmp/ccslPeov.s:4107   .debug_str:0000000000000842 .LASF137
     /tmp/ccslPeov.s:4109   .debug_str:0000000000000855 .LASF138
GAS LISTING /tmp/ccslPeov.s 			page 26


     /tmp/ccslPeov.s:3935   .debug_str:00000000000002b4 .LASF139
     /tmp/ccslPeov.s:3931   .debug_str:000000000000029c .LASF140
     /tmp/ccslPeov.s:3969   .debug_str:00000000000003a3 .LASF141
     /tmp/ccslPeov.s:3979   .debug_str:00000000000003f4 .LASF142
     /tmp/ccslPeov.s:3925   .debug_str:0000000000000273 .LASF143
     /tmp/ccslPeov.s:3845   .debug_str:0000000000000000 .LASF144
     /tmp/ccslPeov.s:4101   .debug_str:000000000000081a .LASF145
     /tmp/ccslPeov.s:4093   .debug_str:00000000000007f0 .LASF146
     /tmp/ccslPeov.s:4221   .debug_str:0000000000000b55 .LASF147
     /tmp/ccslPeov.s:4191   .debug_str:0000000000000a86 .LASF148
     /tmp/ccslPeov.s:4205   .debug_str:0000000000000ad8 .LASF149
     /tmp/ccslPeov.s:4185   .debug_str:0000000000000a6e .LASF150
     /tmp/ccslPeov.s:4023   .debug_str:0000000000000547 .LASF151
     /tmp/ccslPeov.s:3965   .debug_str:0000000000000392 .LASF152
     /tmp/ccslPeov.s:3971   .debug_str:00000000000003b5 .LASF153
     /tmp/ccslPeov.s:4171   .debug_str:0000000000000a07 .LASF154
     /tmp/ccslPeov.s:3959   .debug_str:0000000000000355 .LASF155
     /tmp/ccslPeov.s:4069   .debug_str:000000000000073c .LASF156
     /tmp/ccslPeov.s:3991   .debug_str:0000000000000444 .LASF157
     /tmp/ccslPeov.s:3921   .debug_str:000000000000025c .LASF158
     /tmp/ccslPeov.s:3853   .debug_str:000000000000003a .LASF159
     /tmp/ccslPeov.s:4225   .debug_str:0000000000000b7a .LASF160
     /tmp/ccslPeov.s:4169   .debug_str:00000000000009fb .LASF161
     /tmp/ccslPeov.s:3883   .debug_str:0000000000000132 .LASF162
     /tmp/ccslPeov.s:4031   .debug_str:0000000000000617 .LASF163
     /tmp/ccslPeov.s:3963   .debug_str:000000000000037f .LASF164
     /tmp/ccslPeov.s:4183   .debug_str:0000000000000a5b .LASF165
     /tmp/ccslPeov.s:3895   .debug_str:000000000000019f .LASF166
     /tmp/ccslPeov.s:4143   .debug_str:000000000000093b .LASF167
     /tmp/ccslPeov.s:4091   .debug_str:00000000000007df .LASF168
     /tmp/ccslPeov.s:4147   .debug_str:0000000000000946 .LASF169
     /tmp/ccslPeov.s:4015   .debug_str:0000000000000500 .LASF170
     /tmp/ccslPeov.s:4213   .debug_str:0000000000000b15 .LASF171
     /tmp/ccslPeov.s:546    .text:00000000000002e4 .LFB34
     /tmp/ccslPeov.s:665    .text:0000000000000384 .LFE34
     /tmp/ccslPeov.s:4099   .debug_str:0000000000000815 .LASF172
     /tmp/ccslPeov.s:3535   .debug_loc:0000000000000000 .LLST19
     /tmp/ccslPeov.s:573    .text:0000000000000318 .LBB35
     /tmp/ccslPeov.s:608    .text:000000000000034c .LBE35
     /tmp/ccslPeov.s:3550   .debug_loc:0000000000000049 .LLST20
     /tmp/ccslPeov.s:585    .text:000000000000032c .LBB36
     /tmp/ccslPeov.s:592    .text:0000000000000330 .LBE36
     /tmp/ccslPeov.s:3557   .debug_loc:000000000000006c .LLST21
     /tmp/ccslPeov.s:3565   .debug_loc:0000000000000090 .LLST22
     /tmp/ccslPeov.s:578    .text:0000000000000328 .LVL46
     /tmp/ccslPeov.s:600    .text:0000000000000340 .LVL49
     /tmp/ccslPeov.s:616    .text:0000000000000350 .LBB38
     /tmp/ccslPeov.s:623    .text:0000000000000354 .LBE38
     /tmp/ccslPeov.s:3572   .debug_loc:00000000000000b3 .LLST23
     /tmp/ccslPeov.s:635    .text:0000000000000360 .LBB40
     /tmp/ccslPeov.s:642    .text:0000000000000364 .LBE40
     /tmp/ccslPeov.s:3579   .debug_loc:00000000000000d6 .LLST24
     /tmp/ccslPeov.s:3586   .debug_loc:00000000000000f9 .LLST25
     /tmp/ccslPeov.s:565    .text:000000000000030c .LVL44
     /tmp/ccslPeov.s:437    .text:000000000000025c .LFB33
     /tmp/ccslPeov.s:532    .text:00000000000002e4 .LFE33
     /tmp/ccslPeov.s:3873   .debug_str:00000000000000db .LASF173
GAS LISTING /tmp/ccslPeov.s 			page 27


     /tmp/ccslPeov.s:3593   .debug_loc:000000000000011c .LLST15
     /tmp/ccslPeov.s:3613   .debug_loc:0000000000000179 .LLST16
     /tmp/ccslPeov.s:469    .text:0000000000000294 .LBB30
     /tmp/ccslPeov.s:476    .text:0000000000000298 .LBE30
     /tmp/ccslPeov.s:3633   .debug_loc:00000000000001d6 .LLST17
     /tmp/ccslPeov.s:477    .text:0000000000000298 .LBB32
     /tmp/ccslPeov.s:484    .text:000000000000029c .LBE32
     /tmp/ccslPeov.s:3640   .debug_loc:00000000000001f9 .LLST18
     /tmp/ccslPeov.s:452    .text:000000000000027c .LVL33
     /tmp/ccslPeov.s:3951   .debug_str:0000000000000330 .LASF174
     /tmp/ccslPeov.s:3857   .debug_str:0000000000000057 .LASF175
     /tmp/ccslPeov.s:3919   .debug_str:0000000000000250 .LASF178
     /tmp/ccslPeov.s:270    .text:0000000000000170 .LFB31
     /tmp/ccslPeov.s:302    .text:000000000000019c .LFE31
     /tmp/ccslPeov.s:3647   .debug_loc:000000000000021c .LLST10
     /tmp/ccslPeov.s:290    .text:000000000000018c .LVL20
     /tmp/ccslPeov.s:238    .text:0000000000000148 .LFB29
     /tmp/ccslPeov.s:264    .text:0000000000000170 .LFE29
     /tmp/ccslPeov.s:3661   .debug_loc:0000000000000255 .LLST9
     /tmp/ccslPeov.s:253    .text:0000000000000160 .LVL17
     /tmp/ccslPeov.s:206    .text:0000000000000120 .LFB28
     /tmp/ccslPeov.s:232    .text:0000000000000148 .LFE28
     /tmp/ccslPeov.s:3675   .debug_loc:000000000000028e .LLST8
     /tmp/ccslPeov.s:221    .text:0000000000000138 .LVL15
     /tmp/ccslPeov.s:318    .text:000000000000019c .LFB27
     /tmp/ccslPeov.s:426    .text:000000000000025c .LFE27
     /tmp/ccslPeov.s:3689   .debug_loc:00000000000002c7 .LLST11
     /tmp/ccslPeov.s:338    .text:00000000000001bc .LBB26
     /tmp/ccslPeov.s:345    .text:00000000000001c0 .LBE26
     /tmp/ccslPeov.s:3700   .debug_loc:00000000000002fd .LLST12
     /tmp/ccslPeov.s:359    .text:00000000000001dc .LBB28
     /tmp/ccslPeov.s:367    .text:00000000000001e4 .LBE28
     /tmp/ccslPeov.s:3707   .debug_loc:0000000000000320 .LLST13
     /tmp/ccslPeov.s:3715   .debug_loc:0000000000000344 .LLST14
     /tmp/ccslPeov.s:353    .text:00000000000001d0 .LVL23
     /tmp/ccslPeov.s:377    .text:00000000000001f8 .LVL26
     /tmp/ccslPeov.s:380    .text:0000000000000204 .LVL27
     /tmp/ccslPeov.s:391    .text:0000000000000220 .LVL28
     /tmp/ccslPeov.s:415    .text:0000000000000244 .LVL31
     /tmp/ccslPeov.s:423    .text:0000000000000258 .LVL32
     /tmp/ccslPeov.s:18     .text:0000000000000000 .LFB26
     /tmp/ccslPeov.s:85     .text:000000000000007c .LFE26
     /tmp/ccslPeov.s:54     .text:0000000000000048 .LBB22
     /tmp/ccslPeov.s:63     .text:0000000000000050 .LBE22
     /tmp/ccslPeov.s:3722   .debug_loc:0000000000000367 .LLST0
     /tmp/ccslPeov.s:3730   .debug_loc:000000000000038b .LLST1
     /tmp/ccslPeov.s:36     .text:0000000000000024 .LVL0
     /tmp/ccslPeov.s:40     .text:000000000000002c .LVL1
     /tmp/ccslPeov.s:68     .text:0000000000000060 .LVL5
     /tmp/ccslPeov.s:72     .text:0000000000000068 .LVL6
     /tmp/ccslPeov.s:174    .text:00000000000000f8 .LFB25
     /tmp/ccslPeov.s:200    .text:0000000000000120 .LFE25
     /tmp/ccslPeov.s:3737   .debug_loc:00000000000003ae .LLST7
     /tmp/ccslPeov.s:189    .text:0000000000000110 .LVL13
     /tmp/ccslPeov.s:150    .text:00000000000000e0 .LFB24
     /tmp/ccslPeov.s:168    .text:00000000000000f8 .LFE24
     /tmp/ccslPeov.s:4067   .debug_str:0000000000000737 .LASF176
GAS LISTING /tmp/ccslPeov.s 			page 28


     /tmp/ccslPeov.s:4019   .debug_str:0000000000000523 .LASF177
     /tmp/ccslPeov.s:4047   .debug_str:0000000000000695 .LASF179
     /tmp/ccslPeov.s:91     .text:000000000000007c .LFB22
     /tmp/ccslPeov.s:142    .text:00000000000000e0 .LFE22
     /tmp/ccslPeov.s:3751   .debug_loc:00000000000003e7 .LLST2
     /tmp/ccslPeov.s:3769   .debug_loc:0000000000000433 .LLST3
     /tmp/ccslPeov.s:3783   .debug_loc:000000000000046c .LLST4
     /tmp/ccslPeov.s:3797   .debug_loc:00000000000004a5 .LLST5
     /tmp/ccslPeov.s:3816   .debug_loc:00000000000004f2 .LLST6
     /tmp/ccslPeov.s:124    .text:00000000000000c8 .LVL9
     /tmp/ccslPeov.s:4227   .debug_str:0000000000000b89 .LASF180
     /tmp/ccslPeov.s:3953   .debug_str:0000000000000335 .LASF182
     /tmp/ccslPeov.s:4097   .debug_str:0000000000000809 .LASF181
     /tmp/ccslPeov.s:4187   .debug_str:0000000000000a78 .LASF183
     /tmp/ccslPeov.s:4087   .debug_str:00000000000007b7 .LASF184
     /tmp/ccslPeov.s:569    .text:0000000000000314 .LVL45
     /tmp/ccslPeov.s:583    .text:000000000000032c .LVL47
     /tmp/ccslPeov.s:606    .text:000000000000034c .LVL50
     /tmp/ccslPeov.s:658    .text:0000000000000378 .LVL57
     /tmp/ccslPeov.s:590    .text:0000000000000330 .LVL48
     /tmp/ccslPeov.s:614    .text:0000000000000350 .LVL51
     /tmp/ccslPeov.s:621    .text:0000000000000354 .LVL52
     /tmp/ccslPeov.s:634    .text:0000000000000360 .LVL54
     /tmp/ccslPeov.s:640    .text:0000000000000364 .LVL55
     /tmp/ccslPeov.s:460    .text:0000000000000288 .LVL35
     /tmp/ccslPeov.s:488    .text:00000000000002a0 .LVL39
     /tmp/ccslPeov.s:494    .text:00000000000002a8 .LVL40
     /tmp/ccslPeov.s:457    .text:0000000000000284 .LVL34
     /tmp/ccslPeov.s:508    .text:00000000000002bc .LVL41
     /tmp/ccslPeov.s:521    .text:00000000000002d0 .LVL42
     /tmp/ccslPeov.s:527    .text:00000000000002d8 .LVL43
     /tmp/ccslPeov.s:468    .text:0000000000000294 .LVL36
     /tmp/ccslPeov.s:474    .text:0000000000000298 .LVL37
     /tmp/ccslPeov.s:482    .text:000000000000029c .LVL38
     /tmp/ccslPeov.s:275    .text:0000000000000170 .LVL18
     /tmp/ccslPeov.s:288    .text:0000000000000184 .LVL19
     /tmp/ccslPeov.s:241    .text:0000000000000148 .LVL16
     /tmp/ccslPeov.s:209    .text:0000000000000120 .LVL14
     /tmp/ccslPeov.s:336    .text:00000000000001bc .LVL21
     /tmp/ccslPeov.s:404    .text:0000000000000230 .LVL29
     /tmp/ccslPeov.s:408    .text:0000000000000238 .LVL30
     /tmp/ccslPeov.s:343    .text:00000000000001c0 .LVL22
     /tmp/ccslPeov.s:358    .text:00000000000001dc .LVL24
     /tmp/ccslPeov.s:365    .text:00000000000001e4 .LVL25
     /tmp/ccslPeov.s:53     .text:0000000000000048 .LVL3
     /tmp/ccslPeov.s:61     .text:0000000000000050 .LVL4
     /tmp/ccslPeov.s:177    .text:00000000000000f8 .LVL12
     /tmp/ccslPeov.s:94     .text:000000000000007c .LVL7
     /tmp/ccslPeov.s:137    .text:00000000000000d8 .LVL10
     /tmp/ccslPeov.s:116    .text:00000000000000b0 .LVL8
     /tmp/ccslPeov.s:699    .debug_info:0000000000000000 .Ldebug_info0
     /tmp/ccslPeov.s:305    .gcc_except_table:0000000000000000 .LLSDA31

UNDEFINED SYMBOLS
_ZN5Riscv11printStringEPKc
_ZN5Riscv10popSppSpieEv
thread_dispatch
GAS LISTING /tmp/ccslPeov.s 			page 29


_ZN9Scheduler3putEP3PCB
_Z7kmallocm
_Z5kfreePv
__gxx_personality_v0
_ZN9Scheduler3getEv
_ZN3PCB20contextSwitchExitingEPNS_7ContextE
_ZN3PCB13contextSwitchEPNS_7ContextES1_
