GAS LISTING /tmp/ccHp0Hur.s 			page 1


   1              		.file	"PCB.cpp"
   2              		.option pic
   3              		.option norelax
   4              		.text
   5              	.Ltext0:
   6              		.section	.rodata.str1.8,"aMS",@progbits,1
   7              		.align	3
   8              	.LC0:
   9 0000 52756E6E 		.string	"Runner started...\n"
   9      65722073 
   9      74617274 
   9      65642E2E 
   9      2E0A00
  10              		.text
  11              		.align	2
  12              		.globl	_ZN3PCB6runnerEv
  14              	_ZN3PCB6runnerEv:
  15              	.LFB26:
  16              		.file 1 "src/PCB.cpp"
   1:src/PCB.cpp   **** //
   2:src/PCB.cpp   **** // Created by os on 4/27/22.
   3:src/PCB.cpp   **** //
   4:src/PCB.cpp   **** 
   5:src/PCB.cpp   **** #include "../h/PCB.hpp"
   6:src/PCB.cpp   **** #include "../h/syscall_c.h"
   7:src/PCB.cpp   **** 
   8:src/PCB.cpp   **** PCB* PCB::running = 0;
   9:src/PCB.cpp   **** uint64 PCB::timeSliceCounter = 0;
  10:src/PCB.cpp   **** 
  11:src/PCB.cpp   **** PCB::PCB(Body body, void *args, void* stack_space, uint64 timeSlice) :
  12:src/PCB.cpp   ****     timeSlice(timeSlice),
  13:src/PCB.cpp   ****     body(body),
  14:src/PCB.cpp   ****     args(args),
  15:src/PCB.cpp   ****     beginSP(stack_space),
  16:src/PCB.cpp   ****     context({
  17:src/PCB.cpp   ****         (uint64)((char*)stack_space + DEFAULT_STACK_SIZE),
  18:src/PCB.cpp   ****         (uint64)&PCB::runner
  19:src/PCB.cpp   ****     })
  20:src/PCB.cpp   **** {
  21:src/PCB.cpp   ****     Scheduler::put(this);
  22:src/PCB.cpp   ****     nextPCB = 0;
  23:src/PCB.cpp   **** }
  24:src/PCB.cpp   **** 
  25:src/PCB.cpp   **** void PCB::sleep(time_t time)
  26:src/PCB.cpp   **** {
  27:src/PCB.cpp   ****     //todo
  28:src/PCB.cpp   **** }
  29:src/PCB.cpp   **** 
  30:src/PCB.cpp   **** void PCB::start()
  31:src/PCB.cpp   **** {
  32:src/PCB.cpp   ****     Scheduler::put(this);
  33:src/PCB.cpp   **** }
  34:src/PCB.cpp   **** 
  35:src/PCB.cpp   **** void PCB::runner()
  36:src/PCB.cpp   **** {
  17              		.loc 1 36 1
  18              		.cfi_startproc
GAS LISTING /tmp/ccHp0Hur.s 			page 2


  19 0000 130101FF 		addi	sp,sp,-16
  20              		.cfi_def_cfa_offset 16
  21 0004 23341100 		sd	ra,8(sp)
  22 0008 23308100 		sd	s0,0(sp)
  23              		.cfi_offset 1, -8
  24              		.cfi_offset 8, -16
  25 000c 13040101 		addi	s0,sp,16
  26              		.cfi_def_cfa 8, 0
  37:src/PCB.cpp   ****     Riscv::printString("Runner started...\n");
  27              		.loc 1 37 5
  28              		.loc 1 37 23 is_stmt 0
  29 0010 17050000 		lla	a0,.LC0
  29      13050500 
  30 0018 97000000 		call	_ZN5Riscv11printStringEPKc@plt
  30      E7800000 
  31              	.LVL0:
  38:src/PCB.cpp   ****     Riscv::popSppSpie();
  32              		.loc 1 38 5 is_stmt 1
  33              		.loc 1 38 22 is_stmt 0
  34 0020 97000000 		call	_ZN5Riscv10popSppSpieEv@plt
  34      E7800000 
  35              	.LVL1:
  39:src/PCB.cpp   **** 
  40:src/PCB.cpp   ****     running->body(running->args);
  36              		.loc 1 40 5 is_stmt 1
  37              		.loc 1 40 14 is_stmt 0
  38 0028 97070000 		ld	a5,.LANCHOR0
  38      83B70700 
  39 0030 03B70702 		ld	a4,32(a5)
  40              		.loc 1 40 18
  41 0034 03B58702 		ld	a0,40(a5)
  42 0038 E7000700 		jalr	a4
  43              	.LVL2:
  41:src/PCB.cpp   **** 
  42:src/PCB.cpp   ****     thread_exit();
  44              		.loc 1 42 5 is_stmt 1
  45              		.loc 1 42 16 is_stmt 0
  46 003c 97000000 		call	thread_exit@plt
  46      E7800000 
  47              	.LVL3:
  43:src/PCB.cpp   **** }
  48              		.loc 1 43 1
  49 0044 83308100 		ld	ra,8(sp)
  50              		.cfi_restore 1
  51 0048 03340100 		ld	s0,0(sp)
  52              		.cfi_restore 8
  53              		.cfi_def_cfa 2, 16
  54 004c 13010101 		addi	sp,sp,16
  55              		.cfi_def_cfa_offset 0
  56 0050 67800000 		jr	ra
  57              		.cfi_endproc
  58              	.LFE26:
  60              		.align	2
  61              		.globl	_ZN3PCBC2EPFvPvES0_S0_m
  63              	_ZN3PCBC2EPFvPvES0_S0_m:
  64              	.LFB22:
  11:src/PCB.cpp   ****     timeSlice(timeSlice),
GAS LISTING /tmp/ccHp0Hur.s 			page 3


  65              		.loc 1 11 1 is_stmt 1
  66              		.cfi_startproc
  67              	.LVL4:
  68 0054 130101FE 		addi	sp,sp,-32
  69              		.cfi_def_cfa_offset 32
  70 0058 233C1100 		sd	ra,24(sp)
  71 005c 23388100 		sd	s0,16(sp)
  72 0060 23349100 		sd	s1,8(sp)
  73              		.cfi_offset 1, -8
  74              		.cfi_offset 8, -16
  75              		.cfi_offset 9, -24
  76 0064 13040102 		addi	s0,sp,32
  77              		.cfi_def_cfa 8, 0
  78 0068 93040500 		mv	s1,a0
  79              	.LBB12:
  19:src/PCB.cpp   **** {
  80              		.loc 1 19 6 is_stmt 0
  81 006c 23000500 		sb	zero,0(a0)
  82 0070 2338E500 		sd	a4,16(a0)
  83 0074 233C0500 		sd	zero,24(a0)
  84 0078 2330B502 		sd	a1,32(a0)
  85 007c 2334C502 		sd	a2,40(a0)
  86 0080 2338D502 		sd	a3,48(a0)
  17:src/PCB.cpp   ****         (uint64)&PCB::runner
  87              		.loc 1 17 37
  88 0084 B7170000 		li	a5,4096
  89 0088 B386F600 		add	a3,a3,a5
  90              	.LVL5:
  19:src/PCB.cpp   **** {
  91              		.loc 1 19 6
  92 008c 2330D504 		sd	a3,64(a0)
  93 0090 97070000 		lla	a5,_ZN3PCB6runnerEv
  93      93870700 
  94 0098 2334F504 		sd	a5,72(a0)
  21:src/PCB.cpp   ****     nextPCB = 0;
  95              		.loc 1 21 5 is_stmt 1
  21:src/PCB.cpp   ****     nextPCB = 0;
  96              		.loc 1 21 19 is_stmt 0
  97 009c 97000000 		call	_ZN9Scheduler3putEP3PCB@plt
  97      E7800000 
  98              	.LVL6:
  22:src/PCB.cpp   **** }
  99              		.loc 1 22 5 is_stmt 1
  22:src/PCB.cpp   **** }
 100              		.loc 1 22 13 is_stmt 0
 101 00a4 23B40400 		sd	zero,8(s1)
 102              	.LBE12:
  23:src/PCB.cpp   **** 
 103              		.loc 1 23 1
 104 00a8 83308101 		ld	ra,24(sp)
 105              		.cfi_restore 1
 106 00ac 03340101 		ld	s0,16(sp)
 107              		.cfi_restore 8
 108              		.cfi_def_cfa 2, 32
 109 00b0 83348100 		ld	s1,8(sp)
 110              		.cfi_restore 9
 111              	.LVL7:
GAS LISTING /tmp/ccHp0Hur.s 			page 4


 112 00b4 13010102 		addi	sp,sp,32
 113              		.cfi_def_cfa_offset 0
 114 00b8 67800000 		jr	ra
 115              		.cfi_endproc
 116              	.LFE22:
 118              		.globl	_ZN3PCBC1EPFvPvES0_S0_m
 119              		.set	_ZN3PCBC1EPFvPvES0_S0_m,_ZN3PCBC2EPFvPvES0_S0_m
 120              		.align	2
 121              		.globl	_ZN3PCB5sleepEm
 123              	_ZN3PCB5sleepEm:
 124              	.LFB24:
  26:src/PCB.cpp   ****     //todo
 125              		.loc 1 26 1 is_stmt 1
 126              		.cfi_startproc
 127              	.LVL8:
 128 00bc 130101FF 		addi	sp,sp,-16
 129              		.cfi_def_cfa_offset 16
 130 00c0 23348100 		sd	s0,8(sp)
 131              		.cfi_offset 8, -8
 132 00c4 13040101 		addi	s0,sp,16
 133              		.cfi_def_cfa 8, 0
  28:src/PCB.cpp   **** 
 134              		.loc 1 28 1 is_stmt 0
 135 00c8 03348100 		ld	s0,8(sp)
 136              		.cfi_restore 8
 137              		.cfi_def_cfa 2, 16
 138 00cc 13010101 		addi	sp,sp,16
 139              		.cfi_def_cfa_offset 0
 140 00d0 67800000 		jr	ra
 141              		.cfi_endproc
 142              	.LFE24:
 144              		.align	2
 145              		.globl	_ZN3PCB5startEv
 147              	_ZN3PCB5startEv:
 148              	.LFB25:
  31:src/PCB.cpp   ****     Scheduler::put(this);
 149              		.loc 1 31 1 is_stmt 1
 150              		.cfi_startproc
 151              	.LVL9:
 152 00d4 130101FF 		addi	sp,sp,-16
 153              		.cfi_def_cfa_offset 16
 154 00d8 23341100 		sd	ra,8(sp)
 155 00dc 23308100 		sd	s0,0(sp)
 156              		.cfi_offset 1, -8
 157              		.cfi_offset 8, -16
 158 00e0 13040101 		addi	s0,sp,16
 159              		.cfi_def_cfa 8, 0
  32:src/PCB.cpp   **** }
 160              		.loc 1 32 5
  32:src/PCB.cpp   **** }
 161              		.loc 1 32 19 is_stmt 0
 162 00e4 97000000 		call	_ZN9Scheduler3putEP3PCB@plt
 162      E7800000 
 163              	.LVL10:
  33:src/PCB.cpp   **** 
 164              		.loc 1 33 1
 165 00ec 83308100 		ld	ra,8(sp)
GAS LISTING /tmp/ccHp0Hur.s 			page 5


 166              		.cfi_restore 1
 167 00f0 03340100 		ld	s0,0(sp)
 168              		.cfi_restore 8
 169              		.cfi_def_cfa 2, 16
 170 00f4 13010101 		addi	sp,sp,16
 171              		.cfi_def_cfa_offset 0
 172 00f8 67800000 		jr	ra
 173              		.cfi_endproc
 174              	.LFE25:
 176              		.align	2
 177              		.globl	_ZN3PCB8dispatchEv
 179              	_ZN3PCB8dispatchEv:
 180              	.LFB27:
  44:src/PCB.cpp   **** 
  45:src/PCB.cpp   **** void PCB::dispatch()
  46:src/PCB.cpp   **** {
 181              		.loc 1 46 1 is_stmt 1
 182              		.cfi_startproc
 183 00fc 130101FE 		addi	sp,sp,-32
 184              		.cfi_def_cfa_offset 32
 185 0100 233C1100 		sd	ra,24(sp)
 186 0104 23388100 		sd	s0,16(sp)
 187 0108 23349100 		sd	s1,8(sp)
 188              		.cfi_offset 1, -8
 189              		.cfi_offset 8, -16
 190              		.cfi_offset 9, -24
 191 010c 13040102 		addi	s0,sp,32
 192              		.cfi_def_cfa 8, 0
  47:src/PCB.cpp   ****     //Riscv::printString("Dispatch called...\n");
  48:src/PCB.cpp   ****     PCB* old = running;
 193              		.loc 1 48 5
 194              		.loc 1 48 10 is_stmt 0
 195 0110 97040000 		ld	s1,.LANCHOR0
 195      83B40400 
 196              	.LVL11:
  49:src/PCB.cpp   ****     if(old->getState() == PCB::RUNNING)
 197              		.loc 1 49 5 is_stmt 1
 198              	.LBB13:
 199              	.LBB14:
 200              		.file 2 "src/../h/PCB.hpp"
   1:src/../h/PCB.hpp **** //
   2:src/../h/PCB.hpp **** // Created by os on 4/27/22.
   3:src/../h/PCB.hpp **** //
   4:src/../h/PCB.hpp **** 
   5:src/../h/PCB.hpp **** #ifndef PROJECT_BASE_V1_0_PCB_HPP
   6:src/../h/PCB.hpp **** #define PROJECT_BASE_V1_0_PCB_HPP
   7:src/../h/PCB.hpp **** 
   8:src/../h/PCB.hpp **** #include "../lib/hw.h"
   9:src/../h/PCB.hpp **** #include "Scheduler.hpp"
  10:src/../h/PCB.hpp **** #include "Riscv.hpp"
  11:src/../h/PCB.hpp **** 
  12:src/../h/PCB.hpp **** class PCB
  13:src/../h/PCB.hpp **** {
  14:src/../h/PCB.hpp **** public:
  15:src/../h/PCB.hpp ****     using Body = void (*)(void*);
  16:src/../h/PCB.hpp **** 
  17:src/../h/PCB.hpp ****     PCB(Body body,  void* args, void* stack_space, uint64 timeSlice);
GAS LISTING /tmp/ccHp0Hur.s 			page 6


  18:src/../h/PCB.hpp ****     ~PCB();
  19:src/../h/PCB.hpp **** 
  20:src/../h/PCB.hpp ****     void start();
  21:src/../h/PCB.hpp ****     static void dispatch();
  22:src/../h/PCB.hpp ****     static void sleep(time_t);
  23:src/../h/PCB.hpp **** 
  24:src/../h/PCB.hpp ****     static PCB* running;
  25:src/../h/PCB.hpp **** 
  26:src/../h/PCB.hpp ****     static uint64 timeSliceCounter;
  27:src/../h/PCB.hpp ****     uint64 getTimeSlice() { return timeSlice;}
  28:src/../h/PCB.hpp **** 
  29:src/../h/PCB.hpp ****     void* operator new(size_t size);
  30:src/../h/PCB.hpp ****     void operator delete(void *p);
  31:src/../h/PCB.hpp **** 
  32:src/../h/PCB.hpp ****     enum State{READY, RUNNING, SUSPENDED, FINISHED, EXITING, SLEEPING};
  33:src/../h/PCB.hpp ****     State getState() {return state;}
 201              		.loc 2 33 23
 202              		.loc 2 33 30 is_stmt 0
 203 0118 03A78403 		lw	a4,56(s1)
 204              	.LVL12:
 205              	.LBE14:
 206              	.LBE13:
 207              		.loc 1 49 5
 208 011c 93071000 		li	a5,1
 209 0120 6308F704 		beq	a4,a5,.L14
 210              	.L10:
  50:src/PCB.cpp   ****         Scheduler::put(old);
  51:src/PCB.cpp   ****     PCB::running = Scheduler::get();
 211              		.loc 1 51 5 is_stmt 1
 212              		.loc 1 51 34 is_stmt 0
 213 0124 97000000 		call	_ZN9Scheduler3getEv@plt
 213      E7800000 
 214              	.LVL13:
 215              		.loc 1 51 18
 216 012c 97070000 		sd	a0,.LANCHOR0,a5
 216      23B0A700 
  52:src/PCB.cpp   ****     PCB::running->setState(PCB::RUNNING);
 217              		.loc 1 52 5 is_stmt 1
 218              	.LVL14:
 219              	.LBB15:
 220              	.LBB16:
  34:src/../h/PCB.hpp ****     void setState(State s) {state = s;}
 221              		.loc 2 34 29
 222              		.loc 2 34 35 is_stmt 0
 223 0134 93071000 		li	a5,1
 224 0138 232CF502 		sw	a5,56(a0)
 225              	.LVL15:
 226              	.LBE16:
 227              	.LBE15:
  53:src/PCB.cpp   ****     //Riscv::printString("Switching context...\n");
  54:src/PCB.cpp   **** 
  55:src/PCB.cpp   ****     if(PCB::running->systemThread)
 228              		.loc 1 55 5 is_stmt 1
 229              		.loc 1 55 22 is_stmt 0
 230 013c 83470500 		lbu	a5,0(a0)
 231              		.loc 1 55 5
 232 0140 63800704 		beqz	a5,.L11
GAS LISTING /tmp/ccHp0Hur.s 			page 7


  56:src/PCB.cpp   ****         Riscv::ms_sstatus(Riscv::SSTATUS_SPP);
 233              		.loc 1 56 9 is_stmt 1
 234              	.LVL16:
 235              	.LBB17:
 236              	.LBB18:
 237              		.file 3 "src/../h/Riscv.hpp"
   1:src/../h/Riscv.hpp **** //
   2:src/../h/Riscv.hpp **** // Created by os on 4/27/22.
   3:src/../h/Riscv.hpp **** //
   4:src/../h/Riscv.hpp **** 
   5:src/../h/Riscv.hpp **** #ifndef PROJECT_BASE_V1_0_RISCV_HPP
   6:src/../h/Riscv.hpp **** #define PROJECT_BASE_V1_0_RISCV_HPP
   7:src/../h/Riscv.hpp **** 
   8:src/../h/Riscv.hpp **** #include "../lib/hw.h"
   9:src/../h/Riscv.hpp **** 
  10:src/../h/Riscv.hpp **** class Riscv
  11:src/../h/Riscv.hpp **** {
  12:src/../h/Riscv.hpp **** private:
  13:src/../h/Riscv.hpp **** 
  14:src/../h/Riscv.hpp **** public:
  15:src/../h/Riscv.hpp ****     static void kernelMain();
  16:src/../h/Riscv.hpp **** 
  17:src/../h/Riscv.hpp ****     static void initSystem();
  18:src/../h/Riscv.hpp ****     static void endSystem();
  19:src/../h/Riscv.hpp **** 
  20:src/../h/Riscv.hpp ****     static void userMainWrapper(void* p);
  21:src/../h/Riscv.hpp **** 
  22:src/../h/Riscv.hpp ****     static void enableInterrupts();
  23:src/../h/Riscv.hpp **** 
  24:src/../h/Riscv.hpp ****     static void disableInterrupts();
  25:src/../h/Riscv.hpp **** 
  26:src/../h/Riscv.hpp ****     static void printString(char const *string);
  27:src/../h/Riscv.hpp **** 
  28:src/../h/Riscv.hpp ****     static void printInteger(uint64 num);
  29:src/../h/Riscv.hpp **** 
  30:src/../h/Riscv.hpp ****     static void pushRegisters();
  31:src/../h/Riscv.hpp ****     static void popRegisters();
  32:src/../h/Riscv.hpp **** 
  33:src/../h/Riscv.hpp ****     static uint64 r_scause();
  34:src/../h/Riscv.hpp ****     static void w_scause(uint64 scause);
  35:src/../h/Riscv.hpp **** 
  36:src/../h/Riscv.hpp ****     static uint64 r_sepc();
  37:src/../h/Riscv.hpp ****     static void w_sepc(uint64 sepc);
  38:src/../h/Riscv.hpp **** 
  39:src/../h/Riscv.hpp ****     static uint64 r_stvec();
  40:src/../h/Riscv.hpp ****     static void w_stvec(uint64 stvec);
  41:src/../h/Riscv.hpp **** 
  42:src/../h/Riscv.hpp ****     static uint64 r_stval();
  43:src/../h/Riscv.hpp ****     static void w_stval(uint64 stval);
  44:src/../h/Riscv.hpp **** 
  45:src/../h/Riscv.hpp ****     enum BitMaskSip
  46:src/../h/Riscv.hpp ****     {
  47:src/../h/Riscv.hpp ****         SIP_SSIP = (1 << 1),
  48:src/../h/Riscv.hpp ****         SIP_STIP = (1 << 5),
  49:src/../h/Riscv.hpp ****         SIP_SEIP = (1 << 9),
  50:src/../h/Riscv.hpp ****     };
  51:src/../h/Riscv.hpp **** 
GAS LISTING /tmp/ccHp0Hur.s 			page 8


  52:src/../h/Riscv.hpp ****     static void ms_sip(uint64 mask);
  53:src/../h/Riscv.hpp **** 
  54:src/../h/Riscv.hpp ****     static void mc_sip(uint64 mask);
  55:src/../h/Riscv.hpp **** 
  56:src/../h/Riscv.hpp ****     static uint64 r_sip();
  57:src/../h/Riscv.hpp **** 
  58:src/../h/Riscv.hpp ****     static void w_sip(uint64 sip);
  59:src/../h/Riscv.hpp **** 
  60:src/../h/Riscv.hpp ****     enum BitMaskSstatus
  61:src/../h/Riscv.hpp ****     {
  62:src/../h/Riscv.hpp ****         SSTATUS_SIE = (1 << 1),
  63:src/../h/Riscv.hpp ****         SSTATUS_SPIE = (1 << 5),
  64:src/../h/Riscv.hpp ****         SSTATUS_SPP = (1 << 8),
  65:src/../h/Riscv.hpp ****     };
  66:src/../h/Riscv.hpp **** 
  67:src/../h/Riscv.hpp ****     static void ms_sstatus(uint64 mask);
  68:src/../h/Riscv.hpp **** 
  69:src/../h/Riscv.hpp ****     static void mc_sstatus(uint64 mask);
  70:src/../h/Riscv.hpp **** 
  71:src/../h/Riscv.hpp ****     static uint64 r_sstatus();
  72:src/../h/Riscv.hpp **** 
  73:src/../h/Riscv.hpp ****     static void w_sstatus(uint64 sstatus);
  74:src/../h/Riscv.hpp **** 
  75:src/../h/Riscv.hpp ****     static void popSppSpie();
  76:src/../h/Riscv.hpp **** 
  77:src/../h/Riscv.hpp ****     static void supervisorTrap();
  78:src/../h/Riscv.hpp ****     static void handleSupervisorTrap();
  79:src/../h/Riscv.hpp **** 
  80:src/../h/Riscv.hpp ****     static const uint64 bntOne = 1UL << 63;;
  81:src/../h/Riscv.hpp ****     static const uint64 bntZero = 0UL;
  82:src/../h/Riscv.hpp ****     static const uint64 timerInterrupt = bntOne + 1UL;
  83:src/../h/Riscv.hpp ****     static const uint64 hwInterrupt = bntOne + 9UL;
  84:src/../h/Riscv.hpp ****     static const uint64 operationInterrupt = bntZero + 2UL;
  85:src/../h/Riscv.hpp ****     static const uint64 addrReadInterrupt = bntZero + 5UL;
  86:src/../h/Riscv.hpp ****     static const uint64 addrWriteInterrupt = bntZero + 7UL;
  87:src/../h/Riscv.hpp ****     static const uint64 ecallUserInterrupt = bntZero + 8UL;
  88:src/../h/Riscv.hpp ****     static const uint64 ecallSystemInterupt = bntZero + 9UL;
  89:src/../h/Riscv.hpp **** };
  90:src/../h/Riscv.hpp **** 
  91:src/../h/Riscv.hpp **** inline uint64 Riscv::r_scause() {
  92:src/../h/Riscv.hpp ****     uint64 volatile scause;
  93:src/../h/Riscv.hpp ****     __asm__ volatile("csrr %0, scause" : "=r"(scause));
  94:src/../h/Riscv.hpp ****     return scause;
  95:src/../h/Riscv.hpp **** }
  96:src/../h/Riscv.hpp **** 
  97:src/../h/Riscv.hpp **** inline void Riscv::w_scause(uint64 scause) {
  98:src/../h/Riscv.hpp ****     __asm__ volatile("csrw scause, %0" : :"r"(scause));
  99:src/../h/Riscv.hpp **** }
 100:src/../h/Riscv.hpp **** 
 101:src/../h/Riscv.hpp **** inline uint64 Riscv::r_sepc() {
 102:src/../h/Riscv.hpp ****     uint64 volatile sepc;
 103:src/../h/Riscv.hpp ****     __asm__ volatile("csrr %0, sepc" : "=r"(sepc));
 104:src/../h/Riscv.hpp ****     return sepc;
 105:src/../h/Riscv.hpp **** }
 106:src/../h/Riscv.hpp **** 
 107:src/../h/Riscv.hpp **** inline void Riscv::w_sepc(uint64 sepc) {
 108:src/../h/Riscv.hpp ****     __asm__ volatile("csrw sepc, %0" : :"r"(sepc));
GAS LISTING /tmp/ccHp0Hur.s 			page 9


 109:src/../h/Riscv.hpp **** }
 110:src/../h/Riscv.hpp **** 
 111:src/../h/Riscv.hpp **** inline uint64 Riscv::r_stvec() {
 112:src/../h/Riscv.hpp ****     uint64 volatile stvec;
 113:src/../h/Riscv.hpp ****     __asm__ volatile("csrr %0, stvec" : "=r"(stvec));
 114:src/../h/Riscv.hpp ****     return stvec;
 115:src/../h/Riscv.hpp **** }
 116:src/../h/Riscv.hpp **** 
 117:src/../h/Riscv.hpp **** inline void Riscv::w_stvec(uint64 stvec) {
 118:src/../h/Riscv.hpp ****     __asm__ volatile("csrw stvec, %0" : :"r"(stvec));
 119:src/../h/Riscv.hpp **** }
 120:src/../h/Riscv.hpp **** 
 121:src/../h/Riscv.hpp **** inline uint64 Riscv::r_stval() {
 122:src/../h/Riscv.hpp ****     uint64 volatile stval;
 123:src/../h/Riscv.hpp ****     __asm__ volatile("csrr %0, stval" : "=r"(stval));
 124:src/../h/Riscv.hpp ****     return stval;
 125:src/../h/Riscv.hpp **** }
 126:src/../h/Riscv.hpp **** 
 127:src/../h/Riscv.hpp **** inline void Riscv::w_stval(uint64 stval) {
 128:src/../h/Riscv.hpp ****     __asm__ volatile("csrw stval, %0" : :"r"(stval));
 129:src/../h/Riscv.hpp **** }
 130:src/../h/Riscv.hpp **** 
 131:src/../h/Riscv.hpp **** inline void Riscv::ms_sip(uint64 mask) {
 132:src/../h/Riscv.hpp ****     __asm__ volatile("csrs sip, %0" : :"r"(mask));
 133:src/../h/Riscv.hpp **** }
 134:src/../h/Riscv.hpp **** 
 135:src/../h/Riscv.hpp **** inline void Riscv::mc_sip(uint64 mask) {
 136:src/../h/Riscv.hpp ****     __asm__ volatile("csrc sip, %0" : :"r"(mask));
 137:src/../h/Riscv.hpp **** }
 138:src/../h/Riscv.hpp **** 
 139:src/../h/Riscv.hpp **** inline uint64 Riscv::r_sip() {
 140:src/../h/Riscv.hpp ****     uint64 volatile sip;
 141:src/../h/Riscv.hpp ****     __asm__ volatile("csrr %0, sip" : "=r"(sip));
 142:src/../h/Riscv.hpp ****     return sip;
 143:src/../h/Riscv.hpp **** }
 144:src/../h/Riscv.hpp **** 
 145:src/../h/Riscv.hpp **** inline void Riscv::w_sip(uint64 sip) {
 146:src/../h/Riscv.hpp ****     __asm__ volatile("csrw sip, %0" : :"r"(sip));
 147:src/../h/Riscv.hpp **** }
 148:src/../h/Riscv.hpp **** 
 149:src/../h/Riscv.hpp **** inline void Riscv::ms_sstatus(uint64 mask) {
 150:src/../h/Riscv.hpp ****     __asm__ volatile("csrs sstatus, %0" : :"r"(mask));
 238              		.loc 3 150 5
 239              		.loc 3 150 54 is_stmt 0
 240 0144 93070010 		li	a5,256
 241              	#APP
 242              	# 150 "src/../h/Riscv.hpp" 1
 151              	}
 243              		csrs sstatus, a5
 244              	# 0 "" 2
 245              	.LVL17:
 246              	#NO_APP
 247              	.L12:
 248              	.LBE18:
 249              	.LBE17:
  57:src/PCB.cpp   ****     else
  58:src/PCB.cpp   ****         Riscv::ms_sstatus(Riscv::SSTATUS_SPP);
GAS LISTING /tmp/ccHp0Hur.s 			page 10


  59:src/PCB.cpp   **** 
  60:src/PCB.cpp   **** 
  61:src/PCB.cpp   ****     PCB::contextSwitch(&old->context, &running->context);
 250              		.loc 1 61 5 is_stmt 1
 251              		.loc 1 61 23 is_stmt 0
 252 014c 93050504 		addi	a1,a0,64
 253 0150 13850404 		addi	a0,s1,64
 254 0154 97000000 		call	_ZN3PCB13contextSwitchEPNS_7ContextES1_@plt
 254      E7800000 
 255              	.LVL18:
  62:src/PCB.cpp   **** }
 256              		.loc 1 62 1
 257 015c 83308101 		ld	ra,24(sp)
 258              		.cfi_remember_state
 259              		.cfi_restore 1
 260 0160 03340101 		ld	s0,16(sp)
 261              		.cfi_restore 8
 262              		.cfi_def_cfa 2, 32
 263 0164 83348100 		ld	s1,8(sp)
 264              		.cfi_restore 9
 265              	.LVL19:
 266 0168 13010102 		addi	sp,sp,32
 267              		.cfi_def_cfa_offset 0
 268 016c 67800000 		jr	ra
 269              	.LVL20:
 270              	.L14:
 271              		.cfi_restore_state
  50:src/PCB.cpp   ****     PCB::running = Scheduler::get();
 272              		.loc 1 50 9 is_stmt 1
  50:src/PCB.cpp   ****     PCB::running = Scheduler::get();
 273              		.loc 1 50 23 is_stmt 0
 274 0170 13850400 		mv	a0,s1
 275 0174 97000000 		call	_ZN9Scheduler3putEP3PCB@plt
 275      E7800000 
 276              	.LVL21:
 277 017c 6FF09FFA 		j	.L10
 278              	.L11:
  58:src/PCB.cpp   **** 
 279              		.loc 1 58 9 is_stmt 1
 280              	.LVL22:
 281              	.LBB19:
 282              	.LBB20:
 150:src/../h/Riscv.hpp **** }
 283              		.loc 3 150 5
 150:src/../h/Riscv.hpp **** }
 284              		.loc 3 150 54 is_stmt 0
 285 0180 93070010 		li	a5,256
 286              	#APP
 287              	# 150 "src/../h/Riscv.hpp" 1
 288              		csrs sstatus, a5
 289              	# 0 "" 2
 290              		.loc 3 151 1
 291              	#NO_APP
 292 0188 6FF05FFC 		j	.L12
 293              	.LBE20:
 294              	.LBE19:
 295              		.cfi_endproc
GAS LISTING /tmp/ccHp0Hur.s 			page 11


 296              	.LFE27:
 298              		.align	2
 299              		.globl	_ZN3PCBnwEm
 301              	_ZN3PCBnwEm:
 302              	.LFB28:
  63:src/PCB.cpp   **** 
  64:src/PCB.cpp   **** void *PCB::operator new(size_t size) {
 303              		.loc 1 64 38 is_stmt 1
 304              		.cfi_startproc
 305              	.LVL23:
 306 018c 130101FF 		addi	sp,sp,-16
 307              		.cfi_def_cfa_offset 16
 308 0190 23341100 		sd	ra,8(sp)
 309 0194 23308100 		sd	s0,0(sp)
 310              		.cfi_offset 1, -8
 311              		.cfi_offset 8, -16
 312 0198 13040101 		addi	s0,sp,16
 313              		.cfi_def_cfa 8, 0
  65:src/PCB.cpp   ****     return kmalloc(size);
 314              		.loc 1 65 5
 315              		.loc 1 65 19 is_stmt 0
 316 019c 97000000 		call	_Z7kmallocm@plt
 316      E7800000 
 317              	.LVL24:
  66:src/PCB.cpp   **** }
 318              		.loc 1 66 1
 319 01a4 83308100 		ld	ra,8(sp)
 320              		.cfi_restore 1
 321 01a8 03340100 		ld	s0,0(sp)
 322              		.cfi_restore 8
 323              		.cfi_def_cfa 2, 16
 324 01ac 13010101 		addi	sp,sp,16
 325              		.cfi_def_cfa_offset 0
 326 01b0 67800000 		jr	ra
 327              		.cfi_endproc
 328              	.LFE28:
 330              		.align	2
 331              		.globl	_ZN3PCBdlEPv
 333              	_ZN3PCBdlEPv:
 334              	.LFB29:
  67:src/PCB.cpp   **** 
  68:src/PCB.cpp   **** void PCB::operator delete(void *p) {
 335              		.loc 1 68 36 is_stmt 1
 336              		.cfi_startproc
 337              	.LVL25:
 338 01b4 130101FF 		addi	sp,sp,-16
 339              		.cfi_def_cfa_offset 16
 340 01b8 23341100 		sd	ra,8(sp)
 341 01bc 23308100 		sd	s0,0(sp)
 342              		.cfi_offset 1, -8
 343              		.cfi_offset 8, -16
 344 01c0 13040101 		addi	s0,sp,16
 345              		.cfi_def_cfa 8, 0
  69:src/PCB.cpp   ****     kfree(p);
 346              		.loc 1 69 5
 347              		.loc 1 69 10 is_stmt 0
 348 01c4 97000000 		call	_Z5kfreePv@plt
GAS LISTING /tmp/ccHp0Hur.s 			page 12


 348      E7800000 
 349              	.LVL26:
  70:src/PCB.cpp   **** }
 350              		.loc 1 70 1
 351 01cc 83308100 		ld	ra,8(sp)
 352              		.cfi_restore 1
 353 01d0 03340100 		ld	s0,0(sp)
 354              		.cfi_restore 8
 355              		.cfi_def_cfa 2, 16
 356 01d4 13010101 		addi	sp,sp,16
 357              		.cfi_def_cfa_offset 0
 358 01d8 67800000 		jr	ra
 359              		.cfi_endproc
 360              	.LFE29:
 362              		.align	2
 363              		.globl	_ZN3PCBD2Ev
 365              	_ZN3PCBD2Ev:
 366              	.LFB31:
  71:src/PCB.cpp   **** 
  72:src/PCB.cpp   **** PCB::~PCB() {
 367              		.loc 1 72 1 is_stmt 1
 368              		.cfi_startproc
 369              		.cfi_personality 0x9b,DW.ref.__gxx_personality_v0
 370              		.cfi_lsda 0x1b,.LLSDA31
 371              	.LVL27:
 372 01dc 130101FF 		addi	sp,sp,-16
 373              		.cfi_def_cfa_offset 16
 374 01e0 23341100 		sd	ra,8(sp)
 375 01e4 23308100 		sd	s0,0(sp)
 376              		.cfi_offset 1, -8
 377              		.cfi_offset 8, -16
 378 01e8 13040101 		addi	s0,sp,16
 379              		.cfi_def_cfa 8, 0
 380              	.LBB21:
  73:src/PCB.cpp   ****     kfree(beginSP);
 381              		.loc 1 73 5
 382              		.loc 1 73 10 is_stmt 0
 383 01ec 03350503 		ld	a0,48(a0)
 384              	.LVL28:
 385 01f0 97000000 		call	_Z5kfreePv@plt
 385      E7800000 
 386              	.LVL29:
 387              	.LBE21:
  74:src/PCB.cpp   **** }
 388              		.loc 1 74 1
 389 01f8 83308100 		ld	ra,8(sp)
 390              		.cfi_restore 1
 391 01fc 03340100 		ld	s0,0(sp)
 392              		.cfi_restore 8
 393              		.cfi_def_cfa 2, 16
 394 0200 13010101 		addi	sp,sp,16
 395              		.cfi_def_cfa_offset 0
 396 0204 67800000 		jr	ra
 397              		.cfi_endproc
 398              	.LFE31:
 399              		.globl	__gxx_personality_v0
 400              		.section	.gcc_except_table,"a",@progbits
GAS LISTING /tmp/ccHp0Hur.s 			page 13


 401              	.LLSDA31:
 402 0000 FF       		.byte	0xff
 403 0001 FF       		.byte	0xff
 404 0002 03       		.byte	0x3
 405 0003 00       		.byte	0
 406              		.text
 408              		.globl	_ZN3PCBD1Ev
 409              		.set	_ZN3PCBD1Ev,_ZN3PCBD2Ev
 410              		.align	2
 411              		.globl	_ZN3PCB10initializeEv
 413              	_ZN3PCB10initializeEv:
 414              	.LFB33:
  75:src/PCB.cpp   **** 
  76:src/PCB.cpp   **** void PCB::initialize()
  77:src/PCB.cpp   **** {
 415              		.loc 1 77 1 is_stmt 1
 416              		.cfi_startproc
 417              		.cfi_personality 0x9b,DW.ref.__gxx_personality_v0
 418              		.cfi_lsda 0x1b,.LLSDA33
 419 0208 130101FE 		addi	sp,sp,-32
 420              		.cfi_def_cfa_offset 32
 421 020c 233C1100 		sd	ra,24(sp)
 422 0210 23388100 		sd	s0,16(sp)
 423 0214 23349100 		sd	s1,8(sp)
 424 0218 23302101 		sd	s2,0(sp)
 425              		.cfi_offset 1, -8
 426              		.cfi_offset 8, -16
 427              		.cfi_offset 9, -24
 428              		.cfi_offset 18, -32
 429 021c 13040102 		addi	s0,sp,32
 430              		.cfi_def_cfa 8, 0
  78:src/PCB.cpp   ****     PCB* mainSystem = new PCB(0, 0, 0, 0);
 431              		.loc 1 78 5
 432              		.loc 1 78 41 is_stmt 0
 433 0220 13050005 		li	a0,80
 434              	.LEHB0:
 435 0224 97000000 		call	_ZN3PCBnwEm
 435      E7800000 
 436              	.LVL30:
 437              	.LEHE0:
 438 022c 93040500 		mv	s1,a0
 439 0230 13070000 		li	a4,0
 440 0234 93060000 		li	a3,0
 441 0238 13060000 		li	a2,0
 442 023c 93050000 		li	a1,0
 443              	.LEHB1:
 444 0240 97000000 		call	_ZN3PCBC1EPFvPvES0_S0_m
 444      E7800000 
 445              	.LVL31:
 446              	.LEHE1:
  79:src/PCB.cpp   ****     mainSystem->systemThread = true;
 447              		.loc 1 79 5 is_stmt 1 discriminator 2
 448              		.loc 1 79 30 is_stmt 0 discriminator 2
 449 0248 93071000 		li	a5,1
 450 024c 2380F400 		sb	a5,0(s1)
  80:src/PCB.cpp   ****     PCB::running = Scheduler::get();
 451              		.loc 1 80 5 is_stmt 1 discriminator 2
GAS LISTING /tmp/ccHp0Hur.s 			page 14


 452              	.LEHB2:
 453              		.loc 1 80 34 is_stmt 0 discriminator 2
 454 0250 97000000 		call	_ZN9Scheduler3getEv@plt
 454      E7800000 
 455              	.LVL32:
 456              	.LEHE2:
 457              		.loc 1 80 18 discriminator 2
 458 0258 97070000 		sd	a0,.LANCHOR0,a5
 458      23B0A700 
  81:src/PCB.cpp   ****     PCB::running->setState(PCB::RUNNING);
 459              		.loc 1 81 5 is_stmt 1 discriminator 2
 460              	.LVL33:
 461              	.LBB22:
 462              	.LBB23:
 463              		.loc 2 34 29 discriminator 2
 464              		.loc 2 34 35 is_stmt 0 discriminator 2
 465 0260 93071000 		li	a5,1
 466 0264 232CF502 		sw	a5,56(a0)
 467              	.LVL34:
 468              	.LBE23:
 469              	.LBE22:
  82:src/PCB.cpp   **** }
 470              		.loc 1 82 1 discriminator 2
 471 0268 83308101 		ld	ra,24(sp)
 472              		.cfi_remember_state
 473              		.cfi_restore 1
 474 026c 03340101 		ld	s0,16(sp)
 475              		.cfi_restore 8
 476              		.cfi_def_cfa 2, 32
 477 0270 83348100 		ld	s1,8(sp)
 478              		.cfi_restore 9
 479              	.LVL35:
 480 0274 03390100 		ld	s2,0(sp)
 481              		.cfi_restore 18
 482 0278 13010102 		addi	sp,sp,32
 483              		.cfi_def_cfa_offset 0
 484 027c 67800000 		jr	ra
 485              	.L23:
 486              		.cfi_restore_state
 487 0280 13090500 		mv	s2,a0
  78:src/PCB.cpp   ****     mainSystem->systemThread = true;
 488              		.loc 1 78 41
 489 0284 13850400 		mv	a0,s1
 490 0288 97000000 		call	_ZN3PCBdlEPv
 490      E7800000 
 491              	.LVL36:
 492 0290 13050900 		mv	a0,s2
 493              	.LEHB3:
 494 0294 97000000 		call	_Unwind_Resume@plt
 494      E7800000 
 495              	.LVL37:
 496              	.LEHE3:
 497              		.cfi_endproc
 498              	.LFE33:
 499              		.section	.gcc_except_table
 500              	.LLSDA33:
 501 0004 FF       		.byte	0xff
GAS LISTING /tmp/ccHp0Hur.s 			page 15


 502 0005 FF       		.byte	0xff
 503 0006 03       		.byte	0x3
 504 0007 34       		.byte	0x34
 505 0008 00000000 		.4byte	.LEHB0-.LFB33
 506 000c 00000000 		.4byte	.LEHE0-.LEHB0
 507 0010 00000000 		.4byte	0
 508 0014 00       		.byte	0
 509 0015 00000000 		.4byte	.LEHB1-.LFB33
 510 0019 00000000 		.4byte	.LEHE1-.LEHB1
 511 001d 00000000 		.4byte	.L23-.LFB33
 512 0021 00       		.byte	0
 513 0022 00000000 		.4byte	.LEHB2-.LFB33
 514 0026 00000000 		.4byte	.LEHE2-.LEHB2
 515 002a 00000000 		.4byte	0
 516 002e 00       		.byte	0
 517 002f 00000000 		.4byte	.LEHB3-.LFB33
 518 0033 00000000 		.4byte	.LEHE3-.LEHB3
 519 0037 00000000 		.4byte	0
 520 003b 00       		.byte	0
 521              		.text
 523              		.globl	_ZN3PCB16timeSliceCounterE
 524              		.globl	_ZN3PCB7runningE
 525              		.bss
 526              		.align	3
 527              		.set	.LANCHOR0,. + 0
 530              	_ZN3PCB7runningE:
 531 0000 00000000 		.zero	8
 531      00000000 
 534              	_ZN3PCB16timeSliceCounterE:
 535 0008 00000000 		.zero	8
 535      00000000 
 536              		.text
 537              	.Letext0:
 538              		.file 4 "src/../h/../lib/hw.h"
 539              		.file 5 "src/../h/Scheduler.hpp"
 540              		.file 6 "src/../h/MemoryAllocator.hpp"
 541              		.file 7 "src/../h/syscall_c.h"
 3690              		.align	3
 3693              	DW.ref.__gxx_personality_v0:
 3694 0000 00000000 		.dword	__gxx_personality_v0
 3694      00000000 
 3695              		.ident	"GCC: (Ubuntu 9.3.0-17ubuntu1~20.04) 9.3.0"
 3696              		.section	.note.GNU-stack,"",@progbits
GAS LISTING /tmp/ccHp0Hur.s 			page 16


DEFINED SYMBOLS
                            *ABS*:0000000000000000 PCB.cpp
     /tmp/ccHp0Hur.s:14     .text:0000000000000000 _ZN3PCB6runnerEv
     /tmp/ccHp0Hur.s:18     .text:0000000000000000 .L0 
     /tmp/ccHp0Hur.s:19     .text:0000000000000000 .L0 
     /tmp/ccHp0Hur.s:20     .text:0000000000000004 .L0 
     /tmp/ccHp0Hur.s:23     .text:000000000000000c .L0 
     /tmp/ccHp0Hur.s:24     .text:000000000000000c .L0 
     /tmp/ccHp0Hur.s:26     .text:0000000000000010 .L0 
     /tmp/ccHp0Hur.s:28     .text:0000000000000010 .L0 
     /tmp/ccHp0Hur.s:29     .text:0000000000000010 .L0 
     /tmp/ccHp0Hur.s:33     .text:0000000000000020 .L0 
     /tmp/ccHp0Hur.s:34     .text:0000000000000020 .L0 
     /tmp/ccHp0Hur.s:37     .text:0000000000000028 .L0 
     /tmp/ccHp0Hur.s:38     .text:0000000000000028 .L0 
     /tmp/ccHp0Hur.s:41     .text:0000000000000034 .L0 
     /tmp/ccHp0Hur.s:45     .text:000000000000003c .L0 
     /tmp/ccHp0Hur.s:46     .text:000000000000003c .L0 
     /tmp/ccHp0Hur.s:49     .text:0000000000000044 .L0 
     /tmp/ccHp0Hur.s:50     .text:0000000000000048 .L0 
     /tmp/ccHp0Hur.s:52     .text:000000000000004c .L0 
     /tmp/ccHp0Hur.s:53     .text:000000000000004c .L0 
     /tmp/ccHp0Hur.s:55     .text:0000000000000050 .L0 
     /tmp/ccHp0Hur.s:57     .text:0000000000000054 .L0 
     /tmp/ccHp0Hur.s:63     .text:0000000000000054 _ZN3PCBC2EPFvPvES0_S0_m
     /tmp/ccHp0Hur.s:66     .text:0000000000000054 .L0 
     /tmp/ccHp0Hur.s:68     .text:0000000000000054 .L0 
     /tmp/ccHp0Hur.s:69     .text:0000000000000058 .L0 
     /tmp/ccHp0Hur.s:73     .text:0000000000000064 .L0 
     /tmp/ccHp0Hur.s:74     .text:0000000000000064 .L0 
     /tmp/ccHp0Hur.s:75     .text:0000000000000064 .L0 
     /tmp/ccHp0Hur.s:77     .text:0000000000000068 .L0 
     /tmp/ccHp0Hur.s:81     .text:000000000000006c .L0 
     /tmp/ccHp0Hur.s:88     .text:0000000000000084 .L0 
     /tmp/ccHp0Hur.s:92     .text:000000000000008c .L0 
     /tmp/ccHp0Hur.s:96     .text:000000000000009c .L0 
     /tmp/ccHp0Hur.s:97     .text:000000000000009c .L0 
     /tmp/ccHp0Hur.s:100    .text:00000000000000a4 .L0 
     /tmp/ccHp0Hur.s:101    .text:00000000000000a4 .L0 
     /tmp/ccHp0Hur.s:104    .text:00000000000000a8 .L0 
     /tmp/ccHp0Hur.s:105    .text:00000000000000ac .L0 
     /tmp/ccHp0Hur.s:107    .text:00000000000000b0 .L0 
     /tmp/ccHp0Hur.s:108    .text:00000000000000b0 .L0 
     /tmp/ccHp0Hur.s:110    .text:00000000000000b4 .L0 
     /tmp/ccHp0Hur.s:113    .text:00000000000000b8 .L0 
     /tmp/ccHp0Hur.s:115    .text:00000000000000bc .L0 
     /tmp/ccHp0Hur.s:63     .text:0000000000000054 _ZN3PCBC1EPFvPvES0_S0_m
     /tmp/ccHp0Hur.s:123    .text:00000000000000bc _ZN3PCB5sleepEm
     /tmp/ccHp0Hur.s:126    .text:00000000000000bc .L0 
     /tmp/ccHp0Hur.s:128    .text:00000000000000bc .L0 
     /tmp/ccHp0Hur.s:129    .text:00000000000000c0 .L0 
     /tmp/ccHp0Hur.s:131    .text:00000000000000c4 .L0 
     /tmp/ccHp0Hur.s:133    .text:00000000000000c8 .L0 
     /tmp/ccHp0Hur.s:135    .text:00000000000000c8 .L0 
     /tmp/ccHp0Hur.s:136    .text:00000000000000cc .L0 
     /tmp/ccHp0Hur.s:137    .text:00000000000000cc .L0 
     /tmp/ccHp0Hur.s:139    .text:00000000000000d0 .L0 
GAS LISTING /tmp/ccHp0Hur.s 			page 17


     /tmp/ccHp0Hur.s:141    .text:00000000000000d4 .L0 
     /tmp/ccHp0Hur.s:147    .text:00000000000000d4 _ZN3PCB5startEv
     /tmp/ccHp0Hur.s:150    .text:00000000000000d4 .L0 
     /tmp/ccHp0Hur.s:152    .text:00000000000000d4 .L0 
     /tmp/ccHp0Hur.s:153    .text:00000000000000d8 .L0 
     /tmp/ccHp0Hur.s:156    .text:00000000000000e0 .L0 
     /tmp/ccHp0Hur.s:157    .text:00000000000000e0 .L0 
     /tmp/ccHp0Hur.s:159    .text:00000000000000e4 .L0 
     /tmp/ccHp0Hur.s:161    .text:00000000000000e4 .L0 
     /tmp/ccHp0Hur.s:162    .text:00000000000000e4 .L0 
     /tmp/ccHp0Hur.s:165    .text:00000000000000ec .L0 
     /tmp/ccHp0Hur.s:166    .text:00000000000000f0 .L0 
     /tmp/ccHp0Hur.s:168    .text:00000000000000f4 .L0 
     /tmp/ccHp0Hur.s:169    .text:00000000000000f4 .L0 
     /tmp/ccHp0Hur.s:171    .text:00000000000000f8 .L0 
     /tmp/ccHp0Hur.s:173    .text:00000000000000fc .L0 
     /tmp/ccHp0Hur.s:179    .text:00000000000000fc _ZN3PCB8dispatchEv
     /tmp/ccHp0Hur.s:182    .text:00000000000000fc .L0 
     /tmp/ccHp0Hur.s:183    .text:00000000000000fc .L0 
     /tmp/ccHp0Hur.s:184    .text:0000000000000100 .L0 
     /tmp/ccHp0Hur.s:188    .text:000000000000010c .L0 
     /tmp/ccHp0Hur.s:189    .text:000000000000010c .L0 
     /tmp/ccHp0Hur.s:190    .text:000000000000010c .L0 
     /tmp/ccHp0Hur.s:192    .text:0000000000000110 .L0 
     /tmp/ccHp0Hur.s:194    .text:0000000000000110 .L0 
     /tmp/ccHp0Hur.s:195    .text:0000000000000110 .L0 
     /tmp/ccHp0Hur.s:201    .text:0000000000000118 .L0 
     /tmp/ccHp0Hur.s:202    .text:0000000000000118 .L0 
     /tmp/ccHp0Hur.s:203    .text:0000000000000118 .L0 
     /tmp/ccHp0Hur.s:208    .text:000000000000011c .L0 
     /tmp/ccHp0Hur.s:212    .text:0000000000000124 .L0 
     /tmp/ccHp0Hur.s:213    .text:0000000000000124 .L0 
     /tmp/ccHp0Hur.s:216    .text:000000000000012c .L0 
     /tmp/ccHp0Hur.s:221    .text:0000000000000134 .L0 
     /tmp/ccHp0Hur.s:222    .text:0000000000000134 .L0 
     /tmp/ccHp0Hur.s:223    .text:0000000000000134 .L0 
     /tmp/ccHp0Hur.s:229    .text:000000000000013c .L0 
     /tmp/ccHp0Hur.s:230    .text:000000000000013c .L0 
     /tmp/ccHp0Hur.s:232    .text:0000000000000140 .L0 
     /tmp/ccHp0Hur.s:238    .text:0000000000000144 .L0 
     /tmp/ccHp0Hur.s:239    .text:0000000000000144 .L0 
     /tmp/ccHp0Hur.s:240    .text:0000000000000144 .L0 
     /tmp/ccHp0Hur.s:251    .text:000000000000014c .L0 
     /tmp/ccHp0Hur.s:252    .text:000000000000014c .L0 
     /tmp/ccHp0Hur.s:257    .text:000000000000015c .L0 
     /tmp/ccHp0Hur.s:258    .text:0000000000000160 .L0 
     /tmp/ccHp0Hur.s:259    .text:0000000000000160 .L0 
     /tmp/ccHp0Hur.s:261    .text:0000000000000164 .L0 
     /tmp/ccHp0Hur.s:262    .text:0000000000000164 .L0 
     /tmp/ccHp0Hur.s:264    .text:0000000000000168 .L0 
     /tmp/ccHp0Hur.s:267    .text:000000000000016c .L0 
     /tmp/ccHp0Hur.s:271    .text:0000000000000170 .L0 
     /tmp/ccHp0Hur.s:273    .text:0000000000000170 .L0 
     /tmp/ccHp0Hur.s:274    .text:0000000000000170 .L0 
     /tmp/ccHp0Hur.s:283    .text:0000000000000180 .L0 
     /tmp/ccHp0Hur.s:284    .text:0000000000000180 .L0 
     /tmp/ccHp0Hur.s:285    .text:0000000000000180 .L0 
GAS LISTING /tmp/ccHp0Hur.s 			page 18


     /tmp/ccHp0Hur.s:292    .text:0000000000000188 .L0 
     /tmp/ccHp0Hur.s:295    .text:000000000000018c .L0 
     /tmp/ccHp0Hur.s:301    .text:000000000000018c _ZN3PCBnwEm
     /tmp/ccHp0Hur.s:304    .text:000000000000018c .L0 
     /tmp/ccHp0Hur.s:306    .text:000000000000018c .L0 
     /tmp/ccHp0Hur.s:307    .text:0000000000000190 .L0 
     /tmp/ccHp0Hur.s:310    .text:0000000000000198 .L0 
     /tmp/ccHp0Hur.s:311    .text:0000000000000198 .L0 
     /tmp/ccHp0Hur.s:313    .text:000000000000019c .L0 
     /tmp/ccHp0Hur.s:315    .text:000000000000019c .L0 
     /tmp/ccHp0Hur.s:316    .text:000000000000019c .L0 
     /tmp/ccHp0Hur.s:319    .text:00000000000001a4 .L0 
     /tmp/ccHp0Hur.s:320    .text:00000000000001a8 .L0 
     /tmp/ccHp0Hur.s:322    .text:00000000000001ac .L0 
     /tmp/ccHp0Hur.s:323    .text:00000000000001ac .L0 
     /tmp/ccHp0Hur.s:325    .text:00000000000001b0 .L0 
     /tmp/ccHp0Hur.s:327    .text:00000000000001b4 .L0 
     /tmp/ccHp0Hur.s:333    .text:00000000000001b4 _ZN3PCBdlEPv
     /tmp/ccHp0Hur.s:336    .text:00000000000001b4 .L0 
     /tmp/ccHp0Hur.s:338    .text:00000000000001b4 .L0 
     /tmp/ccHp0Hur.s:339    .text:00000000000001b8 .L0 
     /tmp/ccHp0Hur.s:342    .text:00000000000001c0 .L0 
     /tmp/ccHp0Hur.s:343    .text:00000000000001c0 .L0 
     /tmp/ccHp0Hur.s:345    .text:00000000000001c4 .L0 
     /tmp/ccHp0Hur.s:347    .text:00000000000001c4 .L0 
     /tmp/ccHp0Hur.s:348    .text:00000000000001c4 .L0 
     /tmp/ccHp0Hur.s:351    .text:00000000000001cc .L0 
     /tmp/ccHp0Hur.s:352    .text:00000000000001d0 .L0 
     /tmp/ccHp0Hur.s:354    .text:00000000000001d4 .L0 
     /tmp/ccHp0Hur.s:355    .text:00000000000001d4 .L0 
     /tmp/ccHp0Hur.s:357    .text:00000000000001d8 .L0 
     /tmp/ccHp0Hur.s:359    .text:00000000000001dc .L0 
     /tmp/ccHp0Hur.s:365    .text:00000000000001dc _ZN3PCBD2Ev
     /tmp/ccHp0Hur.s:368    .text:00000000000001dc .L0 
     /tmp/ccHp0Hur.s:3693   .data.rel.local.DW.ref.__gxx_personality_v0:0000000000000000 DW.ref.__gxx_personality_v0
     /tmp/ccHp0Hur.s:372    .text:00000000000001dc .L0 
     /tmp/ccHp0Hur.s:373    .text:00000000000001e0 .L0 
     /tmp/ccHp0Hur.s:376    .text:00000000000001e8 .L0 
     /tmp/ccHp0Hur.s:377    .text:00000000000001e8 .L0 
     /tmp/ccHp0Hur.s:379    .text:00000000000001ec .L0 
     /tmp/ccHp0Hur.s:382    .text:00000000000001ec .L0 
     /tmp/ccHp0Hur.s:383    .text:00000000000001ec .L0 
     /tmp/ccHp0Hur.s:389    .text:00000000000001f8 .L0 
     /tmp/ccHp0Hur.s:390    .text:00000000000001fc .L0 
     /tmp/ccHp0Hur.s:392    .text:0000000000000200 .L0 
     /tmp/ccHp0Hur.s:393    .text:0000000000000200 .L0 
     /tmp/ccHp0Hur.s:395    .text:0000000000000204 .L0 
     /tmp/ccHp0Hur.s:397    .text:0000000000000208 .L0 
     /tmp/ccHp0Hur.s:365    .text:00000000000001dc _ZN3PCBD1Ev
     /tmp/ccHp0Hur.s:413    .text:0000000000000208 _ZN3PCB10initializeEv
     /tmp/ccHp0Hur.s:416    .text:0000000000000208 .L0 
     /tmp/ccHp0Hur.s:419    .text:0000000000000208 .L0 
     /tmp/ccHp0Hur.s:420    .text:000000000000020c .L0 
     /tmp/ccHp0Hur.s:425    .text:000000000000021c .L0 
     /tmp/ccHp0Hur.s:426    .text:000000000000021c .L0 
     /tmp/ccHp0Hur.s:427    .text:000000000000021c .L0 
     /tmp/ccHp0Hur.s:428    .text:000000000000021c .L0 
GAS LISTING /tmp/ccHp0Hur.s 			page 19


     /tmp/ccHp0Hur.s:430    .text:0000000000000220 .L0 
     /tmp/ccHp0Hur.s:432    .text:0000000000000220 .L0 
     /tmp/ccHp0Hur.s:433    .text:0000000000000220 .L0 
     /tmp/ccHp0Hur.s:448    .text:0000000000000248 .L0 
     /tmp/ccHp0Hur.s:449    .text:0000000000000248 .L0 
     /tmp/ccHp0Hur.s:453    .text:0000000000000250 .L0 
     /tmp/ccHp0Hur.s:454    .text:0000000000000250 .L0 
     /tmp/ccHp0Hur.s:458    .text:0000000000000258 .L0 
     /tmp/ccHp0Hur.s:463    .text:0000000000000260 .L0 
     /tmp/ccHp0Hur.s:464    .text:0000000000000260 .L0 
     /tmp/ccHp0Hur.s:465    .text:0000000000000260 .L0 
     /tmp/ccHp0Hur.s:471    .text:0000000000000268 .L0 
     /tmp/ccHp0Hur.s:472    .text:000000000000026c .L0 
     /tmp/ccHp0Hur.s:473    .text:000000000000026c .L0 
     /tmp/ccHp0Hur.s:475    .text:0000000000000270 .L0 
     /tmp/ccHp0Hur.s:476    .text:0000000000000270 .L0 
     /tmp/ccHp0Hur.s:478    .text:0000000000000274 .L0 
     /tmp/ccHp0Hur.s:481    .text:0000000000000278 .L0 
     /tmp/ccHp0Hur.s:483    .text:000000000000027c .L0 
     /tmp/ccHp0Hur.s:486    .text:0000000000000280 .L0 
     /tmp/ccHp0Hur.s:489    .text:0000000000000284 .L0 
     /tmp/ccHp0Hur.s:497    .text:000000000000029c .L0 
     /tmp/ccHp0Hur.s:534    .bss:0000000000000008 _ZN3PCB16timeSliceCounterE
     /tmp/ccHp0Hur.s:530    .bss:0000000000000000 _ZN3PCB7runningE
     /tmp/ccHp0Hur.s:527    .bss:0000000000000000 .LANCHOR0
     /tmp/ccHp0Hur.s:542    .text:000000000000029c .L0 
     /tmp/ccHp0Hur.s:8      .rodata.str1.8:0000000000000000 .LC0
     /tmp/ccHp0Hur.s:29     .text:0000000000000010 .L0 
     /tmp/ccHp0Hur.s:38     .text:0000000000000028 .L0 
     /tmp/ccHp0Hur.s:93     .text:0000000000000090 .L0 
     /tmp/ccHp0Hur.s:195    .text:0000000000000110 .L0 
     /tmp/ccHp0Hur.s:216    .text:000000000000012c .L0 
     /tmp/ccHp0Hur.s:458    .text:0000000000000258 .L0 
     /tmp/ccHp0Hur.s:270    .text:0000000000000170 .L14
     /tmp/ccHp0Hur.s:278    .text:0000000000000180 .L11
     /tmp/ccHp0Hur.s:210    .text:0000000000000124 .L10
     /tmp/ccHp0Hur.s:247    .text:000000000000014c .L12
     /tmp/ccHp0Hur.s:434    .text:0000000000000224 .LEHB0
     /tmp/ccHp0Hur.s:414    .text:0000000000000208 .LFB33
     /tmp/ccHp0Hur.s:437    .text:000000000000022c .LEHE0
     /tmp/ccHp0Hur.s:443    .text:0000000000000240 .LEHB1
     /tmp/ccHp0Hur.s:446    .text:0000000000000248 .LEHE1
     /tmp/ccHp0Hur.s:485    .text:0000000000000280 .L23
     /tmp/ccHp0Hur.s:452    .text:0000000000000250 .LEHB2
     /tmp/ccHp0Hur.s:456    .text:0000000000000258 .LEHE2
     /tmp/ccHp0Hur.s:493    .text:0000000000000294 .LEHB3
     /tmp/ccHp0Hur.s:496    .text:000000000000029c .LEHE3
     /tmp/ccHp0Hur.s:2014   .debug_abbrev:0000000000000000 .Ldebug_abbrev0
     /tmp/ccHp0Hur.s:3367   .debug_str:0000000000000148 .LASF167
     /tmp/ccHp0Hur.s:3633   .debug_str:000000000000099f .LASF168
     /tmp/ccHp0Hur.s:3623   .debug_str:0000000000000941 .LASF169
     /tmp/ccHp0Hur.s:5      .text:0000000000000000 .Ltext0
     /tmp/ccHp0Hur.s:537    .text:000000000000029c .Letext0
     /tmp/ccHp0Hur.s:3329   .debug_line:0000000000000000 .Ldebug_line0
     /tmp/ccHp0Hur.s:3451   .debug_str:0000000000000446 .LASF0
     /tmp/ccHp0Hur.s:3477   .debug_str:0000000000000519 .LASF1
     /tmp/ccHp0Hur.s:3561   .debug_str:00000000000007a2 .LASF2
GAS LISTING /tmp/ccHp0Hur.s 			page 20


     /tmp/ccHp0Hur.s:3569   .debug_str:00000000000007dd .LASF4
     /tmp/ccHp0Hur.s:3465   .debug_str:00000000000004ad .LASF3
     /tmp/ccHp0Hur.s:3345   .debug_str:0000000000000061 .LASF5
     /tmp/ccHp0Hur.s:3543   .debug_str:0000000000000726 .LASF6
     /tmp/ccHp0Hur.s:3531   .debug_str:00000000000006ce .LASF7
     /tmp/ccHp0Hur.s:3471   .debug_str:00000000000004ee .LASF8
     /tmp/ccHp0Hur.s:3435   .debug_str:00000000000003c5 .LASF9
     /tmp/ccHp0Hur.s:3439   .debug_str:00000000000003f1 .LASF10
     /tmp/ccHp0Hur.s:3381   .debug_str:000000000000026c .LASF11
     /tmp/ccHp0Hur.s:3425   .debug_str:0000000000000399 .LASF12
     /tmp/ccHp0Hur.s:3387   .debug_str:000000000000028e .LASF13
     /tmp/ccHp0Hur.s:3379   .debug_str:000000000000025c .LASF14
     /tmp/ccHp0Hur.s:3601   .debug_str:00000000000008cc .LASF15
     /tmp/ccHp0Hur.s:3419   .debug_str:000000000000036b .LASF16
     /tmp/ccHp0Hur.s:3593   .debug_str:000000000000087b .LASF17
     /tmp/ccHp0Hur.s:3609   .debug_str:00000000000008f0 .LASF76
     /tmp/ccHp0Hur.s:3373   .debug_str:0000000000000231 .LASF18
     /tmp/ccHp0Hur.s:3587   .debug_str:000000000000085a .LASF19
     /tmp/ccHp0Hur.s:3385   .debug_str:0000000000000284 .LASF20
     /tmp/ccHp0Hur.s:3365   .debug_str:000000000000013f .LASF21
     /tmp/ccHp0Hur.s:3535   .debug_str:00000000000006f7 .LASF22
     /tmp/ccHp0Hur.s:3383   .debug_str:000000000000027b .LASF23
     /tmp/ccHp0Hur.s:3603   .debug_str:00000000000008d8 .LASF67
     /tmp/ccHp0Hur.s:3445   .debug_str:000000000000041d .LASF24
     /tmp/ccHp0Hur.s:3627   .debug_str:000000000000096c .LASF170
     /tmp/ccHp0Hur.s:3521   .debug_str:0000000000000680 .LASF171
     /tmp/ccHp0Hur.s:3475   .debug_str:0000000000000514 .LASF25
     /tmp/ccHp0Hur.s:3673   .debug_str:0000000000000aa9 .LASF27
     /tmp/ccHp0Hur.s:3667   .debug_str:0000000000000a79 .LASF26
     /tmp/ccHp0Hur.s:3617   .debug_str:0000000000000913 .LASF28
     /tmp/ccHp0Hur.s:3407   .debug_str:0000000000000326 .LASF51
     /tmp/ccHp0Hur.s:3353   .debug_str:00000000000000ac .LASF53
     /tmp/ccHp0Hur.s:3479   .debug_str:000000000000052c .LASF33
     /tmp/ccHp0Hur.s:3525   .debug_str:0000000000000698 .LASF35
     /tmp/ccHp0Hur.s:3611   .debug_str:00000000000008f6 .LASF29
     /tmp/ccHp0Hur.s:3579   .debug_str:0000000000000814 .LASF30
     /tmp/ccHp0Hur.s:3481   .debug_str:0000000000000532 .LASF37
     /tmp/ccHp0Hur.s:3485   .debug_str:000000000000055d .LASF39
     /tmp/ccHp0Hur.s:3677   .debug_str:0000000000000acd .LASF31
     /tmp/ccHp0Hur.s:3421   .debug_str:0000000000000381 .LASF32
     /tmp/ccHp0Hur.s:3337   .debug_str:000000000000002a .LASF34
     /tmp/ccHp0Hur.s:3461   .debug_str:0000000000000494 .LASF36
     /tmp/ccHp0Hur.s:3583   .debug_str:0000000000000836 .LASF38
     /tmp/ccHp0Hur.s:3505   .debug_str:0000000000000601 .LASF40
     /tmp/ccHp0Hur.s:3567   .debug_str:00000000000007d4 .LASF41
     /tmp/ccHp0Hur.s:3597   .debug_str:00000000000008a9 .LASF42
     /tmp/ccHp0Hur.s:3507   .debug_str:0000000000000614 .LASF43
     /tmp/ccHp0Hur.s:3333   .debug_str:000000000000000b .LASF44
     /tmp/ccHp0Hur.s:3657   .debug_str:0000000000000a2e .LASF45
     /tmp/ccHp0Hur.s:3529   .debug_str:00000000000006b4 .LASF46
     /tmp/ccHp0Hur.s:3591   .debug_str:000000000000086d .LASF47
     /tmp/ccHp0Hur.s:3545   .debug_str:000000000000072d .LASF48
     /tmp/ccHp0Hur.s:3403   .debug_str:0000000000000304 .LASF49
     /tmp/ccHp0Hur.s:3663   .debug_str:0000000000000a5f .LASF50
     /tmp/ccHp0Hur.s:3467   .debug_str:00000000000004bf .LASF55
     /tmp/ccHp0Hur.s:3589   .debug_str:0000000000000862 .LASF52
     /tmp/ccHp0Hur.s:3671   .debug_str:0000000000000a93 .LASF54
GAS LISTING /tmp/ccHp0Hur.s 			page 21


     /tmp/ccHp0Hur.s:3575   .debug_str:00000000000007fe .LASF56
     /tmp/ccHp0Hur.s:3621   .debug_str:0000000000000937 .LASF57
     /tmp/ccHp0Hur.s:3527   .debug_str:00000000000006a8 .LASF58
     /tmp/ccHp0Hur.s:3395   .debug_str:00000000000002d3 .LASF59
     /tmp/ccHp0Hur.s:3357   .debug_str:00000000000000da .LASF61
     /tmp/ccHp0Hur.s:3453   .debug_str:0000000000000453 .LASF60
     /tmp/ccHp0Hur.s:3371   .debug_str:0000000000000205 .LASF62
     /tmp/ccHp0Hur.s:3655   .debug_str:0000000000000a27 .LASF172
     /tmp/ccHp0Hur.s:3369   .debug_str:00000000000001f4 .LASF173
     /tmp/ccHp0Hur.s:3335   .debug_str:0000000000000025 .LASF63
     /tmp/ccHp0Hur.s:3637   .debug_str:00000000000009b4 .LASF64
     /tmp/ccHp0Hur.s:3489   .debug_str:0000000000000590 .LASF65
     /tmp/ccHp0Hur.s:3409   .debug_str:000000000000032f .LASF66
     /tmp/ccHp0Hur.s:3625   .debug_str:0000000000000964 .LASF68
     /tmp/ccHp0Hur.s:3433   .debug_str:00000000000003bb .LASF69
     /tmp/ccHp0Hur.s:3349   .debug_str:0000000000000082 .LASF174
     /tmp/ccHp0Hur.s:3669   .debug_str:0000000000000a7f .LASF175
     /tmp/ccHp0Hur.s:3361   .debug_str:000000000000011a .LASF70
     /tmp/ccHp0Hur.s:3523   .debug_str:0000000000000685 .LASF71
     /tmp/ccHp0Hur.s:3615   .debug_str:000000000000090b .LASF72
     /tmp/ccHp0Hur.s:3555   .debug_str:000000000000076e .LASF102
     /tmp/ccHp0Hur.s:3581   .debug_str:0000000000000825 .LASF73
     /tmp/ccHp0Hur.s:3389   .debug_str:000000000000029e .LASF74
     /tmp/ccHp0Hur.s:3647   .debug_str:00000000000009f5 .LASF75
     /tmp/ccHp0Hur.s:3639   .debug_str:00000000000009b9 .LASF77
     /tmp/ccHp0Hur.s:3423   .debug_str:000000000000038d .LASF78
     /tmp/ccHp0Hur.s:3613   .debug_str:00000000000008fe .LASF79
     /tmp/ccHp0Hur.s:3401   .debug_str:00000000000002f8 .LASF80
     /tmp/ccHp0Hur.s:3447   .debug_str:0000000000000423 .LASF81
     /tmp/ccHp0Hur.s:3595   .debug_str:0000000000000891 .LASF82
     /tmp/ccHp0Hur.s:3605   .debug_str:00000000000008e0 .LASF83
     /tmp/ccHp0Hur.s:3495   .debug_str:00000000000005a9 .LASF84
     /tmp/ccHp0Hur.s:3417   .debug_str:0000000000000361 .LASF85
     /tmp/ccHp0Hur.s:3533   .debug_str:00000000000006e1 .LASF86
     /tmp/ccHp0Hur.s:3497   .debug_str:00000000000005c1 .LASF87
     /tmp/ccHp0Hur.s:3643   .debug_str:00000000000009cd .LASF88
     /tmp/ccHp0Hur.s:3377   .debug_str:000000000000024b .LASF89
     /tmp/ccHp0Hur.s:3483   .debug_str:000000000000053f .LASF90
     /tmp/ccHp0Hur.s:3459   .debug_str:0000000000000482 .LASF91
     /tmp/ccHp0Hur.s:3391   .debug_str:00000000000002af .LASF92
     /tmp/ccHp0Hur.s:3661   .debug_str:0000000000000a53 .LASF93
     /tmp/ccHp0Hur.s:3355   .debug_str:00000000000000bf .LASF94
     /tmp/ccHp0Hur.s:3541   .debug_str:0000000000000719 .LASF95
     /tmp/ccHp0Hur.s:3347   .debug_str:0000000000000068 .LASF96
     /tmp/ccHp0Hur.s:3577   .debug_str:0000000000000806 .LASF97
     /tmp/ccHp0Hur.s:3585   .debug_str:000000000000083f .LASF98
     /tmp/ccHp0Hur.s:3509   .debug_str:0000000000000623 .LASF99
     /tmp/ccHp0Hur.s:3651   .debug_str:0000000000000a05 .LASF100
     /tmp/ccHp0Hur.s:3635   .debug_str:00000000000009ab .LASF101
     /tmp/ccHp0Hur.s:3341   .debug_str:0000000000000042 .LASF103
     /tmp/ccHp0Hur.s:3683   .debug_str:0000000000000af4 .LASF104
     /tmp/ccHp0Hur.s:3517   .debug_str:0000000000000653 .LASF105
     /tmp/ccHp0Hur.s:3547   .debug_str:0000000000000739 .LASF106
     /tmp/ccHp0Hur.s:3549   .debug_str:0000000000000740 .LASF107
     /tmp/ccHp0Hur.s:3513   .debug_str:0000000000000638 .LASF108
     /tmp/ccHp0Hur.s:3473   .debug_str:0000000000000501 .LASF109
     /tmp/ccHp0Hur.s:3653   .debug_str:0000000000000a1f .LASF110
GAS LISTING /tmp/ccHp0Hur.s 			page 22


     /tmp/ccHp0Hur.s:3619   .debug_str:0000000000000923 .LASF111
     /tmp/ccHp0Hur.s:3511   .debug_str:0000000000000630 .LASF112
     /tmp/ccHp0Hur.s:3515   .debug_str:000000000000063f .LASF113
     /tmp/ccHp0Hur.s:3501   .debug_str:00000000000005e7 .LASF114
     /tmp/ccHp0Hur.s:3551   .debug_str:0000000000000753 .LASF115
     /tmp/ccHp0Hur.s:3685   .debug_str:0000000000000afd .LASF116
     /tmp/ccHp0Hur.s:3457   .debug_str:000000000000046e .LASF117
     /tmp/ccHp0Hur.s:3599   .debug_str:00000000000008c5 .LASF118
     /tmp/ccHp0Hur.s:3571   .debug_str:00000000000007e4 .LASF119
     /tmp/ccHp0Hur.s:3573   .debug_str:00000000000007f7 .LASF120
     /tmp/ccHp0Hur.s:3415   .debug_str:000000000000034e .LASF121
     /tmp/ccHp0Hur.s:3411   .debug_str:0000000000000335 .LASF122
     /tmp/ccHp0Hur.s:3351   .debug_str:000000000000009a .LASF123
     /tmp/ccHp0Hur.s:3455   .debug_str:0000000000000468 .LASF124
     /tmp/ccHp0Hur.s:3405   .debug_str:0000000000000314 .LASF125
     /tmp/ccHp0Hur.s:3331   .debug_str:0000000000000000 .LASF126
     /tmp/ccHp0Hur.s:3565   .debug_str:00000000000007bc .LASF127
     /tmp/ccHp0Hur.s:3559   .debug_str:0000000000000797 .LASF128
     /tmp/ccHp0Hur.s:3675   .debug_str:0000000000000ab5 .LASF129
     /tmp/ccHp0Hur.s:3649   .debug_str:00000000000009fb .LASF130
     /tmp/ccHp0Hur.s:3659   .debug_str:0000000000000a3d .LASF131
     /tmp/ccHp0Hur.s:3645   .debug_str:00000000000009eb .LASF132
     /tmp/ccHp0Hur.s:3499   .debug_str:00000000000005d1 .LASF133
     /tmp/ccHp0Hur.s:3443   .debug_str:0000000000000412 .LASF134
     /tmp/ccHp0Hur.s:3449   .debug_str:000000000000042e .LASF135
     /tmp/ccHp0Hur.s:3631   .debug_str:0000000000000990 .LASF136
     /tmp/ccHp0Hur.s:3437   .debug_str:00000000000003d5 .LASF137
     /tmp/ccHp0Hur.s:3539   .debug_str:0000000000000704 .LASF138
     /tmp/ccHp0Hur.s:3469   .debug_str:00000000000004cc .LASF139
     /tmp/ccHp0Hur.s:3553   .debug_str:0000000000000767 .LASF140
     /tmp/ccHp0Hur.s:3339   .debug_str:000000000000003a .LASF141
     /tmp/ccHp0Hur.s:3679   .debug_str:0000000000000ada .LASF142
     /tmp/ccHp0Hur.s:3629   .debug_str:0000000000000984 .LASF143
     /tmp/ccHp0Hur.s:3363   .debug_str:000000000000012c .LASF144
     /tmp/ccHp0Hur.s:3503   .debug_str:00000000000005ef .LASF145
     /tmp/ccHp0Hur.s:3441   .debug_str:00000000000003ff .LASF146
     /tmp/ccHp0Hur.s:3413   .debug_str:000000000000033b .LASF147
     /tmp/ccHp0Hur.s:3375   .debug_str:0000000000000237 .LASF148
     /tmp/ccHp0Hur.s:3607   .debug_str:00000000000008eb .LASF149
     /tmp/ccHp0Hur.s:3491   .debug_str:0000000000000598 .LASF150
     /tmp/ccHp0Hur.s:3557   .debug_str:0000000000000786 .LASF151
     /tmp/ccHp0Hur.s:3487   .debug_str:0000000000000575 .LASF152
     /tmp/ccHp0Hur.s:498    .text:000000000000029c .LFE33
     /tmp/ccHp0Hur.s:3399   .debug_str:00000000000002ed .LASF153
     /tmp/ccHp0Hur.s:3117   .debug_loc:0000000000000000 .LLST14
     /tmp/ccHp0Hur.s:461    .text:0000000000000260 .LBB22
     /tmp/ccHp0Hur.s:469    .text:0000000000000268 .LBE22
     /tmp/ccHp0Hur.s:3124   .debug_loc:0000000000000023 .LLST15
     /tmp/ccHp0Hur.s:3132   .debug_loc:0000000000000047 .LLST16
     /tmp/ccHp0Hur.s:436    .text:000000000000022c .LVL30
     /tmp/ccHp0Hur.s:445    .text:0000000000000248 .LVL31
     /tmp/ccHp0Hur.s:455    .text:0000000000000258 .LVL32
     /tmp/ccHp0Hur.s:491    .text:0000000000000290 .LVL36
     /tmp/ccHp0Hur.s:495    .text:000000000000029c .LVL37
     /tmp/ccHp0Hur.s:3429   .debug_str:00000000000003b0 .LASF154
     /tmp/ccHp0Hur.s:3343   .debug_str:0000000000000057 .LASF155
     /tmp/ccHp0Hur.s:3397   .debug_str:00000000000002e1 .LASF159
GAS LISTING /tmp/ccHp0Hur.s 			page 23


     /tmp/ccHp0Hur.s:366    .text:00000000000001dc .LFB31
     /tmp/ccHp0Hur.s:398    .text:0000000000000208 .LFE31
     /tmp/ccHp0Hur.s:3139   .debug_loc:000000000000006a .LLST13
     /tmp/ccHp0Hur.s:386    .text:00000000000001f8 .LVL29
     /tmp/ccHp0Hur.s:334    .text:00000000000001b4 .LFB29
     /tmp/ccHp0Hur.s:360    .text:00000000000001dc .LFE29
     /tmp/ccHp0Hur.s:3153   .debug_loc:00000000000000a3 .LLST12
     /tmp/ccHp0Hur.s:349    .text:00000000000001cc .LVL26
     /tmp/ccHp0Hur.s:302    .text:000000000000018c .LFB28
     /tmp/ccHp0Hur.s:328    .text:00000000000001b4 .LFE28
     /tmp/ccHp0Hur.s:3393   .debug_str:00000000000002ce .LASF156
     /tmp/ccHp0Hur.s:3167   .debug_loc:00000000000000dc .LLST11
     /tmp/ccHp0Hur.s:317    .text:00000000000001a4 .LVL24
     /tmp/ccHp0Hur.s:180    .text:00000000000000fc .LFB27
     /tmp/ccHp0Hur.s:296    .text:000000000000018c .LFE27
     /tmp/ccHp0Hur.s:3181   .debug_loc:0000000000000115 .LLST6
     /tmp/ccHp0Hur.s:198    .text:0000000000000118 .LBB13
     /tmp/ccHp0Hur.s:206    .text:000000000000011c .LBE13
     /tmp/ccHp0Hur.s:3192   .debug_loc:000000000000014b .LLST7
     /tmp/ccHp0Hur.s:219    .text:0000000000000134 .LBB15
     /tmp/ccHp0Hur.s:227    .text:000000000000013c .LBE15
     /tmp/ccHp0Hur.s:3199   .debug_loc:000000000000016e .LLST8
     /tmp/ccHp0Hur.s:3207   .debug_loc:0000000000000192 .LLST9
     /tmp/ccHp0Hur.s:235    .text:0000000000000144 .LBB17
     /tmp/ccHp0Hur.s:249    .text:000000000000014c .LBE17
     /tmp/ccHp0Hur.s:3214   .debug_loc:00000000000001b5 .LLST10
     /tmp/ccHp0Hur.s:281    .text:0000000000000180 .LBB19
     /tmp/ccHp0Hur.s:294    .text:000000000000018c .LBE19
     /tmp/ccHp0Hur.s:214    .text:000000000000012c .LVL13
     /tmp/ccHp0Hur.s:255    .text:000000000000015c .LVL18
     /tmp/ccHp0Hur.s:276    .text:000000000000017c .LVL21
     /tmp/ccHp0Hur.s:15     .text:0000000000000000 .LFB26
     /tmp/ccHp0Hur.s:58     .text:0000000000000054 .LFE26
     /tmp/ccHp0Hur.s:31     .text:0000000000000020 .LVL0
     /tmp/ccHp0Hur.s:35     .text:0000000000000028 .LVL1
     /tmp/ccHp0Hur.s:47     .text:0000000000000044 .LVL3
     /tmp/ccHp0Hur.s:148    .text:00000000000000d4 .LFB25
     /tmp/ccHp0Hur.s:174    .text:00000000000000fc .LFE25
     /tmp/ccHp0Hur.s:3223   .debug_loc:00000000000001db .LLST5
     /tmp/ccHp0Hur.s:163    .text:00000000000000ec .LVL10
     /tmp/ccHp0Hur.s:124    .text:00000000000000bc .LFB24
     /tmp/ccHp0Hur.s:142    .text:00000000000000d4 .LFE24
     /tmp/ccHp0Hur.s:3537   .debug_str:00000000000006ff .LASF157
     /tmp/ccHp0Hur.s:3493   .debug_str:000000000000059d .LASF158
     /tmp/ccHp0Hur.s:3519   .debug_str:0000000000000668 .LASF160
     /tmp/ccHp0Hur.s:64     .text:0000000000000054 .LFB22
     /tmp/ccHp0Hur.s:116    .text:00000000000000bc .LFE22
     /tmp/ccHp0Hur.s:3237   .debug_loc:0000000000000214 .LLST0
     /tmp/ccHp0Hur.s:3255   .debug_loc:0000000000000260 .LLST1
     /tmp/ccHp0Hur.s:3269   .debug_loc:0000000000000299 .LLST2
     /tmp/ccHp0Hur.s:3283   .debug_loc:00000000000002d2 .LLST3
     /tmp/ccHp0Hur.s:3302   .debug_loc:000000000000031f .LLST4
     /tmp/ccHp0Hur.s:98     .text:00000000000000a4 .LVL6
     /tmp/ccHp0Hur.s:3641   .debug_str:00000000000009c8 .LASF161
     /tmp/ccHp0Hur.s:3665   .debug_str:0000000000000a6a .LASF176
     /tmp/ccHp0Hur.s:3359   .debug_str:0000000000000102 .LASF177
     /tmp/ccHp0Hur.s:3681   .debug_str:0000000000000ae9 .LASF162
GAS LISTING /tmp/ccHp0Hur.s 			page 24


     /tmp/ccHp0Hur.s:3431   .debug_str:00000000000003b5 .LASF164
     /tmp/ccHp0Hur.s:3563   .debug_str:00000000000007b0 .LASF163
     /tmp/ccHp0Hur.s:3427   .debug_str:00000000000003a8 .LASF165
     /tmp/ccHp0Hur.s:3463   .debug_str:00000000000004a1 .LASF166
     /tmp/ccHp0Hur.s:479    .text:0000000000000274 .LVL35
     /tmp/ccHp0Hur.s:460    .text:0000000000000260 .LVL33
     /tmp/ccHp0Hur.s:467    .text:0000000000000268 .LVL34
     /tmp/ccHp0Hur.s:371    .text:00000000000001dc .LVL27
     /tmp/ccHp0Hur.s:384    .text:00000000000001f0 .LVL28
     /tmp/ccHp0Hur.s:337    .text:00000000000001b4 .LVL25
     /tmp/ccHp0Hur.s:305    .text:000000000000018c .LVL23
     /tmp/ccHp0Hur.s:196    .text:0000000000000118 .LVL11
     /tmp/ccHp0Hur.s:265    .text:0000000000000168 .LVL19
     /tmp/ccHp0Hur.s:269    .text:0000000000000170 .LVL20
     /tmp/ccHp0Hur.s:204    .text:000000000000011c .LVL12
     /tmp/ccHp0Hur.s:218    .text:0000000000000134 .LVL14
     /tmp/ccHp0Hur.s:225    .text:000000000000013c .LVL15
     /tmp/ccHp0Hur.s:234    .text:0000000000000144 .LVL16
     /tmp/ccHp0Hur.s:245    .text:000000000000014c .LVL17
     /tmp/ccHp0Hur.s:151    .text:00000000000000d4 .LVL9
     /tmp/ccHp0Hur.s:67     .text:0000000000000054 .LVL4
     /tmp/ccHp0Hur.s:111    .text:00000000000000b4 .LVL7
     /tmp/ccHp0Hur.s:90     .text:000000000000008c .LVL5
     /tmp/ccHp0Hur.s:543    .debug_info:0000000000000000 .Ldebug_info0
     /tmp/ccHp0Hur.s:401    .gcc_except_table:0000000000000000 .LLSDA31
     /tmp/ccHp0Hur.s:500    .gcc_except_table:0000000000000004 .LLSDA33

UNDEFINED SYMBOLS
_ZN5Riscv11printStringEPKc
_ZN5Riscv10popSppSpieEv
thread_exit
_ZN9Scheduler3putEP3PCB
_ZN9Scheduler3getEv
_ZN3PCB13contextSwitchEPNS_7ContextES1_
_Z7kmallocm
_Z5kfreePv
__gxx_personality_v0
_Unwind_Resume
