GAS LISTING /tmp/cc4aMF9H.s 			page 1


   1              		.file	"PCB.cpp"
   2              		.option pic
   3              		.option norelax
   4              		.text
   5              	.Ltext0:
   6              		.align	2
   7              		.globl	_ZN3PCB6runnerEv
   9              	_ZN3PCB6runnerEv:
  10              	.LFB6:
  11              		.file 1 "src/PCB.cpp"
   1:src/PCB.cpp   **** //
   2:src/PCB.cpp   **** // Created by os on 4/27/22.
   3:src/PCB.cpp   **** //
   4:src/PCB.cpp   **** 
   5:src/PCB.cpp   **** #include "../h/PCB.h"
   6:src/PCB.cpp   **** 
   7:src/PCB.cpp   **** //todo
   8:src/PCB.cpp   **** //kreiranje pocetnog konteksta niti
   9:src/PCB.cpp   **** 
  10:src/PCB.cpp   **** //todo
  11:src/PCB.cpp   **** //stack space da li treba na poslednju poziciju da ide
  12:src/PCB.cpp   **** PCB::PCB(void (*body)(void *), void *args, void* stack_space) :
  13:src/PCB.cpp   ****     context({
  14:src/PCB.cpp   ****         (uint64)((char*)stack_space + DEFAULT_STACK_SIZE),
  15:src/PCB.cpp   ****         (uint64)&PCB::runner,
  16:src/PCB.cpp   ****         (uint64)body,
  17:src/PCB.cpp   ****         (uint64)args
  18:src/PCB.cpp   ****     }), finished(false)
  19:src/PCB.cpp   **** {
  20:src/PCB.cpp   **** 
  21:src/PCB.cpp   **** }
  22:src/PCB.cpp   **** 
  23:src/PCB.cpp   **** void PCB::dispatch() {
  24:src/PCB.cpp   **** 
  25:src/PCB.cpp   **** }
  26:src/PCB.cpp   **** 
  27:src/PCB.cpp   **** void PCB::sleep(time_t time) {
  28:src/PCB.cpp   **** 
  29:src/PCB.cpp   **** }
  30:src/PCB.cpp   **** 
  31:src/PCB.cpp   **** //void PCB::run() {
  32:src/PCB.cpp   **** //
  33:src/PCB.cpp   **** //}
  34:src/PCB.cpp   **** 
  35:src/PCB.cpp   **** //PCB::~PCB() {
  36:src/PCB.cpp   **** //
  37:src/PCB.cpp   **** //}
  38:src/PCB.cpp   **** 
  39:src/PCB.cpp   **** void PCB::start()
  40:src/PCB.cpp   **** {
  41:src/PCB.cpp   ****     Scheduler::put(this);
  42:src/PCB.cpp   **** }
  43:src/PCB.cpp   **** 
  44:src/PCB.cpp   **** //todo
  45:src/PCB.cpp   **** void PCB::runner() {
  12              		.loc 1 45 20
  13              		.cfi_startproc
GAS LISTING /tmp/cc4aMF9H.s 			page 2


  14 0000 130101FF 		addi	sp,sp,-16
  15              		.cfi_def_cfa_offset 16
  16 0004 23348100 		sd	s0,8(sp)
  17              		.cfi_offset 8, -8
  18 0008 13040101 		addi	s0,sp,16
  19              		.cfi_def_cfa 8, 0
  46:src/PCB.cpp   **** 
  47:src/PCB.cpp   ****     //this->body(this->args);
  48:src/PCB.cpp   **** 
  49:src/PCB.cpp   ****     //pcbThread->run();
  50:src/PCB.cpp   **** }
  20              		.loc 1 50 1 is_stmt 0
  21 000c 03348100 		ld	s0,8(sp)
  22              		.cfi_restore 8
  23              		.cfi_def_cfa 2, 16
  24 0010 13010101 		addi	sp,sp,16
  25              		.cfi_def_cfa_offset 0
  26 0014 67800000 		jr	ra
  27              		.cfi_endproc
  28              	.LFE6:
  30              		.align	2
  31              		.globl	_ZN3PCBC2EPFvPvES0_S0_
  33              	_ZN3PCBC2EPFvPvES0_S0_:
  34              	.LFB1:
  12:src/PCB.cpp   ****     context({
  35              		.loc 1 12 1 is_stmt 1
  36              		.cfi_startproc
  37              	.LVL0:
  38 0018 130101FF 		addi	sp,sp,-16
  39              		.cfi_def_cfa_offset 16
  40 001c 23348100 		sd	s0,8(sp)
  41              		.cfi_offset 8, -8
  42 0020 13040101 		addi	s0,sp,16
  43              		.cfi_def_cfa 8, 0
  44              	.LBB2:
  14:src/PCB.cpp   ****         (uint64)&PCB::runner,
  45              		.loc 1 14 37 is_stmt 0
  46 0024 B7170000 		li	a5,4096
  47 0028 B386F600 		add	a3,a3,a5
  48              	.LVL1:
  18:src/PCB.cpp   **** {
  49              		.loc 1 18 23
  50 002c 2330D500 		sd	a3,0(a0)
  51 0030 97070000 		lla	a5,_ZN3PCB6runnerEv
  51      93870700 
  52 0038 2334F500 		sd	a5,8(a0)
  53 003c 2338B500 		sd	a1,16(a0)
  54 0040 233CC500 		sd	a2,24(a0)
  55 0044 23040502 		sb	zero,40(a0)
  56              	.LBE2:
  21:src/PCB.cpp   **** 
  57              		.loc 1 21 1
  58 0048 03348100 		ld	s0,8(sp)
  59              		.cfi_restore 8
  60              		.cfi_def_cfa 2, 16
  61 004c 13010101 		addi	sp,sp,16
  62              		.cfi_def_cfa_offset 0
GAS LISTING /tmp/cc4aMF9H.s 			page 3


  63 0050 67800000 		jr	ra
  64              		.cfi_endproc
  65              	.LFE1:
  67              		.globl	_ZN3PCBC1EPFvPvES0_S0_
  68              		.set	_ZN3PCBC1EPFvPvES0_S0_,_ZN3PCBC2EPFvPvES0_S0_
  69              		.align	2
  70              		.globl	_ZN3PCB8dispatchEv
  72              	_ZN3PCB8dispatchEv:
  73              	.LFB3:
  23:src/PCB.cpp   **** 
  74              		.loc 1 23 22 is_stmt 1
  75              		.cfi_startproc
  76 0054 130101FF 		addi	sp,sp,-16
  77              		.cfi_def_cfa_offset 16
  78 0058 23348100 		sd	s0,8(sp)
  79              		.cfi_offset 8, -8
  80 005c 13040101 		addi	s0,sp,16
  81              		.cfi_def_cfa 8, 0
  25:src/PCB.cpp   **** 
  82              		.loc 1 25 1 is_stmt 0
  83 0060 03348100 		ld	s0,8(sp)
  84              		.cfi_restore 8
  85              		.cfi_def_cfa 2, 16
  86 0064 13010101 		addi	sp,sp,16
  87              		.cfi_def_cfa_offset 0
  88 0068 67800000 		jr	ra
  89              		.cfi_endproc
  90              	.LFE3:
  92              		.align	2
  93              		.globl	_ZN3PCB5sleepEm
  95              	_ZN3PCB5sleepEm:
  96              	.LFB4:
  27:src/PCB.cpp   **** 
  97              		.loc 1 27 30 is_stmt 1
  98              		.cfi_startproc
  99              	.LVL2:
 100 006c 130101FF 		addi	sp,sp,-16
 101              		.cfi_def_cfa_offset 16
 102 0070 23348100 		sd	s0,8(sp)
 103              		.cfi_offset 8, -8
 104 0074 13040101 		addi	s0,sp,16
 105              		.cfi_def_cfa 8, 0
  29:src/PCB.cpp   **** 
 106              		.loc 1 29 1 is_stmt 0
 107 0078 03348100 		ld	s0,8(sp)
 108              		.cfi_restore 8
 109              		.cfi_def_cfa 2, 16
 110 007c 13010101 		addi	sp,sp,16
 111              		.cfi_def_cfa_offset 0
 112 0080 67800000 		jr	ra
 113              		.cfi_endproc
 114              	.LFE4:
 116              		.align	2
 117              		.globl	_ZN3PCB5startEv
 119              	_ZN3PCB5startEv:
 120              	.LFB5:
  40:src/PCB.cpp   ****     Scheduler::put(this);
GAS LISTING /tmp/cc4aMF9H.s 			page 4


 121              		.loc 1 40 1 is_stmt 1
 122              		.cfi_startproc
 123              	.LVL3:
 124 0084 130101FF 		addi	sp,sp,-16
 125              		.cfi_def_cfa_offset 16
 126 0088 23341100 		sd	ra,8(sp)
 127 008c 23308100 		sd	s0,0(sp)
 128              		.cfi_offset 1, -8
 129              		.cfi_offset 8, -16
 130 0090 13040101 		addi	s0,sp,16
 131              		.cfi_def_cfa 8, 0
  41:src/PCB.cpp   **** }
 132              		.loc 1 41 5
  41:src/PCB.cpp   **** }
 133              		.loc 1 41 19 is_stmt 0
 134 0094 97000000 		call	_ZN9Scheduler3putEP3PCB@plt
 134      E7800000 
 135              	.LVL4:
  42:src/PCB.cpp   **** 
 136              		.loc 1 42 1
 137 009c 83308100 		ld	ra,8(sp)
 138              		.cfi_restore 1
 139 00a0 03340100 		ld	s0,0(sp)
 140              		.cfi_restore 8
 141              		.cfi_def_cfa 2, 16
 142 00a4 13010101 		addi	sp,sp,16
 143              		.cfi_def_cfa_offset 0
 144 00a8 67800000 		jr	ra
 145              		.cfi_endproc
 146              	.LFE5:
 148              		.align	2
 149              		.globl	_ZN3PCB5yieldEPS_S0_
 151              	_ZN3PCB5yieldEPS_S0_:
 152              	.LFB7:
  51:src/PCB.cpp   **** 
  52:src/PCB.cpp   **** void PCB::yield(PCB *oldThread, PCB *newThread) {
 153              		.loc 1 52 49 is_stmt 1
 154              		.cfi_startproc
 155              	.LVL5:
 156 00ac 130101FF 		addi	sp,sp,-16
 157              		.cfi_def_cfa_offset 16
 158 00b0 23348100 		sd	s0,8(sp)
 159              		.cfi_offset 8, -8
 160 00b4 13040101 		addi	s0,sp,16
 161              		.cfi_def_cfa 8, 0
  53:src/PCB.cpp   **** 
  54:src/PCB.cpp   **** }...
 162              		.loc 1 54 1 is_stmt 0
 163 00b8 03348100 		ld	s0,8(sp)
 164              		.cfi_restore 8
 165              		.cfi_def_cfa 2, 16
 166 00bc 13010101 		addi	sp,sp,16
 167              		.cfi_def_cfa_offset 0
 168 00c0 67800000 		jr	ra
 169              		.cfi_endproc
 170              	.LFE7:
 172              	.Letext0:
GAS LISTING /tmp/cc4aMF9H.s 			page 5


 173              		.file 2 "src/../h/../lib/hw.h"
 174              		.file 3 "src/../h/PCB.h"
 175              		.file 4 "src/../h/Scheduler.h"
GAS LISTING /tmp/cc4aMF9H.s 			page 6


DEFINED SYMBOLS
                            *ABS*:0000000000000000 PCB.cpp
     /tmp/cc4aMF9H.s:9      .text:0000000000000000 _ZN3PCB6runnerEv
     /tmp/cc4aMF9H.s:13     .text:0000000000000000 .L0 
     /tmp/cc4aMF9H.s:14     .text:0000000000000000 .L0 
     /tmp/cc4aMF9H.s:15     .text:0000000000000004 .L0 
     /tmp/cc4aMF9H.s:17     .text:0000000000000008 .L0 
     /tmp/cc4aMF9H.s:19     .text:000000000000000c .L0 
     /tmp/cc4aMF9H.s:21     .text:000000000000000c .L0 
     /tmp/cc4aMF9H.s:22     .text:0000000000000010 .L0 
     /tmp/cc4aMF9H.s:23     .text:0000000000000010 .L0 
     /tmp/cc4aMF9H.s:25     .text:0000000000000014 .L0 
     /tmp/cc4aMF9H.s:27     .text:0000000000000018 .L0 
     /tmp/cc4aMF9H.s:33     .text:0000000000000018 _ZN3PCBC2EPFvPvES0_S0_
     /tmp/cc4aMF9H.s:36     .text:0000000000000018 .L0 
     /tmp/cc4aMF9H.s:38     .text:0000000000000018 .L0 
     /tmp/cc4aMF9H.s:39     .text:000000000000001c .L0 
     /tmp/cc4aMF9H.s:41     .text:0000000000000020 .L0 
     /tmp/cc4aMF9H.s:43     .text:0000000000000024 .L0 
     /tmp/cc4aMF9H.s:46     .text:0000000000000024 .L0 
     /tmp/cc4aMF9H.s:50     .text:000000000000002c .L0 
     /tmp/cc4aMF9H.s:58     .text:0000000000000048 .L0 
     /tmp/cc4aMF9H.s:59     .text:000000000000004c .L0 
     /tmp/cc4aMF9H.s:60     .text:000000000000004c .L0 
     /tmp/cc4aMF9H.s:62     .text:0000000000000050 .L0 
     /tmp/cc4aMF9H.s:64     .text:0000000000000054 .L0 
     /tmp/cc4aMF9H.s:33     .text:0000000000000018 _ZN3PCBC1EPFvPvES0_S0_
     /tmp/cc4aMF9H.s:72     .text:0000000000000054 _ZN3PCB8dispatchEv
     /tmp/cc4aMF9H.s:75     .text:0000000000000054 .L0 
     /tmp/cc4aMF9H.s:76     .text:0000000000000054 .L0 
     /tmp/cc4aMF9H.s:77     .text:0000000000000058 .L0 
     /tmp/cc4aMF9H.s:79     .text:000000000000005c .L0 
     /tmp/cc4aMF9H.s:81     .text:0000000000000060 .L0 
     /tmp/cc4aMF9H.s:83     .text:0000000000000060 .L0 
     /tmp/cc4aMF9H.s:84     .text:0000000000000064 .L0 
     /tmp/cc4aMF9H.s:85     .text:0000000000000064 .L0 
     /tmp/cc4aMF9H.s:87     .text:0000000000000068 .L0 
     /tmp/cc4aMF9H.s:89     .text:000000000000006c .L0 
     /tmp/cc4aMF9H.s:95     .text:000000000000006c _ZN3PCB5sleepEm
     /tmp/cc4aMF9H.s:98     .text:000000000000006c .L0 
     /tmp/cc4aMF9H.s:100    .text:000000000000006c .L0 
     /tmp/cc4aMF9H.s:101    .text:0000000000000070 .L0 
     /tmp/cc4aMF9H.s:103    .text:0000000000000074 .L0 
     /tmp/cc4aMF9H.s:105    .text:0000000000000078 .L0 
     /tmp/cc4aMF9H.s:107    .text:0000000000000078 .L0 
     /tmp/cc4aMF9H.s:108    .text:000000000000007c .L0 
     /tmp/cc4aMF9H.s:109    .text:000000000000007c .L0 
     /tmp/cc4aMF9H.s:111    .text:0000000000000080 .L0 
     /tmp/cc4aMF9H.s:113    .text:0000000000000084 .L0 
     /tmp/cc4aMF9H.s:119    .text:0000000000000084 _ZN3PCB5startEv
     /tmp/cc4aMF9H.s:122    .text:0000000000000084 .L0 
     /tmp/cc4aMF9H.s:124    .text:0000000000000084 .L0 
     /tmp/cc4aMF9H.s:125    .text:0000000000000088 .L0 
     /tmp/cc4aMF9H.s:128    .text:0000000000000090 .L0 
     /tmp/cc4aMF9H.s:129    .text:0000000000000090 .L0 
     /tmp/cc4aMF9H.s:131    .text:0000000000000094 .L0 
     /tmp/cc4aMF9H.s:133    .text:0000000000000094 .L0 
GAS LISTING /tmp/cc4aMF9H.s 			page 7


     /tmp/cc4aMF9H.s:134    .text:0000000000000094 .L0 
     /tmp/cc4aMF9H.s:137    .text:000000000000009c .L0 
     /tmp/cc4aMF9H.s:138    .text:00000000000000a0 .L0 
     /tmp/cc4aMF9H.s:140    .text:00000000000000a4 .L0 
     /tmp/cc4aMF9H.s:141    .text:00000000000000a4 .L0 
     /tmp/cc4aMF9H.s:143    .text:00000000000000a8 .L0 
     /tmp/cc4aMF9H.s:145    .text:00000000000000ac .L0 
     /tmp/cc4aMF9H.s:151    .text:00000000000000ac _ZN3PCB5yieldEPS_S0_
     /tmp/cc4aMF9H.s:154    .text:00000000000000ac .L0 
     /tmp/cc4aMF9H.s:156    .text:00000000000000ac .L0 
     /tmp/cc4aMF9H.s:157    .text:00000000000000b0 .L0 
     /tmp/cc4aMF9H.s:159    .text:00000000000000b4 .L0 
     /tmp/cc4aMF9H.s:161    .text:00000000000000b8 .L0 
     /tmp/cc4aMF9H.s:163    .text:00000000000000b8 .L0 
     /tmp/cc4aMF9H.s:164    .text:00000000000000bc .L0 
     /tmp/cc4aMF9H.s:165    .text:00000000000000bc .L0 
     /tmp/cc4aMF9H.s:167    .text:00000000000000c0 .L0 
     /tmp/cc4aMF9H.s:169    .text:00000000000000c4 .L0 
     /tmp/cc4aMF9H.s:176    .text:00000000000000c4 .L0 
     /tmp/cc4aMF9H.s:51     .text:0000000000000030 .L0 
     /tmp/cc4aMF9H.s:662    .debug_abbrev:0000000000000000 .Ldebug_abbrev0
     /tmp/cc4aMF9H.s:1408   .debug_str:000000000000002f .LASF33
     /tmp/cc4aMF9H.s:1498   .debug_str:000000000000031a .LASF34
     /tmp/cc4aMF9H.s:1486   .debug_str:00000000000002ba .LASF35
     /tmp/cc4aMF9H.s:5      .text:0000000000000000 .Ltext0
     /tmp/cc4aMF9H.s:172    .text:00000000000000c4 .Letext0
     /tmp/cc4aMF9H.s:1398   .debug_line:0000000000000000 .Ldebug_line0
     /tmp/cc4aMF9H.s:1462   .debug_str:0000000000000233 .LASF0
     /tmp/cc4aMF9H.s:1450   .debug_str:00000000000001f6 .LASF1
     /tmp/cc4aMF9H.s:1440   .debug_str:00000000000001a7 .LASF2
     /tmp/cc4aMF9H.s:1416   .debug_str:000000000000010a .LASF4
     /tmp/cc4aMF9H.s:1448   .debug_str:00000000000001e4 .LASF3
     /tmp/cc4aMF9H.s:1406   .debug_str:0000000000000028 .LASF5
     /tmp/cc4aMF9H.s:1472   .debug_str:0000000000000264 .LASF6
     /tmp/cc4aMF9H.s:1402   .debug_str:0000000000000009 .LASF7
     /tmp/cc4aMF9H.s:1432   .debug_str:000000000000016b .LASF8
     /tmp/cc4aMF9H.s:1474   .debug_str:000000000000026b .LASF9
     /tmp/cc4aMF9H.s:1414   .debug_str:00000000000000fc .LASF10
     /tmp/cc4aMF9H.s:1502   .debug_str:000000000000032f .LASF11
     /tmp/cc4aMF9H.s:1434   .debug_str:000000000000017e .LASF12
     /tmp/cc4aMF9H.s:1492   .debug_str:00000000000002fa .LASF13
     /tmp/cc4aMF9H.s:1482   .debug_str:000000000000029e .LASF14
     /tmp/cc4aMF9H.s:1454   .debug_str:0000000000000212 .LASF15
     /tmp/cc4aMF9H.s:1424   .debug_str:000000000000012c .LASF16
     /tmp/cc4aMF9H.s:1478   .debug_str:0000000000000280 .LASF17
     /tmp/cc4aMF9H.s:1430   .debug_str:0000000000000161 .LASF18
     /tmp/cc4aMF9H.s:1488   .debug_str:00000000000002dd .LASF36
     /tmp/cc4aMF9H.s:1412   .debug_str:00000000000000e8 .LASF37
     /tmp/cc4aMF9H.s:1500   .debug_str:0000000000000326 .LASF38
     /tmp/cc4aMF9H.s:1426   .debug_str:0000000000000142 .LASF24
     /tmp/cc4aMF9H.s:1470   .debug_str:000000000000025e .LASF19
     /tmp/cc4aMF9H.s:1456   .debug_str:000000000000021e .LASF20
     /tmp/cc4aMF9H.s:1490   .debug_str:00000000000002f5 .LASF21
     /tmp/cc4aMF9H.s:1428   .debug_str:000000000000014a .LASF39
     /tmp/cc4aMF9H.s:1464   .debug_str:0000000000000240 .LASF22
     /tmp/cc4aMF9H.s:1438   .debug_str:0000000000000197 .LASF40
     /tmp/cc4aMF9H.s:1400   .debug_str:0000000000000000 .LASF41
GAS LISTING /tmp/cc4aMF9H.s 			page 8


     /tmp/cc4aMF9H.s:1442   .debug_str:00000000000001b5 .LASF42
     /tmp/cc4aMF9H.s:1496   .debug_str:0000000000000314 .LASF23
     /tmp/cc4aMF9H.s:1468   .debug_str:000000000000024e .LASF43
     /tmp/cc4aMF9H.s:1466   .debug_str:0000000000000246 .LASF44
     /tmp/cc4aMF9H.s:1460   .debug_str:000000000000022d .LASF45
     /tmp/cc4aMF9H.s:1446   .debug_str:00000000000001cf .LASF46
     /tmp/cc4aMF9H.s:1480   .debug_str:0000000000000296 .LASF25
     /tmp/cc4aMF9H.s:1458   .debug_str:0000000000000223 .LASF26
     /tmp/cc4aMF9H.s:1444   .debug_str:00000000000001c8 .LASF47
     /tmp/cc4aMF9H.s:1422   .debug_str:000000000000011b .LASF48
     /tmp/cc4aMF9H.s:1452   .debug_str:0000000000000209 .LASF27
     /tmp/cc4aMF9H.s:1484   .debug_str:00000000000002ae .LASF49
     /tmp/cc4aMF9H.s:1420   .debug_str:0000000000000116 .LASF28
     /tmp/cc4aMF9H.s:152    .text:00000000000000ac .LFB7
     /tmp/cc4aMF9H.s:170    .text:00000000000000c4 .LFE7
     /tmp/cc4aMF9H.s:1436   .debug_str:000000000000018d .LASF29
     /tmp/cc4aMF9H.s:1494   .debug_str:000000000000030a .LASF30
     /tmp/cc4aMF9H.s:10     .text:0000000000000000 .LFB6
     /tmp/cc4aMF9H.s:28     .text:0000000000000018 .LFE6
     /tmp/cc4aMF9H.s:120    .text:0000000000000084 .LFB5
     /tmp/cc4aMF9H.s:146    .text:00000000000000ac .LFE5
     /tmp/cc4aMF9H.s:1418   .debug_str:0000000000000111 .LASF50
     /tmp/cc4aMF9H.s:1358   .debug_loc:0000000000000000 .LLST1
     /tmp/cc4aMF9H.s:135    .text:000000000000009c .LVL4
     /tmp/cc4aMF9H.s:96     .text:000000000000006c .LFB4
     /tmp/cc4aMF9H.s:114    .text:0000000000000084 .LFE4
     /tmp/cc4aMF9H.s:1476   .debug_str:000000000000027b .LASF31
     /tmp/cc4aMF9H.s:73     .text:0000000000000054 .LFB3
     /tmp/cc4aMF9H.s:90     .text:000000000000006c .LFE3
     /tmp/cc4aMF9H.s:1404   .debug_str:000000000000001c .LASF32
     /tmp/cc4aMF9H.s:1410   .debug_str:00000000000000d1 .LASF51
     /tmp/cc4aMF9H.s:34     .text:0000000000000018 .LFB1
     /tmp/cc4aMF9H.s:65     .text:0000000000000054 .LFE1
     /tmp/cc4aMF9H.s:1372   .debug_loc:0000000000000039 .LLST0
     /tmp/cc4aMF9H.s:123    .text:0000000000000084 .LVL3
     /tmp/cc4aMF9H.s:37     .text:0000000000000018 .LVL0
     /tmp/cc4aMF9H.s:48     .text:000000000000002c .LVL1
     /tmp/cc4aMF9H.s:177    .debug_info:0000000000000000 .Ldebug_info0

UNDEFINED SYMBOLS
_ZN9Scheduler3putEP3PCB
