GAS LISTING /tmp/ccm0SWAd.s 			page 1


   1              		.file	"PCB.cpp"
   2              		.option pic
   3              		.option norelax
   4              		.text
   5              	.Ltext0:
   6              		.align	2
   7              		.globl	_ZN3PCB6runnerEv
   9              	_ZN3PCB6runnerEv:
  10              	.LFB29:
  11              		.file 1 "src/PCB.cpp"
   1:src/PCB.cpp   **** //
   2:src/PCB.cpp   **** // Created by os on 4/27/22.
   3:src/PCB.cpp   **** //
   4:src/PCB.cpp   **** 
   5:src/PCB.cpp   **** #include "../h/PCB.hpp"
   6:src/PCB.cpp   **** #include "../h/syscall_c.h"
   7:src/PCB.cpp   **** #include "../h/SleepPCBList.hpp"
   8:src/PCB.cpp   **** #include "../test/printing.hpp"
   9:src/PCB.cpp   **** #include "../h/KConsole.hpp"
  10:src/PCB.cpp   **** 
  11:src/PCB.cpp   **** PCB* PCB::running = 0;
  12:src/PCB.cpp   **** uint64 PCB::timeSliceCounter = 0;
  13:src/PCB.cpp   **** uint64 PCB::savedRegA4 = 0;
  14:src/PCB.cpp   **** 
  15:src/PCB.cpp   **** PCB::PCB(Body body, void *args, void* stack_space, uint64 timeSlice) :
  16:src/PCB.cpp   ****     timeSlice(timeSlice),
  17:src/PCB.cpp   ****     body(body),
  18:src/PCB.cpp   ****     args(args),
  19:src/PCB.cpp   ****     beginSP(stack_space),
  20:src/PCB.cpp   ****     context({
  21:src/PCB.cpp   ****         (uint64)((char*)stack_space + DEFAULT_STACK_SIZE),
  22:src/PCB.cpp   ****         (uint64)&PCB::runner
  23:src/PCB.cpp   ****     })
  24:src/PCB.cpp   **** {
  25:src/PCB.cpp   ****     //Scheduler::put(this);
  26:src/PCB.cpp   ****     nextPCB = 0;
  27:src/PCB.cpp   **** }
  28:src/PCB.cpp   **** 
  29:src/PCB.cpp   **** void PCB::sleep(time_t time)
  30:src/PCB.cpp   **** {
  31:src/PCB.cpp   ****     //todo
  32:src/PCB.cpp   **** }
  33:src/PCB.cpp   **** 
  34:src/PCB.cpp   **** void PCB::start()
  35:src/PCB.cpp   **** {
  36:src/PCB.cpp   ****     Scheduler::put(this);
  37:src/PCB.cpp   **** }
  38:src/PCB.cpp   **** 
  39:src/PCB.cpp   **** void PCB::runner()
  40:src/PCB.cpp   **** {
  12              		.loc 1 40 1
  13              		.cfi_startproc
  14 0000 130101FF 		addi	sp,sp,-16
  15              		.cfi_def_cfa_offset 16
  16 0004 23341100 		sd	ra,8(sp)
  17 0008 23308100 		sd	s0,0(sp)
  18              		.cfi_offset 1, -8
GAS LISTING /tmp/ccm0SWAd.s 			page 2


  19              		.cfi_offset 8, -16
  20 000c 13040101 		addi	s0,sp,16
  21              		.cfi_def_cfa 8, 0
  41:src/PCB.cpp   ****     //Riscv::printString("Runner started...\n");
  42:src/PCB.cpp   ****     Riscv::popSppSpie();
  22              		.loc 1 42 5
  23              		.loc 1 42 22 is_stmt 0
  24 0010 97000000 		call	_ZN5Riscv10popSppSpieEv@plt
  24      E7800000 
  25              	.LVL0:
  43:src/PCB.cpp   **** 
  44:src/PCB.cpp   ****     running->body(running->args);
  26              		.loc 1 44 5 is_stmt 1
  27              		.loc 1 44 14 is_stmt 0
  28 0018 97070000 		ld	a5,.LANCHOR0
  28      83B70700 
  29 0020 03B70702 		ld	a4,32(a5)
  30              		.loc 1 44 18
  31 0024 03B58702 		ld	a0,40(a5)
  32 0028 E7000700 		jalr	a4
  33              	.LVL1:
  45:src/PCB.cpp   **** 
  46:src/PCB.cpp   ****     thread_exit();
  34              		.loc 1 46 5 is_stmt 1
  35              		.loc 1 46 16 is_stmt 0
  36 002c 97000000 		call	thread_exit@plt
  36      E7800000 
  37              	.LVL2:
  47:src/PCB.cpp   **** }
  38              		.loc 1 47 1
  39 0034 83308100 		ld	ra,8(sp)
  40              		.cfi_restore 1
  41 0038 03340100 		ld	s0,0(sp)
  42              		.cfi_restore 8
  43              		.cfi_def_cfa 2, 16
  44 003c 13010101 		addi	sp,sp,16
  45              		.cfi_def_cfa_offset 0
  46 0040 67800000 		jr	ra
  47              		.cfi_endproc
  48              	.LFE29:
  50              		.align	2
  51              		.globl	_ZN3PCBC2EPFvPvES0_S0_m
  53              	_ZN3PCBC2EPFvPvES0_S0_m:
  54              	.LFB25:
  15:src/PCB.cpp   ****     timeSlice(timeSlice),
  55              		.loc 1 15 1 is_stmt 1
  56              		.cfi_startproc
  57              	.LVL3:
  58 0044 130101FF 		addi	sp,sp,-16
  59              		.cfi_def_cfa_offset 16
  60 0048 23348100 		sd	s0,8(sp)
  61              		.cfi_offset 8, -8
  62 004c 13040101 		addi	s0,sp,16
  63              		.cfi_def_cfa 8, 0
  64              	.LBB12:
  23:src/PCB.cpp   **** {
  65              		.loc 1 23 6 is_stmt 0
GAS LISTING /tmp/ccm0SWAd.s 			page 3


  66 0050 23000500 		sb	zero,0(a0)
  67 0054 2338E500 		sd	a4,16(a0)
  68 0058 233C0500 		sd	zero,24(a0)
  69 005c 2330B502 		sd	a1,32(a0)
  70 0060 2334C502 		sd	a2,40(a0)
  71 0064 2338D502 		sd	a3,48(a0)
  21:src/PCB.cpp   ****         (uint64)&PCB::runner
  72              		.loc 1 21 37
  73 0068 B7170000 		li	a5,4096
  74 006c B386F600 		add	a3,a3,a5
  75              	.LVL4:
  23:src/PCB.cpp   **** {
  76              		.loc 1 23 6
  77 0070 2330D504 		sd	a3,64(a0)
  78 0074 97070000 		lla	a5,_ZN3PCB6runnerEv
  78      93870700 
  79 007c 2334F504 		sd	a5,72(a0)
  26:src/PCB.cpp   **** }
  80              		.loc 1 26 5 is_stmt 1
  26:src/PCB.cpp   **** }
  81              		.loc 1 26 13 is_stmt 0
  82 0080 23340500 		sd	zero,8(a0)
  83              	.LBE12:
  27:src/PCB.cpp   **** 
  84              		.loc 1 27 1
  85 0084 03348100 		ld	s0,8(sp)
  86              		.cfi_restore 8
  87              		.cfi_def_cfa 2, 16
  88 0088 13010101 		addi	sp,sp,16
  89              		.cfi_def_cfa_offset 0
  90 008c 67800000 		jr	ra
  91              		.cfi_endproc
  92              	.LFE25:
  94              		.globl	_ZN3PCBC1EPFvPvES0_S0_m
  95              		.set	_ZN3PCBC1EPFvPvES0_S0_m,_ZN3PCBC2EPFvPvES0_S0_m
  96              		.align	2
  97              		.globl	_ZN3PCB5sleepEm
  99              	_ZN3PCB5sleepEm:
 100              	.LFB27:
  30:src/PCB.cpp   ****     //todo
 101              		.loc 1 30 1 is_stmt 1
 102              		.cfi_startproc
 103              	.LVL5:
 104 0090 130101FF 		addi	sp,sp,-16
 105              		.cfi_def_cfa_offset 16
 106 0094 23348100 		sd	s0,8(sp)
 107              		.cfi_offset 8, -8
 108 0098 13040101 		addi	s0,sp,16
 109              		.cfi_def_cfa 8, 0
  32:src/PCB.cpp   **** 
 110              		.loc 1 32 1 is_stmt 0
 111 009c 03348100 		ld	s0,8(sp)
 112              		.cfi_restore 8
 113              		.cfi_def_cfa 2, 16
 114 00a0 13010101 		addi	sp,sp,16
 115              		.cfi_def_cfa_offset 0
 116 00a4 67800000 		jr	ra
GAS LISTING /tmp/ccm0SWAd.s 			page 4


 117              		.cfi_endproc
 118              	.LFE27:
 120              		.align	2
 121              		.globl	_ZN3PCB5startEv
 123              	_ZN3PCB5startEv:
 124              	.LFB28:
  35:src/PCB.cpp   ****     Scheduler::put(this);
 125              		.loc 1 35 1 is_stmt 1
 126              		.cfi_startproc
 127              	.LVL6:
 128 00a8 130101FF 		addi	sp,sp,-16
 129              		.cfi_def_cfa_offset 16
 130 00ac 23341100 		sd	ra,8(sp)
 131 00b0 23308100 		sd	s0,0(sp)
 132              		.cfi_offset 1, -8
 133              		.cfi_offset 8, -16
 134 00b4 13040101 		addi	s0,sp,16
 135              		.cfi_def_cfa 8, 0
  36:src/PCB.cpp   **** }
 136              		.loc 1 36 5
  36:src/PCB.cpp   **** }
 137              		.loc 1 36 19 is_stmt 0
 138 00b8 97000000 		call	_ZN9Scheduler3putEP3PCB@plt
 138      E7800000 
 139              	.LVL7:
  37:src/PCB.cpp   **** 
 140              		.loc 1 37 1
 141 00c0 83308100 		ld	ra,8(sp)
 142              		.cfi_restore 1
 143 00c4 03340100 		ld	s0,0(sp)
 144              		.cfi_restore 8
 145              		.cfi_def_cfa 2, 16
 146 00c8 13010101 		addi	sp,sp,16
 147              		.cfi_def_cfa_offset 0
 148 00cc 67800000 		jr	ra
 149              		.cfi_endproc
 150              	.LFE28:
 152              		.align	2
 153              		.globl	_ZN3PCB8dispatchEv
 155              	_ZN3PCB8dispatchEv:
 156              	.LFB30:
  48:src/PCB.cpp   **** 
  49:src/PCB.cpp   **** void PCB::dispatch()
  50:src/PCB.cpp   **** {
 157              		.loc 1 50 1 is_stmt 1
 158              		.cfi_startproc
 159 00d0 130101FE 		addi	sp,sp,-32
 160              		.cfi_def_cfa_offset 32
 161 00d4 233C1100 		sd	ra,24(sp)
 162 00d8 23388100 		sd	s0,16(sp)
 163 00dc 23349100 		sd	s1,8(sp)
 164              		.cfi_offset 1, -8
 165              		.cfi_offset 8, -16
 166              		.cfi_offset 9, -24
 167 00e0 13040102 		addi	s0,sp,32
 168              		.cfi_def_cfa 8, 0
  51:src/PCB.cpp   ****     //Riscv::printString("Dispatch called...\n");
GAS LISTING /tmp/ccm0SWAd.s 			page 5


  52:src/PCB.cpp   ****     PCB* old = running;
 169              		.loc 1 52 5
 170              		.loc 1 52 10 is_stmt 0
 171 00e4 97040000 		ld	s1,.LANCHOR0
 171      83B40400 
 172              	.LVL8:
  53:src/PCB.cpp   ****     if(old->getState() == PCB::RUNNING)
 173              		.loc 1 53 5 is_stmt 1
 174              	.LBB13:
 175              	.LBB14:
 176              		.file 2 "src/../h/PCB.hpp"
   1:src/../h/PCB.hpp **** //
   2:src/../h/PCB.hpp **** // Created by os on 4/27/22.
   3:src/../h/PCB.hpp **** //
   4:src/../h/PCB.hpp **** 
   5:src/../h/PCB.hpp **** #ifndef PROJECT_BASE_V1_0_PCB_HPP
   6:src/../h/PCB.hpp **** #define PROJECT_BASE_V1_0_PCB_HPP
   7:src/../h/PCB.hpp **** 
   8:src/../h/PCB.hpp **** #include "../lib/hw.h"
   9:src/../h/PCB.hpp **** #include "Scheduler.hpp"
  10:src/../h/PCB.hpp **** #include "Riscv.hpp"
  11:src/../h/PCB.hpp **** 
  12:src/../h/PCB.hpp **** class PCB
  13:src/../h/PCB.hpp **** {
  14:src/../h/PCB.hpp **** public:
  15:src/../h/PCB.hpp ****     static uint64 savedRegA4;
  16:src/../h/PCB.hpp **** 
  17:src/../h/PCB.hpp ****     using Body = void (*)(void*);
  18:src/../h/PCB.hpp **** 
  19:src/../h/PCB.hpp ****     PCB(Body body,  void* args, void* stack_space, uint64 timeSlice);
  20:src/../h/PCB.hpp ****     ~PCB();
  21:src/../h/PCB.hpp **** 
  22:src/../h/PCB.hpp ****     void start();
  23:src/../h/PCB.hpp ****     static void dispatch();
  24:src/../h/PCB.hpp ****     static void sleep(time_t);
  25:src/../h/PCB.hpp **** 
  26:src/../h/PCB.hpp ****     static PCB* running;
  27:src/../h/PCB.hpp **** 
  28:src/../h/PCB.hpp ****     static uint64 timeSliceCounter;
  29:src/../h/PCB.hpp ****     uint64 getTimeSlice() { return timeSlice;}
  30:src/../h/PCB.hpp **** 
  31:src/../h/PCB.hpp ****     void* operator new(size_t size);
  32:src/../h/PCB.hpp ****     void operator delete(void *p);
  33:src/../h/PCB.hpp **** 
  34:src/../h/PCB.hpp ****     enum State{READY, RUNNING, SUSPENDED, FINISHED, EXITING, SLEEPING};
  35:src/../h/PCB.hpp ****     State getState() {return state;}
 177              		.loc 2 35 23
 178              		.loc 2 35 30 is_stmt 0
 179 00ec 03A78403 		lw	a4,56(s1)
 180              	.LVL9:
 181              	.LBE14:
 182              	.LBE13:
 183              		.loc 1 53 5
 184 00f0 93071000 		li	a5,1
 185 00f4 6300F704 		beq	a4,a5,.L12
 186              	.L10:
  54:src/PCB.cpp   ****         Scheduler::put(old);
GAS LISTING /tmp/ccm0SWAd.s 			page 6


  55:src/PCB.cpp   ****     PCB::running = Scheduler::get();
 187              		.loc 1 55 5 is_stmt 1
 188              		.loc 1 55 34 is_stmt 0
 189 00f8 97000000 		call	_ZN9Scheduler3getEv@plt
 189      E7800000 
 190              	.LVL10:
 191              		.loc 1 55 18
 192 0100 97070000 		sd	a0,.LANCHOR0,a5
 192      23B0A700 
  56:src/PCB.cpp   ****     PCB::running->setState(PCB::RUNNING);
 193              		.loc 1 56 5 is_stmt 1
 194              	.LVL11:
 195              	.LBB15:
 196              	.LBB16:
  36:src/../h/PCB.hpp ****     void setState(State s) {state = s;}
 197              		.loc 2 36 29
 198              		.loc 2 36 35 is_stmt 0
 199 0108 93071000 		li	a5,1
 200 010c 232CF502 		sw	a5,56(a0)
 201              	.LVL12:
 202              	.LBE16:
 203              	.LBE15:
  57:src/PCB.cpp   ****     //Riscv::printString("Switching context...\n");
  58:src/PCB.cpp   **** 
  59:src/PCB.cpp   ****     //if(PCB::running->systemThread)
  60:src/PCB.cpp   ****     //    Riscv::ms_sstatus(Riscv::SSTATUS_SPP);
  61:src/PCB.cpp   ****     //else
  62:src/PCB.cpp   ****     //    Riscv::mc_sstatus(Riscv::SSTATUS_SPP);
  63:src/PCB.cpp   **** 
  64:src/PCB.cpp   ****     PCB::contextSwitch(&old->context, &running->context);
 204              		.loc 1 64 5 is_stmt 1
 205              		.loc 1 64 23 is_stmt 0
 206 0110 93050504 		addi	a1,a0,64
 207 0114 13850404 		addi	a0,s1,64
 208 0118 97000000 		call	_ZN3PCB13contextSwitchEPNS_7ContextES1_@plt
 208      E7800000 
 209              	.LVL13:
  65:src/PCB.cpp   **** }
 210              		.loc 1 65 1
 211 0120 83308101 		ld	ra,24(sp)
 212              		.cfi_remember_state
 213              		.cfi_restore 1
 214 0124 03340101 		ld	s0,16(sp)
 215              		.cfi_restore 8
 216              		.cfi_def_cfa 2, 32
 217 0128 83348100 		ld	s1,8(sp)
 218              		.cfi_restore 9
 219              	.LVL14:
 220 012c 13010102 		addi	sp,sp,32
 221              		.cfi_def_cfa_offset 0
 222 0130 67800000 		jr	ra
 223              	.LVL15:
 224              	.L12:
 225              		.cfi_restore_state
  54:src/PCB.cpp   ****     PCB::running = Scheduler::get();
 226              		.loc 1 54 9 is_stmt 1
  54:src/PCB.cpp   ****     PCB::running = Scheduler::get();
GAS LISTING /tmp/ccm0SWAd.s 			page 7


 227              		.loc 1 54 23 is_stmt 0
 228 0134 13850400 		mv	a0,s1
 229 0138 97000000 		call	_ZN9Scheduler3putEP3PCB@plt
 229      E7800000 
 230              	.LVL16:
 231 0140 6FF09FFB 		j	.L10
 232              		.cfi_endproc
 233              	.LFE30:
 235              		.align	2
 236              		.globl	_ZN3PCBnwEm
 238              	_ZN3PCBnwEm:
 239              	.LFB31:
  66:src/PCB.cpp   **** 
  67:src/PCB.cpp   **** void *PCB::operator new(size_t size) {
 240              		.loc 1 67 38 is_stmt 1
 241              		.cfi_startproc
 242              	.LVL17:
 243 0144 130101FF 		addi	sp,sp,-16
 244              		.cfi_def_cfa_offset 16
 245 0148 23341100 		sd	ra,8(sp)
 246 014c 23308100 		sd	s0,0(sp)
 247              		.cfi_offset 1, -8
 248              		.cfi_offset 8, -16
 249 0150 13040101 		addi	s0,sp,16
 250              		.cfi_def_cfa 8, 0
  68:src/PCB.cpp   ****     return kmalloc(size);
 251              		.loc 1 68 5
 252              		.loc 1 68 19 is_stmt 0
 253 0154 97000000 		call	_Z7kmallocm@plt
 253      E7800000 
 254              	.LVL18:
  69:src/PCB.cpp   **** }
 255              		.loc 1 69 1
 256 015c 83308100 		ld	ra,8(sp)
 257              		.cfi_restore 1
 258 0160 03340100 		ld	s0,0(sp)
 259              		.cfi_restore 8
 260              		.cfi_def_cfa 2, 16
 261 0164 13010101 		addi	sp,sp,16
 262              		.cfi_def_cfa_offset 0
 263 0168 67800000 		jr	ra
 264              		.cfi_endproc
 265              	.LFE31:
 267              		.align	2
 268              		.globl	_ZN3PCBdlEPv
 270              	_ZN3PCBdlEPv:
 271              	.LFB32:
  70:src/PCB.cpp   **** 
  71:src/PCB.cpp   **** void PCB::operator delete(void *p) {
 272              		.loc 1 71 36 is_stmt 1
 273              		.cfi_startproc
 274              	.LVL19:
 275 016c 130101FF 		addi	sp,sp,-16
 276              		.cfi_def_cfa_offset 16
 277 0170 23341100 		sd	ra,8(sp)
 278 0174 23308100 		sd	s0,0(sp)
 279              		.cfi_offset 1, -8
GAS LISTING /tmp/ccm0SWAd.s 			page 8


 280              		.cfi_offset 8, -16
 281 0178 13040101 		addi	s0,sp,16
 282              		.cfi_def_cfa 8, 0
  72:src/PCB.cpp   ****     kfree(p);
 283              		.loc 1 72 5
 284              		.loc 1 72 10 is_stmt 0
 285 017c 97000000 		call	_Z5kfreePv@plt
 285      E7800000 
 286              	.LVL20:
  73:src/PCB.cpp   **** }
 287              		.loc 1 73 1
 288 0184 83308100 		ld	ra,8(sp)
 289              		.cfi_restore 1
 290 0188 03340100 		ld	s0,0(sp)
 291              		.cfi_restore 8
 292              		.cfi_def_cfa 2, 16
 293 018c 13010101 		addi	sp,sp,16
 294              		.cfi_def_cfa_offset 0
 295 0190 67800000 		jr	ra
 296              		.cfi_endproc
 297              	.LFE32:
 299              		.align	2
 300              		.globl	_ZN3PCBD2Ev
 302              	_ZN3PCBD2Ev:
 303              	.LFB34:
  74:src/PCB.cpp   **** 
  75:src/PCB.cpp   **** PCB::~PCB()
 304              		.loc 1 75 1 is_stmt 1
 305              		.cfi_startproc
 306              		.cfi_personality 0x9b,DW.ref.__gxx_personality_v0
 307              		.cfi_lsda 0x1b,.LLSDA34
 308              	.LVL21:
 309 0194 130101FF 		addi	sp,sp,-16
 310              		.cfi_def_cfa_offset 16
 311 0198 23341100 		sd	ra,8(sp)
 312 019c 23308100 		sd	s0,0(sp)
 313              		.cfi_offset 1, -8
 314              		.cfi_offset 8, -16
 315 01a0 13040101 		addi	s0,sp,16
 316              		.cfi_def_cfa 8, 0
 317              	.LBB17:
  76:src/PCB.cpp   **** {
  77:src/PCB.cpp   ****     kfree(beginSP);
 318              		.loc 1 77 5
 319              		.loc 1 77 10 is_stmt 0
 320 01a4 03350503 		ld	a0,48(a0)
 321              	.LVL22:
 322 01a8 97000000 		call	_Z5kfreePv@plt
 322      E7800000 
 323              	.LVL23:
 324              	.LBE17:
  78:src/PCB.cpp   **** }
 325              		.loc 1 78 1
 326 01b0 83308100 		ld	ra,8(sp)
 327              		.cfi_restore 1
 328 01b4 03340100 		ld	s0,0(sp)
 329              		.cfi_restore 8
GAS LISTING /tmp/ccm0SWAd.s 			page 9


 330              		.cfi_def_cfa 2, 16
 331 01b8 13010101 		addi	sp,sp,16
 332              		.cfi_def_cfa_offset 0
 333 01bc 67800000 		jr	ra
 334              		.cfi_endproc
 335              	.LFE34:
 336              		.globl	__gxx_personality_v0
 337              		.section	.gcc_except_table,"a",@progbits
 338              	.LLSDA34:
 339 0000 FF       		.byte	0xff
 340 0001 FF       		.byte	0xff
 341 0002 03       		.byte	0x3
 342 0003 00       		.byte	0
 343              		.text
 345              		.globl	_ZN3PCBD1Ev
 346              		.set	_ZN3PCBD1Ev,_ZN3PCBD2Ev
 347              		.align	2
 348              		.globl	_ZN3PCB10initializeEv
 350              	_ZN3PCB10initializeEv:
 351              	.LFB36:
  79:src/PCB.cpp   **** 
  80:src/PCB.cpp   **** void PCB::initialize()
  81:src/PCB.cpp   **** {
 352              		.loc 1 81 1 is_stmt 1
 353              		.cfi_startproc
 354 01c0 130101FD 		addi	sp,sp,-48
 355              		.cfi_def_cfa_offset 48
 356 01c4 23341102 		sd	ra,40(sp)
 357 01c8 23308102 		sd	s0,32(sp)
 358 01cc 233C9100 		sd	s1,24(sp)
 359 01d0 23382101 		sd	s2,16(sp)
 360 01d4 23343101 		sd	s3,8(sp)
 361              		.cfi_offset 1, -8
 362              		.cfi_offset 8, -16
 363              		.cfi_offset 9, -24
 364              		.cfi_offset 18, -32
 365              		.cfi_offset 19, -40
 366 01d8 13040103 		addi	s0,sp,48
 367              		.cfi_def_cfa 8, 0
  82:src/PCB.cpp   ****     PCB* mainSystem = new PCB(0, 0, 0, 0);
 368              		.loc 1 82 5
 369              		.loc 1 82 41 is_stmt 0
 370 01dc 13050005 		li	a0,80
 371 01e0 97000000 		call	_ZN3PCBnwEm
 371      E7800000 
 372              	.LVL24:
 373 01e8 93040500 		mv	s1,a0
 374 01ec 13070000 		li	a4,0
 375 01f0 93060000 		li	a3,0
 376 01f4 13060000 		li	a2,0
 377 01f8 93050000 		li	a1,0
 378 01fc 97000000 		call	_ZN3PCBC1EPFvPvES0_S0_m
 378      E7800000 
 379              	.LVL25:
  83:src/PCB.cpp   ****     mainSystem->start();
 380              		.loc 1 83 5 is_stmt 1
 381              		.loc 1 83 22 is_stmt 0
GAS LISTING /tmp/ccm0SWAd.s 			page 10


 382 0204 13850400 		mv	a0,s1
 383 0208 97000000 		call	_ZN3PCB5startEv
 383      E7800000 
 384              	.LVL26:
  84:src/PCB.cpp   ****     mainSystem->systemThread = true;
 385              		.loc 1 84 5 is_stmt 1
 386              		.loc 1 84 30 is_stmt 0
 387 0210 93071000 		li	a5,1
 388 0214 2380F400 		sb	a5,0(s1)
  85:src/PCB.cpp   ****     PCB::running = Scheduler::get();
 389              		.loc 1 85 5 is_stmt 1
 390              		.loc 1 85 34 is_stmt 0
 391 0218 97000000 		call	_ZN9Scheduler3getEv@plt
 391      E7800000 
 392              	.LVL27:
 393              		.loc 1 85 18
 394 0220 97070000 		sd	a0,.LANCHOR0,a5
 394      23B0A700 
  86:src/PCB.cpp   ****     PCB::running->setState(PCB::RUNNING);
 395              		.loc 1 86 5 is_stmt 1
 396              	.LVL28:
 397              	.LBB18:
 398              	.LBB19:
 399              		.loc 2 36 29
 400              		.loc 2 36 35 is_stmt 0
 401 0228 93091000 		li	s3,1
 402 022c 232C3503 		sw	s3,56(a0)
 403              	.LVL29:
 404              	.LBE19:
 405              	.LBE18:
  87:src/PCB.cpp   ****     PCB* consolePCB = new PCB(&KConsole::sendCharactersToConsole, 0, kmalloc(DEFAULT_STACK_SIZE), D
 406              		.loc 1 87 5 is_stmt 1
 407              		.loc 1 87 77 is_stmt 0
 408 0230 37150000 		li	a0,4096
 409 0234 97000000 		call	_Z7kmallocm@plt
 409      E7800000 
 410              	.LVL30:
 411 023c 13090500 		mv	s2,a0
 412              		.loc 1 87 117
 413 0240 13050005 		li	a0,80
 414 0244 97000000 		call	_ZN3PCBnwEm
 414      E7800000 
 415              	.LVL31:
 416 024c 93040500 		mv	s1,a0
 417              	.LVL32:
 418 0250 13072000 		li	a4,2
 419 0254 93060900 		mv	a3,s2
 420 0258 13060000 		li	a2,0
 421 025c 97050000 		la	a1,_ZN8KConsole23sendCharactersToConsoleEPv
 421      83B50500 
 422 0264 97000000 		call	_ZN3PCBC1EPFvPvES0_S0_m
 422      E7800000 
 423              	.LVL33:
  88:src/PCB.cpp   ****     consolePCB->systemThread = true;
 424              		.loc 1 88 5 is_stmt 1
 425              		.loc 1 88 30 is_stmt 0
 426 026c 23803401 		sb	s3,0(s1)
GAS LISTING /tmp/ccm0SWAd.s 			page 11


  89:src/PCB.cpp   ****     consolePCB->start();
 427              		.loc 1 89 5 is_stmt 1
 428              		.loc 1 89 22 is_stmt 0
 429 0270 13850400 		mv	a0,s1
 430 0274 97000000 		call	_ZN3PCB5startEv
 430      E7800000 
 431              	.LVL34:
  90:src/PCB.cpp   ****     //PCB* idlePCB = new PCB(&Riscv::idleRiscv, 0, kmalloc(DEFAULT_STACK_SIZE), DEFAULT_TIME_SLICE)
  91:src/PCB.cpp   ****     //idlePCB->start();
  92:src/PCB.cpp   ****     //idlePCB->systemThread = true;
  93:src/PCB.cpp   **** }
 432              		.loc 1 93 1
 433 027c 83308102 		ld	ra,40(sp)
 434              		.cfi_restore 1
 435 0280 03340102 		ld	s0,32(sp)
 436              		.cfi_restore 8
 437              		.cfi_def_cfa 2, 48
 438 0284 83348101 		ld	s1,24(sp)
 439              		.cfi_restore 9
 440              	.LVL35:
 441 0288 03390101 		ld	s2,16(sp)
 442              		.cfi_restore 18
 443 028c 83398100 		ld	s3,8(sp)
 444              		.cfi_restore 19
 445 0290 13010103 		addi	sp,sp,48
 446              		.cfi_def_cfa_offset 0
 447 0294 67800000 		jr	ra
 448              		.cfi_endproc
 449              	.LFE36:
 451              		.align	2
 452              		.globl	_ZN3PCB10isFinishedEv
 454              	_ZN3PCB10isFinishedEv:
 455              	.LFB37:
  94:src/PCB.cpp   **** 
  95:src/PCB.cpp   **** bool PCB::isFinished()
  96:src/PCB.cpp   **** {
 456              		.loc 1 96 1 is_stmt 1
 457              		.cfi_startproc
 458              	.LVL36:
 459 0298 130101FF 		addi	sp,sp,-16
 460              		.cfi_def_cfa_offset 16
 461 029c 23348100 		sd	s0,8(sp)
 462              		.cfi_offset 8, -8
 463 02a0 13040101 		addi	s0,sp,16
 464              		.cfi_def_cfa 8, 0
  97:src/PCB.cpp   ****     return state == PCB::FINISHED;
 465              		.loc 1 97 5
 466              		.loc 1 97 12 is_stmt 0
 467 02a4 03258503 		lw	a0,56(a0)
 468              	.LVL37:
 469              		.loc 1 97 26
 470 02a8 1305D5FF 		addi	a0,a0,-3
  98:src/PCB.cpp   **** }
 471              		.loc 1 98 1
 472 02ac 13351500 		seqz	a0,a0
 473 02b0 03348100 		ld	s0,8(sp)
 474              		.cfi_restore 8
GAS LISTING /tmp/ccm0SWAd.s 			page 12


 475              		.cfi_def_cfa 2, 16
 476 02b4 13010101 		addi	sp,sp,16
 477              		.cfi_def_cfa_offset 0
 478 02b8 67800000 		jr	ra
 479              		.cfi_endproc
 480              	.LFE37:
 482              		.section	.rodata.str1.8,"aMS",@progbits,1
 483              		.align	3
 484              	.LC0:
 485 0000 45786974 		.string	"Exiting thread...\n"
 485      696E6720 
 485      74687265 
 485      61642E2E 
 485      2E0A00
 486              		.text
 487              		.align	2
 488              		.globl	_ZN3PCB17threadExitHandlerEv
 490              	_ZN3PCB17threadExitHandlerEv:
 491              	.LFB38:
  99:src/PCB.cpp   **** 
 100:src/PCB.cpp   **** void PCB::threadExitHandler()
 101:src/PCB.cpp   **** {
 492              		.loc 1 101 1 is_stmt 1
 493              		.cfi_startproc
 494 02bc 130101FF 		addi	sp,sp,-16
 495              		.cfi_def_cfa_offset 16
 496 02c0 23341100 		sd	ra,8(sp)
 497 02c4 23308100 		sd	s0,0(sp)
 498              		.cfi_offset 1, -8
 499              		.cfi_offset 8, -16
 500 02c8 13040101 		addi	s0,sp,16
 501              		.cfi_def_cfa 8, 0
 102:src/PCB.cpp   ****     Riscv::printString("Exiting thread...\n");
 502              		.loc 1 102 5
 503              		.loc 1 102 23 is_stmt 0
 504 02cc 17050000 		lla	a0,.LC0
 504      13050500 
 505 02d4 97000000 		call	_ZN5Riscv11printStringEPKc@plt
 505      E7800000 
 506              	.LVL38:
 103:src/PCB.cpp   ****     PCB::timeSliceCounter = 0;
 507              		.loc 1 103 5 is_stmt 1
 508              		.loc 1 103 27 is_stmt 0
 509 02dc 97070000 		lla	a5,.LANCHOR0
 509      93870700 
 510 02e4 23B40700 		sd	zero,8(a5)
 104:src/PCB.cpp   ****     PCB::running->setState(PCB::FINISHED);
 511              		.loc 1 104 5 is_stmt 1
 512              		.loc 1 104 27 is_stmt 0
 513 02e8 83B70700 		ld	a5,0(a5)
 514              	.LVL39:
 515              	.LBB20:
 516              	.LBB21:
 517              		.loc 2 36 29 is_stmt 1
 518              		.loc 2 36 35 is_stmt 0
 519 02ec 13073000 		li	a4,3
 520 02f0 23ACE702 		sw	a4,56(a5)
GAS LISTING /tmp/ccm0SWAd.s 			page 13


 521              	.LVL40:
 522              	.LBE21:
 523              	.LBE20:
 105:src/PCB.cpp   ****     PCB::dispatch();
 524              		.loc 1 105 5 is_stmt 1
 525              		.loc 1 105 18 is_stmt 0
 526 02f4 97000000 		call	_ZN3PCB8dispatchEv
 526      E7800000 
 527              	.LVL41:
 106:src/PCB.cpp   ****     __asm__ volatile("li a0, 0");
 528              		.loc 1 106 5 is_stmt 1
 529              		.loc 1 106 33 is_stmt 0
 530              	#APP
 531              	# 106 "src/PCB.cpp" 1
 107              	}
 532              		li a0, 0
 533              	# 0 "" 2
 534              		.loc 1 107 1
 535              	#NO_APP
 536 0300 83308100 		ld	ra,8(sp)
 537              		.cfi_restore 1
 538 0304 03340100 		ld	s0,0(sp)
 539              		.cfi_restore 8
 540              		.cfi_def_cfa 2, 16
 541 0308 13010101 		addi	sp,sp,16
 542              		.cfi_def_cfa_offset 0
 543 030c 67800000 		jr	ra
 544              		.cfi_endproc
 545              	.LFE38:
 547              		.align	2
 548              		.globl	_ZN3PCB21threadDispatchHandlerEv
 550              	_ZN3PCB21threadDispatchHandlerEv:
 551              	.LFB39:
 108:src/PCB.cpp   **** 
 109:src/PCB.cpp   **** void PCB::threadDispatchHandler()
 110:src/PCB.cpp   **** {
 552              		.loc 1 110 1 is_stmt 1
 553              		.cfi_startproc
 554 0310 130101FF 		addi	sp,sp,-16
 555              		.cfi_def_cfa_offset 16
 556 0314 23341100 		sd	ra,8(sp)
 557 0318 23308100 		sd	s0,0(sp)
 558              		.cfi_offset 1, -8
 559              		.cfi_offset 8, -16
 560 031c 13040101 		addi	s0,sp,16
 561              		.cfi_def_cfa 8, 0
 111:src/PCB.cpp   ****     PCB::timeSliceCounter = 0;
 562              		.loc 1 111 5
 563              		.loc 1 111 27 is_stmt 0
 564 0320 97070000 		sd	zero,.LANCHOR0+8,a5
 564      23B00700 
 112:src/PCB.cpp   ****     PCB::dispatch();
 565              		.loc 1 112 5 is_stmt 1
 566              		.loc 1 112 18 is_stmt 0
 567 0328 97000000 		call	_ZN3PCB8dispatchEv
 567      E7800000 
 568              	.LVL42:
GAS LISTING /tmp/ccm0SWAd.s 			page 14


 113:src/PCB.cpp   **** }
 569              		.loc 1 113 1
 570 0330 83308100 		ld	ra,8(sp)
 571              		.cfi_restore 1
 572 0334 03340100 		ld	s0,0(sp)
 573              		.cfi_restore 8
 574              		.cfi_def_cfa 2, 16
 575 0338 13010101 		addi	sp,sp,16
 576              		.cfi_def_cfa_offset 0
 577 033c 67800000 		jr	ra
 578              		.cfi_endproc
 579              	.LFE39:
 581              		.align	2
 582              		.globl	_ZN3PCB18threadSleepHandlerEv
 584              	_ZN3PCB18threadSleepHandlerEv:
 585              	.LFB40:
 114:src/PCB.cpp   **** 
 115:src/PCB.cpp   **** void PCB::threadSleepHandler()
 116:src/PCB.cpp   **** {
 586              		.loc 1 116 1 is_stmt 1
 587              		.cfi_startproc
 588 0340 130101FF 		addi	sp,sp,-16
 589              		.cfi_def_cfa_offset 16
 590 0344 23341100 		sd	ra,8(sp)
 591 0348 23308100 		sd	s0,0(sp)
 592              		.cfi_offset 1, -8
 593              		.cfi_offset 8, -16
 594 034c 13040101 		addi	s0,sp,16
 595              		.cfi_def_cfa 8, 0
 117:src/PCB.cpp   ****     uint64 time;
 596              		.loc 1 117 5
 118:src/PCB.cpp   ****     __asm__ volatile("mv %0, a1" : "=r"(time));
 597              		.loc 1 118 5
 598              		.loc 1 118 47 is_stmt 0
 599              	#APP
 600              	# 118 "src/PCB.cpp" 1
 119              	    PCB::timeSliceCounter = 0;
 601              		mv a4, a1
 602              	# 0 "" 2
 603              	.LVL43:
 604              		.loc 1 119 5 is_stmt 1
 605              		.loc 1 119 27 is_stmt 0
 606              	#NO_APP
 607 0354 97070000 		lla	a5,.LANCHOR0
 607      93870700 
 608 035c 23B40700 		sd	zero,8(a5)
 120:src/PCB.cpp   ****     PCB::running->setTimeToSleep(time);
 609              		.loc 1 120 5 is_stmt 1
 610              		.loc 1 120 33 is_stmt 0
 611 0360 83B70700 		ld	a5,0(a5)
 612              	.LVL44:
 613              	.LBB22:
 614              	.LBB23:
  37:src/../h/PCB.hpp ****     void setTimeToSleep(uint64 time) {timeToSleep = time;}
 615              		.loc 2 37 39 is_stmt 1
 616              		.loc 2 37 51 is_stmt 0
 617 0364 23BCE700 		sd	a4,24(a5)
GAS LISTING /tmp/ccm0SWAd.s 			page 15


 618              	.LVL45:
 619              	.LBE23:
 620              	.LBE22:
 121:src/PCB.cpp   ****     SleepPCBList::insertSleepingPCB();
 621              		.loc 1 121 5 is_stmt 1
 622              		.loc 1 121 36 is_stmt 0
 623 0368 97000000 		call	_ZN12SleepPCBList17insertSleepingPCBEv@plt
 623      E7800000 
 624              	.LVL46:
 122:src/PCB.cpp   ****     PCB::dispatch();
 625              		.loc 1 122 5 is_stmt 1
 626              		.loc 1 122 18 is_stmt 0
 627 0370 97000000 		call	_ZN3PCB8dispatchEv
 627      E7800000 
 628              	.LVL47:
 123:src/PCB.cpp   ****     __asm__ volatile("li a0, 0x0");
 629              		.loc 1 123 5 is_stmt 1
 630              		.loc 1 123 35 is_stmt 0
 631              	#APP
 632              	# 123 "src/PCB.cpp" 1
 124              	}
 633              		li a0, 0x0
 634              	# 0 "" 2
 635              		.loc 1 124 1
 636              	#NO_APP
 637 037c 83308100 		ld	ra,8(sp)
 638              		.cfi_restore 1
 639 0380 03340100 		ld	s0,0(sp)
 640              		.cfi_restore 8
 641              		.cfi_def_cfa 2, 16
 642 0384 13010101 		addi	sp,sp,16
 643              		.cfi_def_cfa_offset 0
 644 0388 67800000 		jr	ra
 645              		.cfi_endproc
 646              	.LFE40:
 648              		.align	2
 649              		.globl	_ZN3PCB19threadCreateHandlerEv
 651              	_ZN3PCB19threadCreateHandlerEv:
 652              	.LFB41:
 125:src/PCB.cpp   **** 
 126:src/PCB.cpp   **** void PCB::threadCreateHandler()
 127:src/PCB.cpp   **** {
 653              		.loc 1 127 1 is_stmt 1
 654              		.cfi_startproc
 655 038c 130101FD 		addi	sp,sp,-48
 656              		.cfi_def_cfa_offset 48
 657 0390 23341102 		sd	ra,40(sp)
 658 0394 23308102 		sd	s0,32(sp)
 659 0398 233C9100 		sd	s1,24(sp)
 660 039c 23382101 		sd	s2,16(sp)
 661 03a0 23343101 		sd	s3,8(sp)
 662 03a4 23304101 		sd	s4,0(sp)
 663              		.cfi_offset 1, -8
 664              		.cfi_offset 8, -16
 665              		.cfi_offset 9, -24
 666              		.cfi_offset 18, -32
 667              		.cfi_offset 19, -40
GAS LISTING /tmp/ccm0SWAd.s 			page 16


 668              		.cfi_offset 20, -48
 669 03a8 13040103 		addi	s0,sp,48
 670              		.cfi_def_cfa 8, 0
 128:src/PCB.cpp   ****     uint64 start_routine;
 671              		.loc 1 128 5
 129:src/PCB.cpp   ****     uint64 args;
 672              		.loc 1 129 5
 130:src/PCB.cpp   ****     PCB **threadHandle;
 673              		.loc 1 130 5
 131:src/PCB.cpp   ****     __asm__ volatile("mv %0, a1" : "=r"(threadHandle));
 674              		.loc 1 131 5
 675              		.loc 1 131 55 is_stmt 0
 676              	#APP
 677              	# 131 "src/PCB.cpp" 1
 132              	    __asm__ volatile("mv %0, a2" : "=r"(start_routine));
 678              		mv s2, a1
 679              	# 0 "" 2
 680              	.LVL48:
 681              		.loc 1 132 5 is_stmt 1
 682              		.loc 1 132 56 is_stmt 0
 683              	# 132 "src/PCB.cpp" 1
 133              	    __asm__ volatile("mv %0, a3" : "=r"(args));
 684              		mv s3, a2
 685              	# 0 "" 2
 686              	.LVL49:
 687              		.loc 1 133 5 is_stmt 1
 688              		.loc 1 133 47 is_stmt 0
 689              	# 133 "src/PCB.cpp" 1
 134              	
 690              		mv s4, a3
 691              	# 0 "" 2
 692              	.LVL50:
 135:src/PCB.cpp   ****     PCB *newPCB = new PCB((void (*)(void *)) start_routine, (void *) args, (void *) PCB::savedRegA4
 693              		.loc 1 135 5 is_stmt 1
 694              		.loc 1 135 120 is_stmt 0
 695              	#NO_APP
 696 03b8 13050005 		li	a0,80
 697 03bc 97000000 		call	_ZN3PCBnwEm
 697      E7800000 
 698              	.LVL51:
 699 03c4 93040500 		mv	s1,a0
 700 03c8 13072000 		li	a4,2
 701 03cc 97060000 		ld	a3,.LANCHOR0+16
 701      83B60600 
 702 03d4 13060A00 		mv	a2,s4
 703 03d8 93850900 		mv	a1,s3
 704 03dc 97000000 		call	_ZN3PCBC1EPFvPvES0_S0_m
 704      E7800000 
 705              	.LVL52:
 136:src/PCB.cpp   **** 
 137:src/PCB.cpp   ****     (*threadHandle) = newPCB;
 706              		.loc 1 137 5 is_stmt 1
 707              		.loc 1 137 21 is_stmt 0
 708 03e4 23309900 		sd	s1,0(s2)
 138:src/PCB.cpp   **** 
 139:src/PCB.cpp   ****     if (newPCB == 0)
 709              		.loc 1 139 5 is_stmt 1
GAS LISTING /tmp/ccm0SWAd.s 			page 17


 710 03e8 638A0402 		beqz	s1,.L33
 140:src/PCB.cpp   ****             __asm__ volatile("li a0, 0xffffffffffffffff");
 141:src/PCB.cpp   ****     else
 142:src/PCB.cpp   ****     {
 143:src/PCB.cpp   ****         newPCB->start();
 711              		.loc 1 143 9
 712              		.loc 1 143 22 is_stmt 0
 713 03ec 13850400 		mv	a0,s1
 714 03f0 97000000 		call	_ZN3PCB5startEv
 714      E7800000 
 715              	.LVL53:
 144:src/PCB.cpp   ****         __asm__ volatile("li a0, 0");
 716              		.loc 1 144 9 is_stmt 1
 717              		.loc 1 144 37 is_stmt 0
 718              	#APP
 719              	# 144 "src/PCB.cpp" 1
 145              	    }
 720              		li a0, 0
 721              	# 0 "" 2
 722              	#NO_APP
 723              	.L29:
 146:src/PCB.cpp   **** }
 724              		.loc 1 146 1
 725 03fc 83308102 		ld	ra,40(sp)
 726              		.cfi_remember_state
 727              		.cfi_restore 1
 728 0400 03340102 		ld	s0,32(sp)
 729              		.cfi_restore 8
 730              		.cfi_def_cfa 2, 48
 731 0404 83348101 		ld	s1,24(sp)
 732              		.cfi_restore 9
 733              	.LVL54:
 734 0408 03390101 		ld	s2,16(sp)
 735              		.cfi_restore 18
 736              	.LVL55:
 737 040c 83398100 		ld	s3,8(sp)
 738              		.cfi_restore 19
 739              	.LVL56:
 740 0410 033A0100 		ld	s4,0(sp)
 741              		.cfi_restore 20
 742              	.LVL57:
 743 0414 13010103 		addi	sp,sp,48
 744              		.cfi_def_cfa_offset 0
 745 0418 67800000 		jr	ra
 746              	.LVL58:
 747              	.L33:
 748              		.cfi_restore_state
 140:src/PCB.cpp   ****             __asm__ volatile("li a0, 0xffffffffffffffff");
 749              		.loc 1 140 13 is_stmt 1
 140:src/PCB.cpp   ****             __asm__ volatile("li a0, 0xffffffffffffffff");
 750              		.loc 1 140 58 is_stmt 0
 751              	#APP
 752              	# 140 "src/PCB.cpp" 1
 753              		li a0, 0xffffffffffffffff
 754              	# 0 "" 2
 755              	#NO_APP
 756 0420 6FF0DFFD 		j	.L29
GAS LISTING /tmp/ccm0SWAd.s 			page 18


 757              		.cfi_endproc
 758              	.LFE41:
 760              		.align	2
 761              		.globl	_ZN3PCB18threadStartHandlerEv
 763              	_ZN3PCB18threadStartHandlerEv:
 764              	.LFB42:
 147:src/PCB.cpp   **** 
 148:src/PCB.cpp   **** void PCB::threadStartHandler()
 149:src/PCB.cpp   **** {
 765              		.loc 1 149 1 is_stmt 1
 766              		.cfi_startproc
 150:src/PCB.cpp   ****     PCB* pcb;
 767              		.loc 1 150 5
 151:src/PCB.cpp   ****     __asm__ volatile("mv %0, a1" : "=r"(pcb));
 768              		.loc 1 151 5
 769              		.loc 1 151 46 is_stmt 0
 770              	#APP
 771              	# 151 "src/PCB.cpp" 1
 152              	    if(pcb != 0)
 772              		mv a0, a1
 773              	# 0 "" 2
 774              	.LVL59:
 775              		.loc 1 152 5 is_stmt 1
 776              	#NO_APP
 777 0428 63080502 		beqz	a0,.L35
 149:src/PCB.cpp   ****     PCB* pcb;
 778              		.loc 1 149 1 is_stmt 0
 779 042c 130101FF 		addi	sp,sp,-16
 780              		.cfi_def_cfa_offset 16
 781 0430 23341100 		sd	ra,8(sp)
 782 0434 23308100 		sd	s0,0(sp)
 783              		.cfi_offset 1, -8
 784              		.cfi_offset 8, -16
 785 0438 13040101 		addi	s0,sp,16
 786              		.cfi_def_cfa 8, 0
 153:src/PCB.cpp   ****     {
 154:src/PCB.cpp   ****         pcb->start();
 787              		.loc 1 154 9 is_stmt 1
 788              		.loc 1 154 19 is_stmt 0
 789 043c 97000000 		call	_ZN3PCB5startEv
 789      E7800000 
 790              	.LVL60:
 155:src/PCB.cpp   ****         __asm__ volatile("li a0, 0");
 791              		.loc 1 155 9 is_stmt 1
 792              		.loc 1 155 37 is_stmt 0
 793              	#APP
 794              	# 155 "src/PCB.cpp" 1
 156              	    }
 157:src/PCB.cpp   ****     else
 158:src/PCB.cpp   ****     {
 159:src/PCB.cpp   ****         __asm__ volatile("li a0, 0xffffffffffffffff");
 160:src/PCB.cpp   ****     }
 161:src/PCB.cpp   **** 
 162:src/PCB.cpp   **** }
 795              		li a0, 0
 796              	# 0 "" 2
 797              		.loc 1 162 1
GAS LISTING /tmp/ccm0SWAd.s 			page 19


 798              	#NO_APP
 799 0448 83308100 		ld	ra,8(sp)
 800              		.cfi_restore 1
 801 044c 03340100 		ld	s0,0(sp)
 802              		.cfi_restore 8
 803              		.cfi_def_cfa 2, 16
 804 0450 13010101 		addi	sp,sp,16
 805              		.cfi_def_cfa_offset 0
 806 0454 67800000 		jr	ra
 807              	.LVL61:
 808              	.L35:
 159:src/PCB.cpp   ****     }
 809              		.loc 1 159 9 is_stmt 1
 159:src/PCB.cpp   ****     }
 810              		.loc 1 159 54 is_stmt 0
 811              	#APP
 812              	# 159 "src/PCB.cpp" 1
 813              		li a0, 0xffffffffffffffff
 814              	# 0 "" 2
 815              	#NO_APP
 816 045c 67800000 		ret
 817              		.cfi_endproc
 818              	.LFE42:
 820              		.align	2
 821              		.globl	_ZN3PCB20threadMakePCBHandlerEv
 823              	_ZN3PCB20threadMakePCBHandlerEv:
 824              	.LFB43:
 163:src/PCB.cpp   **** 
 164:src/PCB.cpp   **** void PCB::threadMakePCBHandler()
 165:src/PCB.cpp   **** {
 825              		.loc 1 165 1 is_stmt 1
 826              		.cfi_startproc
 827 0460 130101FD 		addi	sp,sp,-48
 828              		.cfi_def_cfa_offset 48
 829 0464 23341102 		sd	ra,40(sp)
 830 0468 23308102 		sd	s0,32(sp)
 831 046c 233C9100 		sd	s1,24(sp)
 832 0470 23382101 		sd	s2,16(sp)
 833 0474 23343101 		sd	s3,8(sp)
 834 0478 23304101 		sd	s4,0(sp)
 835              		.cfi_offset 1, -8
 836              		.cfi_offset 8, -16
 837              		.cfi_offset 9, -24
 838              		.cfi_offset 18, -32
 839              		.cfi_offset 19, -40
 840              		.cfi_offset 20, -48
 841 047c 13040103 		addi	s0,sp,48
 842              		.cfi_def_cfa 8, 0
 166:src/PCB.cpp   ****     uint64 start_routine;
 843              		.loc 1 166 5
 167:src/PCB.cpp   ****     uint64 args;
 844              		.loc 1 167 5
 168:src/PCB.cpp   ****     PCB **threadHandle;
 845              		.loc 1 168 5
 169:src/PCB.cpp   ****     __asm__ volatile("mv %0, a1" : "=r"(threadHandle));
 846              		.loc 1 169 5
 847              		.loc 1 169 55 is_stmt 0
GAS LISTING /tmp/ccm0SWAd.s 			page 20


 848              	#APP
 849              	# 169 "src/PCB.cpp" 1
 170              	    __asm__ volatile("mv %0, a2" : "=r"(start_routine));
 850              		mv s2, a1
 851              	# 0 "" 2
 852              	.LVL62:
 853              		.loc 1 170 5 is_stmt 1
 854              		.loc 1 170 56 is_stmt 0
 855              	# 170 "src/PCB.cpp" 1
 171              	    __asm__ volatile("mv %0, a3" : "=r"(args));
 856              		mv s3, a2
 857              	# 0 "" 2
 858              	.LVL63:
 859              		.loc 1 171 5 is_stmt 1
 860              		.loc 1 171 47 is_stmt 0
 861              	# 171 "src/PCB.cpp" 1
 172              	
 862              		mv s4, a3
 863              	# 0 "" 2
 864              	.LVL64:
 173:src/PCB.cpp   ****     PCB *newPCB = new PCB((void (*)(void *)) start_routine, (void *) args, (void *) PCB::savedRegA4
 865              		.loc 1 173 5 is_stmt 1
 866              		.loc 1 173 120 is_stmt 0
 867              	#NO_APP
 868 048c 13050005 		li	a0,80
 869 0490 97000000 		call	_ZN3PCBnwEm
 869      E7800000 
 870              	.LVL65:
 871 0498 93040500 		mv	s1,a0
 872 049c 13072000 		li	a4,2
 873 04a0 97060000 		ld	a3,.LANCHOR0+16
 873      83B60600 
 874 04a8 13060A00 		mv	a2,s4
 875 04ac 93850900 		mv	a1,s3
 876 04b0 97000000 		call	_ZN3PCBC1EPFvPvES0_S0_m
 876      E7800000 
 877              	.LVL66:
 174:src/PCB.cpp   **** 
 175:src/PCB.cpp   ****     (*threadHandle) = newPCB;
 878              		.loc 1 175 5 is_stmt 1
 879              		.loc 1 175 21 is_stmt 0
 880 04b8 23309900 		sd	s1,0(s2)
 176:src/PCB.cpp   **** 
 177:src/PCB.cpp   ****     if (newPCB == 0)
 881              		.loc 1 177 5 is_stmt 1
 882 04bc 63840402 		beqz	s1,.L45
 178:src/PCB.cpp   ****         __asm__ volatile("li a0, 0xffffffffffffffff");
 179:src/PCB.cpp   ****     else
 180:src/PCB.cpp   ****         __asm__ volatile("li a0, 0");
 883              		.loc 1 180 9
 884              		.loc 1 180 37 is_stmt 0
 885              	#APP
 886              	# 180 "src/PCB.cpp" 1
 181              	}
 887              		li a0, 0
 888              	# 0 "" 2
 889              	#NO_APP
GAS LISTING /tmp/ccm0SWAd.s 			page 21


 890              	.L41:
 891              		.loc 1 181 1
 892 04c4 83308102 		ld	ra,40(sp)
 893              		.cfi_remember_state
 894              		.cfi_restore 1
 895 04c8 03340102 		ld	s0,32(sp)
 896              		.cfi_restore 8
 897              		.cfi_def_cfa 2, 48
 898 04cc 83348101 		ld	s1,24(sp)
 899              		.cfi_restore 9
 900              	.LVL67:
 901 04d0 03390101 		ld	s2,16(sp)
 902              		.cfi_restore 18
 903              	.LVL68:
 904 04d4 83398100 		ld	s3,8(sp)
 905              		.cfi_restore 19
 906              	.LVL69:
 907 04d8 033A0100 		ld	s4,0(sp)
 908              		.cfi_restore 20
 909              	.LVL70:
 910 04dc 13010103 		addi	sp,sp,48
 911              		.cfi_def_cfa_offset 0
 912 04e0 67800000 		jr	ra
 913              	.LVL71:
 914              	.L45:
 915              		.cfi_restore_state
 178:src/PCB.cpp   ****         __asm__ volatile("li a0, 0xffffffffffffffff");
 916              		.loc 1 178 9 is_stmt 1
 178:src/PCB.cpp   ****         __asm__ volatile("li a0, 0xffffffffffffffff");
 917              		.loc 1 178 54 is_stmt 0
 918              	#APP
 919              	# 178 "src/PCB.cpp" 1
 920              		li a0, 0xffffffffffffffff
 921              	# 0 "" 2
 922              	#NO_APP
 923 04e8 6FF0DFFD 		j	.L41
 924              		.cfi_endproc
 925              	.LFE43:
 927              		.globl	_ZN3PCB10savedRegA4E
 928              		.globl	_ZN3PCB16timeSliceCounterE
 929              		.globl	_ZN3PCB7runningE
 930              		.bss
 931              		.align	3
 932              		.set	.LANCHOR0,. + 0
 935              	_ZN3PCB7runningE:
 936 0000 00000000 		.zero	8
 936      00000000 
 939              	_ZN3PCB16timeSliceCounterE:
 940 0008 00000000 		.zero	8
 940      00000000 
 943              	_ZN3PCB10savedRegA4E:
 944 0010 00000000 		.zero	8
 944      00000000 
 945              		.text
 946              	.Letext0:
 947              		.file 3 "src/../h/../lib/hw.h"
 948              		.file 4 "src/../h/Scheduler.hpp"
GAS LISTING /tmp/ccm0SWAd.s 			page 22


 949              		.file 5 "src/../h/Riscv.hpp"
 950              		.file 6 "src/../h/SleepPCBList.hpp"
 951              		.file 7 "src/../h/MemoryAllocator.hpp"
 952              		.file 8 "src/../h/syscall_c.h"
 4696              		.align	3
 4699              	DW.ref.__gxx_personality_v0:
 4700 0000 00000000 		.dword	__gxx_personality_v0
 4700      00000000 
 4701              		.ident	"GCC: (Ubuntu 9.3.0-17ubuntu1~20.04) 9.3.0"
 4702              		.section	.note.GNU-stack,"",@progbits
GAS LISTING /tmp/ccm0SWAd.s 			page 23

