GAS LISTING /tmp/ccvmtkdW.s 			page 1


   1              		.file	"PCB.cpp"
   2              		.option pic
   3              		.option norelax
   4              		.text
   5              	.Ltext0:
   6              		.section	.rodata.str1.8,"aMS",@progbits,1
   7              		.align	3
   8              	.LC0:
   9 0000 52756E6E 		.string	"Runner started...\n"
   9      65722073 
   9      74617274 
   9      65642E2E 
   9      2E0A00
  10              		.text
  11              		.align	2
  12              		.globl	_ZN3PCB6runnerEv
  14              	_ZN3PCB6runnerEv:
  15              	.LFB26:
  16              		.file 1 "src/PCB.cpp"
   1:src/PCB.cpp   **** //
   2:src/PCB.cpp   **** // Created by os on 4/27/22.
   3:src/PCB.cpp   **** //
   4:src/PCB.cpp   **** 
   5:src/PCB.cpp   **** #include "../h/PCB.hpp"
   6:src/PCB.cpp   **** #include "../h/syscall_c.h"
   7:src/PCB.cpp   **** #include "../h/SleepPCBList.hpp"
   8:src/PCB.cpp   **** 
   9:src/PCB.cpp   **** PCB* PCB::running = 0;
  10:src/PCB.cpp   **** uint64 PCB::timeSliceCounter = 0;
  11:src/PCB.cpp   **** uint64 PCB::savedRegA4 = 0;
  12:src/PCB.cpp   **** 
  13:src/PCB.cpp   **** PCB::PCB(Body body, void *args, void* stack_space, uint64 timeSlice) :
  14:src/PCB.cpp   ****     timeSlice(timeSlice),
  15:src/PCB.cpp   ****     body(body),
  16:src/PCB.cpp   ****     args(args),
  17:src/PCB.cpp   ****     beginSP(stack_space),
  18:src/PCB.cpp   ****     context({
  19:src/PCB.cpp   ****         (uint64)((char*)stack_space + DEFAULT_STACK_SIZE),
  20:src/PCB.cpp   ****         (uint64)&PCB::runner
  21:src/PCB.cpp   ****     })
  22:src/PCB.cpp   **** {
  23:src/PCB.cpp   ****     Scheduler::put(this);
  24:src/PCB.cpp   ****     nextPCB = 0;
  25:src/PCB.cpp   **** }
  26:src/PCB.cpp   **** 
  27:src/PCB.cpp   **** void PCB::sleep(time_t time)
  28:src/PCB.cpp   **** {
  29:src/PCB.cpp   ****     //todo
  30:src/PCB.cpp   **** }
  31:src/PCB.cpp   **** 
  32:src/PCB.cpp   **** void PCB::start()
  33:src/PCB.cpp   **** {
  34:src/PCB.cpp   ****     Scheduler::put(this);
  35:src/PCB.cpp   **** }
  36:src/PCB.cpp   **** 
  37:src/PCB.cpp   **** void PCB::runner()
  38:src/PCB.cpp   **** {
GAS LISTING /tmp/ccvmtkdW.s 			page 2


  17              		.loc 1 38 1
  18              		.cfi_startproc
  19 0000 130101FF 		addi	sp,sp,-16
  20              		.cfi_def_cfa_offset 16
  21 0004 23341100 		sd	ra,8(sp)
  22 0008 23308100 		sd	s0,0(sp)
  23              		.cfi_offset 1, -8
  24              		.cfi_offset 8, -16
  25 000c 13040101 		addi	s0,sp,16
  26              		.cfi_def_cfa 8, 0
  39:src/PCB.cpp   ****     Riscv::printString("Runner started...\n");
  27              		.loc 1 39 5
  28              		.loc 1 39 23 is_stmt 0
  29 0010 17050000 		lla	a0,.LC0
  29      13050500 
  30 0018 97000000 		call	_ZN5Riscv11printStringEPKc@plt
  30      E7800000 
  31              	.LVL0:
  40:src/PCB.cpp   ****     Riscv::popSppSpie();
  32              		.loc 1 40 5 is_stmt 1
  33              		.loc 1 40 22 is_stmt 0
  34 0020 97000000 		call	_ZN5Riscv10popSppSpieEv@plt
  34      E7800000 
  35              	.LVL1:
  41:src/PCB.cpp   **** 
  42:src/PCB.cpp   ****     running->body(running->args);
  36              		.loc 1 42 5 is_stmt 1
  37              		.loc 1 42 14 is_stmt 0
  38 0028 97070000 		ld	a5,.LANCHOR0
  38      83B70700 
  39 0030 03B70702 		ld	a4,32(a5)
  40              		.loc 1 42 18
  41 0034 03B58702 		ld	a0,40(a5)
  42 0038 E7000700 		jalr	a4
  43              	.LVL2:
  43:src/PCB.cpp   **** 
  44:src/PCB.cpp   ****     thread_exit();
  44              		.loc 1 44 5 is_stmt 1
  45              		.loc 1 44 16 is_stmt 0
  46 003c 97000000 		call	thread_exit@plt
  46      E7800000 
  47              	.LVL3:
  45:src/PCB.cpp   **** }
  48              		.loc 1 45 1
  49 0044 83308100 		ld	ra,8(sp)
  50              		.cfi_restore 1
  51 0048 03340100 		ld	s0,0(sp)
  52              		.cfi_restore 8
  53              		.cfi_def_cfa 2, 16
  54 004c 13010101 		addi	sp,sp,16
  55              		.cfi_def_cfa_offset 0
  56 0050 67800000 		jr	ra
  57              		.cfi_endproc
  58              	.LFE26:
  60              		.align	2
  61              		.globl	_ZN3PCBC2EPFvPvES0_S0_m
  63              	_ZN3PCBC2EPFvPvES0_S0_m:
GAS LISTING /tmp/ccvmtkdW.s 			page 3


  64              	.LFB22:
  13:src/PCB.cpp   ****     timeSlice(timeSlice),
  65              		.loc 1 13 1 is_stmt 1
  66              		.cfi_startproc
  67              	.LVL4:
  68 0054 130101FE 		addi	sp,sp,-32
  69              		.cfi_def_cfa_offset 32
  70 0058 233C1100 		sd	ra,24(sp)
  71 005c 23388100 		sd	s0,16(sp)
  72 0060 23349100 		sd	s1,8(sp)
  73              		.cfi_offset 1, -8
  74              		.cfi_offset 8, -16
  75              		.cfi_offset 9, -24
  76 0064 13040102 		addi	s0,sp,32
  77              		.cfi_def_cfa 8, 0
  78 0068 93040500 		mv	s1,a0
  79              	.LBB12:
  21:src/PCB.cpp   **** {
  80              		.loc 1 21 6 is_stmt 0
  81 006c 23000500 		sb	zero,0(a0)
  82 0070 2338E500 		sd	a4,16(a0)
  83 0074 233C0500 		sd	zero,24(a0)
  84 0078 2330B502 		sd	a1,32(a0)
  85 007c 2334C502 		sd	a2,40(a0)
  86 0080 2338D502 		sd	a3,48(a0)
  19:src/PCB.cpp   ****         (uint64)&PCB::runner
  87              		.loc 1 19 37
  88 0084 B7170000 		li	a5,4096
  89 0088 B386F600 		add	a3,a3,a5
  90              	.LVL5:
  21:src/PCB.cpp   **** {
  91              		.loc 1 21 6
  92 008c 2330D504 		sd	a3,64(a0)
  93 0090 97070000 		lla	a5,_ZN3PCB6runnerEv
  93      93870700 
  94 0098 2334F504 		sd	a5,72(a0)
  23:src/PCB.cpp   ****     nextPCB = 0;
  95              		.loc 1 23 5 is_stmt 1
  23:src/PCB.cpp   ****     nextPCB = 0;
  96              		.loc 1 23 19 is_stmt 0
  97 009c 97000000 		call	_ZN9Scheduler3putEP3PCB@plt
  97      E7800000 
  98              	.LVL6:
  24:src/PCB.cpp   **** }
  99              		.loc 1 24 5 is_stmt 1
  24:src/PCB.cpp   **** }
 100              		.loc 1 24 13 is_stmt 0
 101 00a4 23B40400 		sd	zero,8(s1)
 102              	.LBE12:
  25:src/PCB.cpp   **** 
 103              		.loc 1 25 1
 104 00a8 83308101 		ld	ra,24(sp)
 105              		.cfi_restore 1
 106 00ac 03340101 		ld	s0,16(sp)
 107              		.cfi_restore 8
 108              		.cfi_def_cfa 2, 32
 109 00b0 83348100 		ld	s1,8(sp)
GAS LISTING /tmp/ccvmtkdW.s 			page 4


 110              		.cfi_restore 9
 111              	.LVL7:
 112 00b4 13010102 		addi	sp,sp,32
 113              		.cfi_def_cfa_offset 0
 114 00b8 67800000 		jr	ra
 115              		.cfi_endproc
 116              	.LFE22:
 118              		.globl	_ZN3PCBC1EPFvPvES0_S0_m
 119              		.set	_ZN3PCBC1EPFvPvES0_S0_m,_ZN3PCBC2EPFvPvES0_S0_m
 120              		.align	2
 121              		.globl	_ZN3PCB5sleepEm
 123              	_ZN3PCB5sleepEm:
 124              	.LFB24:
  28:src/PCB.cpp   ****     //todo
 125              		.loc 1 28 1 is_stmt 1
 126              		.cfi_startproc
 127              	.LVL8:
 128 00bc 130101FF 		addi	sp,sp,-16
 129              		.cfi_def_cfa_offset 16
 130 00c0 23348100 		sd	s0,8(sp)
 131              		.cfi_offset 8, -8
 132 00c4 13040101 		addi	s0,sp,16
 133              		.cfi_def_cfa 8, 0
  30:src/PCB.cpp   **** 
 134              		.loc 1 30 1 is_stmt 0
 135 00c8 03348100 		ld	s0,8(sp)
 136              		.cfi_restore 8
 137              		.cfi_def_cfa 2, 16
 138 00cc 13010101 		addi	sp,sp,16
 139              		.cfi_def_cfa_offset 0
 140 00d0 67800000 		jr	ra
 141              		.cfi_endproc
 142              	.LFE24:
 144              		.align	2
 145              		.globl	_ZN3PCB5startEv
 147              	_ZN3PCB5startEv:
 148              	.LFB25:
  33:src/PCB.cpp   ****     Scheduler::put(this);
 149              		.loc 1 33 1 is_stmt 1
 150              		.cfi_startproc
 151              	.LVL9:
 152 00d4 130101FF 		addi	sp,sp,-16
 153              		.cfi_def_cfa_offset 16
 154 00d8 23341100 		sd	ra,8(sp)
 155 00dc 23308100 		sd	s0,0(sp)
 156              		.cfi_offset 1, -8
 157              		.cfi_offset 8, -16
 158 00e0 13040101 		addi	s0,sp,16
 159              		.cfi_def_cfa 8, 0
  34:src/PCB.cpp   **** }
 160              		.loc 1 34 5
  34:src/PCB.cpp   **** }
 161              		.loc 1 34 19 is_stmt 0
 162 00e4 97000000 		call	_ZN9Scheduler3putEP3PCB@plt
 162      E7800000 
 163              	.LVL10:
  35:src/PCB.cpp   **** 
GAS LISTING /tmp/ccvmtkdW.s 			page 5


 164              		.loc 1 35 1
 165 00ec 83308100 		ld	ra,8(sp)
 166              		.cfi_restore 1
 167 00f0 03340100 		ld	s0,0(sp)
 168              		.cfi_restore 8
 169              		.cfi_def_cfa 2, 16
 170 00f4 13010101 		addi	sp,sp,16
 171              		.cfi_def_cfa_offset 0
 172 00f8 67800000 		jr	ra
 173              		.cfi_endproc
 174              	.LFE25:
 176              		.align	2
 177              		.globl	_ZN3PCB8dispatchEv
 179              	_ZN3PCB8dispatchEv:
 180              	.LFB27:
  46:src/PCB.cpp   **** 
  47:src/PCB.cpp   **** void PCB::dispatch()
  48:src/PCB.cpp   **** {
 181              		.loc 1 48 1 is_stmt 1
 182              		.cfi_startproc
 183 00fc 130101FE 		addi	sp,sp,-32
 184              		.cfi_def_cfa_offset 32
 185 0100 233C1100 		sd	ra,24(sp)
 186 0104 23388100 		sd	s0,16(sp)
 187 0108 23349100 		sd	s1,8(sp)
 188              		.cfi_offset 1, -8
 189              		.cfi_offset 8, -16
 190              		.cfi_offset 9, -24
 191 010c 13040102 		addi	s0,sp,32
 192              		.cfi_def_cfa 8, 0
  49:src/PCB.cpp   ****     //Scheduler::print();
  50:src/PCB.cpp   ****     //Riscv::printInteger(Scheduler::getSize());
  51:src/PCB.cpp   ****     //Riscv::printString("Dispatch called...\n");
  52:src/PCB.cpp   ****     PCB* old = running;
 193              		.loc 1 52 5
 194              		.loc 1 52 10 is_stmt 0
 195 0110 97040000 		ld	s1,.LANCHOR0
 195      83B40400 
 196              	.LVL11:
  53:src/PCB.cpp   ****     if(old->getState() == PCB::RUNNING)
 197              		.loc 1 53 5 is_stmt 1
 198              	.LBB13:
 199              	.LBB14:
 200              		.file 2 "src/../h/PCB.hpp"
   1:src/../h/PCB.hpp **** //
   2:src/../h/PCB.hpp **** // Created by os on 4/27/22.
   3:src/../h/PCB.hpp **** //
   4:src/../h/PCB.hpp **** 
   5:src/../h/PCB.hpp **** #ifndef PROJECT_BASE_V1_0_PCB_HPP
   6:src/../h/PCB.hpp **** #define PROJECT_BASE_V1_0_PCB_HPP
   7:src/../h/PCB.hpp **** 
   8:src/../h/PCB.hpp **** #include "../lib/hw.h"
   9:src/../h/PCB.hpp **** #include "Scheduler.hpp"
  10:src/../h/PCB.hpp **** #include "Riscv.hpp"
  11:src/../h/PCB.hpp **** 
  12:src/../h/PCB.hpp **** class PCB
  13:src/../h/PCB.hpp **** {
GAS LISTING /tmp/ccvmtkdW.s 			page 6


  14:src/../h/PCB.hpp **** public:
  15:src/../h/PCB.hpp ****     static uint64 savedRegA4;
  16:src/../h/PCB.hpp **** 
  17:src/../h/PCB.hpp ****     using Body = void (*)(void*);
  18:src/../h/PCB.hpp **** 
  19:src/../h/PCB.hpp ****     PCB(Body body,  void* args, void* stack_space, uint64 timeSlice);
  20:src/../h/PCB.hpp ****     ~PCB();
  21:src/../h/PCB.hpp **** 
  22:src/../h/PCB.hpp ****     void start();
  23:src/../h/PCB.hpp ****     static void dispatch();
  24:src/../h/PCB.hpp ****     static void sleep(time_t);
  25:src/../h/PCB.hpp **** 
  26:src/../h/PCB.hpp ****     static PCB* running;
  27:src/../h/PCB.hpp **** 
  28:src/../h/PCB.hpp ****     static uint64 timeSliceCounter;
  29:src/../h/PCB.hpp ****     uint64 getTimeSlice() { return timeSlice;}
  30:src/../h/PCB.hpp **** 
  31:src/../h/PCB.hpp ****     void* operator new(size_t size);
  32:src/../h/PCB.hpp ****     void operator delete(void *p);
  33:src/../h/PCB.hpp **** 
  34:src/../h/PCB.hpp ****     enum State{READY, RUNNING, SUSPENDED, FINISHED, EXITING, SLEEPING};
  35:src/../h/PCB.hpp ****     State getState() {return state;}
 201              		.loc 2 35 23
 202              		.loc 2 35 30 is_stmt 0
 203 0118 03A78403 		lw	a4,56(s1)
 204              	.LVL12:
 205              	.LBE14:
 206              	.LBE13:
 207              		.loc 1 53 5
 208 011c 93071000 		li	a5,1
 209 0120 6300F704 		beq	a4,a5,.L12
 210              	.L10:
  54:src/PCB.cpp   ****         Scheduler::put(old);
  55:src/PCB.cpp   ****     PCB::running = Scheduler::get();
 211              		.loc 1 55 5 is_stmt 1
 212              		.loc 1 55 34 is_stmt 0
 213 0124 97000000 		call	_ZN9Scheduler3getEv@plt
 213      E7800000 
 214              	.LVL13:
 215              		.loc 1 55 18
 216 012c 97070000 		sd	a0,.LANCHOR0,a5
 216      23B0A700 
  56:src/PCB.cpp   ****     PCB::running->setState(PCB::RUNNING);
 217              		.loc 1 56 5 is_stmt 1
 218              	.LVL14:
 219              	.LBB15:
 220              	.LBB16:
  36:src/../h/PCB.hpp ****     void setState(State s) {state = s;}
 221              		.loc 2 36 29
 222              		.loc 2 36 35 is_stmt 0
 223 0134 93071000 		li	a5,1
 224 0138 232CF502 		sw	a5,56(a0)
 225              	.LVL15:
 226              	.LBE16:
 227              	.LBE15:
  57:src/PCB.cpp   ****     //Riscv::printString("Switching context...\n");
  58:src/PCB.cpp   **** 
GAS LISTING /tmp/ccvmtkdW.s 			page 7


  59:src/PCB.cpp   ****     //if(PCB::running->systemThread)
  60:src/PCB.cpp   ****     //    Riscv::ms_sstatus(Riscv::SSTATUS_SPP);
  61:src/PCB.cpp   ****     //else
  62:src/PCB.cpp   ****     //    Riscv::mc_sstatus(Riscv::SSTATUS_SPP);
  63:src/PCB.cpp   **** 
  64:src/PCB.cpp   **** 
  65:src/PCB.cpp   ****     PCB::contextSwitch(&old->context, &running->context);
 228              		.loc 1 65 5 is_stmt 1
 229              		.loc 1 65 23 is_stmt 0
 230 013c 93050504 		addi	a1,a0,64
 231 0140 13850404 		addi	a0,s1,64
 232 0144 97000000 		call	_ZN3PCB13contextSwitchEPNS_7ContextES1_@plt
 232      E7800000 
 233              	.LVL16:
  66:src/PCB.cpp   **** }
 234              		.loc 1 66 1
 235 014c 83308101 		ld	ra,24(sp)
 236              		.cfi_remember_state
 237              		.cfi_restore 1
 238 0150 03340101 		ld	s0,16(sp)
 239              		.cfi_restore 8
 240              		.cfi_def_cfa 2, 32
 241 0154 83348100 		ld	s1,8(sp)
 242              		.cfi_restore 9
 243              	.LVL17:
 244 0158 13010102 		addi	sp,sp,32
 245              		.cfi_def_cfa_offset 0
 246 015c 67800000 		jr	ra
 247              	.LVL18:
 248              	.L12:
 249              		.cfi_restore_state
  54:src/PCB.cpp   ****     PCB::running = Scheduler::get();
 250              		.loc 1 54 9 is_stmt 1
  54:src/PCB.cpp   ****     PCB::running = Scheduler::get();
 251              		.loc 1 54 23 is_stmt 0
 252 0160 13850400 		mv	a0,s1
 253 0164 97000000 		call	_ZN9Scheduler3putEP3PCB@plt
 253      E7800000 
 254              	.LVL19:
 255 016c 6FF09FFB 		j	.L10
 256              		.cfi_endproc
 257              	.LFE27:
 259              		.align	2
 260              		.globl	_ZN3PCBnwEm
 262              	_ZN3PCBnwEm:
 263              	.LFB28:
  67:src/PCB.cpp   **** 
  68:src/PCB.cpp   **** void *PCB::operator new(size_t size) {
 264              		.loc 1 68 38 is_stmt 1
 265              		.cfi_startproc
 266              	.LVL20:
 267 0170 130101FF 		addi	sp,sp,-16
 268              		.cfi_def_cfa_offset 16
 269 0174 23341100 		sd	ra,8(sp)
 270 0178 23308100 		sd	s0,0(sp)
 271              		.cfi_offset 1, -8
 272              		.cfi_offset 8, -16
GAS LISTING /tmp/ccvmtkdW.s 			page 8


 273 017c 13040101 		addi	s0,sp,16
 274              		.cfi_def_cfa 8, 0
  69:src/PCB.cpp   ****     return kmalloc(size);
 275              		.loc 1 69 5
 276              		.loc 1 69 19 is_stmt 0
 277 0180 97000000 		call	_Z7kmallocm@plt
 277      E7800000 
 278              	.LVL21:
  70:src/PCB.cpp   **** }
 279              		.loc 1 70 1
 280 0188 83308100 		ld	ra,8(sp)
 281              		.cfi_restore 1
 282 018c 03340100 		ld	s0,0(sp)
 283              		.cfi_restore 8
 284              		.cfi_def_cfa 2, 16
 285 0190 13010101 		addi	sp,sp,16
 286              		.cfi_def_cfa_offset 0
 287 0194 67800000 		jr	ra
 288              		.cfi_endproc
 289              	.LFE28:
 291              		.align	2
 292              		.globl	_ZN3PCBdlEPv
 294              	_ZN3PCBdlEPv:
 295              	.LFB29:
  71:src/PCB.cpp   **** 
  72:src/PCB.cpp   **** void PCB::operator delete(void *p) {
 296              		.loc 1 72 36 is_stmt 1
 297              		.cfi_startproc
 298              	.LVL22:
 299 0198 130101FF 		addi	sp,sp,-16
 300              		.cfi_def_cfa_offset 16
 301 019c 23341100 		sd	ra,8(sp)
 302 01a0 23308100 		sd	s0,0(sp)
 303              		.cfi_offset 1, -8
 304              		.cfi_offset 8, -16
 305 01a4 13040101 		addi	s0,sp,16
 306              		.cfi_def_cfa 8, 0
  73:src/PCB.cpp   ****     kfree(p);
 307              		.loc 1 73 5
 308              		.loc 1 73 10 is_stmt 0
 309 01a8 97000000 		call	_Z5kfreePv@plt
 309      E7800000 
 310              	.LVL23:
  74:src/PCB.cpp   **** }
 311              		.loc 1 74 1
 312 01b0 83308100 		ld	ra,8(sp)
 313              		.cfi_restore 1
 314 01b4 03340100 		ld	s0,0(sp)
 315              		.cfi_restore 8
 316              		.cfi_def_cfa 2, 16
 317 01b8 13010101 		addi	sp,sp,16
 318              		.cfi_def_cfa_offset 0
 319 01bc 67800000 		jr	ra
 320              		.cfi_endproc
 321              	.LFE29:
 323              		.align	2
 324              		.globl	_ZN3PCBD2Ev
GAS LISTING /tmp/ccvmtkdW.s 			page 9


 326              	_ZN3PCBD2Ev:
 327              	.LFB31:
  75:src/PCB.cpp   **** 
  76:src/PCB.cpp   **** PCB::~PCB() {
 328              		.loc 1 76 1 is_stmt 1
 329              		.cfi_startproc
 330              		.cfi_personality 0x9b,DW.ref.__gxx_personality_v0
 331              		.cfi_lsda 0x1b,.LLSDA31
 332              	.LVL24:
 333 01c0 130101FF 		addi	sp,sp,-16
 334              		.cfi_def_cfa_offset 16
 335 01c4 23341100 		sd	ra,8(sp)
 336 01c8 23308100 		sd	s0,0(sp)
 337              		.cfi_offset 1, -8
 338              		.cfi_offset 8, -16
 339 01cc 13040101 		addi	s0,sp,16
 340              		.cfi_def_cfa 8, 0
 341              	.LBB17:
  77:src/PCB.cpp   ****     kfree(beginSP);
 342              		.loc 1 77 5
 343              		.loc 1 77 10 is_stmt 0
 344 01d0 03350503 		ld	a0,48(a0)
 345              	.LVL25:
 346 01d4 97000000 		call	_Z5kfreePv@plt
 346      E7800000 
 347              	.LVL26:
 348              	.LBE17:
  78:src/PCB.cpp   **** }
 349              		.loc 1 78 1
 350 01dc 83308100 		ld	ra,8(sp)
 351              		.cfi_restore 1
 352 01e0 03340100 		ld	s0,0(sp)
 353              		.cfi_restore 8
 354              		.cfi_def_cfa 2, 16
 355 01e4 13010101 		addi	sp,sp,16
 356              		.cfi_def_cfa_offset 0
 357 01e8 67800000 		jr	ra
 358              		.cfi_endproc
 359              	.LFE31:
 360              		.globl	__gxx_personality_v0
 361              		.section	.gcc_except_table,"a",@progbits
 362              	.LLSDA31:
 363 0000 FF       		.byte	0xff
 364 0001 FF       		.byte	0xff
 365 0002 03       		.byte	0x3
 366 0003 00       		.byte	0
 367              		.text
 369              		.globl	_ZN3PCBD1Ev
 370              		.set	_ZN3PCBD1Ev,_ZN3PCBD2Ev
 371              		.align	2
 372              		.globl	_ZN3PCB10initializeEv
 374              	_ZN3PCB10initializeEv:
 375              	.LFB33:
  79:src/PCB.cpp   **** 
  80:src/PCB.cpp   **** void PCB::initialize()
  81:src/PCB.cpp   **** {
 376              		.loc 1 81 1 is_stmt 1
GAS LISTING /tmp/ccvmtkdW.s 			page 10


 377              		.cfi_startproc
 378              		.cfi_personality 0x9b,DW.ref.__gxx_personality_v0
 379              		.cfi_lsda 0x1b,.LLSDA33
 380 01ec 130101FE 		addi	sp,sp,-32
 381              		.cfi_def_cfa_offset 32
 382 01f0 233C1100 		sd	ra,24(sp)
 383 01f4 23388100 		sd	s0,16(sp)
 384 01f8 23349100 		sd	s1,8(sp)
 385 01fc 23302101 		sd	s2,0(sp)
 386              		.cfi_offset 1, -8
 387              		.cfi_offset 8, -16
 388              		.cfi_offset 9, -24
 389              		.cfi_offset 18, -32
 390 0200 13040102 		addi	s0,sp,32
 391              		.cfi_def_cfa 8, 0
  82:src/PCB.cpp   ****     PCB* mainSystem = new PCB(0, 0, 0, 0);
 392              		.loc 1 82 5
 393              		.loc 1 82 41 is_stmt 0
 394 0204 13050005 		li	a0,80
 395              	.LEHB0:
 396 0208 97000000 		call	_ZN3PCBnwEm
 396      E7800000 
 397              	.LVL27:
 398              	.LEHE0:
 399 0210 93040500 		mv	s1,a0
 400 0214 13070000 		li	a4,0
 401 0218 93060000 		li	a3,0
 402 021c 13060000 		li	a2,0
 403 0220 93050000 		li	a1,0
 404              	.LEHB1:
 405 0224 97000000 		call	_ZN3PCBC1EPFvPvES0_S0_m
 405      E7800000 
 406              	.LVL28:
 407              	.LEHE1:
  83:src/PCB.cpp   ****     mainSystem->systemThread = true;
 408              		.loc 1 83 5 is_stmt 1 discriminator 2
 409              		.loc 1 83 30 is_stmt 0 discriminator 2
 410 022c 93071000 		li	a5,1
 411 0230 2380F400 		sb	a5,0(s1)
  84:src/PCB.cpp   ****     PCB::running = Scheduler::get();
 412              		.loc 1 84 5 is_stmt 1 discriminator 2
 413              	.LEHB2:
 414              		.loc 1 84 34 is_stmt 0 discriminator 2
 415 0234 97000000 		call	_ZN9Scheduler3getEv@plt
 415      E7800000 
 416              	.LVL29:
 417              	.LEHE2:
 418              		.loc 1 84 18 discriminator 2
 419 023c 97070000 		sd	a0,.LANCHOR0,a5
 419      23B0A700 
  85:src/PCB.cpp   ****     PCB::running->setState(PCB::RUNNING);
 420              		.loc 1 85 5 is_stmt 1 discriminator 2
 421              	.LVL30:
 422              	.LBB18:
 423              	.LBB19:
 424              		.loc 2 36 29 discriminator 2
 425              		.loc 2 36 35 is_stmt 0 discriminator 2
GAS LISTING /tmp/ccvmtkdW.s 			page 11


 426 0244 93071000 		li	a5,1
 427 0248 232CF502 		sw	a5,56(a0)
 428              	.LVL31:
 429              	.LBE19:
 430              	.LBE18:
  86:src/PCB.cpp   **** }
 431              		.loc 1 86 1 discriminator 2
 432 024c 83308101 		ld	ra,24(sp)
 433              		.cfi_remember_state
 434              		.cfi_restore 1
 435 0250 03340101 		ld	s0,16(sp)
 436              		.cfi_restore 8
 437              		.cfi_def_cfa 2, 32
 438 0254 83348100 		ld	s1,8(sp)
 439              		.cfi_restore 9
 440              	.LVL32:
 441 0258 03390100 		ld	s2,0(sp)
 442              		.cfi_restore 18
 443 025c 13010102 		addi	sp,sp,32
 444              		.cfi_def_cfa_offset 0
 445 0260 67800000 		jr	ra
 446              	.L21:
 447              		.cfi_restore_state
 448 0264 13090500 		mv	s2,a0
  82:src/PCB.cpp   ****     mainSystem->systemThread = true;
 449              		.loc 1 82 41
 450 0268 13850400 		mv	a0,s1
 451 026c 97000000 		call	_ZN3PCBdlEPv
 451      E7800000 
 452              	.LVL33:
 453 0274 13050900 		mv	a0,s2
 454              	.LEHB3:
 455 0278 97000000 		call	_Unwind_Resume@plt
 455      E7800000 
 456              	.LVL34:
 457              	.LEHE3:
 458              		.cfi_endproc
 459              	.LFE33:
 460              		.section	.gcc_except_table
 461              	.LLSDA33:
 462 0004 FF       		.byte	0xff
 463 0005 FF       		.byte	0xff
 464 0006 03       		.byte	0x3
 465 0007 34       		.byte	0x34
 466 0008 00000000 		.4byte	.LEHB0-.LFB33
 467 000c 00000000 		.4byte	.LEHE0-.LEHB0
 468 0010 00000000 		.4byte	0
 469 0014 00       		.byte	0
 470 0015 00000000 		.4byte	.LEHB1-.LFB33
 471 0019 00000000 		.4byte	.LEHE1-.LEHB1
 472 001d 00000000 		.4byte	.L21-.LFB33
 473 0021 00       		.byte	0
 474 0022 00000000 		.4byte	.LEHB2-.LFB33
 475 0026 00000000 		.4byte	.LEHE2-.LEHB2
 476 002a 00000000 		.4byte	0
 477 002e 00       		.byte	0
 478 002f 00000000 		.4byte	.LEHB3-.LFB33
GAS LISTING /tmp/ccvmtkdW.s 			page 12


 479 0033 00000000 		.4byte	.LEHE3-.LEHB3
 480 0037 00000000 		.4byte	0
 481 003b 00       		.byte	0
 482              		.text
 484              		.align	2
 485              		.globl	_ZN3PCB10isFinishedEv
 487              	_ZN3PCB10isFinishedEv:
 488              	.LFB34:
  87:src/PCB.cpp   **** 
  88:src/PCB.cpp   **** bool PCB::isFinished()
  89:src/PCB.cpp   **** {
 489              		.loc 1 89 1 is_stmt 1
 490              		.cfi_startproc
 491              	.LVL35:
 492 0280 130101FF 		addi	sp,sp,-16
 493              		.cfi_def_cfa_offset 16
 494 0284 23348100 		sd	s0,8(sp)
 495              		.cfi_offset 8, -8
 496 0288 13040101 		addi	s0,sp,16
 497              		.cfi_def_cfa 8, 0
  90:src/PCB.cpp   ****     return state == PCB::FINISHED;
 498              		.loc 1 90 5
 499              		.loc 1 90 12 is_stmt 0
 500 028c 03258503 		lw	a0,56(a0)
 501              	.LVL36:
 502              		.loc 1 90 26
 503 0290 1305D5FF 		addi	a0,a0,-3
  91:src/PCB.cpp   **** }
 504              		.loc 1 91 1
 505 0294 13351500 		seqz	a0,a0
 506 0298 03348100 		ld	s0,8(sp)
 507              		.cfi_restore 8
 508              		.cfi_def_cfa 2, 16
 509 029c 13010101 		addi	sp,sp,16
 510              		.cfi_def_cfa_offset 0
 511 02a0 67800000 		jr	ra
 512              		.cfi_endproc
 513              	.LFE34:
 515              		.section	.rodata.str1.8
 516 0013 00000000 		.align	3
 516      00
 517              	.LC1:
 518 0018 45786974 		.string	"Exiting thread...\n"
 518      696E6720 
 518      74687265 
 518      61642E2E 
 518      2E0A00
 519              		.text
 520              		.align	2
 521              		.globl	_ZN3PCB17threadExitHandlerEv
 523              	_ZN3PCB17threadExitHandlerEv:
 524              	.LFB35:
  92:src/PCB.cpp   **** 
  93:src/PCB.cpp   **** void PCB::threadExitHandler()
  94:src/PCB.cpp   **** {
 525              		.loc 1 94 1 is_stmt 1
 526              		.cfi_startproc
GAS LISTING /tmp/ccvmtkdW.s 			page 13


 527 02a4 130101FF 		addi	sp,sp,-16
 528              		.cfi_def_cfa_offset 16
 529 02a8 23341100 		sd	ra,8(sp)
 530 02ac 23308100 		sd	s0,0(sp)
 531              		.cfi_offset 1, -8
 532              		.cfi_offset 8, -16
 533 02b0 13040101 		addi	s0,sp,16
 534              		.cfi_def_cfa 8, 0
  95:src/PCB.cpp   ****     Riscv::printString("Exiting thread...\n");
 535              		.loc 1 95 5
 536              		.loc 1 95 23 is_stmt 0
 537 02b4 17050000 		lla	a0,.LC1
 537      13050500 
 538 02bc 97000000 		call	_ZN5Riscv11printStringEPKc@plt
 538      E7800000 
 539              	.LVL37:
  96:src/PCB.cpp   ****     PCB::timeSliceCounter = 0;
 540              		.loc 1 96 5 is_stmt 1
 541              		.loc 1 96 27 is_stmt 0
 542 02c4 97070000 		lla	a5,.LANCHOR0
 542      93870700 
 543 02cc 23B40700 		sd	zero,8(a5)
  97:src/PCB.cpp   ****     PCB::running->setState(PCB::FINISHED);
 544              		.loc 1 97 5 is_stmt 1
 545              		.loc 1 97 27 is_stmt 0
 546 02d0 83B70700 		ld	a5,0(a5)
 547              	.LVL38:
 548              	.LBB20:
 549              	.LBB21:
 550              		.loc 2 36 29 is_stmt 1
 551              		.loc 2 36 35 is_stmt 0
 552 02d4 13073000 		li	a4,3
 553 02d8 23ACE702 		sw	a4,56(a5)
 554              	.LVL39:
 555              	.LBE21:
 556              	.LBE20:
  98:src/PCB.cpp   ****     PCB::dispatch();
 557              		.loc 1 98 5 is_stmt 1
 558              		.loc 1 98 18 is_stmt 0
 559 02dc 97000000 		call	_ZN3PCB8dispatchEv
 559      E7800000 
 560              	.LVL40:
  99:src/PCB.cpp   ****     __asm__ volatile("li a0, 0");
 561              		.loc 1 99 5 is_stmt 1
 562              		.loc 1 99 33 is_stmt 0
 563              	#APP
 564              	# 99 "src/PCB.cpp" 1
 100              	}
 565              		li a0, 0
 566              	# 0 "" 2
 567              		.loc 1 100 1
 568              	#NO_APP
 569 02e8 83308100 		ld	ra,8(sp)
 570              		.cfi_restore 1
 571 02ec 03340100 		ld	s0,0(sp)
 572              		.cfi_restore 8
 573              		.cfi_def_cfa 2, 16
GAS LISTING /tmp/ccvmtkdW.s 			page 14


 574 02f0 13010101 		addi	sp,sp,16
 575              		.cfi_def_cfa_offset 0
 576 02f4 67800000 		jr	ra
 577              		.cfi_endproc
 578              	.LFE35:
 580              		.align	2
 581              		.globl	_ZN3PCB21threadDispatchHandlerEv
 583              	_ZN3PCB21threadDispatchHandlerEv:
 584              	.LFB36:
 101:src/PCB.cpp   **** 
 102:src/PCB.cpp   **** void PCB::threadDispatchHandler()
 103:src/PCB.cpp   **** {
 585              		.loc 1 103 1 is_stmt 1
 586              		.cfi_startproc
 587 02f8 130101FF 		addi	sp,sp,-16
 588              		.cfi_def_cfa_offset 16
 589 02fc 23341100 		sd	ra,8(sp)
 590 0300 23308100 		sd	s0,0(sp)
 591              		.cfi_offset 1, -8
 592              		.cfi_offset 8, -16
 593 0304 13040101 		addi	s0,sp,16
 594              		.cfi_def_cfa 8, 0
 104:src/PCB.cpp   ****     PCB::timeSliceCounter = 0;
 595              		.loc 1 104 5
 596              		.loc 1 104 27 is_stmt 0
 597 0308 97070000 		sd	zero,.LANCHOR0+8,a5
 597      23B00700 
 105:src/PCB.cpp   ****     PCB::dispatch();
 598              		.loc 1 105 5 is_stmt 1
 599              		.loc 1 105 18 is_stmt 0
 600 0310 97000000 		call	_ZN3PCB8dispatchEv
 600      E7800000 
 601              	.LVL41:
 106:src/PCB.cpp   **** }
 602              		.loc 1 106 1
 603 0318 83308100 		ld	ra,8(sp)
 604              		.cfi_restore 1
 605 031c 03340100 		ld	s0,0(sp)
 606              		.cfi_restore 8
 607              		.cfi_def_cfa 2, 16
 608 0320 13010101 		addi	sp,sp,16
 609              		.cfi_def_cfa_offset 0
 610 0324 67800000 		jr	ra
 611              		.cfi_endproc
 612              	.LFE36:
 614              		.align	2
 615              		.globl	_ZN3PCB18threadSleepHandlerEv
 617              	_ZN3PCB18threadSleepHandlerEv:
 618              	.LFB37:
 107:src/PCB.cpp   **** 
 108:src/PCB.cpp   **** void PCB::threadSleepHandler()
 109:src/PCB.cpp   **** {
 619              		.loc 1 109 1 is_stmt 1
 620              		.cfi_startproc
 621 0328 130101FF 		addi	sp,sp,-16
 622              		.cfi_def_cfa_offset 16
 623 032c 23341100 		sd	ra,8(sp)
GAS LISTING /tmp/ccvmtkdW.s 			page 15


 624 0330 23308100 		sd	s0,0(sp)
 625              		.cfi_offset 1, -8
 626              		.cfi_offset 8, -16
 627 0334 13040101 		addi	s0,sp,16
 628              		.cfi_def_cfa 8, 0
 110:src/PCB.cpp   ****     uint64 time;
 629              		.loc 1 110 5
 111:src/PCB.cpp   ****     __asm__ volatile("mv %0, a1" : "=r"(time));
 630              		.loc 1 111 5
 631              		.loc 1 111 47 is_stmt 0
 632              	#APP
 633              	# 111 "src/PCB.cpp" 1
 112              	    PCB::timeSliceCounter = 0;
 634              		mv a4, a1
 635              	# 0 "" 2
 636              	.LVL42:
 637              		.loc 1 112 5 is_stmt 1
 638              		.loc 1 112 27 is_stmt 0
 639              	#NO_APP
 640 033c 97070000 		lla	a5,.LANCHOR0
 640      93870700 
 641 0344 23B40700 		sd	zero,8(a5)
 113:src/PCB.cpp   ****     PCB::running->setTimeToSleep(time);
 642              		.loc 1 113 5 is_stmt 1
 643              		.loc 1 113 33 is_stmt 0
 644 0348 83B70700 		ld	a5,0(a5)
 645              	.LVL43:
 646              	.LBB22:
 647              	.LBB23:
  37:src/../h/PCB.hpp ****     void setTimeToSleep(uint64 time) {timeToSleep = time;}
 648              		.loc 2 37 39 is_stmt 1
 649              		.loc 2 37 51 is_stmt 0
 650 034c 23BCE700 		sd	a4,24(a5)
 651              	.LVL44:
 652              	.LBE23:
 653              	.LBE22:
 114:src/PCB.cpp   ****     SleepPCBList::insertSleepingPCB();
 654              		.loc 1 114 5 is_stmt 1
 655              		.loc 1 114 36 is_stmt 0
 656 0350 97000000 		call	_ZN12SleepPCBList17insertSleepingPCBEv@plt
 656      E7800000 
 657              	.LVL45:
 115:src/PCB.cpp   ****     PCB::dispatch();
 658              		.loc 1 115 5 is_stmt 1
 659              		.loc 1 115 18 is_stmt 0
 660 0358 97000000 		call	_ZN3PCB8dispatchEv
 660      E7800000 
 661              	.LVL46:
 116:src/PCB.cpp   ****     __asm__ volatile("li a0, 0x0");
 662              		.loc 1 116 5 is_stmt 1
 663              		.loc 1 116 35 is_stmt 0
 664              	#APP
 665              	# 116 "src/PCB.cpp" 1
 117              	}
 666              		li a0, 0x0
 667              	# 0 "" 2
 668              		.loc 1 117 1
GAS LISTING /tmp/ccvmtkdW.s 			page 16


 669              	#NO_APP
 670 0364 83308100 		ld	ra,8(sp)
 671              		.cfi_restore 1
 672 0368 03340100 		ld	s0,0(sp)
 673              		.cfi_restore 8
 674              		.cfi_def_cfa 2, 16
 675 036c 13010101 		addi	sp,sp,16
 676              		.cfi_def_cfa_offset 0
 677 0370 67800000 		jr	ra
 678              		.cfi_endproc
 679              	.LFE37:
 681              		.align	2
 682              		.globl	_ZN3PCB19threadCreateHandlerEv
 684              	_ZN3PCB19threadCreateHandlerEv:
 685              	.LFB38:
 118:src/PCB.cpp   **** 
 119:src/PCB.cpp   **** void PCB::threadCreateHandler()
 120:src/PCB.cpp   **** {
 686              		.loc 1 120 1 is_stmt 1
 687              		.cfi_startproc
 688              		.cfi_personality 0x9b,DW.ref.__gxx_personality_v0
 689              		.cfi_lsda 0x1b,.LLSDA38
 690 0374 130101FD 		addi	sp,sp,-48
 691              		.cfi_def_cfa_offset 48
 692 0378 23341102 		sd	ra,40(sp)
 693 037c 23308102 		sd	s0,32(sp)
 694 0380 233C9100 		sd	s1,24(sp)
 695 0384 23382101 		sd	s2,16(sp)
 696 0388 23343101 		sd	s3,8(sp)
 697 038c 23304101 		sd	s4,0(sp)
 698              		.cfi_offset 1, -8
 699              		.cfi_offset 8, -16
 700              		.cfi_offset 9, -24
 701              		.cfi_offset 18, -32
 702              		.cfi_offset 19, -40
 703              		.cfi_offset 20, -48
 704 0390 13040103 		addi	s0,sp,48
 705              		.cfi_def_cfa 8, 0
 121:src/PCB.cpp   ****     uint64 start_routine;
 706              		.loc 1 121 5
 122:src/PCB.cpp   ****     uint64 args;
 707              		.loc 1 122 5
 123:src/PCB.cpp   ****     PCB **threadHandle;
 708              		.loc 1 123 5
 124:src/PCB.cpp   ****     __asm__ volatile("mv %0, a1" : "=r"(threadHandle));
 709              		.loc 1 124 5
 710              		.loc 1 124 55 is_stmt 0
 711              	#APP
 712              	# 124 "src/PCB.cpp" 1
 125              	    __asm__ volatile("mv %0, a2" : "=r"(start_routine));
 713              		mv s2, a1
 714              	# 0 "" 2
 715              	.LVL47:
 716              		.loc 1 125 5 is_stmt 1
 717              		.loc 1 125 56 is_stmt 0
 718              	# 125 "src/PCB.cpp" 1
 126              	    __asm__ volatile("mv %0, a3" : "=r"(args));
GAS LISTING /tmp/ccvmtkdW.s 			page 17


 719              		mv s3, a2
 720              	# 0 "" 2
 721              	.LVL48:
 722              		.loc 1 126 5 is_stmt 1
 723              		.loc 1 126 47 is_stmt 0
 724              	# 126 "src/PCB.cpp" 1
 127              	    //todo
 725              		mv s4, a3
 726              	# 0 "" 2
 727              	.LVL49:
 128:src/PCB.cpp   **** 
 129:src/PCB.cpp   ****     PCB *newPCB = new PCB((void (*)(void *)) start_routine, (void *) args, (void *) PCB::savedRegA4
 728              		.loc 1 129 5 is_stmt 1
 729              		.loc 1 129 120 is_stmt 0
 730              	#NO_APP
 731 03a0 13050005 		li	a0,80
 732              	.LEHB4:
 733 03a4 97000000 		call	_ZN3PCBnwEm
 733      E7800000 
 734              	.LVL50:
 735              	.LEHE4:
 736 03ac 93040500 		mv	s1,a0
 737 03b0 13072000 		li	a4,2
 738 03b4 97060000 		ld	a3,.LANCHOR0+16
 738      83B60600 
 739 03bc 13060A00 		mv	a2,s4
 740 03c0 93850900 		mv	a1,s3
 741              	.LEHB5:
 742 03c4 97000000 		call	_ZN3PCBC1EPFvPvES0_S0_m
 742      E7800000 
 743              	.LVL51:
 744              	.LEHE5:
 130:src/PCB.cpp   **** 
 131:src/PCB.cpp   ****     (*threadHandle) = newPCB;
 745              		.loc 1 131 5 is_stmt 1 discriminator 2
 746              		.loc 1 131 21 is_stmt 0 discriminator 2
 747 03cc 23309900 		sd	s1,0(s2)
 132:src/PCB.cpp   **** 
 133:src/PCB.cpp   ****     if (newPCB == 0)
 748              		.loc 1 133 5 is_stmt 1 discriminator 2
 749 03d0 63840402 		beqz	s1,.L38
 134:src/PCB.cpp   ****             __asm__ volatile("li a0, 0xffffffffffffffff");
 135:src/PCB.cpp   ****     else
 136:src/PCB.cpp   ****             __asm__ volatile("li a0, 0");
 750              		.loc 1 136 13
 751              		.loc 1 136 41 is_stmt 0
 752              	#APP
 753              	# 136 "src/PCB.cpp" 1
 137              	}
 754              		li a0, 0
 755              	# 0 "" 2
 756              	#NO_APP
 757              	.L32:
 758              		.loc 1 137 1
 759 03d8 83308102 		ld	ra,40(sp)
 760              		.cfi_remember_state
 761              		.cfi_restore 1
GAS LISTING /tmp/ccvmtkdW.s 			page 18


 762 03dc 03340102 		ld	s0,32(sp)
 763              		.cfi_restore 8
 764              		.cfi_def_cfa 2, 48
 765 03e0 83348101 		ld	s1,24(sp)
 766              		.cfi_restore 9
 767              	.LVL52:
 768 03e4 03390101 		ld	s2,16(sp)
 769              		.cfi_restore 18
 770              	.LVL53:
 771 03e8 83398100 		ld	s3,8(sp)
 772              		.cfi_restore 19
 773              	.LVL54:
 774 03ec 033A0100 		ld	s4,0(sp)
 775              		.cfi_restore 20
 776              	.LVL55:
 777 03f0 13010103 		addi	sp,sp,48
 778              		.cfi_def_cfa_offset 0
 779 03f4 67800000 		jr	ra
 780              	.LVL56:
 781              	.L38:
 782              		.cfi_restore_state
 134:src/PCB.cpp   ****             __asm__ volatile("li a0, 0xffffffffffffffff");
 783              		.loc 1 134 13 is_stmt 1
 134:src/PCB.cpp   ****             __asm__ volatile("li a0, 0xffffffffffffffff");
 784              		.loc 1 134 58 is_stmt 0
 785              	#APP
 786              	# 134 "src/PCB.cpp" 1
 787              		li a0, 0xffffffffffffffff
 788              	# 0 "" 2
 789              	#NO_APP
 790 03fc 6FF0DFFD 		j	.L32
 791              	.LVL57:
 792              	.L36:
 793 0400 13090500 		mv	s2,a0
 794              	.LVL58:
 129:src/PCB.cpp   **** 
 795              		.loc 1 129 120
 796 0404 13850400 		mv	a0,s1
 797 0408 97000000 		call	_ZN3PCBdlEPv
 797      E7800000 
 798              	.LVL59:
 799 0410 13050900 		mv	a0,s2
 800              	.LEHB6:
 801 0414 97000000 		call	_Unwind_Resume@plt
 801      E7800000 
 802              	.LVL60:
 803              	.LEHE6:
 804              		.cfi_endproc
 805              	.LFE38:
 806              		.section	.gcc_except_table
 807              	.LLSDA38:
 808 003c FF       		.byte	0xff
 809 003d FF       		.byte	0xff
 810 003e 03       		.byte	0x3
 811 003f 27       		.byte	0x27
 812 0040 00000000 		.4byte	.LEHB4-.LFB38
 813 0044 00000000 		.4byte	.LEHE4-.LEHB4
GAS LISTING /tmp/ccvmtkdW.s 			page 19


 814 0048 00000000 		.4byte	0
 815 004c 00       		.byte	0
 816 004d 00000000 		.4byte	.LEHB5-.LFB38
 817 0051 00000000 		.4byte	.LEHE5-.LEHB5
 818 0055 00000000 		.4byte	.L36-.LFB38
 819 0059 00       		.byte	0
 820 005a 00000000 		.4byte	.LEHB6-.LFB38
 821 005e 00000000 		.4byte	.LEHE6-.LEHB6
 822 0062 00000000 		.4byte	0
 823 0066 00       		.byte	0
 824              		.text
 826              		.globl	_ZN3PCB10savedRegA4E
 827              		.globl	_ZN3PCB16timeSliceCounterE
 828              		.globl	_ZN3PCB7runningE
 829              		.bss
 830              		.align	3
 831              		.set	.LANCHOR0,. + 0
 834              	_ZN3PCB7runningE:
 835 0000 00000000 		.zero	8
 835      00000000 
 838              	_ZN3PCB16timeSliceCounterE:
 839 0008 00000000 		.zero	8
 839      00000000 
 842              	_ZN3PCB10savedRegA4E:
 843 0010 00000000 		.zero	8
 843      00000000 
 844              		.text
 845              	.Letext0:
 846              		.file 3 "src/../h/../lib/hw.h"
 847              		.file 4 "src/../h/Scheduler.hpp"
 848              		.file 5 "src/../h/Riscv.hpp"
 849              		.file 6 "src/../h/SleepPCBList.hpp"
 850              		.file 7 "src/../h/MemoryAllocator.hpp"
 851              		.file 8 "src/../h/syscall_c.h"
 4353              		.align	3
 4356              	DW.ref.__gxx_personality_v0:
 4357 0000 00000000 		.dword	__gxx_personality_v0
 4357      00000000 
 4358              		.ident	"GCC: (Ubuntu 9.3.0-17ubuntu1~20.04) 9.3.0"
 4359              		.section	.note.GNU-stack,"",@progbits
GAS LISTING /tmp/ccvmtkdW.s 			page 20


DEFINED SYMBOLS
                            *ABS*:0000000000000000 PCB.cpp
     /tmp/ccvmtkdW.s:14     .text:0000000000000000 _ZN3PCB6runnerEv
     /tmp/ccvmtkdW.s:18     .text:0000000000000000 .L0 
     /tmp/ccvmtkdW.s:19     .text:0000000000000000 .L0 
     /tmp/ccvmtkdW.s:20     .text:0000000000000004 .L0 
     /tmp/ccvmtkdW.s:23     .text:000000000000000c .L0 
     /tmp/ccvmtkdW.s:24     .text:000000000000000c .L0 
     /tmp/ccvmtkdW.s:26     .text:0000000000000010 .L0 
     /tmp/ccvmtkdW.s:28     .text:0000000000000010 .L0 
     /tmp/ccvmtkdW.s:29     .text:0000000000000010 .L0 
     /tmp/ccvmtkdW.s:33     .text:0000000000000020 .L0 
     /tmp/ccvmtkdW.s:34     .text:0000000000000020 .L0 
     /tmp/ccvmtkdW.s:37     .text:0000000000000028 .L0 
     /tmp/ccvmtkdW.s:38     .text:0000000000000028 .L0 
     /tmp/ccvmtkdW.s:41     .text:0000000000000034 .L0 
     /tmp/ccvmtkdW.s:45     .text:000000000000003c .L0 
     /tmp/ccvmtkdW.s:46     .text:000000000000003c .L0 
     /tmp/ccvmtkdW.s:49     .text:0000000000000044 .L0 
     /tmp/ccvmtkdW.s:50     .text:0000000000000048 .L0 
     /tmp/ccvmtkdW.s:52     .text:000000000000004c .L0 
     /tmp/ccvmtkdW.s:53     .text:000000000000004c .L0 
     /tmp/ccvmtkdW.s:55     .text:0000000000000050 .L0 
     /tmp/ccvmtkdW.s:57     .text:0000000000000054 .L0 
     /tmp/ccvmtkdW.s:63     .text:0000000000000054 _ZN3PCBC2EPFvPvES0_S0_m
     /tmp/ccvmtkdW.s:66     .text:0000000000000054 .L0 
     /tmp/ccvmtkdW.s:68     .text:0000000000000054 .L0 
     /tmp/ccvmtkdW.s:69     .text:0000000000000058 .L0 
     /tmp/ccvmtkdW.s:73     .text:0000000000000064 .L0 
     /tmp/ccvmtkdW.s:74     .text:0000000000000064 .L0 
     /tmp/ccvmtkdW.s:75     .text:0000000000000064 .L0 
     /tmp/ccvmtkdW.s:77     .text:0000000000000068 .L0 
     /tmp/ccvmtkdW.s:81     .text:000000000000006c .L0 
     /tmp/ccvmtkdW.s:88     .text:0000000000000084 .L0 
     /tmp/ccvmtkdW.s:92     .text:000000000000008c .L0 
     /tmp/ccvmtkdW.s:96     .text:000000000000009c .L0 
     /tmp/ccvmtkdW.s:97     .text:000000000000009c .L0 
     /tmp/ccvmtkdW.s:100    .text:00000000000000a4 .L0 
     /tmp/ccvmtkdW.s:101    .text:00000000000000a4 .L0 
     /tmp/ccvmtkdW.s:104    .text:00000000000000a8 .L0 
     /tmp/ccvmtkdW.s:105    .text:00000000000000ac .L0 
     /tmp/ccvmtkdW.s:107    .text:00000000000000b0 .L0 
     /tmp/ccvmtkdW.s:108    .text:00000000000000b0 .L0 
     /tmp/ccvmtkdW.s:110    .text:00000000000000b4 .L0 
     /tmp/ccvmtkdW.s:113    .text:00000000000000b8 .L0 
     /tmp/ccvmtkdW.s:115    .text:00000000000000bc .L0 
     /tmp/ccvmtkdW.s:63     .text:0000000000000054 _ZN3PCBC1EPFvPvES0_S0_m
     /tmp/ccvmtkdW.s:123    .text:00000000000000bc _ZN3PCB5sleepEm
     /tmp/ccvmtkdW.s:126    .text:00000000000000bc .L0 
     /tmp/ccvmtkdW.s:128    .text:00000000000000bc .L0 
     /tmp/ccvmtkdW.s:129    .text:00000000000000c0 .L0 
     /tmp/ccvmtkdW.s:131    .text:00000000000000c4 .L0 
     /tmp/ccvmtkdW.s:133    .text:00000000000000c8 .L0 
     /tmp/ccvmtkdW.s:135    .text:00000000000000c8 .L0 
     /tmp/ccvmtkdW.s:136    .text:00000000000000cc .L0 
     /tmp/ccvmtkdW.s:137    .text:00000000000000cc .L0 
     /tmp/ccvmtkdW.s:139    .text:00000000000000d0 .L0 
GAS LISTING /tmp/ccvmtkdW.s 			page 21


     /tmp/ccvmtkdW.s:141    .text:00000000000000d4 .L0 
     /tmp/ccvmtkdW.s:147    .text:00000000000000d4 _ZN3PCB5startEv
     /tmp/ccvmtkdW.s:150    .text:00000000000000d4 .L0 
     /tmp/ccvmtkdW.s:152    .text:00000000000000d4 .L0 
     /tmp/ccvmtkdW.s:153    .text:00000000000000d8 .L0 
     /tmp/ccvmtkdW.s:156    .text:00000000000000e0 .L0 
     /tmp/ccvmtkdW.s:157    .text:00000000000000e0 .L0 
     /tmp/ccvmtkdW.s:159    .text:00000000000000e4 .L0 
     /tmp/ccvmtkdW.s:161    .text:00000000000000e4 .L0 
     /tmp/ccvmtkdW.s:162    .text:00000000000000e4 .L0 
     /tmp/ccvmtkdW.s:165    .text:00000000000000ec .L0 
     /tmp/ccvmtkdW.s:166    .text:00000000000000f0 .L0 
     /tmp/ccvmtkdW.s:168    .text:00000000000000f4 .L0 
     /tmp/ccvmtkdW.s:169    .text:00000000000000f4 .L0 
     /tmp/ccvmtkdW.s:171    .text:00000000000000f8 .L0 
     /tmp/ccvmtkdW.s:173    .text:00000000000000fc .L0 
     /tmp/ccvmtkdW.s:179    .text:00000000000000fc _ZN3PCB8dispatchEv
     /tmp/ccvmtkdW.s:182    .text:00000000000000fc .L0 
     /tmp/ccvmtkdW.s:183    .text:00000000000000fc .L0 
     /tmp/ccvmtkdW.s:184    .text:0000000000000100 .L0 
     /tmp/ccvmtkdW.s:188    .text:000000000000010c .L0 
     /tmp/ccvmtkdW.s:189    .text:000000000000010c .L0 
     /tmp/ccvmtkdW.s:190    .text:000000000000010c .L0 
     /tmp/ccvmtkdW.s:192    .text:0000000000000110 .L0 
     /tmp/ccvmtkdW.s:194    .text:0000000000000110 .L0 
     /tmp/ccvmtkdW.s:195    .text:0000000000000110 .L0 
     /tmp/ccvmtkdW.s:201    .text:0000000000000118 .L0 
     /tmp/ccvmtkdW.s:202    .text:0000000000000118 .L0 
     /tmp/ccvmtkdW.s:203    .text:0000000000000118 .L0 
     /tmp/ccvmtkdW.s:208    .text:000000000000011c .L0 
     /tmp/ccvmtkdW.s:212    .text:0000000000000124 .L0 
     /tmp/ccvmtkdW.s:213    .text:0000000000000124 .L0 
     /tmp/ccvmtkdW.s:216    .text:000000000000012c .L0 
     /tmp/ccvmtkdW.s:221    .text:0000000000000134 .L0 
     /tmp/ccvmtkdW.s:222    .text:0000000000000134 .L0 
     /tmp/ccvmtkdW.s:223    .text:0000000000000134 .L0 
     /tmp/ccvmtkdW.s:229    .text:000000000000013c .L0 
     /tmp/ccvmtkdW.s:230    .text:000000000000013c .L0 
     /tmp/ccvmtkdW.s:235    .text:000000000000014c .L0 
     /tmp/ccvmtkdW.s:236    .text:0000000000000150 .L0 
     /tmp/ccvmtkdW.s:237    .text:0000000000000150 .L0 
     /tmp/ccvmtkdW.s:239    .text:0000000000000154 .L0 
     /tmp/ccvmtkdW.s:240    .text:0000000000000154 .L0 
     /tmp/ccvmtkdW.s:242    .text:0000000000000158 .L0 
     /tmp/ccvmtkdW.s:245    .text:000000000000015c .L0 
     /tmp/ccvmtkdW.s:249    .text:0000000000000160 .L0 
     /tmp/ccvmtkdW.s:251    .text:0000000000000160 .L0 
     /tmp/ccvmtkdW.s:252    .text:0000000000000160 .L0 
     /tmp/ccvmtkdW.s:256    .text:0000000000000170 .L0 
     /tmp/ccvmtkdW.s:262    .text:0000000000000170 _ZN3PCBnwEm
     /tmp/ccvmtkdW.s:265    .text:0000000000000170 .L0 
     /tmp/ccvmtkdW.s:267    .text:0000000000000170 .L0 
     /tmp/ccvmtkdW.s:268    .text:0000000000000174 .L0 
     /tmp/ccvmtkdW.s:271    .text:000000000000017c .L0 
     /tmp/ccvmtkdW.s:272    .text:000000000000017c .L0 
     /tmp/ccvmtkdW.s:274    .text:0000000000000180 .L0 
     /tmp/ccvmtkdW.s:276    .text:0000000000000180 .L0 
GAS LISTING /tmp/ccvmtkdW.s 			page 22


     /tmp/ccvmtkdW.s:277    .text:0000000000000180 .L0 
     /tmp/ccvmtkdW.s:280    .text:0000000000000188 .L0 
     /tmp/ccvmtkdW.s:281    .text:000000000000018c .L0 
     /tmp/ccvmtkdW.s:283    .text:0000000000000190 .L0 
     /tmp/ccvmtkdW.s:284    .text:0000000000000190 .L0 
     /tmp/ccvmtkdW.s:286    .text:0000000000000194 .L0 
     /tmp/ccvmtkdW.s:288    .text:0000000000000198 .L0 
     /tmp/ccvmtkdW.s:294    .text:0000000000000198 _ZN3PCBdlEPv
     /tmp/ccvmtkdW.s:297    .text:0000000000000198 .L0 
     /tmp/ccvmtkdW.s:299    .text:0000000000000198 .L0 
     /tmp/ccvmtkdW.s:300    .text:000000000000019c .L0 
     /tmp/ccvmtkdW.s:303    .text:00000000000001a4 .L0 
     /tmp/ccvmtkdW.s:304    .text:00000000000001a4 .L0 
     /tmp/ccvmtkdW.s:306    .text:00000000000001a8 .L0 
     /tmp/ccvmtkdW.s:308    .text:00000000000001a8 .L0 
     /tmp/ccvmtkdW.s:309    .text:00000000000001a8 .L0 
     /tmp/ccvmtkdW.s:312    .text:00000000000001b0 .L0 
     /tmp/ccvmtkdW.s:313    .text:00000000000001b4 .L0 
     /tmp/ccvmtkdW.s:315    .text:00000000000001b8 .L0 
     /tmp/ccvmtkdW.s:316    .text:00000000000001b8 .L0 
     /tmp/ccvmtkdW.s:318    .text:00000000000001bc .L0 
     /tmp/ccvmtkdW.s:320    .text:00000000000001c0 .L0 
     /tmp/ccvmtkdW.s:326    .text:00000000000001c0 _ZN3PCBD2Ev
     /tmp/ccvmtkdW.s:329    .text:00000000000001c0 .L0 
     /tmp/ccvmtkdW.s:4356   .data.rel.local.DW.ref.__gxx_personality_v0:0000000000000000 DW.ref.__gxx_personality_v0
     /tmp/ccvmtkdW.s:333    .text:00000000000001c0 .L0 
     /tmp/ccvmtkdW.s:334    .text:00000000000001c4 .L0 
     /tmp/ccvmtkdW.s:337    .text:00000000000001cc .L0 
     /tmp/ccvmtkdW.s:338    .text:00000000000001cc .L0 
     /tmp/ccvmtkdW.s:340    .text:00000000000001d0 .L0 
     /tmp/ccvmtkdW.s:343    .text:00000000000001d0 .L0 
     /tmp/ccvmtkdW.s:344    .text:00000000000001d0 .L0 
     /tmp/ccvmtkdW.s:350    .text:00000000000001dc .L0 
     /tmp/ccvmtkdW.s:351    .text:00000000000001e0 .L0 
     /tmp/ccvmtkdW.s:353    .text:00000000000001e4 .L0 
     /tmp/ccvmtkdW.s:354    .text:00000000000001e4 .L0 
     /tmp/ccvmtkdW.s:356    .text:00000000000001e8 .L0 
     /tmp/ccvmtkdW.s:358    .text:00000000000001ec .L0 
     /tmp/ccvmtkdW.s:326    .text:00000000000001c0 _ZN3PCBD1Ev
     /tmp/ccvmtkdW.s:374    .text:00000000000001ec _ZN3PCB10initializeEv
     /tmp/ccvmtkdW.s:377    .text:00000000000001ec .L0 
     /tmp/ccvmtkdW.s:380    .text:00000000000001ec .L0 
     /tmp/ccvmtkdW.s:381    .text:00000000000001f0 .L0 
     /tmp/ccvmtkdW.s:386    .text:0000000000000200 .L0 
     /tmp/ccvmtkdW.s:387    .text:0000000000000200 .L0 
     /tmp/ccvmtkdW.s:388    .text:0000000000000200 .L0 
     /tmp/ccvmtkdW.s:389    .text:0000000000000200 .L0 
     /tmp/ccvmtkdW.s:391    .text:0000000000000204 .L0 
     /tmp/ccvmtkdW.s:393    .text:0000000000000204 .L0 
     /tmp/ccvmtkdW.s:394    .text:0000000000000204 .L0 
     /tmp/ccvmtkdW.s:409    .text:000000000000022c .L0 
     /tmp/ccvmtkdW.s:410    .text:000000000000022c .L0 
     /tmp/ccvmtkdW.s:414    .text:0000000000000234 .L0 
     /tmp/ccvmtkdW.s:415    .text:0000000000000234 .L0 
     /tmp/ccvmtkdW.s:419    .text:000000000000023c .L0 
     /tmp/ccvmtkdW.s:424    .text:0000000000000244 .L0 
     /tmp/ccvmtkdW.s:425    .text:0000000000000244 .L0 
GAS LISTING /tmp/ccvmtkdW.s 			page 23


     /tmp/ccvmtkdW.s:426    .text:0000000000000244 .L0 
     /tmp/ccvmtkdW.s:432    .text:000000000000024c .L0 
     /tmp/ccvmtkdW.s:433    .text:0000000000000250 .L0 
     /tmp/ccvmtkdW.s:434    .text:0000000000000250 .L0 
     /tmp/ccvmtkdW.s:436    .text:0000000000000254 .L0 
     /tmp/ccvmtkdW.s:437    .text:0000000000000254 .L0 
     /tmp/ccvmtkdW.s:439    .text:0000000000000258 .L0 
     /tmp/ccvmtkdW.s:442    .text:000000000000025c .L0 
     /tmp/ccvmtkdW.s:444    .text:0000000000000260 .L0 
     /tmp/ccvmtkdW.s:447    .text:0000000000000264 .L0 
     /tmp/ccvmtkdW.s:450    .text:0000000000000268 .L0 
     /tmp/ccvmtkdW.s:458    .text:0000000000000280 .L0 
     /tmp/ccvmtkdW.s:487    .text:0000000000000280 _ZN3PCB10isFinishedEv
     /tmp/ccvmtkdW.s:490    .text:0000000000000280 .L0 
     /tmp/ccvmtkdW.s:492    .text:0000000000000280 .L0 
     /tmp/ccvmtkdW.s:493    .text:0000000000000284 .L0 
     /tmp/ccvmtkdW.s:495    .text:0000000000000288 .L0 
     /tmp/ccvmtkdW.s:497    .text:000000000000028c .L0 
     /tmp/ccvmtkdW.s:499    .text:000000000000028c .L0 
     /tmp/ccvmtkdW.s:500    .text:000000000000028c .L0 
     /tmp/ccvmtkdW.s:503    .text:0000000000000290 .L0 
     /tmp/ccvmtkdW.s:505    .text:0000000000000294 .L0 
     /tmp/ccvmtkdW.s:507    .text:000000000000029c .L0 
     /tmp/ccvmtkdW.s:508    .text:000000000000029c .L0 
     /tmp/ccvmtkdW.s:510    .text:00000000000002a0 .L0 
     /tmp/ccvmtkdW.s:512    .text:00000000000002a4 .L0 
     /tmp/ccvmtkdW.s:523    .text:00000000000002a4 _ZN3PCB17threadExitHandlerEv
     /tmp/ccvmtkdW.s:526    .text:00000000000002a4 .L0 
     /tmp/ccvmtkdW.s:527    .text:00000000000002a4 .L0 
     /tmp/ccvmtkdW.s:528    .text:00000000000002a8 .L0 
     /tmp/ccvmtkdW.s:531    .text:00000000000002b0 .L0 
     /tmp/ccvmtkdW.s:532    .text:00000000000002b0 .L0 
     /tmp/ccvmtkdW.s:534    .text:00000000000002b4 .L0 
     /tmp/ccvmtkdW.s:536    .text:00000000000002b4 .L0 
     /tmp/ccvmtkdW.s:537    .text:00000000000002b4 .L0 
     /tmp/ccvmtkdW.s:541    .text:00000000000002c4 .L0 
     /tmp/ccvmtkdW.s:542    .text:00000000000002c4 .L0 
     /tmp/ccvmtkdW.s:545    .text:00000000000002d0 .L0 
     /tmp/ccvmtkdW.s:546    .text:00000000000002d0 .L0 
     /tmp/ccvmtkdW.s:551    .text:00000000000002d4 .L0 
     /tmp/ccvmtkdW.s:552    .text:00000000000002d4 .L0 
     /tmp/ccvmtkdW.s:558    .text:00000000000002dc .L0 
     /tmp/ccvmtkdW.s:559    .text:00000000000002dc .L0 
     /tmp/ccvmtkdW.s:562    .text:00000000000002e4 .L0 
         src/PCB.cpp:99     .text:00000000000002e4 .L0 
     /tmp/ccvmtkdW.s:569    .text:00000000000002e8 .L0 
     /tmp/ccvmtkdW.s:570    .text:00000000000002ec .L0 
     /tmp/ccvmtkdW.s:572    .text:00000000000002f0 .L0 
     /tmp/ccvmtkdW.s:573    .text:00000000000002f0 .L0 
     /tmp/ccvmtkdW.s:575    .text:00000000000002f4 .L0 
     /tmp/ccvmtkdW.s:577    .text:00000000000002f8 .L0 
     /tmp/ccvmtkdW.s:583    .text:00000000000002f8 _ZN3PCB21threadDispatchHandlerEv
     /tmp/ccvmtkdW.s:586    .text:00000000000002f8 .L0 
     /tmp/ccvmtkdW.s:587    .text:00000000000002f8 .L0 
     /tmp/ccvmtkdW.s:588    .text:00000000000002fc .L0 
     /tmp/ccvmtkdW.s:591    .text:0000000000000304 .L0 
     /tmp/ccvmtkdW.s:592    .text:0000000000000304 .L0 
GAS LISTING /tmp/ccvmtkdW.s 			page 24


     /tmp/ccvmtkdW.s:594    .text:0000000000000308 .L0 
     /tmp/ccvmtkdW.s:596    .text:0000000000000308 .L0 
     /tmp/ccvmtkdW.s:597    .text:0000000000000308 .L0 
     /tmp/ccvmtkdW.s:599    .text:0000000000000310 .L0 
     /tmp/ccvmtkdW.s:600    .text:0000000000000310 .L0 
     /tmp/ccvmtkdW.s:603    .text:0000000000000318 .L0 
     /tmp/ccvmtkdW.s:604    .text:000000000000031c .L0 
     /tmp/ccvmtkdW.s:606    .text:0000000000000320 .L0 
     /tmp/ccvmtkdW.s:607    .text:0000000000000320 .L0 
     /tmp/ccvmtkdW.s:609    .text:0000000000000324 .L0 
     /tmp/ccvmtkdW.s:611    .text:0000000000000328 .L0 
     /tmp/ccvmtkdW.s:617    .text:0000000000000328 _ZN3PCB18threadSleepHandlerEv
     /tmp/ccvmtkdW.s:620    .text:0000000000000328 .L0 
     /tmp/ccvmtkdW.s:621    .text:0000000000000328 .L0 
     /tmp/ccvmtkdW.s:622    .text:000000000000032c .L0 
     /tmp/ccvmtkdW.s:625    .text:0000000000000334 .L0 
     /tmp/ccvmtkdW.s:626    .text:0000000000000334 .L0 
     /tmp/ccvmtkdW.s:628    .text:0000000000000338 .L0 
     /tmp/ccvmtkdW.s:630    .text:0000000000000338 .L0 
     /tmp/ccvmtkdW.s:631    .text:0000000000000338 .L0 
         src/PCB.cpp:111    .text:0000000000000338 .L0 
     /tmp/ccvmtkdW.s:638    .text:000000000000033c .L0 
     /tmp/ccvmtkdW.s:640    .text:000000000000033c .L0 
     /tmp/ccvmtkdW.s:643    .text:0000000000000348 .L0 
     /tmp/ccvmtkdW.s:644    .text:0000000000000348 .L0 
     /tmp/ccvmtkdW.s:649    .text:000000000000034c .L0 
     /tmp/ccvmtkdW.s:650    .text:000000000000034c .L0 
     /tmp/ccvmtkdW.s:655    .text:0000000000000350 .L0 
     /tmp/ccvmtkdW.s:656    .text:0000000000000350 .L0 
     /tmp/ccvmtkdW.s:659    .text:0000000000000358 .L0 
     /tmp/ccvmtkdW.s:660    .text:0000000000000358 .L0 
     /tmp/ccvmtkdW.s:663    .text:0000000000000360 .L0 
         src/PCB.cpp:116    .text:0000000000000360 .L0 
     /tmp/ccvmtkdW.s:670    .text:0000000000000364 .L0 
     /tmp/ccvmtkdW.s:671    .text:0000000000000368 .L0 
     /tmp/ccvmtkdW.s:673    .text:000000000000036c .L0 
     /tmp/ccvmtkdW.s:674    .text:000000000000036c .L0 
     /tmp/ccvmtkdW.s:676    .text:0000000000000370 .L0 
     /tmp/ccvmtkdW.s:678    .text:0000000000000374 .L0 
     /tmp/ccvmtkdW.s:684    .text:0000000000000374 _ZN3PCB19threadCreateHandlerEv
     /tmp/ccvmtkdW.s:687    .text:0000000000000374 .L0 
     /tmp/ccvmtkdW.s:690    .text:0000000000000374 .L0 
     /tmp/ccvmtkdW.s:691    .text:0000000000000378 .L0 
     /tmp/ccvmtkdW.s:698    .text:0000000000000390 .L0 
     /tmp/ccvmtkdW.s:699    .text:0000000000000390 .L0 
     /tmp/ccvmtkdW.s:700    .text:0000000000000390 .L0 
     /tmp/ccvmtkdW.s:701    .text:0000000000000390 .L0 
     /tmp/ccvmtkdW.s:702    .text:0000000000000390 .L0 
     /tmp/ccvmtkdW.s:703    .text:0000000000000390 .L0 
     /tmp/ccvmtkdW.s:705    .text:0000000000000394 .L0 
     /tmp/ccvmtkdW.s:707    .text:0000000000000394 .L0 
     /tmp/ccvmtkdW.s:708    .text:0000000000000394 .L0 
     /tmp/ccvmtkdW.s:709    .text:0000000000000394 .L0 
     /tmp/ccvmtkdW.s:710    .text:0000000000000394 .L0 
         src/PCB.cpp:124    .text:0000000000000394 .L0 
     /tmp/ccvmtkdW.s:717    .text:0000000000000398 .L0 
         src/PCB.cpp:125    .text:0000000000000398 .L0 
GAS LISTING /tmp/ccvmtkdW.s 			page 25


     /tmp/ccvmtkdW.s:723    .text:000000000000039c .L0 
         src/PCB.cpp:126    .text:000000000000039c .L0 
     /tmp/ccvmtkdW.s:729    .text:00000000000003a0 .L0 
     /tmp/ccvmtkdW.s:731    .text:00000000000003a0 .L0 
     /tmp/ccvmtkdW.s:746    .text:00000000000003cc .L0 
     /tmp/ccvmtkdW.s:747    .text:00000000000003cc .L0 
     /tmp/ccvmtkdW.s:749    .text:00000000000003d0 .L0 
     /tmp/ccvmtkdW.s:751    .text:00000000000003d4 .L0 
         src/PCB.cpp:136    .text:00000000000003d4 .L0 
     /tmp/ccvmtkdW.s:759    .text:00000000000003d8 .L0 
     /tmp/ccvmtkdW.s:760    .text:00000000000003dc .L0 
     /tmp/ccvmtkdW.s:761    .text:00000000000003dc .L0 
     /tmp/ccvmtkdW.s:763    .text:00000000000003e0 .L0 
     /tmp/ccvmtkdW.s:764    .text:00000000000003e0 .L0 
     /tmp/ccvmtkdW.s:766    .text:00000000000003e4 .L0 
     /tmp/ccvmtkdW.s:769    .text:00000000000003e8 .L0 
     /tmp/ccvmtkdW.s:772    .text:00000000000003ec .L0 
     /tmp/ccvmtkdW.s:775    .text:00000000000003f0 .L0 
     /tmp/ccvmtkdW.s:778    .text:00000000000003f4 .L0 
     /tmp/ccvmtkdW.s:782    .text:00000000000003f8 .L0 
     /tmp/ccvmtkdW.s:784    .text:00000000000003f8 .L0 
         src/PCB.cpp:134    .text:00000000000003f8 .L0 
     /tmp/ccvmtkdW.s:796    .text:0000000000000404 .L0 
     /tmp/ccvmtkdW.s:804    .text:000000000000041c .L0 
     /tmp/ccvmtkdW.s:842    .bss:0000000000000010 _ZN3PCB10savedRegA4E
     /tmp/ccvmtkdW.s:838    .bss:0000000000000008 _ZN3PCB16timeSliceCounterE
     /tmp/ccvmtkdW.s:834    .bss:0000000000000000 _ZN3PCB7runningE
     /tmp/ccvmtkdW.s:831    .bss:0000000000000000 .LANCHOR0
     /tmp/ccvmtkdW.s:852    .text:000000000000041c .L0 
     /tmp/ccvmtkdW.s:8      .rodata.str1.8:0000000000000000 .LC0
     /tmp/ccvmtkdW.s:29     .text:0000000000000010 .L0 
     /tmp/ccvmtkdW.s:38     .text:0000000000000028 .L0 
     /tmp/ccvmtkdW.s:93     .text:0000000000000090 .L0 
     /tmp/ccvmtkdW.s:195    .text:0000000000000110 .L0 
     /tmp/ccvmtkdW.s:216    .text:000000000000012c .L0 
     /tmp/ccvmtkdW.s:419    .text:000000000000023c .L0 
     /tmp/ccvmtkdW.s:517    .rodata.str1.8:0000000000000018 .LC1
     /tmp/ccvmtkdW.s:537    .text:00000000000002b4 .L0 
     /tmp/ccvmtkdW.s:542    .text:00000000000002c4 .L0 
     /tmp/ccvmtkdW.s:597    .text:0000000000000308 .L0 
     /tmp/ccvmtkdW.s:640    .text:000000000000033c .L0 
     /tmp/ccvmtkdW.s:738    .text:00000000000003b4 .L0 
     /tmp/ccvmtkdW.s:248    .text:0000000000000160 .L12
     /tmp/ccvmtkdW.s:210    .text:0000000000000124 .L10
     /tmp/ccvmtkdW.s:781    .text:00000000000003f8 .L38
     /tmp/ccvmtkdW.s:757    .text:00000000000003d8 .L32
     /tmp/ccvmtkdW.s:395    .text:0000000000000208 .LEHB0
     /tmp/ccvmtkdW.s:375    .text:00000000000001ec .LFB33
     /tmp/ccvmtkdW.s:398    .text:0000000000000210 .LEHE0
     /tmp/ccvmtkdW.s:404    .text:0000000000000224 .LEHB1
     /tmp/ccvmtkdW.s:407    .text:000000000000022c .LEHE1
     /tmp/ccvmtkdW.s:446    .text:0000000000000264 .L21
     /tmp/ccvmtkdW.s:413    .text:0000000000000234 .LEHB2
     /tmp/ccvmtkdW.s:417    .text:000000000000023c .LEHE2
     /tmp/ccvmtkdW.s:454    .text:0000000000000278 .LEHB3
     /tmp/ccvmtkdW.s:457    .text:0000000000000280 .LEHE3
     /tmp/ccvmtkdW.s:732    .text:00000000000003a4 .LEHB4
GAS LISTING /tmp/ccvmtkdW.s 			page 26


     /tmp/ccvmtkdW.s:685    .text:0000000000000374 .LFB38
     /tmp/ccvmtkdW.s:735    .text:00000000000003ac .LEHE4
     /tmp/ccvmtkdW.s:741    .text:00000000000003c4 .LEHB5
     /tmp/ccvmtkdW.s:744    .text:00000000000003cc .LEHE5
     /tmp/ccvmtkdW.s:792    .text:0000000000000400 .L36
     /tmp/ccvmtkdW.s:800    .text:0000000000000414 .LEHB6
     /tmp/ccvmtkdW.s:803    .text:000000000000041c .LEHE6
     /tmp/ccvmtkdW.s:2584   .debug_abbrev:0000000000000000 .Ldebug_abbrev0
     /tmp/ccvmtkdW.s:4002   .debug_str:0000000000000191 .LASF184
     /tmp/ccvmtkdW.s:4290   .debug_str:0000000000000b01 .LASF185
     /tmp/ccvmtkdW.s:4280   .debug_str:0000000000000aa3 .LASF186
     /tmp/ccvmtkdW.s:5      .text:0000000000000000 .Ltext0
     /tmp/ccvmtkdW.s:845    .text:000000000000041c .Letext0
     /tmp/ccvmtkdW.s:3956   .debug_line:0000000000000000 .Ldebug_line0
     /tmp/ccvmtkdW.s:4090   .debug_str:00000000000004c6 .LASF0
     /tmp/ccvmtkdW.s:4120   .debug_str:00000000000005bb .LASF1
     /tmp/ccvmtkdW.s:4218   .debug_str:00000000000008fb .LASF2
     /tmp/ccvmtkdW.s:4228   .debug_str:0000000000000949 .LASF4
     /tmp/ccvmtkdW.s:4106   .debug_str:0000000000000541 .LASF3
     /tmp/ccvmtkdW.s:3972   .debug_str:0000000000000061 .LASF5
     /tmp/ccvmtkdW.s:4196   .debug_str:0000000000000839 .LASF6
     /tmp/ccvmtkdW.s:4184   .debug_str:00000000000007e1 .LASF7
     /tmp/ccvmtkdW.s:4112   .debug_str:0000000000000582 .LASF8
     /tmp/ccvmtkdW.s:4074   .debug_str:0000000000000445 .LASF9
     /tmp/ccvmtkdW.s:4078   .debug_str:0000000000000471 .LASF10
     /tmp/ccvmtkdW.s:4016   .debug_str:00000000000002aa .LASF11
     /tmp/ccvmtkdW.s:4064   .debug_str:0000000000000419 .LASF12
     /tmp/ccvmtkdW.s:4022   .debug_str:00000000000002cc .LASF13
     /tmp/ccvmtkdW.s:4014   .debug_str:000000000000029a .LASF14
     /tmp/ccvmtkdW.s:4260   .debug_str:0000000000000a3b .LASF15
     /tmp/ccvmtkdW.s:4058   .debug_str:00000000000003d0 .LASF16
     /tmp/ccvmtkdW.s:4252   .debug_str:00000000000009ea .LASF17
     /tmp/ccvmtkdW.s:4268   .debug_str:0000000000000a5f .LASF187
     /tmp/ccvmtkdW.s:4010   .debug_str:0000000000000280 .LASF18
     /tmp/ccvmtkdW.s:4246   .debug_str:00000000000009c9 .LASF19
     /tmp/ccvmtkdW.s:4020   .debug_str:00000000000002c2 .LASF20
     /tmp/ccvmtkdW.s:3998   .debug_str:000000000000017a .LASF21
     /tmp/ccvmtkdW.s:4188   .debug_str:000000000000080a .LASF22
     /tmp/ccvmtkdW.s:4018   .debug_str:00000000000002b9 .LASF23
     /tmp/ccvmtkdW.s:4262   .debug_str:0000000000000a47 .LASF78
     /tmp/ccvmtkdW.s:4084   .debug_str:000000000000049d .LASF24
     /tmp/ccvmtkdW.s:3976   .debug_str:0000000000000082 .LASF29
     /tmp/ccvmtkdW.s:4284   .debug_str:0000000000000ace .LASF188
     /tmp/ccvmtkdW.s:4172   .debug_str:0000000000000788 .LASF189
     /tmp/ccvmtkdW.s:4118   .debug_str:00000000000005b6 .LASF25
     /tmp/ccvmtkdW.s:4334   .debug_str:0000000000000c2a .LASF27
     /tmp/ccvmtkdW.s:4328   .debug_str:0000000000000bfa .LASF26
     /tmp/ccvmtkdW.s:4274   .debug_str:0000000000000a75 .LASF28
     /tmp/ccvmtkdW.s:4044   .debug_str:0000000000000379 .LASF52
     /tmp/ccvmtkdW.s:3984   .debug_str:00000000000000da .LASF54
     /tmp/ccvmtkdW.s:4122   .debug_str:00000000000005ce .LASF34
     /tmp/ccvmtkdW.s:4176   .debug_str:00000000000007a0 .LASF36
     /tmp/ccvmtkdW.s:4270   .debug_str:0000000000000a65 .LASF30
     /tmp/ccvmtkdW.s:4238   .debug_str:0000000000000980 .LASF31
     /tmp/ccvmtkdW.s:4124   .debug_str:00000000000005d4 .LASF38
     /tmp/ccvmtkdW.s:4128   .debug_str:00000000000005ff .LASF40
     /tmp/ccvmtkdW.s:4338   .debug_str:0000000000000c4e .LASF32
GAS LISTING /tmp/ccvmtkdW.s 			page 27


     /tmp/ccvmtkdW.s:4060   .debug_str:00000000000003e6 .LASF33
     /tmp/ccvmtkdW.s:3964   .debug_str:000000000000002a .LASF35
     /tmp/ccvmtkdW.s:4102   .debug_str:0000000000000528 .LASF37
     /tmp/ccvmtkdW.s:4242   .debug_str:00000000000009a2 .LASF39
     /tmp/ccvmtkdW.s:4150   .debug_str:00000000000006b3 .LASF41
     /tmp/ccvmtkdW.s:4226   .debug_str:0000000000000940 .LASF42
     /tmp/ccvmtkdW.s:4256   .debug_str:0000000000000a18 .LASF43
     /tmp/ccvmtkdW.s:4152   .debug_str:00000000000006c6 .LASF44
     /tmp/ccvmtkdW.s:3960   .debug_str:000000000000000b .LASF45
     /tmp/ccvmtkdW.s:4314   .debug_str:0000000000000b9a .LASF46
     /tmp/ccvmtkdW.s:4182   .debug_str:00000000000007c7 .LASF47
     /tmp/ccvmtkdW.s:4250   .debug_str:00000000000009dc .LASF48
     /tmp/ccvmtkdW.s:4198   .debug_str:0000000000000840 .LASF49
     /tmp/ccvmtkdW.s:4040   .debug_str:0000000000000357 .LASF50
     /tmp/ccvmtkdW.s:4320   .debug_str:0000000000000bcb .LASF51
     /tmp/ccvmtkdW.s:4108   .debug_str:0000000000000553 .LASF58
     /tmp/ccvmtkdW.s:4248   .debug_str:00000000000009d1 .LASF53
     /tmp/ccvmtkdW.s:4332   .debug_str:0000000000000c14 .LASF55
     /tmp/ccvmtkdW.s:4264   .debug_str:0000000000000a4f .LASF56
     /tmp/ccvmtkdW.s:4032   .debug_str:0000000000000323 .LASF57
     /tmp/ccvmtkdW.s:4234   .debug_str:000000000000096a .LASF59
     /tmp/ccvmtkdW.s:4092   .debug_str:00000000000004d3 .LASF60
     /tmp/ccvmtkdW.s:4160   .debug_str:0000000000000700 .LASF61
     /tmp/ccvmtkdW.s:4026   .debug_str:00000000000002ed .LASF62
     /tmp/ccvmtkdW.s:4202   .debug_str:0000000000000853 .LASF63
     /tmp/ccvmtkdW.s:4348   .debug_str:0000000000000c86 .LASF64
     /tmp/ccvmtkdW.s:4164   .debug_str:0000000000000726 .LASF65
     /tmp/ccvmtkdW.s:4224   .debug_str:000000000000092d .LASF66
     /tmp/ccvmtkdW.s:4244   .debug_str:00000000000009ab .LASF67
     /tmp/ccvmtkdW.s:4278   .debug_str:0000000000000a99 .LASF68
     /tmp/ccvmtkdW.s:4178   .debug_str:00000000000007b0 .LASF69
     /tmp/ccvmtkdW.s:4326   .debug_str:0000000000000bec .LASF70
     /tmp/ccvmtkdW.s:3990   .debug_str:0000000000000115 .LASF72
     /tmp/ccvmtkdW.s:4094   .debug_str:00000000000004e7 .LASF71
     /tmp/ccvmtkdW.s:4008   .debug_str:0000000000000254 .LASF73
     /tmp/ccvmtkdW.s:4312   .debug_str:0000000000000b93 .LASF190
     /tmp/ccvmtkdW.s:4006   .debug_str:0000000000000243 .LASF191
     /tmp/ccvmtkdW.s:3962   .debug_str:0000000000000025 .LASF74
     /tmp/ccvmtkdW.s:4294   .debug_str:0000000000000b16 .LASF75
     /tmp/ccvmtkdW.s:4132   .debug_str:0000000000000632 .LASF76
     /tmp/ccvmtkdW.s:4046   .debug_str:0000000000000382 .LASF77
     /tmp/ccvmtkdW.s:4282   .debug_str:0000000000000ac6 .LASF79
     /tmp/ccvmtkdW.s:4072   .debug_str:000000000000043b .LASF80
     /tmp/ccvmtkdW.s:3978   .debug_str:000000000000008d .LASF192
     /tmp/ccvmtkdW.s:4330   .debug_str:0000000000000c00 .LASF193
     /tmp/ccvmtkdW.s:3994   .debug_str:0000000000000155 .LASF81
     /tmp/ccvmtkdW.s:4174   .debug_str:000000000000078d .LASF82
     /tmp/ccvmtkdW.s:4272   .debug_str:0000000000000a6d .LASF83
     /tmp/ccvmtkdW.s:4212   .debug_str:00000000000008c7 .LASF110
     /tmp/ccvmtkdW.s:4004   .debug_str:000000000000023d .LASF84
     /tmp/ccvmtkdW.s:4158   .debug_str:00000000000006ea .LASF85
     /tmp/ccvmtkdW.s:4240   .debug_str:0000000000000991 .LASF86
     /tmp/ccvmtkdW.s:4024   .debug_str:00000000000002dc .LASF87
     /tmp/ccvmtkdW.s:4302   .debug_str:0000000000000b54 .LASF88
     /tmp/ccvmtkdW.s:4086   .debug_str:00000000000004a3 .LASF89
     /tmp/ccvmtkdW.s:4254   .debug_str:0000000000000a00 .LASF90
     /tmp/ccvmtkdW.s:4180   .debug_str:00000000000007bc .LASF91
GAS LISTING /tmp/ccvmtkdW.s 			page 28


     /tmp/ccvmtkdW.s:4138   .debug_str:000000000000064b .LASF92
     /tmp/ccvmtkdW.s:4056   .debug_str:00000000000003c6 .LASF93
     /tmp/ccvmtkdW.s:4186   .debug_str:00000000000007f4 .LASF94
     /tmp/ccvmtkdW.s:4140   .debug_str:0000000000000663 .LASF95
     /tmp/ccvmtkdW.s:4298   .debug_str:0000000000000b2c .LASF96
     /tmp/ccvmtkdW.s:4296   .debug_str:0000000000000b1b .LASF97
     /tmp/ccvmtkdW.s:4126   .debug_str:00000000000005e1 .LASF98
     /tmp/ccvmtkdW.s:4100   .debug_str:0000000000000516 .LASF99
     /tmp/ccvmtkdW.s:4028   .debug_str:00000000000002ff .LASF100
     /tmp/ccvmtkdW.s:4318   .debug_str:0000000000000bbf .LASF101
     /tmp/ccvmtkdW.s:3986   .debug_str:00000000000000ed .LASF102
     /tmp/ccvmtkdW.s:4194   .debug_str:000000000000082c .LASF103
     /tmp/ccvmtkdW.s:3974   .debug_str:0000000000000068 .LASF104
     /tmp/ccvmtkdW.s:4236   .debug_str:0000000000000972 .LASF105
     /tmp/ccvmtkdW.s:4210   .debug_str:00000000000008ac .LASF106
     /tmp/ccvmtkdW.s:4154   .debug_str:00000000000006d5 .LASF107
     /tmp/ccvmtkdW.s:4306   .debug_str:0000000000000b64 .LASF108
     /tmp/ccvmtkdW.s:4292   .debug_str:0000000000000b0d .LASF109
     /tmp/ccvmtkdW.s:3968   .debug_str:0000000000000042 .LASF111
     /tmp/ccvmtkdW.s:4344   .debug_str:0000000000000c75 .LASF112
     /tmp/ccvmtkdW.s:4168   .debug_str:000000000000075b .LASF113
     /tmp/ccvmtkdW.s:4200   .debug_str:000000000000084c .LASF114
     /tmp/ccvmtkdW.s:4204   .debug_str:0000000000000870 .LASF115
     /tmp/ccvmtkdW.s:4162   .debug_str:000000000000071f .LASF116
     /tmp/ccvmtkdW.s:4114   .debug_str:0000000000000595 .LASF117
     /tmp/ccvmtkdW.s:4308   .debug_str:0000000000000b7e .LASF118
     /tmp/ccvmtkdW.s:4276   .debug_str:0000000000000a85 .LASF119
     /tmp/ccvmtkdW.s:4156   .debug_str:00000000000006e2 .LASF120
     /tmp/ccvmtkdW.s:4166   .debug_str:0000000000000747 .LASF121
     /tmp/ccvmtkdW.s:4146   .debug_str:0000000000000699 .LASF122
     /tmp/ccvmtkdW.s:4206   .debug_str:0000000000000883 .LASF123
     /tmp/ccvmtkdW.s:4346   .debug_str:0000000000000c7e .LASF124
     /tmp/ccvmtkdW.s:4098   .debug_str:0000000000000502 .LASF125
     /tmp/ccvmtkdW.s:4258   .debug_str:0000000000000a34 .LASF126
     /tmp/ccvmtkdW.s:4230   .debug_str:0000000000000950 .LASF127
     /tmp/ccvmtkdW.s:4232   .debug_str:0000000000000963 .LASF128
     /tmp/ccvmtkdW.s:4054   .debug_str:00000000000003b3 .LASF129
     /tmp/ccvmtkdW.s:4048   .debug_str:0000000000000388 .LASF130
     /tmp/ccvmtkdW.s:3980   .debug_str:00000000000000a5 .LASF131
     /tmp/ccvmtkdW.s:4096   .debug_str:00000000000004fc .LASF132
     /tmp/ccvmtkdW.s:4042   .debug_str:0000000000000367 .LASF133
     /tmp/ccvmtkdW.s:3958   .debug_str:0000000000000000 .LASF134
     /tmp/ccvmtkdW.s:4222   .debug_str:0000000000000915 .LASF135
     /tmp/ccvmtkdW.s:4216   .debug_str:00000000000008f0 .LASF136
     /tmp/ccvmtkdW.s:4336   .debug_str:0000000000000c36 .LASF137
     /tmp/ccvmtkdW.s:4304   .debug_str:0000000000000b5a .LASF138
     /tmp/ccvmtkdW.s:4316   .debug_str:0000000000000ba9 .LASF139
     /tmp/ccvmtkdW.s:4300   .debug_str:0000000000000b4a .LASF140
     /tmp/ccvmtkdW.s:4142   .debug_str:0000000000000673 .LASF141
     /tmp/ccvmtkdW.s:4082   .debug_str:0000000000000492 .LASF142
     /tmp/ccvmtkdW.s:4088   .debug_str:00000000000004ae .LASF143
     /tmp/ccvmtkdW.s:4288   .debug_str:0000000000000af2 .LASF144
     /tmp/ccvmtkdW.s:4076   .debug_str:0000000000000455 .LASF145
     /tmp/ccvmtkdW.s:4192   .debug_str:0000000000000817 .LASF146
     /tmp/ccvmtkdW.s:4110   .debug_str:0000000000000560 .LASF147
     /tmp/ccvmtkdW.s:4038   .debug_str:0000000000000350 .LASF148
     /tmp/ccvmtkdW.s:3966   .debug_str:000000000000003a .LASF149
GAS LISTING /tmp/ccvmtkdW.s 			page 29


     /tmp/ccvmtkdW.s:4340   .debug_str:0000000000000c5b .LASF150
     /tmp/ccvmtkdW.s:4286   .debug_str:0000000000000ae6 .LASF151
     /tmp/ccvmtkdW.s:3996   .debug_str:0000000000000167 .LASF152
     /tmp/ccvmtkdW.s:4148   .debug_str:00000000000006a1 .LASF153
     /tmp/ccvmtkdW.s:4080   .debug_str:000000000000047f .LASF154
     /tmp/ccvmtkdW.s:4050   .debug_str:000000000000038e .LASF155
     /tmp/ccvmtkdW.s:4012   .debug_str:0000000000000286 .LASF156
     /tmp/ccvmtkdW.s:4266   .debug_str:0000000000000a5a .LASF157
     /tmp/ccvmtkdW.s:4134   .debug_str:000000000000063a .LASF158
     /tmp/ccvmtkdW.s:4310   .debug_str:0000000000000b86 .LASF159
     /tmp/ccvmtkdW.s:4144   .debug_str:0000000000000689 .LASF160
     /tmp/ccvmtkdW.s:4052   .debug_str:00000000000003a1 .LASF161
     /tmp/ccvmtkdW.s:4062   .debug_str:00000000000003f2 .LASF162
     /tmp/ccvmtkdW.s:4000   .debug_str:0000000000000183 .LASF163
     /tmp/ccvmtkdW.s:3982   .debug_str:00000000000000b7 .LASF164
     /tmp/ccvmtkdW.s:4214   .debug_str:00000000000008df .LASF165
     /tmp/ccvmtkdW.s:4130   .debug_str:0000000000000617 .LASF166
     /tmp/ccvmtkdW.s:4208   .debug_str:0000000000000897 .LASF167
     /tmp/ccvmtkdW.s:805    .text:000000000000041c .LFE38
     /tmp/ccvmtkdW.s:4116   .debug_str:00000000000005a8 .LASF168
     /tmp/ccvmtkdW.s:3654   .debug_loc:0000000000000000 .LLST22
     /tmp/ccvmtkdW.s:3665   .debug_loc:0000000000000036 .LLST23
     /tmp/ccvmtkdW.s:3988   .debug_str:0000000000000108 .LASF169
     /tmp/ccvmtkdW.s:3676   .debug_loc:000000000000006c .LLST24
     /tmp/ccvmtkdW.s:4322   .debug_str:0000000000000bd6 .LASF170
     /tmp/ccvmtkdW.s:3687   .debug_loc:00000000000000a2 .LLST25
     /tmp/ccvmtkdW.s:734    .text:00000000000003ac .LVL50
     /tmp/ccvmtkdW.s:743    .text:00000000000003cc .LVL51
     /tmp/ccvmtkdW.s:798    .text:0000000000000410 .LVL59
     /tmp/ccvmtkdW.s:802    .text:000000000000041c .LVL60
     /tmp/ccvmtkdW.s:618    .text:0000000000000328 .LFB37
     /tmp/ccvmtkdW.s:679    .text:0000000000000374 .LFE37
     /tmp/ccvmtkdW.s:4190   .debug_str:0000000000000812 .LASF171
     /tmp/ccvmtkdW.s:3703   .debug_loc:00000000000000ec .LLST19
     /tmp/ccvmtkdW.s:646    .text:000000000000034c .LBB22
     /tmp/ccvmtkdW.s:653    .text:0000000000000350 .LBE22
     /tmp/ccvmtkdW.s:3710   .debug_loc:000000000000010f .LLST20
     /tmp/ccvmtkdW.s:3717   .debug_loc:0000000000000132 .LLST21
     /tmp/ccvmtkdW.s:657    .text:0000000000000358 .LVL45
     /tmp/ccvmtkdW.s:661    .text:0000000000000360 .LVL46
     /tmp/ccvmtkdW.s:584    .text:00000000000002f8 .LFB36
     /tmp/ccvmtkdW.s:612    .text:0000000000000328 .LFE36
     /tmp/ccvmtkdW.s:601    .text:0000000000000318 .LVL41
     /tmp/ccvmtkdW.s:524    .text:00000000000002a4 .LFB35
     /tmp/ccvmtkdW.s:578    .text:00000000000002f8 .LFE35
     /tmp/ccvmtkdW.s:548    .text:00000000000002d4 .LBB20
     /tmp/ccvmtkdW.s:556    .text:00000000000002dc .LBE20
     /tmp/ccvmtkdW.s:3724   .debug_loc:0000000000000155 .LLST17
     /tmp/ccvmtkdW.s:3732   .debug_loc:0000000000000179 .LLST18
     /tmp/ccvmtkdW.s:539    .text:00000000000002c4 .LVL37
     /tmp/ccvmtkdW.s:560    .text:00000000000002e4 .LVL40
     /tmp/ccvmtkdW.s:488    .text:0000000000000280 .LFB34
     /tmp/ccvmtkdW.s:513    .text:00000000000002a4 .LFE34
     /tmp/ccvmtkdW.s:4068   .debug_str:0000000000000430 .LASF173
     /tmp/ccvmtkdW.s:3739   .debug_loc:000000000000019c .LLST16
     /tmp/ccvmtkdW.s:459    .text:0000000000000280 .LFE33
     /tmp/ccvmtkdW.s:4036   .debug_str:0000000000000345 .LASF172
GAS LISTING /tmp/ccvmtkdW.s 			page 30


     /tmp/ccvmtkdW.s:3753   .debug_loc:00000000000001d5 .LLST13
     /tmp/ccvmtkdW.s:422    .text:0000000000000244 .LBB18
     /tmp/ccvmtkdW.s:430    .text:000000000000024c .LBE18
     /tmp/ccvmtkdW.s:3760   .debug_loc:00000000000001f8 .LLST14
     /tmp/ccvmtkdW.s:3768   .debug_loc:000000000000021c .LLST15
     /tmp/ccvmtkdW.s:397    .text:0000000000000210 .LVL27
     /tmp/ccvmtkdW.s:406    .text:000000000000022c .LVL28
     /tmp/ccvmtkdW.s:416    .text:000000000000023c .LVL29
     /tmp/ccvmtkdW.s:452    .text:0000000000000274 .LVL33
     /tmp/ccvmtkdW.s:456    .text:0000000000000280 .LVL34
     /tmp/ccvmtkdW.s:3970   .debug_str:0000000000000057 .LASF174
     /tmp/ccvmtkdW.s:4034   .debug_str:0000000000000339 .LASF177
     /tmp/ccvmtkdW.s:327    .text:00000000000001c0 .LFB31
     /tmp/ccvmtkdW.s:359    .text:00000000000001ec .LFE31
     /tmp/ccvmtkdW.s:3775   .debug_loc:000000000000023f .LLST12
     /tmp/ccvmtkdW.s:347    .text:00000000000001dc .LVL26
     /tmp/ccvmtkdW.s:295    .text:0000000000000198 .LFB29
     /tmp/ccvmtkdW.s:321    .text:00000000000001c0 .LFE29
     /tmp/ccvmtkdW.s:3789   .debug_loc:0000000000000278 .LLST11
     /tmp/ccvmtkdW.s:310    .text:00000000000001b0 .LVL23
     /tmp/ccvmtkdW.s:263    .text:0000000000000170 .LFB28
     /tmp/ccvmtkdW.s:289    .text:0000000000000198 .LFE28
     /tmp/ccvmtkdW.s:4030   .debug_str:000000000000031e .LASF175
     /tmp/ccvmtkdW.s:3803   .debug_loc:00000000000002b1 .LLST10
     /tmp/ccvmtkdW.s:278    .text:0000000000000188 .LVL21
     /tmp/ccvmtkdW.s:180    .text:00000000000000fc .LFB27
     /tmp/ccvmtkdW.s:257    .text:0000000000000170 .LFE27
     /tmp/ccvmtkdW.s:3817   .debug_loc:00000000000002ea .LLST6
     /tmp/ccvmtkdW.s:198    .text:0000000000000118 .LBB13
     /tmp/ccvmtkdW.s:206    .text:000000000000011c .LBE13
     /tmp/ccvmtkdW.s:3828   .debug_loc:0000000000000320 .LLST7
     /tmp/ccvmtkdW.s:219    .text:0000000000000134 .LBB15
     /tmp/ccvmtkdW.s:227    .text:000000000000013c .LBE15
     /tmp/ccvmtkdW.s:3835   .debug_loc:0000000000000343 .LLST8
     /tmp/ccvmtkdW.s:3843   .debug_loc:0000000000000367 .LLST9
     /tmp/ccvmtkdW.s:214    .text:000000000000012c .LVL13
     /tmp/ccvmtkdW.s:233    .text:000000000000014c .LVL16
     /tmp/ccvmtkdW.s:254    .text:000000000000016c .LVL19
     /tmp/ccvmtkdW.s:15     .text:0000000000000000 .LFB26
     /tmp/ccvmtkdW.s:58     .text:0000000000000054 .LFE26
     /tmp/ccvmtkdW.s:31     .text:0000000000000020 .LVL0
     /tmp/ccvmtkdW.s:35     .text:0000000000000028 .LVL1
     /tmp/ccvmtkdW.s:47     .text:0000000000000044 .LVL3
     /tmp/ccvmtkdW.s:148    .text:00000000000000d4 .LFB25
     /tmp/ccvmtkdW.s:174    .text:00000000000000fc .LFE25
     /tmp/ccvmtkdW.s:3850   .debug_loc:000000000000038a .LLST5
     /tmp/ccvmtkdW.s:163    .text:00000000000000ec .LVL10
     /tmp/ccvmtkdW.s:124    .text:00000000000000bc .LFB24
     /tmp/ccvmtkdW.s:142    .text:00000000000000d4 .LFE24
     /tmp/ccvmtkdW.s:4136   .debug_str:000000000000063f .LASF176
     /tmp/ccvmtkdW.s:4170   .debug_str:0000000000000770 .LASF178
     /tmp/ccvmtkdW.s:64     .text:0000000000000054 .LFB22
     /tmp/ccvmtkdW.s:116    .text:00000000000000bc .LFE22
     /tmp/ccvmtkdW.s:3864   .debug_loc:00000000000003c3 .LLST0
     /tmp/ccvmtkdW.s:3882   .debug_loc:000000000000040f .LLST1
     /tmp/ccvmtkdW.s:3896   .debug_loc:0000000000000448 .LLST2
     /tmp/ccvmtkdW.s:3910   .debug_loc:0000000000000481 .LLST3
GAS LISTING /tmp/ccvmtkdW.s 			page 31


     /tmp/ccvmtkdW.s:3929   .debug_loc:00000000000004ce .LLST4
     /tmp/ccvmtkdW.s:98     .text:00000000000000a4 .LVL6
     /tmp/ccvmtkdW.s:4324   .debug_str:0000000000000bdd .LASF194
     /tmp/ccvmtkdW.s:3992   .debug_str:000000000000013d .LASF195
     /tmp/ccvmtkdW.s:4342   .debug_str:0000000000000c6a .LASF179
     /tmp/ccvmtkdW.s:4070   .debug_str:0000000000000435 .LASF181
     /tmp/ccvmtkdW.s:4220   .debug_str:0000000000000909 .LASF180
     /tmp/ccvmtkdW.s:4066   .debug_str:0000000000000428 .LASF182
     /tmp/ccvmtkdW.s:4104   .debug_str:0000000000000535 .LASF183
     /tmp/ccvmtkdW.s:721    .text:000000000000039c .LVL48
     /tmp/ccvmtkdW.s:773    .text:00000000000003ec .LVL54
     /tmp/ccvmtkdW.s:780    .text:00000000000003f8 .LVL56
     /tmp/ccvmtkdW.s:727    .text:00000000000003a0 .LVL49
     /tmp/ccvmtkdW.s:776    .text:00000000000003f0 .LVL55
     /tmp/ccvmtkdW.s:715    .text:0000000000000398 .LVL47
     /tmp/ccvmtkdW.s:770    .text:00000000000003e8 .LVL53
     /tmp/ccvmtkdW.s:794    .text:0000000000000404 .LVL58
     /tmp/ccvmtkdW.s:767    .text:00000000000003e4 .LVL52
     /tmp/ccvmtkdW.s:791    .text:0000000000000400 .LVL57
     /tmp/ccvmtkdW.s:636    .text:000000000000033c .LVL42
     /tmp/ccvmtkdW.s:645    .text:000000000000034c .LVL43
     /tmp/ccvmtkdW.s:651    .text:0000000000000350 .LVL44
     /tmp/ccvmtkdW.s:547    .text:00000000000002d4 .LVL38
     /tmp/ccvmtkdW.s:554    .text:00000000000002dc .LVL39
     /tmp/ccvmtkdW.s:491    .text:0000000000000280 .LVL35
     /tmp/ccvmtkdW.s:501    .text:0000000000000290 .LVL36
     /tmp/ccvmtkdW.s:440    .text:0000000000000258 .LVL32
     /tmp/ccvmtkdW.s:421    .text:0000000000000244 .LVL30
     /tmp/ccvmtkdW.s:428    .text:000000000000024c .LVL31
     /tmp/ccvmtkdW.s:332    .text:00000000000001c0 .LVL24
     /tmp/ccvmtkdW.s:345    .text:00000000000001d4 .LVL25
     /tmp/ccvmtkdW.s:298    .text:0000000000000198 .LVL22
     /tmp/ccvmtkdW.s:266    .text:0000000000000170 .LVL20
     /tmp/ccvmtkdW.s:196    .text:0000000000000118 .LVL11
     /tmp/ccvmtkdW.s:243    .text:0000000000000158 .LVL17
     /tmp/ccvmtkdW.s:247    .text:0000000000000160 .LVL18
     /tmp/ccvmtkdW.s:204    .text:000000000000011c .LVL12
     /tmp/ccvmtkdW.s:218    .text:0000000000000134 .LVL14
     /tmp/ccvmtkdW.s:225    .text:000000000000013c .LVL15
     /tmp/ccvmtkdW.s:151    .text:00000000000000d4 .LVL9
     /tmp/ccvmtkdW.s:67     .text:0000000000000054 .LVL4
     /tmp/ccvmtkdW.s:111    .text:00000000000000b4 .LVL7
     /tmp/ccvmtkdW.s:90     .text:000000000000008c .LVL5
     /tmp/ccvmtkdW.s:853    .debug_info:0000000000000000 .Ldebug_info0
     /tmp/ccvmtkdW.s:362    .gcc_except_table:0000000000000000 .LLSDA31
     /tmp/ccvmtkdW.s:461    .gcc_except_table:0000000000000004 .LLSDA33
     /tmp/ccvmtkdW.s:807    .gcc_except_table:000000000000003c .LLSDA38

UNDEFINED SYMBOLS
_ZN5Riscv11printStringEPKc
_ZN5Riscv10popSppSpieEv
thread_exit
_ZN9Scheduler3putEP3PCB
_ZN9Scheduler3getEv
_ZN3PCB13contextSwitchEPNS_7ContextES1_
_Z7kmallocm
_Z5kfreePv
GAS LISTING /tmp/ccvmtkdW.s 			page 32


__gxx_personality_v0
_Unwind_Resume
_ZN12SleepPCBList17insertSleepingPCBEv
