GAS LISTING /tmp/ccKefzti.s 			page 1


   1              		.file	"PCB.cpp"
   2              		.option pic
   3              		.option norelax
   4              		.text
   5              	.Ltext0:
   6              		.align	2
   7              		.globl	_ZN3PCB6runnerEv
   9              	_ZN3PCB6runnerEv:
  10              	.LFB30:
  11              		.file 1 "src/PCB.cpp"
   1:src/PCB.cpp   **** //
   2:src/PCB.cpp   **** // Created by os on 4/27/22.
   3:src/PCB.cpp   **** //
   4:src/PCB.cpp   **** 
   5:src/PCB.cpp   **** #include "../h/PCB.hpp"
   6:src/PCB.cpp   **** #include "../h/syscall_c.h"
   7:src/PCB.cpp   **** #include "../h/SleepPCBList.hpp"
   8:src/PCB.cpp   **** #include "../test/printing.hpp"
   9:src/PCB.cpp   **** #include "../h/KConsole.hpp"
  10:src/PCB.cpp   **** #include "../h/Scheduler.hpp"
  11:src/PCB.cpp   **** #include "../h/Riscv.hpp"
  12:src/PCB.cpp   **** 
  13:src/PCB.cpp   **** 
  14:src/PCB.cpp   **** PCB* PCB::running = 0;
  15:src/PCB.cpp   **** uint64 PCB::timeSliceCounter = 0;
  16:src/PCB.cpp   **** uint64 PCB::savedRegA4 = 0;
  17:src/PCB.cpp   **** PCB* PCB::consolePCB = 0;
  18:src/PCB.cpp   **** 
  19:src/PCB.cpp   **** PCB::PCB(Body body, void *args, void* stack_space, uint64 timeSlice) :
  20:src/PCB.cpp   ****     timeSlice(timeSlice),
  21:src/PCB.cpp   ****     body(body),
  22:src/PCB.cpp   ****     args(args),
  23:src/PCB.cpp   ****     beginSP(stack_space),
  24:src/PCB.cpp   ****     context({
  25:src/PCB.cpp   ****         (uint64)((char*)stack_space + DEFAULT_STACK_SIZE),
  26:src/PCB.cpp   ****         (uint64)&PCB::runner
  27:src/PCB.cpp   ****     })
  28:src/PCB.cpp   **** {
  29:src/PCB.cpp   ****     //Scheduler::put(this);
  30:src/PCB.cpp   ****     nextPCB = 0;
  31:src/PCB.cpp   **** }
  32:src/PCB.cpp   **** 
  33:src/PCB.cpp   **** void PCB::sleep(time_t time)
  34:src/PCB.cpp   **** {
  35:src/PCB.cpp   ****     //todo
  36:src/PCB.cpp   **** }
  37:src/PCB.cpp   **** 
  38:src/PCB.cpp   **** void PCB::start()
  39:src/PCB.cpp   **** {
  40:src/PCB.cpp   ****     Scheduler::put(this);
  41:src/PCB.cpp   **** }
  42:src/PCB.cpp   **** 
  43:src/PCB.cpp   **** void PCB::runner()
  44:src/PCB.cpp   **** {
  12              		.loc 1 44 1
  13              		.cfi_startproc
  14 0000 130101FF 		addi	sp,sp,-16
GAS LISTING /tmp/ccKefzti.s 			page 2


  15              		.cfi_def_cfa_offset 16
  16 0004 23341100 		sd	ra,8(sp)
  17 0008 23308100 		sd	s0,0(sp)
  18              		.cfi_offset 1, -8
  19              		.cfi_offset 8, -16
  20 000c 13040101 		addi	s0,sp,16
  21              		.cfi_def_cfa 8, 0
  45:src/PCB.cpp   ****     //trapPrintString("Runner started...\n");
  46:src/PCB.cpp   ****     Riscv::popSppSpie();
  22              		.loc 1 46 5
  23              		.loc 1 46 22 is_stmt 0
  24 0010 97000000 		call	_ZN5Riscv10popSppSpieEv@plt
  24      E7800000 
  25              	.LVL0:
  47:src/PCB.cpp   **** 
  48:src/PCB.cpp   ****     running->body(running->args);
  26              		.loc 1 48 5 is_stmt 1
  27              		.loc 1 48 14 is_stmt 0
  28 0018 97070000 		ld	a5,.LANCHOR0
  28      83B70700 
  29 0020 03B78702 		ld	a4,40(a5)
  30              		.loc 1 48 18
  31 0024 03B50703 		ld	a0,48(a5)
  32 0028 E7000700 		jalr	a4
  33              	.LVL1:
  49:src/PCB.cpp   **** 
  50:src/PCB.cpp   ****     //printString("Runner ended...\n");
  51:src/PCB.cpp   **** 
  52:src/PCB.cpp   ****     thread_exit();
  34              		.loc 1 52 5 is_stmt 1
  35              		.loc 1 52 16 is_stmt 0
  36 002c 97000000 		call	thread_exit@plt
  36      E7800000 
  37              	.LVL2:
  53:src/PCB.cpp   **** }
  38              		.loc 1 53 1
  39 0034 83308100 		ld	ra,8(sp)
  40              		.cfi_restore 1
  41 0038 03340100 		ld	s0,0(sp)
  42              		.cfi_restore 8
  43              		.cfi_def_cfa 2, 16
  44 003c 13010101 		addi	sp,sp,16
  45              		.cfi_def_cfa_offset 0
  46 0040 67800000 		jr	ra
  47              		.cfi_endproc
  48              	.LFE30:
  50              		.align	2
  51              		.globl	_ZN3PCBC2EPFvPvES0_S0_m
  53              	_ZN3PCBC2EPFvPvES0_S0_m:
  54              	.LFB26:
  19:src/PCB.cpp   ****     timeSlice(timeSlice),
  55              		.loc 1 19 1 is_stmt 1
  56              		.cfi_startproc
  57              	.LVL3:
  58 0044 130101FF 		addi	sp,sp,-16
  59              		.cfi_def_cfa_offset 16
  60 0048 23348100 		sd	s0,8(sp)
GAS LISTING /tmp/ccKefzti.s 			page 3


  61              		.cfi_offset 8, -8
  62 004c 13040101 		addi	s0,sp,16
  63              		.cfi_def_cfa 8, 0
  64              	.LBB12:
  27:src/PCB.cpp   **** {
  65              		.loc 1 27 6 is_stmt 0
  66 0050 23000500 		sb	zero,0(a0)
  67 0054 233CE500 		sd	a4,24(a0)
  68 0058 23300502 		sd	zero,32(a0)
  69 005c 2334B502 		sd	a1,40(a0)
  70 0060 2338C502 		sd	a2,48(a0)
  71 0064 233CD502 		sd	a3,56(a0)
  25:src/PCB.cpp   ****         (uint64)&PCB::runner
  72              		.loc 1 25 37
  73 0068 B7170000 		li	a5,4096
  74 006c B386F600 		add	a3,a3,a5
  75              	.LVL4:
  27:src/PCB.cpp   **** {
  76              		.loc 1 27 6
  77 0070 2334D504 		sd	a3,72(a0)
  78 0074 97070000 		lla	a5,_ZN3PCB6runnerEv
  78      93870700 
  79 007c 2338F504 		sd	a5,80(a0)
  80 0080 230C0504 		sb	zero,88(a0)
  30:src/PCB.cpp   **** }
  81              		.loc 1 30 5 is_stmt 1
  30:src/PCB.cpp   **** }
  82              		.loc 1 30 13 is_stmt 0
  83 0084 23340500 		sd	zero,8(a0)
  84              	.LBE12:
  31:src/PCB.cpp   **** 
  85              		.loc 1 31 1
  86 0088 03348100 		ld	s0,8(sp)
  87              		.cfi_restore 8
  88              		.cfi_def_cfa 2, 16
  89 008c 13010101 		addi	sp,sp,16
  90              		.cfi_def_cfa_offset 0
  91 0090 67800000 		jr	ra
  92              		.cfi_endproc
  93              	.LFE26:
  95              		.globl	_ZN3PCBC1EPFvPvES0_S0_m
  96              		.set	_ZN3PCBC1EPFvPvES0_S0_m,_ZN3PCBC2EPFvPvES0_S0_m
  97              		.align	2
  98              		.globl	_ZN3PCB5sleepEm
 100              	_ZN3PCB5sleepEm:
 101              	.LFB28:
  34:src/PCB.cpp   ****     //todo
 102              		.loc 1 34 1 is_stmt 1
 103              		.cfi_startproc
 104              	.LVL5:
 105 0094 130101FF 		addi	sp,sp,-16
 106              		.cfi_def_cfa_offset 16
 107 0098 23348100 		sd	s0,8(sp)
 108              		.cfi_offset 8, -8
 109 009c 13040101 		addi	s0,sp,16
 110              		.cfi_def_cfa 8, 0
  36:src/PCB.cpp   **** 
GAS LISTING /tmp/ccKefzti.s 			page 4


 111              		.loc 1 36 1 is_stmt 0
 112 00a0 03348100 		ld	s0,8(sp)
 113              		.cfi_restore 8
 114              		.cfi_def_cfa 2, 16
 115 00a4 13010101 		addi	sp,sp,16
 116              		.cfi_def_cfa_offset 0
 117 00a8 67800000 		jr	ra
 118              		.cfi_endproc
 119              	.LFE28:
 121              		.align	2
 122              		.globl	_ZN3PCB5startEv
 124              	_ZN3PCB5startEv:
 125              	.LFB29:
  39:src/PCB.cpp   ****     Scheduler::put(this);
 126              		.loc 1 39 1 is_stmt 1
 127              		.cfi_startproc
 128              	.LVL6:
 129 00ac 130101FF 		addi	sp,sp,-16
 130              		.cfi_def_cfa_offset 16
 131 00b0 23341100 		sd	ra,8(sp)
 132 00b4 23308100 		sd	s0,0(sp)
 133              		.cfi_offset 1, -8
 134              		.cfi_offset 8, -16
 135 00b8 13040101 		addi	s0,sp,16
 136              		.cfi_def_cfa 8, 0
  40:src/PCB.cpp   **** }
 137              		.loc 1 40 5
  40:src/PCB.cpp   **** }
 138              		.loc 1 40 19 is_stmt 0
 139 00bc 97000000 		call	_ZN9Scheduler3putEP3PCB@plt
 139      E7800000 
 140              	.LVL7:
  41:src/PCB.cpp   **** 
 141              		.loc 1 41 1
 142 00c4 83308100 		ld	ra,8(sp)
 143              		.cfi_restore 1
 144 00c8 03340100 		ld	s0,0(sp)
 145              		.cfi_restore 8
 146              		.cfi_def_cfa 2, 16
 147 00cc 13010101 		addi	sp,sp,16
 148              		.cfi_def_cfa_offset 0
 149 00d0 67800000 		jr	ra
 150              		.cfi_endproc
 151              	.LFE29:
 153              		.align	2
 154              		.globl	_ZN3PCB8dispatchEv
 156              	_ZN3PCB8dispatchEv:
 157              	.LFB31:
  54:src/PCB.cpp   **** 
  55:src/PCB.cpp   **** void PCB::dispatch()
  56:src/PCB.cpp   **** {
 158              		.loc 1 56 1 is_stmt 1
 159              		.cfi_startproc
 160 00d4 130101FE 		addi	sp,sp,-32
 161              		.cfi_def_cfa_offset 32
 162 00d8 233C1100 		sd	ra,24(sp)
 163 00dc 23388100 		sd	s0,16(sp)
GAS LISTING /tmp/ccKefzti.s 			page 5


 164 00e0 23349100 		sd	s1,8(sp)
 165 00e4 23302101 		sd	s2,0(sp)
 166              		.cfi_offset 1, -8
 167              		.cfi_offset 8, -16
 168              		.cfi_offset 9, -24
 169              		.cfi_offset 18, -32
 170 00e8 13040102 		addi	s0,sp,32
 171              		.cfi_def_cfa 8, 0
  57:src/PCB.cpp   ****     //trapPrintString("Dispatch called...\n");
  58:src/PCB.cpp   ****     PCB* old = running;
 172              		.loc 1 58 5
 173              		.loc 1 58 10 is_stmt 0
 174 00ec 97040000 		ld	s1,.LANCHOR0
 174      83B40400 
 175              	.LVL8:
  59:src/PCB.cpp   ****     if(old->getState() == PCB::RUNNING)
 176              		.loc 1 59 5 is_stmt 1
 177              	.LBB13:
 178              	.LBB14:
 179              		.file 2 "src/../h/PCB.hpp"
   1:src/../h/PCB.hpp **** //
   2:src/../h/PCB.hpp **** // Created by os on 4/27/22.
   3:src/../h/PCB.hpp **** //
   4:src/../h/PCB.hpp **** 
   5:src/../h/PCB.hpp **** #ifndef PROJECT_BASE_V1_0_PCB_HPP
   6:src/../h/PCB.hpp **** #define PROJECT_BASE_V1_0_PCB_HPP
   7:src/../h/PCB.hpp **** 
   8:src/../h/PCB.hpp **** #include "../lib/hw.h"
   9:src/../h/PCB.hpp **** 
  10:src/../h/PCB.hpp **** class PCB
  11:src/../h/PCB.hpp **** {
  12:src/../h/PCB.hpp **** private:
  13:src/../h/PCB.hpp ****     static uint64 savedRegA4;
  14:src/../h/PCB.hpp **** 
  15:src/../h/PCB.hpp ****     using Body = void (*)(void*);
  16:src/../h/PCB.hpp **** 
  17:src/../h/PCB.hpp ****     PCB(Body body,  void* args, void* stack_space, uint64 timeSlice);
  18:src/../h/PCB.hpp ****     ~PCB();
  19:src/../h/PCB.hpp **** 
  20:src/../h/PCB.hpp ****     void start();
  21:src/../h/PCB.hpp ****     static void dispatch();
  22:src/../h/PCB.hpp ****     static void sleep(time_t);
  23:src/../h/PCB.hpp **** 
  24:src/../h/PCB.hpp ****     static PCB* running;
  25:src/../h/PCB.hpp **** 
  26:src/../h/PCB.hpp ****     static uint64 timeSliceCounter;
  27:src/../h/PCB.hpp ****     uint64 getTimeSlice() { return timeSlice;}
  28:src/../h/PCB.hpp **** 
  29:src/../h/PCB.hpp ****     void* operator new(size_t size);
  30:src/../h/PCB.hpp ****     void operator delete(void *p);
  31:src/../h/PCB.hpp **** 
  32:src/../h/PCB.hpp ****     enum State{READY, RUNNING, SUSPENDED, FINISHED, EXITING, SLEEPING};
  33:src/../h/PCB.hpp ****     State getState() {return state;}
 180              		.loc 2 33 23
 181              		.loc 2 33 30 is_stmt 0
 182 00f4 03A70404 		lw	a4,64(s1)
 183              	.LVL9:
GAS LISTING /tmp/ccKefzti.s 			page 6


 184              	.LBE14:
 185              	.LBE13:
 186              		.loc 1 59 5
 187 00f8 93071000 		li	a5,1
 188 00fc 630AF704 		beq	a4,a5,.L12
 189              	.L10:
  60:src/PCB.cpp   ****         Scheduler::put(old);
  61:src/PCB.cpp   ****     PCB::running = Scheduler::get();
 190              		.loc 1 61 5 is_stmt 1
 191              		.loc 1 61 34 is_stmt 0
 192 0100 97000000 		call	_ZN9Scheduler3getEv@plt
 192      E7800000 
 193              	.LVL10:
 194              		.loc 1 61 18
 195 0108 17090000 		lla	s2,.LANCHOR0
 195      13090900 
 196 0110 2330A900 		sd	a0,0(s2)
  62:src/PCB.cpp   ****     PCB::running->setState(PCB::RUNNING);
 197              		.loc 1 62 5 is_stmt 1
 198              	.LVL11:
 199              	.LBB15:
 200              	.LBB16:
  34:src/../h/PCB.hpp ****     void setState(State s) {state = s;}
 201              		.loc 2 34 29
 202              		.loc 2 34 35 is_stmt 0
 203 0114 93071000 		li	a5,1
 204 0118 2320F504 		sw	a5,64(a0)
 205              	.LVL12:
 206              	.LBE16:
 207              	.LBE15:
  63:src/PCB.cpp   ****     //trapPrintString("Switching context...\n");
  64:src/PCB.cpp   **** 
  65:src/PCB.cpp   ****     Riscv::changePrivMode();
 208              		.loc 1 65 5 is_stmt 1
 209              		.loc 1 65 26 is_stmt 0
 210 011c 97000000 		call	_ZN5Riscv14changePrivModeEv@plt
 210      E7800000 
 211              	.LVL13:
  66:src/PCB.cpp   **** 
  67:src/PCB.cpp   ****     PCB::contextSwitch(&old->context, &running->context);
 212              		.loc 1 67 5 is_stmt 1
 213              		.loc 1 67 49 is_stmt 0
 214 0124 83350900 		ld	a1,0(s2)
 215              		.loc 1 67 23
 216 0128 93858504 		addi	a1,a1,72
 217 012c 13858404 		addi	a0,s1,72
 218 0130 97000000 		call	_ZN3PCB13contextSwitchEPNS_7ContextES1_@plt
 218      E7800000 
 219              	.LVL14:
  68:src/PCB.cpp   **** }
 220              		.loc 1 68 1
 221 0138 83308101 		ld	ra,24(sp)
 222              		.cfi_remember_state
 223              		.cfi_restore 1
 224 013c 03340101 		ld	s0,16(sp)
 225              		.cfi_restore 8
 226              		.cfi_def_cfa 2, 32
GAS LISTING /tmp/ccKefzti.s 			page 7


 227 0140 83348100 		ld	s1,8(sp)
 228              		.cfi_restore 9
 229              	.LVL15:
 230 0144 03390100 		ld	s2,0(sp)
 231              		.cfi_restore 18
 232 0148 13010102 		addi	sp,sp,32
 233              		.cfi_def_cfa_offset 0
 234 014c 67800000 		jr	ra
 235              	.LVL16:
 236              	.L12:
 237              		.cfi_restore_state
  60:src/PCB.cpp   ****     PCB::running = Scheduler::get();
 238              		.loc 1 60 9 is_stmt 1
  60:src/PCB.cpp   ****     PCB::running = Scheduler::get();
 239              		.loc 1 60 23 is_stmt 0
 240 0150 13850400 		mv	a0,s1
 241 0154 97000000 		call	_ZN9Scheduler3putEP3PCB@plt
 241      E7800000 
 242              	.LVL17:
 243 015c 6FF05FFA 		j	.L10
 244              		.cfi_endproc
 245              	.LFE31:
 247              		.align	2
 248              		.globl	_ZN3PCBnwEm
 250              	_ZN3PCBnwEm:
 251              	.LFB32:
  69:src/PCB.cpp   **** 
  70:src/PCB.cpp   **** void *PCB::operator new(size_t size) {
 252              		.loc 1 70 38 is_stmt 1
 253              		.cfi_startproc
 254              	.LVL18:
 255 0160 130101FF 		addi	sp,sp,-16
 256              		.cfi_def_cfa_offset 16
 257 0164 23341100 		sd	ra,8(sp)
 258 0168 23308100 		sd	s0,0(sp)
 259              		.cfi_offset 1, -8
 260              		.cfi_offset 8, -16
 261 016c 13040101 		addi	s0,sp,16
 262              		.cfi_def_cfa 8, 0
  71:src/PCB.cpp   ****     return MemoryAllocator::kmalloc(size);
 263              		.loc 1 71 5
 264              		.loc 1 71 36 is_stmt 0
 265 0170 97000000 		call	_ZN15MemoryAllocator7kmallocEm@plt
 265      E7800000 
 266              	.LVL19:
  72:src/PCB.cpp   **** }
 267              		.loc 1 72 1
 268 0178 83308100 		ld	ra,8(sp)
 269              		.cfi_restore 1
 270 017c 03340100 		ld	s0,0(sp)
 271              		.cfi_restore 8
 272              		.cfi_def_cfa 2, 16
 273 0180 13010101 		addi	sp,sp,16
 274              		.cfi_def_cfa_offset 0
 275 0184 67800000 		jr	ra
 276              		.cfi_endproc
 277              	.LFE32:
GAS LISTING /tmp/ccKefzti.s 			page 8


 279              		.align	2
 280              		.globl	_ZN3PCBdlEPv
 282              	_ZN3PCBdlEPv:
 283              	.LFB33:
  73:src/PCB.cpp   **** 
  74:src/PCB.cpp   **** void PCB::operator delete(void *p) {
 284              		.loc 1 74 36 is_stmt 1
 285              		.cfi_startproc
 286              	.LVL20:
 287 0188 130101FF 		addi	sp,sp,-16
 288              		.cfi_def_cfa_offset 16
 289 018c 23341100 		sd	ra,8(sp)
 290 0190 23308100 		sd	s0,0(sp)
 291              		.cfi_offset 1, -8
 292              		.cfi_offset 8, -16
 293 0194 13040101 		addi	s0,sp,16
 294              		.cfi_def_cfa 8, 0
  75:src/PCB.cpp   ****     MemoryAllocator::kfree(p);
 295              		.loc 1 75 5
 296              		.loc 1 75 27 is_stmt 0
 297 0198 97000000 		call	_ZN15MemoryAllocator5kfreeEPv@plt
 297      E7800000 
 298              	.LVL21:
  76:src/PCB.cpp   **** }
 299              		.loc 1 76 1
 300 01a0 83308100 		ld	ra,8(sp)
 301              		.cfi_restore 1
 302 01a4 03340100 		ld	s0,0(sp)
 303              		.cfi_restore 8
 304              		.cfi_def_cfa 2, 16
 305 01a8 13010101 		addi	sp,sp,16
 306              		.cfi_def_cfa_offset 0
 307 01ac 67800000 		jr	ra
 308              		.cfi_endproc
 309              	.LFE33:
 311              		.align	2
 312              		.globl	_ZN3PCBD2Ev
 314              	_ZN3PCBD2Ev:
 315              	.LFB35:
  77:src/PCB.cpp   **** 
  78:src/PCB.cpp   **** PCB::~PCB()
 316              		.loc 1 78 1 is_stmt 1
 317              		.cfi_startproc
 318              		.cfi_personality 0x9b,DW.ref.__gxx_personality_v0
 319              		.cfi_lsda 0x1b,.LLSDA35
 320              	.LVL22:
 321 01b0 130101FF 		addi	sp,sp,-16
 322              		.cfi_def_cfa_offset 16
 323 01b4 23341100 		sd	ra,8(sp)
 324 01b8 23308100 		sd	s0,0(sp)
 325              		.cfi_offset 1, -8
 326              		.cfi_offset 8, -16
 327 01bc 13040101 		addi	s0,sp,16
 328              		.cfi_def_cfa 8, 0
 329              	.LBB17:
  79:src/PCB.cpp   **** {
  80:src/PCB.cpp   ****     MemoryAllocator::kfree(beginSP);
GAS LISTING /tmp/ccKefzti.s 			page 9


 330              		.loc 1 80 5
 331              		.loc 1 80 27 is_stmt 0
 332 01c0 03358503 		ld	a0,56(a0)
 333              	.LVL23:
 334 01c4 97000000 		call	_ZN15MemoryAllocator5kfreeEPv@plt
 334      E7800000 
 335              	.LVL24:
 336              	.LBE17:
  81:src/PCB.cpp   **** }
 337              		.loc 1 81 1
 338 01cc 83308100 		ld	ra,8(sp)
 339              		.cfi_restore 1
 340 01d0 03340100 		ld	s0,0(sp)
 341              		.cfi_restore 8
 342              		.cfi_def_cfa 2, 16
 343 01d4 13010101 		addi	sp,sp,16
 344              		.cfi_def_cfa_offset 0
 345 01d8 67800000 		jr	ra
 346              		.cfi_endproc
 347              	.LFE35:
 348              		.globl	__gxx_personality_v0
 349              		.section	.gcc_except_table,"a",@progbits
 350              	.LLSDA35:
 351 0000 FF       		.byte	0xff
 352 0001 FF       		.byte	0xff
 353 0002 03       		.byte	0x3
 354 0003 00       		.byte	0
 355              		.text
 357              		.globl	_ZN3PCBD1Ev
 358              		.set	_ZN3PCBD1Ev,_ZN3PCBD2Ev
 359              		.align	2
 360              		.globl	_ZN3PCB10initializeEv
 362              	_ZN3PCB10initializeEv:
 363              	.LFB37:
  82:src/PCB.cpp   **** 
  83:src/PCB.cpp   **** void PCB::initialize()
  84:src/PCB.cpp   **** {
 364              		.loc 1 84 1 is_stmt 1
 365              		.cfi_startproc
 366 01dc 130101FD 		addi	sp,sp,-48
 367              		.cfi_def_cfa_offset 48
 368 01e0 23341102 		sd	ra,40(sp)
 369 01e4 23308102 		sd	s0,32(sp)
 370 01e8 233C9100 		sd	s1,24(sp)
 371 01ec 23382101 		sd	s2,16(sp)
 372 01f0 23343101 		sd	s3,8(sp)
 373 01f4 23304101 		sd	s4,0(sp)
 374              		.cfi_offset 1, -8
 375              		.cfi_offset 8, -16
 376              		.cfi_offset 9, -24
 377              		.cfi_offset 18, -32
 378              		.cfi_offset 19, -40
 379              		.cfi_offset 20, -48
 380 01f8 13040103 		addi	s0,sp,48
 381              		.cfi_def_cfa 8, 0
  85:src/PCB.cpp   ****     PCB* mainSystem = new PCB(0, 0, 0, 0);
 382              		.loc 1 85 5
GAS LISTING /tmp/ccKefzti.s 			page 10


 383              		.loc 1 85 41 is_stmt 0
 384 01fc 13050006 		li	a0,96
 385 0200 97000000 		call	_ZN3PCBnwEm
 385      E7800000 
 386              	.LVL25:
 387 0208 93040500 		mv	s1,a0
 388 020c 13070000 		li	a4,0
 389 0210 93060000 		li	a3,0
 390 0214 13060000 		li	a2,0
 391 0218 93050000 		li	a1,0
 392 021c 97000000 		call	_ZN3PCBC1EPFvPvES0_S0_m
 392      E7800000 
 393              	.LVL26:
  86:src/PCB.cpp   ****     mainSystem->start();
 394              		.loc 1 86 5 is_stmt 1
 395              		.loc 1 86 22 is_stmt 0
 396 0224 13850400 		mv	a0,s1
 397 0228 97000000 		call	_ZN3PCB5startEv
 397      E7800000 
 398              	.LVL27:
  87:src/PCB.cpp   ****     mainSystem->systemThread = true;
 399              		.loc 1 87 5 is_stmt 1
 400              		.loc 1 87 30 is_stmt 0
 401 0230 93071000 		li	a5,1
 402 0234 2380F400 		sb	a5,0(s1)
  88:src/PCB.cpp   ****     PCB::running = Scheduler::get();
 403              		.loc 1 88 5 is_stmt 1
 404              		.loc 1 88 34 is_stmt 0
 405 0238 97000000 		call	_ZN9Scheduler3getEv@plt
 405      E7800000 
 406              	.LVL28:
 407              		.loc 1 88 18
 408 0240 17090000 		lla	s2,.LANCHOR0
 408      13090900 
 409 0248 2330A900 		sd	a0,0(s2)
  89:src/PCB.cpp   ****     PCB::running->setState(PCB::RUNNING);
 410              		.loc 1 89 5 is_stmt 1
 411              	.LVL29:
 412              	.LBB18:
 413              	.LBB19:
 414              		.loc 2 34 29
 415              		.loc 2 34 35 is_stmt 0
 416 024c 130A1000 		li	s4,1
 417 0250 23204505 		sw	s4,64(a0)
 418              	.LVL30:
 419              	.LBE19:
 420              	.LBE18:
  90:src/PCB.cpp   ****     PCB::consolePCB = new PCB(&KConsole::sendCharactersToConsole, 0, MemoryAllocator::kmalloc(DEFAU
 421              		.loc 1 90 5 is_stmt 1
 422              		.loc 1 90 94 is_stmt 0
 423 0254 37150000 		li	a0,4096
 424 0258 97000000 		call	_ZN15MemoryAllocator7kmallocEm@plt
 424      E7800000 
 425              	.LVL31:
 426 0260 93090500 		mv	s3,a0
 427              		.loc 1 90 134
 428 0264 13050006 		li	a0,96
GAS LISTING /tmp/ccKefzti.s 			page 11


 429 0268 97000000 		call	_ZN3PCBnwEm
 429      E7800000 
 430              	.LVL32:
 431 0270 93040500 		mv	s1,a0
 432              	.LVL33:
 433 0274 13072000 		li	a4,2
 434 0278 93860900 		mv	a3,s3
 435 027c 13060000 		li	a2,0
 436 0280 97050000 		la	a1,_ZN8KConsole23sendCharactersToConsoleEPv
 436      83B50500 
 437 0288 97000000 		call	_ZN3PCBC1EPFvPvES0_S0_m
 437      E7800000 
 438              	.LVL34:
 439              		.loc 1 90 21
 440 0290 23349900 		sd	s1,8(s2)
  91:src/PCB.cpp   ****     PCB::consolePCB->systemThread = true;
 441              		.loc 1 91 5 is_stmt 1
 442              		.loc 1 91 35 is_stmt 0
 443 0294 23804401 		sb	s4,0(s1)
  92:src/PCB.cpp   ****     PCB::consolePCB->start();
 444              		.loc 1 92 5 is_stmt 1
 445              		.loc 1 92 27 is_stmt 0
 446 0298 03358900 		ld	a0,8(s2)
 447 029c 97000000 		call	_ZN3PCB5startEv
 447      E7800000 
 448              	.LVL35:
  93:src/PCB.cpp   **** }
 449              		.loc 1 93 1
 450 02a4 83308102 		ld	ra,40(sp)
 451              		.cfi_restore 1
 452 02a8 03340102 		ld	s0,32(sp)
 453              		.cfi_restore 8
 454              		.cfi_def_cfa 2, 48
 455 02ac 83348101 		ld	s1,24(sp)
 456              		.cfi_restore 9
 457 02b0 03390101 		ld	s2,16(sp)
 458              		.cfi_restore 18
 459 02b4 83398100 		ld	s3,8(sp)
 460              		.cfi_restore 19
 461 02b8 033A0100 		ld	s4,0(sp)
 462              		.cfi_restore 20
 463 02bc 13010103 		addi	sp,sp,48
 464              		.cfi_def_cfa_offset 0
 465 02c0 67800000 		jr	ra
 466              		.cfi_endproc
 467              	.LFE37:
 469              		.align	2
 470              		.globl	_ZN3PCB10isFinishedEv
 472              	_ZN3PCB10isFinishedEv:
 473              	.LFB38:
  94:src/PCB.cpp   **** 
  95:src/PCB.cpp   **** bool PCB::isFinished()
  96:src/PCB.cpp   **** {
 474              		.loc 1 96 1 is_stmt 1
 475              		.cfi_startproc
 476              	.LVL36:
 477 02c4 130101FF 		addi	sp,sp,-16
GAS LISTING /tmp/ccKefzti.s 			page 12


 478              		.cfi_def_cfa_offset 16
 479 02c8 23348100 		sd	s0,8(sp)
 480              		.cfi_offset 8, -8
 481 02cc 13040101 		addi	s0,sp,16
 482              		.cfi_def_cfa 8, 0
  97:src/PCB.cpp   ****     return state == PCB::FINISHED;
 483              		.loc 1 97 5
 484              		.loc 1 97 12 is_stmt 0
 485 02d0 03250504 		lw	a0,64(a0)
 486              	.LVL37:
 487              		.loc 1 97 26
 488 02d4 1305D5FF 		addi	a0,a0,-3
  98:src/PCB.cpp   **** }
 489              		.loc 1 98 1
 490 02d8 13351500 		seqz	a0,a0
 491 02dc 03348100 		ld	s0,8(sp)
 492              		.cfi_restore 8
 493              		.cfi_def_cfa 2, 16
 494 02e0 13010101 		addi	sp,sp,16
 495              		.cfi_def_cfa_offset 0
 496 02e4 67800000 		jr	ra
 497              		.cfi_endproc
 498              	.LFE38:
 500              		.align	2
 501              		.globl	_ZN3PCB17threadExitHandlerEv
 503              	_ZN3PCB17threadExitHandlerEv:
 504              	.LFB39:
  99:src/PCB.cpp   **** 
 100:src/PCB.cpp   **** void PCB::threadExitHandler()
 101:src/PCB.cpp   **** {
 505              		.loc 1 101 1 is_stmt 1
 506              		.cfi_startproc
 507 02e8 130101FF 		addi	sp,sp,-16
 508              		.cfi_def_cfa_offset 16
 509 02ec 23341100 		sd	ra,8(sp)
 510 02f0 23308100 		sd	s0,0(sp)
 511              		.cfi_offset 1, -8
 512              		.cfi_offset 8, -16
 513 02f4 13040101 		addi	s0,sp,16
 514              		.cfi_def_cfa 8, 0
 102:src/PCB.cpp   ****     //trapPrintString("Exiting thread...\n");
 103:src/PCB.cpp   ****     PCB::timeSliceCounter = 0;
 515              		.loc 1 103 5
 516              		.loc 1 103 27 is_stmt 0
 517 02f8 97070000 		lla	a5,.LANCHOR0
 517      93870700 
 518 0300 23B80700 		sd	zero,16(a5)
 104:src/PCB.cpp   ****     PCB::running->setState(PCB::FINISHED);
 519              		.loc 1 104 5 is_stmt 1
 520              		.loc 1 104 27 is_stmt 0
 521 0304 83B70700 		ld	a5,0(a5)
 522              	.LVL38:
 523              	.LBB20:
 524              	.LBB21:
 525              		.loc 2 34 29 is_stmt 1
 526              		.loc 2 34 35 is_stmt 0
 527 0308 13073000 		li	a4,3
GAS LISTING /tmp/ccKefzti.s 			page 13


 528 030c 23A0E704 		sw	a4,64(a5)
 529              	.LVL39:
 530              	.LBE21:
 531              	.LBE20:
 105:src/PCB.cpp   ****     PCB::dispatch();
 532              		.loc 1 105 5 is_stmt 1
 533              		.loc 1 105 18 is_stmt 0
 534 0310 97000000 		call	_ZN3PCB8dispatchEv
 534      E7800000 
 535              	.LVL40:
 106:src/PCB.cpp   ****     __asm__ volatile("li a0, 0");
 536              		.loc 1 106 5 is_stmt 1
 537              		.loc 1 106 33 is_stmt 0
 538              	#APP
 539              	# 106 "src/PCB.cpp" 1
 107              	    Riscv::w_a0_sscratch();
 540              		li a0, 0
 541              	# 0 "" 2
 542              		.loc 1 107 5 is_stmt 1
 543              		.loc 1 107 25 is_stmt 0
 544              	#NO_APP
 545 031c 97000000 		call	_ZN5Riscv13w_a0_sscratchEv@plt
 545      E7800000 
 546              	.LVL41:
 108:src/PCB.cpp   **** }
 547              		.loc 1 108 1
 548 0324 83308100 		ld	ra,8(sp)
 549              		.cfi_restore 1
 550 0328 03340100 		ld	s0,0(sp)
 551              		.cfi_restore 8
 552              		.cfi_def_cfa 2, 16
 553 032c 13010101 		addi	sp,sp,16
 554              		.cfi_def_cfa_offset 0
 555 0330 67800000 		jr	ra
 556              		.cfi_endproc
 557              	.LFE39:
 559              		.align	2
 560              		.globl	_ZN3PCB21threadDispatchHandlerEv
 562              	_ZN3PCB21threadDispatchHandlerEv:
 563              	.LFB40:
 109:src/PCB.cpp   **** 
 110:src/PCB.cpp   **** void PCB::threadDispatchHandler()
 111:src/PCB.cpp   **** {
 564              		.loc 1 111 1 is_stmt 1
 565              		.cfi_startproc
 566 0334 130101FF 		addi	sp,sp,-16
 567              		.cfi_def_cfa_offset 16
 568 0338 23341100 		sd	ra,8(sp)
 569 033c 23308100 		sd	s0,0(sp)
 570              		.cfi_offset 1, -8
 571              		.cfi_offset 8, -16
 572 0340 13040101 		addi	s0,sp,16
 573              		.cfi_def_cfa 8, 0
 112:src/PCB.cpp   ****     PCB::timeSliceCounter = 0;
 574              		.loc 1 112 5
 575              		.loc 1 112 27 is_stmt 0
 576 0344 97070000 		sd	zero,.LANCHOR0+16,a5
GAS LISTING /tmp/ccKefzti.s 			page 14


 576      23B00700 
 113:src/PCB.cpp   ****     PCB::dispatch();
 577              		.loc 1 113 5 is_stmt 1
 578              		.loc 1 113 18 is_stmt 0
 579 034c 97000000 		call	_ZN3PCB8dispatchEv
 579      E7800000 
 580              	.LVL42:
 114:src/PCB.cpp   **** }
 581              		.loc 1 114 1
 582 0354 83308100 		ld	ra,8(sp)
 583              		.cfi_restore 1
 584 0358 03340100 		ld	s0,0(sp)
 585              		.cfi_restore 8
 586              		.cfi_def_cfa 2, 16
 587 035c 13010101 		addi	sp,sp,16
 588              		.cfi_def_cfa_offset 0
 589 0360 67800000 		jr	ra
 590              		.cfi_endproc
 591              	.LFE40:
 593              		.align	2
 594              		.globl	_ZN3PCB18threadSleepHandlerEv
 596              	_ZN3PCB18threadSleepHandlerEv:
 597              	.LFB41:
 115:src/PCB.cpp   **** 
 116:src/PCB.cpp   **** void PCB::threadSleepHandler()
 117:src/PCB.cpp   **** {
 598              		.loc 1 117 1 is_stmt 1
 599              		.cfi_startproc
 600 0364 130101FF 		addi	sp,sp,-16
 601              		.cfi_def_cfa_offset 16
 602 0368 23341100 		sd	ra,8(sp)
 603 036c 23308100 		sd	s0,0(sp)
 604              		.cfi_offset 1, -8
 605              		.cfi_offset 8, -16
 606 0370 13040101 		addi	s0,sp,16
 607              		.cfi_def_cfa 8, 0
 118:src/PCB.cpp   ****     uint64 time;
 608              		.loc 1 118 5
 119:src/PCB.cpp   ****     __asm__ volatile("mv %0, a1" : "=r"(time));
 609              		.loc 1 119 5
 610              		.loc 1 119 47 is_stmt 0
 611              	#APP
 612              	# 119 "src/PCB.cpp" 1
 120              	    PCB::timeSliceCounter = 0;
 613              		mv a5, a1
 614              	# 0 "" 2
 615              	.LVL43:
 616              		.loc 1 120 5 is_stmt 1
 617              		.loc 1 120 27 is_stmt 0
 618              	#NO_APP
 619 0378 17070000 		lla	a4,.LANCHOR0
 619      13070700 
 620 0380 23380700 		sd	zero,16(a4)
 121:src/PCB.cpp   ****     PCB::running->setTimeToSleep(time + Riscv::totalTime);
 621              		.loc 1 121 5 is_stmt 1
 622              		.loc 1 121 33 is_stmt 0
 623 0384 03370700 		ld	a4,0(a4)
GAS LISTING /tmp/ccKefzti.s 			page 15


 624 0388 97060000 		la	a3,_ZN5Riscv9totalTimeE
 624      83B60600 
 625 0390 83B60600 		ld	a3,0(a3)
 626 0394 B387D700 		add	a5,a5,a3
 627              	.LVL44:
 628              	.LBB22:
 629              	.LBB23:
  35:src/../h/PCB.hpp ****     void setTimeToSleep(uint64 time) {timeToSleep = time;}
 630              		.loc 2 35 39 is_stmt 1
 631              		.loc 2 35 51 is_stmt 0
 632 0398 2330F702 		sd	a5,32(a4)
 633              	.LVL45:
 634              	.LBE23:
 635              	.LBE22:
 122:src/PCB.cpp   ****     SleepPCBList::insertSleepingPCB();
 636              		.loc 1 122 5 is_stmt 1
 637              		.loc 1 122 36 is_stmt 0
 638 039c 97000000 		call	_ZN12SleepPCBList17insertSleepingPCBEv@plt
 638      E7800000 
 639              	.LVL46:
 123:src/PCB.cpp   ****     PCB::dispatch();
 640              		.loc 1 123 5 is_stmt 1
 641              		.loc 1 123 18 is_stmt 0
 642 03a4 97000000 		call	_ZN3PCB8dispatchEv
 642      E7800000 
 643              	.LVL47:
 124:src/PCB.cpp   ****     __asm__ volatile("li a0, 0x0");
 644              		.loc 1 124 5 is_stmt 1
 645              		.loc 1 124 35 is_stmt 0
 646              	#APP
 647              	# 124 "src/PCB.cpp" 1
 125              	    Riscv::w_a0_sscratch();
 648              		li a0, 0x0
 649              	# 0 "" 2
 650              		.loc 1 125 5 is_stmt 1
 651              		.loc 1 125 25 is_stmt 0
 652              	#NO_APP
 653 03b0 97000000 		call	_ZN5Riscv13w_a0_sscratchEv@plt
 653      E7800000 
 654              	.LVL48:
 126:src/PCB.cpp   **** }
 655              		.loc 1 126 1
 656 03b8 83308100 		ld	ra,8(sp)
 657              		.cfi_restore 1
 658 03bc 03340100 		ld	s0,0(sp)
 659              		.cfi_restore 8
 660              		.cfi_def_cfa 2, 16
 661 03c0 13010101 		addi	sp,sp,16
 662              		.cfi_def_cfa_offset 0
 663 03c4 67800000 		jr	ra
 664              		.cfi_endproc
 665              	.LFE41:
 667              		.align	2
 668              		.globl	_ZN3PCB19threadCreateHandlerEv
 670              	_ZN3PCB19threadCreateHandlerEv:
 671              	.LFB42:
 127:src/PCB.cpp   **** 
GAS LISTING /tmp/ccKefzti.s 			page 16


 128:src/PCB.cpp   **** void PCB::threadCreateHandler()
 129:src/PCB.cpp   **** {
 672              		.loc 1 129 1 is_stmt 1
 673              		.cfi_startproc
 674 03c8 130101FD 		addi	sp,sp,-48
 675              		.cfi_def_cfa_offset 48
 676 03cc 23341102 		sd	ra,40(sp)
 677 03d0 23308102 		sd	s0,32(sp)
 678 03d4 233C9100 		sd	s1,24(sp)
 679 03d8 23382101 		sd	s2,16(sp)
 680 03dc 23343101 		sd	s3,8(sp)
 681 03e0 23304101 		sd	s4,0(sp)
 682              		.cfi_offset 1, -8
 683              		.cfi_offset 8, -16
 684              		.cfi_offset 9, -24
 685              		.cfi_offset 18, -32
 686              		.cfi_offset 19, -40
 687              		.cfi_offset 20, -48
 688 03e4 13040103 		addi	s0,sp,48
 689              		.cfi_def_cfa 8, 0
 130:src/PCB.cpp   ****     uint64 start_routine;
 690              		.loc 1 130 5
 131:src/PCB.cpp   ****     uint64 args;
 691              		.loc 1 131 5
 132:src/PCB.cpp   ****     PCB **threadHandle;
 692              		.loc 1 132 5
 133:src/PCB.cpp   ****     __asm__ volatile("mv %0, a1" : "=r"(threadHandle));
 693              		.loc 1 133 5
 694              		.loc 1 133 55 is_stmt 0
 695              	#APP
 696              	# 133 "src/PCB.cpp" 1
 134              	    __asm__ volatile("mv %0, a2" : "=r"(start_routine));
 697              		mv s2, a1
 698              	# 0 "" 2
 699              	.LVL49:
 700              		.loc 1 134 5 is_stmt 1
 701              		.loc 1 134 56 is_stmt 0
 702              	# 134 "src/PCB.cpp" 1
 135              	    __asm__ volatile("mv %0, a3" : "=r"(args));
 703              		mv s3, a2
 704              	# 0 "" 2
 705              	.LVL50:
 706              		.loc 1 135 5 is_stmt 1
 707              		.loc 1 135 47 is_stmt 0
 708              	# 135 "src/PCB.cpp" 1
 136              	
 709              		mv s4, a3
 710              	# 0 "" 2
 711              	.LVL51:
 137:src/PCB.cpp   ****     PCB *newPCB = new PCB((void (*)(void *)) start_routine, (void *) args, (void *) PCB::savedRegA4
 712              		.loc 1 137 5 is_stmt 1
 713              		.loc 1 137 120 is_stmt 0
 714              	#NO_APP
 715 03f4 13050006 		li	a0,96
 716 03f8 97000000 		call	_ZN3PCBnwEm
 716      E7800000 
 717              	.LVL52:
GAS LISTING /tmp/ccKefzti.s 			page 17


 718 0400 93040500 		mv	s1,a0
 719 0404 13072000 		li	a4,2
 720 0408 97060000 		ld	a3,.LANCHOR0+24
 720      83B60600 
 721 0410 13060A00 		mv	a2,s4
 722 0414 93850900 		mv	a1,s3
 723 0418 97000000 		call	_ZN3PCBC1EPFvPvES0_S0_m
 723      E7800000 
 724              	.LVL53:
 138:src/PCB.cpp   **** 
 139:src/PCB.cpp   ****     (*threadHandle) = newPCB;
 725              		.loc 1 139 5 is_stmt 1
 726              		.loc 1 139 21 is_stmt 0
 727 0420 23309900 		sd	s1,0(s2)
 140:src/PCB.cpp   **** 
 141:src/PCB.cpp   ****     if (newPCB == 0)
 728              		.loc 1 141 5 is_stmt 1
 729 0424 638E0402 		beqz	s1,.L33
 142:src/PCB.cpp   ****             __asm__ volatile("li a0, 0xffffffffffffffff");
 143:src/PCB.cpp   ****     else
 144:src/PCB.cpp   ****     {
 145:src/PCB.cpp   ****         newPCB->start();
 730              		.loc 1 145 9
 731              		.loc 1 145 22 is_stmt 0
 732 0428 13850400 		mv	a0,s1
 733 042c 97000000 		call	_ZN3PCB5startEv
 733      E7800000 
 734              	.LVL54:
 146:src/PCB.cpp   ****         __asm__ volatile("li a0, 0");
 735              		.loc 1 146 9 is_stmt 1
 736              		.loc 1 146 37 is_stmt 0
 737              	#APP
 738              	# 146 "src/PCB.cpp" 1
 147              	    }
 739              		li a0, 0
 740              	# 0 "" 2
 741              	#NO_APP
 742              	.L31:
 148:src/PCB.cpp   ****     Riscv::w_a0_sscratch();
 743              		.loc 1 148 5 is_stmt 1
 744              		.loc 1 148 25 is_stmt 0
 745 0438 97000000 		call	_ZN5Riscv13w_a0_sscratchEv@plt
 745      E7800000 
 746              	.LVL55:
 149:src/PCB.cpp   **** }
 747              		.loc 1 149 1
 748 0440 83308102 		ld	ra,40(sp)
 749              		.cfi_remember_state
 750              		.cfi_restore 1
 751 0444 03340102 		ld	s0,32(sp)
 752              		.cfi_restore 8
 753              		.cfi_def_cfa 2, 48
 754 0448 83348101 		ld	s1,24(sp)
 755              		.cfi_restore 9
 756              	.LVL56:
 757 044c 03390101 		ld	s2,16(sp)
 758              		.cfi_restore 18
GAS LISTING /tmp/ccKefzti.s 			page 18


 759              	.LVL57:
 760 0450 83398100 		ld	s3,8(sp)
 761              		.cfi_restore 19
 762              	.LVL58:
 763 0454 033A0100 		ld	s4,0(sp)
 764              		.cfi_restore 20
 765              	.LVL59:
 766 0458 13010103 		addi	sp,sp,48
 767              		.cfi_def_cfa_offset 0
 768 045c 67800000 		jr	ra
 769              	.LVL60:
 770              	.L33:
 771              		.cfi_restore_state
 142:src/PCB.cpp   ****     else
 772              		.loc 1 142 13 is_stmt 1
 142:src/PCB.cpp   ****     else
 773              		.loc 1 142 58 is_stmt 0
 774              	#APP
 775              	# 142 "src/PCB.cpp" 1
 776              		li a0, 0xffffffffffffffff
 777              	# 0 "" 2
 778              	#NO_APP
 779 0464 6FF05FFD 		j	.L31
 780              		.cfi_endproc
 781              	.LFE42:
 783              		.align	2
 784              		.globl	_ZN3PCB18threadStartHandlerEv
 786              	_ZN3PCB18threadStartHandlerEv:
 787              	.LFB43:
 150:src/PCB.cpp   **** 
 151:src/PCB.cpp   **** void PCB::threadStartHandler()
 152:src/PCB.cpp   **** {
 788              		.loc 1 152 1 is_stmt 1
 789              		.cfi_startproc
 790 0468 130101FF 		addi	sp,sp,-16
 791              		.cfi_def_cfa_offset 16
 792 046c 23341100 		sd	ra,8(sp)
 793 0470 23308100 		sd	s0,0(sp)
 794              		.cfi_offset 1, -8
 795              		.cfi_offset 8, -16
 796 0474 13040101 		addi	s0,sp,16
 797              		.cfi_def_cfa 8, 0
 153:src/PCB.cpp   ****     PCB* pcb;
 798              		.loc 1 153 5
 154:src/PCB.cpp   ****     __asm__ volatile("mv %0, a1" : "=r"(pcb));
 799              		.loc 1 154 5
 800              		.loc 1 154 46 is_stmt 0
 801              	#APP
 802              	# 154 "src/PCB.cpp" 1
 155              	    if(pcb != 0)
 803              		mv a0, a1
 804              	# 0 "" 2
 805              	.LVL61:
 806              		.loc 1 155 5 is_stmt 1
 807              	#NO_APP
 808 047c 63040502 		beqz	a0,.L35
 156:src/PCB.cpp   ****     {
GAS LISTING /tmp/ccKefzti.s 			page 19


 157:src/PCB.cpp   ****         pcb->start();
 809              		.loc 1 157 9
 810              		.loc 1 157 19 is_stmt 0
 811 0480 97000000 		call	_ZN3PCB5startEv
 811      E7800000 
 812              	.LVL62:
 158:src/PCB.cpp   ****         __asm__ volatile("li a0, 0");
 813              		.loc 1 158 9 is_stmt 1
 814              		.loc 1 158 37 is_stmt 0
 815              	#APP
 816              	# 158 "src/PCB.cpp" 1
 159              	    }
 817              		li a0, 0
 818              	# 0 "" 2
 819              	#NO_APP
 820              	.L36:
 160:src/PCB.cpp   ****     else
 161:src/PCB.cpp   ****     {
 162:src/PCB.cpp   ****         __asm__ volatile("li a0, 0xffffffffffffffff");
 163:src/PCB.cpp   ****     }
 164:src/PCB.cpp   ****     Riscv::w_a0_sscratch();
 821              		.loc 1 164 5 is_stmt 1
 822              		.loc 1 164 25 is_stmt 0
 823 048c 97000000 		call	_ZN5Riscv13w_a0_sscratchEv@plt
 823      E7800000 
 824              	.LVL63:
 165:src/PCB.cpp   **** }
 825              		.loc 1 165 1
 826 0494 83308100 		ld	ra,8(sp)
 827              		.cfi_remember_state
 828              		.cfi_restore 1
 829 0498 03340100 		ld	s0,0(sp)
 830              		.cfi_restore 8
 831              		.cfi_def_cfa 2, 16
 832 049c 13010101 		addi	sp,sp,16
 833              		.cfi_def_cfa_offset 0
 834 04a0 67800000 		jr	ra
 835              	.LVL64:
 836              	.L35:
 837              		.cfi_restore_state
 162:src/PCB.cpp   ****     }
 838              		.loc 1 162 9 is_stmt 1
 162:src/PCB.cpp   ****     }
 839              		.loc 1 162 54 is_stmt 0
 840              	#APP
 841              	# 162 "src/PCB.cpp" 1
 842              		li a0, 0xffffffffffffffff
 843              	# 0 "" 2
 844              	#NO_APP
 845 04a8 6FF05FFE 		j	.L36
 846              		.cfi_endproc
 847              	.LFE43:
 849              		.align	2
 850              		.globl	_ZN3PCB20threadMakePCBHandlerEv
 852              	_ZN3PCB20threadMakePCBHandlerEv:
 853              	.LFB44:
 166:src/PCB.cpp   **** 
GAS LISTING /tmp/ccKefzti.s 			page 20


 167:src/PCB.cpp   **** void PCB::threadMakePCBHandler()
 168:src/PCB.cpp   **** {
 854              		.loc 1 168 1 is_stmt 1
 855              		.cfi_startproc
 856 04ac 130101FD 		addi	sp,sp,-48
 857              		.cfi_def_cfa_offset 48
 858 04b0 23341102 		sd	ra,40(sp)
 859 04b4 23308102 		sd	s0,32(sp)
 860 04b8 233C9100 		sd	s1,24(sp)
 861 04bc 23382101 		sd	s2,16(sp)
 862 04c0 23343101 		sd	s3,8(sp)
 863 04c4 23304101 		sd	s4,0(sp)
 864              		.cfi_offset 1, -8
 865              		.cfi_offset 8, -16
 866              		.cfi_offset 9, -24
 867              		.cfi_offset 18, -32
 868              		.cfi_offset 19, -40
 869              		.cfi_offset 20, -48
 870 04c8 13040103 		addi	s0,sp,48
 871              		.cfi_def_cfa 8, 0
 169:src/PCB.cpp   ****     uint64 start_routine;
 872              		.loc 1 169 5
 170:src/PCB.cpp   ****     uint64 args;
 873              		.loc 1 170 5
 171:src/PCB.cpp   ****     PCB **threadHandle;
 874              		.loc 1 171 5
 172:src/PCB.cpp   ****     __asm__ volatile("mv %0, a1" : "=r"(threadHandle));
 875              		.loc 1 172 5
 876              		.loc 1 172 55 is_stmt 0
 877              	#APP
 878              	# 172 "src/PCB.cpp" 1
 173              	    __asm__ volatile("mv %0, a2" : "=r"(start_routine));
 879              		mv s2, a1
 880              	# 0 "" 2
 881              	.LVL65:
 882              		.loc 1 173 5 is_stmt 1
 883              		.loc 1 173 56 is_stmt 0
 884              	# 173 "src/PCB.cpp" 1
 174              	    __asm__ volatile("mv %0, a3" : "=r"(args));
 885              		mv s3, a2
 886              	# 0 "" 2
 887              	.LVL66:
 888              		.loc 1 174 5 is_stmt 1
 889              		.loc 1 174 47 is_stmt 0
 890              	# 174 "src/PCB.cpp" 1
 175              	
 891              		mv s4, a3
 892              	# 0 "" 2
 893              	.LVL67:
 176:src/PCB.cpp   ****     PCB *newPCB = new PCB((void (*)(void *)) start_routine, (void *) args, (void *) PCB::savedRegA4
 894              		.loc 1 176 5 is_stmt 1
 895              		.loc 1 176 120 is_stmt 0
 896              	#NO_APP
 897 04d8 13050006 		li	a0,96
 898 04dc 97000000 		call	_ZN3PCBnwEm
 898      E7800000 
 899              	.LVL68:
GAS LISTING /tmp/ccKefzti.s 			page 21


 900 04e4 93040500 		mv	s1,a0
 901 04e8 13072000 		li	a4,2
 902 04ec 97060000 		ld	a3,.LANCHOR0+24
 902      83B60600 
 903 04f4 13060A00 		mv	a2,s4
 904 04f8 93850900 		mv	a1,s3
 905 04fc 97000000 		call	_ZN3PCBC1EPFvPvES0_S0_m
 905      E7800000 
 906              	.LVL69:
 177:src/PCB.cpp   **** 
 178:src/PCB.cpp   ****     (*threadHandle) = newPCB;
 907              		.loc 1 178 5 is_stmt 1
 908              		.loc 1 178 21 is_stmt 0
 909 0504 23309900 		sd	s1,0(s2)
 179:src/PCB.cpp   **** 
 180:src/PCB.cpp   ****     if (newPCB == 0)
 910              		.loc 1 180 5 is_stmt 1
 911 0508 63880402 		beqz	s1,.L42
 181:src/PCB.cpp   ****         __asm__ volatile("li a0, 0xffffffffffffffff");
 182:src/PCB.cpp   ****     else
 183:src/PCB.cpp   ****         __asm__ volatile("li a0, 0");
 912              		.loc 1 183 9
 913              		.loc 1 183 37 is_stmt 0
 914              	#APP
 915              	# 183 "src/PCB.cpp" 1
 184              	    Riscv::w_a0_sscratch();
 916              		li a0, 0
 917              	# 0 "" 2
 918              	#NO_APP
 919              	.L40:
 920              		.loc 1 184 5 is_stmt 1
 921              		.loc 1 184 25 is_stmt 0
 922 0510 97000000 		call	_ZN5Riscv13w_a0_sscratchEv@plt
 922      E7800000 
 923              	.LVL70:
 185:src/PCB.cpp   **** }
 924              		.loc 1 185 1
 925 0518 83308102 		ld	ra,40(sp)
 926              		.cfi_remember_state
 927              		.cfi_restore 1
 928 051c 03340102 		ld	s0,32(sp)
 929              		.cfi_restore 8
 930              		.cfi_def_cfa 2, 48
 931 0520 83348101 		ld	s1,24(sp)
 932              		.cfi_restore 9
 933              	.LVL71:
 934 0524 03390101 		ld	s2,16(sp)
 935              		.cfi_restore 18
 936              	.LVL72:
 937 0528 83398100 		ld	s3,8(sp)
 938              		.cfi_restore 19
 939              	.LVL73:
 940 052c 033A0100 		ld	s4,0(sp)
 941              		.cfi_restore 20
 942              	.LVL74:
 943 0530 13010103 		addi	sp,sp,48
 944              		.cfi_def_cfa_offset 0
GAS LISTING /tmp/ccKefzti.s 			page 22


 945 0534 67800000 		jr	ra
 946              	.LVL75:
 947              	.L42:
 948              		.cfi_restore_state
 181:src/PCB.cpp   ****         __asm__ volatile("li a0, 0xffffffffffffffff");
 949              		.loc 1 181 9 is_stmt 1
 181:src/PCB.cpp   ****         __asm__ volatile("li a0, 0xffffffffffffffff");
 950              		.loc 1 181 54 is_stmt 0
 951              	#APP
 952              	# 181 "src/PCB.cpp" 1
 953              		li a0, 0xffffffffffffffff
 954              	# 0 "" 2
 955              	#NO_APP
 956 053c 6FF05FFD 		j	.L40
 957              		.cfi_endproc
 958              	.LFE44:
 960              		.globl	_ZN3PCB10consolePCBE
 961              		.globl	_ZN3PCB10savedRegA4E
 962              		.globl	_ZN3PCB16timeSliceCounterE
 963              		.globl	_ZN3PCB7runningE
 964              		.bss
 965              		.align	3
 966              		.set	.LANCHOR0,. + 0
 969              	_ZN3PCB7runningE:
 970 0000 00000000 		.zero	8
 970      00000000 
 973              	_ZN3PCB10consolePCBE:
 974 0008 00000000 		.zero	8
 974      00000000 
 977              	_ZN3PCB16timeSliceCounterE:
 978 0010 00000000 		.zero	8
 978      00000000 
 981              	_ZN3PCB10savedRegA4E:
 982 0018 00000000 		.zero	8
 982      00000000 
 983              		.text
 984              	.Letext0:
 985              		.file 3 "src/../h/../lib/hw.h"
 986              		.file 4 "src/../h/SleepPCBList.hpp"
 987              		.file 5 "src/../h/MemoryAllocator.hpp"
 988              		.file 6 "src/../h/Scheduler.hpp"
 989              		.file 7 "src/../h/Riscv.hpp"
 990              		.file 8 "src/../h/syscall_c.h"
 4828              		.align	3
 4831              	DW.ref.__gxx_personality_v0:
 4832 0000 00000000 		.dword	__gxx_personality_v0
 4832      00000000 
 4833              		.ident	"GCC: (Ubuntu 9.3.0-17ubuntu1~20.04) 9.3.0"
 4834              		.section	.note.GNU-stack,"",@progbits
GAS LISTING /tmp/ccKefzti.s 			page 23


DEFINED SYMBOLS
                            *ABS*:0000000000000000 PCB.cpp
     /tmp/ccKefzti.s:9      .text:0000000000000000 _ZN3PCB6runnerEv
     /tmp/ccKefzti.s:13     .text:0000000000000000 .L0 
     /tmp/ccKefzti.s:14     .text:0000000000000000 .L0 
     /tmp/ccKefzti.s:15     .text:0000000000000004 .L0 
     /tmp/ccKefzti.s:18     .text:000000000000000c .L0 
     /tmp/ccKefzti.s:19     .text:000000000000000c .L0 
     /tmp/ccKefzti.s:21     .text:0000000000000010 .L0 
     /tmp/ccKefzti.s:23     .text:0000000000000010 .L0 
     /tmp/ccKefzti.s:24     .text:0000000000000010 .L0 
     /tmp/ccKefzti.s:27     .text:0000000000000018 .L0 
     /tmp/ccKefzti.s:28     .text:0000000000000018 .L0 
     /tmp/ccKefzti.s:31     .text:0000000000000024 .L0 
     /tmp/ccKefzti.s:35     .text:000000000000002c .L0 
     /tmp/ccKefzti.s:36     .text:000000000000002c .L0 
     /tmp/ccKefzti.s:39     .text:0000000000000034 .L0 
     /tmp/ccKefzti.s:40     .text:0000000000000038 .L0 
     /tmp/ccKefzti.s:42     .text:000000000000003c .L0 
     /tmp/ccKefzti.s:43     .text:000000000000003c .L0 
     /tmp/ccKefzti.s:45     .text:0000000000000040 .L0 
     /tmp/ccKefzti.s:47     .text:0000000000000044 .L0 
     /tmp/ccKefzti.s:53     .text:0000000000000044 _ZN3PCBC2EPFvPvES0_S0_m
     /tmp/ccKefzti.s:56     .text:0000000000000044 .L0 
     /tmp/ccKefzti.s:58     .text:0000000000000044 .L0 
     /tmp/ccKefzti.s:59     .text:0000000000000048 .L0 
     /tmp/ccKefzti.s:61     .text:000000000000004c .L0 
     /tmp/ccKefzti.s:63     .text:0000000000000050 .L0 
     /tmp/ccKefzti.s:66     .text:0000000000000050 .L0 
     /tmp/ccKefzti.s:73     .text:0000000000000068 .L0 
     /tmp/ccKefzti.s:77     .text:0000000000000070 .L0 
     /tmp/ccKefzti.s:82     .text:0000000000000084 .L0 
     /tmp/ccKefzti.s:83     .text:0000000000000084 .L0 
     /tmp/ccKefzti.s:86     .text:0000000000000088 .L0 
     /tmp/ccKefzti.s:87     .text:000000000000008c .L0 
     /tmp/ccKefzti.s:88     .text:000000000000008c .L0 
     /tmp/ccKefzti.s:90     .text:0000000000000090 .L0 
     /tmp/ccKefzti.s:92     .text:0000000000000094 .L0 
     /tmp/ccKefzti.s:53     .text:0000000000000044 _ZN3PCBC1EPFvPvES0_S0_m
     /tmp/ccKefzti.s:100    .text:0000000000000094 _ZN3PCB5sleepEm
     /tmp/ccKefzti.s:103    .text:0000000000000094 .L0 
     /tmp/ccKefzti.s:105    .text:0000000000000094 .L0 
     /tmp/ccKefzti.s:106    .text:0000000000000098 .L0 
     /tmp/ccKefzti.s:108    .text:000000000000009c .L0 
     /tmp/ccKefzti.s:110    .text:00000000000000a0 .L0 
     /tmp/ccKefzti.s:112    .text:00000000000000a0 .L0 
     /tmp/ccKefzti.s:113    .text:00000000000000a4 .L0 
     /tmp/ccKefzti.s:114    .text:00000000000000a4 .L0 
     /tmp/ccKefzti.s:116    .text:00000000000000a8 .L0 
     /tmp/ccKefzti.s:118    .text:00000000000000ac .L0 
     /tmp/ccKefzti.s:124    .text:00000000000000ac _ZN3PCB5startEv
     /tmp/ccKefzti.s:127    .text:00000000000000ac .L0 
     /tmp/ccKefzti.s:129    .text:00000000000000ac .L0 
     /tmp/ccKefzti.s:130    .text:00000000000000b0 .L0 
     /tmp/ccKefzti.s:133    .text:00000000000000b8 .L0 
     /tmp/ccKefzti.s:134    .text:00000000000000b8 .L0 
     /tmp/ccKefzti.s:136    .text:00000000000000bc .L0 
GAS LISTING /tmp/ccKefzti.s 			page 24


     /tmp/ccKefzti.s:138    .text:00000000000000bc .L0 
     /tmp/ccKefzti.s:139    .text:00000000000000bc .L0 
     /tmp/ccKefzti.s:142    .text:00000000000000c4 .L0 
     /tmp/ccKefzti.s:143    .text:00000000000000c8 .L0 
     /tmp/ccKefzti.s:145    .text:00000000000000cc .L0 
     /tmp/ccKefzti.s:146    .text:00000000000000cc .L0 
     /tmp/ccKefzti.s:148    .text:00000000000000d0 .L0 
     /tmp/ccKefzti.s:150    .text:00000000000000d4 .L0 
     /tmp/ccKefzti.s:156    .text:00000000000000d4 _ZN3PCB8dispatchEv
     /tmp/ccKefzti.s:159    .text:00000000000000d4 .L0 
     /tmp/ccKefzti.s:160    .text:00000000000000d4 .L0 
     /tmp/ccKefzti.s:161    .text:00000000000000d8 .L0 
     /tmp/ccKefzti.s:166    .text:00000000000000e8 .L0 
     /tmp/ccKefzti.s:167    .text:00000000000000e8 .L0 
     /tmp/ccKefzti.s:168    .text:00000000000000e8 .L0 
     /tmp/ccKefzti.s:169    .text:00000000000000e8 .L0 
     /tmp/ccKefzti.s:171    .text:00000000000000ec .L0 
     /tmp/ccKefzti.s:173    .text:00000000000000ec .L0 
     /tmp/ccKefzti.s:174    .text:00000000000000ec .L0 
     /tmp/ccKefzti.s:180    .text:00000000000000f4 .L0 
     /tmp/ccKefzti.s:181    .text:00000000000000f4 .L0 
     /tmp/ccKefzti.s:182    .text:00000000000000f4 .L0 
     /tmp/ccKefzti.s:187    .text:00000000000000f8 .L0 
     /tmp/ccKefzti.s:191    .text:0000000000000100 .L0 
     /tmp/ccKefzti.s:192    .text:0000000000000100 .L0 
     /tmp/ccKefzti.s:195    .text:0000000000000108 .L0 
     /tmp/ccKefzti.s:201    .text:0000000000000114 .L0 
     /tmp/ccKefzti.s:202    .text:0000000000000114 .L0 
     /tmp/ccKefzti.s:203    .text:0000000000000114 .L0 
     /tmp/ccKefzti.s:209    .text:000000000000011c .L0 
     /tmp/ccKefzti.s:210    .text:000000000000011c .L0 
     /tmp/ccKefzti.s:213    .text:0000000000000124 .L0 
     /tmp/ccKefzti.s:214    .text:0000000000000124 .L0 
     /tmp/ccKefzti.s:216    .text:0000000000000128 .L0 
     /tmp/ccKefzti.s:221    .text:0000000000000138 .L0 
     /tmp/ccKefzti.s:222    .text:000000000000013c .L0 
     /tmp/ccKefzti.s:223    .text:000000000000013c .L0 
     /tmp/ccKefzti.s:225    .text:0000000000000140 .L0 
     /tmp/ccKefzti.s:226    .text:0000000000000140 .L0 
     /tmp/ccKefzti.s:228    .text:0000000000000144 .L0 
     /tmp/ccKefzti.s:231    .text:0000000000000148 .L0 
     /tmp/ccKefzti.s:233    .text:000000000000014c .L0 
     /tmp/ccKefzti.s:237    .text:0000000000000150 .L0 
     /tmp/ccKefzti.s:239    .text:0000000000000150 .L0 
     /tmp/ccKefzti.s:240    .text:0000000000000150 .L0 
     /tmp/ccKefzti.s:244    .text:0000000000000160 .L0 
     /tmp/ccKefzti.s:250    .text:0000000000000160 _ZN3PCBnwEm
     /tmp/ccKefzti.s:253    .text:0000000000000160 .L0 
     /tmp/ccKefzti.s:255    .text:0000000000000160 .L0 
     /tmp/ccKefzti.s:256    .text:0000000000000164 .L0 
     /tmp/ccKefzti.s:259    .text:000000000000016c .L0 
     /tmp/ccKefzti.s:260    .text:000000000000016c .L0 
     /tmp/ccKefzti.s:262    .text:0000000000000170 .L0 
     /tmp/ccKefzti.s:264    .text:0000000000000170 .L0 
     /tmp/ccKefzti.s:265    .text:0000000000000170 .L0 
     /tmp/ccKefzti.s:268    .text:0000000000000178 .L0 
     /tmp/ccKefzti.s:269    .text:000000000000017c .L0 
GAS LISTING /tmp/ccKefzti.s 			page 25


     /tmp/ccKefzti.s:271    .text:0000000000000180 .L0 
     /tmp/ccKefzti.s:272    .text:0000000000000180 .L0 
     /tmp/ccKefzti.s:274    .text:0000000000000184 .L0 
     /tmp/ccKefzti.s:276    .text:0000000000000188 .L0 
     /tmp/ccKefzti.s:282    .text:0000000000000188 _ZN3PCBdlEPv
     /tmp/ccKefzti.s:285    .text:0000000000000188 .L0 
     /tmp/ccKefzti.s:287    .text:0000000000000188 .L0 
     /tmp/ccKefzti.s:288    .text:000000000000018c .L0 
     /tmp/ccKefzti.s:291    .text:0000000000000194 .L0 
     /tmp/ccKefzti.s:292    .text:0000000000000194 .L0 
     /tmp/ccKefzti.s:294    .text:0000000000000198 .L0 
     /tmp/ccKefzti.s:296    .text:0000000000000198 .L0 
     /tmp/ccKefzti.s:297    .text:0000000000000198 .L0 
     /tmp/ccKefzti.s:300    .text:00000000000001a0 .L0 
     /tmp/ccKefzti.s:301    .text:00000000000001a4 .L0 
     /tmp/ccKefzti.s:303    .text:00000000000001a8 .L0 
     /tmp/ccKefzti.s:304    .text:00000000000001a8 .L0 
     /tmp/ccKefzti.s:306    .text:00000000000001ac .L0 
     /tmp/ccKefzti.s:308    .text:00000000000001b0 .L0 
     /tmp/ccKefzti.s:314    .text:00000000000001b0 _ZN3PCBD2Ev
     /tmp/ccKefzti.s:317    .text:00000000000001b0 .L0 
     /tmp/ccKefzti.s:4831   .data.rel.local.DW.ref.__gxx_personality_v0:0000000000000000 DW.ref.__gxx_personality_v0
     /tmp/ccKefzti.s:321    .text:00000000000001b0 .L0 
     /tmp/ccKefzti.s:322    .text:00000000000001b4 .L0 
     /tmp/ccKefzti.s:325    .text:00000000000001bc .L0 
     /tmp/ccKefzti.s:326    .text:00000000000001bc .L0 
     /tmp/ccKefzti.s:328    .text:00000000000001c0 .L0 
     /tmp/ccKefzti.s:331    .text:00000000000001c0 .L0 
     /tmp/ccKefzti.s:332    .text:00000000000001c0 .L0 
     /tmp/ccKefzti.s:338    .text:00000000000001cc .L0 
     /tmp/ccKefzti.s:339    .text:00000000000001d0 .L0 
     /tmp/ccKefzti.s:341    .text:00000000000001d4 .L0 
     /tmp/ccKefzti.s:342    .text:00000000000001d4 .L0 
     /tmp/ccKefzti.s:344    .text:00000000000001d8 .L0 
     /tmp/ccKefzti.s:346    .text:00000000000001dc .L0 
     /tmp/ccKefzti.s:314    .text:00000000000001b0 _ZN3PCBD1Ev
     /tmp/ccKefzti.s:362    .text:00000000000001dc _ZN3PCB10initializeEv
     /tmp/ccKefzti.s:365    .text:00000000000001dc .L0 
     /tmp/ccKefzti.s:366    .text:00000000000001dc .L0 
     /tmp/ccKefzti.s:367    .text:00000000000001e0 .L0 
     /tmp/ccKefzti.s:374    .text:00000000000001f8 .L0 
     /tmp/ccKefzti.s:375    .text:00000000000001f8 .L0 
     /tmp/ccKefzti.s:376    .text:00000000000001f8 .L0 
     /tmp/ccKefzti.s:377    .text:00000000000001f8 .L0 
     /tmp/ccKefzti.s:378    .text:00000000000001f8 .L0 
     /tmp/ccKefzti.s:379    .text:00000000000001f8 .L0 
     /tmp/ccKefzti.s:381    .text:00000000000001fc .L0 
     /tmp/ccKefzti.s:383    .text:00000000000001fc .L0 
     /tmp/ccKefzti.s:384    .text:00000000000001fc .L0 
     /tmp/ccKefzti.s:395    .text:0000000000000224 .L0 
     /tmp/ccKefzti.s:396    .text:0000000000000224 .L0 
     /tmp/ccKefzti.s:400    .text:0000000000000230 .L0 
     /tmp/ccKefzti.s:401    .text:0000000000000230 .L0 
     /tmp/ccKefzti.s:404    .text:0000000000000238 .L0 
     /tmp/ccKefzti.s:405    .text:0000000000000238 .L0 
     /tmp/ccKefzti.s:408    .text:0000000000000240 .L0 
     /tmp/ccKefzti.s:414    .text:000000000000024c .L0 
GAS LISTING /tmp/ccKefzti.s 			page 26


     /tmp/ccKefzti.s:415    .text:000000000000024c .L0 
     /tmp/ccKefzti.s:416    .text:000000000000024c .L0 
     /tmp/ccKefzti.s:422    .text:0000000000000254 .L0 
     /tmp/ccKefzti.s:423    .text:0000000000000254 .L0 
     /tmp/ccKefzti.s:428    .text:0000000000000264 .L0 
     /tmp/ccKefzti.s:440    .text:0000000000000290 .L0 
     /tmp/ccKefzti.s:442    .text:0000000000000294 .L0 
     /tmp/ccKefzti.s:443    .text:0000000000000294 .L0 
     /tmp/ccKefzti.s:445    .text:0000000000000298 .L0 
     /tmp/ccKefzti.s:446    .text:0000000000000298 .L0 
     /tmp/ccKefzti.s:450    .text:00000000000002a4 .L0 
     /tmp/ccKefzti.s:451    .text:00000000000002a8 .L0 
     /tmp/ccKefzti.s:453    .text:00000000000002ac .L0 
     /tmp/ccKefzti.s:454    .text:00000000000002ac .L0 
     /tmp/ccKefzti.s:456    .text:00000000000002b0 .L0 
     /tmp/ccKefzti.s:458    .text:00000000000002b4 .L0 
     /tmp/ccKefzti.s:460    .text:00000000000002b8 .L0 
     /tmp/ccKefzti.s:462    .text:00000000000002bc .L0 
     /tmp/ccKefzti.s:464    .text:00000000000002c0 .L0 
     /tmp/ccKefzti.s:466    .text:00000000000002c4 .L0 
     /tmp/ccKefzti.s:472    .text:00000000000002c4 _ZN3PCB10isFinishedEv
     /tmp/ccKefzti.s:475    .text:00000000000002c4 .L0 
     /tmp/ccKefzti.s:477    .text:00000000000002c4 .L0 
     /tmp/ccKefzti.s:478    .text:00000000000002c8 .L0 
     /tmp/ccKefzti.s:480    .text:00000000000002cc .L0 
     /tmp/ccKefzti.s:482    .text:00000000000002d0 .L0 
     /tmp/ccKefzti.s:484    .text:00000000000002d0 .L0 
     /tmp/ccKefzti.s:485    .text:00000000000002d0 .L0 
     /tmp/ccKefzti.s:488    .text:00000000000002d4 .L0 
     /tmp/ccKefzti.s:490    .text:00000000000002d8 .L0 
     /tmp/ccKefzti.s:492    .text:00000000000002e0 .L0 
     /tmp/ccKefzti.s:493    .text:00000000000002e0 .L0 
     /tmp/ccKefzti.s:495    .text:00000000000002e4 .L0 
     /tmp/ccKefzti.s:497    .text:00000000000002e8 .L0 
     /tmp/ccKefzti.s:503    .text:00000000000002e8 _ZN3PCB17threadExitHandlerEv
     /tmp/ccKefzti.s:506    .text:00000000000002e8 .L0 
     /tmp/ccKefzti.s:507    .text:00000000000002e8 .L0 
     /tmp/ccKefzti.s:508    .text:00000000000002ec .L0 
     /tmp/ccKefzti.s:511    .text:00000000000002f4 .L0 
     /tmp/ccKefzti.s:512    .text:00000000000002f4 .L0 
     /tmp/ccKefzti.s:514    .text:00000000000002f8 .L0 
     /tmp/ccKefzti.s:516    .text:00000000000002f8 .L0 
     /tmp/ccKefzti.s:517    .text:00000000000002f8 .L0 
     /tmp/ccKefzti.s:520    .text:0000000000000304 .L0 
     /tmp/ccKefzti.s:521    .text:0000000000000304 .L0 
     /tmp/ccKefzti.s:526    .text:0000000000000308 .L0 
     /tmp/ccKefzti.s:527    .text:0000000000000308 .L0 
     /tmp/ccKefzti.s:533    .text:0000000000000310 .L0 
     /tmp/ccKefzti.s:534    .text:0000000000000310 .L0 
     /tmp/ccKefzti.s:537    .text:0000000000000318 .L0 
         src/PCB.cpp:106    .text:0000000000000318 .L0 
     /tmp/ccKefzti.s:543    .text:000000000000031c .L0 
     /tmp/ccKefzti.s:545    .text:000000000000031c .L0 
     /tmp/ccKefzti.s:548    .text:0000000000000324 .L0 
     /tmp/ccKefzti.s:549    .text:0000000000000328 .L0 
     /tmp/ccKefzti.s:551    .text:000000000000032c .L0 
     /tmp/ccKefzti.s:552    .text:000000000000032c .L0 
GAS LISTING /tmp/ccKefzti.s 			page 27


     /tmp/ccKefzti.s:554    .text:0000000000000330 .L0 
     /tmp/ccKefzti.s:556    .text:0000000000000334 .L0 
     /tmp/ccKefzti.s:562    .text:0000000000000334 _ZN3PCB21threadDispatchHandlerEv
     /tmp/ccKefzti.s:565    .text:0000000000000334 .L0 
     /tmp/ccKefzti.s:566    .text:0000000000000334 .L0 
     /tmp/ccKefzti.s:567    .text:0000000000000338 .L0 
     /tmp/ccKefzti.s:570    .text:0000000000000340 .L0 
     /tmp/ccKefzti.s:571    .text:0000000000000340 .L0 
     /tmp/ccKefzti.s:573    .text:0000000000000344 .L0 
     /tmp/ccKefzti.s:575    .text:0000000000000344 .L0 
     /tmp/ccKefzti.s:576    .text:0000000000000344 .L0 
     /tmp/ccKefzti.s:578    .text:000000000000034c .L0 
     /tmp/ccKefzti.s:579    .text:000000000000034c .L0 
     /tmp/ccKefzti.s:582    .text:0000000000000354 .L0 
     /tmp/ccKefzti.s:583    .text:0000000000000358 .L0 
     /tmp/ccKefzti.s:585    .text:000000000000035c .L0 
     /tmp/ccKefzti.s:586    .text:000000000000035c .L0 
     /tmp/ccKefzti.s:588    .text:0000000000000360 .L0 
     /tmp/ccKefzti.s:590    .text:0000000000000364 .L0 
     /tmp/ccKefzti.s:596    .text:0000000000000364 _ZN3PCB18threadSleepHandlerEv
     /tmp/ccKefzti.s:599    .text:0000000000000364 .L0 
     /tmp/ccKefzti.s:600    .text:0000000000000364 .L0 
     /tmp/ccKefzti.s:601    .text:0000000000000368 .L0 
     /tmp/ccKefzti.s:604    .text:0000000000000370 .L0 
     /tmp/ccKefzti.s:605    .text:0000000000000370 .L0 
     /tmp/ccKefzti.s:607    .text:0000000000000374 .L0 
     /tmp/ccKefzti.s:609    .text:0000000000000374 .L0 
     /tmp/ccKefzti.s:610    .text:0000000000000374 .L0 
         src/PCB.cpp:119    .text:0000000000000374 .L0 
     /tmp/ccKefzti.s:617    .text:0000000000000378 .L0 
     /tmp/ccKefzti.s:619    .text:0000000000000378 .L0 
     /tmp/ccKefzti.s:622    .text:0000000000000384 .L0 
     /tmp/ccKefzti.s:623    .text:0000000000000384 .L0 
     /tmp/ccKefzti.s:631    .text:0000000000000398 .L0 
     /tmp/ccKefzti.s:632    .text:0000000000000398 .L0 
     /tmp/ccKefzti.s:637    .text:000000000000039c .L0 
     /tmp/ccKefzti.s:638    .text:000000000000039c .L0 
     /tmp/ccKefzti.s:641    .text:00000000000003a4 .L0 
     /tmp/ccKefzti.s:642    .text:00000000000003a4 .L0 
     /tmp/ccKefzti.s:645    .text:00000000000003ac .L0 
         src/PCB.cpp:124    .text:00000000000003ac .L0 
     /tmp/ccKefzti.s:651    .text:00000000000003b0 .L0 
     /tmp/ccKefzti.s:653    .text:00000000000003b0 .L0 
     /tmp/ccKefzti.s:656    .text:00000000000003b8 .L0 
     /tmp/ccKefzti.s:657    .text:00000000000003bc .L0 
     /tmp/ccKefzti.s:659    .text:00000000000003c0 .L0 
     /tmp/ccKefzti.s:660    .text:00000000000003c0 .L0 
     /tmp/ccKefzti.s:662    .text:00000000000003c4 .L0 
     /tmp/ccKefzti.s:664    .text:00000000000003c8 .L0 
     /tmp/ccKefzti.s:670    .text:00000000000003c8 _ZN3PCB19threadCreateHandlerEv
     /tmp/ccKefzti.s:673    .text:00000000000003c8 .L0 
     /tmp/ccKefzti.s:674    .text:00000000000003c8 .L0 
     /tmp/ccKefzti.s:675    .text:00000000000003cc .L0 
     /tmp/ccKefzti.s:682    .text:00000000000003e4 .L0 
     /tmp/ccKefzti.s:683    .text:00000000000003e4 .L0 
     /tmp/ccKefzti.s:684    .text:00000000000003e4 .L0 
     /tmp/ccKefzti.s:685    .text:00000000000003e4 .L0 
GAS LISTING /tmp/ccKefzti.s 			page 28


     /tmp/ccKefzti.s:686    .text:00000000000003e4 .L0 
     /tmp/ccKefzti.s:687    .text:00000000000003e4 .L0 
     /tmp/ccKefzti.s:689    .text:00000000000003e8 .L0 
     /tmp/ccKefzti.s:691    .text:00000000000003e8 .L0 
     /tmp/ccKefzti.s:692    .text:00000000000003e8 .L0 
     /tmp/ccKefzti.s:693    .text:00000000000003e8 .L0 
     /tmp/ccKefzti.s:694    .text:00000000000003e8 .L0 
         src/PCB.cpp:133    .text:00000000000003e8 .L0 
     /tmp/ccKefzti.s:701    .text:00000000000003ec .L0 
         src/PCB.cpp:134    .text:00000000000003ec .L0 
     /tmp/ccKefzti.s:707    .text:00000000000003f0 .L0 
         src/PCB.cpp:135    .text:00000000000003f0 .L0 
     /tmp/ccKefzti.s:713    .text:00000000000003f4 .L0 
     /tmp/ccKefzti.s:715    .text:00000000000003f4 .L0 
     /tmp/ccKefzti.s:726    .text:0000000000000420 .L0 
     /tmp/ccKefzti.s:727    .text:0000000000000420 .L0 
     /tmp/ccKefzti.s:729    .text:0000000000000424 .L0 
     /tmp/ccKefzti.s:731    .text:0000000000000428 .L0 
     /tmp/ccKefzti.s:732    .text:0000000000000428 .L0 
     /tmp/ccKefzti.s:736    .text:0000000000000434 .L0 
         src/PCB.cpp:146    .text:0000000000000434 .L0 
     /tmp/ccKefzti.s:744    .text:0000000000000438 .L0 
     /tmp/ccKefzti.s:745    .text:0000000000000438 .L0 
     /tmp/ccKefzti.s:748    .text:0000000000000440 .L0 
     /tmp/ccKefzti.s:749    .text:0000000000000444 .L0 
     /tmp/ccKefzti.s:750    .text:0000000000000444 .L0 
     /tmp/ccKefzti.s:752    .text:0000000000000448 .L0 
     /tmp/ccKefzti.s:753    .text:0000000000000448 .L0 
     /tmp/ccKefzti.s:755    .text:000000000000044c .L0 
     /tmp/ccKefzti.s:758    .text:0000000000000450 .L0 
     /tmp/ccKefzti.s:761    .text:0000000000000454 .L0 
     /tmp/ccKefzti.s:764    .text:0000000000000458 .L0 
     /tmp/ccKefzti.s:767    .text:000000000000045c .L0 
     /tmp/ccKefzti.s:771    .text:0000000000000460 .L0 
     /tmp/ccKefzti.s:773    .text:0000000000000460 .L0 
         src/PCB.cpp:142    .text:0000000000000460 .L0 
     /tmp/ccKefzti.s:780    .text:0000000000000468 .L0 
     /tmp/ccKefzti.s:786    .text:0000000000000468 _ZN3PCB18threadStartHandlerEv
     /tmp/ccKefzti.s:789    .text:0000000000000468 .L0 
     /tmp/ccKefzti.s:790    .text:0000000000000468 .L0 
     /tmp/ccKefzti.s:791    .text:000000000000046c .L0 
     /tmp/ccKefzti.s:794    .text:0000000000000474 .L0 
     /tmp/ccKefzti.s:795    .text:0000000000000474 .L0 
     /tmp/ccKefzti.s:797    .text:0000000000000478 .L0 
     /tmp/ccKefzti.s:799    .text:0000000000000478 .L0 
     /tmp/ccKefzti.s:800    .text:0000000000000478 .L0 
         src/PCB.cpp:154    .text:0000000000000478 .L0 
     /tmp/ccKefzti.s:808    .text:000000000000047c .L0 
     /tmp/ccKefzti.s:810    .text:0000000000000480 .L0 
     /tmp/ccKefzti.s:811    .text:0000000000000480 .L0 
     /tmp/ccKefzti.s:814    .text:0000000000000488 .L0 
         src/PCB.cpp:158    .text:0000000000000488 .L0 
     /tmp/ccKefzti.s:822    .text:000000000000048c .L0 
     /tmp/ccKefzti.s:823    .text:000000000000048c .L0 
     /tmp/ccKefzti.s:826    .text:0000000000000494 .L0 
     /tmp/ccKefzti.s:827    .text:0000000000000498 .L0 
     /tmp/ccKefzti.s:828    .text:0000000000000498 .L0 
GAS LISTING /tmp/ccKefzti.s 			page 29


     /tmp/ccKefzti.s:830    .text:000000000000049c .L0 
     /tmp/ccKefzti.s:831    .text:000000000000049c .L0 
     /tmp/ccKefzti.s:833    .text:00000000000004a0 .L0 
     /tmp/ccKefzti.s:837    .text:00000000000004a4 .L0 
     /tmp/ccKefzti.s:839    .text:00000000000004a4 .L0 
         src/PCB.cpp:162    .text:00000000000004a4 .L0 
     /tmp/ccKefzti.s:846    .text:00000000000004ac .L0 
     /tmp/ccKefzti.s:852    .text:00000000000004ac _ZN3PCB20threadMakePCBHandlerEv
     /tmp/ccKefzti.s:855    .text:00000000000004ac .L0 
     /tmp/ccKefzti.s:856    .text:00000000000004ac .L0 
     /tmp/ccKefzti.s:857    .text:00000000000004b0 .L0 
     /tmp/ccKefzti.s:864    .text:00000000000004c8 .L0 
     /tmp/ccKefzti.s:865    .text:00000000000004c8 .L0 
     /tmp/ccKefzti.s:866    .text:00000000000004c8 .L0 
     /tmp/ccKefzti.s:867    .text:00000000000004c8 .L0 
     /tmp/ccKefzti.s:868    .text:00000000000004c8 .L0 
     /tmp/ccKefzti.s:869    .text:00000000000004c8 .L0 
     /tmp/ccKefzti.s:871    .text:00000000000004cc .L0 
     /tmp/ccKefzti.s:873    .text:00000000000004cc .L0 
     /tmp/ccKefzti.s:874    .text:00000000000004cc .L0 
     /tmp/ccKefzti.s:875    .text:00000000000004cc .L0 
     /tmp/ccKefzti.s:876    .text:00000000000004cc .L0 
         src/PCB.cpp:172    .text:00000000000004cc .L0 
     /tmp/ccKefzti.s:883    .text:00000000000004d0 .L0 
         src/PCB.cpp:173    .text:00000000000004d0 .L0 
     /tmp/ccKefzti.s:889    .text:00000000000004d4 .L0 
         src/PCB.cpp:174    .text:00000000000004d4 .L0 
     /tmp/ccKefzti.s:895    .text:00000000000004d8 .L0 
     /tmp/ccKefzti.s:897    .text:00000000000004d8 .L0 
     /tmp/ccKefzti.s:908    .text:0000000000000504 .L0 
     /tmp/ccKefzti.s:909    .text:0000000000000504 .L0 
     /tmp/ccKefzti.s:911    .text:0000000000000508 .L0 
     /tmp/ccKefzti.s:913    .text:000000000000050c .L0 
         src/PCB.cpp:183    .text:000000000000050c .L0 
     /tmp/ccKefzti.s:921    .text:0000000000000510 .L0 
     /tmp/ccKefzti.s:922    .text:0000000000000510 .L0 
     /tmp/ccKefzti.s:925    .text:0000000000000518 .L0 
     /tmp/ccKefzti.s:926    .text:000000000000051c .L0 
     /tmp/ccKefzti.s:927    .text:000000000000051c .L0 
     /tmp/ccKefzti.s:929    .text:0000000000000520 .L0 
     /tmp/ccKefzti.s:930    .text:0000000000000520 .L0 
     /tmp/ccKefzti.s:932    .text:0000000000000524 .L0 
     /tmp/ccKefzti.s:935    .text:0000000000000528 .L0 
     /tmp/ccKefzti.s:938    .text:000000000000052c .L0 
     /tmp/ccKefzti.s:941    .text:0000000000000530 .L0 
     /tmp/ccKefzti.s:944    .text:0000000000000534 .L0 
     /tmp/ccKefzti.s:948    .text:0000000000000538 .L0 
     /tmp/ccKefzti.s:950    .text:0000000000000538 .L0 
         src/PCB.cpp:181    .text:0000000000000538 .L0 
     /tmp/ccKefzti.s:957    .text:0000000000000540 .L0 
     /tmp/ccKefzti.s:973    .bss:0000000000000008 _ZN3PCB10consolePCBE
     /tmp/ccKefzti.s:981    .bss:0000000000000018 _ZN3PCB10savedRegA4E
     /tmp/ccKefzti.s:977    .bss:0000000000000010 _ZN3PCB16timeSliceCounterE
     /tmp/ccKefzti.s:969    .bss:0000000000000000 _ZN3PCB7runningE
     /tmp/ccKefzti.s:966    .bss:0000000000000000 .LANCHOR0
     /tmp/ccKefzti.s:991    .text:0000000000000540 .L0 
     /tmp/ccKefzti.s:28     .text:0000000000000018 .L0 
GAS LISTING /tmp/ccKefzti.s 			page 30


     /tmp/ccKefzti.s:78     .text:0000000000000074 .L0 
     /tmp/ccKefzti.s:174    .text:00000000000000ec .L0 
     /tmp/ccKefzti.s:195    .text:0000000000000108 .L0 
     /tmp/ccKefzti.s:408    .text:0000000000000240 .L0 
     /tmp/ccKefzti.s:436    .text:0000000000000280 .L0 
     /tmp/ccKefzti.s:517    .text:00000000000002f8 .L0 
     /tmp/ccKefzti.s:576    .text:0000000000000344 .L0 
     /tmp/ccKefzti.s:619    .text:0000000000000378 .L0 
     /tmp/ccKefzti.s:624    .text:0000000000000388 .L0 
     /tmp/ccKefzti.s:720    .text:0000000000000408 .L0 
     /tmp/ccKefzti.s:902    .text:00000000000004ec .L0 
     /tmp/ccKefzti.s:236    .text:0000000000000150 .L12
     /tmp/ccKefzti.s:189    .text:0000000000000100 .L10
     /tmp/ccKefzti.s:770    .text:0000000000000460 .L33
     /tmp/ccKefzti.s:742    .text:0000000000000438 .L31
     /tmp/ccKefzti.s:836    .text:00000000000004a4 .L35
     /tmp/ccKefzti.s:820    .text:000000000000048c .L36
     /tmp/ccKefzti.s:947    .text:0000000000000538 .L42
     /tmp/ccKefzti.s:919    .text:0000000000000510 .L40
     /tmp/ccKefzti.s:3057   .debug_abbrev:0000000000000000 .Ldebug_abbrev0
     /tmp/ccKefzti.s:4707   .debug_str:0000000000000cbf .LASF239
     /tmp/ccKefzti.s:4753   .debug_str:0000000000000ec7 .LASF240
     /tmp/ccKefzti.s:4739   .debug_str:0000000000000e3a .LASF241
     /tmp/ccKefzti.s:5      .text:0000000000000000 .Ltext0
     /tmp/ccKefzti.s:984    .text:0000000000000540 .Letext0
     /tmp/ccKefzti.s:4329   .debug_line:0000000000000000 .Ldebug_line0
     /tmp/ccKefzti.s:4497   .debug_str:0000000000000592 .LASF0
     /tmp/ccKefzti.s:4531   .debug_str:00000000000006a6 .LASF1
     /tmp/ccKefzti.s:4655   .debug_str:0000000000000b27 .LASF2
     /tmp/ccKefzti.s:4665   .debug_str:0000000000000b70 .LASF4
     /tmp/ccKefzti.s:4515   .debug_str:0000000000000616 .LASF3
     /tmp/ccKefzti.s:4347   .debug_str:00000000000000b5 .LASF5
     /tmp/ccKefzti.s:4625   .debug_str:0000000000000a07 .LASF6
     /tmp/ccKefzti.s:4615   .debug_str:00000000000009bc .LASF7
     /tmp/ccKefzti.s:4523   .debug_str:000000000000066d .LASF8
     /tmp/ccKefzti.s:4467   .debug_str:0000000000000485 .LASF9
     /tmp/ccKefzti.s:4473   .debug_str:00000000000004b9 .LASF10
     /tmp/ccKefzti.s:4399   .debug_str:000000000000028a .LASF11
     /tmp/ccKefzti.s:4457   .debug_str:000000000000044a .LASF12
     /tmp/ccKefzti.s:4409   .debug_str:00000000000002b7 .LASF13
     /tmp/ccKefzti.s:4397   .debug_str:000000000000027a .LASF14
     /tmp/ccKefzti.s:4711   .debug_str:0000000000000d8a .LASF15
     /tmp/ccKefzti.s:4445   .debug_str:00000000000003bb .LASF16
     /tmp/ccKefzti.s:4697   .debug_str:0000000000000c46 .LASF17
     /tmp/ccKefzti.s:4723   .debug_str:0000000000000dc9 .LASF242
     /tmp/ccKefzti.s:4717   .debug_str:0000000000000da9 .LASF18
     /tmp/ccKefzti.s:4687   .debug_str:0000000000000c12 .LASF19
     /tmp/ccKefzti.s:4405   .debug_str:00000000000002a7 .LASF20
     /tmp/ccKefzti.s:4379   .debug_str:00000000000001da .LASF21
     /tmp/ccKefzti.s:4619   .debug_str:00000000000009e5 .LASF22
     /tmp/ccKefzti.s:4403   .debug_str:000000000000029e .LASF23
     /tmp/ccKefzti.s:4713   .debug_str:0000000000000d96 .LASF89
     /tmp/ccKefzti.s:4481   .debug_str:000000000000051b .LASF24
     /tmp/ccKefzti.s:4351   .debug_str:00000000000000c7 .LASF30
     /tmp/ccKefzti.s:4745   .debug_str:0000000000000e70 .LASF243
     /tmp/ccKefzti.s:4603   .debug_str:000000000000095e .LASF25
     /tmp/ccKefzti.s:4529   .debug_str:00000000000006a1 .LASF26
GAS LISTING /tmp/ccKefzti.s 			page 31


     /tmp/ccKefzti.s:4809   .debug_str:000000000000107b .LASF28
     /tmp/ccKefzti.s:4803   .debug_str:000000000000104b .LASF27
     /tmp/ccKefzti.s:4731   .debug_str:0000000000000de9 .LASF29
     /tmp/ccKefzti.s:4431   .debug_str:000000000000035d .LASF56
     /tmp/ccKefzti.s:4361   .debug_str:000000000000013b .LASF58
     /tmp/ccKefzti.s:4535   .debug_str:00000000000006c7 .LASF35
     /tmp/ccKefzti.s:4607   .debug_str:0000000000000976 .LASF37
     /tmp/ccKefzti.s:4727   .debug_str:0000000000000dd9 .LASF31
     /tmp/ccKefzti.s:4677   .debug_str:0000000000000bad .LASF32
     /tmp/ccKefzti.s:4539   .debug_str:00000000000006e0 .LASF39
     /tmp/ccKefzti.s:4545   .debug_str:0000000000000717 .LASF41
     /tmp/ccKefzti.s:4813   .debug_str:000000000000109f .LASF33
     /tmp/ccKefzti.s:4449   .debug_str:00000000000003e1 .LASF34
     /tmp/ccKefzti.s:4337   .debug_str:0000000000000030 .LASF36
     /tmp/ccKefzti.s:4509   .debug_str:00000000000005ea .LASF38
     /tmp/ccKefzti.s:4681   .debug_str:0000000000000bcf .LASF40
     /tmp/ccKefzti.s:4577   .debug_str:0000000000000841 .LASF42
     /tmp/ccKefzti.s:4663   .debug_str:0000000000000b67 .LASF43
     /tmp/ccKefzti.s:4705   .debug_str:0000000000000ca3 .LASF44
     /tmp/ccKefzti.s:4579   .debug_str:0000000000000854 .LASF45
     /tmp/ccKefzti.s:4333   .debug_str:0000000000000011 .LASF46
     /tmp/ccKefzti.s:4789   .debug_str:0000000000000fd3 .LASF47
     /tmp/ccKefzti.s:4613   .debug_str:00000000000009a2 .LASF48
     /tmp/ccKefzti.s:4695   .debug_str:0000000000000c38 .LASF49
     /tmp/ccKefzti.s:4627   .debug_str:0000000000000a0e .LASF50
     /tmp/ccKefzti.s:4427   .debug_str:000000000000033b .LASF51
     /tmp/ccKefzti.s:4459   .debug_str:0000000000000459 .LASF52
     /tmp/ccKefzti.s:4647   .debug_str:0000000000000ae6 .LASF53
     /tmp/ccKefzti.s:4795   .debug_str:0000000000001007 .LASF54
     /tmp/ccKefzti.s:4517   .debug_str:0000000000000628 .LASF55
     /tmp/ccKefzti.s:4691   .debug_str:0000000000000c26 .LASF57
     /tmp/ccKefzti.s:4807   .debug_str:0000000000001065 .LASF59
     /tmp/ccKefzti.s:4715   .debug_str:0000000000000d9e .LASF60
     /tmp/ccKefzti.s:4419   .debug_str:000000000000030e .LASF61
     /tmp/ccKefzti.s:4673   .debug_str:0000000000000b97 .LASF62
     /tmp/ccKefzti.s:4499   .debug_str:000000000000059f .LASF63
     /tmp/ccKefzti.s:4587   .debug_str:000000000000088e .LASF64
     /tmp/ccKefzti.s:4413   .debug_str:00000000000002d8 .LASF65
     /tmp/ccKefzti.s:4631   .debug_str:0000000000000a35 .LASF66
     /tmp/ccKefzti.s:4823   .debug_str:00000000000010d6 .LASF67
     /tmp/ccKefzti.s:4591   .debug_str:00000000000008b4 .LASF68
     /tmp/ccKefzti.s:4661   .debug_str:0000000000000b54 .LASF69
     /tmp/ccKefzti.s:4683   .debug_str:0000000000000bd8 .LASF70
     /tmp/ccKefzti.s:4759   .debug_str:0000000000000ee1 .LASF71
     /tmp/ccKefzti.s:4565   .debug_str:00000000000007da .LASF72
     /tmp/ccKefzti.s:4747   .debug_str:0000000000000e88 .LASF73
     /tmp/ccKefzti.s:4703   .debug_str:0000000000000c83 .LASF74
     /tmp/ccKefzti.s:4435   .debug_str:000000000000036c .LASF75
     /tmp/ccKefzti.s:4501   .debug_str:00000000000005b3 .LASF76
     /tmp/ccKefzti.s:4735   .debug_str:0000000000000e0d .LASF77
     /tmp/ccKefzti.s:4609   .debug_str:0000000000000986 .LASF78
     /tmp/ccKefzti.s:4801   .debug_str:000000000000103d .LASF79
     /tmp/ccKefzti.s:4367   .debug_str:0000000000000163 .LASF80
     /tmp/ccKefzti.s:4451   .debug_str:00000000000003ed .LASF81
     /tmp/ccKefzti.s:4389   .debug_str:0000000000000216 .LASF82
     /tmp/ccKefzti.s:4787   .debug_str:0000000000000fcc .LASF83
     /tmp/ccKefzti.s:4385   .debug_str:00000000000001f7 .LASF84
GAS LISTING /tmp/ccKefzti.s 			page 32


     /tmp/ccKefzti.s:4335   .debug_str:000000000000002b .LASF85
     /tmp/ccKefzti.s:4757   .debug_str:0000000000000edc .LASF86
     /tmp/ccKefzti.s:4551   .debug_str:000000000000075d .LASF87
     /tmp/ccKefzti.s:4433   .debug_str:0000000000000366 .LASF88
     /tmp/ccKefzti.s:4743   .debug_str:0000000000000e68 .LASF90
     /tmp/ccKefzti.s:4371   .debug_str:000000000000019a .LASF91
     /tmp/ccKefzti.s:4553   .debug_str:0000000000000765 .LASF92
     /tmp/ccKefzti.s:4471   .debug_str:00000000000004ac .LASF93
     /tmp/ccKefzti.s:4569   .debug_str:0000000000000802 .LASF94
     /tmp/ccKefzti.s:4439   .debug_str:000000000000038c .LASF95
     /tmp/ccKefzti.s:4453   .debug_str:0000000000000402 .LASF96
     /tmp/ccKefzti.s:4381   .debug_str:00000000000001e3 .LASF97
     /tmp/ccKefzti.s:4357   .debug_str:00000000000000fc .LASF98
     /tmp/ccKefzti.s:4611   .debug_str:0000000000000992 .LASF99
     /tmp/ccKefzti.s:4689   .debug_str:0000000000000c1a .LASF100
     /tmp/ccKefzti.s:4417   .debug_str:0000000000000309 .LASF101
     /tmp/ccKefzti.s:4401   .debug_str:0000000000000299 .LASF102
     /tmp/ccKefzti.s:4463   .debug_str:0000000000000472 .LASF103
     /tmp/ccKefzti.s:4533   .debug_str:00000000000006b9 .LASF104
     /tmp/ccKefzti.s:4537   .debug_str:00000000000006cd .LASF105
     /tmp/ccKefzti.s:4461   .debug_str:0000000000000469 .LASF106
     /tmp/ccKefzti.s:4821   .debug_str:00000000000010cc .LASF107
     /tmp/ccKefzti.s:4567   .debug_str:00000000000007f8 .LASF108
     /tmp/ccKefzti.s:4641   .debug_str:0000000000000aa9 .LASF109
     /tmp/ccKefzti.s:4491   .debug_str:000000000000054a .LASF110
     /tmp/ccKefzti.s:4455   .debug_str:0000000000000429 .LASF111
     /tmp/ccKefzti.s:4765   .debug_str:0000000000000f0c .LASF112
     /tmp/ccKefzti.s:4737   .debug_str:0000000000000e17 .LASF113
     /tmp/ccKefzti.s:4629   .debug_str:0000000000000a1a .LASF114
     /tmp/ccKefzti.s:4343   .debug_str:0000000000000076 .LASF115
     /tmp/ccKefzti.s:4779   .debug_str:0000000000000f6c .LASF116
     /tmp/ccKefzti.s:4339   .debug_str:0000000000000040 .LASF117
     /tmp/ccKefzti.s:4719   .debug_str:0000000000000daf .LASF118
     /tmp/ccKefzti.s:4477   .debug_str:00000000000004da .LASF119
     /tmp/ccKefzti.s:4331   .debug_str:0000000000000000 .LASF120
     /tmp/ccKefzti.s:4597   .debug_str:00000000000008fe .LASF121
     /tmp/ccKefzti.s:4447   .debug_str:00000000000003d1 .LASF122
     /tmp/ccKefzti.s:4781   .debug_str:0000000000000f82 .LASF123
     /tmp/ccKefzti.s:4699   .debug_str:0000000000000c5c .LASF124
     /tmp/ccKefzti.s:4495   .debug_str:000000000000056b .LASF125
     /tmp/ccKefzti.s:4785   .debug_str:0000000000000fc4 .LASF126
     /tmp/ccKefzti.s:4561   .debug_str:00000000000007ab .LASF127
     /tmp/ccKefzti.s:4407   .debug_str:00000000000002b1 .LASF128
     /tmp/ccKefzti.s:4601   .debug_str:0000000000000940 .LASF129
     /tmp/ccKefzti.s:4721   .debug_str:0000000000000dc4 .LASF130
     /tmp/ccKefzti.s:4465   .debug_str:000000000000047b .LASF131
     /tmp/ccKefzti.s:4353   .debug_str:00000000000000d2 .LASF244
     /tmp/ccKefzti.s:4805   .debug_str:0000000000001051 .LASF245
     /tmp/ccKefzti.s:4375   .debug_str:00000000000001b5 .LASF132
     /tmp/ccKefzti.s:4605   .debug_str:0000000000000963 .LASF133
     /tmp/ccKefzti.s:4729   .debug_str:0000000000000de1 .LASF134
     /tmp/ccKefzti.s:4649   .debug_str:0000000000000af3 .LASF141
     /tmp/ccKefzti.s:4383   .debug_str:00000000000001f1 .LASF135
     /tmp/ccKefzti.s:4585   .debug_str:0000000000000878 .LASF136
     /tmp/ccKefzti.s:4679   .debug_str:0000000000000bbe .LASF137
     /tmp/ccKefzti.s:4411   .debug_str:00000000000002c7 .LASF138
     /tmp/ccKefzti.s:4773   .debug_str:0000000000000f51 .LASF139
GAS LISTING /tmp/ccKefzti.s 			page 33


     /tmp/ccKefzti.s:4489   .debug_str:000000000000053f .LASF140
     /tmp/ccKefzti.s:4701   .debug_str:0000000000000c6b .LASF142
     /tmp/ccKefzti.s:4761   .debug_str:0000000000000ef4 .LASF143
     /tmp/ccKefzti.s:4793   .debug_str:0000000000000ff8 .LASF144
     /tmp/ccKefzti.s:4685   .debug_str:0000000000000bf6 .LASF145
     /tmp/ccKefzti.s:4741   .debug_str:0000000000000e5d .LASF146
     /tmp/ccKefzti.s:4559   .debug_str:0000000000000793 .LASF147
     /tmp/ccKefzti.s:4443   .debug_str:00000000000003b1 .LASF148
     /tmp/ccKefzti.s:4617   .debug_str:00000000000009cf .LASF149
     /tmp/ccKefzti.s:4563   .debug_str:00000000000007ca .LASF150
     /tmp/ccKefzti.s:4767   .debug_str:0000000000000f17 .LASF151
     /tmp/ccKefzti.s:4393   .debug_str:0000000000000256 .LASF152
     /tmp/ccKefzti.s:4543   .debug_str:00000000000006f9 .LASF153
     /tmp/ccKefzti.s:4437   .debug_str:0000000000000375 .LASF154
     /tmp/ccKefzti.s:4799   .debug_str:0000000000001019 .LASF155
     /tmp/ccKefzti.s:4507   .debug_str:00000000000005d8 .LASF156
     /tmp/ccKefzti.s:4415   .debug_str:00000000000002ea .LASF157
     /tmp/ccKefzti.s:4373   .debug_str:00000000000001ab .LASF158
     /tmp/ccKefzti.s:4469   .debug_str:0000000000000495 .LASF159
     /tmp/ccKefzti.s:4675   .debug_str:0000000000000b9f .LASF160
     /tmp/ccKefzti.s:4639   .debug_str:0000000000000a8e .LASF161
     /tmp/ccKefzti.s:4581   .debug_str:0000000000000863 .LASF162
     /tmp/ccKefzti.s:4783   .debug_str:0000000000000faa .LASF163
     /tmp/ccKefzti.s:4755   .debug_str:0000000000000ed3 .LASF164
     /tmp/ccKefzti.s:4643   .debug_str:0000000000000aca .LASF165
     /tmp/ccKefzti.s:4817   .debug_str:00000000000010bb .LASF166
     /tmp/ccKefzti.s:4595   .debug_str:00000000000008e9 .LASF167
     /tmp/ccKefzti.s:4763   .debug_str:0000000000000f05 .LASF168
     /tmp/ccKefzti.s:4633   .debug_str:0000000000000a52 .LASF169
     /tmp/ccKefzti.s:4589   .debug_str:00000000000008ad .LASF170
     /tmp/ccKefzti.s:4525   .debug_str:0000000000000680 .LASF171
     /tmp/ccKefzti.s:4363   .debug_str:000000000000014e .LASF172
     /tmp/ccKefzti.s:4733   .debug_str:0000000000000df9 .LASF173
     /tmp/ccKefzti.s:4583   .debug_str:0000000000000870 .LASF174
     /tmp/ccKefzti.s:4593   .debug_str:00000000000008d5 .LASF175
     /tmp/ccKefzti.s:4571   .debug_str:0000000000000812 .LASF176
     /tmp/ccKefzti.s:4635   .debug_str:0000000000000a65 .LASF177
     /tmp/ccKefzti.s:4819   .debug_str:00000000000010c4 .LASF178
     /tmp/ccKefzti.s:4505   .debug_str:00000000000005c4 .LASF179
     /tmp/ccKefzti.s:4485   .debug_str:000000000000052c .LASF180
     /tmp/ccKefzti.s:4709   .debug_str:0000000000000d83 .LASF181
     /tmp/ccKefzti.s:4669   .debug_str:0000000000000b7d .LASF182
     /tmp/ccKefzti.s:4671   .debug_str:0000000000000b90 .LASF183
     /tmp/ccKefzti.s:4441   .debug_str:000000000000039e .LASF184
     /tmp/ccKefzti.s:4667   .debug_str:0000000000000b77 .LASF185
     /tmp/ccKefzti.s:4355   .debug_str:00000000000000ea .LASF186
     /tmp/ccKefzti.s:4503   .debug_str:00000000000005be .LASF187
     /tmp/ccKefzti.s:4429   .debug_str:000000000000034b .LASF188
     /tmp/ccKefzti.s:4387   .debug_str:0000000000000208 .LASF189
     /tmp/ccKefzti.s:4751   .debug_str:0000000000000eac .LASF190
     /tmp/ccKefzti.s:4349   .debug_str:00000000000000bc .LASF191
     /tmp/ccKefzti.s:4659   .debug_str:0000000000000b3c .LASF192
     /tmp/ccKefzti.s:4653   .debug_str:0000000000000b1c .LASF193
     /tmp/ccKefzti.s:4811   .debug_str:0000000000001087 .LASF194
     /tmp/ccKefzti.s:4657   .debug_str:0000000000000b35 .LASF195
     /tmp/ccKefzti.s:4395   .debug_str:0000000000000267 .LASF196
     /tmp/ccKefzti.s:4693   .debug_str:0000000000000c31 .LASF197
GAS LISTING /tmp/ccKefzti.s 			page 34


     /tmp/ccKefzti.s:4547   .debug_str:000000000000072f .LASF198
     /tmp/ccKefzti.s:4777   .debug_str:0000000000000f62 .LASF199
     /tmp/ccKefzti.s:4791   .debug_str:0000000000000fe2 .LASF200
     /tmp/ccKefzti.s:4769   .debug_str:0000000000000f35 .LASF201
     /tmp/ccKefzti.s:4519   .debug_str:0000000000000635 .LASF202
     /tmp/ccKefzti.s:4425   .debug_str:0000000000000335 .LASF203
     /tmp/ccKefzti.s:4479   .debug_str:0000000000000509 .LASF204
     /tmp/ccKefzti.s:4487   .debug_str:0000000000000539 .LASF205
     /tmp/ccKefzti.s:4771   .debug_str:0000000000000f3f .LASF206
     /tmp/ccKefzti.s:4483   .debug_str:0000000000000521 .LASF207
     /tmp/ccKefzti.s:4493   .debug_str:0000000000000553 .LASF208
     /tmp/ccKefzti.s:4749   .debug_str:0000000000000e9d .LASF209
     /tmp/ccKefzti.s:4359   .debug_str:000000000000011f .LASF210
     /tmp/ccKefzti.s:4623   .debug_str:00000000000009f2 .LASF211
     /tmp/ccKefzti.s:4521   .debug_str:000000000000064b .LASF212
     /tmp/ccKefzti.s:4369   .debug_str:000000000000018b .LASF213
     /tmp/ccKefzti.s:4555   .debug_str:000000000000076a .LASF214
     /tmp/ccKefzti.s:4645   .debug_str:0000000000000adf .LASF215
     /tmp/ccKefzti.s:4341   .debug_str:000000000000006e .LASF216
     /tmp/ccKefzti.s:4815   .debug_str:00000000000010ac .LASF217
     /tmp/ccKefzti.s:4541   .debug_str:00000000000006ed .LASF218
     /tmp/ccKefzti.s:4377   .debug_str:00000000000001c7 .LASF219
     /tmp/ccKefzti.s:4575   .debug_str:000000000000082f .LASF220
     /tmp/ccKefzti.s:4475   .debug_str:00000000000004c7 .LASF221
     /tmp/ccKefzti.s:4513   .debug_str:0000000000000603 .LASF222
     /tmp/ccKefzti.s:4391   .debug_str:0000000000000242 .LASF223
     /tmp/ccKefzti.s:4725   .debug_str:0000000000000dcf .LASF224
     /tmp/ccKefzti.s:4651   .debug_str:0000000000000b0b .LASF225
     /tmp/ccKefzti.s:4549   .debug_str:0000000000000742 .LASF226
     /tmp/ccKefzti.s:4637   .debug_str:0000000000000a79 .LASF227
     /tmp/ccKefzti.s:4573   .debug_str:000000000000081a .LASF228
     /tmp/ccKefzti.s:853    .text:00000000000004ac .LFB44
     /tmp/ccKefzti.s:958    .text:0000000000000540 .LFE44
     /tmp/ccKefzti.s:4527   .debug_str:0000000000000693 .LASF229
     /tmp/ccKefzti.s:4044   .debug_loc:0000000000000000 .LLST23
     /tmp/ccKefzti.s:4055   .debug_loc:0000000000000036 .LLST24
     /tmp/ccKefzti.s:4365   .debug_str:0000000000000156 .LASF230
     /tmp/ccKefzti.s:4066   .debug_loc:000000000000006c .LLST25
     /tmp/ccKefzti.s:4797   .debug_str:0000000000001012 .LASF231
     /tmp/ccKefzti.s:4077   .debug_loc:00000000000000a2 .LLST26
     /tmp/ccKefzti.s:899    .text:00000000000004e4 .LVL68
     /tmp/ccKefzti.s:906    .text:0000000000000504 .LVL69
     /tmp/ccKefzti.s:923    .text:0000000000000518 .LVL70
     /tmp/ccKefzti.s:787    .text:0000000000000468 .LFB43
     /tmp/ccKefzti.s:847    .text:00000000000004ac .LFE43
     /tmp/ccKefzti.s:4088   .debug_loc:00000000000000d8 .LLST22
     /tmp/ccKefzti.s:812    .text:0000000000000488 .LVL62
     /tmp/ccKefzti.s:824    .text:0000000000000494 .LVL63
     /tmp/ccKefzti.s:671    .text:00000000000003c8 .LFB42
     /tmp/ccKefzti.s:781    .text:0000000000000468 .LFE42
     /tmp/ccKefzti.s:4099   .debug_loc:000000000000010e .LLST18
     /tmp/ccKefzti.s:4110   .debug_loc:0000000000000144 .LLST19
     /tmp/ccKefzti.s:4121   .debug_loc:000000000000017a .LLST20
     /tmp/ccKefzti.s:4132   .debug_loc:00000000000001b0 .LLST21
     /tmp/ccKefzti.s:717    .text:0000000000000400 .LVL52
     /tmp/ccKefzti.s:724    .text:0000000000000420 .LVL53
     /tmp/ccKefzti.s:734    .text:0000000000000434 .LVL54
GAS LISTING /tmp/ccKefzti.s 			page 35


     /tmp/ccKefzti.s:746    .text:0000000000000440 .LVL55
     /tmp/ccKefzti.s:597    .text:0000000000000364 .LFB41
     /tmp/ccKefzti.s:665    .text:00000000000003c8 .LFE41
     /tmp/ccKefzti.s:4621   .debug_str:00000000000009ed .LASF232
     /tmp/ccKefzti.s:4143   .debug_loc:00000000000001e6 .LLST15
     /tmp/ccKefzti.s:628    .text:0000000000000398 .LBB22
     /tmp/ccKefzti.s:635    .text:000000000000039c .LBE22
     /tmp/ccKefzti.s:4150   .debug_loc:0000000000000209 .LLST16
     /tmp/ccKefzti.s:4157   .debug_loc:000000000000022c .LLST17
     /tmp/ccKefzti.s:639    .text:00000000000003a4 .LVL46
     /tmp/ccKefzti.s:643    .text:00000000000003ac .LVL47
     /tmp/ccKefzti.s:654    .text:00000000000003b8 .LVL48
     /tmp/ccKefzti.s:563    .text:0000000000000334 .LFB40
     /tmp/ccKefzti.s:591    .text:0000000000000364 .LFE40
     /tmp/ccKefzti.s:580    .text:0000000000000354 .LVL42
     /tmp/ccKefzti.s:504    .text:00000000000002e8 .LFB39
     /tmp/ccKefzti.s:557    .text:0000000000000334 .LFE39
     /tmp/ccKefzti.s:523    .text:0000000000000308 .LBB20
     /tmp/ccKefzti.s:531    .text:0000000000000310 .LBE20
     /tmp/ccKefzti.s:4164   .debug_loc:000000000000024f .LLST13
     /tmp/ccKefzti.s:4172   .debug_loc:0000000000000273 .LLST14
     /tmp/ccKefzti.s:535    .text:0000000000000318 .LVL40
     /tmp/ccKefzti.s:546    .text:0000000000000324 .LVL41
     /tmp/ccKefzti.s:473    .text:00000000000002c4 .LFB38
     /tmp/ccKefzti.s:498    .text:00000000000002e8 .LFE38
     /tmp/ccKefzti.s:4423   .debug_str:0000000000000330 .LASF234
     /tmp/ccKefzti.s:4179   .debug_loc:0000000000000296 .LLST12
     /tmp/ccKefzti.s:363    .text:00000000000001dc .LFB37
     /tmp/ccKefzti.s:467    .text:00000000000002c4 .LFE37
     /tmp/ccKefzti.s:4775   .debug_str:0000000000000f57 .LASF233
     /tmp/ccKefzti.s:4193   .debug_loc:00000000000002cf .LLST9
     /tmp/ccKefzti.s:412    .text:000000000000024c .LBB18
     /tmp/ccKefzti.s:420    .text:0000000000000254 .LBE18
     /tmp/ccKefzti.s:4200   .debug_loc:00000000000002f2 .LLST10
     /tmp/ccKefzti.s:4208   .debug_loc:0000000000000316 .LLST11
     /tmp/ccKefzti.s:386    .text:0000000000000208 .LVL25
     /tmp/ccKefzti.s:393    .text:0000000000000224 .LVL26
     /tmp/ccKefzti.s:398    .text:0000000000000230 .LVL27
     /tmp/ccKefzti.s:406    .text:0000000000000240 .LVL28
     /tmp/ccKefzti.s:425    .text:0000000000000260 .LVL31
     /tmp/ccKefzti.s:430    .text:0000000000000270 .LVL32
     /tmp/ccKefzti.s:438    .text:0000000000000290 .LVL34
     /tmp/ccKefzti.s:448    .text:00000000000002a4 .LVL35
     /tmp/ccKefzti.s:4345   .debug_str:00000000000000ab .LASF235
     /tmp/ccKefzti.s:4421   .debug_str:0000000000000324 .LASF237
     /tmp/ccKefzti.s:315    .text:00000000000001b0 .LFB35
     /tmp/ccKefzti.s:347    .text:00000000000001dc .LFE35
     /tmp/ccKefzti.s:4215   .debug_loc:0000000000000339 .LLST8
     /tmp/ccKefzti.s:335    .text:00000000000001cc .LVL24
     /tmp/ccKefzti.s:283    .text:0000000000000188 .LFB33
     /tmp/ccKefzti.s:309    .text:00000000000001b0 .LFE33
     /tmp/ccKefzti.s:4229   .debug_loc:0000000000000372 .LLST7
     /tmp/ccKefzti.s:298    .text:00000000000001a0 .LVL21
     /tmp/ccKefzti.s:251    .text:0000000000000160 .LFB32
     /tmp/ccKefzti.s:277    .text:0000000000000188 .LFE32
     /tmp/ccKefzti.s:4243   .debug_loc:00000000000003ab .LLST6
     /tmp/ccKefzti.s:266    .text:0000000000000178 .LVL19
GAS LISTING /tmp/ccKefzti.s 			page 36


     /tmp/ccKefzti.s:157    .text:00000000000000d4 .LFB31
     /tmp/ccKefzti.s:245    .text:0000000000000160 .LFE31
     /tmp/ccKefzti.s:4257   .debug_loc:00000000000003e4 .LLST2
     /tmp/ccKefzti.s:177    .text:00000000000000f4 .LBB13
     /tmp/ccKefzti.s:185    .text:00000000000000f8 .LBE13
     /tmp/ccKefzti.s:4268   .debug_loc:000000000000041a .LLST3
     /tmp/ccKefzti.s:199    .text:0000000000000114 .LBB15
     /tmp/ccKefzti.s:207    .text:000000000000011c .LBE15
     /tmp/ccKefzti.s:4275   .debug_loc:000000000000043d .LLST4
     /tmp/ccKefzti.s:4283   .debug_loc:0000000000000461 .LLST5
     /tmp/ccKefzti.s:193    .text:0000000000000108 .LVL10
     /tmp/ccKefzti.s:211    .text:0000000000000124 .LVL13
     /tmp/ccKefzti.s:219    .text:0000000000000138 .LVL14
     /tmp/ccKefzti.s:242    .text:000000000000015c .LVL17
     /tmp/ccKefzti.s:10     .text:0000000000000000 .LFB30
     /tmp/ccKefzti.s:48     .text:0000000000000044 .LFE30
     /tmp/ccKefzti.s:25     .text:0000000000000018 .LVL0
     /tmp/ccKefzti.s:37     .text:0000000000000034 .LVL2
     /tmp/ccKefzti.s:125    .text:00000000000000ac .LFB29
     /tmp/ccKefzti.s:151    .text:00000000000000d4 .LFE29
     /tmp/ccKefzti.s:4290   .debug_loc:0000000000000484 .LLST1
     /tmp/ccKefzti.s:140    .text:00000000000000c4 .LVL7
     /tmp/ccKefzti.s:101    .text:0000000000000094 .LFB28
     /tmp/ccKefzti.s:119    .text:00000000000000ac .LFE28
     /tmp/ccKefzti.s:4557   .debug_str:0000000000000787 .LASF236
     /tmp/ccKefzti.s:4599   .debug_str:0000000000000928 .LASF238
     /tmp/ccKefzti.s:54     .text:0000000000000044 .LFB26
     /tmp/ccKefzti.s:93     .text:0000000000000094 .LFE26
     /tmp/ccKefzti.s:4304   .debug_loc:00000000000004bd .LLST0
     /tmp/ccKefzti.s:4511   .debug_str:00000000000005f7 .LASF246
     /tmp/ccKefzti.s:887    .text:00000000000004d4 .LVL66
     /tmp/ccKefzti.s:939    .text:000000000000052c .LVL73
     /tmp/ccKefzti.s:946    .text:0000000000000538 .LVL75
     /tmp/ccKefzti.s:893    .text:00000000000004d8 .LVL67
     /tmp/ccKefzti.s:942    .text:0000000000000530 .LVL74
     /tmp/ccKefzti.s:881    .text:00000000000004d0 .LVL65
     /tmp/ccKefzti.s:936    .text:0000000000000528 .LVL72
     /tmp/ccKefzti.s:933    .text:0000000000000524 .LVL71
     /tmp/ccKefzti.s:805    .text:000000000000047c .LVL61
     /tmp/ccKefzti.s:835    .text:00000000000004a4 .LVL64
     /tmp/ccKefzti.s:705    .text:00000000000003f0 .LVL50
     /tmp/ccKefzti.s:762    .text:0000000000000454 .LVL58
     /tmp/ccKefzti.s:769    .text:0000000000000460 .LVL60
     /tmp/ccKefzti.s:711    .text:00000000000003f4 .LVL51
     /tmp/ccKefzti.s:765    .text:0000000000000458 .LVL59
     /tmp/ccKefzti.s:699    .text:00000000000003ec .LVL49
     /tmp/ccKefzti.s:759    .text:0000000000000450 .LVL57
     /tmp/ccKefzti.s:756    .text:000000000000044c .LVL56
     /tmp/ccKefzti.s:615    .text:0000000000000378 .LVL43
     /tmp/ccKefzti.s:627    .text:0000000000000398 .LVL44
     /tmp/ccKefzti.s:633    .text:000000000000039c .LVL45
     /tmp/ccKefzti.s:522    .text:0000000000000308 .LVL38
     /tmp/ccKefzti.s:529    .text:0000000000000310 .LVL39
     /tmp/ccKefzti.s:476    .text:00000000000002c4 .LVL36
     /tmp/ccKefzti.s:486    .text:00000000000002d4 .LVL37
     /tmp/ccKefzti.s:432    .text:0000000000000274 .LVL33
     /tmp/ccKefzti.s:411    .text:000000000000024c .LVL29
GAS LISTING /tmp/ccKefzti.s 			page 37


     /tmp/ccKefzti.s:418    .text:0000000000000254 .LVL30
     /tmp/ccKefzti.s:320    .text:00000000000001b0 .LVL22
     /tmp/ccKefzti.s:333    .text:00000000000001c4 .LVL23
     /tmp/ccKefzti.s:286    .text:0000000000000188 .LVL20
     /tmp/ccKefzti.s:254    .text:0000000000000160 .LVL18
     /tmp/ccKefzti.s:175    .text:00000000000000f4 .LVL8
     /tmp/ccKefzti.s:229    .text:0000000000000144 .LVL15
     /tmp/ccKefzti.s:235    .text:0000000000000150 .LVL16
     /tmp/ccKefzti.s:183    .text:00000000000000f8 .LVL9
     /tmp/ccKefzti.s:198    .text:0000000000000114 .LVL11
     /tmp/ccKefzti.s:205    .text:000000000000011c .LVL12
     /tmp/ccKefzti.s:128    .text:00000000000000ac .LVL6
     /tmp/ccKefzti.s:57     .text:0000000000000044 .LVL3
     /tmp/ccKefzti.s:75     .text:0000000000000070 .LVL4
     /tmp/ccKefzti.s:992    .debug_info:0000000000000000 .Ldebug_info0
     /tmp/ccKefzti.s:350    .gcc_except_table:0000000000000000 .LLSDA35

UNDEFINED SYMBOLS
_ZN5Riscv10popSppSpieEv
thread_exit
_ZN9Scheduler3putEP3PCB
_ZN9Scheduler3getEv
_ZN5Riscv14changePrivModeEv
_ZN3PCB13contextSwitchEPNS_7ContextES1_
_ZN15MemoryAllocator7kmallocEm
_ZN15MemoryAllocator5kfreeEPv
__gxx_personality_v0
_ZN8KConsole23sendCharactersToConsoleEPv
_ZN5Riscv13w_a0_sscratchEv
_ZN5Riscv9totalTimeE
_ZN12SleepPCBList17insertSleepingPCBEv
