GAS LISTING /tmp/ccOauSle.s 			page 1


   1              		.file	"PCB.cpp"
   2              		.option pic
   3              		.option norelax
   4              		.text
   5              	.Ltext0:
   6              		.align	2
   7              		.globl	_ZN3PCB6runnerEv
   9              	_ZN3PCB6runnerEv:
  10              	.LFB29:
  11              		.file 1 "src/PCB.cpp"
   1:src/PCB.cpp   **** //
   2:src/PCB.cpp   **** // Created by os on 4/27/22.
   3:src/PCB.cpp   **** //
   4:src/PCB.cpp   **** 
   5:src/PCB.cpp   **** #include "../h/PCB.hpp"
   6:src/PCB.cpp   **** #include "../h/syscall_c.h"
   7:src/PCB.cpp   **** #include "../h/SleepPCBList.hpp"
   8:src/PCB.cpp   **** #include "../test/printing.hpp"
   9:src/PCB.cpp   **** #include "../h/KConsole.hpp"
  10:src/PCB.cpp   **** 
  11:src/PCB.cpp   **** PCB* PCB::running = 0;
  12:src/PCB.cpp   **** uint64 PCB::timeSliceCounter = 0;
  13:src/PCB.cpp   **** uint64 PCB::savedRegA4 = 0;
  14:src/PCB.cpp   **** 
  15:src/PCB.cpp   **** PCB::PCB(Body body, void *args, void* stack_space, uint64 timeSlice) :
  16:src/PCB.cpp   ****     timeSlice(timeSlice),
  17:src/PCB.cpp   ****     body(body),
  18:src/PCB.cpp   ****     args(args),
  19:src/PCB.cpp   ****     beginSP(stack_space),
  20:src/PCB.cpp   ****     context({
  21:src/PCB.cpp   ****         (uint64)((char*)stack_space + DEFAULT_STACK_SIZE),
  22:src/PCB.cpp   ****         (uint64)&PCB::runner
  23:src/PCB.cpp   ****     })
  24:src/PCB.cpp   **** {
  25:src/PCB.cpp   ****     //Scheduler::put(this);
  26:src/PCB.cpp   ****     nextPCB = 0;
  27:src/PCB.cpp   **** }
  28:src/PCB.cpp   **** 
  29:src/PCB.cpp   **** void PCB::sleep(time_t time)
  30:src/PCB.cpp   **** {
  31:src/PCB.cpp   ****     //todo
  32:src/PCB.cpp   **** }
  33:src/PCB.cpp   **** 
  34:src/PCB.cpp   **** void PCB::start()
  35:src/PCB.cpp   **** {
  36:src/PCB.cpp   ****     Scheduler::put(this);
  37:src/PCB.cpp   **** }
  38:src/PCB.cpp   **** 
  39:src/PCB.cpp   **** void PCB::runner()
  40:src/PCB.cpp   **** {
  12              		.loc 1 40 1
  13              		.cfi_startproc
  14 0000 130101FF 		addi	sp,sp,-16
  15              		.cfi_def_cfa_offset 16
  16 0004 23341100 		sd	ra,8(sp)
  17 0008 23308100 		sd	s0,0(sp)
  18              		.cfi_offset 1, -8
GAS LISTING /tmp/ccOauSle.s 			page 2


  19              		.cfi_offset 8, -16
  20 000c 13040101 		addi	s0,sp,16
  21              		.cfi_def_cfa 8, 0
  41:src/PCB.cpp   ****     //Riscv::printString("Runner started...\n");
  42:src/PCB.cpp   ****     Riscv::popSppSpie();
  22              		.loc 1 42 5
  23              		.loc 1 42 22 is_stmt 0
  24 0010 97000000 		call	_ZN5Riscv10popSppSpieEv@plt
  24      E7800000 
  25              	.LVL0:
  43:src/PCB.cpp   **** 
  44:src/PCB.cpp   ****     running->body(running->args);
  26              		.loc 1 44 5 is_stmt 1
  27              		.loc 1 44 14 is_stmt 0
  28 0018 97070000 		ld	a5,.LANCHOR0
  28      83B70700 
  29 0020 03B70702 		ld	a4,32(a5)
  30              		.loc 1 44 18
  31 0024 03B58702 		ld	a0,40(a5)
  32 0028 E7000700 		jalr	a4
  33              	.LVL1:
  45:src/PCB.cpp   **** 
  46:src/PCB.cpp   ****     thread_exit();
  34              		.loc 1 46 5 is_stmt 1
  35              		.loc 1 46 16 is_stmt 0
  36 002c 97000000 		call	thread_exit@plt
  36      E7800000 
  37              	.LVL2:
  47:src/PCB.cpp   **** }
  38              		.loc 1 47 1
  39 0034 83308100 		ld	ra,8(sp)
  40              		.cfi_restore 1
  41 0038 03340100 		ld	s0,0(sp)
  42              		.cfi_restore 8
  43              		.cfi_def_cfa 2, 16
  44 003c 13010101 		addi	sp,sp,16
  45              		.cfi_def_cfa_offset 0
  46 0040 67800000 		jr	ra
  47              		.cfi_endproc
  48              	.LFE29:
  50              		.align	2
  51              		.globl	_ZN3PCBC2EPFvPvES0_S0_m
  53              	_ZN3PCBC2EPFvPvES0_S0_m:
  54              	.LFB25:
  15:src/PCB.cpp   ****     timeSlice(timeSlice),
  55              		.loc 1 15 1 is_stmt 1
  56              		.cfi_startproc
  57              	.LVL3:
  58 0044 130101FF 		addi	sp,sp,-16
  59              		.cfi_def_cfa_offset 16
  60 0048 23348100 		sd	s0,8(sp)
  61              		.cfi_offset 8, -8
  62 004c 13040101 		addi	s0,sp,16
  63              		.cfi_def_cfa 8, 0
  64              	.LBB12:
  23:src/PCB.cpp   **** {
  65              		.loc 1 23 6 is_stmt 0
GAS LISTING /tmp/ccOauSle.s 			page 3


  66 0050 23000500 		sb	zero,0(a0)
  67 0054 2338E500 		sd	a4,16(a0)
  68 0058 233C0500 		sd	zero,24(a0)
  69 005c 2330B502 		sd	a1,32(a0)
  70 0060 2334C502 		sd	a2,40(a0)
  71 0064 2338D502 		sd	a3,48(a0)
  21:src/PCB.cpp   ****         (uint64)&PCB::runner
  72              		.loc 1 21 37
  73 0068 B7170000 		li	a5,4096
  74 006c B386F600 		add	a3,a3,a5
  75              	.LVL4:
  23:src/PCB.cpp   **** {
  76              		.loc 1 23 6
  77 0070 2330D504 		sd	a3,64(a0)
  78 0074 97070000 		lla	a5,_ZN3PCB6runnerEv
  78      93870700 
  79 007c 2334F504 		sd	a5,72(a0)
  26:src/PCB.cpp   **** }
  80              		.loc 1 26 5 is_stmt 1
  26:src/PCB.cpp   **** }
  81              		.loc 1 26 13 is_stmt 0
  82 0080 23340500 		sd	zero,8(a0)
  83              	.LBE12:
  27:src/PCB.cpp   **** 
  84              		.loc 1 27 1
  85 0084 03348100 		ld	s0,8(sp)
  86              		.cfi_restore 8
  87              		.cfi_def_cfa 2, 16
  88 0088 13010101 		addi	sp,sp,16
  89              		.cfi_def_cfa_offset 0
  90 008c 67800000 		jr	ra
  91              		.cfi_endproc
  92              	.LFE25:
  94              		.globl	_ZN3PCBC1EPFvPvES0_S0_m
  95              		.set	_ZN3PCBC1EPFvPvES0_S0_m,_ZN3PCBC2EPFvPvES0_S0_m
  96              		.align	2
  97              		.globl	_ZN3PCB5sleepEm
  99              	_ZN3PCB5sleepEm:
 100              	.LFB27:
  30:src/PCB.cpp   ****     //todo
 101              		.loc 1 30 1 is_stmt 1
 102              		.cfi_startproc
 103              	.LVL5:
 104 0090 130101FF 		addi	sp,sp,-16
 105              		.cfi_def_cfa_offset 16
 106 0094 23348100 		sd	s0,8(sp)
 107              		.cfi_offset 8, -8
 108 0098 13040101 		addi	s0,sp,16
 109              		.cfi_def_cfa 8, 0
  32:src/PCB.cpp   **** 
 110              		.loc 1 32 1 is_stmt 0
 111 009c 03348100 		ld	s0,8(sp)
 112              		.cfi_restore 8
 113              		.cfi_def_cfa 2, 16
 114 00a0 13010101 		addi	sp,sp,16
 115              		.cfi_def_cfa_offset 0
 116 00a4 67800000 		jr	ra
GAS LISTING /tmp/ccOauSle.s 			page 4


 117              		.cfi_endproc
 118              	.LFE27:
 120              		.align	2
 121              		.globl	_ZN3PCB5startEv
 123              	_ZN3PCB5startEv:
 124              	.LFB28:
  35:src/PCB.cpp   ****     Scheduler::put(this);
 125              		.loc 1 35 1 is_stmt 1
 126              		.cfi_startproc
 127              	.LVL6:
 128 00a8 130101FF 		addi	sp,sp,-16
 129              		.cfi_def_cfa_offset 16
 130 00ac 23341100 		sd	ra,8(sp)
 131 00b0 23308100 		sd	s0,0(sp)
 132              		.cfi_offset 1, -8
 133              		.cfi_offset 8, -16
 134 00b4 13040101 		addi	s0,sp,16
 135              		.cfi_def_cfa 8, 0
  36:src/PCB.cpp   **** }
 136              		.loc 1 36 5
  36:src/PCB.cpp   **** }
 137              		.loc 1 36 19 is_stmt 0
 138 00b8 97000000 		call	_ZN9Scheduler3putEP3PCB@plt
 138      E7800000 
 139              	.LVL7:
  37:src/PCB.cpp   **** 
 140              		.loc 1 37 1
 141 00c0 83308100 		ld	ra,8(sp)
 142              		.cfi_restore 1
 143 00c4 03340100 		ld	s0,0(sp)
 144              		.cfi_restore 8
 145              		.cfi_def_cfa 2, 16
 146 00c8 13010101 		addi	sp,sp,16
 147              		.cfi_def_cfa_offset 0
 148 00cc 67800000 		jr	ra
 149              		.cfi_endproc
 150              	.LFE28:
 152              		.align	2
 153              		.globl	_ZN3PCB8dispatchEv
 155              	_ZN3PCB8dispatchEv:
 156              	.LFB30:
  48:src/PCB.cpp   **** 
  49:src/PCB.cpp   **** void PCB::dispatch()
  50:src/PCB.cpp   **** {
 157              		.loc 1 50 1 is_stmt 1
 158              		.cfi_startproc
 159 00d0 130101FE 		addi	sp,sp,-32
 160              		.cfi_def_cfa_offset 32
 161 00d4 233C1100 		sd	ra,24(sp)
 162 00d8 23388100 		sd	s0,16(sp)
 163 00dc 23349100 		sd	s1,8(sp)
 164              		.cfi_offset 1, -8
 165              		.cfi_offset 8, -16
 166              		.cfi_offset 9, -24
 167 00e0 13040102 		addi	s0,sp,32
 168              		.cfi_def_cfa 8, 0
  51:src/PCB.cpp   ****     //Riscv::printString("Dispatch called...\n");
GAS LISTING /tmp/ccOauSle.s 			page 5


  52:src/PCB.cpp   ****     PCB* old = running;
 169              		.loc 1 52 5
 170              		.loc 1 52 10 is_stmt 0
 171 00e4 97040000 		ld	s1,.LANCHOR0
 171      83B40400 
 172              	.LVL8:
  53:src/PCB.cpp   ****     if(old->getState() == PCB::RUNNING)
 173              		.loc 1 53 5 is_stmt 1
 174              	.LBB13:
 175              	.LBB14:
 176              		.file 2 "src/../h/PCB.hpp"
   1:src/../h/PCB.hpp **** //
   2:src/../h/PCB.hpp **** // Created by os on 4/27/22.
   3:src/../h/PCB.hpp **** //
   4:src/../h/PCB.hpp **** 
   5:src/../h/PCB.hpp **** #ifndef PROJECT_BASE_V1_0_PCB_HPP
   6:src/../h/PCB.hpp **** #define PROJECT_BASE_V1_0_PCB_HPP
   7:src/../h/PCB.hpp **** 
   8:src/../h/PCB.hpp **** #include "../lib/hw.h"
   9:src/../h/PCB.hpp **** #include "Scheduler.hpp"
  10:src/../h/PCB.hpp **** #include "Riscv.hpp"
  11:src/../h/PCB.hpp **** 
  12:src/../h/PCB.hpp **** class PCB
  13:src/../h/PCB.hpp **** {
  14:src/../h/PCB.hpp **** public:
  15:src/../h/PCB.hpp ****     static uint64 savedRegA4;
  16:src/../h/PCB.hpp **** 
  17:src/../h/PCB.hpp ****     using Body = void (*)(void*);
  18:src/../h/PCB.hpp **** 
  19:src/../h/PCB.hpp ****     PCB(Body body,  void* args, void* stack_space, uint64 timeSlice);
  20:src/../h/PCB.hpp ****     ~PCB();
  21:src/../h/PCB.hpp **** 
  22:src/../h/PCB.hpp ****     void start();
  23:src/../h/PCB.hpp ****     static void dispatch();
  24:src/../h/PCB.hpp ****     static void sleep(time_t);
  25:src/../h/PCB.hpp **** 
  26:src/../h/PCB.hpp ****     static PCB* running;
  27:src/../h/PCB.hpp **** 
  28:src/../h/PCB.hpp ****     static uint64 timeSliceCounter;
  29:src/../h/PCB.hpp ****     uint64 getTimeSlice() { return timeSlice;}
  30:src/../h/PCB.hpp **** 
  31:src/../h/PCB.hpp ****     void* operator new(size_t size);
  32:src/../h/PCB.hpp ****     void operator delete(void *p);
  33:src/../h/PCB.hpp **** 
  34:src/../h/PCB.hpp ****     enum State{READY, RUNNING, SUSPENDED, FINISHED, EXITING, SLEEPING};
  35:src/../h/PCB.hpp ****     State getState() {return state;}
 177              		.loc 2 35 23
 178              		.loc 2 35 30 is_stmt 0
 179 00ec 03A78403 		lw	a4,56(s1)
 180              	.LVL9:
 181              	.LBE14:
 182              	.LBE13:
 183              		.loc 1 53 5
 184 00f0 93071000 		li	a5,1
 185 00f4 6300F704 		beq	a4,a5,.L12
 186              	.L10:
  54:src/PCB.cpp   ****         Scheduler::put(old);
GAS LISTING /tmp/ccOauSle.s 			page 6


  55:src/PCB.cpp   ****     PCB::running = Scheduler::get();
 187              		.loc 1 55 5 is_stmt 1
 188              		.loc 1 55 34 is_stmt 0
 189 00f8 97000000 		call	_ZN9Scheduler3getEv@plt
 189      E7800000 
 190              	.LVL10:
 191              		.loc 1 55 18
 192 0100 97070000 		sd	a0,.LANCHOR0,a5
 192      23B0A700 
  56:src/PCB.cpp   ****     PCB::running->setState(PCB::RUNNING);
 193              		.loc 1 56 5 is_stmt 1
 194              	.LVL11:
 195              	.LBB15:
 196              	.LBB16:
  36:src/../h/PCB.hpp ****     void setState(State s) {state = s;}
 197              		.loc 2 36 29
 198              		.loc 2 36 35 is_stmt 0
 199 0108 93071000 		li	a5,1
 200 010c 232CF502 		sw	a5,56(a0)
 201              	.LVL12:
 202              	.LBE16:
 203              	.LBE15:
  57:src/PCB.cpp   ****     //Riscv::printString("Switching context...\n");
  58:src/PCB.cpp   **** 
  59:src/PCB.cpp   ****     //if(PCB::running->systemThread)
  60:src/PCB.cpp   ****     //    Riscv::ms_sstatus(Riscv::SSTATUS_SPP);
  61:src/PCB.cpp   ****     //else
  62:src/PCB.cpp   ****     //    Riscv::mc_sstatus(Riscv::SSTATUS_SPP);
  63:src/PCB.cpp   **** 
  64:src/PCB.cpp   ****     PCB::contextSwitch(&old->context, &running->context);
 204              		.loc 1 64 5 is_stmt 1
 205              		.loc 1 64 23 is_stmt 0
 206 0110 93050504 		addi	a1,a0,64
 207 0114 13850404 		addi	a0,s1,64
 208 0118 97000000 		call	_ZN3PCB13contextSwitchEPNS_7ContextES1_@plt
 208      E7800000 
 209              	.LVL13:
  65:src/PCB.cpp   **** }
 210              		.loc 1 65 1
 211 0120 83308101 		ld	ra,24(sp)
 212              		.cfi_remember_state
 213              		.cfi_restore 1
 214 0124 03340101 		ld	s0,16(sp)
 215              		.cfi_restore 8
 216              		.cfi_def_cfa 2, 32
 217 0128 83348100 		ld	s1,8(sp)
 218              		.cfi_restore 9
 219              	.LVL14:
 220 012c 13010102 		addi	sp,sp,32
 221              		.cfi_def_cfa_offset 0
 222 0130 67800000 		jr	ra
 223              	.LVL15:
 224              	.L12:
 225              		.cfi_restore_state
  54:src/PCB.cpp   ****     PCB::running = Scheduler::get();
 226              		.loc 1 54 9 is_stmt 1
  54:src/PCB.cpp   ****     PCB::running = Scheduler::get();
GAS LISTING /tmp/ccOauSle.s 			page 7


 227              		.loc 1 54 23 is_stmt 0
 228 0134 13850400 		mv	a0,s1
 229 0138 97000000 		call	_ZN9Scheduler3putEP3PCB@plt
 229      E7800000 
 230              	.LVL16:
 231 0140 6FF09FFB 		j	.L10
 232              		.cfi_endproc
 233              	.LFE30:
 235              		.align	2
 236              		.globl	_ZN3PCBnwEm
 238              	_ZN3PCBnwEm:
 239              	.LFB31:
  66:src/PCB.cpp   **** 
  67:src/PCB.cpp   **** void *PCB::operator new(size_t size) {
 240              		.loc 1 67 38 is_stmt 1
 241              		.cfi_startproc
 242              	.LVL17:
 243 0144 130101FF 		addi	sp,sp,-16
 244              		.cfi_def_cfa_offset 16
 245 0148 23341100 		sd	ra,8(sp)
 246 014c 23308100 		sd	s0,0(sp)
 247              		.cfi_offset 1, -8
 248              		.cfi_offset 8, -16
 249 0150 13040101 		addi	s0,sp,16
 250              		.cfi_def_cfa 8, 0
  68:src/PCB.cpp   ****     return kmalloc(size);
 251              		.loc 1 68 5
 252              		.loc 1 68 19 is_stmt 0
 253 0154 97000000 		call	_Z7kmallocm@plt
 253      E7800000 
 254              	.LVL18:
  69:src/PCB.cpp   **** }
 255              		.loc 1 69 1
 256 015c 83308100 		ld	ra,8(sp)
 257              		.cfi_restore 1
 258 0160 03340100 		ld	s0,0(sp)
 259              		.cfi_restore 8
 260              		.cfi_def_cfa 2, 16
 261 0164 13010101 		addi	sp,sp,16
 262              		.cfi_def_cfa_offset 0
 263 0168 67800000 		jr	ra
 264              		.cfi_endproc
 265              	.LFE31:
 267              		.align	2
 268              		.globl	_ZN3PCBdlEPv
 270              	_ZN3PCBdlEPv:
 271              	.LFB32:
  70:src/PCB.cpp   **** 
  71:src/PCB.cpp   **** void PCB::operator delete(void *p) {
 272              		.loc 1 71 36 is_stmt 1
 273              		.cfi_startproc
 274              	.LVL19:
 275 016c 130101FF 		addi	sp,sp,-16
 276              		.cfi_def_cfa_offset 16
 277 0170 23341100 		sd	ra,8(sp)
 278 0174 23308100 		sd	s0,0(sp)
 279              		.cfi_offset 1, -8
GAS LISTING /tmp/ccOauSle.s 			page 8


 280              		.cfi_offset 8, -16
 281 0178 13040101 		addi	s0,sp,16
 282              		.cfi_def_cfa 8, 0
  72:src/PCB.cpp   ****     kfree(p);
 283              		.loc 1 72 5
 284              		.loc 1 72 10 is_stmt 0
 285 017c 97000000 		call	_Z5kfreePv@plt
 285      E7800000 
 286              	.LVL20:
  73:src/PCB.cpp   **** }
 287              		.loc 1 73 1
 288 0184 83308100 		ld	ra,8(sp)
 289              		.cfi_restore 1
 290 0188 03340100 		ld	s0,0(sp)
 291              		.cfi_restore 8
 292              		.cfi_def_cfa 2, 16
 293 018c 13010101 		addi	sp,sp,16
 294              		.cfi_def_cfa_offset 0
 295 0190 67800000 		jr	ra
 296              		.cfi_endproc
 297              	.LFE32:
 299              		.align	2
 300              		.globl	_ZN3PCBD2Ev
 302              	_ZN3PCBD2Ev:
 303              	.LFB34:
  74:src/PCB.cpp   **** 
  75:src/PCB.cpp   **** PCB::~PCB()
 304              		.loc 1 75 1 is_stmt 1
 305              		.cfi_startproc
 306              		.cfi_personality 0x9b,DW.ref.__gxx_personality_v0
 307              		.cfi_lsda 0x1b,.LLSDA34
 308              	.LVL21:
 309 0194 130101FF 		addi	sp,sp,-16
 310              		.cfi_def_cfa_offset 16
 311 0198 23341100 		sd	ra,8(sp)
 312 019c 23308100 		sd	s0,0(sp)
 313              		.cfi_offset 1, -8
 314              		.cfi_offset 8, -16
 315 01a0 13040101 		addi	s0,sp,16
 316              		.cfi_def_cfa 8, 0
 317              	.LBB17:
  76:src/PCB.cpp   **** {
  77:src/PCB.cpp   ****     kfree(beginSP);
 318              		.loc 1 77 5
 319              		.loc 1 77 10 is_stmt 0
 320 01a4 03350503 		ld	a0,48(a0)
 321              	.LVL22:
 322 01a8 97000000 		call	_Z5kfreePv@plt
 322      E7800000 
 323              	.LVL23:
 324              	.LBE17:
  78:src/PCB.cpp   **** }
 325              		.loc 1 78 1
 326 01b0 83308100 		ld	ra,8(sp)
 327              		.cfi_restore 1
 328 01b4 03340100 		ld	s0,0(sp)
 329              		.cfi_restore 8
GAS LISTING /tmp/ccOauSle.s 			page 9


 330              		.cfi_def_cfa 2, 16
 331 01b8 13010101 		addi	sp,sp,16
 332              		.cfi_def_cfa_offset 0
 333 01bc 67800000 		jr	ra
 334              		.cfi_endproc
 335              	.LFE34:
 336              		.globl	__gxx_personality_v0
 337              		.section	.gcc_except_table,"a",@progbits
 338              	.LLSDA34:
 339 0000 FF       		.byte	0xff
 340 0001 FF       		.byte	0xff
 341 0002 03       		.byte	0x3
 342 0003 00       		.byte	0
 343              		.text
 345              		.globl	_ZN3PCBD1Ev
 346              		.set	_ZN3PCBD1Ev,_ZN3PCBD2Ev
 347              		.align	2
 348              		.globl	_ZN3PCB10initializeEv
 350              	_ZN3PCB10initializeEv:
 351              	.LFB36:
  79:src/PCB.cpp   **** 
  80:src/PCB.cpp   **** void PCB::initialize()
  81:src/PCB.cpp   **** {
 352              		.loc 1 81 1 is_stmt 1
 353              		.cfi_startproc
 354 01c0 130101FE 		addi	sp,sp,-32
 355              		.cfi_def_cfa_offset 32
 356 01c4 233C1100 		sd	ra,24(sp)
 357 01c8 23388100 		sd	s0,16(sp)
 358 01cc 23349100 		sd	s1,8(sp)
 359              		.cfi_offset 1, -8
 360              		.cfi_offset 8, -16
 361              		.cfi_offset 9, -24
 362 01d0 13040102 		addi	s0,sp,32
 363              		.cfi_def_cfa 8, 0
  82:src/PCB.cpp   ****     PCB* mainSystem = new PCB(0, 0, 0, 0);
 364              		.loc 1 82 5
 365              		.loc 1 82 41 is_stmt 0
 366 01d4 13050005 		li	a0,80
 367 01d8 97000000 		call	_ZN3PCBnwEm
 367      E7800000 
 368              	.LVL24:
 369 01e0 93040500 		mv	s1,a0
 370 01e4 13070000 		li	a4,0
 371 01e8 93060000 		li	a3,0
 372 01ec 13060000 		li	a2,0
 373 01f0 93050000 		li	a1,0
 374 01f4 97000000 		call	_ZN3PCBC1EPFvPvES0_S0_m
 374      E7800000 
 375              	.LVL25:
  83:src/PCB.cpp   ****     mainSystem->start();
 376              		.loc 1 83 5 is_stmt 1
 377              		.loc 1 83 22 is_stmt 0
 378 01fc 13850400 		mv	a0,s1
 379 0200 97000000 		call	_ZN3PCB5startEv
 379      E7800000 
 380              	.LVL26:
GAS LISTING /tmp/ccOauSle.s 			page 10


  84:src/PCB.cpp   ****     mainSystem->systemThread = true;
 381              		.loc 1 84 5 is_stmt 1
 382              		.loc 1 84 30 is_stmt 0
 383 0208 93071000 		li	a5,1
 384 020c 2380F400 		sb	a5,0(s1)
  85:src/PCB.cpp   ****     PCB::running = Scheduler::get();
 385              		.loc 1 85 5 is_stmt 1
 386              		.loc 1 85 34 is_stmt 0
 387 0210 97000000 		call	_ZN9Scheduler3getEv@plt
 387      E7800000 
 388              	.LVL27:
 389              		.loc 1 85 18
 390 0218 97070000 		sd	a0,.LANCHOR0,a5
 390      23B0A700 
  86:src/PCB.cpp   ****     PCB::running->setState(PCB::RUNNING);
 391              		.loc 1 86 5 is_stmt 1
 392              	.LVL28:
 393              	.LBB18:
 394              	.LBB19:
 395              		.loc 2 36 29
 396              		.loc 2 36 35 is_stmt 0
 397 0220 93071000 		li	a5,1
 398 0224 232CF502 		sw	a5,56(a0)
 399              	.LVL29:
 400              	.LBE19:
 401              	.LBE18:
  87:src/PCB.cpp   ****     //PCB* consolePCB = new PCB(&KConsole::sendCharactersToConsole, 0, kmalloc(DEFAULT_STACK_SIZE),
  88:src/PCB.cpp   ****     //consolePCB->systemThread = true;
  89:src/PCB.cpp   ****     //consolePCB->start();
  90:src/PCB.cpp   ****     //PCB* idlePCB = new PCB(&Riscv::idleRiscv, 0, kmalloc(DEFAULT_STACK_SIZE), DEFAULT_TIME_SLICE)
  91:src/PCB.cpp   ****     //idlePCB->start();
  92:src/PCB.cpp   ****     //idlePCB->systemThread = true;
  93:src/PCB.cpp   **** }
 402              		.loc 1 93 1
 403 0228 83308101 		ld	ra,24(sp)
 404              		.cfi_restore 1
 405 022c 03340101 		ld	s0,16(sp)
 406              		.cfi_restore 8
 407              		.cfi_def_cfa 2, 32
 408 0230 83348100 		ld	s1,8(sp)
 409              		.cfi_restore 9
 410              	.LVL30:
 411 0234 13010102 		addi	sp,sp,32
 412              		.cfi_def_cfa_offset 0
 413 0238 67800000 		jr	ra
 414              		.cfi_endproc
 415              	.LFE36:
 417              		.align	2
 418              		.globl	_ZN3PCB10isFinishedEv
 420              	_ZN3PCB10isFinishedEv:
 421              	.LFB37:
  94:src/PCB.cpp   **** 
  95:src/PCB.cpp   **** bool PCB::isFinished()
  96:src/PCB.cpp   **** {
 422              		.loc 1 96 1 is_stmt 1
 423              		.cfi_startproc
 424              	.LVL31:
GAS LISTING /tmp/ccOauSle.s 			page 11


 425 023c 130101FF 		addi	sp,sp,-16
 426              		.cfi_def_cfa_offset 16
 427 0240 23348100 		sd	s0,8(sp)
 428              		.cfi_offset 8, -8
 429 0244 13040101 		addi	s0,sp,16
 430              		.cfi_def_cfa 8, 0
  97:src/PCB.cpp   ****     return state == PCB::FINISHED;
 431              		.loc 1 97 5
 432              		.loc 1 97 12 is_stmt 0
 433 0248 03258503 		lw	a0,56(a0)
 434              	.LVL32:
 435              		.loc 1 97 26
 436 024c 1305D5FF 		addi	a0,a0,-3
  98:src/PCB.cpp   **** }
 437              		.loc 1 98 1
 438 0250 13351500 		seqz	a0,a0
 439 0254 03348100 		ld	s0,8(sp)
 440              		.cfi_restore 8
 441              		.cfi_def_cfa 2, 16
 442 0258 13010101 		addi	sp,sp,16
 443              		.cfi_def_cfa_offset 0
 444 025c 67800000 		jr	ra
 445              		.cfi_endproc
 446              	.LFE37:
 448              		.section	.rodata.str1.8,"aMS",@progbits,1
 449              		.align	3
 450              	.LC0:
 451 0000 45786974 		.string	"Exiting thread...\n"
 451      696E6720 
 451      74687265 
 451      61642E2E 
 451      2E0A00
 452              		.text
 453              		.align	2
 454              		.globl	_ZN3PCB17threadExitHandlerEv
 456              	_ZN3PCB17threadExitHandlerEv:
 457              	.LFB38:
  99:src/PCB.cpp   **** 
 100:src/PCB.cpp   **** void PCB::threadExitHandler()
 101:src/PCB.cpp   **** {
 458              		.loc 1 101 1 is_stmt 1
 459              		.cfi_startproc
 460 0260 130101FF 		addi	sp,sp,-16
 461              		.cfi_def_cfa_offset 16
 462 0264 23341100 		sd	ra,8(sp)
 463 0268 23308100 		sd	s0,0(sp)
 464              		.cfi_offset 1, -8
 465              		.cfi_offset 8, -16
 466 026c 13040101 		addi	s0,sp,16
 467              		.cfi_def_cfa 8, 0
 102:src/PCB.cpp   ****     printString("Exiting thread...\n");
 468              		.loc 1 102 5
 469              		.loc 1 102 16 is_stmt 0
 470 0270 17050000 		lla	a0,.LC0
 470      13050500 
 471 0278 97000000 		call	_Z11printStringPKc@plt
 471      E7800000 
GAS LISTING /tmp/ccOauSle.s 			page 12


 472              	.LVL33:
 103:src/PCB.cpp   ****     PCB::timeSliceCounter = 0;
 473              		.loc 1 103 5 is_stmt 1
 474              		.loc 1 103 27 is_stmt 0
 475 0280 97070000 		lla	a5,.LANCHOR0
 475      93870700 
 476 0288 23B40700 		sd	zero,8(a5)
 104:src/PCB.cpp   ****     PCB::running->setState(PCB::FINISHED);
 477              		.loc 1 104 5 is_stmt 1
 478              		.loc 1 104 27 is_stmt 0
 479 028c 83B70700 		ld	a5,0(a5)
 480              	.LVL34:
 481              	.LBB20:
 482              	.LBB21:
 483              		.loc 2 36 29 is_stmt 1
 484              		.loc 2 36 35 is_stmt 0
 485 0290 13073000 		li	a4,3
 486 0294 23ACE702 		sw	a4,56(a5)
 487              	.LVL35:
 488              	.LBE21:
 489              	.LBE20:
 105:src/PCB.cpp   ****     PCB::dispatch();
 490              		.loc 1 105 5 is_stmt 1
 491              		.loc 1 105 18 is_stmt 0
 492 0298 97000000 		call	_ZN3PCB8dispatchEv
 492      E7800000 
 493              	.LVL36:
 106:src/PCB.cpp   ****     __asm__ volatile("li a0, 0");
 494              		.loc 1 106 5 is_stmt 1
 495              		.loc 1 106 33 is_stmt 0
 496              	#APP
 497              	# 106 "src/PCB.cpp" 1
 107              	    Riscv::w_a0_sscratch();
 498              		li a0, 0
 499              	# 0 "" 2
 500              		.loc 1 107 5 is_stmt 1
 501              		.loc 1 107 25 is_stmt 0
 502              	#NO_APP
 503 02a4 97000000 		call	_ZN5Riscv13w_a0_sscratchEv@plt
 503      E7800000 
 504              	.LVL37:
 108:src/PCB.cpp   **** }
 505              		.loc 1 108 1
 506 02ac 83308100 		ld	ra,8(sp)
 507              		.cfi_restore 1
 508 02b0 03340100 		ld	s0,0(sp)
 509              		.cfi_restore 8
 510              		.cfi_def_cfa 2, 16
 511 02b4 13010101 		addi	sp,sp,16
 512              		.cfi_def_cfa_offset 0
 513 02b8 67800000 		jr	ra
 514              		.cfi_endproc
 515              	.LFE38:
 517              		.align	2
 518              		.globl	_ZN3PCB21threadDispatchHandlerEv
 520              	_ZN3PCB21threadDispatchHandlerEv:
 521              	.LFB39:
GAS LISTING /tmp/ccOauSle.s 			page 13


 109:src/PCB.cpp   **** 
 110:src/PCB.cpp   **** void PCB::threadDispatchHandler()
 111:src/PCB.cpp   **** {
 522              		.loc 1 111 1 is_stmt 1
 523              		.cfi_startproc
 524 02bc 130101FF 		addi	sp,sp,-16
 525              		.cfi_def_cfa_offset 16
 526 02c0 23341100 		sd	ra,8(sp)
 527 02c4 23308100 		sd	s0,0(sp)
 528              		.cfi_offset 1, -8
 529              		.cfi_offset 8, -16
 530 02c8 13040101 		addi	s0,sp,16
 531              		.cfi_def_cfa 8, 0
 112:src/PCB.cpp   ****     PCB::timeSliceCounter = 0;
 532              		.loc 1 112 5
 533              		.loc 1 112 27 is_stmt 0
 534 02cc 97070000 		sd	zero,.LANCHOR0+8,a5
 534      23B00700 
 113:src/PCB.cpp   ****     PCB::dispatch();
 535              		.loc 1 113 5 is_stmt 1
 536              		.loc 1 113 18 is_stmt 0
 537 02d4 97000000 		call	_ZN3PCB8dispatchEv
 537      E7800000 
 538              	.LVL38:
 114:src/PCB.cpp   **** }
 539              		.loc 1 114 1
 540 02dc 83308100 		ld	ra,8(sp)
 541              		.cfi_restore 1
 542 02e0 03340100 		ld	s0,0(sp)
 543              		.cfi_restore 8
 544              		.cfi_def_cfa 2, 16
 545 02e4 13010101 		addi	sp,sp,16
 546              		.cfi_def_cfa_offset 0
 547 02e8 67800000 		jr	ra
 548              		.cfi_endproc
 549              	.LFE39:
 551              		.align	2
 552              		.globl	_ZN3PCB18threadSleepHandlerEv
 554              	_ZN3PCB18threadSleepHandlerEv:
 555              	.LFB40:
 115:src/PCB.cpp   **** 
 116:src/PCB.cpp   **** void PCB::threadSleepHandler()
 117:src/PCB.cpp   **** {
 556              		.loc 1 117 1 is_stmt 1
 557              		.cfi_startproc
 558 02ec 130101FF 		addi	sp,sp,-16
 559              		.cfi_def_cfa_offset 16
 560 02f0 23341100 		sd	ra,8(sp)
 561 02f4 23308100 		sd	s0,0(sp)
 562              		.cfi_offset 1, -8
 563              		.cfi_offset 8, -16
 564 02f8 13040101 		addi	s0,sp,16
 565              		.cfi_def_cfa 8, 0
 118:src/PCB.cpp   ****     uint64 time;
 566              		.loc 1 118 5
 119:src/PCB.cpp   ****     __asm__ volatile("mv %0, a1" : "=r"(time));
 567              		.loc 1 119 5
GAS LISTING /tmp/ccOauSle.s 			page 14


 568              		.loc 1 119 47 is_stmt 0
 569              	#APP
 570              	# 119 "src/PCB.cpp" 1
 120              	    PCB::timeSliceCounter = 0;
 571              		mv a5, a1
 572              	# 0 "" 2
 573              	.LVL39:
 574              		.loc 1 120 5 is_stmt 1
 575              		.loc 1 120 27 is_stmt 0
 576              	#NO_APP
 577 0300 17070000 		lla	a4,.LANCHOR0
 577      13070700 
 578 0308 23340700 		sd	zero,8(a4)
 121:src/PCB.cpp   ****     PCB::running->setTimeToSleep(time + Riscv::totalTime);
 579              		.loc 1 121 5 is_stmt 1
 580              		.loc 1 121 33 is_stmt 0
 581 030c 03370700 		ld	a4,0(a4)
 582 0310 97060000 		la	a3,_ZN5Riscv9totalTimeE
 582      83B60600 
 583 0318 83B60600 		ld	a3,0(a3)
 584 031c B387D700 		add	a5,a5,a3
 585              	.LVL40:
 586              	.LBB22:
 587              	.LBB23:
  37:src/../h/PCB.hpp ****     void setTimeToSleep(uint64 time) {timeToSleep = time;}
 588              		.loc 2 37 39 is_stmt 1
 589              		.loc 2 37 51 is_stmt 0
 590 0320 233CF700 		sd	a5,24(a4)
 591              	.LVL41:
 592              	.LBE23:
 593              	.LBE22:
 122:src/PCB.cpp   ****     SleepPCBList::insertSleepingPCB();
 594              		.loc 1 122 5 is_stmt 1
 595              		.loc 1 122 36 is_stmt 0
 596 0324 97000000 		call	_ZN12SleepPCBList17insertSleepingPCBEv@plt
 596      E7800000 
 597              	.LVL42:
 123:src/PCB.cpp   ****     PCB::dispatch();
 598              		.loc 1 123 5 is_stmt 1
 599              		.loc 1 123 18 is_stmt 0
 600 032c 97000000 		call	_ZN3PCB8dispatchEv
 600      E7800000 
 601              	.LVL43:
 124:src/PCB.cpp   ****     __asm__ volatile("li a0, 0x0");
 602              		.loc 1 124 5 is_stmt 1
 603              		.loc 1 124 35 is_stmt 0
 604              	#APP
 605              	# 124 "src/PCB.cpp" 1
 125              	    Riscv::w_a0_sscratch();
 606              		li a0, 0x0
 607              	# 0 "" 2
 608              		.loc 1 125 5 is_stmt 1
 609              		.loc 1 125 25 is_stmt 0
 610              	#NO_APP
 611 0338 97000000 		call	_ZN5Riscv13w_a0_sscratchEv@plt
 611      E7800000 
 612              	.LVL44:
GAS LISTING /tmp/ccOauSle.s 			page 15


 126:src/PCB.cpp   **** }
 613              		.loc 1 126 1
 614 0340 83308100 		ld	ra,8(sp)
 615              		.cfi_restore 1
 616 0344 03340100 		ld	s0,0(sp)
 617              		.cfi_restore 8
 618              		.cfi_def_cfa 2, 16
 619 0348 13010101 		addi	sp,sp,16
 620              		.cfi_def_cfa_offset 0
 621 034c 67800000 		jr	ra
 622              		.cfi_endproc
 623              	.LFE40:
 625              		.align	2
 626              		.globl	_ZN3PCB19threadCreateHandlerEv
 628              	_ZN3PCB19threadCreateHandlerEv:
 629              	.LFB41:
 127:src/PCB.cpp   **** 
 128:src/PCB.cpp   **** void PCB::threadCreateHandler()
 129:src/PCB.cpp   **** {
 630              		.loc 1 129 1 is_stmt 1
 631              		.cfi_startproc
 632 0350 130101FD 		addi	sp,sp,-48
 633              		.cfi_def_cfa_offset 48
 634 0354 23341102 		sd	ra,40(sp)
 635 0358 23308102 		sd	s0,32(sp)
 636 035c 233C9100 		sd	s1,24(sp)
 637 0360 23382101 		sd	s2,16(sp)
 638 0364 23343101 		sd	s3,8(sp)
 639 0368 23304101 		sd	s4,0(sp)
 640              		.cfi_offset 1, -8
 641              		.cfi_offset 8, -16
 642              		.cfi_offset 9, -24
 643              		.cfi_offset 18, -32
 644              		.cfi_offset 19, -40
 645              		.cfi_offset 20, -48
 646 036c 13040103 		addi	s0,sp,48
 647              		.cfi_def_cfa 8, 0
 130:src/PCB.cpp   ****     uint64 start_routine;
 648              		.loc 1 130 5
 131:src/PCB.cpp   ****     uint64 args;
 649              		.loc 1 131 5
 132:src/PCB.cpp   ****     PCB **threadHandle;
 650              		.loc 1 132 5
 133:src/PCB.cpp   ****     __asm__ volatile("mv %0, a1" : "=r"(threadHandle));
 651              		.loc 1 133 5
 652              		.loc 1 133 55 is_stmt 0
 653              	#APP
 654              	# 133 "src/PCB.cpp" 1
 134              	    __asm__ volatile("mv %0, a2" : "=r"(start_routine));
 655              		mv s2, a1
 656              	# 0 "" 2
 657              	.LVL45:
 658              		.loc 1 134 5 is_stmt 1
 659              		.loc 1 134 56 is_stmt 0
 660              	# 134 "src/PCB.cpp" 1
 135              	    __asm__ volatile("mv %0, a3" : "=r"(args));
 661              		mv s3, a2
GAS LISTING /tmp/ccOauSle.s 			page 16


 662              	# 0 "" 2
 663              	.LVL46:
 664              		.loc 1 135 5 is_stmt 1
 665              		.loc 1 135 47 is_stmt 0
 666              	# 135 "src/PCB.cpp" 1
 136              	
 667              		mv s4, a3
 668              	# 0 "" 2
 669              	.LVL47:
 137:src/PCB.cpp   ****     PCB *newPCB = new PCB((void (*)(void *)) start_routine, (void *) args, (void *) PCB::savedRegA4
 670              		.loc 1 137 5 is_stmt 1
 671              		.loc 1 137 120 is_stmt 0
 672              	#NO_APP
 673 037c 13050005 		li	a0,80
 674 0380 97000000 		call	_ZN3PCBnwEm
 674      E7800000 
 675              	.LVL48:
 676 0388 93040500 		mv	s1,a0
 677 038c 13072000 		li	a4,2
 678 0390 97060000 		ld	a3,.LANCHOR0+16
 678      83B60600 
 679 0398 13060A00 		mv	a2,s4
 680 039c 93850900 		mv	a1,s3
 681 03a0 97000000 		call	_ZN3PCBC1EPFvPvES0_S0_m
 681      E7800000 
 682              	.LVL49:
 138:src/PCB.cpp   **** 
 139:src/PCB.cpp   ****     (*threadHandle) = newPCB;
 683              		.loc 1 139 5 is_stmt 1
 684              		.loc 1 139 21 is_stmt 0
 685 03a8 23309900 		sd	s1,0(s2)
 140:src/PCB.cpp   **** 
 141:src/PCB.cpp   ****     if (newPCB == 0)
 686              		.loc 1 141 5 is_stmt 1
 687 03ac 638E0402 		beqz	s1,.L33
 142:src/PCB.cpp   ****             __asm__ volatile("li a0, 0xffffffffffffffff");
 143:src/PCB.cpp   ****     else
 144:src/PCB.cpp   ****     {
 145:src/PCB.cpp   ****         newPCB->start();
 688              		.loc 1 145 9
 689              		.loc 1 145 22 is_stmt 0
 690 03b0 13850400 		mv	a0,s1
 691 03b4 97000000 		call	_ZN3PCB5startEv
 691      E7800000 
 692              	.LVL50:
 146:src/PCB.cpp   ****         __asm__ volatile("li a0, 0");
 693              		.loc 1 146 9 is_stmt 1
 694              		.loc 1 146 37 is_stmt 0
 695              	#APP
 696              	# 146 "src/PCB.cpp" 1
 147              	    }
 697              		li a0, 0
 698              	# 0 "" 2
 699              	#NO_APP
 700              	.L31:
 148:src/PCB.cpp   ****     Riscv::w_a0_sscratch();
 701              		.loc 1 148 5 is_stmt 1
GAS LISTING /tmp/ccOauSle.s 			page 17


 702              		.loc 1 148 25 is_stmt 0
 703 03c0 97000000 		call	_ZN5Riscv13w_a0_sscratchEv@plt
 703      E7800000 
 704              	.LVL51:
 149:src/PCB.cpp   **** }
 705              		.loc 1 149 1
 706 03c8 83308102 		ld	ra,40(sp)
 707              		.cfi_remember_state
 708              		.cfi_restore 1
 709 03cc 03340102 		ld	s0,32(sp)
 710              		.cfi_restore 8
 711              		.cfi_def_cfa 2, 48
 712 03d0 83348101 		ld	s1,24(sp)
 713              		.cfi_restore 9
 714              	.LVL52:
 715 03d4 03390101 		ld	s2,16(sp)
 716              		.cfi_restore 18
 717              	.LVL53:
 718 03d8 83398100 		ld	s3,8(sp)
 719              		.cfi_restore 19
 720              	.LVL54:
 721 03dc 033A0100 		ld	s4,0(sp)
 722              		.cfi_restore 20
 723              	.LVL55:
 724 03e0 13010103 		addi	sp,sp,48
 725              		.cfi_def_cfa_offset 0
 726 03e4 67800000 		jr	ra
 727              	.LVL56:
 728              	.L33:
 729              		.cfi_restore_state
 142:src/PCB.cpp   ****     else
 730              		.loc 1 142 13 is_stmt 1
 142:src/PCB.cpp   ****     else
 731              		.loc 1 142 58 is_stmt 0
 732              	#APP
 733              	# 142 "src/PCB.cpp" 1
 734              		li a0, 0xffffffffffffffff
 735              	# 0 "" 2
 736              	#NO_APP
 737 03ec 6FF05FFD 		j	.L31
 738              		.cfi_endproc
 739              	.LFE41:
 741              		.align	2
 742              		.globl	_ZN3PCB18threadStartHandlerEv
 744              	_ZN3PCB18threadStartHandlerEv:
 745              	.LFB42:
 150:src/PCB.cpp   **** 
 151:src/PCB.cpp   **** void PCB::threadStartHandler()
 152:src/PCB.cpp   **** {
 746              		.loc 1 152 1 is_stmt 1
 747              		.cfi_startproc
 748 03f0 130101FF 		addi	sp,sp,-16
 749              		.cfi_def_cfa_offset 16
 750 03f4 23341100 		sd	ra,8(sp)
 751 03f8 23308100 		sd	s0,0(sp)
 752              		.cfi_offset 1, -8
 753              		.cfi_offset 8, -16
GAS LISTING /tmp/ccOauSle.s 			page 18


 754 03fc 13040101 		addi	s0,sp,16
 755              		.cfi_def_cfa 8, 0
 153:src/PCB.cpp   ****     PCB* pcb;
 756              		.loc 1 153 5
 154:src/PCB.cpp   ****     __asm__ volatile("mv %0, a1" : "=r"(pcb));
 757              		.loc 1 154 5
 758              		.loc 1 154 46 is_stmt 0
 759              	#APP
 760              	# 154 "src/PCB.cpp" 1
 155              	    if(pcb != 0)
 761              		mv a0, a1
 762              	# 0 "" 2
 763              	.LVL57:
 764              		.loc 1 155 5 is_stmt 1
 765              	#NO_APP
 766 0404 63040502 		beqz	a0,.L35
 156:src/PCB.cpp   ****     {
 157:src/PCB.cpp   ****         pcb->start();
 767              		.loc 1 157 9
 768              		.loc 1 157 19 is_stmt 0
 769 0408 97000000 		call	_ZN3PCB5startEv
 769      E7800000 
 770              	.LVL58:
 158:src/PCB.cpp   ****         __asm__ volatile("li a0, 0");
 771              		.loc 1 158 9 is_stmt 1
 772              		.loc 1 158 37 is_stmt 0
 773              	#APP
 774              	# 158 "src/PCB.cpp" 1
 159              	    }
 775              		li a0, 0
 776              	# 0 "" 2
 777              	#NO_APP
 778              	.L36:
 160:src/PCB.cpp   ****     else
 161:src/PCB.cpp   ****     {
 162:src/PCB.cpp   ****         __asm__ volatile("li a0, 0xffffffffffffffff");
 163:src/PCB.cpp   ****     }
 164:src/PCB.cpp   ****     Riscv::w_a0_sscratch();
 779              		.loc 1 164 5 is_stmt 1
 780              		.loc 1 164 25 is_stmt 0
 781 0414 97000000 		call	_ZN5Riscv13w_a0_sscratchEv@plt
 781      E7800000 
 782              	.LVL59:
 165:src/PCB.cpp   **** }
 783              		.loc 1 165 1
 784 041c 83308100 		ld	ra,8(sp)
 785              		.cfi_remember_state
 786              		.cfi_restore 1
 787 0420 03340100 		ld	s0,0(sp)
 788              		.cfi_restore 8
 789              		.cfi_def_cfa 2, 16
 790 0424 13010101 		addi	sp,sp,16
 791              		.cfi_def_cfa_offset 0
 792 0428 67800000 		jr	ra
 793              	.LVL60:
 794              	.L35:
 795              		.cfi_restore_state
GAS LISTING /tmp/ccOauSle.s 			page 19


 162:src/PCB.cpp   ****     }
 796              		.loc 1 162 9 is_stmt 1
 162:src/PCB.cpp   ****     }
 797              		.loc 1 162 54 is_stmt 0
 798              	#APP
 799              	# 162 "src/PCB.cpp" 1
 800              		li a0, 0xffffffffffffffff
 801              	# 0 "" 2
 802              	#NO_APP
 803 0430 6FF05FFE 		j	.L36
 804              		.cfi_endproc
 805              	.LFE42:
 807              		.align	2
 808              		.globl	_ZN3PCB20threadMakePCBHandlerEv
 810              	_ZN3PCB20threadMakePCBHandlerEv:
 811              	.LFB43:
 166:src/PCB.cpp   **** 
 167:src/PCB.cpp   **** void PCB::threadMakePCBHandler()
 168:src/PCB.cpp   **** {
 812              		.loc 1 168 1 is_stmt 1
 813              		.cfi_startproc
 814 0434 130101FD 		addi	sp,sp,-48
 815              		.cfi_def_cfa_offset 48
 816 0438 23341102 		sd	ra,40(sp)
 817 043c 23308102 		sd	s0,32(sp)
 818 0440 233C9100 		sd	s1,24(sp)
 819 0444 23382101 		sd	s2,16(sp)
 820 0448 23343101 		sd	s3,8(sp)
 821 044c 23304101 		sd	s4,0(sp)
 822              		.cfi_offset 1, -8
 823              		.cfi_offset 8, -16
 824              		.cfi_offset 9, -24
 825              		.cfi_offset 18, -32
 826              		.cfi_offset 19, -40
 827              		.cfi_offset 20, -48
 828 0450 13040103 		addi	s0,sp,48
 829              		.cfi_def_cfa 8, 0
 169:src/PCB.cpp   ****     uint64 start_routine;
 830              		.loc 1 169 5
 170:src/PCB.cpp   ****     uint64 args;
 831              		.loc 1 170 5
 171:src/PCB.cpp   ****     PCB **threadHandle;
 832              		.loc 1 171 5
 172:src/PCB.cpp   ****     __asm__ volatile("mv %0, a1" : "=r"(threadHandle));
 833              		.loc 1 172 5
 834              		.loc 1 172 55 is_stmt 0
 835              	#APP
 836              	# 172 "src/PCB.cpp" 1
 173              	    __asm__ volatile("mv %0, a2" : "=r"(start_routine));
 837              		mv s2, a1
 838              	# 0 "" 2
 839              	.LVL61:
 840              		.loc 1 173 5 is_stmt 1
 841              		.loc 1 173 56 is_stmt 0
 842              	# 173 "src/PCB.cpp" 1
 174              	    __asm__ volatile("mv %0, a3" : "=r"(args));
 843              		mv s3, a2
GAS LISTING /tmp/ccOauSle.s 			page 20


 844              	# 0 "" 2
 845              	.LVL62:
 846              		.loc 1 174 5 is_stmt 1
 847              		.loc 1 174 47 is_stmt 0
 848              	# 174 "src/PCB.cpp" 1
 175              	
 849              		mv s4, a3
 850              	# 0 "" 2
 851              	.LVL63:
 176:src/PCB.cpp   ****     PCB *newPCB = new PCB((void (*)(void *)) start_routine, (void *) args, (void *) PCB::savedRegA4
 852              		.loc 1 176 5 is_stmt 1
 853              		.loc 1 176 120 is_stmt 0
 854              	#NO_APP
 855 0460 13050005 		li	a0,80
 856 0464 97000000 		call	_ZN3PCBnwEm
 856      E7800000 
 857              	.LVL64:
 858 046c 93040500 		mv	s1,a0
 859 0470 13072000 		li	a4,2
 860 0474 97060000 		ld	a3,.LANCHOR0+16
 860      83B60600 
 861 047c 13060A00 		mv	a2,s4
 862 0480 93850900 		mv	a1,s3
 863 0484 97000000 		call	_ZN3PCBC1EPFvPvES0_S0_m
 863      E7800000 
 864              	.LVL65:
 177:src/PCB.cpp   **** 
 178:src/PCB.cpp   ****     (*threadHandle) = newPCB;
 865              		.loc 1 178 5 is_stmt 1
 866              		.loc 1 178 21 is_stmt 0
 867 048c 23309900 		sd	s1,0(s2)
 179:src/PCB.cpp   **** 
 180:src/PCB.cpp   ****     if (newPCB == 0)
 868              		.loc 1 180 5 is_stmt 1
 869 0490 63880402 		beqz	s1,.L42
 181:src/PCB.cpp   ****         __asm__ volatile("li a0, 0xffffffffffffffff");
 182:src/PCB.cpp   ****     else
 183:src/PCB.cpp   ****         __asm__ volatile("li a0, 0");
 870              		.loc 1 183 9
 871              		.loc 1 183 37 is_stmt 0
 872              	#APP
 873              	# 183 "src/PCB.cpp" 1
 184              	    Riscv::w_a0_sscratch();
 874              		li a0, 0
 875              	# 0 "" 2
 876              	#NO_APP
 877              	.L40:
 878              		.loc 1 184 5 is_stmt 1
 879              		.loc 1 184 25 is_stmt 0
 880 0498 97000000 		call	_ZN5Riscv13w_a0_sscratchEv@plt
 880      E7800000 
 881              	.LVL66:
 185:src/PCB.cpp   **** }
 882              		.loc 1 185 1
 883 04a0 83308102 		ld	ra,40(sp)
 884              		.cfi_remember_state
 885              		.cfi_restore 1
GAS LISTING /tmp/ccOauSle.s 			page 21


 886 04a4 03340102 		ld	s0,32(sp)
 887              		.cfi_restore 8
 888              		.cfi_def_cfa 2, 48
 889 04a8 83348101 		ld	s1,24(sp)
 890              		.cfi_restore 9
 891              	.LVL67:
 892 04ac 03390101 		ld	s2,16(sp)
 893              		.cfi_restore 18
 894              	.LVL68:
 895 04b0 83398100 		ld	s3,8(sp)
 896              		.cfi_restore 19
 897              	.LVL69:
 898 04b4 033A0100 		ld	s4,0(sp)
 899              		.cfi_restore 20
 900              	.LVL70:
 901 04b8 13010103 		addi	sp,sp,48
 902              		.cfi_def_cfa_offset 0
 903 04bc 67800000 		jr	ra
 904              	.LVL71:
 905              	.L42:
 906              		.cfi_restore_state
 181:src/PCB.cpp   ****         __asm__ volatile("li a0, 0xffffffffffffffff");
 907              		.loc 1 181 9 is_stmt 1
 181:src/PCB.cpp   ****         __asm__ volatile("li a0, 0xffffffffffffffff");
 908              		.loc 1 181 54 is_stmt 0
 909              	#APP
 910              	# 181 "src/PCB.cpp" 1
 911              		li a0, 0xffffffffffffffff
 912              	# 0 "" 2
 913              	#NO_APP
 914 04c4 6FF05FFD 		j	.L40
 915              		.cfi_endproc
 916              	.LFE43:
 918              		.globl	_ZN3PCB10savedRegA4E
 919              		.globl	_ZN3PCB16timeSliceCounterE
 920              		.globl	_ZN3PCB7runningE
 921              		.bss
 922              		.align	3
 923              		.set	.LANCHOR0,. + 0
 926              	_ZN3PCB7runningE:
 927 0000 00000000 		.zero	8
 927      00000000 
 930              	_ZN3PCB16timeSliceCounterE:
 931 0008 00000000 		.zero	8
 931      00000000 
 934              	_ZN3PCB10savedRegA4E:
 935 0010 00000000 		.zero	8
 935      00000000 
 936              		.text
 937              	.Letext0:
 938              		.file 3 "src/../h/../lib/hw.h"
 939              		.file 4 "src/../h/Scheduler.hpp"
 940              		.file 5 "src/../h/Riscv.hpp"
 941              		.file 6 "src/../h/SleepPCBList.hpp"
 942              		.file 7 "src/../h/../test/printing.hpp"
 943              		.file 8 "src/../h/MemoryAllocator.hpp"
 944              		.file 9 "src/../h/../test/../h/syscall_c.h"
GAS LISTING /tmp/ccOauSle.s 			page 22


 4614              		.align	3
 4617              	DW.ref.__gxx_personality_v0:
 4618 0000 00000000 		.dword	__gxx_personality_v0
 4618      00000000 
 4619              		.ident	"GCC: (Ubuntu 9.3.0-17ubuntu1~20.04) 9.3.0"
 4620              		.section	.note.GNU-stack,"",@progbits
GAS LISTING /tmp/ccOauSle.s 			page 23


DEFINED SYMBOLS
                            *ABS*:0000000000000000 PCB.cpp
     /tmp/ccOauSle.s:9      .text:0000000000000000 _ZN3PCB6runnerEv
     /tmp/ccOauSle.s:13     .text:0000000000000000 .L0 
     /tmp/ccOauSle.s:14     .text:0000000000000000 .L0 
     /tmp/ccOauSle.s:15     .text:0000000000000004 .L0 
     /tmp/ccOauSle.s:18     .text:000000000000000c .L0 
     /tmp/ccOauSle.s:19     .text:000000000000000c .L0 
     /tmp/ccOauSle.s:21     .text:0000000000000010 .L0 
     /tmp/ccOauSle.s:23     .text:0000000000000010 .L0 
     /tmp/ccOauSle.s:24     .text:0000000000000010 .L0 
     /tmp/ccOauSle.s:27     .text:0000000000000018 .L0 
     /tmp/ccOauSle.s:28     .text:0000000000000018 .L0 
     /tmp/ccOauSle.s:31     .text:0000000000000024 .L0 
     /tmp/ccOauSle.s:35     .text:000000000000002c .L0 
     /tmp/ccOauSle.s:36     .text:000000000000002c .L0 
     /tmp/ccOauSle.s:39     .text:0000000000000034 .L0 
     /tmp/ccOauSle.s:40     .text:0000000000000038 .L0 
     /tmp/ccOauSle.s:42     .text:000000000000003c .L0 
     /tmp/ccOauSle.s:43     .text:000000000000003c .L0 
     /tmp/ccOauSle.s:45     .text:0000000000000040 .L0 
     /tmp/ccOauSle.s:47     .text:0000000000000044 .L0 
     /tmp/ccOauSle.s:53     .text:0000000000000044 _ZN3PCBC2EPFvPvES0_S0_m
     /tmp/ccOauSle.s:56     .text:0000000000000044 .L0 
     /tmp/ccOauSle.s:58     .text:0000000000000044 .L0 
     /tmp/ccOauSle.s:59     .text:0000000000000048 .L0 
     /tmp/ccOauSle.s:61     .text:000000000000004c .L0 
     /tmp/ccOauSle.s:63     .text:0000000000000050 .L0 
     /tmp/ccOauSle.s:66     .text:0000000000000050 .L0 
     /tmp/ccOauSle.s:73     .text:0000000000000068 .L0 
     /tmp/ccOauSle.s:77     .text:0000000000000070 .L0 
     /tmp/ccOauSle.s:81     .text:0000000000000080 .L0 
     /tmp/ccOauSle.s:82     .text:0000000000000080 .L0 
     /tmp/ccOauSle.s:85     .text:0000000000000084 .L0 
     /tmp/ccOauSle.s:86     .text:0000000000000088 .L0 
     /tmp/ccOauSle.s:87     .text:0000000000000088 .L0 
     /tmp/ccOauSle.s:89     .text:000000000000008c .L0 
     /tmp/ccOauSle.s:91     .text:0000000000000090 .L0 
     /tmp/ccOauSle.s:53     .text:0000000000000044 _ZN3PCBC1EPFvPvES0_S0_m
     /tmp/ccOauSle.s:99     .text:0000000000000090 _ZN3PCB5sleepEm
     /tmp/ccOauSle.s:102    .text:0000000000000090 .L0 
     /tmp/ccOauSle.s:104    .text:0000000000000090 .L0 
     /tmp/ccOauSle.s:105    .text:0000000000000094 .L0 
     /tmp/ccOauSle.s:107    .text:0000000000000098 .L0 
     /tmp/ccOauSle.s:109    .text:000000000000009c .L0 
     /tmp/ccOauSle.s:111    .text:000000000000009c .L0 
     /tmp/ccOauSle.s:112    .text:00000000000000a0 .L0 
     /tmp/ccOauSle.s:113    .text:00000000000000a0 .L0 
     /tmp/ccOauSle.s:115    .text:00000000000000a4 .L0 
     /tmp/ccOauSle.s:117    .text:00000000000000a8 .L0 
     /tmp/ccOauSle.s:123    .text:00000000000000a8 _ZN3PCB5startEv
     /tmp/ccOauSle.s:126    .text:00000000000000a8 .L0 
     /tmp/ccOauSle.s:128    .text:00000000000000a8 .L0 
     /tmp/ccOauSle.s:129    .text:00000000000000ac .L0 
     /tmp/ccOauSle.s:132    .text:00000000000000b4 .L0 
     /tmp/ccOauSle.s:133    .text:00000000000000b4 .L0 
     /tmp/ccOauSle.s:135    .text:00000000000000b8 .L0 
GAS LISTING /tmp/ccOauSle.s 			page 24


     /tmp/ccOauSle.s:137    .text:00000000000000b8 .L0 
     /tmp/ccOauSle.s:138    .text:00000000000000b8 .L0 
     /tmp/ccOauSle.s:141    .text:00000000000000c0 .L0 
     /tmp/ccOauSle.s:142    .text:00000000000000c4 .L0 
     /tmp/ccOauSle.s:144    .text:00000000000000c8 .L0 
     /tmp/ccOauSle.s:145    .text:00000000000000c8 .L0 
     /tmp/ccOauSle.s:147    .text:00000000000000cc .L0 
     /tmp/ccOauSle.s:149    .text:00000000000000d0 .L0 
     /tmp/ccOauSle.s:155    .text:00000000000000d0 _ZN3PCB8dispatchEv
     /tmp/ccOauSle.s:158    .text:00000000000000d0 .L0 
     /tmp/ccOauSle.s:159    .text:00000000000000d0 .L0 
     /tmp/ccOauSle.s:160    .text:00000000000000d4 .L0 
     /tmp/ccOauSle.s:164    .text:00000000000000e0 .L0 
     /tmp/ccOauSle.s:165    .text:00000000000000e0 .L0 
     /tmp/ccOauSle.s:166    .text:00000000000000e0 .L0 
     /tmp/ccOauSle.s:168    .text:00000000000000e4 .L0 
     /tmp/ccOauSle.s:170    .text:00000000000000e4 .L0 
     /tmp/ccOauSle.s:171    .text:00000000000000e4 .L0 
     /tmp/ccOauSle.s:177    .text:00000000000000ec .L0 
     /tmp/ccOauSle.s:178    .text:00000000000000ec .L0 
     /tmp/ccOauSle.s:179    .text:00000000000000ec .L0 
     /tmp/ccOauSle.s:184    .text:00000000000000f0 .L0 
     /tmp/ccOauSle.s:188    .text:00000000000000f8 .L0 
     /tmp/ccOauSle.s:189    .text:00000000000000f8 .L0 
     /tmp/ccOauSle.s:192    .text:0000000000000100 .L0 
     /tmp/ccOauSle.s:197    .text:0000000000000108 .L0 
     /tmp/ccOauSle.s:198    .text:0000000000000108 .L0 
     /tmp/ccOauSle.s:199    .text:0000000000000108 .L0 
     /tmp/ccOauSle.s:205    .text:0000000000000110 .L0 
     /tmp/ccOauSle.s:206    .text:0000000000000110 .L0 
     /tmp/ccOauSle.s:211    .text:0000000000000120 .L0 
     /tmp/ccOauSle.s:212    .text:0000000000000124 .L0 
     /tmp/ccOauSle.s:213    .text:0000000000000124 .L0 
     /tmp/ccOauSle.s:215    .text:0000000000000128 .L0 
     /tmp/ccOauSle.s:216    .text:0000000000000128 .L0 
     /tmp/ccOauSle.s:218    .text:000000000000012c .L0 
     /tmp/ccOauSle.s:221    .text:0000000000000130 .L0 
     /tmp/ccOauSle.s:225    .text:0000000000000134 .L0 
     /tmp/ccOauSle.s:227    .text:0000000000000134 .L0 
     /tmp/ccOauSle.s:228    .text:0000000000000134 .L0 
     /tmp/ccOauSle.s:232    .text:0000000000000144 .L0 
     /tmp/ccOauSle.s:238    .text:0000000000000144 _ZN3PCBnwEm
     /tmp/ccOauSle.s:241    .text:0000000000000144 .L0 
     /tmp/ccOauSle.s:243    .text:0000000000000144 .L0 
     /tmp/ccOauSle.s:244    .text:0000000000000148 .L0 
     /tmp/ccOauSle.s:247    .text:0000000000000150 .L0 
     /tmp/ccOauSle.s:248    .text:0000000000000150 .L0 
     /tmp/ccOauSle.s:250    .text:0000000000000154 .L0 
     /tmp/ccOauSle.s:252    .text:0000000000000154 .L0 
     /tmp/ccOauSle.s:253    .text:0000000000000154 .L0 
     /tmp/ccOauSle.s:256    .text:000000000000015c .L0 
     /tmp/ccOauSle.s:257    .text:0000000000000160 .L0 
     /tmp/ccOauSle.s:259    .text:0000000000000164 .L0 
     /tmp/ccOauSle.s:260    .text:0000000000000164 .L0 
     /tmp/ccOauSle.s:262    .text:0000000000000168 .L0 
     /tmp/ccOauSle.s:264    .text:000000000000016c .L0 
     /tmp/ccOauSle.s:270    .text:000000000000016c _ZN3PCBdlEPv
GAS LISTING /tmp/ccOauSle.s 			page 25


     /tmp/ccOauSle.s:273    .text:000000000000016c .L0 
     /tmp/ccOauSle.s:275    .text:000000000000016c .L0 
     /tmp/ccOauSle.s:276    .text:0000000000000170 .L0 
     /tmp/ccOauSle.s:279    .text:0000000000000178 .L0 
     /tmp/ccOauSle.s:280    .text:0000000000000178 .L0 
     /tmp/ccOauSle.s:282    .text:000000000000017c .L0 
     /tmp/ccOauSle.s:284    .text:000000000000017c .L0 
     /tmp/ccOauSle.s:285    .text:000000000000017c .L0 
     /tmp/ccOauSle.s:288    .text:0000000000000184 .L0 
     /tmp/ccOauSle.s:289    .text:0000000000000188 .L0 
     /tmp/ccOauSle.s:291    .text:000000000000018c .L0 
     /tmp/ccOauSle.s:292    .text:000000000000018c .L0 
     /tmp/ccOauSle.s:294    .text:0000000000000190 .L0 
     /tmp/ccOauSle.s:296    .text:0000000000000194 .L0 
     /tmp/ccOauSle.s:302    .text:0000000000000194 _ZN3PCBD2Ev
     /tmp/ccOauSle.s:305    .text:0000000000000194 .L0 
     /tmp/ccOauSle.s:4617   .data.rel.local.DW.ref.__gxx_personality_v0:0000000000000000 DW.ref.__gxx_personality_v0
     /tmp/ccOauSle.s:309    .text:0000000000000194 .L0 
     /tmp/ccOauSle.s:310    .text:0000000000000198 .L0 
     /tmp/ccOauSle.s:313    .text:00000000000001a0 .L0 
     /tmp/ccOauSle.s:314    .text:00000000000001a0 .L0 
     /tmp/ccOauSle.s:316    .text:00000000000001a4 .L0 
     /tmp/ccOauSle.s:319    .text:00000000000001a4 .L0 
     /tmp/ccOauSle.s:320    .text:00000000000001a4 .L0 
     /tmp/ccOauSle.s:326    .text:00000000000001b0 .L0 
     /tmp/ccOauSle.s:327    .text:00000000000001b4 .L0 
     /tmp/ccOauSle.s:329    .text:00000000000001b8 .L0 
     /tmp/ccOauSle.s:330    .text:00000000000001b8 .L0 
     /tmp/ccOauSle.s:332    .text:00000000000001bc .L0 
     /tmp/ccOauSle.s:334    .text:00000000000001c0 .L0 
     /tmp/ccOauSle.s:302    .text:0000000000000194 _ZN3PCBD1Ev
     /tmp/ccOauSle.s:350    .text:00000000000001c0 _ZN3PCB10initializeEv
     /tmp/ccOauSle.s:353    .text:00000000000001c0 .L0 
     /tmp/ccOauSle.s:354    .text:00000000000001c0 .L0 
     /tmp/ccOauSle.s:355    .text:00000000000001c4 .L0 
     /tmp/ccOauSle.s:359    .text:00000000000001d0 .L0 
     /tmp/ccOauSle.s:360    .text:00000000000001d0 .L0 
     /tmp/ccOauSle.s:361    .text:00000000000001d0 .L0 
     /tmp/ccOauSle.s:363    .text:00000000000001d4 .L0 
     /tmp/ccOauSle.s:365    .text:00000000000001d4 .L0 
     /tmp/ccOauSle.s:366    .text:00000000000001d4 .L0 
     /tmp/ccOauSle.s:377    .text:00000000000001fc .L0 
     /tmp/ccOauSle.s:378    .text:00000000000001fc .L0 
     /tmp/ccOauSle.s:382    .text:0000000000000208 .L0 
     /tmp/ccOauSle.s:383    .text:0000000000000208 .L0 
     /tmp/ccOauSle.s:386    .text:0000000000000210 .L0 
     /tmp/ccOauSle.s:387    .text:0000000000000210 .L0 
     /tmp/ccOauSle.s:390    .text:0000000000000218 .L0 
     /tmp/ccOauSle.s:395    .text:0000000000000220 .L0 
     /tmp/ccOauSle.s:396    .text:0000000000000220 .L0 
     /tmp/ccOauSle.s:397    .text:0000000000000220 .L0 
     /tmp/ccOauSle.s:403    .text:0000000000000228 .L0 
     /tmp/ccOauSle.s:404    .text:000000000000022c .L0 
     /tmp/ccOauSle.s:406    .text:0000000000000230 .L0 
     /tmp/ccOauSle.s:407    .text:0000000000000230 .L0 
     /tmp/ccOauSle.s:409    .text:0000000000000234 .L0 
     /tmp/ccOauSle.s:412    .text:0000000000000238 .L0 
GAS LISTING /tmp/ccOauSle.s 			page 26


     /tmp/ccOauSle.s:414    .text:000000000000023c .L0 
     /tmp/ccOauSle.s:420    .text:000000000000023c _ZN3PCB10isFinishedEv
     /tmp/ccOauSle.s:423    .text:000000000000023c .L0 
     /tmp/ccOauSle.s:425    .text:000000000000023c .L0 
     /tmp/ccOauSle.s:426    .text:0000000000000240 .L0 
     /tmp/ccOauSle.s:428    .text:0000000000000244 .L0 
     /tmp/ccOauSle.s:430    .text:0000000000000248 .L0 
     /tmp/ccOauSle.s:432    .text:0000000000000248 .L0 
     /tmp/ccOauSle.s:433    .text:0000000000000248 .L0 
     /tmp/ccOauSle.s:436    .text:000000000000024c .L0 
     /tmp/ccOauSle.s:438    .text:0000000000000250 .L0 
     /tmp/ccOauSle.s:440    .text:0000000000000258 .L0 
     /tmp/ccOauSle.s:441    .text:0000000000000258 .L0 
     /tmp/ccOauSle.s:443    .text:000000000000025c .L0 
     /tmp/ccOauSle.s:445    .text:0000000000000260 .L0 
     /tmp/ccOauSle.s:456    .text:0000000000000260 _ZN3PCB17threadExitHandlerEv
     /tmp/ccOauSle.s:459    .text:0000000000000260 .L0 
     /tmp/ccOauSle.s:460    .text:0000000000000260 .L0 
     /tmp/ccOauSle.s:461    .text:0000000000000264 .L0 
     /tmp/ccOauSle.s:464    .text:000000000000026c .L0 
     /tmp/ccOauSle.s:465    .text:000000000000026c .L0 
     /tmp/ccOauSle.s:467    .text:0000000000000270 .L0 
     /tmp/ccOauSle.s:469    .text:0000000000000270 .L0 
     /tmp/ccOauSle.s:470    .text:0000000000000270 .L0 
     /tmp/ccOauSle.s:474    .text:0000000000000280 .L0 
     /tmp/ccOauSle.s:475    .text:0000000000000280 .L0 
     /tmp/ccOauSle.s:478    .text:000000000000028c .L0 
     /tmp/ccOauSle.s:479    .text:000000000000028c .L0 
     /tmp/ccOauSle.s:484    .text:0000000000000290 .L0 
     /tmp/ccOauSle.s:485    .text:0000000000000290 .L0 
     /tmp/ccOauSle.s:491    .text:0000000000000298 .L0 
     /tmp/ccOauSle.s:492    .text:0000000000000298 .L0 
     /tmp/ccOauSle.s:495    .text:00000000000002a0 .L0 
         src/PCB.cpp:106    .text:00000000000002a0 .L0 
     /tmp/ccOauSle.s:501    .text:00000000000002a4 .L0 
     /tmp/ccOauSle.s:503    .text:00000000000002a4 .L0 
     /tmp/ccOauSle.s:506    .text:00000000000002ac .L0 
     /tmp/ccOauSle.s:507    .text:00000000000002b0 .L0 
     /tmp/ccOauSle.s:509    .text:00000000000002b4 .L0 
     /tmp/ccOauSle.s:510    .text:00000000000002b4 .L0 
     /tmp/ccOauSle.s:512    .text:00000000000002b8 .L0 
     /tmp/ccOauSle.s:514    .text:00000000000002bc .L0 
     /tmp/ccOauSle.s:520    .text:00000000000002bc _ZN3PCB21threadDispatchHandlerEv
     /tmp/ccOauSle.s:523    .text:00000000000002bc .L0 
     /tmp/ccOauSle.s:524    .text:00000000000002bc .L0 
     /tmp/ccOauSle.s:525    .text:00000000000002c0 .L0 
     /tmp/ccOauSle.s:528    .text:00000000000002c8 .L0 
     /tmp/ccOauSle.s:529    .text:00000000000002c8 .L0 
     /tmp/ccOauSle.s:531    .text:00000000000002cc .L0 
     /tmp/ccOauSle.s:533    .text:00000000000002cc .L0 
     /tmp/ccOauSle.s:534    .text:00000000000002cc .L0 
     /tmp/ccOauSle.s:536    .text:00000000000002d4 .L0 
     /tmp/ccOauSle.s:537    .text:00000000000002d4 .L0 
     /tmp/ccOauSle.s:540    .text:00000000000002dc .L0 
     /tmp/ccOauSle.s:541    .text:00000000000002e0 .L0 
     /tmp/ccOauSle.s:543    .text:00000000000002e4 .L0 
     /tmp/ccOauSle.s:544    .text:00000000000002e4 .L0 
GAS LISTING /tmp/ccOauSle.s 			page 27


     /tmp/ccOauSle.s:546    .text:00000000000002e8 .L0 
     /tmp/ccOauSle.s:548    .text:00000000000002ec .L0 
     /tmp/ccOauSle.s:554    .text:00000000000002ec _ZN3PCB18threadSleepHandlerEv
     /tmp/ccOauSle.s:557    .text:00000000000002ec .L0 
     /tmp/ccOauSle.s:558    .text:00000000000002ec .L0 
     /tmp/ccOauSle.s:559    .text:00000000000002f0 .L0 
     /tmp/ccOauSle.s:562    .text:00000000000002f8 .L0 
     /tmp/ccOauSle.s:563    .text:00000000000002f8 .L0 
     /tmp/ccOauSle.s:565    .text:00000000000002fc .L0 
     /tmp/ccOauSle.s:567    .text:00000000000002fc .L0 
     /tmp/ccOauSle.s:568    .text:00000000000002fc .L0 
         src/PCB.cpp:119    .text:00000000000002fc .L0 
     /tmp/ccOauSle.s:575    .text:0000000000000300 .L0 
     /tmp/ccOauSle.s:577    .text:0000000000000300 .L0 
     /tmp/ccOauSle.s:580    .text:000000000000030c .L0 
     /tmp/ccOauSle.s:581    .text:000000000000030c .L0 
     /tmp/ccOauSle.s:589    .text:0000000000000320 .L0 
     /tmp/ccOauSle.s:590    .text:0000000000000320 .L0 
     /tmp/ccOauSle.s:595    .text:0000000000000324 .L0 
     /tmp/ccOauSle.s:596    .text:0000000000000324 .L0 
     /tmp/ccOauSle.s:599    .text:000000000000032c .L0 
     /tmp/ccOauSle.s:600    .text:000000000000032c .L0 
     /tmp/ccOauSle.s:603    .text:0000000000000334 .L0 
         src/PCB.cpp:124    .text:0000000000000334 .L0 
     /tmp/ccOauSle.s:609    .text:0000000000000338 .L0 
     /tmp/ccOauSle.s:611    .text:0000000000000338 .L0 
     /tmp/ccOauSle.s:614    .text:0000000000000340 .L0 
     /tmp/ccOauSle.s:615    .text:0000000000000344 .L0 
     /tmp/ccOauSle.s:617    .text:0000000000000348 .L0 
     /tmp/ccOauSle.s:618    .text:0000000000000348 .L0 
     /tmp/ccOauSle.s:620    .text:000000000000034c .L0 
     /tmp/ccOauSle.s:622    .text:0000000000000350 .L0 
     /tmp/ccOauSle.s:628    .text:0000000000000350 _ZN3PCB19threadCreateHandlerEv
     /tmp/ccOauSle.s:631    .text:0000000000000350 .L0 
     /tmp/ccOauSle.s:632    .text:0000000000000350 .L0 
     /tmp/ccOauSle.s:633    .text:0000000000000354 .L0 
     /tmp/ccOauSle.s:640    .text:000000000000036c .L0 
     /tmp/ccOauSle.s:641    .text:000000000000036c .L0 
     /tmp/ccOauSle.s:642    .text:000000000000036c .L0 
     /tmp/ccOauSle.s:643    .text:000000000000036c .L0 
     /tmp/ccOauSle.s:644    .text:000000000000036c .L0 
     /tmp/ccOauSle.s:645    .text:000000000000036c .L0 
     /tmp/ccOauSle.s:647    .text:0000000000000370 .L0 
     /tmp/ccOauSle.s:649    .text:0000000000000370 .L0 
     /tmp/ccOauSle.s:650    .text:0000000000000370 .L0 
     /tmp/ccOauSle.s:651    .text:0000000000000370 .L0 
     /tmp/ccOauSle.s:652    .text:0000000000000370 .L0 
         src/PCB.cpp:133    .text:0000000000000370 .L0 
     /tmp/ccOauSle.s:659    .text:0000000000000374 .L0 
         src/PCB.cpp:134    .text:0000000000000374 .L0 
     /tmp/ccOauSle.s:665    .text:0000000000000378 .L0 
         src/PCB.cpp:135    .text:0000000000000378 .L0 
     /tmp/ccOauSle.s:671    .text:000000000000037c .L0 
     /tmp/ccOauSle.s:673    .text:000000000000037c .L0 
     /tmp/ccOauSle.s:684    .text:00000000000003a8 .L0 
     /tmp/ccOauSle.s:685    .text:00000000000003a8 .L0 
     /tmp/ccOauSle.s:687    .text:00000000000003ac .L0 
GAS LISTING /tmp/ccOauSle.s 			page 28


     /tmp/ccOauSle.s:689    .text:00000000000003b0 .L0 
     /tmp/ccOauSle.s:690    .text:00000000000003b0 .L0 
     /tmp/ccOauSle.s:694    .text:00000000000003bc .L0 
         src/PCB.cpp:146    .text:00000000000003bc .L0 
     /tmp/ccOauSle.s:702    .text:00000000000003c0 .L0 
     /tmp/ccOauSle.s:703    .text:00000000000003c0 .L0 
     /tmp/ccOauSle.s:706    .text:00000000000003c8 .L0 
     /tmp/ccOauSle.s:707    .text:00000000000003cc .L0 
     /tmp/ccOauSle.s:708    .text:00000000000003cc .L0 
     /tmp/ccOauSle.s:710    .text:00000000000003d0 .L0 
     /tmp/ccOauSle.s:711    .text:00000000000003d0 .L0 
     /tmp/ccOauSle.s:713    .text:00000000000003d4 .L0 
     /tmp/ccOauSle.s:716    .text:00000000000003d8 .L0 
     /tmp/ccOauSle.s:719    .text:00000000000003dc .L0 
     /tmp/ccOauSle.s:722    .text:00000000000003e0 .L0 
     /tmp/ccOauSle.s:725    .text:00000000000003e4 .L0 
     /tmp/ccOauSle.s:729    .text:00000000000003e8 .L0 
     /tmp/ccOauSle.s:731    .text:00000000000003e8 .L0 
         src/PCB.cpp:142    .text:00000000000003e8 .L0 
     /tmp/ccOauSle.s:738    .text:00000000000003f0 .L0 
     /tmp/ccOauSle.s:744    .text:00000000000003f0 _ZN3PCB18threadStartHandlerEv
     /tmp/ccOauSle.s:747    .text:00000000000003f0 .L0 
     /tmp/ccOauSle.s:748    .text:00000000000003f0 .L0 
     /tmp/ccOauSle.s:749    .text:00000000000003f4 .L0 
     /tmp/ccOauSle.s:752    .text:00000000000003fc .L0 
     /tmp/ccOauSle.s:753    .text:00000000000003fc .L0 
     /tmp/ccOauSle.s:755    .text:0000000000000400 .L0 
     /tmp/ccOauSle.s:757    .text:0000000000000400 .L0 
     /tmp/ccOauSle.s:758    .text:0000000000000400 .L0 
         src/PCB.cpp:154    .text:0000000000000400 .L0 
     /tmp/ccOauSle.s:766    .text:0000000000000404 .L0 
     /tmp/ccOauSle.s:768    .text:0000000000000408 .L0 
     /tmp/ccOauSle.s:769    .text:0000000000000408 .L0 
     /tmp/ccOauSle.s:772    .text:0000000000000410 .L0 
         src/PCB.cpp:158    .text:0000000000000410 .L0 
     /tmp/ccOauSle.s:780    .text:0000000000000414 .L0 
     /tmp/ccOauSle.s:781    .text:0000000000000414 .L0 
     /tmp/ccOauSle.s:784    .text:000000000000041c .L0 
     /tmp/ccOauSle.s:785    .text:0000000000000420 .L0 
     /tmp/ccOauSle.s:786    .text:0000000000000420 .L0 
     /tmp/ccOauSle.s:788    .text:0000000000000424 .L0 
     /tmp/ccOauSle.s:789    .text:0000000000000424 .L0 
     /tmp/ccOauSle.s:791    .text:0000000000000428 .L0 
     /tmp/ccOauSle.s:795    .text:000000000000042c .L0 
     /tmp/ccOauSle.s:797    .text:000000000000042c .L0 
         src/PCB.cpp:162    .text:000000000000042c .L0 
     /tmp/ccOauSle.s:804    .text:0000000000000434 .L0 
     /tmp/ccOauSle.s:810    .text:0000000000000434 _ZN3PCB20threadMakePCBHandlerEv
     /tmp/ccOauSle.s:813    .text:0000000000000434 .L0 
     /tmp/ccOauSle.s:814    .text:0000000000000434 .L0 
     /tmp/ccOauSle.s:815    .text:0000000000000438 .L0 
     /tmp/ccOauSle.s:822    .text:0000000000000450 .L0 
     /tmp/ccOauSle.s:823    .text:0000000000000450 .L0 
     /tmp/ccOauSle.s:824    .text:0000000000000450 .L0 
     /tmp/ccOauSle.s:825    .text:0000000000000450 .L0 
     /tmp/ccOauSle.s:826    .text:0000000000000450 .L0 
     /tmp/ccOauSle.s:827    .text:0000000000000450 .L0 
GAS LISTING /tmp/ccOauSle.s 			page 29


     /tmp/ccOauSle.s:829    .text:0000000000000454 .L0 
     /tmp/ccOauSle.s:831    .text:0000000000000454 .L0 
     /tmp/ccOauSle.s:832    .text:0000000000000454 .L0 
     /tmp/ccOauSle.s:833    .text:0000000000000454 .L0 
     /tmp/ccOauSle.s:834    .text:0000000000000454 .L0 
         src/PCB.cpp:172    .text:0000000000000454 .L0 
     /tmp/ccOauSle.s:841    .text:0000000000000458 .L0 
         src/PCB.cpp:173    .text:0000000000000458 .L0 
     /tmp/ccOauSle.s:847    .text:000000000000045c .L0 
         src/PCB.cpp:174    .text:000000000000045c .L0 
     /tmp/ccOauSle.s:853    .text:0000000000000460 .L0 
     /tmp/ccOauSle.s:855    .text:0000000000000460 .L0 
     /tmp/ccOauSle.s:866    .text:000000000000048c .L0 
     /tmp/ccOauSle.s:867    .text:000000000000048c .L0 
     /tmp/ccOauSle.s:869    .text:0000000000000490 .L0 
     /tmp/ccOauSle.s:871    .text:0000000000000494 .L0 
         src/PCB.cpp:183    .text:0000000000000494 .L0 
     /tmp/ccOauSle.s:879    .text:0000000000000498 .L0 
     /tmp/ccOauSle.s:880    .text:0000000000000498 .L0 
     /tmp/ccOauSle.s:883    .text:00000000000004a0 .L0 
     /tmp/ccOauSle.s:884    .text:00000000000004a4 .L0 
     /tmp/ccOauSle.s:885    .text:00000000000004a4 .L0 
     /tmp/ccOauSle.s:887    .text:00000000000004a8 .L0 
     /tmp/ccOauSle.s:888    .text:00000000000004a8 .L0 
     /tmp/ccOauSle.s:890    .text:00000000000004ac .L0 
     /tmp/ccOauSle.s:893    .text:00000000000004b0 .L0 
     /tmp/ccOauSle.s:896    .text:00000000000004b4 .L0 
     /tmp/ccOauSle.s:899    .text:00000000000004b8 .L0 
     /tmp/ccOauSle.s:902    .text:00000000000004bc .L0 
     /tmp/ccOauSle.s:906    .text:00000000000004c0 .L0 
     /tmp/ccOauSle.s:908    .text:00000000000004c0 .L0 
         src/PCB.cpp:181    .text:00000000000004c0 .L0 
     /tmp/ccOauSle.s:915    .text:00000000000004c8 .L0 
     /tmp/ccOauSle.s:934    .bss:0000000000000010 _ZN3PCB10savedRegA4E
     /tmp/ccOauSle.s:930    .bss:0000000000000008 _ZN3PCB16timeSliceCounterE
     /tmp/ccOauSle.s:926    .bss:0000000000000000 _ZN3PCB7runningE
     /tmp/ccOauSle.s:923    .bss:0000000000000000 .LANCHOR0
     /tmp/ccOauSle.s:945    .text:00000000000004c8 .L0 
     /tmp/ccOauSle.s:28     .text:0000000000000018 .L0 
     /tmp/ccOauSle.s:78     .text:0000000000000074 .L0 
     /tmp/ccOauSle.s:171    .text:00000000000000e4 .L0 
     /tmp/ccOauSle.s:192    .text:0000000000000100 .L0 
     /tmp/ccOauSle.s:390    .text:0000000000000218 .L0 
     /tmp/ccOauSle.s:450    .rodata.str1.8:0000000000000000 .LC0
     /tmp/ccOauSle.s:470    .text:0000000000000270 .L0 
     /tmp/ccOauSle.s:475    .text:0000000000000280 .L0 
     /tmp/ccOauSle.s:534    .text:00000000000002cc .L0 
     /tmp/ccOauSle.s:577    .text:0000000000000300 .L0 
     /tmp/ccOauSle.s:582    .text:0000000000000310 .L0 
     /tmp/ccOauSle.s:678    .text:0000000000000390 .L0 
     /tmp/ccOauSle.s:860    .text:0000000000000474 .L0 
     /tmp/ccOauSle.s:224    .text:0000000000000134 .L12
     /tmp/ccOauSle.s:186    .text:00000000000000f8 .L10
     /tmp/ccOauSle.s:728    .text:00000000000003e8 .L33
     /tmp/ccOauSle.s:700    .text:00000000000003c0 .L31
     /tmp/ccOauSle.s:794    .text:000000000000042c .L35
     /tmp/ccOauSle.s:778    .text:0000000000000414 .L36
GAS LISTING /tmp/ccOauSle.s 			page 30


     /tmp/ccOauSle.s:905    .text:00000000000004c0 .L42
     /tmp/ccOauSle.s:877    .text:0000000000000498 .L40
     /tmp/ccOauSle.s:2832   .debug_abbrev:0000000000000000 .Ldebug_abbrev0
     /tmp/ccOauSle.s:4227   .debug_str:0000000000000150 .LASF203
     /tmp/ccOauSle.s:4543   .debug_str:0000000000000bcb .LASF204
     /tmp/ccOauSle.s:4533   .debug_str:0000000000000b64 .LASF205
     /tmp/ccOauSle.s:5      .text:0000000000000000 .Ltext0
     /tmp/ccOauSle.s:937    .text:00000000000004c8 .Letext0
     /tmp/ccOauSle.s:4183   .debug_line:0000000000000000 .Ldebug_line0
     /tmp/ccOauSle.s:4325   .debug_str:00000000000004dd .LASF0
     /tmp/ccOauSle.s:4357   .debug_str:00000000000005e5 .LASF1
     /tmp/ccOauSle.s:4461   .debug_str:000000000000095d .LASF2
     /tmp/ccOauSle.s:4473   .debug_str:00000000000009b2 .LASF4
     /tmp/ccOauSle.s:4343   .debug_str:000000000000056b .LASF3
     /tmp/ccOauSle.s:4197   .debug_str:0000000000000056 .LASF5
     /tmp/ccOauSle.s:4435   .debug_str:0000000000000887 .LASF6
     /tmp/ccOauSle.s:4425   .debug_str:000000000000083c .LASF7
     /tmp/ccOauSle.s:4349   .debug_str:00000000000005ac .LASF8
     /tmp/ccOauSle.s:4303   .debug_str:000000000000042d .LASF9
     /tmp/ccOauSle.s:4309   .debug_str:0000000000000470 .LASF10
     /tmp/ccOauSle.s:4245   .debug_str:000000000000028a .LASF11
     /tmp/ccOauSle.s:4293   .debug_str:00000000000003f6 .LASF12
     /tmp/ccOauSle.s:4251   .debug_str:00000000000002ac .LASF13
     /tmp/ccOauSle.s:4243   .debug_str:000000000000027a .LASF14
     /tmp/ccOauSle.s:4509   .debug_str:0000000000000ad7 .LASF15
     /tmp/ccOauSle.s:4287   .debug_str:00000000000003ad .LASF16
     /tmp/ccOauSle.s:4497   .debug_str:0000000000000a53 .LASF17
     /tmp/ccOauSle.s:4519   .debug_str:0000000000000b16 .LASF206
     /tmp/ccOauSle.s:4237   .debug_str:000000000000024d .LASF18
     /tmp/ccOauSle.s:4491   .debug_str:0000000000000a32 .LASF19
     /tmp/ccOauSle.s:4249   .debug_str:00000000000002a2 .LASF20
     /tmp/ccOauSle.s:4223   .debug_str:0000000000000139 .LASF21
     /tmp/ccOauSle.s:4429   .debug_str:0000000000000865 .LASF22
     /tmp/ccOauSle.s:4247   .debug_str:0000000000000299 .LASF23
     /tmp/ccOauSle.s:4511   .debug_str:0000000000000ae3 .LASF84
     /tmp/ccOauSle.s:4315   .debug_str:00000000000004a3 .LASF24
     /tmp/ccOauSle.s:4201   .debug_str:0000000000000068 .LASF29
     /tmp/ccOauSle.s:4537   .debug_str:0000000000000b8f .LASF207
     /tmp/ccOauSle.s:4413   .debug_str:00000000000007e3 .LASF208
     /tmp/ccOauSle.s:4355   .debug_str:00000000000005e0 .LASF25
     /tmp/ccOauSle.s:4595   .debug_str:0000000000000d5c .LASF27
     /tmp/ccOauSle.s:4589   .debug_str:0000000000000d2c .LASF26
     /tmp/ccOauSle.s:4527   .debug_str:0000000000000b36 .LASF28
     /tmp/ccOauSle.s:4273   .debug_str:0000000000000352 .LASF54
     /tmp/ccOauSle.s:4209   .debug_str:00000000000000b3 .LASF56
     /tmp/ccOauSle.s:4359   .debug_str:00000000000005f8 .LASF34
     /tmp/ccOauSle.s:4417   .debug_str:00000000000007fb .LASF36
     /tmp/ccOauSle.s:4523   .debug_str:0000000000000b26 .LASF30
     /tmp/ccOauSle.s:4483   .debug_str:00000000000009e9 .LASF31
     /tmp/ccOauSle.s:4361   .debug_str:00000000000005fe .LASF38
     /tmp/ccOauSle.s:4367   .debug_str:0000000000000635 .LASF40
     /tmp/ccOauSle.s:4599   .debug_str:0000000000000d80 .LASF32
     /tmp/ccOauSle.s:4289   .debug_str:00000000000003c3 .LASF33
     /tmp/ccOauSle.s:4189   .debug_str:000000000000001f .LASF35
     /tmp/ccOauSle.s:4337   .debug_str:000000000000053f .LASF37
     /tmp/ccOauSle.s:4487   .debug_str:0000000000000a0b .LASF39
     /tmp/ccOauSle.s:4391   .debug_str:000000000000070e .LASF41
GAS LISTING /tmp/ccOauSle.s 			page 31


     /tmp/ccOauSle.s:4471   .debug_str:00000000000009a9 .LASF42
     /tmp/ccOauSle.s:4503   .debug_str:0000000000000aa1 .LASF43
     /tmp/ccOauSle.s:4393   .debug_str:0000000000000721 .LASF44
     /tmp/ccOauSle.s:4185   .debug_str:0000000000000000 .LASF45
     /tmp/ccOauSle.s:4575   .debug_str:0000000000000cb7 .LASF46
     /tmp/ccOauSle.s:4423   .debug_str:0000000000000822 .LASF47
     /tmp/ccOauSle.s:4495   .debug_str:0000000000000a45 .LASF48
     /tmp/ccOauSle.s:4437   .debug_str:000000000000088e .LASF49
     /tmp/ccOauSle.s:4269   .debug_str:0000000000000330 .LASF50
     /tmp/ccOauSle.s:4297   .debug_str:000000000000040d .LASF51
     /tmp/ccOauSle.s:4453   .debug_str:000000000000091c .LASF52
     /tmp/ccOauSle.s:4581   .debug_str:0000000000000ce8 .LASF53
     /tmp/ccOauSle.s:4345   .debug_str:000000000000057d .LASF60
     /tmp/ccOauSle.s:4493   .debug_str:0000000000000a3a .LASF55
     /tmp/ccOauSle.s:4593   .debug_str:0000000000000d46 .LASF57
     /tmp/ccOauSle.s:4513   .debug_str:0000000000000aeb .LASF58
     /tmp/ccOauSle.s:4261   .debug_str:0000000000000303 .LASF59
     /tmp/ccOauSle.s:4479   .debug_str:00000000000009d3 .LASF61
     /tmp/ccOauSle.s:4327   .debug_str:00000000000004ea .LASF62
     /tmp/ccOauSle.s:4401   .debug_str:000000000000075b .LASF63
     /tmp/ccOauSle.s:4255   .debug_str:00000000000002cd .LASF64
     /tmp/ccOauSle.s:4441   .debug_str:00000000000008a1 .LASF65
     /tmp/ccOauSle.s:4609   .debug_str:0000000000000db8 .LASF66
     /tmp/ccOauSle.s:4405   .debug_str:0000000000000781 .LASF67
     /tmp/ccOauSle.s:4469   .debug_str:0000000000000996 .LASF68
     /tmp/ccOauSle.s:4489   .debug_str:0000000000000a14 .LASF69
     /tmp/ccOauSle.s:4549   .debug_str:0000000000000be5 .LASF70
     /tmp/ccOauSle.s:4383   .debug_str:00000000000006c6 .LASF71
     /tmp/ccOauSle.s:4539   .debug_str:0000000000000ba7 .LASF72
     /tmp/ccOauSle.s:4501   .debug_str:0000000000000a81 .LASF73
     /tmp/ccOauSle.s:4531   .debug_str:0000000000000b5a .LASF74
     /tmp/ccOauSle.s:4419   .debug_str:000000000000080b .LASF75
     /tmp/ccOauSle.s:4587   .debug_str:0000000000000d1e .LASF76
     /tmp/ccOauSle.s:4213   .debug_str:00000000000000d3 .LASF78
     /tmp/ccOauSle.s:4329   .debug_str:00000000000004fe .LASF77
     /tmp/ccOauSle.s:4235   .debug_str:0000000000000221 .LASF79
     /tmp/ccOauSle.s:4573   .debug_str:0000000000000cb0 .LASF209
     /tmp/ccOauSle.s:4231   .debug_str:0000000000000202 .LASF210
     /tmp/ccOauSle.s:4187   .debug_str:000000000000001a .LASF80
     /tmp/ccOauSle.s:4547   .debug_str:0000000000000be0 .LASF81
     /tmp/ccOauSle.s:4371   .debug_str:0000000000000668 .LASF82
     /tmp/ccOauSle.s:4275   .debug_str:000000000000035b .LASF83
     /tmp/ccOauSle.s:4535   .debug_str:0000000000000b87 .LASF85
     /tmp/ccOauSle.s:4301   .debug_str:0000000000000423 .LASF86
     /tmp/ccOauSle.s:4203   .debug_str:0000000000000073 .LASF211
     /tmp/ccOauSle.s:4591   .debug_str:0000000000000d32 .LASF212
     /tmp/ccOauSle.s:4219   .debug_str:0000000000000114 .LASF87
     /tmp/ccOauSle.s:4415   .debug_str:00000000000007e8 .LASF88
     /tmp/ccOauSle.s:4525   .debug_str:0000000000000b2e .LASF89
     /tmp/ccOauSle.s:4455   .debug_str:0000000000000929 .LASF116
     /tmp/ccOauSle.s:4229   .debug_str:00000000000001fc .LASF90
     /tmp/ccOauSle.s:4399   .debug_str:0000000000000745 .LASF91
     /tmp/ccOauSle.s:4485   .debug_str:00000000000009fa .LASF92
     /tmp/ccOauSle.s:4253   .debug_str:00000000000002bc .LASF93
     /tmp/ccOauSle.s:4561   .debug_str:0000000000000c66 .LASF94
     /tmp/ccOauSle.s:4321   .debug_str:00000000000004ba .LASF95
     /tmp/ccOauSle.s:4499   .debug_str:0000000000000a69 .LASF96
GAS LISTING /tmp/ccOauSle.s 			page 32


     /tmp/ccOauSle.s:4421   .debug_str:0000000000000817 .LASF97
     /tmp/ccOauSle.s:4379   .debug_str:000000000000069e .LASF98
     /tmp/ccOauSle.s:4285   .debug_str:00000000000003a3 .LASF99
     /tmp/ccOauSle.s:4427   .debug_str:000000000000084f .LASF100
     /tmp/ccOauSle.s:4381   .debug_str:00000000000006b6 .LASF101
     /tmp/ccOauSle.s:4555   .debug_str:0000000000000c2c .LASF102
     /tmp/ccOauSle.s:4551   .debug_str:0000000000000bf8 .LASF103
     /tmp/ccOauSle.s:4365   .debug_str:0000000000000617 .LASF104
     /tmp/ccOauSle.s:4279   .debug_str:0000000000000367 .LASF105
     /tmp/ccOauSle.s:4585   .debug_str:0000000000000cfa .LASF106
     /tmp/ccOauSle.s:4335   .debug_str:000000000000052d .LASF107
     /tmp/ccOauSle.s:4257   .debug_str:00000000000002df .LASF108
     /tmp/ccOauSle.s:4217   .debug_str:000000000000010a .LASF109
     /tmp/ccOauSle.s:4305   .debug_str:000000000000043d .LASF110
     /tmp/ccOauSle.s:4481   .debug_str:00000000000009db .LASF111
     /tmp/ccOauSle.s:4449   .debug_str:00000000000008fa .LASF112
     /tmp/ccOauSle.s:4395   .debug_str:0000000000000730 .LASF113
     /tmp/ccOauSle.s:4567   .debug_str:0000000000000c81 .LASF114
     /tmp/ccOauSle.s:4545   .debug_str:0000000000000bd7 .LASF115
     /tmp/ccOauSle.s:4193   .debug_str:0000000000000037 .LASF117
     /tmp/ccOauSle.s:4605   .debug_str:0000000000000da7 .LASF118
     /tmp/ccOauSle.s:4409   .debug_str:00000000000007b6 .LASF119
     /tmp/ccOauSle.s:4439   .debug_str:000000000000089a .LASF120
     /tmp/ccOauSle.s:4443   .debug_str:00000000000008be .LASF121
     /tmp/ccOauSle.s:4403   .debug_str:000000000000077a .LASF122
     /tmp/ccOauSle.s:4351   .debug_str:00000000000005bf .LASF123
     /tmp/ccOauSle.s:4569   .debug_str:0000000000000c9b .LASF124
     /tmp/ccOauSle.s:4529   .debug_str:0000000000000b46 .LASF125
     /tmp/ccOauSle.s:4397   .debug_str:000000000000073d .LASF126
     /tmp/ccOauSle.s:4407   .debug_str:00000000000007a2 .LASF127
     /tmp/ccOauSle.s:4387   .debug_str:00000000000006f4 .LASF128
     /tmp/ccOauSle.s:4445   .debug_str:00000000000008d1 .LASF129
     /tmp/ccOauSle.s:4607   .debug_str:0000000000000db0 .LASF130
     /tmp/ccOauSle.s:4333   .debug_str:0000000000000519 .LASF131
     /tmp/ccOauSle.s:4507   .debug_str:0000000000000ad0 .LASF132
     /tmp/ccOauSle.s:4475   .debug_str:00000000000009b9 .LASF133
     /tmp/ccOauSle.s:4477   .debug_str:00000000000009cc .LASF134
     /tmp/ccOauSle.s:4283   .debug_str:0000000000000390 .LASF135
     /tmp/ccOauSle.s:4277   .debug_str:0000000000000361 .LASF136
     /tmp/ccOauSle.s:4205   .debug_str:000000000000008b .LASF137
     /tmp/ccOauSle.s:4331   .debug_str:0000000000000513 .LASF138
     /tmp/ccOauSle.s:4271   .debug_str:0000000000000340 .LASF139
     /tmp/ccOauSle.s:4233   .debug_str:0000000000000213 .LASF140
     /tmp/ccOauSle.s:4517   .debug_str:0000000000000afb .LASF141
     /tmp/ccOauSle.s:4199   .debug_str:000000000000005d .LASF142
     /tmp/ccOauSle.s:4467   .debug_str:000000000000097e .LASF143
     /tmp/ccOauSle.s:4459   .debug_str:0000000000000952 .LASF144
     /tmp/ccOauSle.s:4597   .debug_str:0000000000000d68 .LASF145
     /tmp/ccOauSle.s:4465   .debug_str:0000000000000977 .LASF146
     /tmp/ccOauSle.s:4241   .debug_str:0000000000000267 .LASF147
     /tmp/ccOauSle.s:4565   .debug_str:0000000000000c77 .LASF148
     /tmp/ccOauSle.s:4577   .debug_str:0000000000000cc6 .LASF149
     /tmp/ccOauSle.s:4557   .debug_str:0000000000000c4a .LASF150
     /tmp/ccOauSle.s:4207   .debug_str:000000000000009d .LASF151
     /tmp/ccOauSle.s:4267   .debug_str:000000000000032a .LASF152
     /tmp/ccOauSle.s:4313   .debug_str:0000000000000491 .LASF153
     /tmp/ccOauSle.s:4319   .debug_str:00000000000004b4 .LASF154
GAS LISTING /tmp/ccOauSle.s 			page 33


     /tmp/ccOauSle.s:4559   .debug_str:0000000000000c54 .LASF155
     /tmp/ccOauSle.s:4317   .debug_str:00000000000004a9 .LASF156
     /tmp/ccOauSle.s:4323   .debug_str:00000000000004c5 .LASF157
     /tmp/ccOauSle.s:4541   .debug_str:0000000000000bbc .LASF158
     /tmp/ccOauSle.s:4307   .debug_str:0000000000000454 .LASF159
     /tmp/ccOauSle.s:4433   .debug_str:0000000000000872 .LASF160
     /tmp/ccOauSle.s:4347   .debug_str:000000000000058a .LASF161
     /tmp/ccOauSle.s:4215   .debug_str:00000000000000fb .LASF162
     /tmp/ccOauSle.s:4375   .debug_str:0000000000000675 .LASF163
     /tmp/ccOauSle.s:4451   .debug_str:0000000000000915 .LASF164
     /tmp/ccOauSle.s:4191   .debug_str:000000000000002f .LASF165
     /tmp/ccOauSle.s:4601   .debug_str:0000000000000d8d .LASF166
     /tmp/ccOauSle.s:4363   .debug_str:000000000000060b .LASF167
     /tmp/ccOauSle.s:4221   .debug_str:0000000000000126 .LASF168
     /tmp/ccOauSle.s:4389   .debug_str:00000000000006fc .LASF169
     /tmp/ccOauSle.s:4311   .debug_str:000000000000047e .LASF170
     /tmp/ccOauSle.s:4341   .debug_str:0000000000000558 .LASF171
     /tmp/ccOauSle.s:4239   .debug_str:0000000000000253 .LASF172
     /tmp/ccOauSle.s:4521   .debug_str:0000000000000b1c .LASF173
     /tmp/ccOauSle.s:4373   .debug_str:0000000000000670 .LASF174
     /tmp/ccOauSle.s:4571   .debug_str:0000000000000ca3 .LASF175
     /tmp/ccOauSle.s:4385   .debug_str:00000000000006e4 .LASF176
     /tmp/ccOauSle.s:4281   .debug_str:000000000000037e .LASF177
     /tmp/ccOauSle.s:4291   .debug_str:00000000000003cf .LASF178
     /tmp/ccOauSle.s:4225   .debug_str:0000000000000142 .LASF179
     /tmp/ccOauSle.s:4553   .debug_str:0000000000000c09 .LASF180
     /tmp/ccOauSle.s:4515   .debug_str:0000000000000af6 .LASF181
     /tmp/ccOauSle.s:4457   .debug_str:0000000000000941 .LASF182
     /tmp/ccOauSle.s:4369   .debug_str:000000000000064d .LASF183
     /tmp/ccOauSle.s:4447   .debug_str:00000000000008e5 .LASF184
     /tmp/ccOauSle.s:811    .text:0000000000000434 .LFB43
     /tmp/ccOauSle.s:916    .text:00000000000004c8 .LFE43
     /tmp/ccOauSle.s:4353   .debug_str:00000000000005d2 .LASF185
     /tmp/ccOauSle.s:3898   .debug_loc:0000000000000000 .LLST23
     /tmp/ccOauSle.s:3909   .debug_loc:0000000000000036 .LLST24
     /tmp/ccOauSle.s:4211   .debug_str:00000000000000c6 .LASF186
     /tmp/ccOauSle.s:3920   .debug_loc:000000000000006c .LLST25
     /tmp/ccOauSle.s:4583   .debug_str:0000000000000cf3 .LASF187
     /tmp/ccOauSle.s:3931   .debug_loc:00000000000000a2 .LLST26
     /tmp/ccOauSle.s:857    .text:000000000000046c .LVL64
     /tmp/ccOauSle.s:864    .text:000000000000048c .LVL65
     /tmp/ccOauSle.s:881    .text:00000000000004a0 .LVL66
     /tmp/ccOauSle.s:745    .text:00000000000003f0 .LFB42
     /tmp/ccOauSle.s:805    .text:0000000000000434 .LFE42
     /tmp/ccOauSle.s:3942   .debug_loc:00000000000000d8 .LLST22
     /tmp/ccOauSle.s:770    .text:0000000000000410 .LVL58
     /tmp/ccOauSle.s:782    .text:000000000000041c .LVL59
     /tmp/ccOauSle.s:629    .text:0000000000000350 .LFB41
     /tmp/ccOauSle.s:739    .text:00000000000003f0 .LFE41
     /tmp/ccOauSle.s:3953   .debug_loc:000000000000010e .LLST18
     /tmp/ccOauSle.s:3964   .debug_loc:0000000000000144 .LLST19
     /tmp/ccOauSle.s:3975   .debug_loc:000000000000017a .LLST20
     /tmp/ccOauSle.s:3986   .debug_loc:00000000000001b0 .LLST21
     /tmp/ccOauSle.s:675    .text:0000000000000388 .LVL48
     /tmp/ccOauSle.s:682    .text:00000000000003a8 .LVL49
     /tmp/ccOauSle.s:692    .text:00000000000003bc .LVL50
     /tmp/ccOauSle.s:704    .text:00000000000003c8 .LVL51
GAS LISTING /tmp/ccOauSle.s 			page 34


     /tmp/ccOauSle.s:555    .text:00000000000002ec .LFB40
     /tmp/ccOauSle.s:623    .text:0000000000000350 .LFE40
     /tmp/ccOauSle.s:4431   .debug_str:000000000000086d .LASF188
     /tmp/ccOauSle.s:3997   .debug_loc:00000000000001e6 .LLST15
     /tmp/ccOauSle.s:586    .text:0000000000000320 .LBB22
     /tmp/ccOauSle.s:593    .text:0000000000000324 .LBE22
     /tmp/ccOauSle.s:4004   .debug_loc:0000000000000209 .LLST16
     /tmp/ccOauSle.s:4011   .debug_loc:000000000000022c .LLST17
     /tmp/ccOauSle.s:597    .text:000000000000032c .LVL42
     /tmp/ccOauSle.s:601    .text:0000000000000334 .LVL43
     /tmp/ccOauSle.s:612    .text:0000000000000340 .LVL44
     /tmp/ccOauSle.s:521    .text:00000000000002bc .LFB39
     /tmp/ccOauSle.s:549    .text:00000000000002ec .LFE39
     /tmp/ccOauSle.s:538    .text:00000000000002dc .LVL38
     /tmp/ccOauSle.s:457    .text:0000000000000260 .LFB38
     /tmp/ccOauSle.s:515    .text:00000000000002bc .LFE38
     /tmp/ccOauSle.s:481    .text:0000000000000290 .LBB20
     /tmp/ccOauSle.s:489    .text:0000000000000298 .LBE20
     /tmp/ccOauSle.s:4018   .debug_loc:000000000000024f .LLST13
     /tmp/ccOauSle.s:4026   .debug_loc:0000000000000273 .LLST14
     /tmp/ccOauSle.s:472    .text:0000000000000280 .LVL33
     /tmp/ccOauSle.s:493    .text:00000000000002a0 .LVL36
     /tmp/ccOauSle.s:504    .text:00000000000002ac .LVL37
     /tmp/ccOauSle.s:421    .text:000000000000023c .LFB37
     /tmp/ccOauSle.s:446    .text:0000000000000260 .LFE37
     /tmp/ccOauSle.s:4265   .debug_str:0000000000000325 .LASF190
     /tmp/ccOauSle.s:4033   .debug_loc:0000000000000296 .LLST12
     /tmp/ccOauSle.s:351    .text:00000000000001c0 .LFB36
     /tmp/ccOauSle.s:415    .text:000000000000023c .LFE36
     /tmp/ccOauSle.s:4563   .debug_str:0000000000000c6c .LASF189
     /tmp/ccOauSle.s:4047   .debug_loc:00000000000002cf .LLST9
     /tmp/ccOauSle.s:393    .text:0000000000000220 .LBB18
     /tmp/ccOauSle.s:401    .text:0000000000000228 .LBE18
     /tmp/ccOauSle.s:4054   .debug_loc:00000000000002f2 .LLST10
     /tmp/ccOauSle.s:4062   .debug_loc:0000000000000316 .LLST11
     /tmp/ccOauSle.s:368    .text:00000000000001e0 .LVL24
     /tmp/ccOauSle.s:375    .text:00000000000001fc .LVL25
     /tmp/ccOauSle.s:380    .text:0000000000000208 .LVL26
     /tmp/ccOauSle.s:388    .text:0000000000000218 .LVL27
     /tmp/ccOauSle.s:4195   .debug_str:000000000000004c .LASF191
     /tmp/ccOauSle.s:4263   .debug_str:0000000000000319 .LASF194
     /tmp/ccOauSle.s:303    .text:0000000000000194 .LFB34
     /tmp/ccOauSle.s:335    .text:00000000000001c0 .LFE34
     /tmp/ccOauSle.s:4069   .debug_loc:0000000000000339 .LLST8
     /tmp/ccOauSle.s:323    .text:00000000000001b0 .LVL23
     /tmp/ccOauSle.s:271    .text:000000000000016c .LFB32
     /tmp/ccOauSle.s:297    .text:0000000000000194 .LFE32
     /tmp/ccOauSle.s:4083   .debug_loc:0000000000000372 .LLST7
     /tmp/ccOauSle.s:286    .text:0000000000000184 .LVL20
     /tmp/ccOauSle.s:239    .text:0000000000000144 .LFB31
     /tmp/ccOauSle.s:265    .text:000000000000016c .LFE31
     /tmp/ccOauSle.s:4259   .debug_str:00000000000002fe .LASF192
     /tmp/ccOauSle.s:4097   .debug_loc:00000000000003ab .LLST6
     /tmp/ccOauSle.s:254    .text:000000000000015c .LVL18
     /tmp/ccOauSle.s:156    .text:00000000000000d0 .LFB30
     /tmp/ccOauSle.s:233    .text:0000000000000144 .LFE30
     /tmp/ccOauSle.s:4111   .debug_loc:00000000000003e4 .LLST2
GAS LISTING /tmp/ccOauSle.s 			page 35


     /tmp/ccOauSle.s:174    .text:00000000000000ec .LBB13
     /tmp/ccOauSle.s:182    .text:00000000000000f0 .LBE13
     /tmp/ccOauSle.s:4122   .debug_loc:000000000000041a .LLST3
     /tmp/ccOauSle.s:195    .text:0000000000000108 .LBB15
     /tmp/ccOauSle.s:203    .text:0000000000000110 .LBE15
     /tmp/ccOauSle.s:4129   .debug_loc:000000000000043d .LLST4
     /tmp/ccOauSle.s:4137   .debug_loc:0000000000000461 .LLST5
     /tmp/ccOauSle.s:190    .text:0000000000000100 .LVL10
     /tmp/ccOauSle.s:209    .text:0000000000000120 .LVL13
     /tmp/ccOauSle.s:230    .text:0000000000000140 .LVL16
     /tmp/ccOauSle.s:10     .text:0000000000000000 .LFB29
     /tmp/ccOauSle.s:48     .text:0000000000000044 .LFE29
     /tmp/ccOauSle.s:25     .text:0000000000000018 .LVL0
     /tmp/ccOauSle.s:37     .text:0000000000000034 .LVL2
     /tmp/ccOauSle.s:124    .text:00000000000000a8 .LFB28
     /tmp/ccOauSle.s:150    .text:00000000000000d0 .LFE28
     /tmp/ccOauSle.s:4144   .debug_loc:0000000000000484 .LLST1
     /tmp/ccOauSle.s:139    .text:00000000000000c0 .LVL7
     /tmp/ccOauSle.s:100    .text:0000000000000090 .LFB27
     /tmp/ccOauSle.s:118    .text:00000000000000a8 .LFE27
     /tmp/ccOauSle.s:4377   .debug_str:0000000000000692 .LASF193
     /tmp/ccOauSle.s:4411   .debug_str:00000000000007cb .LASF195
     /tmp/ccOauSle.s:54     .text:0000000000000044 .LFB25
     /tmp/ccOauSle.s:92     .text:0000000000000090 .LFE25
     /tmp/ccOauSle.s:4158   .debug_loc:00000000000004bd .LLST0
     /tmp/ccOauSle.s:4505   .debug_str:0000000000000abd .LASF196
     /tmp/ccOauSle.s:4579   .debug_str:0000000000000cdc .LASF198
     /tmp/ccOauSle.s:4603   .debug_str:0000000000000d9c .LASF197
     /tmp/ccOauSle.s:4299   .debug_str:000000000000041d .LASF199
     /tmp/ccOauSle.s:4463   .debug_str:000000000000096b .LASF200
     /tmp/ccOauSle.s:4295   .debug_str:0000000000000405 .LASF201
     /tmp/ccOauSle.s:4339   .debug_str:000000000000054c .LASF202
     /tmp/ccOauSle.s:845    .text:000000000000045c .LVL62
     /tmp/ccOauSle.s:897    .text:00000000000004b4 .LVL69
     /tmp/ccOauSle.s:904    .text:00000000000004c0 .LVL71
     /tmp/ccOauSle.s:851    .text:0000000000000460 .LVL63
     /tmp/ccOauSle.s:900    .text:00000000000004b8 .LVL70
     /tmp/ccOauSle.s:839    .text:0000000000000458 .LVL61
     /tmp/ccOauSle.s:894    .text:00000000000004b0 .LVL68
     /tmp/ccOauSle.s:891    .text:00000000000004ac .LVL67
     /tmp/ccOauSle.s:763    .text:0000000000000404 .LVL57
     /tmp/ccOauSle.s:793    .text:000000000000042c .LVL60
     /tmp/ccOauSle.s:663    .text:0000000000000378 .LVL46
     /tmp/ccOauSle.s:720    .text:00000000000003dc .LVL54
     /tmp/ccOauSle.s:727    .text:00000000000003e8 .LVL56
     /tmp/ccOauSle.s:669    .text:000000000000037c .LVL47
     /tmp/ccOauSle.s:723    .text:00000000000003e0 .LVL55
     /tmp/ccOauSle.s:657    .text:0000000000000374 .LVL45
     /tmp/ccOauSle.s:717    .text:00000000000003d8 .LVL53
     /tmp/ccOauSle.s:714    .text:00000000000003d4 .LVL52
     /tmp/ccOauSle.s:573    .text:0000000000000300 .LVL39
     /tmp/ccOauSle.s:585    .text:0000000000000320 .LVL40
     /tmp/ccOauSle.s:591    .text:0000000000000324 .LVL41
     /tmp/ccOauSle.s:480    .text:0000000000000290 .LVL34
     /tmp/ccOauSle.s:487    .text:0000000000000298 .LVL35
     /tmp/ccOauSle.s:424    .text:000000000000023c .LVL31
     /tmp/ccOauSle.s:434    .text:000000000000024c .LVL32
GAS LISTING /tmp/ccOauSle.s 			page 36


     /tmp/ccOauSle.s:410    .text:0000000000000234 .LVL30
     /tmp/ccOauSle.s:392    .text:0000000000000220 .LVL28
     /tmp/ccOauSle.s:399    .text:0000000000000228 .LVL29
     /tmp/ccOauSle.s:308    .text:0000000000000194 .LVL21
     /tmp/ccOauSle.s:321    .text:00000000000001a8 .LVL22
     /tmp/ccOauSle.s:274    .text:000000000000016c .LVL19
     /tmp/ccOauSle.s:242    .text:0000000000000144 .LVL17
     /tmp/ccOauSle.s:172    .text:00000000000000ec .LVL8
     /tmp/ccOauSle.s:219    .text:000000000000012c .LVL14
     /tmp/ccOauSle.s:223    .text:0000000000000134 .LVL15
     /tmp/ccOauSle.s:180    .text:00000000000000f0 .LVL9
     /tmp/ccOauSle.s:194    .text:0000000000000108 .LVL11
     /tmp/ccOauSle.s:201    .text:0000000000000110 .LVL12
     /tmp/ccOauSle.s:127    .text:00000000000000a8 .LVL6
     /tmp/ccOauSle.s:57     .text:0000000000000044 .LVL3
     /tmp/ccOauSle.s:75     .text:0000000000000070 .LVL4
     /tmp/ccOauSle.s:946    .debug_info:0000000000000000 .Ldebug_info0
     /tmp/ccOauSle.s:338    .gcc_except_table:0000000000000000 .LLSDA34

UNDEFINED SYMBOLS
_ZN5Riscv10popSppSpieEv
thread_exit
_ZN9Scheduler3putEP3PCB
_ZN9Scheduler3getEv
_ZN3PCB13contextSwitchEPNS_7ContextES1_
_Z7kmallocm
_Z5kfreePv
__gxx_personality_v0
_Z11printStringPKc
_ZN5Riscv13w_a0_sscratchEv
_ZN5Riscv9totalTimeE
_ZN12SleepPCBList17insertSleepingPCBEv
