GAS LISTING /tmp/cc4yjyBZ.s 			page 1


   1              		.file	"PCB.cpp"
   2              		.option pic
   3              		.option norelax
   4              		.text
   5              	.Ltext0:
   6              		.section	.rodata.str1.8,"aMS",@progbits,1
   7              		.align	3
   8              	.LC0:
   9 0000 52756E6E 		.string	"Runner started...\n"
   9      65722073 
   9      74617274 
   9      65642E2E 
   9      2E0A00
  10              		.text
  11              		.align	2
  12              		.globl	_ZN3PCB6runnerEv
  14              	_ZN3PCB6runnerEv:
  15              	.LFB29:
  16              		.file 1 "src/PCB.cpp"
   1:src/PCB.cpp   **** //
   2:src/PCB.cpp   **** // Created by os on 4/27/22.
   3:src/PCB.cpp   **** //
   4:src/PCB.cpp   **** 
   5:src/PCB.cpp   **** #include "../h/PCB.hpp"
   6:src/PCB.cpp   **** #include "../h/syscall_c.h"
   7:src/PCB.cpp   **** #include "../h/SleepPCBList.hpp"
   8:src/PCB.cpp   **** #include "../test/printing.hpp"
   9:src/PCB.cpp   **** #include "../h/KConsole.hpp"
  10:src/PCB.cpp   **** 
  11:src/PCB.cpp   **** PCB* PCB::running = 0;
  12:src/PCB.cpp   **** uint64 PCB::timeSliceCounter = 0;
  13:src/PCB.cpp   **** uint64 PCB::savedRegA4 = 0;
  14:src/PCB.cpp   **** PCB* PCB::consolePCB = 0;
  15:src/PCB.cpp   **** 
  16:src/PCB.cpp   **** PCB::PCB(Body body, void *args, void* stack_space, uint64 timeSlice) :
  17:src/PCB.cpp   ****     timeSlice(timeSlice),
  18:src/PCB.cpp   ****     body(body),
  19:src/PCB.cpp   ****     args(args),
  20:src/PCB.cpp   ****     beginSP(stack_space),
  21:src/PCB.cpp   ****     context({
  22:src/PCB.cpp   ****         (uint64)((char*)stack_space + DEFAULT_STACK_SIZE),
  23:src/PCB.cpp   ****         (uint64)&PCB::runner
  24:src/PCB.cpp   ****     })
  25:src/PCB.cpp   **** {
  26:src/PCB.cpp   ****     //Scheduler::put(this);
  27:src/PCB.cpp   ****     nextPCB = 0;
  28:src/PCB.cpp   **** }
  29:src/PCB.cpp   **** 
  30:src/PCB.cpp   **** void PCB::sleep(time_t time)
  31:src/PCB.cpp   **** {
  32:src/PCB.cpp   ****     //todo
  33:src/PCB.cpp   **** }
  34:src/PCB.cpp   **** 
  35:src/PCB.cpp   **** void PCB::start()
  36:src/PCB.cpp   **** {
  37:src/PCB.cpp   ****     Scheduler::put(this);
  38:src/PCB.cpp   **** }
GAS LISTING /tmp/cc4yjyBZ.s 			page 2


  39:src/PCB.cpp   **** 
  40:src/PCB.cpp   **** void PCB::runner()
  41:src/PCB.cpp   **** {
  17              		.loc 1 41 1
  18              		.cfi_startproc
  19 0000 130101FF 		addi	sp,sp,-16
  20              		.cfi_def_cfa_offset 16
  21 0004 23341100 		sd	ra,8(sp)
  22 0008 23308100 		sd	s0,0(sp)
  23              		.cfi_offset 1, -8
  24              		.cfi_offset 8, -16
  25 000c 13040101 		addi	s0,sp,16
  26              		.cfi_def_cfa 8, 0
  42:src/PCB.cpp   ****     trapPrintString("Runner started...\n");
  27              		.loc 1 42 5
  28              		.loc 1 42 20 is_stmt 0
  29 0010 17050000 		lla	a0,.LC0
  29      13050500 
  30 0018 97000000 		call	_Z15trapPrintStringPKc@plt
  30      E7800000 
  31              	.LVL0:
  43:src/PCB.cpp   ****     Riscv::popSppSpie();
  32              		.loc 1 43 5 is_stmt 1
  33              		.loc 1 43 22 is_stmt 0
  34 0020 97000000 		call	_ZN5Riscv10popSppSpieEv@plt
  34      E7800000 
  35              	.LVL1:
  44:src/PCB.cpp   **** 
  45:src/PCB.cpp   ****     running->body(running->args);
  36              		.loc 1 45 5 is_stmt 1
  37              		.loc 1 45 14 is_stmt 0
  38 0028 97070000 		ld	a5,.LANCHOR0
  38      83B70700 
  39 0030 03B78702 		ld	a4,40(a5)
  40              		.loc 1 45 18
  41 0034 03B50703 		ld	a0,48(a5)
  42 0038 E7000700 		jalr	a4
  43              	.LVL2:
  46:src/PCB.cpp   **** 
  47:src/PCB.cpp   ****     //printString("Runner ended...\n");
  48:src/PCB.cpp   **** 
  49:src/PCB.cpp   ****     thread_exit();
  44              		.loc 1 49 5 is_stmt 1
  45              		.loc 1 49 16 is_stmt 0
  46 003c 97000000 		call	thread_exit@plt
  46      E7800000 
  47              	.LVL3:
  50:src/PCB.cpp   **** }
  48              		.loc 1 50 1
  49 0044 83308100 		ld	ra,8(sp)
  50              		.cfi_restore 1
  51 0048 03340100 		ld	s0,0(sp)
  52              		.cfi_restore 8
  53              		.cfi_def_cfa 2, 16
  54 004c 13010101 		addi	sp,sp,16
  55              		.cfi_def_cfa_offset 0
  56 0050 67800000 		jr	ra
GAS LISTING /tmp/cc4yjyBZ.s 			page 3


  57              		.cfi_endproc
  58              	.LFE29:
  60              		.align	2
  61              		.globl	_ZN3PCBC2EPFvPvES0_S0_m
  63              	_ZN3PCBC2EPFvPvES0_S0_m:
  64              	.LFB25:
  16:src/PCB.cpp   ****     timeSlice(timeSlice),
  65              		.loc 1 16 1 is_stmt 1
  66              		.cfi_startproc
  67              	.LVL4:
  68 0054 130101FF 		addi	sp,sp,-16
  69              		.cfi_def_cfa_offset 16
  70 0058 23348100 		sd	s0,8(sp)
  71              		.cfi_offset 8, -8
  72 005c 13040101 		addi	s0,sp,16
  73              		.cfi_def_cfa 8, 0
  74              	.LBB12:
  24:src/PCB.cpp   **** {
  75              		.loc 1 24 6 is_stmt 0
  76 0060 23000500 		sb	zero,0(a0)
  77 0064 233CE500 		sd	a4,24(a0)
  78 0068 23300502 		sd	zero,32(a0)
  79 006c 2334B502 		sd	a1,40(a0)
  80 0070 2338C502 		sd	a2,48(a0)
  81 0074 233CD502 		sd	a3,56(a0)
  22:src/PCB.cpp   ****         (uint64)&PCB::runner
  82              		.loc 1 22 37
  83 0078 B7170000 		li	a5,4096
  84 007c B386F600 		add	a3,a3,a5
  85              	.LVL5:
  24:src/PCB.cpp   **** {
  86              		.loc 1 24 6
  87 0080 2334D504 		sd	a3,72(a0)
  88 0084 97070000 		lla	a5,_ZN3PCB6runnerEv
  88      93870700 
  89 008c 2338F504 		sd	a5,80(a0)
  27:src/PCB.cpp   **** }
  90              		.loc 1 27 5 is_stmt 1
  27:src/PCB.cpp   **** }
  91              		.loc 1 27 13 is_stmt 0
  92 0090 23340500 		sd	zero,8(a0)
  93              	.LBE12:
  28:src/PCB.cpp   **** 
  94              		.loc 1 28 1
  95 0094 03348100 		ld	s0,8(sp)
  96              		.cfi_restore 8
  97              		.cfi_def_cfa 2, 16
  98 0098 13010101 		addi	sp,sp,16
  99              		.cfi_def_cfa_offset 0
 100 009c 67800000 		jr	ra
 101              		.cfi_endproc
 102              	.LFE25:
 104              		.globl	_ZN3PCBC1EPFvPvES0_S0_m
 105              		.set	_ZN3PCBC1EPFvPvES0_S0_m,_ZN3PCBC2EPFvPvES0_S0_m
 106              		.align	2
 107              		.globl	_ZN3PCB5sleepEm
 109              	_ZN3PCB5sleepEm:
GAS LISTING /tmp/cc4yjyBZ.s 			page 4


 110              	.LFB27:
  31:src/PCB.cpp   ****     //todo
 111              		.loc 1 31 1 is_stmt 1
 112              		.cfi_startproc
 113              	.LVL6:
 114 00a0 130101FF 		addi	sp,sp,-16
 115              		.cfi_def_cfa_offset 16
 116 00a4 23348100 		sd	s0,8(sp)
 117              		.cfi_offset 8, -8
 118 00a8 13040101 		addi	s0,sp,16
 119              		.cfi_def_cfa 8, 0
  33:src/PCB.cpp   **** 
 120              		.loc 1 33 1 is_stmt 0
 121 00ac 03348100 		ld	s0,8(sp)
 122              		.cfi_restore 8
 123              		.cfi_def_cfa 2, 16
 124 00b0 13010101 		addi	sp,sp,16
 125              		.cfi_def_cfa_offset 0
 126 00b4 67800000 		jr	ra
 127              		.cfi_endproc
 128              	.LFE27:
 130              		.align	2
 131              		.globl	_ZN3PCB5startEv
 133              	_ZN3PCB5startEv:
 134              	.LFB28:
  36:src/PCB.cpp   ****     Scheduler::put(this);
 135              		.loc 1 36 1 is_stmt 1
 136              		.cfi_startproc
 137              	.LVL7:
 138 00b8 130101FF 		addi	sp,sp,-16
 139              		.cfi_def_cfa_offset 16
 140 00bc 23341100 		sd	ra,8(sp)
 141 00c0 23308100 		sd	s0,0(sp)
 142              		.cfi_offset 1, -8
 143              		.cfi_offset 8, -16
 144 00c4 13040101 		addi	s0,sp,16
 145              		.cfi_def_cfa 8, 0
  37:src/PCB.cpp   **** }
 146              		.loc 1 37 5
  37:src/PCB.cpp   **** }
 147              		.loc 1 37 19 is_stmt 0
 148 00c8 97000000 		call	_ZN9Scheduler3putEP3PCB@plt
 148      E7800000 
 149              	.LVL8:
  38:src/PCB.cpp   **** 
 150              		.loc 1 38 1
 151 00d0 83308100 		ld	ra,8(sp)
 152              		.cfi_restore 1
 153 00d4 03340100 		ld	s0,0(sp)
 154              		.cfi_restore 8
 155              		.cfi_def_cfa 2, 16
 156 00d8 13010101 		addi	sp,sp,16
 157              		.cfi_def_cfa_offset 0
 158 00dc 67800000 		jr	ra
 159              		.cfi_endproc
 160              	.LFE28:
 162              		.align	2
GAS LISTING /tmp/cc4yjyBZ.s 			page 5


 163              		.globl	_ZN3PCB8dispatchEv
 165              	_ZN3PCB8dispatchEv:
 166              	.LFB30:
  51:src/PCB.cpp   **** 
  52:src/PCB.cpp   **** void PCB::dispatch()
  53:src/PCB.cpp   **** {
 167              		.loc 1 53 1 is_stmt 1
 168              		.cfi_startproc
 169 00e0 130101FE 		addi	sp,sp,-32
 170              		.cfi_def_cfa_offset 32
 171 00e4 233C1100 		sd	ra,24(sp)
 172 00e8 23388100 		sd	s0,16(sp)
 173 00ec 23349100 		sd	s1,8(sp)
 174 00f0 23302101 		sd	s2,0(sp)
 175              		.cfi_offset 1, -8
 176              		.cfi_offset 8, -16
 177              		.cfi_offset 9, -24
 178              		.cfi_offset 18, -32
 179 00f4 13040102 		addi	s0,sp,32
 180              		.cfi_def_cfa 8, 0
  54:src/PCB.cpp   ****     //trapPrintString("Dispatch called...\n");
  55:src/PCB.cpp   ****     PCB* old = running;
 181              		.loc 1 55 5
 182              		.loc 1 55 10 is_stmt 0
 183 00f8 97040000 		ld	s1,.LANCHOR0
 183      83B40400 
 184              	.LVL9:
  56:src/PCB.cpp   ****     if(old->getState() == PCB::RUNNING)
 185              		.loc 1 56 5 is_stmt 1
 186              	.LBB13:
 187              	.LBB14:
 188              		.file 2 "src/../h/PCB.hpp"
   1:src/../h/PCB.hpp **** //
   2:src/../h/PCB.hpp **** // Created by os on 4/27/22.
   3:src/../h/PCB.hpp **** //
   4:src/../h/PCB.hpp **** 
   5:src/../h/PCB.hpp **** #ifndef PROJECT_BASE_V1_0_PCB_HPP
   6:src/../h/PCB.hpp **** #define PROJECT_BASE_V1_0_PCB_HPP
   7:src/../h/PCB.hpp **** 
   8:src/../h/PCB.hpp **** #include "../lib/hw.h"
   9:src/../h/PCB.hpp **** #include "Scheduler.hpp"
  10:src/../h/PCB.hpp **** #include "Riscv.hpp"
  11:src/../h/PCB.hpp **** 
  12:src/../h/PCB.hpp **** class PCB
  13:src/../h/PCB.hpp **** {
  14:src/../h/PCB.hpp **** public:
  15:src/../h/PCB.hpp ****     static uint64 savedRegA4;
  16:src/../h/PCB.hpp **** 
  17:src/../h/PCB.hpp ****     using Body = void (*)(void*);
  18:src/../h/PCB.hpp **** 
  19:src/../h/PCB.hpp ****     PCB(Body body,  void* args, void* stack_space, uint64 timeSlice);
  20:src/../h/PCB.hpp ****     ~PCB();
  21:src/../h/PCB.hpp **** 
  22:src/../h/PCB.hpp ****     void start();
  23:src/../h/PCB.hpp ****     static void dispatch();
  24:src/../h/PCB.hpp ****     static void sleep(time_t);
  25:src/../h/PCB.hpp **** 
GAS LISTING /tmp/cc4yjyBZ.s 			page 6


  26:src/../h/PCB.hpp ****     static PCB* running;
  27:src/../h/PCB.hpp **** 
  28:src/../h/PCB.hpp ****     static uint64 timeSliceCounter;
  29:src/../h/PCB.hpp ****     uint64 getTimeSlice() { return timeSlice;}
  30:src/../h/PCB.hpp **** 
  31:src/../h/PCB.hpp ****     void* operator new(size_t size);
  32:src/../h/PCB.hpp ****     void operator delete(void *p);
  33:src/../h/PCB.hpp **** 
  34:src/../h/PCB.hpp ****     enum State{READY, RUNNING, SUSPENDED, FINISHED, EXITING, SLEEPING};
  35:src/../h/PCB.hpp ****     State getState() {return state;}
 189              		.loc 2 35 23
 190              		.loc 2 35 30 is_stmt 0
 191 0100 03A70404 		lw	a4,64(s1)
 192              	.LVL10:
 193              	.LBE14:
 194              	.LBE13:
 195              		.loc 1 56 5
 196 0104 93071000 		li	a5,1
 197 0108 630AF704 		beq	a4,a5,.L12
 198              	.L10:
  57:src/PCB.cpp   ****         Scheduler::put(old);
  58:src/PCB.cpp   ****     PCB::running = Scheduler::get();
 199              		.loc 1 58 5 is_stmt 1
 200              		.loc 1 58 34 is_stmt 0
 201 010c 97000000 		call	_ZN9Scheduler3getEv@plt
 201      E7800000 
 202              	.LVL11:
 203              		.loc 1 58 18
 204 0114 17090000 		lla	s2,.LANCHOR0
 204      13090900 
 205 011c 2330A900 		sd	a0,0(s2)
  59:src/PCB.cpp   ****     PCB::running->setState(PCB::RUNNING);
 206              		.loc 1 59 5 is_stmt 1
 207              	.LVL12:
 208              	.LBB15:
 209              	.LBB16:
  36:src/../h/PCB.hpp ****     void setState(State s) {state = s;}
 210              		.loc 2 36 29
 211              		.loc 2 36 35 is_stmt 0
 212 0120 93071000 		li	a5,1
 213 0124 2320F504 		sw	a5,64(a0)
 214              	.LVL13:
 215              	.LBE16:
 216              	.LBE15:
  60:src/PCB.cpp   ****     //trapPrintString("Switching context...\n");
  61:src/PCB.cpp   **** 
  62:src/PCB.cpp   ****     Riscv::changePrivMode();
 217              		.loc 1 62 5 is_stmt 1
 218              		.loc 1 62 26 is_stmt 0
 219 0128 97000000 		call	_ZN5Riscv14changePrivModeEv@plt
 219      E7800000 
 220              	.LVL14:
  63:src/PCB.cpp   **** 
  64:src/PCB.cpp   ****     PCB::contextSwitch(&old->context, &running->context);
 221              		.loc 1 64 5 is_stmt 1
 222              		.loc 1 64 49 is_stmt 0
 223 0130 83350900 		ld	a1,0(s2)
GAS LISTING /tmp/cc4yjyBZ.s 			page 7


 224              		.loc 1 64 23
 225 0134 93858504 		addi	a1,a1,72
 226 0138 13858404 		addi	a0,s1,72
 227 013c 97000000 		call	_ZN3PCB13contextSwitchEPNS_7ContextES1_@plt
 227      E7800000 
 228              	.LVL15:
  65:src/PCB.cpp   **** }
 229              		.loc 1 65 1
 230 0144 83308101 		ld	ra,24(sp)
 231              		.cfi_remember_state
 232              		.cfi_restore 1
 233 0148 03340101 		ld	s0,16(sp)
 234              		.cfi_restore 8
 235              		.cfi_def_cfa 2, 32
 236 014c 83348100 		ld	s1,8(sp)
 237              		.cfi_restore 9
 238              	.LVL16:
 239 0150 03390100 		ld	s2,0(sp)
 240              		.cfi_restore 18
 241 0154 13010102 		addi	sp,sp,32
 242              		.cfi_def_cfa_offset 0
 243 0158 67800000 		jr	ra
 244              	.LVL17:
 245              	.L12:
 246              		.cfi_restore_state
  57:src/PCB.cpp   ****     PCB::running = Scheduler::get();
 247              		.loc 1 57 9 is_stmt 1
  57:src/PCB.cpp   ****     PCB::running = Scheduler::get();
 248              		.loc 1 57 23 is_stmt 0
 249 015c 13850400 		mv	a0,s1
 250 0160 97000000 		call	_ZN9Scheduler3putEP3PCB@plt
 250      E7800000 
 251              	.LVL18:
 252 0168 6FF05FFA 		j	.L10
 253              		.cfi_endproc
 254              	.LFE30:
 256              		.align	2
 257              		.globl	_ZN3PCBnwEm
 259              	_ZN3PCBnwEm:
 260              	.LFB31:
  66:src/PCB.cpp   **** 
  67:src/PCB.cpp   **** void *PCB::operator new(size_t size) {
 261              		.loc 1 67 38 is_stmt 1
 262              		.cfi_startproc
 263              	.LVL19:
 264 016c 130101FF 		addi	sp,sp,-16
 265              		.cfi_def_cfa_offset 16
 266 0170 23341100 		sd	ra,8(sp)
 267 0174 23308100 		sd	s0,0(sp)
 268              		.cfi_offset 1, -8
 269              		.cfi_offset 8, -16
 270 0178 13040101 		addi	s0,sp,16
 271              		.cfi_def_cfa 8, 0
  68:src/PCB.cpp   ****     return kmalloc(size);
 272              		.loc 1 68 5
 273              		.loc 1 68 19 is_stmt 0
 274 017c 97000000 		call	_Z7kmallocm@plt
GAS LISTING /tmp/cc4yjyBZ.s 			page 8


 274      E7800000 
 275              	.LVL20:
  69:src/PCB.cpp   **** }
 276              		.loc 1 69 1
 277 0184 83308100 		ld	ra,8(sp)
 278              		.cfi_restore 1
 279 0188 03340100 		ld	s0,0(sp)
 280              		.cfi_restore 8
 281              		.cfi_def_cfa 2, 16
 282 018c 13010101 		addi	sp,sp,16
 283              		.cfi_def_cfa_offset 0
 284 0190 67800000 		jr	ra
 285              		.cfi_endproc
 286              	.LFE31:
 288              		.align	2
 289              		.globl	_ZN3PCBdlEPv
 291              	_ZN3PCBdlEPv:
 292              	.LFB32:
  70:src/PCB.cpp   **** 
  71:src/PCB.cpp   **** void PCB::operator delete(void *p) {
 293              		.loc 1 71 36 is_stmt 1
 294              		.cfi_startproc
 295              	.LVL21:
 296 0194 130101FF 		addi	sp,sp,-16
 297              		.cfi_def_cfa_offset 16
 298 0198 23341100 		sd	ra,8(sp)
 299 019c 23308100 		sd	s0,0(sp)
 300              		.cfi_offset 1, -8
 301              		.cfi_offset 8, -16
 302 01a0 13040101 		addi	s0,sp,16
 303              		.cfi_def_cfa 8, 0
  72:src/PCB.cpp   ****     kfree(p);
 304              		.loc 1 72 5
 305              		.loc 1 72 10 is_stmt 0
 306 01a4 97000000 		call	_Z5kfreePv@plt
 306      E7800000 
 307              	.LVL22:
  73:src/PCB.cpp   **** }
 308              		.loc 1 73 1
 309 01ac 83308100 		ld	ra,8(sp)
 310              		.cfi_restore 1
 311 01b0 03340100 		ld	s0,0(sp)
 312              		.cfi_restore 8
 313              		.cfi_def_cfa 2, 16
 314 01b4 13010101 		addi	sp,sp,16
 315              		.cfi_def_cfa_offset 0
 316 01b8 67800000 		jr	ra
 317              		.cfi_endproc
 318              	.LFE32:
 320              		.align	2
 321              		.globl	_ZN3PCBD2Ev
 323              	_ZN3PCBD2Ev:
 324              	.LFB34:
  74:src/PCB.cpp   **** 
  75:src/PCB.cpp   **** PCB::~PCB()
 325              		.loc 1 75 1 is_stmt 1
 326              		.cfi_startproc
GAS LISTING /tmp/cc4yjyBZ.s 			page 9


 327              		.cfi_personality 0x9b,DW.ref.__gxx_personality_v0
 328              		.cfi_lsda 0x1b,.LLSDA34
 329              	.LVL23:
 330 01bc 130101FF 		addi	sp,sp,-16
 331              		.cfi_def_cfa_offset 16
 332 01c0 23341100 		sd	ra,8(sp)
 333 01c4 23308100 		sd	s0,0(sp)
 334              		.cfi_offset 1, -8
 335              		.cfi_offset 8, -16
 336 01c8 13040101 		addi	s0,sp,16
 337              		.cfi_def_cfa 8, 0
 338              	.LBB17:
  76:src/PCB.cpp   **** {
  77:src/PCB.cpp   ****     kfree(beginSP);
 339              		.loc 1 77 5
 340              		.loc 1 77 10 is_stmt 0
 341 01cc 03358503 		ld	a0,56(a0)
 342              	.LVL24:
 343 01d0 97000000 		call	_Z5kfreePv@plt
 343      E7800000 
 344              	.LVL25:
 345              	.LBE17:
  78:src/PCB.cpp   **** }
 346              		.loc 1 78 1
 347 01d8 83308100 		ld	ra,8(sp)
 348              		.cfi_restore 1
 349 01dc 03340100 		ld	s0,0(sp)
 350              		.cfi_restore 8
 351              		.cfi_def_cfa 2, 16
 352 01e0 13010101 		addi	sp,sp,16
 353              		.cfi_def_cfa_offset 0
 354 01e4 67800000 		jr	ra
 355              		.cfi_endproc
 356              	.LFE34:
 357              		.globl	__gxx_personality_v0
 358              		.section	.gcc_except_table,"a",@progbits
 359              	.LLSDA34:
 360 0000 FF       		.byte	0xff
 361 0001 FF       		.byte	0xff
 362 0002 03       		.byte	0x3
 363 0003 00       		.byte	0
 364              		.text
 366              		.globl	_ZN3PCBD1Ev
 367              		.set	_ZN3PCBD1Ev,_ZN3PCBD2Ev
 368              		.align	2
 369              		.globl	_ZN3PCB10initializeEv
 371              	_ZN3PCB10initializeEv:
 372              	.LFB36:
  79:src/PCB.cpp   **** 
  80:src/PCB.cpp   **** void PCB::initialize()
  81:src/PCB.cpp   **** {
 373              		.loc 1 81 1 is_stmt 1
 374              		.cfi_startproc
 375 01e8 130101FD 		addi	sp,sp,-48
 376              		.cfi_def_cfa_offset 48
 377 01ec 23341102 		sd	ra,40(sp)
 378 01f0 23308102 		sd	s0,32(sp)
GAS LISTING /tmp/cc4yjyBZ.s 			page 10


 379 01f4 233C9100 		sd	s1,24(sp)
 380 01f8 23382101 		sd	s2,16(sp)
 381 01fc 23343101 		sd	s3,8(sp)
 382 0200 23304101 		sd	s4,0(sp)
 383              		.cfi_offset 1, -8
 384              		.cfi_offset 8, -16
 385              		.cfi_offset 9, -24
 386              		.cfi_offset 18, -32
 387              		.cfi_offset 19, -40
 388              		.cfi_offset 20, -48
 389 0204 13040103 		addi	s0,sp,48
 390              		.cfi_def_cfa 8, 0
  82:src/PCB.cpp   ****     PCB* mainSystem = new PCB(0, 0, 0, 0);
 391              		.loc 1 82 5
 392              		.loc 1 82 41 is_stmt 0
 393 0208 13058005 		li	a0,88
 394 020c 97000000 		call	_ZN3PCBnwEm
 394      E7800000 
 395              	.LVL26:
 396 0214 93040500 		mv	s1,a0
 397 0218 13070000 		li	a4,0
 398 021c 93060000 		li	a3,0
 399 0220 13060000 		li	a2,0
 400 0224 93050000 		li	a1,0
 401 0228 97000000 		call	_ZN3PCBC1EPFvPvES0_S0_m
 401      E7800000 
 402              	.LVL27:
  83:src/PCB.cpp   ****     mainSystem->start();
 403              		.loc 1 83 5 is_stmt 1
 404              		.loc 1 83 22 is_stmt 0
 405 0230 13850400 		mv	a0,s1
 406 0234 97000000 		call	_ZN3PCB5startEv
 406      E7800000 
 407              	.LVL28:
  84:src/PCB.cpp   ****     mainSystem->systemThread = true;
 408              		.loc 1 84 5 is_stmt 1
 409              		.loc 1 84 30 is_stmt 0
 410 023c 93071000 		li	a5,1
 411 0240 2380F400 		sb	a5,0(s1)
  85:src/PCB.cpp   ****     PCB::running = Scheduler::get();
 412              		.loc 1 85 5 is_stmt 1
 413              		.loc 1 85 34 is_stmt 0
 414 0244 97000000 		call	_ZN9Scheduler3getEv@plt
 414      E7800000 
 415              	.LVL29:
 416              		.loc 1 85 18
 417 024c 17090000 		lla	s2,.LANCHOR0
 417      13090900 
 418 0254 2330A900 		sd	a0,0(s2)
  86:src/PCB.cpp   ****     PCB::running->setState(PCB::RUNNING);
 419              		.loc 1 86 5 is_stmt 1
 420              	.LVL30:
 421              	.LBB18:
 422              	.LBB19:
 423              		.loc 2 36 29
 424              		.loc 2 36 35 is_stmt 0
 425 0258 130A1000 		li	s4,1
GAS LISTING /tmp/cc4yjyBZ.s 			page 11


 426 025c 23204505 		sw	s4,64(a0)
 427              	.LVL31:
 428              	.LBE19:
 429              	.LBE18:
  87:src/PCB.cpp   ****     PCB::consolePCB = new PCB(&KConsole::sendCharactersToConsole, 0, kmalloc(DEFAULT_STACK_SIZE), D
 430              		.loc 1 87 5 is_stmt 1
 431              		.loc 1 87 77 is_stmt 0
 432 0260 37150000 		li	a0,4096
 433 0264 97000000 		call	_Z7kmallocm@plt
 433      E7800000 
 434              	.LVL32:
 435 026c 93090500 		mv	s3,a0
 436              		.loc 1 87 117
 437 0270 13058005 		li	a0,88
 438 0274 97000000 		call	_ZN3PCBnwEm
 438      E7800000 
 439              	.LVL33:
 440 027c 93040500 		mv	s1,a0
 441              	.LVL34:
 442 0280 13072000 		li	a4,2
 443 0284 93860900 		mv	a3,s3
 444 0288 13060000 		li	a2,0
 445 028c 97050000 		la	a1,_ZN8KConsole23sendCharactersToConsoleEPv
 445      83B50500 
 446 0294 97000000 		call	_ZN3PCBC1EPFvPvES0_S0_m
 446      E7800000 
 447              	.LVL35:
 448              		.loc 1 87 21
 449 029c 23349900 		sd	s1,8(s2)
  88:src/PCB.cpp   ****     PCB::consolePCB->systemThread = true;
 450              		.loc 1 88 5 is_stmt 1
 451              		.loc 1 88 35 is_stmt 0
 452 02a0 23804401 		sb	s4,0(s1)
  89:src/PCB.cpp   ****     PCB::consolePCB->start();
 453              		.loc 1 89 5 is_stmt 1
 454              		.loc 1 89 27 is_stmt 0
 455 02a4 03358900 		ld	a0,8(s2)
 456 02a8 97000000 		call	_ZN3PCB5startEv
 456      E7800000 
 457              	.LVL36:
  90:src/PCB.cpp   **** }
 458              		.loc 1 90 1
 459 02b0 83308102 		ld	ra,40(sp)
 460              		.cfi_restore 1
 461 02b4 03340102 		ld	s0,32(sp)
 462              		.cfi_restore 8
 463              		.cfi_def_cfa 2, 48
 464 02b8 83348101 		ld	s1,24(sp)
 465              		.cfi_restore 9
 466 02bc 03390101 		ld	s2,16(sp)
 467              		.cfi_restore 18
 468 02c0 83398100 		ld	s3,8(sp)
 469              		.cfi_restore 19
 470 02c4 033A0100 		ld	s4,0(sp)
 471              		.cfi_restore 20
 472 02c8 13010103 		addi	sp,sp,48
 473              		.cfi_def_cfa_offset 0
GAS LISTING /tmp/cc4yjyBZ.s 			page 12


 474 02cc 67800000 		jr	ra
 475              		.cfi_endproc
 476              	.LFE36:
 478              		.align	2
 479              		.globl	_ZN3PCB10isFinishedEv
 481              	_ZN3PCB10isFinishedEv:
 482              	.LFB37:
  91:src/PCB.cpp   **** 
  92:src/PCB.cpp   **** bool PCB::isFinished()
  93:src/PCB.cpp   **** {
 483              		.loc 1 93 1 is_stmt 1
 484              		.cfi_startproc
 485              	.LVL37:
 486 02d0 130101FF 		addi	sp,sp,-16
 487              		.cfi_def_cfa_offset 16
 488 02d4 23348100 		sd	s0,8(sp)
 489              		.cfi_offset 8, -8
 490 02d8 13040101 		addi	s0,sp,16
 491              		.cfi_def_cfa 8, 0
  94:src/PCB.cpp   ****     return state == PCB::FINISHED;
 492              		.loc 1 94 5
 493              		.loc 1 94 12 is_stmt 0
 494 02dc 03250504 		lw	a0,64(a0)
 495              	.LVL38:
 496              		.loc 1 94 26
 497 02e0 1305D5FF 		addi	a0,a0,-3
  95:src/PCB.cpp   **** }
 498              		.loc 1 95 1
 499 02e4 13351500 		seqz	a0,a0
 500 02e8 03348100 		ld	s0,8(sp)
 501              		.cfi_restore 8
 502              		.cfi_def_cfa 2, 16
 503 02ec 13010101 		addi	sp,sp,16
 504              		.cfi_def_cfa_offset 0
 505 02f0 67800000 		jr	ra
 506              		.cfi_endproc
 507              	.LFE37:
 509              		.section	.rodata.str1.8
 510 0013 00000000 		.align	3
 510      00
 511              	.LC1:
 512 0018 45786974 		.string	"Exiting thread...\n"
 512      696E6720 
 512      74687265 
 512      61642E2E 
 512      2E0A00
 513              		.text
 514              		.align	2
 515              		.globl	_ZN3PCB17threadExitHandlerEv
 517              	_ZN3PCB17threadExitHandlerEv:
 518              	.LFB38:
  96:src/PCB.cpp   **** 
  97:src/PCB.cpp   **** void PCB::threadExitHandler()
  98:src/PCB.cpp   **** {
 519              		.loc 1 98 1 is_stmt 1
 520              		.cfi_startproc
 521 02f4 130101FF 		addi	sp,sp,-16
GAS LISTING /tmp/cc4yjyBZ.s 			page 13


 522              		.cfi_def_cfa_offset 16
 523 02f8 23341100 		sd	ra,8(sp)
 524 02fc 23308100 		sd	s0,0(sp)
 525              		.cfi_offset 1, -8
 526              		.cfi_offset 8, -16
 527 0300 13040101 		addi	s0,sp,16
 528              		.cfi_def_cfa 8, 0
  99:src/PCB.cpp   ****     trapPrintString("Exiting thread...\n");
 529              		.loc 1 99 5
 530              		.loc 1 99 20 is_stmt 0
 531 0304 17050000 		lla	a0,.LC1
 531      13050500 
 532 030c 97000000 		call	_Z15trapPrintStringPKc@plt
 532      E7800000 
 533              	.LVL39:
 100:src/PCB.cpp   ****     PCB::timeSliceCounter = 0;
 534              		.loc 1 100 5 is_stmt 1
 535              		.loc 1 100 27 is_stmt 0
 536 0314 97070000 		lla	a5,.LANCHOR0
 536      93870700 
 537 031c 23B80700 		sd	zero,16(a5)
 101:src/PCB.cpp   ****     PCB::running->setState(PCB::FINISHED);
 538              		.loc 1 101 5 is_stmt 1
 539              		.loc 1 101 27 is_stmt 0
 540 0320 83B70700 		ld	a5,0(a5)
 541              	.LVL40:
 542              	.LBB20:
 543              	.LBB21:
 544              		.loc 2 36 29 is_stmt 1
 545              		.loc 2 36 35 is_stmt 0
 546 0324 13073000 		li	a4,3
 547 0328 23A0E704 		sw	a4,64(a5)
 548              	.LVL41:
 549              	.LBE21:
 550              	.LBE20:
 102:src/PCB.cpp   ****     PCB::dispatch();
 551              		.loc 1 102 5 is_stmt 1
 552              		.loc 1 102 18 is_stmt 0
 553 032c 97000000 		call	_ZN3PCB8dispatchEv
 553      E7800000 
 554              	.LVL42:
 103:src/PCB.cpp   ****     __asm__ volatile("li a0, 0");
 555              		.loc 1 103 5 is_stmt 1
 556              		.loc 1 103 33 is_stmt 0
 557              	#APP
 558              	# 103 "src/PCB.cpp" 1
 104              	    Riscv::w_a0_sscratch();
 559              		li a0, 0
 560              	# 0 "" 2
 561              		.loc 1 104 5 is_stmt 1
 562              		.loc 1 104 25 is_stmt 0
 563              	#NO_APP
 564 0338 97000000 		call	_ZN5Riscv13w_a0_sscratchEv@plt
 564      E7800000 
 565              	.LVL43:
 105:src/PCB.cpp   **** }
 566              		.loc 1 105 1
GAS LISTING /tmp/cc4yjyBZ.s 			page 14


 567 0340 83308100 		ld	ra,8(sp)
 568              		.cfi_restore 1
 569 0344 03340100 		ld	s0,0(sp)
 570              		.cfi_restore 8
 571              		.cfi_def_cfa 2, 16
 572 0348 13010101 		addi	sp,sp,16
 573              		.cfi_def_cfa_offset 0
 574 034c 67800000 		jr	ra
 575              		.cfi_endproc
 576              	.LFE38:
 578              		.align	2
 579              		.globl	_ZN3PCB21threadDispatchHandlerEv
 581              	_ZN3PCB21threadDispatchHandlerEv:
 582              	.LFB39:
 106:src/PCB.cpp   **** 
 107:src/PCB.cpp   **** void PCB::threadDispatchHandler()
 108:src/PCB.cpp   **** {
 583              		.loc 1 108 1 is_stmt 1
 584              		.cfi_startproc
 585 0350 130101FF 		addi	sp,sp,-16
 586              		.cfi_def_cfa_offset 16
 587 0354 23341100 		sd	ra,8(sp)
 588 0358 23308100 		sd	s0,0(sp)
 589              		.cfi_offset 1, -8
 590              		.cfi_offset 8, -16
 591 035c 13040101 		addi	s0,sp,16
 592              		.cfi_def_cfa 8, 0
 109:src/PCB.cpp   ****     PCB::timeSliceCounter = 0;
 593              		.loc 1 109 5
 594              		.loc 1 109 27 is_stmt 0
 595 0360 97070000 		sd	zero,.LANCHOR0+16,a5
 595      23B00700 
 110:src/PCB.cpp   ****     PCB::dispatch();
 596              		.loc 1 110 5 is_stmt 1
 597              		.loc 1 110 18 is_stmt 0
 598 0368 97000000 		call	_ZN3PCB8dispatchEv
 598      E7800000 
 599              	.LVL44:
 111:src/PCB.cpp   **** }
 600              		.loc 1 111 1
 601 0370 83308100 		ld	ra,8(sp)
 602              		.cfi_restore 1
 603 0374 03340100 		ld	s0,0(sp)
 604              		.cfi_restore 8
 605              		.cfi_def_cfa 2, 16
 606 0378 13010101 		addi	sp,sp,16
 607              		.cfi_def_cfa_offset 0
 608 037c 67800000 		jr	ra
 609              		.cfi_endproc
 610              	.LFE39:
 612              		.align	2
 613              		.globl	_ZN3PCB18threadSleepHandlerEv
 615              	_ZN3PCB18threadSleepHandlerEv:
 616              	.LFB40:
 112:src/PCB.cpp   **** 
 113:src/PCB.cpp   **** void PCB::threadSleepHandler()
 114:src/PCB.cpp   **** {
GAS LISTING /tmp/cc4yjyBZ.s 			page 15


 617              		.loc 1 114 1 is_stmt 1
 618              		.cfi_startproc
 619 0380 130101FF 		addi	sp,sp,-16
 620              		.cfi_def_cfa_offset 16
 621 0384 23341100 		sd	ra,8(sp)
 622 0388 23308100 		sd	s0,0(sp)
 623              		.cfi_offset 1, -8
 624              		.cfi_offset 8, -16
 625 038c 13040101 		addi	s0,sp,16
 626              		.cfi_def_cfa 8, 0
 115:src/PCB.cpp   ****     uint64 time;
 627              		.loc 1 115 5
 116:src/PCB.cpp   ****     __asm__ volatile("mv %0, a1" : "=r"(time));
 628              		.loc 1 116 5
 629              		.loc 1 116 47 is_stmt 0
 630              	#APP
 631              	# 116 "src/PCB.cpp" 1
 117              	    PCB::timeSliceCounter = 0;
 632              		mv a5, a1
 633              	# 0 "" 2
 634              	.LVL45:
 635              		.loc 1 117 5 is_stmt 1
 636              		.loc 1 117 27 is_stmt 0
 637              	#NO_APP
 638 0394 17070000 		lla	a4,.LANCHOR0
 638      13070700 
 639 039c 23380700 		sd	zero,16(a4)
 118:src/PCB.cpp   ****     PCB::running->setTimeToSleep(time + Riscv::totalTime);
 640              		.loc 1 118 5 is_stmt 1
 641              		.loc 1 118 33 is_stmt 0
 642 03a0 03370700 		ld	a4,0(a4)
 643 03a4 97060000 		la	a3,_ZN5Riscv9totalTimeE
 643      83B60600 
 644 03ac 83B60600 		ld	a3,0(a3)
 645 03b0 B387D700 		add	a5,a5,a3
 646              	.LVL46:
 647              	.LBB22:
 648              	.LBB23:
  37:src/../h/PCB.hpp ****     void setTimeToSleep(uint64 time) {timeToSleep = time;}
 649              		.loc 2 37 39 is_stmt 1
 650              		.loc 2 37 51 is_stmt 0
 651 03b4 2330F702 		sd	a5,32(a4)
 652              	.LVL47:
 653              	.LBE23:
 654              	.LBE22:
 119:src/PCB.cpp   ****     SleepPCBList::insertSleepingPCB();
 655              		.loc 1 119 5 is_stmt 1
 656              		.loc 1 119 36 is_stmt 0
 657 03b8 97000000 		call	_ZN12SleepPCBList17insertSleepingPCBEv@plt
 657      E7800000 
 658              	.LVL48:
 120:src/PCB.cpp   ****     PCB::dispatch();
 659              		.loc 1 120 5 is_stmt 1
 660              		.loc 1 120 18 is_stmt 0
 661 03c0 97000000 		call	_ZN3PCB8dispatchEv
 661      E7800000 
 662              	.LVL49:
GAS LISTING /tmp/cc4yjyBZ.s 			page 16


 121:src/PCB.cpp   ****     __asm__ volatile("li a0, 0x0");
 663              		.loc 1 121 5 is_stmt 1
 664              		.loc 1 121 35 is_stmt 0
 665              	#APP
 666              	# 121 "src/PCB.cpp" 1
 122              	    Riscv::w_a0_sscratch();
 667              		li a0, 0x0
 668              	# 0 "" 2
 669              		.loc 1 122 5 is_stmt 1
 670              		.loc 1 122 25 is_stmt 0
 671              	#NO_APP
 672 03cc 97000000 		call	_ZN5Riscv13w_a0_sscratchEv@plt
 672      E7800000 
 673              	.LVL50:
 123:src/PCB.cpp   **** }
 674              		.loc 1 123 1
 675 03d4 83308100 		ld	ra,8(sp)
 676              		.cfi_restore 1
 677 03d8 03340100 		ld	s0,0(sp)
 678              		.cfi_restore 8
 679              		.cfi_def_cfa 2, 16
 680 03dc 13010101 		addi	sp,sp,16
 681              		.cfi_def_cfa_offset 0
 682 03e0 67800000 		jr	ra
 683              		.cfi_endproc
 684              	.LFE40:
 686              		.align	2
 687              		.globl	_ZN3PCB19threadCreateHandlerEv
 689              	_ZN3PCB19threadCreateHandlerEv:
 690              	.LFB41:
 124:src/PCB.cpp   **** 
 125:src/PCB.cpp   **** void PCB::threadCreateHandler()
 126:src/PCB.cpp   **** {
 691              		.loc 1 126 1 is_stmt 1
 692              		.cfi_startproc
 693 03e4 130101FD 		addi	sp,sp,-48
 694              		.cfi_def_cfa_offset 48
 695 03e8 23341102 		sd	ra,40(sp)
 696 03ec 23308102 		sd	s0,32(sp)
 697 03f0 233C9100 		sd	s1,24(sp)
 698 03f4 23382101 		sd	s2,16(sp)
 699 03f8 23343101 		sd	s3,8(sp)
 700 03fc 23304101 		sd	s4,0(sp)
 701              		.cfi_offset 1, -8
 702              		.cfi_offset 8, -16
 703              		.cfi_offset 9, -24
 704              		.cfi_offset 18, -32
 705              		.cfi_offset 19, -40
 706              		.cfi_offset 20, -48
 707 0400 13040103 		addi	s0,sp,48
 708              		.cfi_def_cfa 8, 0
 127:src/PCB.cpp   ****     uint64 start_routine;
 709              		.loc 1 127 5
 128:src/PCB.cpp   ****     uint64 args;
 710              		.loc 1 128 5
 129:src/PCB.cpp   ****     PCB **threadHandle;
 711              		.loc 1 129 5
GAS LISTING /tmp/cc4yjyBZ.s 			page 17


 130:src/PCB.cpp   ****     __asm__ volatile("mv %0, a1" : "=r"(threadHandle));
 712              		.loc 1 130 5
 713              		.loc 1 130 55 is_stmt 0
 714              	#APP
 715              	# 130 "src/PCB.cpp" 1
 131              	    __asm__ volatile("mv %0, a2" : "=r"(start_routine));
 716              		mv s2, a1
 717              	# 0 "" 2
 718              	.LVL51:
 719              		.loc 1 131 5 is_stmt 1
 720              		.loc 1 131 56 is_stmt 0
 721              	# 131 "src/PCB.cpp" 1
 132              	    __asm__ volatile("mv %0, a3" : "=r"(args));
 722              		mv s3, a2
 723              	# 0 "" 2
 724              	.LVL52:
 725              		.loc 1 132 5 is_stmt 1
 726              		.loc 1 132 47 is_stmt 0
 727              	# 132 "src/PCB.cpp" 1
 133              	
 728              		mv s4, a3
 729              	# 0 "" 2
 730              	.LVL53:
 134:src/PCB.cpp   ****     PCB *newPCB = new PCB((void (*)(void *)) start_routine, (void *) args, (void *) PCB::savedRegA4
 731              		.loc 1 134 5 is_stmt 1
 732              		.loc 1 134 120 is_stmt 0
 733              	#NO_APP
 734 0410 13058005 		li	a0,88
 735 0414 97000000 		call	_ZN3PCBnwEm
 735      E7800000 
 736              	.LVL54:
 737 041c 93040500 		mv	s1,a0
 738 0420 13072000 		li	a4,2
 739 0424 97060000 		ld	a3,.LANCHOR0+24
 739      83B60600 
 740 042c 13060A00 		mv	a2,s4
 741 0430 93850900 		mv	a1,s3
 742 0434 97000000 		call	_ZN3PCBC1EPFvPvES0_S0_m
 742      E7800000 
 743              	.LVL55:
 135:src/PCB.cpp   **** 
 136:src/PCB.cpp   ****     (*threadHandle) = newPCB;
 744              		.loc 1 136 5 is_stmt 1
 745              		.loc 1 136 21 is_stmt 0
 746 043c 23309900 		sd	s1,0(s2)
 137:src/PCB.cpp   **** 
 138:src/PCB.cpp   ****     if (newPCB == 0)
 747              		.loc 1 138 5 is_stmt 1
 748 0440 638E0402 		beqz	s1,.L33
 139:src/PCB.cpp   ****             __asm__ volatile("li a0, 0xffffffffffffffff");
 140:src/PCB.cpp   ****     else
 141:src/PCB.cpp   ****     {
 142:src/PCB.cpp   ****         newPCB->start();
 749              		.loc 1 142 9
 750              		.loc 1 142 22 is_stmt 0
 751 0444 13850400 		mv	a0,s1
 752 0448 97000000 		call	_ZN3PCB5startEv
GAS LISTING /tmp/cc4yjyBZ.s 			page 18


 752      E7800000 
 753              	.LVL56:
 143:src/PCB.cpp   ****         __asm__ volatile("li a0, 0");
 754              		.loc 1 143 9 is_stmt 1
 755              		.loc 1 143 37 is_stmt 0
 756              	#APP
 757              	# 143 "src/PCB.cpp" 1
 144              	    }
 758              		li a0, 0
 759              	# 0 "" 2
 760              	#NO_APP
 761              	.L31:
 145:src/PCB.cpp   ****     Riscv::w_a0_sscratch();
 762              		.loc 1 145 5 is_stmt 1
 763              		.loc 1 145 25 is_stmt 0
 764 0454 97000000 		call	_ZN5Riscv13w_a0_sscratchEv@plt
 764      E7800000 
 765              	.LVL57:
 146:src/PCB.cpp   **** }
 766              		.loc 1 146 1
 767 045c 83308102 		ld	ra,40(sp)
 768              		.cfi_remember_state
 769              		.cfi_restore 1
 770 0460 03340102 		ld	s0,32(sp)
 771              		.cfi_restore 8
 772              		.cfi_def_cfa 2, 48
 773 0464 83348101 		ld	s1,24(sp)
 774              		.cfi_restore 9
 775              	.LVL58:
 776 0468 03390101 		ld	s2,16(sp)
 777              		.cfi_restore 18
 778              	.LVL59:
 779 046c 83398100 		ld	s3,8(sp)
 780              		.cfi_restore 19
 781              	.LVL60:
 782 0470 033A0100 		ld	s4,0(sp)
 783              		.cfi_restore 20
 784              	.LVL61:
 785 0474 13010103 		addi	sp,sp,48
 786              		.cfi_def_cfa_offset 0
 787 0478 67800000 		jr	ra
 788              	.LVL62:
 789              	.L33:
 790              		.cfi_restore_state
 139:src/PCB.cpp   ****     else
 791              		.loc 1 139 13 is_stmt 1
 139:src/PCB.cpp   ****     else
 792              		.loc 1 139 58 is_stmt 0
 793              	#APP
 794              	# 139 "src/PCB.cpp" 1
 795              		li a0, 0xffffffffffffffff
 796              	# 0 "" 2
 797              	#NO_APP
 798 0480 6FF05FFD 		j	.L31
 799              		.cfi_endproc
 800              	.LFE41:
 802              		.align	2
GAS LISTING /tmp/cc4yjyBZ.s 			page 19


 803              		.globl	_ZN3PCB18threadStartHandlerEv
 805              	_ZN3PCB18threadStartHandlerEv:
 806              	.LFB42:
 147:src/PCB.cpp   **** 
 148:src/PCB.cpp   **** void PCB::threadStartHandler()
 149:src/PCB.cpp   **** {
 807              		.loc 1 149 1 is_stmt 1
 808              		.cfi_startproc
 809 0484 130101FF 		addi	sp,sp,-16
 810              		.cfi_def_cfa_offset 16
 811 0488 23341100 		sd	ra,8(sp)
 812 048c 23308100 		sd	s0,0(sp)
 813              		.cfi_offset 1, -8
 814              		.cfi_offset 8, -16
 815 0490 13040101 		addi	s0,sp,16
 816              		.cfi_def_cfa 8, 0
 150:src/PCB.cpp   ****     PCB* pcb;
 817              		.loc 1 150 5
 151:src/PCB.cpp   ****     __asm__ volatile("mv %0, a1" : "=r"(pcb));
 818              		.loc 1 151 5
 819              		.loc 1 151 46 is_stmt 0
 820              	#APP
 821              	# 151 "src/PCB.cpp" 1
 152              	    if(pcb != 0)
 822              		mv a0, a1
 823              	# 0 "" 2
 824              	.LVL63:
 825              		.loc 1 152 5 is_stmt 1
 826              	#NO_APP
 827 0498 63040502 		beqz	a0,.L35
 153:src/PCB.cpp   ****     {
 154:src/PCB.cpp   ****         pcb->start();
 828              		.loc 1 154 9
 829              		.loc 1 154 19 is_stmt 0
 830 049c 97000000 		call	_ZN3PCB5startEv
 830      E7800000 
 831              	.LVL64:
 155:src/PCB.cpp   ****         __asm__ volatile("li a0, 0");
 832              		.loc 1 155 9 is_stmt 1
 833              		.loc 1 155 37 is_stmt 0
 834              	#APP
 835              	# 155 "src/PCB.cpp" 1
 156              	    }
 836              		li a0, 0
 837              	# 0 "" 2
 838              	#NO_APP
 839              	.L36:
 157:src/PCB.cpp   ****     else
 158:src/PCB.cpp   ****     {
 159:src/PCB.cpp   ****         __asm__ volatile("li a0, 0xffffffffffffffff");
 160:src/PCB.cpp   ****     }
 161:src/PCB.cpp   ****     Riscv::w_a0_sscratch();
 840              		.loc 1 161 5 is_stmt 1
 841              		.loc 1 161 25 is_stmt 0
 842 04a8 97000000 		call	_ZN5Riscv13w_a0_sscratchEv@plt
 842      E7800000 
 843              	.LVL65:
GAS LISTING /tmp/cc4yjyBZ.s 			page 20


 162:src/PCB.cpp   **** }
 844              		.loc 1 162 1
 845 04b0 83308100 		ld	ra,8(sp)
 846              		.cfi_remember_state
 847              		.cfi_restore 1
 848 04b4 03340100 		ld	s0,0(sp)
 849              		.cfi_restore 8
 850              		.cfi_def_cfa 2, 16
 851 04b8 13010101 		addi	sp,sp,16
 852              		.cfi_def_cfa_offset 0
 853 04bc 67800000 		jr	ra
 854              	.LVL66:
 855              	.L35:
 856              		.cfi_restore_state
 159:src/PCB.cpp   ****     }
 857              		.loc 1 159 9 is_stmt 1
 159:src/PCB.cpp   ****     }
 858              		.loc 1 159 54 is_stmt 0
 859              	#APP
 860              	# 159 "src/PCB.cpp" 1
 861              		li a0, 0xffffffffffffffff
 862              	# 0 "" 2
 863              	#NO_APP
 864 04c4 6FF05FFE 		j	.L36
 865              		.cfi_endproc
 866              	.LFE42:
 868              		.align	2
 869              		.globl	_ZN3PCB20threadMakePCBHandlerEv
 871              	_ZN3PCB20threadMakePCBHandlerEv:
 872              	.LFB43:
 163:src/PCB.cpp   **** 
 164:src/PCB.cpp   **** void PCB::threadMakePCBHandler()
 165:src/PCB.cpp   **** {
 873              		.loc 1 165 1 is_stmt 1
 874              		.cfi_startproc
 875 04c8 130101FD 		addi	sp,sp,-48
 876              		.cfi_def_cfa_offset 48
 877 04cc 23341102 		sd	ra,40(sp)
 878 04d0 23308102 		sd	s0,32(sp)
 879 04d4 233C9100 		sd	s1,24(sp)
 880 04d8 23382101 		sd	s2,16(sp)
 881 04dc 23343101 		sd	s3,8(sp)
 882 04e0 23304101 		sd	s4,0(sp)
 883              		.cfi_offset 1, -8
 884              		.cfi_offset 8, -16
 885              		.cfi_offset 9, -24
 886              		.cfi_offset 18, -32
 887              		.cfi_offset 19, -40
 888              		.cfi_offset 20, -48
 889 04e4 13040103 		addi	s0,sp,48
 890              		.cfi_def_cfa 8, 0
 166:src/PCB.cpp   ****     uint64 start_routine;
 891              		.loc 1 166 5
 167:src/PCB.cpp   ****     uint64 args;
 892              		.loc 1 167 5
 168:src/PCB.cpp   ****     PCB **threadHandle;
 893              		.loc 1 168 5
GAS LISTING /tmp/cc4yjyBZ.s 			page 21


 169:src/PCB.cpp   ****     __asm__ volatile("mv %0, a1" : "=r"(threadHandle));
 894              		.loc 1 169 5
 895              		.loc 1 169 55 is_stmt 0
 896              	#APP
 897              	# 169 "src/PCB.cpp" 1
 170              	    __asm__ volatile("mv %0, a2" : "=r"(start_routine));
 898              		mv s2, a1
 899              	# 0 "" 2
 900              	.LVL67:
 901              		.loc 1 170 5 is_stmt 1
 902              		.loc 1 170 56 is_stmt 0
 903              	# 170 "src/PCB.cpp" 1
 171              	    __asm__ volatile("mv %0, a3" : "=r"(args));
 904              		mv s3, a2
 905              	# 0 "" 2
 906              	.LVL68:
 907              		.loc 1 171 5 is_stmt 1
 908              		.loc 1 171 47 is_stmt 0
 909              	# 171 "src/PCB.cpp" 1
 172              	
 910              		mv s4, a3
 911              	# 0 "" 2
 912              	.LVL69:
 173:src/PCB.cpp   ****     PCB *newPCB = new PCB((void (*)(void *)) start_routine, (void *) args, (void *) PCB::savedRegA4
 913              		.loc 1 173 5 is_stmt 1
 914              		.loc 1 173 120 is_stmt 0
 915              	#NO_APP
 916 04f4 13058005 		li	a0,88
 917 04f8 97000000 		call	_ZN3PCBnwEm
 917      E7800000 
 918              	.LVL70:
 919 0500 93040500 		mv	s1,a0
 920 0504 13072000 		li	a4,2
 921 0508 97060000 		ld	a3,.LANCHOR0+24
 921      83B60600 
 922 0510 13060A00 		mv	a2,s4
 923 0514 93850900 		mv	a1,s3
 924 0518 97000000 		call	_ZN3PCBC1EPFvPvES0_S0_m
 924      E7800000 
 925              	.LVL71:
 174:src/PCB.cpp   **** 
 175:src/PCB.cpp   ****     (*threadHandle) = newPCB;
 926              		.loc 1 175 5 is_stmt 1
 927              		.loc 1 175 21 is_stmt 0
 928 0520 23309900 		sd	s1,0(s2)
 176:src/PCB.cpp   **** 
 177:src/PCB.cpp   ****     if (newPCB == 0)
 929              		.loc 1 177 5 is_stmt 1
 930 0524 63880402 		beqz	s1,.L42
 178:src/PCB.cpp   ****         __asm__ volatile("li a0, 0xffffffffffffffff");
 179:src/PCB.cpp   ****     else
 180:src/PCB.cpp   ****         __asm__ volatile("li a0, 0");
 931              		.loc 1 180 9
 932              		.loc 1 180 37 is_stmt 0
 933              	#APP
 934              	# 180 "src/PCB.cpp" 1
 181              	    Riscv::w_a0_sscratch();
GAS LISTING /tmp/cc4yjyBZ.s 			page 22


 935              		li a0, 0
 936              	# 0 "" 2
 937              	#NO_APP
 938              	.L40:
 939              		.loc 1 181 5 is_stmt 1
 940              		.loc 1 181 25 is_stmt 0
 941 052c 97000000 		call	_ZN5Riscv13w_a0_sscratchEv@plt
 941      E7800000 
 942              	.LVL72:
 182:src/PCB.cpp   **** }
 943              		.loc 1 182 1
 944 0534 83308102 		ld	ra,40(sp)
 945              		.cfi_remember_state
 946              		.cfi_restore 1
 947 0538 03340102 		ld	s0,32(sp)
 948              		.cfi_restore 8
 949              		.cfi_def_cfa 2, 48
 950 053c 83348101 		ld	s1,24(sp)
 951              		.cfi_restore 9
 952              	.LVL73:
 953 0540 03390101 		ld	s2,16(sp)
 954              		.cfi_restore 18
 955              	.LVL74:
 956 0544 83398100 		ld	s3,8(sp)
 957              		.cfi_restore 19
 958              	.LVL75:
 959 0548 033A0100 		ld	s4,0(sp)
 960              		.cfi_restore 20
 961              	.LVL76:
 962 054c 13010103 		addi	sp,sp,48
 963              		.cfi_def_cfa_offset 0
 964 0550 67800000 		jr	ra
 965              	.LVL77:
 966              	.L42:
 967              		.cfi_restore_state
 178:src/PCB.cpp   ****         __asm__ volatile("li a0, 0xffffffffffffffff");
 968              		.loc 1 178 9 is_stmt 1
 178:src/PCB.cpp   ****         __asm__ volatile("li a0, 0xffffffffffffffff");
 969              		.loc 1 178 54 is_stmt 0
 970              	#APP
 971              	# 178 "src/PCB.cpp" 1
 972              		li a0, 0xffffffffffffffff
 973              	# 0 "" 2
 974              	#NO_APP
 975 0558 6FF05FFD 		j	.L40
 976              		.cfi_endproc
 977              	.LFE43:
 979              		.globl	_ZN3PCB10consolePCBE
 980              		.globl	_ZN3PCB10savedRegA4E
 981              		.globl	_ZN3PCB16timeSliceCounterE
 982              		.globl	_ZN3PCB7runningE
 983              		.bss
 984              		.align	3
 985              		.set	.LANCHOR0,. + 0
 988              	_ZN3PCB7runningE:
 989 0000 00000000 		.zero	8
 989      00000000 
GAS LISTING /tmp/cc4yjyBZ.s 			page 23


 992              	_ZN3PCB10consolePCBE:
 993 0008 00000000 		.zero	8
 993      00000000 
 996              	_ZN3PCB16timeSliceCounterE:
 997 0010 00000000 		.zero	8
 997      00000000 
 1000              	_ZN3PCB10savedRegA4E:
 1001 0018 00000000 		.zero	8
 1001      00000000 
 1002              		.text
 1003              	.Letext0:
 1004              		.file 3 "src/../h/../lib/hw.h"
 1005              		.file 4 "src/../h/Scheduler.hpp"
 1006              		.file 5 "src/../h/Riscv.hpp"
 1007              		.file 6 "src/../h/SleepPCBList.hpp"
 1008              		.file 7 "src/../h/../test/printing.hpp"
 1009              		.file 8 "src/../h/MemoryAllocator.hpp"
 1010              		.file 9 "src/../h/../test/../h/syscall_c.h"
 4795              		.align	3
 4798              	DW.ref.__gxx_personality_v0:
 4799 0000 00000000 		.dword	__gxx_personality_v0
 4799      00000000 
 4800              		.ident	"GCC: (Ubuntu 9.3.0-17ubuntu1~20.04) 9.3.0"
 4801              		.section	.note.GNU-stack,"",@progbits
GAS LISTING /tmp/cc4yjyBZ.s 			page 24


DEFINED SYMBOLS
                            *ABS*:0000000000000000 PCB.cpp
     /tmp/cc4yjyBZ.s:14     .text:0000000000000000 _ZN3PCB6runnerEv
     /tmp/cc4yjyBZ.s:18     .text:0000000000000000 .L0 
     /tmp/cc4yjyBZ.s:19     .text:0000000000000000 .L0 
     /tmp/cc4yjyBZ.s:20     .text:0000000000000004 .L0 
     /tmp/cc4yjyBZ.s:23     .text:000000000000000c .L0 
     /tmp/cc4yjyBZ.s:24     .text:000000000000000c .L0 
     /tmp/cc4yjyBZ.s:26     .text:0000000000000010 .L0 
     /tmp/cc4yjyBZ.s:28     .text:0000000000000010 .L0 
     /tmp/cc4yjyBZ.s:29     .text:0000000000000010 .L0 
     /tmp/cc4yjyBZ.s:33     .text:0000000000000020 .L0 
     /tmp/cc4yjyBZ.s:34     .text:0000000000000020 .L0 
     /tmp/cc4yjyBZ.s:37     .text:0000000000000028 .L0 
     /tmp/cc4yjyBZ.s:38     .text:0000000000000028 .L0 
     /tmp/cc4yjyBZ.s:41     .text:0000000000000034 .L0 
     /tmp/cc4yjyBZ.s:45     .text:000000000000003c .L0 
     /tmp/cc4yjyBZ.s:46     .text:000000000000003c .L0 
     /tmp/cc4yjyBZ.s:49     .text:0000000000000044 .L0 
     /tmp/cc4yjyBZ.s:50     .text:0000000000000048 .L0 
     /tmp/cc4yjyBZ.s:52     .text:000000000000004c .L0 
     /tmp/cc4yjyBZ.s:53     .text:000000000000004c .L0 
     /tmp/cc4yjyBZ.s:55     .text:0000000000000050 .L0 
     /tmp/cc4yjyBZ.s:57     .text:0000000000000054 .L0 
     /tmp/cc4yjyBZ.s:63     .text:0000000000000054 _ZN3PCBC2EPFvPvES0_S0_m
     /tmp/cc4yjyBZ.s:66     .text:0000000000000054 .L0 
     /tmp/cc4yjyBZ.s:68     .text:0000000000000054 .L0 
     /tmp/cc4yjyBZ.s:69     .text:0000000000000058 .L0 
     /tmp/cc4yjyBZ.s:71     .text:000000000000005c .L0 
     /tmp/cc4yjyBZ.s:73     .text:0000000000000060 .L0 
     /tmp/cc4yjyBZ.s:76     .text:0000000000000060 .L0 
     /tmp/cc4yjyBZ.s:83     .text:0000000000000078 .L0 
     /tmp/cc4yjyBZ.s:87     .text:0000000000000080 .L0 
     /tmp/cc4yjyBZ.s:91     .text:0000000000000090 .L0 
     /tmp/cc4yjyBZ.s:92     .text:0000000000000090 .L0 
     /tmp/cc4yjyBZ.s:95     .text:0000000000000094 .L0 
     /tmp/cc4yjyBZ.s:96     .text:0000000000000098 .L0 
     /tmp/cc4yjyBZ.s:97     .text:0000000000000098 .L0 
     /tmp/cc4yjyBZ.s:99     .text:000000000000009c .L0 
     /tmp/cc4yjyBZ.s:101    .text:00000000000000a0 .L0 
     /tmp/cc4yjyBZ.s:63     .text:0000000000000054 _ZN3PCBC1EPFvPvES0_S0_m
     /tmp/cc4yjyBZ.s:109    .text:00000000000000a0 _ZN3PCB5sleepEm
     /tmp/cc4yjyBZ.s:112    .text:00000000000000a0 .L0 
     /tmp/cc4yjyBZ.s:114    .text:00000000000000a0 .L0 
     /tmp/cc4yjyBZ.s:115    .text:00000000000000a4 .L0 
     /tmp/cc4yjyBZ.s:117    .text:00000000000000a8 .L0 
     /tmp/cc4yjyBZ.s:119    .text:00000000000000ac .L0 
     /tmp/cc4yjyBZ.s:121    .text:00000000000000ac .L0 
     /tmp/cc4yjyBZ.s:122    .text:00000000000000b0 .L0 
     /tmp/cc4yjyBZ.s:123    .text:00000000000000b0 .L0 
     /tmp/cc4yjyBZ.s:125    .text:00000000000000b4 .L0 
     /tmp/cc4yjyBZ.s:127    .text:00000000000000b8 .L0 
     /tmp/cc4yjyBZ.s:133    .text:00000000000000b8 _ZN3PCB5startEv
     /tmp/cc4yjyBZ.s:136    .text:00000000000000b8 .L0 
     /tmp/cc4yjyBZ.s:138    .text:00000000000000b8 .L0 
     /tmp/cc4yjyBZ.s:139    .text:00000000000000bc .L0 
     /tmp/cc4yjyBZ.s:142    .text:00000000000000c4 .L0 
GAS LISTING /tmp/cc4yjyBZ.s 			page 25


     /tmp/cc4yjyBZ.s:143    .text:00000000000000c4 .L0 
     /tmp/cc4yjyBZ.s:145    .text:00000000000000c8 .L0 
     /tmp/cc4yjyBZ.s:147    .text:00000000000000c8 .L0 
     /tmp/cc4yjyBZ.s:148    .text:00000000000000c8 .L0 
     /tmp/cc4yjyBZ.s:151    .text:00000000000000d0 .L0 
     /tmp/cc4yjyBZ.s:152    .text:00000000000000d4 .L0 
     /tmp/cc4yjyBZ.s:154    .text:00000000000000d8 .L0 
     /tmp/cc4yjyBZ.s:155    .text:00000000000000d8 .L0 
     /tmp/cc4yjyBZ.s:157    .text:00000000000000dc .L0 
     /tmp/cc4yjyBZ.s:159    .text:00000000000000e0 .L0 
     /tmp/cc4yjyBZ.s:165    .text:00000000000000e0 _ZN3PCB8dispatchEv
     /tmp/cc4yjyBZ.s:168    .text:00000000000000e0 .L0 
     /tmp/cc4yjyBZ.s:169    .text:00000000000000e0 .L0 
     /tmp/cc4yjyBZ.s:170    .text:00000000000000e4 .L0 
     /tmp/cc4yjyBZ.s:175    .text:00000000000000f4 .L0 
     /tmp/cc4yjyBZ.s:176    .text:00000000000000f4 .L0 
     /tmp/cc4yjyBZ.s:177    .text:00000000000000f4 .L0 
     /tmp/cc4yjyBZ.s:178    .text:00000000000000f4 .L0 
     /tmp/cc4yjyBZ.s:180    .text:00000000000000f8 .L0 
     /tmp/cc4yjyBZ.s:182    .text:00000000000000f8 .L0 
     /tmp/cc4yjyBZ.s:183    .text:00000000000000f8 .L0 
     /tmp/cc4yjyBZ.s:189    .text:0000000000000100 .L0 
     /tmp/cc4yjyBZ.s:190    .text:0000000000000100 .L0 
     /tmp/cc4yjyBZ.s:191    .text:0000000000000100 .L0 
     /tmp/cc4yjyBZ.s:196    .text:0000000000000104 .L0 
     /tmp/cc4yjyBZ.s:200    .text:000000000000010c .L0 
     /tmp/cc4yjyBZ.s:201    .text:000000000000010c .L0 
     /tmp/cc4yjyBZ.s:204    .text:0000000000000114 .L0 
     /tmp/cc4yjyBZ.s:210    .text:0000000000000120 .L0 
     /tmp/cc4yjyBZ.s:211    .text:0000000000000120 .L0 
     /tmp/cc4yjyBZ.s:212    .text:0000000000000120 .L0 
     /tmp/cc4yjyBZ.s:218    .text:0000000000000128 .L0 
     /tmp/cc4yjyBZ.s:219    .text:0000000000000128 .L0 
     /tmp/cc4yjyBZ.s:222    .text:0000000000000130 .L0 
     /tmp/cc4yjyBZ.s:223    .text:0000000000000130 .L0 
     /tmp/cc4yjyBZ.s:225    .text:0000000000000134 .L0 
     /tmp/cc4yjyBZ.s:230    .text:0000000000000144 .L0 
     /tmp/cc4yjyBZ.s:231    .text:0000000000000148 .L0 
     /tmp/cc4yjyBZ.s:232    .text:0000000000000148 .L0 
     /tmp/cc4yjyBZ.s:234    .text:000000000000014c .L0 
     /tmp/cc4yjyBZ.s:235    .text:000000000000014c .L0 
     /tmp/cc4yjyBZ.s:237    .text:0000000000000150 .L0 
     /tmp/cc4yjyBZ.s:240    .text:0000000000000154 .L0 
     /tmp/cc4yjyBZ.s:242    .text:0000000000000158 .L0 
     /tmp/cc4yjyBZ.s:246    .text:000000000000015c .L0 
     /tmp/cc4yjyBZ.s:248    .text:000000000000015c .L0 
     /tmp/cc4yjyBZ.s:249    .text:000000000000015c .L0 
     /tmp/cc4yjyBZ.s:253    .text:000000000000016c .L0 
     /tmp/cc4yjyBZ.s:259    .text:000000000000016c _ZN3PCBnwEm
     /tmp/cc4yjyBZ.s:262    .text:000000000000016c .L0 
     /tmp/cc4yjyBZ.s:264    .text:000000000000016c .L0 
     /tmp/cc4yjyBZ.s:265    .text:0000000000000170 .L0 
     /tmp/cc4yjyBZ.s:268    .text:0000000000000178 .L0 
     /tmp/cc4yjyBZ.s:269    .text:0000000000000178 .L0 
     /tmp/cc4yjyBZ.s:271    .text:000000000000017c .L0 
     /tmp/cc4yjyBZ.s:273    .text:000000000000017c .L0 
     /tmp/cc4yjyBZ.s:274    .text:000000000000017c .L0 
GAS LISTING /tmp/cc4yjyBZ.s 			page 26


     /tmp/cc4yjyBZ.s:277    .text:0000000000000184 .L0 
     /tmp/cc4yjyBZ.s:278    .text:0000000000000188 .L0 
     /tmp/cc4yjyBZ.s:280    .text:000000000000018c .L0 
     /tmp/cc4yjyBZ.s:281    .text:000000000000018c .L0 
     /tmp/cc4yjyBZ.s:283    .text:0000000000000190 .L0 
     /tmp/cc4yjyBZ.s:285    .text:0000000000000194 .L0 
     /tmp/cc4yjyBZ.s:291    .text:0000000000000194 _ZN3PCBdlEPv
     /tmp/cc4yjyBZ.s:294    .text:0000000000000194 .L0 
     /tmp/cc4yjyBZ.s:296    .text:0000000000000194 .L0 
     /tmp/cc4yjyBZ.s:297    .text:0000000000000198 .L0 
     /tmp/cc4yjyBZ.s:300    .text:00000000000001a0 .L0 
     /tmp/cc4yjyBZ.s:301    .text:00000000000001a0 .L0 
     /tmp/cc4yjyBZ.s:303    .text:00000000000001a4 .L0 
     /tmp/cc4yjyBZ.s:305    .text:00000000000001a4 .L0 
     /tmp/cc4yjyBZ.s:306    .text:00000000000001a4 .L0 
     /tmp/cc4yjyBZ.s:309    .text:00000000000001ac .L0 
     /tmp/cc4yjyBZ.s:310    .text:00000000000001b0 .L0 
     /tmp/cc4yjyBZ.s:312    .text:00000000000001b4 .L0 
     /tmp/cc4yjyBZ.s:313    .text:00000000000001b4 .L0 
     /tmp/cc4yjyBZ.s:315    .text:00000000000001b8 .L0 
     /tmp/cc4yjyBZ.s:317    .text:00000000000001bc .L0 
     /tmp/cc4yjyBZ.s:323    .text:00000000000001bc _ZN3PCBD2Ev
     /tmp/cc4yjyBZ.s:326    .text:00000000000001bc .L0 
     /tmp/cc4yjyBZ.s:4798   .data.rel.local.DW.ref.__gxx_personality_v0:0000000000000000 DW.ref.__gxx_personality_v0
     /tmp/cc4yjyBZ.s:330    .text:00000000000001bc .L0 
     /tmp/cc4yjyBZ.s:331    .text:00000000000001c0 .L0 
     /tmp/cc4yjyBZ.s:334    .text:00000000000001c8 .L0 
     /tmp/cc4yjyBZ.s:335    .text:00000000000001c8 .L0 
     /tmp/cc4yjyBZ.s:337    .text:00000000000001cc .L0 
     /tmp/cc4yjyBZ.s:340    .text:00000000000001cc .L0 
     /tmp/cc4yjyBZ.s:341    .text:00000000000001cc .L0 
     /tmp/cc4yjyBZ.s:347    .text:00000000000001d8 .L0 
     /tmp/cc4yjyBZ.s:348    .text:00000000000001dc .L0 
     /tmp/cc4yjyBZ.s:350    .text:00000000000001e0 .L0 
     /tmp/cc4yjyBZ.s:351    .text:00000000000001e0 .L0 
     /tmp/cc4yjyBZ.s:353    .text:00000000000001e4 .L0 
     /tmp/cc4yjyBZ.s:355    .text:00000000000001e8 .L0 
     /tmp/cc4yjyBZ.s:323    .text:00000000000001bc _ZN3PCBD1Ev
     /tmp/cc4yjyBZ.s:371    .text:00000000000001e8 _ZN3PCB10initializeEv
     /tmp/cc4yjyBZ.s:374    .text:00000000000001e8 .L0 
     /tmp/cc4yjyBZ.s:375    .text:00000000000001e8 .L0 
     /tmp/cc4yjyBZ.s:376    .text:00000000000001ec .L0 
     /tmp/cc4yjyBZ.s:383    .text:0000000000000204 .L0 
     /tmp/cc4yjyBZ.s:384    .text:0000000000000204 .L0 
     /tmp/cc4yjyBZ.s:385    .text:0000000000000204 .L0 
     /tmp/cc4yjyBZ.s:386    .text:0000000000000204 .L0 
     /tmp/cc4yjyBZ.s:387    .text:0000000000000204 .L0 
     /tmp/cc4yjyBZ.s:388    .text:0000000000000204 .L0 
     /tmp/cc4yjyBZ.s:390    .text:0000000000000208 .L0 
     /tmp/cc4yjyBZ.s:392    .text:0000000000000208 .L0 
     /tmp/cc4yjyBZ.s:393    .text:0000000000000208 .L0 
     /tmp/cc4yjyBZ.s:404    .text:0000000000000230 .L0 
     /tmp/cc4yjyBZ.s:405    .text:0000000000000230 .L0 
     /tmp/cc4yjyBZ.s:409    .text:000000000000023c .L0 
     /tmp/cc4yjyBZ.s:410    .text:000000000000023c .L0 
     /tmp/cc4yjyBZ.s:413    .text:0000000000000244 .L0 
     /tmp/cc4yjyBZ.s:414    .text:0000000000000244 .L0 
GAS LISTING /tmp/cc4yjyBZ.s 			page 27


     /tmp/cc4yjyBZ.s:417    .text:000000000000024c .L0 
     /tmp/cc4yjyBZ.s:423    .text:0000000000000258 .L0 
     /tmp/cc4yjyBZ.s:424    .text:0000000000000258 .L0 
     /tmp/cc4yjyBZ.s:425    .text:0000000000000258 .L0 
     /tmp/cc4yjyBZ.s:431    .text:0000000000000260 .L0 
     /tmp/cc4yjyBZ.s:432    .text:0000000000000260 .L0 
     /tmp/cc4yjyBZ.s:437    .text:0000000000000270 .L0 
     /tmp/cc4yjyBZ.s:449    .text:000000000000029c .L0 
     /tmp/cc4yjyBZ.s:451    .text:00000000000002a0 .L0 
     /tmp/cc4yjyBZ.s:452    .text:00000000000002a0 .L0 
     /tmp/cc4yjyBZ.s:454    .text:00000000000002a4 .L0 
     /tmp/cc4yjyBZ.s:455    .text:00000000000002a4 .L0 
     /tmp/cc4yjyBZ.s:459    .text:00000000000002b0 .L0 
     /tmp/cc4yjyBZ.s:460    .text:00000000000002b4 .L0 
     /tmp/cc4yjyBZ.s:462    .text:00000000000002b8 .L0 
     /tmp/cc4yjyBZ.s:463    .text:00000000000002b8 .L0 
     /tmp/cc4yjyBZ.s:465    .text:00000000000002bc .L0 
     /tmp/cc4yjyBZ.s:467    .text:00000000000002c0 .L0 
     /tmp/cc4yjyBZ.s:469    .text:00000000000002c4 .L0 
     /tmp/cc4yjyBZ.s:471    .text:00000000000002c8 .L0 
     /tmp/cc4yjyBZ.s:473    .text:00000000000002cc .L0 
     /tmp/cc4yjyBZ.s:475    .text:00000000000002d0 .L0 
     /tmp/cc4yjyBZ.s:481    .text:00000000000002d0 _ZN3PCB10isFinishedEv
     /tmp/cc4yjyBZ.s:484    .text:00000000000002d0 .L0 
     /tmp/cc4yjyBZ.s:486    .text:00000000000002d0 .L0 
     /tmp/cc4yjyBZ.s:487    .text:00000000000002d4 .L0 
     /tmp/cc4yjyBZ.s:489    .text:00000000000002d8 .L0 
     /tmp/cc4yjyBZ.s:491    .text:00000000000002dc .L0 
     /tmp/cc4yjyBZ.s:493    .text:00000000000002dc .L0 
     /tmp/cc4yjyBZ.s:494    .text:00000000000002dc .L0 
     /tmp/cc4yjyBZ.s:497    .text:00000000000002e0 .L0 
     /tmp/cc4yjyBZ.s:499    .text:00000000000002e4 .L0 
     /tmp/cc4yjyBZ.s:501    .text:00000000000002ec .L0 
     /tmp/cc4yjyBZ.s:502    .text:00000000000002ec .L0 
     /tmp/cc4yjyBZ.s:504    .text:00000000000002f0 .L0 
     /tmp/cc4yjyBZ.s:506    .text:00000000000002f4 .L0 
     /tmp/cc4yjyBZ.s:517    .text:00000000000002f4 _ZN3PCB17threadExitHandlerEv
     /tmp/cc4yjyBZ.s:520    .text:00000000000002f4 .L0 
     /tmp/cc4yjyBZ.s:521    .text:00000000000002f4 .L0 
     /tmp/cc4yjyBZ.s:522    .text:00000000000002f8 .L0 
     /tmp/cc4yjyBZ.s:525    .text:0000000000000300 .L0 
     /tmp/cc4yjyBZ.s:526    .text:0000000000000300 .L0 
     /tmp/cc4yjyBZ.s:528    .text:0000000000000304 .L0 
     /tmp/cc4yjyBZ.s:530    .text:0000000000000304 .L0 
     /tmp/cc4yjyBZ.s:531    .text:0000000000000304 .L0 
     /tmp/cc4yjyBZ.s:535    .text:0000000000000314 .L0 
     /tmp/cc4yjyBZ.s:536    .text:0000000000000314 .L0 
     /tmp/cc4yjyBZ.s:539    .text:0000000000000320 .L0 
     /tmp/cc4yjyBZ.s:540    .text:0000000000000320 .L0 
     /tmp/cc4yjyBZ.s:545    .text:0000000000000324 .L0 
     /tmp/cc4yjyBZ.s:546    .text:0000000000000324 .L0 
     /tmp/cc4yjyBZ.s:552    .text:000000000000032c .L0 
     /tmp/cc4yjyBZ.s:553    .text:000000000000032c .L0 
     /tmp/cc4yjyBZ.s:556    .text:0000000000000334 .L0 
         src/PCB.cpp:103    .text:0000000000000334 .L0 
     /tmp/cc4yjyBZ.s:562    .text:0000000000000338 .L0 
     /tmp/cc4yjyBZ.s:564    .text:0000000000000338 .L0 
GAS LISTING /tmp/cc4yjyBZ.s 			page 28


     /tmp/cc4yjyBZ.s:567    .text:0000000000000340 .L0 
     /tmp/cc4yjyBZ.s:568    .text:0000000000000344 .L0 
     /tmp/cc4yjyBZ.s:570    .text:0000000000000348 .L0 
     /tmp/cc4yjyBZ.s:571    .text:0000000000000348 .L0 
     /tmp/cc4yjyBZ.s:573    .text:000000000000034c .L0 
     /tmp/cc4yjyBZ.s:575    .text:0000000000000350 .L0 
     /tmp/cc4yjyBZ.s:581    .text:0000000000000350 _ZN3PCB21threadDispatchHandlerEv
     /tmp/cc4yjyBZ.s:584    .text:0000000000000350 .L0 
     /tmp/cc4yjyBZ.s:585    .text:0000000000000350 .L0 
     /tmp/cc4yjyBZ.s:586    .text:0000000000000354 .L0 
     /tmp/cc4yjyBZ.s:589    .text:000000000000035c .L0 
     /tmp/cc4yjyBZ.s:590    .text:000000000000035c .L0 
     /tmp/cc4yjyBZ.s:592    .text:0000000000000360 .L0 
     /tmp/cc4yjyBZ.s:594    .text:0000000000000360 .L0 
     /tmp/cc4yjyBZ.s:595    .text:0000000000000360 .L0 
     /tmp/cc4yjyBZ.s:597    .text:0000000000000368 .L0 
     /tmp/cc4yjyBZ.s:598    .text:0000000000000368 .L0 
     /tmp/cc4yjyBZ.s:601    .text:0000000000000370 .L0 
     /tmp/cc4yjyBZ.s:602    .text:0000000000000374 .L0 
     /tmp/cc4yjyBZ.s:604    .text:0000000000000378 .L0 
     /tmp/cc4yjyBZ.s:605    .text:0000000000000378 .L0 
     /tmp/cc4yjyBZ.s:607    .text:000000000000037c .L0 
     /tmp/cc4yjyBZ.s:609    .text:0000000000000380 .L0 
     /tmp/cc4yjyBZ.s:615    .text:0000000000000380 _ZN3PCB18threadSleepHandlerEv
     /tmp/cc4yjyBZ.s:618    .text:0000000000000380 .L0 
     /tmp/cc4yjyBZ.s:619    .text:0000000000000380 .L0 
     /tmp/cc4yjyBZ.s:620    .text:0000000000000384 .L0 
     /tmp/cc4yjyBZ.s:623    .text:000000000000038c .L0 
     /tmp/cc4yjyBZ.s:624    .text:000000000000038c .L0 
     /tmp/cc4yjyBZ.s:626    .text:0000000000000390 .L0 
     /tmp/cc4yjyBZ.s:628    .text:0000000000000390 .L0 
     /tmp/cc4yjyBZ.s:629    .text:0000000000000390 .L0 
         src/PCB.cpp:116    .text:0000000000000390 .L0 
     /tmp/cc4yjyBZ.s:636    .text:0000000000000394 .L0 
     /tmp/cc4yjyBZ.s:638    .text:0000000000000394 .L0 
     /tmp/cc4yjyBZ.s:641    .text:00000000000003a0 .L0 
     /tmp/cc4yjyBZ.s:642    .text:00000000000003a0 .L0 
     /tmp/cc4yjyBZ.s:650    .text:00000000000003b4 .L0 
     /tmp/cc4yjyBZ.s:651    .text:00000000000003b4 .L0 
     /tmp/cc4yjyBZ.s:656    .text:00000000000003b8 .L0 
     /tmp/cc4yjyBZ.s:657    .text:00000000000003b8 .L0 
     /tmp/cc4yjyBZ.s:660    .text:00000000000003c0 .L0 
     /tmp/cc4yjyBZ.s:661    .text:00000000000003c0 .L0 
     /tmp/cc4yjyBZ.s:664    .text:00000000000003c8 .L0 
         src/PCB.cpp:121    .text:00000000000003c8 .L0 
     /tmp/cc4yjyBZ.s:670    .text:00000000000003cc .L0 
     /tmp/cc4yjyBZ.s:672    .text:00000000000003cc .L0 
     /tmp/cc4yjyBZ.s:675    .text:00000000000003d4 .L0 
     /tmp/cc4yjyBZ.s:676    .text:00000000000003d8 .L0 
     /tmp/cc4yjyBZ.s:678    .text:00000000000003dc .L0 
     /tmp/cc4yjyBZ.s:679    .text:00000000000003dc .L0 
     /tmp/cc4yjyBZ.s:681    .text:00000000000003e0 .L0 
     /tmp/cc4yjyBZ.s:683    .text:00000000000003e4 .L0 
     /tmp/cc4yjyBZ.s:689    .text:00000000000003e4 _ZN3PCB19threadCreateHandlerEv
     /tmp/cc4yjyBZ.s:692    .text:00000000000003e4 .L0 
     /tmp/cc4yjyBZ.s:693    .text:00000000000003e4 .L0 
     /tmp/cc4yjyBZ.s:694    .text:00000000000003e8 .L0 
GAS LISTING /tmp/cc4yjyBZ.s 			page 29


     /tmp/cc4yjyBZ.s:701    .text:0000000000000400 .L0 
     /tmp/cc4yjyBZ.s:702    .text:0000000000000400 .L0 
     /tmp/cc4yjyBZ.s:703    .text:0000000000000400 .L0 
     /tmp/cc4yjyBZ.s:704    .text:0000000000000400 .L0 
     /tmp/cc4yjyBZ.s:705    .text:0000000000000400 .L0 
     /tmp/cc4yjyBZ.s:706    .text:0000000000000400 .L0 
     /tmp/cc4yjyBZ.s:708    .text:0000000000000404 .L0 
     /tmp/cc4yjyBZ.s:710    .text:0000000000000404 .L0 
     /tmp/cc4yjyBZ.s:711    .text:0000000000000404 .L0 
     /tmp/cc4yjyBZ.s:712    .text:0000000000000404 .L0 
     /tmp/cc4yjyBZ.s:713    .text:0000000000000404 .L0 
         src/PCB.cpp:130    .text:0000000000000404 .L0 
     /tmp/cc4yjyBZ.s:720    .text:0000000000000408 .L0 
         src/PCB.cpp:131    .text:0000000000000408 .L0 
     /tmp/cc4yjyBZ.s:726    .text:000000000000040c .L0 
         src/PCB.cpp:132    .text:000000000000040c .L0 
     /tmp/cc4yjyBZ.s:732    .text:0000000000000410 .L0 
     /tmp/cc4yjyBZ.s:734    .text:0000000000000410 .L0 
     /tmp/cc4yjyBZ.s:745    .text:000000000000043c .L0 
     /tmp/cc4yjyBZ.s:746    .text:000000000000043c .L0 
     /tmp/cc4yjyBZ.s:748    .text:0000000000000440 .L0 
     /tmp/cc4yjyBZ.s:750    .text:0000000000000444 .L0 
     /tmp/cc4yjyBZ.s:751    .text:0000000000000444 .L0 
     /tmp/cc4yjyBZ.s:755    .text:0000000000000450 .L0 
         src/PCB.cpp:143    .text:0000000000000450 .L0 
     /tmp/cc4yjyBZ.s:763    .text:0000000000000454 .L0 
     /tmp/cc4yjyBZ.s:764    .text:0000000000000454 .L0 
     /tmp/cc4yjyBZ.s:767    .text:000000000000045c .L0 
     /tmp/cc4yjyBZ.s:768    .text:0000000000000460 .L0 
     /tmp/cc4yjyBZ.s:769    .text:0000000000000460 .L0 
     /tmp/cc4yjyBZ.s:771    .text:0000000000000464 .L0 
     /tmp/cc4yjyBZ.s:772    .text:0000000000000464 .L0 
     /tmp/cc4yjyBZ.s:774    .text:0000000000000468 .L0 
     /tmp/cc4yjyBZ.s:777    .text:000000000000046c .L0 
     /tmp/cc4yjyBZ.s:780    .text:0000000000000470 .L0 
     /tmp/cc4yjyBZ.s:783    .text:0000000000000474 .L0 
     /tmp/cc4yjyBZ.s:786    .text:0000000000000478 .L0 
     /tmp/cc4yjyBZ.s:790    .text:000000000000047c .L0 
     /tmp/cc4yjyBZ.s:792    .text:000000000000047c .L0 
         src/PCB.cpp:139    .text:000000000000047c .L0 
     /tmp/cc4yjyBZ.s:799    .text:0000000000000484 .L0 
     /tmp/cc4yjyBZ.s:805    .text:0000000000000484 _ZN3PCB18threadStartHandlerEv
     /tmp/cc4yjyBZ.s:808    .text:0000000000000484 .L0 
     /tmp/cc4yjyBZ.s:809    .text:0000000000000484 .L0 
     /tmp/cc4yjyBZ.s:810    .text:0000000000000488 .L0 
     /tmp/cc4yjyBZ.s:813    .text:0000000000000490 .L0 
     /tmp/cc4yjyBZ.s:814    .text:0000000000000490 .L0 
     /tmp/cc4yjyBZ.s:816    .text:0000000000000494 .L0 
     /tmp/cc4yjyBZ.s:818    .text:0000000000000494 .L0 
     /tmp/cc4yjyBZ.s:819    .text:0000000000000494 .L0 
         src/PCB.cpp:151    .text:0000000000000494 .L0 
     /tmp/cc4yjyBZ.s:827    .text:0000000000000498 .L0 
     /tmp/cc4yjyBZ.s:829    .text:000000000000049c .L0 
     /tmp/cc4yjyBZ.s:830    .text:000000000000049c .L0 
     /tmp/cc4yjyBZ.s:833    .text:00000000000004a4 .L0 
         src/PCB.cpp:155    .text:00000000000004a4 .L0 
     /tmp/cc4yjyBZ.s:841    .text:00000000000004a8 .L0 
GAS LISTING /tmp/cc4yjyBZ.s 			page 30


     /tmp/cc4yjyBZ.s:842    .text:00000000000004a8 .L0 
     /tmp/cc4yjyBZ.s:845    .text:00000000000004b0 .L0 
     /tmp/cc4yjyBZ.s:846    .text:00000000000004b4 .L0 
     /tmp/cc4yjyBZ.s:847    .text:00000000000004b4 .L0 
     /tmp/cc4yjyBZ.s:849    .text:00000000000004b8 .L0 
     /tmp/cc4yjyBZ.s:850    .text:00000000000004b8 .L0 
     /tmp/cc4yjyBZ.s:852    .text:00000000000004bc .L0 
     /tmp/cc4yjyBZ.s:856    .text:00000000000004c0 .L0 
     /tmp/cc4yjyBZ.s:858    .text:00000000000004c0 .L0 
         src/PCB.cpp:159    .text:00000000000004c0 .L0 
     /tmp/cc4yjyBZ.s:865    .text:00000000000004c8 .L0 
     /tmp/cc4yjyBZ.s:871    .text:00000000000004c8 _ZN3PCB20threadMakePCBHandlerEv
     /tmp/cc4yjyBZ.s:874    .text:00000000000004c8 .L0 
     /tmp/cc4yjyBZ.s:875    .text:00000000000004c8 .L0 
     /tmp/cc4yjyBZ.s:876    .text:00000000000004cc .L0 
     /tmp/cc4yjyBZ.s:883    .text:00000000000004e4 .L0 
     /tmp/cc4yjyBZ.s:884    .text:00000000000004e4 .L0 
     /tmp/cc4yjyBZ.s:885    .text:00000000000004e4 .L0 
     /tmp/cc4yjyBZ.s:886    .text:00000000000004e4 .L0 
     /tmp/cc4yjyBZ.s:887    .text:00000000000004e4 .L0 
     /tmp/cc4yjyBZ.s:888    .text:00000000000004e4 .L0 
     /tmp/cc4yjyBZ.s:890    .text:00000000000004e8 .L0 
     /tmp/cc4yjyBZ.s:892    .text:00000000000004e8 .L0 
     /tmp/cc4yjyBZ.s:893    .text:00000000000004e8 .L0 
     /tmp/cc4yjyBZ.s:894    .text:00000000000004e8 .L0 
     /tmp/cc4yjyBZ.s:895    .text:00000000000004e8 .L0 
         src/PCB.cpp:169    .text:00000000000004e8 .L0 
     /tmp/cc4yjyBZ.s:902    .text:00000000000004ec .L0 
         src/PCB.cpp:170    .text:00000000000004ec .L0 
     /tmp/cc4yjyBZ.s:908    .text:00000000000004f0 .L0 
         src/PCB.cpp:171    .text:00000000000004f0 .L0 
     /tmp/cc4yjyBZ.s:914    .text:00000000000004f4 .L0 
     /tmp/cc4yjyBZ.s:916    .text:00000000000004f4 .L0 
     /tmp/cc4yjyBZ.s:927    .text:0000000000000520 .L0 
     /tmp/cc4yjyBZ.s:928    .text:0000000000000520 .L0 
     /tmp/cc4yjyBZ.s:930    .text:0000000000000524 .L0 
     /tmp/cc4yjyBZ.s:932    .text:0000000000000528 .L0 
         src/PCB.cpp:180    .text:0000000000000528 .L0 
     /tmp/cc4yjyBZ.s:940    .text:000000000000052c .L0 
     /tmp/cc4yjyBZ.s:941    .text:000000000000052c .L0 
     /tmp/cc4yjyBZ.s:944    .text:0000000000000534 .L0 
     /tmp/cc4yjyBZ.s:945    .text:0000000000000538 .L0 
     /tmp/cc4yjyBZ.s:946    .text:0000000000000538 .L0 
     /tmp/cc4yjyBZ.s:948    .text:000000000000053c .L0 
     /tmp/cc4yjyBZ.s:949    .text:000000000000053c .L0 
     /tmp/cc4yjyBZ.s:951    .text:0000000000000540 .L0 
     /tmp/cc4yjyBZ.s:954    .text:0000000000000544 .L0 
     /tmp/cc4yjyBZ.s:957    .text:0000000000000548 .L0 
     /tmp/cc4yjyBZ.s:960    .text:000000000000054c .L0 
     /tmp/cc4yjyBZ.s:963    .text:0000000000000550 .L0 
     /tmp/cc4yjyBZ.s:967    .text:0000000000000554 .L0 
     /tmp/cc4yjyBZ.s:969    .text:0000000000000554 .L0 
         src/PCB.cpp:178    .text:0000000000000554 .L0 
     /tmp/cc4yjyBZ.s:976    .text:000000000000055c .L0 
     /tmp/cc4yjyBZ.s:992    .bss:0000000000000008 _ZN3PCB10consolePCBE
     /tmp/cc4yjyBZ.s:1000   .bss:0000000000000018 _ZN3PCB10savedRegA4E
     /tmp/cc4yjyBZ.s:996    .bss:0000000000000010 _ZN3PCB16timeSliceCounterE
GAS LISTING /tmp/cc4yjyBZ.s 			page 31


     /tmp/cc4yjyBZ.s:988    .bss:0000000000000000 _ZN3PCB7runningE
     /tmp/cc4yjyBZ.s:985    .bss:0000000000000000 .LANCHOR0
     /tmp/cc4yjyBZ.s:1011   .text:000000000000055c .L0 
     /tmp/cc4yjyBZ.s:8      .rodata.str1.8:0000000000000000 .LC0
     /tmp/cc4yjyBZ.s:29     .text:0000000000000010 .L0 
     /tmp/cc4yjyBZ.s:38     .text:0000000000000028 .L0 
     /tmp/cc4yjyBZ.s:88     .text:0000000000000084 .L0 
     /tmp/cc4yjyBZ.s:183    .text:00000000000000f8 .L0 
     /tmp/cc4yjyBZ.s:204    .text:0000000000000114 .L0 
     /tmp/cc4yjyBZ.s:417    .text:000000000000024c .L0 
     /tmp/cc4yjyBZ.s:445    .text:000000000000028c .L0 
     /tmp/cc4yjyBZ.s:511    .rodata.str1.8:0000000000000018 .LC1
     /tmp/cc4yjyBZ.s:531    .text:0000000000000304 .L0 
     /tmp/cc4yjyBZ.s:536    .text:0000000000000314 .L0 
     /tmp/cc4yjyBZ.s:595    .text:0000000000000360 .L0 
     /tmp/cc4yjyBZ.s:638    .text:0000000000000394 .L0 
     /tmp/cc4yjyBZ.s:643    .text:00000000000003a4 .L0 
     /tmp/cc4yjyBZ.s:739    .text:0000000000000424 .L0 
     /tmp/cc4yjyBZ.s:921    .text:0000000000000508 .L0 
     /tmp/cc4yjyBZ.s:245    .text:000000000000015c .L12
     /tmp/cc4yjyBZ.s:198    .text:000000000000010c .L10
     /tmp/cc4yjyBZ.s:789    .text:000000000000047c .L33
     /tmp/cc4yjyBZ.s:761    .text:0000000000000454 .L31
     /tmp/cc4yjyBZ.s:855    .text:00000000000004c0 .L35
     /tmp/cc4yjyBZ.s:839    .text:00000000000004a8 .L36
     /tmp/cc4yjyBZ.s:966    .text:0000000000000554 .L42
     /tmp/cc4yjyBZ.s:938    .text:000000000000052c .L40
     /tmp/cc4yjyBZ.s:3001   .debug_abbrev:0000000000000000 .Ldebug_abbrev0
     /tmp/cc4yjyBZ.s:4398   .debug_str:0000000000000160 .LASF209
     /tmp/cc4yjyBZ.s:4724   .debug_str:0000000000000c31 .LASF210
     /tmp/cc4yjyBZ.s:4714   .debug_str:0000000000000bca .LASF211
     /tmp/cc4yjyBZ.s:5      .text:0000000000000000 .Ltext0
     /tmp/cc4yjyBZ.s:1003   .text:000000000000055c .Letext0
     /tmp/cc4yjyBZ.s:4352   .debug_line:0000000000000000 .Ldebug_line0
     /tmp/cc4yjyBZ.s:4502   .debug_str:0000000000000529 .LASF0
     /tmp/cc4yjyBZ.s:4534   .debug_str:0000000000000627 .LASF1
     /tmp/cc4yjyBZ.s:4640   .debug_str:00000000000009b4 .LASF2
     /tmp/cc4yjyBZ.s:4652   .debug_str:0000000000000a09 .LASF4
     /tmp/cc4yjyBZ.s:4520   .debug_str:00000000000005ad .LASF3
     /tmp/cc4yjyBZ.s:4366   .debug_str:0000000000000056 .LASF5
     /tmp/cc4yjyBZ.s:4614   .debug_str:00000000000008de .LASF6
     /tmp/cc4yjyBZ.s:4604   .debug_str:0000000000000893 .LASF7
     /tmp/cc4yjyBZ.s:4526   .debug_str:00000000000005ee .LASF8
     /tmp/cc4yjyBZ.s:4478   .debug_str:000000000000046c .LASF9
     /tmp/cc4yjyBZ.s:4484   .debug_str:00000000000004af .LASF10
     /tmp/cc4yjyBZ.s:4418   .debug_str:00000000000002b1 .LASF11
     /tmp/cc4yjyBZ.s:4468   .debug_str:0000000000000435 .LASF12
     /tmp/cc4yjyBZ.s:4424   .debug_str:00000000000002d3 .LASF13
     /tmp/cc4yjyBZ.s:4416   .debug_str:00000000000002a1 .LASF14
     /tmp/cc4yjyBZ.s:4690   .debug_str:0000000000000b3d .LASF15
     /tmp/cc4yjyBZ.s:4460   .debug_str:00000000000003d7 .LASF16
     /tmp/cc4yjyBZ.s:4680   .debug_str:0000000000000acc .LASF17
     /tmp/cc4yjyBZ.s:4700   .debug_str:0000000000000b7c .LASF212
     /tmp/cc4yjyBZ.s:4408   .debug_str:000000000000025d .LASF18
     /tmp/cc4yjyBZ.s:4674   .debug_str:0000000000000aab .LASF19
     /tmp/cc4yjyBZ.s:4422   .debug_str:00000000000002c9 .LASF20
     /tmp/cc4yjyBZ.s:4394   .debug_str:0000000000000149 .LASF21
GAS LISTING /tmp/cc4yjyBZ.s 			page 32


     /tmp/cc4yjyBZ.s:4608   .debug_str:00000000000008bc .LASF22
     /tmp/cc4yjyBZ.s:4420   .debug_str:00000000000002c0 .LASF23
     /tmp/cc4yjyBZ.s:4692   .debug_str:0000000000000b49 .LASF86
     /tmp/cc4yjyBZ.s:4490   .debug_str:00000000000004e2 .LASF24
     /tmp/cc4yjyBZ.s:4370   .debug_str:0000000000000068 .LASF29
     /tmp/cc4yjyBZ.s:4718   .debug_str:0000000000000bf5 .LASF213
     /tmp/cc4yjyBZ.s:4592   .debug_str:000000000000083a .LASF214
     /tmp/cc4yjyBZ.s:4532   .debug_str:0000000000000622 .LASF25
     /tmp/cc4yjyBZ.s:4776   .debug_str:0000000000000dc5 .LASF27
     /tmp/cc4yjyBZ.s:4770   .debug_str:0000000000000d95 .LASF26
     /tmp/cc4yjyBZ.s:4708   .debug_str:0000000000000b9c .LASF28
     /tmp/cc4yjyBZ.s:4446   .debug_str:0000000000000379 .LASF54
     /tmp/cc4yjyBZ.s:4378   .debug_str:00000000000000b3 .LASF56
     /tmp/cc4yjyBZ.s:4536   .debug_str:000000000000063a .LASF34
     /tmp/cc4yjyBZ.s:4596   .debug_str:0000000000000852 .LASF36
     /tmp/cc4yjyBZ.s:4704   .debug_str:0000000000000b8c .LASF30
     /tmp/cc4yjyBZ.s:4664   .debug_str:0000000000000a46 .LASF31
     /tmp/cc4yjyBZ.s:4538   .debug_str:0000000000000640 .LASF38
     /tmp/cc4yjyBZ.s:4544   .debug_str:0000000000000677 .LASF40
     /tmp/cc4yjyBZ.s:4780   .debug_str:0000000000000de9 .LASF32
     /tmp/cc4yjyBZ.s:4462   .debug_str:00000000000003ed .LASF33
     /tmp/cc4yjyBZ.s:4358   .debug_str:000000000000001f .LASF35
     /tmp/cc4yjyBZ.s:4514   .debug_str:0000000000000581 .LASF37
     /tmp/cc4yjyBZ.s:4668   .debug_str:0000000000000a68 .LASF39
     /tmp/cc4yjyBZ.s:4570   .debug_str:0000000000000765 .LASF41
     /tmp/cc4yjyBZ.s:4650   .debug_str:0000000000000a00 .LASF42
     /tmp/cc4yjyBZ.s:4686   .debug_str:0000000000000b1a .LASF43
     /tmp/cc4yjyBZ.s:4572   .debug_str:0000000000000778 .LASF44
     /tmp/cc4yjyBZ.s:4354   .debug_str:0000000000000000 .LASF45
     /tmp/cc4yjyBZ.s:4756   .debug_str:0000000000000d1d .LASF46
     /tmp/cc4yjyBZ.s:4602   .debug_str:0000000000000879 .LASF47
     /tmp/cc4yjyBZ.s:4678   .debug_str:0000000000000abe .LASF48
     /tmp/cc4yjyBZ.s:4616   .debug_str:00000000000008e5 .LASF49
     /tmp/cc4yjyBZ.s:4442   .debug_str:0000000000000357 .LASF50
     /tmp/cc4yjyBZ.s:4472   .debug_str:000000000000044c .LASF51
     /tmp/cc4yjyBZ.s:4632   .debug_str:0000000000000973 .LASF52
     /tmp/cc4yjyBZ.s:4762   .debug_str:0000000000000d51 .LASF53
     /tmp/cc4yjyBZ.s:4522   .debug_str:00000000000005bf .LASF60
     /tmp/cc4yjyBZ.s:4676   .debug_str:0000000000000ab3 .LASF55
     /tmp/cc4yjyBZ.s:4774   .debug_str:0000000000000daf .LASF57
     /tmp/cc4yjyBZ.s:4694   .debug_str:0000000000000b51 .LASF58
     /tmp/cc4yjyBZ.s:4434   .debug_str:000000000000032a .LASF59
     /tmp/cc4yjyBZ.s:4660   .debug_str:0000000000000a30 .LASF61
     /tmp/cc4yjyBZ.s:4504   .debug_str:0000000000000536 .LASF62
     /tmp/cc4yjyBZ.s:4580   .debug_str:00000000000007b2 .LASF63
     /tmp/cc4yjyBZ.s:4428   .debug_str:00000000000002f4 .LASF64
     /tmp/cc4yjyBZ.s:4620   .debug_str:00000000000008f8 .LASF65
     /tmp/cc4yjyBZ.s:4790   .debug_str:0000000000000e21 .LASF66
     /tmp/cc4yjyBZ.s:4584   .debug_str:00000000000007d8 .LASF67
     /tmp/cc4yjyBZ.s:4648   .debug_str:00000000000009ed .LASF68
     /tmp/cc4yjyBZ.s:4670   .debug_str:0000000000000a71 .LASF69
     /tmp/cc4yjyBZ.s:4730   .debug_str:0000000000000c4b .LASF70
     /tmp/cc4yjyBZ.s:4560   .debug_str:0000000000000708 .LASF71
     /tmp/cc4yjyBZ.s:4720   .debug_str:0000000000000c0d .LASF72
     /tmp/cc4yjyBZ.s:4684   .debug_str:0000000000000afa .LASF73
     /tmp/cc4yjyBZ.s:4450   .debug_str:0000000000000388 .LASF74
     /tmp/cc4yjyBZ.s:4506   .debug_str:000000000000054a .LASF75
GAS LISTING /tmp/cc4yjyBZ.s 			page 33


     /tmp/cc4yjyBZ.s:4712   .debug_str:0000000000000bc0 .LASF76
     /tmp/cc4yjyBZ.s:4598   .debug_str:0000000000000862 .LASF77
     /tmp/cc4yjyBZ.s:4768   .debug_str:0000000000000d87 .LASF78
     /tmp/cc4yjyBZ.s:4382   .debug_str:00000000000000d3 .LASF80
     /tmp/cc4yjyBZ.s:4464   .debug_str:00000000000003f9 .LASF79
     /tmp/cc4yjyBZ.s:4406   .debug_str:0000000000000231 .LASF81
     /tmp/cc4yjyBZ.s:4754   .debug_str:0000000000000d16 .LASF215
     /tmp/cc4yjyBZ.s:4402   .debug_str:0000000000000212 .LASF216
     /tmp/cc4yjyBZ.s:4356   .debug_str:000000000000001a .LASF82
     /tmp/cc4yjyBZ.s:4728   .debug_str:0000000000000c46 .LASF83
     /tmp/cc4yjyBZ.s:4548   .debug_str:00000000000006aa .LASF84
     /tmp/cc4yjyBZ.s:4448   .debug_str:0000000000000382 .LASF85
     /tmp/cc4yjyBZ.s:4716   .debug_str:0000000000000bed .LASF87
     /tmp/cc4yjyBZ.s:4476   .debug_str:0000000000000462 .LASF88
     /tmp/cc4yjyBZ.s:4372   .debug_str:0000000000000073 .LASF217
     /tmp/cc4yjyBZ.s:4772   .debug_str:0000000000000d9b .LASF218
     /tmp/cc4yjyBZ.s:4390   .debug_str:0000000000000124 .LASF89
     /tmp/cc4yjyBZ.s:4594   .debug_str:000000000000083f .LASF90
     /tmp/cc4yjyBZ.s:4706   .debug_str:0000000000000b94 .LASF91
     /tmp/cc4yjyBZ.s:4634   .debug_str:0000000000000980 .LASF120
     /tmp/cc4yjyBZ.s:4400   .debug_str:000000000000020c .LASF92
     /tmp/cc4yjyBZ.s:4578   .debug_str:000000000000079c .LASF93
     /tmp/cc4yjyBZ.s:4666   .debug_str:0000000000000a57 .LASF94
     /tmp/cc4yjyBZ.s:4426   .debug_str:00000000000002e3 .LASF95
     /tmp/cc4yjyBZ.s:4742   .debug_str:0000000000000ccc .LASF96
     /tmp/cc4yjyBZ.s:4498   .debug_str:0000000000000506 .LASF97
     /tmp/cc4yjyBZ.s:4682   .debug_str:0000000000000ae2 .LASF98
     /tmp/cc4yjyBZ.s:4760   .debug_str:0000000000000d42 .LASF99
     /tmp/cc4yjyBZ.s:4672   .debug_str:0000000000000a8f .LASF100
     /tmp/cc4yjyBZ.s:4600   .debug_str:000000000000086e .LASF101
     /tmp/cc4yjyBZ.s:4556   .debug_str:00000000000006e0 .LASF102
     /tmp/cc4yjyBZ.s:4458   .debug_str:00000000000003cd .LASF103
     /tmp/cc4yjyBZ.s:4606   .debug_str:00000000000008a6 .LASF104
     /tmp/cc4yjyBZ.s:4558   .debug_str:00000000000006f8 .LASF105
     /tmp/cc4yjyBZ.s:4736   .debug_str:0000000000000c92 .LASF106
     /tmp/cc4yjyBZ.s:4732   .debug_str:0000000000000c5e .LASF107
     /tmp/cc4yjyBZ.s:4542   .debug_str:0000000000000659 .LASF108
     /tmp/cc4yjyBZ.s:4452   .debug_str:0000000000000391 .LASF109
     /tmp/cc4yjyBZ.s:4766   .debug_str:0000000000000d63 .LASF110
     /tmp/cc4yjyBZ.s:4512   .debug_str:000000000000056f .LASF111
     /tmp/cc4yjyBZ.s:4430   .debug_str:0000000000000306 .LASF112
     /tmp/cc4yjyBZ.s:4388   .debug_str:000000000000011a .LASF113
     /tmp/cc4yjyBZ.s:4480   .debug_str:000000000000047c .LASF114
     /tmp/cc4yjyBZ.s:4662   .debug_str:0000000000000a38 .LASF115
     /tmp/cc4yjyBZ.s:4628   .debug_str:0000000000000951 .LASF116
     /tmp/cc4yjyBZ.s:4574   .debug_str:0000000000000787 .LASF117
     /tmp/cc4yjyBZ.s:4748   .debug_str:0000000000000ce7 .LASF118
     /tmp/cc4yjyBZ.s:4726   .debug_str:0000000000000c3d .LASF119
     /tmp/cc4yjyBZ.s:4362   .debug_str:0000000000000037 .LASF121
     /tmp/cc4yjyBZ.s:4786   .debug_str:0000000000000e10 .LASF122
     /tmp/cc4yjyBZ.s:4588   .debug_str:000000000000080d .LASF123
     /tmp/cc4yjyBZ.s:4618   .debug_str:00000000000008f1 .LASF124
     /tmp/cc4yjyBZ.s:4622   .debug_str:0000000000000915 .LASF125
     /tmp/cc4yjyBZ.s:4582   .debug_str:00000000000007d1 .LASF126
     /tmp/cc4yjyBZ.s:4528   .debug_str:0000000000000601 .LASF127
     /tmp/cc4yjyBZ.s:4750   .debug_str:0000000000000d01 .LASF128
     /tmp/cc4yjyBZ.s:4710   .debug_str:0000000000000bac .LASF129
GAS LISTING /tmp/cc4yjyBZ.s 			page 34


     /tmp/cc4yjyBZ.s:4576   .debug_str:0000000000000794 .LASF130
     /tmp/cc4yjyBZ.s:4586   .debug_str:00000000000007f9 .LASF131
     /tmp/cc4yjyBZ.s:4564   .debug_str:0000000000000736 .LASF132
     /tmp/cc4yjyBZ.s:4624   .debug_str:0000000000000928 .LASF133
     /tmp/cc4yjyBZ.s:4788   .debug_str:0000000000000e19 .LASF134
     /tmp/cc4yjyBZ.s:4510   .debug_str:000000000000055b .LASF135
     /tmp/cc4yjyBZ.s:4494   .debug_str:00000000000004f3 .LASF136
     /tmp/cc4yjyBZ.s:4688   .debug_str:0000000000000b36 .LASF137
     /tmp/cc4yjyBZ.s:4656   .debug_str:0000000000000a16 .LASF138
     /tmp/cc4yjyBZ.s:4658   .debug_str:0000000000000a29 .LASF139
     /tmp/cc4yjyBZ.s:4456   .debug_str:00000000000003ba .LASF140
     /tmp/cc4yjyBZ.s:4654   .debug_str:0000000000000a10 .LASF141
     /tmp/cc4yjyBZ.s:4374   .debug_str:000000000000008b .LASF142
     /tmp/cc4yjyBZ.s:4508   .debug_str:0000000000000555 .LASF143
     /tmp/cc4yjyBZ.s:4444   .debug_str:0000000000000367 .LASF144
     /tmp/cc4yjyBZ.s:4404   .debug_str:0000000000000223 .LASF145
     /tmp/cc4yjyBZ.s:4698   .debug_str:0000000000000b61 .LASF146
     /tmp/cc4yjyBZ.s:4368   .debug_str:000000000000005d .LASF147
     /tmp/cc4yjyBZ.s:4646   .debug_str:00000000000009d5 .LASF148
     /tmp/cc4yjyBZ.s:4638   .debug_str:00000000000009a9 .LASF149
     /tmp/cc4yjyBZ.s:4778   .debug_str:0000000000000dd1 .LASF150
     /tmp/cc4yjyBZ.s:4644   .debug_str:00000000000009ce .LASF151
     /tmp/cc4yjyBZ.s:4414   .debug_str:000000000000028e .LASF152
     /tmp/cc4yjyBZ.s:4746   .debug_str:0000000000000cdd .LASF153
     /tmp/cc4yjyBZ.s:4758   .debug_str:0000000000000d2c .LASF154
     /tmp/cc4yjyBZ.s:4738   .debug_str:0000000000000cb0 .LASF155
     /tmp/cc4yjyBZ.s:4376   .debug_str:000000000000009d .LASF156
     /tmp/cc4yjyBZ.s:4440   .debug_str:0000000000000351 .LASF157
     /tmp/cc4yjyBZ.s:4488   .debug_str:00000000000004d0 .LASF158
     /tmp/cc4yjyBZ.s:4496   .debug_str:0000000000000500 .LASF159
     /tmp/cc4yjyBZ.s:4740   .debug_str:0000000000000cba .LASF160
     /tmp/cc4yjyBZ.s:4492   .debug_str:00000000000004e8 .LASF161
     /tmp/cc4yjyBZ.s:4500   .debug_str:0000000000000511 .LASF162
     /tmp/cc4yjyBZ.s:4722   .debug_str:0000000000000c22 .LASF163
     /tmp/cc4yjyBZ.s:4482   .debug_str:0000000000000493 .LASF164
     /tmp/cc4yjyBZ.s:4612   .debug_str:00000000000008c9 .LASF165
     /tmp/cc4yjyBZ.s:4524   .debug_str:00000000000005cc .LASF166
     /tmp/cc4yjyBZ.s:4384   .debug_str:00000000000000fb .LASF167
     /tmp/cc4yjyBZ.s:4552   .debug_str:00000000000006b7 .LASF168
     /tmp/cc4yjyBZ.s:4630   .debug_str:000000000000096c .LASF169
     /tmp/cc4yjyBZ.s:4360   .debug_str:000000000000002f .LASF170
     /tmp/cc4yjyBZ.s:4782   .debug_str:0000000000000df6 .LASF171
     /tmp/cc4yjyBZ.s:4540   .debug_str:000000000000064d .LASF172
     /tmp/cc4yjyBZ.s:4392   .debug_str:0000000000000136 .LASF173
     /tmp/cc4yjyBZ.s:4568   .debug_str:0000000000000753 .LASF174
     /tmp/cc4yjyBZ.s:4486   .debug_str:00000000000004bd .LASF175
     /tmp/cc4yjyBZ.s:4518   .debug_str:000000000000059a .LASF176
     /tmp/cc4yjyBZ.s:4410   .debug_str:0000000000000263 .LASF177
     /tmp/cc4yjyBZ.s:4702   .debug_str:0000000000000b82 .LASF178
     /tmp/cc4yjyBZ.s:4550   .debug_str:00000000000006b2 .LASF179
     /tmp/cc4yjyBZ.s:4752   .debug_str:0000000000000d09 .LASF180
     /tmp/cc4yjyBZ.s:4562   .debug_str:0000000000000726 .LASF181
     /tmp/cc4yjyBZ.s:4454   .debug_str:00000000000003a8 .LASF182
     /tmp/cc4yjyBZ.s:4466   .debug_str:000000000000040e .LASF183
     /tmp/cc4yjyBZ.s:4396   .debug_str:0000000000000152 .LASF184
     /tmp/cc4yjyBZ.s:4734   .debug_str:0000000000000c6f .LASF185
     /tmp/cc4yjyBZ.s:4696   .debug_str:0000000000000b5c .LASF186
GAS LISTING /tmp/cc4yjyBZ.s 			page 35


     /tmp/cc4yjyBZ.s:4636   .debug_str:0000000000000998 .LASF187
     /tmp/cc4yjyBZ.s:4546   .debug_str:000000000000068f .LASF188
     /tmp/cc4yjyBZ.s:4626   .debug_str:000000000000093c .LASF189
     /tmp/cc4yjyBZ.s:4566   .debug_str:000000000000073e .LASF190
     /tmp/cc4yjyBZ.s:872    .text:00000000000004c8 .LFB43
     /tmp/cc4yjyBZ.s:977    .text:000000000000055c .LFE43
     /tmp/cc4yjyBZ.s:4530   .debug_str:0000000000000614 .LASF191
     /tmp/cc4yjyBZ.s:4067   .debug_loc:0000000000000000 .LLST23
     /tmp/cc4yjyBZ.s:4078   .debug_loc:0000000000000036 .LLST24
     /tmp/cc4yjyBZ.s:4380   .debug_str:00000000000000c6 .LASF192
     /tmp/cc4yjyBZ.s:4089   .debug_loc:000000000000006c .LLST25
     /tmp/cc4yjyBZ.s:4764   .debug_str:0000000000000d5c .LASF193
     /tmp/cc4yjyBZ.s:4100   .debug_loc:00000000000000a2 .LLST26
     /tmp/cc4yjyBZ.s:918    .text:0000000000000500 .LVL70
     /tmp/cc4yjyBZ.s:925    .text:0000000000000520 .LVL71
     /tmp/cc4yjyBZ.s:942    .text:0000000000000534 .LVL72
     /tmp/cc4yjyBZ.s:806    .text:0000000000000484 .LFB42
     /tmp/cc4yjyBZ.s:866    .text:00000000000004c8 .LFE42
     /tmp/cc4yjyBZ.s:4111   .debug_loc:00000000000000d8 .LLST22
     /tmp/cc4yjyBZ.s:831    .text:00000000000004a4 .LVL64
     /tmp/cc4yjyBZ.s:843    .text:00000000000004b0 .LVL65
     /tmp/cc4yjyBZ.s:690    .text:00000000000003e4 .LFB41
     /tmp/cc4yjyBZ.s:800    .text:0000000000000484 .LFE41
     /tmp/cc4yjyBZ.s:4122   .debug_loc:000000000000010e .LLST18
     /tmp/cc4yjyBZ.s:4133   .debug_loc:0000000000000144 .LLST19
     /tmp/cc4yjyBZ.s:4144   .debug_loc:000000000000017a .LLST20
     /tmp/cc4yjyBZ.s:4155   .debug_loc:00000000000001b0 .LLST21
     /tmp/cc4yjyBZ.s:736    .text:000000000000041c .LVL54
     /tmp/cc4yjyBZ.s:743    .text:000000000000043c .LVL55
     /tmp/cc4yjyBZ.s:753    .text:0000000000000450 .LVL56
     /tmp/cc4yjyBZ.s:765    .text:000000000000045c .LVL57
     /tmp/cc4yjyBZ.s:616    .text:0000000000000380 .LFB40
     /tmp/cc4yjyBZ.s:684    .text:00000000000003e4 .LFE40
     /tmp/cc4yjyBZ.s:4610   .debug_str:00000000000008c4 .LASF194
     /tmp/cc4yjyBZ.s:4166   .debug_loc:00000000000001e6 .LLST15
     /tmp/cc4yjyBZ.s:647    .text:00000000000003b4 .LBB22
     /tmp/cc4yjyBZ.s:654    .text:00000000000003b8 .LBE22
     /tmp/cc4yjyBZ.s:4173   .debug_loc:0000000000000209 .LLST16
     /tmp/cc4yjyBZ.s:4180   .debug_loc:000000000000022c .LLST17
     /tmp/cc4yjyBZ.s:658    .text:00000000000003c0 .LVL48
     /tmp/cc4yjyBZ.s:662    .text:00000000000003c8 .LVL49
     /tmp/cc4yjyBZ.s:673    .text:00000000000003d4 .LVL50
     /tmp/cc4yjyBZ.s:582    .text:0000000000000350 .LFB39
     /tmp/cc4yjyBZ.s:610    .text:0000000000000380 .LFE39
     /tmp/cc4yjyBZ.s:599    .text:0000000000000370 .LVL44
     /tmp/cc4yjyBZ.s:518    .text:00000000000002f4 .LFB38
     /tmp/cc4yjyBZ.s:576    .text:0000000000000350 .LFE38
     /tmp/cc4yjyBZ.s:542    .text:0000000000000324 .LBB20
     /tmp/cc4yjyBZ.s:550    .text:000000000000032c .LBE20
     /tmp/cc4yjyBZ.s:4187   .debug_loc:000000000000024f .LLST13
     /tmp/cc4yjyBZ.s:4195   .debug_loc:0000000000000273 .LLST14
     /tmp/cc4yjyBZ.s:533    .text:0000000000000314 .LVL39
     /tmp/cc4yjyBZ.s:554    .text:0000000000000334 .LVL42
     /tmp/cc4yjyBZ.s:565    .text:0000000000000340 .LVL43
     /tmp/cc4yjyBZ.s:482    .text:00000000000002d0 .LFB37
     /tmp/cc4yjyBZ.s:507    .text:00000000000002f4 .LFE37
     /tmp/cc4yjyBZ.s:4438   .debug_str:000000000000034c .LASF196
GAS LISTING /tmp/cc4yjyBZ.s 			page 36


     /tmp/cc4yjyBZ.s:4202   .debug_loc:0000000000000296 .LLST12
     /tmp/cc4yjyBZ.s:372    .text:00000000000001e8 .LFB36
     /tmp/cc4yjyBZ.s:476    .text:00000000000002d0 .LFE36
     /tmp/cc4yjyBZ.s:4744   .debug_str:0000000000000cd2 .LASF195
     /tmp/cc4yjyBZ.s:4216   .debug_loc:00000000000002cf .LLST9
     /tmp/cc4yjyBZ.s:421    .text:0000000000000258 .LBB18
     /tmp/cc4yjyBZ.s:429    .text:0000000000000260 .LBE18
     /tmp/cc4yjyBZ.s:4223   .debug_loc:00000000000002f2 .LLST10
     /tmp/cc4yjyBZ.s:4231   .debug_loc:0000000000000316 .LLST11
     /tmp/cc4yjyBZ.s:395    .text:0000000000000214 .LVL26
     /tmp/cc4yjyBZ.s:402    .text:0000000000000230 .LVL27
     /tmp/cc4yjyBZ.s:407    .text:000000000000023c .LVL28
     /tmp/cc4yjyBZ.s:415    .text:000000000000024c .LVL29
     /tmp/cc4yjyBZ.s:434    .text:000000000000026c .LVL32
     /tmp/cc4yjyBZ.s:439    .text:000000000000027c .LVL33
     /tmp/cc4yjyBZ.s:447    .text:000000000000029c .LVL35
     /tmp/cc4yjyBZ.s:457    .text:00000000000002b0 .LVL36
     /tmp/cc4yjyBZ.s:4364   .debug_str:000000000000004c .LASF197
     /tmp/cc4yjyBZ.s:4436   .debug_str:0000000000000340 .LASF200
     /tmp/cc4yjyBZ.s:324    .text:00000000000001bc .LFB34
     /tmp/cc4yjyBZ.s:356    .text:00000000000001e8 .LFE34
     /tmp/cc4yjyBZ.s:4238   .debug_loc:0000000000000339 .LLST8
     /tmp/cc4yjyBZ.s:344    .text:00000000000001d8 .LVL25
     /tmp/cc4yjyBZ.s:292    .text:0000000000000194 .LFB32
     /tmp/cc4yjyBZ.s:318    .text:00000000000001bc .LFE32
     /tmp/cc4yjyBZ.s:4252   .debug_loc:0000000000000372 .LLST7
     /tmp/cc4yjyBZ.s:307    .text:00000000000001ac .LVL22
     /tmp/cc4yjyBZ.s:260    .text:000000000000016c .LFB31
     /tmp/cc4yjyBZ.s:286    .text:0000000000000194 .LFE31
     /tmp/cc4yjyBZ.s:4432   .debug_str:0000000000000325 .LASF198
     /tmp/cc4yjyBZ.s:4266   .debug_loc:00000000000003ab .LLST6
     /tmp/cc4yjyBZ.s:275    .text:0000000000000184 .LVL20
     /tmp/cc4yjyBZ.s:166    .text:00000000000000e0 .LFB30
     /tmp/cc4yjyBZ.s:254    .text:000000000000016c .LFE30
     /tmp/cc4yjyBZ.s:4280   .debug_loc:00000000000003e4 .LLST2
     /tmp/cc4yjyBZ.s:186    .text:0000000000000100 .LBB13
     /tmp/cc4yjyBZ.s:194    .text:0000000000000104 .LBE13
     /tmp/cc4yjyBZ.s:4291   .debug_loc:000000000000041a .LLST3
     /tmp/cc4yjyBZ.s:208    .text:0000000000000120 .LBB15
     /tmp/cc4yjyBZ.s:216    .text:0000000000000128 .LBE15
     /tmp/cc4yjyBZ.s:4298   .debug_loc:000000000000043d .LLST4
     /tmp/cc4yjyBZ.s:4306   .debug_loc:0000000000000461 .LLST5
     /tmp/cc4yjyBZ.s:202    .text:0000000000000114 .LVL11
     /tmp/cc4yjyBZ.s:220    .text:0000000000000130 .LVL14
     /tmp/cc4yjyBZ.s:228    .text:0000000000000144 .LVL15
     /tmp/cc4yjyBZ.s:251    .text:0000000000000168 .LVL18
     /tmp/cc4yjyBZ.s:15     .text:0000000000000000 .LFB29
     /tmp/cc4yjyBZ.s:58     .text:0000000000000054 .LFE29
     /tmp/cc4yjyBZ.s:31     .text:0000000000000020 .LVL0
     /tmp/cc4yjyBZ.s:35     .text:0000000000000028 .LVL1
     /tmp/cc4yjyBZ.s:47     .text:0000000000000044 .LVL3
     /tmp/cc4yjyBZ.s:134    .text:00000000000000b8 .LFB28
     /tmp/cc4yjyBZ.s:160    .text:00000000000000e0 .LFE28
     /tmp/cc4yjyBZ.s:4313   .debug_loc:0000000000000484 .LLST1
     /tmp/cc4yjyBZ.s:149    .text:00000000000000d0 .LVL8
     /tmp/cc4yjyBZ.s:110    .text:00000000000000a0 .LFB27
     /tmp/cc4yjyBZ.s:128    .text:00000000000000b8 .LFE27
GAS LISTING /tmp/cc4yjyBZ.s 			page 37


     /tmp/cc4yjyBZ.s:4554   .debug_str:00000000000006d4 .LASF199
     /tmp/cc4yjyBZ.s:4590   .debug_str:0000000000000822 .LASF201
     /tmp/cc4yjyBZ.s:64     .text:0000000000000054 .LFB25
     /tmp/cc4yjyBZ.s:102    .text:00000000000000a0 .LFE25
     /tmp/cc4yjyBZ.s:4327   .debug_loc:00000000000004bd .LLST0
     /tmp/cc4yjyBZ.s:4412   .debug_str:0000000000000277 .LASF202
     /tmp/cc4yjyBZ.s:4386   .debug_str:000000000000010a .LASF204
     /tmp/cc4yjyBZ.s:4642   .debug_str:00000000000009c2 .LASF203
     /tmp/cc4yjyBZ.s:4470   .debug_str:0000000000000444 .LASF205
     /tmp/cc4yjyBZ.s:4784   .debug_str:0000000000000e05 .LASF206
     /tmp/cc4yjyBZ.s:4474   .debug_str:000000000000045c .LASF207
     /tmp/cc4yjyBZ.s:4516   .debug_str:000000000000058e .LASF208
     /tmp/cc4yjyBZ.s:906    .text:00000000000004f0 .LVL68
     /tmp/cc4yjyBZ.s:958    .text:0000000000000548 .LVL75
     /tmp/cc4yjyBZ.s:965    .text:0000000000000554 .LVL77
     /tmp/cc4yjyBZ.s:912    .text:00000000000004f4 .LVL69
     /tmp/cc4yjyBZ.s:961    .text:000000000000054c .LVL76
     /tmp/cc4yjyBZ.s:900    .text:00000000000004ec .LVL67
     /tmp/cc4yjyBZ.s:955    .text:0000000000000544 .LVL74
     /tmp/cc4yjyBZ.s:952    .text:0000000000000540 .LVL73
     /tmp/cc4yjyBZ.s:824    .text:0000000000000498 .LVL63
     /tmp/cc4yjyBZ.s:854    .text:00000000000004c0 .LVL66
     /tmp/cc4yjyBZ.s:724    .text:000000000000040c .LVL52
     /tmp/cc4yjyBZ.s:781    .text:0000000000000470 .LVL60
     /tmp/cc4yjyBZ.s:788    .text:000000000000047c .LVL62
     /tmp/cc4yjyBZ.s:730    .text:0000000000000410 .LVL53
     /tmp/cc4yjyBZ.s:784    .text:0000000000000474 .LVL61
     /tmp/cc4yjyBZ.s:718    .text:0000000000000408 .LVL51
     /tmp/cc4yjyBZ.s:778    .text:000000000000046c .LVL59
     /tmp/cc4yjyBZ.s:775    .text:0000000000000468 .LVL58
     /tmp/cc4yjyBZ.s:634    .text:0000000000000394 .LVL45
     /tmp/cc4yjyBZ.s:646    .text:00000000000003b4 .LVL46
     /tmp/cc4yjyBZ.s:652    .text:00000000000003b8 .LVL47
     /tmp/cc4yjyBZ.s:541    .text:0000000000000324 .LVL40
     /tmp/cc4yjyBZ.s:548    .text:000000000000032c .LVL41
     /tmp/cc4yjyBZ.s:485    .text:00000000000002d0 .LVL37
     /tmp/cc4yjyBZ.s:495    .text:00000000000002e0 .LVL38
     /tmp/cc4yjyBZ.s:441    .text:0000000000000280 .LVL34
     /tmp/cc4yjyBZ.s:420    .text:0000000000000258 .LVL30
     /tmp/cc4yjyBZ.s:427    .text:0000000000000260 .LVL31
     /tmp/cc4yjyBZ.s:329    .text:00000000000001bc .LVL23
     /tmp/cc4yjyBZ.s:342    .text:00000000000001d0 .LVL24
     /tmp/cc4yjyBZ.s:295    .text:0000000000000194 .LVL21
     /tmp/cc4yjyBZ.s:263    .text:000000000000016c .LVL19
     /tmp/cc4yjyBZ.s:184    .text:0000000000000100 .LVL9
     /tmp/cc4yjyBZ.s:238    .text:0000000000000150 .LVL16
     /tmp/cc4yjyBZ.s:244    .text:000000000000015c .LVL17
     /tmp/cc4yjyBZ.s:192    .text:0000000000000104 .LVL10
     /tmp/cc4yjyBZ.s:207    .text:0000000000000120 .LVL12
     /tmp/cc4yjyBZ.s:214    .text:0000000000000128 .LVL13
     /tmp/cc4yjyBZ.s:137    .text:00000000000000b8 .LVL7
     /tmp/cc4yjyBZ.s:67     .text:0000000000000054 .LVL4
     /tmp/cc4yjyBZ.s:85     .text:0000000000000080 .LVL5
     /tmp/cc4yjyBZ.s:1012   .debug_info:0000000000000000 .Ldebug_info0
     /tmp/cc4yjyBZ.s:359    .gcc_except_table:0000000000000000 .LLSDA34

UNDEFINED SYMBOLS
GAS LISTING /tmp/cc4yjyBZ.s 			page 38


_Z15trapPrintStringPKc
_ZN5Riscv10popSppSpieEv
thread_exit
_ZN9Scheduler3putEP3PCB
_ZN9Scheduler3getEv
_ZN5Riscv14changePrivModeEv
_ZN3PCB13contextSwitchEPNS_7ContextES1_
_Z7kmallocm
_Z5kfreePv
__gxx_personality_v0
_ZN8KConsole23sendCharactersToConsoleEPv
_ZN5Riscv13w_a0_sscratchEv
_ZN5Riscv9totalTimeE
_ZN12SleepPCBList17insertSleepingPCBEv
