GAS LISTING /tmp/ccVoSu4g.s 			page 1


   1              		.file	"PCB.cpp"
   2              		.option pic
   3              		.option norelax
   4              		.text
   5              	.Ltext0:
   6              		.section	.rodata.str1.8,"aMS",@progbits,1
   7              		.align	3
   8              	.LC0:
   9 0000 52756E6E 		.string	"Runner started...\n"
   9      65722073 
   9      74617274 
   9      65642E2E 
   9      2E0A00
  10 0013 00000000 		.align	3
  10      00
  11              	.LC1:
  12 0018 54687265 		.string	"Thread finished\n"
  12      61642066 
  12      696E6973 
  12      6865640A 
  12      00
  13              		.text
  14              		.align	2
  15              		.globl	_ZN3PCB6runnerEv
  17              	_ZN3PCB6runnerEv:
  18              	.LFB24:
  19              		.file 1 "src/PCB.cpp"
   1:src/PCB.cpp   **** //
   2:src/PCB.cpp   **** // Created by os on 4/27/22.
   3:src/PCB.cpp   **** //
   4:src/PCB.cpp   **** 
   5:src/PCB.cpp   **** #include "../h/PCB.h"
   6:src/PCB.cpp   **** #include "../h/syscall_c.h"
   7:src/PCB.cpp   **** 
   8:src/PCB.cpp   **** PCB* PCB::running = 0;
   9:src/PCB.cpp   **** PCB* PCB::exitingPCB = 0;
  10:src/PCB.cpp   **** uint64 PCB::timeSliceCounter = 0;
  11:src/PCB.cpp   **** 
  12:src/PCB.cpp   **** PCB::PCB(Body body, void *args, void* stack_space, uint64 timeSlice) :
  13:src/PCB.cpp   ****     timeSlice(timeSlice),
  14:src/PCB.cpp   ****     body(body),
  15:src/PCB.cpp   ****     args(args),
  16:src/PCB.cpp   ****     beginSP(stack_space),
  17:src/PCB.cpp   ****     context({
  18:src/PCB.cpp   ****         (uint64)((char*)stack_space + DEFAULT_STACK_SIZE),
  19:src/PCB.cpp   ****         (uint64)&PCB::runner
  20:src/PCB.cpp   ****     })
  21:src/PCB.cpp   **** {
  22:src/PCB.cpp   ****     Scheduler::put(this);
  23:src/PCB.cpp   **** }
  24:src/PCB.cpp   **** 
  25:src/PCB.cpp   **** void PCB::sleep(time_t time)
  26:src/PCB.cpp   **** {
  27:src/PCB.cpp   ****     //todo
  28:src/PCB.cpp   **** }
  29:src/PCB.cpp   **** 
  30:src/PCB.cpp   **** //todo
GAS LISTING /tmp/ccVoSu4g.s 			page 2


  31:src/PCB.cpp   **** //da li ovde vec treba da bude lockovano
  32:src/PCB.cpp   **** //ili treba ovde bas lock da se uradi
  33:src/PCB.cpp   **** //ili se ovo uvek poziva iz sistemskog rezima
  34:src/PCB.cpp   **** void PCB::start()
  35:src/PCB.cpp   **** {
  36:src/PCB.cpp   ****     Scheduler::put(this);
  37:src/PCB.cpp   **** }
  38:src/PCB.cpp   **** 
  39:src/PCB.cpp   **** //todo
  40:src/PCB.cpp   **** void PCB::runner()
  41:src/PCB.cpp   **** {
  20              		.loc 1 41 1
  21              		.cfi_startproc
  22 0000 130101FE 		addi	sp,sp,-32
  23              		.cfi_def_cfa_offset 32
  24 0004 233C1100 		sd	ra,24(sp)
  25 0008 23388100 		sd	s0,16(sp)
  26 000c 23349100 		sd	s1,8(sp)
  27              		.cfi_offset 1, -8
  28              		.cfi_offset 8, -16
  29              		.cfi_offset 9, -24
  30 0010 13040102 		addi	s0,sp,32
  31              		.cfi_def_cfa 8, 0
  42:src/PCB.cpp   ****     Riscv::printString("Runner started...\n");
  32              		.loc 1 42 5
  33              		.loc 1 42 23 is_stmt 0
  34 0014 17050000 		lla	a0,.LC0
  34      13050500 
  35 001c 97000000 		call	_ZN5Riscv11printStringEPKc@plt
  35      E7800000 
  36              	.LVL0:
  43:src/PCB.cpp   ****     Riscv::popSppSpie();
  37              		.loc 1 43 5 is_stmt 1
  38              		.loc 1 43 22 is_stmt 0
  39 0024 97000000 		call	_ZN5Riscv10popSppSpieEv@plt
  39      E7800000 
  40              	.LVL1:
  44:src/PCB.cpp   ****     running->body(running->args);
  41              		.loc 1 44 5 is_stmt 1
  42              		.loc 1 44 14 is_stmt 0
  43 002c 97040000 		lla	s1,.LANCHOR0
  43      93840400 
  44 0034 83B70400 		ld	a5,0(s1)
  45 0038 03B78700 		ld	a4,8(a5)
  46              		.loc 1 44 18
  47 003c 03B50701 		ld	a0,16(a5)
  48 0040 E7000700 		jalr	a4
  49              	.LVL2:
  45:src/PCB.cpp   ****     running->setState(PCB::FINISHED);
  50              		.loc 1 45 5 is_stmt 1
  51              		.loc 1 45 22 is_stmt 0
  52 0044 83B70400 		ld	a5,0(s1)
  53              	.LVL3:
  54              	.LBB8:
  55              	.LBB9:
  56              		.file 2 "src/../h/PCB.h"
   1:src/../h/PCB.h **** //
GAS LISTING /tmp/ccVoSu4g.s 			page 3


   2:src/../h/PCB.h **** // Created by os on 4/27/22.
   3:src/../h/PCB.h **** //
   4:src/../h/PCB.h **** 
   5:src/../h/PCB.h **** #ifndef PROJECT_BASE_V1_0_PCB_H
   6:src/../h/PCB.h **** #define PROJECT_BASE_V1_0_PCB_H
   7:src/../h/PCB.h **** 
   8:src/../h/PCB.h **** #include "../lib/hw.h"
   9:src/../h/PCB.h **** #include "Scheduler.h"
  10:src/../h/PCB.h **** #include "Riscv.h"
  11:src/../h/PCB.h **** 
  12:src/../h/PCB.h **** class PCB
  13:src/../h/PCB.h **** {
  14:src/../h/PCB.h **** public:
  15:src/../h/PCB.h ****     using Body = void (*)(void*);
  16:src/../h/PCB.h **** 
  17:src/../h/PCB.h ****     PCB(Body body,  void* args, void* stack_space, uint64 timeSlice);
  18:src/../h/PCB.h ****     ~PCB();
  19:src/../h/PCB.h **** 
  20:src/../h/PCB.h ****     void start();
  21:src/../h/PCB.h ****     static void dispatch();
  22:src/../h/PCB.h ****     static void sleep(time_t);
  23:src/../h/PCB.h **** 
  24:src/../h/PCB.h ****     static PCB* running;
  25:src/../h/PCB.h ****     static PCB* exitingPCB;
  26:src/../h/PCB.h **** 
  27:src/../h/PCB.h ****     static uint64 timeSliceCounter;
  28:src/../h/PCB.h ****     uint64 getTimeSlice() { return timeSlice;}
  29:src/../h/PCB.h **** 
  30:src/../h/PCB.h ****     void* operator new(size_t size);
  31:src/../h/PCB.h ****     void operator delete(void *p);
  32:src/../h/PCB.h **** 
  33:src/../h/PCB.h ****     enum State{READY, RUNNING, SUSPENDED, FINISHED, EXITING};
  34:src/../h/PCB.h ****     State getState() {return state;}
  35:src/../h/PCB.h ****     void setState(State s) {state = s;}
  57              		.loc 2 35 29 is_stmt 1
  58              		.loc 2 35 35 is_stmt 0
  59 0048 13073000 		li	a4,3
  60 004c 23A0E702 		sw	a4,32(a5)
  61              	.LVL4:
  62              	.LBE9:
  63              	.LBE8:
  46:src/PCB.cpp   ****     Riscv::printString("Thread finished\n");
  64              		.loc 1 46 5 is_stmt 1
  65              		.loc 1 46 23 is_stmt 0
  66 0050 17050000 		lla	a0,.LC1
  66      13050500 
  67 0058 97000000 		call	_ZN5Riscv11printStringEPKc@plt
  67      E7800000 
  68              	.LVL5:
  47:src/PCB.cpp   **** 
  48:src/PCB.cpp   ****     //todo
  49:src/PCB.cpp   ****     //da li thread_exit ili dispatch
  50:src/PCB.cpp   ****     //thread_exit();
  51:src/PCB.cpp   ****     thread_dispatch();
  69              		.loc 1 51 5 is_stmt 1
  70              		.loc 1 51 20 is_stmt 0
  71 0060 97000000 		call	thread_dispatch@plt
GAS LISTING /tmp/ccVoSu4g.s 			page 4


  71      E7800000 
  72              	.LVL6:
  52:src/PCB.cpp   **** }
  73              		.loc 1 52 1
  74 0068 83308101 		ld	ra,24(sp)
  75              		.cfi_restore 1
  76 006c 03340101 		ld	s0,16(sp)
  77              		.cfi_restore 8
  78              		.cfi_def_cfa 2, 32
  79 0070 83348100 		ld	s1,8(sp)
  80              		.cfi_restore 9
  81 0074 13010102 		addi	sp,sp,32
  82              		.cfi_def_cfa_offset 0
  83 0078 67800000 		jr	ra
  84              		.cfi_endproc
  85              	.LFE24:
  87              		.align	2
  88              		.globl	_ZN3PCBC2EPFvPvES0_S0_m
  90              	_ZN3PCBC2EPFvPvES0_S0_m:
  91              	.LFB20:
  12:src/PCB.cpp   ****     timeSlice(timeSlice),
  92              		.loc 1 12 1 is_stmt 1
  93              		.cfi_startproc
  94              	.LVL7:
  95 007c 130101FF 		addi	sp,sp,-16
  96              		.cfi_def_cfa_offset 16
  97 0080 23341100 		sd	ra,8(sp)
  98 0084 23308100 		sd	s0,0(sp)
  99              		.cfi_offset 1, -8
 100              		.cfi_offset 8, -16
 101 0088 13040101 		addi	s0,sp,16
 102              		.cfi_def_cfa 8, 0
 103              	.LBB10:
  20:src/PCB.cpp   **** {
 104              		.loc 1 20 6 is_stmt 0
 105 008c 2330E500 		sd	a4,0(a0)
 106 0090 2334B500 		sd	a1,8(a0)
 107 0094 2338C500 		sd	a2,16(a0)
 108 0098 233CD500 		sd	a3,24(a0)
  18:src/PCB.cpp   ****         (uint64)&PCB::runner
 109              		.loc 1 18 37
 110 009c 37170000 		li	a4,4096
 111              	.LVL8:
 112 00a0 B386E600 		add	a3,a3,a4
 113              	.LVL9:
  20:src/PCB.cpp   **** {
 114              		.loc 1 20 6
 115 00a4 2334D502 		sd	a3,40(a0)
 116 00a8 17070000 		lla	a4,_ZN3PCB6runnerEv
 116      13070700 
 117 00b0 2338E502 		sd	a4,48(a0)
  22:src/PCB.cpp   **** }
 118              		.loc 1 22 5 is_stmt 1
  22:src/PCB.cpp   **** }
 119              		.loc 1 22 19 is_stmt 0
 120 00b4 97000000 		call	_ZN9Scheduler3putEP3PCB@plt
 120      E7800000 
GAS LISTING /tmp/ccVoSu4g.s 			page 5


 121              	.LVL10:
 122              	.LBE10:
  23:src/PCB.cpp   **** 
 123              		.loc 1 23 1
 124 00bc 83308100 		ld	ra,8(sp)
 125              		.cfi_restore 1
 126 00c0 03340100 		ld	s0,0(sp)
 127              		.cfi_restore 8
 128              		.cfi_def_cfa 2, 16
 129 00c4 13010101 		addi	sp,sp,16
 130              		.cfi_def_cfa_offset 0
 131 00c8 67800000 		jr	ra
 132              		.cfi_endproc
 133              	.LFE20:
 135              		.globl	_ZN3PCBC1EPFvPvES0_S0_m
 136              		.set	_ZN3PCBC1EPFvPvES0_S0_m,_ZN3PCBC2EPFvPvES0_S0_m
 137              		.align	2
 138              		.globl	_ZN3PCB5sleepEm
 140              	_ZN3PCB5sleepEm:
 141              	.LFB22:
  26:src/PCB.cpp   ****     //todo
 142              		.loc 1 26 1 is_stmt 1
 143              		.cfi_startproc
 144              	.LVL11:
 145 00cc 130101FF 		addi	sp,sp,-16
 146              		.cfi_def_cfa_offset 16
 147 00d0 23348100 		sd	s0,8(sp)
 148              		.cfi_offset 8, -8
 149 00d4 13040101 		addi	s0,sp,16
 150              		.cfi_def_cfa 8, 0
  28:src/PCB.cpp   **** 
 151              		.loc 1 28 1 is_stmt 0
 152 00d8 03348100 		ld	s0,8(sp)
 153              		.cfi_restore 8
 154              		.cfi_def_cfa 2, 16
 155 00dc 13010101 		addi	sp,sp,16
 156              		.cfi_def_cfa_offset 0
 157 00e0 67800000 		jr	ra
 158              		.cfi_endproc
 159              	.LFE22:
 161              		.align	2
 162              		.globl	_ZN3PCB5startEv
 164              	_ZN3PCB5startEv:
 165              	.LFB23:
  35:src/PCB.cpp   ****     Scheduler::put(this);
 166              		.loc 1 35 1 is_stmt 1
 167              		.cfi_startproc
 168              	.LVL12:
 169 00e4 130101FF 		addi	sp,sp,-16
 170              		.cfi_def_cfa_offset 16
 171 00e8 23341100 		sd	ra,8(sp)
 172 00ec 23308100 		sd	s0,0(sp)
 173              		.cfi_offset 1, -8
 174              		.cfi_offset 8, -16
 175 00f0 13040101 		addi	s0,sp,16
 176              		.cfi_def_cfa 8, 0
  36:src/PCB.cpp   **** }
GAS LISTING /tmp/ccVoSu4g.s 			page 6


 177              		.loc 1 36 5
  36:src/PCB.cpp   **** }
 178              		.loc 1 36 19 is_stmt 0
 179 00f4 97000000 		call	_ZN9Scheduler3putEP3PCB@plt
 179      E7800000 
 180              	.LVL13:
  37:src/PCB.cpp   **** 
 181              		.loc 1 37 1
 182 00fc 83308100 		ld	ra,8(sp)
 183              		.cfi_restore 1
 184 0100 03340100 		ld	s0,0(sp)
 185              		.cfi_restore 8
 186              		.cfi_def_cfa 2, 16
 187 0104 13010101 		addi	sp,sp,16
 188              		.cfi_def_cfa_offset 0
 189 0108 67800000 		jr	ra
 190              		.cfi_endproc
 191              	.LFE23:
 193              		.align	2
 194              		.globl	_ZN3PCBnwEm
 196              	_ZN3PCBnwEm:
 197              	.LFB26:
  53:src/PCB.cpp   **** 
  54:src/PCB.cpp   **** void PCB::dispatch()
  55:src/PCB.cpp   **** {
  56:src/PCB.cpp   ****     Riscv::printString("Dispatch called...\n");
  57:src/PCB.cpp   ****     PCB* old = running;
  58:src/PCB.cpp   ****     if(old->getState() == PCB::RUNNING)
  59:src/PCB.cpp   ****         Scheduler::put(old);
  60:src/PCB.cpp   ****     PCB::running = Scheduler::get();
  61:src/PCB.cpp   ****     PCB::running->setState(PCB::RUNNING);
  62:src/PCB.cpp   ****     Riscv::printString("Switching context...\n");
  63:src/PCB.cpp   **** 
  64:src/PCB.cpp   ****     if(PCB::exitingPCB == 0)
  65:src/PCB.cpp   ****     {
  66:src/PCB.cpp   ****         PCB::contextSwitch(&old->context, &running->context);
  67:src/PCB.cpp   ****     }
  68:src/PCB.cpp   ****     else
  69:src/PCB.cpp   ****     {
  70:src/PCB.cpp   ****         delete PCB::exitingPCB;
  71:src/PCB.cpp   ****         PCB::exitingPCB = 0;
  72:src/PCB.cpp   ****         PCB::contextSwitchExiting(&running->context);
  73:src/PCB.cpp   ****     }
  74:src/PCB.cpp   **** 
  75:src/PCB.cpp   **** }
  76:src/PCB.cpp   **** 
  77:src/PCB.cpp   **** void *PCB::operator new(size_t size) {
 198              		.loc 1 77 38 is_stmt 1
 199              		.cfi_startproc
 200              	.LVL14:
 201 010c 130101FF 		addi	sp,sp,-16
 202              		.cfi_def_cfa_offset 16
 203 0110 23341100 		sd	ra,8(sp)
 204 0114 23308100 		sd	s0,0(sp)
 205              		.cfi_offset 1, -8
 206              		.cfi_offset 8, -16
 207 0118 13040101 		addi	s0,sp,16
GAS LISTING /tmp/ccVoSu4g.s 			page 7


 208              		.cfi_def_cfa 8, 0
  78:src/PCB.cpp   ****     return kmalloc(size);
 209              		.loc 1 78 5
 210              		.loc 1 78 19 is_stmt 0
 211 011c 97000000 		call	_Z7kmallocm@plt
 211      E7800000 
 212              	.LVL15:
  79:src/PCB.cpp   **** }
 213              		.loc 1 79 1
 214 0124 83308100 		ld	ra,8(sp)
 215              		.cfi_restore 1
 216 0128 03340100 		ld	s0,0(sp)
 217              		.cfi_restore 8
 218              		.cfi_def_cfa 2, 16
 219 012c 13010101 		addi	sp,sp,16
 220              		.cfi_def_cfa_offset 0
 221 0130 67800000 		jr	ra
 222              		.cfi_endproc
 223              	.LFE26:
 225              		.align	2
 226              		.globl	_ZN3PCBdlEPv
 228              	_ZN3PCBdlEPv:
 229              	.LFB27:
  80:src/PCB.cpp   **** 
  81:src/PCB.cpp   **** void PCB::operator delete(void *p) {
 230              		.loc 1 81 36 is_stmt 1
 231              		.cfi_startproc
 232              	.LVL16:
 233 0134 130101FF 		addi	sp,sp,-16
 234              		.cfi_def_cfa_offset 16
 235 0138 23341100 		sd	ra,8(sp)
 236 013c 23308100 		sd	s0,0(sp)
 237              		.cfi_offset 1, -8
 238              		.cfi_offset 8, -16
 239 0140 13040101 		addi	s0,sp,16
 240              		.cfi_def_cfa 8, 0
  82:src/PCB.cpp   ****     //todo
  83:src/PCB.cpp   ****     kfree(p);
 241              		.loc 1 83 5
 242              		.loc 1 83 10 is_stmt 0
 243 0144 97000000 		call	_Z5kfreePv@plt
 243      E7800000 
 244              	.LVL17:
  84:src/PCB.cpp   **** }
 245              		.loc 1 84 1
 246 014c 83308100 		ld	ra,8(sp)
 247              		.cfi_restore 1
 248 0150 03340100 		ld	s0,0(sp)
 249              		.cfi_restore 8
 250              		.cfi_def_cfa 2, 16
 251 0154 13010101 		addi	sp,sp,16
 252              		.cfi_def_cfa_offset 0
 253 0158 67800000 		jr	ra
 254              		.cfi_endproc
 255              	.LFE27:
 257              		.align	2
 258              		.globl	_ZN3PCBD2Ev
GAS LISTING /tmp/ccVoSu4g.s 			page 8


 260              	_ZN3PCBD2Ev:
 261              	.LFB29:
  85:src/PCB.cpp   **** 
  86:src/PCB.cpp   **** PCB::~PCB() {
 262              		.loc 1 86 1 is_stmt 1
 263              		.cfi_startproc
 264              		.cfi_personality 0x9b,DW.ref.__gxx_personality_v0
 265              		.cfi_lsda 0x1b,.LLSDA29
 266              	.LVL18:
 267 015c 130101FF 		addi	sp,sp,-16
 268              		.cfi_def_cfa_offset 16
 269 0160 23341100 		sd	ra,8(sp)
 270 0164 23308100 		sd	s0,0(sp)
 271              		.cfi_offset 1, -8
 272              		.cfi_offset 8, -16
 273 0168 13040101 		addi	s0,sp,16
 274              		.cfi_def_cfa 8, 0
 275              	.LBB11:
  87:src/PCB.cpp   ****     kfree(beginSP);
 276              		.loc 1 87 5
 277              		.loc 1 87 10 is_stmt 0
 278 016c 03358501 		ld	a0,24(a0)
 279              	.LVL19:
 280 0170 97000000 		call	_Z5kfreePv@plt
 280      E7800000 
 281              	.LVL20:
 282              	.LBE11:
  88:src/PCB.cpp   **** }
 283              		.loc 1 88 1
 284 0178 83308100 		ld	ra,8(sp)
 285              		.cfi_restore 1
 286 017c 03340100 		ld	s0,0(sp)
 287              		.cfi_restore 8
 288              		.cfi_def_cfa 2, 16
 289 0180 13010101 		addi	sp,sp,16
 290              		.cfi_def_cfa_offset 0
 291 0184 67800000 		jr	ra
 292              		.cfi_endproc
 293              	.LFE29:
 294              		.globl	__gxx_personality_v0
 295              		.section	.gcc_except_table,"a",@progbits
 296              	.LLSDA29:
 297 0000 FF       		.byte	0xff
 298 0001 FF       		.byte	0xff
 299 0002 03       		.byte	0x3
 300 0003 00       		.byte	0
 301              		.text
 303              		.globl	_ZN3PCBD1Ev
 304              		.set	_ZN3PCBD1Ev,_ZN3PCBD2Ev
 305              		.section	.rodata.str1.8
 306 0029 00000000 		.align	3
 306      000000
 307              	.LC2:
 308 0030 44697370 		.string	"Dispatch called...\n"
 308      61746368 
 308      2063616C 
 308      6C65642E 
GAS LISTING /tmp/ccVoSu4g.s 			page 9


 308      2E2E0A00 
 309 0044 00000000 		.align	3
 310              	.LC3:
 311 0048 53776974 		.string	"Switching context...\n"
 311      6368696E 
 311      6720636F 
 311      6E746578 
 311      742E2E2E 
 312              		.text
 313              		.align	2
 314              		.globl	_ZN3PCB8dispatchEv
 316              	_ZN3PCB8dispatchEv:
 317              	.LFB25:
  55:src/PCB.cpp   ****     Riscv::printString("Dispatch called...\n");
 318              		.loc 1 55 1 is_stmt 1
 319              		.cfi_startproc
 320 0188 130101FE 		addi	sp,sp,-32
 321              		.cfi_def_cfa_offset 32
 322 018c 233C1100 		sd	ra,24(sp)
 323 0190 23388100 		sd	s0,16(sp)
 324 0194 23349100 		sd	s1,8(sp)
 325 0198 23302101 		sd	s2,0(sp)
 326              		.cfi_offset 1, -8
 327              		.cfi_offset 8, -16
 328              		.cfi_offset 9, -24
 329              		.cfi_offset 18, -32
 330 019c 13040102 		addi	s0,sp,32
 331              		.cfi_def_cfa 8, 0
  56:src/PCB.cpp   ****     PCB* old = running;
 332              		.loc 1 56 5
  56:src/PCB.cpp   ****     PCB* old = running;
 333              		.loc 1 56 23 is_stmt 0
 334 01a0 17050000 		lla	a0,.LC2
 334      13050500 
 335 01a8 97000000 		call	_ZN5Riscv11printStringEPKc@plt
 335      E7800000 
 336              	.LVL21:
  57:src/PCB.cpp   ****     if(old->getState() == PCB::RUNNING)
 337              		.loc 1 57 5 is_stmt 1
  57:src/PCB.cpp   ****     if(old->getState() == PCB::RUNNING)
 338              		.loc 1 57 10 is_stmt 0
 339 01b0 17090000 		ld	s2,.LANCHOR0
 339      03390900 
 340              	.LVL22:
  58:src/PCB.cpp   ****         Scheduler::put(old);
 341              		.loc 1 58 5 is_stmt 1
 342              	.LBB12:
 343              	.LBB13:
  34:src/../h/PCB.h ****     void setState(State s) {state = s;}
 344              		.loc 2 34 23
  34:src/../h/PCB.h ****     void setState(State s) {state = s;}
 345              		.loc 2 34 30 is_stmt 0
 346 01b8 03270902 		lw	a4,32(s2)
 347              	.LVL23:
 348              	.LBE13:
 349              	.LBE12:
  58:src/PCB.cpp   ****         Scheduler::put(old);
GAS LISTING /tmp/ccVoSu4g.s 			page 10


 350              		.loc 1 58 5
 351 01bc 93071000 		li	a5,1
 352 01c0 6302F708 		beq	a4,a5,.L20
 353              	.L16:
  60:src/PCB.cpp   ****     PCB::running->setState(PCB::RUNNING);
 354              		.loc 1 60 5 is_stmt 1
  60:src/PCB.cpp   ****     PCB::running->setState(PCB::RUNNING);
 355              		.loc 1 60 34 is_stmt 0
 356 01c4 97000000 		call	_ZN9Scheduler3getEv@plt
 356      E7800000 
 357              	.LVL24:
  60:src/PCB.cpp   ****     PCB::running->setState(PCB::RUNNING);
 358              		.loc 1 60 18
 359 01cc 97040000 		lla	s1,.LANCHOR0
 359      93840400 
 360 01d4 23B0A400 		sd	a0,0(s1)
  61:src/PCB.cpp   ****     Riscv::printString("Switching context...\n");
 361              		.loc 1 61 5 is_stmt 1
 362              	.LVL25:
 363              	.LBB14:
 364              	.LBB15:
 365              		.loc 2 35 29
 366              		.loc 2 35 35 is_stmt 0
 367 01d8 93071000 		li	a5,1
 368 01dc 2320F502 		sw	a5,32(a0)
 369              	.LVL26:
 370              	.LBE15:
 371              	.LBE14:
  62:src/PCB.cpp   **** 
 372              		.loc 1 62 5 is_stmt 1
  62:src/PCB.cpp   **** 
 373              		.loc 1 62 23 is_stmt 0
 374 01e0 17050000 		lla	a0,.LC3
 374      13050500 
 375 01e8 97000000 		call	_ZN5Riscv11printStringEPKc@plt
 375      E7800000 
 376              	.LVL27:
  64:src/PCB.cpp   ****     {
 377              		.loc 1 64 5 is_stmt 1
  64:src/PCB.cpp   ****     {
 378              		.loc 1 64 24 is_stmt 0
 379 01f0 83B48400 		ld	s1,8(s1)
  64:src/PCB.cpp   ****     {
 380              		.loc 1 64 5
 381 01f4 63800406 		beqz	s1,.L21
  70:src/PCB.cpp   ****         PCB::exitingPCB = 0;
 382              		.loc 1 70 9 is_stmt 1 discriminator 1
  70:src/PCB.cpp   ****         PCB::exitingPCB = 0;
 383              		.loc 1 70 21 is_stmt 0 discriminator 1
 384 01f8 13850400 		mv	a0,s1
 385 01fc 97000000 		call	_ZN3PCBD1Ev
 385      E7800000 
 386              	.LVL28:
 387 0204 13850400 		mv	a0,s1
 388 0208 97000000 		call	_ZN3PCBdlEPv
 388      E7800000 
 389              	.LVL29:
GAS LISTING /tmp/ccVoSu4g.s 			page 11


  71:src/PCB.cpp   ****         PCB::contextSwitchExiting(&running->context);
 390              		.loc 1 71 9 is_stmt 1 discriminator 1
  71:src/PCB.cpp   ****         PCB::contextSwitchExiting(&running->context);
 391              		.loc 1 71 25 is_stmt 0 discriminator 1
 392 0210 97070000 		lla	a5,.LANCHOR0
 392      93870700 
 393 0218 23B40700 		sd	zero,8(a5)
  72:src/PCB.cpp   ****     }
 394              		.loc 1 72 9 is_stmt 1 discriminator 1
  72:src/PCB.cpp   ****     }
 395              		.loc 1 72 45 is_stmt 0 discriminator 1
 396 021c 03B50700 		ld	a0,0(a5)
  72:src/PCB.cpp   ****     }
 397              		.loc 1 72 34 discriminator 1
 398 0220 13058502 		addi	a0,a0,40
 399 0224 97000000 		call	_ZN3PCB20contextSwitchExitingEPNS_7ContextE@plt
 399      E7800000 
 400              	.LVL30:
 401              	.L15:
  75:src/PCB.cpp   **** 
 402              		.loc 1 75 1
 403 022c 83308101 		ld	ra,24(sp)
 404              		.cfi_remember_state
 405              		.cfi_restore 1
 406 0230 03340101 		ld	s0,16(sp)
 407              		.cfi_restore 8
 408              		.cfi_def_cfa 2, 32
 409 0234 83348100 		ld	s1,8(sp)
 410              		.cfi_restore 9
 411 0238 03390100 		ld	s2,0(sp)
 412              		.cfi_restore 18
 413              	.LVL31:
 414 023c 13010102 		addi	sp,sp,32
 415              		.cfi_def_cfa_offset 0
 416 0240 67800000 		jr	ra
 417              	.LVL32:
 418              	.L20:
 419              		.cfi_restore_state
  59:src/PCB.cpp   ****     PCB::running = Scheduler::get();
 420              		.loc 1 59 9 is_stmt 1
  59:src/PCB.cpp   ****     PCB::running = Scheduler::get();
 421              		.loc 1 59 23 is_stmt 0
 422 0244 13050900 		mv	a0,s2
 423 0248 97000000 		call	_ZN9Scheduler3putEP3PCB@plt
 423      E7800000 
 424              	.LVL33:
 425 0250 6FF05FF7 		j	.L16
 426              	.L21:
  66:src/PCB.cpp   ****     }
 427              		.loc 1 66 9 is_stmt 1
  66:src/PCB.cpp   ****     }
 428              		.loc 1 66 27 is_stmt 0
 429 0254 97050000 		ld	a1,.LANCHOR0
 429      83B50500 
 430 025c 93858502 		addi	a1,a1,40
 431 0260 13058902 		addi	a0,s2,40
 432 0264 97000000 		call	_ZN3PCB13contextSwitchEPNS_7ContextES1_@plt
GAS LISTING /tmp/ccVoSu4g.s 			page 12


 432      E7800000 
 433              	.LVL34:
 434 026c 6FF01FFC 		j	.L15
 435              		.cfi_endproc
 436              	.LFE25:
 438              		.globl	_ZN3PCB16timeSliceCounterE
 439              		.globl	_ZN3PCB10exitingPCBE
 440              		.globl	_ZN3PCB7runningE
 441              		.bss
 442              		.align	3
 443              		.set	.LANCHOR0,. + 0
 446              	_ZN3PCB7runningE:
 447 0000 00000000 		.zero	8
 447      00000000 
 450              	_ZN3PCB10exitingPCBE:
 451 0008 00000000 		.zero	8
 451      00000000 
 454              	_ZN3PCB16timeSliceCounterE:
 455 0010 00000000 		.zero	8
 455      00000000 
 456              		.text
 457              	.Letext0:
 458              		.file 3 "src/../h/../lib/hw.h"
 459              		.file 4 "src/../h/Queue.h"
 460              		.file 5 "src/../h/Scheduler.h"
 461              		.file 6 "src/../h/Riscv.h"
 462              		.file 7 "src/../h/MemoryAllocator.h"
 463              		.file 8 "src/../h/syscall_c.h"
 3521              		.align	3
 3524              	DW.ref.__gxx_personality_v0:
 3525 0000 00000000 		.dword	__gxx_personality_v0
 3525      00000000 
 3526              		.ident	"GCC: (Ubuntu 9.3.0-17ubuntu1~20.04) 9.3.0"
 3527              		.section	.note.GNU-stack,"",@progbits
GAS LISTING /tmp/ccVoSu4g.s 			page 13


DEFINED SYMBOLS
                            *ABS*:0000000000000000 PCB.cpp
     /tmp/ccVoSu4g.s:17     .text:0000000000000000 _ZN3PCB6runnerEv
     /tmp/ccVoSu4g.s:21     .text:0000000000000000 .L0 
     /tmp/ccVoSu4g.s:22     .text:0000000000000000 .L0 
     /tmp/ccVoSu4g.s:23     .text:0000000000000004 .L0 
     /tmp/ccVoSu4g.s:27     .text:0000000000000010 .L0 
     /tmp/ccVoSu4g.s:28     .text:0000000000000010 .L0 
     /tmp/ccVoSu4g.s:29     .text:0000000000000010 .L0 
     /tmp/ccVoSu4g.s:31     .text:0000000000000014 .L0 
     /tmp/ccVoSu4g.s:33     .text:0000000000000014 .L0 
     /tmp/ccVoSu4g.s:34     .text:0000000000000014 .L0 
     /tmp/ccVoSu4g.s:38     .text:0000000000000024 .L0 
     /tmp/ccVoSu4g.s:39     .text:0000000000000024 .L0 
     /tmp/ccVoSu4g.s:42     .text:000000000000002c .L0 
     /tmp/ccVoSu4g.s:43     .text:000000000000002c .L0 
     /tmp/ccVoSu4g.s:47     .text:000000000000003c .L0 
     /tmp/ccVoSu4g.s:51     .text:0000000000000044 .L0 
     /tmp/ccVoSu4g.s:52     .text:0000000000000044 .L0 
     /tmp/ccVoSu4g.s:58     .text:0000000000000048 .L0 
     /tmp/ccVoSu4g.s:59     .text:0000000000000048 .L0 
     /tmp/ccVoSu4g.s:65     .text:0000000000000050 .L0 
     /tmp/ccVoSu4g.s:66     .text:0000000000000050 .L0 
     /tmp/ccVoSu4g.s:70     .text:0000000000000060 .L0 
     /tmp/ccVoSu4g.s:71     .text:0000000000000060 .L0 
     /tmp/ccVoSu4g.s:74     .text:0000000000000068 .L0 
     /tmp/ccVoSu4g.s:75     .text:000000000000006c .L0 
     /tmp/ccVoSu4g.s:77     .text:0000000000000070 .L0 
     /tmp/ccVoSu4g.s:78     .text:0000000000000070 .L0 
     /tmp/ccVoSu4g.s:80     .text:0000000000000074 .L0 
     /tmp/ccVoSu4g.s:82     .text:0000000000000078 .L0 
     /tmp/ccVoSu4g.s:84     .text:000000000000007c .L0 
     /tmp/ccVoSu4g.s:90     .text:000000000000007c _ZN3PCBC2EPFvPvES0_S0_m
     /tmp/ccVoSu4g.s:93     .text:000000000000007c .L0 
     /tmp/ccVoSu4g.s:95     .text:000000000000007c .L0 
     /tmp/ccVoSu4g.s:96     .text:0000000000000080 .L0 
     /tmp/ccVoSu4g.s:99     .text:0000000000000088 .L0 
     /tmp/ccVoSu4g.s:100    .text:0000000000000088 .L0 
     /tmp/ccVoSu4g.s:102    .text:000000000000008c .L0 
     /tmp/ccVoSu4g.s:105    .text:000000000000008c .L0 
     /tmp/ccVoSu4g.s:110    .text:000000000000009c .L0 
     /tmp/ccVoSu4g.s:115    .text:00000000000000a4 .L0 
     /tmp/ccVoSu4g.s:119    .text:00000000000000b4 .L0 
     /tmp/ccVoSu4g.s:120    .text:00000000000000b4 .L0 
     /tmp/ccVoSu4g.s:124    .text:00000000000000bc .L0 
     /tmp/ccVoSu4g.s:125    .text:00000000000000c0 .L0 
     /tmp/ccVoSu4g.s:127    .text:00000000000000c4 .L0 
     /tmp/ccVoSu4g.s:128    .text:00000000000000c4 .L0 
     /tmp/ccVoSu4g.s:130    .text:00000000000000c8 .L0 
     /tmp/ccVoSu4g.s:132    .text:00000000000000cc .L0 
     /tmp/ccVoSu4g.s:90     .text:000000000000007c _ZN3PCBC1EPFvPvES0_S0_m
     /tmp/ccVoSu4g.s:140    .text:00000000000000cc _ZN3PCB5sleepEm
     /tmp/ccVoSu4g.s:143    .text:00000000000000cc .L0 
     /tmp/ccVoSu4g.s:145    .text:00000000000000cc .L0 
     /tmp/ccVoSu4g.s:146    .text:00000000000000d0 .L0 
     /tmp/ccVoSu4g.s:148    .text:00000000000000d4 .L0 
     /tmp/ccVoSu4g.s:150    .text:00000000000000d8 .L0 
GAS LISTING /tmp/ccVoSu4g.s 			page 14


     /tmp/ccVoSu4g.s:152    .text:00000000000000d8 .L0 
     /tmp/ccVoSu4g.s:153    .text:00000000000000dc .L0 
     /tmp/ccVoSu4g.s:154    .text:00000000000000dc .L0 
     /tmp/ccVoSu4g.s:156    .text:00000000000000e0 .L0 
     /tmp/ccVoSu4g.s:158    .text:00000000000000e4 .L0 
     /tmp/ccVoSu4g.s:164    .text:00000000000000e4 _ZN3PCB5startEv
     /tmp/ccVoSu4g.s:167    .text:00000000000000e4 .L0 
     /tmp/ccVoSu4g.s:169    .text:00000000000000e4 .L0 
     /tmp/ccVoSu4g.s:170    .text:00000000000000e8 .L0 
     /tmp/ccVoSu4g.s:173    .text:00000000000000f0 .L0 
     /tmp/ccVoSu4g.s:174    .text:00000000000000f0 .L0 
     /tmp/ccVoSu4g.s:176    .text:00000000000000f4 .L0 
     /tmp/ccVoSu4g.s:178    .text:00000000000000f4 .L0 
     /tmp/ccVoSu4g.s:179    .text:00000000000000f4 .L0 
     /tmp/ccVoSu4g.s:182    .text:00000000000000fc .L0 
     /tmp/ccVoSu4g.s:183    .text:0000000000000100 .L0 
     /tmp/ccVoSu4g.s:185    .text:0000000000000104 .L0 
     /tmp/ccVoSu4g.s:186    .text:0000000000000104 .L0 
     /tmp/ccVoSu4g.s:188    .text:0000000000000108 .L0 
     /tmp/ccVoSu4g.s:190    .text:000000000000010c .L0 
     /tmp/ccVoSu4g.s:196    .text:000000000000010c _ZN3PCBnwEm
     /tmp/ccVoSu4g.s:199    .text:000000000000010c .L0 
     /tmp/ccVoSu4g.s:201    .text:000000000000010c .L0 
     /tmp/ccVoSu4g.s:202    .text:0000000000000110 .L0 
     /tmp/ccVoSu4g.s:205    .text:0000000000000118 .L0 
     /tmp/ccVoSu4g.s:206    .text:0000000000000118 .L0 
     /tmp/ccVoSu4g.s:208    .text:000000000000011c .L0 
     /tmp/ccVoSu4g.s:210    .text:000000000000011c .L0 
     /tmp/ccVoSu4g.s:211    .text:000000000000011c .L0 
     /tmp/ccVoSu4g.s:214    .text:0000000000000124 .L0 
     /tmp/ccVoSu4g.s:215    .text:0000000000000128 .L0 
     /tmp/ccVoSu4g.s:217    .text:000000000000012c .L0 
     /tmp/ccVoSu4g.s:218    .text:000000000000012c .L0 
     /tmp/ccVoSu4g.s:220    .text:0000000000000130 .L0 
     /tmp/ccVoSu4g.s:222    .text:0000000000000134 .L0 
     /tmp/ccVoSu4g.s:228    .text:0000000000000134 _ZN3PCBdlEPv
     /tmp/ccVoSu4g.s:231    .text:0000000000000134 .L0 
     /tmp/ccVoSu4g.s:233    .text:0000000000000134 .L0 
     /tmp/ccVoSu4g.s:234    .text:0000000000000138 .L0 
     /tmp/ccVoSu4g.s:237    .text:0000000000000140 .L0 
     /tmp/ccVoSu4g.s:238    .text:0000000000000140 .L0 
     /tmp/ccVoSu4g.s:240    .text:0000000000000144 .L0 
     /tmp/ccVoSu4g.s:242    .text:0000000000000144 .L0 
     /tmp/ccVoSu4g.s:243    .text:0000000000000144 .L0 
     /tmp/ccVoSu4g.s:246    .text:000000000000014c .L0 
     /tmp/ccVoSu4g.s:247    .text:0000000000000150 .L0 
     /tmp/ccVoSu4g.s:249    .text:0000000000000154 .L0 
     /tmp/ccVoSu4g.s:250    .text:0000000000000154 .L0 
     /tmp/ccVoSu4g.s:252    .text:0000000000000158 .L0 
     /tmp/ccVoSu4g.s:254    .text:000000000000015c .L0 
     /tmp/ccVoSu4g.s:260    .text:000000000000015c _ZN3PCBD2Ev
     /tmp/ccVoSu4g.s:263    .text:000000000000015c .L0 
     /tmp/ccVoSu4g.s:3524   .data.rel.local.DW.ref.__gxx_personality_v0:0000000000000000 DW.ref.__gxx_personality_v0
     /tmp/ccVoSu4g.s:267    .text:000000000000015c .L0 
     /tmp/ccVoSu4g.s:268    .text:0000000000000160 .L0 
     /tmp/ccVoSu4g.s:271    .text:0000000000000168 .L0 
     /tmp/ccVoSu4g.s:272    .text:0000000000000168 .L0 
GAS LISTING /tmp/ccVoSu4g.s 			page 15


     /tmp/ccVoSu4g.s:274    .text:000000000000016c .L0 
     /tmp/ccVoSu4g.s:277    .text:000000000000016c .L0 
     /tmp/ccVoSu4g.s:278    .text:000000000000016c .L0 
     /tmp/ccVoSu4g.s:284    .text:0000000000000178 .L0 
     /tmp/ccVoSu4g.s:285    .text:000000000000017c .L0 
     /tmp/ccVoSu4g.s:287    .text:0000000000000180 .L0 
     /tmp/ccVoSu4g.s:288    .text:0000000000000180 .L0 
     /tmp/ccVoSu4g.s:290    .text:0000000000000184 .L0 
     /tmp/ccVoSu4g.s:292    .text:0000000000000188 .L0 
     /tmp/ccVoSu4g.s:260    .text:000000000000015c _ZN3PCBD1Ev
     /tmp/ccVoSu4g.s:316    .text:0000000000000188 _ZN3PCB8dispatchEv
     /tmp/ccVoSu4g.s:319    .text:0000000000000188 .L0 
     /tmp/ccVoSu4g.s:320    .text:0000000000000188 .L0 
     /tmp/ccVoSu4g.s:321    .text:000000000000018c .L0 
     /tmp/ccVoSu4g.s:326    .text:000000000000019c .L0 
     /tmp/ccVoSu4g.s:327    .text:000000000000019c .L0 
     /tmp/ccVoSu4g.s:328    .text:000000000000019c .L0 
     /tmp/ccVoSu4g.s:329    .text:000000000000019c .L0 
     /tmp/ccVoSu4g.s:331    .text:00000000000001a0 .L0 
     /tmp/ccVoSu4g.s:333    .text:00000000000001a0 .L0 
     /tmp/ccVoSu4g.s:334    .text:00000000000001a0 .L0 
     /tmp/ccVoSu4g.s:338    .text:00000000000001b0 .L0 
     /tmp/ccVoSu4g.s:339    .text:00000000000001b0 .L0 
     /tmp/ccVoSu4g.s:344    .text:00000000000001b8 .L0 
     /tmp/ccVoSu4g.s:345    .text:00000000000001b8 .L0 
     /tmp/ccVoSu4g.s:346    .text:00000000000001b8 .L0 
     /tmp/ccVoSu4g.s:351    .text:00000000000001bc .L0 
     /tmp/ccVoSu4g.s:355    .text:00000000000001c4 .L0 
     /tmp/ccVoSu4g.s:356    .text:00000000000001c4 .L0 
     /tmp/ccVoSu4g.s:359    .text:00000000000001cc .L0 
     /tmp/ccVoSu4g.s:365    .text:00000000000001d8 .L0 
     /tmp/ccVoSu4g.s:366    .text:00000000000001d8 .L0 
     /tmp/ccVoSu4g.s:367    .text:00000000000001d8 .L0 
     /tmp/ccVoSu4g.s:373    .text:00000000000001e0 .L0 
     /tmp/ccVoSu4g.s:374    .text:00000000000001e0 .L0 
     /tmp/ccVoSu4g.s:378    .text:00000000000001f0 .L0 
     /tmp/ccVoSu4g.s:379    .text:00000000000001f0 .L0 
     /tmp/ccVoSu4g.s:381    .text:00000000000001f4 .L0 
     /tmp/ccVoSu4g.s:383    .text:00000000000001f8 .L0 
     /tmp/ccVoSu4g.s:384    .text:00000000000001f8 .L0 
     /tmp/ccVoSu4g.s:391    .text:0000000000000210 .L0 
     /tmp/ccVoSu4g.s:392    .text:0000000000000210 .L0 
     /tmp/ccVoSu4g.s:395    .text:000000000000021c .L0 
     /tmp/ccVoSu4g.s:396    .text:000000000000021c .L0 
     /tmp/ccVoSu4g.s:398    .text:0000000000000220 .L0 
     /tmp/ccVoSu4g.s:403    .text:000000000000022c .L0 
     /tmp/ccVoSu4g.s:404    .text:0000000000000230 .L0 
     /tmp/ccVoSu4g.s:405    .text:0000000000000230 .L0 
     /tmp/ccVoSu4g.s:407    .text:0000000000000234 .L0 
     /tmp/ccVoSu4g.s:408    .text:0000000000000234 .L0 
     /tmp/ccVoSu4g.s:410    .text:0000000000000238 .L0 
     /tmp/ccVoSu4g.s:412    .text:000000000000023c .L0 
     /tmp/ccVoSu4g.s:415    .text:0000000000000240 .L0 
     /tmp/ccVoSu4g.s:419    .text:0000000000000244 .L0 
     /tmp/ccVoSu4g.s:421    .text:0000000000000244 .L0 
     /tmp/ccVoSu4g.s:422    .text:0000000000000244 .L0 
     /tmp/ccVoSu4g.s:428    .text:0000000000000254 .L0 
GAS LISTING /tmp/ccVoSu4g.s 			page 16


     /tmp/ccVoSu4g.s:429    .text:0000000000000254 .L0 
     /tmp/ccVoSu4g.s:435    .text:0000000000000270 .L0 
     /tmp/ccVoSu4g.s:454    .bss:0000000000000010 _ZN3PCB16timeSliceCounterE
     /tmp/ccVoSu4g.s:450    .bss:0000000000000008 _ZN3PCB10exitingPCBE
     /tmp/ccVoSu4g.s:446    .bss:0000000000000000 _ZN3PCB7runningE
     /tmp/ccVoSu4g.s:443    .bss:0000000000000000 .LANCHOR0
     /tmp/ccVoSu4g.s:464    .text:0000000000000270 .L0 
     /tmp/ccVoSu4g.s:8      .rodata.str1.8:0000000000000000 .LC0
     /tmp/ccVoSu4g.s:34     .text:0000000000000014 .L0 
     /tmp/ccVoSu4g.s:43     .text:000000000000002c .L0 
     /tmp/ccVoSu4g.s:11     .rodata.str1.8:0000000000000018 .LC1
     /tmp/ccVoSu4g.s:66     .text:0000000000000050 .L0 
     /tmp/ccVoSu4g.s:116    .text:00000000000000a8 .L0 
     /tmp/ccVoSu4g.s:307    .rodata.str1.8:0000000000000030 .LC2
     /tmp/ccVoSu4g.s:334    .text:00000000000001a0 .L0 
     /tmp/ccVoSu4g.s:339    .text:00000000000001b0 .L0 
     /tmp/ccVoSu4g.s:359    .text:00000000000001cc .L0 
     /tmp/ccVoSu4g.s:310    .rodata.str1.8:0000000000000048 .LC3
     /tmp/ccVoSu4g.s:374    .text:00000000000001e0 .L0 
     /tmp/ccVoSu4g.s:392    .text:0000000000000210 .L0 
     /tmp/ccVoSu4g.s:429    .text:0000000000000254 .L0 
     /tmp/ccVoSu4g.s:418    .text:0000000000000244 .L20
     /tmp/ccVoSu4g.s:426    .text:0000000000000254 .L21
     /tmp/ccVoSu4g.s:353    .text:00000000000001c4 .L16
     /tmp/ccVoSu4g.s:401    .text:000000000000022c .L15
     /tmp/ccVoSu4g.s:1931   .debug_abbrev:0000000000000000 .Ldebug_abbrev0
     /tmp/ccVoSu4g.s:3336   .debug_str:00000000000004e5 .LASF162
     /tmp/ccVoSu4g.s:3466   .debug_str:0000000000000909 .LASF163
     /tmp/ccVoSu4g.s:3454   .debug_str:00000000000008a5 .LASF164
     /tmp/ccVoSu4g.s:5      .text:0000000000000000 .Ltext0
     /tmp/ccVoSu4g.s:457    .text:0000000000000270 .Letext0
     /tmp/ccVoSu4g.s:3172   .debug_line:0000000000000000 .Ldebug_line0
     /tmp/ccVoSu4g.s:3286   .debug_str:000000000000035a .LASF0
     /tmp/ccVoSu4g.s:3312   .debug_str:000000000000041e .LASF1
     /tmp/ccVoSu4g.s:3396   .debug_str:0000000000000725 .LASF2
     /tmp/ccVoSu4g.s:3404   .debug_str:0000000000000760 .LASF4
     /tmp/ccVoSu4g.s:3300   .debug_str:00000000000003ba .LASF3
     /tmp/ccVoSu4g.s:3186   .debug_str:0000000000000047 .LASF5
     /tmp/ccVoSu4g.s:3376   .debug_str:000000000000069b .LASF6
     /tmp/ccVoSu4g.s:3362   .debug_str:0000000000000630 .LASF7
     /tmp/ccVoSu4g.s:3304   .debug_str:00000000000003ee .LASF8
     /tmp/ccVoSu4g.s:3270   .debug_str:00000000000002d2 .LASF9
     /tmp/ccVoSu4g.s:3274   .debug_str:00000000000002fe .LASF10
     /tmp/ccVoSu4g.s:3222   .debug_str:0000000000000196 .LASF11
     /tmp/ccVoSu4g.s:3260   .debug_str:000000000000029a .LASF12
     /tmp/ccVoSu4g.s:3230   .debug_str:00000000000001c7 .LASF13
     /tmp/ccVoSu4g.s:3220   .debug_str:0000000000000186 .LASF14
     /tmp/ccVoSu4g.s:3432   .debug_str:0000000000000830 .LASF15
     /tmp/ccVoSu4g.s:3256   .debug_str:0000000000000278 .LASF16
     /tmp/ccVoSu4g.s:3426   .debug_str:00000000000007f7 .LASF17
     /tmp/ccVoSu4g.s:3456   .debug_str:00000000000008c8 .LASF28
     /tmp/ccVoSu4g.s:3470   .debug_str:000000000000091b .LASF20
     /tmp/ccVoSu4g.s:3308   .debug_str:0000000000000414 .LASF18
     /tmp/ccVoSu4g.s:3224   .debug_str:00000000000001a5 .LASF19
     /tmp/ccVoSu4g.s:3438   .debug_str:0000000000000849 .LASF21
     /tmp/ccVoSu4g.s:3320   .debug_str:000000000000044d .LASF22
     /tmp/ccVoSu4g.s:3498   .debug_str:00000000000009c1 .LASF38
GAS LISTING /tmp/ccVoSu4g.s 			page 17


     /tmp/ccVoSu4g.s:3468   .debug_str:0000000000000915 .LASF24
     /tmp/ccVoSu4g.s:3232   .debug_str:00000000000001d7 .LASF26
     /tmp/ccVoSu4g.s:3288   .debug_str:0000000000000367 .LASF23
     /tmp/ccVoSu4g.s:3420   .debug_str:00000000000007cc .LASF29
     /tmp/ccVoSu4g.s:3310   .debug_str:0000000000000419 .LASF25
     /tmp/ccVoSu4g.s:3386   .debug_str:00000000000006d0 .LASF27
     /tmp/ccVoSu4g.s:3250   .debug_str:000000000000025a .LASF30
     /tmp/ccVoSu4g.s:3382   .debug_str:00000000000006b5 .LASF44
     /tmp/ccVoSu4g.s:3202   .debug_str:00000000000000e9 .LASF46
     /tmp/ccVoSu4g.s:3442   .debug_str:0000000000000854 .LASF165
     /tmp/ccVoSu4g.s:3216   .debug_str:000000000000016c .LASF31
     /tmp/ccVoSu4g.s:3422   .debug_str:00000000000007e1 .LASF32
     /tmp/ccVoSu4g.s:3228   .debug_str:00000000000001bd .LASF33
     /tmp/ccVoSu4g.s:3210   .debug_str:0000000000000126 .LASF34
     /tmp/ccVoSu4g.s:3366   .debug_str:0000000000000659 .LASF35
     /tmp/ccVoSu4g.s:3436   .debug_str:0000000000000841 .LASF36
     /tmp/ccVoSu4g.s:3280   .debug_str:000000000000032a .LASF37
     /tmp/ccVoSu4g.s:3460   .debug_str:00000000000008d6 .LASF39
     /tmp/ccVoSu4g.s:3354   .debug_str:00000000000005fd .LASF166
     /tmp/ccVoSu4g.s:3484   .debug_str:0000000000000966 .LASF40
     /tmp/ccVoSu4g.s:3504   .debug_str:00000000000009eb .LASF41
     /tmp/ccVoSu4g.s:3500   .debug_str:00000000000009d1 .LASF42
     /tmp/ccVoSu4g.s:3448   .debug_str:0000000000000877 .LASF43
     /tmp/ccVoSu4g.s:3248   .debug_str:0000000000000251 .LASF81
     /tmp/ccVoSu4g.s:3196   .debug_str:0000000000000093 .LASF83
     /tmp/ccVoSu4g.s:3316   .debug_str:000000000000043a .LASF45
     /tmp/ccVoSu4g.s:3358   .debug_str:0000000000000615 .LASF47
     /tmp/ccVoSu4g.s:3446   .debug_str:000000000000086f .LASF48
     /tmp/ccVoSu4g.s:3486   .debug_str:000000000000096b .LASF49
     /tmp/ccVoSu4g.s:3414   .debug_str:0000000000000797 .LASF50
     /tmp/ccVoSu4g.s:3318   .debug_str:0000000000000440 .LASF51
     /tmp/ccVoSu4g.s:3324   .debug_str:0000000000000470 .LASF52
     /tmp/ccVoSu4g.s:3508   .debug_str:0000000000000a0f .LASF53
     /tmp/ccVoSu4g.s:3258   .debug_str:000000000000028e .LASF54
     /tmp/ccVoSu4g.s:3178   .debug_str:0000000000000010 .LASF55
     /tmp/ccVoSu4g.s:3298   .debug_str:00000000000003ad .LASF56
     /tmp/ccVoSu4g.s:3416   .debug_str:00000000000007a8 .LASF57
     /tmp/ccVoSu4g.s:3342   .debug_str:00000000000005a1 .LASF58
     /tmp/ccVoSu4g.s:3402   .debug_str:0000000000000757 .LASF59
     /tmp/ccVoSu4g.s:3428   .debug_str:000000000000080d .LASF60
     /tmp/ccVoSu4g.s:3424   .debug_str:00000000000007e9 .LASF61
     /tmp/ccVoSu4g.s:3378   .debug_str:00000000000006a2 .LASF62
     /tmp/ccVoSu4g.s:3244   .debug_str:000000000000022f .LASF63
     /tmp/ccVoSu4g.s:3452   .debug_str:000000000000089b .LASF64
     /tmp/ccVoSu4g.s:3238   .debug_str:000000000000020e .LASF65
     /tmp/ccVoSu4g.s:3200   .debug_str:00000000000000c1 .LASF67
     /tmp/ccVoSu4g.s:3290   .debug_str:000000000000036c .LASF66
     /tmp/ccVoSu4g.s:3214   .debug_str:0000000000000140 .LASF68
     /tmp/ccVoSu4g.s:3492   .debug_str:0000000000000998 .LASF167
     /tmp/ccVoSu4g.s:3212   .debug_str:000000000000012f .LASF168
     /tmp/ccVoSu4g.s:3176   .debug_str:000000000000000b .LASF69
     /tmp/ccVoSu4g.s:3434   .debug_str:000000000000083c .LASF70
     /tmp/ccVoSu4g.s:3328   .debug_str:00000000000004a3 .LASF71
     /tmp/ccVoSu4g.s:3236   .debug_str:0000000000000208 .LASF72
     /tmp/ccVoSu4g.s:3458   .debug_str:00000000000008ce .LASF73
     /tmp/ccVoSu4g.s:3204   .debug_str:00000000000000f7 .LASF74
     /tmp/ccVoSu4g.s:3268   .debug_str:00000000000002c8 .LASF75
GAS LISTING /tmp/ccVoSu4g.s 			page 18


     /tmp/ccVoSu4g.s:3192   .debug_str:0000000000000072 .LASF169
     /tmp/ccVoSu4g.s:3502   .debug_str:00000000000009d7 .LASF170
     /tmp/ccVoSu4g.s:3206   .debug_str:0000000000000101 .LASF76
     /tmp/ccVoSu4g.s:3356   .debug_str:0000000000000602 .LASF77
     /tmp/ccVoSu4g.s:3410   .debug_str:0000000000000781 .LASF78
     /tmp/ccVoSu4g.s:3390   .debug_str:00000000000006f1 .LASF100
     /tmp/ccVoSu4g.s:3194   .debug_str:000000000000008a .LASF79
     /tmp/ccVoSu4g.s:3190   .debug_str:0000000000000068 .LASF171
     /tmp/ccVoSu4g.s:3480   .debug_str:0000000000000956 .LASF80
     /tmp/ccVoSu4g.s:3360   .debug_str:0000000000000625 .LASF82
     /tmp/ccVoSu4g.s:3332   .debug_str:00000000000004b7 .LASF84
     /tmp/ccVoSu4g.s:3254   .debug_str:000000000000026e .LASF85
     /tmp/ccVoSu4g.s:3364   .debug_str:0000000000000643 .LASF86
     /tmp/ccVoSu4g.s:3472   .debug_str:0000000000000920 .LASF87
     /tmp/ccVoSu4g.s:3322   .debug_str:0000000000000452 .LASF88
     /tmp/ccVoSu4g.s:3296   .debug_str:000000000000039b .LASF89
     /tmp/ccVoSu4g.s:3234   .debug_str:00000000000001e9 .LASF90
     /tmp/ccVoSu4g.s:3496   .debug_str:00000000000009b5 .LASF91
     /tmp/ccVoSu4g.s:3198   .debug_str:00000000000000a6 .LASF92
     /tmp/ccVoSu4g.s:3372   .debug_str:000000000000067b .LASF93
     /tmp/ccVoSu4g.s:3188   .debug_str:000000000000004e .LASF94
     /tmp/ccVoSu4g.s:3412   .debug_str:0000000000000789 .LASF95
     /tmp/ccVoSu4g.s:3418   .debug_str:00000000000007b1 .LASF96
     /tmp/ccVoSu4g.s:3344   .debug_str:00000000000005b4 .LASF97
     /tmp/ccVoSu4g.s:3488   .debug_str:0000000000000976 .LASF98
     /tmp/ccVoSu4g.s:3314   .debug_str:0000000000000431 .LASF99
     /tmp/ccVoSu4g.s:3182   .debug_str:0000000000000028 .LASF101
     /tmp/ccVoSu4g.s:3514   .debug_str:0000000000000a36 .LASF102
     /tmp/ccVoSu4g.s:3350   .debug_str:00000000000005d0 .LASF103
     /tmp/ccVoSu4g.s:3380   .debug_str:00000000000006ae .LASF104
     /tmp/ccVoSu4g.s:3374   .debug_str:0000000000000688 .LASF105
     /tmp/ccVoSu4g.s:3348   .debug_str:00000000000005c9 .LASF106
     /tmp/ccVoSu4g.s:3306   .debug_str:0000000000000401 .LASF107
     /tmp/ccVoSu4g.s:3490   .debug_str:0000000000000990 .LASF108
     /tmp/ccVoSu4g.s:3450   .debug_str:0000000000000887 .LASF109
     /tmp/ccVoSu4g.s:3346   .debug_str:00000000000005c1 .LASF110
     /tmp/ccVoSu4g.s:3262   .debug_str:00000000000002a9 .LASF111
     /tmp/ccVoSu4g.s:3338   .debug_str:0000000000000587 .LASF112
     /tmp/ccVoSu4g.s:3384   .debug_str:00000000000006bc .LASF113
     /tmp/ccVoSu4g.s:3516   .debug_str:0000000000000a3f .LASF114
     /tmp/ccVoSu4g.s:3294   .debug_str:0000000000000387 .LASF115
     /tmp/ccVoSu4g.s:3430   .debug_str:0000000000000829 .LASF116
     /tmp/ccVoSu4g.s:3406   .debug_str:0000000000000767 .LASF117
     /tmp/ccVoSu4g.s:3408   .debug_str:000000000000077a .LASF118
     /tmp/ccVoSu4g.s:3226   .debug_str:00000000000001aa .LASF119
     /tmp/ccVoSu4g.s:3252   .debug_str:0000000000000268 .LASF120
     /tmp/ccVoSu4g.s:3282   .debug_str:0000000000000330 .LASF121
     /tmp/ccVoSu4g.s:3292   .debug_str:0000000000000381 .LASF122
     /tmp/ccVoSu4g.s:3246   .debug_str:000000000000023f .LASF123
     /tmp/ccVoSu4g.s:3174   .debug_str:0000000000000000 .LASF124
     /tmp/ccVoSu4g.s:3400   .debug_str:000000000000073f .LASF125
     /tmp/ccVoSu4g.s:3394   .debug_str:000000000000071a .LASF126
     /tmp/ccVoSu4g.s:3506   .debug_str:00000000000009f7 .LASF127
     /tmp/ccVoSu4g.s:3482   .debug_str:000000000000095c .LASF128
     /tmp/ccVoSu4g.s:3494   .debug_str:000000000000099f .LASF129
     /tmp/ccVoSu4g.s:3476   .debug_str:0000000000000944 .LASF130
     /tmp/ccVoSu4g.s:3334   .debug_str:00000000000004cf .LASF131
GAS LISTING /tmp/ccVoSu4g.s 			page 19


     /tmp/ccVoSu4g.s:3278   .debug_str:000000000000031f .LASF132
     /tmp/ccVoSu4g.s:3284   .debug_str:0000000000000342 .LASF133
     /tmp/ccVoSu4g.s:3464   .debug_str:00000000000008fa .LASF134
     /tmp/ccVoSu4g.s:3272   .debug_str:00000000000002e2 .LASF135
     /tmp/ccVoSu4g.s:3370   .debug_str:0000000000000666 .LASF136
     /tmp/ccVoSu4g.s:3302   .debug_str:00000000000003cc .LASF137
     /tmp/ccVoSu4g.s:3242   .debug_str:0000000000000228 .LASF138
     /tmp/ccVoSu4g.s:3180   .debug_str:0000000000000020 .LASF139
     /tmp/ccVoSu4g.s:3510   .debug_str:0000000000000a1c .LASF140
     /tmp/ccVoSu4g.s:3462   .debug_str:00000000000008ee .LASF141
     /tmp/ccVoSu4g.s:3208   .debug_str:0000000000000113 .LASF142
     /tmp/ccVoSu4g.s:3340   .debug_str:000000000000058f .LASF143
     /tmp/ccVoSu4g.s:3276   .debug_str:000000000000030c .LASF144
     /tmp/ccVoSu4g.s:3474   .debug_str:0000000000000931 .LASF145
     /tmp/ccVoSu4g.s:3218   .debug_str:0000000000000172 .LASF146
     /tmp/ccVoSu4g.s:3440   .debug_str:000000000000084f .LASF147
     /tmp/ccVoSu4g.s:3392   .debug_str:0000000000000709 .LASF148
     /tmp/ccVoSu4g.s:3444   .debug_str:000000000000085a .LASF149
     /tmp/ccVoSu4g.s:3326   .debug_str:0000000000000488 .LASF150
     /tmp/ccVoSu4g.s:3264   .debug_str:00000000000002bd .LASF151
     /tmp/ccVoSu4g.s:3184   .debug_str:000000000000003d .LASF152
     /tmp/ccVoSu4g.s:3240   .debug_str:000000000000021c .LASF155
     /tmp/ccVoSu4g.s:261    .text:000000000000015c .LFB29
     /tmp/ccVoSu4g.s:293    .text:0000000000000188 .LFE29
     /tmp/ccVoSu4g.s:2975   .debug_loc:0000000000000000 .LLST10
     /tmp/ccVoSu4g.s:281    .text:0000000000000178 .LVL20
     /tmp/ccVoSu4g.s:229    .text:0000000000000134 .LFB27
     /tmp/ccVoSu4g.s:255    .text:000000000000015c .LFE27
     /tmp/ccVoSu4g.s:2989   .debug_loc:0000000000000039 .LLST9
     /tmp/ccVoSu4g.s:244    .text:000000000000014c .LVL17
     /tmp/ccVoSu4g.s:197    .text:000000000000010c .LFB26
     /tmp/ccVoSu4g.s:223    .text:0000000000000134 .LFE26
     /tmp/ccVoSu4g.s:3003   .debug_loc:0000000000000072 .LLST8
     /tmp/ccVoSu4g.s:212    .text:0000000000000124 .LVL15
     /tmp/ccVoSu4g.s:317    .text:0000000000000188 .LFB25
     /tmp/ccVoSu4g.s:436    .text:0000000000000270 .LFE25
     /tmp/ccVoSu4g.s:3017   .debug_loc:00000000000000ab .LLST11
     /tmp/ccVoSu4g.s:342    .text:00000000000001b8 .LBB12
     /tmp/ccVoSu4g.s:349    .text:00000000000001bc .LBE12
     /tmp/ccVoSu4g.s:3028   .debug_loc:00000000000000e1 .LLST12
     /tmp/ccVoSu4g.s:363    .text:00000000000001d8 .LBB14
     /tmp/ccVoSu4g.s:371    .text:00000000000001e0 .LBE14
     /tmp/ccVoSu4g.s:3035   .debug_loc:0000000000000104 .LLST13
     /tmp/ccVoSu4g.s:3043   .debug_loc:0000000000000128 .LLST14
     /tmp/ccVoSu4g.s:336    .text:00000000000001b0 .LVL21
     /tmp/ccVoSu4g.s:357    .text:00000000000001cc .LVL24
     /tmp/ccVoSu4g.s:376    .text:00000000000001f0 .LVL27
     /tmp/ccVoSu4g.s:386    .text:0000000000000204 .LVL28
     /tmp/ccVoSu4g.s:389    .text:0000000000000210 .LVL29
     /tmp/ccVoSu4g.s:400    .text:000000000000022c .LVL30
     /tmp/ccVoSu4g.s:424    .text:0000000000000250 .LVL33
     /tmp/ccVoSu4g.s:433    .text:000000000000026c .LVL34
     /tmp/ccVoSu4g.s:18     .text:0000000000000000 .LFB24
     /tmp/ccVoSu4g.s:85     .text:000000000000007c .LFE24
     /tmp/ccVoSu4g.s:54     .text:0000000000000048 .LBB8
     /tmp/ccVoSu4g.s:63     .text:0000000000000050 .LBE8
     /tmp/ccVoSu4g.s:3050   .debug_loc:000000000000014b .LLST0
GAS LISTING /tmp/ccVoSu4g.s 			page 20


     /tmp/ccVoSu4g.s:3058   .debug_loc:000000000000016f .LLST1
     /tmp/ccVoSu4g.s:36     .text:0000000000000024 .LVL0
     /tmp/ccVoSu4g.s:40     .text:000000000000002c .LVL1
     /tmp/ccVoSu4g.s:68     .text:0000000000000060 .LVL5
     /tmp/ccVoSu4g.s:72     .text:0000000000000068 .LVL6
     /tmp/ccVoSu4g.s:165    .text:00000000000000e4 .LFB23
     /tmp/ccVoSu4g.s:191    .text:000000000000010c .LFE23
     /tmp/ccVoSu4g.s:3065   .debug_loc:0000000000000192 .LLST7
     /tmp/ccVoSu4g.s:180    .text:00000000000000fc .LVL13
     /tmp/ccVoSu4g.s:141    .text:00000000000000cc .LFB22
     /tmp/ccVoSu4g.s:159    .text:00000000000000e4 .LFE22
     /tmp/ccVoSu4g.s:3368   .debug_str:0000000000000661 .LASF153
     /tmp/ccVoSu4g.s:3330   .debug_str:00000000000004ab .LASF154
     /tmp/ccVoSu4g.s:3352   .debug_str:00000000000005e5 .LASF156
     /tmp/ccVoSu4g.s:91     .text:000000000000007c .LFB20
     /tmp/ccVoSu4g.s:133    .text:00000000000000cc .LFE20
     /tmp/ccVoSu4g.s:3079   .debug_loc:00000000000001cb .LLST2
     /tmp/ccVoSu4g.s:3093   .debug_loc:0000000000000204 .LLST3
     /tmp/ccVoSu4g.s:3107   .debug_loc:000000000000023d .LLST4
     /tmp/ccVoSu4g.s:3121   .debug_loc:0000000000000276 .LLST5
     /tmp/ccVoSu4g.s:3140   .debug_loc:00000000000002c3 .LLST6
     /tmp/ccVoSu4g.s:121    .text:00000000000000bc .LVL10
     /tmp/ccVoSu4g.s:3512   .debug_str:0000000000000a2b .LASF157
     /tmp/ccVoSu4g.s:3266   .debug_str:00000000000002c2 .LASF159
     /tmp/ccVoSu4g.s:3398   .debug_str:0000000000000733 .LASF158
     /tmp/ccVoSu4g.s:3478   .debug_str:000000000000094e .LASF160
     /tmp/ccVoSu4g.s:3388   .debug_str:00000000000006e1 .LASF161
     /tmp/ccVoSu4g.s:266    .text:000000000000015c .LVL18
     /tmp/ccVoSu4g.s:279    .text:0000000000000170 .LVL19
     /tmp/ccVoSu4g.s:232    .text:0000000000000134 .LVL16
     /tmp/ccVoSu4g.s:200    .text:000000000000010c .LVL14
     /tmp/ccVoSu4g.s:340    .text:00000000000001b8 .LVL22
     /tmp/ccVoSu4g.s:413    .text:000000000000023c .LVL31
     /tmp/ccVoSu4g.s:417    .text:0000000000000244 .LVL32
     /tmp/ccVoSu4g.s:347    .text:00000000000001bc .LVL23
     /tmp/ccVoSu4g.s:362    .text:00000000000001d8 .LVL25
     /tmp/ccVoSu4g.s:369    .text:00000000000001e0 .LVL26
     /tmp/ccVoSu4g.s:53     .text:0000000000000048 .LVL3
     /tmp/ccVoSu4g.s:61     .text:0000000000000050 .LVL4
     /tmp/ccVoSu4g.s:168    .text:00000000000000e4 .LVL12
     /tmp/ccVoSu4g.s:94     .text:000000000000007c .LVL7
     /tmp/ccVoSu4g.s:113    .text:00000000000000a4 .LVL9
     /tmp/ccVoSu4g.s:111    .text:00000000000000a0 .LVL8
     /tmp/ccVoSu4g.s:465    .debug_info:0000000000000000 .Ldebug_info0
     /tmp/ccVoSu4g.s:296    .gcc_except_table:0000000000000000 .LLSDA29

UNDEFINED SYMBOLS
_ZN5Riscv11printStringEPKc
_ZN5Riscv10popSppSpieEv
thread_dispatch
_ZN9Scheduler3putEP3PCB
_Z7kmallocm
_Z5kfreePv
__gxx_personality_v0
_ZN9Scheduler3getEv
_ZN3PCB20contextSwitchExitingEPNS_7ContextE
_ZN3PCB13contextSwitchEPNS_7ContextES1_
GAS LISTING /tmp/ccVoSu4g.s 			page 21


