GAS LISTING /tmp/cchfxbSE.s 			page 1


   1              		.file	"PCB.cpp"
   2              		.option pic
   3              		.option norelax
   4              		.text
   5              	.Ltext0:
   6              		.align	2
   7              		.globl	_ZN3PCB6runnerEv
   9              	_ZN3PCB6runnerEv:
  10              	.LFB30:
  11              		.file 1 "src/PCB.cpp"
   1:src/PCB.cpp   **** //
   2:src/PCB.cpp   **** // Created by os on 4/27/22.
   3:src/PCB.cpp   **** //
   4:src/PCB.cpp   **** 
   5:src/PCB.cpp   **** #include "../h/PCB.hpp"
   6:src/PCB.cpp   **** #include "../h/syscall_c.h"
   7:src/PCB.cpp   **** #include "../h/SleepPCBList.hpp"
   8:src/PCB.cpp   **** #include "../test/printing.hpp"
   9:src/PCB.cpp   **** #include "../h/KConsole.hpp"
  10:src/PCB.cpp   **** 
  11:src/PCB.cpp   **** PCB* PCB::running = 0;
  12:src/PCB.cpp   **** uint64 PCB::timeSliceCounter = 0;
  13:src/PCB.cpp   **** uint64 PCB::savedRegA4 = 0;
  14:src/PCB.cpp   **** PCB* PCB::consolePCB = 0;
  15:src/PCB.cpp   **** 
  16:src/PCB.cpp   **** PCB::PCB(Body body, void *args, void* stack_space, uint64 timeSlice) :
  17:src/PCB.cpp   ****     timeSlice(timeSlice),
  18:src/PCB.cpp   ****     body(body),
  19:src/PCB.cpp   ****     args(args),
  20:src/PCB.cpp   ****     beginSP(stack_space),
  21:src/PCB.cpp   ****     context({
  22:src/PCB.cpp   ****         (uint64)((char*)stack_space + DEFAULT_STACK_SIZE),
  23:src/PCB.cpp   ****         (uint64)&PCB::runner
  24:src/PCB.cpp   ****     })
  25:src/PCB.cpp   **** {
  26:src/PCB.cpp   ****     //Scheduler::put(this);
  27:src/PCB.cpp   ****     nextPCB = 0;
  28:src/PCB.cpp   **** }
  29:src/PCB.cpp   **** 
  30:src/PCB.cpp   **** void PCB::sleep(time_t time)
  31:src/PCB.cpp   **** {
  32:src/PCB.cpp   ****     //todo
  33:src/PCB.cpp   **** }
  34:src/PCB.cpp   **** 
  35:src/PCB.cpp   **** void PCB::start()
  36:src/PCB.cpp   **** {
  37:src/PCB.cpp   ****     Scheduler::put(this);
  38:src/PCB.cpp   **** }
  39:src/PCB.cpp   **** 
  40:src/PCB.cpp   **** void PCB::runner()
  41:src/PCB.cpp   **** {
  12              		.loc 1 41 1
  13              		.cfi_startproc
  14 0000 130101FF 		addi	sp,sp,-16
  15              		.cfi_def_cfa_offset 16
  16 0004 23341100 		sd	ra,8(sp)
  17 0008 23308100 		sd	s0,0(sp)
GAS LISTING /tmp/cchfxbSE.s 			page 2


  18              		.cfi_offset 1, -8
  19              		.cfi_offset 8, -16
  20 000c 13040101 		addi	s0,sp,16
  21              		.cfi_def_cfa 8, 0
  42:src/PCB.cpp   ****     //trapPrintString("Runner started...\n");
  43:src/PCB.cpp   ****     Riscv::popSppSpie();
  22              		.loc 1 43 5
  23              		.loc 1 43 22 is_stmt 0
  24 0010 97000000 		call	_ZN5Riscv10popSppSpieEv@plt
  24      E7800000 
  25              	.LVL0:
  44:src/PCB.cpp   **** 
  45:src/PCB.cpp   ****     running->body(running->args);
  26              		.loc 1 45 5 is_stmt 1
  27              		.loc 1 45 14 is_stmt 0
  28 0018 97070000 		ld	a5,.LANCHOR0
  28      83B70700 
  29 0020 03B78702 		ld	a4,40(a5)
  30              		.loc 1 45 18
  31 0024 03B50703 		ld	a0,48(a5)
  32 0028 E7000700 		jalr	a4
  33              	.LVL1:
  46:src/PCB.cpp   **** 
  47:src/PCB.cpp   ****     //printString("Runner ended...\n");
  48:src/PCB.cpp   **** 
  49:src/PCB.cpp   ****     thread_exit();
  34              		.loc 1 49 5 is_stmt 1
  35              		.loc 1 49 16 is_stmt 0
  36 002c 97000000 		call	thread_exit@plt
  36      E7800000 
  37              	.LVL2:
  50:src/PCB.cpp   **** }
  38              		.loc 1 50 1
  39 0034 83308100 		ld	ra,8(sp)
  40              		.cfi_restore 1
  41 0038 03340100 		ld	s0,0(sp)
  42              		.cfi_restore 8
  43              		.cfi_def_cfa 2, 16
  44 003c 13010101 		addi	sp,sp,16
  45              		.cfi_def_cfa_offset 0
  46 0040 67800000 		jr	ra
  47              		.cfi_endproc
  48              	.LFE30:
  50              		.align	2
  51              		.globl	_ZN3PCBC2EPFvPvES0_S0_m
  53              	_ZN3PCBC2EPFvPvES0_S0_m:
  54              	.LFB26:
  16:src/PCB.cpp   ****     timeSlice(timeSlice),
  55              		.loc 1 16 1 is_stmt 1
  56              		.cfi_startproc
  57              	.LVL3:
  58 0044 130101FF 		addi	sp,sp,-16
  59              		.cfi_def_cfa_offset 16
  60 0048 23348100 		sd	s0,8(sp)
  61              		.cfi_offset 8, -8
  62 004c 13040101 		addi	s0,sp,16
  63              		.cfi_def_cfa 8, 0
GAS LISTING /tmp/cchfxbSE.s 			page 3


  64              	.LBB12:
  24:src/PCB.cpp   **** {
  65              		.loc 1 24 6 is_stmt 0
  66 0050 23000500 		sb	zero,0(a0)
  67 0054 233CE500 		sd	a4,24(a0)
  68 0058 23300502 		sd	zero,32(a0)
  69 005c 2334B502 		sd	a1,40(a0)
  70 0060 2338C502 		sd	a2,48(a0)
  71 0064 233CD502 		sd	a3,56(a0)
  22:src/PCB.cpp   ****         (uint64)&PCB::runner
  72              		.loc 1 22 37
  73 0068 B7170000 		li	a5,4096
  74 006c B386F600 		add	a3,a3,a5
  75              	.LVL4:
  24:src/PCB.cpp   **** {
  76              		.loc 1 24 6
  77 0070 2334D504 		sd	a3,72(a0)
  78 0074 97070000 		lla	a5,_ZN3PCB6runnerEv
  78      93870700 
  79 007c 2338F504 		sd	a5,80(a0)
  27:src/PCB.cpp   **** }
  80              		.loc 1 27 5 is_stmt 1
  27:src/PCB.cpp   **** }
  81              		.loc 1 27 13 is_stmt 0
  82 0080 23340500 		sd	zero,8(a0)
  83              	.LBE12:
  28:src/PCB.cpp   **** 
  84              		.loc 1 28 1
  85 0084 03348100 		ld	s0,8(sp)
  86              		.cfi_restore 8
  87              		.cfi_def_cfa 2, 16
  88 0088 13010101 		addi	sp,sp,16
  89              		.cfi_def_cfa_offset 0
  90 008c 67800000 		jr	ra
  91              		.cfi_endproc
  92              	.LFE26:
  94              		.globl	_ZN3PCBC1EPFvPvES0_S0_m
  95              		.set	_ZN3PCBC1EPFvPvES0_S0_m,_ZN3PCBC2EPFvPvES0_S0_m
  96              		.align	2
  97              		.globl	_ZN3PCB5sleepEm
  99              	_ZN3PCB5sleepEm:
 100              	.LFB28:
  31:src/PCB.cpp   ****     //todo
 101              		.loc 1 31 1 is_stmt 1
 102              		.cfi_startproc
 103              	.LVL5:
 104 0090 130101FF 		addi	sp,sp,-16
 105              		.cfi_def_cfa_offset 16
 106 0094 23348100 		sd	s0,8(sp)
 107              		.cfi_offset 8, -8
 108 0098 13040101 		addi	s0,sp,16
 109              		.cfi_def_cfa 8, 0
  33:src/PCB.cpp   **** 
 110              		.loc 1 33 1 is_stmt 0
 111 009c 03348100 		ld	s0,8(sp)
 112              		.cfi_restore 8
 113              		.cfi_def_cfa 2, 16
GAS LISTING /tmp/cchfxbSE.s 			page 4


 114 00a0 13010101 		addi	sp,sp,16
 115              		.cfi_def_cfa_offset 0
 116 00a4 67800000 		jr	ra
 117              		.cfi_endproc
 118              	.LFE28:
 120              		.align	2
 121              		.globl	_ZN3PCB5startEv
 123              	_ZN3PCB5startEv:
 124              	.LFB29:
  36:src/PCB.cpp   ****     Scheduler::put(this);
 125              		.loc 1 36 1 is_stmt 1
 126              		.cfi_startproc
 127              	.LVL6:
 128 00a8 130101FF 		addi	sp,sp,-16
 129              		.cfi_def_cfa_offset 16
 130 00ac 23341100 		sd	ra,8(sp)
 131 00b0 23308100 		sd	s0,0(sp)
 132              		.cfi_offset 1, -8
 133              		.cfi_offset 8, -16
 134 00b4 13040101 		addi	s0,sp,16
 135              		.cfi_def_cfa 8, 0
  37:src/PCB.cpp   **** }
 136              		.loc 1 37 5
  37:src/PCB.cpp   **** }
 137              		.loc 1 37 19 is_stmt 0
 138 00b8 97000000 		call	_ZN9Scheduler3putEP3PCB@plt
 138      E7800000 
 139              	.LVL7:
  38:src/PCB.cpp   **** 
 140              		.loc 1 38 1
 141 00c0 83308100 		ld	ra,8(sp)
 142              		.cfi_restore 1
 143 00c4 03340100 		ld	s0,0(sp)
 144              		.cfi_restore 8
 145              		.cfi_def_cfa 2, 16
 146 00c8 13010101 		addi	sp,sp,16
 147              		.cfi_def_cfa_offset 0
 148 00cc 67800000 		jr	ra
 149              		.cfi_endproc
 150              	.LFE29:
 152              		.align	2
 153              		.globl	_ZN3PCB8dispatchEv
 155              	_ZN3PCB8dispatchEv:
 156              	.LFB31:
  51:src/PCB.cpp   **** 
  52:src/PCB.cpp   **** void PCB::dispatch()
  53:src/PCB.cpp   **** {
 157              		.loc 1 53 1 is_stmt 1
 158              		.cfi_startproc
 159 00d0 130101FE 		addi	sp,sp,-32
 160              		.cfi_def_cfa_offset 32
 161 00d4 233C1100 		sd	ra,24(sp)
 162 00d8 23388100 		sd	s0,16(sp)
 163 00dc 23349100 		sd	s1,8(sp)
 164 00e0 23302101 		sd	s2,0(sp)
 165              		.cfi_offset 1, -8
 166              		.cfi_offset 8, -16
GAS LISTING /tmp/cchfxbSE.s 			page 5


 167              		.cfi_offset 9, -24
 168              		.cfi_offset 18, -32
 169 00e4 13040102 		addi	s0,sp,32
 170              		.cfi_def_cfa 8, 0
  54:src/PCB.cpp   ****     //trapPrintString("Dispatch called...\n");
  55:src/PCB.cpp   ****     PCB* old = running;
 171              		.loc 1 55 5
 172              		.loc 1 55 10 is_stmt 0
 173 00e8 97040000 		ld	s1,.LANCHOR0
 173      83B40400 
 174              	.LVL8:
  56:src/PCB.cpp   ****     if(old->getState() == PCB::RUNNING)
 175              		.loc 1 56 5 is_stmt 1
 176              	.LBB13:
 177              	.LBB14:
 178              		.file 2 "src/../h/PCB.hpp"
   1:src/../h/PCB.hpp **** //
   2:src/../h/PCB.hpp **** // Created by os on 4/27/22.
   3:src/../h/PCB.hpp **** //
   4:src/../h/PCB.hpp **** 
   5:src/../h/PCB.hpp **** #ifndef PROJECT_BASE_V1_0_PCB_HPP
   6:src/../h/PCB.hpp **** #define PROJECT_BASE_V1_0_PCB_HPP
   7:src/../h/PCB.hpp **** 
   8:src/../h/PCB.hpp **** #include "../lib/hw.h"
   9:src/../h/PCB.hpp **** #include "Scheduler.hpp"
  10:src/../h/PCB.hpp **** #include "Riscv.hpp"
  11:src/../h/PCB.hpp **** 
  12:src/../h/PCB.hpp **** class PCB
  13:src/../h/PCB.hpp **** {
  14:src/../h/PCB.hpp **** public:
  15:src/../h/PCB.hpp ****     static uint64 savedRegA4;
  16:src/../h/PCB.hpp **** 
  17:src/../h/PCB.hpp ****     using Body = void (*)(void*);
  18:src/../h/PCB.hpp **** 
  19:src/../h/PCB.hpp ****     PCB(Body body,  void* args, void* stack_space, uint64 timeSlice);
  20:src/../h/PCB.hpp ****     ~PCB();
  21:src/../h/PCB.hpp **** 
  22:src/../h/PCB.hpp ****     void start();
  23:src/../h/PCB.hpp ****     static void dispatch();
  24:src/../h/PCB.hpp ****     static void sleep(time_t);
  25:src/../h/PCB.hpp **** 
  26:src/../h/PCB.hpp ****     static PCB* running;
  27:src/../h/PCB.hpp **** 
  28:src/../h/PCB.hpp ****     static uint64 timeSliceCounter;
  29:src/../h/PCB.hpp ****     uint64 getTimeSlice() { return timeSlice;}
  30:src/../h/PCB.hpp **** 
  31:src/../h/PCB.hpp ****     void* operator new(size_t size);
  32:src/../h/PCB.hpp ****     void operator delete(void *p);
  33:src/../h/PCB.hpp **** 
  34:src/../h/PCB.hpp ****     enum State{READY, RUNNING, SUSPENDED, FINISHED, EXITING, SLEEPING};
  35:src/../h/PCB.hpp ****     State getState() {return state;}
 179              		.loc 2 35 23
 180              		.loc 2 35 30 is_stmt 0
 181 00f0 03A70404 		lw	a4,64(s1)
 182              	.LVL9:
 183              	.LBE14:
 184              	.LBE13:
GAS LISTING /tmp/cchfxbSE.s 			page 6


 185              		.loc 1 56 5
 186 00f4 93071000 		li	a5,1
 187 00f8 630AF704 		beq	a4,a5,.L12
 188              	.L10:
  57:src/PCB.cpp   ****         Scheduler::put(old);
  58:src/PCB.cpp   ****     PCB::running = Scheduler::get();
 189              		.loc 1 58 5 is_stmt 1
 190              		.loc 1 58 34 is_stmt 0
 191 00fc 97000000 		call	_ZN9Scheduler3getEv@plt
 191      E7800000 
 192              	.LVL10:
 193              		.loc 1 58 18
 194 0104 17090000 		lla	s2,.LANCHOR0
 194      13090900 
 195 010c 2330A900 		sd	a0,0(s2)
  59:src/PCB.cpp   ****     PCB::running->setState(PCB::RUNNING);
 196              		.loc 1 59 5 is_stmt 1
 197              	.LVL11:
 198              	.LBB15:
 199              	.LBB16:
  36:src/../h/PCB.hpp ****     void setState(State s) {state = s;}
 200              		.loc 2 36 29
 201              		.loc 2 36 35 is_stmt 0
 202 0110 93071000 		li	a5,1
 203 0114 2320F504 		sw	a5,64(a0)
 204              	.LVL12:
 205              	.LBE16:
 206              	.LBE15:
  60:src/PCB.cpp   ****     //trapPrintString("Switching context...\n");
  61:src/PCB.cpp   **** 
  62:src/PCB.cpp   ****     Riscv::changePrivMode();
 207              		.loc 1 62 5 is_stmt 1
 208              		.loc 1 62 26 is_stmt 0
 209 0118 97000000 		call	_ZN5Riscv14changePrivModeEv@plt
 209      E7800000 
 210              	.LVL13:
  63:src/PCB.cpp   **** 
  64:src/PCB.cpp   ****     PCB::contextSwitch(&old->context, &running->context);
 211              		.loc 1 64 5 is_stmt 1
 212              		.loc 1 64 49 is_stmt 0
 213 0120 83350900 		ld	a1,0(s2)
 214              		.loc 1 64 23
 215 0124 93858504 		addi	a1,a1,72
 216 0128 13858404 		addi	a0,s1,72
 217 012c 97000000 		call	_ZN3PCB13contextSwitchEPNS_7ContextES1_@plt
 217      E7800000 
 218              	.LVL14:
  65:src/PCB.cpp   **** }
 219              		.loc 1 65 1
 220 0134 83308101 		ld	ra,24(sp)
 221              		.cfi_remember_state
 222              		.cfi_restore 1
 223 0138 03340101 		ld	s0,16(sp)
 224              		.cfi_restore 8
 225              		.cfi_def_cfa 2, 32
 226 013c 83348100 		ld	s1,8(sp)
 227              		.cfi_restore 9
GAS LISTING /tmp/cchfxbSE.s 			page 7


 228              	.LVL15:
 229 0140 03390100 		ld	s2,0(sp)
 230              		.cfi_restore 18
 231 0144 13010102 		addi	sp,sp,32
 232              		.cfi_def_cfa_offset 0
 233 0148 67800000 		jr	ra
 234              	.LVL16:
 235              	.L12:
 236              		.cfi_restore_state
  57:src/PCB.cpp   ****     PCB::running = Scheduler::get();
 237              		.loc 1 57 9 is_stmt 1
  57:src/PCB.cpp   ****     PCB::running = Scheduler::get();
 238              		.loc 1 57 23 is_stmt 0
 239 014c 13850400 		mv	a0,s1
 240 0150 97000000 		call	_ZN9Scheduler3putEP3PCB@plt
 240      E7800000 
 241              	.LVL17:
 242 0158 6FF05FFA 		j	.L10
 243              		.cfi_endproc
 244              	.LFE31:
 246              		.align	2
 247              		.globl	_ZN3PCBnwEm
 249              	_ZN3PCBnwEm:
 250              	.LFB32:
  66:src/PCB.cpp   **** 
  67:src/PCB.cpp   **** void *PCB::operator new(size_t size) {
 251              		.loc 1 67 38 is_stmt 1
 252              		.cfi_startproc
 253              	.LVL18:
 254 015c 130101FF 		addi	sp,sp,-16
 255              		.cfi_def_cfa_offset 16
 256 0160 23341100 		sd	ra,8(sp)
 257 0164 23308100 		sd	s0,0(sp)
 258              		.cfi_offset 1, -8
 259              		.cfi_offset 8, -16
 260 0168 13040101 		addi	s0,sp,16
 261              		.cfi_def_cfa 8, 0
  68:src/PCB.cpp   ****     return kmalloc(size);
 262              		.loc 1 68 5
 263              		.loc 1 68 19 is_stmt 0
 264 016c 97000000 		call	_Z7kmallocm@plt
 264      E7800000 
 265              	.LVL19:
  69:src/PCB.cpp   **** }
 266              		.loc 1 69 1
 267 0174 83308100 		ld	ra,8(sp)
 268              		.cfi_restore 1
 269 0178 03340100 		ld	s0,0(sp)
 270              		.cfi_restore 8
 271              		.cfi_def_cfa 2, 16
 272 017c 13010101 		addi	sp,sp,16
 273              		.cfi_def_cfa_offset 0
 274 0180 67800000 		jr	ra
 275              		.cfi_endproc
 276              	.LFE32:
 278              		.align	2
 279              		.globl	_ZN3PCBdlEPv
GAS LISTING /tmp/cchfxbSE.s 			page 8


 281              	_ZN3PCBdlEPv:
 282              	.LFB33:
  70:src/PCB.cpp   **** 
  71:src/PCB.cpp   **** void PCB::operator delete(void *p) {
 283              		.loc 1 71 36 is_stmt 1
 284              		.cfi_startproc
 285              	.LVL20:
 286 0184 130101FF 		addi	sp,sp,-16
 287              		.cfi_def_cfa_offset 16
 288 0188 23341100 		sd	ra,8(sp)
 289 018c 23308100 		sd	s0,0(sp)
 290              		.cfi_offset 1, -8
 291              		.cfi_offset 8, -16
 292 0190 13040101 		addi	s0,sp,16
 293              		.cfi_def_cfa 8, 0
  72:src/PCB.cpp   ****     kfree(p);
 294              		.loc 1 72 5
 295              		.loc 1 72 10 is_stmt 0
 296 0194 97000000 		call	_Z5kfreePv@plt
 296      E7800000 
 297              	.LVL21:
  73:src/PCB.cpp   **** }
 298              		.loc 1 73 1
 299 019c 83308100 		ld	ra,8(sp)
 300              		.cfi_restore 1
 301 01a0 03340100 		ld	s0,0(sp)
 302              		.cfi_restore 8
 303              		.cfi_def_cfa 2, 16
 304 01a4 13010101 		addi	sp,sp,16
 305              		.cfi_def_cfa_offset 0
 306 01a8 67800000 		jr	ra
 307              		.cfi_endproc
 308              	.LFE33:
 310              		.align	2
 311              		.globl	_ZN3PCBD2Ev
 313              	_ZN3PCBD2Ev:
 314              	.LFB35:
  74:src/PCB.cpp   **** 
  75:src/PCB.cpp   **** PCB::~PCB()
 315              		.loc 1 75 1 is_stmt 1
 316              		.cfi_startproc
 317              		.cfi_personality 0x9b,DW.ref.__gxx_personality_v0
 318              		.cfi_lsda 0x1b,.LLSDA35
 319              	.LVL22:
 320 01ac 130101FF 		addi	sp,sp,-16
 321              		.cfi_def_cfa_offset 16
 322 01b0 23341100 		sd	ra,8(sp)
 323 01b4 23308100 		sd	s0,0(sp)
 324              		.cfi_offset 1, -8
 325              		.cfi_offset 8, -16
 326 01b8 13040101 		addi	s0,sp,16
 327              		.cfi_def_cfa 8, 0
 328              	.LBB17:
  76:src/PCB.cpp   **** {
  77:src/PCB.cpp   ****     kfree(beginSP);
 329              		.loc 1 77 5
 330              		.loc 1 77 10 is_stmt 0
GAS LISTING /tmp/cchfxbSE.s 			page 9


 331 01bc 03358503 		ld	a0,56(a0)
 332              	.LVL23:
 333 01c0 97000000 		call	_Z5kfreePv@plt
 333      E7800000 
 334              	.LVL24:
 335              	.LBE17:
  78:src/PCB.cpp   **** }
 336              		.loc 1 78 1
 337 01c8 83308100 		ld	ra,8(sp)
 338              		.cfi_restore 1
 339 01cc 03340100 		ld	s0,0(sp)
 340              		.cfi_restore 8
 341              		.cfi_def_cfa 2, 16
 342 01d0 13010101 		addi	sp,sp,16
 343              		.cfi_def_cfa_offset 0
 344 01d4 67800000 		jr	ra
 345              		.cfi_endproc
 346              	.LFE35:
 347              		.globl	__gxx_personality_v0
 348              		.section	.gcc_except_table,"a",@progbits
 349              	.LLSDA35:
 350 0000 FF       		.byte	0xff
 351 0001 FF       		.byte	0xff
 352 0002 03       		.byte	0x3
 353 0003 00       		.byte	0
 354              		.text
 356              		.globl	_ZN3PCBD1Ev
 357              		.set	_ZN3PCBD1Ev,_ZN3PCBD2Ev
 358              		.align	2
 359              		.globl	_ZN3PCB10initializeEv
 361              	_ZN3PCB10initializeEv:
 362              	.LFB37:
  79:src/PCB.cpp   **** 
  80:src/PCB.cpp   **** void PCB::initialize()
  81:src/PCB.cpp   **** {
 363              		.loc 1 81 1 is_stmt 1
 364              		.cfi_startproc
 365 01d8 130101FD 		addi	sp,sp,-48
 366              		.cfi_def_cfa_offset 48
 367 01dc 23341102 		sd	ra,40(sp)
 368 01e0 23308102 		sd	s0,32(sp)
 369 01e4 233C9100 		sd	s1,24(sp)
 370 01e8 23382101 		sd	s2,16(sp)
 371 01ec 23343101 		sd	s3,8(sp)
 372 01f0 23304101 		sd	s4,0(sp)
 373              		.cfi_offset 1, -8
 374              		.cfi_offset 8, -16
 375              		.cfi_offset 9, -24
 376              		.cfi_offset 18, -32
 377              		.cfi_offset 19, -40
 378              		.cfi_offset 20, -48
 379 01f4 13040103 		addi	s0,sp,48
 380              		.cfi_def_cfa 8, 0
  82:src/PCB.cpp   ****     PCB* mainSystem = new PCB(0, 0, 0, 0);
 381              		.loc 1 82 5
 382              		.loc 1 82 41 is_stmt 0
 383 01f8 13058005 		li	a0,88
GAS LISTING /tmp/cchfxbSE.s 			page 10


 384 01fc 97000000 		call	_ZN3PCBnwEm
 384      E7800000 
 385              	.LVL25:
 386 0204 93040500 		mv	s1,a0
 387 0208 13070000 		li	a4,0
 388 020c 93060000 		li	a3,0
 389 0210 13060000 		li	a2,0
 390 0214 93050000 		li	a1,0
 391 0218 97000000 		call	_ZN3PCBC1EPFvPvES0_S0_m
 391      E7800000 
 392              	.LVL26:
  83:src/PCB.cpp   ****     mainSystem->start();
 393              		.loc 1 83 5 is_stmt 1
 394              		.loc 1 83 22 is_stmt 0
 395 0220 13850400 		mv	a0,s1
 396 0224 97000000 		call	_ZN3PCB5startEv
 396      E7800000 
 397              	.LVL27:
  84:src/PCB.cpp   ****     mainSystem->systemThread = true;
 398              		.loc 1 84 5 is_stmt 1
 399              		.loc 1 84 30 is_stmt 0
 400 022c 93071000 		li	a5,1
 401 0230 2380F400 		sb	a5,0(s1)
  85:src/PCB.cpp   ****     PCB::running = Scheduler::get();
 402              		.loc 1 85 5 is_stmt 1
 403              		.loc 1 85 34 is_stmt 0
 404 0234 97000000 		call	_ZN9Scheduler3getEv@plt
 404      E7800000 
 405              	.LVL28:
 406              		.loc 1 85 18
 407 023c 17090000 		lla	s2,.LANCHOR0
 407      13090900 
 408 0244 2330A900 		sd	a0,0(s2)
  86:src/PCB.cpp   ****     PCB::running->setState(PCB::RUNNING);
 409              		.loc 1 86 5 is_stmt 1
 410              	.LVL29:
 411              	.LBB18:
 412              	.LBB19:
 413              		.loc 2 36 29
 414              		.loc 2 36 35 is_stmt 0
 415 0248 130A1000 		li	s4,1
 416 024c 23204505 		sw	s4,64(a0)
 417              	.LVL30:
 418              	.LBE19:
 419              	.LBE18:
  87:src/PCB.cpp   ****     PCB::consolePCB = new PCB(&KConsole::sendCharactersToConsole, 0, kmalloc(DEFAULT_STACK_SIZE), D
 420              		.loc 1 87 5 is_stmt 1
 421              		.loc 1 87 77 is_stmt 0
 422 0250 37150000 		li	a0,4096
 423 0254 97000000 		call	_Z7kmallocm@plt
 423      E7800000 
 424              	.LVL31:
 425 025c 93090500 		mv	s3,a0
 426              		.loc 1 87 117
 427 0260 13058005 		li	a0,88
 428 0264 97000000 		call	_ZN3PCBnwEm
 428      E7800000 
GAS LISTING /tmp/cchfxbSE.s 			page 11


 429              	.LVL32:
 430 026c 93040500 		mv	s1,a0
 431              	.LVL33:
 432 0270 13072000 		li	a4,2
 433 0274 93860900 		mv	a3,s3
 434 0278 13060000 		li	a2,0
 435 027c 97050000 		la	a1,_ZN8KConsole23sendCharactersToConsoleEPv
 435      83B50500 
 436 0284 97000000 		call	_ZN3PCBC1EPFvPvES0_S0_m
 436      E7800000 
 437              	.LVL34:
 438              		.loc 1 87 21
 439 028c 23349900 		sd	s1,8(s2)
  88:src/PCB.cpp   ****     PCB::consolePCB->systemThread = true;
 440              		.loc 1 88 5 is_stmt 1
 441              		.loc 1 88 35 is_stmt 0
 442 0290 23804401 		sb	s4,0(s1)
  89:src/PCB.cpp   ****     PCB::consolePCB->start();
 443              		.loc 1 89 5 is_stmt 1
 444              		.loc 1 89 27 is_stmt 0
 445 0294 03358900 		ld	a0,8(s2)
 446 0298 97000000 		call	_ZN3PCB5startEv
 446      E7800000 
 447              	.LVL35:
  90:src/PCB.cpp   **** }
 448              		.loc 1 90 1
 449 02a0 83308102 		ld	ra,40(sp)
 450              		.cfi_restore 1
 451 02a4 03340102 		ld	s0,32(sp)
 452              		.cfi_restore 8
 453              		.cfi_def_cfa 2, 48
 454 02a8 83348101 		ld	s1,24(sp)
 455              		.cfi_restore 9
 456 02ac 03390101 		ld	s2,16(sp)
 457              		.cfi_restore 18
 458 02b0 83398100 		ld	s3,8(sp)
 459              		.cfi_restore 19
 460 02b4 033A0100 		ld	s4,0(sp)
 461              		.cfi_restore 20
 462 02b8 13010103 		addi	sp,sp,48
 463              		.cfi_def_cfa_offset 0
 464 02bc 67800000 		jr	ra
 465              		.cfi_endproc
 466              	.LFE37:
 468              		.align	2
 469              		.globl	_ZN3PCB10isFinishedEv
 471              	_ZN3PCB10isFinishedEv:
 472              	.LFB38:
  91:src/PCB.cpp   **** 
  92:src/PCB.cpp   **** bool PCB::isFinished()
  93:src/PCB.cpp   **** {
 473              		.loc 1 93 1 is_stmt 1
 474              		.cfi_startproc
 475              	.LVL36:
 476 02c0 130101FF 		addi	sp,sp,-16
 477              		.cfi_def_cfa_offset 16
 478 02c4 23348100 		sd	s0,8(sp)
GAS LISTING /tmp/cchfxbSE.s 			page 12


 479              		.cfi_offset 8, -8
 480 02c8 13040101 		addi	s0,sp,16
 481              		.cfi_def_cfa 8, 0
  94:src/PCB.cpp   ****     return state == PCB::FINISHED;
 482              		.loc 1 94 5
 483              		.loc 1 94 12 is_stmt 0
 484 02cc 03250504 		lw	a0,64(a0)
 485              	.LVL37:
 486              		.loc 1 94 26
 487 02d0 1305D5FF 		addi	a0,a0,-3
  95:src/PCB.cpp   **** }
 488              		.loc 1 95 1
 489 02d4 13351500 		seqz	a0,a0
 490 02d8 03348100 		ld	s0,8(sp)
 491              		.cfi_restore 8
 492              		.cfi_def_cfa 2, 16
 493 02dc 13010101 		addi	sp,sp,16
 494              		.cfi_def_cfa_offset 0
 495 02e0 67800000 		jr	ra
 496              		.cfi_endproc
 497              	.LFE38:
 499              		.section	.rodata.str1.8,"aMS",@progbits,1
 500              		.align	3
 501              	.LC0:
 502 0000 45786974 		.string	"Exiting thread...\n"
 502      696E6720 
 502      74687265 
 502      61642E2E 
 502      2E0A00
 503              		.text
 504              		.align	2
 505              		.globl	_ZN3PCB17threadExitHandlerEv
 507              	_ZN3PCB17threadExitHandlerEv:
 508              	.LFB39:
  96:src/PCB.cpp   **** 
  97:src/PCB.cpp   **** void PCB::threadExitHandler()
  98:src/PCB.cpp   **** {
 509              		.loc 1 98 1 is_stmt 1
 510              		.cfi_startproc
 511 02e4 130101FF 		addi	sp,sp,-16
 512              		.cfi_def_cfa_offset 16
 513 02e8 23341100 		sd	ra,8(sp)
 514 02ec 23308100 		sd	s0,0(sp)
 515              		.cfi_offset 1, -8
 516              		.cfi_offset 8, -16
 517 02f0 13040101 		addi	s0,sp,16
 518              		.cfi_def_cfa 8, 0
  99:src/PCB.cpp   ****     trapPrintString("Exiting thread...\n");
 519              		.loc 1 99 5
 520              		.loc 1 99 20 is_stmt 0
 521 02f4 17050000 		lla	a0,.LC0
 521      13050500 
 522 02fc 97000000 		call	_Z15trapPrintStringPKc@plt
 522      E7800000 
 523              	.LVL38:
 100:src/PCB.cpp   ****     PCB::timeSliceCounter = 0;
 524              		.loc 1 100 5 is_stmt 1
GAS LISTING /tmp/cchfxbSE.s 			page 13


 525              		.loc 1 100 27 is_stmt 0
 526 0304 97070000 		lla	a5,.LANCHOR0
 526      93870700 
 527 030c 23B80700 		sd	zero,16(a5)
 101:src/PCB.cpp   ****     PCB::running->setState(PCB::FINISHED);
 528              		.loc 1 101 5 is_stmt 1
 529              		.loc 1 101 27 is_stmt 0
 530 0310 83B70700 		ld	a5,0(a5)
 531              	.LVL39:
 532              	.LBB20:
 533              	.LBB21:
 534              		.loc 2 36 29 is_stmt 1
 535              		.loc 2 36 35 is_stmt 0
 536 0314 13073000 		li	a4,3
 537 0318 23A0E704 		sw	a4,64(a5)
 538              	.LVL40:
 539              	.LBE21:
 540              	.LBE20:
 102:src/PCB.cpp   ****     PCB::dispatch();
 541              		.loc 1 102 5 is_stmt 1
 542              		.loc 1 102 18 is_stmt 0
 543 031c 97000000 		call	_ZN3PCB8dispatchEv
 543      E7800000 
 544              	.LVL41:
 103:src/PCB.cpp   ****     __asm__ volatile("li a0, 0");
 545              		.loc 1 103 5 is_stmt 1
 546              		.loc 1 103 33 is_stmt 0
 547              	#APP
 548              	# 103 "src/PCB.cpp" 1
 104              	    Riscv::w_a0_sscratch();
 549              		li a0, 0
 550              	# 0 "" 2
 551              		.loc 1 104 5 is_stmt 1
 552              		.loc 1 104 25 is_stmt 0
 553              	#NO_APP
 554 0328 97000000 		call	_ZN5Riscv13w_a0_sscratchEv@plt
 554      E7800000 
 555              	.LVL42:
 105:src/PCB.cpp   **** }
 556              		.loc 1 105 1
 557 0330 83308100 		ld	ra,8(sp)
 558              		.cfi_restore 1
 559 0334 03340100 		ld	s0,0(sp)
 560              		.cfi_restore 8
 561              		.cfi_def_cfa 2, 16
 562 0338 13010101 		addi	sp,sp,16
 563              		.cfi_def_cfa_offset 0
 564 033c 67800000 		jr	ra
 565              		.cfi_endproc
 566              	.LFE39:
 568              		.align	2
 569              		.globl	_ZN3PCB21threadDispatchHandlerEv
 571              	_ZN3PCB21threadDispatchHandlerEv:
 572              	.LFB40:
 106:src/PCB.cpp   **** 
 107:src/PCB.cpp   **** void PCB::threadDispatchHandler()
 108:src/PCB.cpp   **** {
GAS LISTING /tmp/cchfxbSE.s 			page 14


 573              		.loc 1 108 1 is_stmt 1
 574              		.cfi_startproc
 575 0340 130101FF 		addi	sp,sp,-16
 576              		.cfi_def_cfa_offset 16
 577 0344 23341100 		sd	ra,8(sp)
 578 0348 23308100 		sd	s0,0(sp)
 579              		.cfi_offset 1, -8
 580              		.cfi_offset 8, -16
 581 034c 13040101 		addi	s0,sp,16
 582              		.cfi_def_cfa 8, 0
 109:src/PCB.cpp   ****     PCB::timeSliceCounter = 0;
 583              		.loc 1 109 5
 584              		.loc 1 109 27 is_stmt 0
 585 0350 97070000 		sd	zero,.LANCHOR0+16,a5
 585      23B00700 
 110:src/PCB.cpp   ****     PCB::dispatch();
 586              		.loc 1 110 5 is_stmt 1
 587              		.loc 1 110 18 is_stmt 0
 588 0358 97000000 		call	_ZN3PCB8dispatchEv
 588      E7800000 
 589              	.LVL43:
 111:src/PCB.cpp   **** }
 590              		.loc 1 111 1
 591 0360 83308100 		ld	ra,8(sp)
 592              		.cfi_restore 1
 593 0364 03340100 		ld	s0,0(sp)
 594              		.cfi_restore 8
 595              		.cfi_def_cfa 2, 16
 596 0368 13010101 		addi	sp,sp,16
 597              		.cfi_def_cfa_offset 0
 598 036c 67800000 		jr	ra
 599              		.cfi_endproc
 600              	.LFE40:
 602              		.align	2
 603              		.globl	_ZN3PCB18threadSleepHandlerEv
 605              	_ZN3PCB18threadSleepHandlerEv:
 606              	.LFB41:
 112:src/PCB.cpp   **** 
 113:src/PCB.cpp   **** void PCB::threadSleepHandler()
 114:src/PCB.cpp   **** {
 607              		.loc 1 114 1 is_stmt 1
 608              		.cfi_startproc
 609 0370 130101FF 		addi	sp,sp,-16
 610              		.cfi_def_cfa_offset 16
 611 0374 23341100 		sd	ra,8(sp)
 612 0378 23308100 		sd	s0,0(sp)
 613              		.cfi_offset 1, -8
 614              		.cfi_offset 8, -16
 615 037c 13040101 		addi	s0,sp,16
 616              		.cfi_def_cfa 8, 0
 115:src/PCB.cpp   ****     uint64 time;
 617              		.loc 1 115 5
 116:src/PCB.cpp   ****     __asm__ volatile("mv %0, a1" : "=r"(time));
 618              		.loc 1 116 5
 619              		.loc 1 116 47 is_stmt 0
 620              	#APP
 621              	# 116 "src/PCB.cpp" 1
GAS LISTING /tmp/cchfxbSE.s 			page 15


 117              	    PCB::timeSliceCounter = 0;
 622              		mv a5, a1
 623              	# 0 "" 2
 624              	.LVL44:
 625              		.loc 1 117 5 is_stmt 1
 626              		.loc 1 117 27 is_stmt 0
 627              	#NO_APP
 628 0384 17070000 		lla	a4,.LANCHOR0
 628      13070700 
 629 038c 23380700 		sd	zero,16(a4)
 118:src/PCB.cpp   ****     PCB::running->setTimeToSleep(time + Riscv::totalTime);
 630              		.loc 1 118 5 is_stmt 1
 631              		.loc 1 118 33 is_stmt 0
 632 0390 03370700 		ld	a4,0(a4)
 633 0394 97060000 		la	a3,_ZN5Riscv9totalTimeE
 633      83B60600 
 634 039c 83B60600 		ld	a3,0(a3)
 635 03a0 B387D700 		add	a5,a5,a3
 636              	.LVL45:
 637              	.LBB22:
 638              	.LBB23:
  37:src/../h/PCB.hpp ****     void setTimeToSleep(uint64 time) {timeToSleep = time;}
 639              		.loc 2 37 39 is_stmt 1
 640              		.loc 2 37 51 is_stmt 0
 641 03a4 2330F702 		sd	a5,32(a4)
 642              	.LVL46:
 643              	.LBE23:
 644              	.LBE22:
 119:src/PCB.cpp   ****     SleepPCBList::insertSleepingPCB();
 645              		.loc 1 119 5 is_stmt 1
 646              		.loc 1 119 36 is_stmt 0
 647 03a8 97000000 		call	_ZN12SleepPCBList17insertSleepingPCBEv@plt
 647      E7800000 
 648              	.LVL47:
 120:src/PCB.cpp   ****     PCB::dispatch();
 649              		.loc 1 120 5 is_stmt 1
 650              		.loc 1 120 18 is_stmt 0
 651 03b0 97000000 		call	_ZN3PCB8dispatchEv
 651      E7800000 
 652              	.LVL48:
 121:src/PCB.cpp   ****     __asm__ volatile("li a0, 0x0");
 653              		.loc 1 121 5 is_stmt 1
 654              		.loc 1 121 35 is_stmt 0
 655              	#APP
 656              	# 121 "src/PCB.cpp" 1
 122              	    Riscv::w_a0_sscratch();
 657              		li a0, 0x0
 658              	# 0 "" 2
 659              		.loc 1 122 5 is_stmt 1
 660              		.loc 1 122 25 is_stmt 0
 661              	#NO_APP
 662 03bc 97000000 		call	_ZN5Riscv13w_a0_sscratchEv@plt
 662      E7800000 
 663              	.LVL49:
 123:src/PCB.cpp   **** }
 664              		.loc 1 123 1
 665 03c4 83308100 		ld	ra,8(sp)
GAS LISTING /tmp/cchfxbSE.s 			page 16


 666              		.cfi_restore 1
 667 03c8 03340100 		ld	s0,0(sp)
 668              		.cfi_restore 8
 669              		.cfi_def_cfa 2, 16
 670 03cc 13010101 		addi	sp,sp,16
 671              		.cfi_def_cfa_offset 0
 672 03d0 67800000 		jr	ra
 673              		.cfi_endproc
 674              	.LFE41:
 676              		.align	2
 677              		.globl	_ZN3PCB19threadCreateHandlerEv
 679              	_ZN3PCB19threadCreateHandlerEv:
 680              	.LFB42:
 124:src/PCB.cpp   **** 
 125:src/PCB.cpp   **** void PCB::threadCreateHandler()
 126:src/PCB.cpp   **** {
 681              		.loc 1 126 1 is_stmt 1
 682              		.cfi_startproc
 683 03d4 130101FD 		addi	sp,sp,-48
 684              		.cfi_def_cfa_offset 48
 685 03d8 23341102 		sd	ra,40(sp)
 686 03dc 23308102 		sd	s0,32(sp)
 687 03e0 233C9100 		sd	s1,24(sp)
 688 03e4 23382101 		sd	s2,16(sp)
 689 03e8 23343101 		sd	s3,8(sp)
 690 03ec 23304101 		sd	s4,0(sp)
 691              		.cfi_offset 1, -8
 692              		.cfi_offset 8, -16
 693              		.cfi_offset 9, -24
 694              		.cfi_offset 18, -32
 695              		.cfi_offset 19, -40
 696              		.cfi_offset 20, -48
 697 03f0 13040103 		addi	s0,sp,48
 698              		.cfi_def_cfa 8, 0
 127:src/PCB.cpp   ****     uint64 start_routine;
 699              		.loc 1 127 5
 128:src/PCB.cpp   ****     uint64 args;
 700              		.loc 1 128 5
 129:src/PCB.cpp   ****     PCB **threadHandle;
 701              		.loc 1 129 5
 130:src/PCB.cpp   ****     __asm__ volatile("mv %0, a1" : "=r"(threadHandle));
 702              		.loc 1 130 5
 703              		.loc 1 130 55 is_stmt 0
 704              	#APP
 705              	# 130 "src/PCB.cpp" 1
 131              	    __asm__ volatile("mv %0, a2" : "=r"(start_routine));
 706              		mv s2, a1
 707              	# 0 "" 2
 708              	.LVL50:
 709              		.loc 1 131 5 is_stmt 1
 710              		.loc 1 131 56 is_stmt 0
 711              	# 131 "src/PCB.cpp" 1
 132              	    __asm__ volatile("mv %0, a3" : "=r"(args));
 712              		mv s3, a2
 713              	# 0 "" 2
 714              	.LVL51:
 715              		.loc 1 132 5 is_stmt 1
GAS LISTING /tmp/cchfxbSE.s 			page 17


 716              		.loc 1 132 47 is_stmt 0
 717              	# 132 "src/PCB.cpp" 1
 133              	
 718              		mv s4, a3
 719              	# 0 "" 2
 720              	.LVL52:
 134:src/PCB.cpp   ****     PCB *newPCB = new PCB((void (*)(void *)) start_routine, (void *) args, (void *) PCB::savedRegA4
 721              		.loc 1 134 5 is_stmt 1
 722              		.loc 1 134 120 is_stmt 0
 723              	#NO_APP
 724 0400 13058005 		li	a0,88
 725 0404 97000000 		call	_ZN3PCBnwEm
 725      E7800000 
 726              	.LVL53:
 727 040c 93040500 		mv	s1,a0
 728 0410 13072000 		li	a4,2
 729 0414 97060000 		ld	a3,.LANCHOR0+24
 729      83B60600 
 730 041c 13060A00 		mv	a2,s4
 731 0420 93850900 		mv	a1,s3
 732 0424 97000000 		call	_ZN3PCBC1EPFvPvES0_S0_m
 732      E7800000 
 733              	.LVL54:
 135:src/PCB.cpp   **** 
 136:src/PCB.cpp   ****     (*threadHandle) = newPCB;
 734              		.loc 1 136 5 is_stmt 1
 735              		.loc 1 136 21 is_stmt 0
 736 042c 23309900 		sd	s1,0(s2)
 137:src/PCB.cpp   **** 
 138:src/PCB.cpp   ****     if (newPCB == 0)
 737              		.loc 1 138 5 is_stmt 1
 738 0430 638E0402 		beqz	s1,.L33
 139:src/PCB.cpp   ****             __asm__ volatile("li a0, 0xffffffffffffffff");
 140:src/PCB.cpp   ****     else
 141:src/PCB.cpp   ****     {
 142:src/PCB.cpp   ****         newPCB->start();
 739              		.loc 1 142 9
 740              		.loc 1 142 22 is_stmt 0
 741 0434 13850400 		mv	a0,s1
 742 0438 97000000 		call	_ZN3PCB5startEv
 742      E7800000 
 743              	.LVL55:
 143:src/PCB.cpp   ****         __asm__ volatile("li a0, 0");
 744              		.loc 1 143 9 is_stmt 1
 745              		.loc 1 143 37 is_stmt 0
 746              	#APP
 747              	# 143 "src/PCB.cpp" 1
 144              	    }
 748              		li a0, 0
 749              	# 0 "" 2
 750              	#NO_APP
 751              	.L31:
 145:src/PCB.cpp   ****     Riscv::w_a0_sscratch();
 752              		.loc 1 145 5 is_stmt 1
 753              		.loc 1 145 25 is_stmt 0
 754 0444 97000000 		call	_ZN5Riscv13w_a0_sscratchEv@plt
 754      E7800000 
GAS LISTING /tmp/cchfxbSE.s 			page 18


 755              	.LVL56:
 146:src/PCB.cpp   **** }
 756              		.loc 1 146 1
 757 044c 83308102 		ld	ra,40(sp)
 758              		.cfi_remember_state
 759              		.cfi_restore 1
 760 0450 03340102 		ld	s0,32(sp)
 761              		.cfi_restore 8
 762              		.cfi_def_cfa 2, 48
 763 0454 83348101 		ld	s1,24(sp)
 764              		.cfi_restore 9
 765              	.LVL57:
 766 0458 03390101 		ld	s2,16(sp)
 767              		.cfi_restore 18
 768              	.LVL58:
 769 045c 83398100 		ld	s3,8(sp)
 770              		.cfi_restore 19
 771              	.LVL59:
 772 0460 033A0100 		ld	s4,0(sp)
 773              		.cfi_restore 20
 774              	.LVL60:
 775 0464 13010103 		addi	sp,sp,48
 776              		.cfi_def_cfa_offset 0
 777 0468 67800000 		jr	ra
 778              	.LVL61:
 779              	.L33:
 780              		.cfi_restore_state
 139:src/PCB.cpp   ****     else
 781              		.loc 1 139 13 is_stmt 1
 139:src/PCB.cpp   ****     else
 782              		.loc 1 139 58 is_stmt 0
 783              	#APP
 784              	# 139 "src/PCB.cpp" 1
 785              		li a0, 0xffffffffffffffff
 786              	# 0 "" 2
 787              	#NO_APP
 788 0470 6FF05FFD 		j	.L31
 789              		.cfi_endproc
 790              	.LFE42:
 792              		.align	2
 793              		.globl	_ZN3PCB18threadStartHandlerEv
 795              	_ZN3PCB18threadStartHandlerEv:
 796              	.LFB43:
 147:src/PCB.cpp   **** 
 148:src/PCB.cpp   **** void PCB::threadStartHandler()
 149:src/PCB.cpp   **** {
 797              		.loc 1 149 1 is_stmt 1
 798              		.cfi_startproc
 799 0474 130101FF 		addi	sp,sp,-16
 800              		.cfi_def_cfa_offset 16
 801 0478 23341100 		sd	ra,8(sp)
 802 047c 23308100 		sd	s0,0(sp)
 803              		.cfi_offset 1, -8
 804              		.cfi_offset 8, -16
 805 0480 13040101 		addi	s0,sp,16
 806              		.cfi_def_cfa 8, 0
 150:src/PCB.cpp   ****     PCB* pcb;
GAS LISTING /tmp/cchfxbSE.s 			page 19


 807              		.loc 1 150 5
 151:src/PCB.cpp   ****     __asm__ volatile("mv %0, a1" : "=r"(pcb));
 808              		.loc 1 151 5
 809              		.loc 1 151 46 is_stmt 0
 810              	#APP
 811              	# 151 "src/PCB.cpp" 1
 152              	    if(pcb != 0)
 812              		mv a0, a1
 813              	# 0 "" 2
 814              	.LVL62:
 815              		.loc 1 152 5 is_stmt 1
 816              	#NO_APP
 817 0488 63040502 		beqz	a0,.L35
 153:src/PCB.cpp   ****     {
 154:src/PCB.cpp   ****         pcb->start();
 818              		.loc 1 154 9
 819              		.loc 1 154 19 is_stmt 0
 820 048c 97000000 		call	_ZN3PCB5startEv
 820      E7800000 
 821              	.LVL63:
 155:src/PCB.cpp   ****         __asm__ volatile("li a0, 0");
 822              		.loc 1 155 9 is_stmt 1
 823              		.loc 1 155 37 is_stmt 0
 824              	#APP
 825              	# 155 "src/PCB.cpp" 1
 156              	    }
 826              		li a0, 0
 827              	# 0 "" 2
 828              	#NO_APP
 829              	.L36:
 157:src/PCB.cpp   ****     else
 158:src/PCB.cpp   ****     {
 159:src/PCB.cpp   ****         __asm__ volatile("li a0, 0xffffffffffffffff");
 160:src/PCB.cpp   ****     }
 161:src/PCB.cpp   ****     Riscv::w_a0_sscratch();
 830              		.loc 1 161 5 is_stmt 1
 831              		.loc 1 161 25 is_stmt 0
 832 0498 97000000 		call	_ZN5Riscv13w_a0_sscratchEv@plt
 832      E7800000 
 833              	.LVL64:
 162:src/PCB.cpp   **** }
 834              		.loc 1 162 1
 835 04a0 83308100 		ld	ra,8(sp)
 836              		.cfi_remember_state
 837              		.cfi_restore 1
 838 04a4 03340100 		ld	s0,0(sp)
 839              		.cfi_restore 8
 840              		.cfi_def_cfa 2, 16
 841 04a8 13010101 		addi	sp,sp,16
 842              		.cfi_def_cfa_offset 0
 843 04ac 67800000 		jr	ra
 844              	.LVL65:
 845              	.L35:
 846              		.cfi_restore_state
 159:src/PCB.cpp   ****     }
 847              		.loc 1 159 9 is_stmt 1
 159:src/PCB.cpp   ****     }
GAS LISTING /tmp/cchfxbSE.s 			page 20


 848              		.loc 1 159 54 is_stmt 0
 849              	#APP
 850              	# 159 "src/PCB.cpp" 1
 851              		li a0, 0xffffffffffffffff
 852              	# 0 "" 2
 853              	#NO_APP
 854 04b4 6FF05FFE 		j	.L36
 855              		.cfi_endproc
 856              	.LFE43:
 858              		.align	2
 859              		.globl	_ZN3PCB20threadMakePCBHandlerEv
 861              	_ZN3PCB20threadMakePCBHandlerEv:
 862              	.LFB44:
 163:src/PCB.cpp   **** 
 164:src/PCB.cpp   **** void PCB::threadMakePCBHandler()
 165:src/PCB.cpp   **** {
 863              		.loc 1 165 1 is_stmt 1
 864              		.cfi_startproc
 865 04b8 130101FD 		addi	sp,sp,-48
 866              		.cfi_def_cfa_offset 48
 867 04bc 23341102 		sd	ra,40(sp)
 868 04c0 23308102 		sd	s0,32(sp)
 869 04c4 233C9100 		sd	s1,24(sp)
 870 04c8 23382101 		sd	s2,16(sp)
 871 04cc 23343101 		sd	s3,8(sp)
 872 04d0 23304101 		sd	s4,0(sp)
 873              		.cfi_offset 1, -8
 874              		.cfi_offset 8, -16
 875              		.cfi_offset 9, -24
 876              		.cfi_offset 18, -32
 877              		.cfi_offset 19, -40
 878              		.cfi_offset 20, -48
 879 04d4 13040103 		addi	s0,sp,48
 880              		.cfi_def_cfa 8, 0
 166:src/PCB.cpp   ****     uint64 start_routine;
 881              		.loc 1 166 5
 167:src/PCB.cpp   ****     uint64 args;
 882              		.loc 1 167 5
 168:src/PCB.cpp   ****     PCB **threadHandle;
 883              		.loc 1 168 5
 169:src/PCB.cpp   ****     __asm__ volatile("mv %0, a1" : "=r"(threadHandle));
 884              		.loc 1 169 5
 885              		.loc 1 169 55 is_stmt 0
 886              	#APP
 887              	# 169 "src/PCB.cpp" 1
 170              	    __asm__ volatile("mv %0, a2" : "=r"(start_routine));
 888              		mv s2, a1
 889              	# 0 "" 2
 890              	.LVL66:
 891              		.loc 1 170 5 is_stmt 1
 892              		.loc 1 170 56 is_stmt 0
 893              	# 170 "src/PCB.cpp" 1
 171              	    __asm__ volatile("mv %0, a3" : "=r"(args));
 894              		mv s3, a2
 895              	# 0 "" 2
 896              	.LVL67:
 897              		.loc 1 171 5 is_stmt 1
GAS LISTING /tmp/cchfxbSE.s 			page 21


 898              		.loc 1 171 47 is_stmt 0
 899              	# 171 "src/PCB.cpp" 1
 172              	
 900              		mv s4, a3
 901              	# 0 "" 2
 902              	.LVL68:
 173:src/PCB.cpp   ****     PCB *newPCB = new PCB((void (*)(void *)) start_routine, (void *) args, (void *) PCB::savedRegA4
 903              		.loc 1 173 5 is_stmt 1
 904              		.loc 1 173 120 is_stmt 0
 905              	#NO_APP
 906 04e4 13058005 		li	a0,88
 907 04e8 97000000 		call	_ZN3PCBnwEm
 907      E7800000 
 908              	.LVL69:
 909 04f0 93040500 		mv	s1,a0
 910 04f4 13072000 		li	a4,2
 911 04f8 97060000 		ld	a3,.LANCHOR0+24
 911      83B60600 
 912 0500 13060A00 		mv	a2,s4
 913 0504 93850900 		mv	a1,s3
 914 0508 97000000 		call	_ZN3PCBC1EPFvPvES0_S0_m
 914      E7800000 
 915              	.LVL70:
 174:src/PCB.cpp   **** 
 175:src/PCB.cpp   ****     (*threadHandle) = newPCB;
 916              		.loc 1 175 5 is_stmt 1
 917              		.loc 1 175 21 is_stmt 0
 918 0510 23309900 		sd	s1,0(s2)
 176:src/PCB.cpp   **** 
 177:src/PCB.cpp   ****     if (newPCB == 0)
 919              		.loc 1 177 5 is_stmt 1
 920 0514 63880402 		beqz	s1,.L42
 178:src/PCB.cpp   ****         __asm__ volatile("li a0, 0xffffffffffffffff");
 179:src/PCB.cpp   ****     else
 180:src/PCB.cpp   ****         __asm__ volatile("li a0, 0");
 921              		.loc 1 180 9
 922              		.loc 1 180 37 is_stmt 0
 923              	#APP
 924              	# 180 "src/PCB.cpp" 1
 181              	    Riscv::w_a0_sscratch();
 925              		li a0, 0
 926              	# 0 "" 2
 927              	#NO_APP
 928              	.L40:
 929              		.loc 1 181 5 is_stmt 1
 930              		.loc 1 181 25 is_stmt 0
 931 051c 97000000 		call	_ZN5Riscv13w_a0_sscratchEv@plt
 931      E7800000 
 932              	.LVL71:
 182:src/PCB.cpp   **** }
 933              		.loc 1 182 1
 934 0524 83308102 		ld	ra,40(sp)
 935              		.cfi_remember_state
 936              		.cfi_restore 1
 937 0528 03340102 		ld	s0,32(sp)
 938              		.cfi_restore 8
 939              		.cfi_def_cfa 2, 48
GAS LISTING /tmp/cchfxbSE.s 			page 22


 940 052c 83348101 		ld	s1,24(sp)
 941              		.cfi_restore 9
 942              	.LVL72:
 943 0530 03390101 		ld	s2,16(sp)
 944              		.cfi_restore 18
 945              	.LVL73:
 946 0534 83398100 		ld	s3,8(sp)
 947              		.cfi_restore 19
 948              	.LVL74:
 949 0538 033A0100 		ld	s4,0(sp)
 950              		.cfi_restore 20
 951              	.LVL75:
 952 053c 13010103 		addi	sp,sp,48
 953              		.cfi_def_cfa_offset 0
 954 0540 67800000 		jr	ra
 955              	.LVL76:
 956              	.L42:
 957              		.cfi_restore_state
 178:src/PCB.cpp   ****         __asm__ volatile("li a0, 0xffffffffffffffff");
 958              		.loc 1 178 9 is_stmt 1
 178:src/PCB.cpp   ****         __asm__ volatile("li a0, 0xffffffffffffffff");
 959              		.loc 1 178 54 is_stmt 0
 960              	#APP
 961              	# 178 "src/PCB.cpp" 1
 962              		li a0, 0xffffffffffffffff
 963              	# 0 "" 2
 964              	#NO_APP
 965 0548 6FF05FFD 		j	.L40
 966              		.cfi_endproc
 967              	.LFE44:
 969              		.globl	_ZN3PCB10consolePCBE
 970              		.globl	_ZN3PCB10savedRegA4E
 971              		.globl	_ZN3PCB16timeSliceCounterE
 972              		.globl	_ZN3PCB7runningE
 973              		.bss
 974              		.align	3
 975              		.set	.LANCHOR0,. + 0
 978              	_ZN3PCB7runningE:
 979 0000 00000000 		.zero	8
 979      00000000 
 982              	_ZN3PCB10consolePCBE:
 983 0008 00000000 		.zero	8
 983      00000000 
 986              	_ZN3PCB16timeSliceCounterE:
 987 0010 00000000 		.zero	8
 987      00000000 
 990              	_ZN3PCB10savedRegA4E:
 991 0018 00000000 		.zero	8
 991      00000000 
 992              		.text
 993              	.Letext0:
 994              		.file 3 "src/../h/../lib/hw.h"
 995              		.file 4 "src/../h/Scheduler.hpp"
 996              		.file 5 "src/../h/Riscv.hpp"
 997              		.file 6 "src/../h/SleepPCBList.hpp"
 998              		.file 7 "src/../h/../test/printing.hpp"
 999              		.file 8 "src/../h/MemoryAllocator.hpp"
GAS LISTING /tmp/cchfxbSE.s 			page 23


 1000              		.file 9 "src/../h/../test/../h/syscall_c.h"
 4789              		.align	3
 4792              	DW.ref.__gxx_personality_v0:
 4793 0000 00000000 		.dword	__gxx_personality_v0
 4793      00000000 
 4794              		.ident	"GCC: (Ubuntu 9.3.0-17ubuntu1~20.04) 9.3.0"
 4795              		.section	.note.GNU-stack,"",@progbits
GAS LISTING /tmp/cchfxbSE.s 			page 24


DEFINED SYMBOLS
                            *ABS*:0000000000000000 PCB.cpp
     /tmp/cchfxbSE.s:9      .text:0000000000000000 _ZN3PCB6runnerEv
     /tmp/cchfxbSE.s:13     .text:0000000000000000 .L0 
     /tmp/cchfxbSE.s:14     .text:0000000000000000 .L0 
     /tmp/cchfxbSE.s:15     .text:0000000000000004 .L0 
     /tmp/cchfxbSE.s:18     .text:000000000000000c .L0 
     /tmp/cchfxbSE.s:19     .text:000000000000000c .L0 
     /tmp/cchfxbSE.s:21     .text:0000000000000010 .L0 
     /tmp/cchfxbSE.s:23     .text:0000000000000010 .L0 
     /tmp/cchfxbSE.s:24     .text:0000000000000010 .L0 
     /tmp/cchfxbSE.s:27     .text:0000000000000018 .L0 
     /tmp/cchfxbSE.s:28     .text:0000000000000018 .L0 
     /tmp/cchfxbSE.s:31     .text:0000000000000024 .L0 
     /tmp/cchfxbSE.s:35     .text:000000000000002c .L0 
     /tmp/cchfxbSE.s:36     .text:000000000000002c .L0 
     /tmp/cchfxbSE.s:39     .text:0000000000000034 .L0 
     /tmp/cchfxbSE.s:40     .text:0000000000000038 .L0 
     /tmp/cchfxbSE.s:42     .text:000000000000003c .L0 
     /tmp/cchfxbSE.s:43     .text:000000000000003c .L0 
     /tmp/cchfxbSE.s:45     .text:0000000000000040 .L0 
     /tmp/cchfxbSE.s:47     .text:0000000000000044 .L0 
     /tmp/cchfxbSE.s:53     .text:0000000000000044 _ZN3PCBC2EPFvPvES0_S0_m
     /tmp/cchfxbSE.s:56     .text:0000000000000044 .L0 
     /tmp/cchfxbSE.s:58     .text:0000000000000044 .L0 
     /tmp/cchfxbSE.s:59     .text:0000000000000048 .L0 
     /tmp/cchfxbSE.s:61     .text:000000000000004c .L0 
     /tmp/cchfxbSE.s:63     .text:0000000000000050 .L0 
     /tmp/cchfxbSE.s:66     .text:0000000000000050 .L0 
     /tmp/cchfxbSE.s:73     .text:0000000000000068 .L0 
     /tmp/cchfxbSE.s:77     .text:0000000000000070 .L0 
     /tmp/cchfxbSE.s:81     .text:0000000000000080 .L0 
     /tmp/cchfxbSE.s:82     .text:0000000000000080 .L0 
     /tmp/cchfxbSE.s:85     .text:0000000000000084 .L0 
     /tmp/cchfxbSE.s:86     .text:0000000000000088 .L0 
     /tmp/cchfxbSE.s:87     .text:0000000000000088 .L0 
     /tmp/cchfxbSE.s:89     .text:000000000000008c .L0 
     /tmp/cchfxbSE.s:91     .text:0000000000000090 .L0 
     /tmp/cchfxbSE.s:53     .text:0000000000000044 _ZN3PCBC1EPFvPvES0_S0_m
     /tmp/cchfxbSE.s:99     .text:0000000000000090 _ZN3PCB5sleepEm
     /tmp/cchfxbSE.s:102    .text:0000000000000090 .L0 
     /tmp/cchfxbSE.s:104    .text:0000000000000090 .L0 
     /tmp/cchfxbSE.s:105    .text:0000000000000094 .L0 
     /tmp/cchfxbSE.s:107    .text:0000000000000098 .L0 
     /tmp/cchfxbSE.s:109    .text:000000000000009c .L0 
     /tmp/cchfxbSE.s:111    .text:000000000000009c .L0 
     /tmp/cchfxbSE.s:112    .text:00000000000000a0 .L0 
     /tmp/cchfxbSE.s:113    .text:00000000000000a0 .L0 
     /tmp/cchfxbSE.s:115    .text:00000000000000a4 .L0 
     /tmp/cchfxbSE.s:117    .text:00000000000000a8 .L0 
     /tmp/cchfxbSE.s:123    .text:00000000000000a8 _ZN3PCB5startEv
     /tmp/cchfxbSE.s:126    .text:00000000000000a8 .L0 
     /tmp/cchfxbSE.s:128    .text:00000000000000a8 .L0 
     /tmp/cchfxbSE.s:129    .text:00000000000000ac .L0 
     /tmp/cchfxbSE.s:132    .text:00000000000000b4 .L0 
     /tmp/cchfxbSE.s:133    .text:00000000000000b4 .L0 
     /tmp/cchfxbSE.s:135    .text:00000000000000b8 .L0 
GAS LISTING /tmp/cchfxbSE.s 			page 25


     /tmp/cchfxbSE.s:137    .text:00000000000000b8 .L0 
     /tmp/cchfxbSE.s:138    .text:00000000000000b8 .L0 
     /tmp/cchfxbSE.s:141    .text:00000000000000c0 .L0 
     /tmp/cchfxbSE.s:142    .text:00000000000000c4 .L0 
     /tmp/cchfxbSE.s:144    .text:00000000000000c8 .L0 
     /tmp/cchfxbSE.s:145    .text:00000000000000c8 .L0 
     /tmp/cchfxbSE.s:147    .text:00000000000000cc .L0 
     /tmp/cchfxbSE.s:149    .text:00000000000000d0 .L0 
     /tmp/cchfxbSE.s:155    .text:00000000000000d0 _ZN3PCB8dispatchEv
     /tmp/cchfxbSE.s:158    .text:00000000000000d0 .L0 
     /tmp/cchfxbSE.s:159    .text:00000000000000d0 .L0 
     /tmp/cchfxbSE.s:160    .text:00000000000000d4 .L0 
     /tmp/cchfxbSE.s:165    .text:00000000000000e4 .L0 
     /tmp/cchfxbSE.s:166    .text:00000000000000e4 .L0 
     /tmp/cchfxbSE.s:167    .text:00000000000000e4 .L0 
     /tmp/cchfxbSE.s:168    .text:00000000000000e4 .L0 
     /tmp/cchfxbSE.s:170    .text:00000000000000e8 .L0 
     /tmp/cchfxbSE.s:172    .text:00000000000000e8 .L0 
     /tmp/cchfxbSE.s:173    .text:00000000000000e8 .L0 
     /tmp/cchfxbSE.s:179    .text:00000000000000f0 .L0 
     /tmp/cchfxbSE.s:180    .text:00000000000000f0 .L0 
     /tmp/cchfxbSE.s:181    .text:00000000000000f0 .L0 
     /tmp/cchfxbSE.s:186    .text:00000000000000f4 .L0 
     /tmp/cchfxbSE.s:190    .text:00000000000000fc .L0 
     /tmp/cchfxbSE.s:191    .text:00000000000000fc .L0 
     /tmp/cchfxbSE.s:194    .text:0000000000000104 .L0 
     /tmp/cchfxbSE.s:200    .text:0000000000000110 .L0 
     /tmp/cchfxbSE.s:201    .text:0000000000000110 .L0 
     /tmp/cchfxbSE.s:202    .text:0000000000000110 .L0 
     /tmp/cchfxbSE.s:208    .text:0000000000000118 .L0 
     /tmp/cchfxbSE.s:209    .text:0000000000000118 .L0 
     /tmp/cchfxbSE.s:212    .text:0000000000000120 .L0 
     /tmp/cchfxbSE.s:213    .text:0000000000000120 .L0 
     /tmp/cchfxbSE.s:215    .text:0000000000000124 .L0 
     /tmp/cchfxbSE.s:220    .text:0000000000000134 .L0 
     /tmp/cchfxbSE.s:221    .text:0000000000000138 .L0 
     /tmp/cchfxbSE.s:222    .text:0000000000000138 .L0 
     /tmp/cchfxbSE.s:224    .text:000000000000013c .L0 
     /tmp/cchfxbSE.s:225    .text:000000000000013c .L0 
     /tmp/cchfxbSE.s:227    .text:0000000000000140 .L0 
     /tmp/cchfxbSE.s:230    .text:0000000000000144 .L0 
     /tmp/cchfxbSE.s:232    .text:0000000000000148 .L0 
     /tmp/cchfxbSE.s:236    .text:000000000000014c .L0 
     /tmp/cchfxbSE.s:238    .text:000000000000014c .L0 
     /tmp/cchfxbSE.s:239    .text:000000000000014c .L0 
     /tmp/cchfxbSE.s:243    .text:000000000000015c .L0 
     /tmp/cchfxbSE.s:249    .text:000000000000015c _ZN3PCBnwEm
     /tmp/cchfxbSE.s:252    .text:000000000000015c .L0 
     /tmp/cchfxbSE.s:254    .text:000000000000015c .L0 
     /tmp/cchfxbSE.s:255    .text:0000000000000160 .L0 
     /tmp/cchfxbSE.s:258    .text:0000000000000168 .L0 
     /tmp/cchfxbSE.s:259    .text:0000000000000168 .L0 
     /tmp/cchfxbSE.s:261    .text:000000000000016c .L0 
     /tmp/cchfxbSE.s:263    .text:000000000000016c .L0 
     /tmp/cchfxbSE.s:264    .text:000000000000016c .L0 
     /tmp/cchfxbSE.s:267    .text:0000000000000174 .L0 
     /tmp/cchfxbSE.s:268    .text:0000000000000178 .L0 
GAS LISTING /tmp/cchfxbSE.s 			page 26


     /tmp/cchfxbSE.s:270    .text:000000000000017c .L0 
     /tmp/cchfxbSE.s:271    .text:000000000000017c .L0 
     /tmp/cchfxbSE.s:273    .text:0000000000000180 .L0 
     /tmp/cchfxbSE.s:275    .text:0000000000000184 .L0 
     /tmp/cchfxbSE.s:281    .text:0000000000000184 _ZN3PCBdlEPv
     /tmp/cchfxbSE.s:284    .text:0000000000000184 .L0 
     /tmp/cchfxbSE.s:286    .text:0000000000000184 .L0 
     /tmp/cchfxbSE.s:287    .text:0000000000000188 .L0 
     /tmp/cchfxbSE.s:290    .text:0000000000000190 .L0 
     /tmp/cchfxbSE.s:291    .text:0000000000000190 .L0 
     /tmp/cchfxbSE.s:293    .text:0000000000000194 .L0 
     /tmp/cchfxbSE.s:295    .text:0000000000000194 .L0 
     /tmp/cchfxbSE.s:296    .text:0000000000000194 .L0 
     /tmp/cchfxbSE.s:299    .text:000000000000019c .L0 
     /tmp/cchfxbSE.s:300    .text:00000000000001a0 .L0 
     /tmp/cchfxbSE.s:302    .text:00000000000001a4 .L0 
     /tmp/cchfxbSE.s:303    .text:00000000000001a4 .L0 
     /tmp/cchfxbSE.s:305    .text:00000000000001a8 .L0 
     /tmp/cchfxbSE.s:307    .text:00000000000001ac .L0 
     /tmp/cchfxbSE.s:313    .text:00000000000001ac _ZN3PCBD2Ev
     /tmp/cchfxbSE.s:316    .text:00000000000001ac .L0 
     /tmp/cchfxbSE.s:4792   .data.rel.local.DW.ref.__gxx_personality_v0:0000000000000000 DW.ref.__gxx_personality_v0
     /tmp/cchfxbSE.s:320    .text:00000000000001ac .L0 
     /tmp/cchfxbSE.s:321    .text:00000000000001b0 .L0 
     /tmp/cchfxbSE.s:324    .text:00000000000001b8 .L0 
     /tmp/cchfxbSE.s:325    .text:00000000000001b8 .L0 
     /tmp/cchfxbSE.s:327    .text:00000000000001bc .L0 
     /tmp/cchfxbSE.s:330    .text:00000000000001bc .L0 
     /tmp/cchfxbSE.s:331    .text:00000000000001bc .L0 
     /tmp/cchfxbSE.s:337    .text:00000000000001c8 .L0 
     /tmp/cchfxbSE.s:338    .text:00000000000001cc .L0 
     /tmp/cchfxbSE.s:340    .text:00000000000001d0 .L0 
     /tmp/cchfxbSE.s:341    .text:00000000000001d0 .L0 
     /tmp/cchfxbSE.s:343    .text:00000000000001d4 .L0 
     /tmp/cchfxbSE.s:345    .text:00000000000001d8 .L0 
     /tmp/cchfxbSE.s:313    .text:00000000000001ac _ZN3PCBD1Ev
     /tmp/cchfxbSE.s:361    .text:00000000000001d8 _ZN3PCB10initializeEv
     /tmp/cchfxbSE.s:364    .text:00000000000001d8 .L0 
     /tmp/cchfxbSE.s:365    .text:00000000000001d8 .L0 
     /tmp/cchfxbSE.s:366    .text:00000000000001dc .L0 
     /tmp/cchfxbSE.s:373    .text:00000000000001f4 .L0 
     /tmp/cchfxbSE.s:374    .text:00000000000001f4 .L0 
     /tmp/cchfxbSE.s:375    .text:00000000000001f4 .L0 
     /tmp/cchfxbSE.s:376    .text:00000000000001f4 .L0 
     /tmp/cchfxbSE.s:377    .text:00000000000001f4 .L0 
     /tmp/cchfxbSE.s:378    .text:00000000000001f4 .L0 
     /tmp/cchfxbSE.s:380    .text:00000000000001f8 .L0 
     /tmp/cchfxbSE.s:382    .text:00000000000001f8 .L0 
     /tmp/cchfxbSE.s:383    .text:00000000000001f8 .L0 
     /tmp/cchfxbSE.s:394    .text:0000000000000220 .L0 
     /tmp/cchfxbSE.s:395    .text:0000000000000220 .L0 
     /tmp/cchfxbSE.s:399    .text:000000000000022c .L0 
     /tmp/cchfxbSE.s:400    .text:000000000000022c .L0 
     /tmp/cchfxbSE.s:403    .text:0000000000000234 .L0 
     /tmp/cchfxbSE.s:404    .text:0000000000000234 .L0 
     /tmp/cchfxbSE.s:407    .text:000000000000023c .L0 
     /tmp/cchfxbSE.s:413    .text:0000000000000248 .L0 
GAS LISTING /tmp/cchfxbSE.s 			page 27


     /tmp/cchfxbSE.s:414    .text:0000000000000248 .L0 
     /tmp/cchfxbSE.s:415    .text:0000000000000248 .L0 
     /tmp/cchfxbSE.s:421    .text:0000000000000250 .L0 
     /tmp/cchfxbSE.s:422    .text:0000000000000250 .L0 
     /tmp/cchfxbSE.s:427    .text:0000000000000260 .L0 
     /tmp/cchfxbSE.s:439    .text:000000000000028c .L0 
     /tmp/cchfxbSE.s:441    .text:0000000000000290 .L0 
     /tmp/cchfxbSE.s:442    .text:0000000000000290 .L0 
     /tmp/cchfxbSE.s:444    .text:0000000000000294 .L0 
     /tmp/cchfxbSE.s:445    .text:0000000000000294 .L0 
     /tmp/cchfxbSE.s:449    .text:00000000000002a0 .L0 
     /tmp/cchfxbSE.s:450    .text:00000000000002a4 .L0 
     /tmp/cchfxbSE.s:452    .text:00000000000002a8 .L0 
     /tmp/cchfxbSE.s:453    .text:00000000000002a8 .L0 
     /tmp/cchfxbSE.s:455    .text:00000000000002ac .L0 
     /tmp/cchfxbSE.s:457    .text:00000000000002b0 .L0 
     /tmp/cchfxbSE.s:459    .text:00000000000002b4 .L0 
     /tmp/cchfxbSE.s:461    .text:00000000000002b8 .L0 
     /tmp/cchfxbSE.s:463    .text:00000000000002bc .L0 
     /tmp/cchfxbSE.s:465    .text:00000000000002c0 .L0 
     /tmp/cchfxbSE.s:471    .text:00000000000002c0 _ZN3PCB10isFinishedEv
     /tmp/cchfxbSE.s:474    .text:00000000000002c0 .L0 
     /tmp/cchfxbSE.s:476    .text:00000000000002c0 .L0 
     /tmp/cchfxbSE.s:477    .text:00000000000002c4 .L0 
     /tmp/cchfxbSE.s:479    .text:00000000000002c8 .L0 
     /tmp/cchfxbSE.s:481    .text:00000000000002cc .L0 
     /tmp/cchfxbSE.s:483    .text:00000000000002cc .L0 
     /tmp/cchfxbSE.s:484    .text:00000000000002cc .L0 
     /tmp/cchfxbSE.s:487    .text:00000000000002d0 .L0 
     /tmp/cchfxbSE.s:489    .text:00000000000002d4 .L0 
     /tmp/cchfxbSE.s:491    .text:00000000000002dc .L0 
     /tmp/cchfxbSE.s:492    .text:00000000000002dc .L0 
     /tmp/cchfxbSE.s:494    .text:00000000000002e0 .L0 
     /tmp/cchfxbSE.s:496    .text:00000000000002e4 .L0 
     /tmp/cchfxbSE.s:507    .text:00000000000002e4 _ZN3PCB17threadExitHandlerEv
     /tmp/cchfxbSE.s:510    .text:00000000000002e4 .L0 
     /tmp/cchfxbSE.s:511    .text:00000000000002e4 .L0 
     /tmp/cchfxbSE.s:512    .text:00000000000002e8 .L0 
     /tmp/cchfxbSE.s:515    .text:00000000000002f0 .L0 
     /tmp/cchfxbSE.s:516    .text:00000000000002f0 .L0 
     /tmp/cchfxbSE.s:518    .text:00000000000002f4 .L0 
     /tmp/cchfxbSE.s:520    .text:00000000000002f4 .L0 
     /tmp/cchfxbSE.s:521    .text:00000000000002f4 .L0 
     /tmp/cchfxbSE.s:525    .text:0000000000000304 .L0 
     /tmp/cchfxbSE.s:526    .text:0000000000000304 .L0 
     /tmp/cchfxbSE.s:529    .text:0000000000000310 .L0 
     /tmp/cchfxbSE.s:530    .text:0000000000000310 .L0 
     /tmp/cchfxbSE.s:535    .text:0000000000000314 .L0 
     /tmp/cchfxbSE.s:536    .text:0000000000000314 .L0 
     /tmp/cchfxbSE.s:542    .text:000000000000031c .L0 
     /tmp/cchfxbSE.s:543    .text:000000000000031c .L0 
     /tmp/cchfxbSE.s:546    .text:0000000000000324 .L0 
         src/PCB.cpp:103    .text:0000000000000324 .L0 
     /tmp/cchfxbSE.s:552    .text:0000000000000328 .L0 
     /tmp/cchfxbSE.s:554    .text:0000000000000328 .L0 
     /tmp/cchfxbSE.s:557    .text:0000000000000330 .L0 
     /tmp/cchfxbSE.s:558    .text:0000000000000334 .L0 
GAS LISTING /tmp/cchfxbSE.s 			page 28


     /tmp/cchfxbSE.s:560    .text:0000000000000338 .L0 
     /tmp/cchfxbSE.s:561    .text:0000000000000338 .L0 
     /tmp/cchfxbSE.s:563    .text:000000000000033c .L0 
     /tmp/cchfxbSE.s:565    .text:0000000000000340 .L0 
     /tmp/cchfxbSE.s:571    .text:0000000000000340 _ZN3PCB21threadDispatchHandlerEv
     /tmp/cchfxbSE.s:574    .text:0000000000000340 .L0 
     /tmp/cchfxbSE.s:575    .text:0000000000000340 .L0 
     /tmp/cchfxbSE.s:576    .text:0000000000000344 .L0 
     /tmp/cchfxbSE.s:579    .text:000000000000034c .L0 
     /tmp/cchfxbSE.s:580    .text:000000000000034c .L0 
     /tmp/cchfxbSE.s:582    .text:0000000000000350 .L0 
     /tmp/cchfxbSE.s:584    .text:0000000000000350 .L0 
     /tmp/cchfxbSE.s:585    .text:0000000000000350 .L0 
     /tmp/cchfxbSE.s:587    .text:0000000000000358 .L0 
     /tmp/cchfxbSE.s:588    .text:0000000000000358 .L0 
     /tmp/cchfxbSE.s:591    .text:0000000000000360 .L0 
     /tmp/cchfxbSE.s:592    .text:0000000000000364 .L0 
     /tmp/cchfxbSE.s:594    .text:0000000000000368 .L0 
     /tmp/cchfxbSE.s:595    .text:0000000000000368 .L0 
     /tmp/cchfxbSE.s:597    .text:000000000000036c .L0 
     /tmp/cchfxbSE.s:599    .text:0000000000000370 .L0 
     /tmp/cchfxbSE.s:605    .text:0000000000000370 _ZN3PCB18threadSleepHandlerEv
     /tmp/cchfxbSE.s:608    .text:0000000000000370 .L0 
     /tmp/cchfxbSE.s:609    .text:0000000000000370 .L0 
     /tmp/cchfxbSE.s:610    .text:0000000000000374 .L0 
     /tmp/cchfxbSE.s:613    .text:000000000000037c .L0 
     /tmp/cchfxbSE.s:614    .text:000000000000037c .L0 
     /tmp/cchfxbSE.s:616    .text:0000000000000380 .L0 
     /tmp/cchfxbSE.s:618    .text:0000000000000380 .L0 
     /tmp/cchfxbSE.s:619    .text:0000000000000380 .L0 
         src/PCB.cpp:116    .text:0000000000000380 .L0 
     /tmp/cchfxbSE.s:626    .text:0000000000000384 .L0 
     /tmp/cchfxbSE.s:628    .text:0000000000000384 .L0 
     /tmp/cchfxbSE.s:631    .text:0000000000000390 .L0 
     /tmp/cchfxbSE.s:632    .text:0000000000000390 .L0 
     /tmp/cchfxbSE.s:640    .text:00000000000003a4 .L0 
     /tmp/cchfxbSE.s:641    .text:00000000000003a4 .L0 
     /tmp/cchfxbSE.s:646    .text:00000000000003a8 .L0 
     /tmp/cchfxbSE.s:647    .text:00000000000003a8 .L0 
     /tmp/cchfxbSE.s:650    .text:00000000000003b0 .L0 
     /tmp/cchfxbSE.s:651    .text:00000000000003b0 .L0 
     /tmp/cchfxbSE.s:654    .text:00000000000003b8 .L0 
         src/PCB.cpp:121    .text:00000000000003b8 .L0 
     /tmp/cchfxbSE.s:660    .text:00000000000003bc .L0 
     /tmp/cchfxbSE.s:662    .text:00000000000003bc .L0 
     /tmp/cchfxbSE.s:665    .text:00000000000003c4 .L0 
     /tmp/cchfxbSE.s:666    .text:00000000000003c8 .L0 
     /tmp/cchfxbSE.s:668    .text:00000000000003cc .L0 
     /tmp/cchfxbSE.s:669    .text:00000000000003cc .L0 
     /tmp/cchfxbSE.s:671    .text:00000000000003d0 .L0 
     /tmp/cchfxbSE.s:673    .text:00000000000003d4 .L0 
     /tmp/cchfxbSE.s:679    .text:00000000000003d4 _ZN3PCB19threadCreateHandlerEv
     /tmp/cchfxbSE.s:682    .text:00000000000003d4 .L0 
     /tmp/cchfxbSE.s:683    .text:00000000000003d4 .L0 
     /tmp/cchfxbSE.s:684    .text:00000000000003d8 .L0 
     /tmp/cchfxbSE.s:691    .text:00000000000003f0 .L0 
     /tmp/cchfxbSE.s:692    .text:00000000000003f0 .L0 
GAS LISTING /tmp/cchfxbSE.s 			page 29


     /tmp/cchfxbSE.s:693    .text:00000000000003f0 .L0 
     /tmp/cchfxbSE.s:694    .text:00000000000003f0 .L0 
     /tmp/cchfxbSE.s:695    .text:00000000000003f0 .L0 
     /tmp/cchfxbSE.s:696    .text:00000000000003f0 .L0 
     /tmp/cchfxbSE.s:698    .text:00000000000003f4 .L0 
     /tmp/cchfxbSE.s:700    .text:00000000000003f4 .L0 
     /tmp/cchfxbSE.s:701    .text:00000000000003f4 .L0 
     /tmp/cchfxbSE.s:702    .text:00000000000003f4 .L0 
     /tmp/cchfxbSE.s:703    .text:00000000000003f4 .L0 
         src/PCB.cpp:130    .text:00000000000003f4 .L0 
     /tmp/cchfxbSE.s:710    .text:00000000000003f8 .L0 
         src/PCB.cpp:131    .text:00000000000003f8 .L0 
     /tmp/cchfxbSE.s:716    .text:00000000000003fc .L0 
         src/PCB.cpp:132    .text:00000000000003fc .L0 
     /tmp/cchfxbSE.s:722    .text:0000000000000400 .L0 
     /tmp/cchfxbSE.s:724    .text:0000000000000400 .L0 
     /tmp/cchfxbSE.s:735    .text:000000000000042c .L0 
     /tmp/cchfxbSE.s:736    .text:000000000000042c .L0 
     /tmp/cchfxbSE.s:738    .text:0000000000000430 .L0 
     /tmp/cchfxbSE.s:740    .text:0000000000000434 .L0 
     /tmp/cchfxbSE.s:741    .text:0000000000000434 .L0 
     /tmp/cchfxbSE.s:745    .text:0000000000000440 .L0 
         src/PCB.cpp:143    .text:0000000000000440 .L0 
     /tmp/cchfxbSE.s:753    .text:0000000000000444 .L0 
     /tmp/cchfxbSE.s:754    .text:0000000000000444 .L0 
     /tmp/cchfxbSE.s:757    .text:000000000000044c .L0 
     /tmp/cchfxbSE.s:758    .text:0000000000000450 .L0 
     /tmp/cchfxbSE.s:759    .text:0000000000000450 .L0 
     /tmp/cchfxbSE.s:761    .text:0000000000000454 .L0 
     /tmp/cchfxbSE.s:762    .text:0000000000000454 .L0 
     /tmp/cchfxbSE.s:764    .text:0000000000000458 .L0 
     /tmp/cchfxbSE.s:767    .text:000000000000045c .L0 
     /tmp/cchfxbSE.s:770    .text:0000000000000460 .L0 
     /tmp/cchfxbSE.s:773    .text:0000000000000464 .L0 
     /tmp/cchfxbSE.s:776    .text:0000000000000468 .L0 
     /tmp/cchfxbSE.s:780    .text:000000000000046c .L0 
     /tmp/cchfxbSE.s:782    .text:000000000000046c .L0 
         src/PCB.cpp:139    .text:000000000000046c .L0 
     /tmp/cchfxbSE.s:789    .text:0000000000000474 .L0 
     /tmp/cchfxbSE.s:795    .text:0000000000000474 _ZN3PCB18threadStartHandlerEv
     /tmp/cchfxbSE.s:798    .text:0000000000000474 .L0 
     /tmp/cchfxbSE.s:799    .text:0000000000000474 .L0 
     /tmp/cchfxbSE.s:800    .text:0000000000000478 .L0 
     /tmp/cchfxbSE.s:803    .text:0000000000000480 .L0 
     /tmp/cchfxbSE.s:804    .text:0000000000000480 .L0 
     /tmp/cchfxbSE.s:806    .text:0000000000000484 .L0 
     /tmp/cchfxbSE.s:808    .text:0000000000000484 .L0 
     /tmp/cchfxbSE.s:809    .text:0000000000000484 .L0 
         src/PCB.cpp:151    .text:0000000000000484 .L0 
     /tmp/cchfxbSE.s:817    .text:0000000000000488 .L0 
     /tmp/cchfxbSE.s:819    .text:000000000000048c .L0 
     /tmp/cchfxbSE.s:820    .text:000000000000048c .L0 
     /tmp/cchfxbSE.s:823    .text:0000000000000494 .L0 
         src/PCB.cpp:155    .text:0000000000000494 .L0 
     /tmp/cchfxbSE.s:831    .text:0000000000000498 .L0 
     /tmp/cchfxbSE.s:832    .text:0000000000000498 .L0 
     /tmp/cchfxbSE.s:835    .text:00000000000004a0 .L0 
GAS LISTING /tmp/cchfxbSE.s 			page 30


     /tmp/cchfxbSE.s:836    .text:00000000000004a4 .L0 
     /tmp/cchfxbSE.s:837    .text:00000000000004a4 .L0 
     /tmp/cchfxbSE.s:839    .text:00000000000004a8 .L0 
     /tmp/cchfxbSE.s:840    .text:00000000000004a8 .L0 
     /tmp/cchfxbSE.s:842    .text:00000000000004ac .L0 
     /tmp/cchfxbSE.s:846    .text:00000000000004b0 .L0 
     /tmp/cchfxbSE.s:848    .text:00000000000004b0 .L0 
         src/PCB.cpp:159    .text:00000000000004b0 .L0 
     /tmp/cchfxbSE.s:855    .text:00000000000004b8 .L0 
     /tmp/cchfxbSE.s:861    .text:00000000000004b8 _ZN3PCB20threadMakePCBHandlerEv
     /tmp/cchfxbSE.s:864    .text:00000000000004b8 .L0 
     /tmp/cchfxbSE.s:865    .text:00000000000004b8 .L0 
     /tmp/cchfxbSE.s:866    .text:00000000000004bc .L0 
     /tmp/cchfxbSE.s:873    .text:00000000000004d4 .L0 
     /tmp/cchfxbSE.s:874    .text:00000000000004d4 .L0 
     /tmp/cchfxbSE.s:875    .text:00000000000004d4 .L0 
     /tmp/cchfxbSE.s:876    .text:00000000000004d4 .L0 
     /tmp/cchfxbSE.s:877    .text:00000000000004d4 .L0 
     /tmp/cchfxbSE.s:878    .text:00000000000004d4 .L0 
     /tmp/cchfxbSE.s:880    .text:00000000000004d8 .L0 
     /tmp/cchfxbSE.s:882    .text:00000000000004d8 .L0 
     /tmp/cchfxbSE.s:883    .text:00000000000004d8 .L0 
     /tmp/cchfxbSE.s:884    .text:00000000000004d8 .L0 
     /tmp/cchfxbSE.s:885    .text:00000000000004d8 .L0 
         src/PCB.cpp:169    .text:00000000000004d8 .L0 
     /tmp/cchfxbSE.s:892    .text:00000000000004dc .L0 
         src/PCB.cpp:170    .text:00000000000004dc .L0 
     /tmp/cchfxbSE.s:898    .text:00000000000004e0 .L0 
         src/PCB.cpp:171    .text:00000000000004e0 .L0 
     /tmp/cchfxbSE.s:904    .text:00000000000004e4 .L0 
     /tmp/cchfxbSE.s:906    .text:00000000000004e4 .L0 
     /tmp/cchfxbSE.s:917    .text:0000000000000510 .L0 
     /tmp/cchfxbSE.s:918    .text:0000000000000510 .L0 
     /tmp/cchfxbSE.s:920    .text:0000000000000514 .L0 
     /tmp/cchfxbSE.s:922    .text:0000000000000518 .L0 
         src/PCB.cpp:180    .text:0000000000000518 .L0 
     /tmp/cchfxbSE.s:930    .text:000000000000051c .L0 
     /tmp/cchfxbSE.s:931    .text:000000000000051c .L0 
     /tmp/cchfxbSE.s:934    .text:0000000000000524 .L0 
     /tmp/cchfxbSE.s:935    .text:0000000000000528 .L0 
     /tmp/cchfxbSE.s:936    .text:0000000000000528 .L0 
     /tmp/cchfxbSE.s:938    .text:000000000000052c .L0 
     /tmp/cchfxbSE.s:939    .text:000000000000052c .L0 
     /tmp/cchfxbSE.s:941    .text:0000000000000530 .L0 
     /tmp/cchfxbSE.s:944    .text:0000000000000534 .L0 
     /tmp/cchfxbSE.s:947    .text:0000000000000538 .L0 
     /tmp/cchfxbSE.s:950    .text:000000000000053c .L0 
     /tmp/cchfxbSE.s:953    .text:0000000000000540 .L0 
     /tmp/cchfxbSE.s:957    .text:0000000000000544 .L0 
     /tmp/cchfxbSE.s:959    .text:0000000000000544 .L0 
         src/PCB.cpp:178    .text:0000000000000544 .L0 
     /tmp/cchfxbSE.s:966    .text:000000000000054c .L0 
     /tmp/cchfxbSE.s:982    .bss:0000000000000008 _ZN3PCB10consolePCBE
     /tmp/cchfxbSE.s:990    .bss:0000000000000018 _ZN3PCB10savedRegA4E
     /tmp/cchfxbSE.s:986    .bss:0000000000000010 _ZN3PCB16timeSliceCounterE
     /tmp/cchfxbSE.s:978    .bss:0000000000000000 _ZN3PCB7runningE
     /tmp/cchfxbSE.s:975    .bss:0000000000000000 .LANCHOR0
GAS LISTING /tmp/cchfxbSE.s 			page 31


     /tmp/cchfxbSE.s:1001   .text:000000000000054c .L0 
     /tmp/cchfxbSE.s:28     .text:0000000000000018 .L0 
     /tmp/cchfxbSE.s:78     .text:0000000000000074 .L0 
     /tmp/cchfxbSE.s:173    .text:00000000000000e8 .L0 
     /tmp/cchfxbSE.s:194    .text:0000000000000104 .L0 
     /tmp/cchfxbSE.s:407    .text:000000000000023c .L0 
     /tmp/cchfxbSE.s:435    .text:000000000000027c .L0 
     /tmp/cchfxbSE.s:501    .rodata.str1.8:0000000000000000 .LC0
     /tmp/cchfxbSE.s:521    .text:00000000000002f4 .L0 
     /tmp/cchfxbSE.s:526    .text:0000000000000304 .L0 
     /tmp/cchfxbSE.s:585    .text:0000000000000350 .L0 
     /tmp/cchfxbSE.s:628    .text:0000000000000384 .L0 
     /tmp/cchfxbSE.s:633    .text:0000000000000394 .L0 
     /tmp/cchfxbSE.s:729    .text:0000000000000414 .L0 
     /tmp/cchfxbSE.s:911    .text:00000000000004f8 .L0 
     /tmp/cchfxbSE.s:235    .text:000000000000014c .L12
     /tmp/cchfxbSE.s:188    .text:00000000000000fc .L10
     /tmp/cchfxbSE.s:779    .text:000000000000046c .L33
     /tmp/cchfxbSE.s:751    .text:0000000000000444 .L31
     /tmp/cchfxbSE.s:845    .text:00000000000004b0 .L35
     /tmp/cchfxbSE.s:829    .text:0000000000000498 .L36
     /tmp/cchfxbSE.s:956    .text:0000000000000544 .L42
     /tmp/cchfxbSE.s:928    .text:000000000000051c .L40
     /tmp/cchfxbSE.s:2991   .debug_abbrev:0000000000000000 .Ldebug_abbrev0
     /tmp/cchfxbSE.s:4388   .debug_str:0000000000000160 .LASF211
     /tmp/cchfxbSE.s:4718   .debug_str:0000000000000c4b .LASF212
     /tmp/cchfxbSE.s:4708   .debug_str:0000000000000be4 .LASF213
     /tmp/cchfxbSE.s:5      .text:0000000000000000 .Ltext0
     /tmp/cchfxbSE.s:993    .text:000000000000054c .Letext0
     /tmp/cchfxbSE.s:4342   .debug_line:0000000000000000 .Ldebug_line0
     /tmp/cchfxbSE.s:4492   .debug_str:0000000000000529 .LASF0
     /tmp/cchfxbSE.s:4524   .debug_str:0000000000000627 .LASF1
     /tmp/cchfxbSE.s:4632   .debug_str:00000000000009c7 .LASF2
     /tmp/cchfxbSE.s:4644   .debug_str:0000000000000a1c .LASF4
     /tmp/cchfxbSE.s:4510   .debug_str:00000000000005ad .LASF3
     /tmp/cchfxbSE.s:4356   .debug_str:0000000000000056 .LASF5
     /tmp/cchfxbSE.s:4606   .debug_str:00000000000008f1 .LASF6
     /tmp/cchfxbSE.s:4596   .debug_str:00000000000008a6 .LASF7
     /tmp/cchfxbSE.s:4516   .debug_str:00000000000005ee .LASF8
     /tmp/cchfxbSE.s:4468   .debug_str:000000000000046c .LASF9
     /tmp/cchfxbSE.s:4474   .debug_str:00000000000004af .LASF10
     /tmp/cchfxbSE.s:4408   .debug_str:00000000000002b1 .LASF11
     /tmp/cchfxbSE.s:4458   .debug_str:0000000000000435 .LASF12
     /tmp/cchfxbSE.s:4414   .debug_str:00000000000002d3 .LASF13
     /tmp/cchfxbSE.s:4406   .debug_str:00000000000002a1 .LASF14
     /tmp/cchfxbSE.s:4684   .debug_str:0000000000000b57 .LASF15
     /tmp/cchfxbSE.s:4450   .debug_str:00000000000003d7 .LASF16
     /tmp/cchfxbSE.s:4674   .debug_str:0000000000000ae6 .LASF17
     /tmp/cchfxbSE.s:4694   .debug_str:0000000000000b96 .LASF214
     /tmp/cchfxbSE.s:4398   .debug_str:000000000000025d .LASF18
     /tmp/cchfxbSE.s:4666   .debug_str:0000000000000abe .LASF19
     /tmp/cchfxbSE.s:4412   .debug_str:00000000000002c9 .LASF20
     /tmp/cchfxbSE.s:4384   .debug_str:0000000000000149 .LASF21
     /tmp/cchfxbSE.s:4600   .debug_str:00000000000008cf .LASF22
     /tmp/cchfxbSE.s:4410   .debug_str:00000000000002c0 .LASF23
     /tmp/cchfxbSE.s:4686   .debug_str:0000000000000b63 .LASF86
     /tmp/cchfxbSE.s:4480   .debug_str:00000000000004e2 .LASF24
GAS LISTING /tmp/cchfxbSE.s 			page 32


     /tmp/cchfxbSE.s:4360   .debug_str:0000000000000068 .LASF29
     /tmp/cchfxbSE.s:4712   .debug_str:0000000000000c0f .LASF215
     /tmp/cchfxbSE.s:4584   .debug_str:000000000000084d .LASF216
     /tmp/cchfxbSE.s:4522   .debug_str:0000000000000622 .LASF25
     /tmp/cchfxbSE.s:4770   .debug_str:0000000000000ddf .LASF27
     /tmp/cchfxbSE.s:4764   .debug_str:0000000000000daf .LASF26
     /tmp/cchfxbSE.s:4702   .debug_str:0000000000000bb6 .LASF28
     /tmp/cchfxbSE.s:4436   .debug_str:0000000000000379 .LASF54
     /tmp/cchfxbSE.s:4368   .debug_str:00000000000000b3 .LASF56
     /tmp/cchfxbSE.s:4526   .debug_str:000000000000063a .LASF34
     /tmp/cchfxbSE.s:4588   .debug_str:0000000000000865 .LASF36
     /tmp/cchfxbSE.s:4698   .debug_str:0000000000000ba6 .LASF30
     /tmp/cchfxbSE.s:4656   .debug_str:0000000000000a59 .LASF31
     /tmp/cchfxbSE.s:4528   .debug_str:0000000000000640 .LASF38
     /tmp/cchfxbSE.s:4534   .debug_str:0000000000000677 .LASF40
     /tmp/cchfxbSE.s:4774   .debug_str:0000000000000e03 .LASF32
     /tmp/cchfxbSE.s:4452   .debug_str:00000000000003ed .LASF33
     /tmp/cchfxbSE.s:4348   .debug_str:000000000000001f .LASF35
     /tmp/cchfxbSE.s:4504   .debug_str:0000000000000581 .LASF37
     /tmp/cchfxbSE.s:4660   .debug_str:0000000000000a7b .LASF39
     /tmp/cchfxbSE.s:4562   .debug_str:0000000000000778 .LASF41
     /tmp/cchfxbSE.s:4642   .debug_str:0000000000000a13 .LASF42
     /tmp/cchfxbSE.s:4680   .debug_str:0000000000000b34 .LASF43
     /tmp/cchfxbSE.s:4564   .debug_str:000000000000078b .LASF44
     /tmp/cchfxbSE.s:4344   .debug_str:0000000000000000 .LASF45
     /tmp/cchfxbSE.s:4750   .debug_str:0000000000000d37 .LASF46
     /tmp/cchfxbSE.s:4594   .debug_str:000000000000088c .LASF47
     /tmp/cchfxbSE.s:4672   .debug_str:0000000000000ad8 .LASF48
     /tmp/cchfxbSE.s:4608   .debug_str:00000000000008f8 .LASF49
     /tmp/cchfxbSE.s:4432   .debug_str:0000000000000357 .LASF50
     /tmp/cchfxbSE.s:4462   .debug_str:000000000000044c .LASF51
     /tmp/cchfxbSE.s:4624   .debug_str:0000000000000986 .LASF52
     /tmp/cchfxbSE.s:4756   .debug_str:0000000000000d6b .LASF53
     /tmp/cchfxbSE.s:4512   .debug_str:00000000000005bf .LASF60
     /tmp/cchfxbSE.s:4668   .debug_str:0000000000000ac6 .LASF55
     /tmp/cchfxbSE.s:4768   .debug_str:0000000000000dc9 .LASF57
     /tmp/cchfxbSE.s:4688   .debug_str:0000000000000b6b .LASF58
     /tmp/cchfxbSE.s:4424   .debug_str:000000000000032a .LASF59
     /tmp/cchfxbSE.s:4652   .debug_str:0000000000000a43 .LASF61
     /tmp/cchfxbSE.s:4494   .debug_str:0000000000000536 .LASF62
     /tmp/cchfxbSE.s:4572   .debug_str:00000000000007c5 .LASF63
     /tmp/cchfxbSE.s:4418   .debug_str:00000000000002f4 .LASF64
     /tmp/cchfxbSE.s:4612   .debug_str:000000000000090b .LASF65
     /tmp/cchfxbSE.s:4784   .debug_str:0000000000000e3b .LASF66
     /tmp/cchfxbSE.s:4576   .debug_str:00000000000007eb .LASF67
     /tmp/cchfxbSE.s:4640   .debug_str:0000000000000a00 .LASF68
     /tmp/cchfxbSE.s:4662   .debug_str:0000000000000a84 .LASF69
     /tmp/cchfxbSE.s:4724   .debug_str:0000000000000c65 .LASF70
     /tmp/cchfxbSE.s:4552   .debug_str:000000000000071b .LASF71
     /tmp/cchfxbSE.s:4714   .debug_str:0000000000000c27 .LASF72
     /tmp/cchfxbSE.s:4678   .debug_str:0000000000000b14 .LASF73
     /tmp/cchfxbSE.s:4440   .debug_str:0000000000000388 .LASF74
     /tmp/cchfxbSE.s:4496   .debug_str:000000000000054a .LASF75
     /tmp/cchfxbSE.s:4706   .debug_str:0000000000000bda .LASF76
     /tmp/cchfxbSE.s:4590   .debug_str:0000000000000875 .LASF77
     /tmp/cchfxbSE.s:4762   .debug_str:0000000000000da1 .LASF78
     /tmp/cchfxbSE.s:4372   .debug_str:00000000000000d3 .LASF80
GAS LISTING /tmp/cchfxbSE.s 			page 33


     /tmp/cchfxbSE.s:4454   .debug_str:00000000000003f9 .LASF79
     /tmp/cchfxbSE.s:4396   .debug_str:0000000000000231 .LASF81
     /tmp/cchfxbSE.s:4748   .debug_str:0000000000000d30 .LASF217
     /tmp/cchfxbSE.s:4392   .debug_str:0000000000000212 .LASF218
     /tmp/cchfxbSE.s:4346   .debug_str:000000000000001a .LASF82
     /tmp/cchfxbSE.s:4722   .debug_str:0000000000000c60 .LASF83
     /tmp/cchfxbSE.s:4540   .debug_str:00000000000006bd .LASF84
     /tmp/cchfxbSE.s:4438   .debug_str:0000000000000382 .LASF85
     /tmp/cchfxbSE.s:4710   .debug_str:0000000000000c07 .LASF87
     /tmp/cchfxbSE.s:4466   .debug_str:0000000000000462 .LASF88
     /tmp/cchfxbSE.s:4362   .debug_str:0000000000000073 .LASF219
     /tmp/cchfxbSE.s:4766   .debug_str:0000000000000db5 .LASF220
     /tmp/cchfxbSE.s:4380   .debug_str:0000000000000124 .LASF89
     /tmp/cchfxbSE.s:4586   .debug_str:0000000000000852 .LASF90
     /tmp/cchfxbSE.s:4700   .debug_str:0000000000000bae .LASF91
     /tmp/cchfxbSE.s:4626   .debug_str:0000000000000993 .LASF120
     /tmp/cchfxbSE.s:4390   .debug_str:000000000000020c .LASF92
     /tmp/cchfxbSE.s:4570   .debug_str:00000000000007af .LASF93
     /tmp/cchfxbSE.s:4658   .debug_str:0000000000000a6a .LASF94
     /tmp/cchfxbSE.s:4416   .debug_str:00000000000002e3 .LASF95
     /tmp/cchfxbSE.s:4736   .debug_str:0000000000000ce6 .LASF96
     /tmp/cchfxbSE.s:4488   .debug_str:0000000000000506 .LASF97
     /tmp/cchfxbSE.s:4676   .debug_str:0000000000000afc .LASF98
     /tmp/cchfxbSE.s:4754   .debug_str:0000000000000d5c .LASF99
     /tmp/cchfxbSE.s:4664   .debug_str:0000000000000aa2 .LASF100
     /tmp/cchfxbSE.s:4592   .debug_str:0000000000000881 .LASF101
     /tmp/cchfxbSE.s:4548   .debug_str:00000000000006f3 .LASF102
     /tmp/cchfxbSE.s:4448   .debug_str:00000000000003cd .LASF103
     /tmp/cchfxbSE.s:4598   .debug_str:00000000000008b9 .LASF104
     /tmp/cchfxbSE.s:4550   .debug_str:000000000000070b .LASF105
     /tmp/cchfxbSE.s:4730   .debug_str:0000000000000cac .LASF106
     /tmp/cchfxbSE.s:4726   .debug_str:0000000000000c78 .LASF107
     /tmp/cchfxbSE.s:4532   .debug_str:0000000000000659 .LASF108
     /tmp/cchfxbSE.s:4442   .debug_str:0000000000000391 .LASF109
     /tmp/cchfxbSE.s:4760   .debug_str:0000000000000d7d .LASF110
     /tmp/cchfxbSE.s:4502   .debug_str:000000000000056f .LASF111
     /tmp/cchfxbSE.s:4420   .debug_str:0000000000000306 .LASF112
     /tmp/cchfxbSE.s:4378   .debug_str:000000000000011a .LASF113
     /tmp/cchfxbSE.s:4470   .debug_str:000000000000047c .LASF114
     /tmp/cchfxbSE.s:4654   .debug_str:0000000000000a4b .LASF115
     /tmp/cchfxbSE.s:4620   .debug_str:0000000000000964 .LASF116
     /tmp/cchfxbSE.s:4566   .debug_str:000000000000079a .LASF117
     /tmp/cchfxbSE.s:4742   .debug_str:0000000000000d01 .LASF118
     /tmp/cchfxbSE.s:4720   .debug_str:0000000000000c57 .LASF119
     /tmp/cchfxbSE.s:4352   .debug_str:0000000000000037 .LASF121
     /tmp/cchfxbSE.s:4780   .debug_str:0000000000000e2a .LASF122
     /tmp/cchfxbSE.s:4580   .debug_str:0000000000000820 .LASF123
     /tmp/cchfxbSE.s:4610   .debug_str:0000000000000904 .LASF124
     /tmp/cchfxbSE.s:4614   .debug_str:0000000000000928 .LASF125
     /tmp/cchfxbSE.s:4574   .debug_str:00000000000007e4 .LASF126
     /tmp/cchfxbSE.s:4518   .debug_str:0000000000000601 .LASF127
     /tmp/cchfxbSE.s:4744   .debug_str:0000000000000d1b .LASF128
     /tmp/cchfxbSE.s:4704   .debug_str:0000000000000bc6 .LASF129
     /tmp/cchfxbSE.s:4568   .debug_str:00000000000007a7 .LASF130
     /tmp/cchfxbSE.s:4578   .debug_str:000000000000080c .LASF131
     /tmp/cchfxbSE.s:4556   .debug_str:0000000000000749 .LASF132
     /tmp/cchfxbSE.s:4616   .debug_str:000000000000093b .LASF133
GAS LISTING /tmp/cchfxbSE.s 			page 34


     /tmp/cchfxbSE.s:4782   .debug_str:0000000000000e33 .LASF134
     /tmp/cchfxbSE.s:4500   .debug_str:000000000000055b .LASF135
     /tmp/cchfxbSE.s:4484   .debug_str:00000000000004f3 .LASF136
     /tmp/cchfxbSE.s:4682   .debug_str:0000000000000b50 .LASF137
     /tmp/cchfxbSE.s:4648   .debug_str:0000000000000a29 .LASF138
     /tmp/cchfxbSE.s:4650   .debug_str:0000000000000a3c .LASF139
     /tmp/cchfxbSE.s:4446   .debug_str:00000000000003ba .LASF140
     /tmp/cchfxbSE.s:4646   .debug_str:0000000000000a23 .LASF141
     /tmp/cchfxbSE.s:4364   .debug_str:000000000000008b .LASF142
     /tmp/cchfxbSE.s:4498   .debug_str:0000000000000555 .LASF143
     /tmp/cchfxbSE.s:4434   .debug_str:0000000000000367 .LASF144
     /tmp/cchfxbSE.s:4394   .debug_str:0000000000000223 .LASF145
     /tmp/cchfxbSE.s:4692   .debug_str:0000000000000b7b .LASF146
     /tmp/cchfxbSE.s:4358   .debug_str:000000000000005d .LASF147
     /tmp/cchfxbSE.s:4638   .debug_str:00000000000009e8 .LASF148
     /tmp/cchfxbSE.s:4630   .debug_str:00000000000009bc .LASF149
     /tmp/cchfxbSE.s:4772   .debug_str:0000000000000deb .LASF150
     /tmp/cchfxbSE.s:4636   .debug_str:00000000000009e1 .LASF151
     /tmp/cchfxbSE.s:4404   .debug_str:000000000000028e .LASF152
     /tmp/cchfxbSE.s:4670   .debug_str:0000000000000ad1 .LASF153
     /tmp/cchfxbSE.s:4536   .debug_str:000000000000068f .LASF154
     /tmp/cchfxbSE.s:4740   .debug_str:0000000000000cf7 .LASF155
     /tmp/cchfxbSE.s:4752   .debug_str:0000000000000d46 .LASF156
     /tmp/cchfxbSE.s:4732   .debug_str:0000000000000cca .LASF157
     /tmp/cchfxbSE.s:4366   .debug_str:000000000000009d .LASF158
     /tmp/cchfxbSE.s:4430   .debug_str:0000000000000351 .LASF159
     /tmp/cchfxbSE.s:4478   .debug_str:00000000000004d0 .LASF160
     /tmp/cchfxbSE.s:4486   .debug_str:0000000000000500 .LASF161
     /tmp/cchfxbSE.s:4734   .debug_str:0000000000000cd4 .LASF162
     /tmp/cchfxbSE.s:4482   .debug_str:00000000000004e8 .LASF163
     /tmp/cchfxbSE.s:4490   .debug_str:0000000000000511 .LASF164
     /tmp/cchfxbSE.s:4716   .debug_str:0000000000000c3c .LASF165
     /tmp/cchfxbSE.s:4472   .debug_str:0000000000000493 .LASF166
     /tmp/cchfxbSE.s:4604   .debug_str:00000000000008dc .LASF167
     /tmp/cchfxbSE.s:4514   .debug_str:00000000000005cc .LASF168
     /tmp/cchfxbSE.s:4374   .debug_str:00000000000000fb .LASF169
     /tmp/cchfxbSE.s:4544   .debug_str:00000000000006ca .LASF170
     /tmp/cchfxbSE.s:4622   .debug_str:000000000000097f .LASF171
     /tmp/cchfxbSE.s:4350   .debug_str:000000000000002f .LASF172
     /tmp/cchfxbSE.s:4776   .debug_str:0000000000000e10 .LASF173
     /tmp/cchfxbSE.s:4530   .debug_str:000000000000064d .LASF174
     /tmp/cchfxbSE.s:4382   .debug_str:0000000000000136 .LASF175
     /tmp/cchfxbSE.s:4560   .debug_str:0000000000000766 .LASF176
     /tmp/cchfxbSE.s:4476   .debug_str:00000000000004bd .LASF177
     /tmp/cchfxbSE.s:4508   .debug_str:000000000000059a .LASF178
     /tmp/cchfxbSE.s:4400   .debug_str:0000000000000263 .LASF179
     /tmp/cchfxbSE.s:4696   .debug_str:0000000000000b9c .LASF180
     /tmp/cchfxbSE.s:4542   .debug_str:00000000000006c5 .LASF181
     /tmp/cchfxbSE.s:4746   .debug_str:0000000000000d23 .LASF182
     /tmp/cchfxbSE.s:4554   .debug_str:0000000000000739 .LASF183
     /tmp/cchfxbSE.s:4444   .debug_str:00000000000003a8 .LASF184
     /tmp/cchfxbSE.s:4456   .debug_str:000000000000040e .LASF185
     /tmp/cchfxbSE.s:4386   .debug_str:0000000000000152 .LASF186
     /tmp/cchfxbSE.s:4728   .debug_str:0000000000000c89 .LASF187
     /tmp/cchfxbSE.s:4690   .debug_str:0000000000000b76 .LASF188
     /tmp/cchfxbSE.s:4628   .debug_str:00000000000009ab .LASF189
     /tmp/cchfxbSE.s:4538   .debug_str:00000000000006a2 .LASF190
GAS LISTING /tmp/cchfxbSE.s 			page 35


     /tmp/cchfxbSE.s:4618   .debug_str:000000000000094f .LASF191
     /tmp/cchfxbSE.s:4558   .debug_str:0000000000000751 .LASF192
     /tmp/cchfxbSE.s:862    .text:00000000000004b8 .LFB44
     /tmp/cchfxbSE.s:967    .text:000000000000054c .LFE44
     /tmp/cchfxbSE.s:4520   .debug_str:0000000000000614 .LASF193
     /tmp/cchfxbSE.s:4057   .debug_loc:0000000000000000 .LLST23
     /tmp/cchfxbSE.s:4068   .debug_loc:0000000000000036 .LLST24
     /tmp/cchfxbSE.s:4370   .debug_str:00000000000000c6 .LASF194
     /tmp/cchfxbSE.s:4079   .debug_loc:000000000000006c .LLST25
     /tmp/cchfxbSE.s:4758   .debug_str:0000000000000d76 .LASF195
     /tmp/cchfxbSE.s:4090   .debug_loc:00000000000000a2 .LLST26
     /tmp/cchfxbSE.s:908    .text:00000000000004f0 .LVL69
     /tmp/cchfxbSE.s:915    .text:0000000000000510 .LVL70
     /tmp/cchfxbSE.s:932    .text:0000000000000524 .LVL71
     /tmp/cchfxbSE.s:796    .text:0000000000000474 .LFB43
     /tmp/cchfxbSE.s:856    .text:00000000000004b8 .LFE43
     /tmp/cchfxbSE.s:4101   .debug_loc:00000000000000d8 .LLST22
     /tmp/cchfxbSE.s:821    .text:0000000000000494 .LVL63
     /tmp/cchfxbSE.s:833    .text:00000000000004a0 .LVL64
     /tmp/cchfxbSE.s:680    .text:00000000000003d4 .LFB42
     /tmp/cchfxbSE.s:790    .text:0000000000000474 .LFE42
     /tmp/cchfxbSE.s:4112   .debug_loc:000000000000010e .LLST18
     /tmp/cchfxbSE.s:4123   .debug_loc:0000000000000144 .LLST19
     /tmp/cchfxbSE.s:4134   .debug_loc:000000000000017a .LLST20
     /tmp/cchfxbSE.s:4145   .debug_loc:00000000000001b0 .LLST21
     /tmp/cchfxbSE.s:726    .text:000000000000040c .LVL53
     /tmp/cchfxbSE.s:733    .text:000000000000042c .LVL54
     /tmp/cchfxbSE.s:743    .text:0000000000000440 .LVL55
     /tmp/cchfxbSE.s:755    .text:000000000000044c .LVL56
     /tmp/cchfxbSE.s:606    .text:0000000000000370 .LFB41
     /tmp/cchfxbSE.s:674    .text:00000000000003d4 .LFE41
     /tmp/cchfxbSE.s:4602   .debug_str:00000000000008d7 .LASF196
     /tmp/cchfxbSE.s:4156   .debug_loc:00000000000001e6 .LLST15
     /tmp/cchfxbSE.s:637    .text:00000000000003a4 .LBB22
     /tmp/cchfxbSE.s:644    .text:00000000000003a8 .LBE22
     /tmp/cchfxbSE.s:4163   .debug_loc:0000000000000209 .LLST16
     /tmp/cchfxbSE.s:4170   .debug_loc:000000000000022c .LLST17
     /tmp/cchfxbSE.s:648    .text:00000000000003b0 .LVL47
     /tmp/cchfxbSE.s:652    .text:00000000000003b8 .LVL48
     /tmp/cchfxbSE.s:663    .text:00000000000003c4 .LVL49
     /tmp/cchfxbSE.s:572    .text:0000000000000340 .LFB40
     /tmp/cchfxbSE.s:600    .text:0000000000000370 .LFE40
     /tmp/cchfxbSE.s:589    .text:0000000000000360 .LVL43
     /tmp/cchfxbSE.s:508    .text:00000000000002e4 .LFB39
     /tmp/cchfxbSE.s:566    .text:0000000000000340 .LFE39
     /tmp/cchfxbSE.s:532    .text:0000000000000314 .LBB20
     /tmp/cchfxbSE.s:540    .text:000000000000031c .LBE20
     /tmp/cchfxbSE.s:4177   .debug_loc:000000000000024f .LLST13
     /tmp/cchfxbSE.s:4185   .debug_loc:0000000000000273 .LLST14
     /tmp/cchfxbSE.s:523    .text:0000000000000304 .LVL38
     /tmp/cchfxbSE.s:544    .text:0000000000000324 .LVL41
     /tmp/cchfxbSE.s:555    .text:0000000000000330 .LVL42
     /tmp/cchfxbSE.s:472    .text:00000000000002c0 .LFB38
     /tmp/cchfxbSE.s:497    .text:00000000000002e4 .LFE38
     /tmp/cchfxbSE.s:4428   .debug_str:000000000000034c .LASF198
     /tmp/cchfxbSE.s:4192   .debug_loc:0000000000000296 .LLST12
     /tmp/cchfxbSE.s:362    .text:00000000000001d8 .LFB37
GAS LISTING /tmp/cchfxbSE.s 			page 36


     /tmp/cchfxbSE.s:466    .text:00000000000002c0 .LFE37
     /tmp/cchfxbSE.s:4738   .debug_str:0000000000000cec .LASF197
     /tmp/cchfxbSE.s:4206   .debug_loc:00000000000002cf .LLST9
     /tmp/cchfxbSE.s:411    .text:0000000000000248 .LBB18
     /tmp/cchfxbSE.s:419    .text:0000000000000250 .LBE18
     /tmp/cchfxbSE.s:4213   .debug_loc:00000000000002f2 .LLST10
     /tmp/cchfxbSE.s:4221   .debug_loc:0000000000000316 .LLST11
     /tmp/cchfxbSE.s:385    .text:0000000000000204 .LVL25
     /tmp/cchfxbSE.s:392    .text:0000000000000220 .LVL26
     /tmp/cchfxbSE.s:397    .text:000000000000022c .LVL27
     /tmp/cchfxbSE.s:405    .text:000000000000023c .LVL28
     /tmp/cchfxbSE.s:424    .text:000000000000025c .LVL31
     /tmp/cchfxbSE.s:429    .text:000000000000026c .LVL32
     /tmp/cchfxbSE.s:437    .text:000000000000028c .LVL34
     /tmp/cchfxbSE.s:447    .text:00000000000002a0 .LVL35
     /tmp/cchfxbSE.s:4354   .debug_str:000000000000004c .LASF199
     /tmp/cchfxbSE.s:4426   .debug_str:0000000000000340 .LASF202
     /tmp/cchfxbSE.s:314    .text:00000000000001ac .LFB35
     /tmp/cchfxbSE.s:346    .text:00000000000001d8 .LFE35
     /tmp/cchfxbSE.s:4228   .debug_loc:0000000000000339 .LLST8
     /tmp/cchfxbSE.s:334    .text:00000000000001c8 .LVL24
     /tmp/cchfxbSE.s:282    .text:0000000000000184 .LFB33
     /tmp/cchfxbSE.s:308    .text:00000000000001ac .LFE33
     /tmp/cchfxbSE.s:4242   .debug_loc:0000000000000372 .LLST7
     /tmp/cchfxbSE.s:297    .text:000000000000019c .LVL21
     /tmp/cchfxbSE.s:250    .text:000000000000015c .LFB32
     /tmp/cchfxbSE.s:276    .text:0000000000000184 .LFE32
     /tmp/cchfxbSE.s:4422   .debug_str:0000000000000325 .LASF200
     /tmp/cchfxbSE.s:4256   .debug_loc:00000000000003ab .LLST6
     /tmp/cchfxbSE.s:265    .text:0000000000000174 .LVL19
     /tmp/cchfxbSE.s:156    .text:00000000000000d0 .LFB31
     /tmp/cchfxbSE.s:244    .text:000000000000015c .LFE31
     /tmp/cchfxbSE.s:4270   .debug_loc:00000000000003e4 .LLST2
     /tmp/cchfxbSE.s:176    .text:00000000000000f0 .LBB13
     /tmp/cchfxbSE.s:184    .text:00000000000000f4 .LBE13
     /tmp/cchfxbSE.s:4281   .debug_loc:000000000000041a .LLST3
     /tmp/cchfxbSE.s:198    .text:0000000000000110 .LBB15
     /tmp/cchfxbSE.s:206    .text:0000000000000118 .LBE15
     /tmp/cchfxbSE.s:4288   .debug_loc:000000000000043d .LLST4
     /tmp/cchfxbSE.s:4296   .debug_loc:0000000000000461 .LLST5
     /tmp/cchfxbSE.s:192    .text:0000000000000104 .LVL10
     /tmp/cchfxbSE.s:210    .text:0000000000000120 .LVL13
     /tmp/cchfxbSE.s:218    .text:0000000000000134 .LVL14
     /tmp/cchfxbSE.s:241    .text:0000000000000158 .LVL17
     /tmp/cchfxbSE.s:10     .text:0000000000000000 .LFB30
     /tmp/cchfxbSE.s:48     .text:0000000000000044 .LFE30
     /tmp/cchfxbSE.s:25     .text:0000000000000018 .LVL0
     /tmp/cchfxbSE.s:37     .text:0000000000000034 .LVL2
     /tmp/cchfxbSE.s:124    .text:00000000000000a8 .LFB29
     /tmp/cchfxbSE.s:150    .text:00000000000000d0 .LFE29
     /tmp/cchfxbSE.s:4303   .debug_loc:0000000000000484 .LLST1
     /tmp/cchfxbSE.s:139    .text:00000000000000c0 .LVL7
     /tmp/cchfxbSE.s:100    .text:0000000000000090 .LFB28
     /tmp/cchfxbSE.s:118    .text:00000000000000a8 .LFE28
     /tmp/cchfxbSE.s:4546   .debug_str:00000000000006e7 .LASF201
     /tmp/cchfxbSE.s:4582   .debug_str:0000000000000835 .LASF203
     /tmp/cchfxbSE.s:54     .text:0000000000000044 .LFB26
GAS LISTING /tmp/cchfxbSE.s 			page 37


     /tmp/cchfxbSE.s:92     .text:0000000000000090 .LFE26
     /tmp/cchfxbSE.s:4317   .debug_loc:00000000000004bd .LLST0
     /tmp/cchfxbSE.s:4402   .debug_str:0000000000000277 .LASF204
     /tmp/cchfxbSE.s:4376   .debug_str:000000000000010a .LASF206
     /tmp/cchfxbSE.s:4634   .debug_str:00000000000009d5 .LASF205
     /tmp/cchfxbSE.s:4460   .debug_str:0000000000000444 .LASF207
     /tmp/cchfxbSE.s:4778   .debug_str:0000000000000e1f .LASF208
     /tmp/cchfxbSE.s:4464   .debug_str:000000000000045c .LASF209
     /tmp/cchfxbSE.s:4506   .debug_str:000000000000058e .LASF210
     /tmp/cchfxbSE.s:896    .text:00000000000004e0 .LVL67
     /tmp/cchfxbSE.s:948    .text:0000000000000538 .LVL74
     /tmp/cchfxbSE.s:955    .text:0000000000000544 .LVL76
     /tmp/cchfxbSE.s:902    .text:00000000000004e4 .LVL68
     /tmp/cchfxbSE.s:951    .text:000000000000053c .LVL75
     /tmp/cchfxbSE.s:890    .text:00000000000004dc .LVL66
     /tmp/cchfxbSE.s:945    .text:0000000000000534 .LVL73
     /tmp/cchfxbSE.s:942    .text:0000000000000530 .LVL72
     /tmp/cchfxbSE.s:814    .text:0000000000000488 .LVL62
     /tmp/cchfxbSE.s:844    .text:00000000000004b0 .LVL65
     /tmp/cchfxbSE.s:714    .text:00000000000003fc .LVL51
     /tmp/cchfxbSE.s:771    .text:0000000000000460 .LVL59
     /tmp/cchfxbSE.s:778    .text:000000000000046c .LVL61
     /tmp/cchfxbSE.s:720    .text:0000000000000400 .LVL52
     /tmp/cchfxbSE.s:774    .text:0000000000000464 .LVL60
     /tmp/cchfxbSE.s:708    .text:00000000000003f8 .LVL50
     /tmp/cchfxbSE.s:768    .text:000000000000045c .LVL58
     /tmp/cchfxbSE.s:765    .text:0000000000000458 .LVL57
     /tmp/cchfxbSE.s:624    .text:0000000000000384 .LVL44
     /tmp/cchfxbSE.s:636    .text:00000000000003a4 .LVL45
     /tmp/cchfxbSE.s:642    .text:00000000000003a8 .LVL46
     /tmp/cchfxbSE.s:531    .text:0000000000000314 .LVL39
     /tmp/cchfxbSE.s:538    .text:000000000000031c .LVL40
     /tmp/cchfxbSE.s:475    .text:00000000000002c0 .LVL36
     /tmp/cchfxbSE.s:485    .text:00000000000002d0 .LVL37
     /tmp/cchfxbSE.s:431    .text:0000000000000270 .LVL33
     /tmp/cchfxbSE.s:410    .text:0000000000000248 .LVL29
     /tmp/cchfxbSE.s:417    .text:0000000000000250 .LVL30
     /tmp/cchfxbSE.s:319    .text:00000000000001ac .LVL22
     /tmp/cchfxbSE.s:332    .text:00000000000001c0 .LVL23
     /tmp/cchfxbSE.s:285    .text:0000000000000184 .LVL20
     /tmp/cchfxbSE.s:253    .text:000000000000015c .LVL18
     /tmp/cchfxbSE.s:174    .text:00000000000000f0 .LVL8
     /tmp/cchfxbSE.s:228    .text:0000000000000140 .LVL15
     /tmp/cchfxbSE.s:234    .text:000000000000014c .LVL16
     /tmp/cchfxbSE.s:182    .text:00000000000000f4 .LVL9
     /tmp/cchfxbSE.s:197    .text:0000000000000110 .LVL11
     /tmp/cchfxbSE.s:204    .text:0000000000000118 .LVL12
     /tmp/cchfxbSE.s:127    .text:00000000000000a8 .LVL6
     /tmp/cchfxbSE.s:57     .text:0000000000000044 .LVL3
     /tmp/cchfxbSE.s:75     .text:0000000000000070 .LVL4
     /tmp/cchfxbSE.s:1002   .debug_info:0000000000000000 .Ldebug_info0
     /tmp/cchfxbSE.s:349    .gcc_except_table:0000000000000000 .LLSDA35

UNDEFINED SYMBOLS
_ZN5Riscv10popSppSpieEv
thread_exit
_ZN9Scheduler3putEP3PCB
GAS LISTING /tmp/cchfxbSE.s 			page 38


_ZN9Scheduler3getEv
_ZN5Riscv14changePrivModeEv
_ZN3PCB13contextSwitchEPNS_7ContextES1_
_Z7kmallocm
_Z5kfreePv
__gxx_personality_v0
_ZN8KConsole23sendCharactersToConsoleEPv
_Z15trapPrintStringPKc
_ZN5Riscv13w_a0_sscratchEv
_ZN5Riscv9totalTimeE
_ZN12SleepPCBList17insertSleepingPCBEv
