GAS LISTING /tmp/ccA90X6U.s 			page 1


   1              		.file	"PCB.cpp"
   2              		.option pic
   3              		.option norelax
   4              		.text
   5              	.Ltext0:
   6              		.section	.rodata.str1.8,"aMS",@progbits,1
   7              		.align	3
   8              	.LC0:
   9 0000 52756E6E 		.string	"Runner started...\n"
   9      65722073 
   9      74617274 
   9      65642E2E 
   9      2E0A00
  10 0013 00000000 		.align	3
  10      00
  11              	.LC1:
  12 0018 50434220 		.string	"PCB finished\n"
  12      66696E69 
  12      73686564 
  12      0A00
  13              		.text
  14              		.align	2
  15              		.globl	_ZN3PCB6runnerEv
  17              	_ZN3PCB6runnerEv:
  18              	.LFB26:
  19              		.file 1 "src/PCB.cpp"
   1:src/PCB.cpp   **** //
   2:src/PCB.cpp   **** // Created by os on 4/27/22.
   3:src/PCB.cpp   **** //
   4:src/PCB.cpp   **** 
   5:src/PCB.cpp   **** #include "../h/PCB.hpp"
   6:src/PCB.cpp   **** #include "../h/syscall_c.h"
   7:src/PCB.cpp   **** 
   8:src/PCB.cpp   **** PCB* PCB::running = 0;
   9:src/PCB.cpp   **** PCB* PCB::exitingPCB = 0;
  10:src/PCB.cpp   **** uint64 PCB::timeSliceCounter = 0;
  11:src/PCB.cpp   **** 
  12:src/PCB.cpp   **** PCB::PCB(Body body, void *args, void* stack_space, uint64 timeSlice) :
  13:src/PCB.cpp   ****     timeSlice(timeSlice),
  14:src/PCB.cpp   ****     body(body),
  15:src/PCB.cpp   ****     args(args),
  16:src/PCB.cpp   ****     beginSP(stack_space),
  17:src/PCB.cpp   ****     context({
  18:src/PCB.cpp   ****         (uint64)((char*)stack_space + DEFAULT_STACK_SIZE),
  19:src/PCB.cpp   ****         (uint64)&PCB::runner
  20:src/PCB.cpp   ****     })
  21:src/PCB.cpp   **** {
  22:src/PCB.cpp   ****     Scheduler::put(this);
  23:src/PCB.cpp   ****     nextPCB = 0;
  24:src/PCB.cpp   **** }
  25:src/PCB.cpp   **** 
  26:src/PCB.cpp   **** void PCB::sleep(time_t time)
  27:src/PCB.cpp   **** {
  28:src/PCB.cpp   ****     //todo
  29:src/PCB.cpp   **** }
  30:src/PCB.cpp   **** 
  31:src/PCB.cpp   **** void PCB::start()
GAS LISTING /tmp/ccA90X6U.s 			page 2


  32:src/PCB.cpp   **** {
  33:src/PCB.cpp   ****     Scheduler::put(this);
  34:src/PCB.cpp   **** }
  35:src/PCB.cpp   **** 
  36:src/PCB.cpp   **** //todo
  37:src/PCB.cpp   **** void PCB::runner()
  38:src/PCB.cpp   **** {
  20              		.loc 1 38 1
  21              		.cfi_startproc
  22 0000 130101FE 		addi	sp,sp,-32
  23              		.cfi_def_cfa_offset 32
  24 0004 233C1100 		sd	ra,24(sp)
  25 0008 23388100 		sd	s0,16(sp)
  26 000c 23349100 		sd	s1,8(sp)
  27              		.cfi_offset 1, -8
  28              		.cfi_offset 8, -16
  29              		.cfi_offset 9, -24
  30 0010 13040102 		addi	s0,sp,32
  31              		.cfi_def_cfa 8, 0
  39:src/PCB.cpp   ****     Riscv::printString("Runner started...\n");
  32              		.loc 1 39 5
  33              		.loc 1 39 23 is_stmt 0
  34 0014 17050000 		lla	a0,.LC0
  34      13050500 
  35 001c 97000000 		call	_ZN5Riscv11printStringEPKc@plt
  35      E7800000 
  36              	.LVL0:
  40:src/PCB.cpp   ****     Riscv::popSppSpie();
  37              		.loc 1 40 5 is_stmt 1
  38              		.loc 1 40 22 is_stmt 0
  39 0024 97000000 		call	_ZN5Riscv10popSppSpieEv@plt
  39      E7800000 
  40              	.LVL1:
  41:src/PCB.cpp   **** 
  42:src/PCB.cpp   ****     running->body(running->args);
  41              		.loc 1 42 5 is_stmt 1
  42              		.loc 1 42 14 is_stmt 0
  43 002c 97040000 		lla	s1,.LANCHOR0
  43      93840400 
  44 0034 83B70400 		ld	a5,0(s1)
  45 0038 03B78701 		ld	a4,24(a5)
  46              		.loc 1 42 18
  47 003c 03B50702 		ld	a0,32(a5)
  48 0040 E7000700 		jalr	a4
  49              	.LVL2:
  43:src/PCB.cpp   **** 
  44:src/PCB.cpp   ****     //todo
  45:src/PCB.cpp   ****     //da li ovde treba da se predje u kernel rezim mozda
  46:src/PCB.cpp   ****     running->setState(PCB::FINISHED);
  50              		.loc 1 46 5 is_stmt 1
  51              		.loc 1 46 22 is_stmt 0
  52 0044 83B70400 		ld	a5,0(s1)
  53              	.LVL3:
  54              	.LBB8:
  55              	.LBB9:
  56              		.file 2 "src/../h/PCB.hpp"
   1:src/../h/PCB.hpp **** //
GAS LISTING /tmp/ccA90X6U.s 			page 3


   2:src/../h/PCB.hpp **** // Created by os on 4/27/22.
   3:src/../h/PCB.hpp **** //
   4:src/../h/PCB.hpp **** 
   5:src/../h/PCB.hpp **** #ifndef PROJECT_BASE_V1_0_PCB_HPP
   6:src/../h/PCB.hpp **** #define PROJECT_BASE_V1_0_PCB_HPP
   7:src/../h/PCB.hpp **** 
   8:src/../h/PCB.hpp **** #include "../lib/hw.h"
   9:src/../h/PCB.hpp **** #include "Scheduler.hpp"
  10:src/../h/PCB.hpp **** #include "Riscv.hpp"
  11:src/../h/PCB.hpp **** 
  12:src/../h/PCB.hpp **** class PCB
  13:src/../h/PCB.hpp **** {
  14:src/../h/PCB.hpp **** public:
  15:src/../h/PCB.hpp ****     using Body = void (*)(void*);
  16:src/../h/PCB.hpp **** 
  17:src/../h/PCB.hpp ****     PCB(Body body,  void* args, void* stack_space, uint64 timeSlice);
  18:src/../h/PCB.hpp ****     ~PCB();
  19:src/../h/PCB.hpp **** 
  20:src/../h/PCB.hpp ****     void start();
  21:src/../h/PCB.hpp ****     static void dispatch();
  22:src/../h/PCB.hpp ****     static void sleep(time_t);
  23:src/../h/PCB.hpp **** 
  24:src/../h/PCB.hpp ****     static PCB* running;
  25:src/../h/PCB.hpp ****     static PCB* exitingPCB;
  26:src/../h/PCB.hpp **** 
  27:src/../h/PCB.hpp ****     static uint64 timeSliceCounter;
  28:src/../h/PCB.hpp ****     uint64 getTimeSlice() { return timeSlice;}
  29:src/../h/PCB.hpp **** 
  30:src/../h/PCB.hpp ****     void* operator new(size_t size);
  31:src/../h/PCB.hpp ****     void operator delete(void *p);
  32:src/../h/PCB.hpp **** 
  33:src/../h/PCB.hpp ****     enum State{READY, RUNNING, SUSPENDED, FINISHED, EXITING, SLEEPING};
  34:src/../h/PCB.hpp ****     State getState() {return state;}
  35:src/../h/PCB.hpp ****     void setState(State s) {state = s;}
  57              		.loc 2 35 29 is_stmt 1
  58              		.loc 2 35 35 is_stmt 0
  59 0048 13073000 		li	a4,3
  60 004c 23A8E702 		sw	a4,48(a5)
  61              	.LVL4:
  62              	.LBE9:
  63              	.LBE8:
  47:src/PCB.cpp   ****     Riscv::printString("PCB finished\n");
  64              		.loc 1 47 5 is_stmt 1
  65              		.loc 1 47 23 is_stmt 0
  66 0050 17050000 		lla	a0,.LC1
  66      13050500 
  67 0058 97000000 		call	_ZN5Riscv11printStringEPKc@plt
  67      E7800000 
  68              	.LVL5:
  48:src/PCB.cpp   **** 
  49:src/PCB.cpp   ****     //todo
  50:src/PCB.cpp   ****     //da li thread_exit ili dispatch
  51:src/PCB.cpp   ****     //thread_exit();
  52:src/PCB.cpp   ****     thread_dispatch();
  69              		.loc 1 52 5 is_stmt 1
  70              		.loc 1 52 20 is_stmt 0
  71 0060 97000000 		call	thread_dispatch@plt
GAS LISTING /tmp/ccA90X6U.s 			page 4


  71      E7800000 
  72              	.LVL6:
  53:src/PCB.cpp   **** }
  73              		.loc 1 53 1
  74 0068 83308101 		ld	ra,24(sp)
  75              		.cfi_restore 1
  76 006c 03340101 		ld	s0,16(sp)
  77              		.cfi_restore 8
  78              		.cfi_def_cfa 2, 32
  79 0070 83348100 		ld	s1,8(sp)
  80              		.cfi_restore 9
  81 0074 13010102 		addi	sp,sp,32
  82              		.cfi_def_cfa_offset 0
  83 0078 67800000 		jr	ra
  84              		.cfi_endproc
  85              	.LFE26:
  87              		.align	2
  88              		.globl	_ZN3PCBC2EPFvPvES0_S0_m
  90              	_ZN3PCBC2EPFvPvES0_S0_m:
  91              	.LFB22:
  12:src/PCB.cpp   ****     timeSlice(timeSlice),
  92              		.loc 1 12 1 is_stmt 1
  93              		.cfi_startproc
  94              	.LVL7:
  95 007c 130101FE 		addi	sp,sp,-32
  96              		.cfi_def_cfa_offset 32
  97 0080 233C1100 		sd	ra,24(sp)
  98 0084 23388100 		sd	s0,16(sp)
  99 0088 23349100 		sd	s1,8(sp)
 100              		.cfi_offset 1, -8
 101              		.cfi_offset 8, -16
 102              		.cfi_offset 9, -24
 103 008c 13040102 		addi	s0,sp,32
 104              		.cfi_def_cfa 8, 0
 105 0090 93040500 		mv	s1,a0
 106              	.LBB10:
  20:src/PCB.cpp   **** {
 107              		.loc 1 20 6 is_stmt 0
 108 0094 2334E500 		sd	a4,8(a0)
 109 0098 23380500 		sd	zero,16(a0)
 110 009c 233CB500 		sd	a1,24(a0)
 111 00a0 2330C502 		sd	a2,32(a0)
 112 00a4 2334D502 		sd	a3,40(a0)
  18:src/PCB.cpp   ****         (uint64)&PCB::runner
 113              		.loc 1 18 37
 114 00a8 B7170000 		li	a5,4096
 115 00ac B386F600 		add	a3,a3,a5
 116              	.LVL8:
  20:src/PCB.cpp   **** {
 117              		.loc 1 20 6
 118 00b0 233CD502 		sd	a3,56(a0)
 119 00b4 97070000 		lla	a5,_ZN3PCB6runnerEv
 119      93870700 
 120 00bc 2330F504 		sd	a5,64(a0)
  22:src/PCB.cpp   ****     nextPCB = 0;
 121              		.loc 1 22 5 is_stmt 1
  22:src/PCB.cpp   ****     nextPCB = 0;
GAS LISTING /tmp/ccA90X6U.s 			page 5


 122              		.loc 1 22 19 is_stmt 0
 123 00c0 97000000 		call	_ZN9Scheduler3putEP3PCB@plt
 123      E7800000 
 124              	.LVL9:
  23:src/PCB.cpp   **** }
 125              		.loc 1 23 5 is_stmt 1
  23:src/PCB.cpp   **** }
 126              		.loc 1 23 13 is_stmt 0
 127 00c8 23B00400 		sd	zero,0(s1)
 128              	.LBE10:
  24:src/PCB.cpp   **** 
 129              		.loc 1 24 1
 130 00cc 83308101 		ld	ra,24(sp)
 131              		.cfi_restore 1
 132 00d0 03340101 		ld	s0,16(sp)
 133              		.cfi_restore 8
 134              		.cfi_def_cfa 2, 32
 135 00d4 83348100 		ld	s1,8(sp)
 136              		.cfi_restore 9
 137              	.LVL10:
 138 00d8 13010102 		addi	sp,sp,32
 139              		.cfi_def_cfa_offset 0
 140 00dc 67800000 		jr	ra
 141              		.cfi_endproc
 142              	.LFE22:
 144              		.globl	_ZN3PCBC1EPFvPvES0_S0_m
 145              		.set	_ZN3PCBC1EPFvPvES0_S0_m,_ZN3PCBC2EPFvPvES0_S0_m
 146              		.align	2
 147              		.globl	_ZN3PCB5sleepEm
 149              	_ZN3PCB5sleepEm:
 150              	.LFB24:
  27:src/PCB.cpp   ****     //todo
 151              		.loc 1 27 1 is_stmt 1
 152              		.cfi_startproc
 153              	.LVL11:
 154 00e0 130101FF 		addi	sp,sp,-16
 155              		.cfi_def_cfa_offset 16
 156 00e4 23348100 		sd	s0,8(sp)
 157              		.cfi_offset 8, -8
 158 00e8 13040101 		addi	s0,sp,16
 159              		.cfi_def_cfa 8, 0
  29:src/PCB.cpp   **** 
 160              		.loc 1 29 1 is_stmt 0
 161 00ec 03348100 		ld	s0,8(sp)
 162              		.cfi_restore 8
 163              		.cfi_def_cfa 2, 16
 164 00f0 13010101 		addi	sp,sp,16
 165              		.cfi_def_cfa_offset 0
 166 00f4 67800000 		jr	ra
 167              		.cfi_endproc
 168              	.LFE24:
 170              		.align	2
 171              		.globl	_ZN3PCB5startEv
 173              	_ZN3PCB5startEv:
 174              	.LFB25:
  32:src/PCB.cpp   ****     Scheduler::put(this);
 175              		.loc 1 32 1 is_stmt 1
GAS LISTING /tmp/ccA90X6U.s 			page 6


 176              		.cfi_startproc
 177              	.LVL12:
 178 00f8 130101FF 		addi	sp,sp,-16
 179              		.cfi_def_cfa_offset 16
 180 00fc 23341100 		sd	ra,8(sp)
 181 0100 23308100 		sd	s0,0(sp)
 182              		.cfi_offset 1, -8
 183              		.cfi_offset 8, -16
 184 0104 13040101 		addi	s0,sp,16
 185              		.cfi_def_cfa 8, 0
  33:src/PCB.cpp   **** }
 186              		.loc 1 33 5
  33:src/PCB.cpp   **** }
 187              		.loc 1 33 19 is_stmt 0
 188 0108 97000000 		call	_ZN9Scheduler3putEP3PCB@plt
 188      E7800000 
 189              	.LVL13:
  34:src/PCB.cpp   **** 
 190              		.loc 1 34 1
 191 0110 83308100 		ld	ra,8(sp)
 192              		.cfi_restore 1
 193 0114 03340100 		ld	s0,0(sp)
 194              		.cfi_restore 8
 195              		.cfi_def_cfa 2, 16
 196 0118 13010101 		addi	sp,sp,16
 197              		.cfi_def_cfa_offset 0
 198 011c 67800000 		jr	ra
 199              		.cfi_endproc
 200              	.LFE25:
 202              		.align	2
 203              		.globl	_ZN3PCB8dispatchEv
 205              	_ZN3PCB8dispatchEv:
 206              	.LFB27:
  54:src/PCB.cpp   **** 
  55:src/PCB.cpp   **** void PCB::dispatch()
  56:src/PCB.cpp   **** {
 207              		.loc 1 56 1 is_stmt 1
 208              		.cfi_startproc
 209 0120 130101FE 		addi	sp,sp,-32
 210              		.cfi_def_cfa_offset 32
 211 0124 233C1100 		sd	ra,24(sp)
 212 0128 23388100 		sd	s0,16(sp)
 213 012c 23349100 		sd	s1,8(sp)
 214              		.cfi_offset 1, -8
 215              		.cfi_offset 8, -16
 216              		.cfi_offset 9, -24
 217 0130 13040102 		addi	s0,sp,32
 218              		.cfi_def_cfa 8, 0
  57:src/PCB.cpp   ****     //Riscv::printString("Dispatch called...\n");
  58:src/PCB.cpp   ****     PCB* old = running;
 219              		.loc 1 58 5
 220              		.loc 1 58 10 is_stmt 0
 221 0134 97040000 		ld	s1,.LANCHOR0
 221      83B40400 
 222              	.LVL14:
  59:src/PCB.cpp   ****     if(old->getState() == PCB::RUNNING)
 223              		.loc 1 59 5 is_stmt 1
GAS LISTING /tmp/ccA90X6U.s 			page 7


 224              	.LBB11:
 225              	.LBB12:
  34:src/../h/PCB.hpp ****     void setState(State s) {state = s;}
 226              		.loc 2 34 23
  34:src/../h/PCB.hpp ****     void setState(State s) {state = s;}
 227              		.loc 2 34 30 is_stmt 0
 228 013c 03A70403 		lw	a4,48(s1)
 229              	.LVL15:
 230              	.LBE12:
 231              	.LBE11:
 232              		.loc 1 59 5
 233 0140 93071000 		li	a5,1
 234 0144 6300F704 		beq	a4,a5,.L12
 235              	.L10:
  60:src/PCB.cpp   ****         Scheduler::put(old);
  61:src/PCB.cpp   ****     PCB::running = Scheduler::get();
 236              		.loc 1 61 5 is_stmt 1
 237              		.loc 1 61 34 is_stmt 0
 238 0148 97000000 		call	_ZN9Scheduler3getEv@plt
 238      E7800000 
 239              	.LVL16:
 240              		.loc 1 61 18
 241 0150 97070000 		sd	a0,.LANCHOR0,a5
 241      23B0A700 
  62:src/PCB.cpp   ****     PCB::running->setState(PCB::RUNNING);
 242              		.loc 1 62 5 is_stmt 1
 243              	.LVL17:
 244              	.LBB13:
 245              	.LBB14:
 246              		.loc 2 35 29
 247              		.loc 2 35 35 is_stmt 0
 248 0158 93071000 		li	a5,1
 249 015c 2328F502 		sw	a5,48(a0)
 250              	.LVL18:
 251              	.LBE14:
 252              	.LBE13:
  63:src/PCB.cpp   ****     //Riscv::printString("Switching context...\n");
  64:src/PCB.cpp   **** 
  65:src/PCB.cpp   ****     PCB::contextSwitch(&old->context, &running->context);
 253              		.loc 1 65 5 is_stmt 1
 254              		.loc 1 65 23 is_stmt 0
 255 0160 93058503 		addi	a1,a0,56
 256 0164 13858403 		addi	a0,s1,56
 257 0168 97000000 		call	_ZN3PCB13contextSwitchEPNS_7ContextES1_@plt
 257      E7800000 
 258              	.LVL19:
  66:src/PCB.cpp   **** }
 259              		.loc 1 66 1
 260 0170 83308101 		ld	ra,24(sp)
 261              		.cfi_remember_state
 262              		.cfi_restore 1
 263 0174 03340101 		ld	s0,16(sp)
 264              		.cfi_restore 8
 265              		.cfi_def_cfa 2, 32
 266 0178 83348100 		ld	s1,8(sp)
 267              		.cfi_restore 9
 268              	.LVL20:
GAS LISTING /tmp/ccA90X6U.s 			page 8


 269 017c 13010102 		addi	sp,sp,32
 270              		.cfi_def_cfa_offset 0
 271 0180 67800000 		jr	ra
 272              	.LVL21:
 273              	.L12:
 274              		.cfi_restore_state
  60:src/PCB.cpp   ****     PCB::running = Scheduler::get();
 275              		.loc 1 60 9 is_stmt 1
  60:src/PCB.cpp   ****     PCB::running = Scheduler::get();
 276              		.loc 1 60 23 is_stmt 0
 277 0184 13850400 		mv	a0,s1
 278 0188 97000000 		call	_ZN9Scheduler3putEP3PCB@plt
 278      E7800000 
 279              	.LVL22:
 280 0190 6FF09FFB 		j	.L10
 281              		.cfi_endproc
 282              	.LFE27:
 284              		.align	2
 285              		.globl	_ZN3PCBnwEm
 287              	_ZN3PCBnwEm:
 288              	.LFB28:
  67:src/PCB.cpp   **** 
  68:src/PCB.cpp   **** void *PCB::operator new(size_t size) {
 289              		.loc 1 68 38 is_stmt 1
 290              		.cfi_startproc
 291              	.LVL23:
 292 0194 130101FF 		addi	sp,sp,-16
 293              		.cfi_def_cfa_offset 16
 294 0198 23341100 		sd	ra,8(sp)
 295 019c 23308100 		sd	s0,0(sp)
 296              		.cfi_offset 1, -8
 297              		.cfi_offset 8, -16
 298 01a0 13040101 		addi	s0,sp,16
 299              		.cfi_def_cfa 8, 0
  69:src/PCB.cpp   ****     return kmalloc(size);
 300              		.loc 1 69 5
 301              		.loc 1 69 19 is_stmt 0
 302 01a4 97000000 		call	_Z7kmallocm@plt
 302      E7800000 
 303              	.LVL24:
  70:src/PCB.cpp   **** }
 304              		.loc 1 70 1
 305 01ac 83308100 		ld	ra,8(sp)
 306              		.cfi_restore 1
 307 01b0 03340100 		ld	s0,0(sp)
 308              		.cfi_restore 8
 309              		.cfi_def_cfa 2, 16
 310 01b4 13010101 		addi	sp,sp,16
 311              		.cfi_def_cfa_offset 0
 312 01b8 67800000 		jr	ra
 313              		.cfi_endproc
 314              	.LFE28:
 316              		.align	2
 317              		.globl	_ZN3PCBdlEPv
 319              	_ZN3PCBdlEPv:
 320              	.LFB29:
  71:src/PCB.cpp   **** 
GAS LISTING /tmp/ccA90X6U.s 			page 9


  72:src/PCB.cpp   **** void PCB::operator delete(void *p) {
 321              		.loc 1 72 36 is_stmt 1
 322              		.cfi_startproc
 323              	.LVL25:
 324 01bc 130101FF 		addi	sp,sp,-16
 325              		.cfi_def_cfa_offset 16
 326 01c0 23341100 		sd	ra,8(sp)
 327 01c4 23308100 		sd	s0,0(sp)
 328              		.cfi_offset 1, -8
 329              		.cfi_offset 8, -16
 330 01c8 13040101 		addi	s0,sp,16
 331              		.cfi_def_cfa 8, 0
  73:src/PCB.cpp   ****     kfree(p);
 332              		.loc 1 73 5
 333              		.loc 1 73 10 is_stmt 0
 334 01cc 97000000 		call	_Z5kfreePv@plt
 334      E7800000 
 335              	.LVL26:
  74:src/PCB.cpp   **** }
 336              		.loc 1 74 1
 337 01d4 83308100 		ld	ra,8(sp)
 338              		.cfi_restore 1
 339 01d8 03340100 		ld	s0,0(sp)
 340              		.cfi_restore 8
 341              		.cfi_def_cfa 2, 16
 342 01dc 13010101 		addi	sp,sp,16
 343              		.cfi_def_cfa_offset 0
 344 01e0 67800000 		jr	ra
 345              		.cfi_endproc
 346              	.LFE29:
 348              		.align	2
 349              		.globl	_ZN3PCBD2Ev
 351              	_ZN3PCBD2Ev:
 352              	.LFB31:
  75:src/PCB.cpp   **** 
  76:src/PCB.cpp   **** PCB::~PCB() {
 353              		.loc 1 76 1 is_stmt 1
 354              		.cfi_startproc
 355              		.cfi_personality 0x9b,DW.ref.__gxx_personality_v0
 356              		.cfi_lsda 0x1b,.LLSDA31
 357              	.LVL27:
 358 01e4 130101FF 		addi	sp,sp,-16
 359              		.cfi_def_cfa_offset 16
 360 01e8 23341100 		sd	ra,8(sp)
 361 01ec 23308100 		sd	s0,0(sp)
 362              		.cfi_offset 1, -8
 363              		.cfi_offset 8, -16
 364 01f0 13040101 		addi	s0,sp,16
 365              		.cfi_def_cfa 8, 0
 366              	.LBB15:
  77:src/PCB.cpp   ****     kfree(beginSP);
 367              		.loc 1 77 5
 368              		.loc 1 77 10 is_stmt 0
 369 01f4 03358502 		ld	a0,40(a0)
 370              	.LVL28:
 371 01f8 97000000 		call	_Z5kfreePv@plt
 371      E7800000 
GAS LISTING /tmp/ccA90X6U.s 			page 10


 372              	.LVL29:
 373              	.LBE15:
  78:src/PCB.cpp   **** }...
 374              		.loc 1 78 1
 375 0200 83308100 		ld	ra,8(sp)
 376              		.cfi_restore 1
 377 0204 03340100 		ld	s0,0(sp)
 378              		.cfi_restore 8
 379              		.cfi_def_cfa 2, 16
 380 0208 13010101 		addi	sp,sp,16
 381              		.cfi_def_cfa_offset 0
 382 020c 67800000 		jr	ra
 383              		.cfi_endproc
 384              	.LFE31:
 385              		.globl	__gxx_personality_v0
 386              		.section	.gcc_except_table,"a",@progbits
 387              	.LLSDA31:
 388 0000 FF       		.byte	0xff
 389 0001 FF       		.byte	0xff
 390 0002 03       		.byte	0x3
 391 0003 00       		.byte	0
 392              		.text
 394              		.globl	_ZN3PCBD1Ev
 395              		.set	_ZN3PCBD1Ev,_ZN3PCBD2Ev
 396              		.globl	_ZN3PCB16timeSliceCounterE
 397              		.globl	_ZN3PCB10exitingPCBE
 398              		.globl	_ZN3PCB7runningE
 399              		.bss
 400              		.align	3
 401              		.set	.LANCHOR0,. + 0
 404              	_ZN3PCB7runningE:
 405 0000 00000000 		.zero	8
 405      00000000 
 408              	_ZN3PCB16timeSliceCounterE:
 409 0008 00000000 		.zero	8
 409      00000000 
 412              	_ZN3PCB10exitingPCBE:
 413 0010 00000000 		.zero	8
 413      00000000 
 414              		.text
 415              	.Letext0:
 416              		.file 3 "src/../h/../lib/hw.h"
 417              		.file 4 "src/../h/Queue.hpp"
 418              		.file 5 "src/../h/Scheduler.hpp"
 419              		.file 6 "src/../h/Riscv.hpp"
 420              		.file 7 "src/../h/MemoryAllocator.hpp"
 421              		.file 8 "src/../h/syscall_c.h"
 3491              		.align	3
 3494              	DW.ref.__gxx_personality_v0:
 3495 0000 00000000 		.dword	__gxx_personality_v0
 3495      00000000 
 3496              		.ident	"GCC: (Ubuntu 9.3.0-17ubuntu1~20.04) 9.3.0"
 3497              		.section	.note.GNU-stack,"",@progbits
GAS LISTING /tmp/ccA90X6U.s 			page 11


DEFINED SYMBOLS
                            *ABS*:0000000000000000 PCB.cpp
     /tmp/ccA90X6U.s:17     .text:0000000000000000 _ZN3PCB6runnerEv
     /tmp/ccA90X6U.s:21     .text:0000000000000000 .L0 
     /tmp/ccA90X6U.s:22     .text:0000000000000000 .L0 
     /tmp/ccA90X6U.s:23     .text:0000000000000004 .L0 
     /tmp/ccA90X6U.s:27     .text:0000000000000010 .L0 
     /tmp/ccA90X6U.s:28     .text:0000000000000010 .L0 
     /tmp/ccA90X6U.s:29     .text:0000000000000010 .L0 
     /tmp/ccA90X6U.s:31     .text:0000000000000014 .L0 
     /tmp/ccA90X6U.s:33     .text:0000000000000014 .L0 
     /tmp/ccA90X6U.s:34     .text:0000000000000014 .L0 
     /tmp/ccA90X6U.s:38     .text:0000000000000024 .L0 
     /tmp/ccA90X6U.s:39     .text:0000000000000024 .L0 
     /tmp/ccA90X6U.s:42     .text:000000000000002c .L0 
     /tmp/ccA90X6U.s:43     .text:000000000000002c .L0 
     /tmp/ccA90X6U.s:47     .text:000000000000003c .L0 
     /tmp/ccA90X6U.s:51     .text:0000000000000044 .L0 
     /tmp/ccA90X6U.s:52     .text:0000000000000044 .L0 
     /tmp/ccA90X6U.s:58     .text:0000000000000048 .L0 
     /tmp/ccA90X6U.s:59     .text:0000000000000048 .L0 
     /tmp/ccA90X6U.s:65     .text:0000000000000050 .L0 
     /tmp/ccA90X6U.s:66     .text:0000000000000050 .L0 
     /tmp/ccA90X6U.s:70     .text:0000000000000060 .L0 
     /tmp/ccA90X6U.s:71     .text:0000000000000060 .L0 
     /tmp/ccA90X6U.s:74     .text:0000000000000068 .L0 
     /tmp/ccA90X6U.s:75     .text:000000000000006c .L0 
     /tmp/ccA90X6U.s:77     .text:0000000000000070 .L0 
     /tmp/ccA90X6U.s:78     .text:0000000000000070 .L0 
     /tmp/ccA90X6U.s:80     .text:0000000000000074 .L0 
     /tmp/ccA90X6U.s:82     .text:0000000000000078 .L0 
     /tmp/ccA90X6U.s:84     .text:000000000000007c .L0 
     /tmp/ccA90X6U.s:90     .text:000000000000007c _ZN3PCBC2EPFvPvES0_S0_m
     /tmp/ccA90X6U.s:93     .text:000000000000007c .L0 
     /tmp/ccA90X6U.s:95     .text:000000000000007c .L0 
     /tmp/ccA90X6U.s:96     .text:0000000000000080 .L0 
     /tmp/ccA90X6U.s:100    .text:000000000000008c .L0 
     /tmp/ccA90X6U.s:101    .text:000000000000008c .L0 
     /tmp/ccA90X6U.s:102    .text:000000000000008c .L0 
     /tmp/ccA90X6U.s:104    .text:0000000000000090 .L0 
     /tmp/ccA90X6U.s:108    .text:0000000000000094 .L0 
     /tmp/ccA90X6U.s:114    .text:00000000000000a8 .L0 
     /tmp/ccA90X6U.s:118    .text:00000000000000b0 .L0 
     /tmp/ccA90X6U.s:122    .text:00000000000000c0 .L0 
     /tmp/ccA90X6U.s:123    .text:00000000000000c0 .L0 
     /tmp/ccA90X6U.s:126    .text:00000000000000c8 .L0 
     /tmp/ccA90X6U.s:127    .text:00000000000000c8 .L0 
     /tmp/ccA90X6U.s:130    .text:00000000000000cc .L0 
     /tmp/ccA90X6U.s:131    .text:00000000000000d0 .L0 
     /tmp/ccA90X6U.s:133    .text:00000000000000d4 .L0 
     /tmp/ccA90X6U.s:134    .text:00000000000000d4 .L0 
     /tmp/ccA90X6U.s:136    .text:00000000000000d8 .L0 
     /tmp/ccA90X6U.s:139    .text:00000000000000dc .L0 
     /tmp/ccA90X6U.s:141    .text:00000000000000e0 .L0 
     /tmp/ccA90X6U.s:90     .text:000000000000007c _ZN3PCBC1EPFvPvES0_S0_m
     /tmp/ccA90X6U.s:149    .text:00000000000000e0 _ZN3PCB5sleepEm
     /tmp/ccA90X6U.s:152    .text:00000000000000e0 .L0 
GAS LISTING /tmp/ccA90X6U.s 			page 12


     /tmp/ccA90X6U.s:154    .text:00000000000000e0 .L0 
     /tmp/ccA90X6U.s:155    .text:00000000000000e4 .L0 
     /tmp/ccA90X6U.s:157    .text:00000000000000e8 .L0 
     /tmp/ccA90X6U.s:159    .text:00000000000000ec .L0 
     /tmp/ccA90X6U.s:161    .text:00000000000000ec .L0 
     /tmp/ccA90X6U.s:162    .text:00000000000000f0 .L0 
     /tmp/ccA90X6U.s:163    .text:00000000000000f0 .L0 
     /tmp/ccA90X6U.s:165    .text:00000000000000f4 .L0 
     /tmp/ccA90X6U.s:167    .text:00000000000000f8 .L0 
     /tmp/ccA90X6U.s:173    .text:00000000000000f8 _ZN3PCB5startEv
     /tmp/ccA90X6U.s:176    .text:00000000000000f8 .L0 
     /tmp/ccA90X6U.s:178    .text:00000000000000f8 .L0 
     /tmp/ccA90X6U.s:179    .text:00000000000000fc .L0 
     /tmp/ccA90X6U.s:182    .text:0000000000000104 .L0 
     /tmp/ccA90X6U.s:183    .text:0000000000000104 .L0 
     /tmp/ccA90X6U.s:185    .text:0000000000000108 .L0 
     /tmp/ccA90X6U.s:187    .text:0000000000000108 .L0 
     /tmp/ccA90X6U.s:188    .text:0000000000000108 .L0 
     /tmp/ccA90X6U.s:191    .text:0000000000000110 .L0 
     /tmp/ccA90X6U.s:192    .text:0000000000000114 .L0 
     /tmp/ccA90X6U.s:194    .text:0000000000000118 .L0 
     /tmp/ccA90X6U.s:195    .text:0000000000000118 .L0 
     /tmp/ccA90X6U.s:197    .text:000000000000011c .L0 
     /tmp/ccA90X6U.s:199    .text:0000000000000120 .L0 
     /tmp/ccA90X6U.s:205    .text:0000000000000120 _ZN3PCB8dispatchEv
     /tmp/ccA90X6U.s:208    .text:0000000000000120 .L0 
     /tmp/ccA90X6U.s:209    .text:0000000000000120 .L0 
     /tmp/ccA90X6U.s:210    .text:0000000000000124 .L0 
     /tmp/ccA90X6U.s:214    .text:0000000000000130 .L0 
     /tmp/ccA90X6U.s:215    .text:0000000000000130 .L0 
     /tmp/ccA90X6U.s:216    .text:0000000000000130 .L0 
     /tmp/ccA90X6U.s:218    .text:0000000000000134 .L0 
     /tmp/ccA90X6U.s:220    .text:0000000000000134 .L0 
     /tmp/ccA90X6U.s:221    .text:0000000000000134 .L0 
     /tmp/ccA90X6U.s:226    .text:000000000000013c .L0 
     /tmp/ccA90X6U.s:227    .text:000000000000013c .L0 
     /tmp/ccA90X6U.s:228    .text:000000000000013c .L0 
     /tmp/ccA90X6U.s:233    .text:0000000000000140 .L0 
     /tmp/ccA90X6U.s:237    .text:0000000000000148 .L0 
     /tmp/ccA90X6U.s:238    .text:0000000000000148 .L0 
     /tmp/ccA90X6U.s:241    .text:0000000000000150 .L0 
     /tmp/ccA90X6U.s:246    .text:0000000000000158 .L0 
     /tmp/ccA90X6U.s:247    .text:0000000000000158 .L0 
     /tmp/ccA90X6U.s:248    .text:0000000000000158 .L0 
     /tmp/ccA90X6U.s:254    .text:0000000000000160 .L0 
     /tmp/ccA90X6U.s:255    .text:0000000000000160 .L0 
     /tmp/ccA90X6U.s:260    .text:0000000000000170 .L0 
     /tmp/ccA90X6U.s:261    .text:0000000000000174 .L0 
     /tmp/ccA90X6U.s:262    .text:0000000000000174 .L0 
     /tmp/ccA90X6U.s:264    .text:0000000000000178 .L0 
     /tmp/ccA90X6U.s:265    .text:0000000000000178 .L0 
     /tmp/ccA90X6U.s:267    .text:000000000000017c .L0 
     /tmp/ccA90X6U.s:270    .text:0000000000000180 .L0 
     /tmp/ccA90X6U.s:274    .text:0000000000000184 .L0 
     /tmp/ccA90X6U.s:276    .text:0000000000000184 .L0 
     /tmp/ccA90X6U.s:277    .text:0000000000000184 .L0 
     /tmp/ccA90X6U.s:281    .text:0000000000000194 .L0 
GAS LISTING /tmp/ccA90X6U.s 			page 13


     /tmp/ccA90X6U.s:287    .text:0000000000000194 _ZN3PCBnwEm
     /tmp/ccA90X6U.s:290    .text:0000000000000194 .L0 
     /tmp/ccA90X6U.s:292    .text:0000000000000194 .L0 
     /tmp/ccA90X6U.s:293    .text:0000000000000198 .L0 
     /tmp/ccA90X6U.s:296    .text:00000000000001a0 .L0 
     /tmp/ccA90X6U.s:297    .text:00000000000001a0 .L0 
     /tmp/ccA90X6U.s:299    .text:00000000000001a4 .L0 
     /tmp/ccA90X6U.s:301    .text:00000000000001a4 .L0 
     /tmp/ccA90X6U.s:302    .text:00000000000001a4 .L0 
     /tmp/ccA90X6U.s:305    .text:00000000000001ac .L0 
     /tmp/ccA90X6U.s:306    .text:00000000000001b0 .L0 
     /tmp/ccA90X6U.s:308    .text:00000000000001b4 .L0 
     /tmp/ccA90X6U.s:309    .text:00000000000001b4 .L0 
     /tmp/ccA90X6U.s:311    .text:00000000000001b8 .L0 
     /tmp/ccA90X6U.s:313    .text:00000000000001bc .L0 
     /tmp/ccA90X6U.s:319    .text:00000000000001bc _ZN3PCBdlEPv
     /tmp/ccA90X6U.s:322    .text:00000000000001bc .L0 
     /tmp/ccA90X6U.s:324    .text:00000000000001bc .L0 
     /tmp/ccA90X6U.s:325    .text:00000000000001c0 .L0 
     /tmp/ccA90X6U.s:328    .text:00000000000001c8 .L0 
     /tmp/ccA90X6U.s:329    .text:00000000000001c8 .L0 
     /tmp/ccA90X6U.s:331    .text:00000000000001cc .L0 
     /tmp/ccA90X6U.s:333    .text:00000000000001cc .L0 
     /tmp/ccA90X6U.s:334    .text:00000000000001cc .L0 
     /tmp/ccA90X6U.s:337    .text:00000000000001d4 .L0 
     /tmp/ccA90X6U.s:338    .text:00000000000001d8 .L0 
     /tmp/ccA90X6U.s:340    .text:00000000000001dc .L0 
     /tmp/ccA90X6U.s:341    .text:00000000000001dc .L0 
     /tmp/ccA90X6U.s:343    .text:00000000000001e0 .L0 
     /tmp/ccA90X6U.s:345    .text:00000000000001e4 .L0 
     /tmp/ccA90X6U.s:351    .text:00000000000001e4 _ZN3PCBD2Ev
     /tmp/ccA90X6U.s:354    .text:00000000000001e4 .L0 
     /tmp/ccA90X6U.s:3494   .data.rel.local.DW.ref.__gxx_personality_v0:0000000000000000 DW.ref.__gxx_personality_v0
     /tmp/ccA90X6U.s:358    .text:00000000000001e4 .L0 
     /tmp/ccA90X6U.s:359    .text:00000000000001e8 .L0 
     /tmp/ccA90X6U.s:362    .text:00000000000001f0 .L0 
     /tmp/ccA90X6U.s:363    .text:00000000000001f0 .L0 
     /tmp/ccA90X6U.s:365    .text:00000000000001f4 .L0 
     /tmp/ccA90X6U.s:368    .text:00000000000001f4 .L0 
     /tmp/ccA90X6U.s:369    .text:00000000000001f4 .L0 
     /tmp/ccA90X6U.s:375    .text:0000000000000200 .L0 
     /tmp/ccA90X6U.s:376    .text:0000000000000204 .L0 
     /tmp/ccA90X6U.s:378    .text:0000000000000208 .L0 
     /tmp/ccA90X6U.s:379    .text:0000000000000208 .L0 
     /tmp/ccA90X6U.s:381    .text:000000000000020c .L0 
     /tmp/ccA90X6U.s:383    .text:0000000000000210 .L0 
     /tmp/ccA90X6U.s:351    .text:00000000000001e4 _ZN3PCBD1Ev
     /tmp/ccA90X6U.s:408    .bss:0000000000000008 _ZN3PCB16timeSliceCounterE
     /tmp/ccA90X6U.s:412    .bss:0000000000000010 _ZN3PCB10exitingPCBE
     /tmp/ccA90X6U.s:404    .bss:0000000000000000 _ZN3PCB7runningE
     /tmp/ccA90X6U.s:401    .bss:0000000000000000 .LANCHOR0
     /tmp/ccA90X6U.s:422    .text:0000000000000210 .L0 
     /tmp/ccA90X6U.s:8      .rodata.str1.8:0000000000000000 .LC0
     /tmp/ccA90X6U.s:34     .text:0000000000000014 .L0 
     /tmp/ccA90X6U.s:43     .text:000000000000002c .L0 
     /tmp/ccA90X6U.s:11     .rodata.str1.8:0000000000000018 .LC1
     /tmp/ccA90X6U.s:66     .text:0000000000000050 .L0 
GAS LISTING /tmp/ccA90X6U.s 			page 14


     /tmp/ccA90X6U.s:119    .text:00000000000000b4 .L0 
     /tmp/ccA90X6U.s:221    .text:0000000000000134 .L0 
     /tmp/ccA90X6U.s:241    .text:0000000000000150 .L0 
     /tmp/ccA90X6U.s:273    .text:0000000000000184 .L12
     /tmp/ccA90X6U.s:235    .text:0000000000000148 .L10
     /tmp/ccA90X6U.s:1893   .debug_abbrev:0000000000000000 .Ldebug_abbrev0
     /tmp/ccA90X6U.s:3292   .debug_str:0000000000000503 .LASF171
     /tmp/ccA90X6U.s:3434   .debug_str:0000000000000989 .LASF172
     /tmp/ccA90X6U.s:3422   .debug_str:0000000000000925 .LASF173
     /tmp/ccA90X6U.s:5      .text:0000000000000000 .Ltext0
     /tmp/ccA90X6U.s:415    .text:0000000000000210 .Letext0
     /tmp/ccA90X6U.s:3124   .debug_line:0000000000000000 .Ldebug_line0
     /tmp/ccA90X6U.s:3242   .debug_str:0000000000000378 .LASF0
     /tmp/ccA90X6U.s:3268   .debug_str:000000000000043c .LASF1
     /tmp/ccA90X6U.s:3360   .debug_str:000000000000078c .LASF2
     /tmp/ccA90X6U.s:3368   .debug_str:00000000000007c7 .LASF4
     /tmp/ccA90X6U.s:3256   .debug_str:00000000000003d8 .LASF3
     /tmp/ccA90X6U.s:3140   .debug_str:0000000000000061 .LASF5
     /tmp/ccA90X6U.s:3340   .debug_str:0000000000000702 .LASF6
     /tmp/ccA90X6U.s:3326   .debug_str:0000000000000697 .LASF7
     /tmp/ccA90X6U.s:3260   .debug_str:000000000000040c .LASF8
     /tmp/ccA90X6U.s:3226   .debug_str:00000000000002f0 .LASF9
     /tmp/ccA90X6U.s:3230   .debug_str:000000000000031c .LASF10
     /tmp/ccA90X6U.s:3174   .debug_str:00000000000001a6 .LASF11
     /tmp/ccA90X6U.s:3216   .debug_str:00000000000002c4 .LASF12
     /tmp/ccA90X6U.s:3182   .debug_str:00000000000001cd .LASF13
     /tmp/ccA90X6U.s:3172   .debug_str:0000000000000196 .LASF14
     /tmp/ccA90X6U.s:3398   .debug_str:00000000000008a8 .LASF15
     /tmp/ccA90X6U.s:3212   .debug_str:00000000000002a2 .LASF16
     /tmp/ccA90X6U.s:3392   .debug_str:000000000000086f .LASF17
     /tmp/ccA90X6U.s:3424   .debug_str:0000000000000948 .LASF28
     /tmp/ccA90X6U.s:3438   .debug_str:000000000000099b .LASF20
     /tmp/ccA90X6U.s:3264   .debug_str:0000000000000432 .LASF18
     /tmp/ccA90X6U.s:3176   .debug_str:00000000000001b5 .LASF19
     /tmp/ccA90X6U.s:3404   .debug_str:00000000000008c1 .LASF21
     /tmp/ccA90X6U.s:3276   .debug_str:000000000000046b .LASF22
     /tmp/ccA90X6U.s:3468   .debug_str:0000000000000a53 .LASF39
     /tmp/ccA90X6U.s:3436   .debug_str:0000000000000995 .LASF24
     /tmp/ccA90X6U.s:3186   .debug_str:00000000000001ee .LASF26
     /tmp/ccA90X6U.s:3244   .debug_str:0000000000000385 .LASF23
     /tmp/ccA90X6U.s:3386   .debug_str:0000000000000844 .LASF29
     /tmp/ccA90X6U.s:3266   .debug_str:0000000000000437 .LASF25
     /tmp/ccA90X6U.s:3350   .debug_str:0000000000000737 .LASF27
     /tmp/ccA90X6U.s:3204   .debug_str:0000000000000271 .LASF30
     /tmp/ccA90X6U.s:3346   .debug_str:000000000000071c .LASF45
     /tmp/ccA90X6U.s:3154   .debug_str:00000000000000f9 .LASF47
     /tmp/ccA90X6U.s:3408   .debug_str:00000000000008cc .LASF174
     /tmp/ccA90X6U.s:3168   .debug_str:000000000000017c .LASF31
     /tmp/ccA90X6U.s:3388   .debug_str:0000000000000859 .LASF32
     /tmp/ccA90X6U.s:3180   .debug_str:00000000000001c3 .LASF33
     /tmp/ccA90X6U.s:3162   .debug_str:0000000000000136 .LASF34
     /tmp/ccA90X6U.s:3330   .debug_str:00000000000006c0 .LASF35
     /tmp/ccA90X6U.s:3178   .debug_str:00000000000001ba .LASF36
     /tmp/ccA90X6U.s:3402   .debug_str:00000000000008b9 .LASF37
     /tmp/ccA90X6U.s:3236   .debug_str:0000000000000348 .LASF38
     /tmp/ccA90X6U.s:3428   .debug_str:0000000000000956 .LASF40
     /tmp/ccA90X6U.s:3314   .debug_str:000000000000063e .LASF175
GAS LISTING /tmp/ccA90X6U.s 			page 15


     /tmp/ccA90X6U.s:3450   .debug_str:00000000000009de .LASF41
     /tmp/ccA90X6U.s:3474   .debug_str:0000000000000a7d .LASF42
     /tmp/ccA90X6U.s:3470   .debug_str:0000000000000a63 .LASF43
     /tmp/ccA90X6U.s:3416   .debug_str:00000000000008f7 .LASF44
     /tmp/ccA90X6U.s:3202   .debug_str:0000000000000268 .LASF90
     /tmp/ccA90X6U.s:3148   .debug_str:00000000000000a3 .LASF92
     /tmp/ccA90X6U.s:3272   .debug_str:0000000000000458 .LASF46
     /tmp/ccA90X6U.s:3318   .debug_str:0000000000000656 .LASF48
     /tmp/ccA90X6U.s:3412   .debug_str:00000000000008e7 .LASF49
     /tmp/ccA90X6U.s:3452   .debug_str:00000000000009e3 .LASF50
     /tmp/ccA90X6U.s:3378   .debug_str:00000000000007fe .LASF51
     /tmp/ccA90X6U.s:3274   .debug_str:000000000000045e .LASF52
     /tmp/ccA90X6U.s:3280   .debug_str:000000000000048e .LASF53
     /tmp/ccA90X6U.s:3478   .debug_str:0000000000000aa1 .LASF54
     /tmp/ccA90X6U.s:3214   .debug_str:00000000000002b8 .LASF55
     /tmp/ccA90X6U.s:3132   .debug_str:000000000000002a .LASF56
     /tmp/ccA90X6U.s:3254   .debug_str:00000000000003cb .LASF57
     /tmp/ccA90X6U.s:3382   .debug_str:0000000000000820 .LASF58
     /tmp/ccA90X6U.s:3298   .debug_str:00000000000005bf .LASF59
     /tmp/ccA90X6U.s:3366   .debug_str:00000000000007be .LASF60
     /tmp/ccA90X6U.s:3394   .debug_str:0000000000000885 .LASF61
     /tmp/ccA90X6U.s:3300   .debug_str:00000000000005d2 .LASF62
     /tmp/ccA90X6U.s:3128   .debug_str:000000000000000b .LASF63
     /tmp/ccA90X6U.s:3460   .debug_str:0000000000000a17 .LASF64
     /tmp/ccA90X6U.s:3324   .debug_str:000000000000067d .LASF65
     /tmp/ccA90X6U.s:3390   .debug_str:0000000000000861 .LASF66
     /tmp/ccA90X6U.s:3342   .debug_str:0000000000000709 .LASF67
     /tmp/ccA90X6U.s:3198   .debug_str:0000000000000246 .LASF68
     /tmp/ccA90X6U.s:3466   .debug_str:0000000000000a48 .LASF69
     /tmp/ccA90X6U.s:3374   .debug_str:00000000000007e8 .LASF176
     /tmp/ccA90X6U.s:3420   .debug_str:000000000000091b .LASF70
     /tmp/ccA90X6U.s:3320   .debug_str:0000000000000666 .LASF71
     /tmp/ccA90X6U.s:3192   .debug_str:0000000000000225 .LASF72
     /tmp/ccA90X6U.s:3152   .debug_str:00000000000000d1 .LASF74
     /tmp/ccA90X6U.s:3246   .debug_str:000000000000038a .LASF73
     /tmp/ccA90X6U.s:3166   .debug_str:0000000000000150 .LASF75
     /tmp/ccA90X6U.s:3458   .debug_str:0000000000000a10 .LASF177
     /tmp/ccA90X6U.s:3164   .debug_str:000000000000013f .LASF178
     /tmp/ccA90X6U.s:3130   .debug_str:0000000000000025 .LASF76
     /tmp/ccA90X6U.s:3400   .debug_str:00000000000008b4 .LASF77
     /tmp/ccA90X6U.s:3284   .debug_str:00000000000004c1 .LASF78
     /tmp/ccA90X6U.s:3190   .debug_str:000000000000021f .LASF79
     /tmp/ccA90X6U.s:3426   .debug_str:000000000000094e .LASF80
     /tmp/ccA90X6U.s:3156   .debug_str:0000000000000107 .LASF81
     /tmp/ccA90X6U.s:3224   .debug_str:00000000000002e6 .LASF82
     /tmp/ccA90X6U.s:3144   .debug_str:0000000000000082 .LASF179
     /tmp/ccA90X6U.s:3472   .debug_str:0000000000000a69 .LASF180
     /tmp/ccA90X6U.s:3158   .debug_str:0000000000000111 .LASF83
     /tmp/ccA90X6U.s:3316   .debug_str:0000000000000643 .LASF84
     /tmp/ccA90X6U.s:3414   .debug_str:00000000000008ef .LASF85
     /tmp/ccA90X6U.s:3354   .debug_str:0000000000000758 .LASF109
     /tmp/ccA90X6U.s:3380   .debug_str:000000000000080f .LASF86
     /tmp/ccA90X6U.s:3184   .debug_str:00000000000001dd .LASF87
     /tmp/ccA90X6U.s:3146   .debug_str:000000000000009a .LASF88
     /tmp/ccA90X6U.s:3446   .debug_str:00000000000009ce .LASF89
     /tmp/ccA90X6U.s:3322   .debug_str:0000000000000672 .LASF91
     /tmp/ccA90X6U.s:3288   .debug_str:00000000000004d5 .LASF93
GAS LISTING /tmp/ccA90X6U.s 			page 16


     /tmp/ccA90X6U.s:3210   .debug_str:0000000000000298 .LASF94
     /tmp/ccA90X6U.s:3328   .debug_str:00000000000006aa .LASF95
     /tmp/ccA90X6U.s:3440   .debug_str:00000000000009a0 .LASF96
     /tmp/ccA90X6U.s:3278   .debug_str:0000000000000470 .LASF97
     /tmp/ccA90X6U.s:3252   .debug_str:00000000000003b9 .LASF98
     /tmp/ccA90X6U.s:3188   .debug_str:0000000000000200 .LASF99
     /tmp/ccA90X6U.s:3464   .debug_str:0000000000000a3c .LASF100
     /tmp/ccA90X6U.s:3150   .debug_str:00000000000000b6 .LASF101
     /tmp/ccA90X6U.s:3336   .debug_str:00000000000006e2 .LASF102
     /tmp/ccA90X6U.s:3142   .debug_str:0000000000000068 .LASF103
     /tmp/ccA90X6U.s:3376   .debug_str:00000000000007f0 .LASF104
     /tmp/ccA90X6U.s:3384   .debug_str:0000000000000829 .LASF105
     /tmp/ccA90X6U.s:3302   .debug_str:00000000000005e1 .LASF106
     /tmp/ccA90X6U.s:3454   .debug_str:00000000000009ee .LASF107
     /tmp/ccA90X6U.s:3270   .debug_str:000000000000044f .LASF108
     /tmp/ccA90X6U.s:3136   .debug_str:0000000000000042 .LASF110
     /tmp/ccA90X6U.s:3484   .debug_str:0000000000000ac8 .LASF111
     /tmp/ccA90X6U.s:3310   .debug_str:0000000000000611 .LASF112
     /tmp/ccA90X6U.s:3344   .debug_str:0000000000000715 .LASF113
     /tmp/ccA90X6U.s:3338   .debug_str:00000000000006ef .LASF114
     /tmp/ccA90X6U.s:3306   .debug_str:00000000000005f6 .LASF115
     /tmp/ccA90X6U.s:3262   .debug_str:000000000000041f .LASF116
     /tmp/ccA90X6U.s:3456   .debug_str:0000000000000a08 .LASF117
     /tmp/ccA90X6U.s:3418   .debug_str:0000000000000907 .LASF118
     /tmp/ccA90X6U.s:3304   .debug_str:00000000000005ee .LASF119
     /tmp/ccA90X6U.s:3308   .debug_str:00000000000005fd .LASF120
     /tmp/ccA90X6U.s:3294   .debug_str:00000000000005a5 .LASF121
     /tmp/ccA90X6U.s:3348   .debug_str:0000000000000723 .LASF122
     /tmp/ccA90X6U.s:3486   .debug_str:0000000000000ad1 .LASF123
     /tmp/ccA90X6U.s:3250   .debug_str:00000000000003a5 .LASF124
     /tmp/ccA90X6U.s:3396   .debug_str:00000000000008a1 .LASF125
     /tmp/ccA90X6U.s:3370   .debug_str:00000000000007ce .LASF126
     /tmp/ccA90X6U.s:3372   .debug_str:00000000000007e1 .LASF127
     /tmp/ccA90X6U.s:3208   .debug_str:0000000000000285 .LASF128
     /tmp/ccA90X6U.s:3206   .debug_str:000000000000027f .LASF129
     /tmp/ccA90X6U.s:3238   .debug_str:000000000000034e .LASF130
     /tmp/ccA90X6U.s:3248   .debug_str:000000000000039f .LASF131
     /tmp/ccA90X6U.s:3200   .debug_str:0000000000000256 .LASF132
     /tmp/ccA90X6U.s:3126   .debug_str:0000000000000000 .LASF133
     /tmp/ccA90X6U.s:3364   .debug_str:00000000000007a6 .LASF134
     /tmp/ccA90X6U.s:3358   .debug_str:0000000000000781 .LASF135
     /tmp/ccA90X6U.s:3476   .debug_str:0000000000000a89 .LASF136
     /tmp/ccA90X6U.s:3448   .debug_str:00000000000009d4 .LASF137
     /tmp/ccA90X6U.s:3462   .debug_str:0000000000000a26 .LASF138
     /tmp/ccA90X6U.s:3444   .debug_str:00000000000009c4 .LASF139
     /tmp/ccA90X6U.s:3290   .debug_str:00000000000004ed .LASF140
     /tmp/ccA90X6U.s:3234   .debug_str:000000000000033d .LASF141
     /tmp/ccA90X6U.s:3240   .debug_str:0000000000000360 .LASF142
     /tmp/ccA90X6U.s:3432   .debug_str:000000000000097a .LASF143
     /tmp/ccA90X6U.s:3228   .debug_str:0000000000000300 .LASF144
     /tmp/ccA90X6U.s:3334   .debug_str:00000000000006cd .LASF145
     /tmp/ccA90X6U.s:3258   .debug_str:00000000000003ea .LASF146
     /tmp/ccA90X6U.s:3196   .debug_str:000000000000023f .LASF147
     /tmp/ccA90X6U.s:3134   .debug_str:000000000000003a .LASF148
     /tmp/ccA90X6U.s:3480   .debug_str:0000000000000aae .LASF149
     /tmp/ccA90X6U.s:3430   .debug_str:000000000000096e .LASF150
     /tmp/ccA90X6U.s:3160   .debug_str:0000000000000123 .LASF151
GAS LISTING /tmp/ccA90X6U.s 			page 17


     /tmp/ccA90X6U.s:3296   .debug_str:00000000000005ad .LASF152
     /tmp/ccA90X6U.s:3232   .debug_str:000000000000032a .LASF153
     /tmp/ccA90X6U.s:3442   .debug_str:00000000000009b1 .LASF154
     /tmp/ccA90X6U.s:3170   .debug_str:0000000000000182 .LASF155
     /tmp/ccA90X6U.s:3406   .debug_str:00000000000008c7 .LASF156
     /tmp/ccA90X6U.s:3356   .debug_str:0000000000000770 .LASF157
     /tmp/ccA90X6U.s:3410   .debug_str:00000000000008d2 .LASF158
     /tmp/ccA90X6U.s:3282   .debug_str:00000000000004a6 .LASF159
     /tmp/ccA90X6U.s:3220   .debug_str:00000000000002db .LASF160
     /tmp/ccA90X6U.s:3138   .debug_str:0000000000000057 .LASF161
     /tmp/ccA90X6U.s:3194   .debug_str:0000000000000233 .LASF164
     /tmp/ccA90X6U.s:352    .text:00000000000001e4 .LFB31
     /tmp/ccA90X6U.s:384    .text:0000000000000210 .LFE31
     /tmp/ccA90X6U.s:2928   .debug_loc:0000000000000000 .LLST14
     /tmp/ccA90X6U.s:372    .text:0000000000000200 .LVL29
     /tmp/ccA90X6U.s:320    .text:00000000000001bc .LFB29
     /tmp/ccA90X6U.s:346    .text:00000000000001e4 .LFE29
     /tmp/ccA90X6U.s:2942   .debug_loc:0000000000000039 .LLST13
     /tmp/ccA90X6U.s:335    .text:00000000000001d4 .LVL26
     /tmp/ccA90X6U.s:288    .text:0000000000000194 .LFB28
     /tmp/ccA90X6U.s:314    .text:00000000000001bc .LFE28
     /tmp/ccA90X6U.s:2956   .debug_loc:0000000000000072 .LLST12
     /tmp/ccA90X6U.s:303    .text:00000000000001ac .LVL24
     /tmp/ccA90X6U.s:206    .text:0000000000000120 .LFB27
     /tmp/ccA90X6U.s:282    .text:0000000000000194 .LFE27
     /tmp/ccA90X6U.s:2970   .debug_loc:00000000000000ab .LLST8
     /tmp/ccA90X6U.s:224    .text:000000000000013c .LBB11
     /tmp/ccA90X6U.s:231    .text:0000000000000140 .LBE11
     /tmp/ccA90X6U.s:2981   .debug_loc:00000000000000e1 .LLST9
     /tmp/ccA90X6U.s:244    .text:0000000000000158 .LBB13
     /tmp/ccA90X6U.s:252    .text:0000000000000160 .LBE13
     /tmp/ccA90X6U.s:2988   .debug_loc:0000000000000104 .LLST10
     /tmp/ccA90X6U.s:2996   .debug_loc:0000000000000128 .LLST11
     /tmp/ccA90X6U.s:239    .text:0000000000000150 .LVL16
     /tmp/ccA90X6U.s:258    .text:0000000000000170 .LVL19
     /tmp/ccA90X6U.s:279    .text:0000000000000190 .LVL22
     /tmp/ccA90X6U.s:18     .text:0000000000000000 .LFB26
     /tmp/ccA90X6U.s:85     .text:000000000000007c .LFE26
     /tmp/ccA90X6U.s:54     .text:0000000000000048 .LBB8
     /tmp/ccA90X6U.s:63     .text:0000000000000050 .LBE8
     /tmp/ccA90X6U.s:3003   .debug_loc:000000000000014b .LLST0
     /tmp/ccA90X6U.s:3011   .debug_loc:000000000000016f .LLST1
     /tmp/ccA90X6U.s:36     .text:0000000000000024 .LVL0
     /tmp/ccA90X6U.s:40     .text:000000000000002c .LVL1
     /tmp/ccA90X6U.s:68     .text:0000000000000060 .LVL5
     /tmp/ccA90X6U.s:72     .text:0000000000000068 .LVL6
     /tmp/ccA90X6U.s:174    .text:00000000000000f8 .LFB25
     /tmp/ccA90X6U.s:200    .text:0000000000000120 .LFE25
     /tmp/ccA90X6U.s:3018   .debug_loc:0000000000000192 .LLST7
     /tmp/ccA90X6U.s:189    .text:0000000000000110 .LVL13
     /tmp/ccA90X6U.s:150    .text:00000000000000e0 .LFB24
     /tmp/ccA90X6U.s:168    .text:00000000000000f8 .LFE24
     /tmp/ccA90X6U.s:3332   .debug_str:00000000000006c8 .LASF162
     /tmp/ccA90X6U.s:3286   .debug_str:00000000000004c9 .LASF163
     /tmp/ccA90X6U.s:3312   .debug_str:0000000000000626 .LASF165
     /tmp/ccA90X6U.s:91     .text:000000000000007c .LFB22
     /tmp/ccA90X6U.s:142    .text:00000000000000e0 .LFE22
GAS LISTING /tmp/ccA90X6U.s 			page 18


     /tmp/ccA90X6U.s:3032   .debug_loc:00000000000001cb .LLST2
     /tmp/ccA90X6U.s:3050   .debug_loc:0000000000000217 .LLST3
     /tmp/ccA90X6U.s:3064   .debug_loc:0000000000000250 .LLST4
     /tmp/ccA90X6U.s:3078   .debug_loc:0000000000000289 .LLST5
     /tmp/ccA90X6U.s:3097   .debug_loc:00000000000002d6 .LLST6
     /tmp/ccA90X6U.s:124    .text:00000000000000c8 .LVL9
     /tmp/ccA90X6U.s:3482   .debug_str:0000000000000abd .LASF166
     /tmp/ccA90X6U.s:3222   .debug_str:00000000000002e0 .LASF168
     /tmp/ccA90X6U.s:3362   .debug_str:000000000000079a .LASF167
     /tmp/ccA90X6U.s:3218   .debug_str:00000000000002d3 .LASF169
     /tmp/ccA90X6U.s:3352   .debug_str:0000000000000748 .LASF170
     /tmp/ccA90X6U.s:357    .text:00000000000001e4 .LVL27
     /tmp/ccA90X6U.s:370    .text:00000000000001f8 .LVL28
     /tmp/ccA90X6U.s:323    .text:00000000000001bc .LVL25
     /tmp/ccA90X6U.s:291    .text:0000000000000194 .LVL23
     /tmp/ccA90X6U.s:222    .text:000000000000013c .LVL14
     /tmp/ccA90X6U.s:268    .text:000000000000017c .LVL20
     /tmp/ccA90X6U.s:272    .text:0000000000000184 .LVL21
     /tmp/ccA90X6U.s:229    .text:0000000000000140 .LVL15
     /tmp/ccA90X6U.s:243    .text:0000000000000158 .LVL17
     /tmp/ccA90X6U.s:250    .text:0000000000000160 .LVL18
     /tmp/ccA90X6U.s:53     .text:0000000000000048 .LVL3
     /tmp/ccA90X6U.s:61     .text:0000000000000050 .LVL4
     /tmp/ccA90X6U.s:177    .text:00000000000000f8 .LVL12
     /tmp/ccA90X6U.s:94     .text:000000000000007c .LVL7
     /tmp/ccA90X6U.s:137    .text:00000000000000d8 .LVL10
     /tmp/ccA90X6U.s:116    .text:00000000000000b0 .LVL8
     /tmp/ccA90X6U.s:423    .debug_info:0000000000000000 .Ldebug_info0
     /tmp/ccA90X6U.s:387    .gcc_except_table:0000000000000000 .LLSDA31

UNDEFINED SYMBOLS
_ZN5Riscv11printStringEPKc
_ZN5Riscv10popSppSpieEv
thread_dispatch
_ZN9Scheduler3putEP3PCB
_ZN9Scheduler3getEv
_ZN3PCB13contextSwitchEPNS_7ContextES1_
_Z7kmallocm
_Z5kfreePv
__gxx_personality_v0
