GAS LISTING /tmp/ccuzJUyL.s 			page 1


   1              		.file	"PCB.cpp"
   2              		.option pic
   3              		.option norelax
   4              		.text
   5              	.Ltext0:
   6              		.section	.rodata.str1.8,"aMS",@progbits,1
   7              		.align	3
   8              	.LC0:
   9 0000 52756E6E 		.string	"Runner started...\n"
   9      65722073 
   9      74617274 
   9      65642E2E 
   9      2E0A00
  10 0013 00000000 		.align	3
  10      00
  11              	.LC1:
  12 0018 50434220 		.string	"PCB finished\n"
  12      66696E69 
  12      73686564 
  12      0A00
  13              		.text
  14              		.align	2
  15              		.globl	_ZN3PCB6runnerEv
  17              	_ZN3PCB6runnerEv:
  18              	.LFB26:
  19              		.file 1 "src/PCB.cpp"
   1:src/PCB.cpp   **** //
   2:src/PCB.cpp   **** // Created by os on 4/27/22.
   3:src/PCB.cpp   **** //
   4:src/PCB.cpp   **** 
   5:src/PCB.cpp   **** #include "../h/PCB.h"
   6:src/PCB.cpp   **** #include "../h/syscall_c.h"
   7:src/PCB.cpp   **** 
   8:src/PCB.cpp   **** PCB* PCB::running = 0;
   9:src/PCB.cpp   **** PCB* PCB::exitingPCB = 0;
  10:src/PCB.cpp   **** uint64 PCB::timeSliceCounter = 0;
  11:src/PCB.cpp   **** PCB* PCB::sleepingPCBHead = 0;
  12:src/PCB.cpp   **** 
  13:src/PCB.cpp   **** PCB::PCB(Body body, void *args, void* stack_space, uint64 timeSlice) :
  14:src/PCB.cpp   ****     timeSlice(timeSlice),
  15:src/PCB.cpp   ****     body(body),
  16:src/PCB.cpp   ****     args(args),
  17:src/PCB.cpp   ****     beginSP(stack_space),
  18:src/PCB.cpp   ****     context({
  19:src/PCB.cpp   ****         (uint64)((char*)stack_space + DEFAULT_STACK_SIZE),
  20:src/PCB.cpp   ****         (uint64)&PCB::runner
  21:src/PCB.cpp   ****     })
  22:src/PCB.cpp   **** {
  23:src/PCB.cpp   ****     Scheduler::put(this);
  24:src/PCB.cpp   ****     nextPCB = 0;
  25:src/PCB.cpp   **** }
  26:src/PCB.cpp   **** 
  27:src/PCB.cpp   **** void PCB::sleep(time_t time)
  28:src/PCB.cpp   **** {
  29:src/PCB.cpp   ****     //todo
  30:src/PCB.cpp   **** }
  31:src/PCB.cpp   **** 
GAS LISTING /tmp/ccuzJUyL.s 			page 2


  32:src/PCB.cpp   **** //todo
  33:src/PCB.cpp   **** //da li ovde vec treba da bude lockovano
  34:src/PCB.cpp   **** //ili treba ovde bas lock da se uradi
  35:src/PCB.cpp   **** //ili se ovo uvek poziva iz sistemskog rezima
  36:src/PCB.cpp   **** void PCB::start()
  37:src/PCB.cpp   **** {
  38:src/PCB.cpp   ****     Scheduler::put(this);
  39:src/PCB.cpp   **** }
  40:src/PCB.cpp   **** 
  41:src/PCB.cpp   **** //todo
  42:src/PCB.cpp   **** void PCB::runner()
  43:src/PCB.cpp   **** {
  20              		.loc 1 43 1
  21              		.cfi_startproc
  22 0000 130101FE 		addi	sp,sp,-32
  23              		.cfi_def_cfa_offset 32
  24 0004 233C1100 		sd	ra,24(sp)
  25 0008 23388100 		sd	s0,16(sp)
  26 000c 23349100 		sd	s1,8(sp)
  27              		.cfi_offset 1, -8
  28              		.cfi_offset 8, -16
  29              		.cfi_offset 9, -24
  30 0010 13040102 		addi	s0,sp,32
  31              		.cfi_def_cfa 8, 0
  44:src/PCB.cpp   ****     Riscv::printString("Runner started...\n");
  32              		.loc 1 44 5
  33              		.loc 1 44 23 is_stmt 0
  34 0014 17050000 		lla	a0,.LC0
  34      13050500 
  35 001c 97000000 		call	_ZN5Riscv11printStringEPKc@plt
  35      E7800000 
  36              	.LVL0:
  45:src/PCB.cpp   ****     Riscv::popSppSpie();
  37              		.loc 1 45 5 is_stmt 1
  38              		.loc 1 45 22 is_stmt 0
  39 0024 97000000 		call	_ZN5Riscv10popSppSpieEv@plt
  39      E7800000 
  40              	.LVL1:
  46:src/PCB.cpp   ****     running->body(running->args);
  41              		.loc 1 46 5 is_stmt 1
  42              		.loc 1 46 14 is_stmt 0
  43 002c 97040000 		lla	s1,.LANCHOR0
  43      93840400 
  44 0034 83B70400 		ld	a5,0(s1)
  45 0038 03B78701 		ld	a4,24(a5)
  46              		.loc 1 46 18
  47 003c 03B50702 		ld	a0,32(a5)
  48 0040 E7000700 		jalr	a4
  49              	.LVL2:
  47:src/PCB.cpp   ****     running->setState(PCB::FINISHED);
  50              		.loc 1 47 5 is_stmt 1
  51              		.loc 1 47 22 is_stmt 0
  52 0044 83B70400 		ld	a5,0(s1)
  53              	.LVL3:
  54              	.LBB22:
  55              	.LBB23:
  56              		.file 2 "src/../h/PCB.h"
GAS LISTING /tmp/ccuzJUyL.s 			page 3


   1:src/../h/PCB.h **** //
   2:src/../h/PCB.h **** // Created by os on 4/27/22.
   3:src/../h/PCB.h **** //
   4:src/../h/PCB.h **** 
   5:src/../h/PCB.h **** #ifndef PROJECT_BASE_V1_0_PCB_H
   6:src/../h/PCB.h **** #define PROJECT_BASE_V1_0_PCB_H
   7:src/../h/PCB.h **** 
   8:src/../h/PCB.h **** #include "../lib/hw.h"
   9:src/../h/PCB.h **** #include "Scheduler.h"
  10:src/../h/PCB.h **** #include "Riscv.h"
  11:src/../h/PCB.h **** 
  12:src/../h/PCB.h **** class PCB
  13:src/../h/PCB.h **** {
  14:src/../h/PCB.h **** public:
  15:src/../h/PCB.h ****     using Body = void (*)(void*);
  16:src/../h/PCB.h **** 
  17:src/../h/PCB.h ****     PCB(Body body,  void* args, void* stack_space, uint64 timeSlice);
  18:src/../h/PCB.h ****     ~PCB();
  19:src/../h/PCB.h **** 
  20:src/../h/PCB.h ****     void start();
  21:src/../h/PCB.h ****     static void dispatch();
  22:src/../h/PCB.h ****     static void sleep(time_t);
  23:src/../h/PCB.h **** 
  24:src/../h/PCB.h ****     static PCB* running;
  25:src/../h/PCB.h ****     static PCB* exitingPCB;
  26:src/../h/PCB.h **** 
  27:src/../h/PCB.h ****     static uint64 timeSliceCounter;
  28:src/../h/PCB.h ****     uint64 getTimeSlice() { return timeSlice;}
  29:src/../h/PCB.h **** 
  30:src/../h/PCB.h ****     void* operator new(size_t size);
  31:src/../h/PCB.h ****     void operator delete(void *p);
  32:src/../h/PCB.h **** 
  33:src/../h/PCB.h ****     enum State{READY, RUNNING, SUSPENDED, FINISHED, EXITING, SLEEPING};
  34:src/../h/PCB.h ****     State getState() {return state;}
  35:src/../h/PCB.h ****     void setState(State s) {state = s;}
  57              		.loc 2 35 29 is_stmt 1
  58              		.loc 2 35 35 is_stmt 0
  59 0048 13073000 		li	a4,3
  60 004c 23A8E702 		sw	a4,48(a5)
  61              	.LVL4:
  62              	.LBE23:
  63              	.LBE22:
  48:src/PCB.cpp   ****     Riscv::printString("PCB finished\n");
  64              		.loc 1 48 5 is_stmt 1
  65              		.loc 1 48 23 is_stmt 0
  66 0050 17050000 		lla	a0,.LC1
  66      13050500 
  67 0058 97000000 		call	_ZN5Riscv11printStringEPKc@plt
  67      E7800000 
  68              	.LVL5:
  49:src/PCB.cpp   **** 
  50:src/PCB.cpp   ****     //todo
  51:src/PCB.cpp   ****     //da li thread_exit ili dispatch
  52:src/PCB.cpp   ****     //thread_exit();
  53:src/PCB.cpp   ****     thread_dispatch();
  69              		.loc 1 53 5 is_stmt 1
  70              		.loc 1 53 20 is_stmt 0
GAS LISTING /tmp/ccuzJUyL.s 			page 4


  71 0060 97000000 		call	thread_dispatch@plt
  71      E7800000 
  72              	.LVL6:
  54:src/PCB.cpp   **** }
  73              		.loc 1 54 1
  74 0068 83308101 		ld	ra,24(sp)
  75              		.cfi_restore 1
  76 006c 03340101 		ld	s0,16(sp)
  77              		.cfi_restore 8
  78              		.cfi_def_cfa 2, 32
  79 0070 83348100 		ld	s1,8(sp)
  80              		.cfi_restore 9
  81 0074 13010102 		addi	sp,sp,32
  82              		.cfi_def_cfa_offset 0
  83 0078 67800000 		jr	ra
  84              		.cfi_endproc
  85              	.LFE26:
  87              		.align	2
  88              		.globl	_ZN3PCBC2EPFvPvES0_S0_m
  90              	_ZN3PCBC2EPFvPvES0_S0_m:
  91              	.LFB22:
  13:src/PCB.cpp   ****     timeSlice(timeSlice),
  92              		.loc 1 13 1 is_stmt 1
  93              		.cfi_startproc
  94              	.LVL7:
  95 007c 130101FE 		addi	sp,sp,-32
  96              		.cfi_def_cfa_offset 32
  97 0080 233C1100 		sd	ra,24(sp)
  98 0084 23388100 		sd	s0,16(sp)
  99 0088 23349100 		sd	s1,8(sp)
 100              		.cfi_offset 1, -8
 101              		.cfi_offset 8, -16
 102              		.cfi_offset 9, -24
 103 008c 13040102 		addi	s0,sp,32
 104              		.cfi_def_cfa 8, 0
 105 0090 93040500 		mv	s1,a0
 106              	.LBB24:
  21:src/PCB.cpp   **** {
 107              		.loc 1 21 6 is_stmt 0
 108 0094 2334E500 		sd	a4,8(a0)
 109 0098 23380500 		sd	zero,16(a0)
 110 009c 233CB500 		sd	a1,24(a0)
 111 00a0 2330C502 		sd	a2,32(a0)
 112 00a4 2334D502 		sd	a3,40(a0)
  19:src/PCB.cpp   ****         (uint64)&PCB::runner
 113              		.loc 1 19 37
 114 00a8 B7170000 		li	a5,4096
 115 00ac B386F600 		add	a3,a3,a5
 116              	.LVL8:
  21:src/PCB.cpp   **** {
 117              		.loc 1 21 6
 118 00b0 233CD502 		sd	a3,56(a0)
 119 00b4 97070000 		lla	a5,_ZN3PCB6runnerEv
 119      93870700 
 120 00bc 2330F504 		sd	a5,64(a0)
  23:src/PCB.cpp   ****     nextPCB = 0;
 121              		.loc 1 23 5 is_stmt 1
GAS LISTING /tmp/ccuzJUyL.s 			page 5


  23:src/PCB.cpp   ****     nextPCB = 0;
 122              		.loc 1 23 19 is_stmt 0
 123 00c0 97000000 		call	_ZN9Scheduler3putEP3PCB@plt
 123      E7800000 
 124              	.LVL9:
  24:src/PCB.cpp   **** }
 125              		.loc 1 24 5 is_stmt 1
  24:src/PCB.cpp   **** }
 126              		.loc 1 24 13 is_stmt 0
 127 00c8 23B00400 		sd	zero,0(s1)
 128              	.LBE24:
  25:src/PCB.cpp   **** 
 129              		.loc 1 25 1
 130 00cc 83308101 		ld	ra,24(sp)
 131              		.cfi_restore 1
 132 00d0 03340101 		ld	s0,16(sp)
 133              		.cfi_restore 8
 134              		.cfi_def_cfa 2, 32
 135 00d4 83348100 		ld	s1,8(sp)
 136              		.cfi_restore 9
 137              	.LVL10:
 138 00d8 13010102 		addi	sp,sp,32
 139              		.cfi_def_cfa_offset 0
 140 00dc 67800000 		jr	ra
 141              		.cfi_endproc
 142              	.LFE22:
 144              		.globl	_ZN3PCBC1EPFvPvES0_S0_m
 145              		.set	_ZN3PCBC1EPFvPvES0_S0_m,_ZN3PCBC2EPFvPvES0_S0_m
 146              		.align	2
 147              		.globl	_ZN3PCB5sleepEm
 149              	_ZN3PCB5sleepEm:
 150              	.LFB24:
  28:src/PCB.cpp   ****     //todo
 151              		.loc 1 28 1 is_stmt 1
 152              		.cfi_startproc
 153              	.LVL11:
 154 00e0 130101FF 		addi	sp,sp,-16
 155              		.cfi_def_cfa_offset 16
 156 00e4 23348100 		sd	s0,8(sp)
 157              		.cfi_offset 8, -8
 158 00e8 13040101 		addi	s0,sp,16
 159              		.cfi_def_cfa 8, 0
  30:src/PCB.cpp   **** 
 160              		.loc 1 30 1 is_stmt 0
 161 00ec 03348100 		ld	s0,8(sp)
 162              		.cfi_restore 8
 163              		.cfi_def_cfa 2, 16
 164 00f0 13010101 		addi	sp,sp,16
 165              		.cfi_def_cfa_offset 0
 166 00f4 67800000 		jr	ra
 167              		.cfi_endproc
 168              	.LFE24:
 170              		.align	2
 171              		.globl	_ZN3PCB5startEv
 173              	_ZN3PCB5startEv:
 174              	.LFB25:
  37:src/PCB.cpp   ****     Scheduler::put(this);
GAS LISTING /tmp/ccuzJUyL.s 			page 6


 175              		.loc 1 37 1 is_stmt 1
 176              		.cfi_startproc
 177              	.LVL12:
 178 00f8 130101FF 		addi	sp,sp,-16
 179              		.cfi_def_cfa_offset 16
 180 00fc 23341100 		sd	ra,8(sp)
 181 0100 23308100 		sd	s0,0(sp)
 182              		.cfi_offset 1, -8
 183              		.cfi_offset 8, -16
 184 0104 13040101 		addi	s0,sp,16
 185              		.cfi_def_cfa 8, 0
  38:src/PCB.cpp   **** }
 186              		.loc 1 38 5
  38:src/PCB.cpp   **** }
 187              		.loc 1 38 19 is_stmt 0
 188 0108 97000000 		call	_ZN9Scheduler3putEP3PCB@plt
 188      E7800000 
 189              	.LVL13:
  39:src/PCB.cpp   **** 
 190              		.loc 1 39 1
 191 0110 83308100 		ld	ra,8(sp)
 192              		.cfi_restore 1
 193 0114 03340100 		ld	s0,0(sp)
 194              		.cfi_restore 8
 195              		.cfi_def_cfa 2, 16
 196 0118 13010101 		addi	sp,sp,16
 197              		.cfi_def_cfa_offset 0
 198 011c 67800000 		jr	ra
 199              		.cfi_endproc
 200              	.LFE25:
 202              		.align	2
 203              		.globl	_ZN3PCBnwEm
 205              	_ZN3PCBnwEm:
 206              	.LFB28:
  55:src/PCB.cpp   **** 
  56:src/PCB.cpp   **** void PCB::dispatch()
  57:src/PCB.cpp   **** {
  58:src/PCB.cpp   ****     Riscv::printString("Dispatch called...\n");
  59:src/PCB.cpp   ****     PCB* old = running;
  60:src/PCB.cpp   ****     if(old->getState() == PCB::RUNNING)
  61:src/PCB.cpp   ****         Scheduler::put(old);
  62:src/PCB.cpp   ****     PCB::running = Scheduler::get();
  63:src/PCB.cpp   ****     PCB::running->setState(PCB::RUNNING);
  64:src/PCB.cpp   ****     Riscv::printString("Switching context...\n");
  65:src/PCB.cpp   **** 
  66:src/PCB.cpp   ****     if(PCB::exitingPCB == 0)
  67:src/PCB.cpp   ****     {
  68:src/PCB.cpp   ****         PCB::contextSwitch(&old->context, &running->context);
  69:src/PCB.cpp   ****     }
  70:src/PCB.cpp   ****     else
  71:src/PCB.cpp   ****     {
  72:src/PCB.cpp   ****         delete PCB::exitingPCB;
  73:src/PCB.cpp   ****         PCB::exitingPCB = 0;
  74:src/PCB.cpp   ****         PCB::contextSwitchExiting(&running->context);
  75:src/PCB.cpp   ****     }
  76:src/PCB.cpp   **** 
  77:src/PCB.cpp   **** }
GAS LISTING /tmp/ccuzJUyL.s 			page 7


  78:src/PCB.cpp   **** 
  79:src/PCB.cpp   **** void *PCB::operator new(size_t size) {
 207              		.loc 1 79 38 is_stmt 1
 208              		.cfi_startproc
 209              	.LVL14:
 210 0120 130101FF 		addi	sp,sp,-16
 211              		.cfi_def_cfa_offset 16
 212 0124 23341100 		sd	ra,8(sp)
 213 0128 23308100 		sd	s0,0(sp)
 214              		.cfi_offset 1, -8
 215              		.cfi_offset 8, -16
 216 012c 13040101 		addi	s0,sp,16
 217              		.cfi_def_cfa 8, 0
  80:src/PCB.cpp   ****     return kmalloc(size);
 218              		.loc 1 80 5
 219              		.loc 1 80 19 is_stmt 0
 220 0130 97000000 		call	_Z7kmallocm@plt
 220      E7800000 
 221              	.LVL15:
  81:src/PCB.cpp   **** }
 222              		.loc 1 81 1
 223 0138 83308100 		ld	ra,8(sp)
 224              		.cfi_restore 1
 225 013c 03340100 		ld	s0,0(sp)
 226              		.cfi_restore 8
 227              		.cfi_def_cfa 2, 16
 228 0140 13010101 		addi	sp,sp,16
 229              		.cfi_def_cfa_offset 0
 230 0144 67800000 		jr	ra
 231              		.cfi_endproc
 232              	.LFE28:
 234              		.align	2
 235              		.globl	_ZN3PCBdlEPv
 237              	_ZN3PCBdlEPv:
 238              	.LFB29:
  82:src/PCB.cpp   **** 
  83:src/PCB.cpp   **** void PCB::operator delete(void *p) {
 239              		.loc 1 83 36 is_stmt 1
 240              		.cfi_startproc
 241              	.LVL16:
 242 0148 130101FF 		addi	sp,sp,-16
 243              		.cfi_def_cfa_offset 16
 244 014c 23341100 		sd	ra,8(sp)
 245 0150 23308100 		sd	s0,0(sp)
 246              		.cfi_offset 1, -8
 247              		.cfi_offset 8, -16
 248 0154 13040101 		addi	s0,sp,16
 249              		.cfi_def_cfa 8, 0
  84:src/PCB.cpp   ****     //todo
  85:src/PCB.cpp   ****     kfree(p);
 250              		.loc 1 85 5
 251              		.loc 1 85 10 is_stmt 0
 252 0158 97000000 		call	_Z5kfreePv@plt
 252      E7800000 
 253              	.LVL17:
  86:src/PCB.cpp   **** }
 254              		.loc 1 86 1
GAS LISTING /tmp/ccuzJUyL.s 			page 8


 255 0160 83308100 		ld	ra,8(sp)
 256              		.cfi_restore 1
 257 0164 03340100 		ld	s0,0(sp)
 258              		.cfi_restore 8
 259              		.cfi_def_cfa 2, 16
 260 0168 13010101 		addi	sp,sp,16
 261              		.cfi_def_cfa_offset 0
 262 016c 67800000 		jr	ra
 263              		.cfi_endproc
 264              	.LFE29:
 266              		.align	2
 267              		.globl	_ZN3PCBD2Ev
 269              	_ZN3PCBD2Ev:
 270              	.LFB31:
  87:src/PCB.cpp   **** 
  88:src/PCB.cpp   **** PCB::~PCB() {
 271              		.loc 1 88 1 is_stmt 1
 272              		.cfi_startproc
 273              		.cfi_personality 0x9b,DW.ref.__gxx_personality_v0
 274              		.cfi_lsda 0x1b,.LLSDA31
 275              	.LVL18:
 276 0170 130101FF 		addi	sp,sp,-16
 277              		.cfi_def_cfa_offset 16
 278 0174 23341100 		sd	ra,8(sp)
 279 0178 23308100 		sd	s0,0(sp)
 280              		.cfi_offset 1, -8
 281              		.cfi_offset 8, -16
 282 017c 13040101 		addi	s0,sp,16
 283              		.cfi_def_cfa 8, 0
 284              	.LBB25:
  89:src/PCB.cpp   ****     kfree(beginSP);
 285              		.loc 1 89 5
 286              		.loc 1 89 10 is_stmt 0
 287 0180 03358502 		ld	a0,40(a0)
 288              	.LVL19:
 289 0184 97000000 		call	_Z5kfreePv@plt
 289      E7800000 
 290              	.LVL20:
 291              	.LBE25:
  90:src/PCB.cpp   **** }
 292              		.loc 1 90 1
 293 018c 83308100 		ld	ra,8(sp)
 294              		.cfi_restore 1
 295 0190 03340100 		ld	s0,0(sp)
 296              		.cfi_restore 8
 297              		.cfi_def_cfa 2, 16
 298 0194 13010101 		addi	sp,sp,16
 299              		.cfi_def_cfa_offset 0
 300 0198 67800000 		jr	ra
 301              		.cfi_endproc
 302              	.LFE31:
 303              		.globl	__gxx_personality_v0
 304              		.section	.gcc_except_table,"a",@progbits
 305              	.LLSDA31:
 306 0000 FF       		.byte	0xff
 307 0001 FF       		.byte	0xff
 308 0002 03       		.byte	0x3
GAS LISTING /tmp/ccuzJUyL.s 			page 9


 309 0003 00       		.byte	0
 310              		.text
 312              		.globl	_ZN3PCBD1Ev
 313              		.set	_ZN3PCBD1Ev,_ZN3PCBD2Ev
 314              		.section	.rodata.str1.8
 315 0026 0000     		.align	3
 316              	.LC2:
 317 0028 44697370 		.string	"Dispatch called...\n"
 317      61746368 
 317      2063616C 
 317      6C65642E 
 317      2E2E0A00 
 318 003c 00000000 		.align	3
 319              	.LC3:
 320 0040 53776974 		.string	"Switching context...\n"
 320      6368696E 
 320      6720636F 
 320      6E746578 
 320      742E2E2E 
 321              		.text
 322              		.align	2
 323              		.globl	_ZN3PCB8dispatchEv
 325              	_ZN3PCB8dispatchEv:
 326              	.LFB27:
  57:src/PCB.cpp   ****     Riscv::printString("Dispatch called...\n");
 327              		.loc 1 57 1 is_stmt 1
 328              		.cfi_startproc
 329 019c 130101FE 		addi	sp,sp,-32
 330              		.cfi_def_cfa_offset 32
 331 01a0 233C1100 		sd	ra,24(sp)
 332 01a4 23388100 		sd	s0,16(sp)
 333 01a8 23349100 		sd	s1,8(sp)
 334 01ac 23302101 		sd	s2,0(sp)
 335              		.cfi_offset 1, -8
 336              		.cfi_offset 8, -16
 337              		.cfi_offset 9, -24
 338              		.cfi_offset 18, -32
 339 01b0 13040102 		addi	s0,sp,32
 340              		.cfi_def_cfa 8, 0
  58:src/PCB.cpp   ****     PCB* old = running;
 341              		.loc 1 58 5
  58:src/PCB.cpp   ****     PCB* old = running;
 342              		.loc 1 58 23 is_stmt 0
 343 01b4 17050000 		lla	a0,.LC2
 343      13050500 
 344 01bc 97000000 		call	_ZN5Riscv11printStringEPKc@plt
 344      E7800000 
 345              	.LVL21:
  59:src/PCB.cpp   ****     if(old->getState() == PCB::RUNNING)
 346              		.loc 1 59 5 is_stmt 1
  59:src/PCB.cpp   ****     if(old->getState() == PCB::RUNNING)
 347              		.loc 1 59 10 is_stmt 0
 348 01c4 17090000 		ld	s2,.LANCHOR0
 348      03390900 
 349              	.LVL22:
  60:src/PCB.cpp   ****         Scheduler::put(old);
 350              		.loc 1 60 5 is_stmt 1
GAS LISTING /tmp/ccuzJUyL.s 			page 10


 351              	.LBB26:
 352              	.LBB27:
  34:src/../h/PCB.h ****     void setState(State s) {state = s;}
 353              		.loc 2 34 23
  34:src/../h/PCB.h ****     void setState(State s) {state = s;}
 354              		.loc 2 34 30 is_stmt 0
 355 01cc 03270903 		lw	a4,48(s2)
 356              	.LVL23:
 357              	.LBE27:
 358              	.LBE26:
  60:src/PCB.cpp   ****         Scheduler::put(old);
 359              		.loc 1 60 5
 360 01d0 93071000 		li	a5,1
 361 01d4 6302F708 		beq	a4,a5,.L20
 362              	.L16:
  62:src/PCB.cpp   ****     PCB::running->setState(PCB::RUNNING);
 363              		.loc 1 62 5 is_stmt 1
  62:src/PCB.cpp   ****     PCB::running->setState(PCB::RUNNING);
 364              		.loc 1 62 34 is_stmt 0
 365 01d8 97000000 		call	_ZN9Scheduler3getEv@plt
 365      E7800000 
 366              	.LVL24:
  62:src/PCB.cpp   ****     PCB::running->setState(PCB::RUNNING);
 367              		.loc 1 62 18
 368 01e0 97040000 		lla	s1,.LANCHOR0
 368      93840400 
 369 01e8 23B0A400 		sd	a0,0(s1)
  63:src/PCB.cpp   ****     Riscv::printString("Switching context...\n");
 370              		.loc 1 63 5 is_stmt 1
 371              	.LVL25:
 372              	.LBB28:
 373              	.LBB29:
 374              		.loc 2 35 29
 375              		.loc 2 35 35 is_stmt 0
 376 01ec 93071000 		li	a5,1
 377 01f0 2328F502 		sw	a5,48(a0)
 378              	.LVL26:
 379              	.LBE29:
 380              	.LBE28:
  64:src/PCB.cpp   **** 
 381              		.loc 1 64 5 is_stmt 1
  64:src/PCB.cpp   **** 
 382              		.loc 1 64 23 is_stmt 0
 383 01f4 17050000 		lla	a0,.LC3
 383      13050500 
 384 01fc 97000000 		call	_ZN5Riscv11printStringEPKc@plt
 384      E7800000 
 385              	.LVL27:
  66:src/PCB.cpp   ****     {
 386              		.loc 1 66 5 is_stmt 1
  66:src/PCB.cpp   ****     {
 387              		.loc 1 66 24 is_stmt 0
 388 0204 83B48400 		ld	s1,8(s1)
  66:src/PCB.cpp   ****     {
 389              		.loc 1 66 5
 390 0208 63800406 		beqz	s1,.L21
  72:src/PCB.cpp   ****         PCB::exitingPCB = 0;
GAS LISTING /tmp/ccuzJUyL.s 			page 11


 391              		.loc 1 72 9 is_stmt 1 discriminator 1
  72:src/PCB.cpp   ****         PCB::exitingPCB = 0;
 392              		.loc 1 72 21 is_stmt 0 discriminator 1
 393 020c 13850400 		mv	a0,s1
 394 0210 97000000 		call	_ZN3PCBD1Ev
 394      E7800000 
 395              	.LVL28:
 396 0218 13850400 		mv	a0,s1
 397 021c 97000000 		call	_ZN3PCBdlEPv
 397      E7800000 
 398              	.LVL29:
  73:src/PCB.cpp   ****         PCB::contextSwitchExiting(&running->context);
 399              		.loc 1 73 9 is_stmt 1 discriminator 1
  73:src/PCB.cpp   ****         PCB::contextSwitchExiting(&running->context);
 400              		.loc 1 73 25 is_stmt 0 discriminator 1
 401 0224 97070000 		lla	a5,.LANCHOR0
 401      93870700 
 402 022c 23B40700 		sd	zero,8(a5)
  74:src/PCB.cpp   ****     }
 403              		.loc 1 74 9 is_stmt 1 discriminator 1
  74:src/PCB.cpp   ****     }
 404              		.loc 1 74 45 is_stmt 0 discriminator 1
 405 0230 03B50700 		ld	a0,0(a5)
  74:src/PCB.cpp   ****     }
 406              		.loc 1 74 34 discriminator 1
 407 0234 13058503 		addi	a0,a0,56
 408 0238 97000000 		call	_ZN3PCB20contextSwitchExitingEPNS_7ContextE@plt
 408      E7800000 
 409              	.LVL30:
 410              	.L15:
  77:src/PCB.cpp   **** 
 411              		.loc 1 77 1
 412 0240 83308101 		ld	ra,24(sp)
 413              		.cfi_remember_state
 414              		.cfi_restore 1
 415 0244 03340101 		ld	s0,16(sp)
 416              		.cfi_restore 8
 417              		.cfi_def_cfa 2, 32
 418 0248 83348100 		ld	s1,8(sp)
 419              		.cfi_restore 9
 420 024c 03390100 		ld	s2,0(sp)
 421              		.cfi_restore 18
 422              	.LVL31:
 423 0250 13010102 		addi	sp,sp,32
 424              		.cfi_def_cfa_offset 0
 425 0254 67800000 		jr	ra
 426              	.LVL32:
 427              	.L20:
 428              		.cfi_restore_state
  61:src/PCB.cpp   ****     PCB::running = Scheduler::get();
 429              		.loc 1 61 9 is_stmt 1
  61:src/PCB.cpp   ****     PCB::running = Scheduler::get();
 430              		.loc 1 61 23 is_stmt 0
 431 0258 13050900 		mv	a0,s2
 432 025c 97000000 		call	_ZN9Scheduler3putEP3PCB@plt
 432      E7800000 
 433              	.LVL33:
GAS LISTING /tmp/ccuzJUyL.s 			page 12


 434 0264 6FF05FF7 		j	.L16
 435              	.L21:
  68:src/PCB.cpp   ****     }
 436              		.loc 1 68 9 is_stmt 1
  68:src/PCB.cpp   ****     }
 437              		.loc 1 68 27 is_stmt 0
 438 0268 97050000 		ld	a1,.LANCHOR0
 438      83B50500 
 439 0270 93858503 		addi	a1,a1,56
 440 0274 13058903 		addi	a0,s2,56
 441 0278 97000000 		call	_ZN3PCB13contextSwitchEPNS_7ContextES1_@plt
 441      E7800000 
 442              	.LVL34:
 443 0280 6FF01FFC 		j	.L15
 444              		.cfi_endproc
 445              	.LFE27:
 447              		.section	.rodata.str1.8
 448 0056 0000     		.align	3
 449              	.LC4:
 450 0058 496E7365 		.string	"Inserting sleeping PCB...\n"
 450      7274696E 
 450      6720736C 
 450      65657069 
 450      6E672050 
 451              		.text
 452              		.align	2
 453              		.globl	_ZN3PCB17insertSleepingPCBEv
 455              	_ZN3PCB17insertSleepingPCBEv:
 456              	.LFB33:
  91:src/PCB.cpp   **** 
  92:src/PCB.cpp   **** void PCB::insertSleepingPCB()
  93:src/PCB.cpp   **** {
 457              		.loc 1 93 1 is_stmt 1
 458              		.cfi_startproc
 459 0284 130101FF 		addi	sp,sp,-16
 460              		.cfi_def_cfa_offset 16
 461 0288 23341100 		sd	ra,8(sp)
 462 028c 23308100 		sd	s0,0(sp)
 463              		.cfi_offset 1, -8
 464              		.cfi_offset 8, -16
 465 0290 13040101 		addi	s0,sp,16
 466              		.cfi_def_cfa 8, 0
  94:src/PCB.cpp   ****     Riscv::printString("Inserting sleeping PCB...\n");
 467              		.loc 1 94 5
 468              		.loc 1 94 23 is_stmt 0
 469 0294 17050000 		lla	a0,.LC4
 469      13050500 
 470 029c 97000000 		call	_ZN5Riscv11printStringEPKc@plt
 470      E7800000 
 471              	.LVL35:
  95:src/PCB.cpp   ****     PCB* prev = 0;
 472              		.loc 1 95 5 is_stmt 1
  96:src/PCB.cpp   ****     PCB* curr = sleepingPCBHead;
 473              		.loc 1 96 5
 474              		.loc 1 96 10 is_stmt 0
 475 02a4 97070000 		ld	a5,.LANCHOR0+16
 475      83B70700 
GAS LISTING /tmp/ccuzJUyL.s 			page 13


 476              	.LVL36:
  95:src/PCB.cpp   ****     PCB* prev = 0;
 477              		.loc 1 95 10
 478 02ac 93050000 		li	a1,0
 479              	.LVL37:
 480              	.L25:
  97:src/PCB.cpp   ****     while(curr != 0)
 481              		.loc 1 97 5 is_stmt 1
 482              		.loc 1 97 16
 483 02b0 63840702 		beqz	a5,.L23
  98:src/PCB.cpp   ****     {
  99:src/PCB.cpp   ****         if(PCB::running->getTimeToSleep() < curr->getTimeToSleep())
 484              		.loc 1 99 9
 485              		.loc 1 99 40 is_stmt 0
 486 02b4 17070000 		ld	a4,.LANCHOR0
 486      03370700 
 487              	.LVL38:
 488              	.LBB30:
 489              	.LBB31:
  36:src/../h/PCB.h ****     void setTimeToSleep(uint64 time) {timeToSleep = time;}
  37:src/../h/PCB.h ****     uint64 getTimeToSleep() {return timeToSleep;}
 490              		.loc 2 37 30 is_stmt 1
 491              		.loc 2 37 37 is_stmt 0
 492 02bc 03360701 		ld	a2,16(a4)
 493              	.LVL39:
 494              	.LBE31:
 495              	.LBE30:
 496              	.LBB32:
 497              	.LBB33:
 498              		.loc 2 37 30 is_stmt 1
 499              		.loc 2 37 37 is_stmt 0
 500 02c0 83B60701 		ld	a3,16(a5)
 501              	.LVL40:
 502              	.LBE33:
 503              	.LBE32:
 504              		.loc 1 99 9
 505 02c4 6368D600 		bltu	a2,a3,.L29
 100:src/PCB.cpp   ****         {
 101:src/PCB.cpp   ****             PCB::running->nextPCB = curr;
 102:src/PCB.cpp   ****             break;
 103:src/PCB.cpp   ****         }
 104:src/PCB.cpp   ****         prev = curr;
 506              		.loc 1 104 9 is_stmt 1
 507              	.LVL41:
 105:src/PCB.cpp   ****         curr=curr->nextPCB;
 508              		.loc 1 105 9
 104:src/PCB.cpp   ****         curr=curr->nextPCB;
 509              		.loc 1 104 14 is_stmt 0
 510 02c8 93850700 		mv	a1,a5
 511              		.loc 1 105 13
 512 02cc 83B70700 		ld	a5,0(a5)
 513              	.LVL42:
  97:src/PCB.cpp   ****     {
 514              		.loc 1 97 5
 515 02d0 6FF01FFE 		j	.L25
 516              	.L29:
 101:src/PCB.cpp   ****             break;
GAS LISTING /tmp/ccuzJUyL.s 			page 14


 517              		.loc 1 101 13 is_stmt 1
 101:src/PCB.cpp   ****             break;
 518              		.loc 1 101 35 is_stmt 0
 519 02d4 2330F700 		sd	a5,0(a4)
 102:src/PCB.cpp   ****         }
 520              		.loc 1 102 13 is_stmt 1
 521              	.L23:
 106:src/PCB.cpp   ****     }
 107:src/PCB.cpp   **** 
 108:src/PCB.cpp   ****     if(prev == 0)
 522              		.loc 1 108 5
 523 02d8 63800502 		beqz	a1,.L30
 109:src/PCB.cpp   ****         sleepingPCBHead = PCB::running;
 110:src/PCB.cpp   ****     else
 111:src/PCB.cpp   ****         prev->nextPCB = PCB::running;
 524              		.loc 1 111 9
 525              		.loc 1 111 23 is_stmt 0
 526 02dc 97070000 		ld	a5,.LANCHOR0
 526      83B70700 
 527              	.LVL43:
 528 02e4 23B0F500 		sd	a5,0(a1)
 529              	.L22:
 112:src/PCB.cpp   **** }
 530              		.loc 1 112 1
 531 02e8 83308100 		ld	ra,8(sp)
 532              		.cfi_remember_state
 533              		.cfi_restore 1
 534 02ec 03340100 		ld	s0,0(sp)
 535              		.cfi_restore 8
 536              		.cfi_def_cfa 2, 16
 537 02f0 13010101 		addi	sp,sp,16
 538              		.cfi_def_cfa_offset 0
 539 02f4 67800000 		jr	ra
 540              	.LVL44:
 541              	.L30:
 542              		.cfi_restore_state
 109:src/PCB.cpp   ****         sleepingPCBHead = PCB::running;
 543              		.loc 1 109 9 is_stmt 1
 109:src/PCB.cpp   ****         sleepingPCBHead = PCB::running;
 544              		.loc 1 109 25 is_stmt 0
 545 02f8 97070000 		lla	a5,.LANCHOR0
 545      93870700 
 546              	.LVL45:
 547 0300 03B70700 		ld	a4,0(a5)
 548 0304 23B8E700 		sd	a4,16(a5)
 549 0308 6FF01FFE 		j	.L22
 550              		.cfi_endproc
 551              	.LFE33:
 553              		.section	.rodata.str1.8
 554 0073 00000000 		.align	3
 554      00
 555              	.LC5:
 556 0078 57616B69 		.string	"Waking PCBs...\n"
 556      6E672050 
 556      4342732E 
 556      2E2E0A00 
 557              		.align	3
GAS LISTING /tmp/ccuzJUyL.s 			page 15


 558              	.LC6:
 559 0088 50434220 		.string	"PCB woken...\n"
 559      776F6B65 
 559      6E2E2E2E 
 559      0A00
 560              		.text
 561              		.align	2
 562              		.globl	_ZN3PCB13tryToWakePCBsEv
 564              	_ZN3PCB13tryToWakePCBsEv:
 565              	.LFB34:
 113:src/PCB.cpp   **** 
 114:src/PCB.cpp   **** void PCB::tryToWakePCBs() {
 566              		.loc 1 114 27 is_stmt 1
 567              		.cfi_startproc
 568 030c 130101FE 		addi	sp,sp,-32
 569              		.cfi_def_cfa_offset 32
 570 0310 233C1100 		sd	ra,24(sp)
 571 0314 23388100 		sd	s0,16(sp)
 572 0318 23349100 		sd	s1,8(sp)
 573 031c 23302101 		sd	s2,0(sp)
 574              		.cfi_offset 1, -8
 575              		.cfi_offset 8, -16
 576              		.cfi_offset 9, -24
 577              		.cfi_offset 18, -32
 578 0320 13040102 		addi	s0,sp,32
 579              		.cfi_def_cfa 8, 0
 115:src/PCB.cpp   ****     Riscv::printString("Waking PCBs...\n");
 580              		.loc 1 115 5
 581              		.loc 1 115 23 is_stmt 0
 582 0324 17050000 		lla	a0,.LC5
 582      13050500 
 583 032c 97000000 		call	_ZN5Riscv11printStringEPKc@plt
 583      E7800000 
 584              	.LVL46:
 116:src/PCB.cpp   ****     PCB* curr = sleepingPCBHead;
 585              		.loc 1 116 5 is_stmt 1
 586              		.loc 1 116 10 is_stmt 0
 587 0334 97040000 		ld	s1,.LANCHOR0+16
 587      83B40400 
 588              	.LVL47:
 589 033c 6F008003 		j	.L32
 590              	.L37:
 591              	.LBB34:
 592              	.LBB35:
 117:src/PCB.cpp   ****     while(curr != 0)
 118:src/PCB.cpp   ****     {
 119:src/PCB.cpp   ****         if(curr->getTimeToSleep() == 1UL)
 120:src/PCB.cpp   ****         {
 121:src/PCB.cpp   ****             Riscv::printString("PCB woken...\n");
 593              		.loc 1 121 13 is_stmt 1
 594              		.loc 1 121 31 is_stmt 0
 595 0340 17050000 		lla	a0,.LC6
 595      13050500 
 596 0348 97000000 		call	_ZN5Riscv11printStringEPKc@plt
 596      E7800000 
 597              	.LVL48:
 122:src/PCB.cpp   ****             PCB* old = curr;
GAS LISTING /tmp/ccuzJUyL.s 			page 16


 598              		.loc 1 122 13 is_stmt 1
 123:src/PCB.cpp   ****             curr=curr->nextPCB;
 599              		.loc 1 123 13
 600              		.loc 1 123 17 is_stmt 0
 601 0350 03B90400 		ld	s2,0(s1)
 602              	.LVL49:
 124:src/PCB.cpp   ****             old->setState(PCB::READY);
 603              		.loc 1 124 13 is_stmt 1
 604              	.LBB36:
 605              	.LBB37:
  35:src/../h/PCB.h ****     void setTimeToSleep(uint64 time) {timeToSleep = time;}
 606              		.loc 2 35 29
  35:src/../h/PCB.h ****     void setTimeToSleep(uint64 time) {timeToSleep = time;}
 607              		.loc 2 35 35 is_stmt 0
 608 0354 23A80402 		sw	zero,48(s1)
 609              	.LVL50:
 610              	.LBE37:
 611              	.LBE36:
 125:src/PCB.cpp   ****             old->nextPCB = 0;
 612              		.loc 1 125 13 is_stmt 1
 613              		.loc 1 125 26 is_stmt 0
 614 0358 23B00400 		sd	zero,0(s1)
 126:src/PCB.cpp   ****             Scheduler::put(old);
 615              		.loc 1 126 13 is_stmt 1
 616              		.loc 1 126 27 is_stmt 0
 617 035c 13850400 		mv	a0,s1
 618 0360 97000000 		call	_ZN9Scheduler3putEP3PCB@plt
 618      E7800000 
 619              	.LVL51:
 127:src/PCB.cpp   ****             sleepingPCBHead = curr;
 620              		.loc 1 127 13 is_stmt 1
 621              		.loc 1 127 29 is_stmt 0
 622 0368 97070000 		sd	s2,.LANCHOR0+16,a5
 622      23B02701 
 123:src/PCB.cpp   ****             old->setState(PCB::READY);
 623              		.loc 1 123 17
 624 0370 93040900 		mv	s1,s2
 625              	.LVL52:
 626              	.L32:
 627              	.LBE35:
 628              	.LBE34:
 117:src/PCB.cpp   ****     {
 629              		.loc 1 117 5 is_stmt 1
 117:src/PCB.cpp   ****     {
 630              		.loc 1 117 16
 631 0374 63800402 		beqz	s1,.L31
 119:src/PCB.cpp   ****         {
 632              		.loc 1 119 9
 633              	.LVL53:
 634              	.LBB42:
 635              	.LBB38:
 636              	.LBB39:
 637              		.loc 2 37 30
 638              		.loc 2 37 37 is_stmt 0
 639 0378 83B70401 		ld	a5,16(s1)
 640              	.LVL54:
 641              	.LBE39:
GAS LISTING /tmp/ccuzJUyL.s 			page 17


 642              	.LBE38:
 119:src/PCB.cpp   ****         {
 643              		.loc 1 119 9
 644 037c 13071000 		li	a4,1
 645 0380 E380E7FC 		beq	a5,a4,.L37
 128:src/PCB.cpp   ****         }
 129:src/PCB.cpp   ****         else
 130:src/PCB.cpp   ****         {
 131:src/PCB.cpp   ****             curr->setTimeToSleep(curr->getTimeToSleep() - 1);
 646              		.loc 1 131 13 is_stmt 1
 647              	.LVL55:
 648              	.LBE42:
 649              		.loc 2 37 30
 650              	.LBB43:
 651              		.loc 1 131 33 is_stmt 0
 652 0384 9387F7FF 		addi	a5,a5,-1
 653              	.LVL56:
 654              	.LBB40:
 655              	.LBB41:
  36:src/../h/PCB.h ****     uint64 getTimeToSleep() {return timeToSleep;}
 656              		.loc 2 36 39 is_stmt 1
  36:src/../h/PCB.h ****     uint64 getTimeToSleep() {return timeToSleep;}
 657              		.loc 2 36 51 is_stmt 0
 658 0388 23B8F400 		sd	a5,16(s1)
 659              	.LVL57:
 660              	.LBE41:
 661              	.LBE40:
 132:src/PCB.cpp   ****             curr = curr->nextPCB;
 662              		.loc 1 132 13 is_stmt 1
 663              		.loc 1 132 18 is_stmt 0
 664 038c 83B40400 		ld	s1,0(s1)
 665              	.LVL58:
 666 0390 6FF05FFE 		j	.L32
 667              	.L31:
 668              	.LBE43:
 133:src/PCB.cpp   ****         }
 134:src/PCB.cpp   ****     }
 135:src/PCB.cpp   **** }
 669              		.loc 1 135 1
 670 0394 83308101 		ld	ra,24(sp)
 671              		.cfi_restore 1
 672 0398 03340101 		ld	s0,16(sp)
 673              		.cfi_restore 8
 674              		.cfi_def_cfa 2, 32
 675 039c 83348100 		ld	s1,8(sp)
 676              		.cfi_restore 9
 677              	.LVL59:
 678 03a0 03390100 		ld	s2,0(sp)
 679              		.cfi_restore 18
 680 03a4 13010102 		addi	sp,sp,32
 681              		.cfi_def_cfa_offset 0
 682 03a8 67800000 		jr	ra
 683              		.cfi_endproc
 684              	.LFE34:
 686              		.globl	_ZN3PCB15sleepingPCBHeadE
 687              		.globl	_ZN3PCB16timeSliceCounterE
 688              		.globl	_ZN3PCB10exitingPCBE
GAS LISTING /tmp/ccuzJUyL.s 			page 18


 689              		.globl	_ZN3PCB7runningE
 690              		.bss
 691              		.align	3
 692              		.set	.LANCHOR0,. + 0
 695              	_ZN3PCB7runningE:
 696 0000 00000000 		.zero	8
 696      00000000 
 699              	_ZN3PCB10exitingPCBE:
 700 0008 00000000 		.zero	8
 700      00000000 
 703              	_ZN3PCB15sleepingPCBHeadE:
 704 0010 00000000 		.zero	8
 704      00000000 
 707              	_ZN3PCB16timeSliceCounterE:
 708 0018 00000000 		.zero	8
 708      00000000 
 709              		.text
 710              	.Letext0:
 711              		.file 3 "src/../h/../lib/hw.h"
 712              		.file 4 "src/../h/Queue.h"
 713              		.file 5 "src/../h/Scheduler.h"
 714              		.file 6 "src/../h/Riscv.h"
 715              		.file 7 "src/../h/MemoryAllocator.h"
 716              		.file 8 "src/../h/syscall_c.h"
 4277              		.align	3
 4280              	DW.ref.__gxx_personality_v0:
 4281 0000 00000000 		.dword	__gxx_personality_v0
 4281      00000000 
 4282              		.ident	"GCC: (Ubuntu 9.3.0-17ubuntu1~20.04) 9.3.0"
 4283              		.section	.note.GNU-stack,"",@progbits
GAS LISTING /tmp/ccuzJUyL.s 			page 19


DEFINED SYMBOLS
                            *ABS*:0000000000000000 PCB.cpp
     /tmp/ccuzJUyL.s:17     .text:0000000000000000 _ZN3PCB6runnerEv
     /tmp/ccuzJUyL.s:21     .text:0000000000000000 .L0 
     /tmp/ccuzJUyL.s:22     .text:0000000000000000 .L0 
     /tmp/ccuzJUyL.s:23     .text:0000000000000004 .L0 
     /tmp/ccuzJUyL.s:27     .text:0000000000000010 .L0 
     /tmp/ccuzJUyL.s:28     .text:0000000000000010 .L0 
     /tmp/ccuzJUyL.s:29     .text:0000000000000010 .L0 
     /tmp/ccuzJUyL.s:31     .text:0000000000000014 .L0 
     /tmp/ccuzJUyL.s:33     .text:0000000000000014 .L0 
     /tmp/ccuzJUyL.s:34     .text:0000000000000014 .L0 
     /tmp/ccuzJUyL.s:38     .text:0000000000000024 .L0 
     /tmp/ccuzJUyL.s:39     .text:0000000000000024 .L0 
     /tmp/ccuzJUyL.s:42     .text:000000000000002c .L0 
     /tmp/ccuzJUyL.s:43     .text:000000000000002c .L0 
     /tmp/ccuzJUyL.s:47     .text:000000000000003c .L0 
     /tmp/ccuzJUyL.s:51     .text:0000000000000044 .L0 
     /tmp/ccuzJUyL.s:52     .text:0000000000000044 .L0 
     /tmp/ccuzJUyL.s:58     .text:0000000000000048 .L0 
     /tmp/ccuzJUyL.s:59     .text:0000000000000048 .L0 
     /tmp/ccuzJUyL.s:65     .text:0000000000000050 .L0 
     /tmp/ccuzJUyL.s:66     .text:0000000000000050 .L0 
     /tmp/ccuzJUyL.s:70     .text:0000000000000060 .L0 
     /tmp/ccuzJUyL.s:71     .text:0000000000000060 .L0 
     /tmp/ccuzJUyL.s:74     .text:0000000000000068 .L0 
     /tmp/ccuzJUyL.s:75     .text:000000000000006c .L0 
     /tmp/ccuzJUyL.s:77     .text:0000000000000070 .L0 
     /tmp/ccuzJUyL.s:78     .text:0000000000000070 .L0 
     /tmp/ccuzJUyL.s:80     .text:0000000000000074 .L0 
     /tmp/ccuzJUyL.s:82     .text:0000000000000078 .L0 
     /tmp/ccuzJUyL.s:84     .text:000000000000007c .L0 
     /tmp/ccuzJUyL.s:90     .text:000000000000007c _ZN3PCBC2EPFvPvES0_S0_m
     /tmp/ccuzJUyL.s:93     .text:000000000000007c .L0 
     /tmp/ccuzJUyL.s:95     .text:000000000000007c .L0 
     /tmp/ccuzJUyL.s:96     .text:0000000000000080 .L0 
     /tmp/ccuzJUyL.s:100    .text:000000000000008c .L0 
     /tmp/ccuzJUyL.s:101    .text:000000000000008c .L0 
     /tmp/ccuzJUyL.s:102    .text:000000000000008c .L0 
     /tmp/ccuzJUyL.s:104    .text:0000000000000090 .L0 
     /tmp/ccuzJUyL.s:108    .text:0000000000000094 .L0 
     /tmp/ccuzJUyL.s:114    .text:00000000000000a8 .L0 
     /tmp/ccuzJUyL.s:118    .text:00000000000000b0 .L0 
     /tmp/ccuzJUyL.s:122    .text:00000000000000c0 .L0 
     /tmp/ccuzJUyL.s:123    .text:00000000000000c0 .L0 
     /tmp/ccuzJUyL.s:126    .text:00000000000000c8 .L0 
     /tmp/ccuzJUyL.s:127    .text:00000000000000c8 .L0 
     /tmp/ccuzJUyL.s:130    .text:00000000000000cc .L0 
     /tmp/ccuzJUyL.s:131    .text:00000000000000d0 .L0 
     /tmp/ccuzJUyL.s:133    .text:00000000000000d4 .L0 
     /tmp/ccuzJUyL.s:134    .text:00000000000000d4 .L0 
     /tmp/ccuzJUyL.s:136    .text:00000000000000d8 .L0 
     /tmp/ccuzJUyL.s:139    .text:00000000000000dc .L0 
     /tmp/ccuzJUyL.s:141    .text:00000000000000e0 .L0 
     /tmp/ccuzJUyL.s:90     .text:000000000000007c _ZN3PCBC1EPFvPvES0_S0_m
     /tmp/ccuzJUyL.s:149    .text:00000000000000e0 _ZN3PCB5sleepEm
     /tmp/ccuzJUyL.s:152    .text:00000000000000e0 .L0 
GAS LISTING /tmp/ccuzJUyL.s 			page 20


     /tmp/ccuzJUyL.s:154    .text:00000000000000e0 .L0 
     /tmp/ccuzJUyL.s:155    .text:00000000000000e4 .L0 
     /tmp/ccuzJUyL.s:157    .text:00000000000000e8 .L0 
     /tmp/ccuzJUyL.s:159    .text:00000000000000ec .L0 
     /tmp/ccuzJUyL.s:161    .text:00000000000000ec .L0 
     /tmp/ccuzJUyL.s:162    .text:00000000000000f0 .L0 
     /tmp/ccuzJUyL.s:163    .text:00000000000000f0 .L0 
     /tmp/ccuzJUyL.s:165    .text:00000000000000f4 .L0 
     /tmp/ccuzJUyL.s:167    .text:00000000000000f8 .L0 
     /tmp/ccuzJUyL.s:173    .text:00000000000000f8 _ZN3PCB5startEv
     /tmp/ccuzJUyL.s:176    .text:00000000000000f8 .L0 
     /tmp/ccuzJUyL.s:178    .text:00000000000000f8 .L0 
     /tmp/ccuzJUyL.s:179    .text:00000000000000fc .L0 
     /tmp/ccuzJUyL.s:182    .text:0000000000000104 .L0 
     /tmp/ccuzJUyL.s:183    .text:0000000000000104 .L0 
     /tmp/ccuzJUyL.s:185    .text:0000000000000108 .L0 
     /tmp/ccuzJUyL.s:187    .text:0000000000000108 .L0 
     /tmp/ccuzJUyL.s:188    .text:0000000000000108 .L0 
     /tmp/ccuzJUyL.s:191    .text:0000000000000110 .L0 
     /tmp/ccuzJUyL.s:192    .text:0000000000000114 .L0 
     /tmp/ccuzJUyL.s:194    .text:0000000000000118 .L0 
     /tmp/ccuzJUyL.s:195    .text:0000000000000118 .L0 
     /tmp/ccuzJUyL.s:197    .text:000000000000011c .L0 
     /tmp/ccuzJUyL.s:199    .text:0000000000000120 .L0 
     /tmp/ccuzJUyL.s:205    .text:0000000000000120 _ZN3PCBnwEm
     /tmp/ccuzJUyL.s:208    .text:0000000000000120 .L0 
     /tmp/ccuzJUyL.s:210    .text:0000000000000120 .L0 
     /tmp/ccuzJUyL.s:211    .text:0000000000000124 .L0 
     /tmp/ccuzJUyL.s:214    .text:000000000000012c .L0 
     /tmp/ccuzJUyL.s:215    .text:000000000000012c .L0 
     /tmp/ccuzJUyL.s:217    .text:0000000000000130 .L0 
     /tmp/ccuzJUyL.s:219    .text:0000000000000130 .L0 
     /tmp/ccuzJUyL.s:220    .text:0000000000000130 .L0 
     /tmp/ccuzJUyL.s:223    .text:0000000000000138 .L0 
     /tmp/ccuzJUyL.s:224    .text:000000000000013c .L0 
     /tmp/ccuzJUyL.s:226    .text:0000000000000140 .L0 
     /tmp/ccuzJUyL.s:227    .text:0000000000000140 .L0 
     /tmp/ccuzJUyL.s:229    .text:0000000000000144 .L0 
     /tmp/ccuzJUyL.s:231    .text:0000000000000148 .L0 
     /tmp/ccuzJUyL.s:237    .text:0000000000000148 _ZN3PCBdlEPv
     /tmp/ccuzJUyL.s:240    .text:0000000000000148 .L0 
     /tmp/ccuzJUyL.s:242    .text:0000000000000148 .L0 
     /tmp/ccuzJUyL.s:243    .text:000000000000014c .L0 
     /tmp/ccuzJUyL.s:246    .text:0000000000000154 .L0 
     /tmp/ccuzJUyL.s:247    .text:0000000000000154 .L0 
     /tmp/ccuzJUyL.s:249    .text:0000000000000158 .L0 
     /tmp/ccuzJUyL.s:251    .text:0000000000000158 .L0 
     /tmp/ccuzJUyL.s:252    .text:0000000000000158 .L0 
     /tmp/ccuzJUyL.s:255    .text:0000000000000160 .L0 
     /tmp/ccuzJUyL.s:256    .text:0000000000000164 .L0 
     /tmp/ccuzJUyL.s:258    .text:0000000000000168 .L0 
     /tmp/ccuzJUyL.s:259    .text:0000000000000168 .L0 
     /tmp/ccuzJUyL.s:261    .text:000000000000016c .L0 
     /tmp/ccuzJUyL.s:263    .text:0000000000000170 .L0 
     /tmp/ccuzJUyL.s:269    .text:0000000000000170 _ZN3PCBD2Ev
     /tmp/ccuzJUyL.s:272    .text:0000000000000170 .L0 
     /tmp/ccuzJUyL.s:4280   .data.rel.local.DW.ref.__gxx_personality_v0:0000000000000000 DW.ref.__gxx_personality_v0
GAS LISTING /tmp/ccuzJUyL.s 			page 21


     /tmp/ccuzJUyL.s:276    .text:0000000000000170 .L0 
     /tmp/ccuzJUyL.s:277    .text:0000000000000174 .L0 
     /tmp/ccuzJUyL.s:280    .text:000000000000017c .L0 
     /tmp/ccuzJUyL.s:281    .text:000000000000017c .L0 
     /tmp/ccuzJUyL.s:283    .text:0000000000000180 .L0 
     /tmp/ccuzJUyL.s:286    .text:0000000000000180 .L0 
     /tmp/ccuzJUyL.s:287    .text:0000000000000180 .L0 
     /tmp/ccuzJUyL.s:293    .text:000000000000018c .L0 
     /tmp/ccuzJUyL.s:294    .text:0000000000000190 .L0 
     /tmp/ccuzJUyL.s:296    .text:0000000000000194 .L0 
     /tmp/ccuzJUyL.s:297    .text:0000000000000194 .L0 
     /tmp/ccuzJUyL.s:299    .text:0000000000000198 .L0 
     /tmp/ccuzJUyL.s:301    .text:000000000000019c .L0 
     /tmp/ccuzJUyL.s:269    .text:0000000000000170 _ZN3PCBD1Ev
     /tmp/ccuzJUyL.s:325    .text:000000000000019c _ZN3PCB8dispatchEv
     /tmp/ccuzJUyL.s:328    .text:000000000000019c .L0 
     /tmp/ccuzJUyL.s:329    .text:000000000000019c .L0 
     /tmp/ccuzJUyL.s:330    .text:00000000000001a0 .L0 
     /tmp/ccuzJUyL.s:335    .text:00000000000001b0 .L0 
     /tmp/ccuzJUyL.s:336    .text:00000000000001b0 .L0 
     /tmp/ccuzJUyL.s:337    .text:00000000000001b0 .L0 
     /tmp/ccuzJUyL.s:338    .text:00000000000001b0 .L0 
     /tmp/ccuzJUyL.s:340    .text:00000000000001b4 .L0 
     /tmp/ccuzJUyL.s:342    .text:00000000000001b4 .L0 
     /tmp/ccuzJUyL.s:343    .text:00000000000001b4 .L0 
     /tmp/ccuzJUyL.s:347    .text:00000000000001c4 .L0 
     /tmp/ccuzJUyL.s:348    .text:00000000000001c4 .L0 
     /tmp/ccuzJUyL.s:353    .text:00000000000001cc .L0 
     /tmp/ccuzJUyL.s:354    .text:00000000000001cc .L0 
     /tmp/ccuzJUyL.s:355    .text:00000000000001cc .L0 
     /tmp/ccuzJUyL.s:360    .text:00000000000001d0 .L0 
     /tmp/ccuzJUyL.s:364    .text:00000000000001d8 .L0 
     /tmp/ccuzJUyL.s:365    .text:00000000000001d8 .L0 
     /tmp/ccuzJUyL.s:368    .text:00000000000001e0 .L0 
     /tmp/ccuzJUyL.s:374    .text:00000000000001ec .L0 
     /tmp/ccuzJUyL.s:375    .text:00000000000001ec .L0 
     /tmp/ccuzJUyL.s:376    .text:00000000000001ec .L0 
     /tmp/ccuzJUyL.s:382    .text:00000000000001f4 .L0 
     /tmp/ccuzJUyL.s:383    .text:00000000000001f4 .L0 
     /tmp/ccuzJUyL.s:387    .text:0000000000000204 .L0 
     /tmp/ccuzJUyL.s:388    .text:0000000000000204 .L0 
     /tmp/ccuzJUyL.s:390    .text:0000000000000208 .L0 
     /tmp/ccuzJUyL.s:392    .text:000000000000020c .L0 
     /tmp/ccuzJUyL.s:393    .text:000000000000020c .L0 
     /tmp/ccuzJUyL.s:400    .text:0000000000000224 .L0 
     /tmp/ccuzJUyL.s:401    .text:0000000000000224 .L0 
     /tmp/ccuzJUyL.s:404    .text:0000000000000230 .L0 
     /tmp/ccuzJUyL.s:405    .text:0000000000000230 .L0 
     /tmp/ccuzJUyL.s:407    .text:0000000000000234 .L0 
     /tmp/ccuzJUyL.s:412    .text:0000000000000240 .L0 
     /tmp/ccuzJUyL.s:413    .text:0000000000000244 .L0 
     /tmp/ccuzJUyL.s:414    .text:0000000000000244 .L0 
     /tmp/ccuzJUyL.s:416    .text:0000000000000248 .L0 
     /tmp/ccuzJUyL.s:417    .text:0000000000000248 .L0 
     /tmp/ccuzJUyL.s:419    .text:000000000000024c .L0 
     /tmp/ccuzJUyL.s:421    .text:0000000000000250 .L0 
     /tmp/ccuzJUyL.s:424    .text:0000000000000254 .L0 
GAS LISTING /tmp/ccuzJUyL.s 			page 22


     /tmp/ccuzJUyL.s:428    .text:0000000000000258 .L0 
     /tmp/ccuzJUyL.s:430    .text:0000000000000258 .L0 
     /tmp/ccuzJUyL.s:431    .text:0000000000000258 .L0 
     /tmp/ccuzJUyL.s:437    .text:0000000000000268 .L0 
     /tmp/ccuzJUyL.s:438    .text:0000000000000268 .L0 
     /tmp/ccuzJUyL.s:444    .text:0000000000000284 .L0 
     /tmp/ccuzJUyL.s:455    .text:0000000000000284 _ZN3PCB17insertSleepingPCBEv
     /tmp/ccuzJUyL.s:458    .text:0000000000000284 .L0 
     /tmp/ccuzJUyL.s:459    .text:0000000000000284 .L0 
     /tmp/ccuzJUyL.s:460    .text:0000000000000288 .L0 
     /tmp/ccuzJUyL.s:463    .text:0000000000000290 .L0 
     /tmp/ccuzJUyL.s:464    .text:0000000000000290 .L0 
     /tmp/ccuzJUyL.s:466    .text:0000000000000294 .L0 
     /tmp/ccuzJUyL.s:468    .text:0000000000000294 .L0 
     /tmp/ccuzJUyL.s:469    .text:0000000000000294 .L0 
     /tmp/ccuzJUyL.s:473    .text:00000000000002a4 .L0 
     /tmp/ccuzJUyL.s:474    .text:00000000000002a4 .L0 
     /tmp/ccuzJUyL.s:475    .text:00000000000002a4 .L0 
     /tmp/ccuzJUyL.s:478    .text:00000000000002ac .L0 
     /tmp/ccuzJUyL.s:482    .text:00000000000002b0 .L0 
     /tmp/ccuzJUyL.s:483    .text:00000000000002b0 .L0 
     /tmp/ccuzJUyL.s:485    .text:00000000000002b4 .L0 
     /tmp/ccuzJUyL.s:486    .text:00000000000002b4 .L0 
     /tmp/ccuzJUyL.s:491    .text:00000000000002bc .L0 
     /tmp/ccuzJUyL.s:492    .text:00000000000002bc .L0 
     /tmp/ccuzJUyL.s:499    .text:00000000000002c0 .L0 
     /tmp/ccuzJUyL.s:500    .text:00000000000002c0 .L0 
     /tmp/ccuzJUyL.s:505    .text:00000000000002c4 .L0 
     /tmp/ccuzJUyL.s:508    .text:00000000000002c8 .L0 
     /tmp/ccuzJUyL.s:509    .text:00000000000002c8 .L0 
     /tmp/ccuzJUyL.s:510    .text:00000000000002c8 .L0 
     /tmp/ccuzJUyL.s:512    .text:00000000000002cc .L0 
     /tmp/ccuzJUyL.s:515    .text:00000000000002d0 .L0 
     /tmp/ccuzJUyL.s:518    .text:00000000000002d4 .L0 
     /tmp/ccuzJUyL.s:519    .text:00000000000002d4 .L0 
     /tmp/ccuzJUyL.s:522    .text:00000000000002d8 .L0 
     /tmp/ccuzJUyL.s:523    .text:00000000000002d8 .L0 
     /tmp/ccuzJUyL.s:525    .text:00000000000002dc .L0 
     /tmp/ccuzJUyL.s:526    .text:00000000000002dc .L0 
     /tmp/ccuzJUyL.s:531    .text:00000000000002e8 .L0 
     /tmp/ccuzJUyL.s:532    .text:00000000000002ec .L0 
     /tmp/ccuzJUyL.s:533    .text:00000000000002ec .L0 
     /tmp/ccuzJUyL.s:535    .text:00000000000002f0 .L0 
     /tmp/ccuzJUyL.s:536    .text:00000000000002f0 .L0 
     /tmp/ccuzJUyL.s:538    .text:00000000000002f4 .L0 
     /tmp/ccuzJUyL.s:542    .text:00000000000002f8 .L0 
     /tmp/ccuzJUyL.s:544    .text:00000000000002f8 .L0 
     /tmp/ccuzJUyL.s:545    .text:00000000000002f8 .L0 
     /tmp/ccuzJUyL.s:550    .text:000000000000030c .L0 
     /tmp/ccuzJUyL.s:564    .text:000000000000030c _ZN3PCB13tryToWakePCBsEv
     /tmp/ccuzJUyL.s:567    .text:000000000000030c .L0 
     /tmp/ccuzJUyL.s:568    .text:000000000000030c .L0 
     /tmp/ccuzJUyL.s:569    .text:0000000000000310 .L0 
     /tmp/ccuzJUyL.s:574    .text:0000000000000320 .L0 
     /tmp/ccuzJUyL.s:575    .text:0000000000000320 .L0 
     /tmp/ccuzJUyL.s:576    .text:0000000000000320 .L0 
     /tmp/ccuzJUyL.s:577    .text:0000000000000320 .L0 
GAS LISTING /tmp/ccuzJUyL.s 			page 23


     /tmp/ccuzJUyL.s:579    .text:0000000000000324 .L0 
     /tmp/ccuzJUyL.s:581    .text:0000000000000324 .L0 
     /tmp/ccuzJUyL.s:582    .text:0000000000000324 .L0 
     /tmp/ccuzJUyL.s:586    .text:0000000000000334 .L0 
     /tmp/ccuzJUyL.s:587    .text:0000000000000334 .L0 
     /tmp/ccuzJUyL.s:594    .text:0000000000000340 .L0 
     /tmp/ccuzJUyL.s:595    .text:0000000000000340 .L0 
     /tmp/ccuzJUyL.s:599    .text:0000000000000350 .L0 
     /tmp/ccuzJUyL.s:600    .text:0000000000000350 .L0 
     /tmp/ccuzJUyL.s:601    .text:0000000000000350 .L0 
     /tmp/ccuzJUyL.s:606    .text:0000000000000354 .L0 
     /tmp/ccuzJUyL.s:607    .text:0000000000000354 .L0 
     /tmp/ccuzJUyL.s:608    .text:0000000000000354 .L0 
     /tmp/ccuzJUyL.s:613    .text:0000000000000358 .L0 
     /tmp/ccuzJUyL.s:614    .text:0000000000000358 .L0 
     /tmp/ccuzJUyL.s:616    .text:000000000000035c .L0 
     /tmp/ccuzJUyL.s:617    .text:000000000000035c .L0 
     /tmp/ccuzJUyL.s:621    .text:0000000000000368 .L0 
     /tmp/ccuzJUyL.s:622    .text:0000000000000368 .L0 
     /tmp/ccuzJUyL.s:624    .text:0000000000000370 .L0 
     /tmp/ccuzJUyL.s:630    .text:0000000000000374 .L0 
     /tmp/ccuzJUyL.s:631    .text:0000000000000374 .L0 
     /tmp/ccuzJUyL.s:637    .text:0000000000000378 .L0 
     /tmp/ccuzJUyL.s:638    .text:0000000000000378 .L0 
     /tmp/ccuzJUyL.s:639    .text:0000000000000378 .L0 
     /tmp/ccuzJUyL.s:644    .text:000000000000037c .L0 
     /tmp/ccuzJUyL.s:649    .text:0000000000000384 .L0 
     /tmp/ccuzJUyL.s:651    .text:0000000000000384 .L0 
     /tmp/ccuzJUyL.s:652    .text:0000000000000384 .L0 
     /tmp/ccuzJUyL.s:657    .text:0000000000000388 .L0 
     /tmp/ccuzJUyL.s:658    .text:0000000000000388 .L0 
     /tmp/ccuzJUyL.s:663    .text:000000000000038c .L0 
     /tmp/ccuzJUyL.s:664    .text:000000000000038c .L0 
     /tmp/ccuzJUyL.s:670    .text:0000000000000394 .L0 
     /tmp/ccuzJUyL.s:671    .text:0000000000000398 .L0 
     /tmp/ccuzJUyL.s:673    .text:000000000000039c .L0 
     /tmp/ccuzJUyL.s:674    .text:000000000000039c .L0 
     /tmp/ccuzJUyL.s:676    .text:00000000000003a0 .L0 
     /tmp/ccuzJUyL.s:679    .text:00000000000003a4 .L0 
     /tmp/ccuzJUyL.s:681    .text:00000000000003a8 .L0 
     /tmp/ccuzJUyL.s:683    .text:00000000000003ac .L0 
     /tmp/ccuzJUyL.s:703    .bss:0000000000000010 _ZN3PCB15sleepingPCBHeadE
     /tmp/ccuzJUyL.s:707    .bss:0000000000000018 _ZN3PCB16timeSliceCounterE
     /tmp/ccuzJUyL.s:699    .bss:0000000000000008 _ZN3PCB10exitingPCBE
     /tmp/ccuzJUyL.s:695    .bss:0000000000000000 _ZN3PCB7runningE
     /tmp/ccuzJUyL.s:692    .bss:0000000000000000 .LANCHOR0
     /tmp/ccuzJUyL.s:717    .text:00000000000003ac .L0 
     /tmp/ccuzJUyL.s:8      .rodata.str1.8:0000000000000000 .LC0
     /tmp/ccuzJUyL.s:34     .text:0000000000000014 .L0 
     /tmp/ccuzJUyL.s:43     .text:000000000000002c .L0 
     /tmp/ccuzJUyL.s:11     .rodata.str1.8:0000000000000018 .LC1
     /tmp/ccuzJUyL.s:66     .text:0000000000000050 .L0 
     /tmp/ccuzJUyL.s:119    .text:00000000000000b4 .L0 
     /tmp/ccuzJUyL.s:316    .rodata.str1.8:0000000000000028 .LC2
     /tmp/ccuzJUyL.s:343    .text:00000000000001b4 .L0 
     /tmp/ccuzJUyL.s:348    .text:00000000000001c4 .L0 
     /tmp/ccuzJUyL.s:368    .text:00000000000001e0 .L0 
GAS LISTING /tmp/ccuzJUyL.s 			page 24


     /tmp/ccuzJUyL.s:319    .rodata.str1.8:0000000000000040 .LC3
     /tmp/ccuzJUyL.s:383    .text:00000000000001f4 .L0 
     /tmp/ccuzJUyL.s:401    .text:0000000000000224 .L0 
     /tmp/ccuzJUyL.s:438    .text:0000000000000268 .L0 
     /tmp/ccuzJUyL.s:449    .rodata.str1.8:0000000000000058 .LC4
     /tmp/ccuzJUyL.s:469    .text:0000000000000294 .L0 
     /tmp/ccuzJUyL.s:475    .text:00000000000002a4 .L0 
     /tmp/ccuzJUyL.s:486    .text:00000000000002b4 .L0 
     /tmp/ccuzJUyL.s:526    .text:00000000000002dc .L0 
     /tmp/ccuzJUyL.s:545    .text:00000000000002f8 .L0 
     /tmp/ccuzJUyL.s:555    .rodata.str1.8:0000000000000078 .LC5
     /tmp/ccuzJUyL.s:582    .text:0000000000000324 .L0 
     /tmp/ccuzJUyL.s:587    .text:0000000000000334 .L0 
     /tmp/ccuzJUyL.s:558    .rodata.str1.8:0000000000000088 .LC6
     /tmp/ccuzJUyL.s:595    .text:0000000000000340 .L0 
     /tmp/ccuzJUyL.s:622    .text:0000000000000368 .L0 
     /tmp/ccuzJUyL.s:427    .text:0000000000000258 .L20
     /tmp/ccuzJUyL.s:435    .text:0000000000000268 .L21
     /tmp/ccuzJUyL.s:362    .text:00000000000001d8 .L16
     /tmp/ccuzJUyL.s:410    .text:0000000000000240 .L15
     /tmp/ccuzJUyL.s:521    .text:00000000000002d8 .L23
     /tmp/ccuzJUyL.s:516    .text:00000000000002d4 .L29
     /tmp/ccuzJUyL.s:480    .text:00000000000002b0 .L25
     /tmp/ccuzJUyL.s:541    .text:00000000000002f8 .L30
     /tmp/ccuzJUyL.s:529    .text:00000000000002e8 .L22
     /tmp/ccuzJUyL.s:626    .text:0000000000000374 .L32
     /tmp/ccuzJUyL.s:667    .text:0000000000000394 .L31
     /tmp/ccuzJUyL.s:590    .text:0000000000000340 .L37
     /tmp/ccuzJUyL.s:2485   .debug_abbrev:0000000000000000 .Ldebug_abbrev0
     /tmp/ccuzJUyL.s:4068   .debug_str:000000000000056d .LASF185
     /tmp/ccuzJUyL.s:4214   .debug_str:0000000000000a16 .LASF186
     /tmp/ccuzJUyL.s:4200   .debug_str:0000000000000999 .LASF187
     /tmp/ccuzJUyL.s:5      .text:0000000000000000 .Ltext0
     /tmp/ccuzJUyL.s:710    .text:00000000000003ac .Letext0
     /tmp/ccuzJUyL.s:3884   .debug_line:0000000000000000 .Ldebug_line0
     /tmp/ccuzJUyL.s:4014   .debug_str:00000000000003cd .LASF0
     /tmp/ccuzJUyL.s:4042   .debug_str:0000000000000496 .LASF1
     /tmp/ccuzJUyL.s:4136   .debug_str:00000000000007fb .LASF2
     /tmp/ccuzJUyL.s:4146   .debug_str:000000000000083b .LASF4
     /tmp/ccuzJUyL.s:4028   .debug_str:000000000000042d .LASF3
     /tmp/ccuzJUyL.s:3900   .debug_str:0000000000000061 .LASF5
     /tmp/ccuzJUyL.s:4116   .debug_str:0000000000000771 .LASF6
     /tmp/ccuzJUyL.s:4102   .debug_str:0000000000000706 .LASF7
     /tmp/ccuzJUyL.s:4034   .debug_str:0000000000000466 .LASF8
     /tmp/ccuzJUyL.s:3998   .debug_str:0000000000000345 .LASF9
     /tmp/ccuzJUyL.s:4002   .debug_str:0000000000000371 .LASF10
     /tmp/ccuzJUyL.s:3940   .debug_str:00000000000001c3 .LASF11
     /tmp/ccuzJUyL.s:3986   .debug_str:00000000000002f8 .LASF12
     /tmp/ccuzJUyL.s:3948   .debug_str:00000000000001ea .LASF13
     /tmp/ccuzJUyL.s:3938   .debug_str:00000000000001b3 .LASF14
     /tmp/ccuzJUyL.s:4176   .debug_str:000000000000091c .LASF15
     /tmp/ccuzJUyL.s:3980   .debug_str:00000000000002d1 .LASF16
     /tmp/ccuzJUyL.s:4170   .debug_str:00000000000008e3 .LASF17
     /tmp/ccuzJUyL.s:4202   .debug_str:00000000000009bc .LASF28
     /tmp/ccuzJUyL.s:4218   .debug_str:0000000000000a28 .LASF20
     /tmp/ccuzJUyL.s:4038   .debug_str:000000000000048c .LASF18
     /tmp/ccuzJUyL.s:3942   .debug_str:00000000000001d2 .LASF19
GAS LISTING /tmp/ccuzJUyL.s 			page 25


     /tmp/ccuzJUyL.s:4182   .debug_str:0000000000000935 .LASF21
     /tmp/ccuzJUyL.s:4050   .debug_str:00000000000004c5 .LASF22
     /tmp/ccuzJUyL.s:4252   .debug_str:0000000000000b05 .LASF39
     /tmp/ccuzJUyL.s:4216   .debug_str:0000000000000a22 .LASF24
     /tmp/ccuzJUyL.s:3952   .debug_str:000000000000020b .LASF26
     /tmp/ccuzJUyL.s:4016   .debug_str:00000000000003da .LASF23
     /tmp/ccuzJUyL.s:4164   .debug_str:00000000000008b8 .LASF29
     /tmp/ccuzJUyL.s:4040   .debug_str:0000000000000491 .LASF25
     /tmp/ccuzJUyL.s:4126   .debug_str:00000000000007a6 .LASF27
     /tmp/ccuzJUyL.s:3970   .debug_str:000000000000028e .LASF30
     /tmp/ccuzJUyL.s:4122   .debug_str:000000000000078b .LASF45
     /tmp/ccuzJUyL.s:3918   .debug_str:0000000000000108 .LASF47
     /tmp/ccuzJUyL.s:4186   .debug_str:0000000000000940 .LASF188
     /tmp/ccuzJUyL.s:3934   .debug_str:0000000000000199 .LASF31
     /tmp/ccuzJUyL.s:4166   .debug_str:00000000000008cd .LASF32
     /tmp/ccuzJUyL.s:3946   .debug_str:00000000000001e0 .LASF33
     /tmp/ccuzJUyL.s:3926   .debug_str:0000000000000145 .LASF34
     /tmp/ccuzJUyL.s:4106   .debug_str:000000000000072f .LASF35
     /tmp/ccuzJUyL.s:3944   .debug_str:00000000000001d7 .LASF36
     /tmp/ccuzJUyL.s:4180   .debug_str:000000000000092d .LASF37
     /tmp/ccuzJUyL.s:4008   .debug_str:000000000000039d .LASF38
     /tmp/ccuzJUyL.s:4208   .debug_str:00000000000009e3 .LASF40
     /tmp/ccuzJUyL.s:4090   .debug_str:00000000000006ad .LASF189
     /tmp/ccuzJUyL.s:4234   .debug_str:0000000000000a90 .LASF41
     /tmp/ccuzJUyL.s:4260   .debug_str:0000000000000b49 .LASF42
     /tmp/ccuzJUyL.s:4256   .debug_str:0000000000000b2f .LASF43
     /tmp/ccuzJUyL.s:4194   .debug_str:000000000000096b .LASF44
     /tmp/ccuzJUyL.s:3968   .debug_str:0000000000000285 .LASF71
     /tmp/ccuzJUyL.s:3910   .debug_str:00000000000000ad .LASF73
     /tmp/ccuzJUyL.s:4046   .debug_str:00000000000004b2 .LASF46
     /tmp/ccuzJUyL.s:4094   .debug_str:00000000000006c5 .LASF48
     /tmp/ccuzJUyL.s:4190   .debug_str:000000000000095b .LASF49
     /tmp/ccuzJUyL.s:4236   .debug_str:0000000000000a95 .LASF50
     /tmp/ccuzJUyL.s:4156   .debug_str:0000000000000872 .LASF51
     /tmp/ccuzJUyL.s:4048   .debug_str:00000000000004b8 .LASF52
     /tmp/ccuzJUyL.s:4054   .debug_str:00000000000004e8 .LASF53
     /tmp/ccuzJUyL.s:4264   .debug_str:0000000000000b6d .LASF54
     /tmp/ccuzJUyL.s:3982   .debug_str:00000000000002e7 .LASF55
     /tmp/ccuzJUyL.s:3892   .debug_str:000000000000002a .LASF56
     /tmp/ccuzJUyL.s:4026   .debug_str:0000000000000420 .LASF57
     /tmp/ccuzJUyL.s:4160   .debug_str:0000000000000894 .LASF58
     /tmp/ccuzJUyL.s:4074   .debug_str:0000000000000629 .LASF59
     /tmp/ccuzJUyL.s:4144   .debug_str:0000000000000832 .LASF60
     /tmp/ccuzJUyL.s:4172   .debug_str:00000000000008f9 .LASF61
     /tmp/ccuzJUyL.s:4076   .debug_str:000000000000063c .LASF62
     /tmp/ccuzJUyL.s:3888   .debug_str:000000000000000b .LASF63
     /tmp/ccuzJUyL.s:4244   .debug_str:0000000000000ac9 .LASF64
     /tmp/ccuzJUyL.s:4100   .debug_str:00000000000006ec .LASF65
     /tmp/ccuzJUyL.s:4168   .debug_str:00000000000008d5 .LASF66
     /tmp/ccuzJUyL.s:4118   .debug_str:0000000000000778 .LASF67
     /tmp/ccuzJUyL.s:3964   .debug_str:0000000000000263 .LASF68
     /tmp/ccuzJUyL.s:4250   .debug_str:0000000000000afa .LASF69
     /tmp/ccuzJUyL.s:4066   .debug_str:000000000000055d .LASF70
     /tmp/ccuzJUyL.s:3974   .debug_str:00000000000002a2 .LASF72
     /tmp/ccuzJUyL.s:4220   .debug_str:0000000000000a2d .LASF74
     /tmp/ccuzJUyL.s:3928   .debug_str:000000000000014e .LASF75
     /tmp/ccuzJUyL.s:4204   .debug_str:00000000000009c2 .LASF76
GAS LISTING /tmp/ccuzJUyL.s 			page 26


     /tmp/ccuzJUyL.s:4152   .debug_str:000000000000085c .LASF101
     /tmp/ccuzJUyL.s:4198   .debug_str:000000000000098f .LASF77
     /tmp/ccuzJUyL.s:4096   .debug_str:00000000000006d5 .LASF78
     /tmp/ccuzJUyL.s:3958   .debug_str:0000000000000242 .LASF79
     /tmp/ccuzJUyL.s:3916   .debug_str:00000000000000e0 .LASF81
     /tmp/ccuzJUyL.s:4018   .debug_str:00000000000003df .LASF80
     /tmp/ccuzJUyL.s:3932   .debug_str:000000000000016d .LASF82
     /tmp/ccuzJUyL.s:4242   .debug_str:0000000000000ac2 .LASF190
     /tmp/ccuzJUyL.s:3930   .debug_str:000000000000015c .LASF191
     /tmp/ccuzJUyL.s:3890   .debug_str:0000000000000025 .LASF83
     /tmp/ccuzJUyL.s:4178   .debug_str:0000000000000928 .LASF84
     /tmp/ccuzJUyL.s:4058   .debug_str:000000000000051b .LASF85
     /tmp/ccuzJUyL.s:3956   .debug_str:000000000000023c .LASF86
     /tmp/ccuzJUyL.s:4206   .debug_str:00000000000009db .LASF87
     /tmp/ccuzJUyL.s:3920   .debug_str:0000000000000116 .LASF88
     /tmp/ccuzJUyL.s:3996   .debug_str:000000000000033b .LASF89
     /tmp/ccuzJUyL.s:3906   .debug_str:000000000000008c .LASF192
     /tmp/ccuzJUyL.s:4258   .debug_str:0000000000000b35 .LASF193
     /tmp/ccuzJUyL.s:4030   .debug_str:000000000000043f .LASF90
     /tmp/ccuzJUyL.s:4084   .debug_str:0000000000000667 .LASF91
     /tmp/ccuzJUyL.s:3984   .debug_str:00000000000002f3 .LASF92
     /tmp/ccuzJUyL.s:3988   .debug_str:0000000000000307 .LASF96
     /tmp/ccuzJUyL.s:3922   .debug_str:0000000000000120 .LASF93
     /tmp/ccuzJUyL.s:4092   .debug_str:00000000000006b2 .LASF94
     /tmp/ccuzJUyL.s:4192   .debug_str:0000000000000963 .LASF95
     /tmp/ccuzJUyL.s:4130   .debug_str:00000000000007c7 .LASF97
     /tmp/ccuzJUyL.s:4158   .debug_str:0000000000000883 .LASF98
     /tmp/ccuzJUyL.s:3950   .debug_str:00000000000001fa .LASF99
     /tmp/ccuzJUyL.s:3908   .debug_str:00000000000000a4 .LASF100
     /tmp/ccuzJUyL.s:3904   .debug_str:0000000000000082 .LASF102
     /tmp/ccuzJUyL.s:4230   .debug_str:0000000000000a80 .LASF103
     /tmp/ccuzJUyL.s:4098   .debug_str:00000000000006e1 .LASF104
     /tmp/ccuzJUyL.s:4062   .debug_str:000000000000052f .LASF105
     /tmp/ccuzJUyL.s:3978   .debug_str:00000000000002c7 .LASF106
     /tmp/ccuzJUyL.s:4104   .debug_str:0000000000000719 .LASF107
     /tmp/ccuzJUyL.s:4222   .debug_str:0000000000000a4a .LASF108
     /tmp/ccuzJUyL.s:4052   .debug_str:00000000000004ca .LASF109
     /tmp/ccuzJUyL.s:4024   .debug_str:000000000000040e .LASF110
     /tmp/ccuzJUyL.s:3954   .debug_str:000000000000021d .LASF111
     /tmp/ccuzJUyL.s:4248   .debug_str:0000000000000aee .LASF112
     /tmp/ccuzJUyL.s:3912   .debug_str:00000000000000c0 .LASF113
     /tmp/ccuzJUyL.s:4112   .debug_str:0000000000000751 .LASF114
     /tmp/ccuzJUyL.s:3902   .debug_str:0000000000000068 .LASF115
     /tmp/ccuzJUyL.s:4154   .debug_str:0000000000000864 .LASF116
     /tmp/ccuzJUyL.s:4162   .debug_str:000000000000089d .LASF117
     /tmp/ccuzJUyL.s:4078   .debug_str:000000000000064b .LASF118
     /tmp/ccuzJUyL.s:4238   .debug_str:0000000000000aa0 .LASF119
     /tmp/ccuzJUyL.s:4044   .debug_str:00000000000004a9 .LASF120
     /tmp/ccuzJUyL.s:3896   .debug_str:0000000000000042 .LASF121
     /tmp/ccuzJUyL.s:4270   .debug_str:0000000000000b94 .LASF122
     /tmp/ccuzJUyL.s:4086   .debug_str:0000000000000680 .LASF123
     /tmp/ccuzJUyL.s:4120   .debug_str:0000000000000784 .LASF124
     /tmp/ccuzJUyL.s:4114   .debug_str:000000000000075e .LASF125
     /tmp/ccuzJUyL.s:4082   .debug_str:0000000000000660 .LASF126
     /tmp/ccuzJUyL.s:4036   .debug_str:0000000000000479 .LASF127
     /tmp/ccuzJUyL.s:4240   .debug_str:0000000000000aba .LASF128
     /tmp/ccuzJUyL.s:4196   .debug_str:000000000000097b .LASF129
GAS LISTING /tmp/ccuzJUyL.s 			page 27


     /tmp/ccuzJUyL.s:4080   .debug_str:0000000000000658 .LASF130
     /tmp/ccuzJUyL.s:3990   .debug_str:000000000000031c .LASF131
     /tmp/ccuzJUyL.s:4070   .debug_str:000000000000060f .LASF132
     /tmp/ccuzJUyL.s:4124   .debug_str:0000000000000792 .LASF133
     /tmp/ccuzJUyL.s:4272   .debug_str:0000000000000b9d .LASF134
     /tmp/ccuzJUyL.s:4022   .debug_str:00000000000003fa .LASF135
     /tmp/ccuzJUyL.s:4174   .debug_str:0000000000000915 .LASF136
     /tmp/ccuzJUyL.s:4148   .debug_str:0000000000000842 .LASF137
     /tmp/ccuzJUyL.s:4150   .debug_str:0000000000000855 .LASF138
     /tmp/ccuzJUyL.s:3976   .debug_str:00000000000002b4 .LASF139
     /tmp/ccuzJUyL.s:3972   .debug_str:000000000000029c .LASF140
     /tmp/ccuzJUyL.s:4010   .debug_str:00000000000003a3 .LASF141
     /tmp/ccuzJUyL.s:4020   .debug_str:00000000000003f4 .LASF142
     /tmp/ccuzJUyL.s:3966   .debug_str:0000000000000273 .LASF143
     /tmp/ccuzJUyL.s:3886   .debug_str:0000000000000000 .LASF144
     /tmp/ccuzJUyL.s:4142   .debug_str:000000000000081a .LASF145
     /tmp/ccuzJUyL.s:4134   .debug_str:00000000000007f0 .LASF146
     /tmp/ccuzJUyL.s:4262   .debug_str:0000000000000b55 .LASF147
     /tmp/ccuzJUyL.s:4232   .debug_str:0000000000000a86 .LASF148
     /tmp/ccuzJUyL.s:4246   .debug_str:0000000000000ad8 .LASF149
     /tmp/ccuzJUyL.s:4226   .debug_str:0000000000000a6e .LASF150
     /tmp/ccuzJUyL.s:4064   .debug_str:0000000000000547 .LASF151
     /tmp/ccuzJUyL.s:4006   .debug_str:0000000000000392 .LASF152
     /tmp/ccuzJUyL.s:4012   .debug_str:00000000000003b5 .LASF153
     /tmp/ccuzJUyL.s:4212   .debug_str:0000000000000a07 .LASF154
     /tmp/ccuzJUyL.s:4000   .debug_str:0000000000000355 .LASF155
     /tmp/ccuzJUyL.s:4110   .debug_str:000000000000073c .LASF156
     /tmp/ccuzJUyL.s:4032   .debug_str:0000000000000444 .LASF157
     /tmp/ccuzJUyL.s:3962   .debug_str:000000000000025c .LASF158
     /tmp/ccuzJUyL.s:3894   .debug_str:000000000000003a .LASF159
     /tmp/ccuzJUyL.s:4266   .debug_str:0000000000000b7a .LASF160
     /tmp/ccuzJUyL.s:4210   .debug_str:00000000000009fb .LASF161
     /tmp/ccuzJUyL.s:3924   .debug_str:0000000000000132 .LASF162
     /tmp/ccuzJUyL.s:4072   .debug_str:0000000000000617 .LASF163
     /tmp/ccuzJUyL.s:4004   .debug_str:000000000000037f .LASF164
     /tmp/ccuzJUyL.s:4224   .debug_str:0000000000000a5b .LASF165
     /tmp/ccuzJUyL.s:3936   .debug_str:000000000000019f .LASF166
     /tmp/ccuzJUyL.s:4184   .debug_str:000000000000093b .LASF167
     /tmp/ccuzJUyL.s:4132   .debug_str:00000000000007df .LASF168
     /tmp/ccuzJUyL.s:4188   .debug_str:0000000000000946 .LASF169
     /tmp/ccuzJUyL.s:4056   .debug_str:0000000000000500 .LASF170
     /tmp/ccuzJUyL.s:4254   .debug_str:0000000000000b15 .LASF171
     /tmp/ccuzJUyL.s:565    .text:000000000000030c .LFB34
     /tmp/ccuzJUyL.s:684    .text:00000000000003ac .LFE34
     /tmp/ccuzJUyL.s:4140   .debug_str:0000000000000815 .LASF172
     /tmp/ccuzJUyL.s:3576   .debug_loc:0000000000000000 .LLST19
     /tmp/ccuzJUyL.s:592    .text:0000000000000340 .LBB35
     /tmp/ccuzJUyL.s:627    .text:0000000000000374 .LBE35
     /tmp/ccuzJUyL.s:3591   .debug_loc:0000000000000049 .LLST20
     /tmp/ccuzJUyL.s:604    .text:0000000000000354 .LBB36
     /tmp/ccuzJUyL.s:611    .text:0000000000000358 .LBE36
     /tmp/ccuzJUyL.s:3598   .debug_loc:000000000000006c .LLST21
     /tmp/ccuzJUyL.s:3606   .debug_loc:0000000000000090 .LLST22
     /tmp/ccuzJUyL.s:597    .text:0000000000000350 .LVL48
     /tmp/ccuzJUyL.s:619    .text:0000000000000368 .LVL51
     /tmp/ccuzJUyL.s:635    .text:0000000000000378 .LBB38
     /tmp/ccuzJUyL.s:642    .text:000000000000037c .LBE38
GAS LISTING /tmp/ccuzJUyL.s 			page 28


     /tmp/ccuzJUyL.s:3613   .debug_loc:00000000000000b3 .LLST23
     /tmp/ccuzJUyL.s:654    .text:0000000000000388 .LBB40
     /tmp/ccuzJUyL.s:661    .text:000000000000038c .LBE40
     /tmp/ccuzJUyL.s:3620   .debug_loc:00000000000000d6 .LLST24
     /tmp/ccuzJUyL.s:3627   .debug_loc:00000000000000f9 .LLST25
     /tmp/ccuzJUyL.s:584    .text:0000000000000334 .LVL46
     /tmp/ccuzJUyL.s:456    .text:0000000000000284 .LFB33
     /tmp/ccuzJUyL.s:551    .text:000000000000030c .LFE33
     /tmp/ccuzJUyL.s:3914   .debug_str:00000000000000db .LASF173
     /tmp/ccuzJUyL.s:3634   .debug_loc:000000000000011c .LLST15
     /tmp/ccuzJUyL.s:3654   .debug_loc:0000000000000179 .LLST16
     /tmp/ccuzJUyL.s:488    .text:00000000000002bc .LBB30
     /tmp/ccuzJUyL.s:495    .text:00000000000002c0 .LBE30
     /tmp/ccuzJUyL.s:3674   .debug_loc:00000000000001d6 .LLST17
     /tmp/ccuzJUyL.s:496    .text:00000000000002c0 .LBB32
     /tmp/ccuzJUyL.s:503    .text:00000000000002c4 .LBE32
     /tmp/ccuzJUyL.s:3681   .debug_loc:00000000000001f9 .LLST18
     /tmp/ccuzJUyL.s:471    .text:00000000000002a4 .LVL35
     /tmp/ccuzJUyL.s:3992   .debug_str:0000000000000330 .LASF174
     /tmp/ccuzJUyL.s:3898   .debug_str:0000000000000057 .LASF175
     /tmp/ccuzJUyL.s:3960   .debug_str:0000000000000250 .LASF178
     /tmp/ccuzJUyL.s:270    .text:0000000000000170 .LFB31
     /tmp/ccuzJUyL.s:302    .text:000000000000019c .LFE31
     /tmp/ccuzJUyL.s:3688   .debug_loc:000000000000021c .LLST10
     /tmp/ccuzJUyL.s:290    .text:000000000000018c .LVL20
     /tmp/ccuzJUyL.s:238    .text:0000000000000148 .LFB29
     /tmp/ccuzJUyL.s:264    .text:0000000000000170 .LFE29
     /tmp/ccuzJUyL.s:3702   .debug_loc:0000000000000255 .LLST9
     /tmp/ccuzJUyL.s:253    .text:0000000000000160 .LVL17
     /tmp/ccuzJUyL.s:206    .text:0000000000000120 .LFB28
     /tmp/ccuzJUyL.s:232    .text:0000000000000148 .LFE28
     /tmp/ccuzJUyL.s:3716   .debug_loc:000000000000028e .LLST8
     /tmp/ccuzJUyL.s:221    .text:0000000000000138 .LVL15
     /tmp/ccuzJUyL.s:326    .text:000000000000019c .LFB27
     /tmp/ccuzJUyL.s:445    .text:0000000000000284 .LFE27
     /tmp/ccuzJUyL.s:3730   .debug_loc:00000000000002c7 .LLST11
     /tmp/ccuzJUyL.s:351    .text:00000000000001cc .LBB26
     /tmp/ccuzJUyL.s:358    .text:00000000000001d0 .LBE26
     /tmp/ccuzJUyL.s:3741   .debug_loc:00000000000002fd .LLST12
     /tmp/ccuzJUyL.s:372    .text:00000000000001ec .LBB28
     /tmp/ccuzJUyL.s:380    .text:00000000000001f4 .LBE28
     /tmp/ccuzJUyL.s:3748   .debug_loc:0000000000000320 .LLST13
     /tmp/ccuzJUyL.s:3756   .debug_loc:0000000000000344 .LLST14
     /tmp/ccuzJUyL.s:345    .text:00000000000001c4 .LVL21
     /tmp/ccuzJUyL.s:366    .text:00000000000001e0 .LVL24
     /tmp/ccuzJUyL.s:385    .text:0000000000000204 .LVL27
     /tmp/ccuzJUyL.s:395    .text:0000000000000218 .LVL28
     /tmp/ccuzJUyL.s:398    .text:0000000000000224 .LVL29
     /tmp/ccuzJUyL.s:409    .text:0000000000000240 .LVL30
     /tmp/ccuzJUyL.s:433    .text:0000000000000264 .LVL33
     /tmp/ccuzJUyL.s:442    .text:0000000000000280 .LVL34
     /tmp/ccuzJUyL.s:18     .text:0000000000000000 .LFB26
     /tmp/ccuzJUyL.s:85     .text:000000000000007c .LFE26
     /tmp/ccuzJUyL.s:54     .text:0000000000000048 .LBB22
     /tmp/ccuzJUyL.s:63     .text:0000000000000050 .LBE22
     /tmp/ccuzJUyL.s:3763   .debug_loc:0000000000000367 .LLST0
     /tmp/ccuzJUyL.s:3771   .debug_loc:000000000000038b .LLST1
GAS LISTING /tmp/ccuzJUyL.s 			page 29


     /tmp/ccuzJUyL.s:36     .text:0000000000000024 .LVL0
     /tmp/ccuzJUyL.s:40     .text:000000000000002c .LVL1
     /tmp/ccuzJUyL.s:68     .text:0000000000000060 .LVL5
     /tmp/ccuzJUyL.s:72     .text:0000000000000068 .LVL6
     /tmp/ccuzJUyL.s:174    .text:00000000000000f8 .LFB25
     /tmp/ccuzJUyL.s:200    .text:0000000000000120 .LFE25
     /tmp/ccuzJUyL.s:3778   .debug_loc:00000000000003ae .LLST7
     /tmp/ccuzJUyL.s:189    .text:0000000000000110 .LVL13
     /tmp/ccuzJUyL.s:150    .text:00000000000000e0 .LFB24
     /tmp/ccuzJUyL.s:168    .text:00000000000000f8 .LFE24
     /tmp/ccuzJUyL.s:4108   .debug_str:0000000000000737 .LASF176
     /tmp/ccuzJUyL.s:4060   .debug_str:0000000000000523 .LASF177
     /tmp/ccuzJUyL.s:4088   .debug_str:0000000000000695 .LASF179
     /tmp/ccuzJUyL.s:91     .text:000000000000007c .LFB22
     /tmp/ccuzJUyL.s:142    .text:00000000000000e0 .LFE22
     /tmp/ccuzJUyL.s:3792   .debug_loc:00000000000003e7 .LLST2
     /tmp/ccuzJUyL.s:3810   .debug_loc:0000000000000433 .LLST3
     /tmp/ccuzJUyL.s:3824   .debug_loc:000000000000046c .LLST4
     /tmp/ccuzJUyL.s:3838   .debug_loc:00000000000004a5 .LLST5
     /tmp/ccuzJUyL.s:3857   .debug_loc:00000000000004f2 .LLST6
     /tmp/ccuzJUyL.s:124    .text:00000000000000c8 .LVL9
     /tmp/ccuzJUyL.s:4268   .debug_str:0000000000000b89 .LASF180
     /tmp/ccuzJUyL.s:3994   .debug_str:0000000000000335 .LASF182
     /tmp/ccuzJUyL.s:4138   .debug_str:0000000000000809 .LASF181
     /tmp/ccuzJUyL.s:4228   .debug_str:0000000000000a78 .LASF183
     /tmp/ccuzJUyL.s:4128   .debug_str:00000000000007b7 .LASF184
     /tmp/ccuzJUyL.s:588    .text:000000000000033c .LVL47
     /tmp/ccuzJUyL.s:602    .text:0000000000000354 .LVL49
     /tmp/ccuzJUyL.s:625    .text:0000000000000374 .LVL52
     /tmp/ccuzJUyL.s:677    .text:00000000000003a0 .LVL59
     /tmp/ccuzJUyL.s:609    .text:0000000000000358 .LVL50
     /tmp/ccuzJUyL.s:633    .text:0000000000000378 .LVL53
     /tmp/ccuzJUyL.s:640    .text:000000000000037c .LVL54
     /tmp/ccuzJUyL.s:653    .text:0000000000000388 .LVL56
     /tmp/ccuzJUyL.s:659    .text:000000000000038c .LVL57
     /tmp/ccuzJUyL.s:479    .text:00000000000002b0 .LVL37
     /tmp/ccuzJUyL.s:507    .text:00000000000002c8 .LVL41
     /tmp/ccuzJUyL.s:513    .text:00000000000002d0 .LVL42
     /tmp/ccuzJUyL.s:476    .text:00000000000002ac .LVL36
     /tmp/ccuzJUyL.s:527    .text:00000000000002e4 .LVL43
     /tmp/ccuzJUyL.s:540    .text:00000000000002f8 .LVL44
     /tmp/ccuzJUyL.s:546    .text:0000000000000300 .LVL45
     /tmp/ccuzJUyL.s:487    .text:00000000000002bc .LVL38
     /tmp/ccuzJUyL.s:493    .text:00000000000002c0 .LVL39
     /tmp/ccuzJUyL.s:501    .text:00000000000002c4 .LVL40
     /tmp/ccuzJUyL.s:275    .text:0000000000000170 .LVL18
     /tmp/ccuzJUyL.s:288    .text:0000000000000184 .LVL19
     /tmp/ccuzJUyL.s:241    .text:0000000000000148 .LVL16
     /tmp/ccuzJUyL.s:209    .text:0000000000000120 .LVL14
     /tmp/ccuzJUyL.s:349    .text:00000000000001cc .LVL22
     /tmp/ccuzJUyL.s:422    .text:0000000000000250 .LVL31
     /tmp/ccuzJUyL.s:426    .text:0000000000000258 .LVL32
     /tmp/ccuzJUyL.s:356    .text:00000000000001d0 .LVL23
     /tmp/ccuzJUyL.s:371    .text:00000000000001ec .LVL25
     /tmp/ccuzJUyL.s:378    .text:00000000000001f4 .LVL26
     /tmp/ccuzJUyL.s:53     .text:0000000000000048 .LVL3
     /tmp/ccuzJUyL.s:61     .text:0000000000000050 .LVL4
GAS LISTING /tmp/ccuzJUyL.s 			page 30


     /tmp/ccuzJUyL.s:177    .text:00000000000000f8 .LVL12
     /tmp/ccuzJUyL.s:94     .text:000000000000007c .LVL7
     /tmp/ccuzJUyL.s:137    .text:00000000000000d8 .LVL10
     /tmp/ccuzJUyL.s:116    .text:00000000000000b0 .LVL8
     /tmp/ccuzJUyL.s:718    .debug_info:0000000000000000 .Ldebug_info0
     /tmp/ccuzJUyL.s:305    .gcc_except_table:0000000000000000 .LLSDA31

UNDEFINED SYMBOLS
_ZN5Riscv11printStringEPKc
_ZN5Riscv10popSppSpieEv
thread_dispatch
_ZN9Scheduler3putEP3PCB
_Z7kmallocm
_Z5kfreePv
__gxx_personality_v0
_ZN9Scheduler3getEv
_ZN3PCB20contextSwitchExitingEPNS_7ContextE
_ZN3PCB13contextSwitchEPNS_7ContextES1_
