GAS LISTING /tmp/ccvh1QTQ.s 			page 1


   1              		.file	"PCB.cpp"
   2              		.option pic
   3              		.option norelax
   4              		.text
   5              	.Ltext0:
   6              		.align	2
   7              		.globl	_ZN3PCB6runnerEv
   9              	_ZN3PCB6runnerEv:
  10              	.LFB27:
  11              		.file 1 "src/PCB.cpp"
   1:src/PCB.cpp   **** //
   2:src/PCB.cpp   **** // Created by os on 4/27/22.
   3:src/PCB.cpp   **** //
   4:src/PCB.cpp   **** 
   5:src/PCB.cpp   **** #include "../h/PCB.h"
   6:src/PCB.cpp   **** 
   7:src/PCB.cpp   **** PCB* PCB::running = 0;
   8:src/PCB.cpp   **** uint64 PCB::timeSliceCounter = 0;
   9:src/PCB.cpp   **** 
  10:src/PCB.cpp   **** //todo
  11:src/PCB.cpp   **** //kreiranje pocetnog konteksta niti
  12:src/PCB.cpp   **** 
  13:src/PCB.cpp   **** //todo
  14:src/PCB.cpp   **** //stack space da li treba na poslednju poziciju da ide
  15:src/PCB.cpp   **** PCB::PCB(Body body, void *args, void* stack_space) :
  16:src/PCB.cpp   ****     body(body), args(args),context({
  17:src/PCB.cpp   ****         (uint64)((char*)stack_space + DEFAULT_STACK_SIZE),
  18:src/PCB.cpp   ****         (uint64)&PCB::runner
  19:src/PCB.cpp   ****     })
  20:src/PCB.cpp   **** {
  21:src/PCB.cpp   **** 
  22:src/PCB.cpp   **** }
  23:src/PCB.cpp   **** 
  24:src/PCB.cpp   **** void PCB::sleep(time_t time) {
  25:src/PCB.cpp   **** 
  26:src/PCB.cpp   **** }
  27:src/PCB.cpp   **** 
  28:src/PCB.cpp   **** void PCB::start()
  29:src/PCB.cpp   **** {
  30:src/PCB.cpp   ****     Scheduler::put(this);
  31:src/PCB.cpp   **** }
  32:src/PCB.cpp   **** 
  33:src/PCB.cpp   **** //todo
  34:src/PCB.cpp   **** void PCB::runner() {
  12              		.loc 1 34 20
  13              		.cfi_startproc
  14 0000 130101FF 		addi	sp,sp,-16
  15              		.cfi_def_cfa_offset 16
  16 0004 23341100 		sd	ra,8(sp)
  17 0008 23308100 		sd	s0,0(sp)
  18              		.cfi_offset 1, -8
  19              		.cfi_offset 8, -16
  20 000c 13040101 		addi	s0,sp,16
  21              		.cfi_def_cfa 8, 0
  35:src/PCB.cpp   **** 
  36:src/PCB.cpp   ****    Riscv::popSppSpie();
  22              		.loc 1 36 4
GAS LISTING /tmp/ccvh1QTQ.s 			page 2


  23              		.loc 1 36 21 is_stmt 0
  24 0010 97000000 		call	_ZN5Riscv10popSppSpieEv@plt
  24      E7800000 
  25              	.LVL0:
  37:src/PCB.cpp   ****    running->body(running->args);
  26              		.loc 1 37 4 is_stmt 1
  27              		.loc 1 37 13 is_stmt 0
  28 0018 97070000 		ld	a5,.LANCHOR0
  28      83B70700 
  29 0020 03B78700 		ld	a4,8(a5)
  30              		.loc 1 37 17
  31 0024 03B50701 		ld	a0,16(a5)
  32 0028 E7000700 		jalr	a4
  33              	.LVL1:
  38:src/PCB.cpp   **** 
  39:src/PCB.cpp   **** }
  34              		.loc 1 39 1
  35 002c 83308100 		ld	ra,8(sp)
  36              		.cfi_restore 1
  37 0030 03340100 		ld	s0,0(sp)
  38              		.cfi_restore 8
  39              		.cfi_def_cfa 2, 16
  40 0034 13010101 		addi	sp,sp,16
  41              		.cfi_def_cfa_offset 0
  42 0038 67800000 		jr	ra
  43              		.cfi_endproc
  44              	.LFE27:
  46              		.align	2
  47              		.globl	_ZN3PCBC2EPFvPvES0_S0_
  49              	_ZN3PCBC2EPFvPvES0_S0_:
  50              	.LFB23:
  15:src/PCB.cpp   ****     body(body), args(args),context({
  51              		.loc 1 15 1 is_stmt 1
  52              		.cfi_startproc
  53              	.LVL2:
  54 003c 130101FF 		addi	sp,sp,-16
  55              		.cfi_def_cfa_offset 16
  56 0040 23348100 		sd	s0,8(sp)
  57              		.cfi_offset 8, -8
  58 0044 13040101 		addi	s0,sp,16
  59              		.cfi_def_cfa 8, 0
  60              	.LBB2:
  19:src/PCB.cpp   **** {
  61              		.loc 1 19 6 is_stmt 0
  62 0048 2334B500 		sd	a1,8(a0)
  63 004c 2338C500 		sd	a2,16(a0)
  17:src/PCB.cpp   ****         (uint64)&PCB::runner
  64              		.loc 1 17 37
  65 0050 B7170000 		li	a5,4096
  66 0054 B386F600 		add	a3,a3,a5
  67              	.LVL3:
  19:src/PCB.cpp   **** {
  68              		.loc 1 19 6
  69 0058 233CD500 		sd	a3,24(a0)
  70 005c 97070000 		lla	a5,_ZN3PCB6runnerEv
  70      93870700 
  71 0064 2330F502 		sd	a5,32(a0)
GAS LISTING /tmp/ccvh1QTQ.s 			page 3


  72 0068 23080502 		sb	zero,48(a0)
  73              	.LBE2:
  22:src/PCB.cpp   **** 
  74              		.loc 1 22 1
  75 006c 03348100 		ld	s0,8(sp)
  76              		.cfi_restore 8
  77              		.cfi_def_cfa 2, 16
  78 0070 13010101 		addi	sp,sp,16
  79              		.cfi_def_cfa_offset 0
  80 0074 67800000 		jr	ra
  81              		.cfi_endproc
  82              	.LFE23:
  84              		.globl	_ZN3PCBC1EPFvPvES0_S0_
  85              		.set	_ZN3PCBC1EPFvPvES0_S0_,_ZN3PCBC2EPFvPvES0_S0_
  86              		.align	2
  87              		.globl	_ZN3PCB5sleepEm
  89              	_ZN3PCB5sleepEm:
  90              	.LFB25:
  24:src/PCB.cpp   **** 
  91              		.loc 1 24 30 is_stmt 1
  92              		.cfi_startproc
  93              	.LVL4:
  94 0078 130101FF 		addi	sp,sp,-16
  95              		.cfi_def_cfa_offset 16
  96 007c 23348100 		sd	s0,8(sp)
  97              		.cfi_offset 8, -8
  98 0080 13040101 		addi	s0,sp,16
  99              		.cfi_def_cfa 8, 0
  26:src/PCB.cpp   **** 
 100              		.loc 1 26 1 is_stmt 0
 101 0084 03348100 		ld	s0,8(sp)
 102              		.cfi_restore 8
 103              		.cfi_def_cfa 2, 16
 104 0088 13010101 		addi	sp,sp,16
 105              		.cfi_def_cfa_offset 0
 106 008c 67800000 		jr	ra
 107              		.cfi_endproc
 108              	.LFE25:
 110              		.align	2
 111              		.globl	_ZN3PCB5startEv
 113              	_ZN3PCB5startEv:
 114              	.LFB26:
  29:src/PCB.cpp   ****     Scheduler::put(this);
 115              		.loc 1 29 1 is_stmt 1
 116              		.cfi_startproc
 117              	.LVL5:
 118 0090 130101FF 		addi	sp,sp,-16
 119              		.cfi_def_cfa_offset 16
 120 0094 23341100 		sd	ra,8(sp)
 121 0098 23308100 		sd	s0,0(sp)
 122              		.cfi_offset 1, -8
 123              		.cfi_offset 8, -16
 124 009c 13040101 		addi	s0,sp,16
 125              		.cfi_def_cfa 8, 0
  30:src/PCB.cpp   **** }
 126              		.loc 1 30 5
  30:src/PCB.cpp   **** }
GAS LISTING /tmp/ccvh1QTQ.s 			page 4


 127              		.loc 1 30 19 is_stmt 0
 128 00a0 97000000 		call	_ZN9Scheduler3putEP3PCB@plt
 128      E7800000 
 129              	.LVL6:
  31:src/PCB.cpp   **** 
 130              		.loc 1 31 1
 131 00a8 83308100 		ld	ra,8(sp)
 132              		.cfi_restore 1
 133 00ac 03340100 		ld	s0,0(sp)
 134              		.cfi_restore 8
 135              		.cfi_def_cfa 2, 16
 136 00b0 13010101 		addi	sp,sp,16
 137              		.cfi_def_cfa_offset 0
 138 00b4 67800000 		jr	ra
 139              		.cfi_endproc
 140              	.LFE26:
 142              		.align	2
 143              		.globl	_ZN3PCB8dispatchEv
 145              	_ZN3PCB8dispatchEv:
 146              	.LFB28:
  40:src/PCB.cpp   **** 
  41:src/PCB.cpp   **** void PCB::dispatch() {
 147              		.loc 1 41 22 is_stmt 1
 148              		.cfi_startproc
 149 00b8 130101FE 		addi	sp,sp,-32
 150              		.cfi_def_cfa_offset 32
 151 00bc 233C1100 		sd	ra,24(sp)
 152 00c0 23388100 		sd	s0,16(sp)
 153 00c4 23349100 		sd	s1,8(sp)
 154              		.cfi_offset 1, -8
 155              		.cfi_offset 8, -16
 156              		.cfi_offset 9, -24
 157 00c8 13040102 		addi	s0,sp,32
 158              		.cfi_def_cfa 8, 0
  42:src/PCB.cpp   ****     Riscv::pushRegisters();
 159              		.loc 1 42 5
 160              		.loc 1 42 25 is_stmt 0
 161 00cc 97000000 		call	_ZN5Riscv13pushRegistersEv@plt
 161      E7800000 
 162              	.LVL7:
  43:src/PCB.cpp   **** 
  44:src/PCB.cpp   ****     PCB* old = running;
 163              		.loc 1 44 5 is_stmt 1
 164              		.loc 1 44 10 is_stmt 0
 165 00d4 97040000 		ld	s1,.LANCHOR0
 165      83B40400 
 166              	.LVL8:
  45:src/PCB.cpp   ****     if(!old->finished) Scheduler::put(old);
 167              		.loc 1 45 5 is_stmt 1
 168              		.loc 1 45 14 is_stmt 0
 169 00dc 83C70403 		lbu	a5,48(s1)
 170              		.loc 1 45 5
 171 00e0 63800704 		beqz	a5,.L12
 172              	.L10:
  46:src/PCB.cpp   ****     running = Scheduler::get();
 173              		.loc 1 46 5 is_stmt 1
 174              		.loc 1 46 29 is_stmt 0
GAS LISTING /tmp/ccvh1QTQ.s 			page 5


 175 00e4 97000000 		call	_ZN9Scheduler3getEv@plt
 175      E7800000 
 176              	.LVL9:
 177              		.loc 1 46 13
 178 00ec 97070000 		sd	a0,.LANCHOR0,a5
 178      23B0A700 
  47:src/PCB.cpp   **** 
  48:src/PCB.cpp   ****     PCB::contextSwitch(&old->context, &running->context);
 179              		.loc 1 48 5 is_stmt 1
 180              		.loc 1 48 23 is_stmt 0
 181 00f4 93058501 		addi	a1,a0,24
 182 00f8 13858401 		addi	a0,s1,24
 183 00fc 97000000 		call	_ZN3PCB13contextSwitchEPNS_7ContextES1_@plt
 183      E7800000 
 184              	.LVL10:
  49:src/PCB.cpp   ****     //yield(old, running);
  50:src/PCB.cpp   **** 
  51:src/PCB.cpp   ****     Riscv::popRegisters();
 185              		.loc 1 51 5 is_stmt 1
 186              		.loc 1 51 24 is_stmt 0
 187 0104 97000000 		call	_ZN5Riscv12popRegistersEv@plt
 187      E7800000 
 188              	.LVL11:
  52:src/PCB.cpp   **** }
 189              		.loc 1 52 1
 190 010c 83308101 		ld	ra,24(sp)
 191              		.cfi_remember_state
 192              		.cfi_restore 1
 193 0110 03340101 		ld	s0,16(sp)
 194              		.cfi_restore 8
 195              		.cfi_def_cfa 2, 32
 196 0114 83348100 		ld	s1,8(sp)
 197              		.cfi_restore 9
 198              	.LVL12:
 199 0118 13010102 		addi	sp,sp,32
 200              		.cfi_def_cfa_offset 0
 201 011c 67800000 		jr	ra
 202              	.LVL13:
 203              	.L12:
 204              		.cfi_restore_state
  45:src/PCB.cpp   ****     running = Scheduler::get();
 205              		.loc 1 45 24 is_stmt 1 discriminator 1
  45:src/PCB.cpp   ****     running = Scheduler::get();
 206              		.loc 1 45 38 is_stmt 0 discriminator 1
 207 0120 13850400 		mv	a0,s1
 208 0124 97000000 		call	_ZN9Scheduler3putEP3PCB@plt
 208      E7800000 
 209              	.LVL14:
 210 012c 6FF09FFB 		j	.L10
 211              		.cfi_endproc
 212              	.LFE28:
 214              		.globl	_ZN3PCB16timeSliceCounterE
 215              		.globl	_ZN3PCB7runningE
 216              		.bss
 217              		.align	3
 218              		.set	.LANCHOR0,. + 0
 221              	_ZN3PCB7runningE:
GAS LISTING /tmp/ccvh1QTQ.s 			page 6


 222 0000 00000000 		.zero	8
 222      00000000 
 225              	_ZN3PCB16timeSliceCounterE:
 226 0008 00000000 		.zero	8
 226      00000000 
 227              		.text
 228              	.Letext0:
 229              		.file 2 "src/../h/../lib/hw.h"
 230              		.file 3 "src/../h/PCB.h"
 231              		.file 4 "src/../h/Scheduler.h"
 232              		.file 5 "src/../h/Riscv.h"
GAS LISTING /tmp/ccvh1QTQ.s 			page 7


DEFINED SYMBOLS
                            *ABS*:0000000000000000 PCB.cpp
     /tmp/ccvh1QTQ.s:9      .text:0000000000000000 _ZN3PCB6runnerEv
     /tmp/ccvh1QTQ.s:13     .text:0000000000000000 .L0 
     /tmp/ccvh1QTQ.s:14     .text:0000000000000000 .L0 
     /tmp/ccvh1QTQ.s:15     .text:0000000000000004 .L0 
     /tmp/ccvh1QTQ.s:18     .text:000000000000000c .L0 
     /tmp/ccvh1QTQ.s:19     .text:000000000000000c .L0 
     /tmp/ccvh1QTQ.s:21     .text:0000000000000010 .L0 
     /tmp/ccvh1QTQ.s:23     .text:0000000000000010 .L0 
     /tmp/ccvh1QTQ.s:24     .text:0000000000000010 .L0 
     /tmp/ccvh1QTQ.s:27     .text:0000000000000018 .L0 
     /tmp/ccvh1QTQ.s:28     .text:0000000000000018 .L0 
     /tmp/ccvh1QTQ.s:31     .text:0000000000000024 .L0 
     /tmp/ccvh1QTQ.s:35     .text:000000000000002c .L0 
     /tmp/ccvh1QTQ.s:36     .text:0000000000000030 .L0 
     /tmp/ccvh1QTQ.s:38     .text:0000000000000034 .L0 
     /tmp/ccvh1QTQ.s:39     .text:0000000000000034 .L0 
     /tmp/ccvh1QTQ.s:41     .text:0000000000000038 .L0 
     /tmp/ccvh1QTQ.s:43     .text:000000000000003c .L0 
     /tmp/ccvh1QTQ.s:49     .text:000000000000003c _ZN3PCBC2EPFvPvES0_S0_
     /tmp/ccvh1QTQ.s:52     .text:000000000000003c .L0 
     /tmp/ccvh1QTQ.s:54     .text:000000000000003c .L0 
     /tmp/ccvh1QTQ.s:55     .text:0000000000000040 .L0 
     /tmp/ccvh1QTQ.s:57     .text:0000000000000044 .L0 
     /tmp/ccvh1QTQ.s:59     .text:0000000000000048 .L0 
     /tmp/ccvh1QTQ.s:62     .text:0000000000000048 .L0 
     /tmp/ccvh1QTQ.s:65     .text:0000000000000050 .L0 
     /tmp/ccvh1QTQ.s:69     .text:0000000000000058 .L0 
     /tmp/ccvh1QTQ.s:75     .text:000000000000006c .L0 
     /tmp/ccvh1QTQ.s:76     .text:0000000000000070 .L0 
     /tmp/ccvh1QTQ.s:77     .text:0000000000000070 .L0 
     /tmp/ccvh1QTQ.s:79     .text:0000000000000074 .L0 
     /tmp/ccvh1QTQ.s:81     .text:0000000000000078 .L0 
     /tmp/ccvh1QTQ.s:49     .text:000000000000003c _ZN3PCBC1EPFvPvES0_S0_
     /tmp/ccvh1QTQ.s:89     .text:0000000000000078 _ZN3PCB5sleepEm
     /tmp/ccvh1QTQ.s:92     .text:0000000000000078 .L0 
     /tmp/ccvh1QTQ.s:94     .text:0000000000000078 .L0 
     /tmp/ccvh1QTQ.s:95     .text:000000000000007c .L0 
     /tmp/ccvh1QTQ.s:97     .text:0000000000000080 .L0 
     /tmp/ccvh1QTQ.s:99     .text:0000000000000084 .L0 
     /tmp/ccvh1QTQ.s:101    .text:0000000000000084 .L0 
     /tmp/ccvh1QTQ.s:102    .text:0000000000000088 .L0 
     /tmp/ccvh1QTQ.s:103    .text:0000000000000088 .L0 
     /tmp/ccvh1QTQ.s:105    .text:000000000000008c .L0 
     /tmp/ccvh1QTQ.s:107    .text:0000000000000090 .L0 
     /tmp/ccvh1QTQ.s:113    .text:0000000000000090 _ZN3PCB5startEv
     /tmp/ccvh1QTQ.s:116    .text:0000000000000090 .L0 
     /tmp/ccvh1QTQ.s:118    .text:0000000000000090 .L0 
     /tmp/ccvh1QTQ.s:119    .text:0000000000000094 .L0 
     /tmp/ccvh1QTQ.s:122    .text:000000000000009c .L0 
     /tmp/ccvh1QTQ.s:123    .text:000000000000009c .L0 
     /tmp/ccvh1QTQ.s:125    .text:00000000000000a0 .L0 
     /tmp/ccvh1QTQ.s:127    .text:00000000000000a0 .L0 
     /tmp/ccvh1QTQ.s:128    .text:00000000000000a0 .L0 
     /tmp/ccvh1QTQ.s:131    .text:00000000000000a8 .L0 
     /tmp/ccvh1QTQ.s:132    .text:00000000000000ac .L0 
GAS LISTING /tmp/ccvh1QTQ.s 			page 8


     /tmp/ccvh1QTQ.s:134    .text:00000000000000b0 .L0 
     /tmp/ccvh1QTQ.s:135    .text:00000000000000b0 .L0 
     /tmp/ccvh1QTQ.s:137    .text:00000000000000b4 .L0 
     /tmp/ccvh1QTQ.s:139    .text:00000000000000b8 .L0 
     /tmp/ccvh1QTQ.s:145    .text:00000000000000b8 _ZN3PCB8dispatchEv
     /tmp/ccvh1QTQ.s:148    .text:00000000000000b8 .L0 
     /tmp/ccvh1QTQ.s:149    .text:00000000000000b8 .L0 
     /tmp/ccvh1QTQ.s:150    .text:00000000000000bc .L0 
     /tmp/ccvh1QTQ.s:154    .text:00000000000000c8 .L0 
     /tmp/ccvh1QTQ.s:155    .text:00000000000000c8 .L0 
     /tmp/ccvh1QTQ.s:156    .text:00000000000000c8 .L0 
     /tmp/ccvh1QTQ.s:158    .text:00000000000000cc .L0 
     /tmp/ccvh1QTQ.s:160    .text:00000000000000cc .L0 
     /tmp/ccvh1QTQ.s:161    .text:00000000000000cc .L0 
     /tmp/ccvh1QTQ.s:164    .text:00000000000000d4 .L0 
     /tmp/ccvh1QTQ.s:165    .text:00000000000000d4 .L0 
     /tmp/ccvh1QTQ.s:168    .text:00000000000000dc .L0 
     /tmp/ccvh1QTQ.s:169    .text:00000000000000dc .L0 
     /tmp/ccvh1QTQ.s:171    .text:00000000000000e0 .L0 
     /tmp/ccvh1QTQ.s:174    .text:00000000000000e4 .L0 
     /tmp/ccvh1QTQ.s:175    .text:00000000000000e4 .L0 
     /tmp/ccvh1QTQ.s:178    .text:00000000000000ec .L0 
     /tmp/ccvh1QTQ.s:180    .text:00000000000000f4 .L0 
     /tmp/ccvh1QTQ.s:181    .text:00000000000000f4 .L0 
     /tmp/ccvh1QTQ.s:186    .text:0000000000000104 .L0 
     /tmp/ccvh1QTQ.s:187    .text:0000000000000104 .L0 
     /tmp/ccvh1QTQ.s:190    .text:000000000000010c .L0 
     /tmp/ccvh1QTQ.s:191    .text:0000000000000110 .L0 
     /tmp/ccvh1QTQ.s:192    .text:0000000000000110 .L0 
     /tmp/ccvh1QTQ.s:194    .text:0000000000000114 .L0 
     /tmp/ccvh1QTQ.s:195    .text:0000000000000114 .L0 
     /tmp/ccvh1QTQ.s:197    .text:0000000000000118 .L0 
     /tmp/ccvh1QTQ.s:200    .text:000000000000011c .L0 
     /tmp/ccvh1QTQ.s:204    .text:0000000000000120 .L0 
     /tmp/ccvh1QTQ.s:206    .text:0000000000000120 .L0 
     /tmp/ccvh1QTQ.s:207    .text:0000000000000120 .L0 
     /tmp/ccvh1QTQ.s:211    .text:0000000000000130 .L0 
     /tmp/ccvh1QTQ.s:225    .bss:0000000000000008 _ZN3PCB16timeSliceCounterE
     /tmp/ccvh1QTQ.s:221    .bss:0000000000000000 _ZN3PCB7runningE
     /tmp/ccvh1QTQ.s:218    .bss:0000000000000000 .LANCHOR0
     /tmp/ccvh1QTQ.s:233    .text:0000000000000130 .L0 
     /tmp/ccvh1QTQ.s:28     .text:0000000000000018 .L0 
     /tmp/ccvh1QTQ.s:70     .text:000000000000005c .L0 
     /tmp/ccvh1QTQ.s:165    .text:00000000000000d4 .L0 
     /tmp/ccvh1QTQ.s:178    .text:00000000000000ec .L0 
     /tmp/ccvh1QTQ.s:203    .text:0000000000000120 .L12
     /tmp/ccvh1QTQ.s:172    .text:00000000000000e4 .L10
     /tmp/ccvh1QTQ.s:1096   .debug_abbrev:0000000000000000 .Ldebug_abbrev0
     /tmp/ccvh1QTQ.s:2055   .debug_str:00000000000001df .LASF95
     /tmp/ccvh1QTQ.s:2111   .debug_str:000000000000040a .LASF96
     /tmp/ccvh1QTQ.s:2045   .debug_str:0000000000000186 .LASF97
     /tmp/ccvh1QTQ.s:5      .text:0000000000000000 .Ltext0
     /tmp/ccvh1QTQ.s:228    .text:0000000000000130 .Letext0
     /tmp/ccvh1QTQ.s:1993   .debug_line:0000000000000000 .Ldebug_line0
     /tmp/ccvh1QTQ.s:2127   .debug_str:0000000000000481 .LASF0
     /tmp/ccvh1QTQ.s:2141   .debug_str:00000000000004b5 .LASF1
     /tmp/ccvh1QTQ.s:2119   .debug_str:000000000000044b .LASF2
GAS LISTING /tmp/ccvh1QTQ.s 			page 9


     /tmp/ccvh1QTQ.s:2097   .debug_str:00000000000003b2 .LASF4
     /tmp/ccvh1QTQ.s:2169   .debug_str:00000000000005a4 .LASF3
     /tmp/ccvh1QTQ.s:2015   .debug_str:000000000000008b .LASF5
     /tmp/ccvh1QTQ.s:2053   .debug_str:00000000000001d8 .LASF6
     /tmp/ccvh1QTQ.s:2143   .debug_str:00000000000004c8 .LASF7
     /tmp/ccvh1QTQ.s:2125   .debug_str:000000000000046e .LASF8
     /tmp/ccvh1QTQ.s:2195   .debug_str:0000000000000660 .LASF9
     /tmp/ccvh1QTQ.s:2081   .debug_str:000000000000031e .LASF10
     /tmp/ccvh1QTQ.s:2155   .debug_str:0000000000000535 .LASF11
     /tmp/ccvh1QTQ.s:2193   .debug_str:0000000000000651 .LASF12
     /tmp/ccvh1QTQ.s:2021   .debug_str:00000000000000b0 .LASF13
     /tmp/ccvh1QTQ.s:1999   .debug_str:0000000000000022 .LASF14
     /tmp/ccvh1QTQ.s:2035   .debug_str:0000000000000145 .LASF15
     /tmp/ccvh1QTQ.s:2165   .debug_str:0000000000000576 .LASF16
     /tmp/ccvh1QTQ.s:2049   .debug_str:00000000000001ae .LASF17
     /tmp/ccvh1QTQ.s:2153   .debug_str:000000000000052b .LASF18
     /tmp/ccvh1QTQ.s:2113   .debug_str:0000000000000416 .LASF98
     /tmp/ccvh1QTQ.s:2093   .debug_str:000000000000038e .LASF99
     /tmp/ccvh1QTQ.s:2197   .debug_str:0000000000000670 .LASF100
     /tmp/ccvh1QTQ.s:2003   .debug_str:000000000000003b .LASF30
     /tmp/ccvh1QTQ.s:2019   .debug_str:00000000000000aa .LASF19
     /tmp/ccvh1QTQ.s:2037   .debug_str:0000000000000151 .LASF101
     /tmp/ccvh1QTQ.s:2161   .debug_str:000000000000056a .LASF102
     /tmp/ccvh1QTQ.s:2139   .debug_str:00000000000004af .LASF20
     /tmp/ccvh1QTQ.s:2095   .debug_str:00000000000003a2 .LASF103
     /tmp/ccvh1QTQ.s:2131   .debug_str:0000000000000495 .LASF35
     /tmp/ccvh1QTQ.s:2091   .debug_str:000000000000037b .LASF37
     /tmp/ccvh1QTQ.s:2135   .debug_str:00000000000004a3 .LASF21
     /tmp/ccvh1QTQ.s:2115   .debug_str:000000000000042e .LASF45
     /tmp/ccvh1QTQ.s:2063   .debug_str:00000000000002a9 .LASF25
     /tmp/ccvh1QTQ.s:2109   .debug_str:00000000000003fc .LASF22
     /tmp/ccvh1QTQ.s:2059   .debug_str:0000000000000296 .LASF23
     /tmp/ccvh1QTQ.s:2039   .debug_str:0000000000000168 .LASF24
     /tmp/ccvh1QTQ.s:2171   .debug_str:00000000000005b6 .LASF26
     /tmp/ccvh1QTQ.s:2117   .debug_str:000000000000043e .LASF104
     /tmp/ccvh1QTQ.s:2147   .debug_str:00000000000004ee .LASF105
     /tmp/ccvh1QTQ.s:2191   .debug_str:0000000000000647 .LASF27
     /tmp/ccvh1QTQ.s:2203   .debug_str:0000000000000695 .LASF106
     /tmp/ccvh1QTQ.s:2031   .debug_str:0000000000000113 .LASF107
     /tmp/ccvh1QTQ.s:2061   .debug_str:00000000000002a2 .LASF108
     /tmp/ccvh1QTQ.s:2209   .debug_str:00000000000006c0 .LASF109
     /tmp/ccvh1QTQ.s:2101   .debug_str:00000000000003c2 .LASF28
     /tmp/ccvh1QTQ.s:2133   .debug_str:000000000000049e .LASF29
     /tmp/ccvh1QTQ.s:2105   .debug_str:00000000000003d2 .LASF31
     /tmp/ccvh1QTQ.s:2205   .debug_str:00000000000006a3 .LASF32
     /tmp/ccvh1QTQ.s:2099   .debug_str:00000000000003b9 .LASF33
     /tmp/ccvh1QTQ.s:2179   .debug_str:00000000000005e8 .LASF110
     /tmp/ccvh1QTQ.s:2137   .debug_str:00000000000004a9 .LASF34
     /tmp/ccvh1QTQ.s:2123   .debug_str:0000000000000463 .LASF36
     /tmp/ccvh1QTQ.s:2077   .debug_str:0000000000000300 .LASF38
     /tmp/ccvh1QTQ.s:2011   .debug_str:000000000000006b .LASF39
     /tmp/ccvh1QTQ.s:2005   .debug_str:0000000000000043 .LASF40
     /tmp/ccvh1QTQ.s:2183   .debug_str:0000000000000609 .LASF41
     /tmp/ccvh1QTQ.s:1997   .debug_str:0000000000000008 .LASF42
     /tmp/ccvh1QTQ.s:2001   .debug_str:0000000000000032 .LASF43
     /tmp/ccvh1QTQ.s:2181   .debug_str:00000000000005f4 .LASF48
     /tmp/ccvh1QTQ.s:2041   .debug_str:0000000000000178 .LASF44
GAS LISTING /tmp/ccvh1QTQ.s 			page 10


     /tmp/ccvh1QTQ.s:2057   .debug_str:0000000000000281 .LASF46
     /tmp/ccvh1QTQ.s:2173   .debug_str:00000000000005c7 .LASF47
     /tmp/ccvh1QTQ.s:2157   .debug_str:0000000000000544 .LASF49
     /tmp/ccvh1QTQ.s:2163   .debug_str:000000000000056f .LASF50
     /tmp/ccvh1QTQ.s:2185   .debug_str:0000000000000616 .LASF51
     /tmp/ccvh1QTQ.s:2075   .debug_str:00000000000002f8 .LASF52
     /tmp/ccvh1QTQ.s:2051   .debug_str:00000000000001c4 .LASF53
     /tmp/ccvh1QTQ.s:1995   .debug_str:0000000000000000 .LASF54
     /tmp/ccvh1QTQ.s:2087   .debug_str:0000000000000356 .LASF55
     /tmp/ccvh1QTQ.s:2065   .debug_str:00000000000002b1 .LASF56
     /tmp/ccvh1QTQ.s:2027   .debug_str:00000000000000e3 .LASF57
     /tmp/ccvh1QTQ.s:2217   .debug_str:000000000000070b .LASF58
     /tmp/ccvh1QTQ.s:2067   .debug_str:00000000000002b9 .LASF59
     /tmp/ccvh1QTQ.s:2129   .debug_str:000000000000048e .LASF60
     /tmp/ccvh1QTQ.s:2207   .debug_str:00000000000006ad .LASF61
     /tmp/ccvh1QTQ.s:2009   .debug_str:0000000000000064 .LASF62
     /tmp/ccvh1QTQ.s:2073   .debug_str:00000000000002e5 .LASF63
     /tmp/ccvh1QTQ.s:2079   .debug_str:0000000000000318 .LASF64
     /tmp/ccvh1QTQ.s:2189   .debug_str:0000000000000635 .LASF65
     /tmp/ccvh1QTQ.s:2007   .debug_str:000000000000005e .LASF66
     /tmp/ccvh1QTQ.s:2221   .debug_str:000000000000071f .LASF67
     /tmp/ccvh1QTQ.s:2215   .debug_str:0000000000000700 .LASF68
     /tmp/ccvh1QTQ.s:2167   .debug_str:000000000000058c .LASF69
     /tmp/ccvh1QTQ.s:2103   .debug_str:00000000000003c7 .LASF70
     /tmp/ccvh1QTQ.s:2017   .debug_str:0000000000000092 .LASF71
     /tmp/ccvh1QTQ.s:2033   .debug_str:000000000000013b .LASF72
     /tmp/ccvh1QTQ.s:2151   .debug_str:0000000000000515 .LASF73
     /tmp/ccvh1QTQ.s:2121   .debug_str:0000000000000459 .LASF74
     /tmp/ccvh1QTQ.s:2085   .debug_str:0000000000000340 .LASF75
     /tmp/ccvh1QTQ.s:2175   .debug_str:00000000000005ce .LASF76
     /tmp/ccvh1QTQ.s:2211   .debug_str:00000000000006d1 .LASF77
     /tmp/ccvh1QTQ.s:2177   .debug_str:00000000000005d9 .LASF78
     /tmp/ccvh1QTQ.s:2029   .debug_str:00000000000000f7 .LASF79
     /tmp/ccvh1QTQ.s:2199   .debug_str:0000000000000679 .LASF80
     /tmp/ccvh1QTQ.s:2107   .debug_str:00000000000003da .LASF81
     /tmp/ccvh1QTQ.s:2201   .debug_str:000000000000068e .LASF82
     /tmp/ccvh1QTQ.s:2023   .debug_str:00000000000000c0 .LASF83
     /tmp/ccvh1QTQ.s:2149   .debug_str:0000000000000506 .LASF84
     /tmp/ccvh1QTQ.s:2187   .debug_str:0000000000000629 .LASF85
     /tmp/ccvh1QTQ.s:2159   .debug_str:0000000000000557 .LASF86
     /tmp/ccvh1QTQ.s:2013   .debug_str:0000000000000079 .LASF87
     /tmp/ccvh1QTQ.s:2145   .debug_str:00000000000004db .LASF88
     /tmp/ccvh1QTQ.s:2071   .debug_str:00000000000002d2 .LASF89
     /tmp/ccvh1QTQ.s:2083   .debug_str:000000000000032c .LASF90
     /tmp/ccvh1QTQ.s:2069   .debug_str:00000000000002cd .LASF91
     /tmp/ccvh1QTQ.s:2089   .debug_str:000000000000036a .LASF92
     /tmp/ccvh1QTQ.s:2025   .debug_str:00000000000000c8 .LASF93
     /tmp/ccvh1QTQ.s:146    .text:00000000000000b8 .LFB28
     /tmp/ccvh1QTQ.s:212    .text:0000000000000130 .LFE28
     /tmp/ccvh1QTQ.s:1942   .debug_loc:0000000000000000 .LLST2
     /tmp/ccvh1QTQ.s:162    .text:00000000000000d4 .LVL7
     /tmp/ccvh1QTQ.s:176    .text:00000000000000ec .LVL9
     /tmp/ccvh1QTQ.s:184    .text:0000000000000104 .LVL10
     /tmp/ccvh1QTQ.s:188    .text:000000000000010c .LVL11
     /tmp/ccvh1QTQ.s:209    .text:000000000000012c .LVL14
     /tmp/ccvh1QTQ.s:10     .text:0000000000000000 .LFB27
     /tmp/ccvh1QTQ.s:44     .text:000000000000003c .LFE27
GAS LISTING /tmp/ccvh1QTQ.s 			page 11


     /tmp/ccvh1QTQ.s:25     .text:0000000000000018 .LVL0
     /tmp/ccvh1QTQ.s:114    .text:0000000000000090 .LFB26
     /tmp/ccvh1QTQ.s:140    .text:00000000000000b8 .LFE26
     /tmp/ccvh1QTQ.s:2047   .debug_str:00000000000001a9 .LASF111
     /tmp/ccvh1QTQ.s:1953   .debug_loc:0000000000000036 .LLST1
     /tmp/ccvh1QTQ.s:129    .text:00000000000000a8 .LVL6
     /tmp/ccvh1QTQ.s:90     .text:0000000000000078 .LFB25
     /tmp/ccvh1QTQ.s:108    .text:0000000000000090 .LFE25
     /tmp/ccvh1QTQ.s:2043   .debug_str:0000000000000181 .LASF112
     /tmp/ccvh1QTQ.s:2219   .debug_str:0000000000000713 .LASF94
     /tmp/ccvh1QTQ.s:2213   .debug_str:00000000000006e9 .LASF113
     /tmp/ccvh1QTQ.s:50     .text:000000000000003c .LFB23
     /tmp/ccvh1QTQ.s:82     .text:0000000000000078 .LFE23
     /tmp/ccvh1QTQ.s:1967   .debug_loc:000000000000006f .LLST0
     /tmp/ccvh1QTQ.s:166    .text:00000000000000dc .LVL8
     /tmp/ccvh1QTQ.s:198    .text:0000000000000118 .LVL12
     /tmp/ccvh1QTQ.s:202    .text:0000000000000120 .LVL13
     /tmp/ccvh1QTQ.s:117    .text:0000000000000090 .LVL5
     /tmp/ccvh1QTQ.s:53     .text:000000000000003c .LVL2
     /tmp/ccvh1QTQ.s:67     .text:0000000000000058 .LVL3
     /tmp/ccvh1QTQ.s:234    .debug_info:0000000000000000 .Ldebug_info0

UNDEFINED SYMBOLS
_ZN5Riscv10popSppSpieEv
_ZN9Scheduler3putEP3PCB
_ZN5Riscv13pushRegistersEv
_ZN9Scheduler3getEv
_ZN3PCB13contextSwitchEPNS_7ContextES1_
_ZN5Riscv12popRegistersEv
