GAS LISTING /tmp/ccdDOmoR.s 			page 1


   1              		.file	"PCB.cpp"
   2              		.option pic
   3              		.option norelax
   4              		.text
   5              	.Ltext0:
   6              		.section	.rodata.str1.8,"aMS",@progbits,1
   7              		.align	3
   8              	.LC0:
   9 0000 52756E6E 		.string	"Runner started...\n"
   9      65722073 
   9      74617274 
   9      65642E2E 
   9      2E0A00
  10 0013 00000000 		.align	3
  10      00
  11              	.LC1:
  12 0018 50434220 		.string	"PCB finished\n"
  12      66696E69 
  12      73686564 
  12      0A00
  13              		.text
  14              		.align	2
  15              		.globl	_ZN3PCB6runnerEv
  17              	_ZN3PCB6runnerEv:
  18              	.LFB26:
  19              		.file 1 "src/PCB.cpp"
   1:src/PCB.cpp   **** //
   2:src/PCB.cpp   **** // Created by os on 4/27/22.
   3:src/PCB.cpp   **** //
   4:src/PCB.cpp   **** 
   5:src/PCB.cpp   **** #include "../h/PCB.hpp"
   6:src/PCB.cpp   **** #include "../h/syscall_c.h"
   7:src/PCB.cpp   **** 
   8:src/PCB.cpp   **** PCB* PCB::running = 0;
   9:src/PCB.cpp   **** PCB* PCB::exitingPCB = 0;
  10:src/PCB.cpp   **** uint64 PCB::timeSliceCounter = 0;
  11:src/PCB.cpp   **** 
  12:src/PCB.cpp   **** PCB::PCB(Body body, void *args, void* stack_space, uint64 timeSlice) :
  13:src/PCB.cpp   ****     timeSlice(timeSlice),
  14:src/PCB.cpp   ****     body(body),
  15:src/PCB.cpp   ****     args(args),
  16:src/PCB.cpp   ****     beginSP(stack_space),
  17:src/PCB.cpp   ****     context({
  18:src/PCB.cpp   ****         (uint64)((char*)stack_space + DEFAULT_STACK_SIZE),
  19:src/PCB.cpp   ****         (uint64)&PCB::runner
  20:src/PCB.cpp   ****     })
  21:src/PCB.cpp   **** {
  22:src/PCB.cpp   ****     Scheduler::put(this);
  23:src/PCB.cpp   ****     nextPCB = 0;
  24:src/PCB.cpp   **** }
  25:src/PCB.cpp   **** 
  26:src/PCB.cpp   **** void PCB::sleep(time_t time)
  27:src/PCB.cpp   **** {
  28:src/PCB.cpp   ****     //todo
  29:src/PCB.cpp   **** }
  30:src/PCB.cpp   **** 
  31:src/PCB.cpp   **** void PCB::start()
GAS LISTING /tmp/ccdDOmoR.s 			page 2


  32:src/PCB.cpp   **** {
  33:src/PCB.cpp   ****     Scheduler::put(this);
  34:src/PCB.cpp   **** }
  35:src/PCB.cpp   **** 
  36:src/PCB.cpp   **** //todo
  37:src/PCB.cpp   **** void PCB::runner()
  38:src/PCB.cpp   **** {
  20              		.loc 1 38 1
  21              		.cfi_startproc
  22 0000 130101FF 		addi	sp,sp,-16
  23              		.cfi_def_cfa_offset 16
  24 0004 23341100 		sd	ra,8(sp)
  25 0008 23308100 		sd	s0,0(sp)
  26              		.cfi_offset 1, -8
  27              		.cfi_offset 8, -16
  28 000c 13040101 		addi	s0,sp,16
  29              		.cfi_def_cfa 8, 0
  39:src/PCB.cpp   ****     Riscv::printString("Runner started...\n");
  30              		.loc 1 39 5
  31              		.loc 1 39 23 is_stmt 0
  32 0010 17050000 		lla	a0,.LC0
  32      13050500 
  33 0018 97000000 		call	_ZN5Riscv11printStringEPKc@plt
  33      E7800000 
  34              	.LVL0:
  40:src/PCB.cpp   ****     Riscv::popSppSpie();
  35              		.loc 1 40 5 is_stmt 1
  36              		.loc 1 40 22 is_stmt 0
  37 0020 97000000 		call	_ZN5Riscv10popSppSpieEv@plt
  37      E7800000 
  38              	.LVL1:
  41:src/PCB.cpp   **** 
  42:src/PCB.cpp   ****     running->body(running->args);
  39              		.loc 1 42 5 is_stmt 1
  40              		.loc 1 42 14 is_stmt 0
  41 0028 97070000 		ld	a5,.LANCHOR0
  41      83B70700 
  42 0030 03B70702 		ld	a4,32(a5)
  43              		.loc 1 42 18
  44 0034 03B58702 		ld	a0,40(a5)
  45 0038 E7000700 		jalr	a4
  46              	.LVL2:
  43:src/PCB.cpp   **** 
  44:src/PCB.cpp   ****     //todo
  45:src/PCB.cpp   ****     //da li ovde treba da se predje u kernel rezim mozda
  46:src/PCB.cpp   ****     //mozda moze da se iskoristi lock za neku promenljivu za PCB::running
  47:src/PCB.cpp   ****     //kako ne bi pristupalo vise niti tome, jer malo je
  48:src/PCB.cpp   ****     //nezgodna promena rezima ovde
  49:src/PCB.cpp   ****     //running->setState(PCB::FINISHED);
  50:src/PCB.cpp   ****     Riscv::printString("PCB finished\n");
  47              		.loc 1 50 5 is_stmt 1
  48              		.loc 1 50 23 is_stmt 0
  49 003c 17050000 		lla	a0,.LC1
  49      13050500 
  50 0044 97000000 		call	_ZN5Riscv11printStringEPKc@plt
  50      E7800000 
  51              	.LVL3:
GAS LISTING /tmp/ccdDOmoR.s 			page 3


  51:src/PCB.cpp   **** 
  52:src/PCB.cpp   ****     //todo
  53:src/PCB.cpp   ****     //da li thread_exit ili dispatch
  54:src/PCB.cpp   ****     thread_exit();
  52              		.loc 1 54 5 is_stmt 1
  53              		.loc 1 54 16 is_stmt 0
  54 004c 97000000 		call	thread_exit@plt
  54      E7800000 
  55              	.LVL4:
  55:src/PCB.cpp   ****     //thread_dispatch();
  56:src/PCB.cpp   **** }
  56              		.loc 1 56 1
  57 0054 83308100 		ld	ra,8(sp)
  58              		.cfi_restore 1
  59 0058 03340100 		ld	s0,0(sp)
  60              		.cfi_restore 8
  61              		.cfi_def_cfa 2, 16
  62 005c 13010101 		addi	sp,sp,16
  63              		.cfi_def_cfa_offset 0
  64 0060 67800000 		jr	ra
  65              		.cfi_endproc
  66              	.LFE26:
  68              		.align	2
  69              		.globl	_ZN3PCBC2EPFvPvES0_S0_m
  71              	_ZN3PCBC2EPFvPvES0_S0_m:
  72              	.LFB22:
  12:src/PCB.cpp   ****     timeSlice(timeSlice),
  73              		.loc 1 12 1 is_stmt 1
  74              		.cfi_startproc
  75              	.LVL5:
  76 0064 130101FE 		addi	sp,sp,-32
  77              		.cfi_def_cfa_offset 32
  78 0068 233C1100 		sd	ra,24(sp)
  79 006c 23388100 		sd	s0,16(sp)
  80 0070 23349100 		sd	s1,8(sp)
  81              		.cfi_offset 1, -8
  82              		.cfi_offset 8, -16
  83              		.cfi_offset 9, -24
  84 0074 13040102 		addi	s0,sp,32
  85              		.cfi_def_cfa 8, 0
  86 0078 93040500 		mv	s1,a0
  87              	.LBB8:
  20:src/PCB.cpp   **** {
  88              		.loc 1 20 6 is_stmt 0
  89 007c 23000500 		sb	zero,0(a0)
  90 0080 2338E500 		sd	a4,16(a0)
  91 0084 233C0500 		sd	zero,24(a0)
  92 0088 2330B502 		sd	a1,32(a0)
  93 008c 2334C502 		sd	a2,40(a0)
  94 0090 2338D502 		sd	a3,48(a0)
  18:src/PCB.cpp   ****         (uint64)&PCB::runner
  95              		.loc 1 18 37
  96 0094 B7170000 		li	a5,4096
  97 0098 B386F600 		add	a3,a3,a5
  98              	.LVL6:
  20:src/PCB.cpp   **** {
  99              		.loc 1 20 6
GAS LISTING /tmp/ccdDOmoR.s 			page 4


 100 009c 2330D504 		sd	a3,64(a0)
 101 00a0 97070000 		lla	a5,_ZN3PCB6runnerEv
 101      93870700 
 102 00a8 2334F504 		sd	a5,72(a0)
  22:src/PCB.cpp   ****     nextPCB = 0;
 103              		.loc 1 22 5 is_stmt 1
  22:src/PCB.cpp   ****     nextPCB = 0;
 104              		.loc 1 22 19 is_stmt 0
 105 00ac 97000000 		call	_ZN9Scheduler3putEP3PCB@plt
 105      E7800000 
 106              	.LVL7:
  23:src/PCB.cpp   **** }
 107              		.loc 1 23 5 is_stmt 1
  23:src/PCB.cpp   **** }
 108              		.loc 1 23 13 is_stmt 0
 109 00b4 23B40400 		sd	zero,8(s1)
 110              	.LBE8:
  24:src/PCB.cpp   **** 
 111              		.loc 1 24 1
 112 00b8 83308101 		ld	ra,24(sp)
 113              		.cfi_restore 1
 114 00bc 03340101 		ld	s0,16(sp)
 115              		.cfi_restore 8
 116              		.cfi_def_cfa 2, 32
 117 00c0 83348100 		ld	s1,8(sp)
 118              		.cfi_restore 9
 119              	.LVL8:
 120 00c4 13010102 		addi	sp,sp,32
 121              		.cfi_def_cfa_offset 0
 122 00c8 67800000 		jr	ra
 123              		.cfi_endproc
 124              	.LFE22:
 126              		.globl	_ZN3PCBC1EPFvPvES0_S0_m
 127              		.set	_ZN3PCBC1EPFvPvES0_S0_m,_ZN3PCBC2EPFvPvES0_S0_m
 128              		.align	2
 129              		.globl	_ZN3PCB5sleepEm
 131              	_ZN3PCB5sleepEm:
 132              	.LFB24:
  27:src/PCB.cpp   ****     //todo
 133              		.loc 1 27 1 is_stmt 1
 134              		.cfi_startproc
 135              	.LVL9:
 136 00cc 130101FF 		addi	sp,sp,-16
 137              		.cfi_def_cfa_offset 16
 138 00d0 23348100 		sd	s0,8(sp)
 139              		.cfi_offset 8, -8
 140 00d4 13040101 		addi	s0,sp,16
 141              		.cfi_def_cfa 8, 0
  29:src/PCB.cpp   **** 
 142              		.loc 1 29 1 is_stmt 0
 143 00d8 03348100 		ld	s0,8(sp)
 144              		.cfi_restore 8
 145              		.cfi_def_cfa 2, 16
 146 00dc 13010101 		addi	sp,sp,16
 147              		.cfi_def_cfa_offset 0
 148 00e0 67800000 		jr	ra
 149              		.cfi_endproc
GAS LISTING /tmp/ccdDOmoR.s 			page 5


 150              	.LFE24:
 152              		.align	2
 153              		.globl	_ZN3PCB5startEv
 155              	_ZN3PCB5startEv:
 156              	.LFB25:
  32:src/PCB.cpp   ****     Scheduler::put(this);
 157              		.loc 1 32 1 is_stmt 1
 158              		.cfi_startproc
 159              	.LVL10:
 160 00e4 130101FF 		addi	sp,sp,-16
 161              		.cfi_def_cfa_offset 16
 162 00e8 23341100 		sd	ra,8(sp)
 163 00ec 23308100 		sd	s0,0(sp)
 164              		.cfi_offset 1, -8
 165              		.cfi_offset 8, -16
 166 00f0 13040101 		addi	s0,sp,16
 167              		.cfi_def_cfa 8, 0
  33:src/PCB.cpp   **** }
 168              		.loc 1 33 5
  33:src/PCB.cpp   **** }
 169              		.loc 1 33 19 is_stmt 0
 170 00f4 97000000 		call	_ZN9Scheduler3putEP3PCB@plt
 170      E7800000 
 171              	.LVL11:
  34:src/PCB.cpp   **** 
 172              		.loc 1 34 1
 173 00fc 83308100 		ld	ra,8(sp)
 174              		.cfi_restore 1
 175 0100 03340100 		ld	s0,0(sp)
 176              		.cfi_restore 8
 177              		.cfi_def_cfa 2, 16
 178 0104 13010101 		addi	sp,sp,16
 179              		.cfi_def_cfa_offset 0
 180 0108 67800000 		jr	ra
 181              		.cfi_endproc
 182              	.LFE25:
 184              		.align	2
 185              		.globl	_ZN3PCB8dispatchEv
 187              	_ZN3PCB8dispatchEv:
 188              	.LFB27:
  57:src/PCB.cpp   **** 
  58:src/PCB.cpp   **** void PCB::dispatch()
  59:src/PCB.cpp   **** {
 189              		.loc 1 59 1 is_stmt 1
 190              		.cfi_startproc
 191 010c 130101FE 		addi	sp,sp,-32
 192              		.cfi_def_cfa_offset 32
 193 0110 233C1100 		sd	ra,24(sp)
 194 0114 23388100 		sd	s0,16(sp)
 195 0118 23349100 		sd	s1,8(sp)
 196              		.cfi_offset 1, -8
 197              		.cfi_offset 8, -16
 198              		.cfi_offset 9, -24
 199 011c 13040102 		addi	s0,sp,32
 200              		.cfi_def_cfa 8, 0
  60:src/PCB.cpp   ****     //Riscv::printString("Dispatch called...\n");
  61:src/PCB.cpp   ****     PCB* old = running;
GAS LISTING /tmp/ccdDOmoR.s 			page 6


 201              		.loc 1 61 5
 202              		.loc 1 61 10 is_stmt 0
 203 0120 97040000 		ld	s1,.LANCHOR0
 203      83B40400 
 204              	.LVL12:
  62:src/PCB.cpp   ****     if(old->getState() == PCB::RUNNING)
 205              		.loc 1 62 5 is_stmt 1
 206              	.LBB9:
 207              	.LBB10:
 208              		.file 2 "src/../h/PCB.hpp"
   1:src/../h/PCB.hpp **** //
   2:src/../h/PCB.hpp **** // Created by os on 4/27/22.
   3:src/../h/PCB.hpp **** //
   4:src/../h/PCB.hpp **** 
   5:src/../h/PCB.hpp **** #ifndef PROJECT_BASE_V1_0_PCB_HPP
   6:src/../h/PCB.hpp **** #define PROJECT_BASE_V1_0_PCB_HPP
   7:src/../h/PCB.hpp **** 
   8:src/../h/PCB.hpp **** #include "../lib/hw.h"
   9:src/../h/PCB.hpp **** #include "Scheduler.hpp"
  10:src/../h/PCB.hpp **** #include "Riscv.hpp"
  11:src/../h/PCB.hpp **** 
  12:src/../h/PCB.hpp **** class PCB
  13:src/../h/PCB.hpp **** {
  14:src/../h/PCB.hpp **** public:
  15:src/../h/PCB.hpp ****     using Body = void (*)(void*);
  16:src/../h/PCB.hpp **** 
  17:src/../h/PCB.hpp ****     PCB(Body body,  void* args, void* stack_space, uint64 timeSlice);
  18:src/../h/PCB.hpp ****     ~PCB();
  19:src/../h/PCB.hpp **** 
  20:src/../h/PCB.hpp ****     void start();
  21:src/../h/PCB.hpp ****     static void dispatch();
  22:src/../h/PCB.hpp ****     static void sleep(time_t);
  23:src/../h/PCB.hpp **** 
  24:src/../h/PCB.hpp ****     static PCB* running;
  25:src/../h/PCB.hpp ****     static PCB* exitingPCB;
  26:src/../h/PCB.hpp **** 
  27:src/../h/PCB.hpp ****     static uint64 timeSliceCounter;
  28:src/../h/PCB.hpp ****     uint64 getTimeSlice() { return timeSlice;}
  29:src/../h/PCB.hpp **** 
  30:src/../h/PCB.hpp ****     void* operator new(size_t size);
  31:src/../h/PCB.hpp ****     void operator delete(void *p);
  32:src/../h/PCB.hpp **** 
  33:src/../h/PCB.hpp ****     enum State{READY, RUNNING, SUSPENDED, FINISHED, EXITING, SLEEPING};
  34:src/../h/PCB.hpp ****     State getState() {return state;}
 209              		.loc 2 34 23
 210              		.loc 2 34 30 is_stmt 0
 211 0128 03A78403 		lw	a4,56(s1)
 212              	.LVL13:
 213              	.LBE10:
 214              	.LBE9:
 215              		.loc 1 62 5
 216 012c 93071000 		li	a5,1
 217 0130 6300F704 		beq	a4,a5,.L12
 218              	.L10:
  63:src/PCB.cpp   ****         Scheduler::put(old);
  64:src/PCB.cpp   ****     PCB::running = Scheduler::get();
 219              		.loc 1 64 5 is_stmt 1
GAS LISTING /tmp/ccdDOmoR.s 			page 7


 220              		.loc 1 64 34 is_stmt 0
 221 0134 97000000 		call	_ZN9Scheduler3getEv@plt
 221      E7800000 
 222              	.LVL14:
 223              		.loc 1 64 18
 224 013c 97070000 		sd	a0,.LANCHOR0,a5
 224      23B0A700 
  65:src/PCB.cpp   ****     PCB::running->setState(PCB::RUNNING);
 225              		.loc 1 65 5 is_stmt 1
 226              	.LVL15:
 227              	.LBB11:
 228              	.LBB12:
  35:src/../h/PCB.hpp ****     void setState(State s) {state = s;}
 229              		.loc 2 35 29
 230              		.loc 2 35 35 is_stmt 0
 231 0144 93071000 		li	a5,1
 232 0148 232CF502 		sw	a5,56(a0)
 233              	.LVL16:
 234              	.LBE12:
 235              	.LBE11:
  66:src/PCB.cpp   ****     //Riscv::printString("Switching context...\n");
  67:src/PCB.cpp   **** 
  68:src/PCB.cpp   ****     PCB::contextSwitch(&old->context, &running->context);
 236              		.loc 1 68 5 is_stmt 1
 237              		.loc 1 68 23 is_stmt 0
 238 014c 93050504 		addi	a1,a0,64
 239 0150 13850404 		addi	a0,s1,64
 240 0154 97000000 		call	_ZN3PCB13contextSwitchEPNS_7ContextES1_@plt
 240      E7800000 
 241              	.LVL17:
  69:src/PCB.cpp   **** }
 242              		.loc 1 69 1
 243 015c 83308101 		ld	ra,24(sp)
 244              		.cfi_remember_state
 245              		.cfi_restore 1
 246 0160 03340101 		ld	s0,16(sp)
 247              		.cfi_restore 8
 248              		.cfi_def_cfa 2, 32
 249 0164 83348100 		ld	s1,8(sp)
 250              		.cfi_restore 9
 251              	.LVL18:
 252 0168 13010102 		addi	sp,sp,32
 253              		.cfi_def_cfa_offset 0
 254 016c 67800000 		jr	ra
 255              	.LVL19:
 256              	.L12:
 257              		.cfi_restore_state
  63:src/PCB.cpp   ****     PCB::running = Scheduler::get();
 258              		.loc 1 63 9 is_stmt 1
  63:src/PCB.cpp   ****     PCB::running = Scheduler::get();
 259              		.loc 1 63 23 is_stmt 0
 260 0170 13850400 		mv	a0,s1
 261 0174 97000000 		call	_ZN9Scheduler3putEP3PCB@plt
 261      E7800000 
 262              	.LVL20:
 263 017c 6FF09FFB 		j	.L10
 264              		.cfi_endproc
GAS LISTING /tmp/ccdDOmoR.s 			page 8


 265              	.LFE27:
 267              		.align	2
 268              		.globl	_ZN3PCBnwEm
 270              	_ZN3PCBnwEm:
 271              	.LFB28:
  70:src/PCB.cpp   **** 
  71:src/PCB.cpp   **** void *PCB::operator new(size_t size) {
 272              		.loc 1 71 38 is_stmt 1
 273              		.cfi_startproc
 274              	.LVL21:
 275 0180 130101FF 		addi	sp,sp,-16
 276              		.cfi_def_cfa_offset 16
 277 0184 23341100 		sd	ra,8(sp)
 278 0188 23308100 		sd	s0,0(sp)
 279              		.cfi_offset 1, -8
 280              		.cfi_offset 8, -16
 281 018c 13040101 		addi	s0,sp,16
 282              		.cfi_def_cfa 8, 0
  72:src/PCB.cpp   ****     return kmalloc(size);
 283              		.loc 1 72 5
 284              		.loc 1 72 19 is_stmt 0
 285 0190 97000000 		call	_Z7kmallocm@plt
 285      E7800000 
 286              	.LVL22:
  73:src/PCB.cpp   **** }
 287              		.loc 1 73 1
 288 0198 83308100 		ld	ra,8(sp)
 289              		.cfi_restore 1
 290 019c 03340100 		ld	s0,0(sp)
 291              		.cfi_restore 8
 292              		.cfi_def_cfa 2, 16
 293 01a0 13010101 		addi	sp,sp,16
 294              		.cfi_def_cfa_offset 0
 295 01a4 67800000 		jr	ra
 296              		.cfi_endproc
 297              	.LFE28:
 299              		.align	2
 300              		.globl	_ZN3PCBdlEPv
 302              	_ZN3PCBdlEPv:
 303              	.LFB29:
  74:src/PCB.cpp   **** 
  75:src/PCB.cpp   **** void PCB::operator delete(void *p) {
 304              		.loc 1 75 36 is_stmt 1
 305              		.cfi_startproc
 306              	.LVL23:
 307 01a8 130101FF 		addi	sp,sp,-16
 308              		.cfi_def_cfa_offset 16
 309 01ac 23341100 		sd	ra,8(sp)
 310 01b0 23308100 		sd	s0,0(sp)
 311              		.cfi_offset 1, -8
 312              		.cfi_offset 8, -16
 313 01b4 13040101 		addi	s0,sp,16
 314              		.cfi_def_cfa 8, 0
  76:src/PCB.cpp   ****     kfree(p);
 315              		.loc 1 76 5
 316              		.loc 1 76 10 is_stmt 0
 317 01b8 97000000 		call	_Z5kfreePv@plt
GAS LISTING /tmp/ccdDOmoR.s 			page 9


 317      E7800000 
 318              	.LVL24:
  77:src/PCB.cpp   **** }
 319              		.loc 1 77 1
 320 01c0 83308100 		ld	ra,8(sp)
 321              		.cfi_restore 1
 322 01c4 03340100 		ld	s0,0(sp)
 323              		.cfi_restore 8
 324              		.cfi_def_cfa 2, 16
 325 01c8 13010101 		addi	sp,sp,16
 326              		.cfi_def_cfa_offset 0
 327 01cc 67800000 		jr	ra
 328              		.cfi_endproc
 329              	.LFE29:
 331              		.align	2
 332              		.globl	_ZN3PCBD2Ev
 334              	_ZN3PCBD2Ev:
 335              	.LFB31:
  78:src/PCB.cpp   **** 
  79:src/PCB.cpp   **** PCB::~PCB() {
 336              		.loc 1 79 1 is_stmt 1
 337              		.cfi_startproc
 338              		.cfi_personality 0x9b,DW.ref.__gxx_personality_v0
 339              		.cfi_lsda 0x1b,.LLSDA31
 340              	.LVL25:
 341 01d0 130101FF 		addi	sp,sp,-16
 342              		.cfi_def_cfa_offset 16
 343 01d4 23341100 		sd	ra,8(sp)
 344 01d8 23308100 		sd	s0,0(sp)
 345              		.cfi_offset 1, -8
 346              		.cfi_offset 8, -16
 347 01dc 13040101 		addi	s0,sp,16
 348              		.cfi_def_cfa 8, 0
 349              	.LBB13:
  80:src/PCB.cpp   ****     kfree(beginSP);
 350              		.loc 1 80 5
 351              		.loc 1 80 10 is_stmt 0
 352 01e0 03350503 		ld	a0,48(a0)
 353              	.LVL26:
 354 01e4 97000000 		call	_Z5kfreePv@plt
 354      E7800000 
 355              	.LVL27:
 356              	.LBE13:
  81:src/PCB.cpp   **** }
 357              		.loc 1 81 1
 358 01ec 83308100 		ld	ra,8(sp)
 359              		.cfi_restore 1
 360 01f0 03340100 		ld	s0,0(sp)
 361              		.cfi_restore 8
 362              		.cfi_def_cfa 2, 16
 363 01f4 13010101 		addi	sp,sp,16
 364              		.cfi_def_cfa_offset 0
 365 01f8 67800000 		jr	ra
 366              		.cfi_endproc
 367              	.LFE31:
 368              		.globl	__gxx_personality_v0
 369              		.section	.gcc_except_table,"a",@progbits
GAS LISTING /tmp/ccdDOmoR.s 			page 10


 370              	.LLSDA31:
 371 0000 FF       		.byte	0xff
 372 0001 FF       		.byte	0xff
 373 0002 03       		.byte	0x3
 374 0003 00       		.byte	0
 375              		.text
 377              		.globl	_ZN3PCBD1Ev
 378              		.set	_ZN3PCBD1Ev,_ZN3PCBD2Ev
 379              		.align	2
 380              		.globl	_ZN3PCB10initializeEv
 382              	_ZN3PCB10initializeEv:
 383              	.LFB33:
  82:src/PCB.cpp   **** 
  83:src/PCB.cpp   **** void PCB::initialize()
  84:src/PCB.cpp   **** {
 384              		.loc 1 84 1 is_stmt 1
 385              		.cfi_startproc
 386              		.cfi_personality 0x9b,DW.ref.__gxx_personality_v0
 387              		.cfi_lsda 0x1b,.LLSDA33
 388 01fc 130101FE 		addi	sp,sp,-32
 389              		.cfi_def_cfa_offset 32
 390 0200 233C1100 		sd	ra,24(sp)
 391 0204 23388100 		sd	s0,16(sp)
 392 0208 23349100 		sd	s1,8(sp)
 393 020c 23302101 		sd	s2,0(sp)
 394              		.cfi_offset 1, -8
 395              		.cfi_offset 8, -16
 396              		.cfi_offset 9, -24
 397              		.cfi_offset 18, -32
 398 0210 13040102 		addi	s0,sp,32
 399              		.cfi_def_cfa 8, 0
  85:src/PCB.cpp   ****     PCB* mainSystem = new PCB(0, 0, 0, 0);
 400              		.loc 1 85 5
 401              		.loc 1 85 41 is_stmt 0
 402 0214 13058005 		li	a0,88
 403              	.LEHB0:
 404 0218 97000000 		call	_ZN3PCBnwEm
 404      E7800000 
 405              	.LVL28:
 406              	.LEHE0:
 407 0220 93040500 		mv	s1,a0
 408 0224 13070000 		li	a4,0
 409 0228 93060000 		li	a3,0
 410 022c 13060000 		li	a2,0
 411 0230 93050000 		li	a1,0
 412              	.LEHB1:
 413 0234 97000000 		call	_ZN3PCBC1EPFvPvES0_S0_m
 413      E7800000 
 414              	.LVL29:
 415              	.LEHE1:
  86:src/PCB.cpp   ****     mainSystem->systemThread = true;
 416              		.loc 1 86 5 is_stmt 1 discriminator 2
 417              		.loc 1 86 30 is_stmt 0 discriminator 2
 418 023c 93071000 		li	a5,1
 419 0240 2380F400 		sb	a5,0(s1)
  87:src/PCB.cpp   ****     PCB::running = Scheduler::get();
 420              		.loc 1 87 5 is_stmt 1 discriminator 2
GAS LISTING /tmp/ccdDOmoR.s 			page 11


 421              	.LEHB2:
 422              		.loc 1 87 34 is_stmt 0 discriminator 2
 423 0244 97000000 		call	_ZN9Scheduler3getEv@plt
 423      E7800000 
 424              	.LVL30:
 425              	.LEHE2:
 426              		.loc 1 87 18 discriminator 2
 427 024c 97070000 		sd	a0,.LANCHOR0,a5
 427      23B0A700 
  88:src/PCB.cpp   ****     PCB::running->setState(PCB::RUNNING);
 428              		.loc 1 88 5 is_stmt 1 discriminator 2
 429              	.LVL31:
 430              	.LBB14:
 431              	.LBB15:
 432              		.loc 2 35 29 discriminator 2
 433              		.loc 2 35 35 is_stmt 0 discriminator 2
 434 0254 93071000 		li	a5,1
 435 0258 232CF502 		sw	a5,56(a0)
 436              	.LVL32:
 437              	.LBE15:
 438              	.LBE14:
  89:src/PCB.cpp   **** }
 439              		.loc 1 89 1 discriminator 2
 440 025c 83308101 		ld	ra,24(sp)
 441              		.cfi_remember_state
 442              		.cfi_restore 1
 443 0260 03340101 		ld	s0,16(sp)
 444              		.cfi_restore 8
 445              		.cfi_def_cfa 2, 32
 446 0264 83348100 		ld	s1,8(sp)
 447              		.cfi_restore 9
 448              	.LVL33:
 449 0268 03390100 		ld	s2,0(sp)
 450              		.cfi_restore 18
 451 026c 13010102 		addi	sp,sp,32
 452              		.cfi_def_cfa_offset 0
 453 0270 67800000 		jr	ra
 454              	.L21:
 455              		.cfi_restore_state
 456 0274 13090500 		mv	s2,a0
  85:src/PCB.cpp   ****     mainSystem->systemThread = true;
 457              		.loc 1 85 41
 458 0278 13850400 		mv	a0,s1
 459 027c 97000000 		call	_ZN3PCBdlEPv
 459      E7800000 
 460              	.LVL34:
 461 0284 13050900 		mv	a0,s2
 462              	.LEHB3:
 463 0288 97000000 		call	_Unwind_Resume@plt
 463      E7800000 
 464              	.LVL35:
 465              	.LEHE3:
 466              		.cfi_endproc
 467              	.LFE33:
 468              		.section	.gcc_except_table
 469              	.LLSDA33:
 470 0004 FF       		.byte	0xff
GAS LISTING /tmp/ccdDOmoR.s 			page 12


 471 0005 FF       		.byte	0xff
 472 0006 03       		.byte	0x3
 473 0007 34       		.byte	0x34
 474 0008 00000000 		.4byte	.LEHB0-.LFB33
 475 000c 00000000 		.4byte	.LEHE0-.LEHB0
 476 0010 00000000 		.4byte	0
 477 0014 00       		.byte	0
 478 0015 00000000 		.4byte	.LEHB1-.LFB33
 479 0019 00000000 		.4byte	.LEHE1-.LEHB1
 480 001d 00000000 		.4byte	.L21-.LFB33
 481 0021 00       		.byte	0
 482 0022 00000000 		.4byte	.LEHB2-.LFB33
 483 0026 00000000 		.4byte	.LEHE2-.LEHB2
 484 002a 00000000 		.4byte	0
 485 002e 00       		.byte	0
 486 002f 00000000 		.4byte	.LEHB3-.LFB33
 487 0033 00000000 		.4byte	.LEHE3-.LEHB3
 488 0037 00000000 		.4byte	0
 489 003b 00       		.byte	0
 490              		.text
 492              		.globl	_ZN3PCB16timeSliceCounterE
 493              		.globl	_ZN3PCB10exitingPCBE
 494              		.globl	_ZN3PCB7runningE
 495              		.bss
 496              		.align	3
 497              		.set	.LANCHOR0,. + 0
 500              	_ZN3PCB7runningE:
 501 0000 00000000 		.zero	8
 501      00000000 
 504              	_ZN3PCB16timeSliceCounterE:
 505 0008 00000000 		.zero	8
 505      00000000 
 508              	_ZN3PCB10exitingPCBE:
 509 0010 00000000 		.zero	8
 509      00000000 
 510              		.text
 511              	.Letext0:
 512              		.file 3 "src/../h/../lib/hw.h"
 513              		.file 4 "src/../h/Queue.hpp"
 514              		.file 5 "src/../h/Scheduler.hpp"
 515              		.file 6 "src/../h/Riscv.hpp"
 516              		.file 7 "src/../h/MemoryAllocator.hpp"
 517              		.file 8 "src/../h/syscall_c.h"
 3789              		.align	3
 3792              	DW.ref.__gxx_personality_v0:
 3793 0000 00000000 		.dword	__gxx_personality_v0
 3793      00000000 
 3794              		.ident	"GCC: (Ubuntu 9.3.0-17ubuntu1~20.04) 9.3.0"
 3795              		.section	.note.GNU-stack,"",@progbits
GAS LISTING /tmp/ccdDOmoR.s 			page 13


DEFINED SYMBOLS
                            *ABS*:0000000000000000 PCB.cpp
     /tmp/ccdDOmoR.s:17     .text:0000000000000000 _ZN3PCB6runnerEv
     /tmp/ccdDOmoR.s:21     .text:0000000000000000 .L0 
     /tmp/ccdDOmoR.s:22     .text:0000000000000000 .L0 
     /tmp/ccdDOmoR.s:23     .text:0000000000000004 .L0 
     /tmp/ccdDOmoR.s:26     .text:000000000000000c .L0 
     /tmp/ccdDOmoR.s:27     .text:000000000000000c .L0 
     /tmp/ccdDOmoR.s:29     .text:0000000000000010 .L0 
     /tmp/ccdDOmoR.s:31     .text:0000000000000010 .L0 
     /tmp/ccdDOmoR.s:32     .text:0000000000000010 .L0 
     /tmp/ccdDOmoR.s:36     .text:0000000000000020 .L0 
     /tmp/ccdDOmoR.s:37     .text:0000000000000020 .L0 
     /tmp/ccdDOmoR.s:40     .text:0000000000000028 .L0 
     /tmp/ccdDOmoR.s:41     .text:0000000000000028 .L0 
     /tmp/ccdDOmoR.s:44     .text:0000000000000034 .L0 
     /tmp/ccdDOmoR.s:48     .text:000000000000003c .L0 
     /tmp/ccdDOmoR.s:49     .text:000000000000003c .L0 
     /tmp/ccdDOmoR.s:53     .text:000000000000004c .L0 
     /tmp/ccdDOmoR.s:54     .text:000000000000004c .L0 
     /tmp/ccdDOmoR.s:57     .text:0000000000000054 .L0 
     /tmp/ccdDOmoR.s:58     .text:0000000000000058 .L0 
     /tmp/ccdDOmoR.s:60     .text:000000000000005c .L0 
     /tmp/ccdDOmoR.s:61     .text:000000000000005c .L0 
     /tmp/ccdDOmoR.s:63     .text:0000000000000060 .L0 
     /tmp/ccdDOmoR.s:65     .text:0000000000000064 .L0 
     /tmp/ccdDOmoR.s:71     .text:0000000000000064 _ZN3PCBC2EPFvPvES0_S0_m
     /tmp/ccdDOmoR.s:74     .text:0000000000000064 .L0 
     /tmp/ccdDOmoR.s:76     .text:0000000000000064 .L0 
     /tmp/ccdDOmoR.s:77     .text:0000000000000068 .L0 
     /tmp/ccdDOmoR.s:81     .text:0000000000000074 .L0 
     /tmp/ccdDOmoR.s:82     .text:0000000000000074 .L0 
     /tmp/ccdDOmoR.s:83     .text:0000000000000074 .L0 
     /tmp/ccdDOmoR.s:85     .text:0000000000000078 .L0 
     /tmp/ccdDOmoR.s:89     .text:000000000000007c .L0 
     /tmp/ccdDOmoR.s:96     .text:0000000000000094 .L0 
     /tmp/ccdDOmoR.s:100    .text:000000000000009c .L0 
     /tmp/ccdDOmoR.s:104    .text:00000000000000ac .L0 
     /tmp/ccdDOmoR.s:105    .text:00000000000000ac .L0 
     /tmp/ccdDOmoR.s:108    .text:00000000000000b4 .L0 
     /tmp/ccdDOmoR.s:109    .text:00000000000000b4 .L0 
     /tmp/ccdDOmoR.s:112    .text:00000000000000b8 .L0 
     /tmp/ccdDOmoR.s:113    .text:00000000000000bc .L0 
     /tmp/ccdDOmoR.s:115    .text:00000000000000c0 .L0 
     /tmp/ccdDOmoR.s:116    .text:00000000000000c0 .L0 
     /tmp/ccdDOmoR.s:118    .text:00000000000000c4 .L0 
     /tmp/ccdDOmoR.s:121    .text:00000000000000c8 .L0 
     /tmp/ccdDOmoR.s:123    .text:00000000000000cc .L0 
     /tmp/ccdDOmoR.s:71     .text:0000000000000064 _ZN3PCBC1EPFvPvES0_S0_m
     /tmp/ccdDOmoR.s:131    .text:00000000000000cc _ZN3PCB5sleepEm
     /tmp/ccdDOmoR.s:134    .text:00000000000000cc .L0 
     /tmp/ccdDOmoR.s:136    .text:00000000000000cc .L0 
     /tmp/ccdDOmoR.s:137    .text:00000000000000d0 .L0 
     /tmp/ccdDOmoR.s:139    .text:00000000000000d4 .L0 
     /tmp/ccdDOmoR.s:141    .text:00000000000000d8 .L0 
     /tmp/ccdDOmoR.s:143    .text:00000000000000d8 .L0 
     /tmp/ccdDOmoR.s:144    .text:00000000000000dc .L0 
GAS LISTING /tmp/ccdDOmoR.s 			page 14


     /tmp/ccdDOmoR.s:145    .text:00000000000000dc .L0 
     /tmp/ccdDOmoR.s:147    .text:00000000000000e0 .L0 
     /tmp/ccdDOmoR.s:149    .text:00000000000000e4 .L0 
     /tmp/ccdDOmoR.s:155    .text:00000000000000e4 _ZN3PCB5startEv
     /tmp/ccdDOmoR.s:158    .text:00000000000000e4 .L0 
     /tmp/ccdDOmoR.s:160    .text:00000000000000e4 .L0 
     /tmp/ccdDOmoR.s:161    .text:00000000000000e8 .L0 
     /tmp/ccdDOmoR.s:164    .text:00000000000000f0 .L0 
     /tmp/ccdDOmoR.s:165    .text:00000000000000f0 .L0 
     /tmp/ccdDOmoR.s:167    .text:00000000000000f4 .L0 
     /tmp/ccdDOmoR.s:169    .text:00000000000000f4 .L0 
     /tmp/ccdDOmoR.s:170    .text:00000000000000f4 .L0 
     /tmp/ccdDOmoR.s:173    .text:00000000000000fc .L0 
     /tmp/ccdDOmoR.s:174    .text:0000000000000100 .L0 
     /tmp/ccdDOmoR.s:176    .text:0000000000000104 .L0 
     /tmp/ccdDOmoR.s:177    .text:0000000000000104 .L0 
     /tmp/ccdDOmoR.s:179    .text:0000000000000108 .L0 
     /tmp/ccdDOmoR.s:181    .text:000000000000010c .L0 
     /tmp/ccdDOmoR.s:187    .text:000000000000010c _ZN3PCB8dispatchEv
     /tmp/ccdDOmoR.s:190    .text:000000000000010c .L0 
     /tmp/ccdDOmoR.s:191    .text:000000000000010c .L0 
     /tmp/ccdDOmoR.s:192    .text:0000000000000110 .L0 
     /tmp/ccdDOmoR.s:196    .text:000000000000011c .L0 
     /tmp/ccdDOmoR.s:197    .text:000000000000011c .L0 
     /tmp/ccdDOmoR.s:198    .text:000000000000011c .L0 
     /tmp/ccdDOmoR.s:200    .text:0000000000000120 .L0 
     /tmp/ccdDOmoR.s:202    .text:0000000000000120 .L0 
     /tmp/ccdDOmoR.s:203    .text:0000000000000120 .L0 
     /tmp/ccdDOmoR.s:209    .text:0000000000000128 .L0 
     /tmp/ccdDOmoR.s:210    .text:0000000000000128 .L0 
     /tmp/ccdDOmoR.s:211    .text:0000000000000128 .L0 
     /tmp/ccdDOmoR.s:216    .text:000000000000012c .L0 
     /tmp/ccdDOmoR.s:220    .text:0000000000000134 .L0 
     /tmp/ccdDOmoR.s:221    .text:0000000000000134 .L0 
     /tmp/ccdDOmoR.s:224    .text:000000000000013c .L0 
     /tmp/ccdDOmoR.s:229    .text:0000000000000144 .L0 
     /tmp/ccdDOmoR.s:230    .text:0000000000000144 .L0 
     /tmp/ccdDOmoR.s:231    .text:0000000000000144 .L0 
     /tmp/ccdDOmoR.s:237    .text:000000000000014c .L0 
     /tmp/ccdDOmoR.s:238    .text:000000000000014c .L0 
     /tmp/ccdDOmoR.s:243    .text:000000000000015c .L0 
     /tmp/ccdDOmoR.s:244    .text:0000000000000160 .L0 
     /tmp/ccdDOmoR.s:245    .text:0000000000000160 .L0 
     /tmp/ccdDOmoR.s:247    .text:0000000000000164 .L0 
     /tmp/ccdDOmoR.s:248    .text:0000000000000164 .L0 
     /tmp/ccdDOmoR.s:250    .text:0000000000000168 .L0 
     /tmp/ccdDOmoR.s:253    .text:000000000000016c .L0 
     /tmp/ccdDOmoR.s:257    .text:0000000000000170 .L0 
     /tmp/ccdDOmoR.s:259    .text:0000000000000170 .L0 
     /tmp/ccdDOmoR.s:260    .text:0000000000000170 .L0 
     /tmp/ccdDOmoR.s:264    .text:0000000000000180 .L0 
     /tmp/ccdDOmoR.s:270    .text:0000000000000180 _ZN3PCBnwEm
     /tmp/ccdDOmoR.s:273    .text:0000000000000180 .L0 
     /tmp/ccdDOmoR.s:275    .text:0000000000000180 .L0 
     /tmp/ccdDOmoR.s:276    .text:0000000000000184 .L0 
     /tmp/ccdDOmoR.s:279    .text:000000000000018c .L0 
     /tmp/ccdDOmoR.s:280    .text:000000000000018c .L0 
GAS LISTING /tmp/ccdDOmoR.s 			page 15


     /tmp/ccdDOmoR.s:282    .text:0000000000000190 .L0 
     /tmp/ccdDOmoR.s:284    .text:0000000000000190 .L0 
     /tmp/ccdDOmoR.s:285    .text:0000000000000190 .L0 
     /tmp/ccdDOmoR.s:288    .text:0000000000000198 .L0 
     /tmp/ccdDOmoR.s:289    .text:000000000000019c .L0 
     /tmp/ccdDOmoR.s:291    .text:00000000000001a0 .L0 
     /tmp/ccdDOmoR.s:292    .text:00000000000001a0 .L0 
     /tmp/ccdDOmoR.s:294    .text:00000000000001a4 .L0 
     /tmp/ccdDOmoR.s:296    .text:00000000000001a8 .L0 
     /tmp/ccdDOmoR.s:302    .text:00000000000001a8 _ZN3PCBdlEPv
     /tmp/ccdDOmoR.s:305    .text:00000000000001a8 .L0 
     /tmp/ccdDOmoR.s:307    .text:00000000000001a8 .L0 
     /tmp/ccdDOmoR.s:308    .text:00000000000001ac .L0 
     /tmp/ccdDOmoR.s:311    .text:00000000000001b4 .L0 
     /tmp/ccdDOmoR.s:312    .text:00000000000001b4 .L0 
     /tmp/ccdDOmoR.s:314    .text:00000000000001b8 .L0 
     /tmp/ccdDOmoR.s:316    .text:00000000000001b8 .L0 
     /tmp/ccdDOmoR.s:317    .text:00000000000001b8 .L0 
     /tmp/ccdDOmoR.s:320    .text:00000000000001c0 .L0 
     /tmp/ccdDOmoR.s:321    .text:00000000000001c4 .L0 
     /tmp/ccdDOmoR.s:323    .text:00000000000001c8 .L0 
     /tmp/ccdDOmoR.s:324    .text:00000000000001c8 .L0 
     /tmp/ccdDOmoR.s:326    .text:00000000000001cc .L0 
     /tmp/ccdDOmoR.s:328    .text:00000000000001d0 .L0 
     /tmp/ccdDOmoR.s:334    .text:00000000000001d0 _ZN3PCBD2Ev
     /tmp/ccdDOmoR.s:337    .text:00000000000001d0 .L0 
     /tmp/ccdDOmoR.s:3792   .data.rel.local.DW.ref.__gxx_personality_v0:0000000000000000 DW.ref.__gxx_personality_v0
     /tmp/ccdDOmoR.s:341    .text:00000000000001d0 .L0 
     /tmp/ccdDOmoR.s:342    .text:00000000000001d4 .L0 
     /tmp/ccdDOmoR.s:345    .text:00000000000001dc .L0 
     /tmp/ccdDOmoR.s:346    .text:00000000000001dc .L0 
     /tmp/ccdDOmoR.s:348    .text:00000000000001e0 .L0 
     /tmp/ccdDOmoR.s:351    .text:00000000000001e0 .L0 
     /tmp/ccdDOmoR.s:352    .text:00000000000001e0 .L0 
     /tmp/ccdDOmoR.s:358    .text:00000000000001ec .L0 
     /tmp/ccdDOmoR.s:359    .text:00000000000001f0 .L0 
     /tmp/ccdDOmoR.s:361    .text:00000000000001f4 .L0 
     /tmp/ccdDOmoR.s:362    .text:00000000000001f4 .L0 
     /tmp/ccdDOmoR.s:364    .text:00000000000001f8 .L0 
     /tmp/ccdDOmoR.s:366    .text:00000000000001fc .L0 
     /tmp/ccdDOmoR.s:334    .text:00000000000001d0 _ZN3PCBD1Ev
     /tmp/ccdDOmoR.s:382    .text:00000000000001fc _ZN3PCB10initializeEv
     /tmp/ccdDOmoR.s:385    .text:00000000000001fc .L0 
     /tmp/ccdDOmoR.s:388    .text:00000000000001fc .L0 
     /tmp/ccdDOmoR.s:389    .text:0000000000000200 .L0 
     /tmp/ccdDOmoR.s:394    .text:0000000000000210 .L0 
     /tmp/ccdDOmoR.s:395    .text:0000000000000210 .L0 
     /tmp/ccdDOmoR.s:396    .text:0000000000000210 .L0 
     /tmp/ccdDOmoR.s:397    .text:0000000000000210 .L0 
     /tmp/ccdDOmoR.s:399    .text:0000000000000214 .L0 
     /tmp/ccdDOmoR.s:401    .text:0000000000000214 .L0 
     /tmp/ccdDOmoR.s:402    .text:0000000000000214 .L0 
     /tmp/ccdDOmoR.s:417    .text:000000000000023c .L0 
     /tmp/ccdDOmoR.s:418    .text:000000000000023c .L0 
     /tmp/ccdDOmoR.s:422    .text:0000000000000244 .L0 
     /tmp/ccdDOmoR.s:423    .text:0000000000000244 .L0 
     /tmp/ccdDOmoR.s:427    .text:000000000000024c .L0 
GAS LISTING /tmp/ccdDOmoR.s 			page 16


     /tmp/ccdDOmoR.s:432    .text:0000000000000254 .L0 
     /tmp/ccdDOmoR.s:433    .text:0000000000000254 .L0 
     /tmp/ccdDOmoR.s:434    .text:0000000000000254 .L0 
     /tmp/ccdDOmoR.s:440    .text:000000000000025c .L0 
     /tmp/ccdDOmoR.s:441    .text:0000000000000260 .L0 
     /tmp/ccdDOmoR.s:442    .text:0000000000000260 .L0 
     /tmp/ccdDOmoR.s:444    .text:0000000000000264 .L0 
     /tmp/ccdDOmoR.s:445    .text:0000000000000264 .L0 
     /tmp/ccdDOmoR.s:447    .text:0000000000000268 .L0 
     /tmp/ccdDOmoR.s:450    .text:000000000000026c .L0 
     /tmp/ccdDOmoR.s:452    .text:0000000000000270 .L0 
     /tmp/ccdDOmoR.s:455    .text:0000000000000274 .L0 
     /tmp/ccdDOmoR.s:458    .text:0000000000000278 .L0 
     /tmp/ccdDOmoR.s:466    .text:0000000000000290 .L0 
     /tmp/ccdDOmoR.s:504    .bss:0000000000000008 _ZN3PCB16timeSliceCounterE
     /tmp/ccdDOmoR.s:508    .bss:0000000000000010 _ZN3PCB10exitingPCBE
     /tmp/ccdDOmoR.s:500    .bss:0000000000000000 _ZN3PCB7runningE
     /tmp/ccdDOmoR.s:497    .bss:0000000000000000 .LANCHOR0
     /tmp/ccdDOmoR.s:518    .text:0000000000000290 .L0 
     /tmp/ccdDOmoR.s:8      .rodata.str1.8:0000000000000000 .LC0
     /tmp/ccdDOmoR.s:32     .text:0000000000000010 .L0 
     /tmp/ccdDOmoR.s:41     .text:0000000000000028 .L0 
     /tmp/ccdDOmoR.s:11     .rodata.str1.8:0000000000000018 .LC1
     /tmp/ccdDOmoR.s:49     .text:000000000000003c .L0 
     /tmp/ccdDOmoR.s:101    .text:00000000000000a0 .L0 
     /tmp/ccdDOmoR.s:203    .text:0000000000000120 .L0 
     /tmp/ccdDOmoR.s:224    .text:000000000000013c .L0 
     /tmp/ccdDOmoR.s:427    .text:000000000000024c .L0 
     /tmp/ccdDOmoR.s:256    .text:0000000000000170 .L12
     /tmp/ccdDOmoR.s:218    .text:0000000000000134 .L10
     /tmp/ccdDOmoR.s:403    .text:0000000000000218 .LEHB0
     /tmp/ccdDOmoR.s:383    .text:00000000000001fc .LFB33
     /tmp/ccdDOmoR.s:406    .text:0000000000000220 .LEHE0
     /tmp/ccdDOmoR.s:412    .text:0000000000000234 .LEHB1
     /tmp/ccdDOmoR.s:415    .text:000000000000023c .LEHE1
     /tmp/ccdDOmoR.s:454    .text:0000000000000274 .L21
     /tmp/ccdDOmoR.s:421    .text:0000000000000244 .LEHB2
     /tmp/ccdDOmoR.s:425    .text:000000000000024c .LEHE2
     /tmp/ccdDOmoR.s:462    .text:0000000000000288 .LEHB3
     /tmp/ccdDOmoR.s:465    .text:0000000000000290 .LEHE3
     /tmp/ccdDOmoR.s:2119   .debug_abbrev:0000000000000000 .Ldebug_abbrev0
     /tmp/ccdDOmoR.s:3438   .debug_str:0000000000000157 .LASF183
     /tmp/ccdDOmoR.s:3724   .debug_str:0000000000000a15 .LASF184
     /tmp/ccdDOmoR.s:3712   .debug_str:00000000000009b1 .LASF185
     /tmp/ccdDOmoR.s:5      .text:0000000000000000 .Ltext0
     /tmp/ccdDOmoR.s:511    .text:0000000000000290 .Letext0
     /tmp/ccdDOmoR.s:3396   .debug_line:0000000000000000 .Ldebug_line0
     /tmp/ccdDOmoR.s:3522   .debug_str:0000000000000453 .LASF0
     /tmp/ccdDOmoR.s:3552   .debug_str:0000000000000530 .LASF1
     /tmp/ccdDOmoR.s:3644   .debug_str:00000000000007e3 .LASF2
     /tmp/ccdDOmoR.s:3652   .debug_str:000000000000081e .LASF4
     /tmp/ccdDOmoR.s:3538   .debug_str:00000000000004bf .LASF3
     /tmp/ccdDOmoR.s:3412   .debug_str:0000000000000061 .LASF5
     /tmp/ccdDOmoR.s:3626   .debug_str:0000000000000769 .LASF6
     /tmp/ccdDOmoR.s:3612   .debug_str:00000000000006fe .LASF7
     /tmp/ccdDOmoR.s:3544   .debug_str:0000000000000500 .LASF8
     /tmp/ccdDOmoR.s:3506   .debug_str:00000000000003d2 .LASF9
GAS LISTING /tmp/ccdDOmoR.s 			page 17


     /tmp/ccdDOmoR.s:3510   .debug_str:00000000000003fe .LASF10
     /tmp/ccdDOmoR.s:3450   .debug_str:000000000000026a .LASF11
     /tmp/ccdDOmoR.s:3496   .debug_str:00000000000003a6 .LASF12
     /tmp/ccdDOmoR.s:3458   .debug_str:0000000000000291 .LASF13
     /tmp/ccdDOmoR.s:3448   .debug_str:000000000000025a .LASF14
     /tmp/ccdDOmoR.s:3686   .debug_str:0000000000000922 .LASF15
     /tmp/ccdDOmoR.s:3492   .debug_str:0000000000000384 .LASF16
     /tmp/ccdDOmoR.s:3678   .debug_str:00000000000008d1 .LASF17
     /tmp/ccdDOmoR.s:3714   .debug_str:00000000000009d4 .LASF28
     /tmp/ccdDOmoR.s:3728   .debug_str:0000000000000a27 .LASF20
     /tmp/ccdDOmoR.s:3548   .debug_str:0000000000000526 .LASF18
     /tmp/ccdDOmoR.s:3452   .debug_str:0000000000000279 .LASF19
     /tmp/ccdDOmoR.s:3692   .debug_str:000000000000093b .LASF21
     /tmp/ccdDOmoR.s:3560   .debug_str:000000000000055f .LASF22
     /tmp/ccdDOmoR.s:3762   .debug_str:0000000000000b29 .LASF39
     /tmp/ccdDOmoR.s:3726   .debug_str:0000000000000a21 .LASF24
     /tmp/ccdDOmoR.s:3462   .debug_str:00000000000002b2 .LASF26
     /tmp/ccdDOmoR.s:3524   .debug_str:0000000000000460 .LASF23
     /tmp/ccdDOmoR.s:3670   .debug_str:000000000000089b .LASF29
     /tmp/ccdDOmoR.s:3550   .debug_str:000000000000052b .LASF25
     /tmp/ccdDOmoR.s:3636   .debug_str:000000000000079e .LASF27
     /tmp/ccdDOmoR.s:3482   .debug_str:0000000000000340 .LASF30
     /tmp/ccdDOmoR.s:3632   .debug_str:0000000000000783 .LASF45
     /tmp/ccdDOmoR.s:3428   .debug_str:0000000000000111 .LASF47
     /tmp/ccdDOmoR.s:3698   .debug_str:0000000000000958 .LASF186
     /tmp/ccdDOmoR.s:3444   .debug_str:0000000000000240 .LASF31
     /tmp/ccdDOmoR.s:3672   .debug_str:00000000000008b0 .LASF32
     /tmp/ccdDOmoR.s:3456   .debug_str:0000000000000287 .LASF33
     /tmp/ccdDOmoR.s:3436   .debug_str:000000000000014e .LASF34
     /tmp/ccdDOmoR.s:3616   .debug_str:0000000000000727 .LASF35
     /tmp/ccdDOmoR.s:3454   .debug_str:000000000000027e .LASF36
     /tmp/ccdDOmoR.s:3690   .debug_str:0000000000000933 .LASF37
     /tmp/ccdDOmoR.s:3516   .debug_str:000000000000042a .LASF38
     /tmp/ccdDOmoR.s:3718   .debug_str:00000000000009e2 .LASF40
     /tmp/ccdDOmoR.s:3600   .debug_str:00000000000006a5 .LASF187
     /tmp/ccdDOmoR.s:3740   .debug_str:0000000000000a75 .LASF41
     /tmp/ccdDOmoR.s:3772   .debug_str:0000000000000b78 .LASF42
     /tmp/ccdDOmoR.s:3766   .debug_str:0000000000000b48 .LASF43
     /tmp/ccdDOmoR.s:3706   .debug_str:0000000000000983 .LASF44
     /tmp/ccdDOmoR.s:3480   .debug_str:0000000000000337 .LASF70
     /tmp/ccdDOmoR.s:3420   .debug_str:00000000000000a3 .LASF72
     /tmp/ccdDOmoR.s:3556   .debug_str:000000000000054c .LASF46
     /tmp/ccdDOmoR.s:3604   .debug_str:00000000000006bd .LASF48
     /tmp/ccdDOmoR.s:3702   .debug_str:0000000000000973 .LASF49
     /tmp/ccdDOmoR.s:3742   .debug_str:0000000000000a7a .LASF50
     /tmp/ccdDOmoR.s:3662   .debug_str:0000000000000855 .LASF51
     /tmp/ccdDOmoR.s:3558   .debug_str:0000000000000552 .LASF52
     /tmp/ccdDOmoR.s:3564   .debug_str:0000000000000582 .LASF53
     /tmp/ccdDOmoR.s:3776   .debug_str:0000000000000b9c .LASF54
     /tmp/ccdDOmoR.s:3494   .debug_str:000000000000039a .LASF55
     /tmp/ccdDOmoR.s:3404   .debug_str:000000000000002a .LASF56
     /tmp/ccdDOmoR.s:3534   .debug_str:00000000000004a6 .LASF57
     /tmp/ccdDOmoR.s:3666   .debug_str:0000000000000877 .LASF58
     /tmp/ccdDOmoR.s:3584   .debug_str:0000000000000626 .LASF59
     /tmp/ccdDOmoR.s:3650   .debug_str:0000000000000815 .LASF60
     /tmp/ccdDOmoR.s:3682   .debug_str:00000000000008ff .LASF61
     /tmp/ccdDOmoR.s:3586   .debug_str:0000000000000639 .LASF62
GAS LISTING /tmp/ccdDOmoR.s 			page 18


     /tmp/ccdDOmoR.s:3400   .debug_str:000000000000000b .LASF63
     /tmp/ccdDOmoR.s:3754   .debug_str:0000000000000aed .LASF64
     /tmp/ccdDOmoR.s:3610   .debug_str:00000000000006e4 .LASF65
     /tmp/ccdDOmoR.s:3676   .debug_str:00000000000008c3 .LASF66
     /tmp/ccdDOmoR.s:3628   .debug_str:0000000000000770 .LASF67
     /tmp/ccdDOmoR.s:3476   .debug_str:0000000000000315 .LASF68
     /tmp/ccdDOmoR.s:3760   .debug_str:0000000000000b1e .LASF69
     /tmp/ccdDOmoR.s:3540   .debug_str:00000000000004d1 .LASF74
     /tmp/ccdDOmoR.s:3674   .debug_str:00000000000008b8 .LASF71
     /tmp/ccdDOmoR.s:3770   .debug_str:0000000000000b62 .LASF73
     /tmp/ccdDOmoR.s:3658   .debug_str:000000000000083f .LASF75
     /tmp/ccdDOmoR.s:3710   .debug_str:00000000000009a7 .LASF76
     /tmp/ccdDOmoR.s:3606   .debug_str:00000000000006cd .LASF77
     /tmp/ccdDOmoR.s:3468   .debug_str:00000000000002e9 .LASF78
     /tmp/ccdDOmoR.s:3424   .debug_str:00000000000000d1 .LASF80
     /tmp/ccdDOmoR.s:3526   .debug_str:0000000000000465 .LASF79
     /tmp/ccdDOmoR.s:3442   .debug_str:0000000000000214 .LASF81
     /tmp/ccdDOmoR.s:3752   .debug_str:0000000000000ae6 .LASF188
     /tmp/ccdDOmoR.s:3440   .debug_str:0000000000000203 .LASF189
     /tmp/ccdDOmoR.s:3402   .debug_str:0000000000000025 .LASF82
     /tmp/ccdDOmoR.s:3688   .debug_str:000000000000092e .LASF83
     /tmp/ccdDOmoR.s:3568   .debug_str:00000000000005b5 .LASF84
     /tmp/ccdDOmoR.s:3466   .debug_str:00000000000002e3 .LASF85
     /tmp/ccdDOmoR.s:3716   .debug_str:00000000000009da .LASF86
     /tmp/ccdDOmoR.s:3430   .debug_str:000000000000011f .LASF87
     /tmp/ccdDOmoR.s:3504   .debug_str:00000000000003c8 .LASF88
     /tmp/ccdDOmoR.s:3416   .debug_str:0000000000000082 .LASF190
     /tmp/ccdDOmoR.s:3768   .debug_str:0000000000000b4e .LASF191
     /tmp/ccdDOmoR.s:3432   .debug_str:0000000000000129 .LASF89
     /tmp/ccdDOmoR.s:3602   .debug_str:00000000000006aa .LASF90
     /tmp/ccdDOmoR.s:3704   .debug_str:000000000000097b .LASF91
     /tmp/ccdDOmoR.s:3638   .debug_str:00000000000007af .LASF117
     /tmp/ccdDOmoR.s:3664   .debug_str:0000000000000866 .LASF92
     /tmp/ccdDOmoR.s:3460   .debug_str:00000000000002a1 .LASF93
     /tmp/ccdDOmoR.s:3418   .debug_str:000000000000009a .LASF94
     /tmp/ccdDOmoR.s:3736   .debug_str:0000000000000a65 .LASF95
     /tmp/ccdDOmoR.s:3518   .debug_str:0000000000000430 .LASF96
     /tmp/ccdDOmoR.s:3680   .debug_str:00000000000008e7 .LASF97
     /tmp/ccdDOmoR.s:3608   .debug_str:00000000000006d9 .LASF98
     /tmp/ccdDOmoR.s:3574   .debug_str:00000000000005ce .LASF99
     /tmp/ccdDOmoR.s:3490   .debug_str:000000000000037a .LASF100
     /tmp/ccdDOmoR.s:3614   .debug_str:0000000000000711 .LASF101
     /tmp/ccdDOmoR.s:3576   .debug_str:00000000000005e6 .LASF102
     /tmp/ccdDOmoR.s:3732   .debug_str:0000000000000a3d .LASF103
     /tmp/ccdDOmoR.s:3730   .debug_str:0000000000000a2c .LASF104
     /tmp/ccdDOmoR.s:3562   .debug_str:0000000000000564 .LASF105
     /tmp/ccdDOmoR.s:3532   .debug_str:0000000000000494 .LASF106
     /tmp/ccdDOmoR.s:3464   .debug_str:00000000000002c4 .LASF107
     /tmp/ccdDOmoR.s:3758   .debug_str:0000000000000b12 .LASF108
     /tmp/ccdDOmoR.s:3422   .debug_str:00000000000000b6 .LASF109
     /tmp/ccdDOmoR.s:3622   .debug_str:0000000000000749 .LASF110
     /tmp/ccdDOmoR.s:3414   .debug_str:0000000000000068 .LASF111
     /tmp/ccdDOmoR.s:3660   .debug_str:0000000000000847 .LASF112
     /tmp/ccdDOmoR.s:3668   .debug_str:0000000000000880 .LASF113
     /tmp/ccdDOmoR.s:3588   .debug_str:0000000000000648 .LASF114
     /tmp/ccdDOmoR.s:3746   .debug_str:0000000000000aab .LASF115
     /tmp/ccdDOmoR.s:3554   .debug_str:0000000000000543 .LASF116
GAS LISTING /tmp/ccdDOmoR.s 			page 19


     /tmp/ccdDOmoR.s:3408   .debug_str:0000000000000042 .LASF118
     /tmp/ccdDOmoR.s:3782   .debug_str:0000000000000bc3 .LASF119
     /tmp/ccdDOmoR.s:3596   .debug_str:0000000000000678 .LASF120
     /tmp/ccdDOmoR.s:3630   .debug_str:000000000000077c .LASF121
     /tmp/ccdDOmoR.s:3624   .debug_str:0000000000000756 .LASF122
     /tmp/ccdDOmoR.s:3592   .debug_str:000000000000065d .LASF123
     /tmp/ccdDOmoR.s:3546   .debug_str:0000000000000513 .LASF124
     /tmp/ccdDOmoR.s:3748   .debug_str:0000000000000ac5 .LASF125
     /tmp/ccdDOmoR.s:3708   .debug_str:0000000000000993 .LASF126
     /tmp/ccdDOmoR.s:3590   .debug_str:0000000000000655 .LASF127
     /tmp/ccdDOmoR.s:3594   .debug_str:0000000000000664 .LASF128
     /tmp/ccdDOmoR.s:3580   .debug_str:000000000000060c .LASF129
     /tmp/ccdDOmoR.s:3634   .debug_str:000000000000078a .LASF130
     /tmp/ccdDOmoR.s:3784   .debug_str:0000000000000bcc .LASF131
     /tmp/ccdDOmoR.s:3530   .debug_str:0000000000000480 .LASF132
     /tmp/ccdDOmoR.s:3684   .debug_str:000000000000091b .LASF133
     /tmp/ccdDOmoR.s:3654   .debug_str:0000000000000825 .LASF134
     /tmp/ccdDOmoR.s:3656   .debug_str:0000000000000838 .LASF135
     /tmp/ccdDOmoR.s:3488   .debug_str:0000000000000367 .LASF136
     /tmp/ccdDOmoR.s:3484   .debug_str:000000000000034e .LASF137
     /tmp/ccdDOmoR.s:3696   .debug_str:0000000000000946 .LASF138
     /tmp/ccdDOmoR.s:3528   .debug_str:000000000000047a .LASF139
     /tmp/ccdDOmoR.s:3478   .debug_str:0000000000000325 .LASF140
     /tmp/ccdDOmoR.s:3398   .debug_str:0000000000000000 .LASF141
     /tmp/ccdDOmoR.s:3648   .debug_str:00000000000007fd .LASF142
     /tmp/ccdDOmoR.s:3642   .debug_str:00000000000007d8 .LASF143
     /tmp/ccdDOmoR.s:3774   .debug_str:0000000000000b84 .LASF144
     /tmp/ccdDOmoR.s:3738   .debug_str:0000000000000a6b .LASF145
     /tmp/ccdDOmoR.s:3756   .debug_str:0000000000000afc .LASF146
     /tmp/ccdDOmoR.s:3734   .debug_str:0000000000000a5b .LASF147
     /tmp/ccdDOmoR.s:3578   .debug_str:00000000000005f6 .LASF148
     /tmp/ccdDOmoR.s:3514   .debug_str:000000000000041f .LASF149
     /tmp/ccdDOmoR.s:3520   .debug_str:000000000000043b .LASF150
     /tmp/ccdDOmoR.s:3722   .debug_str:0000000000000a06 .LASF151
     /tmp/ccdDOmoR.s:3508   .debug_str:00000000000003e2 .LASF152
     /tmp/ccdDOmoR.s:3620   .debug_str:0000000000000734 .LASF153
     /tmp/ccdDOmoR.s:3542   .debug_str:00000000000004de .LASF154
     /tmp/ccdDOmoR.s:3750   .debug_str:0000000000000acd .LASF155
     /tmp/ccdDOmoR.s:3744   .debug_str:0000000000000a85 .LASF156
     /tmp/ccdDOmoR.s:3474   .debug_str:000000000000030e .LASF157
     /tmp/ccdDOmoR.s:3406   .debug_str:000000000000003a .LASF158
     /tmp/ccdDOmoR.s:3778   .debug_str:0000000000000ba9 .LASF159
     /tmp/ccdDOmoR.s:3720   .debug_str:00000000000009fa .LASF160
     /tmp/ccdDOmoR.s:3434   .debug_str:000000000000013b .LASF161
     /tmp/ccdDOmoR.s:3582   .debug_str:0000000000000614 .LASF162
     /tmp/ccdDOmoR.s:3512   .debug_str:000000000000040c .LASF163
     /tmp/ccdDOmoR.s:3486   .debug_str:0000000000000354 .LASF164
     /tmp/ccdDOmoR.s:3446   .debug_str:0000000000000246 .LASF165
     /tmp/ccdDOmoR.s:3694   .debug_str:0000000000000941 .LASF166
     /tmp/ccdDOmoR.s:3570   .debug_str:00000000000005bd .LASF167
     /tmp/ccdDOmoR.s:3640   .debug_str:00000000000007c7 .LASF168
     /tmp/ccdDOmoR.s:3700   .debug_str:000000000000095e .LASF169
     /tmp/ccdDOmoR.s:3566   .debug_str:000000000000059a .LASF170
     /tmp/ccdDOmoR.s:467    .text:0000000000000290 .LFE33
     /tmp/ccdDOmoR.s:3472   .debug_str:0000000000000303 .LASF171
     /tmp/ccdDOmoR.s:3193   .debug_loc:0000000000000000 .LLST13
     /tmp/ccdDOmoR.s:430    .text:0000000000000254 .LBB14
GAS LISTING /tmp/ccdDOmoR.s 			page 20


     /tmp/ccdDOmoR.s:438    .text:000000000000025c .LBE14
     /tmp/ccdDOmoR.s:3200   .debug_loc:0000000000000023 .LLST14
     /tmp/ccdDOmoR.s:3208   .debug_loc:0000000000000047 .LLST15
     /tmp/ccdDOmoR.s:405    .text:0000000000000220 .LVL28
     /tmp/ccdDOmoR.s:414    .text:000000000000023c .LVL29
     /tmp/ccdDOmoR.s:424    .text:000000000000024c .LVL30
     /tmp/ccdDOmoR.s:460    .text:0000000000000284 .LVL34
     /tmp/ccdDOmoR.s:464    .text:0000000000000290 .LVL35
     /tmp/ccdDOmoR.s:3500   .debug_str:00000000000003bd .LASF172
     /tmp/ccdDOmoR.s:3410   .debug_str:0000000000000057 .LASF173
     /tmp/ccdDOmoR.s:3470   .debug_str:00000000000002f7 .LASF176
     /tmp/ccdDOmoR.s:335    .text:00000000000001d0 .LFB31
     /tmp/ccdDOmoR.s:367    .text:00000000000001fc .LFE31
     /tmp/ccdDOmoR.s:3215   .debug_loc:000000000000006a .LLST12
     /tmp/ccdDOmoR.s:355    .text:00000000000001ec .LVL27
     /tmp/ccdDOmoR.s:303    .text:00000000000001a8 .LFB29
     /tmp/ccdDOmoR.s:329    .text:00000000000001d0 .LFE29
     /tmp/ccdDOmoR.s:3229   .debug_loc:00000000000000a3 .LLST11
     /tmp/ccdDOmoR.s:318    .text:00000000000001c0 .LVL24
     /tmp/ccdDOmoR.s:271    .text:0000000000000180 .LFB28
     /tmp/ccdDOmoR.s:297    .text:00000000000001a8 .LFE28
     /tmp/ccdDOmoR.s:3243   .debug_loc:00000000000000dc .LLST10
     /tmp/ccdDOmoR.s:286    .text:0000000000000198 .LVL22
     /tmp/ccdDOmoR.s:188    .text:000000000000010c .LFB27
     /tmp/ccdDOmoR.s:265    .text:0000000000000180 .LFE27
     /tmp/ccdDOmoR.s:3257   .debug_loc:0000000000000115 .LLST6
     /tmp/ccdDOmoR.s:206    .text:0000000000000128 .LBB9
     /tmp/ccdDOmoR.s:214    .text:000000000000012c .LBE9
     /tmp/ccdDOmoR.s:3268   .debug_loc:000000000000014b .LLST7
     /tmp/ccdDOmoR.s:227    .text:0000000000000144 .LBB11
     /tmp/ccdDOmoR.s:235    .text:000000000000014c .LBE11
     /tmp/ccdDOmoR.s:3275   .debug_loc:000000000000016e .LLST8
     /tmp/ccdDOmoR.s:3283   .debug_loc:0000000000000192 .LLST9
     /tmp/ccdDOmoR.s:222    .text:000000000000013c .LVL14
     /tmp/ccdDOmoR.s:241    .text:000000000000015c .LVL17
     /tmp/ccdDOmoR.s:262    .text:000000000000017c .LVL20
     /tmp/ccdDOmoR.s:18     .text:0000000000000000 .LFB26
     /tmp/ccdDOmoR.s:66     .text:0000000000000064 .LFE26
     /tmp/ccdDOmoR.s:34     .text:0000000000000020 .LVL0
     /tmp/ccdDOmoR.s:38     .text:0000000000000028 .LVL1
     /tmp/ccdDOmoR.s:51     .text:000000000000004c .LVL3
     /tmp/ccdDOmoR.s:55     .text:0000000000000054 .LVL4
     /tmp/ccdDOmoR.s:156    .text:00000000000000e4 .LFB25
     /tmp/ccdDOmoR.s:182    .text:000000000000010c .LFE25
     /tmp/ccdDOmoR.s:3290   .debug_loc:00000000000001b5 .LLST5
     /tmp/ccdDOmoR.s:171    .text:00000000000000fc .LVL11
     /tmp/ccdDOmoR.s:132    .text:00000000000000cc .LFB24
     /tmp/ccdDOmoR.s:150    .text:00000000000000e4 .LFE24
     /tmp/ccdDOmoR.s:3618   .debug_str:000000000000072f .LASF174
     /tmp/ccdDOmoR.s:3572   .debug_str:00000000000005c2 .LASF175
     /tmp/ccdDOmoR.s:3598   .debug_str:000000000000068d .LASF177
     /tmp/ccdDOmoR.s:72     .text:0000000000000064 .LFB22
     /tmp/ccdDOmoR.s:124    .text:00000000000000cc .LFE22
     /tmp/ccdDOmoR.s:3304   .debug_loc:00000000000001ee .LLST0
     /tmp/ccdDOmoR.s:3322   .debug_loc:000000000000023a .LLST1
     /tmp/ccdDOmoR.s:3336   .debug_loc:0000000000000273 .LLST2
     /tmp/ccdDOmoR.s:3350   .debug_loc:00000000000002ac .LLST3
GAS LISTING /tmp/ccdDOmoR.s 			page 21


     /tmp/ccdDOmoR.s:3369   .debug_loc:00000000000002f9 .LLST4
     /tmp/ccdDOmoR.s:106    .text:00000000000000b4 .LVL7
     /tmp/ccdDOmoR.s:3764   .debug_str:0000000000000b39 .LASF192
     /tmp/ccdDOmoR.s:3426   .debug_str:00000000000000f9 .LASF193
     /tmp/ccdDOmoR.s:3780   .debug_str:0000000000000bb8 .LASF178
     /tmp/ccdDOmoR.s:3502   .debug_str:00000000000003c2 .LASF180
     /tmp/ccdDOmoR.s:3646   .debug_str:00000000000007f1 .LASF179
     /tmp/ccdDOmoR.s:3498   .debug_str:00000000000003b5 .LASF181
     /tmp/ccdDOmoR.s:3536   .debug_str:00000000000004b3 .LASF182
     /tmp/ccdDOmoR.s:448    .text:0000000000000268 .LVL33
     /tmp/ccdDOmoR.s:429    .text:0000000000000254 .LVL31
     /tmp/ccdDOmoR.s:436    .text:000000000000025c .LVL32
     /tmp/ccdDOmoR.s:340    .text:00000000000001d0 .LVL25
     /tmp/ccdDOmoR.s:353    .text:00000000000001e4 .LVL26
     /tmp/ccdDOmoR.s:306    .text:00000000000001a8 .LVL23
     /tmp/ccdDOmoR.s:274    .text:0000000000000180 .LVL21
     /tmp/ccdDOmoR.s:204    .text:0000000000000128 .LVL12
     /tmp/ccdDOmoR.s:251    .text:0000000000000168 .LVL18
     /tmp/ccdDOmoR.s:255    .text:0000000000000170 .LVL19
     /tmp/ccdDOmoR.s:212    .text:000000000000012c .LVL13
     /tmp/ccdDOmoR.s:226    .text:0000000000000144 .LVL15
     /tmp/ccdDOmoR.s:233    .text:000000000000014c .LVL16
     /tmp/ccdDOmoR.s:159    .text:00000000000000e4 .LVL10
     /tmp/ccdDOmoR.s:75     .text:0000000000000064 .LVL5
     /tmp/ccdDOmoR.s:119    .text:00000000000000c4 .LVL8
     /tmp/ccdDOmoR.s:98     .text:000000000000009c .LVL6
     /tmp/ccdDOmoR.s:519    .debug_info:0000000000000000 .Ldebug_info0
     /tmp/ccdDOmoR.s:370    .gcc_except_table:0000000000000000 .LLSDA31
     /tmp/ccdDOmoR.s:469    .gcc_except_table:0000000000000004 .LLSDA33

UNDEFINED SYMBOLS
_ZN5Riscv11printStringEPKc
_ZN5Riscv10popSppSpieEv
thread_exit
_ZN9Scheduler3putEP3PCB
_ZN9Scheduler3getEv
_ZN3PCB13contextSwitchEPNS_7ContextES1_
_Z7kmallocm
_Z5kfreePv
__gxx_personality_v0
_Unwind_Resume
