GAS LISTING /tmp/ccwBVz4t.s 			page 1


   1              		.file	"PCB.cpp"
   2              		.option pic
   3              		.option norelax
   4              		.text
   5              	.Ltext0:
   6              		.section	.rodata.str1.8,"aMS",@progbits,1
   7              		.align	3
   8              	.LC0:
   9 0000 72756E6E 		.string	"runner started...\n"
   9      65722073 
   9      74617274 
   9      65642E2E 
   9      2E0A00
  10              		.text
  11              		.align	2
  12              		.globl	_ZN3PCB6runnerEv
  14              	_ZN3PCB6runnerEv:
  15              	.LFB29:
  16              		.file 1 "src/PCB.cpp"
   1:src/PCB.cpp   **** //
   2:src/PCB.cpp   **** // Created by os on 4/27/22.
   3:src/PCB.cpp   **** //
   4:src/PCB.cpp   **** 
   5:src/PCB.cpp   **** #include "../h/PCB.h"
   6:src/PCB.cpp   **** #include "../h/syscall_c.h"
   7:src/PCB.cpp   **** 
   8:src/PCB.cpp   **** PCB* PCB::running = 0;
   9:src/PCB.cpp   **** uint64 PCB::timeSliceCounter = 0;
  10:src/PCB.cpp   **** 
  11:src/PCB.cpp   **** //todo
  12:src/PCB.cpp   **** //kreiranje pocetnog konteksta niti
  13:src/PCB.cpp   **** //stack space da li treba na poslednju poziciju da ide
  14:src/PCB.cpp   **** PCB::PCB(Body body, void *args, void* stack_space) :
  15:src/PCB.cpp   ****     body(body), args(args),context({
  16:src/PCB.cpp   ****         (uint64)((char*)stack_space + DEFAULT_STACK_SIZE - 1),
  17:src/PCB.cpp   ****         (uint64)&PCB::runner
  18:src/PCB.cpp   ****     })
  19:src/PCB.cpp   **** {
  20:src/PCB.cpp   ****     Scheduler::put(this);
  21:src/PCB.cpp   **** }
  22:src/PCB.cpp   **** 
  23:src/PCB.cpp   **** void PCB::sleep(time_t time)
  24:src/PCB.cpp   **** {
  25:src/PCB.cpp   ****     //todo
  26:src/PCB.cpp   **** }
  27:src/PCB.cpp   **** 
  28:src/PCB.cpp   **** //todo
  29:src/PCB.cpp   **** //da li ovde vec treba da bude lockovano
  30:src/PCB.cpp   **** //ili treba ovde bas lock da se uradi
  31:src/PCB.cpp   **** void PCB::start()
  32:src/PCB.cpp   **** {
  33:src/PCB.cpp   ****     Scheduler::put(this);
  34:src/PCB.cpp   **** }
  35:src/PCB.cpp   **** 
  36:src/PCB.cpp   **** //todo
  37:src/PCB.cpp   **** void PCB::runner()
  38:src/PCB.cpp   **** {
GAS LISTING /tmp/ccwBVz4t.s 			page 2


  17              		.loc 1 38 1
  18              		.cfi_startproc
  19 0000 130101FE 		addi	sp,sp,-32
  20              		.cfi_def_cfa_offset 32
  21 0004 233C1100 		sd	ra,24(sp)
  22 0008 23388100 		sd	s0,16(sp)
  23 000c 23349100 		sd	s1,8(sp)
  24              		.cfi_offset 1, -8
  25              		.cfi_offset 8, -16
  26              		.cfi_offset 9, -24
  27 0010 13040102 		addi	s0,sp,32
  28              		.cfi_def_cfa 8, 0
  39:src/PCB.cpp   ****     Riscv::printString("runner started...\n");
  29              		.loc 1 39 5
  30              		.loc 1 39 23 is_stmt 0
  31 0014 17050000 		lla	a0,.LC0
  31      13050500 
  32 001c 97000000 		call	_ZN5Riscv11printStringEPKc@plt
  32      E7800000 
  33              	.LVL0:
  40:src/PCB.cpp   ****    Riscv::popSppSpie();
  34              		.loc 1 40 4 is_stmt 1
  35              		.loc 1 40 21 is_stmt 0
  36 0024 97000000 		call	_ZN5Riscv10popSppSpieEv@plt
  36      E7800000 
  37              	.LVL1:
  41:src/PCB.cpp   ****    running->body(running->args);
  38              		.loc 1 41 4 is_stmt 1
  39              		.loc 1 41 13 is_stmt 0
  40 002c 97040000 		lla	s1,.LANCHOR0
  40      93840400 
  41 0034 83B70400 		ld	a5,0(s1)
  42 0038 03B78700 		ld	a4,8(a5)
  43              		.loc 1 41 17
  44 003c 03B50701 		ld	a0,16(a5)
  45 0040 E7000700 		jalr	a4
  46              	.LVL2:
  42:src/PCB.cpp   ****    running->setFinished(false);
  47              		.loc 1 42 4 is_stmt 1
  48              		.loc 1 42 24 is_stmt 0
  49 0044 83B70400 		ld	a5,0(s1)
  50              	.LVL3:
  51              	.LBB4:
  52              	.LBB5:
  53              		.file 2 "src/../h/PCB.h"
   1:src/../h/PCB.h **** //
   2:src/../h/PCB.h **** // Created by os on 4/27/22.
   3:src/../h/PCB.h **** //
   4:src/../h/PCB.h **** 
   5:src/../h/PCB.h **** #ifndef PROJECT_BASE_V1_0_PCB_H
   6:src/../h/PCB.h **** #define PROJECT_BASE_V1_0_PCB_H
   7:src/../h/PCB.h **** 
   8:src/../h/PCB.h **** #include "../lib/hw.h"
   9:src/../h/PCB.h **** #include "Scheduler.h"
  10:src/../h/PCB.h **** #include "Riscv.h"
  11:src/../h/PCB.h **** 
  12:src/../h/PCB.h **** class PCB
GAS LISTING /tmp/ccwBVz4t.s 			page 3


  13:src/../h/PCB.h **** {
  14:src/../h/PCB.h **** public:
  15:src/../h/PCB.h ****     using Body = void (*)(void*);
  16:src/../h/PCB.h **** 
  17:src/../h/PCB.h ****     PCB(Body body,  void* args, void* stack_space);
  18:src/../h/PCB.h **** 
  19:src/../h/PCB.h ****     void start();
  20:src/../h/PCB.h ****     static void dispatch();
  21:src/../h/PCB.h ****     static void sleep(time_t);
  22:src/../h/PCB.h **** 
  23:src/../h/PCB.h ****     static PCB* running;
  24:src/../h/PCB.h **** 
  25:src/../h/PCB.h ****     static const uint64 THREAD_CREATE = 0x11;
  26:src/../h/PCB.h **** 
  27:src/../h/PCB.h ****     static const uint64 THREAD_EXIT = 0x12;
  28:src/../h/PCB.h ****     static const uint64 THREAD_DISPATCH = 0x13;
  29:src/../h/PCB.h **** 
  30:src/../h/PCB.h ****     static uint64 timeSliceCounter;
  31:src/../h/PCB.h **** 
  32:src/../h/PCB.h ****     uint64 getTimeSlice() { return timeSlice;}
  33:src/../h/PCB.h **** 
  34:src/../h/PCB.h ****     void setFinished(bool f) {finished = f;}
  54              		.loc 2 34 31 is_stmt 1
  55              		.loc 2 34 40 is_stmt 0
  56 0048 23880702 		sb	zero,48(a5)
  57              	.LVL4:
  58              	.LBE5:
  59              	.LBE4:
  43:src/PCB.cpp   ****    thread_dispatch();
  60              		.loc 1 43 4 is_stmt 1
  61              		.loc 1 43 19 is_stmt 0
  62 004c 97000000 		call	thread_dispatch@plt
  62      E7800000 
  63              	.LVL5:
  44:src/PCB.cpp   **** }
  64              		.loc 1 44 1
  65 0054 83308101 		ld	ra,24(sp)
  66              		.cfi_restore 1
  67 0058 03340101 		ld	s0,16(sp)
  68              		.cfi_restore 8
  69              		.cfi_def_cfa 2, 32
  70 005c 83348100 		ld	s1,8(sp)
  71              		.cfi_restore 9
  72 0060 13010102 		addi	sp,sp,32
  73              		.cfi_def_cfa_offset 0
  74 0064 67800000 		jr	ra
  75              		.cfi_endproc
  76              	.LFE29:
  78              		.align	2
  79              		.globl	_ZN3PCBC2EPFvPvES0_S0_
  81              	_ZN3PCBC2EPFvPvES0_S0_:
  82              	.LFB25:
  14:src/PCB.cpp   ****     body(body), args(args),context({
  83              		.loc 1 14 1 is_stmt 1
  84              		.cfi_startproc
  85              	.LVL6:
  86 0068 130101FF 		addi	sp,sp,-16
GAS LISTING /tmp/ccwBVz4t.s 			page 4


  87              		.cfi_def_cfa_offset 16
  88 006c 23341100 		sd	ra,8(sp)
  89 0070 23308100 		sd	s0,0(sp)
  90              		.cfi_offset 1, -8
  91              		.cfi_offset 8, -16
  92 0074 13040101 		addi	s0,sp,16
  93              		.cfi_def_cfa 8, 0
  94              	.LBB6:
  18:src/PCB.cpp   **** {
  95              		.loc 1 18 6 is_stmt 0
  96 0078 2334B500 		sd	a1,8(a0)
  97 007c 2338C500 		sd	a2,16(a0)
  16:src/PCB.cpp   ****         (uint64)&PCB::runner
  98              		.loc 1 16 58
  99 0080 37170000 		li	a4,4096
 100 0084 1307F7FF 		addi	a4,a4,-1
 101 0088 B386E600 		add	a3,a3,a4
 102              	.LVL7:
  18:src/PCB.cpp   **** {
 103              		.loc 1 18 6
 104 008c 233CD500 		sd	a3,24(a0)
 105 0090 17070000 		lla	a4,_ZN3PCB6runnerEv
 105      13070700 
 106 0098 2330E502 		sd	a4,32(a0)
 107 009c 23080502 		sb	zero,48(a0)
  20:src/PCB.cpp   **** }
 108              		.loc 1 20 5 is_stmt 1
  20:src/PCB.cpp   **** }
 109              		.loc 1 20 19 is_stmt 0
 110 00a0 97000000 		call	_ZN9Scheduler3putEP3PCB@plt
 110      E7800000 
 111              	.LVL8:
 112              	.LBE6:
  21:src/PCB.cpp   **** 
 113              		.loc 1 21 1
 114 00a8 83308100 		ld	ra,8(sp)
 115              		.cfi_restore 1
 116 00ac 03340100 		ld	s0,0(sp)
 117              		.cfi_restore 8
 118              		.cfi_def_cfa 2, 16
 119 00b0 13010101 		addi	sp,sp,16
 120              		.cfi_def_cfa_offset 0
 121 00b4 67800000 		jr	ra
 122              		.cfi_endproc
 123              	.LFE25:
 125              		.globl	_ZN3PCBC1EPFvPvES0_S0_
 126              		.set	_ZN3PCBC1EPFvPvES0_S0_,_ZN3PCBC2EPFvPvES0_S0_
 127              		.align	2
 128              		.globl	_ZN3PCB5sleepEm
 130              	_ZN3PCB5sleepEm:
 131              	.LFB27:
  24:src/PCB.cpp   ****     //todo
 132              		.loc 1 24 1 is_stmt 1
 133              		.cfi_startproc
 134              	.LVL9:
 135 00b8 130101FF 		addi	sp,sp,-16
 136              		.cfi_def_cfa_offset 16
GAS LISTING /tmp/ccwBVz4t.s 			page 5


 137 00bc 23348100 		sd	s0,8(sp)
 138              		.cfi_offset 8, -8
 139 00c0 13040101 		addi	s0,sp,16
 140              		.cfi_def_cfa 8, 0
  26:src/PCB.cpp   **** 
 141              		.loc 1 26 1 is_stmt 0
 142 00c4 03348100 		ld	s0,8(sp)
 143              		.cfi_restore 8
 144              		.cfi_def_cfa 2, 16
 145 00c8 13010101 		addi	sp,sp,16
 146              		.cfi_def_cfa_offset 0
 147 00cc 67800000 		jr	ra
 148              		.cfi_endproc
 149              	.LFE27:
 151              		.align	2
 152              		.globl	_ZN3PCB5startEv
 154              	_ZN3PCB5startEv:
 155              	.LFB28:
  32:src/PCB.cpp   ****     Scheduler::put(this);
 156              		.loc 1 32 1 is_stmt 1
 157              		.cfi_startproc
 158              	.LVL10:
 159 00d0 130101FF 		addi	sp,sp,-16
 160              		.cfi_def_cfa_offset 16
 161 00d4 23341100 		sd	ra,8(sp)
 162 00d8 23308100 		sd	s0,0(sp)
 163              		.cfi_offset 1, -8
 164              		.cfi_offset 8, -16
 165 00dc 13040101 		addi	s0,sp,16
 166              		.cfi_def_cfa 8, 0
  33:src/PCB.cpp   **** }
 167              		.loc 1 33 5
  33:src/PCB.cpp   **** }
 168              		.loc 1 33 19 is_stmt 0
 169 00e0 97000000 		call	_ZN9Scheduler3putEP3PCB@plt
 169      E7800000 
 170              	.LVL11:
  34:src/PCB.cpp   **** 
 171              		.loc 1 34 1
 172 00e8 83308100 		ld	ra,8(sp)
 173              		.cfi_restore 1
 174 00ec 03340100 		ld	s0,0(sp)
 175              		.cfi_restore 8
 176              		.cfi_def_cfa 2, 16
 177 00f0 13010101 		addi	sp,sp,16
 178              		.cfi_def_cfa_offset 0
 179 00f4 67800000 		jr	ra
 180              		.cfi_endproc
 181              	.LFE28:
 183              		.section	.rodata.str1.8
 184 0013 00000000 		.align	3
 184      00
 185              	.LC1:
 186 0018 676F7420 		.string	"got the new thread\n"
 186      74686520 
 186      6E657720 
 186      74687265 
GAS LISTING /tmp/ccwBVz4t.s 			page 6


 186      61640A00 
 187              		.text
 188              		.align	2
 189              		.globl	_ZN3PCB8dispatchEv
 191              	_ZN3PCB8dispatchEv:
 192              	.LFB30:
  45:src/PCB.cpp   **** 
  46:src/PCB.cpp   **** void PCB::dispatch()
  47:src/PCB.cpp   **** {
 193              		.loc 1 47 1 is_stmt 1
 194              		.cfi_startproc
 195 00f8 130101FE 		addi	sp,sp,-32
 196              		.cfi_def_cfa_offset 32
 197 00fc 233C1100 		sd	ra,24(sp)
 198 0100 23388100 		sd	s0,16(sp)
 199 0104 23349100 		sd	s1,8(sp)
 200 0108 23302101 		sd	s2,0(sp)
 201              		.cfi_offset 1, -8
 202              		.cfi_offset 8, -16
 203              		.cfi_offset 9, -24
 204              		.cfi_offset 18, -32
 205 010c 13040102 		addi	s0,sp,32
 206              		.cfi_def_cfa 8, 0
  48:src/PCB.cpp   ****     //Riscv::pushRegisters();
  49:src/PCB.cpp   **** 
  50:src/PCB.cpp   ****     PCB* old = running;
 207              		.loc 1 50 5
 208              		.loc 1 50 10 is_stmt 0
 209 0110 97040000 		ld	s1,.LANCHOR0
 209      83B40400 
 210              	.LVL12:
  51:src/PCB.cpp   ****     if(!old->finished) Scheduler::put(old);
 211              		.loc 1 51 5 is_stmt 1
 212              		.loc 1 51 14 is_stmt 0
 213 0118 83C70403 		lbu	a5,48(s1)
 214              		.loc 1 51 5
 215 011c 638A0704 		beqz	a5,.L12
 216              	.L10:
  52:src/PCB.cpp   ****     running = Scheduler::get();
 217              		.loc 1 52 5 is_stmt 1
 218              		.loc 1 52 29 is_stmt 0
 219 0120 97000000 		call	_ZN9Scheduler3getEv@plt
 219      E7800000 
 220              	.LVL13:
 221              		.loc 1 52 13
 222 0128 17090000 		lla	s2,.LANCHOR0
 222      13090900 
 223 0130 2330A900 		sd	a0,0(s2)
  53:src/PCB.cpp   ****     Riscv::printString("got the new thread\n");
 224              		.loc 1 53 5 is_stmt 1
 225              		.loc 1 53 23 is_stmt 0
 226 0134 17050000 		lla	a0,.LC1
 226      13050500 
 227 013c 97000000 		call	_ZN5Riscv11printStringEPKc@plt
 227      E7800000 
 228              	.LVL14:
  54:src/PCB.cpp   ****     PCB::contextSwitch(&old->context, &running->context);
GAS LISTING /tmp/ccwBVz4t.s 			page 7


 229              		.loc 1 54 5 is_stmt 1
 230              		.loc 1 54 49 is_stmt 0
 231 0144 83350900 		ld	a1,0(s2)
 232              		.loc 1 54 23
 233 0148 93858501 		addi	a1,a1,24
 234 014c 13858401 		addi	a0,s1,24
 235 0150 97000000 		call	_ZN3PCB13contextSwitchEPNS_7ContextES1_@plt
 235      E7800000 
 236              	.LVL15:
  55:src/PCB.cpp   **** 
  56:src/PCB.cpp   ****     //Riscv::popRegisters();
  57:src/PCB.cpp   **** }
 237              		.loc 1 57 1
 238 0158 83308101 		ld	ra,24(sp)
 239              		.cfi_remember_state
 240              		.cfi_restore 1
 241 015c 03340101 		ld	s0,16(sp)
 242              		.cfi_restore 8
 243              		.cfi_def_cfa 2, 32
 244 0160 83348100 		ld	s1,8(sp)
 245              		.cfi_restore 9
 246              	.LVL16:
 247 0164 03390100 		ld	s2,0(sp)
 248              		.cfi_restore 18
 249 0168 13010102 		addi	sp,sp,32
 250              		.cfi_def_cfa_offset 0
 251 016c 67800000 		jr	ra
 252              	.LVL17:
 253              	.L12:
 254              		.cfi_restore_state
  51:src/PCB.cpp   ****     running = Scheduler::get();
 255              		.loc 1 51 24 is_stmt 1 discriminator 1
  51:src/PCB.cpp   ****     running = Scheduler::get();
 256              		.loc 1 51 38 is_stmt 0 discriminator 1
 257 0170 13850400 		mv	a0,s1
 258 0174 97000000 		call	_ZN9Scheduler3putEP3PCB@plt
 258      E7800000 
 259              	.LVL18:
 260 017c 6FF05FFA 		j	.L10
 261              		.cfi_endproc
 262              	.LFE30:
 264              		.align	2
 265              		.globl	_ZN3PCBnwEm
 267              	_ZN3PCBnwEm:
 268              	.LFB31:
  58:src/PCB.cpp   **** 
  59:src/PCB.cpp   **** void *PCB::operator new(size_t size) {
 269              		.loc 1 59 38 is_stmt 1
 270              		.cfi_startproc
 271              	.LVL19:
 272 0180 130101FF 		addi	sp,sp,-16
 273              		.cfi_def_cfa_offset 16
 274 0184 23341100 		sd	ra,8(sp)
 275 0188 23308100 		sd	s0,0(sp)
 276              		.cfi_offset 1, -8
 277              		.cfi_offset 8, -16
 278 018c 13040101 		addi	s0,sp,16
GAS LISTING /tmp/ccwBVz4t.s 			page 8


 279              		.cfi_def_cfa 8, 0
  60:src/PCB.cpp   ****     return kmalloc(size);
 280              		.loc 1 60 5
 281              		.loc 1 60 19 is_stmt 0
 282 0190 97000000 		call	_Z7kmallocm@plt
 282      E7800000 
 283              	.LVL20:
  61:src/PCB.cpp   **** }
 284              		.loc 1 61 1
 285 0198 83308100 		ld	ra,8(sp)
 286              		.cfi_restore 1
 287 019c 03340100 		ld	s0,0(sp)
 288              		.cfi_restore 8
 289              		.cfi_def_cfa 2, 16
 290 01a0 13010101 		addi	sp,sp,16
 291              		.cfi_def_cfa_offset 0
 292 01a4 67800000 		jr	ra
 293              		.cfi_endproc
 294              	.LFE31:
 296              		.align	2
 297              		.globl	_ZN3PCBdlEPv
 299              	_ZN3PCBdlEPv:
 300              	.LFB32:
  62:src/PCB.cpp   **** 
  63:src/PCB.cpp   **** void PCB::operator delete(void *p) {
 301              		.loc 1 63 36 is_stmt 1
 302              		.cfi_startproc
 303              	.LVL21:
 304 01a8 130101FF 		addi	sp,sp,-16
 305              		.cfi_def_cfa_offset 16
 306 01ac 23341100 		sd	ra,8(sp)
 307 01b0 23308100 		sd	s0,0(sp)
 308              		.cfi_offset 1, -8
 309              		.cfi_offset 8, -16
 310 01b4 13040101 		addi	s0,sp,16
 311              		.cfi_def_cfa 8, 0
  64:src/PCB.cpp   ****     kfree(p);
 312              		.loc 1 64 5
 313              		.loc 1 64 10 is_stmt 0
 314 01b8 97000000 		call	_Z5kfreePv@plt
 314      E7800000 
 315              	.LVL22:
  65:src/PCB.cpp   **** }
 316              		.loc 1 65 1
 317 01c0 83308100 		ld	ra,8(sp)
 318              		.cfi_restore 1
 319 01c4 03340100 		ld	s0,0(sp)
 320              		.cfi_restore 8
 321              		.cfi_def_cfa 2, 16
 322 01c8 13010101 		addi	sp,sp,16
 323              		.cfi_def_cfa_offset 0
 324 01cc 67800000 		jr	ra
 325              		.cfi_endproc
 326              	.LFE32:
 328              		.globl	_ZN3PCB16timeSliceCounterE
 329              		.globl	_ZN3PCB7runningE
 330              		.bss
GAS LISTING /tmp/ccwBVz4t.s 			page 9


 331              		.align	3
 332              		.set	.LANCHOR0,. + 0
 335              	_ZN3PCB7runningE:
 336 0000 00000000 		.zero	8
 336      00000000 
 339              	_ZN3PCB16timeSliceCounterE:
 340 0008 00000000 		.zero	8
 340      00000000 
 341              		.text
 342              	.Letext0:
 343              		.file 3 "src/../h/../lib/hw.h"
 344              		.file 4 "src/../h/Queue.h"
 345              		.file 5 "src/../h/Scheduler.h"
 346              		.file 6 "src/../h/Riscv.h"
 347              		.file 7 "src/../h/MemoryAllocator.h"
 348              		.file 8 "src/../h/syscall_c.h"
GAS LISTING /tmp/ccwBVz4t.s 			page 10


DEFINED SYMBOLS
                            *ABS*:0000000000000000 PCB.cpp
     /tmp/ccwBVz4t.s:14     .text:0000000000000000 _ZN3PCB6runnerEv
     /tmp/ccwBVz4t.s:18     .text:0000000000000000 .L0 
     /tmp/ccwBVz4t.s:19     .text:0000000000000000 .L0 
     /tmp/ccwBVz4t.s:20     .text:0000000000000004 .L0 
     /tmp/ccwBVz4t.s:24     .text:0000000000000010 .L0 
     /tmp/ccwBVz4t.s:25     .text:0000000000000010 .L0 
     /tmp/ccwBVz4t.s:26     .text:0000000000000010 .L0 
     /tmp/ccwBVz4t.s:28     .text:0000000000000014 .L0 
     /tmp/ccwBVz4t.s:30     .text:0000000000000014 .L0 
     /tmp/ccwBVz4t.s:31     .text:0000000000000014 .L0 
     /tmp/ccwBVz4t.s:35     .text:0000000000000024 .L0 
     /tmp/ccwBVz4t.s:36     .text:0000000000000024 .L0 
     /tmp/ccwBVz4t.s:39     .text:000000000000002c .L0 
     /tmp/ccwBVz4t.s:40     .text:000000000000002c .L0 
     /tmp/ccwBVz4t.s:44     .text:000000000000003c .L0 
     /tmp/ccwBVz4t.s:48     .text:0000000000000044 .L0 
     /tmp/ccwBVz4t.s:49     .text:0000000000000044 .L0 
     /tmp/ccwBVz4t.s:55     .text:0000000000000048 .L0 
     /tmp/ccwBVz4t.s:56     .text:0000000000000048 .L0 
     /tmp/ccwBVz4t.s:61     .text:000000000000004c .L0 
     /tmp/ccwBVz4t.s:62     .text:000000000000004c .L0 
     /tmp/ccwBVz4t.s:65     .text:0000000000000054 .L0 
     /tmp/ccwBVz4t.s:66     .text:0000000000000058 .L0 
     /tmp/ccwBVz4t.s:68     .text:000000000000005c .L0 
     /tmp/ccwBVz4t.s:69     .text:000000000000005c .L0 
     /tmp/ccwBVz4t.s:71     .text:0000000000000060 .L0 
     /tmp/ccwBVz4t.s:73     .text:0000000000000064 .L0 
     /tmp/ccwBVz4t.s:75     .text:0000000000000068 .L0 
     /tmp/ccwBVz4t.s:81     .text:0000000000000068 _ZN3PCBC2EPFvPvES0_S0_
     /tmp/ccwBVz4t.s:84     .text:0000000000000068 .L0 
     /tmp/ccwBVz4t.s:86     .text:0000000000000068 .L0 
     /tmp/ccwBVz4t.s:87     .text:000000000000006c .L0 
     /tmp/ccwBVz4t.s:90     .text:0000000000000074 .L0 
     /tmp/ccwBVz4t.s:91     .text:0000000000000074 .L0 
     /tmp/ccwBVz4t.s:93     .text:0000000000000078 .L0 
     /tmp/ccwBVz4t.s:96     .text:0000000000000078 .L0 
     /tmp/ccwBVz4t.s:99     .text:0000000000000080 .L0 
     /tmp/ccwBVz4t.s:104    .text:000000000000008c .L0 
     /tmp/ccwBVz4t.s:109    .text:00000000000000a0 .L0 
     /tmp/ccwBVz4t.s:110    .text:00000000000000a0 .L0 
     /tmp/ccwBVz4t.s:114    .text:00000000000000a8 .L0 
     /tmp/ccwBVz4t.s:115    .text:00000000000000ac .L0 
     /tmp/ccwBVz4t.s:117    .text:00000000000000b0 .L0 
     /tmp/ccwBVz4t.s:118    .text:00000000000000b0 .L0 
     /tmp/ccwBVz4t.s:120    .text:00000000000000b4 .L0 
     /tmp/ccwBVz4t.s:122    .text:00000000000000b8 .L0 
     /tmp/ccwBVz4t.s:81     .text:0000000000000068 _ZN3PCBC1EPFvPvES0_S0_
     /tmp/ccwBVz4t.s:130    .text:00000000000000b8 _ZN3PCB5sleepEm
     /tmp/ccwBVz4t.s:133    .text:00000000000000b8 .L0 
     /tmp/ccwBVz4t.s:135    .text:00000000000000b8 .L0 
     /tmp/ccwBVz4t.s:136    .text:00000000000000bc .L0 
     /tmp/ccwBVz4t.s:138    .text:00000000000000c0 .L0 
     /tmp/ccwBVz4t.s:140    .text:00000000000000c4 .L0 
     /tmp/ccwBVz4t.s:142    .text:00000000000000c4 .L0 
     /tmp/ccwBVz4t.s:143    .text:00000000000000c8 .L0 
GAS LISTING /tmp/ccwBVz4t.s 			page 11


     /tmp/ccwBVz4t.s:144    .text:00000000000000c8 .L0 
     /tmp/ccwBVz4t.s:146    .text:00000000000000cc .L0 
     /tmp/ccwBVz4t.s:148    .text:00000000000000d0 .L0 
     /tmp/ccwBVz4t.s:154    .text:00000000000000d0 _ZN3PCB5startEv
     /tmp/ccwBVz4t.s:157    .text:00000000000000d0 .L0 
     /tmp/ccwBVz4t.s:159    .text:00000000000000d0 .L0 
     /tmp/ccwBVz4t.s:160    .text:00000000000000d4 .L0 
     /tmp/ccwBVz4t.s:163    .text:00000000000000dc .L0 
     /tmp/ccwBVz4t.s:164    .text:00000000000000dc .L0 
     /tmp/ccwBVz4t.s:166    .text:00000000000000e0 .L0 
     /tmp/ccwBVz4t.s:168    .text:00000000000000e0 .L0 
     /tmp/ccwBVz4t.s:169    .text:00000000000000e0 .L0 
     /tmp/ccwBVz4t.s:172    .text:00000000000000e8 .L0 
     /tmp/ccwBVz4t.s:173    .text:00000000000000ec .L0 
     /tmp/ccwBVz4t.s:175    .text:00000000000000f0 .L0 
     /tmp/ccwBVz4t.s:176    .text:00000000000000f0 .L0 
     /tmp/ccwBVz4t.s:178    .text:00000000000000f4 .L0 
     /tmp/ccwBVz4t.s:180    .text:00000000000000f8 .L0 
     /tmp/ccwBVz4t.s:191    .text:00000000000000f8 _ZN3PCB8dispatchEv
     /tmp/ccwBVz4t.s:194    .text:00000000000000f8 .L0 
     /tmp/ccwBVz4t.s:195    .text:00000000000000f8 .L0 
     /tmp/ccwBVz4t.s:196    .text:00000000000000fc .L0 
     /tmp/ccwBVz4t.s:201    .text:000000000000010c .L0 
     /tmp/ccwBVz4t.s:202    .text:000000000000010c .L0 
     /tmp/ccwBVz4t.s:203    .text:000000000000010c .L0 
     /tmp/ccwBVz4t.s:204    .text:000000000000010c .L0 
     /tmp/ccwBVz4t.s:206    .text:0000000000000110 .L0 
     /tmp/ccwBVz4t.s:208    .text:0000000000000110 .L0 
     /tmp/ccwBVz4t.s:209    .text:0000000000000110 .L0 
     /tmp/ccwBVz4t.s:212    .text:0000000000000118 .L0 
     /tmp/ccwBVz4t.s:213    .text:0000000000000118 .L0 
     /tmp/ccwBVz4t.s:215    .text:000000000000011c .L0 
     /tmp/ccwBVz4t.s:218    .text:0000000000000120 .L0 
     /tmp/ccwBVz4t.s:219    .text:0000000000000120 .L0 
     /tmp/ccwBVz4t.s:222    .text:0000000000000128 .L0 
     /tmp/ccwBVz4t.s:225    .text:0000000000000134 .L0 
     /tmp/ccwBVz4t.s:226    .text:0000000000000134 .L0 
     /tmp/ccwBVz4t.s:230    .text:0000000000000144 .L0 
     /tmp/ccwBVz4t.s:231    .text:0000000000000144 .L0 
     /tmp/ccwBVz4t.s:233    .text:0000000000000148 .L0 
     /tmp/ccwBVz4t.s:238    .text:0000000000000158 .L0 
     /tmp/ccwBVz4t.s:239    .text:000000000000015c .L0 
     /tmp/ccwBVz4t.s:240    .text:000000000000015c .L0 
     /tmp/ccwBVz4t.s:242    .text:0000000000000160 .L0 
     /tmp/ccwBVz4t.s:243    .text:0000000000000160 .L0 
     /tmp/ccwBVz4t.s:245    .text:0000000000000164 .L0 
     /tmp/ccwBVz4t.s:248    .text:0000000000000168 .L0 
     /tmp/ccwBVz4t.s:250    .text:000000000000016c .L0 
     /tmp/ccwBVz4t.s:254    .text:0000000000000170 .L0 
     /tmp/ccwBVz4t.s:256    .text:0000000000000170 .L0 
     /tmp/ccwBVz4t.s:257    .text:0000000000000170 .L0 
     /tmp/ccwBVz4t.s:261    .text:0000000000000180 .L0 
     /tmp/ccwBVz4t.s:267    .text:0000000000000180 _ZN3PCBnwEm
     /tmp/ccwBVz4t.s:270    .text:0000000000000180 .L0 
     /tmp/ccwBVz4t.s:272    .text:0000000000000180 .L0 
     /tmp/ccwBVz4t.s:273    .text:0000000000000184 .L0 
     /tmp/ccwBVz4t.s:276    .text:000000000000018c .L0 
GAS LISTING /tmp/ccwBVz4t.s 			page 12


     /tmp/ccwBVz4t.s:277    .text:000000000000018c .L0 
     /tmp/ccwBVz4t.s:279    .text:0000000000000190 .L0 
     /tmp/ccwBVz4t.s:281    .text:0000000000000190 .L0 
     /tmp/ccwBVz4t.s:282    .text:0000000000000190 .L0 
     /tmp/ccwBVz4t.s:285    .text:0000000000000198 .L0 
     /tmp/ccwBVz4t.s:286    .text:000000000000019c .L0 
     /tmp/ccwBVz4t.s:288    .text:00000000000001a0 .L0 
     /tmp/ccwBVz4t.s:289    .text:00000000000001a0 .L0 
     /tmp/ccwBVz4t.s:291    .text:00000000000001a4 .L0 
     /tmp/ccwBVz4t.s:293    .text:00000000000001a8 .L0 
     /tmp/ccwBVz4t.s:299    .text:00000000000001a8 _ZN3PCBdlEPv
     /tmp/ccwBVz4t.s:302    .text:00000000000001a8 .L0 
     /tmp/ccwBVz4t.s:304    .text:00000000000001a8 .L0 
     /tmp/ccwBVz4t.s:305    .text:00000000000001ac .L0 
     /tmp/ccwBVz4t.s:308    .text:00000000000001b4 .L0 
     /tmp/ccwBVz4t.s:309    .text:00000000000001b4 .L0 
     /tmp/ccwBVz4t.s:311    .text:00000000000001b8 .L0 
     /tmp/ccwBVz4t.s:313    .text:00000000000001b8 .L0 
     /tmp/ccwBVz4t.s:314    .text:00000000000001b8 .L0 
     /tmp/ccwBVz4t.s:317    .text:00000000000001c0 .L0 
     /tmp/ccwBVz4t.s:318    .text:00000000000001c4 .L0 
     /tmp/ccwBVz4t.s:320    .text:00000000000001c8 .L0 
     /tmp/ccwBVz4t.s:321    .text:00000000000001c8 .L0 
     /tmp/ccwBVz4t.s:323    .text:00000000000001cc .L0 
     /tmp/ccwBVz4t.s:325    .text:00000000000001d0 .L0 
     /tmp/ccwBVz4t.s:339    .bss:0000000000000008 _ZN3PCB16timeSliceCounterE
     /tmp/ccwBVz4t.s:335    .bss:0000000000000000 _ZN3PCB7runningE
     /tmp/ccwBVz4t.s:332    .bss:0000000000000000 .LANCHOR0
     /tmp/ccwBVz4t.s:349    .text:00000000000001d0 .L0 
     /tmp/ccwBVz4t.s:8      .rodata.str1.8:0000000000000000 .LC0
     /tmp/ccwBVz4t.s:31     .text:0000000000000014 .L0 
     /tmp/ccwBVz4t.s:40     .text:000000000000002c .L0 
     /tmp/ccwBVz4t.s:105    .text:0000000000000090 .L0 
     /tmp/ccwBVz4t.s:209    .text:0000000000000110 .L0 
     /tmp/ccwBVz4t.s:222    .text:0000000000000128 .L0 
     /tmp/ccwBVz4t.s:185    .rodata.str1.8:0000000000000018 .LC1
     /tmp/ccwBVz4t.s:226    .text:0000000000000134 .L0 
     /tmp/ccwBVz4t.s:253    .text:0000000000000170 .L12
     /tmp/ccwBVz4t.s:216    .text:0000000000000120 .L10
     /tmp/ccwBVz4t.s:1560   .debug_abbrev:0000000000000000 .Ldebug_abbrev0
     /tmp/ccwBVz4t.s:2849   .debug_str:0000000000000473 .LASF136
     /tmp/ccwBVz4t.s:2953   .debug_str:00000000000007e5 .LASF137
     /tmp/ccwBVz4t.s:2941   .debug_str:0000000000000784 .LASF138
     /tmp/ccwBVz4t.s:5      .text:0000000000000000 .Ltext0
     /tmp/ccwBVz4t.s:342    .text:00000000000001d0 .Letext0
     /tmp/ccwBVz4t.s:2701   .debug_line:0000000000000000 .Ldebug_line0
     /tmp/ccwBVz4t.s:2797   .debug_str:00000000000002e5 .LASF0
     /tmp/ccwBVz4t.s:2823   .debug_str:00000000000003b8 .LASF1
     /tmp/ccwBVz4t.s:2895   .debug_str:0000000000000641 .LASF2
     /tmp/ccwBVz4t.s:2901   .debug_str:000000000000067c .LASF4
     /tmp/ccwBVz4t.s:2809   .debug_str:000000000000032b .LASF3
     /tmp/ccwBVz4t.s:2711   .debug_str:0000000000000036 .LASF5
     /tmp/ccwBVz4t.s:2879   .debug_str:00000000000005e8 .LASF6
     /tmp/ccwBVz4t.s:2869   .debug_str:000000000000059e .LASF7
     /tmp/ccwBVz4t.s:2817   .debug_str:0000000000000378 .LASF8
     /tmp/ccwBVz4t.s:2779   .debug_str:0000000000000246 .LASF9
     /tmp/ccwBVz4t.s:2783   .debug_str:0000000000000272 .LASF10
GAS LISTING /tmp/ccwBVz4t.s 			page 13


     /tmp/ccwBVz4t.s:2743   .debug_str:0000000000000158 .LASF11
     /tmp/ccwBVz4t.s:2769   .debug_str:000000000000020e .LASF12
     /tmp/ccwBVz4t.s:2749   .debug_str:0000000000000191 .LASF13
     /tmp/ccwBVz4t.s:2741   .debug_str:0000000000000148 .LASF14
     /tmp/ccwBVz4t.s:2919   .debug_str:0000000000000702 .LASF15
     /tmp/ccwBVz4t.s:2765   .debug_str:00000000000001ec .LASF16
     /tmp/ccwBVz4t.s:2915   .debug_str:00000000000006e5 .LASF17
     /tmp/ccwBVz4t.s:2979   .debug_str:0000000000000887 .LASF27
     /tmp/ccwBVz4t.s:2957   .debug_str:00000000000007f7 .LASF18
     /tmp/ccwBVz4t.s:2925   .debug_str:000000000000071f .LASF19
     /tmp/ccwBVz4t.s:2833   .debug_str:00000000000003f3 .LASF20
     /tmp/ccwBVz4t.s:2847   .debug_str:000000000000045c .LASF29
     /tmp/ccwBVz4t.s:2955   .debug_str:00000000000007f1 .LASF38
     /tmp/ccwBVz4t.s:2709   .debug_str:000000000000001d .LASF40
     /tmp/ccwBVz4t.s:2799   .debug_str:00000000000002f2 .LASF21
     /tmp/ccwBVz4t.s:2933   .debug_str:000000000000073c .LASF23
     /tmp/ccwBVz4t.s:2943   .debug_str:00000000000007a7 .LASF22
     /tmp/ccwBVz4t.s:2897   .debug_str:000000000000064f .LASF24
     /tmp/ccwBVz4t.s:2885   .debug_str:0000000000000602 .LASF25
     /tmp/ccwBVz4t.s:2865   .debug_str:0000000000000576 .LASF26
     /tmp/ccwBVz4t.s:2923   .debug_str:0000000000000717 .LASF55
     /tmp/ccwBVz4t.s:2791   .debug_str:00000000000002b5 .LASF28
     /tmp/ccwBVz4t.s:2959   .debug_str:00000000000007fc .LASF30
     /tmp/ccwBVz4t.s:2863   .debug_str:0000000000000571 .LASF139
     /tmp/ccwBVz4t.s:2983   .debug_str:000000000000089f .LASF31
     /tmp/ccwBVz4t.s:2935   .debug_str:0000000000000756 .LASF32
     /tmp/ccwBVz4t.s:2761   .debug_str:00000000000001dd .LASF64
     /tmp/ccwBVz4t.s:2723   .debug_str:0000000000000089 .LASF66
     /tmp/ccwBVz4t.s:2827   .debug_str:00000000000003d4 .LASF48
     /tmp/ccwBVz4t.s:2871   .debug_str:00000000000005b1 .LASF50
     /tmp/ccwBVz4t.s:2931   .debug_str:0000000000000734 .LASF36
     /tmp/ccwBVz4t.s:2913   .debug_str:00000000000006d7 .LASF33
     /tmp/ccwBVz4t.s:2881   .debug_str:00000000000005ef .LASF34
     /tmp/ccwBVz4t.s:2757   .debug_str:00000000000001bb .LASF35
     /tmp/ccwBVz4t.s:2909   .debug_str:00000000000006ab .LASF37
     /tmp/ccwBVz4t.s:2829   .debug_str:00000000000003da .LASF39
     /tmp/ccwBVz4t.s:2837   .debug_str:0000000000000400 .LASF41
     /tmp/ccwBVz4t.s:2729   .debug_str:00000000000000df .LASF42
     /tmp/ccwBVz4t.s:2785   .debug_str:0000000000000280 .LASF43
     /tmp/ccwBVz4t.s:2857   .debug_str:0000000000000549 .LASF44
     /tmp/ccwBVz4t.s:2747   .debug_str:000000000000017a .LASF45
     /tmp/ccwBVz4t.s:2991   .debug_str:00000000000008d6 .LASF46
     /tmp/ccwBVz4t.s:2767   .debug_str:0000000000000202 .LASF47
     /tmp/ccwBVz4t.s:2705   .debug_str:0000000000000005 .LASF49
     /tmp/ccwBVz4t.s:2807   .debug_str:000000000000031e .LASF51
     /tmp/ccwBVz4t.s:2939   .debug_str:000000000000077a .LASF52
     /tmp/ccwBVz4t.s:2753   .debug_str:00000000000001a6 .LASF140
     /tmp/ccwBVz4t.s:2727   .debug_str:00000000000000b7 .LASF141
     /tmp/ccwBVz4t.s:2975   .debug_str:000000000000086a .LASF142
     /tmp/ccwBVz4t.s:2737   .debug_str:0000000000000123 .LASF143
     /tmp/ccwBVz4t.s:2703   .debug_str:0000000000000000 .LASF53
     /tmp/ccwBVz4t.s:2987   .debug_str:00000000000008b9 .LASF54
     /tmp/ccwBVz4t.s:2945   .debug_str:00000000000007ad .LASF56
     /tmp/ccwBVz4t.s:2929   .debug_str:000000000000072a .LASF57
     /tmp/ccwBVz4t.s:2921   .debug_str:000000000000070e .LASF58
     /tmp/ccwBVz4t.s:2777   .debug_str:000000000000023c .LASF59
     /tmp/ccwBVz4t.s:2717   .debug_str:0000000000000052 .LASF144
GAS LISTING /tmp/ccwBVz4t.s 			page 14


     /tmp/ccwBVz4t.s:2985   .debug_str:00000000000008a5 .LASF145
     /tmp/ccwBVz4t.s:2731   .debug_str:00000000000000eb .LASF60
     /tmp/ccwBVz4t.s:2867   .debug_str:000000000000058b .LASF61
     /tmp/ccwBVz4t.s:2719   .debug_str:000000000000006a .LASF62
     /tmp/ccwBVz4t.s:2715   .debug_str:0000000000000048 .LASF146
     /tmp/ccwBVz4t.s:2967   .debug_str:0000000000000838 .LASF63
     /tmp/ccwBVz4t.s:2853   .debug_str:0000000000000527 .LASF65
     /tmp/ccwBVz4t.s:2845   .debug_str:0000000000000444 .LASF67
     /tmp/ccwBVz4t.s:2981   .debug_str:0000000000000893 .LASF68
     /tmp/ccwBVz4t.s:2725   .debug_str:000000000000009c .LASF69
     /tmp/ccwBVz4t.s:2877   .debug_str:00000000000005db .LASF70
     /tmp/ccwBVz4t.s:2821   .debug_str:000000000000039e .LASF71
     /tmp/ccwBVz4t.s:2907   .debug_str:000000000000069d .LASF72
     /tmp/ccwBVz4t.s:2911   .debug_str:00000000000006bc .LASF73
     /tmp/ccwBVz4t.s:2801   .debug_str:00000000000002f7 .LASF74
     /tmp/ccwBVz4t.s:2971   .debug_str:0000000000000848 .LASF75
     /tmp/ccwBVz4t.s:2825   .debug_str:00000000000003cb .LASF76
     /tmp/ccwBVz4t.s:2947   .debug_str:00000000000007b5 .LASF80
     /tmp/ccwBVz4t.s:2891   .debug_str:000000000000062d .LASF77
     /tmp/ccwBVz4t.s:2861   .debug_str:000000000000055c .LASF78
     /tmp/ccwBVz4t.s:2883   .debug_str:00000000000005fb .LASF79
     /tmp/ccwBVz4t.s:2735   .debug_str:0000000000000110 .LASF81
     /tmp/ccwBVz4t.s:2859   .debug_str:0000000000000555 .LASF82
     /tmp/ccwBVz4t.s:2819   .debug_str:000000000000038b .LASF83
     /tmp/ccwBVz4t.s:2973   .debug_str:0000000000000862 .LASF84
     /tmp/ccwBVz4t.s:2937   .debug_str:0000000000000766 .LASF85
     /tmp/ccwBVz4t.s:2815   .debug_str:0000000000000370 .LASF86
     /tmp/ccwBVz4t.s:2771   .debug_str:000000000000021d .LASF87
     /tmp/ccwBVz4t.s:2835   .debug_str:00000000000003f8 .LASF88
     /tmp/ccwBVz4t.s:2887   .debug_str:0000000000000609 .LASF89
     /tmp/ccwBVz4t.s:2997   .debug_str:00000000000008fd .LASF90
     /tmp/ccwBVz4t.s:2805   .debug_str:000000000000030a .LASF91
     /tmp/ccwBVz4t.s:2917   .debug_str:00000000000006fb .LASF92
     /tmp/ccwBVz4t.s:2903   .debug_str:0000000000000683 .LASF93
     /tmp/ccwBVz4t.s:2905   .debug_str:0000000000000696 .LASF94
     /tmp/ccwBVz4t.s:2745   .debug_str:0000000000000167 .LASF95
     /tmp/ccwBVz4t.s:2763   .debug_str:00000000000001e6 .LASF96
     /tmp/ccwBVz4t.s:2793   .debug_str:00000000000002bb .LASF97
     /tmp/ccwBVz4t.s:2803   .debug_str:0000000000000304 .LASF98
     /tmp/ccwBVz4t.s:2759   .debug_str:00000000000001cb .LASF99
     /tmp/ccwBVz4t.s:2713   .debug_str:000000000000003d .LASF100
     /tmp/ccwBVz4t.s:2899   .debug_str:0000000000000664 .LASF101
     /tmp/ccwBVz4t.s:2893   .debug_str:0000000000000636 .LASF102
     /tmp/ccwBVz4t.s:2989   .debug_str:00000000000008be .LASF103
     /tmp/ccwBVz4t.s:2969   .debug_str:000000000000083e .LASF104
     /tmp/ccwBVz4t.s:2977   .debug_str:0000000000000871 .LASF105
     /tmp/ccwBVz4t.s:2963   .debug_str:0000000000000826 .LASF106
     /tmp/ccwBVz4t.s:2721   .debug_str:0000000000000073 .LASF107
     /tmp/ccwBVz4t.s:2789   .debug_str:00000000000002aa .LASF108
     /tmp/ccwBVz4t.s:2795   .debug_str:00000000000002cd .LASF109
     /tmp/ccwBVz4t.s:2951   .debug_str:00000000000007d6 .LASF110
     /tmp/ccwBVz4t.s:2781   .debug_str:0000000000000256 .LASF111
     /tmp/ccwBVz4t.s:2875   .debug_str:00000000000005c6 .LASF112
     /tmp/ccwBVz4t.s:2813   .debug_str:000000000000034e .LASF113
     /tmp/ccwBVz4t.s:2755   .debug_str:00000000000001b4 .LASF114
     /tmp/ccwBVz4t.s:2707   .debug_str:0000000000000015 .LASF115
     /tmp/ccwBVz4t.s:2993   .debug_str:00000000000008e3 .LASF116
GAS LISTING /tmp/ccwBVz4t.s 			page 15


     /tmp/ccwBVz4t.s:2949   .debug_str:00000000000007ca .LASF117
     /tmp/ccwBVz4t.s:2733   .debug_str:00000000000000fd .LASF118
     /tmp/ccwBVz4t.s:2851   .debug_str:0000000000000515 .LASF119
     /tmp/ccwBVz4t.s:2787   .debug_str:0000000000000297 .LASF120
     /tmp/ccwBVz4t.s:2961   .debug_str:0000000000000813 .LASF121
     /tmp/ccwBVz4t.s:2739   .debug_str:0000000000000134 .LASF122
     /tmp/ccwBVz4t.s:2927   .debug_str:0000000000000725 .LASF123
     /tmp/ccwBVz4t.s:2841   .debug_str:0000000000000433 .LASF124
     /tmp/ccwBVz4t.s:2811   .debug_str:000000000000033d .LASF125
     /tmp/ccwBVz4t.s:2839   .debug_str:0000000000000418 .LASF126
     /tmp/ccwBVz4t.s:300    .text:00000000000001a8 .LFB32
     /tmp/ccwBVz4t.s:326    .text:00000000000001d0 .LFE32
     /tmp/ccwBVz4t.s:2558   .debug_loc:0000000000000000 .LLST9
     /tmp/ccwBVz4t.s:315    .text:00000000000001c0 .LVL22
     /tmp/ccwBVz4t.s:268    .text:0000000000000180 .LFB31
     /tmp/ccwBVz4t.s:294    .text:00000000000001a8 .LFE31
     /tmp/ccwBVz4t.s:2751   .debug_str:00000000000001a1 .LASF127
     /tmp/ccwBVz4t.s:2572   .debug_loc:0000000000000039 .LLST8
     /tmp/ccwBVz4t.s:283    .text:0000000000000198 .LVL20
     /tmp/ccwBVz4t.s:192    .text:00000000000000f8 .LFB30
     /tmp/ccwBVz4t.s:262    .text:0000000000000180 .LFE30
     /tmp/ccwBVz4t.s:2586   .debug_loc:0000000000000072 .LLST7
     /tmp/ccwBVz4t.s:220    .text:0000000000000128 .LVL13
     /tmp/ccwBVz4t.s:228    .text:0000000000000144 .LVL14
     /tmp/ccwBVz4t.s:236    .text:0000000000000158 .LVL15
     /tmp/ccwBVz4t.s:259    .text:000000000000017c .LVL18
     /tmp/ccwBVz4t.s:15     .text:0000000000000000 .LFB29
     /tmp/ccwBVz4t.s:76     .text:0000000000000068 .LFE29
     /tmp/ccwBVz4t.s:51     .text:0000000000000048 .LBB4
     /tmp/ccwBVz4t.s:59     .text:000000000000004c .LBE4
     /tmp/ccwBVz4t.s:2597   .debug_loc:00000000000000a8 .LLST0
     /tmp/ccwBVz4t.s:2605   .debug_loc:00000000000000cc .LLST1
     /tmp/ccwBVz4t.s:33     .text:0000000000000024 .LVL0
     /tmp/ccwBVz4t.s:37     .text:000000000000002c .LVL1
     /tmp/ccwBVz4t.s:63     .text:0000000000000054 .LVL5
     /tmp/ccwBVz4t.s:155    .text:00000000000000d0 .LFB28
     /tmp/ccwBVz4t.s:181    .text:00000000000000f8 .LFE28
     /tmp/ccwBVz4t.s:2773   .debug_str:0000000000000231 .LASF130
     /tmp/ccwBVz4t.s:2612   .debug_loc:00000000000000ef .LLST6
     /tmp/ccwBVz4t.s:170    .text:00000000000000e8 .LVL11
     /tmp/ccwBVz4t.s:131    .text:00000000000000b8 .LFB27
     /tmp/ccwBVz4t.s:149    .text:00000000000000d0 .LFE27
     /tmp/ccwBVz4t.s:2873   .debug_str:00000000000005c1 .LASF128
     /tmp/ccwBVz4t.s:2843   .debug_str:0000000000000438 .LASF129
     /tmp/ccwBVz4t.s:2855   .debug_str:0000000000000532 .LASF147
     /tmp/ccwBVz4t.s:82     .text:0000000000000068 .LFB25
     /tmp/ccwBVz4t.s:123    .text:00000000000000b8 .LFE25
     /tmp/ccwBVz4t.s:2626   .debug_loc:0000000000000128 .LLST2
     /tmp/ccwBVz4t.s:2640   .debug_loc:0000000000000161 .LLST3
     /tmp/ccwBVz4t.s:2654   .debug_loc:000000000000019a .LLST4
     /tmp/ccwBVz4t.s:2668   .debug_loc:00000000000001d3 .LLST5
     /tmp/ccwBVz4t.s:111    .text:00000000000000a8 .LVL8
     /tmp/ccwBVz4t.s:2995   .debug_str:00000000000008f2 .LASF131
     /tmp/ccwBVz4t.s:2775   .debug_str:0000000000000236 .LASF133
     /tmp/ccwBVz4t.s:2831   .debug_str:00000000000003e7 .LASF132
     /tmp/ccwBVz4t.s:2965   .debug_str:0000000000000830 .LASF134
     /tmp/ccwBVz4t.s:2889   .debug_str:000000000000061d .LASF135
GAS LISTING /tmp/ccwBVz4t.s 			page 16


     /tmp/ccwBVz4t.s:303    .text:00000000000001a8 .LVL21
     /tmp/ccwBVz4t.s:271    .text:0000000000000180 .LVL19
     /tmp/ccwBVz4t.s:210    .text:0000000000000118 .LVL12
     /tmp/ccwBVz4t.s:246    .text:0000000000000164 .LVL16
     /tmp/ccwBVz4t.s:252    .text:0000000000000170 .LVL17
     /tmp/ccwBVz4t.s:50     .text:0000000000000048 .LVL3
     /tmp/ccwBVz4t.s:57     .text:000000000000004c .LVL4
     /tmp/ccwBVz4t.s:158    .text:00000000000000d0 .LVL10
     /tmp/ccwBVz4t.s:85     .text:0000000000000068 .LVL6
     /tmp/ccwBVz4t.s:102    .text:000000000000008c .LVL7
     /tmp/ccwBVz4t.s:350    .debug_info:0000000000000000 .Ldebug_info0

UNDEFINED SYMBOLS
_ZN5Riscv11printStringEPKc
_ZN5Riscv10popSppSpieEv
thread_dispatch
_ZN9Scheduler3putEP3PCB
_ZN9Scheduler3getEv
_ZN3PCB13contextSwitchEPNS_7ContextES1_
_Z7kmallocm
_Z5kfreePv
