GAS LISTING /tmp/ccWLvJi6.s 			page 1


   1              		.file	"PCB.cpp"
   2              		.option pic
   3              		.option norelax
   4              		.text
   5              	.Ltext0:
   6              		.align	2
   7              		.globl	_ZN3PCB6runnerEv
   9              	_ZN3PCB6runnerEv:
  10              	.LFB29:
  11              		.file 1 "src/PCB.cpp"
   1:src/PCB.cpp   **** //
   2:src/PCB.cpp   **** // Created by os on 4/27/22.
   3:src/PCB.cpp   **** //
   4:src/PCB.cpp   **** 
   5:src/PCB.cpp   **** #include "../h/PCB.hpp"
   6:src/PCB.cpp   **** #include "../h/syscall_c.h"
   7:src/PCB.cpp   **** #include "../h/SleepPCBList.hpp"
   8:src/PCB.cpp   **** #include "../test/printing.hpp"
   9:src/PCB.cpp   **** #include "../h/KConsole.hpp"
  10:src/PCB.cpp   **** 
  11:src/PCB.cpp   **** PCB* PCB::running = 0;
  12:src/PCB.cpp   **** uint64 PCB::timeSliceCounter = 0;
  13:src/PCB.cpp   **** uint64 PCB::savedRegA4 = 0;
  14:src/PCB.cpp   **** 
  15:src/PCB.cpp   **** PCB::PCB(Body body, void *args, void* stack_space, uint64 timeSlice) :
  16:src/PCB.cpp   ****     timeSlice(timeSlice),
  17:src/PCB.cpp   ****     body(body),
  18:src/PCB.cpp   ****     args(args),
  19:src/PCB.cpp   ****     beginSP(stack_space),
  20:src/PCB.cpp   ****     context({
  21:src/PCB.cpp   ****         (uint64)((char*)stack_space + DEFAULT_STACK_SIZE),
  22:src/PCB.cpp   ****         (uint64)&PCB::runner
  23:src/PCB.cpp   ****     })
  24:src/PCB.cpp   **** {
  25:src/PCB.cpp   ****     //Scheduler::put(this);
  26:src/PCB.cpp   ****     nextPCB = 0;
  27:src/PCB.cpp   **** }
  28:src/PCB.cpp   **** 
  29:src/PCB.cpp   **** void PCB::sleep(time_t time)
  30:src/PCB.cpp   **** {
  31:src/PCB.cpp   ****     //todo
  32:src/PCB.cpp   **** }
  33:src/PCB.cpp   **** 
  34:src/PCB.cpp   **** void PCB::start()
  35:src/PCB.cpp   **** {
  36:src/PCB.cpp   ****     Scheduler::put(this);
  37:src/PCB.cpp   **** }
  38:src/PCB.cpp   **** 
  39:src/PCB.cpp   **** void PCB::runner()
  40:src/PCB.cpp   **** {
  12              		.loc 1 40 1
  13              		.cfi_startproc
  14 0000 130101FF 		addi	sp,sp,-16
  15              		.cfi_def_cfa_offset 16
  16 0004 23341100 		sd	ra,8(sp)
  17 0008 23308100 		sd	s0,0(sp)
  18              		.cfi_offset 1, -8
GAS LISTING /tmp/ccWLvJi6.s 			page 2


  19              		.cfi_offset 8, -16
  20 000c 13040101 		addi	s0,sp,16
  21              		.cfi_def_cfa 8, 0
  41:src/PCB.cpp   ****     //Riscv::printString("Runner started...\n");
  42:src/PCB.cpp   ****     Riscv::popSppSpie();
  22              		.loc 1 42 5
  23              		.loc 1 42 22 is_stmt 0
  24 0010 97000000 		call	_ZN5Riscv10popSppSpieEv@plt
  24      E7800000 
  25              	.LVL0:
  43:src/PCB.cpp   **** 
  44:src/PCB.cpp   ****     running->body(running->args);
  26              		.loc 1 44 5 is_stmt 1
  27              		.loc 1 44 14 is_stmt 0
  28 0018 97070000 		ld	a5,.LANCHOR0
  28      83B70700 
  29 0020 03B70702 		ld	a4,32(a5)
  30              		.loc 1 44 18
  31 0024 03B58702 		ld	a0,40(a5)
  32 0028 E7000700 		jalr	a4
  33              	.LVL1:
  45:src/PCB.cpp   **** 
  46:src/PCB.cpp   ****     thread_exit();
  34              		.loc 1 46 5 is_stmt 1
  35              		.loc 1 46 16 is_stmt 0
  36 002c 97000000 		call	thread_exit@plt
  36      E7800000 
  37              	.LVL2:
  47:src/PCB.cpp   **** }
  38              		.loc 1 47 1
  39 0034 83308100 		ld	ra,8(sp)
  40              		.cfi_restore 1
  41 0038 03340100 		ld	s0,0(sp)
  42              		.cfi_restore 8
  43              		.cfi_def_cfa 2, 16
  44 003c 13010101 		addi	sp,sp,16
  45              		.cfi_def_cfa_offset 0
  46 0040 67800000 		jr	ra
  47              		.cfi_endproc
  48              	.LFE29:
  50              		.align	2
  51              		.globl	_ZN3PCBC2EPFvPvES0_S0_m
  53              	_ZN3PCBC2EPFvPvES0_S0_m:
  54              	.LFB25:
  15:src/PCB.cpp   ****     timeSlice(timeSlice),
  55              		.loc 1 15 1 is_stmt 1
  56              		.cfi_startproc
  57              	.LVL3:
  58 0044 130101FF 		addi	sp,sp,-16
  59              		.cfi_def_cfa_offset 16
  60 0048 23348100 		sd	s0,8(sp)
  61              		.cfi_offset 8, -8
  62 004c 13040101 		addi	s0,sp,16
  63              		.cfi_def_cfa 8, 0
  64              	.LBB12:
  23:src/PCB.cpp   **** {
  65              		.loc 1 23 6 is_stmt 0
GAS LISTING /tmp/ccWLvJi6.s 			page 3


  66 0050 23000500 		sb	zero,0(a0)
  67 0054 2338E500 		sd	a4,16(a0)
  68 0058 233C0500 		sd	zero,24(a0)
  69 005c 2330B502 		sd	a1,32(a0)
  70 0060 2334C502 		sd	a2,40(a0)
  71 0064 2338D502 		sd	a3,48(a0)
  21:src/PCB.cpp   ****         (uint64)&PCB::runner
  72              		.loc 1 21 37
  73 0068 B7170000 		li	a5,4096
  74 006c B386F600 		add	a3,a3,a5
  75              	.LVL4:
  23:src/PCB.cpp   **** {
  76              		.loc 1 23 6
  77 0070 2330D504 		sd	a3,64(a0)
  78 0074 97070000 		lla	a5,_ZN3PCB6runnerEv
  78      93870700 
  79 007c 2334F504 		sd	a5,72(a0)
  26:src/PCB.cpp   **** }
  80              		.loc 1 26 5 is_stmt 1
  26:src/PCB.cpp   **** }
  81              		.loc 1 26 13 is_stmt 0
  82 0080 23340500 		sd	zero,8(a0)
  83              	.LBE12:
  27:src/PCB.cpp   **** 
  84              		.loc 1 27 1
  85 0084 03348100 		ld	s0,8(sp)
  86              		.cfi_restore 8
  87              		.cfi_def_cfa 2, 16
  88 0088 13010101 		addi	sp,sp,16
  89              		.cfi_def_cfa_offset 0
  90 008c 67800000 		jr	ra
  91              		.cfi_endproc
  92              	.LFE25:
  94              		.globl	_ZN3PCBC1EPFvPvES0_S0_m
  95              		.set	_ZN3PCBC1EPFvPvES0_S0_m,_ZN3PCBC2EPFvPvES0_S0_m
  96              		.align	2
  97              		.globl	_ZN3PCB5sleepEm
  99              	_ZN3PCB5sleepEm:
 100              	.LFB27:
  30:src/PCB.cpp   ****     //todo
 101              		.loc 1 30 1 is_stmt 1
 102              		.cfi_startproc
 103              	.LVL5:
 104 0090 130101FF 		addi	sp,sp,-16
 105              		.cfi_def_cfa_offset 16
 106 0094 23348100 		sd	s0,8(sp)
 107              		.cfi_offset 8, -8
 108 0098 13040101 		addi	s0,sp,16
 109              		.cfi_def_cfa 8, 0
  32:src/PCB.cpp   **** 
 110              		.loc 1 32 1 is_stmt 0
 111 009c 03348100 		ld	s0,8(sp)
 112              		.cfi_restore 8
 113              		.cfi_def_cfa 2, 16
 114 00a0 13010101 		addi	sp,sp,16
 115              		.cfi_def_cfa_offset 0
 116 00a4 67800000 		jr	ra
GAS LISTING /tmp/ccWLvJi6.s 			page 4


 117              		.cfi_endproc
 118              	.LFE27:
 120              		.align	2
 121              		.globl	_ZN3PCB5startEv
 123              	_ZN3PCB5startEv:
 124              	.LFB28:
  35:src/PCB.cpp   ****     Scheduler::put(this);
 125              		.loc 1 35 1 is_stmt 1
 126              		.cfi_startproc
 127              	.LVL6:
 128 00a8 130101FF 		addi	sp,sp,-16
 129              		.cfi_def_cfa_offset 16
 130 00ac 23341100 		sd	ra,8(sp)
 131 00b0 23308100 		sd	s0,0(sp)
 132              		.cfi_offset 1, -8
 133              		.cfi_offset 8, -16
 134 00b4 13040101 		addi	s0,sp,16
 135              		.cfi_def_cfa 8, 0
  36:src/PCB.cpp   **** }
 136              		.loc 1 36 5
  36:src/PCB.cpp   **** }
 137              		.loc 1 36 19 is_stmt 0
 138 00b8 97000000 		call	_ZN9Scheduler3putEP3PCB@plt
 138      E7800000 
 139              	.LVL7:
  37:src/PCB.cpp   **** 
 140              		.loc 1 37 1
 141 00c0 83308100 		ld	ra,8(sp)
 142              		.cfi_restore 1
 143 00c4 03340100 		ld	s0,0(sp)
 144              		.cfi_restore 8
 145              		.cfi_def_cfa 2, 16
 146 00c8 13010101 		addi	sp,sp,16
 147              		.cfi_def_cfa_offset 0
 148 00cc 67800000 		jr	ra
 149              		.cfi_endproc
 150              	.LFE28:
 152              		.align	2
 153              		.globl	_ZN3PCB8dispatchEv
 155              	_ZN3PCB8dispatchEv:
 156              	.LFB30:
  48:src/PCB.cpp   **** 
  49:src/PCB.cpp   **** void PCB::dispatch()
  50:src/PCB.cpp   **** {
 157              		.loc 1 50 1 is_stmt 1
 158              		.cfi_startproc
 159 00d0 130101FE 		addi	sp,sp,-32
 160              		.cfi_def_cfa_offset 32
 161 00d4 233C1100 		sd	ra,24(sp)
 162 00d8 23388100 		sd	s0,16(sp)
 163 00dc 23349100 		sd	s1,8(sp)
 164              		.cfi_offset 1, -8
 165              		.cfi_offset 8, -16
 166              		.cfi_offset 9, -24
 167 00e0 13040102 		addi	s0,sp,32
 168              		.cfi_def_cfa 8, 0
  51:src/PCB.cpp   ****     //Riscv::printString("Dispatch called...\n");
GAS LISTING /tmp/ccWLvJi6.s 			page 5


  52:src/PCB.cpp   ****     PCB* old = running;
 169              		.loc 1 52 5
 170              		.loc 1 52 10 is_stmt 0
 171 00e4 97040000 		ld	s1,.LANCHOR0
 171      83B40400 
 172              	.LVL8:
  53:src/PCB.cpp   ****     if(old->getState() == PCB::RUNNING)
 173              		.loc 1 53 5 is_stmt 1
 174              	.LBB13:
 175              	.LBB14:
 176              		.file 2 "src/../h/PCB.hpp"
   1:src/../h/PCB.hpp **** //
   2:src/../h/PCB.hpp **** // Created by os on 4/27/22.
   3:src/../h/PCB.hpp **** //
   4:src/../h/PCB.hpp **** 
   5:src/../h/PCB.hpp **** #ifndef PROJECT_BASE_V1_0_PCB_HPP
   6:src/../h/PCB.hpp **** #define PROJECT_BASE_V1_0_PCB_HPP
   7:src/../h/PCB.hpp **** 
   8:src/../h/PCB.hpp **** #include "../lib/hw.h"
   9:src/../h/PCB.hpp **** #include "Scheduler.hpp"
  10:src/../h/PCB.hpp **** #include "Riscv.hpp"
  11:src/../h/PCB.hpp **** 
  12:src/../h/PCB.hpp **** class PCB
  13:src/../h/PCB.hpp **** {
  14:src/../h/PCB.hpp **** public:
  15:src/../h/PCB.hpp ****     static uint64 savedRegA4;
  16:src/../h/PCB.hpp **** 
  17:src/../h/PCB.hpp ****     using Body = void (*)(void*);
  18:src/../h/PCB.hpp **** 
  19:src/../h/PCB.hpp ****     PCB(Body body,  void* args, void* stack_space, uint64 timeSlice);
  20:src/../h/PCB.hpp ****     ~PCB();
  21:src/../h/PCB.hpp **** 
  22:src/../h/PCB.hpp ****     void start();
  23:src/../h/PCB.hpp ****     static void dispatch();
  24:src/../h/PCB.hpp ****     static void sleep(time_t);
  25:src/../h/PCB.hpp **** 
  26:src/../h/PCB.hpp ****     static PCB* running;
  27:src/../h/PCB.hpp **** 
  28:src/../h/PCB.hpp ****     static uint64 timeSliceCounter;
  29:src/../h/PCB.hpp ****     uint64 getTimeSlice() { return timeSlice;}
  30:src/../h/PCB.hpp **** 
  31:src/../h/PCB.hpp ****     void* operator new(size_t size);
  32:src/../h/PCB.hpp ****     void operator delete(void *p);
  33:src/../h/PCB.hpp **** 
  34:src/../h/PCB.hpp ****     enum State{READY, RUNNING, SUSPENDED, FINISHED, EXITING, SLEEPING};
  35:src/../h/PCB.hpp ****     State getState() {return state;}
 177              		.loc 2 35 23
 178              		.loc 2 35 30 is_stmt 0
 179 00ec 03A78403 		lw	a4,56(s1)
 180              	.LVL9:
 181              	.LBE14:
 182              	.LBE13:
 183              		.loc 1 53 5
 184 00f0 93071000 		li	a5,1
 185 00f4 6300F704 		beq	a4,a5,.L12
 186              	.L10:
  54:src/PCB.cpp   ****         Scheduler::put(old);
GAS LISTING /tmp/ccWLvJi6.s 			page 6


  55:src/PCB.cpp   ****     PCB::running = Scheduler::get();
 187              		.loc 1 55 5 is_stmt 1
 188              		.loc 1 55 34 is_stmt 0
 189 00f8 97000000 		call	_ZN9Scheduler3getEv@plt
 189      E7800000 
 190              	.LVL10:
 191              		.loc 1 55 18
 192 0100 97070000 		sd	a0,.LANCHOR0,a5
 192      23B0A700 
  56:src/PCB.cpp   ****     PCB::running->setState(PCB::RUNNING);
 193              		.loc 1 56 5 is_stmt 1
 194              	.LVL11:
 195              	.LBB15:
 196              	.LBB16:
  36:src/../h/PCB.hpp ****     void setState(State s) {state = s;}
 197              		.loc 2 36 29
 198              		.loc 2 36 35 is_stmt 0
 199 0108 93071000 		li	a5,1
 200 010c 232CF502 		sw	a5,56(a0)
 201              	.LVL12:
 202              	.LBE16:
 203              	.LBE15:
  57:src/PCB.cpp   ****     //Riscv::printString("Switching context...\n");
  58:src/PCB.cpp   **** 
  59:src/PCB.cpp   ****     //if(PCB::running->systemThread)
  60:src/PCB.cpp   ****     //    Riscv::ms_sstatus(Riscv::SSTATUS_SPP);
  61:src/PCB.cpp   ****     //else
  62:src/PCB.cpp   ****     //    Riscv::mc_sstatus(Riscv::SSTATUS_SPP);
  63:src/PCB.cpp   **** 
  64:src/PCB.cpp   ****     PCB::contextSwitch(&old->context, &running->context);
 204              		.loc 1 64 5 is_stmt 1
 205              		.loc 1 64 23 is_stmt 0
 206 0110 93050504 		addi	a1,a0,64
 207 0114 13850404 		addi	a0,s1,64
 208 0118 97000000 		call	_ZN3PCB13contextSwitchEPNS_7ContextES1_@plt
 208      E7800000 
 209              	.LVL13:
  65:src/PCB.cpp   **** }
 210              		.loc 1 65 1
 211 0120 83308101 		ld	ra,24(sp)
 212              		.cfi_remember_state
 213              		.cfi_restore 1
 214 0124 03340101 		ld	s0,16(sp)
 215              		.cfi_restore 8
 216              		.cfi_def_cfa 2, 32
 217 0128 83348100 		ld	s1,8(sp)
 218              		.cfi_restore 9
 219              	.LVL14:
 220 012c 13010102 		addi	sp,sp,32
 221              		.cfi_def_cfa_offset 0
 222 0130 67800000 		jr	ra
 223              	.LVL15:
 224              	.L12:
 225              		.cfi_restore_state
  54:src/PCB.cpp   ****     PCB::running = Scheduler::get();
 226              		.loc 1 54 9 is_stmt 1
  54:src/PCB.cpp   ****     PCB::running = Scheduler::get();
GAS LISTING /tmp/ccWLvJi6.s 			page 7


 227              		.loc 1 54 23 is_stmt 0
 228 0134 13850400 		mv	a0,s1
 229 0138 97000000 		call	_ZN9Scheduler3putEP3PCB@plt
 229      E7800000 
 230              	.LVL16:
 231 0140 6FF09FFB 		j	.L10
 232              		.cfi_endproc
 233              	.LFE30:
 235              		.align	2
 236              		.globl	_ZN3PCBnwEm
 238              	_ZN3PCBnwEm:
 239              	.LFB31:
  66:src/PCB.cpp   **** 
  67:src/PCB.cpp   **** void *PCB::operator new(size_t size) {
 240              		.loc 1 67 38 is_stmt 1
 241              		.cfi_startproc
 242              	.LVL17:
 243 0144 130101FF 		addi	sp,sp,-16
 244              		.cfi_def_cfa_offset 16
 245 0148 23341100 		sd	ra,8(sp)
 246 014c 23308100 		sd	s0,0(sp)
 247              		.cfi_offset 1, -8
 248              		.cfi_offset 8, -16
 249 0150 13040101 		addi	s0,sp,16
 250              		.cfi_def_cfa 8, 0
  68:src/PCB.cpp   ****     return kmalloc(size);
 251              		.loc 1 68 5
 252              		.loc 1 68 19 is_stmt 0
 253 0154 97000000 		call	_Z7kmallocm@plt
 253      E7800000 
 254              	.LVL18:
  69:src/PCB.cpp   **** }
 255              		.loc 1 69 1
 256 015c 83308100 		ld	ra,8(sp)
 257              		.cfi_restore 1
 258 0160 03340100 		ld	s0,0(sp)
 259              		.cfi_restore 8
 260              		.cfi_def_cfa 2, 16
 261 0164 13010101 		addi	sp,sp,16
 262              		.cfi_def_cfa_offset 0
 263 0168 67800000 		jr	ra
 264              		.cfi_endproc
 265              	.LFE31:
 267              		.align	2
 268              		.globl	_ZN3PCBdlEPv
 270              	_ZN3PCBdlEPv:
 271              	.LFB32:
  70:src/PCB.cpp   **** 
  71:src/PCB.cpp   **** void PCB::operator delete(void *p) {
 272              		.loc 1 71 36 is_stmt 1
 273              		.cfi_startproc
 274              	.LVL19:
 275 016c 130101FF 		addi	sp,sp,-16
 276              		.cfi_def_cfa_offset 16
 277 0170 23341100 		sd	ra,8(sp)
 278 0174 23308100 		sd	s0,0(sp)
 279              		.cfi_offset 1, -8
GAS LISTING /tmp/ccWLvJi6.s 			page 8


 280              		.cfi_offset 8, -16
 281 0178 13040101 		addi	s0,sp,16
 282              		.cfi_def_cfa 8, 0
  72:src/PCB.cpp   ****     kfree(p);
 283              		.loc 1 72 5
 284              		.loc 1 72 10 is_stmt 0
 285 017c 97000000 		call	_Z5kfreePv@plt
 285      E7800000 
 286              	.LVL20:
  73:src/PCB.cpp   **** }
 287              		.loc 1 73 1
 288 0184 83308100 		ld	ra,8(sp)
 289              		.cfi_restore 1
 290 0188 03340100 		ld	s0,0(sp)
 291              		.cfi_restore 8
 292              		.cfi_def_cfa 2, 16
 293 018c 13010101 		addi	sp,sp,16
 294              		.cfi_def_cfa_offset 0
 295 0190 67800000 		jr	ra
 296              		.cfi_endproc
 297              	.LFE32:
 299              		.align	2
 300              		.globl	_ZN3PCBD2Ev
 302              	_ZN3PCBD2Ev:
 303              	.LFB34:
  74:src/PCB.cpp   **** 
  75:src/PCB.cpp   **** PCB::~PCB()
 304              		.loc 1 75 1 is_stmt 1
 305              		.cfi_startproc
 306              		.cfi_personality 0x9b,DW.ref.__gxx_personality_v0
 307              		.cfi_lsda 0x1b,.LLSDA34
 308              	.LVL21:
 309 0194 130101FF 		addi	sp,sp,-16
 310              		.cfi_def_cfa_offset 16
 311 0198 23341100 		sd	ra,8(sp)
 312 019c 23308100 		sd	s0,0(sp)
 313              		.cfi_offset 1, -8
 314              		.cfi_offset 8, -16
 315 01a0 13040101 		addi	s0,sp,16
 316              		.cfi_def_cfa 8, 0
 317              	.LBB17:
  76:src/PCB.cpp   **** {
  77:src/PCB.cpp   ****     kfree(beginSP);
 318              		.loc 1 77 5
 319              		.loc 1 77 10 is_stmt 0
 320 01a4 03350503 		ld	a0,48(a0)
 321              	.LVL22:
 322 01a8 97000000 		call	_Z5kfreePv@plt
 322      E7800000 
 323              	.LVL23:
 324              	.LBE17:
  78:src/PCB.cpp   **** }
 325              		.loc 1 78 1
 326 01b0 83308100 		ld	ra,8(sp)
 327              		.cfi_restore 1
 328 01b4 03340100 		ld	s0,0(sp)
 329              		.cfi_restore 8
GAS LISTING /tmp/ccWLvJi6.s 			page 9


 330              		.cfi_def_cfa 2, 16
 331 01b8 13010101 		addi	sp,sp,16
 332              		.cfi_def_cfa_offset 0
 333 01bc 67800000 		jr	ra
 334              		.cfi_endproc
 335              	.LFE34:
 336              		.globl	__gxx_personality_v0
 337              		.section	.gcc_except_table,"a",@progbits
 338              	.LLSDA34:
 339 0000 FF       		.byte	0xff
 340 0001 FF       		.byte	0xff
 341 0002 03       		.byte	0x3
 342 0003 00       		.byte	0
 343              		.text
 345              		.globl	_ZN3PCBD1Ev
 346              		.set	_ZN3PCBD1Ev,_ZN3PCBD2Ev
 347              		.align	2
 348              		.globl	_ZN3PCB10initializeEv
 350              	_ZN3PCB10initializeEv:
 351              	.LFB36:
  79:src/PCB.cpp   **** 
  80:src/PCB.cpp   **** void PCB::initialize()
  81:src/PCB.cpp   **** {
 352              		.loc 1 81 1 is_stmt 1
 353              		.cfi_startproc
 354 01c0 130101FD 		addi	sp,sp,-48
 355              		.cfi_def_cfa_offset 48
 356 01c4 23341102 		sd	ra,40(sp)
 357 01c8 23308102 		sd	s0,32(sp)
 358 01cc 233C9100 		sd	s1,24(sp)
 359 01d0 23382101 		sd	s2,16(sp)
 360 01d4 23343101 		sd	s3,8(sp)
 361              		.cfi_offset 1, -8
 362              		.cfi_offset 8, -16
 363              		.cfi_offset 9, -24
 364              		.cfi_offset 18, -32
 365              		.cfi_offset 19, -40
 366 01d8 13040103 		addi	s0,sp,48
 367              		.cfi_def_cfa 8, 0
  82:src/PCB.cpp   ****     PCB* mainSystem = new PCB(0, 0, 0, 0);
 368              		.loc 1 82 5
 369              		.loc 1 82 41 is_stmt 0
 370 01dc 13050005 		li	a0,80
 371 01e0 97000000 		call	_ZN3PCBnwEm
 371      E7800000 
 372              	.LVL24:
 373 01e8 93040500 		mv	s1,a0
 374 01ec 13070000 		li	a4,0
 375 01f0 93060000 		li	a3,0
 376 01f4 13060000 		li	a2,0
 377 01f8 93050000 		li	a1,0
 378 01fc 97000000 		call	_ZN3PCBC1EPFvPvES0_S0_m
 378      E7800000 
 379              	.LVL25:
  83:src/PCB.cpp   ****     mainSystem->start();
 380              		.loc 1 83 5 is_stmt 1
 381              		.loc 1 83 22 is_stmt 0
GAS LISTING /tmp/ccWLvJi6.s 			page 10


 382 0204 13850400 		mv	a0,s1
 383 0208 97000000 		call	_ZN3PCB5startEv
 383      E7800000 
 384              	.LVL26:
  84:src/PCB.cpp   ****     mainSystem->systemThread = true;
 385              		.loc 1 84 5 is_stmt 1
 386              		.loc 1 84 30 is_stmt 0
 387 0210 93071000 		li	a5,1
 388 0214 2380F400 		sb	a5,0(s1)
  85:src/PCB.cpp   ****     PCB::running = Scheduler::get();
 389              		.loc 1 85 5 is_stmt 1
 390              		.loc 1 85 34 is_stmt 0
 391 0218 97000000 		call	_ZN9Scheduler3getEv@plt
 391      E7800000 
 392              	.LVL27:
 393              		.loc 1 85 18
 394 0220 97070000 		sd	a0,.LANCHOR0,a5
 394      23B0A700 
  86:src/PCB.cpp   ****     PCB::running->setState(PCB::RUNNING);
 395              		.loc 1 86 5 is_stmt 1
 396              	.LVL28:
 397              	.LBB18:
 398              	.LBB19:
 399              		.loc 2 36 29
 400              		.loc 2 36 35 is_stmt 0
 401 0228 93091000 		li	s3,1
 402 022c 232C3503 		sw	s3,56(a0)
 403              	.LVL29:
 404              	.LBE19:
 405              	.LBE18:
  87:src/PCB.cpp   ****     PCB* consolePCB = new PCB(&KConsole::sendCharactersToConsole, 0, kmalloc(DEFAULT_STACK_SIZE), D
 406              		.loc 1 87 5 is_stmt 1
 407              		.loc 1 87 77 is_stmt 0
 408 0230 37150000 		li	a0,4096
 409 0234 97000000 		call	_Z7kmallocm@plt
 409      E7800000 
 410              	.LVL30:
 411 023c 13090500 		mv	s2,a0
 412              		.loc 1 87 117
 413 0240 13050005 		li	a0,80
 414 0244 97000000 		call	_ZN3PCBnwEm
 414      E7800000 
 415              	.LVL31:
 416 024c 93040500 		mv	s1,a0
 417              	.LVL32:
 418 0250 13072000 		li	a4,2
 419 0254 93060900 		mv	a3,s2
 420 0258 13060000 		li	a2,0
 421 025c 97050000 		la	a1,_ZN8KConsole23sendCharactersToConsoleEPv
 421      83B50500 
 422 0264 97000000 		call	_ZN3PCBC1EPFvPvES0_S0_m
 422      E7800000 
 423              	.LVL33:
  88:src/PCB.cpp   ****     consolePCB->systemThread = true;
 424              		.loc 1 88 5 is_stmt 1
 425              		.loc 1 88 30 is_stmt 0
 426 026c 23803401 		sb	s3,0(s1)
GAS LISTING /tmp/ccWLvJi6.s 			page 11


  89:src/PCB.cpp   ****     consolePCB->start();
 427              		.loc 1 89 5 is_stmt 1
 428              		.loc 1 89 22 is_stmt 0
 429 0270 13850400 		mv	a0,s1
 430 0274 97000000 		call	_ZN3PCB5startEv
 430      E7800000 
 431              	.LVL34:
  90:src/PCB.cpp   ****     //PCB* idlePCB = new PCB(&Riscv::idleRiscv, 0, kmalloc(DEFAULT_STACK_SIZE), DEFAULT_TIME_SLICE)
  91:src/PCB.cpp   ****     //idlePCB->start();
  92:src/PCB.cpp   ****     //idlePCB->systemThread = true;
  93:src/PCB.cpp   **** }
 432              		.loc 1 93 1
 433 027c 83308102 		ld	ra,40(sp)
 434              		.cfi_restore 1
 435 0280 03340102 		ld	s0,32(sp)
 436              		.cfi_restore 8
 437              		.cfi_def_cfa 2, 48
 438 0284 83348101 		ld	s1,24(sp)
 439              		.cfi_restore 9
 440              	.LVL35:
 441 0288 03390101 		ld	s2,16(sp)
 442              		.cfi_restore 18
 443 028c 83398100 		ld	s3,8(sp)
 444              		.cfi_restore 19
 445 0290 13010103 		addi	sp,sp,48
 446              		.cfi_def_cfa_offset 0
 447 0294 67800000 		jr	ra
 448              		.cfi_endproc
 449              	.LFE36:
 451              		.align	2
 452              		.globl	_ZN3PCB10isFinishedEv
 454              	_ZN3PCB10isFinishedEv:
 455              	.LFB37:
  94:src/PCB.cpp   **** 
  95:src/PCB.cpp   **** bool PCB::isFinished()
  96:src/PCB.cpp   **** {
 456              		.loc 1 96 1 is_stmt 1
 457              		.cfi_startproc
 458              	.LVL36:
 459 0298 130101FF 		addi	sp,sp,-16
 460              		.cfi_def_cfa_offset 16
 461 029c 23348100 		sd	s0,8(sp)
 462              		.cfi_offset 8, -8
 463 02a0 13040101 		addi	s0,sp,16
 464              		.cfi_def_cfa 8, 0
  97:src/PCB.cpp   ****     return state == PCB::FINISHED;
 465              		.loc 1 97 5
 466              		.loc 1 97 12 is_stmt 0
 467 02a4 03258503 		lw	a0,56(a0)
 468              	.LVL37:
 469              		.loc 1 97 26
 470 02a8 1305D5FF 		addi	a0,a0,-3
  98:src/PCB.cpp   **** }
 471              		.loc 1 98 1
 472 02ac 13351500 		seqz	a0,a0
 473 02b0 03348100 		ld	s0,8(sp)
 474              		.cfi_restore 8
GAS LISTING /tmp/ccWLvJi6.s 			page 12


 475              		.cfi_def_cfa 2, 16
 476 02b4 13010101 		addi	sp,sp,16
 477              		.cfi_def_cfa_offset 0
 478 02b8 67800000 		jr	ra
 479              		.cfi_endproc
 480              	.LFE37:
 482              		.section	.rodata.str1.8,"aMS",@progbits,1
 483              		.align	3
 484              	.LC0:
 485 0000 45786974 		.string	"Exiting thread...\n"
 485      696E6720 
 485      74687265 
 485      61642E2E 
 485      2E0A00
 486              		.text
 487              		.align	2
 488              		.globl	_ZN3PCB17threadExitHandlerEv
 490              	_ZN3PCB17threadExitHandlerEv:
 491              	.LFB38:
  99:src/PCB.cpp   **** 
 100:src/PCB.cpp   **** void PCB::threadExitHandler()
 101:src/PCB.cpp   **** {
 492              		.loc 1 101 1 is_stmt 1
 493              		.cfi_startproc
 494 02bc 130101FF 		addi	sp,sp,-16
 495              		.cfi_def_cfa_offset 16
 496 02c0 23341100 		sd	ra,8(sp)
 497 02c4 23308100 		sd	s0,0(sp)
 498              		.cfi_offset 1, -8
 499              		.cfi_offset 8, -16
 500 02c8 13040101 		addi	s0,sp,16
 501              		.cfi_def_cfa 8, 0
 102:src/PCB.cpp   ****     Riscv::printString("Exiting thread...\n");
 502              		.loc 1 102 5
 503              		.loc 1 102 23 is_stmt 0
 504 02cc 17050000 		lla	a0,.LC0
 504      13050500 
 505 02d4 97000000 		call	_ZN5Riscv11printStringEPKc@plt
 505      E7800000 
 506              	.LVL38:
 103:src/PCB.cpp   ****     PCB::timeSliceCounter = 0;
 507              		.loc 1 103 5 is_stmt 1
 508              		.loc 1 103 27 is_stmt 0
 509 02dc 97070000 		lla	a5,.LANCHOR0
 509      93870700 
 510 02e4 23B40700 		sd	zero,8(a5)
 104:src/PCB.cpp   ****     PCB::running->setState(PCB::FINISHED);
 511              		.loc 1 104 5 is_stmt 1
 512              		.loc 1 104 27 is_stmt 0
 513 02e8 83B70700 		ld	a5,0(a5)
 514              	.LVL39:
 515              	.LBB20:
 516              	.LBB21:
 517              		.loc 2 36 29 is_stmt 1
 518              		.loc 2 36 35 is_stmt 0
 519 02ec 13073000 		li	a4,3
 520 02f0 23ACE702 		sw	a4,56(a5)
GAS LISTING /tmp/ccWLvJi6.s 			page 13


 521              	.LVL40:
 522              	.LBE21:
 523              	.LBE20:
 105:src/PCB.cpp   ****     PCB::dispatch();
 524              		.loc 1 105 5 is_stmt 1
 525              		.loc 1 105 18 is_stmt 0
 526 02f4 97000000 		call	_ZN3PCB8dispatchEv
 526      E7800000 
 527              	.LVL41:
 106:src/PCB.cpp   ****     __asm__ volatile("li a0, 0");
 528              		.loc 1 106 5 is_stmt 1
 529              		.loc 1 106 33 is_stmt 0
 530              	#APP
 531              	# 106 "src/PCB.cpp" 1
 107              	    Riscv::w_a0_sscratch();
 532              		li a0, 0
 533              	# 0 "" 2
 534              		.loc 1 107 5 is_stmt 1
 535              		.loc 1 107 25 is_stmt 0
 536              	#NO_APP
 537 0300 97000000 		call	_ZN5Riscv13w_a0_sscratchEv@plt
 537      E7800000 
 538              	.LVL42:
 108:src/PCB.cpp   **** }
 539              		.loc 1 108 1
 540 0308 83308100 		ld	ra,8(sp)
 541              		.cfi_restore 1
 542 030c 03340100 		ld	s0,0(sp)
 543              		.cfi_restore 8
 544              		.cfi_def_cfa 2, 16
 545 0310 13010101 		addi	sp,sp,16
 546              		.cfi_def_cfa_offset 0
 547 0314 67800000 		jr	ra
 548              		.cfi_endproc
 549              	.LFE38:
 551              		.align	2
 552              		.globl	_ZN3PCB21threadDispatchHandlerEv
 554              	_ZN3PCB21threadDispatchHandlerEv:
 555              	.LFB39:
 109:src/PCB.cpp   **** 
 110:src/PCB.cpp   **** void PCB::threadDispatchHandler()
 111:src/PCB.cpp   **** {
 556              		.loc 1 111 1 is_stmt 1
 557              		.cfi_startproc
 558 0318 130101FF 		addi	sp,sp,-16
 559              		.cfi_def_cfa_offset 16
 560 031c 23341100 		sd	ra,8(sp)
 561 0320 23308100 		sd	s0,0(sp)
 562              		.cfi_offset 1, -8
 563              		.cfi_offset 8, -16
 564 0324 13040101 		addi	s0,sp,16
 565              		.cfi_def_cfa 8, 0
 112:src/PCB.cpp   ****     PCB::timeSliceCounter = 0;
 566              		.loc 1 112 5
 567              		.loc 1 112 27 is_stmt 0
 568 0328 97070000 		sd	zero,.LANCHOR0+8,a5
 568      23B00700 
GAS LISTING /tmp/ccWLvJi6.s 			page 14


 113:src/PCB.cpp   ****     PCB::dispatch();
 569              		.loc 1 113 5 is_stmt 1
 570              		.loc 1 113 18 is_stmt 0
 571 0330 97000000 		call	_ZN3PCB8dispatchEv
 571      E7800000 
 572              	.LVL43:
 114:src/PCB.cpp   **** }
 573              		.loc 1 114 1
 574 0338 83308100 		ld	ra,8(sp)
 575              		.cfi_restore 1
 576 033c 03340100 		ld	s0,0(sp)
 577              		.cfi_restore 8
 578              		.cfi_def_cfa 2, 16
 579 0340 13010101 		addi	sp,sp,16
 580              		.cfi_def_cfa_offset 0
 581 0344 67800000 		jr	ra
 582              		.cfi_endproc
 583              	.LFE39:
 585              		.align	2
 586              		.globl	_ZN3PCB18threadSleepHandlerEv
 588              	_ZN3PCB18threadSleepHandlerEv:
 589              	.LFB40:
 115:src/PCB.cpp   **** 
 116:src/PCB.cpp   **** void PCB::threadSleepHandler()
 117:src/PCB.cpp   **** {
 590              		.loc 1 117 1 is_stmt 1
 591              		.cfi_startproc
 592 0348 130101FF 		addi	sp,sp,-16
 593              		.cfi_def_cfa_offset 16
 594 034c 23341100 		sd	ra,8(sp)
 595 0350 23308100 		sd	s0,0(sp)
 596              		.cfi_offset 1, -8
 597              		.cfi_offset 8, -16
 598 0354 13040101 		addi	s0,sp,16
 599              		.cfi_def_cfa 8, 0
 118:src/PCB.cpp   ****     uint64 time;
 600              		.loc 1 118 5
 119:src/PCB.cpp   ****     __asm__ volatile("mv %0, a1" : "=r"(time));
 601              		.loc 1 119 5
 602              		.loc 1 119 47 is_stmt 0
 603              	#APP
 604              	# 119 "src/PCB.cpp" 1
 120              	    PCB::timeSliceCounter = 0;
 605              		mv a4, a1
 606              	# 0 "" 2
 607              	.LVL44:
 608              		.loc 1 120 5 is_stmt 1
 609              		.loc 1 120 27 is_stmt 0
 610              	#NO_APP
 611 035c 97070000 		lla	a5,.LANCHOR0
 611      93870700 
 612 0364 23B40700 		sd	zero,8(a5)
 121:src/PCB.cpp   ****     PCB::running->setTimeToSleep(time);
 613              		.loc 1 121 5 is_stmt 1
 614              		.loc 1 121 33 is_stmt 0
 615 0368 83B70700 		ld	a5,0(a5)
 616              	.LVL45:
GAS LISTING /tmp/ccWLvJi6.s 			page 15


 617              	.LBB22:
 618              	.LBB23:
  37:src/../h/PCB.hpp ****     void setTimeToSleep(uint64 time) {timeToSleep = time;}
 619              		.loc 2 37 39 is_stmt 1
 620              		.loc 2 37 51 is_stmt 0
 621 036c 23BCE700 		sd	a4,24(a5)
 622              	.LVL46:
 623              	.LBE23:
 624              	.LBE22:
 122:src/PCB.cpp   ****     SleepPCBList::insertSleepingPCB();
 625              		.loc 1 122 5 is_stmt 1
 626              		.loc 1 122 36 is_stmt 0
 627 0370 97000000 		call	_ZN12SleepPCBList17insertSleepingPCBEv@plt
 627      E7800000 
 628              	.LVL47:
 123:src/PCB.cpp   ****     PCB::dispatch();
 629              		.loc 1 123 5 is_stmt 1
 630              		.loc 1 123 18 is_stmt 0
 631 0378 97000000 		call	_ZN3PCB8dispatchEv
 631      E7800000 
 632              	.LVL48:
 124:src/PCB.cpp   ****     __asm__ volatile("li a0, 0x0");
 633              		.loc 1 124 5 is_stmt 1
 634              		.loc 1 124 35 is_stmt 0
 635              	#APP
 636              	# 124 "src/PCB.cpp" 1
 125              	    Riscv::w_a0_sscratch();
 637              		li a0, 0x0
 638              	# 0 "" 2
 639              		.loc 1 125 5 is_stmt 1
 640              		.loc 1 125 25 is_stmt 0
 641              	#NO_APP
 642 0384 97000000 		call	_ZN5Riscv13w_a0_sscratchEv@plt
 642      E7800000 
 643              	.LVL49:
 126:src/PCB.cpp   **** }
 644              		.loc 1 126 1
 645 038c 83308100 		ld	ra,8(sp)
 646              		.cfi_restore 1
 647 0390 03340100 		ld	s0,0(sp)
 648              		.cfi_restore 8
 649              		.cfi_def_cfa 2, 16
 650 0394 13010101 		addi	sp,sp,16
 651              		.cfi_def_cfa_offset 0
 652 0398 67800000 		jr	ra
 653              		.cfi_endproc
 654              	.LFE40:
 656              		.align	2
 657              		.globl	_ZN3PCB19threadCreateHandlerEv
 659              	_ZN3PCB19threadCreateHandlerEv:
 660              	.LFB41:
 127:src/PCB.cpp   **** 
 128:src/PCB.cpp   **** void PCB::threadCreateHandler()
 129:src/PCB.cpp   **** {
 661              		.loc 1 129 1 is_stmt 1
 662              		.cfi_startproc
 663 039c 130101FD 		addi	sp,sp,-48
GAS LISTING /tmp/ccWLvJi6.s 			page 16


 664              		.cfi_def_cfa_offset 48
 665 03a0 23341102 		sd	ra,40(sp)
 666 03a4 23308102 		sd	s0,32(sp)
 667 03a8 233C9100 		sd	s1,24(sp)
 668 03ac 23382101 		sd	s2,16(sp)
 669 03b0 23343101 		sd	s3,8(sp)
 670 03b4 23304101 		sd	s4,0(sp)
 671              		.cfi_offset 1, -8
 672              		.cfi_offset 8, -16
 673              		.cfi_offset 9, -24
 674              		.cfi_offset 18, -32
 675              		.cfi_offset 19, -40
 676              		.cfi_offset 20, -48
 677 03b8 13040103 		addi	s0,sp,48
 678              		.cfi_def_cfa 8, 0
 130:src/PCB.cpp   ****     uint64 start_routine;
 679              		.loc 1 130 5
 131:src/PCB.cpp   ****     uint64 args;
 680              		.loc 1 131 5
 132:src/PCB.cpp   ****     PCB **threadHandle;
 681              		.loc 1 132 5
 133:src/PCB.cpp   ****     __asm__ volatile("mv %0, a1" : "=r"(threadHandle));
 682              		.loc 1 133 5
 683              		.loc 1 133 55 is_stmt 0
 684              	#APP
 685              	# 133 "src/PCB.cpp" 1
 134              	    __asm__ volatile("mv %0, a2" : "=r"(start_routine));
 686              		mv s2, a1
 687              	# 0 "" 2
 688              	.LVL50:
 689              		.loc 1 134 5 is_stmt 1
 690              		.loc 1 134 56 is_stmt 0
 691              	# 134 "src/PCB.cpp" 1
 135              	    __asm__ volatile("mv %0, a3" : "=r"(args));
 692              		mv s3, a2
 693              	# 0 "" 2
 694              	.LVL51:
 695              		.loc 1 135 5 is_stmt 1
 696              		.loc 1 135 47 is_stmt 0
 697              	# 135 "src/PCB.cpp" 1
 136              	
 698              		mv s4, a3
 699              	# 0 "" 2
 700              	.LVL52:
 137:src/PCB.cpp   ****     PCB *newPCB = new PCB((void (*)(void *)) start_routine, (void *) args, (void *) PCB::savedRegA4
 701              		.loc 1 137 5 is_stmt 1
 702              		.loc 1 137 120 is_stmt 0
 703              	#NO_APP
 704 03c8 13050005 		li	a0,80
 705 03cc 97000000 		call	_ZN3PCBnwEm
 705      E7800000 
 706              	.LVL53:
 707 03d4 93040500 		mv	s1,a0
 708 03d8 13072000 		li	a4,2
 709 03dc 97060000 		ld	a3,.LANCHOR0+16
 709      83B60600 
 710 03e4 13060A00 		mv	a2,s4
GAS LISTING /tmp/ccWLvJi6.s 			page 17


 711 03e8 93850900 		mv	a1,s3
 712 03ec 97000000 		call	_ZN3PCBC1EPFvPvES0_S0_m
 712      E7800000 
 713              	.LVL54:
 138:src/PCB.cpp   **** 
 139:src/PCB.cpp   ****     (*threadHandle) = newPCB;
 714              		.loc 1 139 5 is_stmt 1
 715              		.loc 1 139 21 is_stmt 0
 716 03f4 23309900 		sd	s1,0(s2)
 140:src/PCB.cpp   **** 
 141:src/PCB.cpp   ****     if (newPCB == 0)
 717              		.loc 1 141 5 is_stmt 1
 718 03f8 638E0402 		beqz	s1,.L33
 142:src/PCB.cpp   ****             __asm__ volatile("li a0, 0xffffffffffffffff");
 143:src/PCB.cpp   ****     else
 144:src/PCB.cpp   ****     {
 145:src/PCB.cpp   ****         newPCB->start();
 719              		.loc 1 145 9
 720              		.loc 1 145 22 is_stmt 0
 721 03fc 13850400 		mv	a0,s1
 722 0400 97000000 		call	_ZN3PCB5startEv
 722      E7800000 
 723              	.LVL55:
 146:src/PCB.cpp   ****         __asm__ volatile("li a0, 0");
 724              		.loc 1 146 9 is_stmt 1
 725              		.loc 1 146 37 is_stmt 0
 726              	#APP
 727              	# 146 "src/PCB.cpp" 1
 147              	    }
 728              		li a0, 0
 729              	# 0 "" 2
 730              	#NO_APP
 731              	.L31:
 148:src/PCB.cpp   ****     Riscv::w_a0_sscratch();
 732              		.loc 1 148 5 is_stmt 1
 733              		.loc 1 148 25 is_stmt 0
 734 040c 97000000 		call	_ZN5Riscv13w_a0_sscratchEv@plt
 734      E7800000 
 735              	.LVL56:
 149:src/PCB.cpp   **** }
 736              		.loc 1 149 1
 737 0414 83308102 		ld	ra,40(sp)
 738              		.cfi_remember_state
 739              		.cfi_restore 1
 740 0418 03340102 		ld	s0,32(sp)
 741              		.cfi_restore 8
 742              		.cfi_def_cfa 2, 48
 743 041c 83348101 		ld	s1,24(sp)
 744              		.cfi_restore 9
 745              	.LVL57:
 746 0420 03390101 		ld	s2,16(sp)
 747              		.cfi_restore 18
 748              	.LVL58:
 749 0424 83398100 		ld	s3,8(sp)
 750              		.cfi_restore 19
 751              	.LVL59:
 752 0428 033A0100 		ld	s4,0(sp)
GAS LISTING /tmp/ccWLvJi6.s 			page 18


 753              		.cfi_restore 20
 754              	.LVL60:
 755 042c 13010103 		addi	sp,sp,48
 756              		.cfi_def_cfa_offset 0
 757 0430 67800000 		jr	ra
 758              	.LVL61:
 759              	.L33:
 760              		.cfi_restore_state
 142:src/PCB.cpp   ****     else
 761              		.loc 1 142 13 is_stmt 1
 142:src/PCB.cpp   ****     else
 762              		.loc 1 142 58 is_stmt 0
 763              	#APP
 764              	# 142 "src/PCB.cpp" 1
 765              		li a0, 0xffffffffffffffff
 766              	# 0 "" 2
 767              	#NO_APP
 768 0438 6FF05FFD 		j	.L31
 769              		.cfi_endproc
 770              	.LFE41:
 772              		.align	2
 773              		.globl	_ZN3PCB18threadStartHandlerEv
 775              	_ZN3PCB18threadStartHandlerEv:
 776              	.LFB42:
 150:src/PCB.cpp   **** 
 151:src/PCB.cpp   **** void PCB::threadStartHandler()
 152:src/PCB.cpp   **** {
 777              		.loc 1 152 1 is_stmt 1
 778              		.cfi_startproc
 779 043c 130101FF 		addi	sp,sp,-16
 780              		.cfi_def_cfa_offset 16
 781 0440 23341100 		sd	ra,8(sp)
 782 0444 23308100 		sd	s0,0(sp)
 783              		.cfi_offset 1, -8
 784              		.cfi_offset 8, -16
 785 0448 13040101 		addi	s0,sp,16
 786              		.cfi_def_cfa 8, 0
 153:src/PCB.cpp   ****     PCB* pcb;
 787              		.loc 1 153 5
 154:src/PCB.cpp   ****     __asm__ volatile("mv %0, a1" : "=r"(pcb));
 788              		.loc 1 154 5
 789              		.loc 1 154 46 is_stmt 0
 790              	#APP
 791              	# 154 "src/PCB.cpp" 1
 155              	    if(pcb != 0)
 792              		mv a0, a1
 793              	# 0 "" 2
 794              	.LVL62:
 795              		.loc 1 155 5 is_stmt 1
 796              	#NO_APP
 797 0450 63040502 		beqz	a0,.L35
 156:src/PCB.cpp   ****     {
 157:src/PCB.cpp   ****         pcb->start();
 798              		.loc 1 157 9
 799              		.loc 1 157 19 is_stmt 0
 800 0454 97000000 		call	_ZN3PCB5startEv
 800      E7800000 
GAS LISTING /tmp/ccWLvJi6.s 			page 19


 801              	.LVL63:
 158:src/PCB.cpp   ****         __asm__ volatile("li a0, 0");
 802              		.loc 1 158 9 is_stmt 1
 803              		.loc 1 158 37 is_stmt 0
 804              	#APP
 805              	# 158 "src/PCB.cpp" 1
 159              	    }
 806              		li a0, 0
 807              	# 0 "" 2
 808              	#NO_APP
 809              	.L36:
 160:src/PCB.cpp   ****     else
 161:src/PCB.cpp   ****     {
 162:src/PCB.cpp   ****         __asm__ volatile("li a0, 0xffffffffffffffff");
 163:src/PCB.cpp   ****     }
 164:src/PCB.cpp   ****     Riscv::w_a0_sscratch();
 810              		.loc 1 164 5 is_stmt 1
 811              		.loc 1 164 25 is_stmt 0
 812 0460 97000000 		call	_ZN5Riscv13w_a0_sscratchEv@plt
 812      E7800000 
 813              	.LVL64:
 165:src/PCB.cpp   **** }
 814              		.loc 1 165 1
 815 0468 83308100 		ld	ra,8(sp)
 816              		.cfi_remember_state
 817              		.cfi_restore 1
 818 046c 03340100 		ld	s0,0(sp)
 819              		.cfi_restore 8
 820              		.cfi_def_cfa 2, 16
 821 0470 13010101 		addi	sp,sp,16
 822              		.cfi_def_cfa_offset 0
 823 0474 67800000 		jr	ra
 824              	.LVL65:
 825              	.L35:
 826              		.cfi_restore_state
 162:src/PCB.cpp   ****     }
 827              		.loc 1 162 9 is_stmt 1
 162:src/PCB.cpp   ****     }
 828              		.loc 1 162 54 is_stmt 0
 829              	#APP
 830              	# 162 "src/PCB.cpp" 1
 831              		li a0, 0xffffffffffffffff
 832              	# 0 "" 2
 833              	#NO_APP
 834 047c 6FF05FFE 		j	.L36
 835              		.cfi_endproc
 836              	.LFE42:
 838              		.align	2
 839              		.globl	_ZN3PCB20threadMakePCBHandlerEv
 841              	_ZN3PCB20threadMakePCBHandlerEv:
 842              	.LFB43:
 166:src/PCB.cpp   **** 
 167:src/PCB.cpp   **** void PCB::threadMakePCBHandler()
 168:src/PCB.cpp   **** {
 843              		.loc 1 168 1 is_stmt 1
 844              		.cfi_startproc
 845 0480 130101FD 		addi	sp,sp,-48
GAS LISTING /tmp/ccWLvJi6.s 			page 20


 846              		.cfi_def_cfa_offset 48
 847 0484 23341102 		sd	ra,40(sp)
 848 0488 23308102 		sd	s0,32(sp)
 849 048c 233C9100 		sd	s1,24(sp)
 850 0490 23382101 		sd	s2,16(sp)
 851 0494 23343101 		sd	s3,8(sp)
 852 0498 23304101 		sd	s4,0(sp)
 853              		.cfi_offset 1, -8
 854              		.cfi_offset 8, -16
 855              		.cfi_offset 9, -24
 856              		.cfi_offset 18, -32
 857              		.cfi_offset 19, -40
 858              		.cfi_offset 20, -48
 859 049c 13040103 		addi	s0,sp,48
 860              		.cfi_def_cfa 8, 0
 169:src/PCB.cpp   ****     uint64 start_routine;
 861              		.loc 1 169 5
 170:src/PCB.cpp   ****     uint64 args;
 862              		.loc 1 170 5
 171:src/PCB.cpp   ****     PCB **threadHandle;
 863              		.loc 1 171 5
 172:src/PCB.cpp   ****     __asm__ volatile("mv %0, a1" : "=r"(threadHandle));
 864              		.loc 1 172 5
 865              		.loc 1 172 55 is_stmt 0
 866              	#APP
 867              	# 172 "src/PCB.cpp" 1
 173              	    __asm__ volatile("mv %0, a2" : "=r"(start_routine));
 868              		mv s2, a1
 869              	# 0 "" 2
 870              	.LVL66:
 871              		.loc 1 173 5 is_stmt 1
 872              		.loc 1 173 56 is_stmt 0
 873              	# 173 "src/PCB.cpp" 1
 174              	    __asm__ volatile("mv %0, a3" : "=r"(args));
 874              		mv s3, a2
 875              	# 0 "" 2
 876              	.LVL67:
 877              		.loc 1 174 5 is_stmt 1
 878              		.loc 1 174 47 is_stmt 0
 879              	# 174 "src/PCB.cpp" 1
 175              	
 880              		mv s4, a3
 881              	# 0 "" 2
 882              	.LVL68:
 176:src/PCB.cpp   ****     PCB *newPCB = new PCB((void (*)(void *)) start_routine, (void *) args, (void *) PCB::savedRegA4
 883              		.loc 1 176 5 is_stmt 1
 884              		.loc 1 176 120 is_stmt 0
 885              	#NO_APP
 886 04ac 13050005 		li	a0,80
 887 04b0 97000000 		call	_ZN3PCBnwEm
 887      E7800000 
 888              	.LVL69:
 889 04b8 93040500 		mv	s1,a0
 890 04bc 13072000 		li	a4,2
 891 04c0 97060000 		ld	a3,.LANCHOR0+16
 891      83B60600 
 892 04c8 13060A00 		mv	a2,s4
GAS LISTING /tmp/ccWLvJi6.s 			page 21


 893 04cc 93850900 		mv	a1,s3
 894 04d0 97000000 		call	_ZN3PCBC1EPFvPvES0_S0_m
 894      E7800000 
 895              	.LVL70:
 177:src/PCB.cpp   **** 
 178:src/PCB.cpp   ****     (*threadHandle) = newPCB;
 896              		.loc 1 178 5 is_stmt 1
 897              		.loc 1 178 21 is_stmt 0
 898 04d8 23309900 		sd	s1,0(s2)
 179:src/PCB.cpp   **** 
 180:src/PCB.cpp   ****     if (newPCB == 0)
 899              		.loc 1 180 5 is_stmt 1
 900 04dc 63880402 		beqz	s1,.L42
 181:src/PCB.cpp   ****         __asm__ volatile("li a0, 0xffffffffffffffff");
 182:src/PCB.cpp   ****     else
 183:src/PCB.cpp   ****         __asm__ volatile("li a0, 0");
 901              		.loc 1 183 9
 902              		.loc 1 183 37 is_stmt 0
 903              	#APP
 904              	# 183 "src/PCB.cpp" 1
 184              	    Riscv::w_a0_sscratch();
 905              		li a0, 0
 906              	# 0 "" 2
 907              	#NO_APP
 908              	.L40:
 909              		.loc 1 184 5 is_stmt 1
 910              		.loc 1 184 25 is_stmt 0
 911 04e4 97000000 		call	_ZN5Riscv13w_a0_sscratchEv@plt
 911      E7800000 
 912              	.LVL71:
 185:src/PCB.cpp   **** }
 913              		.loc 1 185 1
 914 04ec 83308102 		ld	ra,40(sp)
 915              		.cfi_remember_state
 916              		.cfi_restore 1
 917 04f0 03340102 		ld	s0,32(sp)
 918              		.cfi_restore 8
 919              		.cfi_def_cfa 2, 48
 920 04f4 83348101 		ld	s1,24(sp)
 921              		.cfi_restore 9
 922              	.LVL72:
 923 04f8 03390101 		ld	s2,16(sp)
 924              		.cfi_restore 18
 925              	.LVL73:
 926 04fc 83398100 		ld	s3,8(sp)
 927              		.cfi_restore 19
 928              	.LVL74:
 929 0500 033A0100 		ld	s4,0(sp)
 930              		.cfi_restore 20
 931              	.LVL75:
 932 0504 13010103 		addi	sp,sp,48
 933              		.cfi_def_cfa_offset 0
 934 0508 67800000 		jr	ra
 935              	.LVL76:
 936              	.L42:
 937              		.cfi_restore_state
 181:src/PCB.cpp   ****         __asm__ volatile("li a0, 0xffffffffffffffff");
GAS LISTING /tmp/ccWLvJi6.s 			page 22


 938              		.loc 1 181 9 is_stmt 1
 181:src/PCB.cpp   ****         __asm__ volatile("li a0, 0xffffffffffffffff");
 939              		.loc 1 181 54 is_stmt 0
 940              	#APP
 941              	# 181 "src/PCB.cpp" 1
 942              		li a0, 0xffffffffffffffff
 943              	# 0 "" 2
 944              	#NO_APP
 945 0510 6FF05FFD 		j	.L40
 946              		.cfi_endproc
 947              	.LFE43:
 949              		.globl	_ZN3PCB10savedRegA4E
 950              		.globl	_ZN3PCB16timeSliceCounterE
 951              		.globl	_ZN3PCB7runningE
 952              		.bss
 953              		.align	3
 954              		.set	.LANCHOR0,. + 0
 957              	_ZN3PCB7runningE:
 958 0000 00000000 		.zero	8
 958      00000000 
 961              	_ZN3PCB16timeSliceCounterE:
 962 0008 00000000 		.zero	8
 962      00000000 
 965              	_ZN3PCB10savedRegA4E:
 966 0010 00000000 		.zero	8
 966      00000000 
 967              		.text
 968              	.Letext0:
 969              		.file 3 "src/../h/../lib/hw.h"
 970              		.file 4 "src/../h/Scheduler.hpp"
 971              		.file 5 "src/../h/Riscv.hpp"
 972              		.file 6 "src/../h/SleepPCBList.hpp"
 973              		.file 7 "src/../h/MemoryAllocator.hpp"
 974              		.file 8 "src/../h/syscall_c.h"
 4734              		.align	3
 4737              	DW.ref.__gxx_personality_v0:
 4738 0000 00000000 		.dword	__gxx_personality_v0
 4738      00000000 
 4739              		.ident	"GCC: (Ubuntu 9.3.0-17ubuntu1~20.04) 9.3.0"
 4740              		.section	.note.GNU-stack,"",@progbits
GAS LISTING /tmp/ccWLvJi6.s 			page 23


DEFINED SYMBOLS
                            *ABS*:0000000000000000 PCB.cpp
     /tmp/ccWLvJi6.s:9      .text:0000000000000000 _ZN3PCB6runnerEv
     /tmp/ccWLvJi6.s:13     .text:0000000000000000 .L0 
     /tmp/ccWLvJi6.s:14     .text:0000000000000000 .L0 
     /tmp/ccWLvJi6.s:15     .text:0000000000000004 .L0 
     /tmp/ccWLvJi6.s:18     .text:000000000000000c .L0 
     /tmp/ccWLvJi6.s:19     .text:000000000000000c .L0 
     /tmp/ccWLvJi6.s:21     .text:0000000000000010 .L0 
     /tmp/ccWLvJi6.s:23     .text:0000000000000010 .L0 
     /tmp/ccWLvJi6.s:24     .text:0000000000000010 .L0 
     /tmp/ccWLvJi6.s:27     .text:0000000000000018 .L0 
     /tmp/ccWLvJi6.s:28     .text:0000000000000018 .L0 
     /tmp/ccWLvJi6.s:31     .text:0000000000000024 .L0 
     /tmp/ccWLvJi6.s:35     .text:000000000000002c .L0 
     /tmp/ccWLvJi6.s:36     .text:000000000000002c .L0 
     /tmp/ccWLvJi6.s:39     .text:0000000000000034 .L0 
     /tmp/ccWLvJi6.s:40     .text:0000000000000038 .L0 
     /tmp/ccWLvJi6.s:42     .text:000000000000003c .L0 
     /tmp/ccWLvJi6.s:43     .text:000000000000003c .L0 
     /tmp/ccWLvJi6.s:45     .text:0000000000000040 .L0 
     /tmp/ccWLvJi6.s:47     .text:0000000000000044 .L0 
     /tmp/ccWLvJi6.s:53     .text:0000000000000044 _ZN3PCBC2EPFvPvES0_S0_m
     /tmp/ccWLvJi6.s:56     .text:0000000000000044 .L0 
     /tmp/ccWLvJi6.s:58     .text:0000000000000044 .L0 
     /tmp/ccWLvJi6.s:59     .text:0000000000000048 .L0 
     /tmp/ccWLvJi6.s:61     .text:000000000000004c .L0 
     /tmp/ccWLvJi6.s:63     .text:0000000000000050 .L0 
     /tmp/ccWLvJi6.s:66     .text:0000000000000050 .L0 
     /tmp/ccWLvJi6.s:73     .text:0000000000000068 .L0 
     /tmp/ccWLvJi6.s:77     .text:0000000000000070 .L0 
     /tmp/ccWLvJi6.s:81     .text:0000000000000080 .L0 
     /tmp/ccWLvJi6.s:82     .text:0000000000000080 .L0 
     /tmp/ccWLvJi6.s:85     .text:0000000000000084 .L0 
     /tmp/ccWLvJi6.s:86     .text:0000000000000088 .L0 
     /tmp/ccWLvJi6.s:87     .text:0000000000000088 .L0 
     /tmp/ccWLvJi6.s:89     .text:000000000000008c .L0 
     /tmp/ccWLvJi6.s:91     .text:0000000000000090 .L0 
     /tmp/ccWLvJi6.s:53     .text:0000000000000044 _ZN3PCBC1EPFvPvES0_S0_m
     /tmp/ccWLvJi6.s:99     .text:0000000000000090 _ZN3PCB5sleepEm
     /tmp/ccWLvJi6.s:102    .text:0000000000000090 .L0 
     /tmp/ccWLvJi6.s:104    .text:0000000000000090 .L0 
     /tmp/ccWLvJi6.s:105    .text:0000000000000094 .L0 
     /tmp/ccWLvJi6.s:107    .text:0000000000000098 .L0 
     /tmp/ccWLvJi6.s:109    .text:000000000000009c .L0 
     /tmp/ccWLvJi6.s:111    .text:000000000000009c .L0 
     /tmp/ccWLvJi6.s:112    .text:00000000000000a0 .L0 
     /tmp/ccWLvJi6.s:113    .text:00000000000000a0 .L0 
     /tmp/ccWLvJi6.s:115    .text:00000000000000a4 .L0 
     /tmp/ccWLvJi6.s:117    .text:00000000000000a8 .L0 
     /tmp/ccWLvJi6.s:123    .text:00000000000000a8 _ZN3PCB5startEv
     /tmp/ccWLvJi6.s:126    .text:00000000000000a8 .L0 
     /tmp/ccWLvJi6.s:128    .text:00000000000000a8 .L0 
     /tmp/ccWLvJi6.s:129    .text:00000000000000ac .L0 
     /tmp/ccWLvJi6.s:132    .text:00000000000000b4 .L0 
     /tmp/ccWLvJi6.s:133    .text:00000000000000b4 .L0 
     /tmp/ccWLvJi6.s:135    .text:00000000000000b8 .L0 
GAS LISTING /tmp/ccWLvJi6.s 			page 24


     /tmp/ccWLvJi6.s:137    .text:00000000000000b8 .L0 
     /tmp/ccWLvJi6.s:138    .text:00000000000000b8 .L0 
     /tmp/ccWLvJi6.s:141    .text:00000000000000c0 .L0 
     /tmp/ccWLvJi6.s:142    .text:00000000000000c4 .L0 
     /tmp/ccWLvJi6.s:144    .text:00000000000000c8 .L0 
     /tmp/ccWLvJi6.s:145    .text:00000000000000c8 .L0 
     /tmp/ccWLvJi6.s:147    .text:00000000000000cc .L0 
     /tmp/ccWLvJi6.s:149    .text:00000000000000d0 .L0 
     /tmp/ccWLvJi6.s:155    .text:00000000000000d0 _ZN3PCB8dispatchEv
     /tmp/ccWLvJi6.s:158    .text:00000000000000d0 .L0 
     /tmp/ccWLvJi6.s:159    .text:00000000000000d0 .L0 
     /tmp/ccWLvJi6.s:160    .text:00000000000000d4 .L0 
     /tmp/ccWLvJi6.s:164    .text:00000000000000e0 .L0 
     /tmp/ccWLvJi6.s:165    .text:00000000000000e0 .L0 
     /tmp/ccWLvJi6.s:166    .text:00000000000000e0 .L0 
     /tmp/ccWLvJi6.s:168    .text:00000000000000e4 .L0 
     /tmp/ccWLvJi6.s:170    .text:00000000000000e4 .L0 
     /tmp/ccWLvJi6.s:171    .text:00000000000000e4 .L0 
     /tmp/ccWLvJi6.s:177    .text:00000000000000ec .L0 
     /tmp/ccWLvJi6.s:178    .text:00000000000000ec .L0 
     /tmp/ccWLvJi6.s:179    .text:00000000000000ec .L0 
     /tmp/ccWLvJi6.s:184    .text:00000000000000f0 .L0 
     /tmp/ccWLvJi6.s:188    .text:00000000000000f8 .L0 
     /tmp/ccWLvJi6.s:189    .text:00000000000000f8 .L0 
     /tmp/ccWLvJi6.s:192    .text:0000000000000100 .L0 
     /tmp/ccWLvJi6.s:197    .text:0000000000000108 .L0 
     /tmp/ccWLvJi6.s:198    .text:0000000000000108 .L0 
     /tmp/ccWLvJi6.s:199    .text:0000000000000108 .L0 
     /tmp/ccWLvJi6.s:205    .text:0000000000000110 .L0 
     /tmp/ccWLvJi6.s:206    .text:0000000000000110 .L0 
     /tmp/ccWLvJi6.s:211    .text:0000000000000120 .L0 
     /tmp/ccWLvJi6.s:212    .text:0000000000000124 .L0 
     /tmp/ccWLvJi6.s:213    .text:0000000000000124 .L0 
     /tmp/ccWLvJi6.s:215    .text:0000000000000128 .L0 
     /tmp/ccWLvJi6.s:216    .text:0000000000000128 .L0 
     /tmp/ccWLvJi6.s:218    .text:000000000000012c .L0 
     /tmp/ccWLvJi6.s:221    .text:0000000000000130 .L0 
     /tmp/ccWLvJi6.s:225    .text:0000000000000134 .L0 
     /tmp/ccWLvJi6.s:227    .text:0000000000000134 .L0 
     /tmp/ccWLvJi6.s:228    .text:0000000000000134 .L0 
     /tmp/ccWLvJi6.s:232    .text:0000000000000144 .L0 
     /tmp/ccWLvJi6.s:238    .text:0000000000000144 _ZN3PCBnwEm
     /tmp/ccWLvJi6.s:241    .text:0000000000000144 .L0 
     /tmp/ccWLvJi6.s:243    .text:0000000000000144 .L0 
     /tmp/ccWLvJi6.s:244    .text:0000000000000148 .L0 
     /tmp/ccWLvJi6.s:247    .text:0000000000000150 .L0 
     /tmp/ccWLvJi6.s:248    .text:0000000000000150 .L0 
     /tmp/ccWLvJi6.s:250    .text:0000000000000154 .L0 
     /tmp/ccWLvJi6.s:252    .text:0000000000000154 .L0 
     /tmp/ccWLvJi6.s:253    .text:0000000000000154 .L0 
     /tmp/ccWLvJi6.s:256    .text:000000000000015c .L0 
     /tmp/ccWLvJi6.s:257    .text:0000000000000160 .L0 
     /tmp/ccWLvJi6.s:259    .text:0000000000000164 .L0 
     /tmp/ccWLvJi6.s:260    .text:0000000000000164 .L0 
     /tmp/ccWLvJi6.s:262    .text:0000000000000168 .L0 
     /tmp/ccWLvJi6.s:264    .text:000000000000016c .L0 
     /tmp/ccWLvJi6.s:270    .text:000000000000016c _ZN3PCBdlEPv
GAS LISTING /tmp/ccWLvJi6.s 			page 25


     /tmp/ccWLvJi6.s:273    .text:000000000000016c .L0 
     /tmp/ccWLvJi6.s:275    .text:000000000000016c .L0 
     /tmp/ccWLvJi6.s:276    .text:0000000000000170 .L0 
     /tmp/ccWLvJi6.s:279    .text:0000000000000178 .L0 
     /tmp/ccWLvJi6.s:280    .text:0000000000000178 .L0 
     /tmp/ccWLvJi6.s:282    .text:000000000000017c .L0 
     /tmp/ccWLvJi6.s:284    .text:000000000000017c .L0 
     /tmp/ccWLvJi6.s:285    .text:000000000000017c .L0 
     /tmp/ccWLvJi6.s:288    .text:0000000000000184 .L0 
     /tmp/ccWLvJi6.s:289    .text:0000000000000188 .L0 
     /tmp/ccWLvJi6.s:291    .text:000000000000018c .L0 
     /tmp/ccWLvJi6.s:292    .text:000000000000018c .L0 
     /tmp/ccWLvJi6.s:294    .text:0000000000000190 .L0 
     /tmp/ccWLvJi6.s:296    .text:0000000000000194 .L0 
     /tmp/ccWLvJi6.s:302    .text:0000000000000194 _ZN3PCBD2Ev
     /tmp/ccWLvJi6.s:305    .text:0000000000000194 .L0 
     /tmp/ccWLvJi6.s:4737   .data.rel.local.DW.ref.__gxx_personality_v0:0000000000000000 DW.ref.__gxx_personality_v0
     /tmp/ccWLvJi6.s:309    .text:0000000000000194 .L0 
     /tmp/ccWLvJi6.s:310    .text:0000000000000198 .L0 
     /tmp/ccWLvJi6.s:313    .text:00000000000001a0 .L0 
     /tmp/ccWLvJi6.s:314    .text:00000000000001a0 .L0 
     /tmp/ccWLvJi6.s:316    .text:00000000000001a4 .L0 
     /tmp/ccWLvJi6.s:319    .text:00000000000001a4 .L0 
     /tmp/ccWLvJi6.s:320    .text:00000000000001a4 .L0 
     /tmp/ccWLvJi6.s:326    .text:00000000000001b0 .L0 
     /tmp/ccWLvJi6.s:327    .text:00000000000001b4 .L0 
     /tmp/ccWLvJi6.s:329    .text:00000000000001b8 .L0 
     /tmp/ccWLvJi6.s:330    .text:00000000000001b8 .L0 
     /tmp/ccWLvJi6.s:332    .text:00000000000001bc .L0 
     /tmp/ccWLvJi6.s:334    .text:00000000000001c0 .L0 
     /tmp/ccWLvJi6.s:302    .text:0000000000000194 _ZN3PCBD1Ev
     /tmp/ccWLvJi6.s:350    .text:00000000000001c0 _ZN3PCB10initializeEv
     /tmp/ccWLvJi6.s:353    .text:00000000000001c0 .L0 
     /tmp/ccWLvJi6.s:354    .text:00000000000001c0 .L0 
     /tmp/ccWLvJi6.s:355    .text:00000000000001c4 .L0 
     /tmp/ccWLvJi6.s:361    .text:00000000000001d8 .L0 
     /tmp/ccWLvJi6.s:362    .text:00000000000001d8 .L0 
     /tmp/ccWLvJi6.s:363    .text:00000000000001d8 .L0 
     /tmp/ccWLvJi6.s:364    .text:00000000000001d8 .L0 
     /tmp/ccWLvJi6.s:365    .text:00000000000001d8 .L0 
     /tmp/ccWLvJi6.s:367    .text:00000000000001dc .L0 
     /tmp/ccWLvJi6.s:369    .text:00000000000001dc .L0 
     /tmp/ccWLvJi6.s:370    .text:00000000000001dc .L0 
     /tmp/ccWLvJi6.s:381    .text:0000000000000204 .L0 
     /tmp/ccWLvJi6.s:382    .text:0000000000000204 .L0 
     /tmp/ccWLvJi6.s:386    .text:0000000000000210 .L0 
     /tmp/ccWLvJi6.s:387    .text:0000000000000210 .L0 
     /tmp/ccWLvJi6.s:390    .text:0000000000000218 .L0 
     /tmp/ccWLvJi6.s:391    .text:0000000000000218 .L0 
     /tmp/ccWLvJi6.s:394    .text:0000000000000220 .L0 
     /tmp/ccWLvJi6.s:399    .text:0000000000000228 .L0 
     /tmp/ccWLvJi6.s:400    .text:0000000000000228 .L0 
     /tmp/ccWLvJi6.s:401    .text:0000000000000228 .L0 
     /tmp/ccWLvJi6.s:407    .text:0000000000000230 .L0 
     /tmp/ccWLvJi6.s:408    .text:0000000000000230 .L0 
     /tmp/ccWLvJi6.s:413    .text:0000000000000240 .L0 
     /tmp/ccWLvJi6.s:425    .text:000000000000026c .L0 
GAS LISTING /tmp/ccWLvJi6.s 			page 26


     /tmp/ccWLvJi6.s:426    .text:000000000000026c .L0 
     /tmp/ccWLvJi6.s:428    .text:0000000000000270 .L0 
     /tmp/ccWLvJi6.s:429    .text:0000000000000270 .L0 
     /tmp/ccWLvJi6.s:433    .text:000000000000027c .L0 
     /tmp/ccWLvJi6.s:434    .text:0000000000000280 .L0 
     /tmp/ccWLvJi6.s:436    .text:0000000000000284 .L0 
     /tmp/ccWLvJi6.s:437    .text:0000000000000284 .L0 
     /tmp/ccWLvJi6.s:439    .text:0000000000000288 .L0 
     /tmp/ccWLvJi6.s:442    .text:000000000000028c .L0 
     /tmp/ccWLvJi6.s:444    .text:0000000000000290 .L0 
     /tmp/ccWLvJi6.s:446    .text:0000000000000294 .L0 
     /tmp/ccWLvJi6.s:448    .text:0000000000000298 .L0 
     /tmp/ccWLvJi6.s:454    .text:0000000000000298 _ZN3PCB10isFinishedEv
     /tmp/ccWLvJi6.s:457    .text:0000000000000298 .L0 
     /tmp/ccWLvJi6.s:459    .text:0000000000000298 .L0 
     /tmp/ccWLvJi6.s:460    .text:000000000000029c .L0 
     /tmp/ccWLvJi6.s:462    .text:00000000000002a0 .L0 
     /tmp/ccWLvJi6.s:464    .text:00000000000002a4 .L0 
     /tmp/ccWLvJi6.s:466    .text:00000000000002a4 .L0 
     /tmp/ccWLvJi6.s:467    .text:00000000000002a4 .L0 
     /tmp/ccWLvJi6.s:470    .text:00000000000002a8 .L0 
     /tmp/ccWLvJi6.s:472    .text:00000000000002ac .L0 
     /tmp/ccWLvJi6.s:474    .text:00000000000002b4 .L0 
     /tmp/ccWLvJi6.s:475    .text:00000000000002b4 .L0 
     /tmp/ccWLvJi6.s:477    .text:00000000000002b8 .L0 
     /tmp/ccWLvJi6.s:479    .text:00000000000002bc .L0 
     /tmp/ccWLvJi6.s:490    .text:00000000000002bc _ZN3PCB17threadExitHandlerEv
     /tmp/ccWLvJi6.s:493    .text:00000000000002bc .L0 
     /tmp/ccWLvJi6.s:494    .text:00000000000002bc .L0 
     /tmp/ccWLvJi6.s:495    .text:00000000000002c0 .L0 
     /tmp/ccWLvJi6.s:498    .text:00000000000002c8 .L0 
     /tmp/ccWLvJi6.s:499    .text:00000000000002c8 .L0 
     /tmp/ccWLvJi6.s:501    .text:00000000000002cc .L0 
     /tmp/ccWLvJi6.s:503    .text:00000000000002cc .L0 
     /tmp/ccWLvJi6.s:504    .text:00000000000002cc .L0 
     /tmp/ccWLvJi6.s:508    .text:00000000000002dc .L0 
     /tmp/ccWLvJi6.s:509    .text:00000000000002dc .L0 
     /tmp/ccWLvJi6.s:512    .text:00000000000002e8 .L0 
     /tmp/ccWLvJi6.s:513    .text:00000000000002e8 .L0 
     /tmp/ccWLvJi6.s:518    .text:00000000000002ec .L0 
     /tmp/ccWLvJi6.s:519    .text:00000000000002ec .L0 
     /tmp/ccWLvJi6.s:525    .text:00000000000002f4 .L0 
     /tmp/ccWLvJi6.s:526    .text:00000000000002f4 .L0 
     /tmp/ccWLvJi6.s:529    .text:00000000000002fc .L0 
         src/PCB.cpp:106    .text:00000000000002fc .L0 
     /tmp/ccWLvJi6.s:535    .text:0000000000000300 .L0 
     /tmp/ccWLvJi6.s:537    .text:0000000000000300 .L0 
     /tmp/ccWLvJi6.s:540    .text:0000000000000308 .L0 
     /tmp/ccWLvJi6.s:541    .text:000000000000030c .L0 
     /tmp/ccWLvJi6.s:543    .text:0000000000000310 .L0 
     /tmp/ccWLvJi6.s:544    .text:0000000000000310 .L0 
     /tmp/ccWLvJi6.s:546    .text:0000000000000314 .L0 
     /tmp/ccWLvJi6.s:548    .text:0000000000000318 .L0 
     /tmp/ccWLvJi6.s:554    .text:0000000000000318 _ZN3PCB21threadDispatchHandlerEv
     /tmp/ccWLvJi6.s:557    .text:0000000000000318 .L0 
     /tmp/ccWLvJi6.s:558    .text:0000000000000318 .L0 
     /tmp/ccWLvJi6.s:559    .text:000000000000031c .L0 
GAS LISTING /tmp/ccWLvJi6.s 			page 27


     /tmp/ccWLvJi6.s:562    .text:0000000000000324 .L0 
     /tmp/ccWLvJi6.s:563    .text:0000000000000324 .L0 
     /tmp/ccWLvJi6.s:565    .text:0000000000000328 .L0 
     /tmp/ccWLvJi6.s:567    .text:0000000000000328 .L0 
     /tmp/ccWLvJi6.s:568    .text:0000000000000328 .L0 
     /tmp/ccWLvJi6.s:570    .text:0000000000000330 .L0 
     /tmp/ccWLvJi6.s:571    .text:0000000000000330 .L0 
     /tmp/ccWLvJi6.s:574    .text:0000000000000338 .L0 
     /tmp/ccWLvJi6.s:575    .text:000000000000033c .L0 
     /tmp/ccWLvJi6.s:577    .text:0000000000000340 .L0 
     /tmp/ccWLvJi6.s:578    .text:0000000000000340 .L0 
     /tmp/ccWLvJi6.s:580    .text:0000000000000344 .L0 
     /tmp/ccWLvJi6.s:582    .text:0000000000000348 .L0 
     /tmp/ccWLvJi6.s:588    .text:0000000000000348 _ZN3PCB18threadSleepHandlerEv
     /tmp/ccWLvJi6.s:591    .text:0000000000000348 .L0 
     /tmp/ccWLvJi6.s:592    .text:0000000000000348 .L0 
     /tmp/ccWLvJi6.s:593    .text:000000000000034c .L0 
     /tmp/ccWLvJi6.s:596    .text:0000000000000354 .L0 
     /tmp/ccWLvJi6.s:597    .text:0000000000000354 .L0 
     /tmp/ccWLvJi6.s:599    .text:0000000000000358 .L0 
     /tmp/ccWLvJi6.s:601    .text:0000000000000358 .L0 
     /tmp/ccWLvJi6.s:602    .text:0000000000000358 .L0 
         src/PCB.cpp:119    .text:0000000000000358 .L0 
     /tmp/ccWLvJi6.s:609    .text:000000000000035c .L0 
     /tmp/ccWLvJi6.s:611    .text:000000000000035c .L0 
     /tmp/ccWLvJi6.s:614    .text:0000000000000368 .L0 
     /tmp/ccWLvJi6.s:615    .text:0000000000000368 .L0 
     /tmp/ccWLvJi6.s:620    .text:000000000000036c .L0 
     /tmp/ccWLvJi6.s:621    .text:000000000000036c .L0 
     /tmp/ccWLvJi6.s:626    .text:0000000000000370 .L0 
     /tmp/ccWLvJi6.s:627    .text:0000000000000370 .L0 
     /tmp/ccWLvJi6.s:630    .text:0000000000000378 .L0 
     /tmp/ccWLvJi6.s:631    .text:0000000000000378 .L0 
     /tmp/ccWLvJi6.s:634    .text:0000000000000380 .L0 
         src/PCB.cpp:124    .text:0000000000000380 .L0 
     /tmp/ccWLvJi6.s:640    .text:0000000000000384 .L0 
     /tmp/ccWLvJi6.s:642    .text:0000000000000384 .L0 
     /tmp/ccWLvJi6.s:645    .text:000000000000038c .L0 
     /tmp/ccWLvJi6.s:646    .text:0000000000000390 .L0 
     /tmp/ccWLvJi6.s:648    .text:0000000000000394 .L0 
     /tmp/ccWLvJi6.s:649    .text:0000000000000394 .L0 
     /tmp/ccWLvJi6.s:651    .text:0000000000000398 .L0 
     /tmp/ccWLvJi6.s:653    .text:000000000000039c .L0 
     /tmp/ccWLvJi6.s:659    .text:000000000000039c _ZN3PCB19threadCreateHandlerEv
     /tmp/ccWLvJi6.s:662    .text:000000000000039c .L0 
     /tmp/ccWLvJi6.s:663    .text:000000000000039c .L0 
     /tmp/ccWLvJi6.s:664    .text:00000000000003a0 .L0 
     /tmp/ccWLvJi6.s:671    .text:00000000000003b8 .L0 
     /tmp/ccWLvJi6.s:672    .text:00000000000003b8 .L0 
     /tmp/ccWLvJi6.s:673    .text:00000000000003b8 .L0 
     /tmp/ccWLvJi6.s:674    .text:00000000000003b8 .L0 
     /tmp/ccWLvJi6.s:675    .text:00000000000003b8 .L0 
     /tmp/ccWLvJi6.s:676    .text:00000000000003b8 .L0 
     /tmp/ccWLvJi6.s:678    .text:00000000000003bc .L0 
     /tmp/ccWLvJi6.s:680    .text:00000000000003bc .L0 
     /tmp/ccWLvJi6.s:681    .text:00000000000003bc .L0 
     /tmp/ccWLvJi6.s:682    .text:00000000000003bc .L0 
GAS LISTING /tmp/ccWLvJi6.s 			page 28


     /tmp/ccWLvJi6.s:683    .text:00000000000003bc .L0 
         src/PCB.cpp:133    .text:00000000000003bc .L0 
     /tmp/ccWLvJi6.s:690    .text:00000000000003c0 .L0 
         src/PCB.cpp:134    .text:00000000000003c0 .L0 
     /tmp/ccWLvJi6.s:696    .text:00000000000003c4 .L0 
         src/PCB.cpp:135    .text:00000000000003c4 .L0 
     /tmp/ccWLvJi6.s:702    .text:00000000000003c8 .L0 
     /tmp/ccWLvJi6.s:704    .text:00000000000003c8 .L0 
     /tmp/ccWLvJi6.s:715    .text:00000000000003f4 .L0 
     /tmp/ccWLvJi6.s:716    .text:00000000000003f4 .L0 
     /tmp/ccWLvJi6.s:718    .text:00000000000003f8 .L0 
     /tmp/ccWLvJi6.s:720    .text:00000000000003fc .L0 
     /tmp/ccWLvJi6.s:721    .text:00000000000003fc .L0 
     /tmp/ccWLvJi6.s:725    .text:0000000000000408 .L0 
         src/PCB.cpp:146    .text:0000000000000408 .L0 
     /tmp/ccWLvJi6.s:733    .text:000000000000040c .L0 
     /tmp/ccWLvJi6.s:734    .text:000000000000040c .L0 
     /tmp/ccWLvJi6.s:737    .text:0000000000000414 .L0 
     /tmp/ccWLvJi6.s:738    .text:0000000000000418 .L0 
     /tmp/ccWLvJi6.s:739    .text:0000000000000418 .L0 
     /tmp/ccWLvJi6.s:741    .text:000000000000041c .L0 
     /tmp/ccWLvJi6.s:742    .text:000000000000041c .L0 
     /tmp/ccWLvJi6.s:744    .text:0000000000000420 .L0 
     /tmp/ccWLvJi6.s:747    .text:0000000000000424 .L0 
     /tmp/ccWLvJi6.s:750    .text:0000000000000428 .L0 
     /tmp/ccWLvJi6.s:753    .text:000000000000042c .L0 
     /tmp/ccWLvJi6.s:756    .text:0000000000000430 .L0 
     /tmp/ccWLvJi6.s:760    .text:0000000000000434 .L0 
     /tmp/ccWLvJi6.s:762    .text:0000000000000434 .L0 
         src/PCB.cpp:142    .text:0000000000000434 .L0 
     /tmp/ccWLvJi6.s:769    .text:000000000000043c .L0 
     /tmp/ccWLvJi6.s:775    .text:000000000000043c _ZN3PCB18threadStartHandlerEv
     /tmp/ccWLvJi6.s:778    .text:000000000000043c .L0 
     /tmp/ccWLvJi6.s:779    .text:000000000000043c .L0 
     /tmp/ccWLvJi6.s:780    .text:0000000000000440 .L0 
     /tmp/ccWLvJi6.s:783    .text:0000000000000448 .L0 
     /tmp/ccWLvJi6.s:784    .text:0000000000000448 .L0 
     /tmp/ccWLvJi6.s:786    .text:000000000000044c .L0 
     /tmp/ccWLvJi6.s:788    .text:000000000000044c .L0 
     /tmp/ccWLvJi6.s:789    .text:000000000000044c .L0 
         src/PCB.cpp:154    .text:000000000000044c .L0 
     /tmp/ccWLvJi6.s:797    .text:0000000000000450 .L0 
     /tmp/ccWLvJi6.s:799    .text:0000000000000454 .L0 
     /tmp/ccWLvJi6.s:800    .text:0000000000000454 .L0 
     /tmp/ccWLvJi6.s:803    .text:000000000000045c .L0 
         src/PCB.cpp:158    .text:000000000000045c .L0 
     /tmp/ccWLvJi6.s:811    .text:0000000000000460 .L0 
     /tmp/ccWLvJi6.s:812    .text:0000000000000460 .L0 
     /tmp/ccWLvJi6.s:815    .text:0000000000000468 .L0 
     /tmp/ccWLvJi6.s:816    .text:000000000000046c .L0 
     /tmp/ccWLvJi6.s:817    .text:000000000000046c .L0 
     /tmp/ccWLvJi6.s:819    .text:0000000000000470 .L0 
     /tmp/ccWLvJi6.s:820    .text:0000000000000470 .L0 
     /tmp/ccWLvJi6.s:822    .text:0000000000000474 .L0 
     /tmp/ccWLvJi6.s:826    .text:0000000000000478 .L0 
     /tmp/ccWLvJi6.s:828    .text:0000000000000478 .L0 
         src/PCB.cpp:162    .text:0000000000000478 .L0 
GAS LISTING /tmp/ccWLvJi6.s 			page 29


     /tmp/ccWLvJi6.s:835    .text:0000000000000480 .L0 
     /tmp/ccWLvJi6.s:841    .text:0000000000000480 _ZN3PCB20threadMakePCBHandlerEv
     /tmp/ccWLvJi6.s:844    .text:0000000000000480 .L0 
     /tmp/ccWLvJi6.s:845    .text:0000000000000480 .L0 
     /tmp/ccWLvJi6.s:846    .text:0000000000000484 .L0 
     /tmp/ccWLvJi6.s:853    .text:000000000000049c .L0 
     /tmp/ccWLvJi6.s:854    .text:000000000000049c .L0 
     /tmp/ccWLvJi6.s:855    .text:000000000000049c .L0 
     /tmp/ccWLvJi6.s:856    .text:000000000000049c .L0 
     /tmp/ccWLvJi6.s:857    .text:000000000000049c .L0 
     /tmp/ccWLvJi6.s:858    .text:000000000000049c .L0 
     /tmp/ccWLvJi6.s:860    .text:00000000000004a0 .L0 
     /tmp/ccWLvJi6.s:862    .text:00000000000004a0 .L0 
     /tmp/ccWLvJi6.s:863    .text:00000000000004a0 .L0 
     /tmp/ccWLvJi6.s:864    .text:00000000000004a0 .L0 
     /tmp/ccWLvJi6.s:865    .text:00000000000004a0 .L0 
         src/PCB.cpp:172    .text:00000000000004a0 .L0 
     /tmp/ccWLvJi6.s:872    .text:00000000000004a4 .L0 
         src/PCB.cpp:173    .text:00000000000004a4 .L0 
     /tmp/ccWLvJi6.s:878    .text:00000000000004a8 .L0 
         src/PCB.cpp:174    .text:00000000000004a8 .L0 
     /tmp/ccWLvJi6.s:884    .text:00000000000004ac .L0 
     /tmp/ccWLvJi6.s:886    .text:00000000000004ac .L0 
     /tmp/ccWLvJi6.s:897    .text:00000000000004d8 .L0 
     /tmp/ccWLvJi6.s:898    .text:00000000000004d8 .L0 
     /tmp/ccWLvJi6.s:900    .text:00000000000004dc .L0 
     /tmp/ccWLvJi6.s:902    .text:00000000000004e0 .L0 
         src/PCB.cpp:183    .text:00000000000004e0 .L0 
     /tmp/ccWLvJi6.s:910    .text:00000000000004e4 .L0 
     /tmp/ccWLvJi6.s:911    .text:00000000000004e4 .L0 
     /tmp/ccWLvJi6.s:914    .text:00000000000004ec .L0 
     /tmp/ccWLvJi6.s:915    .text:00000000000004f0 .L0 
     /tmp/ccWLvJi6.s:916    .text:00000000000004f0 .L0 
     /tmp/ccWLvJi6.s:918    .text:00000000000004f4 .L0 
     /tmp/ccWLvJi6.s:919    .text:00000000000004f4 .L0 
     /tmp/ccWLvJi6.s:921    .text:00000000000004f8 .L0 
     /tmp/ccWLvJi6.s:924    .text:00000000000004fc .L0 
     /tmp/ccWLvJi6.s:927    .text:0000000000000500 .L0 
     /tmp/ccWLvJi6.s:930    .text:0000000000000504 .L0 
     /tmp/ccWLvJi6.s:933    .text:0000000000000508 .L0 
     /tmp/ccWLvJi6.s:937    .text:000000000000050c .L0 
     /tmp/ccWLvJi6.s:939    .text:000000000000050c .L0 
         src/PCB.cpp:181    .text:000000000000050c .L0 
     /tmp/ccWLvJi6.s:946    .text:0000000000000514 .L0 
     /tmp/ccWLvJi6.s:965    .bss:0000000000000010 _ZN3PCB10savedRegA4E
     /tmp/ccWLvJi6.s:961    .bss:0000000000000008 _ZN3PCB16timeSliceCounterE
     /tmp/ccWLvJi6.s:957    .bss:0000000000000000 _ZN3PCB7runningE
     /tmp/ccWLvJi6.s:954    .bss:0000000000000000 .LANCHOR0
     /tmp/ccWLvJi6.s:975    .text:0000000000000514 .L0 
     /tmp/ccWLvJi6.s:28     .text:0000000000000018 .L0 
     /tmp/ccWLvJi6.s:78     .text:0000000000000074 .L0 
     /tmp/ccWLvJi6.s:171    .text:00000000000000e4 .L0 
     /tmp/ccWLvJi6.s:192    .text:0000000000000100 .L0 
     /tmp/ccWLvJi6.s:394    .text:0000000000000220 .L0 
     /tmp/ccWLvJi6.s:421    .text:000000000000025c .L0 
     /tmp/ccWLvJi6.s:484    .rodata.str1.8:0000000000000000 .LC0
     /tmp/ccWLvJi6.s:504    .text:00000000000002cc .L0 
GAS LISTING /tmp/ccWLvJi6.s 			page 30


     /tmp/ccWLvJi6.s:509    .text:00000000000002dc .L0 
     /tmp/ccWLvJi6.s:568    .text:0000000000000328 .L0 
     /tmp/ccWLvJi6.s:611    .text:000000000000035c .L0 
     /tmp/ccWLvJi6.s:709    .text:00000000000003dc .L0 
     /tmp/ccWLvJi6.s:891    .text:00000000000004c0 .L0 
     /tmp/ccWLvJi6.s:224    .text:0000000000000134 .L12
     /tmp/ccWLvJi6.s:186    .text:00000000000000f8 .L10
     /tmp/ccWLvJi6.s:759    .text:0000000000000434 .L33
     /tmp/ccWLvJi6.s:731    .text:000000000000040c .L31
     /tmp/ccWLvJi6.s:825    .text:0000000000000478 .L35
     /tmp/ccWLvJi6.s:809    .text:0000000000000460 .L36
     /tmp/ccWLvJi6.s:936    .text:000000000000050c .L42
     /tmp/ccWLvJi6.s:908    .text:00000000000004e4 .L40
     /tmp/ccWLvJi6.s:2941   .debug_abbrev:0000000000000000 .Ldebug_abbrev0
     /tmp/ccWLvJi6.s:4347   .debug_str:0000000000000185 .LASF205
     /tmp/ccWLvJi6.s:4663   .debug_str:0000000000000bfb .LASF206
     /tmp/ccWLvJi6.s:4653   .debug_str:0000000000000b94 .LASF207
     /tmp/ccWLvJi6.s:5      .text:0000000000000000 .Ltext0
     /tmp/ccWLvJi6.s:968    .text:0000000000000514 .Letext0
     /tmp/ccWLvJi6.s:4299   .debug_line:0000000000000000 .Ldebug_line0
     /tmp/ccWLvJi6.s:4445   .debug_str:0000000000000512 .LASF0
     /tmp/ccWLvJi6.s:4477   .debug_str:000000000000061a .LASF1
     /tmp/ccWLvJi6.s:4585   .debug_str:00000000000009aa .LASF2
     /tmp/ccWLvJi6.s:4597   .debug_str:00000000000009ff .LASF4
     /tmp/ccWLvJi6.s:4463   .debug_str:00000000000005a0 .LASF3
     /tmp/ccWLvJi6.s:4315   .debug_str:0000000000000061 .LASF5
     /tmp/ccWLvJi6.s:4557   .debug_str:00000000000008c9 .LASF6
     /tmp/ccWLvJi6.s:4545   .debug_str:0000000000000871 .LASF7
     /tmp/ccWLvJi6.s:4469   .debug_str:00000000000005e1 .LASF8
     /tmp/ccWLvJi6.s:4423   .debug_str:0000000000000462 .LASF9
     /tmp/ccWLvJi6.s:4429   .debug_str:00000000000004a5 .LASF10
     /tmp/ccWLvJi6.s:4365   .debug_str:00000000000002bf .LASF11
     /tmp/ccWLvJi6.s:4413   .debug_str:000000000000042b .LASF12
     /tmp/ccWLvJi6.s:4371   .debug_str:00000000000002e1 .LASF13
     /tmp/ccWLvJi6.s:4363   .debug_str:00000000000002af .LASF14
     /tmp/ccWLvJi6.s:4631   .debug_str:0000000000000b11 .LASF15
     /tmp/ccWLvJi6.s:4407   .debug_str:00000000000003e2 .LASF16
     /tmp/ccWLvJi6.s:4621   .debug_str:0000000000000aa0 .LASF17
     /tmp/ccWLvJi6.s:4641   .debug_str:0000000000000b50 .LASF208
     /tmp/ccWLvJi6.s:4357   .debug_str:0000000000000282 .LASF18
     /tmp/ccWLvJi6.s:4615   .debug_str:0000000000000a7f .LASF19
     /tmp/ccWLvJi6.s:4369   .debug_str:00000000000002d7 .LASF20
     /tmp/ccWLvJi6.s:4343   .debug_str:000000000000016e .LASF21
     /tmp/ccWLvJi6.s:4549   .debug_str:000000000000089a .LASF22
     /tmp/ccWLvJi6.s:4367   .debug_str:00000000000002ce .LASF23
     /tmp/ccWLvJi6.s:4633   .debug_str:0000000000000b1d .LASF84
     /tmp/ccWLvJi6.s:4435   .debug_str:00000000000004d8 .LASF24
     /tmp/ccWLvJi6.s:4319   .debug_str:0000000000000082 .LASF29
     /tmp/ccWLvJi6.s:4657   .debug_str:0000000000000bbf .LASF209
     /tmp/ccWLvJi6.s:4533   .debug_str:0000000000000818 .LASF210
     /tmp/ccWLvJi6.s:4475   .debug_str:0000000000000615 .LASF25
     /tmp/ccWLvJi6.s:4715   .debug_str:0000000000000d8c .LASF27
     /tmp/ccWLvJi6.s:4709   .debug_str:0000000000000d5c .LASF26
     /tmp/ccWLvJi6.s:4647   .debug_str:0000000000000b66 .LASF28
     /tmp/ccWLvJi6.s:4393   .debug_str:0000000000000387 .LASF54
     /tmp/ccWLvJi6.s:4327   .debug_str:00000000000000cd .LASF56
     /tmp/ccWLvJi6.s:4479   .debug_str:000000000000062d .LASF34
GAS LISTING /tmp/ccWLvJi6.s 			page 31


     /tmp/ccWLvJi6.s:4537   .debug_str:0000000000000830 .LASF36
     /tmp/ccWLvJi6.s:4643   .debug_str:0000000000000b56 .LASF30
     /tmp/ccWLvJi6.s:4607   .debug_str:0000000000000a36 .LASF31
     /tmp/ccWLvJi6.s:4481   .debug_str:0000000000000633 .LASF38
     /tmp/ccWLvJi6.s:4487   .debug_str:000000000000066a .LASF40
     /tmp/ccWLvJi6.s:4719   .debug_str:0000000000000db0 .LASF32
     /tmp/ccWLvJi6.s:4409   .debug_str:00000000000003f8 .LASF33
     /tmp/ccWLvJi6.s:4307   .debug_str:000000000000002a .LASF35
     /tmp/ccWLvJi6.s:4457   .debug_str:0000000000000574 .LASF37
     /tmp/ccWLvJi6.s:4611   .debug_str:0000000000000a58 .LASF39
     /tmp/ccWLvJi6.s:4511   .debug_str:0000000000000743 .LASF41
     /tmp/ccWLvJi6.s:4595   .debug_str:00000000000009f6 .LASF42
     /tmp/ccWLvJi6.s:4627   .debug_str:0000000000000aee .LASF43
     /tmp/ccWLvJi6.s:4513   .debug_str:0000000000000756 .LASF44
     /tmp/ccWLvJi6.s:4303   .debug_str:000000000000000b .LASF45
     /tmp/ccWLvJi6.s:4695   .debug_str:0000000000000ce7 .LASF46
     /tmp/ccWLvJi6.s:4543   .debug_str:0000000000000857 .LASF47
     /tmp/ccWLvJi6.s:4619   .debug_str:0000000000000a92 .LASF48
     /tmp/ccWLvJi6.s:4559   .debug_str:00000000000008d0 .LASF49
     /tmp/ccWLvJi6.s:4389   .debug_str:0000000000000365 .LASF50
     /tmp/ccWLvJi6.s:4417   .debug_str:0000000000000442 .LASF51
     /tmp/ccWLvJi6.s:4577   .debug_str:0000000000000969 .LASF52
     /tmp/ccWLvJi6.s:4701   .debug_str:0000000000000d18 .LASF53
     /tmp/ccWLvJi6.s:4465   .debug_str:00000000000005b2 .LASF60
     /tmp/ccWLvJi6.s:4617   .debug_str:0000000000000a87 .LASF55
     /tmp/ccWLvJi6.s:4713   .debug_str:0000000000000d76 .LASF57
     /tmp/ccWLvJi6.s:4635   .debug_str:0000000000000b25 .LASF58
     /tmp/ccWLvJi6.s:4381   .debug_str:0000000000000338 .LASF59
     /tmp/ccWLvJi6.s:4603   .debug_str:0000000000000a20 .LASF61
     /tmp/ccWLvJi6.s:4447   .debug_str:000000000000051f .LASF62
     /tmp/ccWLvJi6.s:4521   .debug_str:0000000000000790 .LASF63
     /tmp/ccWLvJi6.s:4375   .debug_str:0000000000000302 .LASF64
     /tmp/ccWLvJi6.s:4563   .debug_str:00000000000008e3 .LASF65
     /tmp/ccWLvJi6.s:4729   .debug_str:0000000000000de8 .LASF66
     /tmp/ccWLvJi6.s:4525   .debug_str:00000000000007b6 .LASF67
     /tmp/ccWLvJi6.s:4593   .debug_str:00000000000009e3 .LASF68
     /tmp/ccWLvJi6.s:4613   .debug_str:0000000000000a61 .LASF69
     /tmp/ccWLvJi6.s:4669   .debug_str:0000000000000c15 .LASF70
     /tmp/ccWLvJi6.s:4503   .debug_str:00000000000006fb .LASF71
     /tmp/ccWLvJi6.s:4659   .debug_str:0000000000000bd7 .LASF72
     /tmp/ccWLvJi6.s:4625   .debug_str:0000000000000ace .LASF73
     /tmp/ccWLvJi6.s:4651   .debug_str:0000000000000b8a .LASF74
     /tmp/ccWLvJi6.s:4539   .debug_str:0000000000000840 .LASF75
     /tmp/ccWLvJi6.s:4707   .debug_str:0000000000000d4e .LASF76
     /tmp/ccWLvJi6.s:4333   .debug_str:0000000000000108 .LASF78
     /tmp/ccWLvJi6.s:4449   .debug_str:0000000000000533 .LASF77
     /tmp/ccWLvJi6.s:4355   .debug_str:0000000000000256 .LASF79
     /tmp/ccWLvJi6.s:4693   .debug_str:0000000000000ce0 .LASF211
     /tmp/ccWLvJi6.s:4351   .debug_str:0000000000000237 .LASF212
     /tmp/ccWLvJi6.s:4305   .debug_str:0000000000000025 .LASF80
     /tmp/ccWLvJi6.s:4667   .debug_str:0000000000000c10 .LASF81
     /tmp/ccWLvJi6.s:4491   .debug_str:000000000000069d .LASF82
     /tmp/ccWLvJi6.s:4395   .debug_str:0000000000000390 .LASF83
     /tmp/ccWLvJi6.s:4655   .debug_str:0000000000000bb7 .LASF85
     /tmp/ccWLvJi6.s:4421   .debug_str:0000000000000458 .LASF86
     /tmp/ccWLvJi6.s:4321   .debug_str:000000000000008d .LASF213
     /tmp/ccWLvJi6.s:4711   .debug_str:0000000000000d62 .LASF214
GAS LISTING /tmp/ccWLvJi6.s 			page 32


     /tmp/ccWLvJi6.s:4339   .debug_str:0000000000000149 .LASF87
     /tmp/ccWLvJi6.s:4535   .debug_str:000000000000081d .LASF88
     /tmp/ccWLvJi6.s:4645   .debug_str:0000000000000b5e .LASF89
     /tmp/ccWLvJi6.s:4579   .debug_str:0000000000000976 .LASF120
     /tmp/ccWLvJi6.s:4349   .debug_str:0000000000000231 .LASF90
     /tmp/ccWLvJi6.s:4519   .debug_str:000000000000077a .LASF91
     /tmp/ccWLvJi6.s:4609   .debug_str:0000000000000a47 .LASF92
     /tmp/ccWLvJi6.s:4373   .debug_str:00000000000002f1 .LASF93
     /tmp/ccWLvJi6.s:4681   .debug_str:0000000000000c96 .LASF94
     /tmp/ccWLvJi6.s:4441   .debug_str:00000000000004ef .LASF95
     /tmp/ccWLvJi6.s:4623   .debug_str:0000000000000ab6 .LASF96
     /tmp/ccWLvJi6.s:4541   .debug_str:000000000000084c .LASF97
     /tmp/ccWLvJi6.s:4499   .debug_str:00000000000006d3 .LASF98
     /tmp/ccWLvJi6.s:4405   .debug_str:00000000000003d8 .LASF99
     /tmp/ccWLvJi6.s:4547   .debug_str:0000000000000884 .LASF100
     /tmp/ccWLvJi6.s:4501   .debug_str:00000000000006eb .LASF101
     /tmp/ccWLvJi6.s:4675   .debug_str:0000000000000c5c .LASF102
     /tmp/ccWLvJi6.s:4671   .debug_str:0000000000000c28 .LASF103
     /tmp/ccWLvJi6.s:4485   .debug_str:000000000000064c .LASF104
     /tmp/ccWLvJi6.s:4399   .debug_str:000000000000039c .LASF105
     /tmp/ccWLvJi6.s:4705   .debug_str:0000000000000d2a .LASF106
     /tmp/ccWLvJi6.s:4455   .debug_str:0000000000000562 .LASF107
     /tmp/ccWLvJi6.s:4377   .debug_str:0000000000000314 .LASF108
     /tmp/ccWLvJi6.s:4699   .debug_str:0000000000000d0c .LASF109
     /tmp/ccWLvJi6.s:4329   .debug_str:00000000000000e0 .LASF110
     /tmp/ccWLvJi6.s:4555   .debug_str:00000000000008bc .LASF111
     /tmp/ccWLvJi6.s:4317   .debug_str:0000000000000068 .LASF112
     /tmp/ccWLvJi6.s:4337   .debug_str:000000000000013f .LASF113
     /tmp/ccWLvJi6.s:4425   .debug_str:0000000000000472 .LASF114
     /tmp/ccWLvJi6.s:4605   .debug_str:0000000000000a28 .LASF115
     /tmp/ccWLvJi6.s:4573   .debug_str:0000000000000947 .LASF116
     /tmp/ccWLvJi6.s:4515   .debug_str:0000000000000765 .LASF117
     /tmp/ccWLvJi6.s:4687   .debug_str:0000000000000cb1 .LASF118
     /tmp/ccWLvJi6.s:4665   .debug_str:0000000000000c07 .LASF119
     /tmp/ccWLvJi6.s:4311   .debug_str:0000000000000042 .LASF121
     /tmp/ccWLvJi6.s:4725   .debug_str:0000000000000dd7 .LASF122
     /tmp/ccWLvJi6.s:4529   .debug_str:00000000000007eb .LASF123
     /tmp/ccWLvJi6.s:4561   .debug_str:00000000000008dc .LASF124
     /tmp/ccWLvJi6.s:4565   .debug_str:0000000000000900 .LASF125
     /tmp/ccWLvJi6.s:4523   .debug_str:00000000000007af .LASF126
     /tmp/ccWLvJi6.s:4471   .debug_str:00000000000005f4 .LASF127
     /tmp/ccWLvJi6.s:4689   .debug_str:0000000000000ccb .LASF128
     /tmp/ccWLvJi6.s:4649   .debug_str:0000000000000b76 .LASF129
     /tmp/ccWLvJi6.s:4517   .debug_str:0000000000000772 .LASF130
     /tmp/ccWLvJi6.s:4527   .debug_str:00000000000007d7 .LASF131
     /tmp/ccWLvJi6.s:4507   .debug_str:0000000000000729 .LASF132
     /tmp/ccWLvJi6.s:4569   .debug_str:000000000000091e .LASF133
     /tmp/ccWLvJi6.s:4727   .debug_str:0000000000000de0 .LASF134
     /tmp/ccWLvJi6.s:4453   .debug_str:000000000000054e .LASF135
     /tmp/ccWLvJi6.s:4629   .debug_str:0000000000000b0a .LASF136
     /tmp/ccWLvJi6.s:4599   .debug_str:0000000000000a06 .LASF137
     /tmp/ccWLvJi6.s:4601   .debug_str:0000000000000a19 .LASF138
     /tmp/ccWLvJi6.s:4403   .debug_str:00000000000003c5 .LASF139
     /tmp/ccWLvJi6.s:4397   .debug_str:0000000000000396 .LASF140
     /tmp/ccWLvJi6.s:4323   .debug_str:00000000000000a5 .LASF141
     /tmp/ccWLvJi6.s:4451   .debug_str:0000000000000548 .LASF142
     /tmp/ccWLvJi6.s:4391   .debug_str:0000000000000375 .LASF143
GAS LISTING /tmp/ccWLvJi6.s 			page 33


     /tmp/ccWLvJi6.s:4353   .debug_str:0000000000000248 .LASF144
     /tmp/ccWLvJi6.s:4639   .debug_str:0000000000000b35 .LASF145
     /tmp/ccWLvJi6.s:4301   .debug_str:0000000000000000 .LASF146
     /tmp/ccWLvJi6.s:4591   .debug_str:00000000000009cb .LASF147
     /tmp/ccWLvJi6.s:4583   .debug_str:000000000000099f .LASF148
     /tmp/ccWLvJi6.s:4717   .debug_str:0000000000000d98 .LASF149
     /tmp/ccWLvJi6.s:4589   .debug_str:00000000000009c4 .LASF150
     /tmp/ccWLvJi6.s:4361   .debug_str:000000000000029c .LASF151
     /tmp/ccWLvJi6.s:4685   .debug_str:0000000000000ca7 .LASF152
     /tmp/ccWLvJi6.s:4697   .debug_str:0000000000000cf6 .LASF153
     /tmp/ccWLvJi6.s:4677   .debug_str:0000000000000c7a .LASF154
     /tmp/ccWLvJi6.s:4325   .debug_str:00000000000000b7 .LASF155
     /tmp/ccWLvJi6.s:4387   .debug_str:000000000000035f .LASF156
     /tmp/ccWLvJi6.s:4433   .debug_str:00000000000004c6 .LASF157
     /tmp/ccWLvJi6.s:4439   .debug_str:00000000000004e9 .LASF158
     /tmp/ccWLvJi6.s:4679   .debug_str:0000000000000c84 .LASF159
     /tmp/ccWLvJi6.s:4437   .debug_str:00000000000004de .LASF160
     /tmp/ccWLvJi6.s:4443   .debug_str:00000000000004fa .LASF161
     /tmp/ccWLvJi6.s:4661   .debug_str:0000000000000bec .LASF162
     /tmp/ccWLvJi6.s:4427   .debug_str:0000000000000489 .LASF163
     /tmp/ccWLvJi6.s:4553   .debug_str:00000000000008a7 .LASF164
     /tmp/ccWLvJi6.s:4467   .debug_str:00000000000005bf .LASF165
     /tmp/ccWLvJi6.s:4335   .debug_str:0000000000000130 .LASF166
     /tmp/ccWLvJi6.s:4495   .debug_str:00000000000006aa .LASF167
     /tmp/ccWLvJi6.s:4575   .debug_str:0000000000000962 .LASF168
     /tmp/ccWLvJi6.s:4309   .debug_str:000000000000003a .LASF169
     /tmp/ccWLvJi6.s:4721   .debug_str:0000000000000dbd .LASF170
     /tmp/ccWLvJi6.s:4483   .debug_str:0000000000000640 .LASF171
     /tmp/ccWLvJi6.s:4341   .debug_str:000000000000015b .LASF172
     /tmp/ccWLvJi6.s:4509   .debug_str:0000000000000731 .LASF173
     /tmp/ccWLvJi6.s:4431   .debug_str:00000000000004b3 .LASF174
     /tmp/ccWLvJi6.s:4461   .debug_str:000000000000058d .LASF175
     /tmp/ccWLvJi6.s:4359   .debug_str:0000000000000288 .LASF176
     /tmp/ccWLvJi6.s:4637   .debug_str:0000000000000b30 .LASF177
     /tmp/ccWLvJi6.s:4493   .debug_str:00000000000006a5 .LASF178
     /tmp/ccWLvJi6.s:4691   .debug_str:0000000000000cd3 .LASF179
     /tmp/ccWLvJi6.s:4505   .debug_str:0000000000000719 .LASF180
     /tmp/ccWLvJi6.s:4401   .debug_str:00000000000003b3 .LASF181
     /tmp/ccWLvJi6.s:4411   .debug_str:0000000000000404 .LASF182
     /tmp/ccWLvJi6.s:4345   .debug_str:0000000000000177 .LASF183
     /tmp/ccWLvJi6.s:4673   .debug_str:0000000000000c39 .LASF184
     /tmp/ccWLvJi6.s:4581   .debug_str:000000000000098e .LASF185
     /tmp/ccWLvJi6.s:4489   .debug_str:0000000000000682 .LASF186
     /tmp/ccWLvJi6.s:4571   .debug_str:0000000000000932 .LASF187
     /tmp/ccWLvJi6.s:842    .text:0000000000000480 .LFB43
     /tmp/ccWLvJi6.s:947    .text:0000000000000514 .LFE43
     /tmp/ccWLvJi6.s:4473   .debug_str:0000000000000607 .LASF188
     /tmp/ccWLvJi6.s:4007   .debug_loc:0000000000000000 .LLST24
     /tmp/ccWLvJi6.s:4018   .debug_loc:0000000000000036 .LLST25
     /tmp/ccWLvJi6.s:4331   .debug_str:00000000000000fb .LASF189
     /tmp/ccWLvJi6.s:4029   .debug_loc:000000000000006c .LLST26
     /tmp/ccWLvJi6.s:4703   .debug_str:0000000000000d23 .LASF190
     /tmp/ccWLvJi6.s:4040   .debug_loc:00000000000000a2 .LLST27
     /tmp/ccWLvJi6.s:888    .text:00000000000004b8 .LVL69
     /tmp/ccWLvJi6.s:895    .text:00000000000004d8 .LVL70
     /tmp/ccWLvJi6.s:912    .text:00000000000004ec .LVL71
     /tmp/ccWLvJi6.s:776    .text:000000000000043c .LFB42
GAS LISTING /tmp/ccWLvJi6.s 			page 34


     /tmp/ccWLvJi6.s:836    .text:0000000000000480 .LFE42
     /tmp/ccWLvJi6.s:4051   .debug_loc:00000000000000d8 .LLST23
     /tmp/ccWLvJi6.s:801    .text:000000000000045c .LVL63
     /tmp/ccWLvJi6.s:813    .text:0000000000000468 .LVL64
     /tmp/ccWLvJi6.s:660    .text:000000000000039c .LFB41
     /tmp/ccWLvJi6.s:770    .text:000000000000043c .LFE41
     /tmp/ccWLvJi6.s:4062   .debug_loc:000000000000010e .LLST19
     /tmp/ccWLvJi6.s:4073   .debug_loc:0000000000000144 .LLST20
     /tmp/ccWLvJi6.s:4084   .debug_loc:000000000000017a .LLST21
     /tmp/ccWLvJi6.s:4095   .debug_loc:00000000000001b0 .LLST22
     /tmp/ccWLvJi6.s:706    .text:00000000000003d4 .LVL53
     /tmp/ccWLvJi6.s:713    .text:00000000000003f4 .LVL54
     /tmp/ccWLvJi6.s:723    .text:0000000000000408 .LVL55
     /tmp/ccWLvJi6.s:735    .text:0000000000000414 .LVL56
     /tmp/ccWLvJi6.s:589    .text:0000000000000348 .LFB40
     /tmp/ccWLvJi6.s:654    .text:000000000000039c .LFE40
     /tmp/ccWLvJi6.s:4551   .debug_str:00000000000008a2 .LASF191
     /tmp/ccWLvJi6.s:4106   .debug_loc:00000000000001e6 .LLST16
     /tmp/ccWLvJi6.s:617    .text:000000000000036c .LBB22
     /tmp/ccWLvJi6.s:624    .text:0000000000000370 .LBE22
     /tmp/ccWLvJi6.s:4113   .debug_loc:0000000000000209 .LLST17
     /tmp/ccWLvJi6.s:4120   .debug_loc:000000000000022c .LLST18
     /tmp/ccWLvJi6.s:628    .text:0000000000000378 .LVL47
     /tmp/ccWLvJi6.s:632    .text:0000000000000380 .LVL48
     /tmp/ccWLvJi6.s:643    .text:000000000000038c .LVL49
     /tmp/ccWLvJi6.s:555    .text:0000000000000318 .LFB39
     /tmp/ccWLvJi6.s:583    .text:0000000000000348 .LFE39
     /tmp/ccWLvJi6.s:572    .text:0000000000000338 .LVL43
     /tmp/ccWLvJi6.s:491    .text:00000000000002bc .LFB38
     /tmp/ccWLvJi6.s:549    .text:0000000000000318 .LFE38
     /tmp/ccWLvJi6.s:515    .text:00000000000002ec .LBB20
     /tmp/ccWLvJi6.s:523    .text:00000000000002f4 .LBE20
     /tmp/ccWLvJi6.s:4127   .debug_loc:000000000000024f .LLST14
     /tmp/ccWLvJi6.s:4135   .debug_loc:0000000000000273 .LLST15
     /tmp/ccWLvJi6.s:506    .text:00000000000002dc .LVL38
     /tmp/ccWLvJi6.s:527    .text:00000000000002fc .LVL41
     /tmp/ccWLvJi6.s:538    .text:0000000000000308 .LVL42
     /tmp/ccWLvJi6.s:455    .text:0000000000000298 .LFB37
     /tmp/ccWLvJi6.s:480    .text:00000000000002bc .LFE37
     /tmp/ccWLvJi6.s:4385   .debug_str:000000000000035a .LASF194
     /tmp/ccWLvJi6.s:4142   .debug_loc:0000000000000296 .LLST13
     /tmp/ccWLvJi6.s:351    .text:00000000000001c0 .LFB36
     /tmp/ccWLvJi6.s:449    .text:0000000000000298 .LFE36
     /tmp/ccWLvJi6.s:4683   .debug_str:0000000000000c9c .LASF192
     /tmp/ccWLvJi6.s:4156   .debug_loc:00000000000002cf .LLST9
     /tmp/ccWLvJi6.s:4567   .debug_str:0000000000000913 .LASF193
     /tmp/ccWLvJi6.s:4163   .debug_loc:00000000000002f2 .LLST10
     /tmp/ccWLvJi6.s:397    .text:0000000000000228 .LBB18
     /tmp/ccWLvJi6.s:405    .text:0000000000000230 .LBE18
     /tmp/ccWLvJi6.s:4170   .debug_loc:0000000000000315 .LLST11
     /tmp/ccWLvJi6.s:4178   .debug_loc:0000000000000339 .LLST12
     /tmp/ccWLvJi6.s:372    .text:00000000000001e8 .LVL24
     /tmp/ccWLvJi6.s:379    .text:0000000000000204 .LVL25
     /tmp/ccWLvJi6.s:384    .text:0000000000000210 .LVL26
     /tmp/ccWLvJi6.s:392    .text:0000000000000220 .LVL27
     /tmp/ccWLvJi6.s:410    .text:000000000000023c .LVL30
     /tmp/ccWLvJi6.s:415    .text:000000000000024c .LVL31
GAS LISTING /tmp/ccWLvJi6.s 			page 35


     /tmp/ccWLvJi6.s:423    .text:000000000000026c .LVL33
     /tmp/ccWLvJi6.s:431    .text:000000000000027c .LVL34
     /tmp/ccWLvJi6.s:4313   .debug_str:0000000000000057 .LASF195
     /tmp/ccWLvJi6.s:4383   .debug_str:000000000000034e .LASF198
     /tmp/ccWLvJi6.s:303    .text:0000000000000194 .LFB34
     /tmp/ccWLvJi6.s:335    .text:00000000000001c0 .LFE34
     /tmp/ccWLvJi6.s:4185   .debug_loc:000000000000035c .LLST8
     /tmp/ccWLvJi6.s:323    .text:00000000000001b0 .LVL23
     /tmp/ccWLvJi6.s:271    .text:000000000000016c .LFB32
     /tmp/ccWLvJi6.s:297    .text:0000000000000194 .LFE32
     /tmp/ccWLvJi6.s:4199   .debug_loc:0000000000000395 .LLST7
     /tmp/ccWLvJi6.s:286    .text:0000000000000184 .LVL20
     /tmp/ccWLvJi6.s:239    .text:0000000000000144 .LFB31
     /tmp/ccWLvJi6.s:265    .text:000000000000016c .LFE31
     /tmp/ccWLvJi6.s:4379   .debug_str:0000000000000333 .LASF196
     /tmp/ccWLvJi6.s:4213   .debug_loc:00000000000003ce .LLST6
     /tmp/ccWLvJi6.s:254    .text:000000000000015c .LVL18
     /tmp/ccWLvJi6.s:156    .text:00000000000000d0 .LFB30
     /tmp/ccWLvJi6.s:233    .text:0000000000000144 .LFE30
     /tmp/ccWLvJi6.s:4227   .debug_loc:0000000000000407 .LLST2
     /tmp/ccWLvJi6.s:174    .text:00000000000000ec .LBB13
     /tmp/ccWLvJi6.s:182    .text:00000000000000f0 .LBE13
     /tmp/ccWLvJi6.s:4238   .debug_loc:000000000000043d .LLST3
     /tmp/ccWLvJi6.s:195    .text:0000000000000108 .LBB15
     /tmp/ccWLvJi6.s:203    .text:0000000000000110 .LBE15
     /tmp/ccWLvJi6.s:4245   .debug_loc:0000000000000460 .LLST4
     /tmp/ccWLvJi6.s:4253   .debug_loc:0000000000000484 .LLST5
     /tmp/ccWLvJi6.s:190    .text:0000000000000100 .LVL10
     /tmp/ccWLvJi6.s:209    .text:0000000000000120 .LVL13
     /tmp/ccWLvJi6.s:230    .text:0000000000000140 .LVL16
     /tmp/ccWLvJi6.s:10     .text:0000000000000000 .LFB29
     /tmp/ccWLvJi6.s:48     .text:0000000000000044 .LFE29
     /tmp/ccWLvJi6.s:25     .text:0000000000000018 .LVL0
     /tmp/ccWLvJi6.s:37     .text:0000000000000034 .LVL2
     /tmp/ccWLvJi6.s:124    .text:00000000000000a8 .LFB28
     /tmp/ccWLvJi6.s:150    .text:00000000000000d0 .LFE28
     /tmp/ccWLvJi6.s:4260   .debug_loc:00000000000004a7 .LLST1
     /tmp/ccWLvJi6.s:139    .text:00000000000000c0 .LVL7
     /tmp/ccWLvJi6.s:100    .text:0000000000000090 .LFB27
     /tmp/ccWLvJi6.s:118    .text:00000000000000a8 .LFE27
     /tmp/ccWLvJi6.s:4497   .debug_str:00000000000006c7 .LASF197
     /tmp/ccWLvJi6.s:4531   .debug_str:0000000000000800 .LASF199
     /tmp/ccWLvJi6.s:54     .text:0000000000000044 .LFB25
     /tmp/ccWLvJi6.s:92     .text:0000000000000090 .LFE25
     /tmp/ccWLvJi6.s:4274   .debug_loc:00000000000004e0 .LLST0
     /tmp/ccWLvJi6.s:4587   .debug_str:00000000000009b8 .LASF200
     /tmp/ccWLvJi6.s:4415   .debug_str:000000000000043a .LASF202
     /tmp/ccWLvJi6.s:4723   .debug_str:0000000000000dcc .LASF201
     /tmp/ccWLvJi6.s:4419   .debug_str:0000000000000452 .LASF203
     /tmp/ccWLvJi6.s:4459   .debug_str:0000000000000581 .LASF204
     /tmp/ccWLvJi6.s:876    .text:00000000000004a8 .LVL67
     /tmp/ccWLvJi6.s:928    .text:0000000000000500 .LVL74
     /tmp/ccWLvJi6.s:935    .text:000000000000050c .LVL76
     /tmp/ccWLvJi6.s:882    .text:00000000000004ac .LVL68
     /tmp/ccWLvJi6.s:931    .text:0000000000000504 .LVL75
     /tmp/ccWLvJi6.s:870    .text:00000000000004a4 .LVL66
     /tmp/ccWLvJi6.s:925    .text:00000000000004fc .LVL73
GAS LISTING /tmp/ccWLvJi6.s 			page 36


     /tmp/ccWLvJi6.s:922    .text:00000000000004f8 .LVL72
     /tmp/ccWLvJi6.s:794    .text:0000000000000450 .LVL62
     /tmp/ccWLvJi6.s:824    .text:0000000000000478 .LVL65
     /tmp/ccWLvJi6.s:694    .text:00000000000003c4 .LVL51
     /tmp/ccWLvJi6.s:751    .text:0000000000000428 .LVL59
     /tmp/ccWLvJi6.s:758    .text:0000000000000434 .LVL61
     /tmp/ccWLvJi6.s:700    .text:00000000000003c8 .LVL52
     /tmp/ccWLvJi6.s:754    .text:000000000000042c .LVL60
     /tmp/ccWLvJi6.s:688    .text:00000000000003c0 .LVL50
     /tmp/ccWLvJi6.s:748    .text:0000000000000424 .LVL58
     /tmp/ccWLvJi6.s:745    .text:0000000000000420 .LVL57
     /tmp/ccWLvJi6.s:607    .text:000000000000035c .LVL44
     /tmp/ccWLvJi6.s:616    .text:000000000000036c .LVL45
     /tmp/ccWLvJi6.s:622    .text:0000000000000370 .LVL46
     /tmp/ccWLvJi6.s:514    .text:00000000000002ec .LVL39
     /tmp/ccWLvJi6.s:521    .text:00000000000002f4 .LVL40
     /tmp/ccWLvJi6.s:458    .text:0000000000000298 .LVL36
     /tmp/ccWLvJi6.s:468    .text:00000000000002a8 .LVL37
     /tmp/ccWLvJi6.s:417    .text:0000000000000250 .LVL32
     /tmp/ccWLvJi6.s:440    .text:0000000000000288 .LVL35
     /tmp/ccWLvJi6.s:396    .text:0000000000000228 .LVL28
     /tmp/ccWLvJi6.s:403    .text:0000000000000230 .LVL29
     /tmp/ccWLvJi6.s:308    .text:0000000000000194 .LVL21
     /tmp/ccWLvJi6.s:321    .text:00000000000001a8 .LVL22
     /tmp/ccWLvJi6.s:274    .text:000000000000016c .LVL19
     /tmp/ccWLvJi6.s:242    .text:0000000000000144 .LVL17
     /tmp/ccWLvJi6.s:172    .text:00000000000000ec .LVL8
     /tmp/ccWLvJi6.s:219    .text:000000000000012c .LVL14
     /tmp/ccWLvJi6.s:223    .text:0000000000000134 .LVL15
     /tmp/ccWLvJi6.s:180    .text:00000000000000f0 .LVL9
     /tmp/ccWLvJi6.s:194    .text:0000000000000108 .LVL11
     /tmp/ccWLvJi6.s:201    .text:0000000000000110 .LVL12
     /tmp/ccWLvJi6.s:127    .text:00000000000000a8 .LVL6
     /tmp/ccWLvJi6.s:57     .text:0000000000000044 .LVL3
     /tmp/ccWLvJi6.s:75     .text:0000000000000070 .LVL4
     /tmp/ccWLvJi6.s:976    .debug_info:0000000000000000 .Ldebug_info0
     /tmp/ccWLvJi6.s:338    .gcc_except_table:0000000000000000 .LLSDA34

UNDEFINED SYMBOLS
_ZN5Riscv10popSppSpieEv
thread_exit
_ZN9Scheduler3putEP3PCB
_ZN9Scheduler3getEv
_ZN3PCB13contextSwitchEPNS_7ContextES1_
_Z7kmallocm
_Z5kfreePv
__gxx_personality_v0
_ZN8KConsole23sendCharactersToConsoleEPv
_ZN5Riscv11printStringEPKc
_ZN5Riscv13w_a0_sscratchEv
_ZN12SleepPCBList17insertSleepingPCBEv
