GAS LISTING /tmp/ccZekBj8.s 			page 1


   1              		.file	"PCB.cpp"
   2              		.option pic
   3              		.option norelax
   4              		.text
   5              	.Ltext0:
   6              		.section	.rodata.str1.8,"aMS",@progbits,1
   7              		.align	3
   8              	.LC0:
   9 0000 52756E6E 		.string	"Runner started...\n"
   9      65722073 
   9      74617274 
   9      65642E2E 
   9      2E0A00
  10              		.text
  11              		.align	2
  12              		.globl	_ZN3PCB6runnerEv
  14              	_ZN3PCB6runnerEv:
  15              	.LFB26:
  16              		.file 1 "src/PCB.cpp"
   1:src/PCB.cpp   **** //
   2:src/PCB.cpp   **** // Created by os on 4/27/22.
   3:src/PCB.cpp   **** //
   4:src/PCB.cpp   **** 
   5:src/PCB.cpp   **** #include "../h/PCB.hpp"
   6:src/PCB.cpp   **** #include "../h/syscall_c.h"
   7:src/PCB.cpp   **** 
   8:src/PCB.cpp   **** PCB* PCB::running = 0;
   9:src/PCB.cpp   **** PCB* PCB::exitingPCB = 0;
  10:src/PCB.cpp   **** uint64 PCB::timeSliceCounter = 0;
  11:src/PCB.cpp   **** 
  12:src/PCB.cpp   **** PCB::PCB(Body body, void *args, void* stack_space, uint64 timeSlice) :
  13:src/PCB.cpp   ****     timeSlice(timeSlice),
  14:src/PCB.cpp   ****     body(body),
  15:src/PCB.cpp   ****     args(args),
  16:src/PCB.cpp   ****     beginSP(stack_space),
  17:src/PCB.cpp   ****     context({
  18:src/PCB.cpp   ****         (uint64)((char*)stack_space + DEFAULT_STACK_SIZE),
  19:src/PCB.cpp   ****         (uint64)&PCB::runner
  20:src/PCB.cpp   ****     })
  21:src/PCB.cpp   **** {
  22:src/PCB.cpp   ****     Scheduler::put(this);
  23:src/PCB.cpp   ****     nextPCB = 0;
  24:src/PCB.cpp   **** }
  25:src/PCB.cpp   **** 
  26:src/PCB.cpp   **** void PCB::sleep(time_t time)
  27:src/PCB.cpp   **** {
  28:src/PCB.cpp   ****     //todo
  29:src/PCB.cpp   **** }
  30:src/PCB.cpp   **** 
  31:src/PCB.cpp   **** void PCB::start()
  32:src/PCB.cpp   **** {
  33:src/PCB.cpp   ****     Scheduler::put(this);
  34:src/PCB.cpp   **** }
  35:src/PCB.cpp   **** 
  36:src/PCB.cpp   **** void PCB::runner()
  37:src/PCB.cpp   **** {
  17              		.loc 1 37 1
GAS LISTING /tmp/ccZekBj8.s 			page 2


  18              		.cfi_startproc
  19 0000 130101FF 		addi	sp,sp,-16
  20              		.cfi_def_cfa_offset 16
  21 0004 23341100 		sd	ra,8(sp)
  22 0008 23308100 		sd	s0,0(sp)
  23              		.cfi_offset 1, -8
  24              		.cfi_offset 8, -16
  25 000c 13040101 		addi	s0,sp,16
  26              		.cfi_def_cfa 8, 0
  38:src/PCB.cpp   ****     Riscv::printString("Runner started...\n");
  27              		.loc 1 38 5
  28              		.loc 1 38 23 is_stmt 0
  29 0010 17050000 		lla	a0,.LC0
  29      13050500 
  30 0018 97000000 		call	_ZN5Riscv11printStringEPKc@plt
  30      E7800000 
  31              	.LVL0:
  39:src/PCB.cpp   ****     Riscv::popSppSpie();
  32              		.loc 1 39 5 is_stmt 1
  33              		.loc 1 39 22 is_stmt 0
  34 0020 97000000 		call	_ZN5Riscv10popSppSpieEv@plt
  34      E7800000 
  35              	.LVL1:
  40:src/PCB.cpp   **** 
  41:src/PCB.cpp   ****     running->body(running->args);
  36              		.loc 1 41 5 is_stmt 1
  37              		.loc 1 41 14 is_stmt 0
  38 0028 97070000 		ld	a5,.LANCHOR0
  38      83B70700 
  39 0030 03B70702 		ld	a4,32(a5)
  40              		.loc 1 41 18
  41 0034 03B58702 		ld	a0,40(a5)
  42 0038 E7000700 		jalr	a4
  43              	.LVL2:
  42:src/PCB.cpp   **** 
  43:src/PCB.cpp   ****     //Riscv::printString("PCB finished\n");
  44:src/PCB.cpp   **** 
  45:src/PCB.cpp   ****     thread_exit();
  44              		.loc 1 45 5 is_stmt 1
  45              		.loc 1 45 16 is_stmt 0
  46 003c 97000000 		call	thread_exit@plt
  46      E7800000 
  47              	.LVL3:
  46:src/PCB.cpp   **** }
  48              		.loc 1 46 1
  49 0044 83308100 		ld	ra,8(sp)
  50              		.cfi_restore 1
  51 0048 03340100 		ld	s0,0(sp)
  52              		.cfi_restore 8
  53              		.cfi_def_cfa 2, 16
  54 004c 13010101 		addi	sp,sp,16
  55              		.cfi_def_cfa_offset 0
  56 0050 67800000 		jr	ra
  57              		.cfi_endproc
  58              	.LFE26:
  60              		.align	2
  61              		.globl	_ZN3PCBC2EPFvPvES0_S0_m
GAS LISTING /tmp/ccZekBj8.s 			page 3


  63              	_ZN3PCBC2EPFvPvES0_S0_m:
  64              	.LFB22:
  12:src/PCB.cpp   ****     timeSlice(timeSlice),
  65              		.loc 1 12 1 is_stmt 1
  66              		.cfi_startproc
  67              	.LVL4:
  68 0054 130101FE 		addi	sp,sp,-32
  69              		.cfi_def_cfa_offset 32
  70 0058 233C1100 		sd	ra,24(sp)
  71 005c 23388100 		sd	s0,16(sp)
  72 0060 23349100 		sd	s1,8(sp)
  73              		.cfi_offset 1, -8
  74              		.cfi_offset 8, -16
  75              		.cfi_offset 9, -24
  76 0064 13040102 		addi	s0,sp,32
  77              		.cfi_def_cfa 8, 0
  78 0068 93040500 		mv	s1,a0
  79              	.LBB12:
  20:src/PCB.cpp   **** {
  80              		.loc 1 20 6 is_stmt 0
  81 006c 23000500 		sb	zero,0(a0)
  82 0070 2338E500 		sd	a4,16(a0)
  83 0074 233C0500 		sd	zero,24(a0)
  84 0078 2330B502 		sd	a1,32(a0)
  85 007c 2334C502 		sd	a2,40(a0)
  86 0080 2338D502 		sd	a3,48(a0)
  18:src/PCB.cpp   ****         (uint64)&PCB::runner
  87              		.loc 1 18 37
  88 0084 B7170000 		li	a5,4096
  89 0088 B386F600 		add	a3,a3,a5
  90              	.LVL5:
  20:src/PCB.cpp   **** {
  91              		.loc 1 20 6
  92 008c 2330D504 		sd	a3,64(a0)
  93 0090 97070000 		lla	a5,_ZN3PCB6runnerEv
  93      93870700 
  94 0098 2334F504 		sd	a5,72(a0)
  22:src/PCB.cpp   ****     nextPCB = 0;
  95              		.loc 1 22 5 is_stmt 1
  22:src/PCB.cpp   ****     nextPCB = 0;
  96              		.loc 1 22 19 is_stmt 0
  97 009c 97000000 		call	_ZN9Scheduler3putEP3PCB@plt
  97      E7800000 
  98              	.LVL6:
  23:src/PCB.cpp   **** }
  99              		.loc 1 23 5 is_stmt 1
  23:src/PCB.cpp   **** }
 100              		.loc 1 23 13 is_stmt 0
 101 00a4 23B40400 		sd	zero,8(s1)
 102              	.LBE12:
  24:src/PCB.cpp   **** 
 103              		.loc 1 24 1
 104 00a8 83308101 		ld	ra,24(sp)
 105              		.cfi_restore 1
 106 00ac 03340101 		ld	s0,16(sp)
 107              		.cfi_restore 8
 108              		.cfi_def_cfa 2, 32
GAS LISTING /tmp/ccZekBj8.s 			page 4


 109 00b0 83348100 		ld	s1,8(sp)
 110              		.cfi_restore 9
 111              	.LVL7:
 112 00b4 13010102 		addi	sp,sp,32
 113              		.cfi_def_cfa_offset 0
 114 00b8 67800000 		jr	ra
 115              		.cfi_endproc
 116              	.LFE22:
 118              		.globl	_ZN3PCBC1EPFvPvES0_S0_m
 119              		.set	_ZN3PCBC1EPFvPvES0_S0_m,_ZN3PCBC2EPFvPvES0_S0_m
 120              		.align	2
 121              		.globl	_ZN3PCB5sleepEm
 123              	_ZN3PCB5sleepEm:
 124              	.LFB24:
  27:src/PCB.cpp   ****     //todo
 125              		.loc 1 27 1 is_stmt 1
 126              		.cfi_startproc
 127              	.LVL8:
 128 00bc 130101FF 		addi	sp,sp,-16
 129              		.cfi_def_cfa_offset 16
 130 00c0 23348100 		sd	s0,8(sp)
 131              		.cfi_offset 8, -8
 132 00c4 13040101 		addi	s0,sp,16
 133              		.cfi_def_cfa 8, 0
  29:src/PCB.cpp   **** 
 134              		.loc 1 29 1 is_stmt 0
 135 00c8 03348100 		ld	s0,8(sp)
 136              		.cfi_restore 8
 137              		.cfi_def_cfa 2, 16
 138 00cc 13010101 		addi	sp,sp,16
 139              		.cfi_def_cfa_offset 0
 140 00d0 67800000 		jr	ra
 141              		.cfi_endproc
 142              	.LFE24:
 144              		.align	2
 145              		.globl	_ZN3PCB5startEv
 147              	_ZN3PCB5startEv:
 148              	.LFB25:
  32:src/PCB.cpp   ****     Scheduler::put(this);
 149              		.loc 1 32 1 is_stmt 1
 150              		.cfi_startproc
 151              	.LVL9:
 152 00d4 130101FF 		addi	sp,sp,-16
 153              		.cfi_def_cfa_offset 16
 154 00d8 23341100 		sd	ra,8(sp)
 155 00dc 23308100 		sd	s0,0(sp)
 156              		.cfi_offset 1, -8
 157              		.cfi_offset 8, -16
 158 00e0 13040101 		addi	s0,sp,16
 159              		.cfi_def_cfa 8, 0
  33:src/PCB.cpp   **** }
 160              		.loc 1 33 5
  33:src/PCB.cpp   **** }
 161              		.loc 1 33 19 is_stmt 0
 162 00e4 97000000 		call	_ZN9Scheduler3putEP3PCB@plt
 162      E7800000 
 163              	.LVL10:
GAS LISTING /tmp/ccZekBj8.s 			page 5


  34:src/PCB.cpp   **** 
 164              		.loc 1 34 1
 165 00ec 83308100 		ld	ra,8(sp)
 166              		.cfi_restore 1
 167 00f0 03340100 		ld	s0,0(sp)
 168              		.cfi_restore 8
 169              		.cfi_def_cfa 2, 16
 170 00f4 13010101 		addi	sp,sp,16
 171              		.cfi_def_cfa_offset 0
 172 00f8 67800000 		jr	ra
 173              		.cfi_endproc
 174              	.LFE25:
 176              		.align	2
 177              		.globl	_ZN3PCB8dispatchEv
 179              	_ZN3PCB8dispatchEv:
 180              	.LFB27:
  47:src/PCB.cpp   **** 
  48:src/PCB.cpp   **** void PCB::dispatch()
  49:src/PCB.cpp   **** {
 181              		.loc 1 49 1 is_stmt 1
 182              		.cfi_startproc
 183 00fc 130101FE 		addi	sp,sp,-32
 184              		.cfi_def_cfa_offset 32
 185 0100 233C1100 		sd	ra,24(sp)
 186 0104 23388100 		sd	s0,16(sp)
 187 0108 23349100 		sd	s1,8(sp)
 188              		.cfi_offset 1, -8
 189              		.cfi_offset 8, -16
 190              		.cfi_offset 9, -24
 191 010c 13040102 		addi	s0,sp,32
 192              		.cfi_def_cfa 8, 0
  50:src/PCB.cpp   ****     //Riscv::printString("Dispatch called...\n");
  51:src/PCB.cpp   ****     PCB* old = running;
 193              		.loc 1 51 5
 194              		.loc 1 51 10 is_stmt 0
 195 0110 97040000 		ld	s1,.LANCHOR0
 195      83B40400 
 196              	.LVL11:
  52:src/PCB.cpp   ****     if(old->getState() == PCB::RUNNING)
 197              		.loc 1 52 5 is_stmt 1
 198              	.LBB13:
 199              	.LBB14:
 200              		.file 2 "src/../h/PCB.hpp"
   1:src/../h/PCB.hpp **** //
   2:src/../h/PCB.hpp **** // Created by os on 4/27/22.
   3:src/../h/PCB.hpp **** //
   4:src/../h/PCB.hpp **** 
   5:src/../h/PCB.hpp **** #ifndef PROJECT_BASE_V1_0_PCB_HPP
   6:src/../h/PCB.hpp **** #define PROJECT_BASE_V1_0_PCB_HPP
   7:src/../h/PCB.hpp **** 
   8:src/../h/PCB.hpp **** #include "../lib/hw.h"
   9:src/../h/PCB.hpp **** #include "Scheduler.hpp"
  10:src/../h/PCB.hpp **** #include "Riscv.hpp"
  11:src/../h/PCB.hpp **** 
  12:src/../h/PCB.hpp **** class PCB
  13:src/../h/PCB.hpp **** {
  14:src/../h/PCB.hpp **** public:
GAS LISTING /tmp/ccZekBj8.s 			page 6


  15:src/../h/PCB.hpp ****     using Body = void (*)(void*);
  16:src/../h/PCB.hpp **** 
  17:src/../h/PCB.hpp ****     PCB(Body body,  void* args, void* stack_space, uint64 timeSlice);
  18:src/../h/PCB.hpp ****     ~PCB();
  19:src/../h/PCB.hpp **** 
  20:src/../h/PCB.hpp ****     void start();
  21:src/../h/PCB.hpp ****     static void dispatch();
  22:src/../h/PCB.hpp ****     static void sleep(time_t);
  23:src/../h/PCB.hpp **** 
  24:src/../h/PCB.hpp ****     static PCB* running;
  25:src/../h/PCB.hpp ****     static PCB* exitingPCB;
  26:src/../h/PCB.hpp **** 
  27:src/../h/PCB.hpp ****     static uint64 timeSliceCounter;
  28:src/../h/PCB.hpp ****     uint64 getTimeSlice() { return timeSlice;}
  29:src/../h/PCB.hpp **** 
  30:src/../h/PCB.hpp ****     void* operator new(size_t size);
  31:src/../h/PCB.hpp ****     void operator delete(void *p);
  32:src/../h/PCB.hpp **** 
  33:src/../h/PCB.hpp ****     enum State{READY, RUNNING, SUSPENDED, FINISHED, EXITING, SLEEPING};
  34:src/../h/PCB.hpp ****     State getState() {return state;}
 201              		.loc 2 34 23
 202              		.loc 2 34 30 is_stmt 0
 203 0118 03A78403 		lw	a4,56(s1)
 204              	.LVL12:
 205              	.LBE14:
 206              	.LBE13:
 207              		.loc 1 52 5
 208 011c 93071000 		li	a5,1
 209 0120 6308F704 		beq	a4,a5,.L14
 210              	.L10:
  53:src/PCB.cpp   ****         Scheduler::put(old);
  54:src/PCB.cpp   ****     PCB::running = Scheduler::get();
 211              		.loc 1 54 5 is_stmt 1
 212              		.loc 1 54 34 is_stmt 0
 213 0124 97000000 		call	_ZN9Scheduler3getEv@plt
 213      E7800000 
 214              	.LVL13:
 215              		.loc 1 54 18
 216 012c 97070000 		sd	a0,.LANCHOR0,a5
 216      23B0A700 
  55:src/PCB.cpp   ****     PCB::running->setState(PCB::RUNNING);
 217              		.loc 1 55 5 is_stmt 1
 218              	.LVL14:
 219              	.LBB15:
 220              	.LBB16:
  35:src/../h/PCB.hpp ****     void setState(State s) {state = s;}
 221              		.loc 2 35 29
 222              		.loc 2 35 35 is_stmt 0
 223 0134 93071000 		li	a5,1
 224 0138 232CF502 		sw	a5,56(a0)
 225              	.LVL15:
 226              	.LBE16:
 227              	.LBE15:
  56:src/PCB.cpp   ****     //Riscv::printString("Switching context...\n");
  57:src/PCB.cpp   **** 
  58:src/PCB.cpp   ****     if(PCB::running->systemThread)
 228              		.loc 1 58 5 is_stmt 1
GAS LISTING /tmp/ccZekBj8.s 			page 7


 229              		.loc 1 58 22 is_stmt 0
 230 013c 83470500 		lbu	a5,0(a0)
 231              		.loc 1 58 5
 232 0140 63800704 		beqz	a5,.L11
  59:src/PCB.cpp   ****         Riscv::ms_sstatus(Riscv::SSTATUS_SPP);
 233              		.loc 1 59 9 is_stmt 1
 234              	.LVL16:
 235              	.LBB17:
 236              	.LBB18:
 237              		.file 3 "src/../h/Riscv.hpp"
   1:src/../h/Riscv.hpp **** //
   2:src/../h/Riscv.hpp **** // Created by os on 4/27/22.
   3:src/../h/Riscv.hpp **** //
   4:src/../h/Riscv.hpp **** 
   5:src/../h/Riscv.hpp **** #ifndef PROJECT_BASE_V1_0_RISCV_HPP
   6:src/../h/Riscv.hpp **** #define PROJECT_BASE_V1_0_RISCV_HPP
   7:src/../h/Riscv.hpp **** 
   8:src/../h/Riscv.hpp **** #include "../lib/hw.h"
   9:src/../h/Riscv.hpp **** 
  10:src/../h/Riscv.hpp **** class Riscv
  11:src/../h/Riscv.hpp **** {
  12:src/../h/Riscv.hpp **** private:
  13:src/../h/Riscv.hpp **** 
  14:src/../h/Riscv.hpp **** public:
  15:src/../h/Riscv.hpp ****     static void kernelMain();
  16:src/../h/Riscv.hpp **** 
  17:src/../h/Riscv.hpp ****     static void initSystem();
  18:src/../h/Riscv.hpp ****     static void endSystem();
  19:src/../h/Riscv.hpp **** 
  20:src/../h/Riscv.hpp ****     static void userMainWrapper(void* p);
  21:src/../h/Riscv.hpp **** 
  22:src/../h/Riscv.hpp ****     static void enableInterrupts();
  23:src/../h/Riscv.hpp **** 
  24:src/../h/Riscv.hpp ****     static void disableInterrupts();
  25:src/../h/Riscv.hpp **** 
  26:src/../h/Riscv.hpp ****     static void printString(char const *string);
  27:src/../h/Riscv.hpp **** 
  28:src/../h/Riscv.hpp ****     static void printInteger(uint64 num);
  29:src/../h/Riscv.hpp **** 
  30:src/../h/Riscv.hpp ****     static void pushRegisters();
  31:src/../h/Riscv.hpp ****     static void popRegisters();
  32:src/../h/Riscv.hpp **** 
  33:src/../h/Riscv.hpp ****     static uint64 r_scause();
  34:src/../h/Riscv.hpp ****     static void w_scause(uint64 scause);
  35:src/../h/Riscv.hpp **** 
  36:src/../h/Riscv.hpp ****     static uint64 r_sepc();
  37:src/../h/Riscv.hpp ****     static void w_sepc(uint64 sepc);
  38:src/../h/Riscv.hpp **** 
  39:src/../h/Riscv.hpp ****     static uint64 r_stvec();
  40:src/../h/Riscv.hpp ****     static void w_stvec(uint64 stvec);
  41:src/../h/Riscv.hpp **** 
  42:src/../h/Riscv.hpp ****     static uint64 r_stval();
  43:src/../h/Riscv.hpp ****     static void w_stval(uint64 stval);
  44:src/../h/Riscv.hpp **** 
  45:src/../h/Riscv.hpp ****     enum BitMaskSip
  46:src/../h/Riscv.hpp ****     {
  47:src/../h/Riscv.hpp ****         SIP_SSIP = (1 << 1),
GAS LISTING /tmp/ccZekBj8.s 			page 8


  48:src/../h/Riscv.hpp ****         SIP_STIP = (1 << 5),
  49:src/../h/Riscv.hpp ****         SIP_SEIP = (1 << 9),
  50:src/../h/Riscv.hpp ****     };
  51:src/../h/Riscv.hpp **** 
  52:src/../h/Riscv.hpp ****     static void ms_sip(uint64 mask);
  53:src/../h/Riscv.hpp **** 
  54:src/../h/Riscv.hpp ****     static void mc_sip(uint64 mask);
  55:src/../h/Riscv.hpp **** 
  56:src/../h/Riscv.hpp ****     static uint64 r_sip();
  57:src/../h/Riscv.hpp **** 
  58:src/../h/Riscv.hpp ****     static void w_sip(uint64 sip);
  59:src/../h/Riscv.hpp **** 
  60:src/../h/Riscv.hpp ****     enum BitMaskSstatus
  61:src/../h/Riscv.hpp ****     {
  62:src/../h/Riscv.hpp ****         SSTATUS_SIE = (1 << 1),
  63:src/../h/Riscv.hpp ****         SSTATUS_SPIE = (1 << 5),
  64:src/../h/Riscv.hpp ****         SSTATUS_SPP = (1 << 8),
  65:src/../h/Riscv.hpp ****     };
  66:src/../h/Riscv.hpp **** 
  67:src/../h/Riscv.hpp ****     static void ms_sstatus(uint64 mask);
  68:src/../h/Riscv.hpp **** 
  69:src/../h/Riscv.hpp ****     static void mc_sstatus(uint64 mask);
  70:src/../h/Riscv.hpp **** 
  71:src/../h/Riscv.hpp ****     static uint64 r_sstatus();
  72:src/../h/Riscv.hpp **** 
  73:src/../h/Riscv.hpp ****     static void w_sstatus(uint64 sstatus);
  74:src/../h/Riscv.hpp **** 
  75:src/../h/Riscv.hpp ****     static void popSppSpie();
  76:src/../h/Riscv.hpp **** 
  77:src/../h/Riscv.hpp ****     static void supervisorTrap();
  78:src/../h/Riscv.hpp ****     static void handleSupervisorTrap();
  79:src/../h/Riscv.hpp **** 
  80:src/../h/Riscv.hpp ****     static const uint64 bntOne = 1UL << 63;;
  81:src/../h/Riscv.hpp ****     static const uint64 bntZero = 0UL;
  82:src/../h/Riscv.hpp ****     static const uint64 timerInterrupt = bntOne + 1UL;
  83:src/../h/Riscv.hpp ****     static const uint64 hwInterrupt = bntOne + 9UL;
  84:src/../h/Riscv.hpp ****     static const uint64 operationInterrupt = bntZero + 2UL;
  85:src/../h/Riscv.hpp ****     static const uint64 addrReadInterrupt = bntZero + 5UL;
  86:src/../h/Riscv.hpp ****     static const uint64 addrWriteInterrupt = bntZero + 7UL;
  87:src/../h/Riscv.hpp ****     static const uint64 ecallUserInterrupt = bntZero + 8UL;
  88:src/../h/Riscv.hpp ****     static const uint64 ecallSystemInterupt = bntZero + 9UL;
  89:src/../h/Riscv.hpp **** };
  90:src/../h/Riscv.hpp **** 
  91:src/../h/Riscv.hpp **** inline uint64 Riscv::r_scause() {
  92:src/../h/Riscv.hpp ****     uint64 volatile scause;
  93:src/../h/Riscv.hpp ****     __asm__ volatile("csrr %0, scause" : "=r"(scause));
  94:src/../h/Riscv.hpp ****     return scause;
  95:src/../h/Riscv.hpp **** }
  96:src/../h/Riscv.hpp **** 
  97:src/../h/Riscv.hpp **** inline void Riscv::w_scause(uint64 scause) {
  98:src/../h/Riscv.hpp ****     __asm__ volatile("csrw scause, %0" : :"r"(scause));
  99:src/../h/Riscv.hpp **** }
 100:src/../h/Riscv.hpp **** 
 101:src/../h/Riscv.hpp **** inline uint64 Riscv::r_sepc() {
 102:src/../h/Riscv.hpp ****     uint64 volatile sepc;
 103:src/../h/Riscv.hpp ****     __asm__ volatile("csrr %0, sepc" : "=r"(sepc));
 104:src/../h/Riscv.hpp ****     return sepc;
GAS LISTING /tmp/ccZekBj8.s 			page 9


 105:src/../h/Riscv.hpp **** }
 106:src/../h/Riscv.hpp **** 
 107:src/../h/Riscv.hpp **** inline void Riscv::w_sepc(uint64 sepc) {
 108:src/../h/Riscv.hpp ****     __asm__ volatile("csrw sepc, %0" : :"r"(sepc));
 109:src/../h/Riscv.hpp **** }
 110:src/../h/Riscv.hpp **** 
 111:src/../h/Riscv.hpp **** inline uint64 Riscv::r_stvec() {
 112:src/../h/Riscv.hpp ****     uint64 volatile stvec;
 113:src/../h/Riscv.hpp ****     __asm__ volatile("csrr %0, stvec" : "=r"(stvec));
 114:src/../h/Riscv.hpp ****     return stvec;
 115:src/../h/Riscv.hpp **** }
 116:src/../h/Riscv.hpp **** 
 117:src/../h/Riscv.hpp **** inline void Riscv::w_stvec(uint64 stvec) {
 118:src/../h/Riscv.hpp ****     __asm__ volatile("csrw stvec, %0" : :"r"(stvec));
 119:src/../h/Riscv.hpp **** }
 120:src/../h/Riscv.hpp **** 
 121:src/../h/Riscv.hpp **** inline uint64 Riscv::r_stval() {
 122:src/../h/Riscv.hpp ****     uint64 volatile stval;
 123:src/../h/Riscv.hpp ****     __asm__ volatile("csrr %0, stval" : "=r"(stval));
 124:src/../h/Riscv.hpp ****     return stval;
 125:src/../h/Riscv.hpp **** }
 126:src/../h/Riscv.hpp **** 
 127:src/../h/Riscv.hpp **** inline void Riscv::w_stval(uint64 stval) {
 128:src/../h/Riscv.hpp ****     __asm__ volatile("csrw stval, %0" : :"r"(stval));
 129:src/../h/Riscv.hpp **** }
 130:src/../h/Riscv.hpp **** 
 131:src/../h/Riscv.hpp **** inline void Riscv::ms_sip(uint64 mask) {
 132:src/../h/Riscv.hpp ****     __asm__ volatile("csrs sip, %0" : :"r"(mask));
 133:src/../h/Riscv.hpp **** }
 134:src/../h/Riscv.hpp **** 
 135:src/../h/Riscv.hpp **** inline void Riscv::mc_sip(uint64 mask) {
 136:src/../h/Riscv.hpp ****     __asm__ volatile("csrc sip, %0" : :"r"(mask));
 137:src/../h/Riscv.hpp **** }
 138:src/../h/Riscv.hpp **** 
 139:src/../h/Riscv.hpp **** inline uint64 Riscv::r_sip() {
 140:src/../h/Riscv.hpp ****     uint64 volatile sip;
 141:src/../h/Riscv.hpp ****     __asm__ volatile("csrr %0, sip" : "=r"(sip));
 142:src/../h/Riscv.hpp ****     return sip;
 143:src/../h/Riscv.hpp **** }
 144:src/../h/Riscv.hpp **** 
 145:src/../h/Riscv.hpp **** inline void Riscv::w_sip(uint64 sip) {
 146:src/../h/Riscv.hpp ****     __asm__ volatile("csrw sip, %0" : :"r"(sip));
 147:src/../h/Riscv.hpp **** }
 148:src/../h/Riscv.hpp **** 
 149:src/../h/Riscv.hpp **** inline void Riscv::ms_sstatus(uint64 mask) {
 150:src/../h/Riscv.hpp ****     __asm__ volatile("csrs sstatus, %0" : :"r"(mask));
 238              		.loc 3 150 5
 239              		.loc 3 150 54 is_stmt 0
 240 0144 93070010 		li	a5,256
 241              	#APP
 242              	# 150 "src/../h/Riscv.hpp" 1
 151              	}
 243              		csrs sstatus, a5
 244              	# 0 "" 2
 245              	.LVL17:
 246              	#NO_APP
 247              	.L12:
GAS LISTING /tmp/ccZekBj8.s 			page 10


 248              	.LBE18:
 249              	.LBE17:
  60:src/PCB.cpp   ****     else
  61:src/PCB.cpp   ****         Riscv::ms_sstatus(Riscv::SSTATUS_SPP);
  62:src/PCB.cpp   **** 
  63:src/PCB.cpp   **** 
  64:src/PCB.cpp   ****     PCB::contextSwitch(&old->context, &running->context);
 250              		.loc 1 64 5 is_stmt 1
 251              		.loc 1 64 23 is_stmt 0
 252 014c 93050504 		addi	a1,a0,64
 253 0150 13850404 		addi	a0,s1,64
 254 0154 97000000 		call	_ZN3PCB13contextSwitchEPNS_7ContextES1_@plt
 254      E7800000 
 255              	.LVL18:
  65:src/PCB.cpp   **** }
 256              		.loc 1 65 1
 257 015c 83308101 		ld	ra,24(sp)
 258              		.cfi_remember_state
 259              		.cfi_restore 1
 260 0160 03340101 		ld	s0,16(sp)
 261              		.cfi_restore 8
 262              		.cfi_def_cfa 2, 32
 263 0164 83348100 		ld	s1,8(sp)
 264              		.cfi_restore 9
 265              	.LVL19:
 266 0168 13010102 		addi	sp,sp,32
 267              		.cfi_def_cfa_offset 0
 268 016c 67800000 		jr	ra
 269              	.LVL20:
 270              	.L14:
 271              		.cfi_restore_state
  53:src/PCB.cpp   ****     PCB::running = Scheduler::get();
 272              		.loc 1 53 9 is_stmt 1
  53:src/PCB.cpp   ****     PCB::running = Scheduler::get();
 273              		.loc 1 53 23 is_stmt 0
 274 0170 13850400 		mv	a0,s1
 275 0174 97000000 		call	_ZN9Scheduler3putEP3PCB@plt
 275      E7800000 
 276              	.LVL21:
 277 017c 6FF09FFA 		j	.L10
 278              	.L11:
  61:src/PCB.cpp   **** 
 279              		.loc 1 61 9 is_stmt 1
 280              	.LVL22:
 281              	.LBB19:
 282              	.LBB20:
 150:src/../h/Riscv.hpp **** }
 283              		.loc 3 150 5
 150:src/../h/Riscv.hpp **** }
 284              		.loc 3 150 54 is_stmt 0
 285 0180 93070010 		li	a5,256
 286              	#APP
 287              	# 150 "src/../h/Riscv.hpp" 1
 288              		csrs sstatus, a5
 289              	# 0 "" 2
 290              		.loc 3 151 1
 291              	#NO_APP
GAS LISTING /tmp/ccZekBj8.s 			page 11


 292 0188 6FF05FFC 		j	.L12
 293              	.LBE20:
 294              	.LBE19:
 295              		.cfi_endproc
 296              	.LFE27:
 298              		.align	2
 299              		.globl	_ZN3PCBnwEm
 301              	_ZN3PCBnwEm:
 302              	.LFB28:
  66:src/PCB.cpp   **** 
  67:src/PCB.cpp   **** void *PCB::operator new(size_t size) {
 303              		.loc 1 67 38 is_stmt 1
 304              		.cfi_startproc
 305              	.LVL23:
 306 018c 130101FF 		addi	sp,sp,-16
 307              		.cfi_def_cfa_offset 16
 308 0190 23341100 		sd	ra,8(sp)
 309 0194 23308100 		sd	s0,0(sp)
 310              		.cfi_offset 1, -8
 311              		.cfi_offset 8, -16
 312 0198 13040101 		addi	s0,sp,16
 313              		.cfi_def_cfa 8, 0
  68:src/PCB.cpp   ****     return kmalloc(size);
 314              		.loc 1 68 5
 315              		.loc 1 68 19 is_stmt 0
 316 019c 97000000 		call	_Z7kmallocm@plt
 316      E7800000 
 317              	.LVL24:
  69:src/PCB.cpp   **** }
 318              		.loc 1 69 1
 319 01a4 83308100 		ld	ra,8(sp)
 320              		.cfi_restore 1
 321 01a8 03340100 		ld	s0,0(sp)
 322              		.cfi_restore 8
 323              		.cfi_def_cfa 2, 16
 324 01ac 13010101 		addi	sp,sp,16
 325              		.cfi_def_cfa_offset 0
 326 01b0 67800000 		jr	ra
 327              		.cfi_endproc
 328              	.LFE28:
 330              		.align	2
 331              		.globl	_ZN3PCBdlEPv
 333              	_ZN3PCBdlEPv:
 334              	.LFB29:
  70:src/PCB.cpp   **** 
  71:src/PCB.cpp   **** void PCB::operator delete(void *p) {
 335              		.loc 1 71 36 is_stmt 1
 336              		.cfi_startproc
 337              	.LVL25:
 338 01b4 130101FF 		addi	sp,sp,-16
 339              		.cfi_def_cfa_offset 16
 340 01b8 23341100 		sd	ra,8(sp)
 341 01bc 23308100 		sd	s0,0(sp)
 342              		.cfi_offset 1, -8
 343              		.cfi_offset 8, -16
 344 01c0 13040101 		addi	s0,sp,16
 345              		.cfi_def_cfa 8, 0
GAS LISTING /tmp/ccZekBj8.s 			page 12


  72:src/PCB.cpp   ****     kfree(p);
 346              		.loc 1 72 5
 347              		.loc 1 72 10 is_stmt 0
 348 01c4 97000000 		call	_Z5kfreePv@plt
 348      E7800000 
 349              	.LVL26:
  73:src/PCB.cpp   **** }
 350              		.loc 1 73 1
 351 01cc 83308100 		ld	ra,8(sp)
 352              		.cfi_restore 1
 353 01d0 03340100 		ld	s0,0(sp)
 354              		.cfi_restore 8
 355              		.cfi_def_cfa 2, 16
 356 01d4 13010101 		addi	sp,sp,16
 357              		.cfi_def_cfa_offset 0
 358 01d8 67800000 		jr	ra
 359              		.cfi_endproc
 360              	.LFE29:
 362              		.align	2
 363              		.globl	_ZN3PCBD2Ev
 365              	_ZN3PCBD2Ev:
 366              	.LFB31:
  74:src/PCB.cpp   **** 
  75:src/PCB.cpp   **** PCB::~PCB() {
 367              		.loc 1 75 1 is_stmt 1
 368              		.cfi_startproc
 369              		.cfi_personality 0x9b,DW.ref.__gxx_personality_v0
 370              		.cfi_lsda 0x1b,.LLSDA31
 371              	.LVL27:
 372 01dc 130101FF 		addi	sp,sp,-16
 373              		.cfi_def_cfa_offset 16
 374 01e0 23341100 		sd	ra,8(sp)
 375 01e4 23308100 		sd	s0,0(sp)
 376              		.cfi_offset 1, -8
 377              		.cfi_offset 8, -16
 378 01e8 13040101 		addi	s0,sp,16
 379              		.cfi_def_cfa 8, 0
 380              	.LBB21:
  76:src/PCB.cpp   ****     kfree(beginSP);
 381              		.loc 1 76 5
 382              		.loc 1 76 10 is_stmt 0
 383 01ec 03350503 		ld	a0,48(a0)
 384              	.LVL28:
 385 01f0 97000000 		call	_Z5kfreePv@plt
 385      E7800000 
 386              	.LVL29:
 387              	.LBE21:
  77:src/PCB.cpp   **** }
 388              		.loc 1 77 1
 389 01f8 83308100 		ld	ra,8(sp)
 390              		.cfi_restore 1
 391 01fc 03340100 		ld	s0,0(sp)
 392              		.cfi_restore 8
 393              		.cfi_def_cfa 2, 16
 394 0200 13010101 		addi	sp,sp,16
 395              		.cfi_def_cfa_offset 0
 396 0204 67800000 		jr	ra
GAS LISTING /tmp/ccZekBj8.s 			page 13


 397              		.cfi_endproc
 398              	.LFE31:
 399              		.globl	__gxx_personality_v0
 400              		.section	.gcc_except_table,"a",@progbits
 401              	.LLSDA31:
 402 0000 FF       		.byte	0xff
 403 0001 FF       		.byte	0xff
 404 0002 03       		.byte	0x3
 405 0003 00       		.byte	0
 406              		.text
 408              		.globl	_ZN3PCBD1Ev
 409              		.set	_ZN3PCBD1Ev,_ZN3PCBD2Ev
 410              		.align	2
 411              		.globl	_ZN3PCB10initializeEv
 413              	_ZN3PCB10initializeEv:
 414              	.LFB33:
  78:src/PCB.cpp   **** 
  79:src/PCB.cpp   **** void PCB::initialize()
  80:src/PCB.cpp   **** {
 415              		.loc 1 80 1 is_stmt 1
 416              		.cfi_startproc
 417              		.cfi_personality 0x9b,DW.ref.__gxx_personality_v0
 418              		.cfi_lsda 0x1b,.LLSDA33
 419 0208 130101FE 		addi	sp,sp,-32
 420              		.cfi_def_cfa_offset 32
 421 020c 233C1100 		sd	ra,24(sp)
 422 0210 23388100 		sd	s0,16(sp)
 423 0214 23349100 		sd	s1,8(sp)
 424 0218 23302101 		sd	s2,0(sp)
 425              		.cfi_offset 1, -8
 426              		.cfi_offset 8, -16
 427              		.cfi_offset 9, -24
 428              		.cfi_offset 18, -32
 429 021c 13040102 		addi	s0,sp,32
 430              		.cfi_def_cfa 8, 0
  81:src/PCB.cpp   ****     PCB* mainSystem = new PCB(0, 0, 0, 0);
 431              		.loc 1 81 5
 432              		.loc 1 81 41 is_stmt 0
 433 0220 13058005 		li	a0,88
 434              	.LEHB0:
 435 0224 97000000 		call	_ZN3PCBnwEm
 435      E7800000 
 436              	.LVL30:
 437              	.LEHE0:
 438 022c 93040500 		mv	s1,a0
 439 0230 13070000 		li	a4,0
 440 0234 93060000 		li	a3,0
 441 0238 13060000 		li	a2,0
 442 023c 93050000 		li	a1,0
 443              	.LEHB1:
 444 0240 97000000 		call	_ZN3PCBC1EPFvPvES0_S0_m
 444      E7800000 
 445              	.LVL31:
 446              	.LEHE1:
  82:src/PCB.cpp   ****     mainSystem->systemThread = true;
 447              		.loc 1 82 5 is_stmt 1 discriminator 2
 448              		.loc 1 82 30 is_stmt 0 discriminator 2
GAS LISTING /tmp/ccZekBj8.s 			page 14


 449 0248 93071000 		li	a5,1
 450 024c 2380F400 		sb	a5,0(s1)
  83:src/PCB.cpp   ****     PCB::running = Scheduler::get();
 451              		.loc 1 83 5 is_stmt 1 discriminator 2
 452              	.LEHB2:
 453              		.loc 1 83 34 is_stmt 0 discriminator 2
 454 0250 97000000 		call	_ZN9Scheduler3getEv@plt
 454      E7800000 
 455              	.LVL32:
 456              	.LEHE2:
 457              		.loc 1 83 18 discriminator 2
 458 0258 97070000 		sd	a0,.LANCHOR0,a5
 458      23B0A700 
  84:src/PCB.cpp   ****     PCB::running->setState(PCB::RUNNING);
 459              		.loc 1 84 5 is_stmt 1 discriminator 2
 460              	.LVL33:
 461              	.LBB22:
 462              	.LBB23:
 463              		.loc 2 35 29 discriminator 2
 464              		.loc 2 35 35 is_stmt 0 discriminator 2
 465 0260 93071000 		li	a5,1
 466 0264 232CF502 		sw	a5,56(a0)
 467              	.LVL34:
 468              	.LBE23:
 469              	.LBE22:
  85:src/PCB.cpp   **** }
 470              		.loc 1 85 1 discriminator 2
 471 0268 83308101 		ld	ra,24(sp)
 472              		.cfi_remember_state
 473              		.cfi_restore 1
 474 026c 03340101 		ld	s0,16(sp)
 475              		.cfi_restore 8
 476              		.cfi_def_cfa 2, 32
 477 0270 83348100 		ld	s1,8(sp)
 478              		.cfi_restore 9
 479              	.LVL35:
 480 0274 03390100 		ld	s2,0(sp)
 481              		.cfi_restore 18
 482 0278 13010102 		addi	sp,sp,32
 483              		.cfi_def_cfa_offset 0
 484 027c 67800000 		jr	ra
 485              	.L23:
 486              		.cfi_restore_state
 487 0280 13090500 		mv	s2,a0
  81:src/PCB.cpp   ****     mainSystem->systemThread = true;
 488              		.loc 1 81 41
 489 0284 13850400 		mv	a0,s1
 490 0288 97000000 		call	_ZN3PCBdlEPv
 490      E7800000 
 491              	.LVL36:
 492 0290 13050900 		mv	a0,s2
 493              	.LEHB3:
 494 0294 97000000 		call	_Unwind_Resume@plt
 494      E7800000 
 495              	.LVL37:
 496              	.LEHE3:
 497              		.cfi_endproc
GAS LISTING /tmp/ccZekBj8.s 			page 15


 498              	.LFE33:
 499              		.section	.gcc_except_table
 500              	.LLSDA33:
 501 0004 FF       		.byte	0xff
 502 0005 FF       		.byte	0xff
 503 0006 03       		.byte	0x3
 504 0007 34       		.byte	0x34
 505 0008 00000000 		.4byte	.LEHB0-.LFB33
 506 000c 00000000 		.4byte	.LEHE0-.LEHB0
 507 0010 00000000 		.4byte	0
 508 0014 00       		.byte	0
 509 0015 00000000 		.4byte	.LEHB1-.LFB33
 510 0019 00000000 		.4byte	.LEHE1-.LEHB1
 511 001d 00000000 		.4byte	.L23-.LFB33
 512 0021 00       		.byte	0
 513 0022 00000000 		.4byte	.LEHB2-.LFB33
 514 0026 00000000 		.4byte	.LEHE2-.LEHB2
 515 002a 00000000 		.4byte	0
 516 002e 00       		.byte	0
 517 002f 00000000 		.4byte	.LEHB3-.LFB33
 518 0033 00000000 		.4byte	.LEHE3-.LEHB3
 519 0037 00000000 		.4byte	0
 520 003b 00       		.byte	0
 521              		.text
 523              		.globl	_ZN3PCB16timeSliceCounterE
 524              		.globl	_ZN3PCB10exitingPCBE
 525              		.globl	_ZN3PCB7runningE
 526              		.bss
 527              		.align	3
 528              		.set	.LANCHOR0,. + 0
 531              	_ZN3PCB7runningE:
 532 0000 00000000 		.zero	8
 532      00000000 
 535              	_ZN3PCB16timeSliceCounterE:
 536 0008 00000000 		.zero	8
 536      00000000 
 539              	_ZN3PCB10exitingPCBE:
 540 0010 00000000 		.zero	8
 540      00000000 
 541              		.text
 542              	.Letext0:
 543              		.file 4 "src/../h/../lib/hw.h"
 544              		.file 5 "src/../h/Queue.hpp"
 545              		.file 6 "src/../h/Scheduler.hpp"
 546              		.file 7 "src/../h/MemoryAllocator.hpp"
 547              		.file 8 "src/../h/syscall_c.h"
 3906              		.align	3
 3909              	DW.ref.__gxx_personality_v0:
 3910 0000 00000000 		.dword	__gxx_personality_v0
 3910      00000000 
 3911              		.ident	"GCC: (Ubuntu 9.3.0-17ubuntu1~20.04) 9.3.0"
 3912              		.section	.note.GNU-stack,"",@progbits
GAS LISTING /tmp/ccZekBj8.s 			page 16


DEFINED SYMBOLS
                            *ABS*:0000000000000000 PCB.cpp
     /tmp/ccZekBj8.s:14     .text:0000000000000000 _ZN3PCB6runnerEv
     /tmp/ccZekBj8.s:18     .text:0000000000000000 .L0 
     /tmp/ccZekBj8.s:19     .text:0000000000000000 .L0 
     /tmp/ccZekBj8.s:20     .text:0000000000000004 .L0 
     /tmp/ccZekBj8.s:23     .text:000000000000000c .L0 
     /tmp/ccZekBj8.s:24     .text:000000000000000c .L0 
     /tmp/ccZekBj8.s:26     .text:0000000000000010 .L0 
     /tmp/ccZekBj8.s:28     .text:0000000000000010 .L0 
     /tmp/ccZekBj8.s:29     .text:0000000000000010 .L0 
     /tmp/ccZekBj8.s:33     .text:0000000000000020 .L0 
     /tmp/ccZekBj8.s:34     .text:0000000000000020 .L0 
     /tmp/ccZekBj8.s:37     .text:0000000000000028 .L0 
     /tmp/ccZekBj8.s:38     .text:0000000000000028 .L0 
     /tmp/ccZekBj8.s:41     .text:0000000000000034 .L0 
     /tmp/ccZekBj8.s:45     .text:000000000000003c .L0 
     /tmp/ccZekBj8.s:46     .text:000000000000003c .L0 
     /tmp/ccZekBj8.s:49     .text:0000000000000044 .L0 
     /tmp/ccZekBj8.s:50     .text:0000000000000048 .L0 
     /tmp/ccZekBj8.s:52     .text:000000000000004c .L0 
     /tmp/ccZekBj8.s:53     .text:000000000000004c .L0 
     /tmp/ccZekBj8.s:55     .text:0000000000000050 .L0 
     /tmp/ccZekBj8.s:57     .text:0000000000000054 .L0 
     /tmp/ccZekBj8.s:63     .text:0000000000000054 _ZN3PCBC2EPFvPvES0_S0_m
     /tmp/ccZekBj8.s:66     .text:0000000000000054 .L0 
     /tmp/ccZekBj8.s:68     .text:0000000000000054 .L0 
     /tmp/ccZekBj8.s:69     .text:0000000000000058 .L0 
     /tmp/ccZekBj8.s:73     .text:0000000000000064 .L0 
     /tmp/ccZekBj8.s:74     .text:0000000000000064 .L0 
     /tmp/ccZekBj8.s:75     .text:0000000000000064 .L0 
     /tmp/ccZekBj8.s:77     .text:0000000000000068 .L0 
     /tmp/ccZekBj8.s:81     .text:000000000000006c .L0 
     /tmp/ccZekBj8.s:88     .text:0000000000000084 .L0 
     /tmp/ccZekBj8.s:92     .text:000000000000008c .L0 
     /tmp/ccZekBj8.s:96     .text:000000000000009c .L0 
     /tmp/ccZekBj8.s:97     .text:000000000000009c .L0 
     /tmp/ccZekBj8.s:100    .text:00000000000000a4 .L0 
     /tmp/ccZekBj8.s:101    .text:00000000000000a4 .L0 
     /tmp/ccZekBj8.s:104    .text:00000000000000a8 .L0 
     /tmp/ccZekBj8.s:105    .text:00000000000000ac .L0 
     /tmp/ccZekBj8.s:107    .text:00000000000000b0 .L0 
     /tmp/ccZekBj8.s:108    .text:00000000000000b0 .L0 
     /tmp/ccZekBj8.s:110    .text:00000000000000b4 .L0 
     /tmp/ccZekBj8.s:113    .text:00000000000000b8 .L0 
     /tmp/ccZekBj8.s:115    .text:00000000000000bc .L0 
     /tmp/ccZekBj8.s:63     .text:0000000000000054 _ZN3PCBC1EPFvPvES0_S0_m
     /tmp/ccZekBj8.s:123    .text:00000000000000bc _ZN3PCB5sleepEm
     /tmp/ccZekBj8.s:126    .text:00000000000000bc .L0 
     /tmp/ccZekBj8.s:128    .text:00000000000000bc .L0 
     /tmp/ccZekBj8.s:129    .text:00000000000000c0 .L0 
     /tmp/ccZekBj8.s:131    .text:00000000000000c4 .L0 
     /tmp/ccZekBj8.s:133    .text:00000000000000c8 .L0 
     /tmp/ccZekBj8.s:135    .text:00000000000000c8 .L0 
     /tmp/ccZekBj8.s:136    .text:00000000000000cc .L0 
     /tmp/ccZekBj8.s:137    .text:00000000000000cc .L0 
     /tmp/ccZekBj8.s:139    .text:00000000000000d0 .L0 
GAS LISTING /tmp/ccZekBj8.s 			page 17


     /tmp/ccZekBj8.s:141    .text:00000000000000d4 .L0 
     /tmp/ccZekBj8.s:147    .text:00000000000000d4 _ZN3PCB5startEv
     /tmp/ccZekBj8.s:150    .text:00000000000000d4 .L0 
     /tmp/ccZekBj8.s:152    .text:00000000000000d4 .L0 
     /tmp/ccZekBj8.s:153    .text:00000000000000d8 .L0 
     /tmp/ccZekBj8.s:156    .text:00000000000000e0 .L0 
     /tmp/ccZekBj8.s:157    .text:00000000000000e0 .L0 
     /tmp/ccZekBj8.s:159    .text:00000000000000e4 .L0 
     /tmp/ccZekBj8.s:161    .text:00000000000000e4 .L0 
     /tmp/ccZekBj8.s:162    .text:00000000000000e4 .L0 
     /tmp/ccZekBj8.s:165    .text:00000000000000ec .L0 
     /tmp/ccZekBj8.s:166    .text:00000000000000f0 .L0 
     /tmp/ccZekBj8.s:168    .text:00000000000000f4 .L0 
     /tmp/ccZekBj8.s:169    .text:00000000000000f4 .L0 
     /tmp/ccZekBj8.s:171    .text:00000000000000f8 .L0 
     /tmp/ccZekBj8.s:173    .text:00000000000000fc .L0 
     /tmp/ccZekBj8.s:179    .text:00000000000000fc _ZN3PCB8dispatchEv
     /tmp/ccZekBj8.s:182    .text:00000000000000fc .L0 
     /tmp/ccZekBj8.s:183    .text:00000000000000fc .L0 
     /tmp/ccZekBj8.s:184    .text:0000000000000100 .L0 
     /tmp/ccZekBj8.s:188    .text:000000000000010c .L0 
     /tmp/ccZekBj8.s:189    .text:000000000000010c .L0 
     /tmp/ccZekBj8.s:190    .text:000000000000010c .L0 
     /tmp/ccZekBj8.s:192    .text:0000000000000110 .L0 
     /tmp/ccZekBj8.s:194    .text:0000000000000110 .L0 
     /tmp/ccZekBj8.s:195    .text:0000000000000110 .L0 
     /tmp/ccZekBj8.s:201    .text:0000000000000118 .L0 
     /tmp/ccZekBj8.s:202    .text:0000000000000118 .L0 
     /tmp/ccZekBj8.s:203    .text:0000000000000118 .L0 
     /tmp/ccZekBj8.s:208    .text:000000000000011c .L0 
     /tmp/ccZekBj8.s:212    .text:0000000000000124 .L0 
     /tmp/ccZekBj8.s:213    .text:0000000000000124 .L0 
     /tmp/ccZekBj8.s:216    .text:000000000000012c .L0 
     /tmp/ccZekBj8.s:221    .text:0000000000000134 .L0 
     /tmp/ccZekBj8.s:222    .text:0000000000000134 .L0 
     /tmp/ccZekBj8.s:223    .text:0000000000000134 .L0 
     /tmp/ccZekBj8.s:229    .text:000000000000013c .L0 
     /tmp/ccZekBj8.s:230    .text:000000000000013c .L0 
     /tmp/ccZekBj8.s:232    .text:0000000000000140 .L0 
     /tmp/ccZekBj8.s:238    .text:0000000000000144 .L0 
     /tmp/ccZekBj8.s:239    .text:0000000000000144 .L0 
     /tmp/ccZekBj8.s:240    .text:0000000000000144 .L0 
     /tmp/ccZekBj8.s:251    .text:000000000000014c .L0 
     /tmp/ccZekBj8.s:252    .text:000000000000014c .L0 
     /tmp/ccZekBj8.s:257    .text:000000000000015c .L0 
     /tmp/ccZekBj8.s:258    .text:0000000000000160 .L0 
     /tmp/ccZekBj8.s:259    .text:0000000000000160 .L0 
     /tmp/ccZekBj8.s:261    .text:0000000000000164 .L0 
     /tmp/ccZekBj8.s:262    .text:0000000000000164 .L0 
     /tmp/ccZekBj8.s:264    .text:0000000000000168 .L0 
     /tmp/ccZekBj8.s:267    .text:000000000000016c .L0 
     /tmp/ccZekBj8.s:271    .text:0000000000000170 .L0 
     /tmp/ccZekBj8.s:273    .text:0000000000000170 .L0 
     /tmp/ccZekBj8.s:274    .text:0000000000000170 .L0 
     /tmp/ccZekBj8.s:283    .text:0000000000000180 .L0 
     /tmp/ccZekBj8.s:284    .text:0000000000000180 .L0 
     /tmp/ccZekBj8.s:285    .text:0000000000000180 .L0 
GAS LISTING /tmp/ccZekBj8.s 			page 18


     /tmp/ccZekBj8.s:292    .text:0000000000000188 .L0 
     /tmp/ccZekBj8.s:295    .text:000000000000018c .L0 
     /tmp/ccZekBj8.s:301    .text:000000000000018c _ZN3PCBnwEm
     /tmp/ccZekBj8.s:304    .text:000000000000018c .L0 
     /tmp/ccZekBj8.s:306    .text:000000000000018c .L0 
     /tmp/ccZekBj8.s:307    .text:0000000000000190 .L0 
     /tmp/ccZekBj8.s:310    .text:0000000000000198 .L0 
     /tmp/ccZekBj8.s:311    .text:0000000000000198 .L0 
     /tmp/ccZekBj8.s:313    .text:000000000000019c .L0 
     /tmp/ccZekBj8.s:315    .text:000000000000019c .L0 
     /tmp/ccZekBj8.s:316    .text:000000000000019c .L0 
     /tmp/ccZekBj8.s:319    .text:00000000000001a4 .L0 
     /tmp/ccZekBj8.s:320    .text:00000000000001a8 .L0 
     /tmp/ccZekBj8.s:322    .text:00000000000001ac .L0 
     /tmp/ccZekBj8.s:323    .text:00000000000001ac .L0 
     /tmp/ccZekBj8.s:325    .text:00000000000001b0 .L0 
     /tmp/ccZekBj8.s:327    .text:00000000000001b4 .L0 
     /tmp/ccZekBj8.s:333    .text:00000000000001b4 _ZN3PCBdlEPv
     /tmp/ccZekBj8.s:336    .text:00000000000001b4 .L0 
     /tmp/ccZekBj8.s:338    .text:00000000000001b4 .L0 
     /tmp/ccZekBj8.s:339    .text:00000000000001b8 .L0 
     /tmp/ccZekBj8.s:342    .text:00000000000001c0 .L0 
     /tmp/ccZekBj8.s:343    .text:00000000000001c0 .L0 
     /tmp/ccZekBj8.s:345    .text:00000000000001c4 .L0 
     /tmp/ccZekBj8.s:347    .text:00000000000001c4 .L0 
     /tmp/ccZekBj8.s:348    .text:00000000000001c4 .L0 
     /tmp/ccZekBj8.s:351    .text:00000000000001cc .L0 
     /tmp/ccZekBj8.s:352    .text:00000000000001d0 .L0 
     /tmp/ccZekBj8.s:354    .text:00000000000001d4 .L0 
     /tmp/ccZekBj8.s:355    .text:00000000000001d4 .L0 
     /tmp/ccZekBj8.s:357    .text:00000000000001d8 .L0 
     /tmp/ccZekBj8.s:359    .text:00000000000001dc .L0 
     /tmp/ccZekBj8.s:365    .text:00000000000001dc _ZN3PCBD2Ev
     /tmp/ccZekBj8.s:368    .text:00000000000001dc .L0 
     /tmp/ccZekBj8.s:3909   .data.rel.local.DW.ref.__gxx_personality_v0:0000000000000000 DW.ref.__gxx_personality_v0
     /tmp/ccZekBj8.s:372    .text:00000000000001dc .L0 
     /tmp/ccZekBj8.s:373    .text:00000000000001e0 .L0 
     /tmp/ccZekBj8.s:376    .text:00000000000001e8 .L0 
     /tmp/ccZekBj8.s:377    .text:00000000000001e8 .L0 
     /tmp/ccZekBj8.s:379    .text:00000000000001ec .L0 
     /tmp/ccZekBj8.s:382    .text:00000000000001ec .L0 
     /tmp/ccZekBj8.s:383    .text:00000000000001ec .L0 
     /tmp/ccZekBj8.s:389    .text:00000000000001f8 .L0 
     /tmp/ccZekBj8.s:390    .text:00000000000001fc .L0 
     /tmp/ccZekBj8.s:392    .text:0000000000000200 .L0 
     /tmp/ccZekBj8.s:393    .text:0000000000000200 .L0 
     /tmp/ccZekBj8.s:395    .text:0000000000000204 .L0 
     /tmp/ccZekBj8.s:397    .text:0000000000000208 .L0 
     /tmp/ccZekBj8.s:365    .text:00000000000001dc _ZN3PCBD1Ev
     /tmp/ccZekBj8.s:413    .text:0000000000000208 _ZN3PCB10initializeEv
     /tmp/ccZekBj8.s:416    .text:0000000000000208 .L0 
     /tmp/ccZekBj8.s:419    .text:0000000000000208 .L0 
     /tmp/ccZekBj8.s:420    .text:000000000000020c .L0 
     /tmp/ccZekBj8.s:425    .text:000000000000021c .L0 
     /tmp/ccZekBj8.s:426    .text:000000000000021c .L0 
     /tmp/ccZekBj8.s:427    .text:000000000000021c .L0 
     /tmp/ccZekBj8.s:428    .text:000000000000021c .L0 
GAS LISTING /tmp/ccZekBj8.s 			page 19


     /tmp/ccZekBj8.s:430    .text:0000000000000220 .L0 
     /tmp/ccZekBj8.s:432    .text:0000000000000220 .L0 
     /tmp/ccZekBj8.s:433    .text:0000000000000220 .L0 
     /tmp/ccZekBj8.s:448    .text:0000000000000248 .L0 
     /tmp/ccZekBj8.s:449    .text:0000000000000248 .L0 
     /tmp/ccZekBj8.s:453    .text:0000000000000250 .L0 
     /tmp/ccZekBj8.s:454    .text:0000000000000250 .L0 
     /tmp/ccZekBj8.s:458    .text:0000000000000258 .L0 
     /tmp/ccZekBj8.s:463    .text:0000000000000260 .L0 
     /tmp/ccZekBj8.s:464    .text:0000000000000260 .L0 
     /tmp/ccZekBj8.s:465    .text:0000000000000260 .L0 
     /tmp/ccZekBj8.s:471    .text:0000000000000268 .L0 
     /tmp/ccZekBj8.s:472    .text:000000000000026c .L0 
     /tmp/ccZekBj8.s:473    .text:000000000000026c .L0 
     /tmp/ccZekBj8.s:475    .text:0000000000000270 .L0 
     /tmp/ccZekBj8.s:476    .text:0000000000000270 .L0 
     /tmp/ccZekBj8.s:478    .text:0000000000000274 .L0 
     /tmp/ccZekBj8.s:481    .text:0000000000000278 .L0 
     /tmp/ccZekBj8.s:483    .text:000000000000027c .L0 
     /tmp/ccZekBj8.s:486    .text:0000000000000280 .L0 
     /tmp/ccZekBj8.s:489    .text:0000000000000284 .L0 
     /tmp/ccZekBj8.s:497    .text:000000000000029c .L0 
     /tmp/ccZekBj8.s:535    .bss:0000000000000008 _ZN3PCB16timeSliceCounterE
     /tmp/ccZekBj8.s:539    .bss:0000000000000010 _ZN3PCB10exitingPCBE
     /tmp/ccZekBj8.s:531    .bss:0000000000000000 _ZN3PCB7runningE
     /tmp/ccZekBj8.s:528    .bss:0000000000000000 .LANCHOR0
     /tmp/ccZekBj8.s:548    .text:000000000000029c .L0 
     /tmp/ccZekBj8.s:8      .rodata.str1.8:0000000000000000 .LC0
     /tmp/ccZekBj8.s:29     .text:0000000000000010 .L0 
     /tmp/ccZekBj8.s:38     .text:0000000000000028 .L0 
     /tmp/ccZekBj8.s:93     .text:0000000000000090 .L0 
     /tmp/ccZekBj8.s:195    .text:0000000000000110 .L0 
     /tmp/ccZekBj8.s:216    .text:000000000000012c .L0 
     /tmp/ccZekBj8.s:458    .text:0000000000000258 .L0 
     /tmp/ccZekBj8.s:270    .text:0000000000000170 .L14
     /tmp/ccZekBj8.s:278    .text:0000000000000180 .L11
     /tmp/ccZekBj8.s:210    .text:0000000000000124 .L10
     /tmp/ccZekBj8.s:247    .text:000000000000014c .L12
     /tmp/ccZekBj8.s:434    .text:0000000000000224 .LEHB0
     /tmp/ccZekBj8.s:414    .text:0000000000000208 .LFB33
     /tmp/ccZekBj8.s:437    .text:000000000000022c .LEHE0
     /tmp/ccZekBj8.s:443    .text:0000000000000240 .LEHB1
     /tmp/ccZekBj8.s:446    .text:0000000000000248 .LEHE1
     /tmp/ccZekBj8.s:485    .text:0000000000000280 .L23
     /tmp/ccZekBj8.s:452    .text:0000000000000250 .LEHB2
     /tmp/ccZekBj8.s:456    .text:0000000000000258 .LEHE2
     /tmp/ccZekBj8.s:493    .text:0000000000000294 .LEHB3
     /tmp/ccZekBj8.s:496    .text:000000000000029c .LEHE3
     /tmp/ccZekBj8.s:2188   .debug_abbrev:0000000000000000 .Ldebug_abbrev0
     /tmp/ccZekBj8.s:3549   .debug_str:0000000000000157 .LASF187
     /tmp/ccZekBj8.s:3843   .debug_str:0000000000000a4b .LASF188
     /tmp/ccZekBj8.s:3831   .debug_str:00000000000009e7 .LASF189
     /tmp/ccZekBj8.s:5      .text:0000000000000000 .Ltext0
     /tmp/ccZekBj8.s:542    .text:000000000000029c .Letext0
     /tmp/ccZekBj8.s:3507   .debug_line:0000000000000000 .Ldebug_line0
     /tmp/ccZekBj8.s:3637   .debug_str:0000000000000475 .LASF0
     /tmp/ccZekBj8.s:3667   .debug_str:0000000000000552 .LASF1
GAS LISTING /tmp/ccZekBj8.s 			page 20


     /tmp/ccZekBj8.s:3761   .debug_str:000000000000080c .LASF2
     /tmp/ccZekBj8.s:3769   .debug_str:0000000000000847 .LASF4
     /tmp/ccZekBj8.s:3653   .debug_str:00000000000004e1 .LASF3
     /tmp/ccZekBj8.s:3523   .debug_str:0000000000000061 .LASF5
     /tmp/ccZekBj8.s:3741   .debug_str:000000000000078b .LASF6
     /tmp/ccZekBj8.s:3727   .debug_str:0000000000000720 .LASF7
     /tmp/ccZekBj8.s:3659   .debug_str:0000000000000522 .LASF8
     /tmp/ccZekBj8.s:3621   .debug_str:00000000000003f4 .LASF9
     /tmp/ccZekBj8.s:3625   .debug_str:0000000000000420 .LASF10
     /tmp/ccZekBj8.s:3563   .debug_str:000000000000027b .LASF11
     /tmp/ccZekBj8.s:3611   .debug_str:00000000000003c8 .LASF12
     /tmp/ccZekBj8.s:3571   .debug_str:00000000000002a2 .LASF13
     /tmp/ccZekBj8.s:3561   .debug_str:000000000000026b .LASF14
     /tmp/ccZekBj8.s:3803   .debug_str:000000000000094b .LASF15
     /tmp/ccZekBj8.s:3605   .debug_str:000000000000039a .LASF16
     /tmp/ccZekBj8.s:3795   .debug_str:00000000000008fa .LASF17
     /tmp/ccZekBj8.s:3833   .debug_str:0000000000000a0a .LASF28
     /tmp/ccZekBj8.s:3847   .debug_str:0000000000000a5d .LASF20
     /tmp/ccZekBj8.s:3663   .debug_str:0000000000000548 .LASF18
     /tmp/ccZekBj8.s:3565   .debug_str:000000000000028a .LASF19
     /tmp/ccZekBj8.s:3809   .debug_str:0000000000000964 .LASF21
     /tmp/ccZekBj8.s:3675   .debug_str:0000000000000581 .LASF22
     /tmp/ccZekBj8.s:3879   .debug_str:0000000000000b23 .LASF39
     /tmp/ccZekBj8.s:3845   .debug_str:0000000000000a57 .LASF24
     /tmp/ccZekBj8.s:3575   .debug_str:00000000000002c3 .LASF26
     /tmp/ccZekBj8.s:3639   .debug_str:0000000000000482 .LASF23
     /tmp/ccZekBj8.s:3787   .debug_str:00000000000008c4 .LASF29
     /tmp/ccZekBj8.s:3665   .debug_str:000000000000054d .LASF25
     /tmp/ccZekBj8.s:3751   .debug_str:00000000000007c0 .LASF27
     /tmp/ccZekBj8.s:3595   .debug_str:0000000000000356 .LASF30
     /tmp/ccZekBj8.s:3747   .debug_str:00000000000007a5 .LASF45
     /tmp/ccZekBj8.s:3539   .debug_str:0000000000000111 .LASF47
     /tmp/ccZekBj8.s:3815   .debug_str:0000000000000981 .LASF96
     /tmp/ccZekBj8.s:3555   .debug_str:0000000000000240 .LASF31
     /tmp/ccZekBj8.s:3789   .debug_str:00000000000008d9 .LASF32
     /tmp/ccZekBj8.s:3569   .debug_str:0000000000000298 .LASF33
     /tmp/ccZekBj8.s:3547   .debug_str:000000000000014e .LASF34
     /tmp/ccZekBj8.s:3731   .debug_str:0000000000000749 .LASF35
     /tmp/ccZekBj8.s:3567   .debug_str:000000000000028f .LASF36
     /tmp/ccZekBj8.s:3807   .debug_str:000000000000095c .LASF37
     /tmp/ccZekBj8.s:3631   .debug_str:000000000000044c .LASF38
     /tmp/ccZekBj8.s:3837   .debug_str:0000000000000a18 .LASF40
     /tmp/ccZekBj8.s:3715   .debug_str:00000000000006c7 .LASF190
     /tmp/ccZekBj8.s:3861   .debug_str:0000000000000aae .LASF41
     /tmp/ccZekBj8.s:3889   .debug_str:0000000000000b72 .LASF42
     /tmp/ccZekBj8.s:3883   .debug_str:0000000000000b42 .LASF43
     /tmp/ccZekBj8.s:3825   .debug_str:00000000000009b9 .LASF44
     /tmp/ccZekBj8.s:3593   .debug_str:000000000000034d .LASF70
     /tmp/ccZekBj8.s:3531   .debug_str:00000000000000a3 .LASF72
     /tmp/ccZekBj8.s:3671   .debug_str:000000000000056e .LASF46
     /tmp/ccZekBj8.s:3719   .debug_str:00000000000006df .LASF48
     /tmp/ccZekBj8.s:3819   .debug_str:000000000000099c .LASF49
     /tmp/ccZekBj8.s:3863   .debug_str:0000000000000ab3 .LASF50
     /tmp/ccZekBj8.s:3779   .debug_str:000000000000087e .LASF51
     /tmp/ccZekBj8.s:3673   .debug_str:0000000000000574 .LASF52
     /tmp/ccZekBj8.s:3679   .debug_str:00000000000005a4 .LASF53
     /tmp/ccZekBj8.s:3893   .debug_str:0000000000000b96 .LASF54
GAS LISTING /tmp/ccZekBj8.s 			page 21


     /tmp/ccZekBj8.s:3607   .debug_str:00000000000003b0 .LASF55
     /tmp/ccZekBj8.s:3515   .debug_str:000000000000002a .LASF56
     /tmp/ccZekBj8.s:3649   .debug_str:00000000000004c8 .LASF57
     /tmp/ccZekBj8.s:3783   .debug_str:00000000000008a0 .LASF58
     /tmp/ccZekBj8.s:3699   .debug_str:0000000000000648 .LASF59
     /tmp/ccZekBj8.s:3767   .debug_str:000000000000083e .LASF60
     /tmp/ccZekBj8.s:3799   .debug_str:0000000000000928 .LASF61
     /tmp/ccZekBj8.s:3701   .debug_str:000000000000065b .LASF62
     /tmp/ccZekBj8.s:3511   .debug_str:000000000000000b .LASF63
     /tmp/ccZekBj8.s:3871   .debug_str:0000000000000ae7 .LASF64
     /tmp/ccZekBj8.s:3725   .debug_str:0000000000000706 .LASF65
     /tmp/ccZekBj8.s:3793   .debug_str:00000000000008ec .LASF66
     /tmp/ccZekBj8.s:3743   .debug_str:0000000000000792 .LASF67
     /tmp/ccZekBj8.s:3589   .debug_str:000000000000032b .LASF68
     /tmp/ccZekBj8.s:3877   .debug_str:0000000000000b18 .LASF69
     /tmp/ccZekBj8.s:3655   .debug_str:00000000000004f3 .LASF74
     /tmp/ccZekBj8.s:3791   .debug_str:00000000000008e1 .LASF71
     /tmp/ccZekBj8.s:3887   .debug_str:0000000000000b5c .LASF73
     /tmp/ccZekBj8.s:3775   .debug_str:0000000000000868 .LASF75
     /tmp/ccZekBj8.s:3829   .debug_str:00000000000009dd .LASF76
     /tmp/ccZekBj8.s:3721   .debug_str:00000000000006ef .LASF77
     /tmp/ccZekBj8.s:3581   .debug_str:00000000000002fa .LASF78
     /tmp/ccZekBj8.s:3535   .debug_str:00000000000000d1 .LASF80
     /tmp/ccZekBj8.s:3641   .debug_str:0000000000000487 .LASF79
     /tmp/ccZekBj8.s:3553   .debug_str:0000000000000214 .LASF81
     /tmp/ccZekBj8.s:3869   .debug_str:0000000000000ae0 .LASF191
     /tmp/ccZekBj8.s:3551   .debug_str:0000000000000203 .LASF192
     /tmp/ccZekBj8.s:3513   .debug_str:0000000000000025 .LASF82
     /tmp/ccZekBj8.s:3805   .debug_str:0000000000000957 .LASF83
     /tmp/ccZekBj8.s:3683   .debug_str:00000000000005d7 .LASF84
     /tmp/ccZekBj8.s:3579   .debug_str:00000000000002f4 .LASF85
     /tmp/ccZekBj8.s:3835   .debug_str:0000000000000a10 .LASF86
     /tmp/ccZekBj8.s:3541   .debug_str:000000000000011f .LASF87
     /tmp/ccZekBj8.s:3619   .debug_str:00000000000003ea .LASF88
     /tmp/ccZekBj8.s:3527   .debug_str:0000000000000082 .LASF193
     /tmp/ccZekBj8.s:3885   .debug_str:0000000000000b48 .LASF194
     /tmp/ccZekBj8.s:3543   .debug_str:0000000000000129 .LASF89
     /tmp/ccZekBj8.s:3717   .debug_str:00000000000006cc .LASF90
     /tmp/ccZekBj8.s:3823   .debug_str:00000000000009b1 .LASF91
     /tmp/ccZekBj8.s:3755   .debug_str:00000000000007d8 .LASF122
     /tmp/ccZekBj8.s:3781   .debug_str:000000000000088f .LASF92
     /tmp/ccZekBj8.s:3573   .debug_str:00000000000002b2 .LASF93
     /tmp/ccZekBj8.s:3529   .debug_str:000000000000009a .LASF94
     /tmp/ccZekBj8.s:3857   .debug_str:0000000000000a9e .LASF95
     /tmp/ccZekBj8.s:3849   .debug_str:0000000000000a62 .LASF97
     /tmp/ccZekBj8.s:3609   .debug_str:00000000000003bc .LASF98
     /tmp/ccZekBj8.s:3821   .debug_str:00000000000009a4 .LASF99
     /tmp/ccZekBj8.s:3587   .debug_str:000000000000031f .LASF100
     /tmp/ccZekBj8.s:3633   .debug_str:0000000000000452 .LASF101
     /tmp/ccZekBj8.s:3797   .debug_str:0000000000000910 .LASF102
     /tmp/ccZekBj8.s:3723   .debug_str:00000000000006fb .LASF103
     /tmp/ccZekBj8.s:3689   .debug_str:00000000000005f0 .LASF104
     /tmp/ccZekBj8.s:3603   .debug_str:0000000000000390 .LASF105
     /tmp/ccZekBj8.s:3729   .debug_str:0000000000000733 .LASF106
     /tmp/ccZekBj8.s:3691   .debug_str:0000000000000608 .LASF107
     /tmp/ccZekBj8.s:3853   .debug_str:0000000000000a76 .LASF108
     /tmp/ccZekBj8.s:3559   .debug_str:000000000000025a .LASF109
GAS LISTING /tmp/ccZekBj8.s 			page 22


     /tmp/ccZekBj8.s:3677   .debug_str:0000000000000586 .LASF110
     /tmp/ccZekBj8.s:3647   .debug_str:00000000000004b6 .LASF111
     /tmp/ccZekBj8.s:3577   .debug_str:00000000000002d5 .LASF112
     /tmp/ccZekBj8.s:3875   .debug_str:0000000000000b0c .LASF113
     /tmp/ccZekBj8.s:3533   .debug_str:00000000000000b6 .LASF114
     /tmp/ccZekBj8.s:3737   .debug_str:000000000000076b .LASF115
     /tmp/ccZekBj8.s:3525   .debug_str:0000000000000068 .LASF116
     /tmp/ccZekBj8.s:3777   .debug_str:0000000000000870 .LASF117
     /tmp/ccZekBj8.s:3785   .debug_str:00000000000008a9 .LASF118
     /tmp/ccZekBj8.s:3703   .debug_str:000000000000066a .LASF119
     /tmp/ccZekBj8.s:3865   .debug_str:0000000000000abe .LASF120
     /tmp/ccZekBj8.s:3669   .debug_str:0000000000000565 .LASF121
     /tmp/ccZekBj8.s:3519   .debug_str:0000000000000042 .LASF123
     /tmp/ccZekBj8.s:3899   .debug_str:0000000000000bbd .LASF124
     /tmp/ccZekBj8.s:3711   .debug_str:000000000000069a .LASF125
     /tmp/ccZekBj8.s:3745   .debug_str:000000000000079e .LASF126
     /tmp/ccZekBj8.s:3739   .debug_str:0000000000000778 .LASF127
     /tmp/ccZekBj8.s:3707   .debug_str:000000000000067f .LASF128
     /tmp/ccZekBj8.s:3661   .debug_str:0000000000000535 .LASF129
     /tmp/ccZekBj8.s:3867   .debug_str:0000000000000ad8 .LASF130
     /tmp/ccZekBj8.s:3827   .debug_str:00000000000009c9 .LASF131
     /tmp/ccZekBj8.s:3705   .debug_str:0000000000000677 .LASF132
     /tmp/ccZekBj8.s:3709   .debug_str:0000000000000686 .LASF133
     /tmp/ccZekBj8.s:3695   .debug_str:000000000000062e .LASF134
     /tmp/ccZekBj8.s:3749   .debug_str:00000000000007ac .LASF135
     /tmp/ccZekBj8.s:3901   .debug_str:0000000000000bc6 .LASF136
     /tmp/ccZekBj8.s:3645   .debug_str:00000000000004a2 .LASF137
     /tmp/ccZekBj8.s:3801   .debug_str:0000000000000944 .LASF138
     /tmp/ccZekBj8.s:3771   .debug_str:000000000000084e .LASF139
     /tmp/ccZekBj8.s:3773   .debug_str:0000000000000861 .LASF140
     /tmp/ccZekBj8.s:3601   .debug_str:000000000000037d .LASF141
     /tmp/ccZekBj8.s:3597   .debug_str:0000000000000364 .LASF142
     /tmp/ccZekBj8.s:3813   .debug_str:000000000000096f .LASF143
     /tmp/ccZekBj8.s:3643   .debug_str:000000000000049c .LASF144
     /tmp/ccZekBj8.s:3591   .debug_str:000000000000033b .LASF145
     /tmp/ccZekBj8.s:3509   .debug_str:0000000000000000 .LASF146
     /tmp/ccZekBj8.s:3765   .debug_str:0000000000000826 .LASF147
     /tmp/ccZekBj8.s:3759   .debug_str:0000000000000801 .LASF148
     /tmp/ccZekBj8.s:3891   .debug_str:0000000000000b7e .LASF149
     /tmp/ccZekBj8.s:3859   .debug_str:0000000000000aa4 .LASF150
     /tmp/ccZekBj8.s:3873   .debug_str:0000000000000af6 .LASF151
     /tmp/ccZekBj8.s:3855   .debug_str:0000000000000a94 .LASF152
     /tmp/ccZekBj8.s:3693   .debug_str:0000000000000618 .LASF153
     /tmp/ccZekBj8.s:3629   .debug_str:0000000000000441 .LASF154
     /tmp/ccZekBj8.s:3635   .debug_str:000000000000045d .LASF155
     /tmp/ccZekBj8.s:3841   .debug_str:0000000000000a3c .LASF156
     /tmp/ccZekBj8.s:3623   .debug_str:0000000000000404 .LASF157
     /tmp/ccZekBj8.s:3735   .debug_str:0000000000000756 .LASF158
     /tmp/ccZekBj8.s:3657   .debug_str:0000000000000500 .LASF159
     /tmp/ccZekBj8.s:3753   .debug_str:00000000000007d1 .LASF160
     /tmp/ccZekBj8.s:3517   .debug_str:000000000000003a .LASF161
     /tmp/ccZekBj8.s:3895   .debug_str:0000000000000ba3 .LASF162
     /tmp/ccZekBj8.s:3839   .debug_str:0000000000000a30 .LASF163
     /tmp/ccZekBj8.s:3545   .debug_str:000000000000013b .LASF164
     /tmp/ccZekBj8.s:3697   .debug_str:0000000000000636 .LASF165
     /tmp/ccZekBj8.s:3627   .debug_str:000000000000042e .LASF166
     /tmp/ccZekBj8.s:3599   .debug_str:000000000000036a .LASF167
GAS LISTING /tmp/ccZekBj8.s 			page 23


     /tmp/ccZekBj8.s:3557   .debug_str:0000000000000246 .LASF168
     /tmp/ccZekBj8.s:3811   .debug_str:000000000000096a .LASF169
     /tmp/ccZekBj8.s:3685   .debug_str:00000000000005df .LASF170
     /tmp/ccZekBj8.s:3757   .debug_str:00000000000007f0 .LASF171
     /tmp/ccZekBj8.s:3817   .debug_str:0000000000000987 .LASF172
     /tmp/ccZekBj8.s:3681   .debug_str:00000000000005bc .LASF173
     /tmp/ccZekBj8.s:498    .text:000000000000029c .LFE33
     /tmp/ccZekBj8.s:3585   .debug_str:0000000000000314 .LASF174
     /tmp/ccZekBj8.s:3295   .debug_loc:0000000000000000 .LLST14
     /tmp/ccZekBj8.s:461    .text:0000000000000260 .LBB22
     /tmp/ccZekBj8.s:469    .text:0000000000000268 .LBE22
     /tmp/ccZekBj8.s:3302   .debug_loc:0000000000000023 .LLST15
     /tmp/ccZekBj8.s:3310   .debug_loc:0000000000000047 .LLST16
     /tmp/ccZekBj8.s:436    .text:000000000000022c .LVL30
     /tmp/ccZekBj8.s:445    .text:0000000000000248 .LVL31
     /tmp/ccZekBj8.s:455    .text:0000000000000258 .LVL32
     /tmp/ccZekBj8.s:491    .text:0000000000000290 .LVL36
     /tmp/ccZekBj8.s:495    .text:000000000000029c .LVL37
     /tmp/ccZekBj8.s:3615   .debug_str:00000000000003df .LASF175
     /tmp/ccZekBj8.s:3521   .debug_str:0000000000000057 .LASF176
     /tmp/ccZekBj8.s:3583   .debug_str:0000000000000308 .LASF179
     /tmp/ccZekBj8.s:366    .text:00000000000001dc .LFB31
     /tmp/ccZekBj8.s:398    .text:0000000000000208 .LFE31
     /tmp/ccZekBj8.s:3317   .debug_loc:000000000000006a .LLST13
     /tmp/ccZekBj8.s:386    .text:00000000000001f8 .LVL29
     /tmp/ccZekBj8.s:334    .text:00000000000001b4 .LFB29
     /tmp/ccZekBj8.s:360    .text:00000000000001dc .LFE29
     /tmp/ccZekBj8.s:3331   .debug_loc:00000000000000a3 .LLST12
     /tmp/ccZekBj8.s:349    .text:00000000000001cc .LVL26
     /tmp/ccZekBj8.s:302    .text:000000000000018c .LFB28
     /tmp/ccZekBj8.s:328    .text:00000000000001b4 .LFE28
     /tmp/ccZekBj8.s:3345   .debug_loc:00000000000000dc .LLST11
     /tmp/ccZekBj8.s:317    .text:00000000000001a4 .LVL24
     /tmp/ccZekBj8.s:180    .text:00000000000000fc .LFB27
     /tmp/ccZekBj8.s:296    .text:000000000000018c .LFE27
     /tmp/ccZekBj8.s:3359   .debug_loc:0000000000000115 .LLST6
     /tmp/ccZekBj8.s:198    .text:0000000000000118 .LBB13
     /tmp/ccZekBj8.s:206    .text:000000000000011c .LBE13
     /tmp/ccZekBj8.s:3370   .debug_loc:000000000000014b .LLST7
     /tmp/ccZekBj8.s:219    .text:0000000000000134 .LBB15
     /tmp/ccZekBj8.s:227    .text:000000000000013c .LBE15
     /tmp/ccZekBj8.s:3377   .debug_loc:000000000000016e .LLST8
     /tmp/ccZekBj8.s:3385   .debug_loc:0000000000000192 .LLST9
     /tmp/ccZekBj8.s:235    .text:0000000000000144 .LBB17
     /tmp/ccZekBj8.s:249    .text:000000000000014c .LBE17
     /tmp/ccZekBj8.s:3392   .debug_loc:00000000000001b5 .LLST10
     /tmp/ccZekBj8.s:281    .text:0000000000000180 .LBB19
     /tmp/ccZekBj8.s:294    .text:000000000000018c .LBE19
     /tmp/ccZekBj8.s:214    .text:000000000000012c .LVL13
     /tmp/ccZekBj8.s:255    .text:000000000000015c .LVL18
     /tmp/ccZekBj8.s:276    .text:000000000000017c .LVL21
     /tmp/ccZekBj8.s:15     .text:0000000000000000 .LFB26
     /tmp/ccZekBj8.s:58     .text:0000000000000054 .LFE26
     /tmp/ccZekBj8.s:31     .text:0000000000000020 .LVL0
     /tmp/ccZekBj8.s:35     .text:0000000000000028 .LVL1
     /tmp/ccZekBj8.s:47     .text:0000000000000044 .LVL3
     /tmp/ccZekBj8.s:148    .text:00000000000000d4 .LFB25
GAS LISTING /tmp/ccZekBj8.s 			page 24


     /tmp/ccZekBj8.s:174    .text:00000000000000fc .LFE25
     /tmp/ccZekBj8.s:3401   .debug_loc:00000000000001db .LLST5
     /tmp/ccZekBj8.s:163    .text:00000000000000ec .LVL10
     /tmp/ccZekBj8.s:124    .text:00000000000000bc .LFB24
     /tmp/ccZekBj8.s:142    .text:00000000000000d4 .LFE24
     /tmp/ccZekBj8.s:3733   .debug_str:0000000000000751 .LASF177
     /tmp/ccZekBj8.s:3687   .debug_str:00000000000005e4 .LASF178
     /tmp/ccZekBj8.s:3713   .debug_str:00000000000006af .LASF180
     /tmp/ccZekBj8.s:64     .text:0000000000000054 .LFB22
     /tmp/ccZekBj8.s:116    .text:00000000000000bc .LFE22
     /tmp/ccZekBj8.s:3415   .debug_loc:0000000000000214 .LLST0
     /tmp/ccZekBj8.s:3433   .debug_loc:0000000000000260 .LLST1
     /tmp/ccZekBj8.s:3447   .debug_loc:0000000000000299 .LLST2
     /tmp/ccZekBj8.s:3461   .debug_loc:00000000000002d2 .LLST3
     /tmp/ccZekBj8.s:3480   .debug_loc:000000000000031f .LLST4
     /tmp/ccZekBj8.s:98     .text:00000000000000a4 .LVL6
     /tmp/ccZekBj8.s:3851   .debug_str:0000000000000a71 .LASF181
     /tmp/ccZekBj8.s:3881   .debug_str:0000000000000b33 .LASF195
     /tmp/ccZekBj8.s:3537   .debug_str:00000000000000f9 .LASF196
     /tmp/ccZekBj8.s:3897   .debug_str:0000000000000bb2 .LASF182
     /tmp/ccZekBj8.s:3617   .debug_str:00000000000003e4 .LASF184
     /tmp/ccZekBj8.s:3763   .debug_str:000000000000081a .LASF183
     /tmp/ccZekBj8.s:3613   .debug_str:00000000000003d7 .LASF185
     /tmp/ccZekBj8.s:3651   .debug_str:00000000000004d5 .LASF186
     /tmp/ccZekBj8.s:479    .text:0000000000000274 .LVL35
     /tmp/ccZekBj8.s:460    .text:0000000000000260 .LVL33
     /tmp/ccZekBj8.s:467    .text:0000000000000268 .LVL34
     /tmp/ccZekBj8.s:371    .text:00000000000001dc .LVL27
     /tmp/ccZekBj8.s:384    .text:00000000000001f0 .LVL28
     /tmp/ccZekBj8.s:337    .text:00000000000001b4 .LVL25
     /tmp/ccZekBj8.s:305    .text:000000000000018c .LVL23
     /tmp/ccZekBj8.s:196    .text:0000000000000118 .LVL11
     /tmp/ccZekBj8.s:265    .text:0000000000000168 .LVL19
     /tmp/ccZekBj8.s:269    .text:0000000000000170 .LVL20
     /tmp/ccZekBj8.s:204    .text:000000000000011c .LVL12
     /tmp/ccZekBj8.s:218    .text:0000000000000134 .LVL14
     /tmp/ccZekBj8.s:225    .text:000000000000013c .LVL15
     /tmp/ccZekBj8.s:234    .text:0000000000000144 .LVL16
     /tmp/ccZekBj8.s:245    .text:000000000000014c .LVL17
     /tmp/ccZekBj8.s:151    .text:00000000000000d4 .LVL9
     /tmp/ccZekBj8.s:67     .text:0000000000000054 .LVL4
     /tmp/ccZekBj8.s:111    .text:00000000000000b4 .LVL7
     /tmp/ccZekBj8.s:90     .text:000000000000008c .LVL5
     /tmp/ccZekBj8.s:549    .debug_info:0000000000000000 .Ldebug_info0
     /tmp/ccZekBj8.s:401    .gcc_except_table:0000000000000000 .LLSDA31
     /tmp/ccZekBj8.s:500    .gcc_except_table:0000000000000004 .LLSDA33

UNDEFINED SYMBOLS
_ZN5Riscv11printStringEPKc
_ZN5Riscv10popSppSpieEv
thread_exit
_ZN9Scheduler3putEP3PCB
_ZN9Scheduler3getEv
_ZN3PCB13contextSwitchEPNS_7ContextES1_
_Z7kmallocm
_Z5kfreePv
__gxx_personality_v0
GAS LISTING /tmp/ccZekBj8.s 			page 25


_Unwind_Resume
