GAS LISTING /tmp/cc0oFbTf.s 			page 1


   1              		.file	"PCB.cpp"
   2              		.option pic
   3              		.option norelax
   4              		.text
   5              	.Ltext0:
   6              		.section	.rodata.str1.8,"aMS",@progbits,1
   7              		.align	3
   8              	.LC0:
   9 0000 52756E6E 		.string	"Runner started...\n"
   9      65722073 
   9      74617274 
   9      65642E2E 
   9      2E0A00
  10 0013 00000000 		.align	3
  10      00
  11              	.LC1:
  12 0018 50434220 		.string	"PCB finished\n"
  12      66696E69 
  12      73686564 
  12      0A00
  13              		.text
  14              		.align	2
  15              		.globl	_ZN3PCB6runnerEv
  17              	_ZN3PCB6runnerEv:
  18              	.LFB26:
  19              		.file 1 "src/PCB.cpp"
   1:src/PCB.cpp   **** //
   2:src/PCB.cpp   **** // Created by os on 4/27/22.
   3:src/PCB.cpp   **** //
   4:src/PCB.cpp   **** 
   5:src/PCB.cpp   **** #include "../h/PCB.hpp"
   6:src/PCB.cpp   **** #include "../h/syscall_c.h"
   7:src/PCB.cpp   **** 
   8:src/PCB.cpp   **** PCB* PCB::running = 0;
   9:src/PCB.cpp   **** PCB* PCB::exitingPCB = 0;
  10:src/PCB.cpp   **** uint64 PCB::timeSliceCounter = 0;
  11:src/PCB.cpp   **** 
  12:src/PCB.cpp   **** PCB::PCB(Body body, void *args, void* stack_space, uint64 timeSlice) :
  13:src/PCB.cpp   ****     timeSlice(timeSlice),
  14:src/PCB.cpp   ****     body(body),
  15:src/PCB.cpp   ****     args(args),
  16:src/PCB.cpp   ****     beginSP(stack_space),
  17:src/PCB.cpp   ****     context({
  18:src/PCB.cpp   ****         (uint64)((char*)stack_space + DEFAULT_STACK_SIZE),
  19:src/PCB.cpp   ****         (uint64)&PCB::runner
  20:src/PCB.cpp   ****     })
  21:src/PCB.cpp   **** {
  22:src/PCB.cpp   ****     Scheduler::put(this);
  23:src/PCB.cpp   ****     nextPCB = 0;
  24:src/PCB.cpp   **** }
  25:src/PCB.cpp   **** 
  26:src/PCB.cpp   **** void PCB::sleep(time_t time)
  27:src/PCB.cpp   **** {
  28:src/PCB.cpp   ****     //todo
  29:src/PCB.cpp   **** }
  30:src/PCB.cpp   **** 
  31:src/PCB.cpp   **** void PCB::start()
GAS LISTING /tmp/cc0oFbTf.s 			page 2


  32:src/PCB.cpp   **** {
  33:src/PCB.cpp   ****     Scheduler::put(this);
  34:src/PCB.cpp   **** }
  35:src/PCB.cpp   **** 
  36:src/PCB.cpp   **** //todo
  37:src/PCB.cpp   **** void PCB::runner()
  38:src/PCB.cpp   **** {
  20              		.loc 1 38 1
  21              		.cfi_startproc
  22 0000 130101FF 		addi	sp,sp,-16
  23              		.cfi_def_cfa_offset 16
  24 0004 23341100 		sd	ra,8(sp)
  25 0008 23308100 		sd	s0,0(sp)
  26              		.cfi_offset 1, -8
  27              		.cfi_offset 8, -16
  28 000c 13040101 		addi	s0,sp,16
  29              		.cfi_def_cfa 8, 0
  39:src/PCB.cpp   ****     Riscv::printString("Runner started...\n");
  30              		.loc 1 39 5
  31              		.loc 1 39 23 is_stmt 0
  32 0010 17050000 		lla	a0,.LC0
  32      13050500 
  33 0018 97000000 		call	_ZN5Riscv11printStringEPKc@plt
  33      E7800000 
  34              	.LVL0:
  40:src/PCB.cpp   ****     Riscv::popSppSpie();
  35              		.loc 1 40 5 is_stmt 1
  36              		.loc 1 40 22 is_stmt 0
  37 0020 97000000 		call	_ZN5Riscv10popSppSpieEv@plt
  37      E7800000 
  38              	.LVL1:
  41:src/PCB.cpp   **** 
  42:src/PCB.cpp   ****     running->body(running->args);
  39              		.loc 1 42 5 is_stmt 1
  40              		.loc 1 42 14 is_stmt 0
  41 0028 97070000 		ld	a5,.LANCHOR0
  41      83B70700 
  42 0030 03B78701 		ld	a4,24(a5)
  43              		.loc 1 42 18
  44 0034 03B50702 		ld	a0,32(a5)
  45 0038 E7000700 		jalr	a4
  46              	.LVL2:
  43:src/PCB.cpp   **** 
  44:src/PCB.cpp   ****     //todo
  45:src/PCB.cpp   ****     //da li ovde treba da se predje u kernel rezim mozda
  46:src/PCB.cpp   ****     //mozda moze da se iskoristi lock za neku promenljivu za PCB::running
  47:src/PCB.cpp   ****     //kako ne bi pristupalo vise niti tome, jer malo je
  48:src/PCB.cpp   ****     //nezgodna promena rezima ovde
  49:src/PCB.cpp   ****     //running->setState(PCB::FINISHED);
  50:src/PCB.cpp   ****     Riscv::printString("PCB finished\n");
  47              		.loc 1 50 5 is_stmt 1
  48              		.loc 1 50 23 is_stmt 0
  49 003c 17050000 		lla	a0,.LC1
  49      13050500 
  50 0044 97000000 		call	_ZN5Riscv11printStringEPKc@plt
  50      E7800000 
  51              	.LVL3:
GAS LISTING /tmp/cc0oFbTf.s 			page 3


  51:src/PCB.cpp   **** 
  52:src/PCB.cpp   ****     //todo
  53:src/PCB.cpp   ****     //da li thread_exit ili dispatch
  54:src/PCB.cpp   ****     thread_exit();
  52              		.loc 1 54 5 is_stmt 1
  53              		.loc 1 54 16 is_stmt 0
  54 004c 97000000 		call	thread_exit@plt
  54      E7800000 
  55              	.LVL4:
  55:src/PCB.cpp   ****     //thread_dispatch();
  56:src/PCB.cpp   **** }
  56              		.loc 1 56 1
  57 0054 83308100 		ld	ra,8(sp)
  58              		.cfi_restore 1
  59 0058 03340100 		ld	s0,0(sp)
  60              		.cfi_restore 8
  61              		.cfi_def_cfa 2, 16
  62 005c 13010101 		addi	sp,sp,16
  63              		.cfi_def_cfa_offset 0
  64 0060 67800000 		jr	ra
  65              		.cfi_endproc
  66              	.LFE26:
  68              		.align	2
  69              		.globl	_ZN3PCBC2EPFvPvES0_S0_m
  71              	_ZN3PCBC2EPFvPvES0_S0_m:
  72              	.LFB22:
  12:src/PCB.cpp   ****     timeSlice(timeSlice),
  73              		.loc 1 12 1 is_stmt 1
  74              		.cfi_startproc
  75              	.LVL5:
  76 0064 130101FE 		addi	sp,sp,-32
  77              		.cfi_def_cfa_offset 32
  78 0068 233C1100 		sd	ra,24(sp)
  79 006c 23388100 		sd	s0,16(sp)
  80 0070 23349100 		sd	s1,8(sp)
  81              		.cfi_offset 1, -8
  82              		.cfi_offset 8, -16
  83              		.cfi_offset 9, -24
  84 0074 13040102 		addi	s0,sp,32
  85              		.cfi_def_cfa 8, 0
  86 0078 93040500 		mv	s1,a0
  87              	.LBB6:
  20:src/PCB.cpp   **** {
  88              		.loc 1 20 6 is_stmt 0
  89 007c 2334E500 		sd	a4,8(a0)
  90 0080 23380500 		sd	zero,16(a0)
  91 0084 233CB500 		sd	a1,24(a0)
  92 0088 2330C502 		sd	a2,32(a0)
  93 008c 2334D502 		sd	a3,40(a0)
  18:src/PCB.cpp   ****         (uint64)&PCB::runner
  94              		.loc 1 18 37
  95 0090 B7170000 		li	a5,4096
  96 0094 B386F600 		add	a3,a3,a5
  97              	.LVL6:
  20:src/PCB.cpp   **** {
  98              		.loc 1 20 6
  99 0098 233CD502 		sd	a3,56(a0)
GAS LISTING /tmp/cc0oFbTf.s 			page 4


 100 009c 97070000 		lla	a5,_ZN3PCB6runnerEv
 100      93870700 
 101 00a4 2330F504 		sd	a5,64(a0)
  22:src/PCB.cpp   ****     nextPCB = 0;
 102              		.loc 1 22 5 is_stmt 1
  22:src/PCB.cpp   ****     nextPCB = 0;
 103              		.loc 1 22 19 is_stmt 0
 104 00a8 97000000 		call	_ZN9Scheduler3putEP3PCB@plt
 104      E7800000 
 105              	.LVL7:
  23:src/PCB.cpp   **** }
 106              		.loc 1 23 5 is_stmt 1
  23:src/PCB.cpp   **** }
 107              		.loc 1 23 13 is_stmt 0
 108 00b0 23B00400 		sd	zero,0(s1)
 109              	.LBE6:
  24:src/PCB.cpp   **** 
 110              		.loc 1 24 1
 111 00b4 83308101 		ld	ra,24(sp)
 112              		.cfi_restore 1
 113 00b8 03340101 		ld	s0,16(sp)
 114              		.cfi_restore 8
 115              		.cfi_def_cfa 2, 32
 116 00bc 83348100 		ld	s1,8(sp)
 117              		.cfi_restore 9
 118              	.LVL8:
 119 00c0 13010102 		addi	sp,sp,32
 120              		.cfi_def_cfa_offset 0
 121 00c4 67800000 		jr	ra
 122              		.cfi_endproc
 123              	.LFE22:
 125              		.globl	_ZN3PCBC1EPFvPvES0_S0_m
 126              		.set	_ZN3PCBC1EPFvPvES0_S0_m,_ZN3PCBC2EPFvPvES0_S0_m
 127              		.align	2
 128              		.globl	_ZN3PCB5sleepEm
 130              	_ZN3PCB5sleepEm:
 131              	.LFB24:
  27:src/PCB.cpp   ****     //todo
 132              		.loc 1 27 1 is_stmt 1
 133              		.cfi_startproc
 134              	.LVL9:
 135 00c8 130101FF 		addi	sp,sp,-16
 136              		.cfi_def_cfa_offset 16
 137 00cc 23348100 		sd	s0,8(sp)
 138              		.cfi_offset 8, -8
 139 00d0 13040101 		addi	s0,sp,16
 140              		.cfi_def_cfa 8, 0
  29:src/PCB.cpp   **** 
 141              		.loc 1 29 1 is_stmt 0
 142 00d4 03348100 		ld	s0,8(sp)
 143              		.cfi_restore 8
 144              		.cfi_def_cfa 2, 16
 145 00d8 13010101 		addi	sp,sp,16
 146              		.cfi_def_cfa_offset 0
 147 00dc 67800000 		jr	ra
 148              		.cfi_endproc
 149              	.LFE24:
GAS LISTING /tmp/cc0oFbTf.s 			page 5


 151              		.align	2
 152              		.globl	_ZN3PCB5startEv
 154              	_ZN3PCB5startEv:
 155              	.LFB25:
  32:src/PCB.cpp   ****     Scheduler::put(this);
 156              		.loc 1 32 1 is_stmt 1
 157              		.cfi_startproc
 158              	.LVL10:
 159 00e0 130101FF 		addi	sp,sp,-16
 160              		.cfi_def_cfa_offset 16
 161 00e4 23341100 		sd	ra,8(sp)
 162 00e8 23308100 		sd	s0,0(sp)
 163              		.cfi_offset 1, -8
 164              		.cfi_offset 8, -16
 165 00ec 13040101 		addi	s0,sp,16
 166              		.cfi_def_cfa 8, 0
  33:src/PCB.cpp   **** }
 167              		.loc 1 33 5
  33:src/PCB.cpp   **** }
 168              		.loc 1 33 19 is_stmt 0
 169 00f0 97000000 		call	_ZN9Scheduler3putEP3PCB@plt
 169      E7800000 
 170              	.LVL11:
  34:src/PCB.cpp   **** 
 171              		.loc 1 34 1
 172 00f8 83308100 		ld	ra,8(sp)
 173              		.cfi_restore 1
 174 00fc 03340100 		ld	s0,0(sp)
 175              		.cfi_restore 8
 176              		.cfi_def_cfa 2, 16
 177 0100 13010101 		addi	sp,sp,16
 178              		.cfi_def_cfa_offset 0
 179 0104 67800000 		jr	ra
 180              		.cfi_endproc
 181              	.LFE25:
 183              		.align	2
 184              		.globl	_ZN3PCB8dispatchEv
 186              	_ZN3PCB8dispatchEv:
 187              	.LFB27:
  57:src/PCB.cpp   **** 
  58:src/PCB.cpp   **** void PCB::dispatch()
  59:src/PCB.cpp   **** {
 188              		.loc 1 59 1 is_stmt 1
 189              		.cfi_startproc
 190 0108 130101FE 		addi	sp,sp,-32
 191              		.cfi_def_cfa_offset 32
 192 010c 233C1100 		sd	ra,24(sp)
 193 0110 23388100 		sd	s0,16(sp)
 194 0114 23349100 		sd	s1,8(sp)
 195              		.cfi_offset 1, -8
 196              		.cfi_offset 8, -16
 197              		.cfi_offset 9, -24
 198 0118 13040102 		addi	s0,sp,32
 199              		.cfi_def_cfa 8, 0
  60:src/PCB.cpp   ****     //Riscv::printString("Dispatch called...\n");
  61:src/PCB.cpp   ****     PCB* old = running;
 200              		.loc 1 61 5
GAS LISTING /tmp/cc0oFbTf.s 			page 6


 201              		.loc 1 61 10 is_stmt 0
 202 011c 97040000 		ld	s1,.LANCHOR0
 202      83B40400 
 203              	.LVL12:
  62:src/PCB.cpp   ****     if(old->getState() == PCB::RUNNING)
 204              		.loc 1 62 5 is_stmt 1
 205              	.LBB7:
 206              	.LBB8:
 207              		.file 2 "src/../h/PCB.hpp"
   1:src/../h/PCB.hpp **** //
   2:src/../h/PCB.hpp **** // Created by os on 4/27/22.
   3:src/../h/PCB.hpp **** //
   4:src/../h/PCB.hpp **** 
   5:src/../h/PCB.hpp **** #ifndef PROJECT_BASE_V1_0_PCB_HPP
   6:src/../h/PCB.hpp **** #define PROJECT_BASE_V1_0_PCB_HPP
   7:src/../h/PCB.hpp **** 
   8:src/../h/PCB.hpp **** #include "../lib/hw.h"
   9:src/../h/PCB.hpp **** #include "Scheduler.hpp"
  10:src/../h/PCB.hpp **** #include "Riscv.hpp"
  11:src/../h/PCB.hpp **** 
  12:src/../h/PCB.hpp **** class PCB
  13:src/../h/PCB.hpp **** {
  14:src/../h/PCB.hpp **** public:
  15:src/../h/PCB.hpp ****     using Body = void (*)(void*);
  16:src/../h/PCB.hpp **** 
  17:src/../h/PCB.hpp ****     PCB(Body body,  void* args, void* stack_space, uint64 timeSlice);
  18:src/../h/PCB.hpp ****     ~PCB();
  19:src/../h/PCB.hpp **** 
  20:src/../h/PCB.hpp ****     void start();
  21:src/../h/PCB.hpp ****     static void dispatch();
  22:src/../h/PCB.hpp ****     static void sleep(time_t);
  23:src/../h/PCB.hpp **** 
  24:src/../h/PCB.hpp ****     static PCB* running;
  25:src/../h/PCB.hpp ****     static PCB* exitingPCB;
  26:src/../h/PCB.hpp **** 
  27:src/../h/PCB.hpp ****     static uint64 timeSliceCounter;
  28:src/../h/PCB.hpp ****     uint64 getTimeSlice() { return timeSlice;}
  29:src/../h/PCB.hpp **** 
  30:src/../h/PCB.hpp ****     void* operator new(size_t size);
  31:src/../h/PCB.hpp ****     void operator delete(void *p);
  32:src/../h/PCB.hpp **** 
  33:src/../h/PCB.hpp ****     enum State{READY, RUNNING, SUSPENDED, FINISHED, EXITING, SLEEPING};
  34:src/../h/PCB.hpp ****     State getState() {return state;}
 208              		.loc 2 34 23
 209              		.loc 2 34 30 is_stmt 0
 210 0124 03A70403 		lw	a4,48(s1)
 211              	.LVL13:
 212              	.LBE8:
 213              	.LBE7:
 214              		.loc 1 62 5
 215 0128 93071000 		li	a5,1
 216 012c 6300F704 		beq	a4,a5,.L12
 217              	.L10:
  63:src/PCB.cpp   ****         Scheduler::put(old);
  64:src/PCB.cpp   ****     PCB::running = Scheduler::get();
 218              		.loc 1 64 5 is_stmt 1
 219              		.loc 1 64 34 is_stmt 0
GAS LISTING /tmp/cc0oFbTf.s 			page 7


 220 0130 97000000 		call	_ZN9Scheduler3getEv@plt
 220      E7800000 
 221              	.LVL14:
 222              		.loc 1 64 18
 223 0138 97070000 		sd	a0,.LANCHOR0,a5
 223      23B0A700 
  65:src/PCB.cpp   ****     PCB::running->setState(PCB::RUNNING);
 224              		.loc 1 65 5 is_stmt 1
 225              	.LVL15:
 226              	.LBB9:
 227              	.LBB10:
  35:src/../h/PCB.hpp ****     void setState(State s) {state = s;}
 228              		.loc 2 35 29
 229              		.loc 2 35 35 is_stmt 0
 230 0140 93071000 		li	a5,1
 231 0144 2328F502 		sw	a5,48(a0)
 232              	.LVL16:
 233              	.LBE10:
 234              	.LBE9:
  66:src/PCB.cpp   ****     //Riscv::printString("Switching context...\n");
  67:src/PCB.cpp   **** 
  68:src/PCB.cpp   ****     PCB::contextSwitch(&old->context, &running->context);
 235              		.loc 1 68 5 is_stmt 1
 236              		.loc 1 68 23 is_stmt 0
 237 0148 93058503 		addi	a1,a0,56
 238 014c 13858403 		addi	a0,s1,56
 239 0150 97000000 		call	_ZN3PCB13contextSwitchEPNS_7ContextES1_@plt
 239      E7800000 
 240              	.LVL17:
  69:src/PCB.cpp   **** }
 241              		.loc 1 69 1
 242 0158 83308101 		ld	ra,24(sp)
 243              		.cfi_remember_state
 244              		.cfi_restore 1
 245 015c 03340101 		ld	s0,16(sp)
 246              		.cfi_restore 8
 247              		.cfi_def_cfa 2, 32
 248 0160 83348100 		ld	s1,8(sp)
 249              		.cfi_restore 9
 250              	.LVL18:
 251 0164 13010102 		addi	sp,sp,32
 252              		.cfi_def_cfa_offset 0
 253 0168 67800000 		jr	ra
 254              	.LVL19:
 255              	.L12:
 256              		.cfi_restore_state
  63:src/PCB.cpp   ****     PCB::running = Scheduler::get();
 257              		.loc 1 63 9 is_stmt 1
  63:src/PCB.cpp   ****     PCB::running = Scheduler::get();
 258              		.loc 1 63 23 is_stmt 0
 259 016c 13850400 		mv	a0,s1
 260 0170 97000000 		call	_ZN9Scheduler3putEP3PCB@plt
 260      E7800000 
 261              	.LVL20:
 262 0178 6FF09FFB 		j	.L10
 263              		.cfi_endproc
 264              	.LFE27:
GAS LISTING /tmp/cc0oFbTf.s 			page 8


 266              		.align	2
 267              		.globl	_ZN3PCBnwEm
 269              	_ZN3PCBnwEm:
 270              	.LFB28:
  70:src/PCB.cpp   **** 
  71:src/PCB.cpp   **** void *PCB::operator new(size_t size) {
 271              		.loc 1 71 38 is_stmt 1
 272              		.cfi_startproc
 273              	.LVL21:
 274 017c 130101FF 		addi	sp,sp,-16
 275              		.cfi_def_cfa_offset 16
 276 0180 23341100 		sd	ra,8(sp)
 277 0184 23308100 		sd	s0,0(sp)
 278              		.cfi_offset 1, -8
 279              		.cfi_offset 8, -16
 280 0188 13040101 		addi	s0,sp,16
 281              		.cfi_def_cfa 8, 0
  72:src/PCB.cpp   ****     return kmalloc(size);
 282              		.loc 1 72 5
 283              		.loc 1 72 19 is_stmt 0
 284 018c 97000000 		call	_Z7kmallocm@plt
 284      E7800000 
 285              	.LVL22:
  73:src/PCB.cpp   **** }
 286              		.loc 1 73 1
 287 0194 83308100 		ld	ra,8(sp)
 288              		.cfi_restore 1
 289 0198 03340100 		ld	s0,0(sp)
 290              		.cfi_restore 8
 291              		.cfi_def_cfa 2, 16
 292 019c 13010101 		addi	sp,sp,16
 293              		.cfi_def_cfa_offset 0
 294 01a0 67800000 		jr	ra
 295              		.cfi_endproc
 296              	.LFE28:
 298              		.align	2
 299              		.globl	_ZN3PCBdlEPv
 301              	_ZN3PCBdlEPv:
 302              	.LFB29:
  74:src/PCB.cpp   **** 
  75:src/PCB.cpp   **** void PCB::operator delete(void *p) {
 303              		.loc 1 75 36 is_stmt 1
 304              		.cfi_startproc
 305              	.LVL23:
 306 01a4 130101FF 		addi	sp,sp,-16
 307              		.cfi_def_cfa_offset 16
 308 01a8 23341100 		sd	ra,8(sp)
 309 01ac 23308100 		sd	s0,0(sp)
 310              		.cfi_offset 1, -8
 311              		.cfi_offset 8, -16
 312 01b0 13040101 		addi	s0,sp,16
 313              		.cfi_def_cfa 8, 0
  76:src/PCB.cpp   ****     kfree(p);
 314              		.loc 1 76 5
 315              		.loc 1 76 10 is_stmt 0
 316 01b4 97000000 		call	_Z5kfreePv@plt
 316      E7800000 
GAS LISTING /tmp/cc0oFbTf.s 			page 9


 317              	.LVL24:
  77:src/PCB.cpp   **** }
 318              		.loc 1 77 1
 319 01bc 83308100 		ld	ra,8(sp)
 320              		.cfi_restore 1
 321 01c0 03340100 		ld	s0,0(sp)
 322              		.cfi_restore 8
 323              		.cfi_def_cfa 2, 16
 324 01c4 13010101 		addi	sp,sp,16
 325              		.cfi_def_cfa_offset 0
 326 01c8 67800000 		jr	ra
 327              		.cfi_endproc
 328              	.LFE29:
 330              		.align	2
 331              		.globl	_ZN3PCBD2Ev
 333              	_ZN3PCBD2Ev:
 334              	.LFB31:
  78:src/PCB.cpp   **** 
  79:src/PCB.cpp   **** PCB::~PCB() {
 335              		.loc 1 79 1 is_stmt 1
 336              		.cfi_startproc
 337              		.cfi_personality 0x9b,DW.ref.__gxx_personality_v0
 338              		.cfi_lsda 0x1b,.LLSDA31
 339              	.LVL25:
 340 01cc 130101FF 		addi	sp,sp,-16
 341              		.cfi_def_cfa_offset 16
 342 01d0 23341100 		sd	ra,8(sp)
 343 01d4 23308100 		sd	s0,0(sp)
 344              		.cfi_offset 1, -8
 345              		.cfi_offset 8, -16
 346 01d8 13040101 		addi	s0,sp,16
 347              		.cfi_def_cfa 8, 0
 348              	.LBB11:
  80:src/PCB.cpp   ****     kfree(beginSP);
 349              		.loc 1 80 5
 350              		.loc 1 80 10 is_stmt 0
 351 01dc 03358502 		ld	a0,40(a0)
 352              	.LVL26:
 353 01e0 97000000 		call	_Z5kfreePv@plt
 353      E7800000 
 354              	.LVL27:
 355              	.LBE11:
  81:src/PCB.cpp   **** }...
 356              		.loc 1 81 1
 357 01e8 83308100 		ld	ra,8(sp)
 358              		.cfi_restore 1
 359 01ec 03340100 		ld	s0,0(sp)
 360              		.cfi_restore 8
 361              		.cfi_def_cfa 2, 16
 362 01f0 13010101 		addi	sp,sp,16
 363              		.cfi_def_cfa_offset 0
 364 01f4 67800000 		jr	ra
 365              		.cfi_endproc
 366              	.LFE31:
 367              		.globl	__gxx_personality_v0
 368              		.section	.gcc_except_table,"a",@progbits
 369              	.LLSDA31:
GAS LISTING /tmp/cc0oFbTf.s 			page 10


 370 0000 FF       		.byte	0xff
 371 0001 FF       		.byte	0xff
 372 0002 03       		.byte	0x3
 373 0003 00       		.byte	0
 374              		.text
 376              		.globl	_ZN3PCBD1Ev
 377              		.set	_ZN3PCBD1Ev,_ZN3PCBD2Ev
 378              		.globl	_ZN3PCB16timeSliceCounterE
 379              		.globl	_ZN3PCB10exitingPCBE
 380              		.globl	_ZN3PCB7runningE
 381              		.bss
 382              		.align	3
 383              		.set	.LANCHOR0,. + 0
 386              	_ZN3PCB7runningE:
 387 0000 00000000 		.zero	8
 387      00000000 
 390              	_ZN3PCB16timeSliceCounterE:
 391 0008 00000000 		.zero	8
 391      00000000 
 394              	_ZN3PCB10exitingPCBE:
 395 0010 00000000 		.zero	8
 395      00000000 
 396              		.text
 397              	.Letext0:
 398              		.file 3 "src/../h/../lib/hw.h"
 399              		.file 4 "src/../h/Queue.hpp"
 400              		.file 5 "src/../h/Scheduler.hpp"
 401              		.file 6 "src/../h/Riscv.hpp"
 402              		.file 7 "src/../h/MemoryAllocator.hpp"
 403              		.file 8 "src/../h/syscall_c.h"
 3443              		.align	3
 3446              	DW.ref.__gxx_personality_v0:
 3447 0000 00000000 		.dword	__gxx_personality_v0
 3447      00000000 
 3448              		.ident	"GCC: (Ubuntu 9.3.0-17ubuntu1~20.04) 9.3.0"
 3449              		.section	.note.GNU-stack,"",@progbits
GAS LISTING /tmp/cc0oFbTf.s 			page 11


DEFINED SYMBOLS
                            *ABS*:0000000000000000 PCB.cpp
     /tmp/cc0oFbTf.s:17     .text:0000000000000000 _ZN3PCB6runnerEv
     /tmp/cc0oFbTf.s:21     .text:0000000000000000 .L0 
     /tmp/cc0oFbTf.s:22     .text:0000000000000000 .L0 
     /tmp/cc0oFbTf.s:23     .text:0000000000000004 .L0 
     /tmp/cc0oFbTf.s:26     .text:000000000000000c .L0 
     /tmp/cc0oFbTf.s:27     .text:000000000000000c .L0 
     /tmp/cc0oFbTf.s:29     .text:0000000000000010 .L0 
     /tmp/cc0oFbTf.s:31     .text:0000000000000010 .L0 
     /tmp/cc0oFbTf.s:32     .text:0000000000000010 .L0 
     /tmp/cc0oFbTf.s:36     .text:0000000000000020 .L0 
     /tmp/cc0oFbTf.s:37     .text:0000000000000020 .L0 
     /tmp/cc0oFbTf.s:40     .text:0000000000000028 .L0 
     /tmp/cc0oFbTf.s:41     .text:0000000000000028 .L0 
     /tmp/cc0oFbTf.s:44     .text:0000000000000034 .L0 
     /tmp/cc0oFbTf.s:48     .text:000000000000003c .L0 
     /tmp/cc0oFbTf.s:49     .text:000000000000003c .L0 
     /tmp/cc0oFbTf.s:53     .text:000000000000004c .L0 
     /tmp/cc0oFbTf.s:54     .text:000000000000004c .L0 
     /tmp/cc0oFbTf.s:57     .text:0000000000000054 .L0 
     /tmp/cc0oFbTf.s:58     .text:0000000000000058 .L0 
     /tmp/cc0oFbTf.s:60     .text:000000000000005c .L0 
     /tmp/cc0oFbTf.s:61     .text:000000000000005c .L0 
     /tmp/cc0oFbTf.s:63     .text:0000000000000060 .L0 
     /tmp/cc0oFbTf.s:65     .text:0000000000000064 .L0 
     /tmp/cc0oFbTf.s:71     .text:0000000000000064 _ZN3PCBC2EPFvPvES0_S0_m
     /tmp/cc0oFbTf.s:74     .text:0000000000000064 .L0 
     /tmp/cc0oFbTf.s:76     .text:0000000000000064 .L0 
     /tmp/cc0oFbTf.s:77     .text:0000000000000068 .L0 
     /tmp/cc0oFbTf.s:81     .text:0000000000000074 .L0 
     /tmp/cc0oFbTf.s:82     .text:0000000000000074 .L0 
     /tmp/cc0oFbTf.s:83     .text:0000000000000074 .L0 
     /tmp/cc0oFbTf.s:85     .text:0000000000000078 .L0 
     /tmp/cc0oFbTf.s:89     .text:000000000000007c .L0 
     /tmp/cc0oFbTf.s:95     .text:0000000000000090 .L0 
     /tmp/cc0oFbTf.s:99     .text:0000000000000098 .L0 
     /tmp/cc0oFbTf.s:103    .text:00000000000000a8 .L0 
     /tmp/cc0oFbTf.s:104    .text:00000000000000a8 .L0 
     /tmp/cc0oFbTf.s:107    .text:00000000000000b0 .L0 
     /tmp/cc0oFbTf.s:108    .text:00000000000000b0 .L0 
     /tmp/cc0oFbTf.s:111    .text:00000000000000b4 .L0 
     /tmp/cc0oFbTf.s:112    .text:00000000000000b8 .L0 
     /tmp/cc0oFbTf.s:114    .text:00000000000000bc .L0 
     /tmp/cc0oFbTf.s:115    .text:00000000000000bc .L0 
     /tmp/cc0oFbTf.s:117    .text:00000000000000c0 .L0 
     /tmp/cc0oFbTf.s:120    .text:00000000000000c4 .L0 
     /tmp/cc0oFbTf.s:122    .text:00000000000000c8 .L0 
     /tmp/cc0oFbTf.s:71     .text:0000000000000064 _ZN3PCBC1EPFvPvES0_S0_m
     /tmp/cc0oFbTf.s:130    .text:00000000000000c8 _ZN3PCB5sleepEm
     /tmp/cc0oFbTf.s:133    .text:00000000000000c8 .L0 
     /tmp/cc0oFbTf.s:135    .text:00000000000000c8 .L0 
     /tmp/cc0oFbTf.s:136    .text:00000000000000cc .L0 
     /tmp/cc0oFbTf.s:138    .text:00000000000000d0 .L0 
     /tmp/cc0oFbTf.s:140    .text:00000000000000d4 .L0 
     /tmp/cc0oFbTf.s:142    .text:00000000000000d4 .L0 
     /tmp/cc0oFbTf.s:143    .text:00000000000000d8 .L0 
GAS LISTING /tmp/cc0oFbTf.s 			page 12


     /tmp/cc0oFbTf.s:144    .text:00000000000000d8 .L0 
     /tmp/cc0oFbTf.s:146    .text:00000000000000dc .L0 
     /tmp/cc0oFbTf.s:148    .text:00000000000000e0 .L0 
     /tmp/cc0oFbTf.s:154    .text:00000000000000e0 _ZN3PCB5startEv
     /tmp/cc0oFbTf.s:157    .text:00000000000000e0 .L0 
     /tmp/cc0oFbTf.s:159    .text:00000000000000e0 .L0 
     /tmp/cc0oFbTf.s:160    .text:00000000000000e4 .L0 
     /tmp/cc0oFbTf.s:163    .text:00000000000000ec .L0 
     /tmp/cc0oFbTf.s:164    .text:00000000000000ec .L0 
     /tmp/cc0oFbTf.s:166    .text:00000000000000f0 .L0 
     /tmp/cc0oFbTf.s:168    .text:00000000000000f0 .L0 
     /tmp/cc0oFbTf.s:169    .text:00000000000000f0 .L0 
     /tmp/cc0oFbTf.s:172    .text:00000000000000f8 .L0 
     /tmp/cc0oFbTf.s:173    .text:00000000000000fc .L0 
     /tmp/cc0oFbTf.s:175    .text:0000000000000100 .L0 
     /tmp/cc0oFbTf.s:176    .text:0000000000000100 .L0 
     /tmp/cc0oFbTf.s:178    .text:0000000000000104 .L0 
     /tmp/cc0oFbTf.s:180    .text:0000000000000108 .L0 
     /tmp/cc0oFbTf.s:186    .text:0000000000000108 _ZN3PCB8dispatchEv
     /tmp/cc0oFbTf.s:189    .text:0000000000000108 .L0 
     /tmp/cc0oFbTf.s:190    .text:0000000000000108 .L0 
     /tmp/cc0oFbTf.s:191    .text:000000000000010c .L0 
     /tmp/cc0oFbTf.s:195    .text:0000000000000118 .L0 
     /tmp/cc0oFbTf.s:196    .text:0000000000000118 .L0 
     /tmp/cc0oFbTf.s:197    .text:0000000000000118 .L0 
     /tmp/cc0oFbTf.s:199    .text:000000000000011c .L0 
     /tmp/cc0oFbTf.s:201    .text:000000000000011c .L0 
     /tmp/cc0oFbTf.s:202    .text:000000000000011c .L0 
     /tmp/cc0oFbTf.s:208    .text:0000000000000124 .L0 
     /tmp/cc0oFbTf.s:209    .text:0000000000000124 .L0 
     /tmp/cc0oFbTf.s:210    .text:0000000000000124 .L0 
     /tmp/cc0oFbTf.s:215    .text:0000000000000128 .L0 
     /tmp/cc0oFbTf.s:219    .text:0000000000000130 .L0 
     /tmp/cc0oFbTf.s:220    .text:0000000000000130 .L0 
     /tmp/cc0oFbTf.s:223    .text:0000000000000138 .L0 
     /tmp/cc0oFbTf.s:228    .text:0000000000000140 .L0 
     /tmp/cc0oFbTf.s:229    .text:0000000000000140 .L0 
     /tmp/cc0oFbTf.s:230    .text:0000000000000140 .L0 
     /tmp/cc0oFbTf.s:236    .text:0000000000000148 .L0 
     /tmp/cc0oFbTf.s:237    .text:0000000000000148 .L0 
     /tmp/cc0oFbTf.s:242    .text:0000000000000158 .L0 
     /tmp/cc0oFbTf.s:243    .text:000000000000015c .L0 
     /tmp/cc0oFbTf.s:244    .text:000000000000015c .L0 
     /tmp/cc0oFbTf.s:246    .text:0000000000000160 .L0 
     /tmp/cc0oFbTf.s:247    .text:0000000000000160 .L0 
     /tmp/cc0oFbTf.s:249    .text:0000000000000164 .L0 
     /tmp/cc0oFbTf.s:252    .text:0000000000000168 .L0 
     /tmp/cc0oFbTf.s:256    .text:000000000000016c .L0 
     /tmp/cc0oFbTf.s:258    .text:000000000000016c .L0 
     /tmp/cc0oFbTf.s:259    .text:000000000000016c .L0 
     /tmp/cc0oFbTf.s:263    .text:000000000000017c .L0 
     /tmp/cc0oFbTf.s:269    .text:000000000000017c _ZN3PCBnwEm
     /tmp/cc0oFbTf.s:272    .text:000000000000017c .L0 
     /tmp/cc0oFbTf.s:274    .text:000000000000017c .L0 
     /tmp/cc0oFbTf.s:275    .text:0000000000000180 .L0 
     /tmp/cc0oFbTf.s:278    .text:0000000000000188 .L0 
     /tmp/cc0oFbTf.s:279    .text:0000000000000188 .L0 
GAS LISTING /tmp/cc0oFbTf.s 			page 13


     /tmp/cc0oFbTf.s:281    .text:000000000000018c .L0 
     /tmp/cc0oFbTf.s:283    .text:000000000000018c .L0 
     /tmp/cc0oFbTf.s:284    .text:000000000000018c .L0 
     /tmp/cc0oFbTf.s:287    .text:0000000000000194 .L0 
     /tmp/cc0oFbTf.s:288    .text:0000000000000198 .L0 
     /tmp/cc0oFbTf.s:290    .text:000000000000019c .L0 
     /tmp/cc0oFbTf.s:291    .text:000000000000019c .L0 
     /tmp/cc0oFbTf.s:293    .text:00000000000001a0 .L0 
     /tmp/cc0oFbTf.s:295    .text:00000000000001a4 .L0 
     /tmp/cc0oFbTf.s:301    .text:00000000000001a4 _ZN3PCBdlEPv
     /tmp/cc0oFbTf.s:304    .text:00000000000001a4 .L0 
     /tmp/cc0oFbTf.s:306    .text:00000000000001a4 .L0 
     /tmp/cc0oFbTf.s:307    .text:00000000000001a8 .L0 
     /tmp/cc0oFbTf.s:310    .text:00000000000001b0 .L0 
     /tmp/cc0oFbTf.s:311    .text:00000000000001b0 .L0 
     /tmp/cc0oFbTf.s:313    .text:00000000000001b4 .L0 
     /tmp/cc0oFbTf.s:315    .text:00000000000001b4 .L0 
     /tmp/cc0oFbTf.s:316    .text:00000000000001b4 .L0 
     /tmp/cc0oFbTf.s:319    .text:00000000000001bc .L0 
     /tmp/cc0oFbTf.s:320    .text:00000000000001c0 .L0 
     /tmp/cc0oFbTf.s:322    .text:00000000000001c4 .L0 
     /tmp/cc0oFbTf.s:323    .text:00000000000001c4 .L0 
     /tmp/cc0oFbTf.s:325    .text:00000000000001c8 .L0 
     /tmp/cc0oFbTf.s:327    .text:00000000000001cc .L0 
     /tmp/cc0oFbTf.s:333    .text:00000000000001cc _ZN3PCBD2Ev
     /tmp/cc0oFbTf.s:336    .text:00000000000001cc .L0 
     /tmp/cc0oFbTf.s:3446   .data.rel.local.DW.ref.__gxx_personality_v0:0000000000000000 DW.ref.__gxx_personality_v0
     /tmp/cc0oFbTf.s:340    .text:00000000000001cc .L0 
     /tmp/cc0oFbTf.s:341    .text:00000000000001d0 .L0 
     /tmp/cc0oFbTf.s:344    .text:00000000000001d8 .L0 
     /tmp/cc0oFbTf.s:345    .text:00000000000001d8 .L0 
     /tmp/cc0oFbTf.s:347    .text:00000000000001dc .L0 
     /tmp/cc0oFbTf.s:350    .text:00000000000001dc .L0 
     /tmp/cc0oFbTf.s:351    .text:00000000000001dc .L0 
     /tmp/cc0oFbTf.s:357    .text:00000000000001e8 .L0 
     /tmp/cc0oFbTf.s:358    .text:00000000000001ec .L0 
     /tmp/cc0oFbTf.s:360    .text:00000000000001f0 .L0 
     /tmp/cc0oFbTf.s:361    .text:00000000000001f0 .L0 
     /tmp/cc0oFbTf.s:363    .text:00000000000001f4 .L0 
     /tmp/cc0oFbTf.s:365    .text:00000000000001f8 .L0 
     /tmp/cc0oFbTf.s:333    .text:00000000000001cc _ZN3PCBD1Ev
     /tmp/cc0oFbTf.s:390    .bss:0000000000000008 _ZN3PCB16timeSliceCounterE
     /tmp/cc0oFbTf.s:394    .bss:0000000000000010 _ZN3PCB10exitingPCBE
     /tmp/cc0oFbTf.s:386    .bss:0000000000000000 _ZN3PCB7runningE
     /tmp/cc0oFbTf.s:383    .bss:0000000000000000 .LANCHOR0
     /tmp/cc0oFbTf.s:404    .text:00000000000001f8 .L0 
     /tmp/cc0oFbTf.s:8      .rodata.str1.8:0000000000000000 .LC0
     /tmp/cc0oFbTf.s:32     .text:0000000000000010 .L0 
     /tmp/cc0oFbTf.s:41     .text:0000000000000028 .L0 
     /tmp/cc0oFbTf.s:11     .rodata.str1.8:0000000000000018 .LC1
     /tmp/cc0oFbTf.s:49     .text:000000000000003c .L0 
     /tmp/cc0oFbTf.s:100    .text:000000000000009c .L0 
     /tmp/cc0oFbTf.s:202    .text:000000000000011c .L0 
     /tmp/cc0oFbTf.s:223    .text:0000000000000138 .L0 
     /tmp/cc0oFbTf.s:255    .text:000000000000016c .L12
     /tmp/cc0oFbTf.s:217    .text:0000000000000130 .L10
     /tmp/cc0oFbTf.s:1860   .debug_abbrev:0000000000000000 .Ldebug_abbrev0
GAS LISTING /tmp/cc0oFbTf.s 			page 14


     /tmp/cc0oFbTf.s:3116   .debug_str:000000000000013f .LASF171
     /tmp/cc0oFbTf.s:3386   .debug_str:000000000000098f .LASF172
     /tmp/cc0oFbTf.s:3374   .debug_str:000000000000092b .LASF173
     /tmp/cc0oFbTf.s:5      .text:0000000000000000 .Ltext0
     /tmp/cc0oFbTf.s:397    .text:00000000000001f8 .Letext0
     /tmp/cc0oFbTf.s:3076   .debug_line:0000000000000000 .Ldebug_line0
     /tmp/cc0oFbTf.s:3196   .debug_str:0000000000000424 .LASF0
     /tmp/cc0oFbTf.s:3224   .debug_str:00000000000004f4 .LASF1
     /tmp/cc0oFbTf.s:3312   .debug_str:0000000000000792 .LASF2
     /tmp/cc0oFbTf.s:3320   .debug_str:00000000000007cd .LASF4
     /tmp/cc0oFbTf.s:3212   .debug_str:0000000000000490 .LASF3
     /tmp/cc0oFbTf.s:3092   .debug_str:0000000000000061 .LASF5
     /tmp/cc0oFbTf.s:3294   .debug_str:0000000000000718 .LASF6
     /tmp/cc0oFbTf.s:3280   .debug_str:00000000000006ad .LASF7
     /tmp/cc0oFbTf.s:3216   .debug_str:00000000000004c4 .LASF8
     /tmp/cc0oFbTf.s:3180   .debug_str:000000000000039c .LASF9
     /tmp/cc0oFbTf.s:3184   .debug_str:00000000000003c8 .LASF10
     /tmp/cc0oFbTf.s:3128   .debug_str:0000000000000252 .LASF11
     /tmp/cc0oFbTf.s:3170   .debug_str:0000000000000370 .LASF12
     /tmp/cc0oFbTf.s:3136   .debug_str:0000000000000279 .LASF13
     /tmp/cc0oFbTf.s:3126   .debug_str:0000000000000242 .LASF14
     /tmp/cc0oFbTf.s:3350   .debug_str:00000000000008ae .LASF15
     /tmp/cc0oFbTf.s:3166   .debug_str:000000000000034e .LASF16
     /tmp/cc0oFbTf.s:3344   .debug_str:0000000000000875 .LASF17
     /tmp/cc0oFbTf.s:3376   .debug_str:000000000000094e .LASF28
     /tmp/cc0oFbTf.s:3390   .debug_str:00000000000009a1 .LASF20
     /tmp/cc0oFbTf.s:3220   .debug_str:00000000000004ea .LASF18
     /tmp/cc0oFbTf.s:3130   .debug_str:0000000000000261 .LASF19
     /tmp/cc0oFbTf.s:3356   .debug_str:00000000000008c7 .LASF21
     /tmp/cc0oFbTf.s:3232   .debug_str:0000000000000523 .LASF22
     /tmp/cc0oFbTf.s:3420   .debug_str:0000000000000a59 .LASF39
     /tmp/cc0oFbTf.s:3388   .debug_str:000000000000099b .LASF24
     /tmp/cc0oFbTf.s:3140   .debug_str:000000000000029a .LASF26
     /tmp/cc0oFbTf.s:3198   .debug_str:0000000000000431 .LASF23
     /tmp/cc0oFbTf.s:3338   .debug_str:000000000000084a .LASF29
     /tmp/cc0oFbTf.s:3222   .debug_str:00000000000004ef .LASF25
     /tmp/cc0oFbTf.s:3304   .debug_str:000000000000074d .LASF27
     /tmp/cc0oFbTf.s:3158   .debug_str:000000000000031d .LASF30
     /tmp/cc0oFbTf.s:3300   .debug_str:0000000000000732 .LASF45
     /tmp/cc0oFbTf.s:3106   .debug_str:00000000000000f9 .LASF47
     /tmp/cc0oFbTf.s:3360   .debug_str:00000000000008d2 .LASF174
     /tmp/cc0oFbTf.s:3122   .debug_str:0000000000000228 .LASF31
     /tmp/cc0oFbTf.s:3340   .debug_str:000000000000085f .LASF32
     /tmp/cc0oFbTf.s:3134   .debug_str:000000000000026f .LASF33
     /tmp/cc0oFbTf.s:3114   .debug_str:0000000000000136 .LASF34
     /tmp/cc0oFbTf.s:3284   .debug_str:00000000000006d6 .LASF35
     /tmp/cc0oFbTf.s:3132   .debug_str:0000000000000266 .LASF36
     /tmp/cc0oFbTf.s:3354   .debug_str:00000000000008bf .LASF37
     /tmp/cc0oFbTf.s:3190   .debug_str:00000000000003f4 .LASF38
     /tmp/cc0oFbTf.s:3380   .debug_str:000000000000095c .LASF40
     /tmp/cc0oFbTf.s:3268   .debug_str:0000000000000654 .LASF175
     /tmp/cc0oFbTf.s:3402   .debug_str:00000000000009e4 .LASF41
     /tmp/cc0oFbTf.s:3426   .debug_str:0000000000000a83 .LASF42
     /tmp/cc0oFbTf.s:3422   .debug_str:0000000000000a69 .LASF43
     /tmp/cc0oFbTf.s:3368   .debug_str:00000000000008fd .LASF44
     /tmp/cc0oFbTf.s:3156   .debug_str:0000000000000314 .LASF90
     /tmp/cc0oFbTf.s:3100   .debug_str:00000000000000a3 .LASF92
GAS LISTING /tmp/cc0oFbTf.s 			page 15


     /tmp/cc0oFbTf.s:3228   .debug_str:0000000000000510 .LASF46
     /tmp/cc0oFbTf.s:3272   .debug_str:000000000000066c .LASF48
     /tmp/cc0oFbTf.s:3364   .debug_str:00000000000008ed .LASF49
     /tmp/cc0oFbTf.s:3404   .debug_str:00000000000009e9 .LASF50
     /tmp/cc0oFbTf.s:3330   .debug_str:0000000000000804 .LASF51
     /tmp/cc0oFbTf.s:3230   .debug_str:0000000000000516 .LASF52
     /tmp/cc0oFbTf.s:3236   .debug_str:0000000000000546 .LASF53
     /tmp/cc0oFbTf.s:3430   .debug_str:0000000000000aa7 .LASF54
     /tmp/cc0oFbTf.s:3168   .debug_str:0000000000000364 .LASF55
     /tmp/cc0oFbTf.s:3084   .debug_str:000000000000002a .LASF56
     /tmp/cc0oFbTf.s:3208   .debug_str:0000000000000477 .LASF57
     /tmp/cc0oFbTf.s:3334   .debug_str:0000000000000826 .LASF58
     /tmp/cc0oFbTf.s:3252   .debug_str:00000000000005d5 .LASF59
     /tmp/cc0oFbTf.s:3318   .debug_str:00000000000007c4 .LASF60
     /tmp/cc0oFbTf.s:3346   .debug_str:000000000000088b .LASF61
     /tmp/cc0oFbTf.s:3254   .debug_str:00000000000005e8 .LASF62
     /tmp/cc0oFbTf.s:3080   .debug_str:000000000000000b .LASF63
     /tmp/cc0oFbTf.s:3412   .debug_str:0000000000000a1d .LASF64
     /tmp/cc0oFbTf.s:3278   .debug_str:0000000000000693 .LASF65
     /tmp/cc0oFbTf.s:3342   .debug_str:0000000000000867 .LASF66
     /tmp/cc0oFbTf.s:3296   .debug_str:000000000000071f .LASF67
     /tmp/cc0oFbTf.s:3152   .debug_str:00000000000002f2 .LASF68
     /tmp/cc0oFbTf.s:3418   .debug_str:0000000000000a4e .LASF69
     /tmp/cc0oFbTf.s:3326   .debug_str:00000000000007ee .LASF176
     /tmp/cc0oFbTf.s:3372   .debug_str:0000000000000921 .LASF70
     /tmp/cc0oFbTf.s:3274   .debug_str:000000000000067c .LASF71
     /tmp/cc0oFbTf.s:3146   .debug_str:00000000000002d1 .LASF72
     /tmp/cc0oFbTf.s:3104   .debug_str:00000000000000d1 .LASF74
     /tmp/cc0oFbTf.s:3200   .debug_str:0000000000000436 .LASF73
     /tmp/cc0oFbTf.s:3120   .debug_str:00000000000001fc .LASF75
     /tmp/cc0oFbTf.s:3410   .debug_str:0000000000000a16 .LASF177
     /tmp/cc0oFbTf.s:3118   .debug_str:00000000000001eb .LASF178
     /tmp/cc0oFbTf.s:3082   .debug_str:0000000000000025 .LASF76
     /tmp/cc0oFbTf.s:3352   .debug_str:00000000000008ba .LASF77
     /tmp/cc0oFbTf.s:3240   .debug_str:0000000000000579 .LASF78
     /tmp/cc0oFbTf.s:3144   .debug_str:00000000000002cb .LASF79
     /tmp/cc0oFbTf.s:3378   .debug_str:0000000000000954 .LASF80
     /tmp/cc0oFbTf.s:3108   .debug_str:0000000000000107 .LASF81
     /tmp/cc0oFbTf.s:3178   .debug_str:0000000000000392 .LASF82
     /tmp/cc0oFbTf.s:3096   .debug_str:0000000000000082 .LASF179
     /tmp/cc0oFbTf.s:3424   .debug_str:0000000000000a6f .LASF180
     /tmp/cc0oFbTf.s:3110   .debug_str:0000000000000111 .LASF83
     /tmp/cc0oFbTf.s:3270   .debug_str:0000000000000659 .LASF84
     /tmp/cc0oFbTf.s:3366   .debug_str:00000000000008f5 .LASF85
     /tmp/cc0oFbTf.s:3306   .debug_str:000000000000075e .LASF109
     /tmp/cc0oFbTf.s:3332   .debug_str:0000000000000815 .LASF86
     /tmp/cc0oFbTf.s:3138   .debug_str:0000000000000289 .LASF87
     /tmp/cc0oFbTf.s:3098   .debug_str:000000000000009a .LASF88
     /tmp/cc0oFbTf.s:3398   .debug_str:00000000000009d4 .LASF89
     /tmp/cc0oFbTf.s:3276   .debug_str:0000000000000688 .LASF91
     /tmp/cc0oFbTf.s:3244   .debug_str:000000000000058d .LASF93
     /tmp/cc0oFbTf.s:3164   .debug_str:0000000000000344 .LASF94
     /tmp/cc0oFbTf.s:3282   .debug_str:00000000000006c0 .LASF95
     /tmp/cc0oFbTf.s:3392   .debug_str:00000000000009a6 .LASF96
     /tmp/cc0oFbTf.s:3234   .debug_str:0000000000000528 .LASF97
     /tmp/cc0oFbTf.s:3206   .debug_str:0000000000000465 .LASF98
     /tmp/cc0oFbTf.s:3142   .debug_str:00000000000002ac .LASF99
GAS LISTING /tmp/cc0oFbTf.s 			page 16


     /tmp/cc0oFbTf.s:3416   .debug_str:0000000000000a42 .LASF100
     /tmp/cc0oFbTf.s:3102   .debug_str:00000000000000b6 .LASF101
     /tmp/cc0oFbTf.s:3290   .debug_str:00000000000006f8 .LASF102
     /tmp/cc0oFbTf.s:3094   .debug_str:0000000000000068 .LASF103
     /tmp/cc0oFbTf.s:3328   .debug_str:00000000000007f6 .LASF104
     /tmp/cc0oFbTf.s:3336   .debug_str:000000000000082f .LASF105
     /tmp/cc0oFbTf.s:3256   .debug_str:00000000000005f7 .LASF106
     /tmp/cc0oFbTf.s:3406   .debug_str:00000000000009f4 .LASF107
     /tmp/cc0oFbTf.s:3226   .debug_str:0000000000000507 .LASF108
     /tmp/cc0oFbTf.s:3088   .debug_str:0000000000000042 .LASF110
     /tmp/cc0oFbTf.s:3436   .debug_str:0000000000000ace .LASF111
     /tmp/cc0oFbTf.s:3264   .debug_str:0000000000000627 .LASF112
     /tmp/cc0oFbTf.s:3298   .debug_str:000000000000072b .LASF113
     /tmp/cc0oFbTf.s:3292   .debug_str:0000000000000705 .LASF114
     /tmp/cc0oFbTf.s:3260   .debug_str:000000000000060c .LASF115
     /tmp/cc0oFbTf.s:3218   .debug_str:00000000000004d7 .LASF116
     /tmp/cc0oFbTf.s:3408   .debug_str:0000000000000a0e .LASF117
     /tmp/cc0oFbTf.s:3370   .debug_str:000000000000090d .LASF118
     /tmp/cc0oFbTf.s:3258   .debug_str:0000000000000604 .LASF119
     /tmp/cc0oFbTf.s:3262   .debug_str:0000000000000613 .LASF120
     /tmp/cc0oFbTf.s:3248   .debug_str:00000000000005bb .LASF121
     /tmp/cc0oFbTf.s:3302   .debug_str:0000000000000739 .LASF122
     /tmp/cc0oFbTf.s:3438   .debug_str:0000000000000ad7 .LASF123
     /tmp/cc0oFbTf.s:3204   .debug_str:0000000000000451 .LASF124
     /tmp/cc0oFbTf.s:3348   .debug_str:00000000000008a7 .LASF125
     /tmp/cc0oFbTf.s:3322   .debug_str:00000000000007d4 .LASF126
     /tmp/cc0oFbTf.s:3324   .debug_str:00000000000007e7 .LASF127
     /tmp/cc0oFbTf.s:3162   .debug_str:0000000000000331 .LASF128
     /tmp/cc0oFbTf.s:3160   .debug_str:000000000000032b .LASF129
     /tmp/cc0oFbTf.s:3192   .debug_str:00000000000003fa .LASF130
     /tmp/cc0oFbTf.s:3202   .debug_str:000000000000044b .LASF131
     /tmp/cc0oFbTf.s:3154   .debug_str:0000000000000302 .LASF132
     /tmp/cc0oFbTf.s:3078   .debug_str:0000000000000000 .LASF133
     /tmp/cc0oFbTf.s:3316   .debug_str:00000000000007ac .LASF134
     /tmp/cc0oFbTf.s:3310   .debug_str:0000000000000787 .LASF135
     /tmp/cc0oFbTf.s:3428   .debug_str:0000000000000a8f .LASF136
     /tmp/cc0oFbTf.s:3400   .debug_str:00000000000009da .LASF137
     /tmp/cc0oFbTf.s:3414   .debug_str:0000000000000a2c .LASF138
     /tmp/cc0oFbTf.s:3396   .debug_str:00000000000009ca .LASF139
     /tmp/cc0oFbTf.s:3246   .debug_str:00000000000005a5 .LASF140
     /tmp/cc0oFbTf.s:3188   .debug_str:00000000000003e9 .LASF141
     /tmp/cc0oFbTf.s:3194   .debug_str:000000000000040c .LASF142
     /tmp/cc0oFbTf.s:3384   .debug_str:0000000000000980 .LASF143
     /tmp/cc0oFbTf.s:3182   .debug_str:00000000000003ac .LASF144
     /tmp/cc0oFbTf.s:3288   .debug_str:00000000000006e3 .LASF145
     /tmp/cc0oFbTf.s:3214   .debug_str:00000000000004a2 .LASF146
     /tmp/cc0oFbTf.s:3150   .debug_str:00000000000002eb .LASF147
     /tmp/cc0oFbTf.s:3086   .debug_str:000000000000003a .LASF148
     /tmp/cc0oFbTf.s:3432   .debug_str:0000000000000ab4 .LASF149
     /tmp/cc0oFbTf.s:3382   .debug_str:0000000000000974 .LASF150
     /tmp/cc0oFbTf.s:3112   .debug_str:0000000000000123 .LASF151
     /tmp/cc0oFbTf.s:3250   .debug_str:00000000000005c3 .LASF152
     /tmp/cc0oFbTf.s:3186   .debug_str:00000000000003d6 .LASF153
     /tmp/cc0oFbTf.s:3394   .debug_str:00000000000009b7 .LASF154
     /tmp/cc0oFbTf.s:3124   .debug_str:000000000000022e .LASF155
     /tmp/cc0oFbTf.s:3358   .debug_str:00000000000008cd .LASF156
     /tmp/cc0oFbTf.s:3308   .debug_str:0000000000000776 .LASF157
GAS LISTING /tmp/cc0oFbTf.s 			page 17


     /tmp/cc0oFbTf.s:3362   .debug_str:00000000000008d8 .LASF158
     /tmp/cc0oFbTf.s:3238   .debug_str:000000000000055e .LASF159
     /tmp/cc0oFbTf.s:3174   .debug_str:0000000000000387 .LASF160
     /tmp/cc0oFbTf.s:3090   .debug_str:0000000000000057 .LASF161
     /tmp/cc0oFbTf.s:3148   .debug_str:00000000000002df .LASF164
     /tmp/cc0oFbTf.s:334    .text:00000000000001cc .LFB31
     /tmp/cc0oFbTf.s:366    .text:00000000000001f8 .LFE31
     /tmp/cc0oFbTf.s:2895   .debug_loc:0000000000000000 .LLST12
     /tmp/cc0oFbTf.s:354    .text:00000000000001e8 .LVL27
     /tmp/cc0oFbTf.s:302    .text:00000000000001a4 .LFB29
     /tmp/cc0oFbTf.s:328    .text:00000000000001cc .LFE29
     /tmp/cc0oFbTf.s:2909   .debug_loc:0000000000000039 .LLST11
     /tmp/cc0oFbTf.s:317    .text:00000000000001bc .LVL24
     /tmp/cc0oFbTf.s:270    .text:000000000000017c .LFB28
     /tmp/cc0oFbTf.s:296    .text:00000000000001a4 .LFE28
     /tmp/cc0oFbTf.s:2923   .debug_loc:0000000000000072 .LLST10
     /tmp/cc0oFbTf.s:285    .text:0000000000000194 .LVL22
     /tmp/cc0oFbTf.s:187    .text:0000000000000108 .LFB27
     /tmp/cc0oFbTf.s:264    .text:000000000000017c .LFE27
     /tmp/cc0oFbTf.s:2937   .debug_loc:00000000000000ab .LLST6
     /tmp/cc0oFbTf.s:205    .text:0000000000000124 .LBB7
     /tmp/cc0oFbTf.s:213    .text:0000000000000128 .LBE7
     /tmp/cc0oFbTf.s:2948   .debug_loc:00000000000000e1 .LLST7
     /tmp/cc0oFbTf.s:226    .text:0000000000000140 .LBB9
     /tmp/cc0oFbTf.s:234    .text:0000000000000148 .LBE9
     /tmp/cc0oFbTf.s:2955   .debug_loc:0000000000000104 .LLST8
     /tmp/cc0oFbTf.s:2963   .debug_loc:0000000000000128 .LLST9
     /tmp/cc0oFbTf.s:221    .text:0000000000000138 .LVL14
     /tmp/cc0oFbTf.s:240    .text:0000000000000158 .LVL17
     /tmp/cc0oFbTf.s:261    .text:0000000000000178 .LVL20
     /tmp/cc0oFbTf.s:18     .text:0000000000000000 .LFB26
     /tmp/cc0oFbTf.s:66     .text:0000000000000064 .LFE26
     /tmp/cc0oFbTf.s:34     .text:0000000000000020 .LVL0
     /tmp/cc0oFbTf.s:38     .text:0000000000000028 .LVL1
     /tmp/cc0oFbTf.s:51     .text:000000000000004c .LVL3
     /tmp/cc0oFbTf.s:55     .text:0000000000000054 .LVL4
     /tmp/cc0oFbTf.s:155    .text:00000000000000e0 .LFB25
     /tmp/cc0oFbTf.s:181    .text:0000000000000108 .LFE25
     /tmp/cc0oFbTf.s:2970   .debug_loc:000000000000014b .LLST5
     /tmp/cc0oFbTf.s:170    .text:00000000000000f8 .LVL11
     /tmp/cc0oFbTf.s:131    .text:00000000000000c8 .LFB24
     /tmp/cc0oFbTf.s:149    .text:00000000000000e0 .LFE24
     /tmp/cc0oFbTf.s:3286   .debug_str:00000000000006de .LASF162
     /tmp/cc0oFbTf.s:3242   .debug_str:0000000000000581 .LASF163
     /tmp/cc0oFbTf.s:3266   .debug_str:000000000000063c .LASF165
     /tmp/cc0oFbTf.s:72     .text:0000000000000064 .LFB22
     /tmp/cc0oFbTf.s:123    .text:00000000000000c8 .LFE22
     /tmp/cc0oFbTf.s:2984   .debug_loc:0000000000000184 .LLST0
     /tmp/cc0oFbTf.s:3002   .debug_loc:00000000000001d0 .LLST1
     /tmp/cc0oFbTf.s:3016   .debug_loc:0000000000000209 .LLST2
     /tmp/cc0oFbTf.s:3030   .debug_loc:0000000000000242 .LLST3
     /tmp/cc0oFbTf.s:3049   .debug_loc:000000000000028f .LLST4
     /tmp/cc0oFbTf.s:105    .text:00000000000000b0 .LVL7
     /tmp/cc0oFbTf.s:3434   .debug_str:0000000000000ac3 .LASF166
     /tmp/cc0oFbTf.s:3176   .debug_str:000000000000038c .LASF168
     /tmp/cc0oFbTf.s:3314   .debug_str:00000000000007a0 .LASF167
     /tmp/cc0oFbTf.s:3172   .debug_str:000000000000037f .LASF169
GAS LISTING /tmp/cc0oFbTf.s 			page 18


     /tmp/cc0oFbTf.s:3210   .debug_str:0000000000000484 .LASF170
     /tmp/cc0oFbTf.s:339    .text:00000000000001cc .LVL25
     /tmp/cc0oFbTf.s:352    .text:00000000000001e0 .LVL26
     /tmp/cc0oFbTf.s:305    .text:00000000000001a4 .LVL23
     /tmp/cc0oFbTf.s:273    .text:000000000000017c .LVL21
     /tmp/cc0oFbTf.s:203    .text:0000000000000124 .LVL12
     /tmp/cc0oFbTf.s:250    .text:0000000000000164 .LVL18
     /tmp/cc0oFbTf.s:254    .text:000000000000016c .LVL19
     /tmp/cc0oFbTf.s:211    .text:0000000000000128 .LVL13
     /tmp/cc0oFbTf.s:225    .text:0000000000000140 .LVL15
     /tmp/cc0oFbTf.s:232    .text:0000000000000148 .LVL16
     /tmp/cc0oFbTf.s:158    .text:00000000000000e0 .LVL10
     /tmp/cc0oFbTf.s:75     .text:0000000000000064 .LVL5
     /tmp/cc0oFbTf.s:118    .text:00000000000000c0 .LVL8
     /tmp/cc0oFbTf.s:97     .text:0000000000000098 .LVL6
     /tmp/cc0oFbTf.s:405    .debug_info:0000000000000000 .Ldebug_info0
     /tmp/cc0oFbTf.s:369    .gcc_except_table:0000000000000000 .LLSDA31

UNDEFINED SYMBOLS
_ZN5Riscv11printStringEPKc
_ZN5Riscv10popSppSpieEv
thread_exit
_ZN9Scheduler3putEP3PCB
_ZN9Scheduler3getEv
_ZN3PCB13contextSwitchEPNS_7ContextES1_
_Z7kmallocm
_Z5kfreePv
__gxx_personality_v0
