GAS LISTING /tmp/ccG50rsK.s 			page 1


   1              		.file	"Queue.cpp"
   2              		.option pic
   3              		.option norelax
   4              		.text
   5              	.Ltext0:
   6              		.align	2
   7              		.globl	_ZN5Queue3popEv
   9              	_ZN5Queue3popEv:
  10              	.LFB0:
  11              		.file 1 "src/Queue.cpp"
   1:src/Queue.cpp **** //
   2:src/Queue.cpp **** // Created by os on 5/3/22.
   3:src/Queue.cpp **** //
   4:src/Queue.cpp **** 
   5:src/Queue.cpp **** #include "../h/Queue.h"
   6:src/Queue.cpp **** 
   7:src/Queue.cpp **** void Queue::pop() {
  12              		.loc 1 7 19
  13              		.cfi_startproc
  14              	.LVL0:
  15 0000 130101FF 		addi	sp,sp,-16
  16              		.cfi_def_cfa_offset 16
  17 0004 23348100 		sd	s0,8(sp)
  18              		.cfi_offset 8, -8
  19 0008 13040101 		addi	s0,sp,16
  20              		.cfi_def_cfa 8, 0
   8:src/Queue.cpp ****     Elem* newFirst = first->next;
  21              		.loc 1 8 5
  22              		.loc 1 8 22 is_stmt 0
  23 000c 83370500 		ld	a5,0(a0)
  24              		.loc 1 8 11
  25 0010 83B78700 		ld	a5,8(a5)
  26              	.LVL1:
   9:src/Queue.cpp ****     //kfree(first);
  10:src/Queue.cpp ****     first = newFirst;
  27              		.loc 1 10 5 is_stmt 1
  28              		.loc 1 10 11 is_stmt 0
  29 0014 2330F500 		sd	a5,0(a0)
  11:src/Queue.cpp ****     if(first == 0)
  30              		.loc 1 11 5 is_stmt 1
  31 0018 63880700 		beqz	a5,.L4
  32              	.L1:
  12:src/Queue.cpp ****         first = last = 0;
  13:src/Queue.cpp **** }
  33              		.loc 1 13 1 is_stmt 0
  34 001c 03348100 		ld	s0,8(sp)
  35              		.cfi_remember_state
  36              		.cfi_restore 8
  37              		.cfi_def_cfa 2, 16
  38 0020 13010101 		addi	sp,sp,16
  39              		.cfi_def_cfa_offset 0
  40 0024 67800000 		jr	ra
  41              	.L4:
  42              		.cfi_restore_state
  12:src/Queue.cpp ****         first = last = 0;
  43              		.loc 1 12 9 is_stmt 1
  12:src/Queue.cpp ****         first = last = 0;
GAS LISTING /tmp/ccG50rsK.s 			page 2


  44              		.loc 1 12 22 is_stmt 0
  45 0028 23340500 		sd	zero,8(a0)
  12:src/Queue.cpp ****         first = last = 0;
  46              		.loc 1 12 15
  47 002c 23300500 		sd	zero,0(a0)
  48              		.loc 1 13 1
  49 0030 6FF0DFFE 		j	.L1
  50              		.cfi_endproc
  51              	.LFE0:
  53              		.align	2
  54              		.globl	_ZN5Queue4pushEP3PCB
  56              	_ZN5Queue4pushEP3PCB:
  57              	.LFB1:
  14:src/Queue.cpp **** 
  15:src/Queue.cpp **** void Queue::push(PCB* t) {
  58              		.loc 1 15 26 is_stmt 1
  59              		.cfi_startproc
  60              	.LVL2:
  61 0034 130101FE 		addi	sp,sp,-32
  62              		.cfi_def_cfa_offset 32
  63 0038 233C1100 		sd	ra,24(sp)
  64 003c 23388100 		sd	s0,16(sp)
  65 0040 23349100 		sd	s1,8(sp)
  66 0044 23302101 		sd	s2,0(sp)
  67              		.cfi_offset 1, -8
  68              		.cfi_offset 8, -16
  69              		.cfi_offset 9, -24
  70              		.cfi_offset 18, -32
  71 0048 13040102 		addi	s0,sp,32
  72              		.cfi_def_cfa 8, 0
  73 004c 93040500 		mv	s1,a0
  74 0050 13890500 		mv	s2,a1
  16:src/Queue.cpp ****     Elem* newElem = (Elem*) kmalloc(sizeof(Elem));
  75              		.loc 1 16 5
  76              		.loc 1 16 36 is_stmt 0
  77 0054 13050001 		li	a0,16
  78              	.LVL3:
  79 0058 97000000 		call	_Z7kmallocm@plt
  79      E7800000 
  80              	.LVL4:
  17:src/Queue.cpp ****     newElem->data = t;
  81              		.loc 1 17 5 is_stmt 1
  82              		.loc 1 17 19 is_stmt 0
  83 0060 23302501 		sd	s2,0(a0)
  18:src/Queue.cpp ****     newElem->next = 0;
  84              		.loc 1 18 5 is_stmt 1
  85              		.loc 1 18 19 is_stmt 0
  86 0064 23340500 		sd	zero,8(a0)
  19:src/Queue.cpp ****     if(first == 0) {
  87              		.loc 1 19 5 is_stmt 1
  88              		.loc 1 19 8 is_stmt 0
  89 0068 83B70400 		ld	a5,0(s1)
  90              		.loc 1 19 5
  91 006c 63840702 		beqz	a5,.L9
  20:src/Queue.cpp ****         first = newElem;
  21:src/Queue.cpp ****         last = newElem;
  22:src/Queue.cpp ****         first->next = last->next = 0;
GAS LISTING /tmp/ccG50rsK.s 			page 3


  23:src/Queue.cpp ****     }
  24:src/Queue.cpp ****     else
  25:src/Queue.cpp ****     {
  26:src/Queue.cpp ****         last->next = newElem;
  92              		.loc 1 26 9 is_stmt 1
  93 0070 83B78400 		ld	a5,8(s1)
  94              		.loc 1 26 20 is_stmt 0
  95 0074 23B4A700 		sd	a0,8(a5)
  27:src/Queue.cpp ****         last = newElem;
  96              		.loc 1 27 9 is_stmt 1
  97              		.loc 1 27 14 is_stmt 0
  98 0078 23B4A400 		sd	a0,8(s1)
  99              	.L5:
  28:src/Queue.cpp ****     }
  29:src/Queue.cpp **** }
 100              		.loc 1 29 1
 101 007c 83308101 		ld	ra,24(sp)
 102              		.cfi_remember_state
 103              		.cfi_restore 1
 104 0080 03340101 		ld	s0,16(sp)
 105              		.cfi_restore 8
 106              		.cfi_def_cfa 2, 32
 107 0084 83348100 		ld	s1,8(sp)
 108              		.cfi_restore 9
 109              	.LVL5:
 110 0088 03390100 		ld	s2,0(sp)
 111              		.cfi_restore 18
 112              	.LVL6:
 113 008c 13010102 		addi	sp,sp,32
 114              		.cfi_def_cfa_offset 0
 115 0090 67800000 		jr	ra
 116              	.LVL7:
 117              	.L9:
 118              		.cfi_restore_state
  20:src/Queue.cpp ****         last = newElem;
 119              		.loc 1 20 9 is_stmt 1
  20:src/Queue.cpp ****         last = newElem;
 120              		.loc 1 20 15 is_stmt 0
 121 0094 23B0A400 		sd	a0,0(s1)
  21:src/Queue.cpp ****         first->next = last->next = 0;
 122              		.loc 1 21 9 is_stmt 1
  21:src/Queue.cpp ****         first->next = last->next = 0;
 123              		.loc 1 21 14 is_stmt 0
 124 0098 23B4A400 		sd	a0,8(s1)
  22:src/Queue.cpp ****     }
 125              		.loc 1 22 9 is_stmt 1
  22:src/Queue.cpp ****     }
 126              		.loc 1 22 34 is_stmt 0
 127 009c 23340500 		sd	zero,8(a0)
  22:src/Queue.cpp ****     }
 128              		.loc 1 22 9
 129 00a0 83B70400 		ld	a5,0(s1)
  22:src/Queue.cpp ****     }
 130              		.loc 1 22 21
 131 00a4 23B40700 		sd	zero,8(a5)
 132 00a8 6FF05FFD 		j	.L5
 133              		.cfi_endproc
GAS LISTING /tmp/ccG50rsK.s 			page 4


 134              	.LFE1:
 136              		.align	2
 137              		.globl	_ZN5Queue5frontEv
 139              	_ZN5Queue5frontEv:
 140              	.LFB2:
  30:src/Queue.cpp **** 
  31:src/Queue.cpp **** 
  32:src/Queue.cpp **** PCB* Queue::front() {
 141              		.loc 1 32 21 is_stmt 1
 142              		.cfi_startproc
 143              	.LVL8:
 144 00ac 130101FF 		addi	sp,sp,-16
 145              		.cfi_def_cfa_offset 16
 146 00b0 23348100 		sd	s0,8(sp)
 147              		.cfi_offset 8, -8
 148 00b4 13040101 		addi	s0,sp,16
 149              		.cfi_def_cfa 8, 0
  33:src/Queue.cpp ****     if(first == 0)
 150              		.loc 1 33 5
 151              		.loc 1 33 8 is_stmt 0
 152 00b8 03350500 		ld	a0,0(a0)
 153              	.LVL9:
 154              		.loc 1 33 5
 155 00bc 63040500 		beqz	a0,.L10
  34:src/Queue.cpp ****         return 0;
  35:src/Queue.cpp ****     return first->data;
 156              		.loc 1 35 5 is_stmt 1
 157              		.loc 1 35 19 is_stmt 0
 158 00c0 03350500 		ld	a0,0(a0)
 159              	.L10:
  36:src/Queue.cpp **** }
 160              		.loc 1 36 1
 161 00c4 03348100 		ld	s0,8(sp)
 162              		.cfi_restore 8
 163              		.cfi_def_cfa 2, 16
 164 00c8 13010101 		addi	sp,sp,16
 165              		.cfi_def_cfa_offset 0
 166 00cc 67800000 		jr	ra
 167              		.cfi_endproc
 168              	.LFE2:
 170              		.align	2
 171              		.globl	_ZN5QueueC2Ev
 173              	_ZN5QueueC2Ev:
 174              	.LFB4:
  37:src/Queue.cpp **** 
  38:src/Queue.cpp **** Queue::Queue() {
 175              		.loc 1 38 1 is_stmt 1
 176              		.cfi_startproc
 177              	.LVL10:
 178 00d0 130101FF 		addi	sp,sp,-16
 179              		.cfi_def_cfa_offset 16
 180 00d4 23348100 		sd	s0,8(sp)
 181              		.cfi_offset 8, -8
 182 00d8 13040101 		addi	s0,sp,16
 183              		.cfi_def_cfa 8, 0
 184              	.LBB2:
  39:src/Queue.cpp ****     first = last = 0;
GAS LISTING /tmp/ccG50rsK.s 			page 5


 185              		.loc 1 39 5
 186              		.loc 1 39 18 is_stmt 0
 187 00dc 23340500 		sd	zero,8(a0)
 188              		.loc 1 39 11
 189 00e0 23300500 		sd	zero,0(a0)
 190              	.LBE2:
  40:src/Queue.cpp **** }
 191              		.loc 1 40 1
 192 00e4 03348100 		ld	s0,8(sp)
 193              		.cfi_restore 8
 194              		.cfi_def_cfa 2, 16
 195 00e8 13010101 		addi	sp,sp,16
 196              		.cfi_def_cfa_offset 0
 197 00ec 67800000 		jr	ra
 198              		.cfi_endproc
 199              	.LFE4:
 201              		.globl	_ZN5QueueC1Ev
 202              		.set	_ZN5QueueC1Ev,_ZN5QueueC2Ev
 203              		.align	2
 204              		.globl	_ZN5QueueD2Ev
 206              	_ZN5QueueD2Ev:
 207              	.LFB7:
  41:src/Queue.cpp **** 
  42:src/Queue.cpp **** Queue::~Queue() {
 208              		.loc 1 42 1 is_stmt 1
 209              		.cfi_startproc
 210              	.LVL11:
 211 00f0 130101FF 		addi	sp,sp,-16
 212              		.cfi_def_cfa_offset 16
 213 00f4 23348100 		sd	s0,8(sp)
 214              		.cfi_offset 8, -8
 215 00f8 13040101 		addi	s0,sp,16
 216              		.cfi_def_cfa 8, 0
 217              	.LBB3:
  43:src/Queue.cpp ****     Elem* curr = first;
 218              		.loc 1 43 5
 219              		.loc 1 43 11 is_stmt 0
 220 00fc 83370500 		ld	a5,0(a0)
 221              	.LVL12:
 222              	.L16:
  44:src/Queue.cpp ****     while(curr != 0)
 223              		.loc 1 44 5 is_stmt 1
 224              		.loc 1 44 16
 225 0100 63900700 		bnez	a5,.L16
 226              	.LBE3:
  45:src/Queue.cpp ****     {
  46:src/Queue.cpp ****         //todo
  47:src/Queue.cpp ****         //vrati ovo
  48:src/Queue.cpp ****         //sad je zakomentarisano zbog kfree
  49:src/Queue.cpp ****         //Elem* old = curr;
  50:src/Queue.cpp ****         //curr = curr->next;
  51:src/Queue.cpp ****         //kfree(old);
  52:src/Queue.cpp ****     }
  53:src/Queue.cpp **** }
 227              		.loc 1 53 1 is_stmt 0
 228 0104 03348100 		ld	s0,8(sp)
 229              		.cfi_restore 8
GAS LISTING /tmp/ccG50rsK.s 			page 6


 230              		.cfi_def_cfa 2, 16
 231 0108 13010101 		addi	sp,sp,16
 232              		.cfi_def_cfa_offset 0
 233 010c 67800000 		jr	ra
 234              		.cfi_endproc
 235              	.LFE7:
 237              		.globl	_ZN5QueueD1Ev
 238              		.set	_ZN5QueueD1Ev,_ZN5QueueD2Ev
 239              		.align	2
 240              		.globl	_ZN5Queue4sizeEv
 242              	_ZN5Queue4sizeEv:
 243              	.LFB9:
  54:src/Queue.cpp **** 
  55:src/Queue.cpp **** int Queue::size() {
 244              		.loc 1 55 19 is_stmt 1
 245              		.cfi_startproc
 246              	.LVL13:
 247 0110 130101FF 		addi	sp,sp,-16
 248              		.cfi_def_cfa_offset 16
 249 0114 23348100 		sd	s0,8(sp)
 250              		.cfi_offset 8, -8
 251 0118 13040101 		addi	s0,sp,16
 252              		.cfi_def_cfa 8, 0
  56:src/Queue.cpp ****     Elem* curr = first;
 253              		.loc 1 56 5
 254              		.loc 1 56 11 is_stmt 0
 255 011c 83370500 		ld	a5,0(a0)
 256              	.LVL14:
  57:src/Queue.cpp ****     int cnt = 0;
 257              		.loc 1 57 5 is_stmt 1
 258              		.loc 1 57 9 is_stmt 0
 259 0120 13050000 		li	a0,0
 260              	.LVL15:
 261              	.L20:
  58:src/Queue.cpp ****     while(curr != 0)
 262              		.loc 1 58 5 is_stmt 1
 263              		.loc 1 58 16
 264 0124 63880700 		beqz	a5,.L19
  59:src/Queue.cpp ****     {
  60:src/Queue.cpp ****         cnt++;
 265              		.loc 1 60 9
 266              		.loc 1 60 12 is_stmt 0
 267 0128 1B051500 		addiw	a0,a0,1
 268              	.LVL16:
  61:src/Queue.cpp ****         curr = curr->next;
 269              		.loc 1 61 9 is_stmt 1
 270              		.loc 1 61 14 is_stmt 0
 271 012c 83B78700 		ld	a5,8(a5)
 272              	.LVL17:
  58:src/Queue.cpp ****     while(curr != 0)
 273              		.loc 1 58 5
 274 0130 6FF05FFF 		j	.L20
 275              	.LVL18:
 276              	.L19:
  62:src/Queue.cpp ****     }
  63:src/Queue.cpp ****     return cnt;
 277              		.loc 1 63 5 is_stmt 1
GAS LISTING /tmp/ccG50rsK.s 			page 7


  64:src/Queue.cpp **** }...
 278              		.loc 1 64 1 is_stmt 0
 279 0134 03348100 		ld	s0,8(sp)
 280              		.cfi_restore 8
 281              		.cfi_def_cfa 2, 16
 282 0138 13010101 		addi	sp,sp,16
 283              		.cfi_def_cfa_offset 0
 284 013c 67800000 		jr	ra
 285              		.cfi_endproc
 286              	.LFE9:
 288              	.Letext0:
 289              		.file 2 "src/../h/../lib/hw.h"
 290              		.file 3 "src/../h/Queue.h"
 291              		.file 4 "src/../h/MemoryAllocator.h"
GAS LISTING /tmp/ccG50rsK.s 			page 8


DEFINED SYMBOLS
                            *ABS*:0000000000000000 Queue.cpp
     /tmp/ccG50rsK.s:9      .text:0000000000000000 _ZN5Queue3popEv
     /tmp/ccG50rsK.s:13     .text:0000000000000000 .L0 
     /tmp/ccG50rsK.s:15     .text:0000000000000000 .L0 
     /tmp/ccG50rsK.s:16     .text:0000000000000004 .L0 
     /tmp/ccG50rsK.s:18     .text:0000000000000008 .L0 
     /tmp/ccG50rsK.s:20     .text:000000000000000c .L0 
     /tmp/ccG50rsK.s:22     .text:000000000000000c .L0 
     /tmp/ccG50rsK.s:23     .text:000000000000000c .L0 
     /tmp/ccG50rsK.s:25     .text:0000000000000010 .L0 
     /tmp/ccG50rsK.s:28     .text:0000000000000014 .L0 
     /tmp/ccG50rsK.s:29     .text:0000000000000014 .L0 
     /tmp/ccG50rsK.s:31     .text:0000000000000018 .L0 
     /tmp/ccG50rsK.s:34     .text:000000000000001c .L0 
     /tmp/ccG50rsK.s:35     .text:0000000000000020 .L0 
     /tmp/ccG50rsK.s:36     .text:0000000000000020 .L0 
     /tmp/ccG50rsK.s:37     .text:0000000000000020 .L0 
     /tmp/ccG50rsK.s:39     .text:0000000000000024 .L0 
     /tmp/ccG50rsK.s:42     .text:0000000000000028 .L0 
     /tmp/ccG50rsK.s:44     .text:0000000000000028 .L0 
     /tmp/ccG50rsK.s:45     .text:0000000000000028 .L0 
     /tmp/ccG50rsK.s:47     .text:000000000000002c .L0 
     /tmp/ccG50rsK.s:49     .text:0000000000000030 .L0 
     /tmp/ccG50rsK.s:50     .text:0000000000000034 .L0 
     /tmp/ccG50rsK.s:56     .text:0000000000000034 _ZN5Queue4pushEP3PCB
     /tmp/ccG50rsK.s:59     .text:0000000000000034 .L0 
     /tmp/ccG50rsK.s:61     .text:0000000000000034 .L0 
     /tmp/ccG50rsK.s:62     .text:0000000000000038 .L0 
     /tmp/ccG50rsK.s:67     .text:0000000000000048 .L0 
     /tmp/ccG50rsK.s:68     .text:0000000000000048 .L0 
     /tmp/ccG50rsK.s:69     .text:0000000000000048 .L0 
     /tmp/ccG50rsK.s:70     .text:0000000000000048 .L0 
     /tmp/ccG50rsK.s:72     .text:000000000000004c .L0 
     /tmp/ccG50rsK.s:76     .text:0000000000000054 .L0 
     /tmp/ccG50rsK.s:77     .text:0000000000000054 .L0 
     /tmp/ccG50rsK.s:82     .text:0000000000000060 .L0 
     /tmp/ccG50rsK.s:83     .text:0000000000000060 .L0 
     /tmp/ccG50rsK.s:85     .text:0000000000000064 .L0 
     /tmp/ccG50rsK.s:86     .text:0000000000000064 .L0 
     /tmp/ccG50rsK.s:88     .text:0000000000000068 .L0 
     /tmp/ccG50rsK.s:89     .text:0000000000000068 .L0 
     /tmp/ccG50rsK.s:91     .text:000000000000006c .L0 
     /tmp/ccG50rsK.s:93     .text:0000000000000070 .L0 
     /tmp/ccG50rsK.s:95     .text:0000000000000074 .L0 
     /tmp/ccG50rsK.s:97     .text:0000000000000078 .L0 
     /tmp/ccG50rsK.s:98     .text:0000000000000078 .L0 
     /tmp/ccG50rsK.s:101    .text:000000000000007c .L0 
     /tmp/ccG50rsK.s:102    .text:0000000000000080 .L0 
     /tmp/ccG50rsK.s:103    .text:0000000000000080 .L0 
     /tmp/ccG50rsK.s:105    .text:0000000000000084 .L0 
     /tmp/ccG50rsK.s:106    .text:0000000000000084 .L0 
     /tmp/ccG50rsK.s:108    .text:0000000000000088 .L0 
     /tmp/ccG50rsK.s:111    .text:000000000000008c .L0 
     /tmp/ccG50rsK.s:114    .text:0000000000000090 .L0 
     /tmp/ccG50rsK.s:118    .text:0000000000000094 .L0 
     /tmp/ccG50rsK.s:120    .text:0000000000000094 .L0 
GAS LISTING /tmp/ccG50rsK.s 			page 9


     /tmp/ccG50rsK.s:121    .text:0000000000000094 .L0 
     /tmp/ccG50rsK.s:123    .text:0000000000000098 .L0 
     /tmp/ccG50rsK.s:124    .text:0000000000000098 .L0 
     /tmp/ccG50rsK.s:126    .text:000000000000009c .L0 
     /tmp/ccG50rsK.s:127    .text:000000000000009c .L0 
     /tmp/ccG50rsK.s:129    .text:00000000000000a0 .L0 
     /tmp/ccG50rsK.s:131    .text:00000000000000a4 .L0 
     /tmp/ccG50rsK.s:133    .text:00000000000000ac .L0 
     /tmp/ccG50rsK.s:139    .text:00000000000000ac _ZN5Queue5frontEv
     /tmp/ccG50rsK.s:142    .text:00000000000000ac .L0 
     /tmp/ccG50rsK.s:144    .text:00000000000000ac .L0 
     /tmp/ccG50rsK.s:145    .text:00000000000000b0 .L0 
     /tmp/ccG50rsK.s:147    .text:00000000000000b4 .L0 
     /tmp/ccG50rsK.s:149    .text:00000000000000b8 .L0 
     /tmp/ccG50rsK.s:151    .text:00000000000000b8 .L0 
     /tmp/ccG50rsK.s:152    .text:00000000000000b8 .L0 
     /tmp/ccG50rsK.s:155    .text:00000000000000bc .L0 
     /tmp/ccG50rsK.s:157    .text:00000000000000c0 .L0 
     /tmp/ccG50rsK.s:158    .text:00000000000000c0 .L0 
     /tmp/ccG50rsK.s:161    .text:00000000000000c4 .L0 
     /tmp/ccG50rsK.s:162    .text:00000000000000c8 .L0 
     /tmp/ccG50rsK.s:163    .text:00000000000000c8 .L0 
     /tmp/ccG50rsK.s:165    .text:00000000000000cc .L0 
     /tmp/ccG50rsK.s:167    .text:00000000000000d0 .L0 
     /tmp/ccG50rsK.s:173    .text:00000000000000d0 _ZN5QueueC2Ev
     /tmp/ccG50rsK.s:176    .text:00000000000000d0 .L0 
     /tmp/ccG50rsK.s:178    .text:00000000000000d0 .L0 
     /tmp/ccG50rsK.s:179    .text:00000000000000d4 .L0 
     /tmp/ccG50rsK.s:181    .text:00000000000000d8 .L0 
     /tmp/ccG50rsK.s:183    .text:00000000000000dc .L0 
     /tmp/ccG50rsK.s:186    .text:00000000000000dc .L0 
     /tmp/ccG50rsK.s:187    .text:00000000000000dc .L0 
     /tmp/ccG50rsK.s:189    .text:00000000000000e0 .L0 
     /tmp/ccG50rsK.s:192    .text:00000000000000e4 .L0 
     /tmp/ccG50rsK.s:193    .text:00000000000000e8 .L0 
     /tmp/ccG50rsK.s:194    .text:00000000000000e8 .L0 
     /tmp/ccG50rsK.s:196    .text:00000000000000ec .L0 
     /tmp/ccG50rsK.s:198    .text:00000000000000f0 .L0 
     /tmp/ccG50rsK.s:173    .text:00000000000000d0 _ZN5QueueC1Ev
     /tmp/ccG50rsK.s:206    .text:00000000000000f0 _ZN5QueueD2Ev
     /tmp/ccG50rsK.s:209    .text:00000000000000f0 .L0 
     /tmp/ccG50rsK.s:211    .text:00000000000000f0 .L0 
     /tmp/ccG50rsK.s:212    .text:00000000000000f4 .L0 
     /tmp/ccG50rsK.s:214    .text:00000000000000f8 .L0 
     /tmp/ccG50rsK.s:216    .text:00000000000000fc .L0 
     /tmp/ccG50rsK.s:219    .text:00000000000000fc .L0 
     /tmp/ccG50rsK.s:220    .text:00000000000000fc .L0 
     /tmp/ccG50rsK.s:224    .text:0000000000000100 .L0 
     /tmp/ccG50rsK.s:225    .text:0000000000000100 .L0 
     /tmp/ccG50rsK.s:228    .text:0000000000000104 .L0 
     /tmp/ccG50rsK.s:229    .text:0000000000000108 .L0 
     /tmp/ccG50rsK.s:230    .text:0000000000000108 .L0 
     /tmp/ccG50rsK.s:232    .text:000000000000010c .L0 
     /tmp/ccG50rsK.s:234    .text:0000000000000110 .L0 
     /tmp/ccG50rsK.s:206    .text:00000000000000f0 _ZN5QueueD1Ev
     /tmp/ccG50rsK.s:242    .text:0000000000000110 _ZN5Queue4sizeEv
     /tmp/ccG50rsK.s:245    .text:0000000000000110 .L0 
GAS LISTING /tmp/ccG50rsK.s 			page 10


     /tmp/ccG50rsK.s:247    .text:0000000000000110 .L0 
     /tmp/ccG50rsK.s:248    .text:0000000000000114 .L0 
     /tmp/ccG50rsK.s:250    .text:0000000000000118 .L0 
     /tmp/ccG50rsK.s:252    .text:000000000000011c .L0 
     /tmp/ccG50rsK.s:254    .text:000000000000011c .L0 
     /tmp/ccG50rsK.s:255    .text:000000000000011c .L0 
     /tmp/ccG50rsK.s:258    .text:0000000000000120 .L0 
     /tmp/ccG50rsK.s:259    .text:0000000000000120 .L0 
     /tmp/ccG50rsK.s:263    .text:0000000000000124 .L0 
     /tmp/ccG50rsK.s:264    .text:0000000000000124 .L0 
     /tmp/ccG50rsK.s:266    .text:0000000000000128 .L0 
     /tmp/ccG50rsK.s:267    .text:0000000000000128 .L0 
     /tmp/ccG50rsK.s:270    .text:000000000000012c .L0 
     /tmp/ccG50rsK.s:271    .text:000000000000012c .L0 
     /tmp/ccG50rsK.s:274    .text:0000000000000130 .L0 
     /tmp/ccG50rsK.s:278    .text:0000000000000134 .L0 
     /tmp/ccG50rsK.s:279    .text:0000000000000134 .L0 
     /tmp/ccG50rsK.s:280    .text:0000000000000138 .L0 
     /tmp/ccG50rsK.s:281    .text:0000000000000138 .L0 
     /tmp/ccG50rsK.s:283    .text:000000000000013c .L0 
     /tmp/ccG50rsK.s:285    .text:0000000000000140 .L0 
     /tmp/ccG50rsK.s:292    .text:0000000000000140 .L0 
     /tmp/ccG50rsK.s:41     .text:0000000000000028 .L4
     /tmp/ccG50rsK.s:32     .text:000000000000001c .L1
     /tmp/ccG50rsK.s:117    .text:0000000000000094 .L9
     /tmp/ccG50rsK.s:99     .text:000000000000007c .L5
     /tmp/ccG50rsK.s:159    .text:00000000000000c4 .L10
     /tmp/ccG50rsK.s:222    .text:0000000000000100 .L16
     /tmp/ccG50rsK.s:276    .text:0000000000000134 .L19
     /tmp/ccG50rsK.s:261    .text:0000000000000124 .L20
     /tmp/ccG50rsK.s:761    .debug_abbrev:0000000000000000 .Ldebug_abbrev0
     /tmp/ccG50rsK.s:1439   .debug_str:0000000000000033 .LASF37
     /tmp/ccG50rsK.s:1509   .debug_str:0000000000000298 .LASF38
     /tmp/ccG50rsK.s:1501   .debug_str:000000000000024d .LASF39
     /tmp/ccG50rsK.s:5      .text:0000000000000000 .Ltext0
     /tmp/ccG50rsK.s:288    .text:0000000000000140 .Letext0
     /tmp/ccG50rsK.s:1427   .debug_line:0000000000000000 .Ldebug_line0
     /tmp/ccG50rsK.s:1489   .debug_str:0000000000000200 .LASF0
     /tmp/ccG50rsK.s:1483   .debug_str:00000000000001db .LASF1
     /tmp/ccG50rsK.s:1475   .debug_str:00000000000001a8 .LASF2
     /tmp/ccG50rsK.s:1447   .debug_str:00000000000000ef .LASF4
     /tmp/ccG50rsK.s:1481   .debug_str:00000000000001c9 .LASF3
     /tmp/ccG50rsK.s:1435   .debug_str:0000000000000027 .LASF5
     /tmp/ccG50rsK.s:1429   .debug_str:0000000000000000 .LASF6
     /tmp/ccG50rsK.s:1469   .debug_str:0000000000000181 .LASF7
     /tmp/ccG50rsK.s:1493   .debug_str:0000000000000212 .LASF8
     /tmp/ccG50rsK.s:1443   .debug_str:00000000000000da .LASF9
     /tmp/ccG50rsK.s:1517   .debug_str:00000000000002bc .LASF10
     /tmp/ccG50rsK.s:1473   .debug_str:0000000000000199 .LASF11
     /tmp/ccG50rsK.s:1507   .debug_str:0000000000000288 .LASF12
     /tmp/ccG50rsK.s:1499   .debug_str:000000000000023d .LASF13
     /tmp/ccG50rsK.s:1485   .debug_str:00000000000001ee .LASF14
     /tmp/ccG50rsK.s:1459   .debug_str:0000000000000134 .LASF15
     /tmp/ccG50rsK.s:1495   .debug_str:0000000000000222 .LASF16
     /tmp/ccG50rsK.s:1431   .debug_str:0000000000000013 .LASF27
     /tmp/ccG50rsK.s:1497   .debug_str:0000000000000238 .LASF19
     /tmp/ccG50rsK.s:1471   .debug_str:0000000000000194 .LASF17
GAS LISTING /tmp/ccG50rsK.s 			page 11


     /tmp/ccG50rsK.s:1437   .debug_str:000000000000002e .LASF18
     /tmp/ccG50rsK.s:1455   .debug_str:0000000000000129 .LASF20
     /tmp/ccG50rsK.s:1491   .debug_str:000000000000020d .LASF21
     /tmp/ccG50rsK.s:1453   .debug_str:0000000000000119 .LASF40
     /tmp/ccG50rsK.s:1487   .debug_str:00000000000001fa .LASF23
     /tmp/ccG50rsK.s:1467   .debug_str:000000000000016f .LASF25
     /tmp/ccG50rsK.s:1457   .debug_str:000000000000012f .LASF22
     /tmp/ccG50rsK.s:1449   .debug_str:00000000000000f6 .LASF28
     /tmp/ccG50rsK.s:1513   .debug_str:00000000000002af .LASF24
     /tmp/ccG50rsK.s:1461   .debug_str:000000000000014a .LASF26
     /tmp/ccG50rsK.s:1503   .debug_str:0000000000000270 .LASF29
     /tmp/ccG50rsK.s:1445   .debug_str:00000000000000e8 .LASF41
     /tmp/ccG50rsK.s:1433   .debug_str:0000000000000019 .LASF42
     /tmp/ccG50rsK.s:243    .text:0000000000000110 .LFB9
     /tmp/ccG50rsK.s:286    .text:0000000000000140 .LFE9
     /tmp/ccG50rsK.s:1477   .debug_str:00000000000001b6 .LASF31
     /tmp/ccG50rsK.s:1326   .debug_loc:0000000000000000 .LLST3
     /tmp/ccG50rsK.s:1441   .debug_str:00000000000000d5 .LASF30
     /tmp/ccG50rsK.s:1340   .debug_loc:0000000000000039 .LLST4
     /tmp/ccG50rsK.s:1505   .debug_str:000000000000027e .LASF32
     /tmp/ccG50rsK.s:1479   .debug_str:00000000000001bb .LASF33
     /tmp/ccG50rsK.s:207    .text:00000000000000f0 .LFB7
     /tmp/ccG50rsK.s:235    .text:0000000000000110 .LFE7
     /tmp/ccG50rsK.s:217    .text:00000000000000fc .LBB3
     /tmp/ccG50rsK.s:226    .text:0000000000000104 .LBE3
     /tmp/ccG50rsK.s:1451   .debug_str:000000000000010b .LASF34
     /tmp/ccG50rsK.s:174    .text:00000000000000d0 .LFB4
     /tmp/ccG50rsK.s:199    .text:00000000000000f0 .LFE4
     /tmp/ccG50rsK.s:140    .text:00000000000000ac .LFB2
     /tmp/ccG50rsK.s:168    .text:00000000000000d0 .LFE2
     /tmp/ccG50rsK.s:1356   .debug_loc:0000000000000083 .LLST2
     /tmp/ccG50rsK.s:57     .text:0000000000000034 .LFB1
     /tmp/ccG50rsK.s:134    .text:00000000000000ac .LFE1
     /tmp/ccG50rsK.s:1370   .debug_loc:00000000000000bc .LLST0
     /tmp/ccG50rsK.s:1392   .debug_loc:000000000000011b .LLST1
     /tmp/ccG50rsK.s:1515   .debug_str:00000000000002b4 .LASF35
     /tmp/ccG50rsK.s:80     .text:0000000000000060 .LVL4
     /tmp/ccG50rsK.s:10     .text:0000000000000000 .LFB0
     /tmp/ccG50rsK.s:51     .text:0000000000000034 .LFE0
     /tmp/ccG50rsK.s:1511   .debug_str:00000000000002a6 .LASF36
     /tmp/ccG50rsK.s:1465   .debug_str:0000000000000163 .LASF43
     /tmp/ccG50rsK.s:1463   .debug_str:000000000000015b .LASF44
     /tmp/ccG50rsK.s:246    .text:0000000000000110 .LVL13
     /tmp/ccG50rsK.s:260    .text:0000000000000124 .LVL15
     /tmp/ccG50rsK.s:256    .text:0000000000000120 .LVL14
     /tmp/ccG50rsK.s:268    .text:000000000000012c .LVL16
     /tmp/ccG50rsK.s:275    .text:0000000000000134 .LVL18
     /tmp/ccG50rsK.s:143    .text:00000000000000ac .LVL8
     /tmp/ccG50rsK.s:153    .text:00000000000000bc .LVL9
     /tmp/ccG50rsK.s:60     .text:0000000000000034 .LVL2
     /tmp/ccG50rsK.s:78     .text:0000000000000058 .LVL3
     /tmp/ccG50rsK.s:109    .text:0000000000000088 .LVL5
     /tmp/ccG50rsK.s:116    .text:0000000000000094 .LVL7
     /tmp/ccG50rsK.s:112    .text:000000000000008c .LVL6
     /tmp/ccG50rsK.s:293    .debug_info:0000000000000000 .Ldebug_info0

UNDEFINED SYMBOLS
GAS LISTING /tmp/ccG50rsK.s 			page 12


_Z7kmallocm
