GAS LISTING /tmp/ccKcsDSH.s 			page 1


   1              		.file	"Riscv.cpp"
   2              		.option pic
   3              		.option norelax
   4              		.text
   5              	.Ltext0:
   6              		.align	2
   7              		.globl	_ZN5Riscv15userMainWrapperEPv
   9              	_ZN5Riscv15userMainWrapperEPv:
  10              	.LFB33:
  11              		.file 1 "src/Riscv.cpp"
   1:src/Riscv.cpp **** //
   2:src/Riscv.cpp **** // Created by os on 4/27/22.
   3:src/Riscv.cpp **** //
   4:src/Riscv.cpp **** 
   5:src/Riscv.cpp **** #include "../h/Riscv.hpp"
   6:src/Riscv.cpp **** #include "../h/MemoryAllocator.hpp"
   7:src/Riscv.cpp **** #include "../h/PCB.hpp"
   8:src/Riscv.cpp **** #include "../h/syscall_cpp.hpp"
   9:src/Riscv.cpp **** #include "../h/SleepPCBList.hpp"
  10:src/Riscv.cpp **** #include "../h/KConsole.hpp"
  11:src/Riscv.cpp **** #include "../h/Tests.hpp"
  12:src/Riscv.cpp **** #include "../test/userMain.hpp"
  13:src/Riscv.cpp **** 
  14:src/Riscv.cpp **** uint64 Riscv::totalTime = 0;
  15:src/Riscv.cpp **** bool Riscv::finishSystem = false;
  16:src/Riscv.cpp **** 
  17:src/Riscv.cpp **** void Riscv::initSystem()
  18:src/Riscv.cpp **** {
  19:src/Riscv.cpp ****     w_stvec((uint64)&Riscv::supervisorTrap);
  20:src/Riscv.cpp ****     PCB::initialize();
  21:src/Riscv.cpp ****     KConsole::initialize();
  22:src/Riscv.cpp **** }
  23:src/Riscv.cpp **** 
  24:src/Riscv.cpp **** void Riscv::endSystem()
  25:src/Riscv.cpp **** {
  26:src/Riscv.cpp ****     //todo
  27:src/Riscv.cpp ****     Riscv::disableInterrupts();
  28:src/Riscv.cpp **** }
  29:src/Riscv.cpp **** 
  30:src/Riscv.cpp **** void Riscv::enableInterrupts() {
  31:src/Riscv.cpp ****     ms_sstatus(Riscv::SSTATUS_SIE);
  32:src/Riscv.cpp **** }
  33:src/Riscv.cpp **** 
  34:src/Riscv.cpp **** void Riscv::disableInterrupts()
  35:src/Riscv.cpp **** {
  36:src/Riscv.cpp ****     mc_sstatus(Riscv::SSTATUS_SIE);
  37:src/Riscv.cpp **** }
  38:src/Riscv.cpp **** 
  39:src/Riscv.cpp **** void Riscv::popSppSpie()
  40:src/Riscv.cpp **** {
  41:src/Riscv.cpp ****     __asm__ volatile ("csrw sepc, ra");
  42:src/Riscv.cpp ****     __asm__ volatile ("sret");
  43:src/Riscv.cpp **** }
  44:src/Riscv.cpp **** 
  45:src/Riscv.cpp **** void Riscv::handleSupervisorTrap()
  46:src/Riscv.cpp **** {
  47:src/Riscv.cpp ****     __asm__ volatile("mv %0, a4" : "=r"(PCB::savedRegA4));
GAS LISTING /tmp/ccKcsDSH.s 			page 2


  48:src/Riscv.cpp ****     __asm__ volatile("csrr %0, sscratch":"=r"(PCB::running->sscratch));
  49:src/Riscv.cpp **** 
  50:src/Riscv.cpp ****     uint64 scause = Riscv::r_scause();
  51:src/Riscv.cpp **** 
  52:src/Riscv.cpp ****     switch(scause)
  53:src/Riscv.cpp ****     {
  54:src/Riscv.cpp ****         case timerInterrupt:
  55:src/Riscv.cpp ****         {
  56:src/Riscv.cpp ****             uint64 volatile sepc = Riscv::r_sepc();
  57:src/Riscv.cpp ****             uint64 volatile sstatus = Riscv::r_sstatus();
  58:src/Riscv.cpp ****             mc_sip(Riscv::SIP_SSIP);
  59:src/Riscv.cpp ****             //trapPrintString("timerInterrupt\n");
  60:src/Riscv.cpp ****             //static uint64 total = 0;
  61:src/Riscv.cpp ****             totalTime++;
  62:src/Riscv.cpp ****             //trapPrintInt(totalTime);
  63:src/Riscv.cpp **** 
  64:src/Riscv.cpp ****             PCB::timeSliceCounter++;
  65:src/Riscv.cpp ****             SleepPCBList::tryToWakePCBs();
  66:src/Riscv.cpp ****             if (PCB::timeSliceCounter >= PCB::running->getTimeSlice())
  67:src/Riscv.cpp ****             {
  68:src/Riscv.cpp ****                 PCB::timeSliceCounter = 0;
  69:src/Riscv.cpp ****                 PCB::dispatch();
  70:src/Riscv.cpp ****             }
  71:src/Riscv.cpp **** 
  72:src/Riscv.cpp ****             Riscv::w_sstatus(sstatus);
  73:src/Riscv.cpp ****             Riscv::w_sepc(sepc);
  74:src/Riscv.cpp ****             changePrivMode();
  75:src/Riscv.cpp ****             break;
  76:src/Riscv.cpp ****         }
  77:src/Riscv.cpp ****         case hwInterrupt:
  78:src/Riscv.cpp ****         {
  79:src/Riscv.cpp ****             uint64 x = CONSOLE_STATUS;
  80:src/Riscv.cpp ****             __asm__ volatile("mv a0, %0"::"r"(x));
  81:src/Riscv.cpp ****             __asm__ volatile("lb a1, 0(a0)");
  82:src/Riscv.cpp ****             uint64 operation;
  83:src/Riscv.cpp ****             __asm__ volatile("mv %0, a1" :  "=r"(operation));
  84:src/Riscv.cpp ****             if(operation & KConsole::STATUS_READ_MASK)
  85:src/Riscv.cpp ****             {
  86:src/Riscv.cpp ****                 x = CONSOLE_TX_DATA;
  87:src/Riscv.cpp ****                 __asm__ volatile("mv a0, %0"::"r"(x));
  88:src/Riscv.cpp ****                 __asm__ volatile("lb a1,0(a0)");
  89:src/Riscv.cpp ****                 char c;
  90:src/Riscv.cpp ****                 __asm__ volatile("mv %0, a1" :  "=r"(c));
  91:src/Riscv.cpp **** 
  92:src/Riscv.cpp ****                 if(KConsole::pendingGetc > 0)
  93:src/Riscv.cpp ****                 {
  94:src/Riscv.cpp ****                     KConsole::pendingGetc--;
  95:src/Riscv.cpp ****                     KConsole::putCharacterInput(c);
  96:src/Riscv.cpp ****                     KConsole::putCharacterOutput(c);
  97:src/Riscv.cpp ****                 }
  98:src/Riscv.cpp ****             }
  99:src/Riscv.cpp **** 
 100:src/Riscv.cpp ****             plic_complete(plic_claim());
 101:src/Riscv.cpp **** 
 102:src/Riscv.cpp ****             break;
 103:src/Riscv.cpp ****         }
 104:src/Riscv.cpp ****         case operationInterrupt: // todo
GAS LISTING /tmp/ccKcsDSH.s 			page 3


 105:src/Riscv.cpp ****         {
 106:src/Riscv.cpp ****             break;
 107:src/Riscv.cpp ****         }
 108:src/Riscv.cpp ****         case addrReadInterrupt: // todo
 109:src/Riscv.cpp ****         {
 110:src/Riscv.cpp ****             break;
 111:src/Riscv.cpp ****         }
 112:src/Riscv.cpp ****         case addrWriteInterrupt: // todo
 113:src/Riscv.cpp ****         {
 114:src/Riscv.cpp ****             break;
 115:src/Riscv.cpp ****         }
 116:src/Riscv.cpp ****         case ecallSystemInterupt:
 117:src/Riscv.cpp ****         case ecallUserInterrupt:
 118:src/Riscv.cpp ****         {
 119:src/Riscv.cpp ****             uint64 operation;
 120:src/Riscv.cpp ****             __asm__ volatile("mv %0, a0" :  "=r"(operation));
 121:src/Riscv.cpp **** 
 122:src/Riscv.cpp ****             uint64 volatile sepc = Riscv::r_sepc() + 4;
 123:src/Riscv.cpp ****             uint64 volatile sstatus = Riscv::r_sstatus();
 124:src/Riscv.cpp **** 
 125:src/Riscv.cpp ****             switch(operation)
 126:src/Riscv.cpp ****             {
 127:src/Riscv.cpp ****                 case MemoryAllocator::MEM_ALLOC:
 128:src/Riscv.cpp ****                     MemoryAllocator::memAllocHandler();
 129:src/Riscv.cpp ****                     break;
 130:src/Riscv.cpp ****                 case MemoryAllocator::MEM_FREE:
 131:src/Riscv.cpp ****                     MemoryAllocator::memFreeHandler();
 132:src/Riscv.cpp ****                     break;
 133:src/Riscv.cpp ****                 case PCB::THREAD_MAKE_PCB:
 134:src/Riscv.cpp ****                     PCB::threadMakePCBHandler();
 135:src/Riscv.cpp ****                     break;
 136:src/Riscv.cpp ****                 case PCB::THREAD_CREATE:
 137:src/Riscv.cpp ****                     PCB::threadCreateHandler();
 138:src/Riscv.cpp ****                     break;
 139:src/Riscv.cpp ****                 case PCB::THREAD_START:
 140:src/Riscv.cpp ****                     PCB::threadStartHandler();
 141:src/Riscv.cpp ****                     break;
 142:src/Riscv.cpp ****                 case PCB::THREAD_DISPATCH:
 143:src/Riscv.cpp ****                     PCB::threadDispatchHandler();
 144:src/Riscv.cpp ****                     break;
 145:src/Riscv.cpp ****                 case PCB::THREAD_EXIT:
 146:src/Riscv.cpp ****                     PCB::threadExitHandler();
 147:src/Riscv.cpp ****                     break;
 148:src/Riscv.cpp ****                 case PCB::TIME_SLEEP:
 149:src/Riscv.cpp ****                     PCB::threadSleepHandler();
 150:src/Riscv.cpp ****                     break;
 151:src/Riscv.cpp ****                 case KSemaphore::SEM_OPEN:
 152:src/Riscv.cpp ****                     KSemaphore::semOpenHandler();
 153:src/Riscv.cpp ****                     break;
 154:src/Riscv.cpp ****                 case KSemaphore::SEM_WAIT:
 155:src/Riscv.cpp ****                     KSemaphore::semWaitHandler();
 156:src/Riscv.cpp ****                     break;
 157:src/Riscv.cpp ****                 case KSemaphore::SEM_SIGNAL:
 158:src/Riscv.cpp ****                     KSemaphore::semSignalHandler();
 159:src/Riscv.cpp ****                     break;
 160:src/Riscv.cpp ****                 case KSemaphore::SEM_CLOSE:
 161:src/Riscv.cpp ****                     KSemaphore::semCloseHandler();
GAS LISTING /tmp/ccKcsDSH.s 			page 4


 162:src/Riscv.cpp ****                     break;
 163:src/Riscv.cpp ****                 case KConsole::CONSOLE_GETC:
 164:src/Riscv.cpp ****                     KConsole::getcHandler();
 165:src/Riscv.cpp ****                     break;
 166:src/Riscv.cpp ****                 case KConsole::CONSOLE_PUTC:
 167:src/Riscv.cpp ****                     KConsole::putcHandler();
 168:src/Riscv.cpp ****                     break;
 169:src/Riscv.cpp ****             }
 170:src/Riscv.cpp **** 
 171:src/Riscv.cpp ****             Riscv::w_sstatus(sstatus);
 172:src/Riscv.cpp ****             Riscv::w_sepc(sepc);
 173:src/Riscv.cpp ****             changePrivMode();
 174:src/Riscv.cpp ****             break;
 175:src/Riscv.cpp ****         }
 176:src/Riscv.cpp ****     }
 177:src/Riscv.cpp **** }
 178:src/Riscv.cpp **** 
 179:src/Riscv.cpp **** void Riscv::kernelMain()
 180:src/Riscv.cpp **** {
 181:src/Riscv.cpp ****     initSystem();
 182:src/Riscv.cpp **** 
 183:src/Riscv.cpp ****     //disableTimerInterrupts();
 184:src/Riscv.cpp ****     enableInterrupts();
 185:src/Riscv.cpp **** 
 186:src/Riscv.cpp **** 
 187:src/Riscv.cpp ****     PCB* userPCB = new PCB(&Riscv::userMainWrapper, 0, kmalloc(DEFAULT_STACK_SIZE), DEFAULT_TIME_SL
 188:src/Riscv.cpp ****     //PCB* userPCB = new PCB(&Riscv::myTestsWrapper, 0, kmalloc(DEFAULT_STACK_SIZE), DEFAULT_TIME_S
 189:src/Riscv.cpp ****     userPCB->start();
 190:src/Riscv.cpp ****     while(!userPCB->isFinished())
 191:src/Riscv.cpp ****     {
 192:src/Riscv.cpp ****         thread_dispatch();
 193:src/Riscv.cpp ****     }
 194:src/Riscv.cpp **** 
 195:src/Riscv.cpp ****     finishSystem = true;
 196:src/Riscv.cpp ****     ::printString("End...\n");
 197:src/Riscv.cpp ****     while(!PCB::consolePCB->isFinished())
 198:src/Riscv.cpp ****     {
 199:src/Riscv.cpp ****         thread_dispatch();
 200:src/Riscv.cpp ****     }
 201:src/Riscv.cpp ****     disableInterrupts();
 202:src/Riscv.cpp ****     endSystem();
 203:src/Riscv.cpp **** }
 204:src/Riscv.cpp **** 
 205:src/Riscv.cpp **** void Riscv::userMainWrapper(void* )
 206:src/Riscv.cpp **** {
  12              		.loc 1 206 1
  13              		.cfi_startproc
  14 0000 130101FF 		addi	sp,sp,-16
  15              		.cfi_def_cfa_offset 16
  16 0004 23341100 		sd	ra,8(sp)
  17 0008 23308100 		sd	s0,0(sp)
  18              		.cfi_offset 1, -8
  19              		.cfi_offset 8, -16
  20 000c 13040101 		addi	s0,sp,16
  21              		.cfi_def_cfa 8, 0
 207:src/Riscv.cpp ****     userMain();
  22              		.loc 1 207 5
GAS LISTING /tmp/ccKcsDSH.s 			page 5


  23              		.loc 1 207 13 is_stmt 0
  24 0010 97000000 		call	_Z8userMainv@plt
  24      E7800000 
  25              	.LVL0:
 208:src/Riscv.cpp **** }
  26              		.loc 1 208 1
  27 0018 83308100 		ld	ra,8(sp)
  28              		.cfi_restore 1
  29 001c 03340100 		ld	s0,0(sp)
  30              		.cfi_restore 8
  31              		.cfi_def_cfa 2, 16
  32 0020 13010101 		addi	sp,sp,16
  33              		.cfi_def_cfa_offset 0
  34 0024 67800000 		jr	ra
  35              		.cfi_endproc
  36              	.LFE33:
  38              		.align	2
  39              		.globl	_ZN5Riscv10initSystemEv
  41              	_ZN5Riscv10initSystemEv:
  42              	.LFB26:
  18:src/Riscv.cpp ****     w_stvec((uint64)&Riscv::supervisorTrap);
  43              		.loc 1 18 1 is_stmt 1
  44              		.cfi_startproc
  45 0028 130101FF 		addi	sp,sp,-16
  46              		.cfi_def_cfa_offset 16
  47 002c 23341100 		sd	ra,8(sp)
  48 0030 23308100 		sd	s0,0(sp)
  49              		.cfi_offset 1, -8
  50              		.cfi_offset 8, -16
  51 0034 13040101 		addi	s0,sp,16
  52              		.cfi_def_cfa 8, 0
  19:src/Riscv.cpp ****     PCB::initialize();
  53              		.loc 1 19 5
  19:src/Riscv.cpp ****     PCB::initialize();
  54              		.loc 1 19 12 is_stmt 0
  55 0038 97070000 		la	a5,_ZN5Riscv14supervisorTrapEv
  55      83B70700 
  56              	.LVL1:
  57              	.LBB41:
  58              	.LBB42:
  59              		.file 2 "src/../h/Riscv.hpp"
   1:src/../h/Riscv.hpp **** //
   2:src/../h/Riscv.hpp **** // Created by os on 4/27/22.
   3:src/../h/Riscv.hpp **** //
   4:src/../h/Riscv.hpp **** 
   5:src/../h/Riscv.hpp **** #ifndef PROJECT_BASE_V1_0_RISCV_HPP
   6:src/../h/Riscv.hpp **** #define PROJECT_BASE_V1_0_RISCV_HPP
   7:src/../h/Riscv.hpp **** 
   8:src/../h/Riscv.hpp **** #include "../lib/hw.h"
   9:src/../h/Riscv.hpp **** #include "../test/printing.hpp"
  10:src/../h/Riscv.hpp **** 
  11:src/../h/Riscv.hpp **** class Riscv
  12:src/../h/Riscv.hpp **** {
  13:src/../h/Riscv.hpp **** public:
  14:src/../h/Riscv.hpp ****     static void kernelMain();
  15:src/../h/Riscv.hpp **** 
  16:src/../h/Riscv.hpp ****     static void changePrivMode();
GAS LISTING /tmp/ccKcsDSH.s 			page 6


  17:src/../h/Riscv.hpp **** 
  18:src/../h/Riscv.hpp ****     static void initSystem();
  19:src/../h/Riscv.hpp ****     static void endSystem();
  20:src/../h/Riscv.hpp **** 
  21:src/../h/Riscv.hpp ****     static void userMainWrapper(void* p);
  22:src/../h/Riscv.hpp **** 
  23:src/../h/Riscv.hpp ****     static void enableInterrupts();
  24:src/../h/Riscv.hpp **** 
  25:src/../h/Riscv.hpp ****     static void disableTimerInterrupts();
  26:src/../h/Riscv.hpp **** 
  27:src/../h/Riscv.hpp ****     static void disableInterrupts();
  28:src/../h/Riscv.hpp **** 
  29:src/../h/Riscv.hpp ****     static void idleRiscv(void* arg);
  30:src/../h/Riscv.hpp **** 
  31:src/../h/Riscv.hpp ****     static void pushRegisters();
  32:src/../h/Riscv.hpp ****     static void popRegisters();
  33:src/../h/Riscv.hpp **** 
  34:src/../h/Riscv.hpp ****     static uint64 r_scause();
  35:src/../h/Riscv.hpp ****     static void w_scause(uint64 scause);
  36:src/../h/Riscv.hpp **** 
  37:src/../h/Riscv.hpp ****     static uint64 r_sepc();
  38:src/../h/Riscv.hpp ****     static void w_sepc(uint64 sepc);
  39:src/../h/Riscv.hpp **** 
  40:src/../h/Riscv.hpp ****     static uint64 r_stvec();
  41:src/../h/Riscv.hpp ****     static void w_stvec(uint64 stvec);
  42:src/../h/Riscv.hpp **** 
  43:src/../h/Riscv.hpp ****     static uint64 r_stval();
  44:src/../h/Riscv.hpp ****     static void w_stval(uint64 stval);
  45:src/../h/Riscv.hpp **** 
  46:src/../h/Riscv.hpp ****     static bool finishSystem;
  47:src/../h/Riscv.hpp **** 
  48:src/../h/Riscv.hpp ****     enum BitMaskSip
  49:src/../h/Riscv.hpp ****     {
  50:src/../h/Riscv.hpp ****         SIP_SSIP = (1 << 1),
  51:src/../h/Riscv.hpp ****         SIP_STIP = (1 << 5),
  52:src/../h/Riscv.hpp ****         SIP_SEIP = (1 << 9),
  53:src/../h/Riscv.hpp ****     };
  54:src/../h/Riscv.hpp **** 
  55:src/../h/Riscv.hpp ****     static void ms_sip(uint64 mask);
  56:src/../h/Riscv.hpp **** 
  57:src/../h/Riscv.hpp ****     static void mc_sip(uint64 mask);
  58:src/../h/Riscv.hpp **** 
  59:src/../h/Riscv.hpp ****     static uint64 r_sip();
  60:src/../h/Riscv.hpp **** 
  61:src/../h/Riscv.hpp ****     static void w_sip(uint64 sip);
  62:src/../h/Riscv.hpp **** 
  63:src/../h/Riscv.hpp ****     enum BitMaskSstatus
  64:src/../h/Riscv.hpp ****     {
  65:src/../h/Riscv.hpp ****         SSTATUS_SIE = (1 << 1),
  66:src/../h/Riscv.hpp ****         SSTATUS_SPIE = (1 << 5),
  67:src/../h/Riscv.hpp ****         SSTATUS_SPP = (1 << 8),
  68:src/../h/Riscv.hpp ****     };
  69:src/../h/Riscv.hpp **** 
  70:src/../h/Riscv.hpp ****     static void w_a0_sscratch();
  71:src/../h/Riscv.hpp **** 
  72:src/../h/Riscv.hpp ****     static void ms_sstatus(uint64 mask);
  73:src/../h/Riscv.hpp **** 
GAS LISTING /tmp/ccKcsDSH.s 			page 7


  74:src/../h/Riscv.hpp ****     static void mc_sstatus(uint64 mask);
  75:src/../h/Riscv.hpp **** 
  76:src/../h/Riscv.hpp ****     static void mc_sie(uint64 mask);
  77:src/../h/Riscv.hpp **** 
  78:src/../h/Riscv.hpp ****     static uint64 r_sstatus();
  79:src/../h/Riscv.hpp **** 
  80:src/../h/Riscv.hpp ****     static void w_sstatus(uint64 sstatus);
  81:src/../h/Riscv.hpp **** 
  82:src/../h/Riscv.hpp ****     static uint64 r_sie();
  83:src/../h/Riscv.hpp ****     static void w_sie(uint64 sie);
  84:src/../h/Riscv.hpp ****     static void popSppSpie();
  85:src/../h/Riscv.hpp **** 
  86:src/../h/Riscv.hpp ****     static void supervisorTrap();
  87:src/../h/Riscv.hpp ****     static void handleSupervisorTrap();
  88:src/../h/Riscv.hpp **** 
  89:src/../h/Riscv.hpp ****     static void myTestsWrapper(void* );
  90:src/../h/Riscv.hpp **** 
  91:src/../h/Riscv.hpp ****     static const uint64 bntOne = 1UL << 63;;
  92:src/../h/Riscv.hpp ****     static const uint64 bntZero = 0UL;
  93:src/../h/Riscv.hpp ****     static const uint64 timerInterrupt = bntOne + 1UL;
  94:src/../h/Riscv.hpp ****     static const uint64 hwInterrupt = bntOne + 9UL;
  95:src/../h/Riscv.hpp ****     static const uint64 operationInterrupt = bntZero + 2UL;
  96:src/../h/Riscv.hpp ****     static const uint64 addrReadInterrupt = bntZero + 5UL;
  97:src/../h/Riscv.hpp ****     static const uint64 addrWriteInterrupt = bntZero + 7UL;
  98:src/../h/Riscv.hpp ****     static const uint64 ecallUserInterrupt = bntZero + 8UL;
  99:src/../h/Riscv.hpp ****     static const uint64 ecallSystemInterupt = bntZero + 9UL;
 100:src/../h/Riscv.hpp **** 
 101:src/../h/Riscv.hpp ****     static uint64 totalTime;
 102:src/../h/Riscv.hpp **** };
 103:src/../h/Riscv.hpp **** 
 104:src/../h/Riscv.hpp **** inline void Riscv::mc_sie(uint64 mask)
 105:src/../h/Riscv.hpp **** {
 106:src/../h/Riscv.hpp ****     __asm__ volatile("csrc sie, %0" : :"r"(mask));
 107:src/../h/Riscv.hpp **** }
 108:src/../h/Riscv.hpp **** 
 109:src/../h/Riscv.hpp **** inline uint64 Riscv::r_scause() {
 110:src/../h/Riscv.hpp ****     uint64 volatile scause;
 111:src/../h/Riscv.hpp ****     __asm__ volatile("csrr %0, scause" : "=r"(scause));
 112:src/../h/Riscv.hpp ****     return scause;
 113:src/../h/Riscv.hpp **** }
 114:src/../h/Riscv.hpp **** 
 115:src/../h/Riscv.hpp **** inline void Riscv::w_scause(uint64 scause) {
 116:src/../h/Riscv.hpp ****     __asm__ volatile("csrw scause, %0" : :"r"(scause));
 117:src/../h/Riscv.hpp **** }
 118:src/../h/Riscv.hpp **** 
 119:src/../h/Riscv.hpp **** inline uint64 Riscv::r_sepc() {
 120:src/../h/Riscv.hpp ****     uint64 volatile sepc;
 121:src/../h/Riscv.hpp ****     __asm__ volatile("csrr %0, sepc" : "=r"(sepc));
 122:src/../h/Riscv.hpp ****     return sepc;
 123:src/../h/Riscv.hpp **** }
 124:src/../h/Riscv.hpp **** 
 125:src/../h/Riscv.hpp **** inline void Riscv::w_sepc(uint64 sepc) {
 126:src/../h/Riscv.hpp ****     __asm__ volatile("csrw sepc, %0" : :"r"(sepc));
 127:src/../h/Riscv.hpp **** }
 128:src/../h/Riscv.hpp **** 
 129:src/../h/Riscv.hpp **** inline uint64 Riscv::r_stvec() {
 130:src/../h/Riscv.hpp ****     uint64 volatile stvec;
GAS LISTING /tmp/ccKcsDSH.s 			page 8


 131:src/../h/Riscv.hpp ****     __asm__ volatile("csrr %0, stvec" : "=r"(stvec));
 132:src/../h/Riscv.hpp ****     return stvec;
 133:src/../h/Riscv.hpp **** }
 134:src/../h/Riscv.hpp **** 
 135:src/../h/Riscv.hpp **** inline void Riscv::w_stvec(uint64 stvec) {
 136:src/../h/Riscv.hpp ****     __asm__ volatile("csrw stvec, %0" : :"r"(stvec));
  60              		.loc 2 136 5 is_stmt 1
  61              		.loc 2 136 53 is_stmt 0
  62              	#APP
  63              	# 136 "src/../h/Riscv.hpp" 1
 137              	}
  64              		csrw stvec, a5
  65              	# 0 "" 2
  66              	.LVL2:
  67              	#NO_APP
  68              	.LBE42:
  69              	.LBE41:
  20:src/Riscv.cpp ****     KConsole::initialize();
  70              		.loc 1 20 5 is_stmt 1
  20:src/Riscv.cpp ****     KConsole::initialize();
  71              		.loc 1 20 20 is_stmt 0
  72 0044 97000000 		call	_ZN3PCB10initializeEv@plt
  72      E7800000 
  73              	.LVL3:
  21:src/Riscv.cpp **** }
  74              		.loc 1 21 5 is_stmt 1
  21:src/Riscv.cpp **** }
  75              		.loc 1 21 25 is_stmt 0
  76 004c 97000000 		call	_ZN8KConsole10initializeEv@plt
  76      E7800000 
  77              	.LVL4:
  22:src/Riscv.cpp **** 
  78              		.loc 1 22 1
  79 0054 83308100 		ld	ra,8(sp)
  80              		.cfi_restore 1
  81 0058 03340100 		ld	s0,0(sp)
  82              		.cfi_restore 8
  83              		.cfi_def_cfa 2, 16
  84 005c 13010101 		addi	sp,sp,16
  85              		.cfi_def_cfa_offset 0
  86 0060 67800000 		jr	ra
  87              		.cfi_endproc
  88              	.LFE26:
  90              		.align	2
  91              		.globl	_ZN5Riscv16enableInterruptsEv
  93              	_ZN5Riscv16enableInterruptsEv:
  94              	.LFB28:
  30:src/Riscv.cpp ****     ms_sstatus(Riscv::SSTATUS_SIE);
  95              		.loc 1 30 32 is_stmt 1
  96              		.cfi_startproc
  97 0064 130101FF 		addi	sp,sp,-16
  98              		.cfi_def_cfa_offset 16
  99 0068 23348100 		sd	s0,8(sp)
 100              		.cfi_offset 8, -8
 101 006c 13040101 		addi	s0,sp,16
 102              		.cfi_def_cfa 8, 0
  31:src/Riscv.cpp **** }
GAS LISTING /tmp/ccKcsDSH.s 			page 9


 103              		.loc 1 31 5
 104              	.LVL5:
 105              	.LBB43:
 106              	.LBB44:
 138:src/../h/Riscv.hpp **** 
 139:src/../h/Riscv.hpp **** inline uint64 Riscv::r_stval() {
 140:src/../h/Riscv.hpp ****     uint64 volatile stval;
 141:src/../h/Riscv.hpp ****     __asm__ volatile("csrr %0, stval" : "=r"(stval));
 142:src/../h/Riscv.hpp ****     return stval;
 143:src/../h/Riscv.hpp **** }
 144:src/../h/Riscv.hpp **** 
 145:src/../h/Riscv.hpp **** inline void Riscv::w_sie(uint64 sie)
 146:src/../h/Riscv.hpp **** {
 147:src/../h/Riscv.hpp ****     __asm__ volatile("csrw sie, %0" : :"r"(sie));
 148:src/../h/Riscv.hpp **** }
 149:src/../h/Riscv.hpp **** 
 150:src/../h/Riscv.hpp **** inline void Riscv::w_stval(uint64 stval) {
 151:src/../h/Riscv.hpp ****     __asm__ volatile("csrw stval, %0" : :"r"(stval));
 152:src/../h/Riscv.hpp **** }
 153:src/../h/Riscv.hpp **** 
 154:src/../h/Riscv.hpp **** inline void Riscv::ms_sip(uint64 mask) {
 155:src/../h/Riscv.hpp ****     __asm__ volatile("csrs sip, %0" : :"r"(mask));
 156:src/../h/Riscv.hpp **** }
 157:src/../h/Riscv.hpp **** 
 158:src/../h/Riscv.hpp **** inline void Riscv::mc_sip(uint64 mask) {
 159:src/../h/Riscv.hpp ****     __asm__ volatile("csrc sip, %0" : :"r"(mask));
 160:src/../h/Riscv.hpp **** }
 161:src/../h/Riscv.hpp **** 
 162:src/../h/Riscv.hpp **** inline uint64 Riscv::r_sie()
 163:src/../h/Riscv.hpp **** {
 164:src/../h/Riscv.hpp ****     uint64 volatile sie;
 165:src/../h/Riscv.hpp ****     __asm__ volatile("csrr %0, sip" : "=r"(sie));
 166:src/../h/Riscv.hpp ****     return sie;
 167:src/../h/Riscv.hpp **** }
 168:src/../h/Riscv.hpp **** 
 169:src/../h/Riscv.hpp **** 
 170:src/../h/Riscv.hpp **** inline uint64 Riscv::r_sip() {
 171:src/../h/Riscv.hpp ****     uint64 volatile sip;
 172:src/../h/Riscv.hpp ****     __asm__ volatile("csrr %0, sip" : "=r"(sip));
 173:src/../h/Riscv.hpp ****     return sip;
 174:src/../h/Riscv.hpp **** }
 175:src/../h/Riscv.hpp **** 
 176:src/../h/Riscv.hpp **** inline void Riscv::w_sip(uint64 sip) {
 177:src/../h/Riscv.hpp ****     __asm__ volatile("csrw sip, %0" : :"r"(sip));
 178:src/../h/Riscv.hpp **** }
 179:src/../h/Riscv.hpp **** 
 180:src/../h/Riscv.hpp **** inline void Riscv::ms_sstatus(uint64 mask) {
 181:src/../h/Riscv.hpp ****     __asm__ volatile("csrs sstatus, %0" : :"r"(mask));
 107              		.loc 2 181 5
 108              		.loc 2 181 54 is_stmt 0
 109 0070 93072000 		li	a5,2
 110              	#APP
 111              	# 181 "src/../h/Riscv.hpp" 1
 182              	}
 112              		csrs sstatus, a5
 113              	# 0 "" 2
 114              	.LVL6:
GAS LISTING /tmp/ccKcsDSH.s 			page 10


 115              	#NO_APP
 116              	.LBE44:
 117              	.LBE43:
  32:src/Riscv.cpp **** 
 118              		.loc 1 32 1
 119 0078 03348100 		ld	s0,8(sp)
 120              		.cfi_restore 8
 121              		.cfi_def_cfa 2, 16
 122 007c 13010101 		addi	sp,sp,16
 123              		.cfi_def_cfa_offset 0
 124 0080 67800000 		jr	ra
 125              		.cfi_endproc
 126              	.LFE28:
 128              		.align	2
 129              		.globl	_ZN5Riscv17disableInterruptsEv
 131              	_ZN5Riscv17disableInterruptsEv:
 132              	.LFB29:
  35:src/Riscv.cpp ****     mc_sstatus(Riscv::SSTATUS_SIE);
 133              		.loc 1 35 1 is_stmt 1
 134              		.cfi_startproc
 135 0084 130101FF 		addi	sp,sp,-16
 136              		.cfi_def_cfa_offset 16
 137 0088 23348100 		sd	s0,8(sp)
 138              		.cfi_offset 8, -8
 139 008c 13040101 		addi	s0,sp,16
 140              		.cfi_def_cfa 8, 0
  36:src/Riscv.cpp **** }
 141              		.loc 1 36 5
 142              	.LVL7:
 143              	.LBB45:
 144              	.LBB46:
 183:src/../h/Riscv.hpp **** 
 184:src/../h/Riscv.hpp **** inline void Riscv::mc_sstatus(uint64 mask) {
 185:src/../h/Riscv.hpp ****     __asm__ volatile("csrc sstatus, %0" : :"r"(mask));
 145              		.loc 2 185 5
 146              		.loc 2 185 54 is_stmt 0
 147 0090 93072000 		li	a5,2
 148              	#APP
 149              	# 185 "src/../h/Riscv.hpp" 1
 186              	}
 150              		csrc sstatus, a5
 151              	# 0 "" 2
 152              	.LVL8:
 153              	#NO_APP
 154              	.LBE46:
 155              	.LBE45:
  37:src/Riscv.cpp **** 
 156              		.loc 1 37 1
 157 0098 03348100 		ld	s0,8(sp)
 158              		.cfi_restore 8
 159              		.cfi_def_cfa 2, 16
 160 009c 13010101 		addi	sp,sp,16
 161              		.cfi_def_cfa_offset 0
 162 00a0 67800000 		jr	ra
 163              		.cfi_endproc
 164              	.LFE29:
 166              		.align	2
GAS LISTING /tmp/ccKcsDSH.s 			page 11


 167              		.globl	_ZN5Riscv9endSystemEv
 169              	_ZN5Riscv9endSystemEv:
 170              	.LFB27:
  25:src/Riscv.cpp ****     //todo
 171              		.loc 1 25 1 is_stmt 1
 172              		.cfi_startproc
 173 00a4 130101FF 		addi	sp,sp,-16
 174              		.cfi_def_cfa_offset 16
 175 00a8 23341100 		sd	ra,8(sp)
 176 00ac 23308100 		sd	s0,0(sp)
 177              		.cfi_offset 1, -8
 178              		.cfi_offset 8, -16
 179 00b0 13040101 		addi	s0,sp,16
 180              		.cfi_def_cfa 8, 0
  27:src/Riscv.cpp **** }
 181              		.loc 1 27 5
  27:src/Riscv.cpp **** }
 182              		.loc 1 27 29 is_stmt 0
 183 00b4 97000000 		call	_ZN5Riscv17disableInterruptsEv
 183      E7800000 
 184              	.LVL9:
  28:src/Riscv.cpp **** 
 185              		.loc 1 28 1
 186 00bc 83308100 		ld	ra,8(sp)
 187              		.cfi_restore 1
 188 00c0 03340100 		ld	s0,0(sp)
 189              		.cfi_restore 8
 190              		.cfi_def_cfa 2, 16
 191 00c4 13010101 		addi	sp,sp,16
 192              		.cfi_def_cfa_offset 0
 193 00c8 67800000 		jr	ra
 194              		.cfi_endproc
 195              	.LFE27:
 197              		.align	2
 198              		.globl	_ZN5Riscv10popSppSpieEv
 200              	_ZN5Riscv10popSppSpieEv:
 201              	.LFB30:
  40:src/Riscv.cpp ****     __asm__ volatile ("csrw sepc, ra");
 202              		.loc 1 40 1 is_stmt 1
 203              		.cfi_startproc
 204 00cc 130101FF 		addi	sp,sp,-16
 205              		.cfi_def_cfa_offset 16
 206 00d0 23348100 		sd	s0,8(sp)
 207              		.cfi_offset 8, -8
 208 00d4 13040101 		addi	s0,sp,16
 209              		.cfi_def_cfa 8, 0
  41:src/Riscv.cpp ****     __asm__ volatile ("sret");
 210              		.loc 1 41 5
  41:src/Riscv.cpp ****     __asm__ volatile ("sret");
 211              		.loc 1 41 39 is_stmt 0
 212              	#APP
 213              	# 41 "src/Riscv.cpp" 1
  42:src/Riscv.cpp **** }
 214              		csrw sepc, ra
 215              	# 0 "" 2
 216              		.loc 1 42 5 is_stmt 1
  42:src/Riscv.cpp **** }
GAS LISTING /tmp/ccKcsDSH.s 			page 12


 217              		.loc 1 42 30 is_stmt 0
 218              	# 42 "src/Riscv.cpp" 1
  43:src/Riscv.cpp **** 
 219              		sret
 220              	# 0 "" 2
 221              		.loc 1 43 1
 222              	#NO_APP
 223 00e0 03348100 		ld	s0,8(sp)
 224              		.cfi_restore 8
 225              		.cfi_def_cfa 2, 16
 226 00e4 13010101 		addi	sp,sp,16
 227              		.cfi_def_cfa_offset 0
 228 00e8 67800000 		jr	ra
 229              		.cfi_endproc
 230              	.LFE30:
 232              		.section	.rodata.str1.8,"aMS",@progbits,1
 233              		.align	3
 234              	.LC0:
 235 0000 456E642E 		.string	"End...\n"
 235      2E2E0A00 
 236              		.text
 237              		.align	2
 238              		.globl	_ZN5Riscv10kernelMainEv
 240              	_ZN5Riscv10kernelMainEv:
 241              	.LFB32:
 180:src/Riscv.cpp ****     initSystem();
 242              		.loc 1 180 1 is_stmt 1
 243              		.cfi_startproc
 244              		.cfi_personality 0x9b,DW.ref.__gxx_personality_v0
 245              		.cfi_lsda 0x1b,.LLSDA32
 246 00ec 130101FE 		addi	sp,sp,-32
 247              		.cfi_def_cfa_offset 32
 248 00f0 233C1100 		sd	ra,24(sp)
 249 00f4 23388100 		sd	s0,16(sp)
 250 00f8 23349100 		sd	s1,8(sp)
 251 00fc 23302101 		sd	s2,0(sp)
 252              		.cfi_offset 1, -8
 253              		.cfi_offset 8, -16
 254              		.cfi_offset 9, -24
 255              		.cfi_offset 18, -32
 256 0100 13040102 		addi	s0,sp,32
 257              		.cfi_def_cfa 8, 0
 181:src/Riscv.cpp **** 
 258              		.loc 1 181 5
 259              	.LEHB0:
 181:src/Riscv.cpp **** 
 260              		.loc 1 181 15 is_stmt 0
 261 0104 97000000 		call	_ZN5Riscv10initSystemEv
 261      E7800000 
 262              	.LVL10:
 184:src/Riscv.cpp **** 
 263              		.loc 1 184 5 is_stmt 1
 184:src/Riscv.cpp **** 
 264              		.loc 1 184 21 is_stmt 0
 265 010c 97000000 		call	_ZN5Riscv16enableInterruptsEv
 265      E7800000 
 266              	.LVL11:
GAS LISTING /tmp/ccKcsDSH.s 			page 13


 187:src/Riscv.cpp ****     //PCB* userPCB = new PCB(&Riscv::myTestsWrapper, 0, kmalloc(DEFAULT_STACK_SIZE), DEFAULT_TIME_S
 267              		.loc 1 187 5 is_stmt 1
 187:src/Riscv.cpp ****     //PCB* userPCB = new PCB(&Riscv::myTestsWrapper, 0, kmalloc(DEFAULT_STACK_SIZE), DEFAULT_TIME_S
 268              		.loc 1 187 63 is_stmt 0
 269 0114 37150000 		li	a0,4096
 270 0118 97000000 		call	_Z7kmallocm@plt
 270      E7800000 
 271              	.LVL12:
 272 0120 13090500 		mv	s2,a0
 187:src/Riscv.cpp ****     //PCB* userPCB = new PCB(&Riscv::myTestsWrapper, 0, kmalloc(DEFAULT_STACK_SIZE), DEFAULT_TIME_S
 273              		.loc 1 187 103
 274 0124 13058005 		li	a0,88
 275 0128 97000000 		call	_ZN3PCBnwEm@plt
 275      E7800000 
 276              	.LVL13:
 277              	.LEHE0:
 278 0130 93040500 		mv	s1,a0
 279 0134 13072000 		li	a4,2
 280 0138 93060900 		mv	a3,s2
 281 013c 13060000 		li	a2,0
 282 0140 97050000 		lla	a1,_ZN5Riscv15userMainWrapperEPv
 282      93850500 
 283              	.LEHB1:
 284 0148 97000000 		call	_ZN3PCBC1EPFvPvES0_S0_m@plt
 284      E7800000 
 285              	.LVL14:
 286              	.LEHE1:
 189:src/Riscv.cpp ****     while(!userPCB->isFinished())
 287              		.loc 1 189 5 is_stmt 1 discriminator 2
 189:src/Riscv.cpp ****     while(!userPCB->isFinished())
 288              		.loc 1 189 19 is_stmt 0 discriminator 2
 289 0150 13850400 		mv	a0,s1
 290              	.LEHB2:
 291 0154 97000000 		call	_ZN3PCB5startEv@plt
 291      E7800000 
 292              	.LVL15:
 293              	.L15:
 190:src/Riscv.cpp ****     {
 294              		.loc 1 190 5 is_stmt 1
 190:src/Riscv.cpp ****     {
 295              		.loc 1 190 11
 190:src/Riscv.cpp ****     {
 296              		.loc 1 190 31 is_stmt 0
 297 015c 13850400 		mv	a0,s1
 298 0160 97000000 		call	_ZN3PCB10isFinishedEv@plt
 298      E7800000 
 299              	.LVL16:
 190:src/Riscv.cpp ****     {
 300              		.loc 1 190 11
 301 0168 63180500 		bnez	a0,.L14
 192:src/Riscv.cpp ****     }
 302              		.loc 1 192 9 is_stmt 1
 192:src/Riscv.cpp ****     }
 303              		.loc 1 192 24 is_stmt 0
 304 016c 97000000 		call	thread_dispatch@plt
 304      E7800000 
 305              	.LVL17:
GAS LISTING /tmp/ccKcsDSH.s 			page 14


 190:src/Riscv.cpp ****     {
 306              		.loc 1 190 5
 307 0174 6FF09FFE 		j	.L15
 308              	.L14:
 195:src/Riscv.cpp ****     ::printString("End...\n");
 309              		.loc 1 195 5 is_stmt 1
 195:src/Riscv.cpp ****     ::printString("End...\n");
 310              		.loc 1 195 18 is_stmt 0
 311 0178 93071000 		li	a5,1
 312 017c 17070000 		sb	a5,.LANCHOR0,a4
 312      2300F700 
 196:src/Riscv.cpp ****     while(!PCB::consolePCB->isFinished())
 313              		.loc 1 196 5 is_stmt 1
 196:src/Riscv.cpp ****     while(!PCB::consolePCB->isFinished())
 314              		.loc 1 196 18 is_stmt 0
 315 0184 17050000 		lla	a0,.LC0
 315      13050500 
 316 018c 97000000 		call	_Z11printStringPKc@plt
 316      E7800000 
 317              	.LVL18:
 318              	.L17:
 197:src/Riscv.cpp ****     {
 319              		.loc 1 197 5 is_stmt 1
 197:src/Riscv.cpp ****     {
 320              		.loc 1 197 11
 197:src/Riscv.cpp ****     {
 321              		.loc 1 197 39 is_stmt 0
 322 0194 97070000 		la	a5,_ZN3PCB10consolePCBE
 322      83B70700 
 323 019c 03B50700 		ld	a0,0(a5)
 324 01a0 97000000 		call	_ZN3PCB10isFinishedEv@plt
 324      E7800000 
 325              	.LVL19:
 197:src/Riscv.cpp ****     {
 326              		.loc 1 197 11
 327 01a8 63180500 		bnez	a0,.L16
 199:src/Riscv.cpp ****     }
 328              		.loc 1 199 9 is_stmt 1
 199:src/Riscv.cpp ****     }
 329              		.loc 1 199 24 is_stmt 0
 330 01ac 97000000 		call	thread_dispatch@plt
 330      E7800000 
 331              	.LVL20:
 332              	.LEHE2:
 197:src/Riscv.cpp ****     {
 333              		.loc 1 197 5
 334 01b4 6FF01FFE 		j	.L17
 335              	.L16:
 201:src/Riscv.cpp ****     endSystem();
 336              		.loc 1 201 5 is_stmt 1
 201:src/Riscv.cpp ****     endSystem();
 337              		.loc 1 201 22 is_stmt 0
 338 01b8 97000000 		call	_ZN5Riscv17disableInterruptsEv
 338      E7800000 
 339              	.LVL21:
 202:src/Riscv.cpp **** }
 340              		.loc 1 202 5 is_stmt 1
GAS LISTING /tmp/ccKcsDSH.s 			page 15


 202:src/Riscv.cpp **** }
 341              		.loc 1 202 14 is_stmt 0
 342 01c0 97000000 		call	_ZN5Riscv9endSystemEv
 342      E7800000 
 343              	.LVL22:
 203:src/Riscv.cpp **** 
 344              		.loc 1 203 1
 345 01c8 83308101 		ld	ra,24(sp)
 346              		.cfi_remember_state
 347              		.cfi_restore 1
 348 01cc 03340101 		ld	s0,16(sp)
 349              		.cfi_restore 8
 350              		.cfi_def_cfa 2, 32
 351 01d0 83348100 		ld	s1,8(sp)
 352              		.cfi_restore 9
 353              	.LVL23:
 354 01d4 03390100 		ld	s2,0(sp)
 355              		.cfi_restore 18
 356 01d8 13010102 		addi	sp,sp,32
 357              		.cfi_def_cfa_offset 0
 358 01dc 67800000 		jr	ra
 359              	.L19:
 360              		.cfi_restore_state
 361 01e0 13090500 		mv	s2,a0
 187:src/Riscv.cpp ****     //PCB* userPCB = new PCB(&Riscv::myTestsWrapper, 0, kmalloc(DEFAULT_STACK_SIZE), DEFAULT_TIME_S
 362              		.loc 1 187 103
 363 01e4 13850400 		mv	a0,s1
 364 01e8 97000000 		call	_ZN3PCBdlEPv@plt
 364      E7800000 
 365              	.LVL24:
 366 01f0 13050900 		mv	a0,s2
 367              	.LEHB3:
 368 01f4 97000000 		call	_Unwind_Resume@plt
 368      E7800000 
 369              	.LVL25:
 370              	.LEHE3:
 371              		.cfi_endproc
 372              	.LFE32:
 373              		.globl	__gxx_personality_v0
 374              		.section	.gcc_except_table,"a",@progbits
 375              	.LLSDA32:
 376 0000 FF       		.byte	0xff
 377 0001 FF       		.byte	0xff
 378 0002 03       		.byte	0x3
 379 0003 34       		.byte	0x34
 380 0004 00000000 		.4byte	.LEHB0-.LFB32
 381 0008 00000000 		.4byte	.LEHE0-.LEHB0
 382 000c 00000000 		.4byte	0
 383 0010 00       		.byte	0
 384 0011 00000000 		.4byte	.LEHB1-.LFB32
 385 0015 00000000 		.4byte	.LEHE1-.LEHB1
 386 0019 00000000 		.4byte	.L19-.LFB32
 387 001d 00       		.byte	0
 388 001e 00000000 		.4byte	.LEHB2-.LFB32
 389 0022 00000000 		.4byte	.LEHE2-.LEHB2
 390 0026 00000000 		.4byte	0
 391 002a 00       		.byte	0
GAS LISTING /tmp/ccKcsDSH.s 			page 16


 392 002b 00000000 		.4byte	.LEHB3-.LFB32
 393 002f 00000000 		.4byte	.LEHE3-.LEHB3
 394 0033 00000000 		.4byte	0
 395 0037 00       		.byte	0
 396              		.text
 398              		.align	2
 399              		.globl	_ZN5Riscv14myTestsWrapperEPv
 401              	_ZN5Riscv14myTestsWrapperEPv:
 402              	.LFB34:
 209:src/Riscv.cpp **** 
 210:src/Riscv.cpp **** void Riscv::myTestsWrapper(void* p)
 211:src/Riscv.cpp **** {
 403              		.loc 1 211 1 is_stmt 1
 404              		.cfi_startproc
 405              	.LVL26:
 406 01fc 130101FF 		addi	sp,sp,-16
 407              		.cfi_def_cfa_offset 16
 408 0200 23341100 		sd	ra,8(sp)
 409 0204 23308100 		sd	s0,0(sp)
 410              		.cfi_offset 1, -8
 411              		.cfi_offset 8, -16
 412 0208 13040101 		addi	s0,sp,16
 413              		.cfi_def_cfa 8, 0
 212:src/Riscv.cpp ****     myTests();
 414              		.loc 1 212 5
 415              		.loc 1 212 12 is_stmt 0
 416 020c 97000000 		call	_Z7myTestsv@plt
 416      E7800000 
 417              	.LVL27:
 213:src/Riscv.cpp **** }
 418              		.loc 1 213 1
 419 0214 83308100 		ld	ra,8(sp)
 420              		.cfi_restore 1
 421 0218 03340100 		ld	s0,0(sp)
 422              		.cfi_restore 8
 423              		.cfi_def_cfa 2, 16
 424 021c 13010101 		addi	sp,sp,16
 425              		.cfi_def_cfa_offset 0
 426 0220 67800000 		jr	ra
 427              		.cfi_endproc
 428              	.LFE34:
 430              		.align	2
 431              		.globl	_ZN5Riscv22disableTimerInterruptsEv
 433              	_ZN5Riscv22disableTimerInterruptsEv:
 434              	.LFB35:
 214:src/Riscv.cpp **** 
 215:src/Riscv.cpp **** void Riscv::disableTimerInterrupts()
 216:src/Riscv.cpp **** {
 435              		.loc 1 216 1 is_stmt 1
 436              		.cfi_startproc
 437 0224 130101FF 		addi	sp,sp,-16
 438              		.cfi_def_cfa_offset 16
 439 0228 23348100 		sd	s0,8(sp)
 440              		.cfi_offset 8, -8
 441 022c 13040101 		addi	s0,sp,16
 442              		.cfi_def_cfa 8, 0
 217:src/Riscv.cpp ****     //uint64 x = 0x200;
GAS LISTING /tmp/ccKcsDSH.s 			page 17


 218:src/Riscv.cpp ****     //__asm__ volatile("csrs sie, %0"::"r"(x));
 219:src/Riscv.cpp ****     uint64 x = 0x2;
 443              		.loc 1 219 5
 444              	.LVL28:
 220:src/Riscv.cpp ****     __asm__ volatile("csrc sie, %0"::"r"(x));
 445              		.loc 1 220 5
 446              		.loc 1 220 45 is_stmt 0
 447 0230 93072000 		li	a5,2
 448              	#APP
 449              	# 220 "src/Riscv.cpp" 1
 221              	}
 450              		csrc sie, a5
 451              	# 0 "" 2
 452              		.loc 1 221 1
 453              	#NO_APP
 454 0238 03348100 		ld	s0,8(sp)
 455              		.cfi_restore 8
 456              		.cfi_def_cfa 2, 16
 457 023c 13010101 		addi	sp,sp,16
 458              		.cfi_def_cfa_offset 0
 459 0240 67800000 		jr	ra
 460              		.cfi_endproc
 461              	.LFE35:
 463              		.align	2
 464              		.globl	_ZN5Riscv9idleRiscvEPv
 466              	_ZN5Riscv9idleRiscvEPv:
 467              	.LFB36:
 222:src/Riscv.cpp **** 
 223:src/Riscv.cpp **** void Riscv::idleRiscv(void* p)
 224:src/Riscv.cpp **** {
 468              		.loc 1 224 1 is_stmt 1
 469              		.cfi_startproc
 470              	.LVL29:
 471 0244 130101FF 		addi	sp,sp,-16
 472              		.cfi_def_cfa_offset 16
 473 0248 23348100 		sd	s0,8(sp)
 474              		.cfi_offset 8, -8
 475 024c 13040101 		addi	s0,sp,16
 476              		.cfi_def_cfa 8, 0
 477              	.L27:
 225:src/Riscv.cpp ****     while(true)
 478              		.loc 1 225 5 discriminator 1
 479              		.loc 1 225 5 discriminator 1
 480 0250 6F000000 		j	.L27
 481              		.cfi_endproc
 482              	.LFE36:
 484              		.align	2
 485              		.globl	_ZN5Riscv13w_a0_sscratchEv
 487              	_ZN5Riscv13w_a0_sscratchEv:
 488              	.LFB37:
 226:src/Riscv.cpp ****     {
 227:src/Riscv.cpp **** 
 228:src/Riscv.cpp ****     }
 229:src/Riscv.cpp **** }
 230:src/Riscv.cpp **** 
 231:src/Riscv.cpp **** void Riscv::w_a0_sscratch()
 232:src/Riscv.cpp **** {
GAS LISTING /tmp/ccKcsDSH.s 			page 18


 489              		.loc 1 232 1
 490              		.cfi_startproc
 491 0254 130101FF 		addi	sp,sp,-16
 492              		.cfi_def_cfa_offset 16
 493 0258 23348100 		sd	s0,8(sp)
 494              		.cfi_offset 8, -8
 495 025c 13040101 		addi	s0,sp,16
 496              		.cfi_def_cfa 8, 0
 233:src/Riscv.cpp ****     uint64 a1Temp;
 497              		.loc 1 233 5
 234:src/Riscv.cpp ****     __asm__ volatile("mv %0, a1":"=r"(a1Temp));
 498              		.loc 1 234 5
 499              		.loc 1 234 47 is_stmt 0
 500              	#APP
 501              	# 234 "src/Riscv.cpp" 1
 235              	    __asm__ volatile("mv a1, %0"::"r"(PCB::running->sscratch));
 502              		mv a5, a1
 503              	# 0 "" 2
 504              	.LVL30:
 505              		.loc 1 235 5 is_stmt 1
 506              		.loc 1 235 53 is_stmt 0
 507              	#NO_APP
 508 0264 17070000 		la	a4,_ZN3PCB7runningE
 508      03370700 
 509 026c 03370700 		ld	a4,0(a4)
 510 0270 03370701 		ld	a4,16(a4)
 511              		.loc 1 235 63
 512              	#APP
 513              	# 235 "src/Riscv.cpp" 1
 236              	    //__asm__ volatile("csrr a1, sscratch");
 237:src/Riscv.cpp ****     __asm__ volatile("sd a0, 80(a1)");
 514              		mv a1, a4
 515              	# 0 "" 2
 516              		.loc 1 237 5 is_stmt 1
 517              		.loc 1 237 38 is_stmt 0
 518              	# 237 "src/Riscv.cpp" 1
 238              	    __asm__ volatile("mv a1,%0"::"r"(a1Temp));
 519              		sd a0, 80(a1)
 520              	# 0 "" 2
 521              		.loc 1 238 5 is_stmt 1
 522              		.loc 1 238 46 is_stmt 0
 523              	# 238 "src/Riscv.cpp" 1
 239              	}
 524              		mv a1,a5
 525              	# 0 "" 2
 526              		.loc 1 239 1
 527              	#NO_APP
 528 0280 03348100 		ld	s0,8(sp)
 529              		.cfi_restore 8
 530              		.cfi_def_cfa 2, 16
 531 0284 13010101 		addi	sp,sp,16
 532              		.cfi_def_cfa_offset 0
 533 0288 67800000 		jr	ra
 534              		.cfi_endproc
 535              	.LFE37:
 537              		.align	2
 538              		.globl	_ZN5Riscv14changePrivModeEv
GAS LISTING /tmp/ccKcsDSH.s 			page 19


 540              	_ZN5Riscv14changePrivModeEv:
 541              	.LFB38:
 240:src/Riscv.cpp **** 
 241:src/Riscv.cpp **** void Riscv::changePrivMode()
 242:src/Riscv.cpp **** {
 542              		.loc 1 242 1 is_stmt 1
 543              		.cfi_startproc
 544 028c 130101FF 		addi	sp,sp,-16
 545              		.cfi_def_cfa_offset 16
 546 0290 23348100 		sd	s0,8(sp)
 547              		.cfi_offset 8, -8
 548 0294 13040101 		addi	s0,sp,16
 549              		.cfi_def_cfa 8, 0
 243:src/Riscv.cpp ****     if(PCB::running->systemThread)
 550              		.loc 1 243 5
 551              		.loc 1 243 22 is_stmt 0
 552 0298 97070000 		la	a5,_ZN3PCB7runningE
 552      83B70700 
 553 02a0 83B70700 		ld	a5,0(a5)
 554 02a4 83C70700 		lbu	a5,0(a5)
 555              		.loc 1 243 5
 556 02a8 638C0700 		beqz	a5,.L32
 244:src/Riscv.cpp ****         Riscv::ms_sstatus(Riscv::SSTATUS_SPP);
 557              		.loc 1 244 9 is_stmt 1
 558              	.LVL31:
 559              	.LBB47:
 560              	.LBB48:
 181:src/../h/Riscv.hpp **** }
 561              		.loc 2 181 5
 181:src/../h/Riscv.hpp **** }
 562              		.loc 2 181 54 is_stmt 0
 563 02ac 93070010 		li	a5,256
 564              	#APP
 565              	# 181 "src/../h/Riscv.hpp" 1
 566              		csrs sstatus, a5
 567              	# 0 "" 2
 568              	.LVL32:
 569              	#NO_APP
 570              	.L31:
 571              	.LBE48:
 572              	.LBE47:
 245:src/Riscv.cpp ****     else
 246:src/Riscv.cpp ****         Riscv::mc_sstatus(Riscv::SSTATUS_SPP);
 247:src/Riscv.cpp **** }
 573              		.loc 1 247 1
 574 02b4 03348100 		ld	s0,8(sp)
 575              		.cfi_remember_state
 576              		.cfi_restore 8
 577              		.cfi_def_cfa 2, 16
 578 02b8 13010101 		addi	sp,sp,16
 579              		.cfi_def_cfa_offset 0
 580 02bc 67800000 		jr	ra
 581              	.L32:
 582              		.cfi_restore_state
 246:src/Riscv.cpp **** }
 583              		.loc 1 246 9 is_stmt 1
 584              	.LVL33:
GAS LISTING /tmp/ccKcsDSH.s 			page 20


 585              	.LBB49:
 586              	.LBB50:
 185:src/../h/Riscv.hpp **** }
 587              		.loc 2 185 5
 185:src/../h/Riscv.hpp **** }
 588              		.loc 2 185 54 is_stmt 0
 589 02c0 93070010 		li	a5,256
 590              	#APP
 591              	# 185 "src/../h/Riscv.hpp" 1
 592              		csrc sstatus, a5
 593              	# 0 "" 2
 594              	.LVL34:
 595              	#NO_APP
 596              	.LBE50:
 597              	.LBE49:
 598              		.loc 1 247 1
 599 02c8 6FF0DFFE 		j	.L31
 600              		.cfi_endproc
 601              	.LFE38:
 603              		.align	2
 604              		.globl	_ZN5Riscv20handleSupervisorTrapEv
 606              	_ZN5Riscv20handleSupervisorTrapEv:
 607              	.LFB31:
  46:src/Riscv.cpp ****     __asm__ volatile("mv %0, a4" : "=r"(PCB::savedRegA4));
 608              		.loc 1 46 1 is_stmt 1
 609              		.cfi_startproc
 610 02cc 130101F9 		addi	sp,sp,-112
 611              		.cfi_def_cfa_offset 112
 612 02d0 23341106 		sd	ra,104(sp)
 613 02d4 23308106 		sd	s0,96(sp)
 614 02d8 233C9104 		sd	s1,88(sp)
 615              		.cfi_offset 1, -8
 616              		.cfi_offset 8, -16
 617              		.cfi_offset 9, -24
 618 02dc 13040107 		addi	s0,sp,112
 619              		.cfi_def_cfa 8, 0
  47:src/Riscv.cpp ****     __asm__ volatile("csrr %0, sscratch":"=r"(PCB::running->sscratch));
 620              		.loc 1 47 5
  47:src/Riscv.cpp ****     __asm__ volatile("csrr %0, sscratch":"=r"(PCB::running->sscratch));
 621              		.loc 1 47 58 is_stmt 0
 622              	#APP
 623              	# 47 "src/Riscv.cpp" 1
 624              		mv a4, a4
 625              	# 0 "" 2
 626              	#NO_APP
 627 02e4 97070000 		la	a5,_ZN3PCB10savedRegA4E
 627      83B70700 
 628 02ec 23B0E700 		sd	a4,0(a5)
  48:src/Riscv.cpp **** 
 629              		.loc 1 48 5 is_stmt 1
  48:src/Riscv.cpp **** 
 630              		.loc 1 48 61 is_stmt 0
 631 02f0 97070000 		la	a5,_ZN3PCB7runningE
 631      83B70700 
 632 02f8 83B70700 		ld	a5,0(a5)
  48:src/Riscv.cpp **** 
 633              		.loc 1 48 71
GAS LISTING /tmp/ccKcsDSH.s 			page 21


 634              	#APP
 635              	# 48 "src/Riscv.cpp" 1
 636              		csrr a4, sscratch
 637              	# 0 "" 2
 638              	#NO_APP
 639 0300 23B8E700 		sd	a4,16(a5)
  50:src/Riscv.cpp **** 
 640              		.loc 1 50 5 is_stmt 1
 641              	.LBB51:
 642              	.LBB52:
 110:src/../h/Riscv.hpp ****     __asm__ volatile("csrr %0, scause" : "=r"(scause));
 643              		.loc 2 110 5
 111:src/../h/Riscv.hpp ****     return scause;
 644              		.loc 2 111 5
 111:src/../h/Riscv.hpp ****     return scause;
 645              		.loc 2 111 55 is_stmt 0
 646              	#APP
 647              	# 111 "src/../h/Riscv.hpp" 1
 648              		csrr a5, scause
 649              	# 0 "" 2
 650              	#NO_APP
 651 0308 233CF4FA 		sd	a5,-72(s0)
 112:src/../h/Riscv.hpp **** }
 652              		.loc 2 112 5 is_stmt 1
 112:src/../h/Riscv.hpp **** }
 653              		.loc 2 112 12 is_stmt 0
 654 030c 833784FB 		ld	a5,-72(s0)
 655              	.LVL35:
 656              	.LBE52:
 657              	.LBE51:
  52:src/Riscv.cpp ****     {
 658              		.loc 1 52 5 is_stmt 1
 659              	.LBB53:
 660 0310 1307F0FF 		li	a4,-1
 661 0314 1317F703 		slli	a4,a4,63
 662 0318 13071700 		addi	a4,a4,1
 663 031c 638EE70C 		beq	a5,a4,.L36
 664 0320 1307F0FF 		li	a4,-1
 665 0324 1317F703 		slli	a4,a4,63
 666 0328 13071700 		addi	a4,a4,1
 667 032c 636EF704 		bgtu	a5,a4,.L37
 668 0330 938787FF 		addi	a5,a5,-8
 669              	.LVL36:
 670 0334 13071000 		li	a4,1
 671 0338 6364F71A 		bgtu	a5,a4,.L35
 672              	.LBE53:
 116:src/Riscv.cpp ****         case ecallUserInterrupt:
 673              		.loc 1 116 9
 117:src/Riscv.cpp ****         {
 674              		.loc 1 117 9
 118:src/Riscv.cpp ****             uint64 operation;
 675              		.loc 1 118 9
 676              	.LBB84:
 677              	.LBB54:
 119:src/Riscv.cpp ****             __asm__ volatile("mv %0, a0" :  "=r"(operation));
 678              		.loc 1 119 13
 120:src/Riscv.cpp **** 
GAS LISTING /tmp/ccKcsDSH.s 			page 22


 679              		.loc 1 120 13
 120:src/Riscv.cpp **** 
 680              		.loc 1 120 61 is_stmt 0
 681              	#APP
 682              	# 120 "src/Riscv.cpp" 1
 683              		mv a5, a0
 684              	# 0 "" 2
 685              	.LVL37:
 122:src/Riscv.cpp ****             uint64 volatile sstatus = Riscv::r_sstatus();
 686              		.loc 1 122 13 is_stmt 1
 687              	#NO_APP
 688              	.LBB55:
 689              	.LBB56:
 120:src/../h/Riscv.hpp ****     __asm__ volatile("csrr %0, sepc" : "=r"(sepc));
 690              		.loc 2 120 5
 121:src/../h/Riscv.hpp ****     return sepc;
 691              		.loc 2 121 5
 121:src/../h/Riscv.hpp ****     return sepc;
 692              		.loc 2 121 51 is_stmt 0
 693              	#APP
 694              	# 121 "src/../h/Riscv.hpp" 1
 695              		csrr a4, sepc
 696              	# 0 "" 2
 697              	#NO_APP
 698 0344 233CE4FC 		sd	a4,-40(s0)
 122:src/../h/Riscv.hpp **** }
 699              		.loc 2 122 5 is_stmt 1
 122:src/../h/Riscv.hpp **** }
 700              		.loc 2 122 12 is_stmt 0
 701 0348 033784FD 		ld	a4,-40(s0)
 702              	.LBE56:
 703              	.LBE55:
 122:src/Riscv.cpp ****             uint64 volatile sstatus = Riscv::r_sstatus();
 704              		.loc 1 122 52
 705 034c 13074700 		addi	a4,a4,4
 122:src/Riscv.cpp ****             uint64 volatile sstatus = Riscv::r_sstatus();
 706              		.loc 1 122 54
 707 0350 2334E4FA 		sd	a4,-88(s0)
 123:src/Riscv.cpp **** 
 708              		.loc 1 123 13 is_stmt 1
 709              	.LBB57:
 710              	.LBB58:
 187:src/../h/Riscv.hpp **** 
 188:src/../h/Riscv.hpp **** inline uint64 Riscv::r_sstatus() {
 189:src/../h/Riscv.hpp ****     uint64 volatile sstatus;
 711              		.loc 2 189 5
 190:src/../h/Riscv.hpp ****     __asm__ volatile("csrr %0, sstatus" : "=r"(sstatus));
 712              		.loc 2 190 5
 713              		.loc 2 190 57 is_stmt 0
 714              	#APP
 715              	# 190 "src/../h/Riscv.hpp" 1
 191              	    return sstatus;
 716              		csrr a4, sstatus
 717              	# 0 "" 2
 718              	#NO_APP
 719 0358 2338E4FC 		sd	a4,-48(s0)
 720              		.loc 2 191 5 is_stmt 1
GAS LISTING /tmp/ccKcsDSH.s 			page 23


 721              		.loc 2 191 12 is_stmt 0
 722 035c 033704FD 		ld	a4,-48(s0)
 723              	.LBE58:
 724              	.LBE57:
 123:src/Riscv.cpp **** 
 725              		.loc 1 123 56
 726 0360 2338E4FA 		sd	a4,-80(s0)
 125:src/Riscv.cpp ****             {
 727              		.loc 1 125 13 is_stmt 1
 728 0364 13072004 		li	a4,66
 729 0368 6360F716 		bgtu	a5,a4,.L43
 730 036c 93972700 		slli	a5,a5,2
 731              	.LVL38:
 732 0370 17070000 		lla	a4,.L45
 732      13070700 
 733 0378 B387E700 		add	a5,a5,a4
 734 037c 83A70700 		lw	a5,0(a5)
 735 0380 B387E700 		add	a5,a5,a4
 736 0384 67800700 		jr	a5
 737              		.section	.rodata
 738              		.align	2
 739              		.align	2
 740              	.L45:
 741 0000 00000000 		.word	.L43-.L45
 742 0004 00000000 		.word	.L58-.L45
 743 0008 00000000 		.word	.L57-.L45
 744 000c 00000000 		.word	.L43-.L45
 745 0010 00000000 		.word	.L43-.L45
 746 0014 00000000 		.word	.L43-.L45
 747 0018 00000000 		.word	.L43-.L45
 748 001c 00000000 		.word	.L43-.L45
 749 0020 00000000 		.word	.L43-.L45
 750 0024 00000000 		.word	.L43-.L45
 751 0028 00000000 		.word	.L43-.L45
 752 002c 00000000 		.word	.L43-.L45
 753 0030 00000000 		.word	.L43-.L45
 754 0034 00000000 		.word	.L43-.L45
 755 0038 00000000 		.word	.L43-.L45
 756 003c 00000000 		.word	.L43-.L45
 757 0040 00000000 		.word	.L43-.L45
 758 0044 00000000 		.word	.L56-.L45
 759 0048 00000000 		.word	.L55-.L45
 760 004c 00000000 		.word	.L54-.L45
 761 0050 00000000 		.word	.L53-.L45
 762 0054 00000000 		.word	.L52-.L45
 763 0058 00000000 		.word	.L43-.L45
 764 005c 00000000 		.word	.L43-.L45
 765 0060 00000000 		.word	.L43-.L45
 766 0064 00000000 		.word	.L43-.L45
 767 0068 00000000 		.word	.L43-.L45
 768 006c 00000000 		.word	.L43-.L45
 769 0070 00000000 		.word	.L43-.L45
 770 0074 00000000 		.word	.L43-.L45
 771 0078 00000000 		.word	.L43-.L45
 772 007c 00000000 		.word	.L43-.L45
 773 0080 00000000 		.word	.L43-.L45
 774 0084 00000000 		.word	.L51-.L45
GAS LISTING /tmp/ccKcsDSH.s 			page 24


 775 0088 00000000 		.word	.L50-.L45
 776 008c 00000000 		.word	.L49-.L45
 777 0090 00000000 		.word	.L48-.L45
 778 0094 00000000 		.word	.L43-.L45
 779 0098 00000000 		.word	.L43-.L45
 780 009c 00000000 		.word	.L43-.L45
 781 00a0 00000000 		.word	.L43-.L45
 782 00a4 00000000 		.word	.L43-.L45
 783 00a8 00000000 		.word	.L43-.L45
 784 00ac 00000000 		.word	.L43-.L45
 785 00b0 00000000 		.word	.L43-.L45
 786 00b4 00000000 		.word	.L43-.L45
 787 00b8 00000000 		.word	.L43-.L45
 788 00bc 00000000 		.word	.L43-.L45
 789 00c0 00000000 		.word	.L43-.L45
 790 00c4 00000000 		.word	.L47-.L45
 791 00c8 00000000 		.word	.L43-.L45
 792 00cc 00000000 		.word	.L43-.L45
 793 00d0 00000000 		.word	.L43-.L45
 794 00d4 00000000 		.word	.L43-.L45
 795 00d8 00000000 		.word	.L43-.L45
 796 00dc 00000000 		.word	.L43-.L45
 797 00e0 00000000 		.word	.L43-.L45
 798 00e4 00000000 		.word	.L43-.L45
 799 00e8 00000000 		.word	.L43-.L45
 800 00ec 00000000 		.word	.L43-.L45
 801 00f0 00000000 		.word	.L43-.L45
 802 00f4 00000000 		.word	.L43-.L45
 803 00f8 00000000 		.word	.L43-.L45
 804 00fc 00000000 		.word	.L43-.L45
 805 0100 00000000 		.word	.L43-.L45
 806 0104 00000000 		.word	.L46-.L45
 807 0108 00000000 		.word	.L44-.L45
 808              		.text
 809              	.LVL39:
 810              	.L37:
 811              	.LBE54:
  52:src/Riscv.cpp ****     {
 812              		.loc 1 52 5 is_stmt 0
 813 0388 1307F0FF 		li	a4,-1
 814 038c 1317F703 		slli	a4,a4,63
 815 0390 13079700 		addi	a4,a4,9
 816 0394 6396E714 		bne	a5,a4,.L35
 817              	.LBE84:
  77:src/Riscv.cpp ****         {
 818              		.loc 1 77 9 is_stmt 1
  78:src/Riscv.cpp ****             uint64 x = CONSOLE_STATUS;
 819              		.loc 1 78 9
 820              	.LBB85:
 821              	.LBB63:
  79:src/Riscv.cpp ****             __asm__ volatile("mv a0, %0"::"r"(x));
 822              		.loc 1 79 13
  79:src/Riscv.cpp ****             __asm__ volatile("mv a0, %0"::"r"(x));
 823              		.loc 1 79 20 is_stmt 0
 824 0398 97070000 		la	a5,CONSOLE_STATUS
 824      83B70700 
 825              	.LVL40:
GAS LISTING /tmp/ccKcsDSH.s 			page 25


 826 03a0 83B70700 		ld	a5,0(a5)
 827              	.LVL41:
  80:src/Riscv.cpp ****             __asm__ volatile("lb a1, 0(a0)");
 828              		.loc 1 80 13 is_stmt 1
  80:src/Riscv.cpp ****             __asm__ volatile("lb a1, 0(a0)");
 829              		.loc 1 80 50 is_stmt 0
 830              	#APP
 831              	# 80 "src/Riscv.cpp" 1
  81:src/Riscv.cpp ****             uint64 operation;
 832              		mv a0, a5
 833              	# 0 "" 2
 834              		.loc 1 81 13 is_stmt 1
  81:src/Riscv.cpp ****             uint64 operation;
 835              		.loc 1 81 45 is_stmt 0
 836              	# 81 "src/Riscv.cpp" 1
  82:src/Riscv.cpp ****             __asm__ volatile("mv %0, a1" :  "=r"(operation));
 837              		lb a1, 0(a0)
 838              	# 0 "" 2
 839              		.loc 1 82 13 is_stmt 1
  83:src/Riscv.cpp ****             if(operation & KConsole::STATUS_READ_MASK)
 840              		.loc 1 83 13
  83:src/Riscv.cpp ****             if(operation & KConsole::STATUS_READ_MASK)
 841              		.loc 1 83 61 is_stmt 0
 842              	# 83 "src/Riscv.cpp" 1
 843              		mv a5, a1
 844              	# 0 "" 2
 845              	.LVL42:
  84:src/Riscv.cpp ****             {
 846              		.loc 1 84 13 is_stmt 1
 847              	#NO_APP
 848              	.LBB64:
  84:src/Riscv.cpp ****             {
 849              		.loc 1 84 26 is_stmt 0
 850 03b0 93F71700 		andi	a5,a5,1
 851              	.LVL43:
  84:src/Riscv.cpp ****             {
 852              		.loc 1 84 13
 853 03b4 63880702 		beqz	a5,.L42
 854              	.LBB65:
  86:src/Riscv.cpp ****                 __asm__ volatile("mv a0, %0"::"r"(x));
 855              		.loc 1 86 17 is_stmt 1
  86:src/Riscv.cpp ****                 __asm__ volatile("mv a0, %0"::"r"(x));
 856              		.loc 1 86 19 is_stmt 0
 857 03b8 97070000 		la	a5,CONSOLE_TX_DATA
 857      83B70700 
 858 03c0 83B70700 		ld	a5,0(a5)
 859              	.LVL44:
  87:src/Riscv.cpp ****                 __asm__ volatile("lb a1,0(a0)");
 860              		.loc 1 87 17 is_stmt 1
  87:src/Riscv.cpp ****                 __asm__ volatile("lb a1,0(a0)");
 861              		.loc 1 87 54 is_stmt 0
 862              	#APP
 863              	# 87 "src/Riscv.cpp" 1
  88:src/Riscv.cpp ****                 char c;
 864              		mv a0, a5
 865              	# 0 "" 2
 866              		.loc 1 88 17 is_stmt 1
GAS LISTING /tmp/ccKcsDSH.s 			page 26


  88:src/Riscv.cpp ****                 char c;
 867              		.loc 1 88 48 is_stmt 0
 868              	# 88 "src/Riscv.cpp" 1
  89:src/Riscv.cpp ****                 __asm__ volatile("mv %0, a1" :  "=r"(c));
 869              		lb a1,0(a0)
 870              	# 0 "" 2
 871              		.loc 1 89 17 is_stmt 1
  90:src/Riscv.cpp **** 
 872              		.loc 1 90 17
  90:src/Riscv.cpp **** 
 873              		.loc 1 90 57 is_stmt 0
 874              	# 90 "src/Riscv.cpp" 1
 875              		mv a0, a1
 876              	# 0 "" 2
 877              	#NO_APP
 878 03d0 9374F50F 		andi	s1,a0,0xff
 879              	.LVL45:
  92:src/Riscv.cpp ****                 {
 880              		.loc 1 92 17 is_stmt 1
  92:src/Riscv.cpp ****                 {
 881              		.loc 1 92 42 is_stmt 0
 882 03d4 97070000 		la	a5,_ZN8KConsole11pendingGetcE
 882      83B70700 
 883              	.LVL46:
 884 03dc 83B70700 		ld	a5,0(a5)
  92:src/Riscv.cpp ****                 {
 885              		.loc 1 92 17
 886 03e0 639A070A 		bnez	a5,.L61
 887              	.LVL47:
 888              	.L42:
 889              	.LBE65:
 890              	.LBE64:
 100:src/Riscv.cpp **** 
 891              		.loc 1 100 13 is_stmt 1
 100:src/Riscv.cpp **** 
 892              		.loc 1 100 26 is_stmt 0
 893 03e4 97000000 		call	plic_claim@plt
 893      E7800000 
 894              	.LVL48:
 895 03ec 97000000 		call	plic_complete@plt
 895      E7800000 
 896              	.LVL49:
 102:src/Riscv.cpp ****         }
 897              		.loc 1 102 13 is_stmt 1
 898 03f4 6F00C00E 		j	.L35
 899              	.LVL50:
 900              	.L36:
 901              	.LBE63:
 902              	.LBE85:
  54:src/Riscv.cpp ****         {
 903              		.loc 1 54 9
  55:src/Riscv.cpp ****             uint64 volatile sepc = Riscv::r_sepc();
 904              		.loc 1 55 9
 905              	.LBB86:
 906              	.LBB68:
  56:src/Riscv.cpp ****             uint64 volatile sstatus = Riscv::r_sstatus();
 907              		.loc 1 56 13
GAS LISTING /tmp/ccKcsDSH.s 			page 27


 908              	.LBB69:
 909              	.LBB70:
 120:src/../h/Riscv.hpp ****     __asm__ volatile("csrr %0, sepc" : "=r"(sepc));
 910              		.loc 2 120 5
 121:src/../h/Riscv.hpp ****     return sepc;
 911              		.loc 2 121 5
 121:src/../h/Riscv.hpp ****     return sepc;
 912              		.loc 2 121 51 is_stmt 0
 913              	#APP
 914              	# 121 "src/../h/Riscv.hpp" 1
 915              		csrr a5, sepc
 916              	# 0 "" 2
 917              	.LVL51:
 918              	#NO_APP
 919 03fc 2334F4FC 		sd	a5,-56(s0)
 122:src/../h/Riscv.hpp **** }
 920              		.loc 2 122 5 is_stmt 1
 122:src/../h/Riscv.hpp **** }
 921              		.loc 2 122 12 is_stmt 0
 922 0400 833784FC 		ld	a5,-56(s0)
 923              	.LBE70:
 924              	.LBE69:
  56:src/Riscv.cpp ****             uint64 volatile sstatus = Riscv::r_sstatus();
 925              		.loc 1 56 50
 926 0404 233CF4F8 		sd	a5,-104(s0)
  57:src/Riscv.cpp ****             mc_sip(Riscv::SIP_SSIP);
 927              		.loc 1 57 13 is_stmt 1
 928              	.LBB71:
 929              	.LBB72:
 189:src/../h/Riscv.hpp ****     __asm__ volatile("csrr %0, sstatus" : "=r"(sstatus));
 930              		.loc 2 189 5
 190:src/../h/Riscv.hpp ****     return sstatus;
 931              		.loc 2 190 5
 190:src/../h/Riscv.hpp ****     return sstatus;
 932              		.loc 2 190 57 is_stmt 0
 933              	#APP
 934              	# 190 "src/../h/Riscv.hpp" 1
 935              		csrr a5, sstatus
 936              	# 0 "" 2
 937              	#NO_APP
 938 040c 2330F4FC 		sd	a5,-64(s0)
 939              		.loc 2 191 5 is_stmt 1
 940              		.loc 2 191 12 is_stmt 0
 941 0410 833704FC 		ld	a5,-64(s0)
 942              	.LBE72:
 943              	.LBE71:
  57:src/Riscv.cpp ****             mc_sip(Riscv::SIP_SSIP);
 944              		.loc 1 57 56
 945 0414 2330F4FA 		sd	a5,-96(s0)
  58:src/Riscv.cpp ****             //trapPrintString("timerInterrupt\n");
 946              		.loc 1 58 13 is_stmt 1
 947              	.LVL52:
 948              	.LBB73:
 949              	.LBB74:
 159:src/../h/Riscv.hpp **** }
 950              		.loc 2 159 5
 159:src/../h/Riscv.hpp **** }
GAS LISTING /tmp/ccKcsDSH.s 			page 28


 951              		.loc 2 159 50 is_stmt 0
 952 0418 93072000 		li	a5,2
 953              	#APP
 954              	# 159 "src/../h/Riscv.hpp" 1
 955              		csrc sip, a5
 956              	# 0 "" 2
 957              	.LVL53:
 958              	#NO_APP
 959              	.LBE74:
 960              	.LBE73:
  61:src/Riscv.cpp ****             //trapPrintInt(totalTime);
 961              		.loc 1 61 13 is_stmt 1
  61:src/Riscv.cpp ****             //trapPrintInt(totalTime);
 962              		.loc 1 61 22 is_stmt 0
 963 0420 17070000 		lla	a4,.LANCHOR0
 963      13070700 
 964 0428 83378700 		ld	a5,8(a4)
 965 042c 93871700 		addi	a5,a5,1
 966 0430 2334F700 		sd	a5,8(a4)
  64:src/Riscv.cpp ****             SleepPCBList::tryToWakePCBs();
 967              		.loc 1 64 13 is_stmt 1
  64:src/Riscv.cpp ****             SleepPCBList::tryToWakePCBs();
 968              		.loc 1 64 34 is_stmt 0
 969 0434 97040000 		la	s1,_ZN3PCB16timeSliceCounterE
 969      83B40400 
 970 043c 83B70400 		ld	a5,0(s1)
 971 0440 93871700 		addi	a5,a5,1
 972 0444 23B0F400 		sd	a5,0(s1)
  65:src/Riscv.cpp ****             if (PCB::timeSliceCounter >= PCB::running->getTimeSlice())
 973              		.loc 1 65 13 is_stmt 1
  65:src/Riscv.cpp ****             if (PCB::timeSliceCounter >= PCB::running->getTimeSlice())
 974              		.loc 1 65 40 is_stmt 0
 975 0448 97000000 		call	_ZN12SleepPCBList13tryToWakePCBsEv@plt
 975      E7800000 
 976              	.LVL54:
  66:src/Riscv.cpp ****             {
 977              		.loc 1 66 13 is_stmt 1
  66:src/Riscv.cpp ****             {
 978              		.loc 1 66 68 is_stmt 0
 979 0450 97070000 		la	a5,_ZN3PCB7runningE
 979      83B70700 
 980 0458 83B70700 		ld	a5,0(a5)
 981              	.LVL55:
 982              	.LBB75:
 983              	.LBB76:
 984              		.file 3 "src/../h/PCB.hpp"
   1:src/../h/PCB.hpp **** //
   2:src/../h/PCB.hpp **** // Created by os on 4/27/22.
   3:src/../h/PCB.hpp **** //
   4:src/../h/PCB.hpp **** 
   5:src/../h/PCB.hpp **** #ifndef PROJECT_BASE_V1_0_PCB_HPP
   6:src/../h/PCB.hpp **** #define PROJECT_BASE_V1_0_PCB_HPP
   7:src/../h/PCB.hpp **** 
   8:src/../h/PCB.hpp **** #include "../lib/hw.h"
   9:src/../h/PCB.hpp **** #include "Scheduler.hpp"
  10:src/../h/PCB.hpp **** #include "Riscv.hpp"
  11:src/../h/PCB.hpp **** 
GAS LISTING /tmp/ccKcsDSH.s 			page 29


  12:src/../h/PCB.hpp **** class PCB
  13:src/../h/PCB.hpp **** {
  14:src/../h/PCB.hpp **** public:
  15:src/../h/PCB.hpp ****     static uint64 savedRegA4;
  16:src/../h/PCB.hpp **** 
  17:src/../h/PCB.hpp ****     using Body = void (*)(void*);
  18:src/../h/PCB.hpp **** 
  19:src/../h/PCB.hpp ****     PCB(Body body,  void* args, void* stack_space, uint64 timeSlice);
  20:src/../h/PCB.hpp ****     ~PCB();
  21:src/../h/PCB.hpp **** 
  22:src/../h/PCB.hpp ****     void start();
  23:src/../h/PCB.hpp ****     static void dispatch();
  24:src/../h/PCB.hpp ****     static void sleep(time_t);
  25:src/../h/PCB.hpp **** 
  26:src/../h/PCB.hpp ****     static PCB* running;
  27:src/../h/PCB.hpp **** 
  28:src/../h/PCB.hpp ****     static uint64 timeSliceCounter;
  29:src/../h/PCB.hpp ****     uint64 getTimeSlice() { return timeSlice;}
 985              		.loc 3 29 29 is_stmt 1
 986              		.loc 3 29 36 is_stmt 0
 987 045c 83B78701 		ld	a5,24(a5)
 988              	.LVL56:
 989              	.LBE76:
 990              	.LBE75:
  66:src/Riscv.cpp ****             {
 991              		.loc 1 66 39
 992 0460 03B70400 		ld	a4,0(s1)
  66:src/Riscv.cpp ****             {
 993              		.loc 1 66 13
 994 0464 6370F702 		bgeu	a4,a5,.L62
 995              	.L41:
  72:src/Riscv.cpp ****             Riscv::w_sepc(sepc);
 996              		.loc 1 72 13 is_stmt 1
  72:src/Riscv.cpp ****             Riscv::w_sepc(sepc);
 997              		.loc 1 72 29 is_stmt 0
 998 0468 833704FA 		ld	a5,-96(s0)
 999              	.LVL57:
 1000              	.LBB77:
 1001              	.LBB78:
 192:src/../h/Riscv.hpp **** }
 193:src/../h/Riscv.hpp **** 
 194:src/../h/Riscv.hpp **** inline void Riscv::w_sstatus(uint64 sstatus) {
 195:src/../h/Riscv.hpp ****     __asm__ volatile("csrw sstatus, %0" : :"r"(sstatus));
 1002              		.loc 2 195 5 is_stmt 1
 1003              		.loc 2 195 57 is_stmt 0
 1004              	#APP
 1005              	# 195 "src/../h/Riscv.hpp" 1
 196              	}
 1006              		csrw sstatus, a5
 1007              	# 0 "" 2
 1008              	.LVL58:
 1009              	#NO_APP
 1010              	.LBE78:
 1011              	.LBE77:
  73:src/Riscv.cpp ****             changePrivMode();
 1012              		.loc 1 73 13 is_stmt 1
  73:src/Riscv.cpp ****             changePrivMode();
GAS LISTING /tmp/ccKcsDSH.s 			page 30


 1013              		.loc 1 73 26 is_stmt 0
 1014 0470 833784F9 		ld	a5,-104(s0)
 1015              	.LVL59:
 1016              	.LBB79:
 1017              	.LBB80:
 126:src/../h/Riscv.hpp **** }
 1018              		.loc 2 126 5 is_stmt 1
 126:src/../h/Riscv.hpp **** }
 1019              		.loc 2 126 51 is_stmt 0
 1020              	#APP
 1021              	# 126 "src/../h/Riscv.hpp" 1
 1022              		csrw sepc, a5
 1023              	# 0 "" 2
 1024              	.LVL60:
 1025              	#NO_APP
 1026              	.LBE80:
 1027              	.LBE79:
  74:src/Riscv.cpp ****             break;
 1028              		.loc 1 74 13 is_stmt 1
  74:src/Riscv.cpp ****             break;
 1029              		.loc 1 74 27 is_stmt 0
 1030 0478 97000000 		call	_ZN5Riscv14changePrivModeEv
 1030      E7800000 
 1031              	.LVL61:
  75:src/Riscv.cpp ****         }
 1032              		.loc 1 75 13 is_stmt 1
 1033 0480 6F000006 		j	.L35
 1034              	.L62:
  68:src/Riscv.cpp ****                 PCB::dispatch();
 1035              		.loc 1 68 17
  68:src/Riscv.cpp ****                 PCB::dispatch();
 1036              		.loc 1 68 39 is_stmt 0
 1037 0484 23B00400 		sd	zero,0(s1)
  69:src/Riscv.cpp ****             }
 1038              		.loc 1 69 17 is_stmt 1
  69:src/Riscv.cpp ****             }
 1039              		.loc 1 69 30 is_stmt 0
 1040 0488 97000000 		call	_ZN3PCB8dispatchEv@plt
 1040      E7800000 
 1041              	.LVL62:
 1042 0490 6FF09FFD 		j	.L41
 1043              	.LVL63:
 1044              	.L61:
 1045              	.LBE68:
 1046              	.LBB81:
 1047              	.LBB67:
 1048              	.LBB66:
  94:src/Riscv.cpp ****                     KConsole::putCharacterInput(c);
 1049              		.loc 1 94 21 is_stmt 1
  94:src/Riscv.cpp ****                     KConsole::putCharacterInput(c);
 1050              		.loc 1 94 42 is_stmt 0
 1051 0494 9387F7FF 		addi	a5,a5,-1
 1052 0498 17070000 		la	a4,_ZN8KConsole11pendingGetcE
 1052      03370700 
 1053 04a0 2330F700 		sd	a5,0(a4)
  95:src/Riscv.cpp ****                     KConsole::putCharacterOutput(c);
 1054              		.loc 1 95 21 is_stmt 1
GAS LISTING /tmp/ccKcsDSH.s 			page 31


  95:src/Riscv.cpp ****                     KConsole::putCharacterOutput(c);
 1055              		.loc 1 95 48 is_stmt 0
 1056 04a4 13850400 		mv	a0,s1
 1057              	.LVL64:
 1058 04a8 97000000 		call	_ZN8KConsole17putCharacterInputEc@plt
 1058      E7800000 
 1059              	.LVL65:
  96:src/Riscv.cpp ****                 }
 1060              		.loc 1 96 21 is_stmt 1
  96:src/Riscv.cpp ****                 }
 1061              		.loc 1 96 49 is_stmt 0
 1062 04b0 13850400 		mv	a0,s1
 1063 04b4 97000000 		call	_ZN8KConsole18putCharacterOutputEc@plt
 1063      E7800000 
 1064              	.LVL66:
 1065 04bc 6FF09FF2 		j	.L42
 1066              	.LVL67:
 1067              	.L58:
 1068              	.LBE66:
 1069              	.LBE67:
 1070              	.LBE81:
 1071              	.LBB82:
 127:src/Riscv.cpp ****                     MemoryAllocator::memAllocHandler();
 1072              		.loc 1 127 17 is_stmt 1
 128:src/Riscv.cpp ****                     break;
 1073              		.loc 1 128 21
 128:src/Riscv.cpp ****                     break;
 1074              		.loc 1 128 53 is_stmt 0
 1075 04c0 97000000 		call	_ZN15MemoryAllocator15memAllocHandlerEv@plt
 1075      E7800000 
 1076              	.LVL68:
 129:src/Riscv.cpp ****                 case MemoryAllocator::MEM_FREE:
 1077              		.loc 1 129 21 is_stmt 1
 1078              	.L43:
 171:src/Riscv.cpp ****             Riscv::w_sepc(sepc);
 1079              		.loc 1 171 13
 171:src/Riscv.cpp ****             Riscv::w_sepc(sepc);
 1080              		.loc 1 171 29 is_stmt 0
 1081 04c8 833704FB 		ld	a5,-80(s0)
 1082              	.LVL69:
 1083              	.LBB59:
 1084              	.LBB60:
 195:src/../h/Riscv.hpp **** }
 1085              		.loc 2 195 5 is_stmt 1
 195:src/../h/Riscv.hpp **** }
 1086              		.loc 2 195 57 is_stmt 0
 1087              	#APP
 1088              	# 195 "src/../h/Riscv.hpp" 1
 1089              		csrw sstatus, a5
 1090              	# 0 "" 2
 1091              	.LVL70:
 1092              	#NO_APP
 1093              	.LBE60:
 1094              	.LBE59:
 172:src/Riscv.cpp ****             changePrivMode();
 1095              		.loc 1 172 13 is_stmt 1
 172:src/Riscv.cpp ****             changePrivMode();
GAS LISTING /tmp/ccKcsDSH.s 			page 32


 1096              		.loc 1 172 26 is_stmt 0
 1097 04d0 833784FA 		ld	a5,-88(s0)
 1098              	.LVL71:
 1099              	.LBB61:
 1100              	.LBB62:
 126:src/../h/Riscv.hpp **** }
 1101              		.loc 2 126 5 is_stmt 1
 126:src/../h/Riscv.hpp **** }
 1102              		.loc 2 126 51 is_stmt 0
 1103              	#APP
 1104              	# 126 "src/../h/Riscv.hpp" 1
 1105              		csrw sepc, a5
 1106              	# 0 "" 2
 1107              	.LVL72:
 1108              	#NO_APP
 1109              	.LBE62:
 1110              	.LBE61:
 173:src/Riscv.cpp ****             break;
 1111              		.loc 1 173 13 is_stmt 1
 173:src/Riscv.cpp ****             break;
 1112              		.loc 1 173 27 is_stmt 0
 1113 04d8 97000000 		call	_ZN5Riscv14changePrivModeEv
 1113      E7800000 
 1114              	.LVL73:
 174:src/Riscv.cpp ****         }
 1115              		.loc 1 174 13 is_stmt 1
 1116              	.L35:
 1117              	.LBE82:
 1118              	.LBE86:
 177:src/Riscv.cpp **** 
 1119              		.loc 1 177 1 is_stmt 0
 1120 04e0 83308106 		ld	ra,104(sp)
 1121              		.cfi_remember_state
 1122              		.cfi_restore 1
 1123 04e4 03340106 		ld	s0,96(sp)
 1124              		.cfi_restore 8
 1125              		.cfi_def_cfa 2, 112
 1126 04e8 83348105 		ld	s1,88(sp)
 1127              		.cfi_restore 9
 1128 04ec 13010107 		addi	sp,sp,112
 1129              		.cfi_def_cfa_offset 0
 1130 04f0 67800000 		jr	ra
 1131              	.L57:
 1132              		.cfi_restore_state
 1133              	.LBB87:
 1134              	.LBB83:
 130:src/Riscv.cpp ****                     MemoryAllocator::memFreeHandler();
 1135              		.loc 1 130 17 is_stmt 1
 131:src/Riscv.cpp ****                     break;
 1136              		.loc 1 131 21
 131:src/Riscv.cpp ****                     break;
 1137              		.loc 1 131 52 is_stmt 0
 1138 04f4 97000000 		call	_ZN15MemoryAllocator14memFreeHandlerEv@plt
 1138      E7800000 
 1139              	.LVL74:
 132:src/Riscv.cpp ****                 case PCB::THREAD_MAKE_PCB:
 1140              		.loc 1 132 21 is_stmt 1
GAS LISTING /tmp/ccKcsDSH.s 			page 33


 1141 04fc 6FF0DFFC 		j	.L43
 1142              	.L53:
 133:src/Riscv.cpp ****                     PCB::threadMakePCBHandler();
 1143              		.loc 1 133 17
 134:src/Riscv.cpp ****                     break;
 1144              		.loc 1 134 21
 134:src/Riscv.cpp ****                     break;
 1145              		.loc 1 134 46 is_stmt 0
 1146 0500 97000000 		call	_ZN3PCB20threadMakePCBHandlerEv@plt
 1146      E7800000 
 1147              	.LVL75:
 135:src/Riscv.cpp ****                 case PCB::THREAD_CREATE:
 1148              		.loc 1 135 21 is_stmt 1
 1149 0508 6FF01FFC 		j	.L43
 1150              	.L56:
 136:src/Riscv.cpp ****                     PCB::threadCreateHandler();
 1151              		.loc 1 136 17
 137:src/Riscv.cpp ****                     break;
 1152              		.loc 1 137 21
 137:src/Riscv.cpp ****                     break;
 1153              		.loc 1 137 45 is_stmt 0
 1154 050c 97000000 		call	_ZN3PCB19threadCreateHandlerEv@plt
 1154      E7800000 
 1155              	.LVL76:
 138:src/Riscv.cpp ****                 case PCB::THREAD_START:
 1156              		.loc 1 138 21 is_stmt 1
 1157 0514 6FF05FFB 		j	.L43
 1158              	.L52:
 139:src/Riscv.cpp ****                     PCB::threadStartHandler();
 1159              		.loc 1 139 17
 140:src/Riscv.cpp ****                     break;
 1160              		.loc 1 140 21
 140:src/Riscv.cpp ****                     break;
 1161              		.loc 1 140 44 is_stmt 0
 1162 0518 97000000 		call	_ZN3PCB18threadStartHandlerEv@plt
 1162      E7800000 
 1163              	.LVL77:
 141:src/Riscv.cpp ****                 case PCB::THREAD_DISPATCH:
 1164              		.loc 1 141 21 is_stmt 1
 1165 0520 6FF09FFA 		j	.L43
 1166              	.L54:
 142:src/Riscv.cpp ****                     PCB::threadDispatchHandler();
 1167              		.loc 1 142 17
 143:src/Riscv.cpp ****                     break;
 1168              		.loc 1 143 21
 143:src/Riscv.cpp ****                     break;
 1169              		.loc 1 143 47 is_stmt 0
 1170 0524 97000000 		call	_ZN3PCB21threadDispatchHandlerEv@plt
 1170      E7800000 
 1171              	.LVL78:
 144:src/Riscv.cpp ****                 case PCB::THREAD_EXIT:
 1172              		.loc 1 144 21 is_stmt 1
 1173 052c 6FF0DFF9 		j	.L43
 1174              	.L55:
 145:src/Riscv.cpp ****                     PCB::threadExitHandler();
 1175              		.loc 1 145 17
 146:src/Riscv.cpp ****                     break;
GAS LISTING /tmp/ccKcsDSH.s 			page 34


 1176              		.loc 1 146 21
 146:src/Riscv.cpp ****                     break;
 1177              		.loc 1 146 43 is_stmt 0
 1178 0530 97000000 		call	_ZN3PCB17threadExitHandlerEv@plt
 1178      E7800000 
 1179              	.LVL79:
 147:src/Riscv.cpp ****                 case PCB::TIME_SLEEP:
 1180              		.loc 1 147 21 is_stmt 1
 1181 0538 6FF01FF9 		j	.L43
 1182              	.L47:
 148:src/Riscv.cpp ****                     PCB::threadSleepHandler();
 1183              		.loc 1 148 17
 149:src/Riscv.cpp ****                     break;
 1184              		.loc 1 149 21
 149:src/Riscv.cpp ****                     break;
 1185              		.loc 1 149 44 is_stmt 0
 1186 053c 97000000 		call	_ZN3PCB18threadSleepHandlerEv@plt
 1186      E7800000 
 1187              	.LVL80:
 150:src/Riscv.cpp ****                 case KSemaphore::SEM_OPEN:
 1188              		.loc 1 150 21 is_stmt 1
 1189 0544 6FF05FF8 		j	.L43
 1190              	.L51:
 151:src/Riscv.cpp ****                     KSemaphore::semOpenHandler();
 1191              		.loc 1 151 17
 152:src/Riscv.cpp ****                     break;
 1192              		.loc 1 152 21
 152:src/Riscv.cpp ****                     break;
 1193              		.loc 1 152 47 is_stmt 0
 1194 0548 97000000 		call	_ZN10KSemaphore14semOpenHandlerEv@plt
 1194      E7800000 
 1195              	.LVL81:
 153:src/Riscv.cpp ****                 case KSemaphore::SEM_WAIT:
 1196              		.loc 1 153 21 is_stmt 1
 1197 0550 6FF09FF7 		j	.L43
 1198              	.L49:
 154:src/Riscv.cpp ****                     KSemaphore::semWaitHandler();
 1199              		.loc 1 154 17
 155:src/Riscv.cpp ****                     break;
 1200              		.loc 1 155 21
 155:src/Riscv.cpp ****                     break;
 1201              		.loc 1 155 47 is_stmt 0
 1202 0554 97000000 		call	_ZN10KSemaphore14semWaitHandlerEv@plt
 1202      E7800000 
 1203              	.LVL82:
 156:src/Riscv.cpp ****                 case KSemaphore::SEM_SIGNAL:
 1204              		.loc 1 156 21 is_stmt 1
 1205 055c 6FF0DFF6 		j	.L43
 1206              	.L48:
 157:src/Riscv.cpp ****                     KSemaphore::semSignalHandler();
 1207              		.loc 1 157 17
 158:src/Riscv.cpp ****                     break;
 1208              		.loc 1 158 21
 158:src/Riscv.cpp ****                     break;
 1209              		.loc 1 158 49 is_stmt 0
 1210 0560 97000000 		call	_ZN10KSemaphore16semSignalHandlerEv@plt
 1210      E7800000 
GAS LISTING /tmp/ccKcsDSH.s 			page 35


 1211              	.LVL83:
 159:src/Riscv.cpp ****                 case KSemaphore::SEM_CLOSE:
 1212              		.loc 1 159 21 is_stmt 1
 1213 0568 6FF01FF6 		j	.L43
 1214              	.L50:
 160:src/Riscv.cpp ****                     KSemaphore::semCloseHandler();
 1215              		.loc 1 160 17
 161:src/Riscv.cpp ****                     break;
 1216              		.loc 1 161 21
 161:src/Riscv.cpp ****                     break;
 1217              		.loc 1 161 48 is_stmt 0
 1218 056c 97000000 		call	_ZN10KSemaphore15semCloseHandlerEv@plt
 1218      E7800000 
 1219              	.LVL84:
 162:src/Riscv.cpp ****                 case KConsole::CONSOLE_GETC:
 1220              		.loc 1 162 21 is_stmt 1
 1221 0574 6FF05FF5 		j	.L43
 1222              	.L46:
 163:src/Riscv.cpp ****                     KConsole::getcHandler();
 1223              		.loc 1 163 17
 164:src/Riscv.cpp ****                     break;
 1224              		.loc 1 164 21
 164:src/Riscv.cpp ****                     break;
 1225              		.loc 1 164 42 is_stmt 0
 1226 0578 97000000 		call	_ZN8KConsole11getcHandlerEv@plt
 1226      E7800000 
 1227              	.LVL85:
 165:src/Riscv.cpp ****                 case KConsole::CONSOLE_PUTC:
 1228              		.loc 1 165 21 is_stmt 1
 1229 0580 6FF09FF4 		j	.L43
 1230              	.L44:
 166:src/Riscv.cpp ****                     KConsole::putcHandler();
 1231              		.loc 1 166 17
 167:src/Riscv.cpp ****                     break;
 1232              		.loc 1 167 21
 167:src/Riscv.cpp ****                     break;
 1233              		.loc 1 167 42 is_stmt 0
 1234 0584 97000000 		call	_ZN8KConsole11putcHandlerEv@plt
 1234      E7800000 
 1235              	.LVL86:
 168:src/Riscv.cpp ****             }
 1236              		.loc 1 168 21 is_stmt 1
 1237 058c 6FF0DFF3 		j	.L43
 1238              	.LBE83:
 1239              	.LBE87:
 1240              		.cfi_endproc
 1241              	.LFE31:
 1243              		.globl	_ZN5Riscv12finishSystemE
 1244              		.globl	_ZN5Riscv9totalTimeE
 1245              		.bss
 1246              		.align	3
 1247              		.set	.LANCHOR0,. + 0
 1250              	_ZN5Riscv12finishSystemE:
 1251 0000 00       		.zero	1
 1252 0001 00000000 		.zero	7
 1252      000000
 1255              	_ZN5Riscv9totalTimeE:
GAS LISTING /tmp/ccKcsDSH.s 			page 36


 1256 0008 00000000 		.zero	8
 1256      00000000 
 1257              		.text
 1258              	.Letext0:
 1259              		.file 4 "src/../h/../lib/hw.h"
 1260              		.file 5 "src/../h/MemoryAllocator.hpp"
 1261              		.file 6 "src/../h/KSemaphore.hpp"
 1262              		.file 7 "src/../h/SleepPCBList.hpp"
 1263              		.file 8 "src/../h/KConsole.hpp"
 1264              		.file 9 "src/../h/Tests.hpp"
 1265              		.file 10 "src/../test/userMain.hpp"
 1266              		.file 11 "src/../h/../test/../h/syscall_c.h"
 1267              		.file 12 "src/../h/../test/printing.hpp"
 5897              		.align	3
 5900              	DW.ref.__gxx_personality_v0:
 5901 0000 00000000 		.dword	__gxx_personality_v0
 5901      00000000 
 5902              		.ident	"GCC: (Ubuntu 9.3.0-17ubuntu1~20.04) 9.3.0"
 5903              		.section	.note.GNU-stack,"",@progbits
GAS LISTING /tmp/ccKcsDSH.s 			page 37


DEFINED SYMBOLS
                            *ABS*:0000000000000000 Riscv.cpp
     /tmp/ccKcsDSH.s:9      .text:0000000000000000 _ZN5Riscv15userMainWrapperEPv
     /tmp/ccKcsDSH.s:13     .text:0000000000000000 .L0 
     /tmp/ccKcsDSH.s:14     .text:0000000000000000 .L0 
     /tmp/ccKcsDSH.s:15     .text:0000000000000004 .L0 
     /tmp/ccKcsDSH.s:18     .text:000000000000000c .L0 
     /tmp/ccKcsDSH.s:19     .text:000000000000000c .L0 
     /tmp/ccKcsDSH.s:21     .text:0000000000000010 .L0 
     /tmp/ccKcsDSH.s:23     .text:0000000000000010 .L0 
     /tmp/ccKcsDSH.s:24     .text:0000000000000010 .L0 
     /tmp/ccKcsDSH.s:27     .text:0000000000000018 .L0 
     /tmp/ccKcsDSH.s:28     .text:000000000000001c .L0 
     /tmp/ccKcsDSH.s:30     .text:0000000000000020 .L0 
     /tmp/ccKcsDSH.s:31     .text:0000000000000020 .L0 
     /tmp/ccKcsDSH.s:33     .text:0000000000000024 .L0 
     /tmp/ccKcsDSH.s:35     .text:0000000000000028 .L0 
     /tmp/ccKcsDSH.s:41     .text:0000000000000028 _ZN5Riscv10initSystemEv
     /tmp/ccKcsDSH.s:44     .text:0000000000000028 .L0 
     /tmp/ccKcsDSH.s:45     .text:0000000000000028 .L0 
     /tmp/ccKcsDSH.s:46     .text:000000000000002c .L0 
     /tmp/ccKcsDSH.s:49     .text:0000000000000034 .L0 
     /tmp/ccKcsDSH.s:50     .text:0000000000000034 .L0 
     /tmp/ccKcsDSH.s:52     .text:0000000000000038 .L0 
     /tmp/ccKcsDSH.s:54     .text:0000000000000038 .L0 
     /tmp/ccKcsDSH.s:55     .text:0000000000000038 .L0 
     /tmp/ccKcsDSH.s:61     .text:0000000000000040 .L0 
  src/../h/Riscv.hpp:136    .text:0000000000000040 .L0 
     /tmp/ccKcsDSH.s:71     .text:0000000000000044 .L0 
     /tmp/ccKcsDSH.s:72     .text:0000000000000044 .L0 
     /tmp/ccKcsDSH.s:75     .text:000000000000004c .L0 
     /tmp/ccKcsDSH.s:76     .text:000000000000004c .L0 
     /tmp/ccKcsDSH.s:79     .text:0000000000000054 .L0 
     /tmp/ccKcsDSH.s:80     .text:0000000000000058 .L0 
     /tmp/ccKcsDSH.s:82     .text:000000000000005c .L0 
     /tmp/ccKcsDSH.s:83     .text:000000000000005c .L0 
     /tmp/ccKcsDSH.s:85     .text:0000000000000060 .L0 
     /tmp/ccKcsDSH.s:87     .text:0000000000000064 .L0 
     /tmp/ccKcsDSH.s:93     .text:0000000000000064 _ZN5Riscv16enableInterruptsEv
     /tmp/ccKcsDSH.s:96     .text:0000000000000064 .L0 
     /tmp/ccKcsDSH.s:97     .text:0000000000000064 .L0 
     /tmp/ccKcsDSH.s:98     .text:0000000000000068 .L0 
     /tmp/ccKcsDSH.s:100    .text:000000000000006c .L0 
     /tmp/ccKcsDSH.s:102    .text:0000000000000070 .L0 
     /tmp/ccKcsDSH.s:107    .text:0000000000000070 .L0 
     /tmp/ccKcsDSH.s:108    .text:0000000000000070 .L0 
     /tmp/ccKcsDSH.s:109    .text:0000000000000070 .L0 
     /tmp/ccKcsDSH.s:119    .text:0000000000000078 .L0 
     /tmp/ccKcsDSH.s:120    .text:000000000000007c .L0 
     /tmp/ccKcsDSH.s:121    .text:000000000000007c .L0 
     /tmp/ccKcsDSH.s:123    .text:0000000000000080 .L0 
     /tmp/ccKcsDSH.s:125    .text:0000000000000084 .L0 
     /tmp/ccKcsDSH.s:131    .text:0000000000000084 _ZN5Riscv17disableInterruptsEv
     /tmp/ccKcsDSH.s:134    .text:0000000000000084 .L0 
     /tmp/ccKcsDSH.s:135    .text:0000000000000084 .L0 
     /tmp/ccKcsDSH.s:136    .text:0000000000000088 .L0 
     /tmp/ccKcsDSH.s:138    .text:000000000000008c .L0 
GAS LISTING /tmp/ccKcsDSH.s 			page 38


     /tmp/ccKcsDSH.s:140    .text:0000000000000090 .L0 
     /tmp/ccKcsDSH.s:145    .text:0000000000000090 .L0 
     /tmp/ccKcsDSH.s:146    .text:0000000000000090 .L0 
     /tmp/ccKcsDSH.s:147    .text:0000000000000090 .L0 
     /tmp/ccKcsDSH.s:157    .text:0000000000000098 .L0 
     /tmp/ccKcsDSH.s:158    .text:000000000000009c .L0 
     /tmp/ccKcsDSH.s:159    .text:000000000000009c .L0 
     /tmp/ccKcsDSH.s:161    .text:00000000000000a0 .L0 
     /tmp/ccKcsDSH.s:163    .text:00000000000000a4 .L0 
     /tmp/ccKcsDSH.s:169    .text:00000000000000a4 _ZN5Riscv9endSystemEv
     /tmp/ccKcsDSH.s:172    .text:00000000000000a4 .L0 
     /tmp/ccKcsDSH.s:173    .text:00000000000000a4 .L0 
     /tmp/ccKcsDSH.s:174    .text:00000000000000a8 .L0 
     /tmp/ccKcsDSH.s:177    .text:00000000000000b0 .L0 
     /tmp/ccKcsDSH.s:178    .text:00000000000000b0 .L0 
     /tmp/ccKcsDSH.s:180    .text:00000000000000b4 .L0 
     /tmp/ccKcsDSH.s:182    .text:00000000000000b4 .L0 
     /tmp/ccKcsDSH.s:183    .text:00000000000000b4 .L0 
     /tmp/ccKcsDSH.s:186    .text:00000000000000bc .L0 
     /tmp/ccKcsDSH.s:187    .text:00000000000000c0 .L0 
     /tmp/ccKcsDSH.s:189    .text:00000000000000c4 .L0 
     /tmp/ccKcsDSH.s:190    .text:00000000000000c4 .L0 
     /tmp/ccKcsDSH.s:192    .text:00000000000000c8 .L0 
     /tmp/ccKcsDSH.s:194    .text:00000000000000cc .L0 
     /tmp/ccKcsDSH.s:200    .text:00000000000000cc _ZN5Riscv10popSppSpieEv
     /tmp/ccKcsDSH.s:203    .text:00000000000000cc .L0 
     /tmp/ccKcsDSH.s:204    .text:00000000000000cc .L0 
     /tmp/ccKcsDSH.s:205    .text:00000000000000d0 .L0 
     /tmp/ccKcsDSH.s:207    .text:00000000000000d4 .L0 
     /tmp/ccKcsDSH.s:209    .text:00000000000000d8 .L0 
     /tmp/ccKcsDSH.s:211    .text:00000000000000d8 .L0 
       src/Riscv.cpp:41     .text:00000000000000d8 .L0 
     /tmp/ccKcsDSH.s:217    .text:00000000000000dc .L0 
       src/Riscv.cpp:42     .text:00000000000000dc .L0 
     /tmp/ccKcsDSH.s:223    .text:00000000000000e0 .L0 
     /tmp/ccKcsDSH.s:224    .text:00000000000000e4 .L0 
     /tmp/ccKcsDSH.s:225    .text:00000000000000e4 .L0 
     /tmp/ccKcsDSH.s:227    .text:00000000000000e8 .L0 
     /tmp/ccKcsDSH.s:229    .text:00000000000000ec .L0 
     /tmp/ccKcsDSH.s:240    .text:00000000000000ec _ZN5Riscv10kernelMainEv
     /tmp/ccKcsDSH.s:243    .text:00000000000000ec .L0 
     /tmp/ccKcsDSH.s:5900   .data.rel.local.DW.ref.__gxx_personality_v0:0000000000000000 DW.ref.__gxx_personality_v0
     /tmp/ccKcsDSH.s:246    .text:00000000000000ec .L0 
     /tmp/ccKcsDSH.s:247    .text:00000000000000f0 .L0 
     /tmp/ccKcsDSH.s:252    .text:0000000000000100 .L0 
     /tmp/ccKcsDSH.s:253    .text:0000000000000100 .L0 
     /tmp/ccKcsDSH.s:254    .text:0000000000000100 .L0 
     /tmp/ccKcsDSH.s:255    .text:0000000000000100 .L0 
     /tmp/ccKcsDSH.s:257    .text:0000000000000104 .L0 
     /tmp/ccKcsDSH.s:260    .text:0000000000000104 .L0 
     /tmp/ccKcsDSH.s:261    .text:0000000000000104 .L0 
     /tmp/ccKcsDSH.s:264    .text:000000000000010c .L0 
     /tmp/ccKcsDSH.s:265    .text:000000000000010c .L0 
     /tmp/ccKcsDSH.s:268    .text:0000000000000114 .L0 
     /tmp/ccKcsDSH.s:269    .text:0000000000000114 .L0 
     /tmp/ccKcsDSH.s:274    .text:0000000000000124 .L0 
     /tmp/ccKcsDSH.s:288    .text:0000000000000150 .L0 
GAS LISTING /tmp/ccKcsDSH.s 			page 39


     /tmp/ccKcsDSH.s:289    .text:0000000000000150 .L0 
     /tmp/ccKcsDSH.s:295    .text:000000000000015c .L0 
     /tmp/ccKcsDSH.s:296    .text:000000000000015c .L0 
     /tmp/ccKcsDSH.s:297    .text:000000000000015c .L0 
     /tmp/ccKcsDSH.s:301    .text:0000000000000168 .L0 
     /tmp/ccKcsDSH.s:303    .text:000000000000016c .L0 
     /tmp/ccKcsDSH.s:304    .text:000000000000016c .L0 
     /tmp/ccKcsDSH.s:307    .text:0000000000000174 .L0 
     /tmp/ccKcsDSH.s:310    .text:0000000000000178 .L0 
     /tmp/ccKcsDSH.s:311    .text:0000000000000178 .L0 
     /tmp/ccKcsDSH.s:314    .text:0000000000000184 .L0 
     /tmp/ccKcsDSH.s:315    .text:0000000000000184 .L0 
     /tmp/ccKcsDSH.s:320    .text:0000000000000194 .L0 
     /tmp/ccKcsDSH.s:321    .text:0000000000000194 .L0 
     /tmp/ccKcsDSH.s:322    .text:0000000000000194 .L0 
     /tmp/ccKcsDSH.s:327    .text:00000000000001a8 .L0 
     /tmp/ccKcsDSH.s:329    .text:00000000000001ac .L0 
     /tmp/ccKcsDSH.s:330    .text:00000000000001ac .L0 
     /tmp/ccKcsDSH.s:334    .text:00000000000001b4 .L0 
     /tmp/ccKcsDSH.s:337    .text:00000000000001b8 .L0 
     /tmp/ccKcsDSH.s:338    .text:00000000000001b8 .L0 
     /tmp/ccKcsDSH.s:341    .text:00000000000001c0 .L0 
     /tmp/ccKcsDSH.s:342    .text:00000000000001c0 .L0 
     /tmp/ccKcsDSH.s:345    .text:00000000000001c8 .L0 
     /tmp/ccKcsDSH.s:346    .text:00000000000001cc .L0 
     /tmp/ccKcsDSH.s:347    .text:00000000000001cc .L0 
     /tmp/ccKcsDSH.s:349    .text:00000000000001d0 .L0 
     /tmp/ccKcsDSH.s:350    .text:00000000000001d0 .L0 
     /tmp/ccKcsDSH.s:352    .text:00000000000001d4 .L0 
     /tmp/ccKcsDSH.s:355    .text:00000000000001d8 .L0 
     /tmp/ccKcsDSH.s:357    .text:00000000000001dc .L0 
     /tmp/ccKcsDSH.s:360    .text:00000000000001e0 .L0 
     /tmp/ccKcsDSH.s:363    .text:00000000000001e4 .L0 
     /tmp/ccKcsDSH.s:371    .text:00000000000001fc .L0 
     /tmp/ccKcsDSH.s:401    .text:00000000000001fc _ZN5Riscv14myTestsWrapperEPv
     /tmp/ccKcsDSH.s:404    .text:00000000000001fc .L0 
     /tmp/ccKcsDSH.s:406    .text:00000000000001fc .L0 
     /tmp/ccKcsDSH.s:407    .text:0000000000000200 .L0 
     /tmp/ccKcsDSH.s:410    .text:0000000000000208 .L0 
     /tmp/ccKcsDSH.s:411    .text:0000000000000208 .L0 
     /tmp/ccKcsDSH.s:413    .text:000000000000020c .L0 
     /tmp/ccKcsDSH.s:415    .text:000000000000020c .L0 
     /tmp/ccKcsDSH.s:416    .text:000000000000020c .L0 
     /tmp/ccKcsDSH.s:419    .text:0000000000000214 .L0 
     /tmp/ccKcsDSH.s:420    .text:0000000000000218 .L0 
     /tmp/ccKcsDSH.s:422    .text:000000000000021c .L0 
     /tmp/ccKcsDSH.s:423    .text:000000000000021c .L0 
     /tmp/ccKcsDSH.s:425    .text:0000000000000220 .L0 
     /tmp/ccKcsDSH.s:427    .text:0000000000000224 .L0 
     /tmp/ccKcsDSH.s:433    .text:0000000000000224 _ZN5Riscv22disableTimerInterruptsEv
     /tmp/ccKcsDSH.s:436    .text:0000000000000224 .L0 
     /tmp/ccKcsDSH.s:437    .text:0000000000000224 .L0 
     /tmp/ccKcsDSH.s:438    .text:0000000000000228 .L0 
     /tmp/ccKcsDSH.s:440    .text:000000000000022c .L0 
     /tmp/ccKcsDSH.s:442    .text:0000000000000230 .L0 
     /tmp/ccKcsDSH.s:445    .text:0000000000000230 .L0 
     /tmp/ccKcsDSH.s:446    .text:0000000000000230 .L0 
GAS LISTING /tmp/ccKcsDSH.s 			page 40


     /tmp/ccKcsDSH.s:447    .text:0000000000000230 .L0 
     /tmp/ccKcsDSH.s:454    .text:0000000000000238 .L0 
     /tmp/ccKcsDSH.s:455    .text:000000000000023c .L0 
     /tmp/ccKcsDSH.s:456    .text:000000000000023c .L0 
     /tmp/ccKcsDSH.s:458    .text:0000000000000240 .L0 
     /tmp/ccKcsDSH.s:460    .text:0000000000000244 .L0 
     /tmp/ccKcsDSH.s:466    .text:0000000000000244 _ZN5Riscv9idleRiscvEPv
     /tmp/ccKcsDSH.s:469    .text:0000000000000244 .L0 
     /tmp/ccKcsDSH.s:471    .text:0000000000000244 .L0 
     /tmp/ccKcsDSH.s:472    .text:0000000000000248 .L0 
     /tmp/ccKcsDSH.s:474    .text:000000000000024c .L0 
     /tmp/ccKcsDSH.s:476    .text:0000000000000250 .L0 
     /tmp/ccKcsDSH.s:479    .text:0000000000000250 .L0 
     /tmp/ccKcsDSH.s:480    .text:0000000000000250 .L0 
     /tmp/ccKcsDSH.s:481    .text:0000000000000254 .L0 
     /tmp/ccKcsDSH.s:487    .text:0000000000000254 _ZN5Riscv13w_a0_sscratchEv
     /tmp/ccKcsDSH.s:490    .text:0000000000000254 .L0 
     /tmp/ccKcsDSH.s:491    .text:0000000000000254 .L0 
     /tmp/ccKcsDSH.s:492    .text:0000000000000258 .L0 
     /tmp/ccKcsDSH.s:494    .text:000000000000025c .L0 
     /tmp/ccKcsDSH.s:496    .text:0000000000000260 .L0 
     /tmp/ccKcsDSH.s:498    .text:0000000000000260 .L0 
     /tmp/ccKcsDSH.s:499    .text:0000000000000260 .L0 
       src/Riscv.cpp:234    .text:0000000000000260 .L0 
     /tmp/ccKcsDSH.s:506    .text:0000000000000264 .L0 
     /tmp/ccKcsDSH.s:508    .text:0000000000000264 .L0 
       src/Riscv.cpp:235    .text:0000000000000274 .L0 
     /tmp/ccKcsDSH.s:517    .text:0000000000000278 .L0 
       src/Riscv.cpp:237    .text:0000000000000278 .L0 
     /tmp/ccKcsDSH.s:522    .text:000000000000027c .L0 
       src/Riscv.cpp:238    .text:000000000000027c .L0 
     /tmp/ccKcsDSH.s:528    .text:0000000000000280 .L0 
     /tmp/ccKcsDSH.s:529    .text:0000000000000284 .L0 
     /tmp/ccKcsDSH.s:530    .text:0000000000000284 .L0 
     /tmp/ccKcsDSH.s:532    .text:0000000000000288 .L0 
     /tmp/ccKcsDSH.s:534    .text:000000000000028c .L0 
     /tmp/ccKcsDSH.s:540    .text:000000000000028c _ZN5Riscv14changePrivModeEv
     /tmp/ccKcsDSH.s:543    .text:000000000000028c .L0 
     /tmp/ccKcsDSH.s:544    .text:000000000000028c .L0 
     /tmp/ccKcsDSH.s:545    .text:0000000000000290 .L0 
     /tmp/ccKcsDSH.s:547    .text:0000000000000294 .L0 
     /tmp/ccKcsDSH.s:549    .text:0000000000000298 .L0 
     /tmp/ccKcsDSH.s:551    .text:0000000000000298 .L0 
     /tmp/ccKcsDSH.s:552    .text:0000000000000298 .L0 
     /tmp/ccKcsDSH.s:556    .text:00000000000002a8 .L0 
     /tmp/ccKcsDSH.s:561    .text:00000000000002ac .L0 
     /tmp/ccKcsDSH.s:562    .text:00000000000002ac .L0 
     /tmp/ccKcsDSH.s:563    .text:00000000000002ac .L0 
     /tmp/ccKcsDSH.s:574    .text:00000000000002b4 .L0 
     /tmp/ccKcsDSH.s:575    .text:00000000000002b8 .L0 
     /tmp/ccKcsDSH.s:576    .text:00000000000002b8 .L0 
     /tmp/ccKcsDSH.s:577    .text:00000000000002b8 .L0 
     /tmp/ccKcsDSH.s:579    .text:00000000000002bc .L0 
     /tmp/ccKcsDSH.s:582    .text:00000000000002c0 .L0 
     /tmp/ccKcsDSH.s:587    .text:00000000000002c0 .L0 
     /tmp/ccKcsDSH.s:588    .text:00000000000002c0 .L0 
     /tmp/ccKcsDSH.s:589    .text:00000000000002c0 .L0 
GAS LISTING /tmp/ccKcsDSH.s 			page 41


     /tmp/ccKcsDSH.s:599    .text:00000000000002c8 .L0 
     /tmp/ccKcsDSH.s:600    .text:00000000000002cc .L0 
     /tmp/ccKcsDSH.s:606    .text:00000000000002cc _ZN5Riscv20handleSupervisorTrapEv
     /tmp/ccKcsDSH.s:609    .text:00000000000002cc .L0 
     /tmp/ccKcsDSH.s:610    .text:00000000000002cc .L0 
     /tmp/ccKcsDSH.s:611    .text:00000000000002d0 .L0 
     /tmp/ccKcsDSH.s:615    .text:00000000000002dc .L0 
     /tmp/ccKcsDSH.s:616    .text:00000000000002dc .L0 
     /tmp/ccKcsDSH.s:617    .text:00000000000002dc .L0 
     /tmp/ccKcsDSH.s:619    .text:00000000000002e0 .L0 
     /tmp/ccKcsDSH.s:621    .text:00000000000002e0 .L0 
       src/Riscv.cpp:47     .text:00000000000002e0 .L0 
     /tmp/ccKcsDSH.s:630    .text:00000000000002f0 .L0 
     /tmp/ccKcsDSH.s:631    .text:00000000000002f0 .L0 
       src/Riscv.cpp:48     .text:00000000000002fc .L0 
     /tmp/ccKcsDSH.s:643    .text:0000000000000304 .L0 
     /tmp/ccKcsDSH.s:644    .text:0000000000000304 .L0 
     /tmp/ccKcsDSH.s:645    .text:0000000000000304 .L0 
  src/../h/Riscv.hpp:111    .text:0000000000000304 .L0 
     /tmp/ccKcsDSH.s:653    .text:000000000000030c .L0 
     /tmp/ccKcsDSH.s:654    .text:000000000000030c .L0 
     /tmp/ccKcsDSH.s:660    .text:0000000000000310 .L0 
     /tmp/ccKcsDSH.s:674    .text:000000000000033c .L0 
     /tmp/ccKcsDSH.s:675    .text:000000000000033c .L0 
     /tmp/ccKcsDSH.s:678    .text:000000000000033c .L0 
     /tmp/ccKcsDSH.s:679    .text:000000000000033c .L0 
     /tmp/ccKcsDSH.s:680    .text:000000000000033c .L0 
       src/Riscv.cpp:120    .text:000000000000033c .L0 
     /tmp/ccKcsDSH.s:690    .text:0000000000000340 .L0 
     /tmp/ccKcsDSH.s:691    .text:0000000000000340 .L0 
     /tmp/ccKcsDSH.s:692    .text:0000000000000340 .L0 
  src/../h/Riscv.hpp:121    .text:0000000000000340 .L0 
     /tmp/ccKcsDSH.s:700    .text:0000000000000348 .L0 
     /tmp/ccKcsDSH.s:701    .text:0000000000000348 .L0 
     /tmp/ccKcsDSH.s:705    .text:000000000000034c .L0 
     /tmp/ccKcsDSH.s:707    .text:0000000000000350 .L0 
     /tmp/ccKcsDSH.s:711    .text:0000000000000354 .L0 
     /tmp/ccKcsDSH.s:712    .text:0000000000000354 .L0 
     /tmp/ccKcsDSH.s:713    .text:0000000000000354 .L0 
  src/../h/Riscv.hpp:190    .text:0000000000000354 .L0 
     /tmp/ccKcsDSH.s:721    .text:000000000000035c .L0 
     /tmp/ccKcsDSH.s:722    .text:000000000000035c .L0 
     /tmp/ccKcsDSH.s:726    .text:0000000000000360 .L0 
     /tmp/ccKcsDSH.s:728    .text:0000000000000364 .L0 
     /tmp/ccKcsDSH.s:813    .text:0000000000000388 .L0 
     /tmp/ccKcsDSH.s:819    .text:0000000000000398 .L0 
     /tmp/ccKcsDSH.s:822    .text:0000000000000398 .L0 
     /tmp/ccKcsDSH.s:823    .text:0000000000000398 .L0 
     /tmp/ccKcsDSH.s:824    .text:0000000000000398 .L0 
     /tmp/ccKcsDSH.s:829    .text:00000000000003a4 .L0 
       src/Riscv.cpp:80     .text:00000000000003a4 .L0 
     /tmp/ccKcsDSH.s:835    .text:00000000000003a8 .L0 
       src/Riscv.cpp:81     .text:00000000000003a8 .L0 
     /tmp/ccKcsDSH.s:840    .text:00000000000003ac .L0 
     /tmp/ccKcsDSH.s:841    .text:00000000000003ac .L0 
       src/Riscv.cpp:83     .text:00000000000003ac .L0 
     /tmp/ccKcsDSH.s:849    .text:00000000000003b0 .L0 
GAS LISTING /tmp/ccKcsDSH.s 			page 42


     /tmp/ccKcsDSH.s:850    .text:00000000000003b0 .L0 
     /tmp/ccKcsDSH.s:853    .text:00000000000003b4 .L0 
     /tmp/ccKcsDSH.s:856    .text:00000000000003b8 .L0 
     /tmp/ccKcsDSH.s:857    .text:00000000000003b8 .L0 
     /tmp/ccKcsDSH.s:861    .text:00000000000003c4 .L0 
       src/Riscv.cpp:87     .text:00000000000003c4 .L0 
     /tmp/ccKcsDSH.s:867    .text:00000000000003c8 .L0 
       src/Riscv.cpp:88     .text:00000000000003c8 .L0 
     /tmp/ccKcsDSH.s:872    .text:00000000000003cc .L0 
     /tmp/ccKcsDSH.s:873    .text:00000000000003cc .L0 
       src/Riscv.cpp:90     .text:00000000000003cc .L0 
     /tmp/ccKcsDSH.s:881    .text:00000000000003d4 .L0 
     /tmp/ccKcsDSH.s:882    .text:00000000000003d4 .L0 
     /tmp/ccKcsDSH.s:886    .text:00000000000003e0 .L0 
     /tmp/ccKcsDSH.s:892    .text:00000000000003e4 .L0 
     /tmp/ccKcsDSH.s:893    .text:00000000000003e4 .L0 
     /tmp/ccKcsDSH.s:898    .text:00000000000003f4 .L0 
     /tmp/ccKcsDSH.s:904    .text:00000000000003f8 .L0 
     /tmp/ccKcsDSH.s:907    .text:00000000000003f8 .L0 
     /tmp/ccKcsDSH.s:910    .text:00000000000003f8 .L0 
     /tmp/ccKcsDSH.s:911    .text:00000000000003f8 .L0 
     /tmp/ccKcsDSH.s:912    .text:00000000000003f8 .L0 
  src/../h/Riscv.hpp:121    .text:00000000000003f8 .L0 
     /tmp/ccKcsDSH.s:921    .text:0000000000000400 .L0 
     /tmp/ccKcsDSH.s:922    .text:0000000000000400 .L0 
     /tmp/ccKcsDSH.s:926    .text:0000000000000404 .L0 
     /tmp/ccKcsDSH.s:930    .text:0000000000000408 .L0 
     /tmp/ccKcsDSH.s:931    .text:0000000000000408 .L0 
     /tmp/ccKcsDSH.s:932    .text:0000000000000408 .L0 
  src/../h/Riscv.hpp:190    .text:0000000000000408 .L0 
     /tmp/ccKcsDSH.s:940    .text:0000000000000410 .L0 
     /tmp/ccKcsDSH.s:941    .text:0000000000000410 .L0 
     /tmp/ccKcsDSH.s:945    .text:0000000000000414 .L0 
     /tmp/ccKcsDSH.s:950    .text:0000000000000418 .L0 
     /tmp/ccKcsDSH.s:951    .text:0000000000000418 .L0 
     /tmp/ccKcsDSH.s:952    .text:0000000000000418 .L0 
     /tmp/ccKcsDSH.s:962    .text:0000000000000420 .L0 
     /tmp/ccKcsDSH.s:963    .text:0000000000000420 .L0 
     /tmp/ccKcsDSH.s:968    .text:0000000000000434 .L0 
     /tmp/ccKcsDSH.s:969    .text:0000000000000434 .L0 
     /tmp/ccKcsDSH.s:974    .text:0000000000000448 .L0 
     /tmp/ccKcsDSH.s:975    .text:0000000000000448 .L0 
     /tmp/ccKcsDSH.s:978    .text:0000000000000450 .L0 
     /tmp/ccKcsDSH.s:979    .text:0000000000000450 .L0 
     /tmp/ccKcsDSH.s:986    .text:000000000000045c .L0 
     /tmp/ccKcsDSH.s:987    .text:000000000000045c .L0 
     /tmp/ccKcsDSH.s:992    .text:0000000000000460 .L0 
     /tmp/ccKcsDSH.s:994    .text:0000000000000464 .L0 
     /tmp/ccKcsDSH.s:997    .text:0000000000000468 .L0 
     /tmp/ccKcsDSH.s:998    .text:0000000000000468 .L0 
     /tmp/ccKcsDSH.s:1003   .text:000000000000046c .L0 
  src/../h/Riscv.hpp:195    .text:000000000000046c .L0 
     /tmp/ccKcsDSH.s:1013   .text:0000000000000470 .L0 
     /tmp/ccKcsDSH.s:1014   .text:0000000000000470 .L0 
     /tmp/ccKcsDSH.s:1019   .text:0000000000000474 .L0 
  src/../h/Riscv.hpp:126    .text:0000000000000474 .L0 
     /tmp/ccKcsDSH.s:1029   .text:0000000000000478 .L0 
GAS LISTING /tmp/ccKcsDSH.s 			page 43


     /tmp/ccKcsDSH.s:1030   .text:0000000000000478 .L0 
     /tmp/ccKcsDSH.s:1033   .text:0000000000000480 .L0 
     /tmp/ccKcsDSH.s:1036   .text:0000000000000484 .L0 
     /tmp/ccKcsDSH.s:1037   .text:0000000000000484 .L0 
     /tmp/ccKcsDSH.s:1039   .text:0000000000000488 .L0 
     /tmp/ccKcsDSH.s:1040   .text:0000000000000488 .L0 
     /tmp/ccKcsDSH.s:1050   .text:0000000000000494 .L0 
     /tmp/ccKcsDSH.s:1051   .text:0000000000000494 .L0 
     /tmp/ccKcsDSH.s:1055   .text:00000000000004a4 .L0 
     /tmp/ccKcsDSH.s:1056   .text:00000000000004a4 .L0 
     /tmp/ccKcsDSH.s:1061   .text:00000000000004b0 .L0 
     /tmp/ccKcsDSH.s:1062   .text:00000000000004b0 .L0 
     /tmp/ccKcsDSH.s:1073   .text:00000000000004c0 .L0 
     /tmp/ccKcsDSH.s:1074   .text:00000000000004c0 .L0 
     /tmp/ccKcsDSH.s:1075   .text:00000000000004c0 .L0 
     /tmp/ccKcsDSH.s:1079   .text:00000000000004c8 .L0 
     /tmp/ccKcsDSH.s:1080   .text:00000000000004c8 .L0 
     /tmp/ccKcsDSH.s:1081   .text:00000000000004c8 .L0 
     /tmp/ccKcsDSH.s:1086   .text:00000000000004cc .L0 
  src/../h/Riscv.hpp:195    .text:00000000000004cc .L0 
     /tmp/ccKcsDSH.s:1096   .text:00000000000004d0 .L0 
     /tmp/ccKcsDSH.s:1097   .text:00000000000004d0 .L0 
     /tmp/ccKcsDSH.s:1102   .text:00000000000004d4 .L0 
  src/../h/Riscv.hpp:126    .text:00000000000004d4 .L0 
     /tmp/ccKcsDSH.s:1112   .text:00000000000004d8 .L0 
     /tmp/ccKcsDSH.s:1113   .text:00000000000004d8 .L0 
     /tmp/ccKcsDSH.s:1119   .text:00000000000004e0 .L0 
     /tmp/ccKcsDSH.s:1120   .text:00000000000004e0 .L0 
     /tmp/ccKcsDSH.s:1121   .text:00000000000004e4 .L0 
     /tmp/ccKcsDSH.s:1122   .text:00000000000004e4 .L0 
     /tmp/ccKcsDSH.s:1124   .text:00000000000004e8 .L0 
     /tmp/ccKcsDSH.s:1125   .text:00000000000004e8 .L0 
     /tmp/ccKcsDSH.s:1127   .text:00000000000004ec .L0 
     /tmp/ccKcsDSH.s:1129   .text:00000000000004f0 .L0 
     /tmp/ccKcsDSH.s:1132   .text:00000000000004f4 .L0 
     /tmp/ccKcsDSH.s:1136   .text:00000000000004f4 .L0 
     /tmp/ccKcsDSH.s:1137   .text:00000000000004f4 .L0 
     /tmp/ccKcsDSH.s:1138   .text:00000000000004f4 .L0 
     /tmp/ccKcsDSH.s:1141   .text:00000000000004fc .L0 
     /tmp/ccKcsDSH.s:1144   .text:0000000000000500 .L0 
     /tmp/ccKcsDSH.s:1145   .text:0000000000000500 .L0 
     /tmp/ccKcsDSH.s:1146   .text:0000000000000500 .L0 
     /tmp/ccKcsDSH.s:1149   .text:0000000000000508 .L0 
     /tmp/ccKcsDSH.s:1152   .text:000000000000050c .L0 
     /tmp/ccKcsDSH.s:1153   .text:000000000000050c .L0 
     /tmp/ccKcsDSH.s:1154   .text:000000000000050c .L0 
     /tmp/ccKcsDSH.s:1157   .text:0000000000000514 .L0 
     /tmp/ccKcsDSH.s:1160   .text:0000000000000518 .L0 
     /tmp/ccKcsDSH.s:1161   .text:0000000000000518 .L0 
     /tmp/ccKcsDSH.s:1162   .text:0000000000000518 .L0 
     /tmp/ccKcsDSH.s:1165   .text:0000000000000520 .L0 
     /tmp/ccKcsDSH.s:1168   .text:0000000000000524 .L0 
     /tmp/ccKcsDSH.s:1169   .text:0000000000000524 .L0 
     /tmp/ccKcsDSH.s:1170   .text:0000000000000524 .L0 
     /tmp/ccKcsDSH.s:1173   .text:000000000000052c .L0 
     /tmp/ccKcsDSH.s:1176   .text:0000000000000530 .L0 
     /tmp/ccKcsDSH.s:1177   .text:0000000000000530 .L0 
GAS LISTING /tmp/ccKcsDSH.s 			page 44


     /tmp/ccKcsDSH.s:1178   .text:0000000000000530 .L0 
     /tmp/ccKcsDSH.s:1181   .text:0000000000000538 .L0 
     /tmp/ccKcsDSH.s:1184   .text:000000000000053c .L0 
     /tmp/ccKcsDSH.s:1185   .text:000000000000053c .L0 
     /tmp/ccKcsDSH.s:1186   .text:000000000000053c .L0 
     /tmp/ccKcsDSH.s:1189   .text:0000000000000544 .L0 
     /tmp/ccKcsDSH.s:1192   .text:0000000000000548 .L0 
     /tmp/ccKcsDSH.s:1193   .text:0000000000000548 .L0 
     /tmp/ccKcsDSH.s:1194   .text:0000000000000548 .L0 
     /tmp/ccKcsDSH.s:1197   .text:0000000000000550 .L0 
     /tmp/ccKcsDSH.s:1200   .text:0000000000000554 .L0 
     /tmp/ccKcsDSH.s:1201   .text:0000000000000554 .L0 
     /tmp/ccKcsDSH.s:1202   .text:0000000000000554 .L0 
     /tmp/ccKcsDSH.s:1205   .text:000000000000055c .L0 
     /tmp/ccKcsDSH.s:1208   .text:0000000000000560 .L0 
     /tmp/ccKcsDSH.s:1209   .text:0000000000000560 .L0 
     /tmp/ccKcsDSH.s:1210   .text:0000000000000560 .L0 
     /tmp/ccKcsDSH.s:1213   .text:0000000000000568 .L0 
     /tmp/ccKcsDSH.s:1216   .text:000000000000056c .L0 
     /tmp/ccKcsDSH.s:1217   .text:000000000000056c .L0 
     /tmp/ccKcsDSH.s:1218   .text:000000000000056c .L0 
     /tmp/ccKcsDSH.s:1221   .text:0000000000000574 .L0 
     /tmp/ccKcsDSH.s:1224   .text:0000000000000578 .L0 
     /tmp/ccKcsDSH.s:1225   .text:0000000000000578 .L0 
     /tmp/ccKcsDSH.s:1226   .text:0000000000000578 .L0 
     /tmp/ccKcsDSH.s:1229   .text:0000000000000580 .L0 
     /tmp/ccKcsDSH.s:1232   .text:0000000000000584 .L0 
     /tmp/ccKcsDSH.s:1233   .text:0000000000000584 .L0 
     /tmp/ccKcsDSH.s:1234   .text:0000000000000584 .L0 
     /tmp/ccKcsDSH.s:1237   .text:000000000000058c .L0 
     /tmp/ccKcsDSH.s:1240   .text:0000000000000590 .L0 
     /tmp/ccKcsDSH.s:1250   .bss:0000000000000000 _ZN5Riscv12finishSystemE
     /tmp/ccKcsDSH.s:1255   .bss:0000000000000008 _ZN5Riscv9totalTimeE
     /tmp/ccKcsDSH.s:1247   .bss:0000000000000000 .LANCHOR0
     /tmp/ccKcsDSH.s:1268   .text:0000000000000590 .L0 
     /tmp/ccKcsDSH.s:55     .text:0000000000000038 .L0 
     /tmp/ccKcsDSH.s:282    .text:0000000000000140 .L0 
     /tmp/ccKcsDSH.s:312    .text:000000000000017c .L0 
     /tmp/ccKcsDSH.s:234    .rodata.str1.8:0000000000000000 .LC0
     /tmp/ccKcsDSH.s:315    .text:0000000000000184 .L0 
     /tmp/ccKcsDSH.s:322    .text:0000000000000194 .L0 
     /tmp/ccKcsDSH.s:508    .text:0000000000000264 .L0 
     /tmp/ccKcsDSH.s:552    .text:0000000000000298 .L0 
     /tmp/ccKcsDSH.s:627    .text:00000000000002e4 .L0 
     /tmp/ccKcsDSH.s:631    .text:00000000000002f0 .L0 
     /tmp/ccKcsDSH.s:740    .rodata:0000000000000000 .L45
     /tmp/ccKcsDSH.s:732    .text:0000000000000370 .L0 
     /tmp/ccKcsDSH.s:824    .text:0000000000000398 .L0 
     /tmp/ccKcsDSH.s:857    .text:00000000000003b8 .L0 
     /tmp/ccKcsDSH.s:882    .text:00000000000003d4 .L0 
     /tmp/ccKcsDSH.s:963    .text:0000000000000420 .L0 
     /tmp/ccKcsDSH.s:969    .text:0000000000000434 .L0 
     /tmp/ccKcsDSH.s:979    .text:0000000000000450 .L0 
     /tmp/ccKcsDSH.s:1052   .text:0000000000000498 .L0 
     /tmp/ccKcsDSH.s:308    .text:0000000000000178 .L14
     /tmp/ccKcsDSH.s:293    .text:000000000000015c .L15
     /tmp/ccKcsDSH.s:335    .text:00000000000001b8 .L16
GAS LISTING /tmp/ccKcsDSH.s 			page 45


     /tmp/ccKcsDSH.s:318    .text:0000000000000194 .L17
     /tmp/ccKcsDSH.s:477    .text:0000000000000250 .L27
     /tmp/ccKcsDSH.s:581    .text:00000000000002c0 .L32
     /tmp/ccKcsDSH.s:570    .text:00000000000002b4 .L31
     /tmp/ccKcsDSH.s:900    .text:00000000000003f8 .L36
     /tmp/ccKcsDSH.s:810    .text:0000000000000388 .L37
     /tmp/ccKcsDSH.s:1116   .text:00000000000004e0 .L35
     /tmp/ccKcsDSH.s:1078   .text:00000000000004c8 .L43
     /tmp/ccKcsDSH.s:888    .text:00000000000003e4 .L42
     /tmp/ccKcsDSH.s:1044   .text:0000000000000494 .L61
     /tmp/ccKcsDSH.s:1034   .text:0000000000000484 .L62
     /tmp/ccKcsDSH.s:995    .text:0000000000000468 .L41
     /tmp/ccKcsDSH.s:259    .text:0000000000000104 .LEHB0
     /tmp/ccKcsDSH.s:241    .text:00000000000000ec .LFB32
     /tmp/ccKcsDSH.s:277    .text:0000000000000130 .LEHE0
     /tmp/ccKcsDSH.s:283    .text:0000000000000148 .LEHB1
     /tmp/ccKcsDSH.s:286    .text:0000000000000150 .LEHE1
     /tmp/ccKcsDSH.s:359    .text:00000000000001e0 .L19
     /tmp/ccKcsDSH.s:290    .text:0000000000000154 .LEHB2
     /tmp/ccKcsDSH.s:332    .text:00000000000001b4 .LEHE2
     /tmp/ccKcsDSH.s:367    .text:00000000000001f4 .LEHB3
     /tmp/ccKcsDSH.s:370    .text:00000000000001fc .LEHE3
     /tmp/ccKcsDSH.s:1067   .text:00000000000004c0 .L58
     /tmp/ccKcsDSH.s:1131   .text:00000000000004f4 .L57
     /tmp/ccKcsDSH.s:1150   .text:000000000000050c .L56
     /tmp/ccKcsDSH.s:1174   .text:0000000000000530 .L55
     /tmp/ccKcsDSH.s:1166   .text:0000000000000524 .L54
     /tmp/ccKcsDSH.s:1142   .text:0000000000000500 .L53
     /tmp/ccKcsDSH.s:1158   .text:0000000000000518 .L52
     /tmp/ccKcsDSH.s:1190   .text:0000000000000548 .L51
     /tmp/ccKcsDSH.s:1214   .text:000000000000056c .L50
     /tmp/ccKcsDSH.s:1198   .text:0000000000000554 .L49
     /tmp/ccKcsDSH.s:1206   .text:0000000000000560 .L48
     /tmp/ccKcsDSH.s:1182   .text:000000000000053c .L47
     /tmp/ccKcsDSH.s:1222   .text:0000000000000578 .L46
     /tmp/ccKcsDSH.s:1230   .text:0000000000000584 .L44
     /tmp/ccKcsDSH.s:3909   .debug_abbrev:0000000000000000 .Ldebug_abbrev0
     /tmp/ccKcsDSH.s:5322   .debug_str:00000000000002ab .LASF311
     /tmp/ccKcsDSH.s:5358   .debug_str:0000000000000481 .LASF312
     /tmp/ccKcsDSH.s:5778   .debug_str:0000000000001250 .LASF313
     /tmp/ccKcsDSH.s:5      .text:0000000000000000 .Ltext0
     /tmp/ccKcsDSH.s:1258   .text:0000000000000590 .Letext0
     /tmp/ccKcsDSH.s:5252   .debug_line:0000000000000000 .Ldebug_line0
     /tmp/ccKcsDSH.s:5474   .debug_str:0000000000000873 .LASF0
     /tmp/ccKcsDSH.s:5516   .debug_str:00000000000009c9 .LASF1
     /tmp/ccKcsDSH.s:5668   .debug_str:0000000000000efa .LASF2
     /tmp/ccKcsDSH.s:5686   .debug_str:0000000000000f86 .LASF4
     /tmp/ccKcsDSH.s:5494   .debug_str:000000000000091b .LASF3
     /tmp/ccKcsDSH.s:5278   .debug_str:00000000000000f1 .LASF5
     /tmp/ccKcsDSH.s:5628   .debug_str:0000000000000dca .LASF6
     /tmp/ccKcsDSH.s:5618   .debug_str:0000000000000d81 .LASF7
     /tmp/ccKcsDSH.s:5506   .debug_str:0000000000000990 .LASF8
     /tmp/ccKcsDSH.s:5436   .debug_str:000000000000071d .LASF9
     /tmp/ccKcsDSH.s:5448   .debug_str:000000000000078f .LASF10
     /tmp/ccKcsDSH.s:5342   .debug_str:0000000000000413 .LASF11
     /tmp/ccKcsDSH.s:5424   .debug_str:00000000000006d9 .LASF12
     /tmp/ccKcsDSH.s:5360   .debug_str:000000000000048f .LASF13
GAS LISTING /tmp/ccKcsDSH.s 			page 46


     /tmp/ccKcsDSH.s:5340   .debug_str:0000000000000403 .LASF14
     /tmp/ccKcsDSH.s:5738   .debug_str:000000000000114c .LASF15
     /tmp/ccKcsDSH.s:5402   .debug_str:00000000000005e6 .LASF16
     /tmp/ccKcsDSH.s:5722   .debug_str:0000000000001097 .LASF17
     /tmp/ccKcsDSH.s:5824   .debug_str:00000000000013c5 .LASF108
     /tmp/ccKcsDSH.s:5646   .debug_str:0000000000000e5d .LASF21
     /tmp/ccKcsDSH.s:5526   .debug_str:0000000000000a0c .LASF18
     /tmp/ccKcsDSH.s:5412   .debug_str:0000000000000655 .LASF19
     /tmp/ccKcsDSH.s:5844   .debug_str:0000000000001473 .LASF20
     /tmp/ccKcsDSH.s:5810   .debug_str:0000000000001347 .LASF22
     /tmp/ccKcsDSH.s:5418   .debug_str:0000000000000695 .LASF23
     /tmp/ccKcsDSH.s:5764   .debug_str:00000000000011e5 .LASF24
     /tmp/ccKcsDSH.s:5376   .debug_str:000000000000051c .LASF25
     /tmp/ccKcsDSH.s:5468   .debug_str:000000000000084a .LASF26
     /tmp/ccKcsDSH.s:5726   .debug_str:00000000000010bc .LASF28
     /tmp/ccKcsDSH.s:5852   .debug_str:00000000000014a7 .LASF27
     /tmp/ccKcsDSH.s:5704   .debug_str:0000000000001007 .LASF29
     /tmp/ccKcsDSH.s:5574   .debug_str:0000000000000beb .LASF30
     /tmp/ccKcsDSH.s:5554   .debug_str:0000000000000b2a .LASF31
     /tmp/ccKcsDSH.s:5398   .debug_str:00000000000005c9 .LASF32
     /tmp/ccKcsDSH.s:5266   .debug_str:000000000000005b .LASF33
     /tmp/ccKcsDSH.s:5556   .debug_str:0000000000000b42 .LASF40
     /tmp/ccKcsDSH.s:5816   .debug_str:0000000000001371 .LASF42
     /tmp/ccKcsDSH.s:5336   .debug_str:00000000000003df .LASF34
     /tmp/ccKcsDSH.s:5532   .debug_str:0000000000000a49 .LASF35
     /tmp/ccKcsDSH.s:5392   .debug_str:0000000000000578 .LASF36
     /tmp/ccKcsDSH.s:5348   .debug_str:0000000000000430 .LASF37
     /tmp/ccKcsDSH.s:5486   .debug_str:00000000000008d9 .LASF38
     /tmp/ccKcsDSH.s:5366   .debug_str:00000000000004d5 .LASF39
     /tmp/ccKcsDSH.s:5312   .debug_str:0000000000000268 .LASF41
     /tmp/ccKcsDSH.s:5438   .debug_str:000000000000072d .LASF43
     /tmp/ccKcsDSH.s:5696   .debug_str:0000000000000fb7 .LASF44
     /tmp/ccKcsDSH.s:5410   .debug_str:000000000000063a .LASF45
     /tmp/ccKcsDSH.s:5480   .debug_str:00000000000008b2 .LASF46
     /tmp/ccKcsDSH.s:5836   .debug_str:000000000000142b .LASF47
     /tmp/ccKcsDSH.s:5802   .debug_str:0000000000001317 .LASF50
     /tmp/ccKcsDSH.s:5790   .debug_str:00000000000012bc .LASF52
     /tmp/ccKcsDSH.s:5664   .debug_str:0000000000000ee6 .LASF48
     /tmp/ccKcsDSH.s:5598   .debug_str:0000000000000cc5 .LASF49
     /tmp/ccKcsDSH.s:5634   .debug_str:0000000000000de4 .LASF51
     /tmp/ccKcsDSH.s:5640   .debug_str:0000000000000e2b .LASF53
     /tmp/ccKcsDSH.s:5588   .debug_str:0000000000000c56 .LASF54
     /tmp/ccKcsDSH.s:5508   .debug_str:00000000000009a3 .LASF55
     /tmp/ccKcsDSH.s:5838   .debug_str:0000000000001445 .LASF56
     /tmp/ccKcsDSH.s:5772   .debug_str:000000000000120f .LASF57
     /tmp/ccKcsDSH.s:5582   .debug_str:0000000000000c26 .LASF58
     /tmp/ccKcsDSH.s:5596   .debug_str:0000000000000cb1 .LASF59
     /tmp/ccKcsDSH.s:5568   .debug_str:0000000000000bac .LASF60
     /tmp/ccKcsDSH.s:5644   .debug_str:0000000000000e49 .LASF61
     /tmp/ccKcsDSH.s:5886   .debug_str:00000000000015b5 .LASF62
     /tmp/ccKcsDSH.s:5484   .debug_str:00000000000008c5 .LASF63
     /tmp/ccKcsDSH.s:5860   .debug_str:00000000000014d7 .LASF105
     /tmp/ccKcsDSH.s:5734   .debug_str:0000000000001123 .LASF64
     /tmp/ccKcsDSH.s:5690   .debug_str:0000000000000f95 .LASF65
     /tmp/ccKcsDSH.s:5692   .debug_str:0000000000000fa8 .LASF66
     /tmp/ccKcsDSH.s:5396   .debug_str:00000000000005b6 .LASF67
     /tmp/ccKcsDSH.s:5390   .debug_str:0000000000000572 .LASF68
GAS LISTING /tmp/ccKcsDSH.s 			page 47


     /tmp/ccKcsDSH.s:5284   .debug_str:0000000000000124 .LASF69
     /tmp/ccKcsDSH.s:5482   .debug_str:00000000000008bf .LASF70
     /tmp/ccKcsDSH.s:5380   .debug_str:000000000000053b .LASF71
     /tmp/ccKcsDSH.s:5328   .debug_str:000000000000038b .LASF72
     /tmp/ccKcsDSH.s:5698   .debug_str:0000000000000fc5 .LASF73
     /tmp/ccKcsDSH.s:5280   .debug_str:00000000000000f8 .LASF74
     /tmp/ccKcsDSH.s:5674   .debug_str:0000000000000f17 .LASF75
     /tmp/ccKcsDSH.s:5666   .debug_str:0000000000000eef .LASF76
     /tmp/ccKcsDSH.s:5874   .debug_str:0000000000001550 .LASF77
     /tmp/ccKcsDSH.s:5672   .debug_str:0000000000000f10 .LASF78
     /tmp/ccKcsDSH.s:5338   .debug_str:00000000000003f0 .LASF79
     /tmp/ccKcsDSH.s:5826   .debug_str:00000000000013cb .LASF80
     /tmp/ccKcsDSH.s:5850   .debug_str:0000000000001491 .LASF81
     /tmp/ccKcsDSH.s:5818   .debug_str:000000000000138f .LASF82
     /tmp/ccKcsDSH.s:5558   .debug_str:0000000000000b52 .LASF83
     /tmp/ccKcsDSH.s:5654   .debug_str:0000000000000ea9 .LASF84
     /tmp/ccKcsDSH.s:5458   .debug_str:000000000000080c .LASF85
     /tmp/ccKcsDSH.s:5466   .debug_str:0000000000000844 .LASF86
     /tmp/ccKcsDSH.s:5370   .debug_str:00000000000004f9 .LASF87
     /tmp/ccKcsDSH.s:5462   .debug_str:0000000000000824 .LASF88
     /tmp/ccKcsDSH.s:5470   .debug_str:0000000000000855 .LASF89
     /tmp/ccKcsDSH.s:5796   .debug_str:00000000000012e4 .LASF90
     /tmp/ccKcsDSH.s:5446   .debug_str:0000000000000773 .LASF91
     /tmp/ccKcsDSH.s:5622   .debug_str:0000000000000d9c .LASF92
     /tmp/ccKcsDSH.s:5502   .debug_str:0000000000000962 .LASF93
     /tmp/ccKcsDSH.s:5308   .debug_str:0000000000000246 .LASF94
     /tmp/ccKcsDSH.s:5548   .debug_str:0000000000000aec .LASF95
     /tmp/ccKcsDSH.s:5656   .debug_str:0000000000000eaf .LASF96
     /tmp/ccKcsDSH.s:5272   .debug_str:00000000000000a7 .LASF97
     /tmp/ccKcsDSH.s:5314   .debug_str:0000000000000272 .LASF98
     /tmp/ccKcsDSH.s:5794   .debug_str:00000000000012d8 .LASF99
     /tmp/ccKcsDSH.s:5316   .debug_str:0000000000000281 .LASF100
     /tmp/ccKcsDSH.s:5572   .debug_str:0000000000000bd9 .LASF101
     /tmp/ccKcsDSH.s:5450   .debug_str:000000000000079d .LASF102
     /tmp/ccKcsDSH.s:5492   .debug_str:0000000000000908 .LASF103
     /tmp/ccKcsDSH.s:5334   .debug_str:00000000000003cb .LASF104
     /tmp/ccKcsDSH.s:5758   .debug_str:00000000000011c1 .LASF106
     /tmp/ccKcsDSH.s:5546   .debug_str:0000000000000ae7 .LASF107
     /tmp/ccKcsDSH.s:5610   .debug_str:0000000000000d35 .LASF109
     /tmp/ccKcsDSH.s:5710   .debug_str:0000000000001033 .LASF144
     /tmp/ccKcsDSH.s:5514   .debug_str:00000000000009c4 .LASF110
     /tmp/ccKcsDSH.s:5344   .debug_str:0000000000000422 .LASF111
     /tmp/ccKcsDSH.s:5432   .debug_str:0000000000000707 .LASF112
     /tmp/ccKcsDSH.s:5518   .debug_str:00000000000009dc .LASF113
     /tmp/ccKcsDSH.s:5524   .debug_str:00000000000009f9 .LASF114
     /tmp/ccKcsDSH.s:5430   .debug_str:00000000000006fe .LASF115
     /tmp/ccKcsDSH.s:5890   .debug_str:00000000000015db .LASF116
     /tmp/ccKcsDSH.s:5562   .debug_str:0000000000000b75 .LASF117
     /tmp/ccKcsDSH.s:5282   .debug_str:0000000000000103 .LASF119
     /tmp/ccKcsDSH.s:5746   .debug_str:0000000000001182 .LASF118
     /tmp/ccKcsDSH.s:5564   .debug_str:0000000000000b7f .LASF120
     /tmp/ccKcsDSH.s:5814   .debug_str:0000000000001366 .LASF121
     /tmp/ccKcsDSH.s:5776   .debug_str:000000000000122d .LASF122
     /tmp/ccKcsDSH.s:5740   .debug_str:0000000000001158 .LASF123
     /tmp/ccKcsDSH.s:5274   .debug_str:00000000000000af .LASF124
     /tmp/ccKcsDSH.s:5830   .debug_str:00000000000013da .LASF125
     /tmp/ccKcsDSH.s:5270   .debug_str:0000000000000079 .LASF126
GAS LISTING /tmp/ccKcsDSH.s 			page 48


     /tmp/ccKcsDSH.s:5752   .debug_str:000000000000119b .LASF127
     /tmp/ccKcsDSH.s:5456   .debug_str:00000000000007dd .LASF128
     /tmp/ccKcsDSH.s:5260   .debug_str:000000000000002b .LASF129
     /tmp/ccKcsDSH.s:5600   .debug_str:0000000000000cda .LASF130
     /tmp/ccKcsDSH.s:5404   .debug_str:00000000000005fc .LASF131
     /tmp/ccKcsDSH.s:5834   .debug_str:0000000000001403 .LASF132
     /tmp/ccKcsDSH.s:5724   .debug_str:00000000000010ad .LASF133
     /tmp/ccKcsDSH.s:5394   .debug_str:000000000000058f .LASF134
     /tmp/ccKcsDSH.s:5756   .debug_str:00000000000011bb .LASF135
     /tmp/ccKcsDSH.s:5332   .debug_str:00000000000003c5 .LASF136
     /tmp/ccKcsDSH.s:5708   .debug_str:000000000000102b .LASF137
     /tmp/ccKcsDSH.s:5350   .debug_str:0000000000000454 .LASF138
     /tmp/ccKcsDSH.s:5318   .debug_str:0000000000000294 .LASF139
     /tmp/ccKcsDSH.s:5620   .debug_str:0000000000000d94 .LASF140
     /tmp/ccKcsDSH.s:5512   .debug_str:00000000000009bb .LASF141
     /tmp/ccKcsDSH.s:5688   .debug_str:0000000000000f8d .LASF206
     /tmp/ccKcsDSH.s:5460   .debug_str:000000000000081e .LASF142
     /tmp/ccKcsDSH.s:5784   .debug_str:000000000000129a .LASF143
     /tmp/ccKcsDSH.s:5578   .debug_str:0000000000000c05 .LASF314
     /tmp/ccKcsDSH.s:5604   .debug_str:0000000000000d14 .LASF145
     /tmp/ccKcsDSH.s:5828   .debug_str:00000000000013d5 .LASF146
     /tmp/ccKcsDSH.s:5870   .debug_str:000000000000151b .LASF147
     /tmp/ccKcsDSH.s:5864   .debug_str:00000000000014f2 .LASF148
     /tmp/ccKcsDSH.s:5770   .debug_str:00000000000011ff .LASF149
     /tmp/ccKcsDSH.s:5384   .debug_str:000000000000055e .LASF150
     /tmp/ccKcsDSH.s:5290   .debug_str:000000000000017d .LASF151
     /tmp/ccKcsDSH.s:5522   .debug_str:00000000000009f3 .LASF152
     /tmp/ccKcsDSH.s:5606   .debug_str:0000000000000d19 .LASF153
     /tmp/ccKcsDSH.s:5762   .debug_str:00000000000011dd .LASF154
     /tmp/ccKcsDSH.s:5382   .debug_str:000000000000054d .LASF155
     /tmp/ccKcsDSH.s:5552   .debug_str:0000000000000b1d .LASF160
     /tmp/ccKcsDSH.s:5534   .debug_str:0000000000000a67 .LASF162
     /tmp/ccKcsDSH.s:5878   .debug_str:000000000000157d .LASF156
     /tmp/ccKcsDSH.s:5428   .debug_str:00000000000006f2 .LASF157
     /tmp/ccKcsDSH.s:5476   .debug_str:0000000000000880 .LASF158
     /tmp/ccKcsDSH.s:5488   .debug_str:00000000000008eb .LASF159
     /tmp/ccKcsDSH.s:5700   .debug_str:0000000000000fe0 .LASF161
     /tmp/ccKcsDSH.s:5378   .debug_str:0000000000000528 .LASF163
     /tmp/ccKcsDSH.s:5680   .debug_str:0000000000000f4e .LASF164
     /tmp/ccKcsDSH.s:5730   .debug_str:00000000000010f4 .LASF165
     /tmp/ccKcsDSH.s:5576   .debug_str:0000000000000bf6 .LASF166
     /tmp/ccKcsDSH.s:5262   .debug_str:000000000000003c .LASF167
     /tmp/ccKcsDSH.s:5848   .debug_str:0000000000001482 .LASF168
     /tmp/ccKcsDSH.s:5614   .debug_str:0000000000000d53 .LASF169
     /tmp/ccKcsDSH.s:5720   .debug_str:0000000000001089 .LASF170
     /tmp/ccKcsDSH.s:5632   .debug_str:0000000000000dd8 .LASF171
     /tmp/ccKcsDSH.s:5256   .debug_str:000000000000000f .LASF172
     /tmp/ccKcsDSH.s:5594   .debug_str:0000000000000ca1 .LASF173
     /tmp/ccKcsDSH.s:5660   .debug_str:0000000000000ec0 .LASF174
     /tmp/ccKcsDSH.s:5854   .debug_str:00000000000014b6 .LASF175
     /tmp/ccKcsDSH.s:5496   .debug_str:000000000000092d .LASF176
     /tmp/ccKcsDSH.s:5714   .debug_str:0000000000001056 .LASF177
     /tmp/ccKcsDSH.s:5868   .debug_str:0000000000001505 .LASF178
     /tmp/ccKcsDSH.s:5748   .debug_str:000000000000118b .LASF179
     /tmp/ccKcsDSH.s:5716   .debug_str:0000000000001061 .LASF180
     /tmp/ccKcsDSH.s:5694   .debug_str:0000000000000faf .LASF181
     /tmp/ccKcsDSH.s:5616   .debug_str:0000000000000d6d .LASF182
GAS LISTING /tmp/ccKcsDSH.s 			page 49


     /tmp/ccKcsDSH.s:5586   .debug_str:0000000000000c37 .LASF183
     /tmp/ccKcsDSH.s:5364   .debug_str:00000000000004c3 .LASF184
     /tmp/ccKcsDSH.s:5638   .debug_str:0000000000000e0e .LASF185
     /tmp/ccKcsDSH.s:5892   .debug_str:00000000000015e5 .LASF186
     /tmp/ccKcsDSH.s:5590   .debug_str:0000000000000c5d .LASF187
     /tmp/ccKcsDSH.s:5678   .debug_str:0000000000000f3b .LASF188
     /tmp/ccKcsDSH.s:5702   .debug_str:0000000000000fe9 .LASF189
     /tmp/ccKcsDSH.s:5806   .debug_str:0000000000001325 .LASF190
     /tmp/ccKcsDSH.s:5888   .debug_str:00000000000015bd .LASF191
     /tmp/ccKcsDSH.s:5876   .debug_str:0000000000001568 .LASF192
     /tmp/ccKcsDSH.s:5728   .debug_str:00000000000010d4 .LASF193
     /tmp/ccKcsDSH.s:5684   .debug_str:0000000000000f7d .LASF194
     /tmp/ccKcsDSH.s:5642   .debug_str:0000000000000e3e .LASF195
     /tmp/ccKcsDSH.s:5774   .debug_str:0000000000001223 .LASF196
     /tmp/ccKcsDSH.s:5608   .debug_str:0000000000000d29 .LASF197
     /tmp/ccKcsDSH.s:5862   .debug_str:00000000000014e4 .LASF198
     /tmp/ccKcsDSH.s:5302   .debug_str:00000000000001f1 .LASF200
     /tmp/ccKcsDSH.s:5306   .debug_str:0000000000000231 .LASF199
     /tmp/ccKcsDSH.s:5330   .debug_str:0000000000000399 .LASF201
     /tmp/ccKcsDSH.s:5882   .debug_str:0000000000001596 .LASF315
     /tmp/ccKcsDSH.s:5326   .debug_str:000000000000037a .LASF316
     /tmp/ccKcsDSH.s:5264   .debug_str:0000000000000056 .LASF202
     /tmp/ccKcsDSH.s:5804   .debug_str:0000000000001320 .LASF203
     /tmp/ccKcsDSH.s:5540   .debug_str:0000000000000aa4 .LASF204
     /tmp/ccKcsDSH.s:5388   .debug_str:000000000000056c .LASF205
     /tmp/ccKcsDSH.s:5788   .debug_str:00000000000012b4 .LASF207
     /tmp/ccKcsDSH.s:5650   .debug_str:0000000000000e7c .LASF208
     /tmp/ccKcsDSH.s:5444   .debug_str:000000000000075f .LASF209
     /tmp/ccKcsDSH.s:5298   .debug_str:00000000000001e0 .LASF210
     /tmp/ccKcsDSH.s:5648   .debug_str:0000000000000e68 .LASF211
     /tmp/ccKcsDSH.s:5386   .debug_str:0000000000000567 .LASF212
     /tmp/ccKcsDSH.s:5712   .debug_str:000000000000103f .LASF213
     /tmp/ccKcsDSH.s:5742   .debug_str:0000000000001173 .LASF214
     /tmp/ccKcsDSH.s:5662   .debug_str:0000000000000ecd .LASF215
     /tmp/ccKcsDSH.s:5258   .debug_str:000000000000001f .LASF216
     /tmp/ccKcsDSH.s:5676   .debug_str:0000000000000f2f .LASF217
     /tmp/ccKcsDSH.s:5550   .debug_str:0000000000000b09 .LASF218
     /tmp/ccKcsDSH.s:5464   .debug_str:000000000000082f .LASF219
     /tmp/ccKcsDSH.s:5346   .debug_str:0000000000000427 .LASF220
     /tmp/ccKcsDSH.s:5354   .debug_str:000000000000046c .LASF221
     /tmp/ccKcsDSH.s:5580   .debug_str:0000000000000c1d .LASF222
     /tmp/ccKcsDSH.s:5754   .debug_str:00000000000011b0 .LASF223
     /tmp/ccKcsDSH.s:5254   .debug_str:0000000000000000 .LASF224
     /tmp/ccKcsDSH.s:5454   .debug_str:00000000000007bb .LASF225
     /tmp/ccKcsDSH.s:5786   .debug_str:00000000000012a5 .LASF226
     /tmp/ccKcsDSH.s:5736   .debug_str:000000000000112a .LASF227
     /tmp/ccKcsDSH.s:5542   .debug_str:0000000000000aac .LASF228
     /tmp/ccKcsDSH.s:5362   .debug_str:000000000000049f .LASF229
     /tmp/ccKcsDSH.s:5602   .debug_str:0000000000000d04 .LASF230
     /tmp/ccKcsDSH.s:5636   .debug_str:0000000000000deb .LASF231
     /tmp/ccKcsDSH.s:5520   .debug_str:00000000000009ea .LASF232
     /tmp/ccKcsDSH.s:5472   .debug_str:000000000000086d .LASF233
     /tmp/ccKcsDSH.s:5884   .debug_str:000000000000159d .LASF234
     /tmp/ccKcsDSH.s:5268   .debug_str:0000000000000071 .LASF235
     /tmp/ccKcsDSH.s:5538   .debug_str:0000000000000a8a .LASF236
     /tmp/ccKcsDSH.s:5490   .debug_str:00000000000008f8 .LASF237
     /tmp/ccKcsDSH.s:5592   .debug_str:0000000000000c7e .LASF238
GAS LISTING /tmp/ccKcsDSH.s 			page 50


     /tmp/ccKcsDSH.s:5832   .debug_str:00000000000013f0 .LASF239
     /tmp/ccKcsDSH.s:5682   .debug_str:0000000000000f57 .LASF240
     /tmp/ccKcsDSH.s:5866   .debug_str:00000000000014f8 .LASF241
     /tmp/ccKcsDSH.s:5288   .debug_str:0000000000000159 .LASF242
     /tmp/ccKcsDSH.s:5750   .debug_str:0000000000001196 .LASF243
     /tmp/ccKcsDSH.s:5842   .debug_str:0000000000001466 .LASF244
     /tmp/ccKcsDSH.s:5626   .debug_str:0000000000000dba .LASF245
     /tmp/ccKcsDSH.s:5782   .debug_str:0000000000001288 .LASF246
     /tmp/ccKcsDSH.s:5420   .debug_str:00000000000006a1 .LASF247
     /tmp/ccKcsDSH.s:5320   .debug_str:000000000000029d .LASF248
     /tmp/ccKcsDSH.s:5286   .debug_str:0000000000000136 .LASF249
     /tmp/ccKcsDSH.s:5584   .debug_str:0000000000000c2e .LASF250
     /tmp/ccKcsDSH.s:5368   .debug_str:00000000000004f4 .LASF251
     /tmp/ccKcsDSH.s:5510   .debug_str:00000000000009b6 .LASF252
     /tmp/ccKcsDSH.s:5426   .debug_str:00000000000006e8 .LASF253
     /tmp/ccKcsDSH.s:5856   .debug_str:00000000000014c1 .LASF254
     /tmp/ccKcsDSH.s:5356   .debug_str:0000000000000476 .LASF255
     /tmp/ccKcsDSH.s:5452   .debug_str:00000000000007b0 .LASF256
     /tmp/ccKcsDSH.s:5612   .debug_str:0000000000000d45 .LASF257
     /tmp/ccKcsDSH.s:5440   .debug_str:0000000000000744 .LASF258
     /tmp/ccKcsDSH.s:5414   .debug_str:000000000000065e .LASF259
     /tmp/ccKcsDSH.s:5744   .debug_str:000000000000117a .LASF260
     /tmp/ccKcsDSH.s:5570   .debug_str:0000000000000bb4 .LASF261
     /tmp/ccKcsDSH.s:5768   .debug_str:00000000000011f7 .LASF262
     /tmp/ccKcsDSH.s:5820   .debug_str:0000000000001399 .LASF263
     /tmp/ccKcsDSH.s:5566   .debug_str:0000000000000ba0 .LASF264
     /tmp/ccKcsDSH.s:5718   .debug_str:0000000000001077 .LASF265
     /tmp/ccKcsDSH.s:5408   .debug_str:0000000000000618 .LASF266
     /tmp/ccKcsDSH.s:5800   .debug_str:0000000000001305 .LASF267
     /tmp/ccKcsDSH.s:5478   .debug_str:0000000000000890 .LASF268
     /tmp/ccKcsDSH.s:5798   .debug_str:00000000000012f3 .LASF269
     /tmp/ccKcsDSH.s:5652   .debug_str:0000000000000e87 .LASF270
     /tmp/ccKcsDSH.s:5310   .debug_str:0000000000000255 .LASF271
     /tmp/ccKcsDSH.s:5324   .debug_str:0000000000000357 .LASF272
     /tmp/ccKcsDSH.s:5400   .debug_str:00000000000005d3 .LASF273
     /tmp/ccKcsDSH.s:5416   .debug_str:0000000000000672 .LASF274
     /tmp/ccKcsDSH.s:5292   .debug_str:0000000000000190 .LASF275
     /tmp/ccKcsDSH.s:5840   .debug_str:000000000000144d .LASF276
     /tmp/ccKcsDSH.s:5544   .debug_str:0000000000000abd .LASF277
     /tmp/ccKcsDSH.s:5528   .debug_str:0000000000000a15 .LASF278
     /tmp/ccKcsDSH.s:5872   .debug_str:0000000000001527 .LASF279
     /tmp/ccKcsDSH.s:5504   .debug_str:0000000000000984 .LASF280
     /tmp/ccKcsDSH.s:5498   .debug_str:000000000000093a .LASF281
     /tmp/ccKcsDSH.s:5422   .debug_str:00000000000006c8 .LASF282
     /tmp/ccKcsDSH.s:5760   .debug_str:00000000000011cb .LASF283
     /tmp/ccKcsDSH.s:5434   .debug_str:0000000000000710 .LASF284
     /tmp/ccKcsDSH.s:5276   .debug_str:00000000000000e4 .LASF285
     /tmp/ccKcsDSH.s:5500   .debug_str:0000000000000956 .LASF286
     /tmp/ccKcsDSH.s:5530   .debug_str:0000000000000a2d .LASF287
     /tmp/ccKcsDSH.s:5880   .debug_str:000000000000158a .LASF288
     /tmp/ccKcsDSH.s:5296   .debug_str:00000000000001c4 .LASF289
     /tmp/ccKcsDSH.s:5780   .debug_str:0000000000001273 .LASF290
     /tmp/ccKcsDSH.s:5294   .debug_str:00000000000001ab .LASF291
     /tmp/ccKcsDSH.s:541    .text:000000000000028c .LFB38
     /tmp/ccKcsDSH.s:601    .text:00000000000002cc .LFE38
     /tmp/ccKcsDSH.s:559    .text:00000000000002ac .LBB47
     /tmp/ccKcsDSH.s:572    .text:00000000000002b4 .LBE47
GAS LISTING /tmp/ccKcsDSH.s 			page 51


     /tmp/ccKcsDSH.s:5058   .debug_loc:0000000000000000 .LLST4
     /tmp/ccKcsDSH.s:585    .text:00000000000002c0 .LBB49
     /tmp/ccKcsDSH.s:597    .text:00000000000002c8 .LBE49
     /tmp/ccKcsDSH.s:5067   .debug_loc:0000000000000026 .LLST5
     /tmp/ccKcsDSH.s:488    .text:0000000000000254 .LFB37
     /tmp/ccKcsDSH.s:535    .text:000000000000028c .LFE37
     /tmp/ccKcsDSH.s:5792   .debug_str:00000000000012d1 .LASF292
     /tmp/ccKcsDSH.s:467    .text:0000000000000244 .LFB36
     /tmp/ccKcsDSH.s:482    .text:0000000000000254 .LFE36
     /tmp/ccKcsDSH.s:434    .text:0000000000000224 .LFB35
     /tmp/ccKcsDSH.s:461    .text:0000000000000244 .LFE35
     /tmp/ccKcsDSH.s:402    .text:00000000000001fc .LFB34
     /tmp/ccKcsDSH.s:428    .text:0000000000000224 .LFE34
     /tmp/ccKcsDSH.s:5076   .debug_loc:000000000000004c .LLST3
     /tmp/ccKcsDSH.s:417    .text:0000000000000214 .LVL27
     /tmp/ccKcsDSH.s:10     .text:0000000000000000 .LFB33
     /tmp/ccKcsDSH.s:36     .text:0000000000000028 .LFE33
     /tmp/ccKcsDSH.s:25     .text:0000000000000018 .LVL0
     /tmp/ccKcsDSH.s:372    .text:00000000000001fc .LFE32
     /tmp/ccKcsDSH.s:5442   .debug_str:0000000000000757 .LASF293
     /tmp/ccKcsDSH.s:5090   .debug_loc:0000000000000085 .LLST2
     /tmp/ccKcsDSH.s:262    .text:000000000000010c .LVL10
     /tmp/ccKcsDSH.s:266    .text:0000000000000114 .LVL11
     /tmp/ccKcsDSH.s:271    .text:0000000000000120 .LVL12
     /tmp/ccKcsDSH.s:276    .text:0000000000000130 .LVL13
     /tmp/ccKcsDSH.s:285    .text:0000000000000150 .LVL14
     /tmp/ccKcsDSH.s:292    .text:000000000000015c .LVL15
     /tmp/ccKcsDSH.s:299    .text:0000000000000168 .LVL16
     /tmp/ccKcsDSH.s:305    .text:0000000000000174 .LVL17
     /tmp/ccKcsDSH.s:317    .text:0000000000000194 .LVL18
     /tmp/ccKcsDSH.s:325    .text:00000000000001a8 .LVL19
     /tmp/ccKcsDSH.s:331    .text:00000000000001b4 .LVL20
     /tmp/ccKcsDSH.s:339    .text:00000000000001c0 .LVL21
     /tmp/ccKcsDSH.s:343    .text:00000000000001c8 .LVL22
     /tmp/ccKcsDSH.s:365    .text:00000000000001f0 .LVL24
     /tmp/ccKcsDSH.s:369    .text:00000000000001fc .LVL25
     /tmp/ccKcsDSH.s:607    .text:00000000000002cc .LFB31
     /tmp/ccKcsDSH.s:1241   .text:0000000000000590 .LFE31
     /tmp/ccKcsDSH.s:5630   .debug_str:0000000000000dd1 .LASF294
     /tmp/ccKcsDSH.s:5097   .debug_loc:00000000000000a8 .LLST6
     /tmp/ccKcsDSH.s:906    .text:00000000000003f8 .LBB68
     /tmp/ccKcsDSH.s:1045   .text:0000000000000494 .LBE68
     /tmp/ccKcsDSH.s:5766   .debug_str:00000000000011f2 .LASF295
     /tmp/ccKcsDSH.s:5706   .debug_str:0000000000001023 .LASF296
     /tmp/ccKcsDSH.s:908    .text:00000000000003f8 .LBB69
     /tmp/ccKcsDSH.s:924    .text:0000000000000404 .LBE69
     /tmp/ccKcsDSH.s:928    .text:0000000000000408 .LBB71
     /tmp/ccKcsDSH.s:943    .text:0000000000000414 .LBE71
     /tmp/ccKcsDSH.s:948    .text:0000000000000418 .LBB73
     /tmp/ccKcsDSH.s:960    .text:0000000000000420 .LBE73
     /tmp/ccKcsDSH.s:5118   .debug_loc:0000000000000106 .LLST13
     /tmp/ccKcsDSH.s:982    .text:000000000000045c .LBB75
     /tmp/ccKcsDSH.s:990    .text:0000000000000460 .LBE75
     /tmp/ccKcsDSH.s:5126   .debug_loc:000000000000012a .LLST14
     /tmp/ccKcsDSH.s:1000   .text:000000000000046c .LBB77
     /tmp/ccKcsDSH.s:1011   .text:0000000000000470 .LBE77
     /tmp/ccKcsDSH.s:5133   .debug_loc:000000000000014d .LLST15
GAS LISTING /tmp/ccKcsDSH.s 			page 52


     /tmp/ccKcsDSH.s:1016   .text:0000000000000474 .LBB79
     /tmp/ccKcsDSH.s:1027   .text:0000000000000478 .LBE79
     /tmp/ccKcsDSH.s:5140   .debug_loc:0000000000000170 .LLST16
     /tmp/ccKcsDSH.s:976    .text:0000000000000450 .LVL54
     /tmp/ccKcsDSH.s:1031   .text:0000000000000480 .LVL61
     /tmp/ccKcsDSH.s:1041   .text:0000000000000490 .LVL62
     /tmp/ccKcsDSH.s:5230   .debug_ranges:0000000000000000 .Ldebug_ranges0
     /tmp/ccKcsDSH.s:5147   .debug_loc:0000000000000193 .LLST10
     /tmp/ccKcsDSH.s:5658   .debug_str:0000000000000eb6 .LASF297
     /tmp/ccKcsDSH.s:5158   .debug_loc:00000000000001c9 .LLST11
     /tmp/ccKcsDSH.s:5165   .debug_loc:00000000000001ec .LLST12
     /tmp/ccKcsDSH.s:1059   .text:00000000000004b0 .LVL65
     /tmp/ccKcsDSH.s:1064   .text:00000000000004bc .LVL66
     /tmp/ccKcsDSH.s:894    .text:00000000000003ec .LVL48
     /tmp/ccKcsDSH.s:896    .text:00000000000003f4 .LVL49
     /tmp/ccKcsDSH.s:5180   .debug_loc:0000000000000235 .LLST7
     /tmp/ccKcsDSH.s:688    .text:0000000000000340 .LBB55
     /tmp/ccKcsDSH.s:703    .text:000000000000034c .LBE55
     /tmp/ccKcsDSH.s:709    .text:0000000000000354 .LBB57
     /tmp/ccKcsDSH.s:724    .text:0000000000000360 .LBE57
     /tmp/ccKcsDSH.s:1083   .text:00000000000004cc .LBB59
     /tmp/ccKcsDSH.s:1094   .text:00000000000004d0 .LBE59
     /tmp/ccKcsDSH.s:5187   .debug_loc:0000000000000258 .LLST8
     /tmp/ccKcsDSH.s:1099   .text:00000000000004d4 .LBB61
     /tmp/ccKcsDSH.s:1110   .text:00000000000004d8 .LBE61
     /tmp/ccKcsDSH.s:5194   .debug_loc:000000000000027b .LLST9
     /tmp/ccKcsDSH.s:1076   .text:00000000000004c8 .LVL68
     /tmp/ccKcsDSH.s:1114   .text:00000000000004e0 .LVL73
     /tmp/ccKcsDSH.s:1139   .text:00000000000004fc .LVL74
     /tmp/ccKcsDSH.s:1147   .text:0000000000000508 .LVL75
     /tmp/ccKcsDSH.s:1155   .text:0000000000000514 .LVL76
     /tmp/ccKcsDSH.s:1163   .text:0000000000000520 .LVL77
     /tmp/ccKcsDSH.s:1171   .text:000000000000052c .LVL78
     /tmp/ccKcsDSH.s:1179   .text:0000000000000538 .LVL79
     /tmp/ccKcsDSH.s:1187   .text:0000000000000544 .LVL80
     /tmp/ccKcsDSH.s:1195   .text:0000000000000550 .LVL81
     /tmp/ccKcsDSH.s:1203   .text:000000000000055c .LVL82
     /tmp/ccKcsDSH.s:1211   .text:0000000000000568 .LVL83
     /tmp/ccKcsDSH.s:1219   .text:0000000000000574 .LVL84
     /tmp/ccKcsDSH.s:1227   .text:0000000000000580 .LVL85
     /tmp/ccKcsDSH.s:1235   .text:000000000000058c .LVL86
     /tmp/ccKcsDSH.s:641    .text:0000000000000304 .LBB51
     /tmp/ccKcsDSH.s:657    .text:0000000000000310 .LBE51
     /tmp/ccKcsDSH.s:201    .text:00000000000000cc .LFB30
     /tmp/ccKcsDSH.s:230    .text:00000000000000ec .LFE30
     /tmp/ccKcsDSH.s:132    .text:0000000000000084 .LFB29
     /tmp/ccKcsDSH.s:164    .text:00000000000000a4 .LFE29
     /tmp/ccKcsDSH.s:143    .text:0000000000000090 .LBB45
     /tmp/ccKcsDSH.s:155    .text:0000000000000098 .LBE45
     /tmp/ccKcsDSH.s:5201   .debug_loc:000000000000029e .LLST1
     /tmp/ccKcsDSH.s:94     .text:0000000000000064 .LFB28
     /tmp/ccKcsDSH.s:126    .text:0000000000000084 .LFE28
     /tmp/ccKcsDSH.s:105    .text:0000000000000070 .LBB43
     /tmp/ccKcsDSH.s:117    .text:0000000000000078 .LBE43
     /tmp/ccKcsDSH.s:5209   .debug_loc:00000000000002c2 .LLST0
     /tmp/ccKcsDSH.s:170    .text:00000000000000a4 .LFB27
     /tmp/ccKcsDSH.s:195    .text:00000000000000cc .LFE27
GAS LISTING /tmp/ccKcsDSH.s 			page 53


     /tmp/ccKcsDSH.s:184    .text:00000000000000bc .LVL9
     /tmp/ccKcsDSH.s:42     .text:0000000000000028 .LFB26
     /tmp/ccKcsDSH.s:88     .text:0000000000000064 .LFE26
     /tmp/ccKcsDSH.s:57     .text:0000000000000040 .LBB41
     /tmp/ccKcsDSH.s:69     .text:0000000000000044 .LBE41
     /tmp/ccKcsDSH.s:73     .text:000000000000004c .LVL3
     /tmp/ccKcsDSH.s:77     .text:0000000000000054 .LVL4
     /tmp/ccKcsDSH.s:5374   .debug_str:0000000000000517 .LASF317
     /tmp/ccKcsDSH.s:5300   .debug_str:00000000000001ec .LASF298
     /tmp/ccKcsDSH.s:5846   .debug_str:000000000000147c .LASF299
     /tmp/ccKcsDSH.s:5406   .debug_str:000000000000060c .LASF300
     /tmp/ccKcsDSH.s:5670   .debug_str:0000000000000f08 .LASF302
     /tmp/ccKcsDSH.s:5560   .debug_str:0000000000000b68 .LASF301
     /tmp/ccKcsDSH.s:5624   .debug_str:0000000000000db1 .LASF303
     /tmp/ccKcsDSH.s:5372   .debug_str:000000000000050b .LASF304
     /tmp/ccKcsDSH.s:5822   .debug_str:00000000000013bd .LASF305
     /tmp/ccKcsDSH.s:5812   .debug_str:0000000000001356 .LASF306
     /tmp/ccKcsDSH.s:5732   .debug_str:0000000000001110 .LASF307
     /tmp/ccKcsDSH.s:5858   .debug_str:00000000000014cb .LASF308
     /tmp/ccKcsDSH.s:5808   .debug_str:0000000000001338 .LASF318
     /tmp/ccKcsDSH.s:5304   .debug_str:0000000000000219 .LASF319
     /tmp/ccKcsDSH.s:5536   .debug_str:0000000000000a7f .LASF309
     /tmp/ccKcsDSH.s:5352   .debug_str:000000000000045e .LASF310
     /tmp/ccKcsDSH.s:558    .text:00000000000002ac .LVL31
     /tmp/ccKcsDSH.s:568    .text:00000000000002b4 .LVL32
     /tmp/ccKcsDSH.s:584    .text:00000000000002c0 .LVL33
     /tmp/ccKcsDSH.s:594    .text:00000000000002c8 .LVL34
     /tmp/ccKcsDSH.s:405    .text:00000000000001fc .LVL26
     /tmp/ccKcsDSH.s:353    .text:00000000000001d4 .LVL23
     /tmp/ccKcsDSH.s:655    .text:0000000000000310 .LVL35
     /tmp/ccKcsDSH.s:669    .text:0000000000000334 .LVL36
     /tmp/ccKcsDSH.s:685    .text:0000000000000340 .LVL37
     /tmp/ccKcsDSH.s:809    .text:0000000000000388 .LVL39
     /tmp/ccKcsDSH.s:825    .text:00000000000003a0 .LVL40
     /tmp/ccKcsDSH.s:899    .text:00000000000003f8 .LVL50
     /tmp/ccKcsDSH.s:917    .text:00000000000003fc .LVL51
     /tmp/ccKcsDSH.s:947    .text:0000000000000418 .LVL52
     /tmp/ccKcsDSH.s:957    .text:0000000000000420 .LVL53
     /tmp/ccKcsDSH.s:981    .text:000000000000045c .LVL55
     /tmp/ccKcsDSH.s:988    .text:0000000000000460 .LVL56
     /tmp/ccKcsDSH.s:999    .text:000000000000046c .LVL57
     /tmp/ccKcsDSH.s:1008   .text:0000000000000470 .LVL58
     /tmp/ccKcsDSH.s:1015   .text:0000000000000474 .LVL59
     /tmp/ccKcsDSH.s:1024   .text:0000000000000478 .LVL60
     /tmp/ccKcsDSH.s:827    .text:00000000000003a4 .LVL41
     /tmp/ccKcsDSH.s:845    .text:00000000000003b0 .LVL42
     /tmp/ccKcsDSH.s:859    .text:00000000000003c4 .LVL44
     /tmp/ccKcsDSH.s:883    .text:00000000000003dc .LVL46
     /tmp/ccKcsDSH.s:851    .text:00000000000003b4 .LVL43
     /tmp/ccKcsDSH.s:879    .text:00000000000003d4 .LVL45
     /tmp/ccKcsDSH.s:887    .text:00000000000003e4 .LVL47
     /tmp/ccKcsDSH.s:1043   .text:0000000000000494 .LVL63
     /tmp/ccKcsDSH.s:1057   .text:00000000000004a8 .LVL64
     /tmp/ccKcsDSH.s:1066   .text:00000000000004c0 .LVL67
     /tmp/ccKcsDSH.s:731    .text:0000000000000370 .LVL38
     /tmp/ccKcsDSH.s:1082   .text:00000000000004cc .LVL69
     /tmp/ccKcsDSH.s:1091   .text:00000000000004d0 .LVL70
GAS LISTING /tmp/ccKcsDSH.s 			page 54


     /tmp/ccKcsDSH.s:1098   .text:00000000000004d4 .LVL71
     /tmp/ccKcsDSH.s:1107   .text:00000000000004d8 .LVL72
     /tmp/ccKcsDSH.s:142    .text:0000000000000090 .LVL7
     /tmp/ccKcsDSH.s:152    .text:0000000000000098 .LVL8
     /tmp/ccKcsDSH.s:104    .text:0000000000000070 .LVL5
     /tmp/ccKcsDSH.s:114    .text:0000000000000078 .LVL6
     /tmp/ccKcsDSH.s:1269   .debug_info:0000000000000000 .Ldebug_info0
     /tmp/ccKcsDSH.s:677    .text:000000000000033c .LBB54
     /tmp/ccKcsDSH.s:811    .text:0000000000000388 .LBE54
     /tmp/ccKcsDSH.s:1071   .text:00000000000004c0 .LBB82
     /tmp/ccKcsDSH.s:1117   .text:00000000000004e0 .LBE82
     /tmp/ccKcsDSH.s:1134   .text:00000000000004f4 .LBB83
     /tmp/ccKcsDSH.s:1238   .text:0000000000000590 .LBE83
     /tmp/ccKcsDSH.s:821    .text:0000000000000398 .LBB63
     /tmp/ccKcsDSH.s:901    .text:00000000000003f8 .LBE63
     /tmp/ccKcsDSH.s:1046   .text:0000000000000494 .LBB81
     /tmp/ccKcsDSH.s:1070   .text:00000000000004c0 .LBE81
     /tmp/ccKcsDSH.s:854    .text:00000000000003b8 .LBB65
     /tmp/ccKcsDSH.s:889    .text:00000000000003e4 .LBE65
     /tmp/ccKcsDSH.s:1048   .text:0000000000000494 .LBB66
     /tmp/ccKcsDSH.s:1068   .text:00000000000004c0 .LBE66
     /tmp/ccKcsDSH.s:375    .gcc_except_table:0000000000000000 .LLSDA32

UNDEFINED SYMBOLS
_Z8userMainv
_ZN5Riscv14supervisorTrapEv
_ZN3PCB10initializeEv
_ZN8KConsole10initializeEv
_Z7kmallocm
_ZN3PCBnwEm
_ZN3PCBC1EPFvPvES0_S0_m
_ZN3PCB5startEv
_ZN3PCB10isFinishedEv
thread_dispatch
_Z11printStringPKc
_ZN3PCB10consolePCBE
_ZN3PCBdlEPv
_Unwind_Resume
__gxx_personality_v0
_Z7myTestsv
_ZN3PCB7runningE
_ZN3PCB10savedRegA4E
CONSOLE_STATUS
CONSOLE_TX_DATA
_ZN8KConsole11pendingGetcE
plic_claim
plic_complete
_ZN3PCB16timeSliceCounterE
_ZN12SleepPCBList13tryToWakePCBsEv
_ZN3PCB8dispatchEv
_ZN8KConsole17putCharacterInputEc
_ZN8KConsole18putCharacterOutputEc
_ZN15MemoryAllocator15memAllocHandlerEv
_ZN15MemoryAllocator14memFreeHandlerEv
_ZN3PCB20threadMakePCBHandlerEv
_ZN3PCB19threadCreateHandlerEv
_ZN3PCB18threadStartHandlerEv
GAS LISTING /tmp/ccKcsDSH.s 			page 55


_ZN3PCB21threadDispatchHandlerEv
_ZN3PCB17threadExitHandlerEv
_ZN3PCB18threadSleepHandlerEv
_ZN10KSemaphore14semOpenHandlerEv
_ZN10KSemaphore14semWaitHandlerEv
_ZN10KSemaphore16semSignalHandlerEv
_ZN10KSemaphore15semCloseHandlerEv
_ZN8KConsole11getcHandlerEv
_ZN8KConsole11putcHandlerEv
