GAS LISTING /tmp/ccJnPpYh.s 			page 1


   1              		.file	"Riscv.cpp"
   2              		.option pic
   3              		.option norelax
   4              		.text
   5              	.Ltext0:
   6              		.align	2
   7              		.globl	_ZN5Riscv15userMainWrapperEPv
   9              	_ZN5Riscv15userMainWrapperEPv:
  10              	.LFB34:
  11              		.file 1 "src/Riscv.cpp"
   1:src/Riscv.cpp **** //
   2:src/Riscv.cpp **** // Created by os on 4/27/22.
   3:src/Riscv.cpp **** //
   4:src/Riscv.cpp **** 
   5:src/Riscv.cpp **** #include "../h/Riscv.hpp"
   6:src/Riscv.cpp **** #include "../h/MemoryAllocator.hpp"
   7:src/Riscv.cpp **** #include "../h/PCB.hpp"
   8:src/Riscv.cpp **** #include "../lib/console.h"
   9:src/Riscv.cpp **** #include "../h/syscall_cpp.hpp"
  10:src/Riscv.cpp **** #include "../h/SleepPCBList.hpp"
  11:src/Riscv.cpp **** #include "../h/KConsole.hpp"
  12:src/Riscv.cpp **** #include "../h/Tests.hpp"
  13:src/Riscv.cpp **** #include "../test/userMain.hpp"
  14:src/Riscv.cpp **** 
  15:src/Riscv.cpp **** void Riscv::initSystem()
  16:src/Riscv.cpp **** {
  17:src/Riscv.cpp ****     w_stvec((uint64)&Riscv::supervisorTrap);
  18:src/Riscv.cpp ****     PCB::initialize();
  19:src/Riscv.cpp ****     KConsole::initialize();
  20:src/Riscv.cpp **** }
  21:src/Riscv.cpp **** 
  22:src/Riscv.cpp **** void Riscv::endSystem()
  23:src/Riscv.cpp **** {
  24:src/Riscv.cpp ****     //todo
  25:src/Riscv.cpp ****     Riscv::disableInterrupts();
  26:src/Riscv.cpp **** }
  27:src/Riscv.cpp **** 
  28:src/Riscv.cpp **** 
  29:src/Riscv.cpp **** void Riscv::enableInterrupts() {
  30:src/Riscv.cpp ****     ms_sstatus(Riscv::SSTATUS_SIE);
  31:src/Riscv.cpp **** }
  32:src/Riscv.cpp **** 
  33:src/Riscv.cpp **** void Riscv::disableInterrupts()
  34:src/Riscv.cpp **** {
  35:src/Riscv.cpp ****     mc_sstatus(Riscv::SSTATUS_SIE);
  36:src/Riscv.cpp **** }
  37:src/Riscv.cpp **** 
  38:src/Riscv.cpp **** void Riscv::popSppSpie()
  39:src/Riscv.cpp **** {
  40:src/Riscv.cpp ****     __asm__ volatile ("csrw sepc, ra");
  41:src/Riscv.cpp ****     __asm__ volatile ("sret");
  42:src/Riscv.cpp **** }
  43:src/Riscv.cpp **** 
  44:src/Riscv.cpp **** void Riscv::printString(const char *string)
  45:src/Riscv.cpp **** {
  46:src/Riscv.cpp ****     uint64 sstatus = r_sstatus();
  47:src/Riscv.cpp ****     mc_sstatus(SSTATUS_SIE);
GAS LISTING /tmp/ccJnPpYh.s 			page 2


  48:src/Riscv.cpp ****     while (*string != '\0')
  49:src/Riscv.cpp ****     {
  50:src/Riscv.cpp ****         __putc(*string);
  51:src/Riscv.cpp ****         string++;
  52:src/Riscv.cpp ****     }
  53:src/Riscv.cpp ****     ms_sstatus(sstatus & SSTATUS_SIE ? SSTATUS_SIE : 0);
  54:src/Riscv.cpp **** }
  55:src/Riscv.cpp **** 
  56:src/Riscv.cpp **** void Riscv::printInteger(uint64 num)
  57:src/Riscv.cpp **** {
  58:src/Riscv.cpp ****     uint64 sstatus = r_sstatus();
  59:src/Riscv.cpp ****     mc_sstatus(SSTATUS_SIE);
  60:src/Riscv.cpp ****     static char digits[] = "0123456789";
  61:src/Riscv.cpp ****     char buf[16];
  62:src/Riscv.cpp ****     int i, neg;
  63:src/Riscv.cpp ****     uint x;
  64:src/Riscv.cpp **** 
  65:src/Riscv.cpp ****     neg = 0;
  66:src/Riscv.cpp ****     if(num < 0)
  67:src/Riscv.cpp ****     {
  68:src/Riscv.cpp ****         neg = 1;
  69:src/Riscv.cpp ****         x = -num;
  70:src/Riscv.cpp ****     }
  71:src/Riscv.cpp ****     else
  72:src/Riscv.cpp ****         x = num;
  73:src/Riscv.cpp **** 
  74:src/Riscv.cpp ****     i = 0;
  75:src/Riscv.cpp ****     do
  76:src/Riscv.cpp ****     {
  77:src/Riscv.cpp ****         buf[i++] = digits[x%10];
  78:src/Riscv.cpp ****     }while((x/=10) != 0);
  79:src/Riscv.cpp ****     if(neg)
  80:src/Riscv.cpp ****         buf[i++] = '-';
  81:src/Riscv.cpp **** 
  82:src/Riscv.cpp ****     while(--i >= 0)
  83:src/Riscv.cpp ****         __putc(buf[i]);
  84:src/Riscv.cpp **** 
  85:src/Riscv.cpp ****     __putc('\n');
  86:src/Riscv.cpp **** 
  87:src/Riscv.cpp ****     ms_sstatus(sstatus & SSTATUS_SIE ? SSTATUS_SIE : 0);
  88:src/Riscv.cpp **** }
  89:src/Riscv.cpp **** 
  90:src/Riscv.cpp **** void Riscv::handleSupervisorTrap()
  91:src/Riscv.cpp **** {
  92:src/Riscv.cpp ****     uint64 a4;
  93:src/Riscv.cpp ****     __asm__ volatile("mv %0, a4" : "=r"(a4));
  94:src/Riscv.cpp **** 
  95:src/Riscv.cpp ****     uint64 scause = Riscv::r_scause();
  96:src/Riscv.cpp **** 
  97:src/Riscv.cpp ****     switch(scause)
  98:src/Riscv.cpp ****     {
  99:src/Riscv.cpp **** 
 100:src/Riscv.cpp ****         case timerInterrupt:
 101:src/Riscv.cpp **** 
 102:src/Riscv.cpp ****             Riscv::mc_sip(Riscv::SIP_SSIP);
 103:src/Riscv.cpp ****             //Riscv::printString("timerInterrupt\n");
 104:src/Riscv.cpp ****             static uint64 total = 0;
GAS LISTING /tmp/ccJnPpYh.s 			page 3


 105:src/Riscv.cpp ****             total++;
 106:src/Riscv.cpp ****             Riscv::printInteger(total);
 107:src/Riscv.cpp **** 
 108:src/Riscv.cpp ****             PCB::timeSliceCounter++;
 109:src/Riscv.cpp **** 
 110:src/Riscv.cpp ****             SleepPCBList::tryToWakePCBs();
 111:src/Riscv.cpp **** 
 112:src/Riscv.cpp ****             if (PCB::timeSliceCounter >= PCB::running->getTimeSlice())
 113:src/Riscv.cpp ****             {
 114:src/Riscv.cpp ****                 uint64 sepc = Riscv::r_sepc();
 115:src/Riscv.cpp ****                 uint64 sstatus = Riscv::r_sstatus();
 116:src/Riscv.cpp ****                 PCB::timeSliceCounter = 0;
 117:src/Riscv.cpp ****                 PCB::dispatch();
 118:src/Riscv.cpp ****                 Riscv::w_sstatus(sstatus);
 119:src/Riscv.cpp ****                 Riscv::w_sepc(sepc);
 120:src/Riscv.cpp ****             }
 121:src/Riscv.cpp **** 
 122:src/Riscv.cpp ****             return;
 123:src/Riscv.cpp **** 
 124:src/Riscv.cpp ****         case hwInterrupt: // todo
 125:src/Riscv.cpp **** 
 126:src/Riscv.cpp ****             //Riscv::printString("Hardware interrupt...\n");
 127:src/Riscv.cpp ****             console_handler();
 128:src/Riscv.cpp ****             break;
 129:src/Riscv.cpp **** 
 130:src/Riscv.cpp ****         case operationInterrupt: // todo
 131:src/Riscv.cpp ****             break;
 132:src/Riscv.cpp **** 
 133:src/Riscv.cpp ****         case addrReadInterrupt: // todo
 134:src/Riscv.cpp ****             break;
 135:src/Riscv.cpp **** 
 136:src/Riscv.cpp ****         case addrWriteInterrupt: // todo
 137:src/Riscv.cpp ****             break;
 138:src/Riscv.cpp **** 
 139:src/Riscv.cpp ****         case ecallSystemInterupt:
 140:src/Riscv.cpp ****         case ecallUserInterrupt:
 141:src/Riscv.cpp **** 
 142:src/Riscv.cpp ****             uint64 operation;
 143:src/Riscv.cpp ****             __asm__ volatile("mv %0, a0" :  "=r"(operation));
 144:src/Riscv.cpp **** 
 145:src/Riscv.cpp ****             uint64 sepc = Riscv::r_sepc();
 146:src/Riscv.cpp ****             sepc+=4;
 147:src/Riscv.cpp **** 
 148:src/Riscv.cpp ****             if(operation == MemoryAllocator::MEM_ALLOC)
 149:src/Riscv.cpp ****             {
 150:src/Riscv.cpp ****                 size_t size;
 151:src/Riscv.cpp ****                 __asm__ volatile("mv %0, a1" : "=r"(size));
 152:src/Riscv.cpp ****                 size*=MEM_BLOCK_SIZE;
 153:src/Riscv.cpp ****                 void* allocatedAddr = kmalloc(size);
 154:src/Riscv.cpp ****                 __asm__ volatile("mv a0,%0" : : "r"((uint64)allocatedAddr));
 155:src/Riscv.cpp ****             }
 156:src/Riscv.cpp ****             else if(operation == MemoryAllocator::MEM_FREE)
 157:src/Riscv.cpp ****             {
 158:src/Riscv.cpp ****                 uint64 addr = 0;
 159:src/Riscv.cpp ****                 __asm__ volatile("mv %0, a1" : "=r"(addr));
 160:src/Riscv.cpp ****                 uint64 retval = kfree((void*)addr);
 161:src/Riscv.cpp ****                 __asm__ volatile("mv a0,%0" : :"r"(retval));
GAS LISTING /tmp/ccJnPpYh.s 			page 4


 162:src/Riscv.cpp ****             }
 163:src/Riscv.cpp ****             else if(operation == PCB::THREAD_CREATE)
 164:src/Riscv.cpp ****             {
 165:src/Riscv.cpp ****                 uint64 start_routine;
 166:src/Riscv.cpp ****                 uint64 args;
 167:src/Riscv.cpp ****                 PCB** threadHandle;
 168:src/Riscv.cpp ****                 __asm__ volatile("mv %0, a1" : "=r"(threadHandle));
 169:src/Riscv.cpp ****                 __asm__ volatile("mv %0, a2" : "=r"(start_routine));
 170:src/Riscv.cpp ****                 __asm__ volatile("mv %0, a3" : "=r"(args));
 171:src/Riscv.cpp ****                 //todo
 172:src/Riscv.cpp ****                 //uint64 stack_space;
 173:src/Riscv.cpp ****                 //__asm__ volatile("mv %0, a4" : "=r"(stack_space));
 174:src/Riscv.cpp **** 
 175:src/Riscv.cpp ****                 PCB* newPCB = new PCB((void (*)(void*))start_routine, (void*)args, (void*)a4, DEFAU
 176:src/Riscv.cpp **** 
 177:src/Riscv.cpp ****                 (*threadHandle) = newPCB;
 178:src/Riscv.cpp **** 
 179:src/Riscv.cpp ****                 if(newPCB == 0)
 180:src/Riscv.cpp ****                     __asm__ volatile("li a0, 0xffffffffffffffff");
 181:src/Riscv.cpp ****                 else
 182:src/Riscv.cpp ****                     __asm__ volatile("li a0, 0");
 183:src/Riscv.cpp ****             }
 184:src/Riscv.cpp ****             else if(operation == PCB::THREAD_DISPATCH)
 185:src/Riscv.cpp ****             {
 186:src/Riscv.cpp ****                 uint64 sstatus = Riscv::r_sstatus();
 187:src/Riscv.cpp ****                 PCB::timeSliceCounter = 0;
 188:src/Riscv.cpp ****                 PCB::dispatch();
 189:src/Riscv.cpp ****                 Riscv::w_sstatus(sstatus);
 190:src/Riscv.cpp ****             }
 191:src/Riscv.cpp ****             else if(operation == PCB::THREAD_EXIT)
 192:src/Riscv.cpp ****             {
 193:src/Riscv.cpp ****                 Riscv::printString("Exiting thread...\n");
 194:src/Riscv.cpp ****                 uint64 sstatus = Riscv::r_sstatus();
 195:src/Riscv.cpp ****                 PCB::timeSliceCounter = 0;
 196:src/Riscv.cpp ****                 PCB::running->setState(PCB::EXITING);
 197:src/Riscv.cpp ****                 PCB::running->setState(PCB::FINISHED);
 198:src/Riscv.cpp ****                 PCB::dispatch();
 199:src/Riscv.cpp ****                 Riscv::w_sstatus(sstatus);
 200:src/Riscv.cpp ****                 __asm__ volatile("li a0, 0");
 201:src/Riscv.cpp ****             }
 202:src/Riscv.cpp ****             else if(operation == PCB::TIME_SLEEP)
 203:src/Riscv.cpp ****             {
 204:src/Riscv.cpp ****                 uint64 time;
 205:src/Riscv.cpp ****                 __asm__ volatile("mv %0, a1" : "=r"(time));
 206:src/Riscv.cpp ****                 uint64 sstatus = Riscv::r_sstatus();
 207:src/Riscv.cpp ****                 PCB::timeSliceCounter = 0;
 208:src/Riscv.cpp ****                 PCB::running->setTimeToSleep(time);
 209:src/Riscv.cpp ****                 SleepPCBList::insertSleepingPCB();
 210:src/Riscv.cpp ****                 PCB::dispatch();
 211:src/Riscv.cpp ****                 Riscv::w_sstatus(sstatus);
 212:src/Riscv.cpp ****                 __asm__ volatile("li a0, 0x0");
 213:src/Riscv.cpp ****             }
 214:src/Riscv.cpp ****             else if(operation == KSemaphore::SEM_OPEN)
 215:src/Riscv.cpp ****             {
 216:src/Riscv.cpp ****                 uint64 val;
 217:src/Riscv.cpp ****                 KSemaphore** semaphoreHandle;
 218:src/Riscv.cpp ****                 __asm__ volatile("mv %0, a1" : "=r"(semaphoreHandle));
GAS LISTING /tmp/ccJnPpYh.s 			page 5


 219:src/Riscv.cpp ****                 __asm__ volatile("mv %0, a2" : "=r"(val));
 220:src/Riscv.cpp **** 
 221:src/Riscv.cpp ****                 KSemaphore* newSem = new KSemaphore(val);
 222:src/Riscv.cpp **** 
 223:src/Riscv.cpp ****                 (*semaphoreHandle) = newSem;
 224:src/Riscv.cpp **** 
 225:src/Riscv.cpp ****                 if(newSem == 0)
 226:src/Riscv.cpp ****                         __asm__ volatile("li a0, 0xffffffffffffffff");
 227:src/Riscv.cpp ****                 else
 228:src/Riscv.cpp ****                         __asm__ volatile("li a0, 0");
 229:src/Riscv.cpp **** 
 230:src/Riscv.cpp ****             }
 231:src/Riscv.cpp ****             else if(operation == KSemaphore::SEM_WAIT)
 232:src/Riscv.cpp ****             {
 233:src/Riscv.cpp ****                 uint64 sstatus = Riscv::r_sstatus();
 234:src/Riscv.cpp ****                 KSemaphore* kSem;
 235:src/Riscv.cpp ****                 __asm__ volatile("mv %0, a1" : "=r"(kSem));
 236:src/Riscv.cpp ****                 uint64 retval = kSem->wait();
 237:src/Riscv.cpp ****                 Riscv::w_sstatus(sstatus);
 238:src/Riscv.cpp ****                 __asm__ volatile("mv a0,%0" : :"r"(retval));
 239:src/Riscv.cpp ****             }
 240:src/Riscv.cpp ****             else if(operation == KSemaphore::SEM_SIGNAL)
 241:src/Riscv.cpp ****             {
 242:src/Riscv.cpp ****                 KSemaphore* kSem;
 243:src/Riscv.cpp ****                 __asm__ volatile("mv %0, a1" : "=r"(kSem));
 244:src/Riscv.cpp ****                 uint64 retval = kSem->signal();
 245:src/Riscv.cpp ****                 __asm__ volatile("mv a0,%0" : :"r"(retval));
 246:src/Riscv.cpp ****             }
 247:src/Riscv.cpp ****             else if(operation == KSemaphore::SEM_CLOSE)
 248:src/Riscv.cpp ****             {
 249:src/Riscv.cpp ****                 KSemaphore* kSem;
 250:src/Riscv.cpp ****                 __asm__ volatile("mv %0, a1" : "=r"(kSem));
 251:src/Riscv.cpp ****                 delete kSem;
 252:src/Riscv.cpp ****                 __asm__ volatile("li a0, 0");
 253:src/Riscv.cpp ****             }
 254:src/Riscv.cpp ****             else if(operation == KConsole::CONSOLE_GETC)
 255:src/Riscv.cpp ****             {
 256:src/Riscv.cpp ****                 //todo
 257:src/Riscv.cpp ****             }
 258:src/Riscv.cpp ****             else if(operation == KConsole::CONSOLE_PUTC)
 259:src/Riscv.cpp ****             {
 260:src/Riscv.cpp ****                 //todo
 261:src/Riscv.cpp ****             }
 262:src/Riscv.cpp **** 
 263:src/Riscv.cpp ****             Riscv::w_sepc(sepc);
 264:src/Riscv.cpp **** 
 265:src/Riscv.cpp ****             return;
 266:src/Riscv.cpp ****     }
 267:src/Riscv.cpp **** }
 268:src/Riscv.cpp **** 
 269:src/Riscv.cpp **** void Riscv::kernelMain()
 270:src/Riscv.cpp **** {
 271:src/Riscv.cpp ****     initSystem();
 272:src/Riscv.cpp **** 
 273:src/Riscv.cpp ****     //enableInterrupts();
 274:src/Riscv.cpp **** 
 275:src/Riscv.cpp ****     PCB* userPCB = new PCB(&Riscv::userMainWrapper, 0, kmalloc(DEFAULT_STACK_SIZE), DEFAULT_TIME_SL
GAS LISTING /tmp/ccJnPpYh.s 			page 6


 276:src/Riscv.cpp **** 
 277:src/Riscv.cpp ****     while(userPCB->getState() != PCB::FINISHED)
 278:src/Riscv.cpp ****     {
 279:src/Riscv.cpp ****         thread_dispatch();
 280:src/Riscv.cpp ****     }
 281:src/Riscv.cpp **** 
 282:src/Riscv.cpp ****     //myTests();
 283:src/Riscv.cpp **** 
 284:src/Riscv.cpp ****     //disableInterrupts();
 285:src/Riscv.cpp **** 
 286:src/Riscv.cpp ****     endSystem();
 287:src/Riscv.cpp **** 
 288:src/Riscv.cpp ****     Riscv::printString("End...");
 289:src/Riscv.cpp **** }
 290:src/Riscv.cpp **** 
 291:src/Riscv.cpp **** void Riscv::userMainWrapper(void* ) {
  12              		.loc 1 291 37
  13              		.cfi_startproc
  14 0000 130101FF 		addi	sp,sp,-16
  15              		.cfi_def_cfa_offset 16
  16 0004 23341100 		sd	ra,8(sp)
  17 0008 23308100 		sd	s0,0(sp)
  18              		.cfi_offset 1, -8
  19              		.cfi_offset 8, -16
  20 000c 13040101 		addi	s0,sp,16
  21              		.cfi_def_cfa 8, 0
 292:src/Riscv.cpp ****     userMain();
  22              		.loc 1 292 5
  23              		.loc 1 292 13 is_stmt 0
  24 0010 97000000 		call	_Z8userMainv@plt
  24      E7800000 
  25              	.LVL0:
 293:src/Riscv.cpp **** }
  26              		.loc 1 293 1
  27 0018 83308100 		ld	ra,8(sp)
  28              		.cfi_restore 1
  29 001c 03340100 		ld	s0,0(sp)
  30              		.cfi_restore 8
  31              		.cfi_def_cfa 2, 16
  32 0020 13010101 		addi	sp,sp,16
  33              		.cfi_def_cfa_offset 0
  34 0024 67800000 		jr	ra
  35              		.cfi_endproc
  36              	.LFE34:
  38              		.align	2
  39              		.globl	_ZN5Riscv10initSystemEv
  41              	_ZN5Riscv10initSystemEv:
  42              	.LFB25:
  16:src/Riscv.cpp ****     w_stvec((uint64)&Riscv::supervisorTrap);
  43              		.loc 1 16 1 is_stmt 1
  44              		.cfi_startproc
  45 0028 130101FF 		addi	sp,sp,-16
  46              		.cfi_def_cfa_offset 16
  47 002c 23341100 		sd	ra,8(sp)
  48 0030 23308100 		sd	s0,0(sp)
  49              		.cfi_offset 1, -8
  50              		.cfi_offset 8, -16
GAS LISTING /tmp/ccJnPpYh.s 			page 7


  51 0034 13040101 		addi	s0,sp,16
  52              		.cfi_def_cfa 8, 0
  17:src/Riscv.cpp ****     PCB::initialize();
  53              		.loc 1 17 5
  17:src/Riscv.cpp ****     PCB::initialize();
  54              		.loc 1 17 12 is_stmt 0
  55 0038 97070000 		la	a5,_ZN5Riscv14supervisorTrapEv
  55      83B70700 
  56              	.LVL1:
  57              	.LBB86:
  58              	.LBB87:
  59              		.file 2 "src/../h/Riscv.hpp"
   1:src/../h/Riscv.hpp **** //
   2:src/../h/Riscv.hpp **** // Created by os on 4/27/22.
   3:src/../h/Riscv.hpp **** //
   4:src/../h/Riscv.hpp **** 
   5:src/../h/Riscv.hpp **** #ifndef PROJECT_BASE_V1_0_RISCV_HPP
   6:src/../h/Riscv.hpp **** #define PROJECT_BASE_V1_0_RISCV_HPP
   7:src/../h/Riscv.hpp **** 
   8:src/../h/Riscv.hpp **** #include "../lib/hw.h"
   9:src/../h/Riscv.hpp **** 
  10:src/../h/Riscv.hpp **** class Riscv
  11:src/../h/Riscv.hpp **** {
  12:src/../h/Riscv.hpp **** private:
  13:src/../h/Riscv.hpp **** 
  14:src/../h/Riscv.hpp **** public:
  15:src/../h/Riscv.hpp ****     static void kernelMain();
  16:src/../h/Riscv.hpp **** 
  17:src/../h/Riscv.hpp ****     static void initSystem();
  18:src/../h/Riscv.hpp ****     static void endSystem();
  19:src/../h/Riscv.hpp **** 
  20:src/../h/Riscv.hpp ****     static void userMainWrapper(void* p);
  21:src/../h/Riscv.hpp **** 
  22:src/../h/Riscv.hpp ****     static void enableInterrupts();
  23:src/../h/Riscv.hpp **** 
  24:src/../h/Riscv.hpp ****     static void disableInterrupts();
  25:src/../h/Riscv.hpp **** 
  26:src/../h/Riscv.hpp ****     static void printString(char const *string);
  27:src/../h/Riscv.hpp **** 
  28:src/../h/Riscv.hpp ****     static void printInteger(uint64 num);
  29:src/../h/Riscv.hpp **** 
  30:src/../h/Riscv.hpp ****     static void pushRegisters();
  31:src/../h/Riscv.hpp ****     static void popRegisters();
  32:src/../h/Riscv.hpp **** 
  33:src/../h/Riscv.hpp ****     static uint64 r_scause();
  34:src/../h/Riscv.hpp ****     static void w_scause(uint64 scause);
  35:src/../h/Riscv.hpp **** 
  36:src/../h/Riscv.hpp ****     static uint64 r_sepc();
  37:src/../h/Riscv.hpp ****     static void w_sepc(uint64 sepc);
  38:src/../h/Riscv.hpp **** 
  39:src/../h/Riscv.hpp ****     static uint64 r_stvec();
  40:src/../h/Riscv.hpp ****     static void w_stvec(uint64 stvec);
  41:src/../h/Riscv.hpp **** 
  42:src/../h/Riscv.hpp ****     static uint64 r_stval();
  43:src/../h/Riscv.hpp ****     static void w_stval(uint64 stval);
  44:src/../h/Riscv.hpp **** 
  45:src/../h/Riscv.hpp ****     enum BitMaskSip
GAS LISTING /tmp/ccJnPpYh.s 			page 8


  46:src/../h/Riscv.hpp ****     {
  47:src/../h/Riscv.hpp ****         SIP_SSIP = (1 << 1),
  48:src/../h/Riscv.hpp ****         SIP_STIP = (1 << 5),
  49:src/../h/Riscv.hpp ****         SIP_SEIP = (1 << 9),
  50:src/../h/Riscv.hpp ****     };
  51:src/../h/Riscv.hpp **** 
  52:src/../h/Riscv.hpp ****     static void ms_sip(uint64 mask);
  53:src/../h/Riscv.hpp **** 
  54:src/../h/Riscv.hpp ****     static void mc_sip(uint64 mask);
  55:src/../h/Riscv.hpp **** 
  56:src/../h/Riscv.hpp ****     static uint64 r_sip();
  57:src/../h/Riscv.hpp **** 
  58:src/../h/Riscv.hpp ****     static void w_sip(uint64 sip);
  59:src/../h/Riscv.hpp **** 
  60:src/../h/Riscv.hpp ****     enum BitMaskSstatus
  61:src/../h/Riscv.hpp ****     {
  62:src/../h/Riscv.hpp ****         SSTATUS_SIE = (1 << 1),
  63:src/../h/Riscv.hpp ****         SSTATUS_SPIE = (1 << 5),
  64:src/../h/Riscv.hpp ****         SSTATUS_SPP = (1 << 8),
  65:src/../h/Riscv.hpp ****     };
  66:src/../h/Riscv.hpp **** 
  67:src/../h/Riscv.hpp ****     static void ms_sstatus(uint64 mask);
  68:src/../h/Riscv.hpp **** 
  69:src/../h/Riscv.hpp ****     static void mc_sstatus(uint64 mask);
  70:src/../h/Riscv.hpp **** 
  71:src/../h/Riscv.hpp ****     static uint64 r_sstatus();
  72:src/../h/Riscv.hpp **** 
  73:src/../h/Riscv.hpp ****     static void w_sstatus(uint64 sstatus);
  74:src/../h/Riscv.hpp **** 
  75:src/../h/Riscv.hpp ****     static void popSppSpie();
  76:src/../h/Riscv.hpp **** 
  77:src/../h/Riscv.hpp ****     static void supervisorTrap();
  78:src/../h/Riscv.hpp ****     static void handleSupervisorTrap();
  79:src/../h/Riscv.hpp **** 
  80:src/../h/Riscv.hpp ****     static const uint64 bntOne = 1UL << 63;;
  81:src/../h/Riscv.hpp ****     static const uint64 bntZero = 0UL;
  82:src/../h/Riscv.hpp ****     static const uint64 timerInterrupt = bntOne + 1UL;
  83:src/../h/Riscv.hpp ****     static const uint64 hwInterrupt = bntOne + 9UL;
  84:src/../h/Riscv.hpp ****     static const uint64 operationInterrupt = bntZero + 2UL;
  85:src/../h/Riscv.hpp ****     static const uint64 addrReadInterrupt = bntZero + 5UL;
  86:src/../h/Riscv.hpp ****     static const uint64 addrWriteInterrupt = bntZero + 7UL;
  87:src/../h/Riscv.hpp ****     static const uint64 ecallUserInterrupt = bntZero + 8UL;
  88:src/../h/Riscv.hpp ****     static const uint64 ecallSystemInterupt = bntZero + 9UL;
  89:src/../h/Riscv.hpp **** };
  90:src/../h/Riscv.hpp **** 
  91:src/../h/Riscv.hpp **** inline uint64 Riscv::r_scause() {
  92:src/../h/Riscv.hpp ****     uint64 volatile scause;
  93:src/../h/Riscv.hpp ****     __asm__ volatile("csrr %0, scause" : "=r"(scause));
  94:src/../h/Riscv.hpp ****     return scause;
  95:src/../h/Riscv.hpp **** }
  96:src/../h/Riscv.hpp **** 
  97:src/../h/Riscv.hpp **** inline void Riscv::w_scause(uint64 scause) {
  98:src/../h/Riscv.hpp ****     __asm__ volatile("csrw scause, %0" : :"r"(scause));
  99:src/../h/Riscv.hpp **** }
 100:src/../h/Riscv.hpp **** 
 101:src/../h/Riscv.hpp **** inline uint64 Riscv::r_sepc() {
 102:src/../h/Riscv.hpp ****     uint64 volatile sepc;
GAS LISTING /tmp/ccJnPpYh.s 			page 9


 103:src/../h/Riscv.hpp ****     __asm__ volatile("csrr %0, sepc" : "=r"(sepc));
 104:src/../h/Riscv.hpp ****     return sepc;
 105:src/../h/Riscv.hpp **** }
 106:src/../h/Riscv.hpp **** 
 107:src/../h/Riscv.hpp **** inline void Riscv::w_sepc(uint64 sepc) {
 108:src/../h/Riscv.hpp ****     __asm__ volatile("csrw sepc, %0" : :"r"(sepc));
 109:src/../h/Riscv.hpp **** }
 110:src/../h/Riscv.hpp **** 
 111:src/../h/Riscv.hpp **** inline uint64 Riscv::r_stvec() {
 112:src/../h/Riscv.hpp ****     uint64 volatile stvec;
 113:src/../h/Riscv.hpp ****     __asm__ volatile("csrr %0, stvec" : "=r"(stvec));
 114:src/../h/Riscv.hpp ****     return stvec;
 115:src/../h/Riscv.hpp **** }
 116:src/../h/Riscv.hpp **** 
 117:src/../h/Riscv.hpp **** inline void Riscv::w_stvec(uint64 stvec) {
 118:src/../h/Riscv.hpp ****     __asm__ volatile("csrw stvec, %0" : :"r"(stvec));
  60              		.loc 2 118 5 is_stmt 1
  61              		.loc 2 118 53 is_stmt 0
  62              	#APP
  63              	# 118 "src/../h/Riscv.hpp" 1
 119              	}
  64              		csrw stvec, a5
  65              	# 0 "" 2
  66              	.LVL2:
  67              	#NO_APP
  68              	.LBE87:
  69              	.LBE86:
  18:src/Riscv.cpp ****     KConsole::initialize();
  70              		.loc 1 18 5 is_stmt 1
  18:src/Riscv.cpp ****     KConsole::initialize();
  71              		.loc 1 18 20 is_stmt 0
  72 0044 97000000 		call	_ZN3PCB10initializeEv@plt
  72      E7800000 
  73              	.LVL3:
  19:src/Riscv.cpp **** }
  74              		.loc 1 19 5 is_stmt 1
  19:src/Riscv.cpp **** }
  75              		.loc 1 19 25 is_stmt 0
  76 004c 97000000 		call	_ZN8KConsole10initializeEv@plt
  76      E7800000 
  77              	.LVL4:
  20:src/Riscv.cpp **** 
  78              		.loc 1 20 1
  79 0054 83308100 		ld	ra,8(sp)
  80              		.cfi_restore 1
  81 0058 03340100 		ld	s0,0(sp)
  82              		.cfi_restore 8
  83              		.cfi_def_cfa 2, 16
  84 005c 13010101 		addi	sp,sp,16
  85              		.cfi_def_cfa_offset 0
  86 0060 67800000 		jr	ra
  87              		.cfi_endproc
  88              	.LFE25:
  90              		.align	2
  91              		.globl	_ZN5Riscv16enableInterruptsEv
  93              	_ZN5Riscv16enableInterruptsEv:
  94              	.LFB27:
GAS LISTING /tmp/ccJnPpYh.s 			page 10


  29:src/Riscv.cpp ****     ms_sstatus(Riscv::SSTATUS_SIE);
  95              		.loc 1 29 32 is_stmt 1
  96              		.cfi_startproc
  97 0064 130101FF 		addi	sp,sp,-16
  98              		.cfi_def_cfa_offset 16
  99 0068 23348100 		sd	s0,8(sp)
 100              		.cfi_offset 8, -8
 101 006c 13040101 		addi	s0,sp,16
 102              		.cfi_def_cfa 8, 0
  30:src/Riscv.cpp **** }
 103              		.loc 1 30 5
 104              	.LVL5:
 105              	.LBB88:
 106              	.LBB89:
 120:src/../h/Riscv.hpp **** 
 121:src/../h/Riscv.hpp **** inline uint64 Riscv::r_stval() {
 122:src/../h/Riscv.hpp ****     uint64 volatile stval;
 123:src/../h/Riscv.hpp ****     __asm__ volatile("csrr %0, stval" : "=r"(stval));
 124:src/../h/Riscv.hpp ****     return stval;
 125:src/../h/Riscv.hpp **** }
 126:src/../h/Riscv.hpp **** 
 127:src/../h/Riscv.hpp **** inline void Riscv::w_stval(uint64 stval) {
 128:src/../h/Riscv.hpp ****     __asm__ volatile("csrw stval, %0" : :"r"(stval));
 129:src/../h/Riscv.hpp **** }
 130:src/../h/Riscv.hpp **** 
 131:src/../h/Riscv.hpp **** inline void Riscv::ms_sip(uint64 mask) {
 132:src/../h/Riscv.hpp ****     __asm__ volatile("csrs sip, %0" : :"r"(mask));
 133:src/../h/Riscv.hpp **** }
 134:src/../h/Riscv.hpp **** 
 135:src/../h/Riscv.hpp **** inline void Riscv::mc_sip(uint64 mask) {
 136:src/../h/Riscv.hpp ****     __asm__ volatile("csrc sip, %0" : :"r"(mask));
 137:src/../h/Riscv.hpp **** }
 138:src/../h/Riscv.hpp **** 
 139:src/../h/Riscv.hpp **** inline uint64 Riscv::r_sip() {
 140:src/../h/Riscv.hpp ****     uint64 volatile sip;
 141:src/../h/Riscv.hpp ****     __asm__ volatile("csrr %0, sip" : "=r"(sip));
 142:src/../h/Riscv.hpp ****     return sip;
 143:src/../h/Riscv.hpp **** }
 144:src/../h/Riscv.hpp **** 
 145:src/../h/Riscv.hpp **** inline void Riscv::w_sip(uint64 sip) {
 146:src/../h/Riscv.hpp ****     __asm__ volatile("csrw sip, %0" : :"r"(sip));
 147:src/../h/Riscv.hpp **** }
 148:src/../h/Riscv.hpp **** 
 149:src/../h/Riscv.hpp **** inline void Riscv::ms_sstatus(uint64 mask) {
 150:src/../h/Riscv.hpp ****     __asm__ volatile("csrs sstatus, %0" : :"r"(mask));
 107              		.loc 2 150 5
 108              		.loc 2 150 54 is_stmt 0
 109 0070 93072000 		li	a5,2
 110              	#APP
 111              	# 150 "src/../h/Riscv.hpp" 1
 151              	}
 112              		csrs sstatus, a5
 113              	# 0 "" 2
 114              	.LVL6:
 115              	#NO_APP
 116              	.LBE89:
 117              	.LBE88:
GAS LISTING /tmp/ccJnPpYh.s 			page 11


  31:src/Riscv.cpp **** 
 118              		.loc 1 31 1
 119 0078 03348100 		ld	s0,8(sp)
 120              		.cfi_restore 8
 121              		.cfi_def_cfa 2, 16
 122 007c 13010101 		addi	sp,sp,16
 123              		.cfi_def_cfa_offset 0
 124 0080 67800000 		jr	ra
 125              		.cfi_endproc
 126              	.LFE27:
 128              		.align	2
 129              		.globl	_ZN5Riscv17disableInterruptsEv
 131              	_ZN5Riscv17disableInterruptsEv:
 132              	.LFB28:
  34:src/Riscv.cpp ****     mc_sstatus(Riscv::SSTATUS_SIE);
 133              		.loc 1 34 1 is_stmt 1
 134              		.cfi_startproc
 135 0084 130101FF 		addi	sp,sp,-16
 136              		.cfi_def_cfa_offset 16
 137 0088 23348100 		sd	s0,8(sp)
 138              		.cfi_offset 8, -8
 139 008c 13040101 		addi	s0,sp,16
 140              		.cfi_def_cfa 8, 0
  35:src/Riscv.cpp **** }
 141              		.loc 1 35 5
 142              	.LVL7:
 143              	.LBB90:
 144              	.LBB91:
 152:src/../h/Riscv.hpp **** 
 153:src/../h/Riscv.hpp **** inline void Riscv::mc_sstatus(uint64 mask) {
 154:src/../h/Riscv.hpp ****     __asm__ volatile("csrc sstatus, %0" : :"r"(mask));
 145              		.loc 2 154 5
 146              		.loc 2 154 54 is_stmt 0
 147 0090 93072000 		li	a5,2
 148              	#APP
 149              	# 154 "src/../h/Riscv.hpp" 1
 155              	}
 150              		csrc sstatus, a5
 151              	# 0 "" 2
 152              	.LVL8:
 153              	#NO_APP
 154              	.LBE91:
 155              	.LBE90:
  36:src/Riscv.cpp **** 
 156              		.loc 1 36 1
 157 0098 03348100 		ld	s0,8(sp)
 158              		.cfi_restore 8
 159              		.cfi_def_cfa 2, 16
 160 009c 13010101 		addi	sp,sp,16
 161              		.cfi_def_cfa_offset 0
 162 00a0 67800000 		jr	ra
 163              		.cfi_endproc
 164              	.LFE28:
 166              		.align	2
 167              		.globl	_ZN5Riscv9endSystemEv
 169              	_ZN5Riscv9endSystemEv:
 170              	.LFB26:
GAS LISTING /tmp/ccJnPpYh.s 			page 12


  23:src/Riscv.cpp ****     //todo
 171              		.loc 1 23 1 is_stmt 1
 172              		.cfi_startproc
 173 00a4 130101FF 		addi	sp,sp,-16
 174              		.cfi_def_cfa_offset 16
 175 00a8 23341100 		sd	ra,8(sp)
 176 00ac 23308100 		sd	s0,0(sp)
 177              		.cfi_offset 1, -8
 178              		.cfi_offset 8, -16
 179 00b0 13040101 		addi	s0,sp,16
 180              		.cfi_def_cfa 8, 0
  25:src/Riscv.cpp **** }
 181              		.loc 1 25 5
  25:src/Riscv.cpp **** }
 182              		.loc 1 25 29 is_stmt 0
 183 00b4 97000000 		call	_ZN5Riscv17disableInterruptsEv
 183      E7800000 
 184              	.LVL9:
  26:src/Riscv.cpp **** 
 185              		.loc 1 26 1
 186 00bc 83308100 		ld	ra,8(sp)
 187              		.cfi_restore 1
 188 00c0 03340100 		ld	s0,0(sp)
 189              		.cfi_restore 8
 190              		.cfi_def_cfa 2, 16
 191 00c4 13010101 		addi	sp,sp,16
 192              		.cfi_def_cfa_offset 0
 193 00c8 67800000 		jr	ra
 194              		.cfi_endproc
 195              	.LFE26:
 197              		.align	2
 198              		.globl	_ZN5Riscv10popSppSpieEv
 200              	_ZN5Riscv10popSppSpieEv:
 201              	.LFB29:
  39:src/Riscv.cpp ****     __asm__ volatile ("csrw sepc, ra");
 202              		.loc 1 39 1 is_stmt 1
 203              		.cfi_startproc
 204 00cc 130101FF 		addi	sp,sp,-16
 205              		.cfi_def_cfa_offset 16
 206 00d0 23348100 		sd	s0,8(sp)
 207              		.cfi_offset 8, -8
 208 00d4 13040101 		addi	s0,sp,16
 209              		.cfi_def_cfa 8, 0
  40:src/Riscv.cpp ****     __asm__ volatile ("sret");
 210              		.loc 1 40 5
  40:src/Riscv.cpp ****     __asm__ volatile ("sret");
 211              		.loc 1 40 39 is_stmt 0
 212              	#APP
 213              	# 40 "src/Riscv.cpp" 1
  41:src/Riscv.cpp **** }
 214              		csrw sepc, ra
 215              	# 0 "" 2
 216              		.loc 1 41 5 is_stmt 1
  41:src/Riscv.cpp **** }
 217              		.loc 1 41 30 is_stmt 0
 218              	# 41 "src/Riscv.cpp" 1
  42:src/Riscv.cpp **** 
GAS LISTING /tmp/ccJnPpYh.s 			page 13


 219              		sret
 220              	# 0 "" 2
 221              		.loc 1 42 1
 222              	#NO_APP
 223 00e0 03348100 		ld	s0,8(sp)
 224              		.cfi_restore 8
 225              		.cfi_def_cfa 2, 16
 226 00e4 13010101 		addi	sp,sp,16
 227              		.cfi_def_cfa_offset 0
 228 00e8 67800000 		jr	ra
 229              		.cfi_endproc
 230              	.LFE29:
 232              		.align	2
 233              		.globl	_ZN5Riscv11printStringEPKc
 235              	_ZN5Riscv11printStringEPKc:
 236              	.LFB30:
  45:src/Riscv.cpp ****     uint64 sstatus = r_sstatus();
 237              		.loc 1 45 1 is_stmt 1
 238              		.cfi_startproc
 239              	.LVL10:
 240 00ec 130101FD 		addi	sp,sp,-48
 241              		.cfi_def_cfa_offset 48
 242 00f0 23341102 		sd	ra,40(sp)
 243 00f4 23308102 		sd	s0,32(sp)
 244 00f8 233C9100 		sd	s1,24(sp)
 245 00fc 23382101 		sd	s2,16(sp)
 246              		.cfi_offset 1, -8
 247              		.cfi_offset 8, -16
 248              		.cfi_offset 9, -24
 249              		.cfi_offset 18, -32
 250 0100 13040103 		addi	s0,sp,48
 251              		.cfi_def_cfa 8, 0
 252 0104 93040500 		mv	s1,a0
  46:src/Riscv.cpp ****     mc_sstatus(SSTATUS_SIE);
 253              		.loc 1 46 5
 254              	.LBB92:
 255              	.LBB93:
 156:src/../h/Riscv.hpp **** 
 157:src/../h/Riscv.hpp **** inline uint64 Riscv::r_sstatus() {
 158:src/../h/Riscv.hpp ****     uint64 volatile sstatus;
 256              		.loc 2 158 5
 159:src/../h/Riscv.hpp ****     __asm__ volatile("csrr %0, sstatus" : "=r"(sstatus));
 257              		.loc 2 159 5
 258              		.loc 2 159 57 is_stmt 0
 259              	#APP
 260              	# 159 "src/../h/Riscv.hpp" 1
 160              	    return sstatus;
 261              		csrr a5, sstatus
 262              	# 0 "" 2
 263              	#NO_APP
 264 010c 233CF4FC 		sd	a5,-40(s0)
 265              		.loc 2 160 5 is_stmt 1
 266              		.loc 2 160 12 is_stmt 0
 267 0110 033984FD 		ld	s2,-40(s0)
 268              	.LVL11:
 269              	.LBE93:
 270              	.LBE92:
GAS LISTING /tmp/ccJnPpYh.s 			page 14


  47:src/Riscv.cpp ****     while (*string != '\0')
 271              		.loc 1 47 5 is_stmt 1
 272              	.LBB94:
 273              	.LBB95:
 154:src/../h/Riscv.hpp **** }
 274              		.loc 2 154 5
 154:src/../h/Riscv.hpp **** }
 275              		.loc 2 154 54 is_stmt 0
 276 0114 93072000 		li	a5,2
 277              	#APP
 278              	# 154 "src/../h/Riscv.hpp" 1
 279              		csrc sstatus, a5
 280              	# 0 "" 2
 281              	.LVL12:
 282              	#NO_APP
 283              	.L15:
 284              	.LBE95:
 285              	.LBE94:
  48:src/Riscv.cpp ****     {
 286              		.loc 1 48 5 is_stmt 1
  48:src/Riscv.cpp ****     {
 287              		.loc 1 48 20
  48:src/Riscv.cpp ****     {
 288              		.loc 1 48 12 is_stmt 0
 289 011c 03C50400 		lbu	a0,0(s1)
  48:src/Riscv.cpp ****     {
 290              		.loc 1 48 20
 291 0120 630A0500 		beqz	a0,.L14
  50:src/Riscv.cpp ****         string++;
 292              		.loc 1 50 9 is_stmt 1
  50:src/Riscv.cpp ****         string++;
 293              		.loc 1 50 15 is_stmt 0
 294 0124 97000000 		call	__putc@plt
 294      E7800000 
 295              	.LVL13:
  51:src/Riscv.cpp ****     }
 296              		.loc 1 51 9 is_stmt 1
  51:src/Riscv.cpp ****     }
 297              		.loc 1 51 15 is_stmt 0
 298 012c 93841400 		addi	s1,s1,1
 299              	.LVL14:
  48:src/Riscv.cpp ****     {
 300              		.loc 1 48 5
 301 0130 6FF0DFFE 		j	.L15
 302              	.L14:
  53:src/Riscv.cpp **** }
 303              		.loc 1 53 5 is_stmt 1
  53:src/Riscv.cpp **** }
 304              		.loc 1 53 38 is_stmt 0
 305 0134 1B090900 		sext.w	s2,s2
 306              	.LVL15:
  53:src/Riscv.cpp **** }
 307              		.loc 1 53 15
 308 0138 13792900 		andi	s2,s2,2
 309 013c 1B090900 		sext.w	s2,s2
 310              	.LVL16:
 311              	.LBB96:
GAS LISTING /tmp/ccJnPpYh.s 			page 15


 312              	.LBB97:
 150:src/../h/Riscv.hpp **** }
 313              		.loc 2 150 5 is_stmt 1
 150:src/../h/Riscv.hpp **** }
 314              		.loc 2 150 54 is_stmt 0
 315              	#APP
 316              	# 150 "src/../h/Riscv.hpp" 1
 317              		csrs sstatus, s2
 318              	# 0 "" 2
 319              	.LVL17:
 320              	#NO_APP
 321              	.LBE97:
 322              	.LBE96:
  54:src/Riscv.cpp **** 
 323              		.loc 1 54 1
 324 0144 83308102 		ld	ra,40(sp)
 325              		.cfi_restore 1
 326 0148 03340102 		ld	s0,32(sp)
 327              		.cfi_restore 8
 328              		.cfi_def_cfa 2, 48
 329 014c 83348101 		ld	s1,24(sp)
 330              		.cfi_restore 9
 331              	.LVL18:
 332 0150 03390101 		ld	s2,16(sp)
 333              		.cfi_restore 18
 334 0154 13010103 		addi	sp,sp,48
 335              		.cfi_def_cfa_offset 0
 336 0158 67800000 		jr	ra
 337              		.cfi_endproc
 338              	.LFE30:
 340              		.align	2
 341              		.globl	_ZN5Riscv12printIntegerEm
 343              	_ZN5Riscv12printIntegerEm:
 344              	.LFB31:
  57:src/Riscv.cpp ****     uint64 sstatus = r_sstatus();
 345              		.loc 1 57 1 is_stmt 1
 346              		.cfi_startproc
 347              	.LVL19:
 348 015c 130101FC 		addi	sp,sp,-64
 349              		.cfi_def_cfa_offset 64
 350 0160 233C1102 		sd	ra,56(sp)
 351 0164 23388102 		sd	s0,48(sp)
 352 0168 23349102 		sd	s1,40(sp)
 353 016c 23302103 		sd	s2,32(sp)
 354              		.cfi_offset 1, -8
 355              		.cfi_offset 8, -16
 356              		.cfi_offset 9, -24
 357              		.cfi_offset 18, -32
 358 0170 13040104 		addi	s0,sp,64
 359              		.cfi_def_cfa 8, 0
  58:src/Riscv.cpp ****     mc_sstatus(SSTATUS_SIE);
 360              		.loc 1 58 5
 361              	.LBB98:
 362              	.LBB99:
 158:src/../h/Riscv.hpp ****     __asm__ volatile("csrr %0, sstatus" : "=r"(sstatus));
 363              		.loc 2 158 5
 159:src/../h/Riscv.hpp ****     return sstatus;
GAS LISTING /tmp/ccJnPpYh.s 			page 16


 364              		.loc 2 159 5
 159:src/../h/Riscv.hpp ****     return sstatus;
 365              		.loc 2 159 57 is_stmt 0
 366              	#APP
 367              	# 159 "src/../h/Riscv.hpp" 1
 368              		csrr a5, sstatus
 369              	# 0 "" 2
 370              	#NO_APP
 371 0178 2334F4FC 		sd	a5,-56(s0)
 372              		.loc 2 160 5 is_stmt 1
 373              		.loc 2 160 12 is_stmt 0
 374 017c 033984FC 		ld	s2,-56(s0)
 375              	.LVL20:
 376              	.LBE99:
 377              	.LBE98:
  59:src/Riscv.cpp ****     static char digits[] = "0123456789";
 378              		.loc 1 59 5 is_stmt 1
 379              	.LBB100:
 380              	.LBB101:
 154:src/../h/Riscv.hpp **** }
 381              		.loc 2 154 5
 154:src/../h/Riscv.hpp **** }
 382              		.loc 2 154 54 is_stmt 0
 383 0180 93072000 		li	a5,2
 384              	#APP
 385              	# 154 "src/../h/Riscv.hpp" 1
 386              		csrc sstatus, a5
 387              	# 0 "" 2
 388              	.LVL21:
 389              	#NO_APP
 390              	.LBE101:
 391              	.LBE100:
  60:src/Riscv.cpp ****     char buf[16];
 392              		.loc 1 60 5 is_stmt 1
  61:src/Riscv.cpp ****     int i, neg;
 393              		.loc 1 61 5
  62:src/Riscv.cpp ****     uint x;
 394              		.loc 1 62 5
  63:src/Riscv.cpp **** 
 395              		.loc 1 63 5
  65:src/Riscv.cpp ****     if(num < 0)
 396              		.loc 1 65 5
  66:src/Riscv.cpp ****     {
 397              		.loc 1 66 5
  72:src/Riscv.cpp **** 
 398              		.loc 1 72 9
  72:src/Riscv.cpp **** 
 399              		.loc 1 72 11 is_stmt 0
 400 0188 1B050500 		sext.w	a0,a0
 401              	.LVL22:
  74:src/Riscv.cpp ****     do
 402              		.loc 1 74 5 is_stmt 1
  74:src/Riscv.cpp ****     do
 403              		.loc 1 74 7 is_stmt 0
 404 018c 93040000 		li	s1,0
 405              	.LVL23:
 406              	.L18:
GAS LISTING /tmp/ccJnPpYh.s 			page 17


  75:src/Riscv.cpp ****     {
 407              		.loc 1 75 5 is_stmt 1
  77:src/Riscv.cpp ****     }while((x/=10) != 0);
 408              		.loc 1 77 9
  77:src/Riscv.cpp ****     }while((x/=10) != 0);
 409              		.loc 1 77 28 is_stmt 0
 410 0190 1306A000 		li	a2,10
 411 0194 3B77C502 		remuw	a4,a0,a2
 412              	.LVL24:
  77:src/Riscv.cpp ****     }while((x/=10) != 0);
 413              		.loc 1 77 31
 414 0198 93160702 		slli	a3,a4,32
 415 019c 93D60602 		srli	a3,a3,32
 416 01a0 17070000 		lla	a4,.LANCHOR0
 416      13070700 
 417 01a8 3307D700 		add	a4,a4,a3
 418 01ac 03470700 		lbu	a4,0(a4)
  77:src/Riscv.cpp ****     }while((x/=10) != 0);
 419              		.loc 1 77 18
 420 01b0 930604FE 		addi	a3,s0,-32
 421 01b4 B3879600 		add	a5,a3,s1
 422 01b8 9B841400 		addiw	s1,s1,1
 423              	.LVL25:
 424 01bc 2388E7FE 		sb	a4,-16(a5)
  78:src/Riscv.cpp ****     if(neg)
 425              		.loc 1 78 20 is_stmt 1
 426 01c0 1B070500 		sext.w	a4,a0
  78:src/Riscv.cpp ****     if(neg)
 427              		.loc 1 78 14 is_stmt 0
 428 01c4 3B55C502 		divuw	a0,a0,a2
 429              	.LVL26:
  78:src/Riscv.cpp ****     if(neg)
 430              		.loc 1 78 20
 431 01c8 93079000 		li	a5,9
 432 01cc E3E2E7FC 		bgtu	a4,a5,.L18
 433              	.LVL27:
 434              	.L20:
  82:src/Riscv.cpp ****         __putc(buf[i]);
 435              		.loc 1 82 5 is_stmt 1
  82:src/Riscv.cpp ****         __putc(buf[i]);
 436              		.loc 1 82 15
 437 01d0 9B84F4FF 		addiw	s1,s1,-1
 438              	.LVL28:
 439 01d4 63CE0400 		bltz	s1,.L19
  83:src/Riscv.cpp **** 
 440              		.loc 1 83 9
  83:src/Riscv.cpp **** 
 441              		.loc 1 83 15 is_stmt 0
 442 01d8 930704FE 		addi	a5,s0,-32
 443 01dc B3879700 		add	a5,a5,s1
 444 01e0 03C507FF 		lbu	a0,-16(a5)
 445 01e4 97000000 		call	__putc@plt
 445      E7800000 
 446              	.LVL29:
 447 01ec 6FF05FFE 		j	.L20
 448              	.L19:
  85:src/Riscv.cpp **** 
GAS LISTING /tmp/ccJnPpYh.s 			page 18


 449              		.loc 1 85 5 is_stmt 1
  85:src/Riscv.cpp **** 
 450              		.loc 1 85 11 is_stmt 0
 451 01f0 1305A000 		li	a0,10
 452 01f4 97000000 		call	__putc@plt
 452      E7800000 
 453              	.LVL30:
  87:src/Riscv.cpp **** }
 454              		.loc 1 87 5 is_stmt 1
  87:src/Riscv.cpp **** }
 455              		.loc 1 87 38 is_stmt 0
 456 01fc 1B090900 		sext.w	s2,s2
 457              	.LVL31:
  87:src/Riscv.cpp **** }
 458              		.loc 1 87 15
 459 0200 13792900 		andi	s2,s2,2
 460 0204 1B090900 		sext.w	s2,s2
 461              	.LVL32:
 462              	.LBB102:
 463              	.LBB103:
 150:src/../h/Riscv.hpp **** }
 464              		.loc 2 150 5 is_stmt 1
 150:src/../h/Riscv.hpp **** }
 465              		.loc 2 150 54 is_stmt 0
 466              	#APP
 467              	# 150 "src/../h/Riscv.hpp" 1
 468              		csrs sstatus, s2
 469              	# 0 "" 2
 470              	.LVL33:
 471              	#NO_APP
 472              	.LBE103:
 473              	.LBE102:
  88:src/Riscv.cpp **** 
 474              		.loc 1 88 1
 475 020c 83308103 		ld	ra,56(sp)
 476              		.cfi_restore 1
 477 0210 03340103 		ld	s0,48(sp)
 478              		.cfi_restore 8
 479              		.cfi_def_cfa 2, 64
 480 0214 83348102 		ld	s1,40(sp)
 481              		.cfi_restore 9
 482 0218 03390102 		ld	s2,32(sp)
 483              		.cfi_restore 18
 484 021c 13010104 		addi	sp,sp,64
 485              		.cfi_def_cfa_offset 0
 486 0220 67800000 		jr	ra
 487              		.cfi_endproc
 488              	.LFE31:
 490              		.section	.rodata.str1.8,"aMS",@progbits,1
 491              		.align	3
 492              	.LC0:
 493 0000 45786974 		.string	"Exiting thread...\n"
 493      696E6720 
 493      74687265 
 493      61642E2E 
 493      2E0A00
 494              		.text
GAS LISTING /tmp/ccJnPpYh.s 			page 19


 495              		.align	2
 496              		.globl	_ZN5Riscv20handleSupervisorTrapEv
 498              	_ZN5Riscv20handleSupervisorTrapEv:
 499              	.LFB32:
  91:src/Riscv.cpp ****     uint64 a4;
 500              		.loc 1 91 1 is_stmt 1
 501              		.cfi_startproc
 502              		.cfi_personality 0x9b,DW.ref.__gxx_personality_v0
 503              		.cfi_lsda 0x1b,.LLSDA32
 504 0224 130101F8 		addi	sp,sp,-128
 505              		.cfi_def_cfa_offset 128
 506 0228 233C1106 		sd	ra,120(sp)
 507 022c 23388106 		sd	s0,112(sp)
 508 0230 23349106 		sd	s1,104(sp)
 509 0234 23302107 		sd	s2,96(sp)
 510 0238 233C3105 		sd	s3,88(sp)
 511 023c 23384105 		sd	s4,80(sp)
 512 0240 23345105 		sd	s5,72(sp)
 513 0244 23306105 		sd	s6,64(sp)
 514              		.cfi_offset 1, -8
 515              		.cfi_offset 8, -16
 516              		.cfi_offset 9, -24
 517              		.cfi_offset 18, -32
 518              		.cfi_offset 19, -40
 519              		.cfi_offset 20, -48
 520              		.cfi_offset 21, -56
 521              		.cfi_offset 22, -64
 522 0248 13040108 		addi	s0,sp,128
 523              		.cfi_def_cfa 8, 0
  92:src/Riscv.cpp ****     __asm__ volatile("mv %0, a4" : "=r"(a4));
 524              		.loc 1 92 5
  93:src/Riscv.cpp **** 
 525              		.loc 1 93 5
  93:src/Riscv.cpp **** 
 526              		.loc 1 93 45 is_stmt 0
 527              	#APP
 528              	# 93 "src/Riscv.cpp" 1
 529              		mv s1, a4
 530              	# 0 "" 2
 531              	.LVL34:
  95:src/Riscv.cpp **** 
 532              		.loc 1 95 5 is_stmt 1
 533              	#NO_APP
 534              	.LBB104:
 535              	.LBB105:
  92:src/../h/Riscv.hpp ****     __asm__ volatile("csrr %0, scause" : "=r"(scause));
 536              		.loc 2 92 5
  93:src/../h/Riscv.hpp ****     return scause;
 537              		.loc 2 93 5
  93:src/../h/Riscv.hpp ****     return scause;
 538              		.loc 2 93 55 is_stmt 0
 539              	#APP
 540              	# 93 "src/../h/Riscv.hpp" 1
 541              		csrr a5, scause
 542              	# 0 "" 2
 543              	#NO_APP
 544 0254 2330F4F8 		sd	a5,-128(s0)
GAS LISTING /tmp/ccJnPpYh.s 			page 20


  94:src/../h/Riscv.hpp **** }
 545              		.loc 2 94 5 is_stmt 1
  94:src/../h/Riscv.hpp **** }
 546              		.loc 2 94 12 is_stmt 0
 547 0258 833704F8 		ld	a5,-128(s0)
 548              	.LVL35:
 549              	.LBE105:
 550              	.LBE104:
  97:src/Riscv.cpp ****     {
 551              		.loc 1 97 5 is_stmt 1
 552              	.LBB106:
 553 025c 1307F0FF 		li	a4,-1
 554 0260 1317F703 		slli	a4,a4,63
 555 0264 13071700 		addi	a4,a4,1
 556 0268 6386E70E 		beq	a5,a4,.L23
 557 026c 1307F0FF 		li	a4,-1
 558 0270 1317F703 		slli	a4,a4,63
 559 0274 13071700 		addi	a4,a4,1
 560 0278 636EF708 		bgtu	a5,a4,.L24
 561 027c 938787FF 		addi	a5,a5,-8
 562              	.LVL36:
 563 0280 13071000 		li	a4,1
 564 0284 6364F70A 		bgtu	a5,a4,.L22
 565              	.LBB107:
 139:src/Riscv.cpp ****         case ecallUserInterrupt:
 566              		.loc 1 139 9
 140:src/Riscv.cpp **** 
 567              		.loc 1 140 9
 142:src/Riscv.cpp ****             __asm__ volatile("mv %0, a0" :  "=r"(operation));
 568              		.loc 1 142 13
 143:src/Riscv.cpp **** 
 569              		.loc 1 143 13
 143:src/Riscv.cpp **** 
 570              		.loc 1 143 61 is_stmt 0
 571              	#APP
 572              	# 143 "src/Riscv.cpp" 1
 573              		mv a5, a0
 574              	# 0 "" 2
 575              	.LVL37:
 145:src/Riscv.cpp ****             sepc+=4;
 576              		.loc 1 145 13 is_stmt 1
 577              	#NO_APP
 578              	.LBB108:
 579              	.LBB109:
 102:src/../h/Riscv.hpp ****     __asm__ volatile("csrr %0, sepc" : "=r"(sepc));
 580              		.loc 2 102 5
 103:src/../h/Riscv.hpp ****     return sepc;
 581              		.loc 2 103 5
 103:src/../h/Riscv.hpp ****     return sepc;
 582              		.loc 2 103 51 is_stmt 0
 583              	#APP
 584              	# 103 "src/../h/Riscv.hpp" 1
 585              		csrr a4, sepc
 586              	# 0 "" 2
 587              	#NO_APP
 588 0290 233CE4F8 		sd	a4,-104(s0)
 104:src/../h/Riscv.hpp **** }
GAS LISTING /tmp/ccJnPpYh.s 			page 21


 589              		.loc 2 104 5 is_stmt 1
 104:src/../h/Riscv.hpp **** }
 590              		.loc 2 104 12 is_stmt 0
 591 0294 033984F9 		ld	s2,-104(s0)
 592              	.LVL38:
 593              	.LBE109:
 594              	.LBE108:
 146:src/Riscv.cpp **** 
 595              		.loc 1 146 13 is_stmt 1
 146:src/Riscv.cpp **** 
 596              		.loc 1 146 17 is_stmt 0
 597 0298 13094900 		addi	s2,s2,4
 598              	.LVL39:
 148:src/Riscv.cpp ****             {
 599              		.loc 1 148 13 is_stmt 1
 600              	.LBB110:
 601 029c 13071000 		li	a4,1
 602 02a0 6382E714 		beq	a5,a4,.L47
 603              	.LBE110:
 604              	.LBE107:
 605              	.LBE106:
 156:src/Riscv.cpp ****             {
 606              		.loc 1 156 18
 607              	.LBB245:
 608              	.LBB233:
 609              	.LBB205:
 610              	.LBB111:
 611 02a4 13072000 		li	a4,2
 612 02a8 638CE714 		beq	a5,a4,.L48
 613              	.LBE111:
 614              	.LBE205:
 615              	.LBE233:
 616              	.LBE245:
 163:src/Riscv.cpp ****             {
 617              		.loc 1 163 18
 618              	.LBB246:
 619              	.LBB234:
 620              	.LBB206:
 621              	.LBB194:
 622              	.LBB112:
 623 02ac 13071001 		li	a4,17
 624 02b0 6382E716 		beq	a5,a4,.L49
 625              	.LBE112:
 626              	.LBE194:
 627              	.LBE206:
 628              	.LBE234:
 629              	.LBE246:
 184:src/Riscv.cpp ****             {
 630              		.loc 1 184 18
 631              	.LBB247:
 632              	.LBB235:
 633              	.LBB207:
 634              	.LBB195:
 635              	.LBB184:
 636              	.LBB113:
 637 02b4 13073001 		li	a4,19
 638 02b8 6384E71A 		beq	a5,a4,.L50
GAS LISTING /tmp/ccJnPpYh.s 			page 22


 639              	.LBE113:
 640              	.LBE184:
 641              	.LBE195:
 642              	.LBE207:
 643              	.LBE235:
 644              	.LBE247:
 191:src/Riscv.cpp ****             {
 645              		.loc 1 191 18
 646              	.LBB248:
 647              	.LBB236:
 648              	.LBB208:
 649              	.LBB196:
 650              	.LBB185:
 651              	.LBB173:
 652              	.LBB114:
 653 02bc 13072001 		li	a4,18
 654 02c0 6384E71C 		beq	a5,a4,.L51
 655              	.LBE114:
 656              	.LBE173:
 657              	.LBE185:
 658              	.LBE196:
 659              	.LBE208:
 660              	.LBE236:
 661              	.LBE248:
 202:src/Riscv.cpp ****             {
 662              		.loc 1 202 18
 663              	.LBB249:
 664              	.LBB237:
 665              	.LBB209:
 666              	.LBB197:
 667              	.LBB186:
 668              	.LBB174:
 669              	.LBB160:
 670              	.LBB115:
 671 02c4 13071003 		li	a4,49
 672 02c8 6388E720 		beq	a5,a4,.L52
 673              	.LBE115:
 674              	.LBE160:
 675              	.LBE174:
 676              	.LBE186:
 677              	.LBE197:
 678              	.LBE209:
 679              	.LBE237:
 680              	.LBE249:
 214:src/Riscv.cpp ****             {
 681              		.loc 1 214 18
 682              	.LBB250:
 683              	.LBB238:
 684              	.LBB210:
 685              	.LBB198:
 686              	.LBB187:
 687              	.LBB175:
 688              	.LBB161:
 689              	.LBB146:
 690              	.LBB116:
 691 02cc 13071002 		li	a4,33
 692 02d0 6388E724 		beq	a5,a4,.L53
GAS LISTING /tmp/ccJnPpYh.s 			page 23


 693              	.LBE116:
 694              	.LBE146:
 695              	.LBE161:
 696              	.LBE175:
 697              	.LBE187:
 698              	.LBE198:
 699              	.LBE210:
 700              	.LBE238:
 701              	.LBE250:
 231:src/Riscv.cpp ****             {
 702              		.loc 1 231 18
 703              	.LBB251:
 704              	.LBB239:
 705              	.LBB211:
 706              	.LBB199:
 707              	.LBB188:
 708              	.LBB176:
 709              	.LBB162:
 710              	.LBB147:
 711              	.LBB134:
 712              	.LBB117:
 713 02d4 13073002 		li	a4,35
 714 02d8 6382E728 		beq	a5,a4,.L54
 715              	.LBE117:
 716              	.LBE134:
 717              	.LBE147:
 718              	.LBE162:
 719              	.LBE176:
 720              	.LBE188:
 721              	.LBE199:
 722              	.LBE211:
 723              	.LBE239:
 724              	.LBE251:
 240:src/Riscv.cpp ****             {
 725              		.loc 1 240 18
 726              	.LBB252:
 727              	.LBB240:
 728              	.LBB212:
 729              	.LBB200:
 730              	.LBB189:
 731              	.LBB177:
 732              	.LBB163:
 733              	.LBB148:
 734              	.LBB135:
 735              	.LBB129:
 736              	.LBB118:
 737 02dc 13074002 		li	a4,36
 738 02e0 6380E72A 		beq	a5,a4,.L55
 739              	.LBE118:
 740              	.LBE129:
 741              	.LBE135:
 742              	.LBE148:
 743              	.LBE163:
 744              	.LBE177:
 745              	.LBE189:
 746              	.LBE200:
 747              	.LBE212:
GAS LISTING /tmp/ccJnPpYh.s 			page 24


 748              	.LBE240:
 749              	.LBE252:
 247:src/Riscv.cpp ****             {
 750              		.loc 1 247 18
 751              	.LBB253:
 752              	.LBB241:
 753              	.LBB213:
 754              	.LBB201:
 755              	.LBB190:
 756              	.LBB178:
 757              	.LBB164:
 758              	.LBB149:
 759              	.LBB136:
 760              	.LBB130:
 761              	.LBB122:
 762              	.LBB119:
 763 02e4 13072002 		li	a4,34
 764 02e8 6398E710 		bne	a5,a4,.L29
 765              	.LBB120:
 249:src/Riscv.cpp ****                 __asm__ volatile("mv %0, a1" : "=r"(kSem));
 766              		.loc 1 249 17
 250:src/Riscv.cpp ****                 delete kSem;
 767              		.loc 1 250 17
 250:src/Riscv.cpp ****                 delete kSem;
 768              		.loc 1 250 59 is_stmt 0
 769              	#APP
 770              	# 250 "src/Riscv.cpp" 1
 771              		mv s1, a1
 772              	# 0 "" 2
 773              	.LVL40:
 251:src/Riscv.cpp ****                 __asm__ volatile("li a0, 0");
 774              		.loc 1 251 17 is_stmt 1
 251:src/Riscv.cpp ****                 __asm__ volatile("li a0, 0");
 775              		.loc 1 251 28 is_stmt 0
 776              	#NO_APP
 777 02f0 638E0400 		beqz	s1,.L40
 251:src/Riscv.cpp ****                 __asm__ volatile("li a0, 0");
 778              		.loc 1 251 24 discriminator 1
 779 02f4 13850400 		mv	a0,s1
 780 02f8 97000000 		call	_ZN10KSemaphoreD1Ev@plt
 780      E7800000 
 781              	.LVL41:
 782 0300 13850400 		mv	a0,s1
 783              	.LEHB0:
 784 0304 97000000 		call	_ZN10KSemaphoredlEPv@plt
 784      E7800000 
 785              	.LVL42:
 786              	.L40:
 252:src/Riscv.cpp ****             }
 787              		.loc 1 252 17 is_stmt 1
 252:src/Riscv.cpp ****             }
 788              		.loc 1 252 45 is_stmt 0
 789              	#APP
 790              	# 252 "src/Riscv.cpp" 1
 791              		li a0, 0
 792              	# 0 "" 2
 793              	#NO_APP
GAS LISTING /tmp/ccJnPpYh.s 			page 25


 794              	.LBE120:
 795 0310 6F00800E 		j	.L29
 796              	.LVL43:
 797              	.L24:
 798              	.LBE119:
 799              	.LBE122:
 800              	.LBE130:
 801              	.LBE136:
 802              	.LBE149:
 803              	.LBE164:
 804              	.LBE178:
 805              	.LBE190:
 806              	.LBE201:
 807              	.LBE213:
 808              	.LBE241:
  97:src/Riscv.cpp ****     {
 809              		.loc 1 97 5
 810 0314 1307F0FF 		li	a4,-1
 811 0318 1317F703 		slli	a4,a4,63
 812 031c 13079700 		addi	a4,a4,9
 813 0320 6396E700 		bne	a5,a4,.L22
 814              	.LBB242:
 124:src/Riscv.cpp **** 
 815              		.loc 1 124 9 is_stmt 1
 127:src/Riscv.cpp ****             break;
 816              		.loc 1 127 13
 127:src/Riscv.cpp ****             break;
 817              		.loc 1 127 28 is_stmt 0
 818 0324 97000000 		call	console_handler@plt
 818      E7800000 
 819              	.LVL44:
 128:src/Riscv.cpp **** 
 820              		.loc 1 128 13 is_stmt 1
 821              	.L22:
 822              	.LBE242:
 823              	.LBE253:
 267:src/Riscv.cpp **** 
 824              		.loc 1 267 1 is_stmt 0
 825 032c 83308107 		ld	ra,120(sp)
 826              		.cfi_remember_state
 827              		.cfi_restore 1
 828 0330 03340107 		ld	s0,112(sp)
 829              		.cfi_restore 8
 830              		.cfi_def_cfa 2, 128
 831 0334 83348106 		ld	s1,104(sp)
 832              		.cfi_restore 9
 833 0338 03390106 		ld	s2,96(sp)
 834              		.cfi_restore 18
 835 033c 83398105 		ld	s3,88(sp)
 836              		.cfi_restore 19
 837 0340 033A0105 		ld	s4,80(sp)
 838              		.cfi_restore 20
 839 0344 833A8104 		ld	s5,72(sp)
 840              		.cfi_restore 21
 841 0348 033B0104 		ld	s6,64(sp)
 842              		.cfi_restore 22
 843 034c 13010108 		addi	sp,sp,128
GAS LISTING /tmp/ccJnPpYh.s 			page 26


 844              		.cfi_def_cfa_offset 0
 845 0350 67800000 		jr	ra
 846              	.LVL45:
 847              	.L23:
 848              		.cfi_restore_state
 849              	.LBB254:
 850              	.LBB243:
 100:src/Riscv.cpp **** 
 851              		.loc 1 100 9 is_stmt 1
 102:src/Riscv.cpp ****             //Riscv::printString("timerInterrupt\n");
 852              		.loc 1 102 13
 853              	.LBB214:
 854              	.LBB215:
 136:src/../h/Riscv.hpp **** }
 855              		.loc 2 136 5
 136:src/../h/Riscv.hpp **** }
 856              		.loc 2 136 50 is_stmt 0
 857 0354 93072000 		li	a5,2
 858              	.LVL46:
 859              	#APP
 860              	# 136 "src/../h/Riscv.hpp" 1
 861              		csrc sip, a5
 862              	# 0 "" 2
 863              	.LVL47:
 864              	#NO_APP
 865              	.LBE215:
 866              	.LBE214:
 104:src/Riscv.cpp ****             total++;
 867              		.loc 1 104 13 is_stmt 1
 105:src/Riscv.cpp ****             Riscv::printInteger(total);
 868              		.loc 1 105 13
 105:src/Riscv.cpp ****             Riscv::printInteger(total);
 869              		.loc 1 105 18 is_stmt 0
 870 035c 97070000 		lla	a5,.LANCHOR1
 870      93870700 
 871 0364 03B50700 		ld	a0,0(a5)
 872 0368 13051500 		addi	a0,a0,1
 873 036c 23B0A700 		sd	a0,0(a5)
 106:src/Riscv.cpp **** 
 874              		.loc 1 106 13 is_stmt 1
 106:src/Riscv.cpp **** 
 875              		.loc 1 106 32 is_stmt 0
 876 0370 97000000 		call	_ZN5Riscv12printIntegerEm
 876      E7800000 
 877              	.LVL48:
 108:src/Riscv.cpp **** 
 878              		.loc 1 108 13 is_stmt 1
 108:src/Riscv.cpp **** 
 879              		.loc 1 108 34 is_stmt 0
 880 0378 97040000 		la	s1,_ZN3PCB16timeSliceCounterE
 880      83B40400 
 881              	.LVL49:
 882 0380 83B70400 		ld	a5,0(s1)
 883 0384 93871700 		addi	a5,a5,1
 884 0388 23B0F400 		sd	a5,0(s1)
 110:src/Riscv.cpp **** 
 885              		.loc 1 110 13 is_stmt 1
GAS LISTING /tmp/ccJnPpYh.s 			page 27


 110:src/Riscv.cpp **** 
 886              		.loc 1 110 40 is_stmt 0
 887 038c 97000000 		call	_ZN12SleepPCBList13tryToWakePCBsEv@plt
 887      E7800000 
 888              	.LVL50:
 112:src/Riscv.cpp ****             {
 889              		.loc 1 112 13 is_stmt 1
 890              	.LBB216:
 112:src/Riscv.cpp ****             {
 891              		.loc 1 112 68 is_stmt 0
 892 0394 97070000 		la	a5,_ZN3PCB7runningE
 892      83B70700 
 893 039c 83B70700 		ld	a5,0(a5)
 894              	.LVL51:
 895              	.LBB217:
 896              	.LBB218:
 897              		.file 3 "src/../h/PCB.hpp"
   1:src/../h/PCB.hpp **** //
   2:src/../h/PCB.hpp **** // Created by os on 4/27/22.
   3:src/../h/PCB.hpp **** //
   4:src/../h/PCB.hpp **** 
   5:src/../h/PCB.hpp **** #ifndef PROJECT_BASE_V1_0_PCB_HPP
   6:src/../h/PCB.hpp **** #define PROJECT_BASE_V1_0_PCB_HPP
   7:src/../h/PCB.hpp **** 
   8:src/../h/PCB.hpp **** #include "../lib/hw.h"
   9:src/../h/PCB.hpp **** #include "Scheduler.hpp"
  10:src/../h/PCB.hpp **** #include "Riscv.hpp"
  11:src/../h/PCB.hpp **** 
  12:src/../h/PCB.hpp **** class PCB
  13:src/../h/PCB.hpp **** {
  14:src/../h/PCB.hpp **** public:
  15:src/../h/PCB.hpp ****     using Body = void (*)(void*);
  16:src/../h/PCB.hpp **** 
  17:src/../h/PCB.hpp ****     PCB(Body body,  void* args, void* stack_space, uint64 timeSlice);
  18:src/../h/PCB.hpp ****     ~PCB();
  19:src/../h/PCB.hpp **** 
  20:src/../h/PCB.hpp ****     void start();
  21:src/../h/PCB.hpp ****     static void dispatch();
  22:src/../h/PCB.hpp ****     static void sleep(time_t);
  23:src/../h/PCB.hpp **** 
  24:src/../h/PCB.hpp ****     static PCB* running;
  25:src/../h/PCB.hpp **** 
  26:src/../h/PCB.hpp ****     static uint64 timeSliceCounter;
  27:src/../h/PCB.hpp ****     uint64 getTimeSlice() { return timeSlice;}
 898              		.loc 3 27 29 is_stmt 1
 899              		.loc 3 27 36 is_stmt 0
 900 03a0 83B70701 		ld	a5,16(a5)
 901              	.LVL52:
 902              	.LBE218:
 903              	.LBE217:
 112:src/Riscv.cpp ****             {
 904              		.loc 1 112 39
 905 03a4 03B70400 		ld	a4,0(s1)
 112:src/Riscv.cpp ****             {
 906              		.loc 1 112 13
 907 03a8 E362F7F8 		bltu	a4,a5,.L22
 908              	.LBB219:
GAS LISTING /tmp/ccJnPpYh.s 			page 28


 114:src/Riscv.cpp ****                 uint64 sstatus = Riscv::r_sstatus();
 909              		.loc 1 114 17 is_stmt 1
 910              	.LBB220:
 911              	.LBB221:
 102:src/../h/Riscv.hpp ****     __asm__ volatile("csrr %0, sepc" : "=r"(sepc));
 912              		.loc 2 102 5
 103:src/../h/Riscv.hpp ****     return sepc;
 913              		.loc 2 103 5
 103:src/../h/Riscv.hpp ****     return sepc;
 914              		.loc 2 103 51 is_stmt 0
 915              	#APP
 916              	# 103 "src/../h/Riscv.hpp" 1
 917              		csrr a5, sepc
 918              	# 0 "" 2
 919              	#NO_APP
 920 03b0 2338F4F8 		sd	a5,-112(s0)
 104:src/../h/Riscv.hpp **** }
 921              		.loc 2 104 5 is_stmt 1
 104:src/../h/Riscv.hpp **** }
 922              		.loc 2 104 12 is_stmt 0
 923 03b4 833404F9 		ld	s1,-112(s0)
 924              	.LVL53:
 925              	.LBE221:
 926              	.LBE220:
 115:src/Riscv.cpp ****                 PCB::timeSliceCounter = 0;
 927              		.loc 1 115 17 is_stmt 1
 928              	.LBB222:
 929              	.LBB223:
 158:src/../h/Riscv.hpp ****     __asm__ volatile("csrr %0, sstatus" : "=r"(sstatus));
 930              		.loc 2 158 5
 159:src/../h/Riscv.hpp ****     return sstatus;
 931              		.loc 2 159 5
 159:src/../h/Riscv.hpp ****     return sstatus;
 932              		.loc 2 159 57 is_stmt 0
 933              	#APP
 934              	# 159 "src/../h/Riscv.hpp" 1
 935              		csrr a5, sstatus
 936              	# 0 "" 2
 937              	#NO_APP
 938 03bc 2334F4F8 		sd	a5,-120(s0)
 939              		.loc 2 160 5 is_stmt 1
 940              		.loc 2 160 12 is_stmt 0
 941 03c0 033984F8 		ld	s2,-120(s0)
 942              	.LVL54:
 943              	.LBE223:
 944              	.LBE222:
 116:src/Riscv.cpp ****                 PCB::dispatch();
 945              		.loc 1 116 17 is_stmt 1
 116:src/Riscv.cpp ****                 PCB::dispatch();
 946              		.loc 1 116 39 is_stmt 0
 947 03c4 97070000 		la	a5,_ZN3PCB16timeSliceCounterE
 947      83B70700 
 948 03cc 23B00700 		sd	zero,0(a5)
 117:src/Riscv.cpp ****                 Riscv::w_sstatus(sstatus);
 949              		.loc 1 117 17 is_stmt 1
 117:src/Riscv.cpp ****                 Riscv::w_sstatus(sstatus);
 950              		.loc 1 117 30 is_stmt 0
GAS LISTING /tmp/ccJnPpYh.s 			page 29


 951 03d0 97000000 		call	_ZN3PCB8dispatchEv@plt
 951      E7800000 
 952              	.LVL55:
 118:src/Riscv.cpp ****                 Riscv::w_sepc(sepc);
 953              		.loc 1 118 17 is_stmt 1
 954              	.LBB224:
 955              	.LBB225:
 161:src/../h/Riscv.hpp **** }
 162:src/../h/Riscv.hpp **** 
 163:src/../h/Riscv.hpp **** inline void Riscv::w_sstatus(uint64 sstatus) {
 164:src/../h/Riscv.hpp ****     __asm__ volatile("csrw sstatus, %0" : :"r"(sstatus));
 956              		.loc 2 164 5
 957              		.loc 2 164 57 is_stmt 0
 958              	#APP
 959              	# 164 "src/../h/Riscv.hpp" 1
 165              	}
 960              		csrw sstatus, s2
 961              	# 0 "" 2
 962              	.LVL56:
 963              	#NO_APP
 964              	.LBE225:
 965              	.LBE224:
 119:src/Riscv.cpp ****             }
 966              		.loc 1 119 17 is_stmt 1
 967              	.LBB226:
 968              	.LBB227:
 108:src/../h/Riscv.hpp **** }
 969              		.loc 2 108 5
 108:src/../h/Riscv.hpp **** }
 970              		.loc 2 108 51 is_stmt 0
 971              	#APP
 972              	# 108 "src/../h/Riscv.hpp" 1
 109:src/../h/Riscv.hpp **** 
 973              		csrw sepc, s1
 974              	# 0 "" 2
 975              		.loc 2 109 1
 976              	#NO_APP
 977 03e0 6FF0DFF4 		j	.L22
 978              	.LVL57:
 979              	.L47:
 980              	.LBE227:
 981              	.LBE226:
 982              	.LBE219:
 983              	.LBE216:
 984              	.LBB228:
 985              	.LBB202:
 150:src/Riscv.cpp ****                 __asm__ volatile("mv %0, a1" : "=r"(size));
 986              		.loc 1 150 17 is_stmt 1
 151:src/Riscv.cpp ****                 size*=MEM_BLOCK_SIZE;
 987              		.loc 1 151 17
 151:src/Riscv.cpp ****                 size*=MEM_BLOCK_SIZE;
 988              		.loc 1 151 59 is_stmt 0
 989              	#APP
 990              	# 151 "src/Riscv.cpp" 1
 991              		mv a0, a1
 992              	# 0 "" 2
 993              	.LVL58:
GAS LISTING /tmp/ccJnPpYh.s 			page 30


 152:src/Riscv.cpp ****                 void* allocatedAddr = kmalloc(size);
 994              		.loc 1 152 17 is_stmt 1
 153:src/Riscv.cpp ****                 __asm__ volatile("mv a0,%0" : : "r"((uint64)allocatedAddr));
 995              		.loc 1 153 17
 153:src/Riscv.cpp ****                 __asm__ volatile("mv a0,%0" : : "r"((uint64)allocatedAddr));
 996              		.loc 1 153 46 is_stmt 0
 997              	#NO_APP
 998 03e8 13156500 		slli	a0,a0,6
 999              	.LVL59:
 1000 03ec 97000000 		call	_Z7kmallocm@plt
 1000      E7800000 
 1001              	.LVL60:
 154:src/Riscv.cpp ****             }
 1002              		.loc 1 154 17 is_stmt 1
 154:src/Riscv.cpp ****             }
 1003              		.loc 1 154 76 is_stmt 0
 1004              	#APP
 1005              	# 154 "src/Riscv.cpp" 1
 1006              		mv a0,a0
 1007              	# 0 "" 2
 1008              	.LVL61:
 1009              	#NO_APP
 1010              	.L29:
 1011              	.LBE202:
 1012              	.LBE228:
 263:src/Riscv.cpp **** 
 1013              		.loc 1 263 13 is_stmt 1
 1014              	.LBB229:
 1015              	.LBB230:
 108:src/../h/Riscv.hpp **** }
 1016              		.loc 2 108 5
 108:src/../h/Riscv.hpp **** }
 1017              		.loc 2 108 51 is_stmt 0
 1018              	#APP
 1019              	# 108 "src/../h/Riscv.hpp" 1
 1020              		csrw sepc, s2
 1021              	# 0 "" 2
 1022              	.LVL62:
 109:src/../h/Riscv.hpp **** 
 1023              		.loc 2 109 1
 1024              	#NO_APP
 1025 03fc 6FF01FF3 		j	.L22
 1026              	.LVL63:
 1027              	.L48:
 1028              	.LBE230:
 1029              	.LBE229:
 1030              	.LBB231:
 1031              	.LBB203:
 1032              	.LBB191:
 158:src/Riscv.cpp ****                 __asm__ volatile("mv %0, a1" : "=r"(addr));
 1033              		.loc 1 158 17 is_stmt 1
 159:src/Riscv.cpp ****                 uint64 retval = kfree((void*)addr);
 1034              		.loc 1 159 17
 159:src/Riscv.cpp ****                 uint64 retval = kfree((void*)addr);
 1035              		.loc 1 159 59 is_stmt 0
 1036              	#APP
 1037              	# 159 "src/Riscv.cpp" 1
GAS LISTING /tmp/ccJnPpYh.s 			page 31


 1038              		mv a0, a1
 1039              	# 0 "" 2
 1040              	.LVL64:
 160:src/Riscv.cpp ****                 __asm__ volatile("mv a0,%0" : :"r"(retval));
 1041              		.loc 1 160 17 is_stmt 1
 160:src/Riscv.cpp ****                 __asm__ volatile("mv a0,%0" : :"r"(retval));
 1042              		.loc 1 160 38 is_stmt 0
 1043              	#NO_APP
 1044 0404 97000000 		call	_Z5kfreePv@plt
 1044      E7800000 
 1045              	.LVL65:
 161:src/Riscv.cpp ****             }
 1046              		.loc 1 161 17 is_stmt 1
 161:src/Riscv.cpp ****             }
 1047              		.loc 1 161 60 is_stmt 0
 1048              	#APP
 1049              	# 161 "src/Riscv.cpp" 1
 1050              		mv a0,a0
 1051              	# 0 "" 2
 1052              	#NO_APP
 1053              	.LBE191:
 1054 0410 6FF09FFE 		j	.L29
 1055              	.LVL66:
 1056              	.L49:
 1057              	.LBB192:
 1058              	.LBB179:
 165:src/Riscv.cpp ****                 uint64 args;
 1059              		.loc 1 165 17 is_stmt 1
 166:src/Riscv.cpp ****                 PCB** threadHandle;
 1060              		.loc 1 166 17
 167:src/Riscv.cpp ****                 __asm__ volatile("mv %0, a1" : "=r"(threadHandle));
 1061              		.loc 1 167 17
 168:src/Riscv.cpp ****                 __asm__ volatile("mv %0, a2" : "=r"(start_routine));
 1062              		.loc 1 168 17
 168:src/Riscv.cpp ****                 __asm__ volatile("mv %0, a2" : "=r"(start_routine));
 1063              		.loc 1 168 67 is_stmt 0
 1064              	#APP
 1065              	# 168 "src/Riscv.cpp" 1
 1066              		mv s4, a1
 1067              	# 0 "" 2
 1068              	.LVL67:
 169:src/Riscv.cpp ****                 __asm__ volatile("mv %0, a3" : "=r"(args));
 1069              		.loc 1 169 17 is_stmt 1
 169:src/Riscv.cpp ****                 __asm__ volatile("mv %0, a3" : "=r"(args));
 1070              		.loc 1 169 68 is_stmt 0
 1071              	# 169 "src/Riscv.cpp" 1
 1072              		mv s5, a2
 1073              	# 0 "" 2
 1074              	.LVL68:
 170:src/Riscv.cpp ****                 //todo
 1075              		.loc 1 170 17 is_stmt 1
 170:src/Riscv.cpp ****                 //todo
 1076              		.loc 1 170 59 is_stmt 0
 1077              	# 170 "src/Riscv.cpp" 1
 1078              		mv s6, a3
 1079              	# 0 "" 2
 1080              	.LVL69:
GAS LISTING /tmp/ccJnPpYh.s 			page 32


 175:src/Riscv.cpp **** 
 1081              		.loc 1 175 17 is_stmt 1
 175:src/Riscv.cpp **** 
 1082              		.loc 1 175 113 is_stmt 0
 1083              	#NO_APP
 1084 0420 13050005 		li	a0,80
 1085 0424 97000000 		call	_ZN3PCBnwEm@plt
 1085      E7800000 
 1086              	.LVL70:
 1087              	.LEHE0:
 1088 042c 93090500 		mv	s3,a0
 1089 0430 13072000 		li	a4,2
 1090 0434 93860400 		mv	a3,s1
 1091 0438 13060B00 		mv	a2,s6
 1092 043c 93850A00 		mv	a1,s5
 1093              	.LEHB1:
 1094 0440 97000000 		call	_ZN3PCBC1EPFvPvES0_S0_m@plt
 1094      E7800000 
 1095              	.LVL71:
 1096              	.LEHE1:
 177:src/Riscv.cpp **** 
 1097              		.loc 1 177 17 is_stmt 1 discriminator 2
 177:src/Riscv.cpp **** 
 1098              		.loc 1 177 33 is_stmt 0 discriminator 2
 1099 0448 23303A01 		sd	s3,0(s4)
 179:src/Riscv.cpp ****                     __asm__ volatile("li a0, 0xffffffffffffffff");
 1100              		.loc 1 179 17 is_stmt 1 discriminator 2
 1101 044c 63860900 		beqz	s3,.L56
 182:src/Riscv.cpp ****             }
 1102              		.loc 1 182 21
 182:src/Riscv.cpp ****             }
 1103              		.loc 1 182 49 is_stmt 0
 1104              	#APP
 1105              	# 182 "src/Riscv.cpp" 1
 1106              		li a0, 0
 1107              	# 0 "" 2
 1108              	#NO_APP
 1109 0454 6FF05FFA 		j	.L29
 1110              	.L56:
 180:src/Riscv.cpp ****                 else
 1111              		.loc 1 180 21 is_stmt 1
 180:src/Riscv.cpp ****                 else
 1112              		.loc 1 180 66 is_stmt 0
 1113              	#APP
 1114              	# 180 "src/Riscv.cpp" 1
 1115              		li a0, 0xffffffffffffffff
 1116              	# 0 "" 2
 1117              	#NO_APP
 1118 045c 6FF0DFF9 		j	.L29
 1119              	.LVL72:
 1120              	.L50:
 1121              	.LBE179:
 1122              	.LBB180:
 1123              	.LBB165:
 186:src/Riscv.cpp ****                 PCB::timeSliceCounter = 0;
 1124              		.loc 1 186 17 is_stmt 1
 1125              	.LBB166:
GAS LISTING /tmp/ccJnPpYh.s 			page 33


 1126              	.LBB167:
 158:src/../h/Riscv.hpp ****     __asm__ volatile("csrr %0, sstatus" : "=r"(sstatus));
 1127              		.loc 2 158 5
 159:src/../h/Riscv.hpp ****     return sstatus;
 1128              		.loc 2 159 5
 159:src/../h/Riscv.hpp ****     return sstatus;
 1129              		.loc 2 159 57 is_stmt 0
 1130              	#APP
 1131              	# 159 "src/../h/Riscv.hpp" 1
 1132              		csrr a5, sstatus
 1133              	# 0 "" 2
 1134              	.LVL73:
 1135              	#NO_APP
 1136 0464 2330F4FA 		sd	a5,-96(s0)
 160:src/../h/Riscv.hpp **** }
 1137              		.loc 2 160 5 is_stmt 1
 160:src/../h/Riscv.hpp **** }
 1138              		.loc 2 160 12 is_stmt 0
 1139 0468 833404FA 		ld	s1,-96(s0)
 1140              	.LVL74:
 1141              	.LBE167:
 1142              	.LBE166:
 187:src/Riscv.cpp ****                 PCB::dispatch();
 1143              		.loc 1 187 17 is_stmt 1
 187:src/Riscv.cpp ****                 PCB::dispatch();
 1144              		.loc 1 187 39 is_stmt 0
 1145 046c 97070000 		la	a5,_ZN3PCB16timeSliceCounterE
 1145      83B70700 
 1146 0474 23B00700 		sd	zero,0(a5)
 188:src/Riscv.cpp ****                 Riscv::w_sstatus(sstatus);
 1147              		.loc 1 188 17 is_stmt 1
 1148              	.LEHB2:
 188:src/Riscv.cpp ****                 Riscv::w_sstatus(sstatus);
 1149              		.loc 1 188 30 is_stmt 0
 1150 0478 97000000 		call	_ZN3PCB8dispatchEv@plt
 1150      E7800000 
 1151              	.LVL75:
 189:src/Riscv.cpp ****             }
 1152              		.loc 1 189 17 is_stmt 1
 1153              	.LBB168:
 1154              	.LBB169:
 164:src/../h/Riscv.hpp **** }
 1155              		.loc 2 164 5
 164:src/../h/Riscv.hpp **** }
 1156              		.loc 2 164 57 is_stmt 0
 1157              	#APP
 1158              	# 164 "src/../h/Riscv.hpp" 1
 1159              		csrw sstatus, s1
 1160              	# 0 "" 2
 1161              		.loc 2 165 1
 1162              	#NO_APP
 1163 0484 6FF05FF7 		j	.L29
 1164              	.LVL76:
 1165              	.L51:
 1166              	.LBE169:
 1167              	.LBE168:
 1168              	.LBE165:
GAS LISTING /tmp/ccJnPpYh.s 			page 34


 1169              	.LBB170:
 1170              	.LBB150:
 193:src/Riscv.cpp ****                 uint64 sstatus = Riscv::r_sstatus();
 1171              		.loc 1 193 17 is_stmt 1
 193:src/Riscv.cpp ****                 uint64 sstatus = Riscv::r_sstatus();
 1172              		.loc 1 193 35 is_stmt 0
 1173 0488 17050000 		lla	a0,.LC0
 1173      13050500 
 1174 0490 97000000 		call	_ZN5Riscv11printStringEPKc
 1174      E7800000 
 1175              	.LVL77:
 194:src/Riscv.cpp ****                 PCB::timeSliceCounter = 0;
 1176              		.loc 1 194 17 is_stmt 1
 1177              	.LBB151:
 1178              	.LBB152:
 158:src/../h/Riscv.hpp ****     __asm__ volatile("csrr %0, sstatus" : "=r"(sstatus));
 1179              		.loc 2 158 5
 159:src/../h/Riscv.hpp ****     return sstatus;
 1180              		.loc 2 159 5
 159:src/../h/Riscv.hpp ****     return sstatus;
 1181              		.loc 2 159 57 is_stmt 0
 1182              	#APP
 1183              	# 159 "src/../h/Riscv.hpp" 1
 1184              		csrr a5, sstatus
 1185              	# 0 "" 2
 1186              	#NO_APP
 1187 049c 2334F4FA 		sd	a5,-88(s0)
 160:src/../h/Riscv.hpp **** }
 1188              		.loc 2 160 5 is_stmt 1
 160:src/../h/Riscv.hpp **** }
 1189              		.loc 2 160 12 is_stmt 0
 1190 04a0 833484FA 		ld	s1,-88(s0)
 1191              	.LVL78:
 1192              	.LBE152:
 1193              	.LBE151:
 195:src/Riscv.cpp ****                 PCB::running->setState(PCB::EXITING);
 1194              		.loc 1 195 17 is_stmt 1
 195:src/Riscv.cpp ****                 PCB::running->setState(PCB::EXITING);
 1195              		.loc 1 195 39 is_stmt 0
 1196 04a4 97070000 		la	a5,_ZN3PCB16timeSliceCounterE
 1196      83B70700 
 1197 04ac 23B00700 		sd	zero,0(a5)
 196:src/Riscv.cpp ****                 PCB::running->setState(PCB::FINISHED);
 1198              		.loc 1 196 17 is_stmt 1
 196:src/Riscv.cpp ****                 PCB::running->setState(PCB::FINISHED);
 1199              		.loc 1 196 39 is_stmt 0
 1200 04b0 97070000 		la	a5,_ZN3PCB7runningE
 1200      83B70700 
 1201 04b8 83B70700 		ld	a5,0(a5)
 1202              	.LVL79:
 1203              	.LBE150:
 1204              	.LBE170:
 1205              	.LBE180:
 1206              	.LBE192:
 1207              	.LBE203:
 1208              	.LBE231:
 1209              	.LBE243:
GAS LISTING /tmp/ccJnPpYh.s 			page 35


 1210              	.LBE254:
  28:src/../h/PCB.hpp **** 
  29:src/../h/PCB.hpp ****     void* operator new(size_t size);
  30:src/../h/PCB.hpp ****     void operator delete(void *p);
  31:src/../h/PCB.hpp **** 
  32:src/../h/PCB.hpp ****     enum State{READY, RUNNING, SUSPENDED, FINISHED, EXITING, SLEEPING};
  33:src/../h/PCB.hpp ****     State getState() {return state;}
  34:src/../h/PCB.hpp ****     void setState(State s) {state = s;}
 1211              		.loc 3 34 29 is_stmt 1
 1212              	.LBB255:
 1213              	.LBB244:
 1214              	.LBB232:
 1215              	.LBB204:
 1216              	.LBB193:
 1217              	.LBB181:
 1218              	.LBB171:
 1219              	.LBB157:
 197:src/Riscv.cpp ****                 PCB::dispatch();
 1220              		.loc 1 197 17
 1221              	.LBB153:
 1222              	.LBB154:
 1223              		.loc 3 34 29
 1224              		.loc 3 34 35 is_stmt 0
 1225 04bc 13073000 		li	a4,3
 1226 04c0 23ACE702 		sw	a4,56(a5)
 1227              	.LVL80:
 1228              	.LBE154:
 1229              	.LBE153:
 198:src/Riscv.cpp ****                 Riscv::w_sstatus(sstatus);
 1230              		.loc 1 198 17 is_stmt 1
 198:src/Riscv.cpp ****                 Riscv::w_sstatus(sstatus);
 1231              		.loc 1 198 30 is_stmt 0
 1232 04c4 97000000 		call	_ZN3PCB8dispatchEv@plt
 1232      E7800000 
 1233              	.LVL81:
 199:src/Riscv.cpp ****                 __asm__ volatile("li a0, 0");
 1234              		.loc 1 199 17 is_stmt 1
 1235              	.LBB155:
 1236              	.LBB156:
 164:src/../h/Riscv.hpp **** }
 1237              		.loc 2 164 5
 164:src/../h/Riscv.hpp **** }
 1238              		.loc 2 164 57 is_stmt 0
 1239              	#APP
 1240              	# 164 "src/../h/Riscv.hpp" 1
 1241              		csrw sstatus, s1
 1242              	# 0 "" 2
 1243              	.LVL82:
 1244              	#NO_APP
 1245              	.LBE156:
 1246              	.LBE155:
 200:src/Riscv.cpp ****             }
 1247              		.loc 1 200 17 is_stmt 1
 200:src/Riscv.cpp ****             }
 1248              		.loc 1 200 45 is_stmt 0
 1249              	#APP
 1250              	# 200 "src/Riscv.cpp" 1
GAS LISTING /tmp/ccJnPpYh.s 			page 36


 1251              		li a0, 0
 1252              	# 0 "" 2
 1253              	#NO_APP
 1254              	.LBE157:
 1255 04d4 6FF05FF2 		j	.L29
 1256              	.LVL83:
 1257              	.L52:
 1258              	.LBB158:
 1259              	.LBB137:
 204:src/Riscv.cpp ****                 __asm__ volatile("mv %0, a1" : "=r"(time));
 1260              		.loc 1 204 17 is_stmt 1
 205:src/Riscv.cpp ****                 uint64 sstatus = Riscv::r_sstatus();
 1261              		.loc 1 205 17
 205:src/Riscv.cpp ****                 uint64 sstatus = Riscv::r_sstatus();
 1262              		.loc 1 205 59 is_stmt 0
 1263              	#APP
 1264              	# 205 "src/Riscv.cpp" 1
 1265              		mv a4, a1
 1266              	# 0 "" 2
 1267              	.LVL84:
 206:src/Riscv.cpp ****                 PCB::timeSliceCounter = 0;
 1268              		.loc 1 206 17 is_stmt 1
 1269              	#NO_APP
 1270              	.LBB138:
 1271              	.LBB139:
 158:src/../h/Riscv.hpp ****     __asm__ volatile("csrr %0, sstatus" : "=r"(sstatus));
 1272              		.loc 2 158 5
 159:src/../h/Riscv.hpp ****     return sstatus;
 1273              		.loc 2 159 5
 159:src/../h/Riscv.hpp ****     return sstatus;
 1274              		.loc 2 159 57 is_stmt 0
 1275              	#APP
 1276              	# 159 "src/../h/Riscv.hpp" 1
 1277              		csrr a5, sstatus
 1278              	# 0 "" 2
 1279              	.LVL85:
 1280              	#NO_APP
 1281 04e0 2338F4FA 		sd	a5,-80(s0)
 160:src/../h/Riscv.hpp **** }
 1282              		.loc 2 160 5 is_stmt 1
 160:src/../h/Riscv.hpp **** }
 1283              		.loc 2 160 12 is_stmt 0
 1284 04e4 833404FB 		ld	s1,-80(s0)
 1285              	.LVL86:
 1286              	.LBE139:
 1287              	.LBE138:
 207:src/Riscv.cpp ****                 PCB::running->setTimeToSleep(time);
 1288              		.loc 1 207 17 is_stmt 1
 207:src/Riscv.cpp ****                 PCB::running->setTimeToSleep(time);
 1289              		.loc 1 207 39 is_stmt 0
 1290 04e8 97070000 		la	a5,_ZN3PCB16timeSliceCounterE
 1290      83B70700 
 1291 04f0 23B00700 		sd	zero,0(a5)
 208:src/Riscv.cpp ****                 SleepPCBList::insertSleepingPCB();
 1292              		.loc 1 208 17 is_stmt 1
 208:src/Riscv.cpp ****                 SleepPCBList::insertSleepingPCB();
 1293              		.loc 1 208 45 is_stmt 0
GAS LISTING /tmp/ccJnPpYh.s 			page 37


 1294 04f4 97070000 		la	a5,_ZN3PCB7runningE
 1294      83B70700 
 1295 04fc 83B70700 		ld	a5,0(a5)
 1296              	.LVL87:
 1297              	.LBB140:
 1298              	.LBB141:
  35:src/../h/PCB.hpp ****     void setTimeToSleep(uint64 time) {timeToSleep = time;}
 1299              		.loc 3 35 39 is_stmt 1
 1300              		.loc 3 35 51 is_stmt 0
 1301 0500 23BCE700 		sd	a4,24(a5)
 1302              	.LVL88:
 1303              	.LBE141:
 1304              	.LBE140:
 209:src/Riscv.cpp ****                 PCB::dispatch();
 1305              		.loc 1 209 17 is_stmt 1
 209:src/Riscv.cpp ****                 PCB::dispatch();
 1306              		.loc 1 209 48 is_stmt 0
 1307 0504 97000000 		call	_ZN12SleepPCBList17insertSleepingPCBEv@plt
 1307      E7800000 
 1308              	.LVL89:
 210:src/Riscv.cpp ****                 Riscv::w_sstatus(sstatus);
 1309              		.loc 1 210 17 is_stmt 1
 210:src/Riscv.cpp ****                 Riscv::w_sstatus(sstatus);
 1310              		.loc 1 210 30 is_stmt 0
 1311 050c 97000000 		call	_ZN3PCB8dispatchEv@plt
 1311      E7800000 
 1312              	.LVL90:
 211:src/Riscv.cpp ****                 __asm__ volatile("li a0, 0x0");
 1313              		.loc 1 211 17 is_stmt 1
 1314              	.LBB142:
 1315              	.LBB143:
 164:src/../h/Riscv.hpp **** }
 1316              		.loc 2 164 5
 164:src/../h/Riscv.hpp **** }
 1317              		.loc 2 164 57 is_stmt 0
 1318              	#APP
 1319              	# 164 "src/../h/Riscv.hpp" 1
 1320              		csrw sstatus, s1
 1321              	# 0 "" 2
 1322              	.LVL91:
 1323              	#NO_APP
 1324              	.LBE143:
 1325              	.LBE142:
 212:src/Riscv.cpp ****             }
 1326              		.loc 1 212 17 is_stmt 1
 212:src/Riscv.cpp ****             }
 1327              		.loc 1 212 47 is_stmt 0
 1328              	#APP
 1329              	# 212 "src/Riscv.cpp" 1
 1330              		li a0, 0x0
 1331              	# 0 "" 2
 1332              	#NO_APP
 1333              	.LBE137:
 1334 051c 6FF0DFED 		j	.L29
 1335              	.LVL92:
 1336              	.L53:
 1337              	.LBB144:
GAS LISTING /tmp/ccJnPpYh.s 			page 38


 1338              	.LBB131:
 216:src/Riscv.cpp ****                 KSemaphore** semaphoreHandle;
 1339              		.loc 1 216 17 is_stmt 1
 217:src/Riscv.cpp ****                 __asm__ volatile("mv %0, a1" : "=r"(semaphoreHandle));
 1340              		.loc 1 217 17
 218:src/Riscv.cpp ****                 __asm__ volatile("mv %0, a2" : "=r"(val));
 1341              		.loc 1 218 17
 218:src/Riscv.cpp ****                 __asm__ volatile("mv %0, a2" : "=r"(val));
 1342              		.loc 1 218 70 is_stmt 0
 1343              	#APP
 1344              	# 218 "src/Riscv.cpp" 1
 1345              		mv s3, a1
 1346              	# 0 "" 2
 1347              	.LVL93:
 219:src/Riscv.cpp **** 
 1348              		.loc 1 219 17 is_stmt 1
 219:src/Riscv.cpp **** 
 1349              		.loc 1 219 58 is_stmt 0
 1350              	# 219 "src/Riscv.cpp" 1
 1351              		mv s4, a2
 1352              	# 0 "" 2
 1353              	.LVL94:
 221:src/Riscv.cpp **** 
 1354              		.loc 1 221 17 is_stmt 1
 221:src/Riscv.cpp **** 
 1355              		.loc 1 221 56 is_stmt 0
 1356              	#NO_APP
 1357 0528 13058001 		li	a0,24
 1358 052c 97000000 		call	_ZN10KSemaphorenwEm@plt
 1358      E7800000 
 1359              	.LVL95:
 1360              	.LEHE2:
 1361 0534 93040500 		mv	s1,a0
 1362              	.LVL96:
 1363 0538 9B050A00 		sext.w	a1,s4
 1364              	.LEHB3:
 1365 053c 97000000 		call	_ZN10KSemaphoreC1Ei@plt
 1365      E7800000 
 1366              	.LVL97:
 1367              	.LEHE3:
 223:src/Riscv.cpp **** 
 1368              		.loc 1 223 17 is_stmt 1 discriminator 2
 223:src/Riscv.cpp **** 
 1369              		.loc 1 223 36 is_stmt 0 discriminator 2
 1370 0544 23B09900 		sd	s1,0(s3)
 225:src/Riscv.cpp ****                         __asm__ volatile("li a0, 0xffffffffffffffff");
 1371              		.loc 1 225 17 is_stmt 1 discriminator 2
 1372 0548 63860400 		beqz	s1,.L57
 228:src/Riscv.cpp **** 
 1373              		.loc 1 228 25
 228:src/Riscv.cpp **** 
 1374              		.loc 1 228 53 is_stmt 0
 1375              	#APP
 1376              	# 228 "src/Riscv.cpp" 1
 1377              		li a0, 0
 1378              	# 0 "" 2
 1379              	#NO_APP
GAS LISTING /tmp/ccJnPpYh.s 			page 39


 1380 0550 6FF09FEA 		j	.L29
 1381              	.L57:
 226:src/Riscv.cpp ****                 else
 1382              		.loc 1 226 25 is_stmt 1
 226:src/Riscv.cpp ****                 else
 1383              		.loc 1 226 70 is_stmt 0
 1384              	#APP
 1385              	# 226 "src/Riscv.cpp" 1
 1386              		li a0, 0xffffffffffffffff
 1387              	# 0 "" 2
 1388              	#NO_APP
 1389 0558 6FF01FEA 		j	.L29
 1390              	.LVL98:
 1391              	.L54:
 1392              	.LBE131:
 1393              	.LBB132:
 1394              	.LBB123:
 233:src/Riscv.cpp ****                 KSemaphore* kSem;
 1395              		.loc 1 233 17 is_stmt 1
 1396              	.LBB124:
 1397              	.LBB125:
 158:src/../h/Riscv.hpp ****     __asm__ volatile("csrr %0, sstatus" : "=r"(sstatus));
 1398              		.loc 2 158 5
 159:src/../h/Riscv.hpp ****     return sstatus;
 1399              		.loc 2 159 5
 159:src/../h/Riscv.hpp ****     return sstatus;
 1400              		.loc 2 159 57 is_stmt 0
 1401              	#APP
 1402              	# 159 "src/../h/Riscv.hpp" 1
 1403              		csrr a5, sstatus
 1404              	# 0 "" 2
 1405              	.LVL99:
 1406              	#NO_APP
 1407 0560 233CF4FA 		sd	a5,-72(s0)
 160:src/../h/Riscv.hpp **** }
 1408              		.loc 2 160 5 is_stmt 1
 160:src/../h/Riscv.hpp **** }
 1409              		.loc 2 160 12 is_stmt 0
 1410 0564 833484FB 		ld	s1,-72(s0)
 1411              	.LVL100:
 1412              	.LBE125:
 1413              	.LBE124:
 234:src/Riscv.cpp ****                 __asm__ volatile("mv %0, a1" : "=r"(kSem));
 1414              		.loc 1 234 17 is_stmt 1
 235:src/Riscv.cpp ****                 uint64 retval = kSem->wait();
 1415              		.loc 1 235 17
 235:src/Riscv.cpp ****                 uint64 retval = kSem->wait();
 1416              		.loc 1 235 59 is_stmt 0
 1417              	#APP
 1418              	# 235 "src/Riscv.cpp" 1
 1419              		mv a0, a1
 1420              	# 0 "" 2
 1421              	.LVL101:
 236:src/Riscv.cpp ****                 Riscv::w_sstatus(sstatus);
 1422              		.loc 1 236 17 is_stmt 1
 1423              	.LEHB4:
 236:src/Riscv.cpp ****                 Riscv::w_sstatus(sstatus);
GAS LISTING /tmp/ccJnPpYh.s 			page 40


 1424              		.loc 1 236 43 is_stmt 0
 1425              	#NO_APP
 1426 056c 97000000 		call	_ZN10KSemaphore4waitEv@plt
 1426      E7800000 
 1427              	.LVL102:
 237:src/Riscv.cpp ****                 __asm__ volatile("mv a0,%0" : :"r"(retval));
 1428              		.loc 1 237 17 is_stmt 1
 1429              	.LBB126:
 1430              	.LBB127:
 164:src/../h/Riscv.hpp **** }
 1431              		.loc 2 164 5
 164:src/../h/Riscv.hpp **** }
 1432              		.loc 2 164 57 is_stmt 0
 1433              	#APP
 1434              	# 164 "src/../h/Riscv.hpp" 1
 1435              		csrw sstatus, s1
 1436              	# 0 "" 2
 1437              	.LVL103:
 1438              	#NO_APP
 1439              	.LBE127:
 1440              	.LBE126:
 238:src/Riscv.cpp ****             }
 1441              		.loc 1 238 17 is_stmt 1
 238:src/Riscv.cpp ****             }
 1442              		.loc 1 238 60 is_stmt 0
 1443              	#APP
 1444              	# 238 "src/Riscv.cpp" 1
 1445              		mv a0,a0
 1446              	# 0 "" 2
 1447              	#NO_APP
 1448              	.LBE123:
 1449 057c 6FF0DFE7 		j	.L29
 1450              	.LVL104:
 1451              	.L55:
 1452              	.LBB128:
 1453              	.LBB121:
 242:src/Riscv.cpp ****                 __asm__ volatile("mv %0, a1" : "=r"(kSem));
 1454              		.loc 1 242 17 is_stmt 1
 243:src/Riscv.cpp ****                 uint64 retval = kSem->signal();
 1455              		.loc 1 243 17
 243:src/Riscv.cpp ****                 uint64 retval = kSem->signal();
 1456              		.loc 1 243 59 is_stmt 0
 1457              	#APP
 1458              	# 243 "src/Riscv.cpp" 1
 1459              		mv a0, a1
 1460              	# 0 "" 2
 1461              	.LVL105:
 244:src/Riscv.cpp ****                 __asm__ volatile("mv a0,%0" : :"r"(retval));
 1462              		.loc 1 244 17 is_stmt 1
 244:src/Riscv.cpp ****                 __asm__ volatile("mv a0,%0" : :"r"(retval));
 1463              		.loc 1 244 45 is_stmt 0
 1464              	#NO_APP
 1465 0584 97000000 		call	_ZN10KSemaphore6signalEv@plt
 1465      E7800000 
 1466              	.LVL106:
 1467              	.LEHE4:
 245:src/Riscv.cpp ****             }
GAS LISTING /tmp/ccJnPpYh.s 			page 41


 1468              		.loc 1 245 17 is_stmt 1
 245:src/Riscv.cpp ****             }
 1469              		.loc 1 245 60 is_stmt 0
 1470              	#APP
 1471              	# 245 "src/Riscv.cpp" 1
 1472              		mv a0,a0
 1473              	# 0 "" 2
 1474              	#NO_APP
 1475              	.LBE121:
 1476 0590 6FF09FE6 		j	.L29
 1477              	.LVL107:
 1478              	.L43:
 1479 0594 93040500 		mv	s1,a0
 1480              	.LVL108:
 1481              	.LBE128:
 1482              	.LBE132:
 1483              	.LBE144:
 1484              	.LBE158:
 1485              	.LBE171:
 1486              	.LBE181:
 1487              	.LBB182:
 175:src/Riscv.cpp **** 
 1488              		.loc 1 175 113
 1489 0598 13850900 		mv	a0,s3
 1490 059c 97000000 		call	_ZN3PCBdlEPv@plt
 1490      E7800000 
 1491              	.LVL109:
 1492 05a4 13850400 		mv	a0,s1
 1493              	.LEHB5:
 1494 05a8 97000000 		call	_Unwind_Resume@plt
 1494      E7800000 
 1495              	.LVL110:
 1496              	.LEHE5:
 1497              	.L44:
 1498 05b0 13090500 		mv	s2,a0
 1499              	.LVL111:
 1500              	.LBE182:
 1501              	.LBB183:
 1502              	.LBB172:
 1503              	.LBB159:
 1504              	.LBB145:
 1505              	.LBB133:
 221:src/Riscv.cpp **** 
 1506              		.loc 1 221 56
 1507 05b4 13850400 		mv	a0,s1
 1508 05b8 97000000 		call	_ZN10KSemaphoredlEPv@plt
 1508      E7800000 
 1509              	.LVL112:
 1510 05c0 13050900 		mv	a0,s2
 1511              	.LEHB6:
 1512 05c4 97000000 		call	_Unwind_Resume@plt
 1512      E7800000 
 1513              	.LVL113:
 1514              	.LEHE6:
 1515              	.LBE133:
 1516              	.LBE145:
 1517              	.LBE159:
GAS LISTING /tmp/ccJnPpYh.s 			page 42


 1518              	.LBE172:
 1519              	.LBE183:
 1520              	.LBE193:
 1521              	.LBE204:
 1522              	.LBE232:
 1523              	.LBE244:
 1524              	.LBE255:
 1525              		.cfi_endproc
 1526              	.LFE32:
 1527              		.globl	__gxx_personality_v0
 1528              		.section	.gcc_except_table,"a",@progbits
 1529              	.LLSDA32:
 1530 0000 FF       		.byte	0xff
 1531 0001 FF       		.byte	0xff
 1532 0002 03       		.byte	0x3
 1533 0003 5B       		.byte	0x5b
 1534 0004 00000000 		.4byte	.LEHB0-.LFB32
 1535 0008 00000000 		.4byte	.LEHE0-.LEHB0
 1536 000c 00000000 		.4byte	0
 1537 0010 00       		.byte	0
 1538 0011 00000000 		.4byte	.LEHB1-.LFB32
 1539 0015 00000000 		.4byte	.LEHE1-.LEHB1
 1540 0019 00000000 		.4byte	.L43-.LFB32
 1541 001d 00       		.byte	0
 1542 001e 00000000 		.4byte	.LEHB2-.LFB32
 1543 0022 00000000 		.4byte	.LEHE2-.LEHB2
 1544 0026 00000000 		.4byte	0
 1545 002a 00       		.byte	0
 1546 002b 00000000 		.4byte	.LEHB3-.LFB32
 1547 002f 00000000 		.4byte	.LEHE3-.LEHB3
 1548 0033 00000000 		.4byte	.L44-.LFB32
 1549 0037 00       		.byte	0
 1550 0038 00000000 		.4byte	.LEHB4-.LFB32
 1551 003c 00000000 		.4byte	.LEHE4-.LEHB4
 1552 0040 00000000 		.4byte	0
 1553 0044 00       		.byte	0
 1554 0045 00000000 		.4byte	.LEHB5-.LFB32
 1555 0049 00000000 		.4byte	.LEHE5-.LEHB5
 1556 004d 00000000 		.4byte	0
 1557 0051 00       		.byte	0
 1558 0052 00000000 		.4byte	.LEHB6-.LFB32
 1559 0056 00000000 		.4byte	.LEHE6-.LEHB6
 1560 005a 00000000 		.4byte	0
 1561 005e 00       		.byte	0
 1562              		.text
 1564              		.section	.rodata.str1.8
 1565 0013 00000000 		.align	3
 1565      00
 1566              	.LC1:
 1567 0018 456E642E 		.string	"End..."
 1567      2E2E00
 1568              		.text
 1569              		.align	2
 1570              		.globl	_ZN5Riscv10kernelMainEv
 1572              	_ZN5Riscv10kernelMainEv:
 1573              	.LFB33:
 270:src/Riscv.cpp ****     initSystem();
GAS LISTING /tmp/ccJnPpYh.s 			page 43


 1574              		.loc 1 270 1 is_stmt 1
 1575              		.cfi_startproc
 1576              		.cfi_personality 0x9b,DW.ref.__gxx_personality_v0
 1577              		.cfi_lsda 0x1b,.LLSDA33
 1578 05cc 130101FE 		addi	sp,sp,-32
 1579              		.cfi_def_cfa_offset 32
 1580 05d0 233C1100 		sd	ra,24(sp)
 1581 05d4 23388100 		sd	s0,16(sp)
 1582 05d8 23349100 		sd	s1,8(sp)
 1583 05dc 23302101 		sd	s2,0(sp)
 1584              		.cfi_offset 1, -8
 1585              		.cfi_offset 8, -16
 1586              		.cfi_offset 9, -24
 1587              		.cfi_offset 18, -32
 1588 05e0 13040102 		addi	s0,sp,32
 1589              		.cfi_def_cfa 8, 0
 271:src/Riscv.cpp **** 
 1590              		.loc 1 271 5
 1591              	.LEHB7:
 271:src/Riscv.cpp **** 
 1592              		.loc 1 271 15 is_stmt 0
 1593 05e4 97000000 		call	_ZN5Riscv10initSystemEv
 1593      E7800000 
 1594              	.LVL114:
 275:src/Riscv.cpp **** 
 1595              		.loc 1 275 5 is_stmt 1
 275:src/Riscv.cpp **** 
 1596              		.loc 1 275 63 is_stmt 0
 1597 05ec 37150000 		li	a0,4096
 1598 05f0 97000000 		call	_Z7kmallocm@plt
 1598      E7800000 
 1599              	.LVL115:
 1600 05f8 13090500 		mv	s2,a0
 275:src/Riscv.cpp **** 
 1601              		.loc 1 275 103
 1602 05fc 13050005 		li	a0,80
 1603 0600 97000000 		call	_ZN3PCBnwEm@plt
 1603      E7800000 
 1604              	.LVL116:
 1605              	.LEHE7:
 1606 0608 93040500 		mv	s1,a0
 1607 060c 13072000 		li	a4,2
 1608 0610 93060900 		mv	a3,s2
 1609 0614 13060000 		li	a2,0
 1610 0618 97050000 		lla	a1,_ZN5Riscv15userMainWrapperEPv
 1610      93850500 
 1611              	.LEHB8:
 1612 0620 97000000 		call	_ZN3PCBC1EPFvPvES0_S0_m@plt
 1612      E7800000 
 1613              	.LVL117:
 1614              	.LEHE8:
 1615              	.L60:
 277:src/Riscv.cpp ****     {
 1616              		.loc 1 277 5 is_stmt 1
 277:src/Riscv.cpp ****     {
 1617              		.loc 1 277 31
 1618              	.LBB256:
GAS LISTING /tmp/ccJnPpYh.s 			page 44


 1619              	.LBB257:
  33:src/../h/PCB.hpp ****     void setState(State s) {state = s;}
 1620              		.loc 3 33 23
  33:src/../h/PCB.hpp ****     void setState(State s) {state = s;}
 1621              		.loc 3 33 30 is_stmt 0
 1622 0628 03A78403 		lw	a4,56(s1)
 1623              	.LVL118:
 1624              	.LBE257:
 1625              	.LBE256:
 277:src/Riscv.cpp ****     {
 1626              		.loc 1 277 31
 1627 062c 93073000 		li	a5,3
 1628 0630 6308F700 		beq	a4,a5,.L59
 279:src/Riscv.cpp ****     }
 1629              		.loc 1 279 9 is_stmt 1
 1630              	.LEHB9:
 279:src/Riscv.cpp ****     }
 1631              		.loc 1 279 24 is_stmt 0
 1632 0634 97000000 		call	thread_dispatch@plt
 1632      E7800000 
 1633              	.LVL119:
 277:src/Riscv.cpp ****     {
 1634              		.loc 1 277 5
 1635 063c 6FF0DFFE 		j	.L60
 1636              	.L59:
 286:src/Riscv.cpp **** 
 1637              		.loc 1 286 5 is_stmt 1
 286:src/Riscv.cpp **** 
 1638              		.loc 1 286 14 is_stmt 0
 1639 0640 97000000 		call	_ZN5Riscv9endSystemEv
 1639      E7800000 
 1640              	.LVL120:
 288:src/Riscv.cpp **** }
 1641              		.loc 1 288 5 is_stmt 1
 288:src/Riscv.cpp **** }
 1642              		.loc 1 288 23 is_stmt 0
 1643 0648 17050000 		lla	a0,.LC1
 1643      13050500 
 1644 0650 97000000 		call	_ZN5Riscv11printStringEPKc
 1644      E7800000 
 1645              	.LVL121:
 1646              	.LEHE9:
 289:src/Riscv.cpp **** 
 1647              		.loc 1 289 1
 1648 0658 83308101 		ld	ra,24(sp)
 1649              		.cfi_remember_state
 1650              		.cfi_restore 1
 1651 065c 03340101 		ld	s0,16(sp)
 1652              		.cfi_restore 8
 1653              		.cfi_def_cfa 2, 32
 1654 0660 83348100 		ld	s1,8(sp)
 1655              		.cfi_restore 9
 1656 0664 03390100 		ld	s2,0(sp)
 1657              		.cfi_restore 18
 1658 0668 13010102 		addi	sp,sp,32
 1659              		.cfi_def_cfa_offset 0
 1660 066c 67800000 		jr	ra
GAS LISTING /tmp/ccJnPpYh.s 			page 45


 1661              	.L62:
 1662              		.cfi_restore_state
 1663 0670 13090500 		mv	s2,a0
 275:src/Riscv.cpp **** 
 1664              		.loc 1 275 103
 1665 0674 13850400 		mv	a0,s1
 1666 0678 97000000 		call	_ZN3PCBdlEPv@plt
 1666      E7800000 
 1667              	.LVL122:
 1668 0680 13050900 		mv	a0,s2
 1669              	.LEHB10:
 1670 0684 97000000 		call	_Unwind_Resume@plt
 1670      E7800000 
 1671              	.LVL123:
 1672              	.LEHE10:
 1673              		.cfi_endproc
 1674              	.LFE33:
 1675              		.section	.gcc_except_table
 1676              	.LLSDA33:
 1677 005f FF       		.byte	0xff
 1678 0060 FF       		.byte	0xff
 1679 0061 03       		.byte	0x3
 1680 0062 34       		.byte	0x34
 1681 0063 00000000 		.4byte	.LEHB7-.LFB33
 1682 0067 00000000 		.4byte	.LEHE7-.LEHB7
 1683 006b 00000000 		.4byte	0
 1684 006f 00       		.byte	0
 1685 0070 00000000 		.4byte	.LEHB8-.LFB33
 1686 0074 00000000 		.4byte	.LEHE8-.LEHB8
 1687 0078 00000000 		.4byte	.L62-.LFB33
 1688 007c 00       		.byte	0
 1689 007d 00000000 		.4byte	.LEHB9-.LFB33
 1690 0081 00000000 		.4byte	.LEHE9-.LEHB9
 1691 0085 00000000 		.4byte	0
 1692 0089 00       		.byte	0
 1693 008a 00000000 		.4byte	.LEHB10-.LFB33
 1694 008e 00000000 		.4byte	.LEHE10-.LEHB10
 1695 0092 00000000 		.4byte	0
 1696 0096 00       		.byte	0
 1697              		.text
 1699              		.section	.rodata
 1700              		.align	3
 1701              		.set	.LANCHOR0,. + 0
 1704              	_ZZN5Riscv12printIntegerEmE6digits:
 1705 0000 30313233 		.string	"0123456789"
 1705      34353637 
 1705      383900
 1706              		.bss
 1707              		.align	3
 1708              		.set	.LANCHOR1,. + 0
 1711              	_ZZN5Riscv20handleSupervisorTrapEvE5total:
 1712 0000 00000000 		.zero	8
 1712      00000000 
 1713              		.text
 1714              	.Letext0:
 1715              		.file 4 "src/../h/../lib/hw.h"
 1716              		.file 5 "src/../h/KSemaphore.hpp"
GAS LISTING /tmp/ccJnPpYh.s 			page 46


 1717              		.file 6 "src/../h/SleepPCBList.hpp"
 1718              		.file 7 "src/../h/KConsole.hpp"
 1719              		.file 8 "src/../test/userMain.hpp"
 1720              		.file 9 "src/../h/MemoryAllocator.hpp"
 1721              		.file 10 "src/../h/syscall_c.h"
 1722              		.file 11 "src/../lib/console.h"
 6766              		.align	3
 6769              	DW.ref.__gxx_personality_v0:
 6770 0000 00000000 		.dword	__gxx_personality_v0
 6770      00000000 
 6771              		.ident	"GCC: (Ubuntu 9.3.0-17ubuntu1~20.04) 9.3.0"
 6772              		.section	.note.GNU-stack,"",@progbits
GAS LISTING /tmp/ccJnPpYh.s 			page 47


DEFINED SYMBOLS
                            *ABS*:0000000000000000 Riscv.cpp
     /tmp/ccJnPpYh.s:9      .text:0000000000000000 _ZN5Riscv15userMainWrapperEPv
     /tmp/ccJnPpYh.s:13     .text:0000000000000000 .L0 
     /tmp/ccJnPpYh.s:14     .text:0000000000000000 .L0 
     /tmp/ccJnPpYh.s:15     .text:0000000000000004 .L0 
     /tmp/ccJnPpYh.s:18     .text:000000000000000c .L0 
     /tmp/ccJnPpYh.s:19     .text:000000000000000c .L0 
     /tmp/ccJnPpYh.s:21     .text:0000000000000010 .L0 
     /tmp/ccJnPpYh.s:23     .text:0000000000000010 .L0 
     /tmp/ccJnPpYh.s:24     .text:0000000000000010 .L0 
     /tmp/ccJnPpYh.s:27     .text:0000000000000018 .L0 
     /tmp/ccJnPpYh.s:28     .text:000000000000001c .L0 
     /tmp/ccJnPpYh.s:30     .text:0000000000000020 .L0 
     /tmp/ccJnPpYh.s:31     .text:0000000000000020 .L0 
     /tmp/ccJnPpYh.s:33     .text:0000000000000024 .L0 
     /tmp/ccJnPpYh.s:35     .text:0000000000000028 .L0 
     /tmp/ccJnPpYh.s:41     .text:0000000000000028 _ZN5Riscv10initSystemEv
     /tmp/ccJnPpYh.s:44     .text:0000000000000028 .L0 
     /tmp/ccJnPpYh.s:45     .text:0000000000000028 .L0 
     /tmp/ccJnPpYh.s:46     .text:000000000000002c .L0 
     /tmp/ccJnPpYh.s:49     .text:0000000000000034 .L0 
     /tmp/ccJnPpYh.s:50     .text:0000000000000034 .L0 
     /tmp/ccJnPpYh.s:52     .text:0000000000000038 .L0 
     /tmp/ccJnPpYh.s:54     .text:0000000000000038 .L0 
     /tmp/ccJnPpYh.s:55     .text:0000000000000038 .L0 
     /tmp/ccJnPpYh.s:61     .text:0000000000000040 .L0 
  src/../h/Riscv.hpp:118    .text:0000000000000040 .L0 
     /tmp/ccJnPpYh.s:71     .text:0000000000000044 .L0 
     /tmp/ccJnPpYh.s:72     .text:0000000000000044 .L0 
     /tmp/ccJnPpYh.s:75     .text:000000000000004c .L0 
     /tmp/ccJnPpYh.s:76     .text:000000000000004c .L0 
     /tmp/ccJnPpYh.s:79     .text:0000000000000054 .L0 
     /tmp/ccJnPpYh.s:80     .text:0000000000000058 .L0 
     /tmp/ccJnPpYh.s:82     .text:000000000000005c .L0 
     /tmp/ccJnPpYh.s:83     .text:000000000000005c .L0 
     /tmp/ccJnPpYh.s:85     .text:0000000000000060 .L0 
     /tmp/ccJnPpYh.s:87     .text:0000000000000064 .L0 
     /tmp/ccJnPpYh.s:93     .text:0000000000000064 _ZN5Riscv16enableInterruptsEv
     /tmp/ccJnPpYh.s:96     .text:0000000000000064 .L0 
     /tmp/ccJnPpYh.s:97     .text:0000000000000064 .L0 
     /tmp/ccJnPpYh.s:98     .text:0000000000000068 .L0 
     /tmp/ccJnPpYh.s:100    .text:000000000000006c .L0 
     /tmp/ccJnPpYh.s:102    .text:0000000000000070 .L0 
     /tmp/ccJnPpYh.s:107    .text:0000000000000070 .L0 
     /tmp/ccJnPpYh.s:108    .text:0000000000000070 .L0 
     /tmp/ccJnPpYh.s:109    .text:0000000000000070 .L0 
     /tmp/ccJnPpYh.s:119    .text:0000000000000078 .L0 
     /tmp/ccJnPpYh.s:120    .text:000000000000007c .L0 
     /tmp/ccJnPpYh.s:121    .text:000000000000007c .L0 
     /tmp/ccJnPpYh.s:123    .text:0000000000000080 .L0 
     /tmp/ccJnPpYh.s:125    .text:0000000000000084 .L0 
     /tmp/ccJnPpYh.s:131    .text:0000000000000084 _ZN5Riscv17disableInterruptsEv
     /tmp/ccJnPpYh.s:134    .text:0000000000000084 .L0 
     /tmp/ccJnPpYh.s:135    .text:0000000000000084 .L0 
     /tmp/ccJnPpYh.s:136    .text:0000000000000088 .L0 
     /tmp/ccJnPpYh.s:138    .text:000000000000008c .L0 
GAS LISTING /tmp/ccJnPpYh.s 			page 48


     /tmp/ccJnPpYh.s:140    .text:0000000000000090 .L0 
     /tmp/ccJnPpYh.s:145    .text:0000000000000090 .L0 
     /tmp/ccJnPpYh.s:146    .text:0000000000000090 .L0 
     /tmp/ccJnPpYh.s:147    .text:0000000000000090 .L0 
     /tmp/ccJnPpYh.s:157    .text:0000000000000098 .L0 
     /tmp/ccJnPpYh.s:158    .text:000000000000009c .L0 
     /tmp/ccJnPpYh.s:159    .text:000000000000009c .L0 
     /tmp/ccJnPpYh.s:161    .text:00000000000000a0 .L0 
     /tmp/ccJnPpYh.s:163    .text:00000000000000a4 .L0 
     /tmp/ccJnPpYh.s:169    .text:00000000000000a4 _ZN5Riscv9endSystemEv
     /tmp/ccJnPpYh.s:172    .text:00000000000000a4 .L0 
     /tmp/ccJnPpYh.s:173    .text:00000000000000a4 .L0 
     /tmp/ccJnPpYh.s:174    .text:00000000000000a8 .L0 
     /tmp/ccJnPpYh.s:177    .text:00000000000000b0 .L0 
     /tmp/ccJnPpYh.s:178    .text:00000000000000b0 .L0 
     /tmp/ccJnPpYh.s:180    .text:00000000000000b4 .L0 
     /tmp/ccJnPpYh.s:182    .text:00000000000000b4 .L0 
     /tmp/ccJnPpYh.s:183    .text:00000000000000b4 .L0 
     /tmp/ccJnPpYh.s:186    .text:00000000000000bc .L0 
     /tmp/ccJnPpYh.s:187    .text:00000000000000c0 .L0 
     /tmp/ccJnPpYh.s:189    .text:00000000000000c4 .L0 
     /tmp/ccJnPpYh.s:190    .text:00000000000000c4 .L0 
     /tmp/ccJnPpYh.s:192    .text:00000000000000c8 .L0 
     /tmp/ccJnPpYh.s:194    .text:00000000000000cc .L0 
     /tmp/ccJnPpYh.s:200    .text:00000000000000cc _ZN5Riscv10popSppSpieEv
     /tmp/ccJnPpYh.s:203    .text:00000000000000cc .L0 
     /tmp/ccJnPpYh.s:204    .text:00000000000000cc .L0 
     /tmp/ccJnPpYh.s:205    .text:00000000000000d0 .L0 
     /tmp/ccJnPpYh.s:207    .text:00000000000000d4 .L0 
     /tmp/ccJnPpYh.s:209    .text:00000000000000d8 .L0 
     /tmp/ccJnPpYh.s:211    .text:00000000000000d8 .L0 
       src/Riscv.cpp:40     .text:00000000000000d8 .L0 
     /tmp/ccJnPpYh.s:217    .text:00000000000000dc .L0 
       src/Riscv.cpp:41     .text:00000000000000dc .L0 
     /tmp/ccJnPpYh.s:223    .text:00000000000000e0 .L0 
     /tmp/ccJnPpYh.s:224    .text:00000000000000e4 .L0 
     /tmp/ccJnPpYh.s:225    .text:00000000000000e4 .L0 
     /tmp/ccJnPpYh.s:227    .text:00000000000000e8 .L0 
     /tmp/ccJnPpYh.s:229    .text:00000000000000ec .L0 
     /tmp/ccJnPpYh.s:235    .text:00000000000000ec _ZN5Riscv11printStringEPKc
     /tmp/ccJnPpYh.s:238    .text:00000000000000ec .L0 
     /tmp/ccJnPpYh.s:240    .text:00000000000000ec .L0 
     /tmp/ccJnPpYh.s:241    .text:00000000000000f0 .L0 
     /tmp/ccJnPpYh.s:246    .text:0000000000000100 .L0 
     /tmp/ccJnPpYh.s:247    .text:0000000000000100 .L0 
     /tmp/ccJnPpYh.s:248    .text:0000000000000100 .L0 
     /tmp/ccJnPpYh.s:249    .text:0000000000000100 .L0 
     /tmp/ccJnPpYh.s:251    .text:0000000000000104 .L0 
     /tmp/ccJnPpYh.s:256    .text:0000000000000108 .L0 
     /tmp/ccJnPpYh.s:257    .text:0000000000000108 .L0 
     /tmp/ccJnPpYh.s:258    .text:0000000000000108 .L0 
  src/../h/Riscv.hpp:159    .text:0000000000000108 .L0 
     /tmp/ccJnPpYh.s:266    .text:0000000000000110 .L0 
     /tmp/ccJnPpYh.s:267    .text:0000000000000110 .L0 
     /tmp/ccJnPpYh.s:274    .text:0000000000000114 .L0 
     /tmp/ccJnPpYh.s:275    .text:0000000000000114 .L0 
     /tmp/ccJnPpYh.s:276    .text:0000000000000114 .L0 
GAS LISTING /tmp/ccJnPpYh.s 			page 49


     /tmp/ccJnPpYh.s:287    .text:000000000000011c .L0 
     /tmp/ccJnPpYh.s:288    .text:000000000000011c .L0 
     /tmp/ccJnPpYh.s:289    .text:000000000000011c .L0 
     /tmp/ccJnPpYh.s:291    .text:0000000000000120 .L0 
     /tmp/ccJnPpYh.s:293    .text:0000000000000124 .L0 
     /tmp/ccJnPpYh.s:294    .text:0000000000000124 .L0 
     /tmp/ccJnPpYh.s:297    .text:000000000000012c .L0 
     /tmp/ccJnPpYh.s:298    .text:000000000000012c .L0 
     /tmp/ccJnPpYh.s:301    .text:0000000000000130 .L0 
     /tmp/ccJnPpYh.s:304    .text:0000000000000134 .L0 
     /tmp/ccJnPpYh.s:305    .text:0000000000000134 .L0 
     /tmp/ccJnPpYh.s:308    .text:0000000000000138 .L0 
     /tmp/ccJnPpYh.s:314    .text:0000000000000140 .L0 
  src/../h/Riscv.hpp:150    .text:0000000000000140 .L0 
     /tmp/ccJnPpYh.s:324    .text:0000000000000144 .L0 
     /tmp/ccJnPpYh.s:325    .text:0000000000000148 .L0 
     /tmp/ccJnPpYh.s:327    .text:000000000000014c .L0 
     /tmp/ccJnPpYh.s:328    .text:000000000000014c .L0 
     /tmp/ccJnPpYh.s:330    .text:0000000000000150 .L0 
     /tmp/ccJnPpYh.s:333    .text:0000000000000154 .L0 
     /tmp/ccJnPpYh.s:335    .text:0000000000000158 .L0 
     /tmp/ccJnPpYh.s:337    .text:000000000000015c .L0 
     /tmp/ccJnPpYh.s:343    .text:000000000000015c _ZN5Riscv12printIntegerEm
     /tmp/ccJnPpYh.s:346    .text:000000000000015c .L0 
     /tmp/ccJnPpYh.s:348    .text:000000000000015c .L0 
     /tmp/ccJnPpYh.s:349    .text:0000000000000160 .L0 
     /tmp/ccJnPpYh.s:354    .text:0000000000000170 .L0 
     /tmp/ccJnPpYh.s:355    .text:0000000000000170 .L0 
     /tmp/ccJnPpYh.s:356    .text:0000000000000170 .L0 
     /tmp/ccJnPpYh.s:357    .text:0000000000000170 .L0 
     /tmp/ccJnPpYh.s:359    .text:0000000000000174 .L0 
     /tmp/ccJnPpYh.s:363    .text:0000000000000174 .L0 
     /tmp/ccJnPpYh.s:364    .text:0000000000000174 .L0 
     /tmp/ccJnPpYh.s:365    .text:0000000000000174 .L0 
  src/../h/Riscv.hpp:159    .text:0000000000000174 .L0 
     /tmp/ccJnPpYh.s:373    .text:000000000000017c .L0 
     /tmp/ccJnPpYh.s:374    .text:000000000000017c .L0 
     /tmp/ccJnPpYh.s:381    .text:0000000000000180 .L0 
     /tmp/ccJnPpYh.s:382    .text:0000000000000180 .L0 
     /tmp/ccJnPpYh.s:383    .text:0000000000000180 .L0 
     /tmp/ccJnPpYh.s:393    .text:0000000000000188 .L0 
     /tmp/ccJnPpYh.s:394    .text:0000000000000188 .L0 
     /tmp/ccJnPpYh.s:395    .text:0000000000000188 .L0 
     /tmp/ccJnPpYh.s:396    .text:0000000000000188 .L0 
     /tmp/ccJnPpYh.s:397    .text:0000000000000188 .L0 
     /tmp/ccJnPpYh.s:398    .text:0000000000000188 .L0 
     /tmp/ccJnPpYh.s:399    .text:0000000000000188 .L0 
     /tmp/ccJnPpYh.s:400    .text:0000000000000188 .L0 
     /tmp/ccJnPpYh.s:403    .text:000000000000018c .L0 
     /tmp/ccJnPpYh.s:404    .text:000000000000018c .L0 
     /tmp/ccJnPpYh.s:408    .text:0000000000000190 .L0 
     /tmp/ccJnPpYh.s:409    .text:0000000000000190 .L0 
     /tmp/ccJnPpYh.s:410    .text:0000000000000190 .L0 
     /tmp/ccJnPpYh.s:414    .text:0000000000000198 .L0 
     /tmp/ccJnPpYh.s:420    .text:00000000000001b0 .L0 
     /tmp/ccJnPpYh.s:426    .text:00000000000001c0 .L0 
     /tmp/ccJnPpYh.s:428    .text:00000000000001c4 .L0 
GAS LISTING /tmp/ccJnPpYh.s 			page 50


     /tmp/ccJnPpYh.s:431    .text:00000000000001c8 .L0 
     /tmp/ccJnPpYh.s:436    .text:00000000000001d0 .L0 
     /tmp/ccJnPpYh.s:437    .text:00000000000001d0 .L0 
     /tmp/ccJnPpYh.s:441    .text:00000000000001d8 .L0 
     /tmp/ccJnPpYh.s:442    .text:00000000000001d8 .L0 
     /tmp/ccJnPpYh.s:450    .text:00000000000001f0 .L0 
     /tmp/ccJnPpYh.s:451    .text:00000000000001f0 .L0 
     /tmp/ccJnPpYh.s:455    .text:00000000000001fc .L0 
     /tmp/ccJnPpYh.s:456    .text:00000000000001fc .L0 
     /tmp/ccJnPpYh.s:459    .text:0000000000000200 .L0 
     /tmp/ccJnPpYh.s:465    .text:0000000000000208 .L0 
  src/../h/Riscv.hpp:150    .text:0000000000000208 .L0 
     /tmp/ccJnPpYh.s:475    .text:000000000000020c .L0 
     /tmp/ccJnPpYh.s:476    .text:0000000000000210 .L0 
     /tmp/ccJnPpYh.s:478    .text:0000000000000214 .L0 
     /tmp/ccJnPpYh.s:479    .text:0000000000000214 .L0 
     /tmp/ccJnPpYh.s:481    .text:0000000000000218 .L0 
     /tmp/ccJnPpYh.s:483    .text:000000000000021c .L0 
     /tmp/ccJnPpYh.s:485    .text:0000000000000220 .L0 
     /tmp/ccJnPpYh.s:487    .text:0000000000000224 .L0 
     /tmp/ccJnPpYh.s:498    .text:0000000000000224 _ZN5Riscv20handleSupervisorTrapEv
     /tmp/ccJnPpYh.s:501    .text:0000000000000224 .L0 
     /tmp/ccJnPpYh.s:6769   .data.rel.local.DW.ref.__gxx_personality_v0:0000000000000000 DW.ref.__gxx_personality_v0
     /tmp/ccJnPpYh.s:504    .text:0000000000000224 .L0 
     /tmp/ccJnPpYh.s:505    .text:0000000000000228 .L0 
     /tmp/ccJnPpYh.s:514    .text:0000000000000248 .L0 
     /tmp/ccJnPpYh.s:515    .text:0000000000000248 .L0 
     /tmp/ccJnPpYh.s:516    .text:0000000000000248 .L0 
     /tmp/ccJnPpYh.s:517    .text:0000000000000248 .L0 
     /tmp/ccJnPpYh.s:518    .text:0000000000000248 .L0 
     /tmp/ccJnPpYh.s:519    .text:0000000000000248 .L0 
     /tmp/ccJnPpYh.s:520    .text:0000000000000248 .L0 
     /tmp/ccJnPpYh.s:521    .text:0000000000000248 .L0 
     /tmp/ccJnPpYh.s:523    .text:000000000000024c .L0 
     /tmp/ccJnPpYh.s:525    .text:000000000000024c .L0 
     /tmp/ccJnPpYh.s:526    .text:000000000000024c .L0 
       src/Riscv.cpp:93     .text:000000000000024c .L0 
     /tmp/ccJnPpYh.s:536    .text:0000000000000250 .L0 
     /tmp/ccJnPpYh.s:537    .text:0000000000000250 .L0 
     /tmp/ccJnPpYh.s:538    .text:0000000000000250 .L0 
  src/../h/Riscv.hpp:93     .text:0000000000000250 .L0 
     /tmp/ccJnPpYh.s:546    .text:0000000000000258 .L0 
     /tmp/ccJnPpYh.s:547    .text:0000000000000258 .L0 
     /tmp/ccJnPpYh.s:553    .text:000000000000025c .L0 
     /tmp/ccJnPpYh.s:567    .text:0000000000000288 .L0 
     /tmp/ccJnPpYh.s:568    .text:0000000000000288 .L0 
     /tmp/ccJnPpYh.s:569    .text:0000000000000288 .L0 
     /tmp/ccJnPpYh.s:570    .text:0000000000000288 .L0 
       src/Riscv.cpp:143    .text:0000000000000288 .L0 
     /tmp/ccJnPpYh.s:580    .text:000000000000028c .L0 
     /tmp/ccJnPpYh.s:581    .text:000000000000028c .L0 
     /tmp/ccJnPpYh.s:582    .text:000000000000028c .L0 
  src/../h/Riscv.hpp:103    .text:000000000000028c .L0 
     /tmp/ccJnPpYh.s:590    .text:0000000000000294 .L0 
     /tmp/ccJnPpYh.s:591    .text:0000000000000294 .L0 
     /tmp/ccJnPpYh.s:596    .text:0000000000000298 .L0 
     /tmp/ccJnPpYh.s:597    .text:0000000000000298 .L0 
GAS LISTING /tmp/ccJnPpYh.s 			page 51


     /tmp/ccJnPpYh.s:601    .text:000000000000029c .L0 
     /tmp/ccJnPpYh.s:611    .text:00000000000002a4 .L0 
     /tmp/ccJnPpYh.s:623    .text:00000000000002ac .L0 
     /tmp/ccJnPpYh.s:637    .text:00000000000002b4 .L0 
     /tmp/ccJnPpYh.s:653    .text:00000000000002bc .L0 
     /tmp/ccJnPpYh.s:671    .text:00000000000002c4 .L0 
     /tmp/ccJnPpYh.s:691    .text:00000000000002cc .L0 
     /tmp/ccJnPpYh.s:713    .text:00000000000002d4 .L0 
     /tmp/ccJnPpYh.s:737    .text:00000000000002dc .L0 
     /tmp/ccJnPpYh.s:763    .text:00000000000002e4 .L0 
     /tmp/ccJnPpYh.s:767    .text:00000000000002ec .L0 
     /tmp/ccJnPpYh.s:768    .text:00000000000002ec .L0 
       src/Riscv.cpp:250    .text:00000000000002ec .L0 
     /tmp/ccJnPpYh.s:775    .text:00000000000002f0 .L0 
     /tmp/ccJnPpYh.s:777    .text:00000000000002f0 .L0 
     /tmp/ccJnPpYh.s:779    .text:00000000000002f4 .L0 
     /tmp/ccJnPpYh.s:788    .text:000000000000030c .L0 
       src/Riscv.cpp:252    .text:000000000000030c .L0 
     /tmp/ccJnPpYh.s:810    .text:0000000000000314 .L0 
     /tmp/ccJnPpYh.s:816    .text:0000000000000324 .L0 
     /tmp/ccJnPpYh.s:817    .text:0000000000000324 .L0 
     /tmp/ccJnPpYh.s:818    .text:0000000000000324 .L0 
     /tmp/ccJnPpYh.s:824    .text:000000000000032c .L0 
     /tmp/ccJnPpYh.s:825    .text:000000000000032c .L0 
     /tmp/ccJnPpYh.s:826    .text:0000000000000330 .L0 
     /tmp/ccJnPpYh.s:827    .text:0000000000000330 .L0 
     /tmp/ccJnPpYh.s:829    .text:0000000000000334 .L0 
     /tmp/ccJnPpYh.s:830    .text:0000000000000334 .L0 
     /tmp/ccJnPpYh.s:832    .text:0000000000000338 .L0 
     /tmp/ccJnPpYh.s:834    .text:000000000000033c .L0 
     /tmp/ccJnPpYh.s:836    .text:0000000000000340 .L0 
     /tmp/ccJnPpYh.s:838    .text:0000000000000344 .L0 
     /tmp/ccJnPpYh.s:840    .text:0000000000000348 .L0 
     /tmp/ccJnPpYh.s:842    .text:000000000000034c .L0 
     /tmp/ccJnPpYh.s:844    .text:0000000000000350 .L0 
     /tmp/ccJnPpYh.s:848    .text:0000000000000354 .L0 
     /tmp/ccJnPpYh.s:852    .text:0000000000000354 .L0 
     /tmp/ccJnPpYh.s:855    .text:0000000000000354 .L0 
     /tmp/ccJnPpYh.s:856    .text:0000000000000354 .L0 
     /tmp/ccJnPpYh.s:857    .text:0000000000000354 .L0 
     /tmp/ccJnPpYh.s:868    .text:000000000000035c .L0 
     /tmp/ccJnPpYh.s:869    .text:000000000000035c .L0 
     /tmp/ccJnPpYh.s:870    .text:000000000000035c .L0 
     /tmp/ccJnPpYh.s:875    .text:0000000000000370 .L0 
     /tmp/ccJnPpYh.s:876    .text:0000000000000370 .L0 
     /tmp/ccJnPpYh.s:879    .text:0000000000000378 .L0 
     /tmp/ccJnPpYh.s:880    .text:0000000000000378 .L0 
     /tmp/ccJnPpYh.s:886    .text:000000000000038c .L0 
     /tmp/ccJnPpYh.s:887    .text:000000000000038c .L0 
     /tmp/ccJnPpYh.s:891    .text:0000000000000394 .L0 
     /tmp/ccJnPpYh.s:892    .text:0000000000000394 .L0 
     /tmp/ccJnPpYh.s:899    .text:00000000000003a0 .L0 
     /tmp/ccJnPpYh.s:900    .text:00000000000003a0 .L0 
     /tmp/ccJnPpYh.s:905    .text:00000000000003a4 .L0 
     /tmp/ccJnPpYh.s:907    .text:00000000000003a8 .L0 
     /tmp/ccJnPpYh.s:912    .text:00000000000003ac .L0 
     /tmp/ccJnPpYh.s:913    .text:00000000000003ac .L0 
GAS LISTING /tmp/ccJnPpYh.s 			page 52


     /tmp/ccJnPpYh.s:914    .text:00000000000003ac .L0 
  src/../h/Riscv.hpp:103    .text:00000000000003ac .L0 
     /tmp/ccJnPpYh.s:922    .text:00000000000003b4 .L0 
     /tmp/ccJnPpYh.s:923    .text:00000000000003b4 .L0 
     /tmp/ccJnPpYh.s:930    .text:00000000000003b8 .L0 
     /tmp/ccJnPpYh.s:931    .text:00000000000003b8 .L0 
     /tmp/ccJnPpYh.s:932    .text:00000000000003b8 .L0 
  src/../h/Riscv.hpp:159    .text:00000000000003b8 .L0 
     /tmp/ccJnPpYh.s:940    .text:00000000000003c0 .L0 
     /tmp/ccJnPpYh.s:941    .text:00000000000003c0 .L0 
     /tmp/ccJnPpYh.s:946    .text:00000000000003c4 .L0 
     /tmp/ccJnPpYh.s:947    .text:00000000000003c4 .L0 
     /tmp/ccJnPpYh.s:950    .text:00000000000003d0 .L0 
     /tmp/ccJnPpYh.s:951    .text:00000000000003d0 .L0 
     /tmp/ccJnPpYh.s:956    .text:00000000000003d8 .L0 
     /tmp/ccJnPpYh.s:957    .text:00000000000003d8 .L0 
  src/../h/Riscv.hpp:164    .text:00000000000003d8 .L0 
     /tmp/ccJnPpYh.s:969    .text:00000000000003dc .L0 
     /tmp/ccJnPpYh.s:970    .text:00000000000003dc .L0 
  src/../h/Riscv.hpp:108    .text:00000000000003dc .L0 
     /tmp/ccJnPpYh.s:977    .text:00000000000003e0 .L0 
     /tmp/ccJnPpYh.s:987    .text:00000000000003e4 .L0 
     /tmp/ccJnPpYh.s:988    .text:00000000000003e4 .L0 
       src/Riscv.cpp:151    .text:00000000000003e4 .L0 
     /tmp/ccJnPpYh.s:995    .text:00000000000003e8 .L0 
     /tmp/ccJnPpYh.s:996    .text:00000000000003e8 .L0 
     /tmp/ccJnPpYh.s:998    .text:00000000000003e8 .L0 
     /tmp/ccJnPpYh.s:1003   .text:00000000000003f4 .L0 
       src/Riscv.cpp:154    .text:00000000000003f4 .L0 
     /tmp/ccJnPpYh.s:1016   .text:00000000000003f8 .L0 
     /tmp/ccJnPpYh.s:1017   .text:00000000000003f8 .L0 
  src/../h/Riscv.hpp:108    .text:00000000000003f8 .L0 
     /tmp/ccJnPpYh.s:1025   .text:00000000000003fc .L0 
     /tmp/ccJnPpYh.s:1034   .text:0000000000000400 .L0 
     /tmp/ccJnPpYh.s:1035   .text:0000000000000400 .L0 
       src/Riscv.cpp:159    .text:0000000000000400 .L0 
     /tmp/ccJnPpYh.s:1042   .text:0000000000000404 .L0 
     /tmp/ccJnPpYh.s:1044   .text:0000000000000404 .L0 
     /tmp/ccJnPpYh.s:1047   .text:000000000000040c .L0 
       src/Riscv.cpp:161    .text:000000000000040c .L0 
     /tmp/ccJnPpYh.s:1060   .text:0000000000000414 .L0 
     /tmp/ccJnPpYh.s:1061   .text:0000000000000414 .L0 
     /tmp/ccJnPpYh.s:1062   .text:0000000000000414 .L0 
     /tmp/ccJnPpYh.s:1063   .text:0000000000000414 .L0 
       src/Riscv.cpp:168    .text:0000000000000414 .L0 
     /tmp/ccJnPpYh.s:1070   .text:0000000000000418 .L0 
       src/Riscv.cpp:169    .text:0000000000000418 .L0 
     /tmp/ccJnPpYh.s:1076   .text:000000000000041c .L0 
       src/Riscv.cpp:170    .text:000000000000041c .L0 
     /tmp/ccJnPpYh.s:1082   .text:0000000000000420 .L0 
     /tmp/ccJnPpYh.s:1084   .text:0000000000000420 .L0 
     /tmp/ccJnPpYh.s:1098   .text:0000000000000448 .L0 
     /tmp/ccJnPpYh.s:1099   .text:0000000000000448 .L0 
     /tmp/ccJnPpYh.s:1101   .text:000000000000044c .L0 
     /tmp/ccJnPpYh.s:1103   .text:0000000000000450 .L0 
       src/Riscv.cpp:182    .text:0000000000000450 .L0 
     /tmp/ccJnPpYh.s:1112   .text:0000000000000458 .L0 
GAS LISTING /tmp/ccJnPpYh.s 			page 53


       src/Riscv.cpp:180    .text:0000000000000458 .L0 
     /tmp/ccJnPpYh.s:1127   .text:0000000000000460 .L0 
     /tmp/ccJnPpYh.s:1128   .text:0000000000000460 .L0 
     /tmp/ccJnPpYh.s:1129   .text:0000000000000460 .L0 
  src/../h/Riscv.hpp:159    .text:0000000000000460 .L0 
     /tmp/ccJnPpYh.s:1138   .text:0000000000000468 .L0 
     /tmp/ccJnPpYh.s:1139   .text:0000000000000468 .L0 
     /tmp/ccJnPpYh.s:1144   .text:000000000000046c .L0 
     /tmp/ccJnPpYh.s:1145   .text:000000000000046c .L0 
     /tmp/ccJnPpYh.s:1149   .text:0000000000000478 .L0 
     /tmp/ccJnPpYh.s:1150   .text:0000000000000478 .L0 
     /tmp/ccJnPpYh.s:1155   .text:0000000000000480 .L0 
     /tmp/ccJnPpYh.s:1156   .text:0000000000000480 .L0 
  src/../h/Riscv.hpp:164    .text:0000000000000480 .L0 
     /tmp/ccJnPpYh.s:1163   .text:0000000000000484 .L0 
     /tmp/ccJnPpYh.s:1172   .text:0000000000000488 .L0 
     /tmp/ccJnPpYh.s:1173   .text:0000000000000488 .L0 
     /tmp/ccJnPpYh.s:1179   .text:0000000000000498 .L0 
     /tmp/ccJnPpYh.s:1180   .text:0000000000000498 .L0 
     /tmp/ccJnPpYh.s:1181   .text:0000000000000498 .L0 
  src/../h/Riscv.hpp:159    .text:0000000000000498 .L0 
     /tmp/ccJnPpYh.s:1189   .text:00000000000004a0 .L0 
     /tmp/ccJnPpYh.s:1190   .text:00000000000004a0 .L0 
     /tmp/ccJnPpYh.s:1195   .text:00000000000004a4 .L0 
     /tmp/ccJnPpYh.s:1196   .text:00000000000004a4 .L0 
     /tmp/ccJnPpYh.s:1199   .text:00000000000004b0 .L0 
     /tmp/ccJnPpYh.s:1200   .text:00000000000004b0 .L0 
     /tmp/ccJnPpYh.s:1220   .text:00000000000004bc .L0 
     /tmp/ccJnPpYh.s:1223   .text:00000000000004bc .L0 
     /tmp/ccJnPpYh.s:1224   .text:00000000000004bc .L0 
     /tmp/ccJnPpYh.s:1225   .text:00000000000004bc .L0 
     /tmp/ccJnPpYh.s:1231   .text:00000000000004c4 .L0 
     /tmp/ccJnPpYh.s:1232   .text:00000000000004c4 .L0 
     /tmp/ccJnPpYh.s:1237   .text:00000000000004cc .L0 
     /tmp/ccJnPpYh.s:1238   .text:00000000000004cc .L0 
  src/../h/Riscv.hpp:164    .text:00000000000004cc .L0 
     /tmp/ccJnPpYh.s:1248   .text:00000000000004d0 .L0 
       src/Riscv.cpp:200    .text:00000000000004d0 .L0 
     /tmp/ccJnPpYh.s:1261   .text:00000000000004d8 .L0 
     /tmp/ccJnPpYh.s:1262   .text:00000000000004d8 .L0 
       src/Riscv.cpp:205    .text:00000000000004d8 .L0 
     /tmp/ccJnPpYh.s:1272   .text:00000000000004dc .L0 
     /tmp/ccJnPpYh.s:1273   .text:00000000000004dc .L0 
     /tmp/ccJnPpYh.s:1274   .text:00000000000004dc .L0 
  src/../h/Riscv.hpp:159    .text:00000000000004dc .L0 
     /tmp/ccJnPpYh.s:1283   .text:00000000000004e4 .L0 
     /tmp/ccJnPpYh.s:1284   .text:00000000000004e4 .L0 
     /tmp/ccJnPpYh.s:1289   .text:00000000000004e8 .L0 
     /tmp/ccJnPpYh.s:1290   .text:00000000000004e8 .L0 
     /tmp/ccJnPpYh.s:1293   .text:00000000000004f4 .L0 
     /tmp/ccJnPpYh.s:1294   .text:00000000000004f4 .L0 
     /tmp/ccJnPpYh.s:1300   .text:0000000000000500 .L0 
     /tmp/ccJnPpYh.s:1301   .text:0000000000000500 .L0 
     /tmp/ccJnPpYh.s:1306   .text:0000000000000504 .L0 
     /tmp/ccJnPpYh.s:1307   .text:0000000000000504 .L0 
     /tmp/ccJnPpYh.s:1310   .text:000000000000050c .L0 
     /tmp/ccJnPpYh.s:1311   .text:000000000000050c .L0 
GAS LISTING /tmp/ccJnPpYh.s 			page 54


     /tmp/ccJnPpYh.s:1316   .text:0000000000000514 .L0 
     /tmp/ccJnPpYh.s:1317   .text:0000000000000514 .L0 
  src/../h/Riscv.hpp:164    .text:0000000000000514 .L0 
     /tmp/ccJnPpYh.s:1327   .text:0000000000000518 .L0 
       src/Riscv.cpp:212    .text:0000000000000518 .L0 
     /tmp/ccJnPpYh.s:1340   .text:0000000000000520 .L0 
     /tmp/ccJnPpYh.s:1341   .text:0000000000000520 .L0 
     /tmp/ccJnPpYh.s:1342   .text:0000000000000520 .L0 
       src/Riscv.cpp:218    .text:0000000000000520 .L0 
     /tmp/ccJnPpYh.s:1349   .text:0000000000000524 .L0 
       src/Riscv.cpp:219    .text:0000000000000524 .L0 
     /tmp/ccJnPpYh.s:1355   .text:0000000000000528 .L0 
     /tmp/ccJnPpYh.s:1357   .text:0000000000000528 .L0 
     /tmp/ccJnPpYh.s:1369   .text:0000000000000544 .L0 
     /tmp/ccJnPpYh.s:1370   .text:0000000000000544 .L0 
     /tmp/ccJnPpYh.s:1372   .text:0000000000000548 .L0 
     /tmp/ccJnPpYh.s:1374   .text:000000000000054c .L0 
       src/Riscv.cpp:228    .text:000000000000054c .L0 
     /tmp/ccJnPpYh.s:1383   .text:0000000000000554 .L0 
       src/Riscv.cpp:226    .text:0000000000000554 .L0 
     /tmp/ccJnPpYh.s:1398   .text:000000000000055c .L0 
     /tmp/ccJnPpYh.s:1399   .text:000000000000055c .L0 
     /tmp/ccJnPpYh.s:1400   .text:000000000000055c .L0 
  src/../h/Riscv.hpp:159    .text:000000000000055c .L0 
     /tmp/ccJnPpYh.s:1409   .text:0000000000000564 .L0 
     /tmp/ccJnPpYh.s:1410   .text:0000000000000564 .L0 
     /tmp/ccJnPpYh.s:1415   .text:0000000000000568 .L0 
     /tmp/ccJnPpYh.s:1416   .text:0000000000000568 .L0 
       src/Riscv.cpp:235    .text:0000000000000568 .L0 
     /tmp/ccJnPpYh.s:1424   .text:000000000000056c .L0 
     /tmp/ccJnPpYh.s:1426   .text:000000000000056c .L0 
     /tmp/ccJnPpYh.s:1431   .text:0000000000000574 .L0 
     /tmp/ccJnPpYh.s:1432   .text:0000000000000574 .L0 
  src/../h/Riscv.hpp:164    .text:0000000000000574 .L0 
     /tmp/ccJnPpYh.s:1442   .text:0000000000000578 .L0 
       src/Riscv.cpp:238    .text:0000000000000578 .L0 
     /tmp/ccJnPpYh.s:1455   .text:0000000000000580 .L0 
     /tmp/ccJnPpYh.s:1456   .text:0000000000000580 .L0 
       src/Riscv.cpp:243    .text:0000000000000580 .L0 
     /tmp/ccJnPpYh.s:1463   .text:0000000000000584 .L0 
     /tmp/ccJnPpYh.s:1465   .text:0000000000000584 .L0 
     /tmp/ccJnPpYh.s:1469   .text:000000000000058c .L0 
       src/Riscv.cpp:245    .text:000000000000058c .L0 
     /tmp/ccJnPpYh.s:1489   .text:0000000000000598 .L0 
     /tmp/ccJnPpYh.s:1507   .text:00000000000005b4 .L0 
     /tmp/ccJnPpYh.s:1525   .text:00000000000005cc .L0 
     /tmp/ccJnPpYh.s:1572   .text:00000000000005cc _ZN5Riscv10kernelMainEv
     /tmp/ccJnPpYh.s:1575   .text:00000000000005cc .L0 
     /tmp/ccJnPpYh.s:1578   .text:00000000000005cc .L0 
     /tmp/ccJnPpYh.s:1579   .text:00000000000005d0 .L0 
     /tmp/ccJnPpYh.s:1584   .text:00000000000005e0 .L0 
     /tmp/ccJnPpYh.s:1585   .text:00000000000005e0 .L0 
     /tmp/ccJnPpYh.s:1586   .text:00000000000005e0 .L0 
     /tmp/ccJnPpYh.s:1587   .text:00000000000005e0 .L0 
     /tmp/ccJnPpYh.s:1589   .text:00000000000005e4 .L0 
     /tmp/ccJnPpYh.s:1592   .text:00000000000005e4 .L0 
     /tmp/ccJnPpYh.s:1593   .text:00000000000005e4 .L0 
GAS LISTING /tmp/ccJnPpYh.s 			page 55


     /tmp/ccJnPpYh.s:1596   .text:00000000000005ec .L0 
     /tmp/ccJnPpYh.s:1597   .text:00000000000005ec .L0 
     /tmp/ccJnPpYh.s:1602   .text:00000000000005fc .L0 
     /tmp/ccJnPpYh.s:1617   .text:0000000000000628 .L0 
     /tmp/ccJnPpYh.s:1620   .text:0000000000000628 .L0 
     /tmp/ccJnPpYh.s:1621   .text:0000000000000628 .L0 
     /tmp/ccJnPpYh.s:1622   .text:0000000000000628 .L0 
     /tmp/ccJnPpYh.s:1627   .text:000000000000062c .L0 
     /tmp/ccJnPpYh.s:1631   .text:0000000000000634 .L0 
     /tmp/ccJnPpYh.s:1632   .text:0000000000000634 .L0 
     /tmp/ccJnPpYh.s:1635   .text:000000000000063c .L0 
     /tmp/ccJnPpYh.s:1638   .text:0000000000000640 .L0 
     /tmp/ccJnPpYh.s:1639   .text:0000000000000640 .L0 
     /tmp/ccJnPpYh.s:1642   .text:0000000000000648 .L0 
     /tmp/ccJnPpYh.s:1643   .text:0000000000000648 .L0 
     /tmp/ccJnPpYh.s:1648   .text:0000000000000658 .L0 
     /tmp/ccJnPpYh.s:1649   .text:000000000000065c .L0 
     /tmp/ccJnPpYh.s:1650   .text:000000000000065c .L0 
     /tmp/ccJnPpYh.s:1652   .text:0000000000000660 .L0 
     /tmp/ccJnPpYh.s:1653   .text:0000000000000660 .L0 
     /tmp/ccJnPpYh.s:1655   .text:0000000000000664 .L0 
     /tmp/ccJnPpYh.s:1657   .text:0000000000000668 .L0 
     /tmp/ccJnPpYh.s:1659   .text:000000000000066c .L0 
     /tmp/ccJnPpYh.s:1662   .text:0000000000000670 .L0 
     /tmp/ccJnPpYh.s:1665   .text:0000000000000674 .L0 
     /tmp/ccJnPpYh.s:1673   .text:000000000000068c .L0 
     /tmp/ccJnPpYh.s:1701   .rodata:0000000000000000 .LANCHOR0
     /tmp/ccJnPpYh.s:1704   .rodata:0000000000000000 _ZZN5Riscv12printIntegerEmE6digits
     /tmp/ccJnPpYh.s:1708   .bss:0000000000000000 .LANCHOR1
     /tmp/ccJnPpYh.s:1711   .bss:0000000000000000 _ZZN5Riscv20handleSupervisorTrapEvE5total
     /tmp/ccJnPpYh.s:1723   .text:000000000000068c .L0 
     /tmp/ccJnPpYh.s:55     .text:0000000000000038 .L0 
     /tmp/ccJnPpYh.s:416    .text:00000000000001a0 .L0 
     /tmp/ccJnPpYh.s:870    .text:000000000000035c .L0 
     /tmp/ccJnPpYh.s:880    .text:0000000000000378 .L0 
     /tmp/ccJnPpYh.s:892    .text:0000000000000394 .L0 
     /tmp/ccJnPpYh.s:947    .text:00000000000003c4 .L0 
     /tmp/ccJnPpYh.s:1145   .text:000000000000046c .L0 
     /tmp/ccJnPpYh.s:492    .rodata.str1.8:0000000000000000 .LC0
     /tmp/ccJnPpYh.s:1173   .text:0000000000000488 .L0 
     /tmp/ccJnPpYh.s:1196   .text:00000000000004a4 .L0 
     /tmp/ccJnPpYh.s:1200   .text:00000000000004b0 .L0 
     /tmp/ccJnPpYh.s:1290   .text:00000000000004e8 .L0 
     /tmp/ccJnPpYh.s:1294   .text:00000000000004f4 .L0 
     /tmp/ccJnPpYh.s:1610   .text:0000000000000618 .L0 
     /tmp/ccJnPpYh.s:1566   .rodata.str1.8:0000000000000018 .LC1
     /tmp/ccJnPpYh.s:1643   .text:0000000000000648 .L0 
     /tmp/ccJnPpYh.s:302    .text:0000000000000134 .L14
     /tmp/ccJnPpYh.s:283    .text:000000000000011c .L15
     /tmp/ccJnPpYh.s:406    .text:0000000000000190 .L18
     /tmp/ccJnPpYh.s:448    .text:00000000000001f0 .L19
     /tmp/ccJnPpYh.s:434    .text:00000000000001d0 .L20
     /tmp/ccJnPpYh.s:847    .text:0000000000000354 .L23
     /tmp/ccJnPpYh.s:797    .text:0000000000000314 .L24
     /tmp/ccJnPpYh.s:821    .text:000000000000032c .L22
     /tmp/ccJnPpYh.s:979    .text:00000000000003e4 .L47
     /tmp/ccJnPpYh.s:1027   .text:0000000000000400 .L48
GAS LISTING /tmp/ccJnPpYh.s 			page 56


     /tmp/ccJnPpYh.s:1056   .text:0000000000000414 .L49
     /tmp/ccJnPpYh.s:1120   .text:0000000000000460 .L50
     /tmp/ccJnPpYh.s:1165   .text:0000000000000488 .L51
     /tmp/ccJnPpYh.s:1257   .text:00000000000004d8 .L52
     /tmp/ccJnPpYh.s:1336   .text:0000000000000520 .L53
     /tmp/ccJnPpYh.s:1391   .text:000000000000055c .L54
     /tmp/ccJnPpYh.s:1451   .text:0000000000000580 .L55
     /tmp/ccJnPpYh.s:1010   .text:00000000000003f8 .L29
     /tmp/ccJnPpYh.s:786    .text:000000000000030c .L40
     /tmp/ccJnPpYh.s:1110   .text:0000000000000458 .L56
     /tmp/ccJnPpYh.s:1381   .text:0000000000000554 .L57
     /tmp/ccJnPpYh.s:1636   .text:0000000000000640 .L59
     /tmp/ccJnPpYh.s:1615   .text:0000000000000628 .L60
     /tmp/ccJnPpYh.s:783    .text:0000000000000304 .LEHB0
     /tmp/ccJnPpYh.s:499    .text:0000000000000224 .LFB32
     /tmp/ccJnPpYh.s:1087   .text:000000000000042c .LEHE0
     /tmp/ccJnPpYh.s:1093   .text:0000000000000440 .LEHB1
     /tmp/ccJnPpYh.s:1096   .text:0000000000000448 .LEHE1
     /tmp/ccJnPpYh.s:1478   .text:0000000000000594 .L43
     /tmp/ccJnPpYh.s:1148   .text:0000000000000478 .LEHB2
     /tmp/ccJnPpYh.s:1360   .text:0000000000000534 .LEHE2
     /tmp/ccJnPpYh.s:1364   .text:000000000000053c .LEHB3
     /tmp/ccJnPpYh.s:1367   .text:0000000000000544 .LEHE3
     /tmp/ccJnPpYh.s:1497   .text:00000000000005b0 .L44
     /tmp/ccJnPpYh.s:1423   .text:000000000000056c .LEHB4
     /tmp/ccJnPpYh.s:1467   .text:000000000000058c .LEHE4
     /tmp/ccJnPpYh.s:1493   .text:00000000000005a8 .LEHB5
     /tmp/ccJnPpYh.s:1496   .text:00000000000005b0 .LEHE5
     /tmp/ccJnPpYh.s:1511   .text:00000000000005c4 .LEHB6
     /tmp/ccJnPpYh.s:1514   .text:00000000000005cc .LEHE6
     /tmp/ccJnPpYh.s:1591   .text:00000000000005e4 .LEHB7
     /tmp/ccJnPpYh.s:1573   .text:00000000000005cc .LFB33
     /tmp/ccJnPpYh.s:1605   .text:0000000000000608 .LEHE7
     /tmp/ccJnPpYh.s:1611   .text:0000000000000620 .LEHB8
     /tmp/ccJnPpYh.s:1614   .text:0000000000000628 .LEHE8
     /tmp/ccJnPpYh.s:1661   .text:0000000000000670 .L62
     /tmp/ccJnPpYh.s:1630   .text:0000000000000634 .LEHB9
     /tmp/ccJnPpYh.s:1646   .text:0000000000000658 .LEHE9
     /tmp/ccJnPpYh.s:1669   .text:0000000000000684 .LEHB10
     /tmp/ccJnPpYh.s:1672   .text:000000000000068c .LEHE10
     /tmp/ccJnPpYh.s:4433   .debug_abbrev:0000000000000000 .Ldebug_abbrev0
     /tmp/ccJnPpYh.s:6311   .debug_str:00000000000001e3 .LASF244
     /tmp/ccJnPpYh.s:6341   .debug_str:0000000000000379 .LASF245
     /tmp/ccJnPpYh.s:6673   .debug_str:0000000000000d2b .LASF246
     /tmp/ccJnPpYh.s:5      .text:0000000000000000 .Ltext0
     /tmp/ccJnPpYh.s:1714   .text:000000000000068c .Letext0
     /tmp/ccJnPpYh.s:6255   .debug_line:0000000000000000 .Ldebug_line0
     /tmp/ccJnPpYh.s:6433   .debug_str:000000000000062f .LASF0
     /tmp/ccJnPpYh.s:6585   .debug_str:0000000000000ad3 .LASF3
     /tmp/ccJnPpYh.s:6471   .debug_str:000000000000076f .LASF1
     /tmp/ccJnPpYh.s:6597   .debug_str:0000000000000b1a .LASF2
     /tmp/ccJnPpYh.s:6613   .debug_str:0000000000000b9e .LASF4
     /tmp/ccJnPpYh.s:6451   .debug_str:00000000000006bc .LASF5
     /tmp/ccJnPpYh.s:6275   .debug_str:000000000000007b .LASF6
     /tmp/ccJnPpYh.s:6567   .debug_str:0000000000000a5a .LASF7
     /tmp/ccJnPpYh.s:6555   .debug_str:0000000000000a0f .LASF8
     /tmp/ccJnPpYh.s:6461   .debug_str:0000000000000736 .LASF9
GAS LISTING /tmp/ccJnPpYh.s 			page 57


     /tmp/ccJnPpYh.s:6403   .debug_str:0000000000000554 .LASF10
     /tmp/ccJnPpYh.s:6413   .debug_str:00000000000005ac .LASF11
     /tmp/ccJnPpYh.s:6327   .debug_str:000000000000032a .LASF12
     /tmp/ccJnPpYh.s:6393   .debug_str:000000000000051c .LASF13
     /tmp/ccJnPpYh.s:6343   .debug_str:0000000000000387 .LASF14
     /tmp/ccJnPpYh.s:6325   .debug_str:000000000000031a .LASF15
     /tmp/ccJnPpYh.s:6647   .debug_str:0000000000000ca2 .LASF16
     /tmp/ccJnPpYh.s:6377   .debug_str:0000000000000462 .LASF17
     /tmp/ccJnPpYh.s:6637   .debug_str:0000000000000c4a .LASF18
     /tmp/ccJnPpYh.s:6711   .debug_str:0000000000000e42 .LASF95
     /tmp/ccJnPpYh.s:6579   .debug_str:0000000000000aa9 .LASF22
     /tmp/ccJnPpYh.s:6477   .debug_str:0000000000000791 .LASF19
     /tmp/ccJnPpYh.s:6383   .debug_str:00000000000004ac .LASF20
     /tmp/ccJnPpYh.s:6727   .debug_str:0000000000000eba .LASF21
     /tmp/ccJnPpYh.s:6695   .debug_str:0000000000000dc5 .LASF23
     /tmp/ccJnPpYh.s:6387   .debug_str:00000000000004d8 .LASF24
     /tmp/ccJnPpYh.s:6663   .debug_str:0000000000000ceb .LASF25
     /tmp/ccJnPpYh.s:6355   .debug_str:00000000000003d5 .LASF26
     /tmp/ccJnPpYh.s:6427   .debug_str:0000000000000606 .LASF27
     /tmp/ccJnPpYh.s:6639   .debug_str:0000000000000c60 .LASF29
     /tmp/ccJnPpYh.s:6521   .debug_str:000000000000090f .LASF28
     /tmp/ccJnPpYh.s:6501   .debug_str:000000000000085c .LASF30
     /tmp/ccJnPpYh.s:6373   .debug_str:0000000000000445 .LASF31
     /tmp/ccJnPpYh.s:6267   .debug_str:0000000000000048 .LASF32
     /tmp/ccJnPpYh.s:6503   .debug_str:0000000000000874 .LASF37
     /tmp/ccJnPpYh.s:6701   .debug_str:0000000000000de9 .LASF39
     /tmp/ccJnPpYh.s:6323   .debug_str:0000000000000309 .LASF33
     /tmp/ccJnPpYh.s:6483   .debug_str:00000000000007cd .LASF34
     /tmp/ccJnPpYh.s:6445   .debug_str:0000000000000695 .LASF35
     /tmp/ccJnPpYh.s:6347   .debug_str:000000000000039e .LASF36
     /tmp/ccJnPpYh.s:6735   .debug_str:0000000000000eee .LASF38
     /tmp/ccJnPpYh.s:6287   .debug_str:00000000000000f9 .LASF40
     /tmp/ccJnPpYh.s:6565   .debug_str:0000000000000a4d .LASF41
     /tmp/ccJnPpYh.s:6291   .debug_str:0000000000000121 .LASF42
     /tmp/ccJnPpYh.s:6623   .debug_str:0000000000000bea .LASF43
     /tmp/ccJnPpYh.s:6381   .debug_str:0000000000000491 .LASF44
     /tmp/ccJnPpYh.s:6439   .debug_str:000000000000066e .LASF45
     /tmp/ccJnPpYh.s:6719   .debug_str:0000000000000e72 .LASF46
     /tmp/ccJnPpYh.s:6691   .debug_str:0000000000000db7 .LASF49
     /tmp/ccJnPpYh.s:6679   .debug_str:0000000000000d5d .LASF51
     /tmp/ccJnPpYh.s:6593   .debug_str:0000000000000b06 .LASF47
     /tmp/ccJnPpYh.s:6537   .debug_str:0000000000000976 .LASF48
     /tmp/ccJnPpYh.s:6573   .debug_str:0000000000000a7b .LASF50
     /tmp/ccJnPpYh.s:6575   .debug_str:0000000000000a82 .LASF52
     /tmp/ccJnPpYh.s:6533   .debug_str:000000000000095b .LASF53
     /tmp/ccJnPpYh.s:6463   .debug_str:0000000000000749 .LASF54
     /tmp/ccJnPpYh.s:6721   .debug_str:0000000000000e8c .LASF55
     /tmp/ccJnPpYh.s:6669   .debug_str:0000000000000d0d .LASF56
     /tmp/ccJnPpYh.s:6529   .debug_str:000000000000094a .LASF57
     /tmp/ccJnPpYh.s:6535   .debug_str:0000000000000962 .LASF58
     /tmp/ccJnPpYh.s:6513   .debug_str:00000000000008cb .LASF59
     /tmp/ccJnPpYh.s:6577   .debug_str:0000000000000a95 .LASF60
     /tmp/ccJnPpYh.s:6761   .debug_str:0000000000000fa5 .LASF61
     /tmp/ccJnPpYh.s:6443   .debug_str:0000000000000681 .LASF62
     /tmp/ccJnPpYh.s:6643   .debug_str:0000000000000c94 .LASF63
     /tmp/ccJnPpYh.s:6617   .debug_str:0000000000000bc8 .LASF64
     /tmp/ccJnPpYh.s:6619   .debug_str:0000000000000bdb .LASF65
GAS LISTING /tmp/ccJnPpYh.s 			page 58


     /tmp/ccJnPpYh.s:6333   .debug_str:0000000000000347 .LASF66
     /tmp/ccJnPpYh.s:6367   .debug_str:000000000000041a .LASF67
     /tmp/ccJnPpYh.s:6279   .debug_str:000000000000008d .LASF68
     /tmp/ccJnPpYh.s:6441   .debug_str:000000000000067b .LASF69
     /tmp/ccJnPpYh.s:6359   .debug_str:00000000000003f4 .LASF70
     /tmp/ccJnPpYh.s:6277   .debug_str:0000000000000082 .LASF71
     /tmp/ccJnPpYh.s:6603   .debug_str:0000000000000b40 .LASF72
     /tmp/ccJnPpYh.s:6595   .debug_str:0000000000000b0f .LASF73
     /tmp/ccJnPpYh.s:6749   .debug_str:0000000000000f46 .LASF74
     /tmp/ccJnPpYh.s:6713   .debug_str:0000000000000e48 .LASF75
     /tmp/ccJnPpYh.s:6733   .debug_str:0000000000000ed8 .LASF76
     /tmp/ccJnPpYh.s:6703   .debug_str:0000000000000e07 .LASF77
     /tmp/ccJnPpYh.s:6505   .debug_str:0000000000000884 .LASF78
     /tmp/ccJnPpYh.s:6421   .debug_str:00000000000005e0 .LASF79
     /tmp/ccJnPpYh.s:6429   .debug_str:0000000000000611 .LASF80
     /tmp/ccJnPpYh.s:6683   .debug_str:0000000000000d7e .LASF81
     /tmp/ccJnPpYh.s:6411   .debug_str:0000000000000590 .LASF82
     /tmp/ccJnPpYh.s:6561   .debug_str:0000000000000a2f .LASF83
     /tmp/ccJnPpYh.s:6459   .debug_str:0000000000000714 .LASF84
     /tmp/ccJnPpYh.s:6589   .debug_str:0000000000000afa .LASF85
     /tmp/ccJnPpYh.s:6271   .debug_str:0000000000000066 .LASF86
     /tmp/ccJnPpYh.s:6303   .debug_str:00000000000001aa .LASF87
     /tmp/ccJnPpYh.s:6681   .debug_str:0000000000000d72 .LASF88
     /tmp/ccJnPpYh.s:6305   .debug_str:00000000000001b9 .LASF89
     /tmp/ccJnPpYh.s:6517   .debug_str:00000000000008f8 .LASF90
     /tmp/ccJnPpYh.s:6415   .debug_str:00000000000005ba .LASF91
     /tmp/ccJnPpYh.s:6369   .debug_str:0000000000000420 .LASF92
     /tmp/ccJnPpYh.s:6321   .debug_str:00000000000002f5 .LASF93
     /tmp/ccJnPpYh.s:6657   .debug_str:0000000000000cd8 .LASF94
     /tmp/ccJnPpYh.s:6659   .debug_str:0000000000000cdd .LASF96
     /tmp/ccJnPpYh.s:6319   .debug_str:00000000000002ef .LASF97
     /tmp/ccJnPpYh.s:6629   .debug_str:0000000000000c12 .LASF98
     /tmp/ccJnPpYh.s:6335   .debug_str:000000000000035a .LASF99
     /tmp/ccJnPpYh.s:6307   .debug_str:00000000000001cc .LASF100
     /tmp/ccJnPpYh.s:6557   .debug_str:0000000000000a22 .LASF101
     /tmp/ccJnPpYh.s:6467   .debug_str:0000000000000761 .LASF102
     /tmp/ccJnPpYh.s:6655   .debug_str:0000000000000cd0 .LASF146
     /tmp/ccJnPpYh.s:6423   .debug_str:00000000000005eb .LASF103
     /tmp/ccJnPpYh.s:6525   .debug_str:0000000000000929 .LASF247
     /tmp/ccJnPpYh.s:6541   .debug_str:0000000000000992 .LASF248
     /tmp/ccJnPpYh.s:6469   .debug_str:000000000000076a .LASF104
     /tmp/ccJnPpYh.s:6747   .debug_str:0000000000000f3a .LASF106
     /tmp/ccJnPpYh.s:6743   .debug_str:0000000000000f1e .LASF105
     /tmp/ccJnPpYh.s:6667   .debug_str:0000000000000cfd .LASF107
     /tmp/ccJnPpYh.s:6361   .debug_str:0000000000000406 .LASF108
     /tmp/ccJnPpYh.s:6285   .debug_str:00000000000000e6 .LASF109
     /tmp/ccJnPpYh.s:6475   .debug_str:000000000000078b .LASF110
     /tmp/ccJnPpYh.s:6543   .debug_str:0000000000000997 .LASF111
     /tmp/ccJnPpYh.s:6661   .debug_str:0000000000000ce3 .LASF112
     /tmp/ccJnPpYh.s:6625   .debug_str:0000000000000bf8 .LASF113
     /tmp/ccJnPpYh.s:6499   .debug_str:000000000000084f .LASF118
     /tmp/ccJnPpYh.s:6485   .debug_str:00000000000007eb .LASF120
     /tmp/ccJnPpYh.s:6753   .debug_str:0000000000000f6e .LASF114
     /tmp/ccJnPpYh.s:6397   .debug_str:0000000000000535 .LASF115
     /tmp/ccJnPpYh.s:6435   .debug_str:000000000000063c .LASF116
     /tmp/ccJnPpYh.s:6447   .debug_str:00000000000006a7 .LASF117
     /tmp/ccJnPpYh.s:6627   .debug_str:0000000000000c09 .LASF119
GAS LISTING /tmp/ccJnPpYh.s 			page 59


     /tmp/ccJnPpYh.s:6357   .debug_str:00000000000003e1 .LASF121
     /tmp/ccJnPpYh.s:6607   .debug_str:0000000000000b64 .LASF122
     /tmp/ccJnPpYh.s:6641   .debug_str:0000000000000c78 .LASF123
     /tmp/ccJnPpYh.s:6523   .debug_str:000000000000091a .LASF124
     /tmp/ccJnPpYh.s:6263   .debug_str:0000000000000029 .LASF125
     /tmp/ccJnPpYh.s:6731   .debug_str:0000000000000ec9 .LASF126
     /tmp/ccJnPpYh.s:6551   .debug_str:00000000000009ee .LASF127
     /tmp/ccJnPpYh.s:6635   .debug_str:0000000000000c3c .LASF128
     /tmp/ccJnPpYh.s:6571   .debug_str:0000000000000a6f .LASF129
     /tmp/ccJnPpYh.s:6259   .debug_str:000000000000000d .LASF130
     /tmp/ccJnPpYh.s:6737   .debug_str:0000000000000efa .LASF131
     /tmp/ccJnPpYh.s:6453   .debug_str:00000000000006ce .LASF134
     /tmp/ccJnPpYh.s:6633   .debug_str:0000000000000c31 .LASF132
     /tmp/ccJnPpYh.s:6745   .debug_str:0000000000000f24 .LASF133
     /tmp/ccJnPpYh.s:6621   .debug_str:0000000000000be2 .LASF135
     /tmp/ccJnPpYh.s:6671   .debug_str:0000000000000d21 .LASF136
     /tmp/ccJnPpYh.s:6545   .debug_str:00000000000009a7 .LASF137
     /tmp/ccJnPpYh.s:6351   .debug_str:00000000000003c2 .LASF138
     /tmp/ccJnPpYh.s:6297   .debug_str:0000000000000168 .LASF140
     /tmp/ccJnPpYh.s:6295   .debug_str:0000000000000153 .LASF139
     /tmp/ccJnPpYh.s:6317   .debug_str:00000000000002c3 .LASF141
     /tmp/ccJnPpYh.s:6757   .debug_str:0000000000000f86 .LASF249
     /tmp/ccJnPpYh.s:6315   .debug_str:00000000000002b2 .LASF250
     /tmp/ccJnPpYh.s:6265   .debug_str:0000000000000043 .LASF142
     /tmp/ccJnPpYh.s:6693   .debug_str:0000000000000dc0 .LASF143
     /tmp/ccJnPpYh.s:6489   .debug_str:000000000000081d .LASF144
     /tmp/ccJnPpYh.s:6365   .debug_str:0000000000000414 .LASF145
     /tmp/ccJnPpYh.s:6677   .debug_str:0000000000000d55 .LASF147
     /tmp/ccJnPpYh.s:6495   .debug_str:0000000000000836 .LASF148
     /tmp/ccJnPpYh.s:6583   .debug_str:0000000000000ac8 .LASF149
     /tmp/ccJnPpYh.s:6409   .debug_str:000000000000057c .LASF150
     /tmp/ccJnPpYh.s:6601   .debug_str:0000000000000b34 .LASF151
     /tmp/ccJnPpYh.s:6581   .debug_str:0000000000000ab4 .LASF152
     /tmp/ccJnPpYh.s:6363   .debug_str:000000000000040f .LASF153
     /tmp/ccJnPpYh.s:6631   .debug_str:0000000000000c1a .LASF154
     /tmp/ccJnPpYh.s:6651   .debug_str:0000000000000cc1 .LASF155
     /tmp/ccJnPpYh.s:6379   .debug_str:0000000000000478 .LASF156
     /tmp/ccJnPpYh.s:6261   .debug_str:000000000000001d .LASF157
     /tmp/ccJnPpYh.s:6605   .debug_str:0000000000000b58 .LASF158
     /tmp/ccJnPpYh.s:6497   .debug_str:000000000000083b .LASF159
     /tmp/ccJnPpYh.s:6425   .debug_str:00000000000005f1 .LASF160
     /tmp/ccJnPpYh.s:6331   .debug_str:000000000000033e .LASF161
     /tmp/ccJnPpYh.s:6337   .debug_str:0000000000000364 .LASF162
     /tmp/ccJnPpYh.s:6527   .debug_str:0000000000000941 .LASF163
     /tmp/ccJnPpYh.s:6611   .debug_str:0000000000000b93 .LASF164
     /tmp/ccJnPpYh.s:6473   .debug_str:0000000000000782 .LASF165
     /tmp/ccJnPpYh.s:6431   .debug_str:0000000000000629 .LASF166
     /tmp/ccJnPpYh.s:6759   .debug_str:0000000000000f8d .LASF167
     /tmp/ccJnPpYh.s:6269   .debug_str:000000000000005e .LASF168
     /tmp/ccJnPpYh.s:6487   .debug_str:0000000000000803 .LASF169
     /tmp/ccJnPpYh.s:6751   .debug_str:0000000000000f5e .LASF170
     /tmp/ccJnPpYh.s:6615   .debug_str:0000000000000ba5 .LASF171
     /tmp/ccJnPpYh.s:6649   .debug_str:0000000000000cae .LASF172
     /tmp/ccJnPpYh.s:6609   .debug_str:0000000000000b6d .LASF173
     /tmp/ccJnPpYh.s:6257   .debug_str:0000000000000000 .LASF174
     /tmp/ccJnPpYh.s:6283   .debug_str:00000000000000c2 .LASF175
     /tmp/ccJnPpYh.s:6725   .debug_str:0000000000000ead .LASF176
GAS LISTING /tmp/ccJnPpYh.s 			page 60


     /tmp/ccJnPpYh.s:6511   .debug_str:00000000000008bb .LASF177
     /tmp/ccJnPpYh.s:6371   .debug_str:0000000000000433 .LASF178
     /tmp/ccJnPpYh.s:6389   .debug_str:00000000000004e4 .LASF179
     /tmp/ccJnPpYh.s:6309   .debug_str:00000000000001d5 .LASF180
     /tmp/ccJnPpYh.s:6281   .debug_str:000000000000009f .LASF181
     /tmp/ccJnPpYh.s:6531   .debug_str:0000000000000952 .LASF182
     /tmp/ccJnPpYh.s:6349   .debug_str:00000000000003bd .LASF183
     /tmp/ccJnPpYh.s:6329   .debug_str:0000000000000339 .LASF184
     /tmp/ccJnPpYh.s:6465   .debug_str:000000000000075c .LASF185
     /tmp/ccJnPpYh.s:6395   .debug_str:000000000000052b .LASF186
     /tmp/ccJnPpYh.s:6739   .debug_str:0000000000000f05 .LASF187
     /tmp/ccJnPpYh.s:6339   .debug_str:000000000000036e .LASF188
     /tmp/ccJnPpYh.s:6417   .debug_str:00000000000005cd .LASF189
     /tmp/ccJnPpYh.s:6547   .debug_str:00000000000009b3 .LASF190
     /tmp/ccJnPpYh.s:6509   .debug_str:00000000000008a7 .LASF191
     /tmp/ccJnPpYh.s:6653   .debug_str:0000000000000cc8 .LASF192
     /tmp/ccJnPpYh.s:6515   .debug_str:00000000000008d3 .LASF193
     /tmp/ccJnPpYh.s:6449   .debug_str:00000000000006b4 .LASF194
     /tmp/ccJnPpYh.s:6705   .debug_str:0000000000000e11 .LASF195
     /tmp/ccJnPpYh.s:6687   .debug_str:0000000000000d9f .LASF196
     /tmp/ccJnPpYh.s:6437   .debug_str:000000000000064c .LASF197
     /tmp/ccJnPpYh.s:6685   .debug_str:0000000000000d8d .LASF198
     /tmp/ccJnPpYh.s:6587   .debug_str:0000000000000ad8 .LASF199
     /tmp/ccJnPpYh.s:6301   .debug_str:0000000000000197 .LASF200
     /tmp/ccJnPpYh.s:6313   .debug_str:000000000000028f .LASF201
     /tmp/ccJnPpYh.s:6375   .debug_str:000000000000044f .LASF202
     /tmp/ccJnPpYh.s:6385   .debug_str:00000000000004b5 .LASF203
     /tmp/ccJnPpYh.s:6479   .debug_str:000000000000079a .LASF204
     /tmp/ccJnPpYh.s:6723   .debug_str:0000000000000e94 .LASF205
     /tmp/ccJnPpYh.s:6455   .debug_str:00000000000006db .LASF206
     /tmp/ccJnPpYh.s:6481   .debug_str:00000000000007b5 .LASF207
     /tmp/ccJnPpYh.s:6549   .debug_str:00000000000009c6 .LASF208
     /tmp/ccJnPpYh.s:6391   .debug_str:000000000000050b .LASF209
     /tmp/ccJnPpYh.s:6715   .debug_str:0000000000000e52 .LASF210
     /tmp/ccJnPpYh.s:6401   .debug_str:0000000000000547 .LASF211
     /tmp/ccJnPpYh.s:6273   .debug_str:000000000000006e .LASF212
     /tmp/ccJnPpYh.s:10     .text:0000000000000000 .LFB34
     /tmp/ccJnPpYh.s:36     .text:0000000000000028 .LFE34
     /tmp/ccJnPpYh.s:25     .text:0000000000000018 .LVL0
     /tmp/ccJnPpYh.s:1674   .text:000000000000068c .LFE33
     /tmp/ccJnPpYh.s:6407   .debug_str:0000000000000574 .LASF232
     /tmp/ccJnPpYh.s:1618   .text:0000000000000628 .LBB256
     /tmp/ccJnPpYh.s:1625   .text:000000000000062c .LBE256
     /tmp/ccJnPpYh.s:5653   .debug_loc:0000000000000000 .LLST52
     /tmp/ccJnPpYh.s:1594   .text:00000000000005ec .LVL114
     /tmp/ccJnPpYh.s:1599   .text:00000000000005f8 .LVL115
     /tmp/ccJnPpYh.s:1604   .text:0000000000000608 .LVL116
     /tmp/ccJnPpYh.s:1613   .text:0000000000000628 .LVL117
     /tmp/ccJnPpYh.s:1633   .text:000000000000063c .LVL119
     /tmp/ccJnPpYh.s:1640   .text:0000000000000648 .LVL120
     /tmp/ccJnPpYh.s:1645   .text:0000000000000658 .LVL121
     /tmp/ccJnPpYh.s:1667   .text:0000000000000680 .LVL122
     /tmp/ccJnPpYh.s:1671   .text:000000000000068c .LVL123
     /tmp/ccJnPpYh.s:1526   .text:00000000000005cc .LFE32
     /tmp/ccJnPpYh.s:5660   .debug_loc:0000000000000023 .LLST12
     /tmp/ccJnPpYh.s:6345   .debug_str:0000000000000397 .LASF213
     /tmp/ccJnPpYh.s:5703   .debug_loc:00000000000000f1 .LLST13
GAS LISTING /tmp/ccJnPpYh.s 			page 61


     /tmp/ccJnPpYh.s:6207   .debug_ranges:0000000000000000 .Ldebug_ranges0
     /tmp/ccJnPpYh.s:6689   .debug_str:0000000000000db1 .LASF214
     /tmp/ccJnPpYh.s:6493   .debug_str:000000000000082c .LASF215
     /tmp/ccJnPpYh.s:5724   .debug_loc:000000000000014f .LLST14
     /tmp/ccJnPpYh.s:6665   .debug_str:0000000000000cf8 .LASF216
     /tmp/ccJnPpYh.s:5767   .debug_loc:000000000000021d .LLST15
     /tmp/ccJnPpYh.s:908    .text:00000000000003ac .LBB219
     /tmp/ccJnPpYh.s:982    .text:00000000000003e4 .LBE219
     /tmp/ccJnPpYh.s:5778   .debug_loc:0000000000000253 .LLST47
     /tmp/ccJnPpYh.s:6419   .debug_str:00000000000005d8 .LASF217
     /tmp/ccJnPpYh.s:5785   .debug_loc:0000000000000276 .LLST48
     /tmp/ccJnPpYh.s:910    .text:00000000000003ac .LBB220
     /tmp/ccJnPpYh.s:926    .text:00000000000003b8 .LBE220
     /tmp/ccJnPpYh.s:928    .text:00000000000003b8 .LBB222
     /tmp/ccJnPpYh.s:944    .text:00000000000003c4 .LBE222
     /tmp/ccJnPpYh.s:954    .text:00000000000003d8 .LBB224
     /tmp/ccJnPpYh.s:965    .text:00000000000003dc .LBE224
     /tmp/ccJnPpYh.s:5792   .debug_loc:0000000000000299 .LLST49
     /tmp/ccJnPpYh.s:967    .text:00000000000003dc .LBB226
     /tmp/ccJnPpYh.s:981    .text:00000000000003e4 .LBE226
     /tmp/ccJnPpYh.s:5799   .debug_loc:00000000000002bc .LLST50
     /tmp/ccJnPpYh.s:952    .text:00000000000003d8 .LVL55
     /tmp/ccJnPpYh.s:985    .text:00000000000003e4 .LBB202
     /tmp/ccJnPpYh.s:1011   .text:00000000000003f8 .LBE202
     /tmp/ccJnPpYh.s:6519   .debug_str:000000000000090a .LASF218
     /tmp/ccJnPpYh.s:5806   .debug_loc:00000000000002df .LLST43
     /tmp/ccJnPpYh.s:6717   .debug_str:0000000000000e64 .LASF219
     /tmp/ccJnPpYh.s:5821   .debug_loc:0000000000000319 .LLST44
     /tmp/ccJnPpYh.s:1001   .text:00000000000003f4 .LVL60
     /tmp/ccJnPpYh.s:1032   .text:0000000000000400 .LBB191
     /tmp/ccJnPpYh.s:1053   .text:0000000000000410 .LBE191
     /tmp/ccJnPpYh.s:6591   .debug_str:0000000000000b01 .LASF220
     /tmp/ccJnPpYh.s:5828   .debug_loc:000000000000033c .LLST41
     /tmp/ccJnPpYh.s:6299   .debug_str:0000000000000190 .LASF221
     /tmp/ccJnPpYh.s:5840   .debug_loc:0000000000000373 .LLST42
     /tmp/ccJnPpYh.s:1045   .text:000000000000040c .LVL65
     /tmp/ccJnPpYh.s:6569   .debug_str:0000000000000a61 .LASF222
     /tmp/ccJnPpYh.s:5847   .debug_loc:0000000000000396 .LLST37
     /tmp/ccJnPpYh.s:5858   .debug_loc:00000000000003cc .LLST38
     /tmp/ccJnPpYh.s:6289   .debug_str:0000000000000114 .LASF223
     /tmp/ccJnPpYh.s:5869   .debug_loc:0000000000000402 .LLST39
     /tmp/ccJnPpYh.s:6539   .debug_str:000000000000098b .LASF224
     /tmp/ccJnPpYh.s:5880   .debug_loc:0000000000000438 .LLST40
     /tmp/ccJnPpYh.s:1086   .text:000000000000042c .LVL70
     /tmp/ccJnPpYh.s:1095   .text:0000000000000448 .LVL71
     /tmp/ccJnPpYh.s:1491   .text:00000000000005a4 .LVL109
     /tmp/ccJnPpYh.s:1123   .text:0000000000000460 .LBB165
     /tmp/ccJnPpYh.s:1168   .text:0000000000000488 .LBE165
     /tmp/ccJnPpYh.s:5887   .debug_loc:000000000000045b .LLST35
     /tmp/ccJnPpYh.s:1125   .text:0000000000000460 .LBB166
     /tmp/ccJnPpYh.s:1142   .text:000000000000046c .LBE166
     /tmp/ccJnPpYh.s:1153   .text:0000000000000480 .LBB168
     /tmp/ccJnPpYh.s:1167   .text:0000000000000488 .LBE168
     /tmp/ccJnPpYh.s:5894   .debug_loc:000000000000047e .LLST36
     /tmp/ccJnPpYh.s:1151   .text:0000000000000480 .LVL75
     /tmp/ccJnPpYh.s:5901   .debug_loc:00000000000004a1 .LLST31
     /tmp/ccJnPpYh.s:1177   .text:0000000000000498 .LBB151
GAS LISTING /tmp/ccJnPpYh.s 			page 62


     /tmp/ccJnPpYh.s:1193   .text:00000000000004a4 .LBE151
     /tmp/ccJnPpYh.s:1221   .text:00000000000004bc .LBB153
     /tmp/ccJnPpYh.s:1229   .text:00000000000004c4 .LBE153
     /tmp/ccJnPpYh.s:5908   .debug_loc:00000000000004c4 .LLST32
     /tmp/ccJnPpYh.s:5916   .debug_loc:00000000000004e8 .LLST33
     /tmp/ccJnPpYh.s:1235   .text:00000000000004cc .LBB155
     /tmp/ccJnPpYh.s:1246   .text:00000000000004d0 .LBE155
     /tmp/ccJnPpYh.s:5923   .debug_loc:000000000000050b .LLST34
     /tmp/ccJnPpYh.s:1175   .text:0000000000000498 .LVL77
     /tmp/ccJnPpYh.s:1233   .text:00000000000004cc .LVL81
     /tmp/ccJnPpYh.s:1259   .text:00000000000004d8 .LBB137
     /tmp/ccJnPpYh.s:1333   .text:000000000000051c .LBE137
     /tmp/ccJnPpYh.s:6559   .debug_str:0000000000000a2a .LASF225
     /tmp/ccJnPpYh.s:5930   .debug_loc:000000000000052e .LLST26
     /tmp/ccJnPpYh.s:5937   .debug_loc:0000000000000551 .LLST27
     /tmp/ccJnPpYh.s:1270   .text:00000000000004dc .LBB138
     /tmp/ccJnPpYh.s:1287   .text:00000000000004e8 .LBE138
     /tmp/ccJnPpYh.s:1297   .text:0000000000000500 .LBB140
     /tmp/ccJnPpYh.s:1304   .text:0000000000000504 .LBE140
     /tmp/ccJnPpYh.s:5944   .debug_loc:0000000000000574 .LLST28
     /tmp/ccJnPpYh.s:5951   .debug_loc:0000000000000597 .LLST29
     /tmp/ccJnPpYh.s:1314   .text:0000000000000514 .LBB142
     /tmp/ccJnPpYh.s:1325   .text:0000000000000518 .LBE142
     /tmp/ccJnPpYh.s:5958   .debug_loc:00000000000005ba .LLST30
     /tmp/ccJnPpYh.s:1308   .text:000000000000050c .LVL89
     /tmp/ccJnPpYh.s:1312   .text:0000000000000514 .LVL90
     /tmp/ccJnPpYh.s:5965   .debug_loc:00000000000005dd .LLST23
     /tmp/ccJnPpYh.s:6457   .debug_str:0000000000000704 .LASF226
     /tmp/ccJnPpYh.s:5976   .debug_loc:0000000000000613 .LLST24
     /tmp/ccJnPpYh.s:6553   .debug_str:0000000000000a08 .LASF227
     /tmp/ccJnPpYh.s:5987   .debug_loc:0000000000000649 .LLST25
     /tmp/ccJnPpYh.s:1359   .text:0000000000000534 .LVL95
     /tmp/ccJnPpYh.s:1366   .text:0000000000000544 .LVL97
     /tmp/ccJnPpYh.s:1509   .text:00000000000005c0 .LVL112
     /tmp/ccJnPpYh.s:1394   .text:000000000000055c .LBB123
     /tmp/ccJnPpYh.s:1448   .text:000000000000057c .LBE123
     /tmp/ccJnPpYh.s:5994   .debug_loc:000000000000066c .LLST19
     /tmp/ccJnPpYh.s:6709   .debug_str:0000000000000e3d .LASF228
     /tmp/ccJnPpYh.s:6001   .debug_loc:000000000000068f .LLST20
     /tmp/ccJnPpYh.s:6008   .debug_loc:00000000000006b2 .LLST21
     /tmp/ccJnPpYh.s:1396   .text:000000000000055c .LBB124
     /tmp/ccJnPpYh.s:1413   .text:0000000000000568 .LBE124
     /tmp/ccJnPpYh.s:1429   .text:0000000000000574 .LBB126
     /tmp/ccJnPpYh.s:1440   .text:0000000000000578 .LBE126
     /tmp/ccJnPpYh.s:6015   .debug_loc:00000000000006d5 .LLST22
     /tmp/ccJnPpYh.s:1427   .text:0000000000000574 .LVL102
     /tmp/ccJnPpYh.s:1453   .text:0000000000000580 .LBB121
     /tmp/ccJnPpYh.s:1475   .text:0000000000000590 .LBE121
     /tmp/ccJnPpYh.s:6022   .debug_loc:00000000000006f8 .LLST17
     /tmp/ccJnPpYh.s:6029   .debug_loc:000000000000071b .LLST18
     /tmp/ccJnPpYh.s:1466   .text:000000000000058c .LVL106
     /tmp/ccJnPpYh.s:765    .text:00000000000002ec .LBB120
     /tmp/ccJnPpYh.s:794    .text:0000000000000310 .LBE120
     /tmp/ccJnPpYh.s:6036   .debug_loc:000000000000073e .LLST16
     /tmp/ccJnPpYh.s:781    .text:0000000000000300 .LVL41
     /tmp/ccJnPpYh.s:785    .text:000000000000030c .LVL42
     /tmp/ccJnPpYh.s:578    .text:000000000000028c .LBB108
GAS LISTING /tmp/ccJnPpYh.s 			page 63


     /tmp/ccJnPpYh.s:594    .text:0000000000000298 .LBE108
     /tmp/ccJnPpYh.s:853    .text:0000000000000354 .LBB214
     /tmp/ccJnPpYh.s:866    .text:000000000000035c .LBE214
     /tmp/ccJnPpYh.s:6043   .debug_loc:0000000000000761 .LLST45
     /tmp/ccJnPpYh.s:895    .text:00000000000003a0 .LBB217
     /tmp/ccJnPpYh.s:903    .text:00000000000003a4 .LBE217
     /tmp/ccJnPpYh.s:6051   .debug_loc:0000000000000785 .LLST46
     /tmp/ccJnPpYh.s:1014   .text:00000000000003f8 .LBB229
     /tmp/ccJnPpYh.s:1029   .text:0000000000000400 .LBE229
     /tmp/ccJnPpYh.s:6058   .debug_loc:00000000000007a8 .LLST51
     /tmp/ccJnPpYh.s:819    .text:000000000000032c .LVL44
     /tmp/ccJnPpYh.s:877    .text:0000000000000378 .LVL48
     /tmp/ccJnPpYh.s:888    .text:0000000000000394 .LVL50
     /tmp/ccJnPpYh.s:534    .text:0000000000000250 .LBB104
     /tmp/ccJnPpYh.s:550    .text:000000000000025c .LBE104
     /tmp/ccJnPpYh.s:1495   .text:00000000000005b0 .LVL110
     /tmp/ccJnPpYh.s:1513   .text:00000000000005cc .LVL113
     /tmp/ccJnPpYh.s:344    .text:000000000000015c .LFB31
     /tmp/ccJnPpYh.s:488    .text:0000000000000224 .LFE31
     /tmp/ccJnPpYh.s:6065   .debug_loc:00000000000007cb .LLST6
     /tmp/ccJnPpYh.s:6079   .debug_loc:0000000000000804 .LLST7
     /tmp/ccJnPpYh.s:6675   .debug_str:0000000000000d4e .LASF229
     /tmp/ccJnPpYh.s:6086   .debug_loc:0000000000000827 .LLST8
     /tmp/ccJnPpYh.s:6108   .debug_loc:0000000000000886 .LLST9
     /tmp/ccJnPpYh.s:361    .text:0000000000000174 .LBB98
     /tmp/ccJnPpYh.s:377    .text:0000000000000180 .LBE98
     /tmp/ccJnPpYh.s:379    .text:0000000000000180 .LBB100
     /tmp/ccJnPpYh.s:391    .text:0000000000000188 .LBE100
     /tmp/ccJnPpYh.s:6130   .debug_loc:00000000000008c7 .LLST10
     /tmp/ccJnPpYh.s:462    .text:0000000000000208 .LBB102
     /tmp/ccJnPpYh.s:473    .text:000000000000020c .LBE102
     /tmp/ccJnPpYh.s:6138   .debug_loc:00000000000008eb .LLST11
     /tmp/ccJnPpYh.s:446    .text:00000000000001ec .LVL29
     /tmp/ccJnPpYh.s:453    .text:00000000000001fc .LVL30
     /tmp/ccJnPpYh.s:236    .text:00000000000000ec .LFB30
     /tmp/ccJnPpYh.s:338    .text:000000000000015c .LFE30
     /tmp/ccJnPpYh.s:6645   .debug_str:0000000000000c9b .LASF230
     /tmp/ccJnPpYh.s:6145   .debug_loc:000000000000090e .LLST2
     /tmp/ccJnPpYh.s:6156   .debug_loc:0000000000000944 .LLST3
     /tmp/ccJnPpYh.s:254    .text:0000000000000108 .LBB92
     /tmp/ccJnPpYh.s:270    .text:0000000000000114 .LBE92
     /tmp/ccJnPpYh.s:272    .text:0000000000000114 .LBB94
     /tmp/ccJnPpYh.s:285    .text:000000000000011c .LBE94
     /tmp/ccJnPpYh.s:6163   .debug_loc:0000000000000967 .LLST4
     /tmp/ccJnPpYh.s:311    .text:0000000000000140 .LBB96
     /tmp/ccJnPpYh.s:322    .text:0000000000000144 .LBE96
     /tmp/ccJnPpYh.s:6171   .debug_loc:000000000000098b .LLST5
     /tmp/ccJnPpYh.s:295    .text:000000000000012c .LVL13
     /tmp/ccJnPpYh.s:201    .text:00000000000000cc .LFB29
     /tmp/ccJnPpYh.s:230    .text:00000000000000ec .LFE29
     /tmp/ccJnPpYh.s:132    .text:0000000000000084 .LFB28
     /tmp/ccJnPpYh.s:164    .text:00000000000000a4 .LFE28
     /tmp/ccJnPpYh.s:143    .text:0000000000000090 .LBB90
     /tmp/ccJnPpYh.s:155    .text:0000000000000098 .LBE90
     /tmp/ccJnPpYh.s:6178   .debug_loc:00000000000009ae .LLST1
     /tmp/ccJnPpYh.s:94     .text:0000000000000064 .LFB27
     /tmp/ccJnPpYh.s:126    .text:0000000000000084 .LFE27
GAS LISTING /tmp/ccJnPpYh.s 			page 64


     /tmp/ccJnPpYh.s:105    .text:0000000000000070 .LBB88
     /tmp/ccJnPpYh.s:117    .text:0000000000000078 .LBE88
     /tmp/ccJnPpYh.s:6186   .debug_loc:00000000000009d2 .LLST0
     /tmp/ccJnPpYh.s:170    .text:00000000000000a4 .LFB26
     /tmp/ccJnPpYh.s:195    .text:00000000000000cc .LFE26
     /tmp/ccJnPpYh.s:184    .text:00000000000000bc .LVL9
     /tmp/ccJnPpYh.s:42     .text:0000000000000028 .LFB25
     /tmp/ccJnPpYh.s:88     .text:0000000000000064 .LFE25
     /tmp/ccJnPpYh.s:57     .text:0000000000000040 .LBB86
     /tmp/ccJnPpYh.s:69     .text:0000000000000044 .LBE86
     /tmp/ccJnPpYh.s:73     .text:000000000000004c .LVL3
     /tmp/ccJnPpYh.s:77     .text:0000000000000054 .LVL4
     /tmp/ccJnPpYh.s:6353   .debug_str:00000000000003d0 .LASF231
     /tmp/ccJnPpYh.s:6699   .debug_str:0000000000000de4 .LASF233
     /tmp/ccJnPpYh.s:6729   .debug_str:0000000000000ec3 .LASF234
     /tmp/ccJnPpYh.s:6507   .debug_str:000000000000089a .LASF235
     /tmp/ccJnPpYh.s:6563   .debug_str:0000000000000a44 .LASF237
     /tmp/ccJnPpYh.s:6599   .debug_str:0000000000000b28 .LASF236
     /tmp/ccJnPpYh.s:6707   .debug_str:0000000000000e35 .LASF238
     /tmp/ccJnPpYh.s:6697   .debug_str:0000000000000dd4 .LASF239
     /tmp/ccJnPpYh.s:6741   .debug_str:0000000000000f0f .LASF251
     /tmp/ccJnPpYh.s:6293   .debug_str:000000000000013b .LASF252
     /tmp/ccJnPpYh.s:6755   .debug_str:0000000000000f7b .LASF240
     /tmp/ccJnPpYh.s:6399   .debug_str:0000000000000541 .LASF241
     /tmp/ccJnPpYh.s:6405   .debug_str:0000000000000564 .LASF242
     /tmp/ccJnPpYh.s:6491   .debug_str:0000000000000825 .LASF243
     /tmp/ccJnPpYh.s:1623   .text:000000000000062c .LVL118
     /tmp/ccJnPpYh.s:531    .text:0000000000000250 .LVL34
     /tmp/ccJnPpYh.s:773    .text:00000000000002f0 .LVL40
     /tmp/ccJnPpYh.s:796    .text:0000000000000314 .LVL43
     /tmp/ccJnPpYh.s:846    .text:0000000000000354 .LVL45
     /tmp/ccJnPpYh.s:881    .text:0000000000000380 .LVL49
     /tmp/ccJnPpYh.s:978    .text:00000000000003e4 .LVL57
     /tmp/ccJnPpYh.s:1008   .text:00000000000003f8 .LVL61
     /tmp/ccJnPpYh.s:1026   .text:0000000000000400 .LVL63
     /tmp/ccJnPpYh.s:1140   .text:000000000000046c .LVL74
     /tmp/ccJnPpYh.s:1164   .text:0000000000000488 .LVL76
     /tmp/ccJnPpYh.s:1191   .text:00000000000004a4 .LVL78
     /tmp/ccJnPpYh.s:1256   .text:00000000000004d8 .LVL83
     /tmp/ccJnPpYh.s:1285   .text:00000000000004e8 .LVL86
     /tmp/ccJnPpYh.s:1335   .text:0000000000000520 .LVL92
     /tmp/ccJnPpYh.s:1362   .text:0000000000000538 .LVL96
     /tmp/ccJnPpYh.s:1390   .text:000000000000055c .LVL98
     /tmp/ccJnPpYh.s:1411   .text:0000000000000568 .LVL100
     /tmp/ccJnPpYh.s:1450   .text:0000000000000580 .LVL104
     /tmp/ccJnPpYh.s:1480   .text:0000000000000598 .LVL108
     /tmp/ccJnPpYh.s:548    .text:000000000000025c .LVL35
     /tmp/ccJnPpYh.s:562    .text:0000000000000280 .LVL36
     /tmp/ccJnPpYh.s:575    .text:000000000000028c .LVL37
     /tmp/ccJnPpYh.s:858    .text:0000000000000358 .LVL46
     /tmp/ccJnPpYh.s:1055   .text:0000000000000414 .LVL66
     /tmp/ccJnPpYh.s:1119   .text:0000000000000460 .LVL72
     /tmp/ccJnPpYh.s:1134   .text:0000000000000464 .LVL73
     /tmp/ccJnPpYh.s:1279   .text:00000000000004e0 .LVL85
     /tmp/ccJnPpYh.s:1405   .text:0000000000000560 .LVL99
     /tmp/ccJnPpYh.s:592    .text:0000000000000298 .LVL38
     /tmp/ccJnPpYh.s:1499   .text:00000000000005b4 .LVL111
GAS LISTING /tmp/ccJnPpYh.s 			page 65


     /tmp/ccJnPpYh.s:924    .text:00000000000003b8 .LVL53
     /tmp/ccJnPpYh.s:942    .text:00000000000003c4 .LVL54
     /tmp/ccJnPpYh.s:962    .text:00000000000003dc .LVL56
     /tmp/ccJnPpYh.s:993    .text:00000000000003e8 .LVL58
     /tmp/ccJnPpYh.s:999    .text:00000000000003ec .LVL59
     /tmp/ccJnPpYh.s:1040   .text:0000000000000404 .LVL64
     /tmp/ccJnPpYh.s:1074   .text:000000000000041c .LVL68
     /tmp/ccJnPpYh.s:1477   .text:0000000000000594 .LVL107
     /tmp/ccJnPpYh.s:1080   .text:0000000000000420 .LVL69
     /tmp/ccJnPpYh.s:1068   .text:0000000000000418 .LVL67
     /tmp/ccJnPpYh.s:1202   .text:00000000000004bc .LVL79
     /tmp/ccJnPpYh.s:1227   .text:00000000000004c4 .LVL80
     /tmp/ccJnPpYh.s:1243   .text:00000000000004d0 .LVL82
     /tmp/ccJnPpYh.s:1267   .text:00000000000004dc .LVL84
     /tmp/ccJnPpYh.s:1296   .text:0000000000000500 .LVL87
     /tmp/ccJnPpYh.s:1302   .text:0000000000000504 .LVL88
     /tmp/ccJnPpYh.s:1322   .text:0000000000000518 .LVL91
     /tmp/ccJnPpYh.s:1353   .text:0000000000000528 .LVL94
     /tmp/ccJnPpYh.s:1347   .text:0000000000000524 .LVL93
     /tmp/ccJnPpYh.s:1421   .text:000000000000056c .LVL101
     /tmp/ccJnPpYh.s:1437   .text:0000000000000578 .LVL103
     /tmp/ccJnPpYh.s:1461   .text:0000000000000584 .LVL105
     /tmp/ccJnPpYh.s:863    .text:000000000000035c .LVL47
     /tmp/ccJnPpYh.s:894    .text:00000000000003a0 .LVL51
     /tmp/ccJnPpYh.s:901    .text:00000000000003a4 .LVL52
     /tmp/ccJnPpYh.s:1022   .text:00000000000003fc .LVL62
     /tmp/ccJnPpYh.s:347    .text:000000000000015c .LVL19
     /tmp/ccJnPpYh.s:401    .text:000000000000018c .LVL22
     /tmp/ccJnPpYh.s:375    .text:0000000000000180 .LVL20
     /tmp/ccJnPpYh.s:457    .text:0000000000000200 .LVL31
     /tmp/ccJnPpYh.s:405    .text:0000000000000190 .LVL23
     /tmp/ccJnPpYh.s:412    .text:0000000000000198 .LVL24
     /tmp/ccJnPpYh.s:423    .text:00000000000001bc .LVL25
     /tmp/ccJnPpYh.s:433    .text:00000000000001d0 .LVL27
     /tmp/ccJnPpYh.s:438    .text:00000000000001d4 .LVL28
     /tmp/ccJnPpYh.s:429    .text:00000000000001c8 .LVL26
     /tmp/ccJnPpYh.s:388    .text:0000000000000188 .LVL21
     /tmp/ccJnPpYh.s:461    .text:0000000000000208 .LVL32
     /tmp/ccJnPpYh.s:470    .text:000000000000020c .LVL33
     /tmp/ccJnPpYh.s:239    .text:00000000000000ec .LVL10
     /tmp/ccJnPpYh.s:281    .text:000000000000011c .LVL12
     /tmp/ccJnPpYh.s:331    .text:0000000000000150 .LVL18
     /tmp/ccJnPpYh.s:268    .text:0000000000000114 .LVL11
     /tmp/ccJnPpYh.s:306    .text:0000000000000138 .LVL15
     /tmp/ccJnPpYh.s:310    .text:0000000000000140 .LVL16
     /tmp/ccJnPpYh.s:319    .text:0000000000000144 .LVL17
     /tmp/ccJnPpYh.s:142    .text:0000000000000090 .LVL7
     /tmp/ccJnPpYh.s:152    .text:0000000000000098 .LVL8
     /tmp/ccJnPpYh.s:104    .text:0000000000000070 .LVL5
     /tmp/ccJnPpYh.s:114    .text:0000000000000078 .LVL6
     /tmp/ccJnPpYh.s:1724   .debug_info:0000000000000000 .Ldebug_info0
     /tmp/ccJnPpYh.s:565    .text:0000000000000288 .LBB107
     /tmp/ccJnPpYh.s:604    .text:00000000000002a4 .LBE107
     /tmp/ccJnPpYh.s:608    .text:00000000000002a4 .LBB233
     /tmp/ccJnPpYh.s:615    .text:00000000000002ac .LBE233
     /tmp/ccJnPpYh.s:619    .text:00000000000002ac .LBB234
     /tmp/ccJnPpYh.s:628    .text:00000000000002b4 .LBE234
GAS LISTING /tmp/ccJnPpYh.s 			page 66


     /tmp/ccJnPpYh.s:632    .text:00000000000002b4 .LBB235
     /tmp/ccJnPpYh.s:643    .text:00000000000002bc .LBE235
     /tmp/ccJnPpYh.s:647    .text:00000000000002bc .LBB236
     /tmp/ccJnPpYh.s:660    .text:00000000000002c4 .LBE236
     /tmp/ccJnPpYh.s:664    .text:00000000000002c4 .LBB237
     /tmp/ccJnPpYh.s:679    .text:00000000000002cc .LBE237
     /tmp/ccJnPpYh.s:683    .text:00000000000002cc .LBB238
     /tmp/ccJnPpYh.s:700    .text:00000000000002d4 .LBE238
     /tmp/ccJnPpYh.s:704    .text:00000000000002d4 .LBB239
     /tmp/ccJnPpYh.s:723    .text:00000000000002dc .LBE239
     /tmp/ccJnPpYh.s:727    .text:00000000000002dc .LBB240
     /tmp/ccJnPpYh.s:748    .text:00000000000002e4 .LBE240
     /tmp/ccJnPpYh.s:752    .text:00000000000002e4 .LBB241
     /tmp/ccJnPpYh.s:808    .text:0000000000000314 .LBE241
     /tmp/ccJnPpYh.s:814    .text:0000000000000324 .LBB242
     /tmp/ccJnPpYh.s:822    .text:000000000000032c .LBE242
     /tmp/ccJnPpYh.s:850    .text:0000000000000354 .LBB243
     /tmp/ccJnPpYh.s:1209   .text:00000000000004bc .LBE243
     /tmp/ccJnPpYh.s:1213   .text:00000000000004bc .LBB244
     /tmp/ccJnPpYh.s:1523   .text:00000000000005cc .LBE244
     /tmp/ccJnPpYh.s:1338   .text:0000000000000520 .LBB131
     /tmp/ccJnPpYh.s:1392   .text:000000000000055c .LBE131
     /tmp/ccJnPpYh.s:1505   .text:00000000000005b4 .LBB133
     /tmp/ccJnPpYh.s:1515   .text:00000000000005cc .LBE133
     /tmp/ccJnPpYh.s:1170   .text:0000000000000488 .LBB150
     /tmp/ccJnPpYh.s:1203   .text:00000000000004bc .LBE150
     /tmp/ccJnPpYh.s:1219   .text:00000000000004bc .LBB157
     /tmp/ccJnPpYh.s:1254   .text:00000000000004d4 .LBE157
     /tmp/ccJnPpYh.s:1058   .text:0000000000000414 .LBB179
     /tmp/ccJnPpYh.s:1121   .text:0000000000000460 .LBE179
     /tmp/ccJnPpYh.s:1487   .text:0000000000000598 .LBB182
     /tmp/ccJnPpYh.s:1500   .text:00000000000005b4 .LBE182
     /tmp/ccJnPpYh.s:1529   .gcc_except_table:0000000000000000 .LLSDA32
     /tmp/ccJnPpYh.s:1676   .gcc_except_table:000000000000005f .LLSDA33

UNDEFINED SYMBOLS
_Z8userMainv
_ZN5Riscv14supervisorTrapEv
_ZN3PCB10initializeEv
_ZN8KConsole10initializeEv
__putc
_ZN10KSemaphoreD1Ev
_ZN10KSemaphoredlEPv
console_handler
_ZN3PCB16timeSliceCounterE
_ZN12SleepPCBList13tryToWakePCBsEv
_ZN3PCB7runningE
_ZN3PCB8dispatchEv
_Z7kmallocm
_Z5kfreePv
_ZN3PCBnwEm
_ZN3PCBC1EPFvPvES0_S0_m
_ZN12SleepPCBList17insertSleepingPCBEv
_ZN10KSemaphorenwEm
_ZN10KSemaphoreC1Ei
_ZN10KSemaphore4waitEv
_ZN10KSemaphore6signalEv
GAS LISTING /tmp/ccJnPpYh.s 			page 67


_ZN3PCBdlEPv
_Unwind_Resume
__gxx_personality_v0
thread_dispatch
