GAS LISTING /tmp/ccwOvjHr.s 			page 1


   1              		.file	"Riscv.cpp"
   2              		.option pic
   3              		.option norelax
   4              		.text
   5              	.Ltext0:
   6              		.align	2
   7              		.globl	_ZN5Riscv14myTestsWrapperEPv
   9              	_ZN5Riscv14myTestsWrapperEPv:
  10              	.LFB36:
  11              		.file 1 "src/Riscv.cpp"
   1:src/Riscv.cpp **** //
   2:src/Riscv.cpp **** // Created by os on 4/27/22.
   3:src/Riscv.cpp **** //
   4:src/Riscv.cpp **** 
   5:src/Riscv.cpp **** #include "../h/Riscv.hpp"
   6:src/Riscv.cpp **** #include "../h/MemoryAllocator.hpp"
   7:src/Riscv.cpp **** #include "../h/PCB.hpp"
   8:src/Riscv.cpp **** #include "../lib/console.h"
   9:src/Riscv.cpp **** #include "../h/syscall_cpp.hpp"
  10:src/Riscv.cpp **** #include "../h/SleepPCBList.hpp"
  11:src/Riscv.cpp **** #include "../h/KConsole.hpp"
  12:src/Riscv.cpp **** #include "../h/Tests.hpp"
  13:src/Riscv.cpp **** #include "../test/userMain.hpp"
  14:src/Riscv.cpp **** 
  15:src/Riscv.cpp **** void Riscv::initSystem()
  16:src/Riscv.cpp **** {
  17:src/Riscv.cpp ****     w_stvec((uint64)&Riscv::supervisorTrap);
  18:src/Riscv.cpp ****     PCB::initialize();
  19:src/Riscv.cpp ****     KConsole::initialize();
  20:src/Riscv.cpp **** }
  21:src/Riscv.cpp **** 
  22:src/Riscv.cpp **** void Riscv::endSystem()
  23:src/Riscv.cpp **** {
  24:src/Riscv.cpp ****     //todo
  25:src/Riscv.cpp ****     Riscv::disableInterrupts();
  26:src/Riscv.cpp **** }
  27:src/Riscv.cpp **** 
  28:src/Riscv.cpp **** 
  29:src/Riscv.cpp **** void Riscv::enableInterrupts() {
  30:src/Riscv.cpp ****     ms_sstatus(Riscv::SSTATUS_SIE);
  31:src/Riscv.cpp **** }
  32:src/Riscv.cpp **** 
  33:src/Riscv.cpp **** void Riscv::disableInterrupts()
  34:src/Riscv.cpp **** {
  35:src/Riscv.cpp ****     mc_sstatus(Riscv::SSTATUS_SIE);
  36:src/Riscv.cpp **** }
  37:src/Riscv.cpp **** 
  38:src/Riscv.cpp **** void Riscv::popSppSpie()
  39:src/Riscv.cpp **** {
  40:src/Riscv.cpp ****     __asm__ volatile ("csrw sepc, ra");
  41:src/Riscv.cpp ****     __asm__ volatile ("sret");
  42:src/Riscv.cpp **** }
  43:src/Riscv.cpp **** 
  44:src/Riscv.cpp **** void Riscv::printString(const char *string)
  45:src/Riscv.cpp **** {
  46:src/Riscv.cpp ****     uint64 sstatus = r_sstatus();
  47:src/Riscv.cpp ****     mc_sstatus(SSTATUS_SIE);
GAS LISTING /tmp/ccwOvjHr.s 			page 2


  48:src/Riscv.cpp ****     while (*string != '\0')
  49:src/Riscv.cpp ****     {
  50:src/Riscv.cpp ****         __putc(*string);
  51:src/Riscv.cpp ****         string++;
  52:src/Riscv.cpp ****     }
  53:src/Riscv.cpp ****     ms_sstatus(sstatus & SSTATUS_SIE ? SSTATUS_SIE : 0);
  54:src/Riscv.cpp **** }
  55:src/Riscv.cpp **** 
  56:src/Riscv.cpp **** void Riscv::printInteger(uint64 num)
  57:src/Riscv.cpp **** {
  58:src/Riscv.cpp ****     uint64 sstatus = r_sstatus();
  59:src/Riscv.cpp ****     mc_sstatus(SSTATUS_SIE);
  60:src/Riscv.cpp ****     static char digits[] = "0123456789";
  61:src/Riscv.cpp ****     char buf[16];
  62:src/Riscv.cpp ****     int i, neg;
  63:src/Riscv.cpp ****     uint x;
  64:src/Riscv.cpp **** 
  65:src/Riscv.cpp ****     neg = 0;
  66:src/Riscv.cpp ****     if(num < 0)
  67:src/Riscv.cpp ****     {
  68:src/Riscv.cpp ****         neg = 1;
  69:src/Riscv.cpp ****         x = -num;
  70:src/Riscv.cpp ****     }
  71:src/Riscv.cpp ****     else
  72:src/Riscv.cpp ****         x = num;
  73:src/Riscv.cpp **** 
  74:src/Riscv.cpp ****     i = 0;
  75:src/Riscv.cpp ****     do
  76:src/Riscv.cpp ****     {
  77:src/Riscv.cpp ****         buf[i++] = digits[x%10];
  78:src/Riscv.cpp ****     }while((x/=10) != 0);
  79:src/Riscv.cpp ****     if(neg)
  80:src/Riscv.cpp ****         buf[i++] = '-';
  81:src/Riscv.cpp **** 
  82:src/Riscv.cpp ****     while(--i >= 0)
  83:src/Riscv.cpp ****         __putc(buf[i]);
  84:src/Riscv.cpp **** 
  85:src/Riscv.cpp ****     __putc('\n');
  86:src/Riscv.cpp **** 
  87:src/Riscv.cpp ****     ms_sstatus(sstatus & SSTATUS_SIE ? SSTATUS_SIE : 0);
  88:src/Riscv.cpp **** }
  89:src/Riscv.cpp **** 
  90:src/Riscv.cpp **** void Riscv::handleSupervisorTrap()
  91:src/Riscv.cpp **** {
  92:src/Riscv.cpp ****     __asm__ volatile("mv %0, a4" : "=r"(PCB::savedRegA4));
  93:src/Riscv.cpp **** 
  94:src/Riscv.cpp ****     uint64 scause = Riscv::r_scause();
  95:src/Riscv.cpp **** 
  96:src/Riscv.cpp ****     switch(scause)
  97:src/Riscv.cpp ****     {
  98:src/Riscv.cpp ****         case timerInterrupt:
  99:src/Riscv.cpp ****         {
 100:src/Riscv.cpp ****             uint64 volatile sepc = Riscv::r_sepc();
 101:src/Riscv.cpp ****             uint64 volatile sstatus = Riscv::r_sstatus();
 102:src/Riscv.cpp ****             mc_sip(Riscv::SIP_SSIP);
 103:src/Riscv.cpp ****             //Riscv::printString("timerInterrupt\n");
 104:src/Riscv.cpp ****             static uint64 total = 0;
GAS LISTING /tmp/ccwOvjHr.s 			page 3


 105:src/Riscv.cpp ****             total++;
 106:src/Riscv.cpp **** 
 107:src/Riscv.cpp ****             PCB::timeSliceCounter++;
 108:src/Riscv.cpp ****             SleepPCBList::tryToWakePCBs();
 109:src/Riscv.cpp ****             if (PCB::timeSliceCounter >= PCB::running->getTimeSlice())
 110:src/Riscv.cpp ****             {
 111:src/Riscv.cpp ****                 PCB::timeSliceCounter = 0;
 112:src/Riscv.cpp ****                 PCB::dispatch();
 113:src/Riscv.cpp ****             }
 114:src/Riscv.cpp **** 
 115:src/Riscv.cpp ****             Riscv::w_sstatus(sstatus);
 116:src/Riscv.cpp ****             Riscv::w_sepc(sepc);
 117:src/Riscv.cpp **** 
 118:src/Riscv.cpp ****             break;
 119:src/Riscv.cpp ****         }
 120:src/Riscv.cpp ****         case hwInterrupt: // todo
 121:src/Riscv.cpp ****         {
 122:src/Riscv.cpp ****             uint64 x = CONSOLE_STATUS;
 123:src/Riscv.cpp ****             __asm__ volatile("mv a0, %0"::"r"(x));
 124:src/Riscv.cpp ****             __asm__ volatile("lb a1, 0(a0)");
 125:src/Riscv.cpp ****             uint64 operation;
 126:src/Riscv.cpp ****             __asm__ volatile("mv %0, a1" :  "=r"(operation));
 127:src/Riscv.cpp ****             if(operation & KConsole::STATUS_READ_MASK)
 128:src/Riscv.cpp ****             {
 129:src/Riscv.cpp ****                 x = CONSOLE_TX_DATA;
 130:src/Riscv.cpp ****                 __asm__ volatile("mv a0, %0"::"r"(x));
 131:src/Riscv.cpp ****                 __asm__ volatile("lb a1,0(a0)");
 132:src/Riscv.cpp ****                 char c;
 133:src/Riscv.cpp ****                 __asm__ volatile("mv %0, a1" :  "=r"(c));
 134:src/Riscv.cpp ****                 //putCharacterOutput(c);
 135:src/Riscv.cpp **** 
 136:src/Riscv.cpp ****                 KConsole::putCharacterInput(c);
 137:src/Riscv.cpp ****                 KConsole::putCharacterOutput(c);
 138:src/Riscv.cpp ****             }
 139:src/Riscv.cpp **** 
 140:src/Riscv.cpp ****             plic_complete(plic_claim());
 141:src/Riscv.cpp **** 
 142:src/Riscv.cpp ****             break;
 143:src/Riscv.cpp ****         }
 144:src/Riscv.cpp ****         case operationInterrupt: // todo
 145:src/Riscv.cpp ****         {
 146:src/Riscv.cpp ****             break;
 147:src/Riscv.cpp ****         }
 148:src/Riscv.cpp ****         case addrReadInterrupt: // todo
 149:src/Riscv.cpp ****         {
 150:src/Riscv.cpp ****             break;
 151:src/Riscv.cpp ****         }
 152:src/Riscv.cpp ****         case addrWriteInterrupt: // todo
 153:src/Riscv.cpp ****         {
 154:src/Riscv.cpp ****             break;
 155:src/Riscv.cpp ****         }
 156:src/Riscv.cpp ****         case ecallSystemInterupt:
 157:src/Riscv.cpp ****         case ecallUserInterrupt:
 158:src/Riscv.cpp ****         {
 159:src/Riscv.cpp ****             uint64 operation;
 160:src/Riscv.cpp ****             __asm__ volatile("mv %0, a0" :  "=r"(operation));
 161:src/Riscv.cpp **** 
GAS LISTING /tmp/ccwOvjHr.s 			page 4


 162:src/Riscv.cpp ****             uint64 volatile sepc = Riscv::r_sepc() + 4;
 163:src/Riscv.cpp ****             uint64 volatile sstatus = Riscv::r_sstatus();
 164:src/Riscv.cpp **** 
 165:src/Riscv.cpp ****             switch(operation)
 166:src/Riscv.cpp ****             {
 167:src/Riscv.cpp ****                 case MemoryAllocator::MEM_ALLOC:
 168:src/Riscv.cpp ****                     MemoryAllocator::memAllocHandler();
 169:src/Riscv.cpp ****                     break;
 170:src/Riscv.cpp ****                 case MemoryAllocator::MEM_FREE:
 171:src/Riscv.cpp ****                     MemoryAllocator::memFreeHandler();
 172:src/Riscv.cpp ****                     break;
 173:src/Riscv.cpp ****                 case PCB::THREAD_MAKE_PCB:
 174:src/Riscv.cpp ****                     PCB::threadMakePCBHandler();
 175:src/Riscv.cpp ****                     break;
 176:src/Riscv.cpp ****                 case PCB::THREAD_CREATE:
 177:src/Riscv.cpp ****                     PCB::threadCreateHandler();
 178:src/Riscv.cpp ****                     break;
 179:src/Riscv.cpp ****                 case PCB::THREAD_START:
 180:src/Riscv.cpp ****                     PCB::threadStartHandler();
 181:src/Riscv.cpp ****                     break;
 182:src/Riscv.cpp ****                 case PCB::THREAD_DISPATCH:
 183:src/Riscv.cpp ****                     PCB::threadDispatchHandler();
 184:src/Riscv.cpp ****                     break;
 185:src/Riscv.cpp ****                 case PCB::THREAD_EXIT:
 186:src/Riscv.cpp ****                     PCB::threadExitHandler();
 187:src/Riscv.cpp ****                     break;
 188:src/Riscv.cpp ****                 case PCB::TIME_SLEEP:
 189:src/Riscv.cpp ****                     PCB::threadSleepHandler();
 190:src/Riscv.cpp ****                     break;
 191:src/Riscv.cpp ****                 case KSemaphore::SEM_OPEN:
 192:src/Riscv.cpp ****                     KSemaphore::semOpenHandler();
 193:src/Riscv.cpp ****                     break;
 194:src/Riscv.cpp ****                 case KSemaphore::SEM_WAIT:
 195:src/Riscv.cpp ****                     KSemaphore::semWaitHandler();
 196:src/Riscv.cpp ****                     break;
 197:src/Riscv.cpp ****                 case KSemaphore::SEM_SIGNAL:
 198:src/Riscv.cpp ****                     KSemaphore::semSignalHandler();
 199:src/Riscv.cpp ****                     break;
 200:src/Riscv.cpp ****                 case KSemaphore::SEM_CLOSE:
 201:src/Riscv.cpp ****                     KSemaphore::semCloseHandler();
 202:src/Riscv.cpp ****                     break;
 203:src/Riscv.cpp ****                 case KConsole::CONSOLE_GETC:
 204:src/Riscv.cpp ****                     KConsole::getcHandler();
 205:src/Riscv.cpp ****                     break;
 206:src/Riscv.cpp ****                 case KConsole::CONSOLE_PUTC:
 207:src/Riscv.cpp ****                     KConsole::putcHandler();
 208:src/Riscv.cpp ****                     break;
 209:src/Riscv.cpp ****             }
 210:src/Riscv.cpp **** 
 211:src/Riscv.cpp ****             Riscv::w_sstatus(sstatus);
 212:src/Riscv.cpp ****             Riscv::w_sepc(sepc);
 213:src/Riscv.cpp **** 
 214:src/Riscv.cpp ****             break;
 215:src/Riscv.cpp ****         }
 216:src/Riscv.cpp ****     }
 217:src/Riscv.cpp **** }
 218:src/Riscv.cpp **** 
GAS LISTING /tmp/ccwOvjHr.s 			page 5


 219:src/Riscv.cpp **** void Riscv::kernelMain()
 220:src/Riscv.cpp **** {
 221:src/Riscv.cpp ****     initSystem();
 222:src/Riscv.cpp **** 
 223:src/Riscv.cpp ****     enableInterrupts();
 224:src/Riscv.cpp **** 
 225:src/Riscv.cpp ****     //PCB* userPCB = new PCB(&Riscv::userMainWrapper, 0, kmalloc(DEFAULT_STACK_SIZE), DEFAULT_TIME_
 226:src/Riscv.cpp ****     PCB* userPCB = new PCB(&Riscv::myTestsWrapper, 0, kmalloc(DEFAULT_STACK_SIZE), DEFAULT_TIME_SLI
 227:src/Riscv.cpp ****     userPCB->start();
 228:src/Riscv.cpp ****     while(!userPCB->isFinished())
 229:src/Riscv.cpp ****     {
 230:src/Riscv.cpp ****         thread_dispatch();
 231:src/Riscv.cpp ****     }
 232:src/Riscv.cpp **** 
 233:src/Riscv.cpp **** 
 234:src/Riscv.cpp ****     //disableInterrupts();
 235:src/Riscv.cpp **** 
 236:src/Riscv.cpp ****     endSystem();
 237:src/Riscv.cpp **** 
 238:src/Riscv.cpp ****     Riscv::printString("End...");
 239:src/Riscv.cpp **** }
 240:src/Riscv.cpp **** 
 241:src/Riscv.cpp **** void Riscv::userMainWrapper(void* )
 242:src/Riscv.cpp **** {
 243:src/Riscv.cpp ****     userMain();
 244:src/Riscv.cpp **** }
 245:src/Riscv.cpp **** 
 246:src/Riscv.cpp **** void Riscv::myTestsWrapper(void* p)
 247:src/Riscv.cpp **** {
  12              		.loc 1 247 1
  13              		.cfi_startproc
  14              	.LVL0:
  15 0000 130101FF 		addi	sp,sp,-16
  16              		.cfi_def_cfa_offset 16
  17 0004 23341100 		sd	ra,8(sp)
  18 0008 23308100 		sd	s0,0(sp)
  19              		.cfi_offset 1, -8
  20              		.cfi_offset 8, -16
  21 000c 13040101 		addi	s0,sp,16
  22              		.cfi_def_cfa 8, 0
 248:src/Riscv.cpp ****     myTests();
  23              		.loc 1 248 5
  24              		.loc 1 248 12 is_stmt 0
  25 0010 97000000 		call	_Z7myTestsv@plt
  25      E7800000 
  26              	.LVL1:
 249:src/Riscv.cpp **** }
  27              		.loc 1 249 1
  28 0018 83308100 		ld	ra,8(sp)
  29              		.cfi_restore 1
  30 001c 03340100 		ld	s0,0(sp)
  31              		.cfi_restore 8
  32              		.cfi_def_cfa 2, 16
  33 0020 13010101 		addi	sp,sp,16
  34              		.cfi_def_cfa_offset 0
  35 0024 67800000 		jr	ra
  36              		.cfi_endproc
GAS LISTING /tmp/ccwOvjHr.s 			page 6


  37              	.LFE36:
  39              		.align	2
  40              		.globl	_ZN5Riscv10initSystemEv
  42              	_ZN5Riscv10initSystemEv:
  43              	.LFB26:
  16:src/Riscv.cpp ****     w_stvec((uint64)&Riscv::supervisorTrap);
  44              		.loc 1 16 1 is_stmt 1
  45              		.cfi_startproc
  46 0028 130101FF 		addi	sp,sp,-16
  47              		.cfi_def_cfa_offset 16
  48 002c 23341100 		sd	ra,8(sp)
  49 0030 23308100 		sd	s0,0(sp)
  50              		.cfi_offset 1, -8
  51              		.cfi_offset 8, -16
  52 0034 13040101 		addi	s0,sp,16
  53              		.cfi_def_cfa 8, 0
  17:src/Riscv.cpp ****     PCB::initialize();
  54              		.loc 1 17 5
  17:src/Riscv.cpp ****     PCB::initialize();
  55              		.loc 1 17 12 is_stmt 0
  56 0038 97070000 		la	a5,_ZN5Riscv14supervisorTrapEv
  56      83B70700 
  57              	.LVL2:
  58              	.LBB49:
  59              	.LBB50:
  60              		.file 2 "src/../h/Riscv.hpp"
   1:src/../h/Riscv.hpp **** //
   2:src/../h/Riscv.hpp **** // Created by os on 4/27/22.
   3:src/../h/Riscv.hpp **** //
   4:src/../h/Riscv.hpp **** 
   5:src/../h/Riscv.hpp **** #ifndef PROJECT_BASE_V1_0_RISCV_HPP
   6:src/../h/Riscv.hpp **** #define PROJECT_BASE_V1_0_RISCV_HPP
   7:src/../h/Riscv.hpp **** 
   8:src/../h/Riscv.hpp **** #include "../lib/hw.h"
   9:src/../h/Riscv.hpp **** 
  10:src/../h/Riscv.hpp **** class Riscv
  11:src/../h/Riscv.hpp **** {
  12:src/../h/Riscv.hpp **** public:
  13:src/../h/Riscv.hpp ****     static void kernelMain();
  14:src/../h/Riscv.hpp **** 
  15:src/../h/Riscv.hpp ****     static void initSystem();
  16:src/../h/Riscv.hpp ****     static void endSystem();
  17:src/../h/Riscv.hpp **** 
  18:src/../h/Riscv.hpp ****     static void userMainWrapper(void* p);
  19:src/../h/Riscv.hpp **** 
  20:src/../h/Riscv.hpp ****     static void enableInterrupts();
  21:src/../h/Riscv.hpp **** 
  22:src/../h/Riscv.hpp ****     static void disableTimerInterrupts();
  23:src/../h/Riscv.hpp **** 
  24:src/../h/Riscv.hpp ****     static void disableInterrupts();
  25:src/../h/Riscv.hpp **** 
  26:src/../h/Riscv.hpp ****     static void printString(char const *string);
  27:src/../h/Riscv.hpp **** 
  28:src/../h/Riscv.hpp ****     static void printInteger(uint64 num);
  29:src/../h/Riscv.hpp **** 
  30:src/../h/Riscv.hpp ****     static void idleRiscv(void* arg);
  31:src/../h/Riscv.hpp **** 
GAS LISTING /tmp/ccwOvjHr.s 			page 7


  32:src/../h/Riscv.hpp ****     static void pushRegisters();
  33:src/../h/Riscv.hpp ****     static void popRegisters();
  34:src/../h/Riscv.hpp **** 
  35:src/../h/Riscv.hpp ****     static uint64 r_scause();
  36:src/../h/Riscv.hpp ****     static void w_scause(uint64 scause);
  37:src/../h/Riscv.hpp **** 
  38:src/../h/Riscv.hpp ****     static uint64 r_sepc();
  39:src/../h/Riscv.hpp ****     static void w_sepc(uint64 sepc);
  40:src/../h/Riscv.hpp **** 
  41:src/../h/Riscv.hpp ****     static uint64 r_stvec();
  42:src/../h/Riscv.hpp ****     static void w_stvec(uint64 stvec);
  43:src/../h/Riscv.hpp **** 
  44:src/../h/Riscv.hpp ****     static uint64 r_stval();
  45:src/../h/Riscv.hpp ****     static void w_stval(uint64 stval);
  46:src/../h/Riscv.hpp **** 
  47:src/../h/Riscv.hpp ****     enum BitMaskSip
  48:src/../h/Riscv.hpp ****     {
  49:src/../h/Riscv.hpp ****         SIP_SSIP = (1 << 1),
  50:src/../h/Riscv.hpp ****         SIP_STIP = (1 << 5),
  51:src/../h/Riscv.hpp ****         SIP_SEIP = (1 << 9),
  52:src/../h/Riscv.hpp ****     };
  53:src/../h/Riscv.hpp **** 
  54:src/../h/Riscv.hpp ****     static void ms_sip(uint64 mask);
  55:src/../h/Riscv.hpp **** 
  56:src/../h/Riscv.hpp ****     static void mc_sip(uint64 mask);
  57:src/../h/Riscv.hpp **** 
  58:src/../h/Riscv.hpp ****     static uint64 r_sip();
  59:src/../h/Riscv.hpp **** 
  60:src/../h/Riscv.hpp ****     static void w_sip(uint64 sip);
  61:src/../h/Riscv.hpp **** 
  62:src/../h/Riscv.hpp ****     enum BitMaskSstatus
  63:src/../h/Riscv.hpp ****     {
  64:src/../h/Riscv.hpp ****         SSTATUS_SIE = (1 << 1),
  65:src/../h/Riscv.hpp ****         SSTATUS_SPIE = (1 << 5),
  66:src/../h/Riscv.hpp ****         SSTATUS_SPP = (1 << 8),
  67:src/../h/Riscv.hpp ****     };
  68:src/../h/Riscv.hpp **** 
  69:src/../h/Riscv.hpp ****     static void ms_sstatus(uint64 mask);
  70:src/../h/Riscv.hpp **** 
  71:src/../h/Riscv.hpp ****     static void mc_sstatus(uint64 mask);
  72:src/../h/Riscv.hpp **** 
  73:src/../h/Riscv.hpp ****     static void mc_sie(uint64 mask);
  74:src/../h/Riscv.hpp **** 
  75:src/../h/Riscv.hpp ****     static uint64 r_sstatus();
  76:src/../h/Riscv.hpp **** 
  77:src/../h/Riscv.hpp ****     static void w_sstatus(uint64 sstatus);
  78:src/../h/Riscv.hpp **** 
  79:src/../h/Riscv.hpp ****     static uint64 r_sie();
  80:src/../h/Riscv.hpp ****     static void w_sie(uint64 sie);
  81:src/../h/Riscv.hpp ****     static void popSppSpie();
  82:src/../h/Riscv.hpp **** 
  83:src/../h/Riscv.hpp ****     static void supervisorTrap();
  84:src/../h/Riscv.hpp ****     static void handleSupervisorTrap();
  85:src/../h/Riscv.hpp **** 
  86:src/../h/Riscv.hpp ****     static void myTestsWrapper(void* );
  87:src/../h/Riscv.hpp **** 
  88:src/../h/Riscv.hpp ****     static const uint64 bntOne = 1UL << 63;;
GAS LISTING /tmp/ccwOvjHr.s 			page 8


  89:src/../h/Riscv.hpp ****     static const uint64 bntZero = 0UL;
  90:src/../h/Riscv.hpp ****     static const uint64 timerInterrupt = bntOne + 1UL;
  91:src/../h/Riscv.hpp ****     static const uint64 hwInterrupt = bntOne + 9UL;
  92:src/../h/Riscv.hpp ****     static const uint64 operationInterrupt = bntZero + 2UL;
  93:src/../h/Riscv.hpp ****     static const uint64 addrReadInterrupt = bntZero + 5UL;
  94:src/../h/Riscv.hpp ****     static const uint64 addrWriteInterrupt = bntZero + 7UL;
  95:src/../h/Riscv.hpp ****     static const uint64 ecallUserInterrupt = bntZero + 8UL;
  96:src/../h/Riscv.hpp ****     static const uint64 ecallSystemInterupt = bntZero + 9UL;
  97:src/../h/Riscv.hpp **** };
  98:src/../h/Riscv.hpp **** 
  99:src/../h/Riscv.hpp **** inline void Riscv::mc_sie(uint64 mask)
 100:src/../h/Riscv.hpp **** {
 101:src/../h/Riscv.hpp ****     __asm__ volatile("csrc sie, %0" : :"r"(mask));
 102:src/../h/Riscv.hpp **** }
 103:src/../h/Riscv.hpp **** 
 104:src/../h/Riscv.hpp **** inline uint64 Riscv::r_scause() {
 105:src/../h/Riscv.hpp ****     uint64 volatile scause;
 106:src/../h/Riscv.hpp ****     __asm__ volatile("csrr %0, scause" : "=r"(scause));
 107:src/../h/Riscv.hpp ****     return scause;
 108:src/../h/Riscv.hpp **** }
 109:src/../h/Riscv.hpp **** 
 110:src/../h/Riscv.hpp **** inline void Riscv::w_scause(uint64 scause) {
 111:src/../h/Riscv.hpp ****     __asm__ volatile("csrw scause, %0" : :"r"(scause));
 112:src/../h/Riscv.hpp **** }
 113:src/../h/Riscv.hpp **** 
 114:src/../h/Riscv.hpp **** inline uint64 Riscv::r_sepc() {
 115:src/../h/Riscv.hpp ****     uint64 volatile sepc;
 116:src/../h/Riscv.hpp ****     __asm__ volatile("csrr %0, sepc" : "=r"(sepc));
 117:src/../h/Riscv.hpp ****     return sepc;
 118:src/../h/Riscv.hpp **** }
 119:src/../h/Riscv.hpp **** 
 120:src/../h/Riscv.hpp **** inline void Riscv::w_sepc(uint64 sepc) {
 121:src/../h/Riscv.hpp ****     __asm__ volatile("csrw sepc, %0" : :"r"(sepc));
 122:src/../h/Riscv.hpp **** }
 123:src/../h/Riscv.hpp **** 
 124:src/../h/Riscv.hpp **** inline uint64 Riscv::r_stvec() {
 125:src/../h/Riscv.hpp ****     uint64 volatile stvec;
 126:src/../h/Riscv.hpp ****     __asm__ volatile("csrr %0, stvec" : "=r"(stvec));
 127:src/../h/Riscv.hpp ****     return stvec;
 128:src/../h/Riscv.hpp **** }
 129:src/../h/Riscv.hpp **** 
 130:src/../h/Riscv.hpp **** inline void Riscv::w_stvec(uint64 stvec) {
 131:src/../h/Riscv.hpp ****     __asm__ volatile("csrw stvec, %0" : :"r"(stvec));
  61              		.loc 2 131 5 is_stmt 1
  62              		.loc 2 131 53 is_stmt 0
  63              	#APP
  64              	# 131 "src/../h/Riscv.hpp" 1
 132              	}
  65              		csrw stvec, a5
  66              	# 0 "" 2
  67              	.LVL3:
  68              	#NO_APP
  69              	.LBE50:
  70              	.LBE49:
  18:src/Riscv.cpp ****     KConsole::initialize();
  71              		.loc 1 18 5 is_stmt 1
  18:src/Riscv.cpp ****     KConsole::initialize();
GAS LISTING /tmp/ccwOvjHr.s 			page 9


  72              		.loc 1 18 20 is_stmt 0
  73 0044 97000000 		call	_ZN3PCB10initializeEv@plt
  73      E7800000 
  74              	.LVL4:
  19:src/Riscv.cpp **** }
  75              		.loc 1 19 5 is_stmt 1
  19:src/Riscv.cpp **** }
  76              		.loc 1 19 25 is_stmt 0
  77 004c 97000000 		call	_ZN8KConsole10initializeEv@plt
  77      E7800000 
  78              	.LVL5:
  20:src/Riscv.cpp **** 
  79              		.loc 1 20 1
  80 0054 83308100 		ld	ra,8(sp)
  81              		.cfi_restore 1
  82 0058 03340100 		ld	s0,0(sp)
  83              		.cfi_restore 8
  84              		.cfi_def_cfa 2, 16
  85 005c 13010101 		addi	sp,sp,16
  86              		.cfi_def_cfa_offset 0
  87 0060 67800000 		jr	ra
  88              		.cfi_endproc
  89              	.LFE26:
  91              		.align	2
  92              		.globl	_ZN5Riscv16enableInterruptsEv
  94              	_ZN5Riscv16enableInterruptsEv:
  95              	.LFB28:
  29:src/Riscv.cpp ****     ms_sstatus(Riscv::SSTATUS_SIE);
  96              		.loc 1 29 32 is_stmt 1
  97              		.cfi_startproc
  98 0064 130101FF 		addi	sp,sp,-16
  99              		.cfi_def_cfa_offset 16
 100 0068 23348100 		sd	s0,8(sp)
 101              		.cfi_offset 8, -8
 102 006c 13040101 		addi	s0,sp,16
 103              		.cfi_def_cfa 8, 0
  30:src/Riscv.cpp **** }
 104              		.loc 1 30 5
 105              	.LVL6:
 106              	.LBB51:
 107              	.LBB52:
 133:src/../h/Riscv.hpp **** 
 134:src/../h/Riscv.hpp **** inline uint64 Riscv::r_stval() {
 135:src/../h/Riscv.hpp ****     uint64 volatile stval;
 136:src/../h/Riscv.hpp ****     __asm__ volatile("csrr %0, stval" : "=r"(stval));
 137:src/../h/Riscv.hpp ****     return stval;
 138:src/../h/Riscv.hpp **** }
 139:src/../h/Riscv.hpp **** 
 140:src/../h/Riscv.hpp **** inline void Riscv::w_sie(uint64 sie)
 141:src/../h/Riscv.hpp **** {
 142:src/../h/Riscv.hpp ****     __asm__ volatile("csrw sie, %0" : :"r"(sie));
 143:src/../h/Riscv.hpp **** }
 144:src/../h/Riscv.hpp **** 
 145:src/../h/Riscv.hpp **** inline void Riscv::w_stval(uint64 stval) {
 146:src/../h/Riscv.hpp ****     __asm__ volatile("csrw stval, %0" : :"r"(stval));
 147:src/../h/Riscv.hpp **** }
 148:src/../h/Riscv.hpp **** 
GAS LISTING /tmp/ccwOvjHr.s 			page 10


 149:src/../h/Riscv.hpp **** inline void Riscv::ms_sip(uint64 mask) {
 150:src/../h/Riscv.hpp ****     __asm__ volatile("csrs sip, %0" : :"r"(mask));
 151:src/../h/Riscv.hpp **** }
 152:src/../h/Riscv.hpp **** 
 153:src/../h/Riscv.hpp **** inline void Riscv::mc_sip(uint64 mask) {
 154:src/../h/Riscv.hpp ****     __asm__ volatile("csrc sip, %0" : :"r"(mask));
 155:src/../h/Riscv.hpp **** }
 156:src/../h/Riscv.hpp **** 
 157:src/../h/Riscv.hpp **** inline uint64 Riscv::r_sie()
 158:src/../h/Riscv.hpp **** {
 159:src/../h/Riscv.hpp ****     uint64 volatile sie;
 160:src/../h/Riscv.hpp ****     __asm__ volatile("csrr %0, sip" : "=r"(sie));
 161:src/../h/Riscv.hpp ****     return sie;
 162:src/../h/Riscv.hpp **** }
 163:src/../h/Riscv.hpp **** 
 164:src/../h/Riscv.hpp **** 
 165:src/../h/Riscv.hpp **** inline uint64 Riscv::r_sip() {
 166:src/../h/Riscv.hpp ****     uint64 volatile sip;
 167:src/../h/Riscv.hpp ****     __asm__ volatile("csrr %0, sip" : "=r"(sip));
 168:src/../h/Riscv.hpp ****     return sip;
 169:src/../h/Riscv.hpp **** }
 170:src/../h/Riscv.hpp **** 
 171:src/../h/Riscv.hpp **** inline void Riscv::w_sip(uint64 sip) {
 172:src/../h/Riscv.hpp ****     __asm__ volatile("csrw sip, %0" : :"r"(sip));
 173:src/../h/Riscv.hpp **** }
 174:src/../h/Riscv.hpp **** 
 175:src/../h/Riscv.hpp **** inline void Riscv::ms_sstatus(uint64 mask) {
 176:src/../h/Riscv.hpp ****     __asm__ volatile("csrs sstatus, %0" : :"r"(mask));
 108              		.loc 2 176 5
 109              		.loc 2 176 54 is_stmt 0
 110 0070 93072000 		li	a5,2
 111              	#APP
 112              	# 176 "src/../h/Riscv.hpp" 1
 177              	}
 113              		csrs sstatus, a5
 114              	# 0 "" 2
 115              	.LVL7:
 116              	#NO_APP
 117              	.LBE52:
 118              	.LBE51:
  31:src/Riscv.cpp **** 
 119              		.loc 1 31 1
 120 0078 03348100 		ld	s0,8(sp)
 121              		.cfi_restore 8
 122              		.cfi_def_cfa 2, 16
 123 007c 13010101 		addi	sp,sp,16
 124              		.cfi_def_cfa_offset 0
 125 0080 67800000 		jr	ra
 126              		.cfi_endproc
 127              	.LFE28:
 129              		.align	2
 130              		.globl	_ZN5Riscv17disableInterruptsEv
 132              	_ZN5Riscv17disableInterruptsEv:
 133              	.LFB29:
  34:src/Riscv.cpp ****     mc_sstatus(Riscv::SSTATUS_SIE);
 134              		.loc 1 34 1 is_stmt 1
 135              		.cfi_startproc
GAS LISTING /tmp/ccwOvjHr.s 			page 11


 136 0084 130101FF 		addi	sp,sp,-16
 137              		.cfi_def_cfa_offset 16
 138 0088 23348100 		sd	s0,8(sp)
 139              		.cfi_offset 8, -8
 140 008c 13040101 		addi	s0,sp,16
 141              		.cfi_def_cfa 8, 0
  35:src/Riscv.cpp **** }
 142              		.loc 1 35 5
 143              	.LVL8:
 144              	.LBB53:
 145              	.LBB54:
 178:src/../h/Riscv.hpp **** 
 179:src/../h/Riscv.hpp **** inline void Riscv::mc_sstatus(uint64 mask) {
 180:src/../h/Riscv.hpp ****     __asm__ volatile("csrc sstatus, %0" : :"r"(mask));
 146              		.loc 2 180 5
 147              		.loc 2 180 54 is_stmt 0
 148 0090 93072000 		li	a5,2
 149              	#APP
 150              	# 180 "src/../h/Riscv.hpp" 1
 181              	}
 151              		csrc sstatus, a5
 152              	# 0 "" 2
 153              	.LVL9:
 154              	#NO_APP
 155              	.LBE54:
 156              	.LBE53:
  36:src/Riscv.cpp **** 
 157              		.loc 1 36 1
 158 0098 03348100 		ld	s0,8(sp)
 159              		.cfi_restore 8
 160              		.cfi_def_cfa 2, 16
 161 009c 13010101 		addi	sp,sp,16
 162              		.cfi_def_cfa_offset 0
 163 00a0 67800000 		jr	ra
 164              		.cfi_endproc
 165              	.LFE29:
 167              		.align	2
 168              		.globl	_ZN5Riscv9endSystemEv
 170              	_ZN5Riscv9endSystemEv:
 171              	.LFB27:
  23:src/Riscv.cpp ****     //todo
 172              		.loc 1 23 1 is_stmt 1
 173              		.cfi_startproc
 174 00a4 130101FF 		addi	sp,sp,-16
 175              		.cfi_def_cfa_offset 16
 176 00a8 23341100 		sd	ra,8(sp)
 177 00ac 23308100 		sd	s0,0(sp)
 178              		.cfi_offset 1, -8
 179              		.cfi_offset 8, -16
 180 00b0 13040101 		addi	s0,sp,16
 181              		.cfi_def_cfa 8, 0
  25:src/Riscv.cpp **** }
 182              		.loc 1 25 5
  25:src/Riscv.cpp **** }
 183              		.loc 1 25 29 is_stmt 0
 184 00b4 97000000 		call	_ZN5Riscv17disableInterruptsEv
 184      E7800000 
GAS LISTING /tmp/ccwOvjHr.s 			page 12


 185              	.LVL10:
  26:src/Riscv.cpp **** 
 186              		.loc 1 26 1
 187 00bc 83308100 		ld	ra,8(sp)
 188              		.cfi_restore 1
 189 00c0 03340100 		ld	s0,0(sp)
 190              		.cfi_restore 8
 191              		.cfi_def_cfa 2, 16
 192 00c4 13010101 		addi	sp,sp,16
 193              		.cfi_def_cfa_offset 0
 194 00c8 67800000 		jr	ra
 195              		.cfi_endproc
 196              	.LFE27:
 198              		.align	2
 199              		.globl	_ZN5Riscv10popSppSpieEv
 201              	_ZN5Riscv10popSppSpieEv:
 202              	.LFB30:
  39:src/Riscv.cpp ****     __asm__ volatile ("csrw sepc, ra");
 203              		.loc 1 39 1 is_stmt 1
 204              		.cfi_startproc
 205 00cc 130101FF 		addi	sp,sp,-16
 206              		.cfi_def_cfa_offset 16
 207 00d0 23348100 		sd	s0,8(sp)
 208              		.cfi_offset 8, -8
 209 00d4 13040101 		addi	s0,sp,16
 210              		.cfi_def_cfa 8, 0
  40:src/Riscv.cpp ****     __asm__ volatile ("sret");
 211              		.loc 1 40 5
  40:src/Riscv.cpp ****     __asm__ volatile ("sret");
 212              		.loc 1 40 39 is_stmt 0
 213              	#APP
 214              	# 40 "src/Riscv.cpp" 1
  41:src/Riscv.cpp **** }
 215              		csrw sepc, ra
 216              	# 0 "" 2
 217              		.loc 1 41 5 is_stmt 1
  41:src/Riscv.cpp **** }
 218              		.loc 1 41 30 is_stmt 0
 219              	# 41 "src/Riscv.cpp" 1
  42:src/Riscv.cpp **** 
 220              		sret
 221              	# 0 "" 2
 222              		.loc 1 42 1
 223              	#NO_APP
 224 00e0 03348100 		ld	s0,8(sp)
 225              		.cfi_restore 8
 226              		.cfi_def_cfa 2, 16
 227 00e4 13010101 		addi	sp,sp,16
 228              		.cfi_def_cfa_offset 0
 229 00e8 67800000 		jr	ra
 230              		.cfi_endproc
 231              	.LFE30:
 233              		.align	2
 234              		.globl	_ZN5Riscv11printStringEPKc
 236              	_ZN5Riscv11printStringEPKc:
 237              	.LFB31:
  45:src/Riscv.cpp ****     uint64 sstatus = r_sstatus();
GAS LISTING /tmp/ccwOvjHr.s 			page 13


 238              		.loc 1 45 1 is_stmt 1
 239              		.cfi_startproc
 240              	.LVL11:
 241 00ec 130101FD 		addi	sp,sp,-48
 242              		.cfi_def_cfa_offset 48
 243 00f0 23341102 		sd	ra,40(sp)
 244 00f4 23308102 		sd	s0,32(sp)
 245 00f8 233C9100 		sd	s1,24(sp)
 246 00fc 23382101 		sd	s2,16(sp)
 247              		.cfi_offset 1, -8
 248              		.cfi_offset 8, -16
 249              		.cfi_offset 9, -24
 250              		.cfi_offset 18, -32
 251 0100 13040103 		addi	s0,sp,48
 252              		.cfi_def_cfa 8, 0
 253 0104 93040500 		mv	s1,a0
  46:src/Riscv.cpp ****     mc_sstatus(SSTATUS_SIE);
 254              		.loc 1 46 5
 255              	.LBB55:
 256              	.LBB56:
 182:src/../h/Riscv.hpp **** 
 183:src/../h/Riscv.hpp **** inline uint64 Riscv::r_sstatus() {
 184:src/../h/Riscv.hpp ****     uint64 volatile sstatus;
 257              		.loc 2 184 5
 185:src/../h/Riscv.hpp ****     __asm__ volatile("csrr %0, sstatus" : "=r"(sstatus));
 258              		.loc 2 185 5
 259              		.loc 2 185 57 is_stmt 0
 260              	#APP
 261              	# 185 "src/../h/Riscv.hpp" 1
 186              	    return sstatus;
 262              		csrr a5, sstatus
 263              	# 0 "" 2
 264              	#NO_APP
 265 010c 233CF4FC 		sd	a5,-40(s0)
 266              		.loc 2 186 5 is_stmt 1
 267              		.loc 2 186 12 is_stmt 0
 268 0110 033984FD 		ld	s2,-40(s0)
 269              	.LVL12:
 270              	.LBE56:
 271              	.LBE55:
  47:src/Riscv.cpp ****     while (*string != '\0')
 272              		.loc 1 47 5 is_stmt 1
 273              	.LBB57:
 274              	.LBB58:
 180:src/../h/Riscv.hpp **** }
 275              		.loc 2 180 5
 180:src/../h/Riscv.hpp **** }
 276              		.loc 2 180 54 is_stmt 0
 277 0114 93072000 		li	a5,2
 278              	#APP
 279              	# 180 "src/../h/Riscv.hpp" 1
 280              		csrc sstatus, a5
 281              	# 0 "" 2
 282              	.LVL13:
 283              	#NO_APP
 284              	.L15:
 285              	.LBE58:
GAS LISTING /tmp/ccwOvjHr.s 			page 14


 286              	.LBE57:
  48:src/Riscv.cpp ****     {
 287              		.loc 1 48 5 is_stmt 1
  48:src/Riscv.cpp ****     {
 288              		.loc 1 48 20
  48:src/Riscv.cpp ****     {
 289              		.loc 1 48 12 is_stmt 0
 290 011c 03C50400 		lbu	a0,0(s1)
  48:src/Riscv.cpp ****     {
 291              		.loc 1 48 20
 292 0120 630A0500 		beqz	a0,.L14
  50:src/Riscv.cpp ****         string++;
 293              		.loc 1 50 9 is_stmt 1
  50:src/Riscv.cpp ****         string++;
 294              		.loc 1 50 15 is_stmt 0
 295 0124 97000000 		call	__putc@plt
 295      E7800000 
 296              	.LVL14:
  51:src/Riscv.cpp ****     }
 297              		.loc 1 51 9 is_stmt 1
  51:src/Riscv.cpp ****     }
 298              		.loc 1 51 15 is_stmt 0
 299 012c 93841400 		addi	s1,s1,1
 300              	.LVL15:
  48:src/Riscv.cpp ****     {
 301              		.loc 1 48 5
 302 0130 6FF0DFFE 		j	.L15
 303              	.L14:
  53:src/Riscv.cpp **** }
 304              		.loc 1 53 5 is_stmt 1
  53:src/Riscv.cpp **** }
 305              		.loc 1 53 38 is_stmt 0
 306 0134 1B090900 		sext.w	s2,s2
 307              	.LVL16:
  53:src/Riscv.cpp **** }
 308              		.loc 1 53 15
 309 0138 13792900 		andi	s2,s2,2
 310 013c 1B090900 		sext.w	s2,s2
 311              	.LVL17:
 312              	.LBB59:
 313              	.LBB60:
 176:src/../h/Riscv.hpp **** }
 314              		.loc 2 176 5 is_stmt 1
 176:src/../h/Riscv.hpp **** }
 315              		.loc 2 176 54 is_stmt 0
 316              	#APP
 317              	# 176 "src/../h/Riscv.hpp" 1
 318              		csrs sstatus, s2
 319              	# 0 "" 2
 320              	.LVL18:
 321              	#NO_APP
 322              	.LBE60:
 323              	.LBE59:
  54:src/Riscv.cpp **** 
 324              		.loc 1 54 1
 325 0144 83308102 		ld	ra,40(sp)
 326              		.cfi_restore 1
GAS LISTING /tmp/ccwOvjHr.s 			page 15


 327 0148 03340102 		ld	s0,32(sp)
 328              		.cfi_restore 8
 329              		.cfi_def_cfa 2, 48
 330 014c 83348101 		ld	s1,24(sp)
 331              		.cfi_restore 9
 332              	.LVL19:
 333 0150 03390101 		ld	s2,16(sp)
 334              		.cfi_restore 18
 335 0154 13010103 		addi	sp,sp,48
 336              		.cfi_def_cfa_offset 0
 337 0158 67800000 		jr	ra
 338              		.cfi_endproc
 339              	.LFE31:
 341              		.align	2
 342              		.globl	_ZN5Riscv12printIntegerEm
 344              	_ZN5Riscv12printIntegerEm:
 345              	.LFB32:
  57:src/Riscv.cpp ****     uint64 sstatus = r_sstatus();
 346              		.loc 1 57 1 is_stmt 1
 347              		.cfi_startproc
 348              	.LVL20:
 349 015c 130101FC 		addi	sp,sp,-64
 350              		.cfi_def_cfa_offset 64
 351 0160 233C1102 		sd	ra,56(sp)
 352 0164 23388102 		sd	s0,48(sp)
 353 0168 23349102 		sd	s1,40(sp)
 354 016c 23302103 		sd	s2,32(sp)
 355              		.cfi_offset 1, -8
 356              		.cfi_offset 8, -16
 357              		.cfi_offset 9, -24
 358              		.cfi_offset 18, -32
 359 0170 13040104 		addi	s0,sp,64
 360              		.cfi_def_cfa 8, 0
  58:src/Riscv.cpp ****     mc_sstatus(SSTATUS_SIE);
 361              		.loc 1 58 5
 362              	.LBB61:
 363              	.LBB62:
 184:src/../h/Riscv.hpp ****     __asm__ volatile("csrr %0, sstatus" : "=r"(sstatus));
 364              		.loc 2 184 5
 185:src/../h/Riscv.hpp ****     return sstatus;
 365              		.loc 2 185 5
 185:src/../h/Riscv.hpp ****     return sstatus;
 366              		.loc 2 185 57 is_stmt 0
 367              	#APP
 368              	# 185 "src/../h/Riscv.hpp" 1
 369              		csrr a5, sstatus
 370              	# 0 "" 2
 371              	#NO_APP
 372 0178 2334F4FC 		sd	a5,-56(s0)
 373              		.loc 2 186 5 is_stmt 1
 374              		.loc 2 186 12 is_stmt 0
 375 017c 033984FC 		ld	s2,-56(s0)
 376              	.LVL21:
 377              	.LBE62:
 378              	.LBE61:
  59:src/Riscv.cpp ****     static char digits[] = "0123456789";
 379              		.loc 1 59 5 is_stmt 1
GAS LISTING /tmp/ccwOvjHr.s 			page 16


 380              	.LBB63:
 381              	.LBB64:
 180:src/../h/Riscv.hpp **** }
 382              		.loc 2 180 5
 180:src/../h/Riscv.hpp **** }
 383              		.loc 2 180 54 is_stmt 0
 384 0180 93072000 		li	a5,2
 385              	#APP
 386              	# 180 "src/../h/Riscv.hpp" 1
 387              		csrc sstatus, a5
 388              	# 0 "" 2
 389              	.LVL22:
 390              	#NO_APP
 391              	.LBE64:
 392              	.LBE63:
  60:src/Riscv.cpp ****     char buf[16];
 393              		.loc 1 60 5 is_stmt 1
  61:src/Riscv.cpp ****     int i, neg;
 394              		.loc 1 61 5
  62:src/Riscv.cpp ****     uint x;
 395              		.loc 1 62 5
  63:src/Riscv.cpp **** 
 396              		.loc 1 63 5
  65:src/Riscv.cpp ****     if(num < 0)
 397              		.loc 1 65 5
  66:src/Riscv.cpp ****     {
 398              		.loc 1 66 5
  72:src/Riscv.cpp **** 
 399              		.loc 1 72 9
  72:src/Riscv.cpp **** 
 400              		.loc 1 72 11 is_stmt 0
 401 0188 1B050500 		sext.w	a0,a0
 402              	.LVL23:
  74:src/Riscv.cpp ****     do
 403              		.loc 1 74 5 is_stmt 1
  74:src/Riscv.cpp ****     do
 404              		.loc 1 74 7 is_stmt 0
 405 018c 93040000 		li	s1,0
 406              	.LVL24:
 407              	.L18:
  75:src/Riscv.cpp ****     {
 408              		.loc 1 75 5 is_stmt 1
  77:src/Riscv.cpp ****     }while((x/=10) != 0);
 409              		.loc 1 77 9
  77:src/Riscv.cpp ****     }while((x/=10) != 0);
 410              		.loc 1 77 28 is_stmt 0
 411 0190 1306A000 		li	a2,10
 412 0194 3B77C502 		remuw	a4,a0,a2
 413              	.LVL25:
  77:src/Riscv.cpp ****     }while((x/=10) != 0);
 414              		.loc 1 77 31
 415 0198 93160702 		slli	a3,a4,32
 416 019c 93D60602 		srli	a3,a3,32
 417 01a0 17070000 		lla	a4,.LANCHOR0
 417      13070700 
 418 01a8 3307D700 		add	a4,a4,a3
 419 01ac 03470700 		lbu	a4,0(a4)
GAS LISTING /tmp/ccwOvjHr.s 			page 17


  77:src/Riscv.cpp ****     }while((x/=10) != 0);
 420              		.loc 1 77 18
 421 01b0 930604FE 		addi	a3,s0,-32
 422 01b4 B3879600 		add	a5,a3,s1
 423 01b8 9B841400 		addiw	s1,s1,1
 424              	.LVL26:
 425 01bc 2388E7FE 		sb	a4,-16(a5)
  78:src/Riscv.cpp ****     if(neg)
 426              		.loc 1 78 20 is_stmt 1
 427 01c0 1B070500 		sext.w	a4,a0
  78:src/Riscv.cpp ****     if(neg)
 428              		.loc 1 78 14 is_stmt 0
 429 01c4 3B55C502 		divuw	a0,a0,a2
 430              	.LVL27:
  78:src/Riscv.cpp ****     if(neg)
 431              		.loc 1 78 20
 432 01c8 93079000 		li	a5,9
 433 01cc E3E2E7FC 		bgtu	a4,a5,.L18
 434              	.LVL28:
 435              	.L20:
  82:src/Riscv.cpp ****         __putc(buf[i]);
 436              		.loc 1 82 5 is_stmt 1
  82:src/Riscv.cpp ****         __putc(buf[i]);
 437              		.loc 1 82 15
 438 01d0 9B84F4FF 		addiw	s1,s1,-1
 439              	.LVL29:
 440 01d4 63CE0400 		bltz	s1,.L19
  83:src/Riscv.cpp **** 
 441              		.loc 1 83 9
  83:src/Riscv.cpp **** 
 442              		.loc 1 83 15 is_stmt 0
 443 01d8 930704FE 		addi	a5,s0,-32
 444 01dc B3879700 		add	a5,a5,s1
 445 01e0 03C507FF 		lbu	a0,-16(a5)
 446 01e4 97000000 		call	__putc@plt
 446      E7800000 
 447              	.LVL30:
 448 01ec 6FF05FFE 		j	.L20
 449              	.L19:
  85:src/Riscv.cpp **** 
 450              		.loc 1 85 5 is_stmt 1
  85:src/Riscv.cpp **** 
 451              		.loc 1 85 11 is_stmt 0
 452 01f0 1305A000 		li	a0,10
 453 01f4 97000000 		call	__putc@plt
 453      E7800000 
 454              	.LVL31:
  87:src/Riscv.cpp **** }
 455              		.loc 1 87 5 is_stmt 1
  87:src/Riscv.cpp **** }
 456              		.loc 1 87 38 is_stmt 0
 457 01fc 1B090900 		sext.w	s2,s2
 458              	.LVL32:
  87:src/Riscv.cpp **** }
 459              		.loc 1 87 15
 460 0200 13792900 		andi	s2,s2,2
 461 0204 1B090900 		sext.w	s2,s2
GAS LISTING /tmp/ccwOvjHr.s 			page 18


 462              	.LVL33:
 463              	.LBB65:
 464              	.LBB66:
 176:src/../h/Riscv.hpp **** }
 465              		.loc 2 176 5 is_stmt 1
 176:src/../h/Riscv.hpp **** }
 466              		.loc 2 176 54 is_stmt 0
 467              	#APP
 468              	# 176 "src/../h/Riscv.hpp" 1
 469              		csrs sstatus, s2
 470              	# 0 "" 2
 471              	.LVL34:
 472              	#NO_APP
 473              	.LBE66:
 474              	.LBE65:
  88:src/Riscv.cpp **** 
 475              		.loc 1 88 1
 476 020c 83308103 		ld	ra,56(sp)
 477              		.cfi_restore 1
 478 0210 03340103 		ld	s0,48(sp)
 479              		.cfi_restore 8
 480              		.cfi_def_cfa 2, 64
 481 0214 83348102 		ld	s1,40(sp)
 482              		.cfi_restore 9
 483 0218 03390102 		ld	s2,32(sp)
 484              		.cfi_restore 18
 485 021c 13010104 		addi	sp,sp,64
 486              		.cfi_def_cfa_offset 0
 487 0220 67800000 		jr	ra
 488              		.cfi_endproc
 489              	.LFE32:
 491              		.align	2
 492              		.globl	_ZN5Riscv20handleSupervisorTrapEv
 494              	_ZN5Riscv20handleSupervisorTrapEv:
 495              	.LFB33:
  91:src/Riscv.cpp ****     __asm__ volatile("mv %0, a4" : "=r"(PCB::savedRegA4));
 496              		.loc 1 91 1 is_stmt 1
 497              		.cfi_startproc
 498 0224 130101F9 		addi	sp,sp,-112
 499              		.cfi_def_cfa_offset 112
 500 0228 23341106 		sd	ra,104(sp)
 501 022c 23308106 		sd	s0,96(sp)
 502 0230 233C9104 		sd	s1,88(sp)
 503              		.cfi_offset 1, -8
 504              		.cfi_offset 8, -16
 505              		.cfi_offset 9, -24
 506 0234 13040107 		addi	s0,sp,112
 507              		.cfi_def_cfa 8, 0
  92:src/Riscv.cpp **** 
 508              		.loc 1 92 5
  92:src/Riscv.cpp **** 
 509              		.loc 1 92 58 is_stmt 0
 510              	#APP
 511              	# 92 "src/Riscv.cpp" 1
 512              		mv a4, a4
 513              	# 0 "" 2
 514              	#NO_APP
GAS LISTING /tmp/ccwOvjHr.s 			page 19


 515 023c 97070000 		la	a5,_ZN3PCB10savedRegA4E
 515      83B70700 
 516 0244 23B0E700 		sd	a4,0(a5)
  94:src/Riscv.cpp **** 
 517              		.loc 1 94 5 is_stmt 1
 518              	.LBB67:
 519              	.LBB68:
 105:src/../h/Riscv.hpp ****     __asm__ volatile("csrr %0, scause" : "=r"(scause));
 520              		.loc 2 105 5
 106:src/../h/Riscv.hpp ****     return scause;
 521              		.loc 2 106 5
 106:src/../h/Riscv.hpp ****     return scause;
 522              		.loc 2 106 55 is_stmt 0
 523              	#APP
 524              	# 106 "src/../h/Riscv.hpp" 1
 525              		csrr a5, scause
 526              	# 0 "" 2
 527              	#NO_APP
 528 024c 233CF4FA 		sd	a5,-72(s0)
 107:src/../h/Riscv.hpp **** }
 529              		.loc 2 107 5 is_stmt 1
 107:src/../h/Riscv.hpp **** }
 530              		.loc 2 107 12 is_stmt 0
 531 0250 833784FB 		ld	a5,-72(s0)
 532              	.LVL35:
 533              	.LBE68:
 534              	.LBE67:
  96:src/Riscv.cpp ****     {
 535              		.loc 1 96 5 is_stmt 1
 536              	.LBB69:
 537 0254 1307F0FF 		li	a4,-1
 538 0258 1317F703 		slli	a4,a4,63
 539 025c 13071700 		addi	a4,a4,1
 540 0260 6388E70A 		beq	a5,a4,.L23
 541 0264 1307F0FF 		li	a4,-1
 542 0268 1317F703 		slli	a4,a4,63
 543 026c 13071700 		addi	a4,a4,1
 544 0270 636EF704 		bgtu	a5,a4,.L24
 545 0274 938787FF 		addi	a5,a5,-8
 546              	.LVL36:
 547 0278 13071000 		li	a4,1
 548 027c 636CF716 		bgtu	a5,a4,.L22
 549              	.LBE69:
 156:src/Riscv.cpp ****         case ecallUserInterrupt:
 550              		.loc 1 156 9
 157:src/Riscv.cpp ****         {
 551              		.loc 1 157 9
 158:src/Riscv.cpp ****             uint64 operation;
 552              		.loc 1 158 9
 553              	.LBB99:
 554              	.LBB70:
 159:src/Riscv.cpp ****             __asm__ volatile("mv %0, a0" :  "=r"(operation));
 555              		.loc 1 159 13
 160:src/Riscv.cpp **** 
 556              		.loc 1 160 13
 160:src/Riscv.cpp **** 
 557              		.loc 1 160 61 is_stmt 0
GAS LISTING /tmp/ccwOvjHr.s 			page 20


 558              	#APP
 559              	# 160 "src/Riscv.cpp" 1
 560              		mv a5, a0
 561              	# 0 "" 2
 562              	.LVL37:
 162:src/Riscv.cpp ****             uint64 volatile sstatus = Riscv::r_sstatus();
 563              		.loc 1 162 13 is_stmt 1
 564              	#NO_APP
 565              	.LBB71:
 566              	.LBB72:
 115:src/../h/Riscv.hpp ****     __asm__ volatile("csrr %0, sepc" : "=r"(sepc));
 567              		.loc 2 115 5
 116:src/../h/Riscv.hpp ****     return sepc;
 568              		.loc 2 116 5
 116:src/../h/Riscv.hpp ****     return sepc;
 569              		.loc 2 116 51 is_stmt 0
 570              	#APP
 571              	# 116 "src/../h/Riscv.hpp" 1
 572              		csrr a4, sepc
 573              	# 0 "" 2
 574              	#NO_APP
 575 0288 233CE4FC 		sd	a4,-40(s0)
 117:src/../h/Riscv.hpp **** }
 576              		.loc 2 117 5 is_stmt 1
 117:src/../h/Riscv.hpp **** }
 577              		.loc 2 117 12 is_stmt 0
 578 028c 033784FD 		ld	a4,-40(s0)
 579              	.LBE72:
 580              	.LBE71:
 162:src/Riscv.cpp ****             uint64 volatile sstatus = Riscv::r_sstatus();
 581              		.loc 1 162 52
 582 0290 13074700 		addi	a4,a4,4
 162:src/Riscv.cpp ****             uint64 volatile sstatus = Riscv::r_sstatus();
 583              		.loc 1 162 54
 584 0294 2334E4FA 		sd	a4,-88(s0)
 163:src/Riscv.cpp **** 
 585              		.loc 1 163 13 is_stmt 1
 586              	.LBB73:
 587              	.LBB74:
 184:src/../h/Riscv.hpp ****     __asm__ volatile("csrr %0, sstatus" : "=r"(sstatus));
 588              		.loc 2 184 5
 185:src/../h/Riscv.hpp ****     return sstatus;
 589              		.loc 2 185 5
 185:src/../h/Riscv.hpp ****     return sstatus;
 590              		.loc 2 185 57 is_stmt 0
 591              	#APP
 592              	# 185 "src/../h/Riscv.hpp" 1
 593              		csrr a4, sstatus
 594              	# 0 "" 2
 595              	#NO_APP
 596 029c 2338E4FC 		sd	a4,-48(s0)
 597              		.loc 2 186 5 is_stmt 1
 598              		.loc 2 186 12 is_stmt 0
 599 02a0 033704FD 		ld	a4,-48(s0)
 600              	.LBE74:
 601              	.LBE73:
 163:src/Riscv.cpp **** 
GAS LISTING /tmp/ccwOvjHr.s 			page 21


 602              		.loc 1 163 56
 603 02a4 2338E4FA 		sd	a4,-80(s0)
 165:src/Riscv.cpp ****             {
 604              		.loc 1 165 13 is_stmt 1
 605 02a8 13072004 		li	a4,66
 606 02ac 636CF712 		bgtu	a5,a4,.L30
 607 02b0 93972700 		slli	a5,a5,2
 608              	.LVL38:
 609 02b4 17070000 		lla	a4,.L32
 609      13070700 
 610 02bc B387E700 		add	a5,a5,a4
 611 02c0 83A70700 		lw	a5,0(a5)
 612 02c4 B387E700 		add	a5,a5,a4
 613 02c8 67800700 		jr	a5
 614              		.section	.rodata
 615              		.align	2
 616              		.align	2
 617              	.L32:
 618 0000 00000000 		.word	.L30-.L32
 619 0004 00000000 		.word	.L45-.L32
 620 0008 00000000 		.word	.L44-.L32
 621 000c 00000000 		.word	.L30-.L32
 622 0010 00000000 		.word	.L30-.L32
 623 0014 00000000 		.word	.L30-.L32
 624 0018 00000000 		.word	.L30-.L32
 625 001c 00000000 		.word	.L30-.L32
 626 0020 00000000 		.word	.L30-.L32
 627 0024 00000000 		.word	.L30-.L32
 628 0028 00000000 		.word	.L30-.L32
 629 002c 00000000 		.word	.L30-.L32
 630 0030 00000000 		.word	.L30-.L32
 631 0034 00000000 		.word	.L30-.L32
 632 0038 00000000 		.word	.L30-.L32
 633 003c 00000000 		.word	.L30-.L32
 634 0040 00000000 		.word	.L30-.L32
 635 0044 00000000 		.word	.L43-.L32
 636 0048 00000000 		.word	.L42-.L32
 637 004c 00000000 		.word	.L41-.L32
 638 0050 00000000 		.word	.L40-.L32
 639 0054 00000000 		.word	.L39-.L32
 640 0058 00000000 		.word	.L30-.L32
 641 005c 00000000 		.word	.L30-.L32
 642 0060 00000000 		.word	.L30-.L32
 643 0064 00000000 		.word	.L30-.L32
 644 0068 00000000 		.word	.L30-.L32
 645 006c 00000000 		.word	.L30-.L32
 646 0070 00000000 		.word	.L30-.L32
 647 0074 00000000 		.word	.L30-.L32
 648 0078 00000000 		.word	.L30-.L32
 649 007c 00000000 		.word	.L30-.L32
 650 0080 00000000 		.word	.L30-.L32
 651 0084 00000000 		.word	.L38-.L32
 652 0088 00000000 		.word	.L37-.L32
 653 008c 00000000 		.word	.L36-.L32
 654 0090 00000000 		.word	.L35-.L32
 655 0094 00000000 		.word	.L30-.L32
 656 0098 00000000 		.word	.L30-.L32
GAS LISTING /tmp/ccwOvjHr.s 			page 22


 657 009c 00000000 		.word	.L30-.L32
 658 00a0 00000000 		.word	.L30-.L32
 659 00a4 00000000 		.word	.L30-.L32
 660 00a8 00000000 		.word	.L30-.L32
 661 00ac 00000000 		.word	.L30-.L32
 662 00b0 00000000 		.word	.L30-.L32
 663 00b4 00000000 		.word	.L30-.L32
 664 00b8 00000000 		.word	.L30-.L32
 665 00bc 00000000 		.word	.L30-.L32
 666 00c0 00000000 		.word	.L30-.L32
 667 00c4 00000000 		.word	.L34-.L32
 668 00c8 00000000 		.word	.L30-.L32
 669 00cc 00000000 		.word	.L30-.L32
 670 00d0 00000000 		.word	.L30-.L32
 671 00d4 00000000 		.word	.L30-.L32
 672 00d8 00000000 		.word	.L30-.L32
 673 00dc 00000000 		.word	.L30-.L32
 674 00e0 00000000 		.word	.L30-.L32
 675 00e4 00000000 		.word	.L30-.L32
 676 00e8 00000000 		.word	.L30-.L32
 677 00ec 00000000 		.word	.L30-.L32
 678 00f0 00000000 		.word	.L30-.L32
 679 00f4 00000000 		.word	.L30-.L32
 680 00f8 00000000 		.word	.L30-.L32
 681 00fc 00000000 		.word	.L30-.L32
 682 0100 00000000 		.word	.L30-.L32
 683 0104 00000000 		.word	.L33-.L32
 684 0108 00000000 		.word	.L31-.L32
 685              		.text
 686              	.LVL39:
 687              	.L24:
 688              	.LBE70:
  96:src/Riscv.cpp ****     {
 689              		.loc 1 96 5 is_stmt 0
 690 02cc 1307F0FF 		li	a4,-1
 691 02d0 1317F703 		slli	a4,a4,63
 692 02d4 13079700 		addi	a4,a4,9
 693 02d8 639EE710 		bne	a5,a4,.L22
 694              	.LBE99:
 120:src/Riscv.cpp ****         {
 695              		.loc 1 120 9 is_stmt 1
 121:src/Riscv.cpp ****             uint64 x = CONSOLE_STATUS;
 696              		.loc 1 121 9
 697              	.LBB100:
 698              	.LBB79:
 122:src/Riscv.cpp ****             __asm__ volatile("mv a0, %0"::"r"(x));
 699              		.loc 1 122 13
 122:src/Riscv.cpp ****             __asm__ volatile("mv a0, %0"::"r"(x));
 700              		.loc 1 122 20 is_stmt 0
 701 02dc 97070000 		la	a5,CONSOLE_STATUS
 701      83B70700 
 702              	.LVL40:
 703 02e4 83B70700 		ld	a5,0(a5)
 704              	.LVL41:
 123:src/Riscv.cpp ****             __asm__ volatile("lb a1, 0(a0)");
 705              		.loc 1 123 13 is_stmt 1
 123:src/Riscv.cpp ****             __asm__ volatile("lb a1, 0(a0)");
GAS LISTING /tmp/ccwOvjHr.s 			page 23


 706              		.loc 1 123 50 is_stmt 0
 707              	#APP
 708              	# 123 "src/Riscv.cpp" 1
 124:src/Riscv.cpp ****             uint64 operation;
 709              		mv a0, a5
 710              	# 0 "" 2
 711              		.loc 1 124 13 is_stmt 1
 124:src/Riscv.cpp ****             uint64 operation;
 712              		.loc 1 124 45 is_stmt 0
 713              	# 124 "src/Riscv.cpp" 1
 125:src/Riscv.cpp ****             __asm__ volatile("mv %0, a1" :  "=r"(operation));
 714              		lb a1, 0(a0)
 715              	# 0 "" 2
 716              		.loc 1 125 13 is_stmt 1
 126:src/Riscv.cpp ****             if(operation & KConsole::STATUS_READ_MASK)
 717              		.loc 1 126 13
 126:src/Riscv.cpp ****             if(operation & KConsole::STATUS_READ_MASK)
 718              		.loc 1 126 61 is_stmt 0
 719              	# 126 "src/Riscv.cpp" 1
 720              		mv a5, a1
 721              	# 0 "" 2
 722              	.LVL42:
 127:src/Riscv.cpp ****             {
 723              		.loc 1 127 13 is_stmt 1
 724              	#NO_APP
 725              	.LBB80:
 127:src/Riscv.cpp ****             {
 726              		.loc 1 127 26 is_stmt 0
 727 02f4 93F71700 		andi	a5,a5,1
 728              	.LVL43:
 127:src/Riscv.cpp ****             {
 729              		.loc 1 127 13
 730 02f8 6396070A 		bnez	a5,.L48
 731              	.LVL44:
 732              	.L29:
 733              	.LBE80:
 140:src/Riscv.cpp **** 
 734              		.loc 1 140 13 is_stmt 1
 140:src/Riscv.cpp **** 
 735              		.loc 1 140 26 is_stmt 0
 736 02fc 97000000 		call	plic_claim@plt
 736      E7800000 
 737              	.LVL45:
 738 0304 97000000 		call	plic_complete@plt
 738      E7800000 
 739              	.LVL46:
 142:src/Riscv.cpp ****         }
 740              		.loc 1 142 13 is_stmt 1
 741 030c 6F00800E 		j	.L22
 742              	.LVL47:
 743              	.L23:
 744              	.LBE79:
 745              	.LBE100:
  98:src/Riscv.cpp ****         {
 746              		.loc 1 98 9
  99:src/Riscv.cpp ****             uint64 volatile sepc = Riscv::r_sepc();
 747              		.loc 1 99 9
GAS LISTING /tmp/ccwOvjHr.s 			page 24


 748              	.LBB101:
 749              	.LBB83:
 100:src/Riscv.cpp ****             uint64 volatile sstatus = Riscv::r_sstatus();
 750              		.loc 1 100 13
 751              	.LBB84:
 752              	.LBB85:
 115:src/../h/Riscv.hpp ****     __asm__ volatile("csrr %0, sepc" : "=r"(sepc));
 753              		.loc 2 115 5
 116:src/../h/Riscv.hpp ****     return sepc;
 754              		.loc 2 116 5
 116:src/../h/Riscv.hpp ****     return sepc;
 755              		.loc 2 116 51 is_stmt 0
 756              	#APP
 757              	# 116 "src/../h/Riscv.hpp" 1
 758              		csrr a5, sepc
 759              	# 0 "" 2
 760              	.LVL48:
 761              	#NO_APP
 762 0314 2334F4FC 		sd	a5,-56(s0)
 117:src/../h/Riscv.hpp **** }
 763              		.loc 2 117 5 is_stmt 1
 117:src/../h/Riscv.hpp **** }
 764              		.loc 2 117 12 is_stmt 0
 765 0318 833784FC 		ld	a5,-56(s0)
 766              	.LBE85:
 767              	.LBE84:
 100:src/Riscv.cpp ****             uint64 volatile sstatus = Riscv::r_sstatus();
 768              		.loc 1 100 50
 769 031c 233CF4F8 		sd	a5,-104(s0)
 101:src/Riscv.cpp ****             mc_sip(Riscv::SIP_SSIP);
 770              		.loc 1 101 13 is_stmt 1
 771              	.LBB86:
 772              	.LBB87:
 184:src/../h/Riscv.hpp ****     __asm__ volatile("csrr %0, sstatus" : "=r"(sstatus));
 773              		.loc 2 184 5
 185:src/../h/Riscv.hpp ****     return sstatus;
 774              		.loc 2 185 5
 185:src/../h/Riscv.hpp ****     return sstatus;
 775              		.loc 2 185 57 is_stmt 0
 776              	#APP
 777              	# 185 "src/../h/Riscv.hpp" 1
 778              		csrr a5, sstatus
 779              	# 0 "" 2
 780              	#NO_APP
 781 0324 2330F4FC 		sd	a5,-64(s0)
 782              		.loc 2 186 5 is_stmt 1
 783              		.loc 2 186 12 is_stmt 0
 784 0328 833704FC 		ld	a5,-64(s0)
 785              	.LBE87:
 786              	.LBE86:
 101:src/Riscv.cpp ****             mc_sip(Riscv::SIP_SSIP);
 787              		.loc 1 101 56
 788 032c 2330F4FA 		sd	a5,-96(s0)
 102:src/Riscv.cpp ****             //Riscv::printString("timerInterrupt\n");
 789              		.loc 1 102 13 is_stmt 1
 790              	.LVL49:
 791              	.LBB88:
GAS LISTING /tmp/ccwOvjHr.s 			page 25


 792              	.LBB89:
 154:src/../h/Riscv.hpp **** }
 793              		.loc 2 154 5
 154:src/../h/Riscv.hpp **** }
 794              		.loc 2 154 50 is_stmt 0
 795 0330 93072000 		li	a5,2
 796              	#APP
 797              	# 154 "src/../h/Riscv.hpp" 1
 798              		csrc sip, a5
 799              	# 0 "" 2
 800              	.LVL50:
 801              	#NO_APP
 802              	.LBE89:
 803              	.LBE88:
 104:src/Riscv.cpp ****             total++;
 804              		.loc 1 104 13 is_stmt 1
 105:src/Riscv.cpp **** 
 805              		.loc 1 105 13
 105:src/Riscv.cpp **** 
 806              		.loc 1 105 18 is_stmt 0
 807 0338 17070000 		lla	a4,.LANCHOR1
 807      13070700 
 808 0340 83370700 		ld	a5,0(a4)
 809 0344 93871700 		addi	a5,a5,1
 810 0348 2330F700 		sd	a5,0(a4)
 107:src/Riscv.cpp ****             SleepPCBList::tryToWakePCBs();
 811              		.loc 1 107 13 is_stmt 1
 107:src/Riscv.cpp ****             SleepPCBList::tryToWakePCBs();
 812              		.loc 1 107 34 is_stmt 0
 813 034c 97040000 		la	s1,_ZN3PCB16timeSliceCounterE
 813      83B40400 
 814 0354 83B70400 		ld	a5,0(s1)
 815 0358 93871700 		addi	a5,a5,1
 816 035c 23B0F400 		sd	a5,0(s1)
 108:src/Riscv.cpp ****             if (PCB::timeSliceCounter >= PCB::running->getTimeSlice())
 817              		.loc 1 108 13 is_stmt 1
 108:src/Riscv.cpp ****             if (PCB::timeSliceCounter >= PCB::running->getTimeSlice())
 818              		.loc 1 108 40 is_stmt 0
 819 0360 97000000 		call	_ZN12SleepPCBList13tryToWakePCBsEv@plt
 819      E7800000 
 820              	.LVL51:
 109:src/Riscv.cpp ****             {
 821              		.loc 1 109 13 is_stmt 1
 109:src/Riscv.cpp ****             {
 822              		.loc 1 109 68 is_stmt 0
 823 0368 97070000 		la	a5,_ZN3PCB7runningE
 823      83B70700 
 824 0370 83B70700 		ld	a5,0(a5)
 825              	.LVL52:
 826              	.LBB90:
 827              	.LBB91:
 828              		.file 3 "src/../h/PCB.hpp"
   1:src/../h/PCB.hpp **** //
   2:src/../h/PCB.hpp **** // Created by os on 4/27/22.
   3:src/../h/PCB.hpp **** //
   4:src/../h/PCB.hpp **** 
   5:src/../h/PCB.hpp **** #ifndef PROJECT_BASE_V1_0_PCB_HPP
GAS LISTING /tmp/ccwOvjHr.s 			page 26


   6:src/../h/PCB.hpp **** #define PROJECT_BASE_V1_0_PCB_HPP
   7:src/../h/PCB.hpp **** 
   8:src/../h/PCB.hpp **** #include "../lib/hw.h"
   9:src/../h/PCB.hpp **** #include "Scheduler.hpp"
  10:src/../h/PCB.hpp **** #include "Riscv.hpp"
  11:src/../h/PCB.hpp **** 
  12:src/../h/PCB.hpp **** class PCB
  13:src/../h/PCB.hpp **** {
  14:src/../h/PCB.hpp **** public:
  15:src/../h/PCB.hpp ****     static uint64 savedRegA4;
  16:src/../h/PCB.hpp **** 
  17:src/../h/PCB.hpp ****     using Body = void (*)(void*);
  18:src/../h/PCB.hpp **** 
  19:src/../h/PCB.hpp ****     PCB(Body body,  void* args, void* stack_space, uint64 timeSlice);
  20:src/../h/PCB.hpp ****     ~PCB();
  21:src/../h/PCB.hpp **** 
  22:src/../h/PCB.hpp ****     void start();
  23:src/../h/PCB.hpp ****     static void dispatch();
  24:src/../h/PCB.hpp ****     static void sleep(time_t);
  25:src/../h/PCB.hpp **** 
  26:src/../h/PCB.hpp ****     static PCB* running;
  27:src/../h/PCB.hpp **** 
  28:src/../h/PCB.hpp ****     static uint64 timeSliceCounter;
  29:src/../h/PCB.hpp ****     uint64 getTimeSlice() { return timeSlice;}
 829              		.loc 3 29 29 is_stmt 1
 830              		.loc 3 29 36 is_stmt 0
 831 0374 83B70701 		ld	a5,16(a5)
 832              	.LVL53:
 833              	.LBE91:
 834              	.LBE90:
 109:src/Riscv.cpp ****             {
 835              		.loc 1 109 39
 836 0378 03B70400 		ld	a4,0(s1)
 109:src/Riscv.cpp ****             {
 837              		.loc 1 109 13
 838 037c 637CF700 		bgeu	a4,a5,.L49
 839              	.L28:
 115:src/Riscv.cpp ****             Riscv::w_sepc(sepc);
 840              		.loc 1 115 13 is_stmt 1
 115:src/Riscv.cpp ****             Riscv::w_sepc(sepc);
 841              		.loc 1 115 29 is_stmt 0
 842 0380 833704FA 		ld	a5,-96(s0)
 843              	.LVL54:
 844              	.LBB92:
 845              	.LBB93:
 187:src/../h/Riscv.hpp **** }
 188:src/../h/Riscv.hpp **** 
 189:src/../h/Riscv.hpp **** inline void Riscv::w_sstatus(uint64 sstatus) {
 190:src/../h/Riscv.hpp ****     __asm__ volatile("csrw sstatus, %0" : :"r"(sstatus));
 846              		.loc 2 190 5 is_stmt 1
 847              		.loc 2 190 57 is_stmt 0
 848              	#APP
 849              	# 190 "src/../h/Riscv.hpp" 1
 191              	}
 850              		csrw sstatus, a5
 851              	# 0 "" 2
 852              	.LVL55:
GAS LISTING /tmp/ccwOvjHr.s 			page 27


 853              	#NO_APP
 854              	.LBE93:
 855              	.LBE92:
 116:src/Riscv.cpp **** 
 856              		.loc 1 116 13 is_stmt 1
 116:src/Riscv.cpp **** 
 857              		.loc 1 116 26 is_stmt 0
 858 0388 833784F9 		ld	a5,-104(s0)
 859              	.LVL56:
 860              	.LBB94:
 861              	.LBB95:
 121:src/../h/Riscv.hpp **** }
 862              		.loc 2 121 5 is_stmt 1
 121:src/../h/Riscv.hpp **** }
 863              		.loc 2 121 51 is_stmt 0
 864              	#APP
 865              	# 121 "src/../h/Riscv.hpp" 1
 122:src/../h/Riscv.hpp **** 
 866              		csrw sepc, a5
 867              	# 0 "" 2
 868              		.loc 2 122 1
 869              	#NO_APP
 870 0390 6F004006 		j	.L22
 871              	.LVL57:
 872              	.L49:
 873              	.LBE95:
 874              	.LBE94:
 111:src/Riscv.cpp ****                 PCB::dispatch();
 875              		.loc 1 111 17 is_stmt 1
 111:src/Riscv.cpp ****                 PCB::dispatch();
 876              		.loc 1 111 39 is_stmt 0
 877 0394 23B00400 		sd	zero,0(s1)
 112:src/Riscv.cpp ****             }
 878              		.loc 1 112 17 is_stmt 1
 112:src/Riscv.cpp ****             }
 879              		.loc 1 112 30 is_stmt 0
 880 0398 97000000 		call	_ZN3PCB8dispatchEv@plt
 880      E7800000 
 881              	.LVL58:
 882 03a0 6FF01FFE 		j	.L28
 883              	.LVL59:
 884              	.L48:
 885              	.LBE83:
 886              	.LBB96:
 887              	.LBB82:
 888              	.LBB81:
 129:src/Riscv.cpp ****                 __asm__ volatile("mv a0, %0"::"r"(x));
 889              		.loc 1 129 17 is_stmt 1
 129:src/Riscv.cpp ****                 __asm__ volatile("mv a0, %0"::"r"(x));
 890              		.loc 1 129 19 is_stmt 0
 891 03a4 97070000 		la	a5,CONSOLE_TX_DATA
 891      83B70700 
 892 03ac 83B70700 		ld	a5,0(a5)
 893              	.LVL60:
 130:src/Riscv.cpp ****                 __asm__ volatile("lb a1,0(a0)");
 894              		.loc 1 130 17 is_stmt 1
 130:src/Riscv.cpp ****                 __asm__ volatile("lb a1,0(a0)");
GAS LISTING /tmp/ccwOvjHr.s 			page 28


 895              		.loc 1 130 54 is_stmt 0
 896              	#APP
 897              	# 130 "src/Riscv.cpp" 1
 131:src/Riscv.cpp ****                 char c;
 898              		mv a0, a5
 899              	# 0 "" 2
 900              		.loc 1 131 17 is_stmt 1
 131:src/Riscv.cpp ****                 char c;
 901              		.loc 1 131 48 is_stmt 0
 902              	# 131 "src/Riscv.cpp" 1
 132:src/Riscv.cpp ****                 __asm__ volatile("mv %0, a1" :  "=r"(c));
 903              		lb a1,0(a0)
 904              	# 0 "" 2
 905              		.loc 1 132 17 is_stmt 1
 133:src/Riscv.cpp ****                 //putCharacterOutput(c);
 906              		.loc 1 133 17
 133:src/Riscv.cpp ****                 //putCharacterOutput(c);
 907              		.loc 1 133 57 is_stmt 0
 908              	# 133 "src/Riscv.cpp" 1
 909              		mv s1, a1
 910              	# 0 "" 2
 911              	#NO_APP
 912 03bc 93F4F40F 		andi	s1,s1,0xff
 913              	.LVL61:
 136:src/Riscv.cpp ****                 KConsole::putCharacterOutput(c);
 914              		.loc 1 136 17 is_stmt 1
 136:src/Riscv.cpp ****                 KConsole::putCharacterOutput(c);
 915              		.loc 1 136 44 is_stmt 0
 916 03c0 13850400 		mv	a0,s1
 917 03c4 97000000 		call	_ZN8KConsole17putCharacterInputEc@plt
 917      E7800000 
 918              	.LVL62:
 137:src/Riscv.cpp ****             }
 919              		.loc 1 137 17 is_stmt 1
 137:src/Riscv.cpp ****             }
 920              		.loc 1 137 45 is_stmt 0
 921 03cc 13850400 		mv	a0,s1
 922 03d0 97000000 		call	_ZN8KConsole18putCharacterOutputEc@plt
 922      E7800000 
 923              	.LVL63:
 924              	.LBE81:
 925 03d8 6FF05FF2 		j	.L29
 926              	.LVL64:
 927              	.L45:
 928              	.LBE82:
 929              	.LBE96:
 930              	.LBB97:
 167:src/Riscv.cpp ****                     MemoryAllocator::memAllocHandler();
 931              		.loc 1 167 17 is_stmt 1
 168:src/Riscv.cpp ****                     break;
 932              		.loc 1 168 21
 168:src/Riscv.cpp ****                     break;
 933              		.loc 1 168 53 is_stmt 0
 934 03dc 97000000 		call	_ZN15MemoryAllocator15memAllocHandlerEv@plt
 934      E7800000 
 935              	.LVL65:
 169:src/Riscv.cpp ****                 case MemoryAllocator::MEM_FREE:
GAS LISTING /tmp/ccwOvjHr.s 			page 29


 936              		.loc 1 169 21 is_stmt 1
 937              	.L30:
 211:src/Riscv.cpp ****             Riscv::w_sepc(sepc);
 938              		.loc 1 211 13
 211:src/Riscv.cpp ****             Riscv::w_sepc(sepc);
 939              		.loc 1 211 29 is_stmt 0
 940 03e4 833704FB 		ld	a5,-80(s0)
 941              	.LVL66:
 942              	.LBB75:
 943              	.LBB76:
 190:src/../h/Riscv.hpp **** }
 944              		.loc 2 190 5 is_stmt 1
 190:src/../h/Riscv.hpp **** }
 945              		.loc 2 190 57 is_stmt 0
 946              	#APP
 947              	# 190 "src/../h/Riscv.hpp" 1
 948              		csrw sstatus, a5
 949              	# 0 "" 2
 950              	.LVL67:
 951              	#NO_APP
 952              	.LBE76:
 953              	.LBE75:
 212:src/Riscv.cpp **** 
 954              		.loc 1 212 13 is_stmt 1
 212:src/Riscv.cpp **** 
 955              		.loc 1 212 26 is_stmt 0
 956 03ec 833784FA 		ld	a5,-88(s0)
 957              	.LVL68:
 958              	.LBB77:
 959              	.LBB78:
 121:src/../h/Riscv.hpp **** }
 960              		.loc 2 121 5 is_stmt 1
 121:src/../h/Riscv.hpp **** }
 961              		.loc 2 121 51 is_stmt 0
 962              	#APP
 963              	# 121 "src/../h/Riscv.hpp" 1
 964              		csrw sepc, a5
 965              	# 0 "" 2
 966              	.LVL69:
 967              	#NO_APP
 968              	.L22:
 969              	.LBE78:
 970              	.LBE77:
 971              	.LBE97:
 972              	.LBE101:
 217:src/Riscv.cpp **** 
 973              		.loc 1 217 1
 974 03f4 83308106 		ld	ra,104(sp)
 975              		.cfi_remember_state
 976              		.cfi_restore 1
 977 03f8 03340106 		ld	s0,96(sp)
 978              		.cfi_restore 8
 979              		.cfi_def_cfa 2, 112
 980 03fc 83348105 		ld	s1,88(sp)
 981              		.cfi_restore 9
 982 0400 13010107 		addi	sp,sp,112
 983              		.cfi_def_cfa_offset 0
GAS LISTING /tmp/ccwOvjHr.s 			page 30


 984 0404 67800000 		jr	ra
 985              	.L44:
 986              		.cfi_restore_state
 987              	.LBB102:
 988              	.LBB98:
 170:src/Riscv.cpp ****                     MemoryAllocator::memFreeHandler();
 989              		.loc 1 170 17 is_stmt 1
 171:src/Riscv.cpp ****                     break;
 990              		.loc 1 171 21
 171:src/Riscv.cpp ****                     break;
 991              		.loc 1 171 52 is_stmt 0
 992 0408 97000000 		call	_ZN15MemoryAllocator14memFreeHandlerEv@plt
 992      E7800000 
 993              	.LVL70:
 172:src/Riscv.cpp ****                 case PCB::THREAD_MAKE_PCB:
 994              		.loc 1 172 21 is_stmt 1
 995 0410 6FF05FFD 		j	.L30
 996              	.L40:
 173:src/Riscv.cpp ****                     PCB::threadMakePCBHandler();
 997              		.loc 1 173 17
 174:src/Riscv.cpp ****                     break;
 998              		.loc 1 174 21
 174:src/Riscv.cpp ****                     break;
 999              		.loc 1 174 46 is_stmt 0
 1000 0414 97000000 		call	_ZN3PCB20threadMakePCBHandlerEv@plt
 1000      E7800000 
 1001              	.LVL71:
 175:src/Riscv.cpp ****                 case PCB::THREAD_CREATE:
 1002              		.loc 1 175 21 is_stmt 1
 1003 041c 6FF09FFC 		j	.L30
 1004              	.L43:
 176:src/Riscv.cpp ****                     PCB::threadCreateHandler();
 1005              		.loc 1 176 17
 177:src/Riscv.cpp ****                     break;
 1006              		.loc 1 177 21
 177:src/Riscv.cpp ****                     break;
 1007              		.loc 1 177 45 is_stmt 0
 1008 0420 97000000 		call	_ZN3PCB19threadCreateHandlerEv@plt
 1008      E7800000 
 1009              	.LVL72:
 178:src/Riscv.cpp ****                 case PCB::THREAD_START:
 1010              		.loc 1 178 21 is_stmt 1
 1011 0428 6FF0DFFB 		j	.L30
 1012              	.L39:
 179:src/Riscv.cpp ****                     PCB::threadStartHandler();
 1013              		.loc 1 179 17
 180:src/Riscv.cpp ****                     break;
 1014              		.loc 1 180 21
 180:src/Riscv.cpp ****                     break;
 1015              		.loc 1 180 44 is_stmt 0
 1016 042c 97000000 		call	_ZN3PCB18threadStartHandlerEv@plt
 1016      E7800000 
 1017              	.LVL73:
 181:src/Riscv.cpp ****                 case PCB::THREAD_DISPATCH:
 1018              		.loc 1 181 21 is_stmt 1
 1019 0434 6FF01FFB 		j	.L30
 1020              	.L41:
GAS LISTING /tmp/ccwOvjHr.s 			page 31


 182:src/Riscv.cpp ****                     PCB::threadDispatchHandler();
 1021              		.loc 1 182 17
 183:src/Riscv.cpp ****                     break;
 1022              		.loc 1 183 21
 183:src/Riscv.cpp ****                     break;
 1023              		.loc 1 183 47 is_stmt 0
 1024 0438 97000000 		call	_ZN3PCB21threadDispatchHandlerEv@plt
 1024      E7800000 
 1025              	.LVL74:
 184:src/Riscv.cpp ****                 case PCB::THREAD_EXIT:
 1026              		.loc 1 184 21 is_stmt 1
 1027 0440 6FF05FFA 		j	.L30
 1028              	.L42:
 185:src/Riscv.cpp ****                     PCB::threadExitHandler();
 1029              		.loc 1 185 17
 186:src/Riscv.cpp ****                     break;
 1030              		.loc 1 186 21
 186:src/Riscv.cpp ****                     break;
 1031              		.loc 1 186 43 is_stmt 0
 1032 0444 97000000 		call	_ZN3PCB17threadExitHandlerEv@plt
 1032      E7800000 
 1033              	.LVL75:
 187:src/Riscv.cpp ****                 case PCB::TIME_SLEEP:
 1034              		.loc 1 187 21 is_stmt 1
 1035 044c 6FF09FF9 		j	.L30
 1036              	.L34:
 188:src/Riscv.cpp ****                     PCB::threadSleepHandler();
 1037              		.loc 1 188 17
 189:src/Riscv.cpp ****                     break;
 1038              		.loc 1 189 21
 189:src/Riscv.cpp ****                     break;
 1039              		.loc 1 189 44 is_stmt 0
 1040 0450 97000000 		call	_ZN3PCB18threadSleepHandlerEv@plt
 1040      E7800000 
 1041              	.LVL76:
 190:src/Riscv.cpp ****                 case KSemaphore::SEM_OPEN:
 1042              		.loc 1 190 21 is_stmt 1
 1043 0458 6FF0DFF8 		j	.L30
 1044              	.L38:
 191:src/Riscv.cpp ****                     KSemaphore::semOpenHandler();
 1045              		.loc 1 191 17
 192:src/Riscv.cpp ****                     break;
 1046              		.loc 1 192 21
 192:src/Riscv.cpp ****                     break;
 1047              		.loc 1 192 47 is_stmt 0
 1048 045c 97000000 		call	_ZN10KSemaphore14semOpenHandlerEv@plt
 1048      E7800000 
 1049              	.LVL77:
 193:src/Riscv.cpp ****                 case KSemaphore::SEM_WAIT:
 1050              		.loc 1 193 21 is_stmt 1
 1051 0464 6FF01FF8 		j	.L30
 1052              	.L36:
 194:src/Riscv.cpp ****                     KSemaphore::semWaitHandler();
 1053              		.loc 1 194 17
 195:src/Riscv.cpp ****                     break;
 1054              		.loc 1 195 21
 195:src/Riscv.cpp ****                     break;
GAS LISTING /tmp/ccwOvjHr.s 			page 32


 1055              		.loc 1 195 47 is_stmt 0
 1056 0468 97000000 		call	_ZN10KSemaphore14semWaitHandlerEv@plt
 1056      E7800000 
 1057              	.LVL78:
 196:src/Riscv.cpp ****                 case KSemaphore::SEM_SIGNAL:
 1058              		.loc 1 196 21 is_stmt 1
 1059 0470 6FF05FF7 		j	.L30
 1060              	.L35:
 197:src/Riscv.cpp ****                     KSemaphore::semSignalHandler();
 1061              		.loc 1 197 17
 198:src/Riscv.cpp ****                     break;
 1062              		.loc 1 198 21
 198:src/Riscv.cpp ****                     break;
 1063              		.loc 1 198 49 is_stmt 0
 1064 0474 97000000 		call	_ZN10KSemaphore16semSignalHandlerEv@plt
 1064      E7800000 
 1065              	.LVL79:
 199:src/Riscv.cpp ****                 case KSemaphore::SEM_CLOSE:
 1066              		.loc 1 199 21 is_stmt 1
 1067 047c 6FF09FF6 		j	.L30
 1068              	.L37:
 200:src/Riscv.cpp ****                     KSemaphore::semCloseHandler();
 1069              		.loc 1 200 17
 201:src/Riscv.cpp ****                     break;
 1070              		.loc 1 201 21
 201:src/Riscv.cpp ****                     break;
 1071              		.loc 1 201 48 is_stmt 0
 1072 0480 97000000 		call	_ZN10KSemaphore15semCloseHandlerEv@plt
 1072      E7800000 
 1073              	.LVL80:
 202:src/Riscv.cpp ****                 case KConsole::CONSOLE_GETC:
 1074              		.loc 1 202 21 is_stmt 1
 1075 0488 6FF0DFF5 		j	.L30
 1076              	.L33:
 203:src/Riscv.cpp ****                     KConsole::getcHandler();
 1077              		.loc 1 203 17
 204:src/Riscv.cpp ****                     break;
 1078              		.loc 1 204 21
 204:src/Riscv.cpp ****                     break;
 1079              		.loc 1 204 42 is_stmt 0
 1080 048c 97000000 		call	_ZN8KConsole11getcHandlerEv@plt
 1080      E7800000 
 1081              	.LVL81:
 205:src/Riscv.cpp ****                 case KConsole::CONSOLE_PUTC:
 1082              		.loc 1 205 21 is_stmt 1
 1083 0494 6FF01FF5 		j	.L30
 1084              	.L31:
 206:src/Riscv.cpp ****                     KConsole::putcHandler();
 1085              		.loc 1 206 17
 207:src/Riscv.cpp ****                     break;
 1086              		.loc 1 207 21
 207:src/Riscv.cpp ****                     break;
 1087              		.loc 1 207 42 is_stmt 0
 1088 0498 97000000 		call	_ZN8KConsole11putcHandlerEv@plt
 1088      E7800000 
 1089              	.LVL82:
 208:src/Riscv.cpp ****             }
GAS LISTING /tmp/ccwOvjHr.s 			page 33


 1090              		.loc 1 208 21 is_stmt 1
 1091 04a0 6FF05FF4 		j	.L30
 1092              	.LBE98:
 1093              	.LBE102:
 1094              		.cfi_endproc
 1095              	.LFE33:
 1097              		.section	.rodata.str1.8,"aMS",@progbits,1
 1098              		.align	3
 1099              	.LC0:
 1100 0000 456E642E 		.string	"End..."
 1100      2E2E00
 1101              		.text
 1102              		.align	2
 1103              		.globl	_ZN5Riscv10kernelMainEv
 1105              	_ZN5Riscv10kernelMainEv:
 1106              	.LFB34:
 220:src/Riscv.cpp ****     initSystem();
 1107              		.loc 1 220 1
 1108              		.cfi_startproc
 1109              		.cfi_personality 0x9b,DW.ref.__gxx_personality_v0
 1110              		.cfi_lsda 0x1b,.LLSDA34
 1111 04a4 130101FE 		addi	sp,sp,-32
 1112              		.cfi_def_cfa_offset 32
 1113 04a8 233C1100 		sd	ra,24(sp)
 1114 04ac 23388100 		sd	s0,16(sp)
 1115 04b0 23349100 		sd	s1,8(sp)
 1116 04b4 23302101 		sd	s2,0(sp)
 1117              		.cfi_offset 1, -8
 1118              		.cfi_offset 8, -16
 1119              		.cfi_offset 9, -24
 1120              		.cfi_offset 18, -32
 1121 04b8 13040102 		addi	s0,sp,32
 1122              		.cfi_def_cfa 8, 0
 221:src/Riscv.cpp **** 
 1123              		.loc 1 221 5
 1124              	.LEHB0:
 221:src/Riscv.cpp **** 
 1125              		.loc 1 221 15 is_stmt 0
 1126 04bc 97000000 		call	_ZN5Riscv10initSystemEv
 1126      E7800000 
 1127              	.LVL83:
 223:src/Riscv.cpp **** 
 1128              		.loc 1 223 5 is_stmt 1
 223:src/Riscv.cpp **** 
 1129              		.loc 1 223 21 is_stmt 0
 1130 04c4 97000000 		call	_ZN5Riscv16enableInterruptsEv
 1130      E7800000 
 1131              	.LVL84:
 226:src/Riscv.cpp ****     userPCB->start();
 1132              		.loc 1 226 5 is_stmt 1
 226:src/Riscv.cpp ****     userPCB->start();
 1133              		.loc 1 226 62 is_stmt 0
 1134 04cc 37150000 		li	a0,4096
 1135 04d0 97000000 		call	_Z7kmallocm@plt
 1135      E7800000 
 1136              	.LVL85:
 1137 04d8 13090500 		mv	s2,a0
GAS LISTING /tmp/ccwOvjHr.s 			page 34


 226:src/Riscv.cpp ****     userPCB->start();
 1138              		.loc 1 226 102
 1139 04dc 13050005 		li	a0,80
 1140 04e0 97000000 		call	_ZN3PCBnwEm@plt
 1140      E7800000 
 1141              	.LVL86:
 1142              	.LEHE0:
 1143 04e8 93040500 		mv	s1,a0
 1144 04ec 13072000 		li	a4,2
 1145 04f0 93060900 		mv	a3,s2
 1146 04f4 13060000 		li	a2,0
 1147 04f8 97050000 		lla	a1,_ZN5Riscv14myTestsWrapperEPv
 1147      93850500 
 1148              	.LEHB1:
 1149 0500 97000000 		call	_ZN3PCBC1EPFvPvES0_S0_m@plt
 1149      E7800000 
 1150              	.LVL87:
 1151              	.LEHE1:
 227:src/Riscv.cpp ****     while(!userPCB->isFinished())
 1152              		.loc 1 227 5 is_stmt 1 discriminator 2
 227:src/Riscv.cpp ****     while(!userPCB->isFinished())
 1153              		.loc 1 227 19 is_stmt 0 discriminator 2
 1154 0508 13850400 		mv	a0,s1
 1155              	.LEHB2:
 1156 050c 97000000 		call	_ZN3PCB5startEv@plt
 1156      E7800000 
 1157              	.LVL88:
 1158              	.L52:
 228:src/Riscv.cpp ****     {
 1159              		.loc 1 228 5 is_stmt 1
 228:src/Riscv.cpp ****     {
 1160              		.loc 1 228 11
 228:src/Riscv.cpp ****     {
 1161              		.loc 1 228 31 is_stmt 0
 1162 0514 13850400 		mv	a0,s1
 1163 0518 97000000 		call	_ZN3PCB10isFinishedEv@plt
 1163      E7800000 
 1164              	.LVL89:
 228:src/Riscv.cpp ****     {
 1165              		.loc 1 228 11
 1166 0520 63180500 		bnez	a0,.L51
 230:src/Riscv.cpp ****     }
 1167              		.loc 1 230 9 is_stmt 1
 230:src/Riscv.cpp ****     }
 1168              		.loc 1 230 24 is_stmt 0
 1169 0524 97000000 		call	thread_dispatch@plt
 1169      E7800000 
 1170              	.LVL90:
 228:src/Riscv.cpp ****     {
 1171              		.loc 1 228 5
 1172 052c 6FF09FFE 		j	.L52
 1173              	.L51:
 236:src/Riscv.cpp **** 
 1174              		.loc 1 236 5 is_stmt 1
 236:src/Riscv.cpp **** 
 1175              		.loc 1 236 14 is_stmt 0
 1176 0530 97000000 		call	_ZN5Riscv9endSystemEv
GAS LISTING /tmp/ccwOvjHr.s 			page 35


 1176      E7800000 
 1177              	.LVL91:
 238:src/Riscv.cpp **** }
 1178              		.loc 1 238 5 is_stmt 1
 238:src/Riscv.cpp **** }
 1179              		.loc 1 238 23 is_stmt 0
 1180 0538 17050000 		lla	a0,.LC0
 1180      13050500 
 1181 0540 97000000 		call	_ZN5Riscv11printStringEPKc
 1181      E7800000 
 1182              	.LVL92:
 1183              	.LEHE2:
 239:src/Riscv.cpp **** 
 1184              		.loc 1 239 1
 1185 0548 83308101 		ld	ra,24(sp)
 1186              		.cfi_remember_state
 1187              		.cfi_restore 1
 1188 054c 03340101 		ld	s0,16(sp)
 1189              		.cfi_restore 8
 1190              		.cfi_def_cfa 2, 32
 1191 0550 83348100 		ld	s1,8(sp)
 1192              		.cfi_restore 9
 1193              	.LVL93:
 1194 0554 03390100 		ld	s2,0(sp)
 1195              		.cfi_restore 18
 1196 0558 13010102 		addi	sp,sp,32
 1197              		.cfi_def_cfa_offset 0
 1198 055c 67800000 		jr	ra
 1199              	.L54:
 1200              		.cfi_restore_state
 1201 0560 13090500 		mv	s2,a0
 226:src/Riscv.cpp ****     userPCB->start();
 1202              		.loc 1 226 102
 1203 0564 13850400 		mv	a0,s1
 1204 0568 97000000 		call	_ZN3PCBdlEPv@plt
 1204      E7800000 
 1205              	.LVL94:
 1206 0570 13050900 		mv	a0,s2
 1207              	.LEHB3:
 1208 0574 97000000 		call	_Unwind_Resume@plt
 1208      E7800000 
 1209              	.LVL95:
 1210              	.LEHE3:
 1211              		.cfi_endproc
 1212              	.LFE34:
 1213              		.globl	__gxx_personality_v0
 1214              		.section	.gcc_except_table,"a",@progbits
 1215              	.LLSDA34:
 1216 0000 FF       		.byte	0xff
 1217 0001 FF       		.byte	0xff
 1218 0002 03       		.byte	0x3
 1219 0003 34       		.byte	0x34
 1220 0004 00000000 		.4byte	.LEHB0-.LFB34
 1221 0008 00000000 		.4byte	.LEHE0-.LEHB0
 1222 000c 00000000 		.4byte	0
 1223 0010 00       		.byte	0
 1224 0011 00000000 		.4byte	.LEHB1-.LFB34
GAS LISTING /tmp/ccwOvjHr.s 			page 36


 1225 0015 00000000 		.4byte	.LEHE1-.LEHB1
 1226 0019 00000000 		.4byte	.L54-.LFB34
 1227 001d 00       		.byte	0
 1228 001e 00000000 		.4byte	.LEHB2-.LFB34
 1229 0022 00000000 		.4byte	.LEHE2-.LEHB2
 1230 0026 00000000 		.4byte	0
 1231 002a 00       		.byte	0
 1232 002b 00000000 		.4byte	.LEHB3-.LFB34
 1233 002f 00000000 		.4byte	.LEHE3-.LEHB3
 1234 0033 00000000 		.4byte	0
 1235 0037 00       		.byte	0
 1236              		.text
 1238              		.align	2
 1239              		.globl	_ZN5Riscv15userMainWrapperEPv
 1241              	_ZN5Riscv15userMainWrapperEPv:
 1242              	.LFB35:
 242:src/Riscv.cpp ****     userMain();
 1243              		.loc 1 242 1 is_stmt 1
 1244              		.cfi_startproc
 1245 057c 130101FF 		addi	sp,sp,-16
 1246              		.cfi_def_cfa_offset 16
 1247 0580 23341100 		sd	ra,8(sp)
 1248 0584 23308100 		sd	s0,0(sp)
 1249              		.cfi_offset 1, -8
 1250              		.cfi_offset 8, -16
 1251 0588 13040101 		addi	s0,sp,16
 1252              		.cfi_def_cfa 8, 0
 243:src/Riscv.cpp **** }
 1253              		.loc 1 243 5
 243:src/Riscv.cpp **** }
 1254              		.loc 1 243 13 is_stmt 0
 1255 058c 97000000 		call	_Z8userMainv@plt
 1255      E7800000 
 1256              	.LVL96:
 244:src/Riscv.cpp **** 
 1257              		.loc 1 244 1
 1258 0594 83308100 		ld	ra,8(sp)
 1259              		.cfi_restore 1
 1260 0598 03340100 		ld	s0,0(sp)
 1261              		.cfi_restore 8
 1262              		.cfi_def_cfa 2, 16
 1263 059c 13010101 		addi	sp,sp,16
 1264              		.cfi_def_cfa_offset 0
 1265 05a0 67800000 		jr	ra
 1266              		.cfi_endproc
 1267              	.LFE35:
 1269              		.align	2
 1270              		.globl	_ZN5Riscv22disableTimerInterruptsEv
 1272              	_ZN5Riscv22disableTimerInterruptsEv:
 1273              	.LFB37:
 250:src/Riscv.cpp **** 
 251:src/Riscv.cpp **** void Riscv::disableTimerInterrupts()
 252:src/Riscv.cpp **** {
 1274              		.loc 1 252 1 is_stmt 1
 1275              		.cfi_startproc
 1276 05a4 130101FF 		addi	sp,sp,-16
 1277              		.cfi_def_cfa_offset 16
GAS LISTING /tmp/ccwOvjHr.s 			page 37


 1278 05a8 23348100 		sd	s0,8(sp)
 1279              		.cfi_offset 8, -8
 1280 05ac 13040101 		addi	s0,sp,16
 1281              		.cfi_def_cfa 8, 0
 253:src/Riscv.cpp ****     //uint64 x = 0x200;
 254:src/Riscv.cpp ****     //__asm__ volatile("csrs sie, %0"::"r"(x));
 255:src/Riscv.cpp ****     uint64 x = 0x2;
 1282              		.loc 1 255 5
 1283              	.LVL97:
 256:src/Riscv.cpp ****     __asm__ volatile("csrc sie, %0"::"r"(x));
 1284              		.loc 1 256 5
 1285              		.loc 1 256 45 is_stmt 0
 1286 05b0 93072000 		li	a5,2
 1287              	#APP
 1288              	# 256 "src/Riscv.cpp" 1
 257              	}
 1289              		csrc sie, a5
 1290              	# 0 "" 2
 1291              		.loc 1 257 1
 1292              	#NO_APP
 1293 05b8 03348100 		ld	s0,8(sp)
 1294              		.cfi_restore 8
 1295              		.cfi_def_cfa 2, 16
 1296 05bc 13010101 		addi	sp,sp,16
 1297              		.cfi_def_cfa_offset 0
 1298 05c0 67800000 		jr	ra
 1299              		.cfi_endproc
 1300              	.LFE37:
 1302              		.align	2
 1303              		.globl	_ZN5Riscv9idleRiscvEPv
 1305              	_ZN5Riscv9idleRiscvEPv:
 1306              	.LFB38:
 258:src/Riscv.cpp **** 
 259:src/Riscv.cpp **** void Riscv::idleRiscv(void* p)
 260:src/Riscv.cpp **** {
 1307              		.loc 1 260 1 is_stmt 1
 1308              		.cfi_startproc
 1309              	.LVL98:
 1310 05c4 130101FF 		addi	sp,sp,-16
 1311              		.cfi_def_cfa_offset 16
 1312 05c8 23348100 		sd	s0,8(sp)
 1313              		.cfi_offset 8, -8
 1314 05cc 13040101 		addi	s0,sp,16
 1315              		.cfi_def_cfa 8, 0
 1316              	.L62:
 261:src/Riscv.cpp ****     while(true)
 1317              		.loc 1 261 5 discriminator 1
 1318              		.loc 1 261 5 discriminator 1
 1319 05d0 6F000000 		j	.L62
 1320              		.cfi_endproc
 1321              	.LFE38:
 1323              		.bss
 1324              		.align	3
 1325              		.set	.LANCHOR1,. + 0
 1328              	_ZZN5Riscv20handleSupervisorTrapEvE5total:
 1329 0000 00000000 		.zero	8
 1329      00000000 
GAS LISTING /tmp/ccwOvjHr.s 			page 38


 1330              		.section	.rodata
 1331 010c 00000000 		.align	3
 1332              		.set	.LANCHOR0,. + 0
 1335              	_ZZN5Riscv12printIntegerEmE6digits:
 1336 0110 30313233 		.string	"0123456789"
 1336      34353637 
 1336      383900
 1337              		.text
 1338              	.Letext0:
 1339              		.file 4 "src/../h/../lib/hw.h"
 1340              		.file 5 "src/../h/MemoryAllocator.hpp"
 1341              		.file 6 "src/../h/KSemaphore.hpp"
 1342              		.file 7 "src/../h/SleepPCBList.hpp"
 1343              		.file 8 "src/../h/KConsole.hpp"
 1344              		.file 9 "src/../h/Tests.hpp"
 1345              		.file 10 "src/../test/userMain.hpp"
 1346              		.file 11 "src/../h/syscall_c.h"
 1347              		.file 12 "src/../lib/console.h"
 6231              		.align	3
 6234              	DW.ref.__gxx_personality_v0:
 6235 0000 00000000 		.dword	__gxx_personality_v0
 6235      00000000 
 6236              		.ident	"GCC: (Ubuntu 9.3.0-17ubuntu1~20.04) 9.3.0"
 6237              		.section	.note.GNU-stack,"",@progbits
GAS LISTING /tmp/ccwOvjHr.s 			page 39


DEFINED SYMBOLS
                            *ABS*:0000000000000000 Riscv.cpp
     /tmp/ccwOvjHr.s:9      .text:0000000000000000 _ZN5Riscv14myTestsWrapperEPv
     /tmp/ccwOvjHr.s:13     .text:0000000000000000 .L0 
     /tmp/ccwOvjHr.s:15     .text:0000000000000000 .L0 
     /tmp/ccwOvjHr.s:16     .text:0000000000000004 .L0 
     /tmp/ccwOvjHr.s:19     .text:000000000000000c .L0 
     /tmp/ccwOvjHr.s:20     .text:000000000000000c .L0 
     /tmp/ccwOvjHr.s:22     .text:0000000000000010 .L0 
     /tmp/ccwOvjHr.s:24     .text:0000000000000010 .L0 
     /tmp/ccwOvjHr.s:25     .text:0000000000000010 .L0 
     /tmp/ccwOvjHr.s:28     .text:0000000000000018 .L0 
     /tmp/ccwOvjHr.s:29     .text:000000000000001c .L0 
     /tmp/ccwOvjHr.s:31     .text:0000000000000020 .L0 
     /tmp/ccwOvjHr.s:32     .text:0000000000000020 .L0 
     /tmp/ccwOvjHr.s:34     .text:0000000000000024 .L0 
     /tmp/ccwOvjHr.s:36     .text:0000000000000028 .L0 
     /tmp/ccwOvjHr.s:42     .text:0000000000000028 _ZN5Riscv10initSystemEv
     /tmp/ccwOvjHr.s:45     .text:0000000000000028 .L0 
     /tmp/ccwOvjHr.s:46     .text:0000000000000028 .L0 
     /tmp/ccwOvjHr.s:47     .text:000000000000002c .L0 
     /tmp/ccwOvjHr.s:50     .text:0000000000000034 .L0 
     /tmp/ccwOvjHr.s:51     .text:0000000000000034 .L0 
     /tmp/ccwOvjHr.s:53     .text:0000000000000038 .L0 
     /tmp/ccwOvjHr.s:55     .text:0000000000000038 .L0 
     /tmp/ccwOvjHr.s:56     .text:0000000000000038 .L0 
     /tmp/ccwOvjHr.s:62     .text:0000000000000040 .L0 
  src/../h/Riscv.hpp:131    .text:0000000000000040 .L0 
     /tmp/ccwOvjHr.s:72     .text:0000000000000044 .L0 
     /tmp/ccwOvjHr.s:73     .text:0000000000000044 .L0 
     /tmp/ccwOvjHr.s:76     .text:000000000000004c .L0 
     /tmp/ccwOvjHr.s:77     .text:000000000000004c .L0 
     /tmp/ccwOvjHr.s:80     .text:0000000000000054 .L0 
     /tmp/ccwOvjHr.s:81     .text:0000000000000058 .L0 
     /tmp/ccwOvjHr.s:83     .text:000000000000005c .L0 
     /tmp/ccwOvjHr.s:84     .text:000000000000005c .L0 
     /tmp/ccwOvjHr.s:86     .text:0000000000000060 .L0 
     /tmp/ccwOvjHr.s:88     .text:0000000000000064 .L0 
     /tmp/ccwOvjHr.s:94     .text:0000000000000064 _ZN5Riscv16enableInterruptsEv
     /tmp/ccwOvjHr.s:97     .text:0000000000000064 .L0 
     /tmp/ccwOvjHr.s:98     .text:0000000000000064 .L0 
     /tmp/ccwOvjHr.s:99     .text:0000000000000068 .L0 
     /tmp/ccwOvjHr.s:101    .text:000000000000006c .L0 
     /tmp/ccwOvjHr.s:103    .text:0000000000000070 .L0 
     /tmp/ccwOvjHr.s:108    .text:0000000000000070 .L0 
     /tmp/ccwOvjHr.s:109    .text:0000000000000070 .L0 
     /tmp/ccwOvjHr.s:110    .text:0000000000000070 .L0 
     /tmp/ccwOvjHr.s:120    .text:0000000000000078 .L0 
     /tmp/ccwOvjHr.s:121    .text:000000000000007c .L0 
     /tmp/ccwOvjHr.s:122    .text:000000000000007c .L0 
     /tmp/ccwOvjHr.s:124    .text:0000000000000080 .L0 
     /tmp/ccwOvjHr.s:126    .text:0000000000000084 .L0 
     /tmp/ccwOvjHr.s:132    .text:0000000000000084 _ZN5Riscv17disableInterruptsEv
     /tmp/ccwOvjHr.s:135    .text:0000000000000084 .L0 
     /tmp/ccwOvjHr.s:136    .text:0000000000000084 .L0 
     /tmp/ccwOvjHr.s:137    .text:0000000000000088 .L0 
     /tmp/ccwOvjHr.s:139    .text:000000000000008c .L0 
GAS LISTING /tmp/ccwOvjHr.s 			page 40


     /tmp/ccwOvjHr.s:141    .text:0000000000000090 .L0 
     /tmp/ccwOvjHr.s:146    .text:0000000000000090 .L0 
     /tmp/ccwOvjHr.s:147    .text:0000000000000090 .L0 
     /tmp/ccwOvjHr.s:148    .text:0000000000000090 .L0 
     /tmp/ccwOvjHr.s:158    .text:0000000000000098 .L0 
     /tmp/ccwOvjHr.s:159    .text:000000000000009c .L0 
     /tmp/ccwOvjHr.s:160    .text:000000000000009c .L0 
     /tmp/ccwOvjHr.s:162    .text:00000000000000a0 .L0 
     /tmp/ccwOvjHr.s:164    .text:00000000000000a4 .L0 
     /tmp/ccwOvjHr.s:170    .text:00000000000000a4 _ZN5Riscv9endSystemEv
     /tmp/ccwOvjHr.s:173    .text:00000000000000a4 .L0 
     /tmp/ccwOvjHr.s:174    .text:00000000000000a4 .L0 
     /tmp/ccwOvjHr.s:175    .text:00000000000000a8 .L0 
     /tmp/ccwOvjHr.s:178    .text:00000000000000b0 .L0 
     /tmp/ccwOvjHr.s:179    .text:00000000000000b0 .L0 
     /tmp/ccwOvjHr.s:181    .text:00000000000000b4 .L0 
     /tmp/ccwOvjHr.s:183    .text:00000000000000b4 .L0 
     /tmp/ccwOvjHr.s:184    .text:00000000000000b4 .L0 
     /tmp/ccwOvjHr.s:187    .text:00000000000000bc .L0 
     /tmp/ccwOvjHr.s:188    .text:00000000000000c0 .L0 
     /tmp/ccwOvjHr.s:190    .text:00000000000000c4 .L0 
     /tmp/ccwOvjHr.s:191    .text:00000000000000c4 .L0 
     /tmp/ccwOvjHr.s:193    .text:00000000000000c8 .L0 
     /tmp/ccwOvjHr.s:195    .text:00000000000000cc .L0 
     /tmp/ccwOvjHr.s:201    .text:00000000000000cc _ZN5Riscv10popSppSpieEv
     /tmp/ccwOvjHr.s:204    .text:00000000000000cc .L0 
     /tmp/ccwOvjHr.s:205    .text:00000000000000cc .L0 
     /tmp/ccwOvjHr.s:206    .text:00000000000000d0 .L0 
     /tmp/ccwOvjHr.s:208    .text:00000000000000d4 .L0 
     /tmp/ccwOvjHr.s:210    .text:00000000000000d8 .L0 
     /tmp/ccwOvjHr.s:212    .text:00000000000000d8 .L0 
       src/Riscv.cpp:40     .text:00000000000000d8 .L0 
     /tmp/ccwOvjHr.s:218    .text:00000000000000dc .L0 
       src/Riscv.cpp:41     .text:00000000000000dc .L0 
     /tmp/ccwOvjHr.s:224    .text:00000000000000e0 .L0 
     /tmp/ccwOvjHr.s:225    .text:00000000000000e4 .L0 
     /tmp/ccwOvjHr.s:226    .text:00000000000000e4 .L0 
     /tmp/ccwOvjHr.s:228    .text:00000000000000e8 .L0 
     /tmp/ccwOvjHr.s:230    .text:00000000000000ec .L0 
     /tmp/ccwOvjHr.s:236    .text:00000000000000ec _ZN5Riscv11printStringEPKc
     /tmp/ccwOvjHr.s:239    .text:00000000000000ec .L0 
     /tmp/ccwOvjHr.s:241    .text:00000000000000ec .L0 
     /tmp/ccwOvjHr.s:242    .text:00000000000000f0 .L0 
     /tmp/ccwOvjHr.s:247    .text:0000000000000100 .L0 
     /tmp/ccwOvjHr.s:248    .text:0000000000000100 .L0 
     /tmp/ccwOvjHr.s:249    .text:0000000000000100 .L0 
     /tmp/ccwOvjHr.s:250    .text:0000000000000100 .L0 
     /tmp/ccwOvjHr.s:252    .text:0000000000000104 .L0 
     /tmp/ccwOvjHr.s:257    .text:0000000000000108 .L0 
     /tmp/ccwOvjHr.s:258    .text:0000000000000108 .L0 
     /tmp/ccwOvjHr.s:259    .text:0000000000000108 .L0 
  src/../h/Riscv.hpp:185    .text:0000000000000108 .L0 
     /tmp/ccwOvjHr.s:267    .text:0000000000000110 .L0 
     /tmp/ccwOvjHr.s:268    .text:0000000000000110 .L0 
     /tmp/ccwOvjHr.s:275    .text:0000000000000114 .L0 
     /tmp/ccwOvjHr.s:276    .text:0000000000000114 .L0 
     /tmp/ccwOvjHr.s:277    .text:0000000000000114 .L0 
GAS LISTING /tmp/ccwOvjHr.s 			page 41


     /tmp/ccwOvjHr.s:288    .text:000000000000011c .L0 
     /tmp/ccwOvjHr.s:289    .text:000000000000011c .L0 
     /tmp/ccwOvjHr.s:290    .text:000000000000011c .L0 
     /tmp/ccwOvjHr.s:292    .text:0000000000000120 .L0 
     /tmp/ccwOvjHr.s:294    .text:0000000000000124 .L0 
     /tmp/ccwOvjHr.s:295    .text:0000000000000124 .L0 
     /tmp/ccwOvjHr.s:298    .text:000000000000012c .L0 
     /tmp/ccwOvjHr.s:299    .text:000000000000012c .L0 
     /tmp/ccwOvjHr.s:302    .text:0000000000000130 .L0 
     /tmp/ccwOvjHr.s:305    .text:0000000000000134 .L0 
     /tmp/ccwOvjHr.s:306    .text:0000000000000134 .L0 
     /tmp/ccwOvjHr.s:309    .text:0000000000000138 .L0 
     /tmp/ccwOvjHr.s:315    .text:0000000000000140 .L0 
  src/../h/Riscv.hpp:176    .text:0000000000000140 .L0 
     /tmp/ccwOvjHr.s:325    .text:0000000000000144 .L0 
     /tmp/ccwOvjHr.s:326    .text:0000000000000148 .L0 
     /tmp/ccwOvjHr.s:328    .text:000000000000014c .L0 
     /tmp/ccwOvjHr.s:329    .text:000000000000014c .L0 
     /tmp/ccwOvjHr.s:331    .text:0000000000000150 .L0 
     /tmp/ccwOvjHr.s:334    .text:0000000000000154 .L0 
     /tmp/ccwOvjHr.s:336    .text:0000000000000158 .L0 
     /tmp/ccwOvjHr.s:338    .text:000000000000015c .L0 
     /tmp/ccwOvjHr.s:344    .text:000000000000015c _ZN5Riscv12printIntegerEm
     /tmp/ccwOvjHr.s:347    .text:000000000000015c .L0 
     /tmp/ccwOvjHr.s:349    .text:000000000000015c .L0 
     /tmp/ccwOvjHr.s:350    .text:0000000000000160 .L0 
     /tmp/ccwOvjHr.s:355    .text:0000000000000170 .L0 
     /tmp/ccwOvjHr.s:356    .text:0000000000000170 .L0 
     /tmp/ccwOvjHr.s:357    .text:0000000000000170 .L0 
     /tmp/ccwOvjHr.s:358    .text:0000000000000170 .L0 
     /tmp/ccwOvjHr.s:360    .text:0000000000000174 .L0 
     /tmp/ccwOvjHr.s:364    .text:0000000000000174 .L0 
     /tmp/ccwOvjHr.s:365    .text:0000000000000174 .L0 
     /tmp/ccwOvjHr.s:366    .text:0000000000000174 .L0 
  src/../h/Riscv.hpp:185    .text:0000000000000174 .L0 
     /tmp/ccwOvjHr.s:374    .text:000000000000017c .L0 
     /tmp/ccwOvjHr.s:375    .text:000000000000017c .L0 
     /tmp/ccwOvjHr.s:382    .text:0000000000000180 .L0 
     /tmp/ccwOvjHr.s:383    .text:0000000000000180 .L0 
     /tmp/ccwOvjHr.s:384    .text:0000000000000180 .L0 
     /tmp/ccwOvjHr.s:394    .text:0000000000000188 .L0 
     /tmp/ccwOvjHr.s:395    .text:0000000000000188 .L0 
     /tmp/ccwOvjHr.s:396    .text:0000000000000188 .L0 
     /tmp/ccwOvjHr.s:397    .text:0000000000000188 .L0 
     /tmp/ccwOvjHr.s:398    .text:0000000000000188 .L0 
     /tmp/ccwOvjHr.s:399    .text:0000000000000188 .L0 
     /tmp/ccwOvjHr.s:400    .text:0000000000000188 .L0 
     /tmp/ccwOvjHr.s:401    .text:0000000000000188 .L0 
     /tmp/ccwOvjHr.s:404    .text:000000000000018c .L0 
     /tmp/ccwOvjHr.s:405    .text:000000000000018c .L0 
     /tmp/ccwOvjHr.s:409    .text:0000000000000190 .L0 
     /tmp/ccwOvjHr.s:410    .text:0000000000000190 .L0 
     /tmp/ccwOvjHr.s:411    .text:0000000000000190 .L0 
     /tmp/ccwOvjHr.s:415    .text:0000000000000198 .L0 
     /tmp/ccwOvjHr.s:421    .text:00000000000001b0 .L0 
     /tmp/ccwOvjHr.s:427    .text:00000000000001c0 .L0 
     /tmp/ccwOvjHr.s:429    .text:00000000000001c4 .L0 
GAS LISTING /tmp/ccwOvjHr.s 			page 42


     /tmp/ccwOvjHr.s:432    .text:00000000000001c8 .L0 
     /tmp/ccwOvjHr.s:437    .text:00000000000001d0 .L0 
     /tmp/ccwOvjHr.s:438    .text:00000000000001d0 .L0 
     /tmp/ccwOvjHr.s:442    .text:00000000000001d8 .L0 
     /tmp/ccwOvjHr.s:443    .text:00000000000001d8 .L0 
     /tmp/ccwOvjHr.s:451    .text:00000000000001f0 .L0 
     /tmp/ccwOvjHr.s:452    .text:00000000000001f0 .L0 
     /tmp/ccwOvjHr.s:456    .text:00000000000001fc .L0 
     /tmp/ccwOvjHr.s:457    .text:00000000000001fc .L0 
     /tmp/ccwOvjHr.s:460    .text:0000000000000200 .L0 
     /tmp/ccwOvjHr.s:466    .text:0000000000000208 .L0 
  src/../h/Riscv.hpp:176    .text:0000000000000208 .L0 
     /tmp/ccwOvjHr.s:476    .text:000000000000020c .L0 
     /tmp/ccwOvjHr.s:477    .text:0000000000000210 .L0 
     /tmp/ccwOvjHr.s:479    .text:0000000000000214 .L0 
     /tmp/ccwOvjHr.s:480    .text:0000000000000214 .L0 
     /tmp/ccwOvjHr.s:482    .text:0000000000000218 .L0 
     /tmp/ccwOvjHr.s:484    .text:000000000000021c .L0 
     /tmp/ccwOvjHr.s:486    .text:0000000000000220 .L0 
     /tmp/ccwOvjHr.s:488    .text:0000000000000224 .L0 
     /tmp/ccwOvjHr.s:494    .text:0000000000000224 _ZN5Riscv20handleSupervisorTrapEv
     /tmp/ccwOvjHr.s:497    .text:0000000000000224 .L0 
     /tmp/ccwOvjHr.s:498    .text:0000000000000224 .L0 
     /tmp/ccwOvjHr.s:499    .text:0000000000000228 .L0 
     /tmp/ccwOvjHr.s:503    .text:0000000000000234 .L0 
     /tmp/ccwOvjHr.s:504    .text:0000000000000234 .L0 
     /tmp/ccwOvjHr.s:505    .text:0000000000000234 .L0 
     /tmp/ccwOvjHr.s:507    .text:0000000000000238 .L0 
     /tmp/ccwOvjHr.s:509    .text:0000000000000238 .L0 
       src/Riscv.cpp:92     .text:0000000000000238 .L0 
     /tmp/ccwOvjHr.s:520    .text:0000000000000248 .L0 
     /tmp/ccwOvjHr.s:521    .text:0000000000000248 .L0 
     /tmp/ccwOvjHr.s:522    .text:0000000000000248 .L0 
  src/../h/Riscv.hpp:106    .text:0000000000000248 .L0 
     /tmp/ccwOvjHr.s:530    .text:0000000000000250 .L0 
     /tmp/ccwOvjHr.s:531    .text:0000000000000250 .L0 
     /tmp/ccwOvjHr.s:537    .text:0000000000000254 .L0 
     /tmp/ccwOvjHr.s:551    .text:0000000000000280 .L0 
     /tmp/ccwOvjHr.s:552    .text:0000000000000280 .L0 
     /tmp/ccwOvjHr.s:555    .text:0000000000000280 .L0 
     /tmp/ccwOvjHr.s:556    .text:0000000000000280 .L0 
     /tmp/ccwOvjHr.s:557    .text:0000000000000280 .L0 
       src/Riscv.cpp:160    .text:0000000000000280 .L0 
     /tmp/ccwOvjHr.s:567    .text:0000000000000284 .L0 
     /tmp/ccwOvjHr.s:568    .text:0000000000000284 .L0 
     /tmp/ccwOvjHr.s:569    .text:0000000000000284 .L0 
  src/../h/Riscv.hpp:116    .text:0000000000000284 .L0 
     /tmp/ccwOvjHr.s:577    .text:000000000000028c .L0 
     /tmp/ccwOvjHr.s:578    .text:000000000000028c .L0 
     /tmp/ccwOvjHr.s:582    .text:0000000000000290 .L0 
     /tmp/ccwOvjHr.s:584    .text:0000000000000294 .L0 
     /tmp/ccwOvjHr.s:588    .text:0000000000000298 .L0 
     /tmp/ccwOvjHr.s:589    .text:0000000000000298 .L0 
     /tmp/ccwOvjHr.s:590    .text:0000000000000298 .L0 
  src/../h/Riscv.hpp:185    .text:0000000000000298 .L0 
     /tmp/ccwOvjHr.s:598    .text:00000000000002a0 .L0 
     /tmp/ccwOvjHr.s:599    .text:00000000000002a0 .L0 
GAS LISTING /tmp/ccwOvjHr.s 			page 43


     /tmp/ccwOvjHr.s:603    .text:00000000000002a4 .L0 
     /tmp/ccwOvjHr.s:605    .text:00000000000002a8 .L0 
     /tmp/ccwOvjHr.s:690    .text:00000000000002cc .L0 
     /tmp/ccwOvjHr.s:696    .text:00000000000002dc .L0 
     /tmp/ccwOvjHr.s:699    .text:00000000000002dc .L0 
     /tmp/ccwOvjHr.s:700    .text:00000000000002dc .L0 
     /tmp/ccwOvjHr.s:701    .text:00000000000002dc .L0 
     /tmp/ccwOvjHr.s:706    .text:00000000000002e8 .L0 
       src/Riscv.cpp:123    .text:00000000000002e8 .L0 
     /tmp/ccwOvjHr.s:712    .text:00000000000002ec .L0 
       src/Riscv.cpp:124    .text:00000000000002ec .L0 
     /tmp/ccwOvjHr.s:717    .text:00000000000002f0 .L0 
     /tmp/ccwOvjHr.s:718    .text:00000000000002f0 .L0 
       src/Riscv.cpp:126    .text:00000000000002f0 .L0 
     /tmp/ccwOvjHr.s:726    .text:00000000000002f4 .L0 
     /tmp/ccwOvjHr.s:727    .text:00000000000002f4 .L0 
     /tmp/ccwOvjHr.s:730    .text:00000000000002f8 .L0 
     /tmp/ccwOvjHr.s:735    .text:00000000000002fc .L0 
     /tmp/ccwOvjHr.s:736    .text:00000000000002fc .L0 
     /tmp/ccwOvjHr.s:741    .text:000000000000030c .L0 
     /tmp/ccwOvjHr.s:747    .text:0000000000000310 .L0 
     /tmp/ccwOvjHr.s:750    .text:0000000000000310 .L0 
     /tmp/ccwOvjHr.s:753    .text:0000000000000310 .L0 
     /tmp/ccwOvjHr.s:754    .text:0000000000000310 .L0 
     /tmp/ccwOvjHr.s:755    .text:0000000000000310 .L0 
  src/../h/Riscv.hpp:116    .text:0000000000000310 .L0 
     /tmp/ccwOvjHr.s:764    .text:0000000000000318 .L0 
     /tmp/ccwOvjHr.s:765    .text:0000000000000318 .L0 
     /tmp/ccwOvjHr.s:769    .text:000000000000031c .L0 
     /tmp/ccwOvjHr.s:773    .text:0000000000000320 .L0 
     /tmp/ccwOvjHr.s:774    .text:0000000000000320 .L0 
     /tmp/ccwOvjHr.s:775    .text:0000000000000320 .L0 
  src/../h/Riscv.hpp:185    .text:0000000000000320 .L0 
     /tmp/ccwOvjHr.s:783    .text:0000000000000328 .L0 
     /tmp/ccwOvjHr.s:784    .text:0000000000000328 .L0 
     /tmp/ccwOvjHr.s:788    .text:000000000000032c .L0 
     /tmp/ccwOvjHr.s:793    .text:0000000000000330 .L0 
     /tmp/ccwOvjHr.s:794    .text:0000000000000330 .L0 
     /tmp/ccwOvjHr.s:795    .text:0000000000000330 .L0 
     /tmp/ccwOvjHr.s:805    .text:0000000000000338 .L0 
     /tmp/ccwOvjHr.s:806    .text:0000000000000338 .L0 
     /tmp/ccwOvjHr.s:807    .text:0000000000000338 .L0 
     /tmp/ccwOvjHr.s:812    .text:000000000000034c .L0 
     /tmp/ccwOvjHr.s:813    .text:000000000000034c .L0 
     /tmp/ccwOvjHr.s:818    .text:0000000000000360 .L0 
     /tmp/ccwOvjHr.s:819    .text:0000000000000360 .L0 
     /tmp/ccwOvjHr.s:822    .text:0000000000000368 .L0 
     /tmp/ccwOvjHr.s:823    .text:0000000000000368 .L0 
     /tmp/ccwOvjHr.s:830    .text:0000000000000374 .L0 
     /tmp/ccwOvjHr.s:831    .text:0000000000000374 .L0 
     /tmp/ccwOvjHr.s:836    .text:0000000000000378 .L0 
     /tmp/ccwOvjHr.s:838    .text:000000000000037c .L0 
     /tmp/ccwOvjHr.s:841    .text:0000000000000380 .L0 
     /tmp/ccwOvjHr.s:842    .text:0000000000000380 .L0 
     /tmp/ccwOvjHr.s:847    .text:0000000000000384 .L0 
  src/../h/Riscv.hpp:190    .text:0000000000000384 .L0 
     /tmp/ccwOvjHr.s:857    .text:0000000000000388 .L0 
GAS LISTING /tmp/ccwOvjHr.s 			page 44


     /tmp/ccwOvjHr.s:858    .text:0000000000000388 .L0 
     /tmp/ccwOvjHr.s:863    .text:000000000000038c .L0 
  src/../h/Riscv.hpp:121    .text:000000000000038c .L0 
     /tmp/ccwOvjHr.s:870    .text:0000000000000390 .L0 
     /tmp/ccwOvjHr.s:876    .text:0000000000000394 .L0 
     /tmp/ccwOvjHr.s:877    .text:0000000000000394 .L0 
     /tmp/ccwOvjHr.s:879    .text:0000000000000398 .L0 
     /tmp/ccwOvjHr.s:880    .text:0000000000000398 .L0 
     /tmp/ccwOvjHr.s:890    .text:00000000000003a4 .L0 
     /tmp/ccwOvjHr.s:891    .text:00000000000003a4 .L0 
     /tmp/ccwOvjHr.s:895    .text:00000000000003b0 .L0 
       src/Riscv.cpp:130    .text:00000000000003b0 .L0 
     /tmp/ccwOvjHr.s:901    .text:00000000000003b4 .L0 
       src/Riscv.cpp:131    .text:00000000000003b4 .L0 
     /tmp/ccwOvjHr.s:906    .text:00000000000003b8 .L0 
     /tmp/ccwOvjHr.s:907    .text:00000000000003b8 .L0 
       src/Riscv.cpp:133    .text:00000000000003b8 .L0 
     /tmp/ccwOvjHr.s:915    .text:00000000000003c0 .L0 
     /tmp/ccwOvjHr.s:916    .text:00000000000003c0 .L0 
     /tmp/ccwOvjHr.s:920    .text:00000000000003cc .L0 
     /tmp/ccwOvjHr.s:921    .text:00000000000003cc .L0 
     /tmp/ccwOvjHr.s:932    .text:00000000000003dc .L0 
     /tmp/ccwOvjHr.s:933    .text:00000000000003dc .L0 
     /tmp/ccwOvjHr.s:934    .text:00000000000003dc .L0 
     /tmp/ccwOvjHr.s:938    .text:00000000000003e4 .L0 
     /tmp/ccwOvjHr.s:939    .text:00000000000003e4 .L0 
     /tmp/ccwOvjHr.s:940    .text:00000000000003e4 .L0 
     /tmp/ccwOvjHr.s:945    .text:00000000000003e8 .L0 
  src/../h/Riscv.hpp:190    .text:00000000000003e8 .L0 
     /tmp/ccwOvjHr.s:955    .text:00000000000003ec .L0 
     /tmp/ccwOvjHr.s:956    .text:00000000000003ec .L0 
     /tmp/ccwOvjHr.s:961    .text:00000000000003f0 .L0 
  src/../h/Riscv.hpp:121    .text:00000000000003f0 .L0 
     /tmp/ccwOvjHr.s:974    .text:00000000000003f4 .L0 
     /tmp/ccwOvjHr.s:975    .text:00000000000003f8 .L0 
     /tmp/ccwOvjHr.s:976    .text:00000000000003f8 .L0 
     /tmp/ccwOvjHr.s:978    .text:00000000000003fc .L0 
     /tmp/ccwOvjHr.s:979    .text:00000000000003fc .L0 
     /tmp/ccwOvjHr.s:981    .text:0000000000000400 .L0 
     /tmp/ccwOvjHr.s:983    .text:0000000000000404 .L0 
     /tmp/ccwOvjHr.s:986    .text:0000000000000408 .L0 
     /tmp/ccwOvjHr.s:990    .text:0000000000000408 .L0 
     /tmp/ccwOvjHr.s:991    .text:0000000000000408 .L0 
     /tmp/ccwOvjHr.s:992    .text:0000000000000408 .L0 
     /tmp/ccwOvjHr.s:995    .text:0000000000000410 .L0 
     /tmp/ccwOvjHr.s:998    .text:0000000000000414 .L0 
     /tmp/ccwOvjHr.s:999    .text:0000000000000414 .L0 
     /tmp/ccwOvjHr.s:1000   .text:0000000000000414 .L0 
     /tmp/ccwOvjHr.s:1003   .text:000000000000041c .L0 
     /tmp/ccwOvjHr.s:1006   .text:0000000000000420 .L0 
     /tmp/ccwOvjHr.s:1007   .text:0000000000000420 .L0 
     /tmp/ccwOvjHr.s:1008   .text:0000000000000420 .L0 
     /tmp/ccwOvjHr.s:1011   .text:0000000000000428 .L0 
     /tmp/ccwOvjHr.s:1014   .text:000000000000042c .L0 
     /tmp/ccwOvjHr.s:1015   .text:000000000000042c .L0 
     /tmp/ccwOvjHr.s:1016   .text:000000000000042c .L0 
     /tmp/ccwOvjHr.s:1019   .text:0000000000000434 .L0 
GAS LISTING /tmp/ccwOvjHr.s 			page 45


     /tmp/ccwOvjHr.s:1022   .text:0000000000000438 .L0 
     /tmp/ccwOvjHr.s:1023   .text:0000000000000438 .L0 
     /tmp/ccwOvjHr.s:1024   .text:0000000000000438 .L0 
     /tmp/ccwOvjHr.s:1027   .text:0000000000000440 .L0 
     /tmp/ccwOvjHr.s:1030   .text:0000000000000444 .L0 
     /tmp/ccwOvjHr.s:1031   .text:0000000000000444 .L0 
     /tmp/ccwOvjHr.s:1032   .text:0000000000000444 .L0 
     /tmp/ccwOvjHr.s:1035   .text:000000000000044c .L0 
     /tmp/ccwOvjHr.s:1038   .text:0000000000000450 .L0 
     /tmp/ccwOvjHr.s:1039   .text:0000000000000450 .L0 
     /tmp/ccwOvjHr.s:1040   .text:0000000000000450 .L0 
     /tmp/ccwOvjHr.s:1043   .text:0000000000000458 .L0 
     /tmp/ccwOvjHr.s:1046   .text:000000000000045c .L0 
     /tmp/ccwOvjHr.s:1047   .text:000000000000045c .L0 
     /tmp/ccwOvjHr.s:1048   .text:000000000000045c .L0 
     /tmp/ccwOvjHr.s:1051   .text:0000000000000464 .L0 
     /tmp/ccwOvjHr.s:1054   .text:0000000000000468 .L0 
     /tmp/ccwOvjHr.s:1055   .text:0000000000000468 .L0 
     /tmp/ccwOvjHr.s:1056   .text:0000000000000468 .L0 
     /tmp/ccwOvjHr.s:1059   .text:0000000000000470 .L0 
     /tmp/ccwOvjHr.s:1062   .text:0000000000000474 .L0 
     /tmp/ccwOvjHr.s:1063   .text:0000000000000474 .L0 
     /tmp/ccwOvjHr.s:1064   .text:0000000000000474 .L0 
     /tmp/ccwOvjHr.s:1067   .text:000000000000047c .L0 
     /tmp/ccwOvjHr.s:1070   .text:0000000000000480 .L0 
     /tmp/ccwOvjHr.s:1071   .text:0000000000000480 .L0 
     /tmp/ccwOvjHr.s:1072   .text:0000000000000480 .L0 
     /tmp/ccwOvjHr.s:1075   .text:0000000000000488 .L0 
     /tmp/ccwOvjHr.s:1078   .text:000000000000048c .L0 
     /tmp/ccwOvjHr.s:1079   .text:000000000000048c .L0 
     /tmp/ccwOvjHr.s:1080   .text:000000000000048c .L0 
     /tmp/ccwOvjHr.s:1083   .text:0000000000000494 .L0 
     /tmp/ccwOvjHr.s:1086   .text:0000000000000498 .L0 
     /tmp/ccwOvjHr.s:1087   .text:0000000000000498 .L0 
     /tmp/ccwOvjHr.s:1088   .text:0000000000000498 .L0 
     /tmp/ccwOvjHr.s:1091   .text:00000000000004a0 .L0 
     /tmp/ccwOvjHr.s:1094   .text:00000000000004a4 .L0 
     /tmp/ccwOvjHr.s:1105   .text:00000000000004a4 _ZN5Riscv10kernelMainEv
     /tmp/ccwOvjHr.s:1108   .text:00000000000004a4 .L0 
     /tmp/ccwOvjHr.s:6234   .data.rel.local.DW.ref.__gxx_personality_v0:0000000000000000 DW.ref.__gxx_personality_v0
     /tmp/ccwOvjHr.s:1111   .text:00000000000004a4 .L0 
     /tmp/ccwOvjHr.s:1112   .text:00000000000004a8 .L0 
     /tmp/ccwOvjHr.s:1117   .text:00000000000004b8 .L0 
     /tmp/ccwOvjHr.s:1118   .text:00000000000004b8 .L0 
     /tmp/ccwOvjHr.s:1119   .text:00000000000004b8 .L0 
     /tmp/ccwOvjHr.s:1120   .text:00000000000004b8 .L0 
     /tmp/ccwOvjHr.s:1122   .text:00000000000004bc .L0 
     /tmp/ccwOvjHr.s:1125   .text:00000000000004bc .L0 
     /tmp/ccwOvjHr.s:1126   .text:00000000000004bc .L0 
     /tmp/ccwOvjHr.s:1129   .text:00000000000004c4 .L0 
     /tmp/ccwOvjHr.s:1130   .text:00000000000004c4 .L0 
     /tmp/ccwOvjHr.s:1133   .text:00000000000004cc .L0 
     /tmp/ccwOvjHr.s:1134   .text:00000000000004cc .L0 
     /tmp/ccwOvjHr.s:1139   .text:00000000000004dc .L0 
     /tmp/ccwOvjHr.s:1153   .text:0000000000000508 .L0 
     /tmp/ccwOvjHr.s:1154   .text:0000000000000508 .L0 
     /tmp/ccwOvjHr.s:1160   .text:0000000000000514 .L0 
GAS LISTING /tmp/ccwOvjHr.s 			page 46


     /tmp/ccwOvjHr.s:1161   .text:0000000000000514 .L0 
     /tmp/ccwOvjHr.s:1162   .text:0000000000000514 .L0 
     /tmp/ccwOvjHr.s:1166   .text:0000000000000520 .L0 
     /tmp/ccwOvjHr.s:1168   .text:0000000000000524 .L0 
     /tmp/ccwOvjHr.s:1169   .text:0000000000000524 .L0 
     /tmp/ccwOvjHr.s:1172   .text:000000000000052c .L0 
     /tmp/ccwOvjHr.s:1175   .text:0000000000000530 .L0 
     /tmp/ccwOvjHr.s:1176   .text:0000000000000530 .L0 
     /tmp/ccwOvjHr.s:1179   .text:0000000000000538 .L0 
     /tmp/ccwOvjHr.s:1180   .text:0000000000000538 .L0 
     /tmp/ccwOvjHr.s:1185   .text:0000000000000548 .L0 
     /tmp/ccwOvjHr.s:1186   .text:000000000000054c .L0 
     /tmp/ccwOvjHr.s:1187   .text:000000000000054c .L0 
     /tmp/ccwOvjHr.s:1189   .text:0000000000000550 .L0 
     /tmp/ccwOvjHr.s:1190   .text:0000000000000550 .L0 
     /tmp/ccwOvjHr.s:1192   .text:0000000000000554 .L0 
     /tmp/ccwOvjHr.s:1195   .text:0000000000000558 .L0 
     /tmp/ccwOvjHr.s:1197   .text:000000000000055c .L0 
     /tmp/ccwOvjHr.s:1200   .text:0000000000000560 .L0 
     /tmp/ccwOvjHr.s:1203   .text:0000000000000564 .L0 
     /tmp/ccwOvjHr.s:1211   .text:000000000000057c .L0 
     /tmp/ccwOvjHr.s:1241   .text:000000000000057c _ZN5Riscv15userMainWrapperEPv
     /tmp/ccwOvjHr.s:1244   .text:000000000000057c .L0 
     /tmp/ccwOvjHr.s:1245   .text:000000000000057c .L0 
     /tmp/ccwOvjHr.s:1246   .text:0000000000000580 .L0 
     /tmp/ccwOvjHr.s:1249   .text:0000000000000588 .L0 
     /tmp/ccwOvjHr.s:1250   .text:0000000000000588 .L0 
     /tmp/ccwOvjHr.s:1252   .text:000000000000058c .L0 
     /tmp/ccwOvjHr.s:1254   .text:000000000000058c .L0 
     /tmp/ccwOvjHr.s:1255   .text:000000000000058c .L0 
     /tmp/ccwOvjHr.s:1258   .text:0000000000000594 .L0 
     /tmp/ccwOvjHr.s:1259   .text:0000000000000598 .L0 
     /tmp/ccwOvjHr.s:1261   .text:000000000000059c .L0 
     /tmp/ccwOvjHr.s:1262   .text:000000000000059c .L0 
     /tmp/ccwOvjHr.s:1264   .text:00000000000005a0 .L0 
     /tmp/ccwOvjHr.s:1266   .text:00000000000005a4 .L0 
     /tmp/ccwOvjHr.s:1272   .text:00000000000005a4 _ZN5Riscv22disableTimerInterruptsEv
     /tmp/ccwOvjHr.s:1275   .text:00000000000005a4 .L0 
     /tmp/ccwOvjHr.s:1276   .text:00000000000005a4 .L0 
     /tmp/ccwOvjHr.s:1277   .text:00000000000005a8 .L0 
     /tmp/ccwOvjHr.s:1279   .text:00000000000005ac .L0 
     /tmp/ccwOvjHr.s:1281   .text:00000000000005b0 .L0 
     /tmp/ccwOvjHr.s:1284   .text:00000000000005b0 .L0 
     /tmp/ccwOvjHr.s:1285   .text:00000000000005b0 .L0 
     /tmp/ccwOvjHr.s:1286   .text:00000000000005b0 .L0 
     /tmp/ccwOvjHr.s:1293   .text:00000000000005b8 .L0 
     /tmp/ccwOvjHr.s:1294   .text:00000000000005bc .L0 
     /tmp/ccwOvjHr.s:1295   .text:00000000000005bc .L0 
     /tmp/ccwOvjHr.s:1297   .text:00000000000005c0 .L0 
     /tmp/ccwOvjHr.s:1299   .text:00000000000005c4 .L0 
     /tmp/ccwOvjHr.s:1305   .text:00000000000005c4 _ZN5Riscv9idleRiscvEPv
     /tmp/ccwOvjHr.s:1308   .text:00000000000005c4 .L0 
     /tmp/ccwOvjHr.s:1310   .text:00000000000005c4 .L0 
     /tmp/ccwOvjHr.s:1311   .text:00000000000005c8 .L0 
     /tmp/ccwOvjHr.s:1313   .text:00000000000005cc .L0 
     /tmp/ccwOvjHr.s:1315   .text:00000000000005d0 .L0 
     /tmp/ccwOvjHr.s:1318   .text:00000000000005d0 .L0 
GAS LISTING /tmp/ccwOvjHr.s 			page 47


     /tmp/ccwOvjHr.s:1319   .text:00000000000005d0 .L0 
     /tmp/ccwOvjHr.s:1320   .text:00000000000005d4 .L0 
     /tmp/ccwOvjHr.s:1325   .bss:0000000000000000 .LANCHOR1
     /tmp/ccwOvjHr.s:1328   .bss:0000000000000000 _ZZN5Riscv20handleSupervisorTrapEvE5total
     /tmp/ccwOvjHr.s:1332   .rodata:0000000000000110 .LANCHOR0
     /tmp/ccwOvjHr.s:1335   .rodata:0000000000000110 _ZZN5Riscv12printIntegerEmE6digits
     /tmp/ccwOvjHr.s:1348   .text:00000000000005d4 .L0 
     /tmp/ccwOvjHr.s:56     .text:0000000000000038 .L0 
     /tmp/ccwOvjHr.s:417    .text:00000000000001a0 .L0 
     /tmp/ccwOvjHr.s:515    .text:000000000000023c .L0 
     /tmp/ccwOvjHr.s:617    .rodata:0000000000000000 .L32
     /tmp/ccwOvjHr.s:609    .text:00000000000002b4 .L0 
     /tmp/ccwOvjHr.s:701    .text:00000000000002dc .L0 
     /tmp/ccwOvjHr.s:807    .text:0000000000000338 .L0 
     /tmp/ccwOvjHr.s:813    .text:000000000000034c .L0 
     /tmp/ccwOvjHr.s:823    .text:0000000000000368 .L0 
     /tmp/ccwOvjHr.s:891    .text:00000000000003a4 .L0 
     /tmp/ccwOvjHr.s:1147   .text:00000000000004f8 .L0 
     /tmp/ccwOvjHr.s:1099   .rodata.str1.8:0000000000000000 .LC0
     /tmp/ccwOvjHr.s:1180   .text:0000000000000538 .L0 
     /tmp/ccwOvjHr.s:303    .text:0000000000000134 .L14
     /tmp/ccwOvjHr.s:284    .text:000000000000011c .L15
     /tmp/ccwOvjHr.s:407    .text:0000000000000190 .L18
     /tmp/ccwOvjHr.s:449    .text:00000000000001f0 .L19
     /tmp/ccwOvjHr.s:435    .text:00000000000001d0 .L20
     /tmp/ccwOvjHr.s:743    .text:0000000000000310 .L23
     /tmp/ccwOvjHr.s:687    .text:00000000000002cc .L24
     /tmp/ccwOvjHr.s:968    .text:00000000000003f4 .L22
     /tmp/ccwOvjHr.s:937    .text:00000000000003e4 .L30
     /tmp/ccwOvjHr.s:884    .text:00000000000003a4 .L48
     /tmp/ccwOvjHr.s:872    .text:0000000000000394 .L49
     /tmp/ccwOvjHr.s:839    .text:0000000000000380 .L28
     /tmp/ccwOvjHr.s:732    .text:00000000000002fc .L29
     /tmp/ccwOvjHr.s:1173   .text:0000000000000530 .L51
     /tmp/ccwOvjHr.s:1158   .text:0000000000000514 .L52
     /tmp/ccwOvjHr.s:1316   .text:00000000000005d0 .L62
     /tmp/ccwOvjHr.s:927    .text:00000000000003dc .L45
     /tmp/ccwOvjHr.s:985    .text:0000000000000408 .L44
     /tmp/ccwOvjHr.s:1004   .text:0000000000000420 .L43
     /tmp/ccwOvjHr.s:1028   .text:0000000000000444 .L42
     /tmp/ccwOvjHr.s:1020   .text:0000000000000438 .L41
     /tmp/ccwOvjHr.s:996    .text:0000000000000414 .L40
     /tmp/ccwOvjHr.s:1012   .text:000000000000042c .L39
     /tmp/ccwOvjHr.s:1044   .text:000000000000045c .L38
     /tmp/ccwOvjHr.s:1068   .text:0000000000000480 .L37
     /tmp/ccwOvjHr.s:1052   .text:0000000000000468 .L36
     /tmp/ccwOvjHr.s:1060   .text:0000000000000474 .L35
     /tmp/ccwOvjHr.s:1036   .text:0000000000000450 .L34
     /tmp/ccwOvjHr.s:1076   .text:000000000000048c .L33
     /tmp/ccwOvjHr.s:1084   .text:0000000000000498 .L31
     /tmp/ccwOvjHr.s:1124   .text:00000000000004bc .LEHB0
     /tmp/ccwOvjHr.s:1106   .text:00000000000004a4 .LFB34
     /tmp/ccwOvjHr.s:1142   .text:00000000000004e8 .LEHE0
     /tmp/ccwOvjHr.s:1148   .text:0000000000000500 .LEHB1
     /tmp/ccwOvjHr.s:1151   .text:0000000000000508 .LEHE1
     /tmp/ccwOvjHr.s:1199   .text:0000000000000560 .L54
     /tmp/ccwOvjHr.s:1155   .text:000000000000050c .LEHB2
GAS LISTING /tmp/ccwOvjHr.s 			page 48


     /tmp/ccwOvjHr.s:1183   .text:0000000000000548 .LEHE2
     /tmp/ccwOvjHr.s:1207   .text:0000000000000574 .LEHB3
     /tmp/ccwOvjHr.s:1210   .text:000000000000057c .LEHE3
     /tmp/ccwOvjHr.s:4097   .debug_abbrev:0000000000000000 .Ldebug_abbrev0
     /tmp/ccwOvjHr.s:5672   .debug_str:00000000000002b3 .LASF304
     /tmp/ccwOvjHr.s:5706   .debug_str:000000000000047b .LASF305
     /tmp/ccwOvjHr.s:6118   .debug_str:00000000000011e2 .LASF306
     /tmp/ccwOvjHr.s:5      .text:0000000000000000 .Ltext0
     /tmp/ccwOvjHr.s:1338   .text:00000000000005d4 .Letext0
     /tmp/ccwOvjHr.s:5600   .debug_line:0000000000000000 .Ldebug_line0
     /tmp/ccwOvjHr.s:5820   .debug_str:0000000000000841 .LASF0
     /tmp/ccwOvjHr.s:5998   .debug_str:0000000000000e66 .LASF3
     /tmp/ccwOvjHr.s:5862   .debug_str:0000000000000997 .LASF1
     /tmp/ccwOvjHr.s:6016   .debug_str:0000000000000ede .LASF2
     /tmp/ccwOvjHr.s:6034   .debug_str:0000000000000f6c .LASF4
     /tmp/ccwOvjHr.s:5840   .debug_str:00000000000008e9 .LASF5
     /tmp/ccwOvjHr.s:5626   .debug_str:00000000000000f1 .LASF6
     /tmp/ccwOvjHr.s:5976   .debug_str:0000000000000db4 .LASF7
     /tmp/ccwOvjHr.s:5964   .debug_str:0000000000000d5e .LASF8
     /tmp/ccwOvjHr.s:5852   .debug_str:000000000000095e .LASF9
     /tmp/ccwOvjHr.s:5782   .debug_str:00000000000006eb .LASF10
     /tmp/ccwOvjHr.s:5794   .debug_str:000000000000075d .LASF11
     /tmp/ccwOvjHr.s:5690   .debug_str:000000000000040d .LASF12
     /tmp/ccwOvjHr.s:5770   .debug_str:00000000000006a7 .LASF13
     /tmp/ccwOvjHr.s:5708   .debug_str:0000000000000489 .LASF14
     /tmp/ccwOvjHr.s:5688   .debug_str:00000000000003fd .LASF15
     /tmp/ccwOvjHr.s:6082   .debug_str:00000000000010f3 .LASF16
     /tmp/ccwOvjHr.s:5750   .debug_str:00000000000005d6 .LASF17
     /tmp/ccwOvjHr.s:6068   .debug_str:0000000000001051 .LASF18
     /tmp/ccwOvjHr.s:6162   .debug_str:0000000000001339 .LASF107
     /tmp/ccwOvjHr.s:5992   .debug_str:0000000000000e3c .LASF22
     /tmp/ccwOvjHr.s:5872   .debug_str:00000000000009da .LASF19
     /tmp/ccwOvjHr.s:5758   .debug_str:0000000000000623 .LASF20
     /tmp/ccwOvjHr.s:6182   .debug_str:00000000000013e7 .LASF21
     /tmp/ccwOvjHr.s:6148   .debug_str:00000000000012bb .LASF23
     /tmp/ccwOvjHr.s:5764   .debug_str:0000000000000663 .LASF24
     /tmp/ccwOvjHr.s:6104   .debug_str:0000000000001177 .LASF25
     /tmp/ccwOvjHr.s:5726   .debug_str:000000000000051d .LASF26
     /tmp/ccwOvjHr.s:5814   .debug_str:0000000000000818 .LASF27
     /tmp/ccwOvjHr.s:6072   .debug_str:0000000000001076 .LASF29
     /tmp/ccwOvjHr.s:5920   .debug_str:0000000000000bc8 .LASF28
     /tmp/ccwOvjHr.s:5902   .debug_str:0000000000000b13 .LASF30
     /tmp/ccwOvjHr.s:5746   .debug_str:00000000000005b9 .LASF31
     /tmp/ccwOvjHr.s:5614   .debug_str:000000000000005b .LASF32
     /tmp/ccwOvjHr.s:5904   .debug_str:0000000000000b2b .LASF39
     /tmp/ccwOvjHr.s:6154   .debug_str:00000000000012e5 .LASF41
     /tmp/ccwOvjHr.s:5684   .debug_str:00000000000003d9 .LASF33
     /tmp/ccwOvjHr.s:5880   .debug_str:0000000000000a32 .LASF34
     /tmp/ccwOvjHr.s:5740   .debug_str:0000000000000568 .LASF35
     /tmp/ccwOvjHr.s:5696   .debug_str:000000000000042a .LASF36
     /tmp/ccwOvjHr.s:5832   .debug_str:00000000000008a7 .LASF37
     /tmp/ccwOvjHr.s:5714   .debug_str:00000000000004cf .LASF38
     /tmp/ccwOvjHr.s:6190   .debug_str:000000000000141b .LASF40
     /tmp/ccwOvjHr.s:5640   .debug_str:0000000000000190 .LASF42
     /tmp/ccwOvjHr.s:5972   .debug_str:0000000000000d97 .LASF43
     /tmp/ccwOvjHr.s:5648   .debug_str:00000000000001d8 .LASF44
     /tmp/ccwOvjHr.s:5660   .debug_str:0000000000000269 .LASF45
GAS LISTING /tmp/ccwOvjHr.s 			page 49


     /tmp/ccwOvjHr.s:5784   .debug_str:00000000000006fb .LASF46
     /tmp/ccwOvjHr.s:6044   .debug_str:0000000000000f9d .LASF47
     /tmp/ccwOvjHr.s:5756   .debug_str:0000000000000608 .LASF48
     /tmp/ccwOvjHr.s:5826   .debug_str:0000000000000880 .LASF49
     /tmp/ccwOvjHr.s:6174   .debug_str:000000000000139f .LASF50
     /tmp/ccwOvjHr.s:6142   .debug_str:000000000000129a .LASF53
     /tmp/ccwOvjHr.s:6130   .debug_str:0000000000001240 .LASF55
     /tmp/ccwOvjHr.s:6012   .debug_str:0000000000000eca .LASF51
     /tmp/ccwOvjHr.s:5944   .debug_str:0000000000000ca2 .LASF52
     /tmp/ccwOvjHr.s:5982   .debug_str:0000000000000dce .LASF54
     /tmp/ccwOvjHr.s:5988   .debug_str:0000000000000e15 .LASF56
     /tmp/ccwOvjHr.s:5934   .debug_str:0000000000000c33 .LASF57
     /tmp/ccwOvjHr.s:5854   .debug_str:0000000000000971 .LASF58
     /tmp/ccwOvjHr.s:6176   .debug_str:00000000000013b9 .LASF59
     /tmp/ccwOvjHr.s:6112   .debug_str:00000000000011a1 .LASF60
     /tmp/ccwOvjHr.s:5928   .debug_str:0000000000000c03 .LASF61
     /tmp/ccwOvjHr.s:5942   .debug_str:0000000000000c8e .LASF62
     /tmp/ccwOvjHr.s:5914   .debug_str:0000000000000b89 .LASF63
     /tmp/ccwOvjHr.s:5990   .debug_str:0000000000000e28 .LASF64
     /tmp/ccwOvjHr.s:6220   .debug_str:0000000000001510 .LASF65
     /tmp/ccwOvjHr.s:5830   .debug_str:0000000000000893 .LASF66
     /tmp/ccwOvjHr.s:6078   .debug_str:00000000000010ca .LASF67
     /tmp/ccwOvjHr.s:6038   .debug_str:0000000000000f7b .LASF68
     /tmp/ccwOvjHr.s:6040   .debug_str:0000000000000f8e .LASF69
     /tmp/ccwOvjHr.s:5744   .debug_str:00000000000005a6 .LASF70
     /tmp/ccwOvjHr.s:5738   .debug_str:0000000000000562 .LASF71
     /tmp/ccwOvjHr.s:5632   .debug_str:0000000000000124 .LASF72
     /tmp/ccwOvjHr.s:5828   .debug_str:000000000000088d .LASF73
     /tmp/ccwOvjHr.s:5730   .debug_str:000000000000053c .LASF74
     /tmp/ccwOvjHr.s:5628   .debug_str:00000000000000f8 .LASF75
     /tmp/ccwOvjHr.s:6022   .debug_str:0000000000000efb .LASF76
     /tmp/ccwOvjHr.s:6014   .debug_str:0000000000000ed3 .LASF77
     /tmp/ccwOvjHr.s:6210   .debug_str:00000000000014b7 .LASF78
     /tmp/ccwOvjHr.s:6020   .debug_str:0000000000000ef4 .LASF79
     /tmp/ccwOvjHr.s:5686   .debug_str:00000000000003ea .LASF80
     /tmp/ccwOvjHr.s:6164   .debug_str:000000000000133f .LASF81
     /tmp/ccwOvjHr.s:6188   .debug_str:0000000000001405 .LASF82
     /tmp/ccwOvjHr.s:6156   .debug_str:0000000000001303 .LASF83
     /tmp/ccwOvjHr.s:5906   .debug_str:0000000000000b3b .LASF84
     /tmp/ccwOvjHr.s:6002   .debug_str:0000000000000e8d .LASF85
     /tmp/ccwOvjHr.s:5804   .debug_str:00000000000007da .LASF86
     /tmp/ccwOvjHr.s:5812   .debug_str:0000000000000812 .LASF87
     /tmp/ccwOvjHr.s:5718   .debug_str:00000000000004f3 .LASF88
     /tmp/ccwOvjHr.s:5808   .debug_str:00000000000007f2 .LASF89
     /tmp/ccwOvjHr.s:5816   .debug_str:0000000000000823 .LASF90
     /tmp/ccwOvjHr.s:6134   .debug_str:0000000000001261 .LASF91
     /tmp/ccwOvjHr.s:5792   .debug_str:0000000000000741 .LASF92
     /tmp/ccwOvjHr.s:5968   .debug_str:0000000000000d79 .LASF93
     /tmp/ccwOvjHr.s:5848   .debug_str:0000000000000930 .LASF94
     /tmp/ccwOvjHr.s:5656   .debug_str:0000000000000247 .LASF95
     /tmp/ccwOvjHr.s:5896   .debug_str:0000000000000ad5 .LASF96
     /tmp/ccwOvjHr.s:6004   .debug_str:0000000000000e93 .LASF97
     /tmp/ccwOvjHr.s:5620   .debug_str:00000000000000a7 .LASF98
     /tmp/ccwOvjHr.s:5662   .debug_str:0000000000000273 .LASF99
     /tmp/ccwOvjHr.s:6132   .debug_str:0000000000001255 .LASF100
     /tmp/ccwOvjHr.s:5664   .debug_str:0000000000000282 .LASF101
     /tmp/ccwOvjHr.s:5918   .debug_str:0000000000000bb6 .LASF102
GAS LISTING /tmp/ccwOvjHr.s 			page 50


     /tmp/ccwOvjHr.s:5796   .debug_str:000000000000076b .LASF103
     /tmp/ccwOvjHr.s:5838   .debug_str:00000000000008d6 .LASF104
     /tmp/ccwOvjHr.s:5682   .debug_str:00000000000003c5 .LASF105
     /tmp/ccwOvjHr.s:6096   .debug_str:0000000000001152 .LASF106
     /tmp/ccwOvjHr.s:5956   .debug_str:0000000000000d12 .LASF108
     /tmp/ccwOvjHr.s:6056   .debug_str:0000000000000ff3 .LASF142
     /tmp/ccwOvjHr.s:5860   .debug_str:0000000000000992 .LASF109
     /tmp/ccwOvjHr.s:5692   .debug_str:000000000000041c .LASF110
     /tmp/ccwOvjHr.s:5778   .debug_str:00000000000006d5 .LASF111
     /tmp/ccwOvjHr.s:5864   .debug_str:00000000000009aa .LASF112
     /tmp/ccwOvjHr.s:5870   .debug_str:00000000000009c7 .LASF113
     /tmp/ccwOvjHr.s:5776   .debug_str:00000000000006cc .LASF114
     /tmp/ccwOvjHr.s:6224   .debug_str:0000000000001536 .LASF115
     /tmp/ccwOvjHr.s:5910   .debug_str:0000000000000b5e .LASF116
     /tmp/ccwOvjHr.s:5630   .debug_str:0000000000000103 .LASF118
     /tmp/ccwOvjHr.s:6090   .debug_str:0000000000001129 .LASF117
     /tmp/ccwOvjHr.s:5912   .debug_str:0000000000000b68 .LASF119
     /tmp/ccwOvjHr.s:6152   .debug_str:00000000000012da .LASF120
     /tmp/ccwOvjHr.s:6116   .debug_str:00000000000011bf .LASF121
     /tmp/ccwOvjHr.s:6084   .debug_str:00000000000010ff .LASF122
     /tmp/ccwOvjHr.s:5622   .debug_str:00000000000000af .LASF123
     /tmp/ccwOvjHr.s:6168   .debug_str:000000000000134e .LASF124
     /tmp/ccwOvjHr.s:5618   .debug_str:0000000000000079 .LASF125
     /tmp/ccwOvjHr.s:6094   .debug_str:000000000000113d .LASF126
     /tmp/ccwOvjHr.s:5802   .debug_str:00000000000007ab .LASF127
     /tmp/ccwOvjHr.s:5608   .debug_str:000000000000002b .LASF128
     /tmp/ccwOvjHr.s:5946   .debug_str:0000000000000cb7 .LASF129
     /tmp/ccwOvjHr.s:5752   .debug_str:00000000000005ec .LASF130
     /tmp/ccwOvjHr.s:6172   .debug_str:0000000000001377 .LASF131
     /tmp/ccwOvjHr.s:6070   .debug_str:0000000000001067 .LASF132
     /tmp/ccwOvjHr.s:5742   .debug_str:000000000000057f .LASF133
     /tmp/ccwOvjHr.s:6098   .debug_str:0000000000001157 .LASF134
     /tmp/ccwOvjHr.s:5680   .debug_str:00000000000003bf .LASF135
     /tmp/ccwOvjHr.s:6054   .debug_str:0000000000000feb .LASF136
     /tmp/ccwOvjHr.s:5698   .debug_str:000000000000044e .LASF137
     /tmp/ccwOvjHr.s:5668   .debug_str:000000000000029c .LASF138
     /tmp/ccwOvjHr.s:5966   .debug_str:0000000000000d71 .LASF139
     /tmp/ccwOvjHr.s:5858   .debug_str:0000000000000989 .LASF140
     /tmp/ccwOvjHr.s:6036   .debug_str:0000000000000f73 .LASF203
     /tmp/ccwOvjHr.s:5806   .debug_str:00000000000007ec .LASF141
     /tmp/ccwOvjHr.s:6122   .debug_str:0000000000001217 .LASF152
     /tmp/ccwOvjHr.s:5924   .debug_str:0000000000000be2 .LASF307
     /tmp/ccwOvjHr.s:5950   .debug_str:0000000000000cf1 .LASF143
     /tmp/ccwOvjHr.s:6166   .debug_str:0000000000001349 .LASF144
     /tmp/ccwOvjHr.s:6206   .debug_str:0000000000001482 .LASF145
     /tmp/ccwOvjHr.s:6200   .debug_str:0000000000001459 .LASF146
     /tmp/ccwOvjHr.s:6110   .debug_str:0000000000001191 .LASF147
     /tmp/ccwOvjHr.s:5732   .debug_str:000000000000054e .LASF148
     /tmp/ccwOvjHr.s:5638   .debug_str:000000000000017d .LASF149
     /tmp/ccwOvjHr.s:5868   .debug_str:00000000000009c1 .LASF150
     /tmp/ccwOvjHr.s:5952   .debug_str:0000000000000cf6 .LASF151
     /tmp/ccwOvjHr.s:6102   .debug_str:000000000000116f .LASF153
     /tmp/ccwOvjHr.s:6046   .debug_str:0000000000000fab .LASF154
     /tmp/ccwOvjHr.s:5900   .debug_str:0000000000000b06 .LASF159
     /tmp/ccwOvjHr.s:5882   .debug_str:0000000000000a50 .LASF161
     /tmp/ccwOvjHr.s:6214   .debug_str:00000000000014e4 .LASF155
     /tmp/ccwOvjHr.s:5774   .debug_str:00000000000006c0 .LASF156
GAS LISTING /tmp/ccwOvjHr.s 			page 51


     /tmp/ccwOvjHr.s:5822   .debug_str:000000000000084e .LASF157
     /tmp/ccwOvjHr.s:5834   .debug_str:00000000000008b9 .LASF158
     /tmp/ccwOvjHr.s:6048   .debug_str:0000000000000fbc .LASF160
     /tmp/ccwOvjHr.s:5728   .debug_str:0000000000000529 .LASF162
     /tmp/ccwOvjHr.s:6028   .debug_str:0000000000000f32 .LASF163
     /tmp/ccwOvjHr.s:6076   .debug_str:00000000000010ae .LASF164
     /tmp/ccwOvjHr.s:5922   .debug_str:0000000000000bd3 .LASF165
     /tmp/ccwOvjHr.s:5610   .debug_str:000000000000003c .LASF166
     /tmp/ccwOvjHr.s:6186   .debug_str:00000000000013f6 .LASF167
     /tmp/ccwOvjHr.s:5960   .debug_str:0000000000000d30 .LASF168
     /tmp/ccwOvjHr.s:6066   .debug_str:0000000000001043 .LASF169
     /tmp/ccwOvjHr.s:5980   .debug_str:0000000000000dc2 .LASF170
     /tmp/ccwOvjHr.s:5604   .debug_str:000000000000000f .LASF171
     /tmp/ccwOvjHr.s:5940   .debug_str:0000000000000c7e .LASF172
     /tmp/ccwOvjHr.s:6008   .debug_str:0000000000000ea4 .LASF173
     /tmp/ccwOvjHr.s:6192   .debug_str:0000000000001427 .LASF174
     /tmp/ccwOvjHr.s:5842   .debug_str:00000000000008fb .LASF175
     /tmp/ccwOvjHr.s:6060   .debug_str:0000000000001016 .LASF176
     /tmp/ccwOvjHr.s:6204   .debug_str:000000000000146c .LASF177
     /tmp/ccwOvjHr.s:6092   .debug_str:0000000000001132 .LASF178
     /tmp/ccwOvjHr.s:6062   .debug_str:0000000000001021 .LASF179
     /tmp/ccwOvjHr.s:6042   .debug_str:0000000000000f95 .LASF180
     /tmp/ccwOvjHr.s:5962   .debug_str:0000000000000d4a .LASF181
     /tmp/ccwOvjHr.s:5932   .debug_str:0000000000000c14 .LASF182
     /tmp/ccwOvjHr.s:5712   .debug_str:00000000000004bd .LASF183
     /tmp/ccwOvjHr.s:5986   .debug_str:0000000000000df8 .LASF184
     /tmp/ccwOvjHr.s:6226   .debug_str:0000000000001540 .LASF185
     /tmp/ccwOvjHr.s:5936   .debug_str:0000000000000c3a .LASF186
     /tmp/ccwOvjHr.s:6026   .debug_str:0000000000000f1f .LASF187
     /tmp/ccwOvjHr.s:6050   .debug_str:0000000000000fc5 .LASF188
     /tmp/ccwOvjHr.s:6146   .debug_str:00000000000012a8 .LASF189
     /tmp/ccwOvjHr.s:6222   .debug_str:0000000000001518 .LASF190
     /tmp/ccwOvjHr.s:6212   .debug_str:00000000000014cf .LASF191
     /tmp/ccwOvjHr.s:6074   .debug_str:000000000000108e .LASF192
     /tmp/ccwOvjHr.s:6114   .debug_str:00000000000011b5 .LASF193
     /tmp/ccwOvjHr.s:5954   .debug_str:0000000000000d06 .LASF194
     /tmp/ccwOvjHr.s:6198   .debug_str:000000000000144b .LASF195
     /tmp/ccwOvjHr.s:5654   .debug_str:000000000000021f .LASF197
     /tmp/ccwOvjHr.s:5652   .debug_str:000000000000020a .LASF196
     /tmp/ccwOvjHr.s:5678   .debug_str:0000000000000393 .LASF198
     /tmp/ccwOvjHr.s:6216   .debug_str:00000000000014f1 .LASF308
     /tmp/ccwOvjHr.s:5676   .debug_str:0000000000000382 .LASF309
     /tmp/ccwOvjHr.s:5612   .debug_str:0000000000000056 .LASF199
     /tmp/ccwOvjHr.s:6144   .debug_str:00000000000012a3 .LASF200
     /tmp/ccwOvjHr.s:5888   .debug_str:0000000000000a8d .LASF201
     /tmp/ccwOvjHr.s:5736   .debug_str:000000000000055c .LASF202
     /tmp/ccwOvjHr.s:6128   .debug_str:0000000000001238 .LASF204
     /tmp/ccwOvjHr.s:5894   .debug_str:0000000000000ad0 .LASF205
     /tmp/ccwOvjHr.s:5996   .debug_str:0000000000000e5b .LASF206
     /tmp/ccwOvjHr.s:5790   .debug_str:000000000000072d .LASF207
     /tmp/ccwOvjHr.s:5644   .debug_str:00000000000001c7 .LASF208
     /tmp/ccwOvjHr.s:5994   .debug_str:0000000000000e47 .LASF209
     /tmp/ccwOvjHr.s:5734   .debug_str:0000000000000557 .LASF210
     /tmp/ccwOvjHr.s:6058   .debug_str:0000000000000fff .LASF211
     /tmp/ccwOvjHr.s:6086   .debug_str:000000000000111a .LASF212
     /tmp/ccwOvjHr.s:6010   .debug_str:0000000000000eb1 .LASF213
     /tmp/ccwOvjHr.s:5606   .debug_str:000000000000001f .LASF214
GAS LISTING /tmp/ccwOvjHr.s 			page 52


     /tmp/ccwOvjHr.s:6024   .debug_str:0000000000000f13 .LASF215
     /tmp/ccwOvjHr.s:5898   .debug_str:0000000000000af2 .LASF216
     /tmp/ccwOvjHr.s:5810   .debug_str:00000000000007fd .LASF217
     /tmp/ccwOvjHr.s:5694   .debug_str:0000000000000421 .LASF218
     /tmp/ccwOvjHr.s:5702   .debug_str:0000000000000466 .LASF219
     /tmp/ccwOvjHr.s:5926   .debug_str:0000000000000bfa .LASF220
     /tmp/ccwOvjHr.s:6032   .debug_str:0000000000000f61 .LASF221
     /tmp/ccwOvjHr.s:5602   .debug_str:0000000000000000 .LASF222
     /tmp/ccwOvjHr.s:5800   .debug_str:0000000000000789 .LASF223
     /tmp/ccwOvjHr.s:6126   .debug_str:0000000000001229 .LASF224
     /tmp/ccwOvjHr.s:6080   .debug_str:00000000000010d1 .LASF225
     /tmp/ccwOvjHr.s:5890   .debug_str:0000000000000a95 .LASF226
     /tmp/ccwOvjHr.s:5710   .debug_str:0000000000000499 .LASF227
     /tmp/ccwOvjHr.s:5948   .debug_str:0000000000000ce1 .LASF228
     /tmp/ccwOvjHr.s:5984   .debug_str:0000000000000dd5 .LASF229
     /tmp/ccwOvjHr.s:5866   .debug_str:00000000000009b8 .LASF230
     /tmp/ccwOvjHr.s:5818   .debug_str:000000000000083b .LASF231
     /tmp/ccwOvjHr.s:6218   .debug_str:00000000000014f8 .LASF232
     /tmp/ccwOvjHr.s:5616   .debug_str:0000000000000071 .LASF233
     /tmp/ccwOvjHr.s:5886   .debug_str:0000000000000a73 .LASF234
     /tmp/ccwOvjHr.s:5836   .debug_str:00000000000008c6 .LASF235
     /tmp/ccwOvjHr.s:5938   .debug_str:0000000000000c5b .LASF236
     /tmp/ccwOvjHr.s:6170   .debug_str:0000000000001364 .LASF237
     /tmp/ccwOvjHr.s:6030   .debug_str:0000000000000f3b .LASF238
     /tmp/ccwOvjHr.s:6202   .debug_str:000000000000145f .LASF239
     /tmp/ccwOvjHr.s:5636   .debug_str:0000000000000159 .LASF240
     /tmp/ccwOvjHr.s:6180   .debug_str:00000000000013da .LASF241
     /tmp/ccwOvjHr.s:5974   .debug_str:0000000000000da4 .LASF242
     /tmp/ccwOvjHr.s:6120   .debug_str:0000000000001205 .LASF243
     /tmp/ccwOvjHr.s:5766   .debug_str:000000000000066f .LASF244
     /tmp/ccwOvjHr.s:5670   .debug_str:00000000000002a5 .LASF245
     /tmp/ccwOvjHr.s:5634   .debug_str:0000000000000136 .LASF246
     /tmp/ccwOvjHr.s:5930   .debug_str:0000000000000c0b .LASF247
     /tmp/ccwOvjHr.s:5716   .debug_str:00000000000004ee .LASF248
     /tmp/ccwOvjHr.s:5856   .debug_str:0000000000000984 .LASF249
     /tmp/ccwOvjHr.s:5772   .debug_str:00000000000006b6 .LASF250
     /tmp/ccwOvjHr.s:6194   .debug_str:0000000000001432 .LASF251
     /tmp/ccwOvjHr.s:5704   .debug_str:0000000000000470 .LASF252
     /tmp/ccwOvjHr.s:5798   .debug_str:000000000000077e .LASF253
     /tmp/ccwOvjHr.s:5958   .debug_str:0000000000000d22 .LASF254
     /tmp/ccwOvjHr.s:5786   .debug_str:0000000000000712 .LASF255
     /tmp/ccwOvjHr.s:5760   .debug_str:000000000000062c .LASF256
     /tmp/ccwOvjHr.s:6088   .debug_str:0000000000001121 .LASF257
     /tmp/ccwOvjHr.s:5916   .debug_str:0000000000000b91 .LASF258
     /tmp/ccwOvjHr.s:6108   .debug_str:0000000000001189 .LASF259
     /tmp/ccwOvjHr.s:6158   .debug_str:000000000000130d .LASF260
     /tmp/ccwOvjHr.s:6138   .debug_str:0000000000001282 .LASF261
     /tmp/ccwOvjHr.s:5824   .debug_str:000000000000085e .LASF262
     /tmp/ccwOvjHr.s:6136   .debug_str:0000000000001270 .LASF263
     /tmp/ccwOvjHr.s:6000   .debug_str:0000000000000e6b .LASF264
     /tmp/ccwOvjHr.s:5658   .debug_str:0000000000000256 .LASF265
     /tmp/ccwOvjHr.s:5674   .debug_str:000000000000035f .LASF266
     /tmp/ccwOvjHr.s:5748   .debug_str:00000000000005c3 .LASF267
     /tmp/ccwOvjHr.s:5762   .debug_str:0000000000000640 .LASF268
     /tmp/ccwOvjHr.s:5874   .debug_str:00000000000009e3 .LASF269
     /tmp/ccwOvjHr.s:6178   .debug_str:00000000000013c1 .LASF270
     /tmp/ccwOvjHr.s:5892   .debug_str:0000000000000aa6 .LASF271
GAS LISTING /tmp/ccwOvjHr.s 			page 53


     /tmp/ccwOvjHr.s:5876   .debug_str:00000000000009fe .LASF272
     /tmp/ccwOvjHr.s:6208   .debug_str:000000000000148e .LASF273
     /tmp/ccwOvjHr.s:5850   .debug_str:0000000000000952 .LASF274
     /tmp/ccwOvjHr.s:5844   .debug_str:0000000000000908 .LASF275
     /tmp/ccwOvjHr.s:5768   .debug_str:0000000000000696 .LASF276
     /tmp/ccwOvjHr.s:6100   .debug_str:000000000000115d .LASF277
     /tmp/ccwOvjHr.s:5780   .debug_str:00000000000006de .LASF278
     /tmp/ccwOvjHr.s:5624   .debug_str:00000000000000e4 .LASF279
     /tmp/ccwOvjHr.s:5846   .debug_str:0000000000000924 .LASF280
     /tmp/ccwOvjHr.s:5878   .debug_str:0000000000000a16 .LASF281
     /tmp/ccwOvjHr.s:6064   .debug_str:0000000000001037 .LASF282
     /tmp/ccwOvjHr.s:5642   .debug_str:00000000000001ab .LASF283
     /tmp/ccwOvjHr.s:1306   .text:00000000000005c4 .LFB38
     /tmp/ccwOvjHr.s:1321   .text:00000000000005d4 .LFE38
     /tmp/ccwOvjHr.s:1273   .text:00000000000005a4 .LFB37
     /tmp/ccwOvjHr.s:1300   .text:00000000000005c4 .LFE37
     /tmp/ccwOvjHr.s:10     .text:0000000000000000 .LFB36
     /tmp/ccwOvjHr.s:37     .text:0000000000000028 .LFE36
     /tmp/ccwOvjHr.s:5325   .debug_loc:0000000000000000 .LLST0
     /tmp/ccwOvjHr.s:26     .text:0000000000000018 .LVL1
     /tmp/ccwOvjHr.s:1242   .text:000000000000057c .LFB35
     /tmp/ccwOvjHr.s:1267   .text:00000000000005a4 .LFE35
     /tmp/ccwOvjHr.s:1256   .text:0000000000000594 .LVL96
     /tmp/ccwOvjHr.s:1212   .text:000000000000057c .LFE34
     /tmp/ccwOvjHr.s:5788   .debug_str:0000000000000725 .LASF284
     /tmp/ccwOvjHr.s:5339   .debug_loc:0000000000000039 .LLST24
     /tmp/ccwOvjHr.s:1127   .text:00000000000004c4 .LVL83
     /tmp/ccwOvjHr.s:1131   .text:00000000000004cc .LVL84
     /tmp/ccwOvjHr.s:1136   .text:00000000000004d8 .LVL85
     /tmp/ccwOvjHr.s:1141   .text:00000000000004e8 .LVL86
     /tmp/ccwOvjHr.s:1150   .text:0000000000000508 .LVL87
     /tmp/ccwOvjHr.s:1157   .text:0000000000000514 .LVL88
     /tmp/ccwOvjHr.s:1164   .text:0000000000000520 .LVL89
     /tmp/ccwOvjHr.s:1170   .text:000000000000052c .LVL90
     /tmp/ccwOvjHr.s:1177   .text:0000000000000538 .LVL91
     /tmp/ccwOvjHr.s:1182   .text:0000000000000548 .LVL92
     /tmp/ccwOvjHr.s:1205   .text:0000000000000570 .LVL94
     /tmp/ccwOvjHr.s:1209   .text:000000000000057c .LVL95
     /tmp/ccwOvjHr.s:495    .text:0000000000000224 .LFB33
     /tmp/ccwOvjHr.s:1095   .text:00000000000004a4 .LFE33
     /tmp/ccwOvjHr.s:5978   .debug_str:0000000000000dbb .LASF285
     /tmp/ccwOvjHr.s:5346   .debug_loc:000000000000005c .LLST13
     /tmp/ccwOvjHr.s:749    .text:0000000000000310 .LBB83
     /tmp/ccwOvjHr.s:885    .text:00000000000003a4 .LBE83
     /tmp/ccwOvjHr.s:6106   .debug_str:0000000000001184 .LASF286
     /tmp/ccwOvjHr.s:6052   .debug_str:0000000000000fe3 .LASF287
     /tmp/ccwOvjHr.s:6140   .debug_str:0000000000001294 .LASF288
     /tmp/ccwOvjHr.s:751    .text:0000000000000310 .LBB84
     /tmp/ccwOvjHr.s:767    .text:000000000000031c .LBE84
     /tmp/ccwOvjHr.s:771    .text:0000000000000320 .LBB86
     /tmp/ccwOvjHr.s:786    .text:000000000000032c .LBE86
     /tmp/ccwOvjHr.s:791    .text:0000000000000330 .LBB88
     /tmp/ccwOvjHr.s:803    .text:0000000000000338 .LBE88
     /tmp/ccwOvjHr.s:5367   .debug_loc:00000000000000ba .LLST20
     /tmp/ccwOvjHr.s:826    .text:0000000000000374 .LBB90
     /tmp/ccwOvjHr.s:834    .text:0000000000000378 .LBE90
     /tmp/ccwOvjHr.s:5375   .debug_loc:00000000000000de .LLST21
GAS LISTING /tmp/ccwOvjHr.s 			page 54


     /tmp/ccwOvjHr.s:844    .text:0000000000000384 .LBB92
     /tmp/ccwOvjHr.s:855    .text:0000000000000388 .LBE92
     /tmp/ccwOvjHr.s:5382   .debug_loc:0000000000000101 .LLST22
     /tmp/ccwOvjHr.s:860    .text:000000000000038c .LBB94
     /tmp/ccwOvjHr.s:874    .text:0000000000000394 .LBE94
     /tmp/ccwOvjHr.s:5389   .debug_loc:0000000000000124 .LLST23
     /tmp/ccwOvjHr.s:820    .text:0000000000000368 .LVL51
     /tmp/ccwOvjHr.s:881    .text:00000000000003a0 .LVL58
     /tmp/ccwOvjHr.s:5584   .debug_ranges:0000000000000000 .Ldebug_ranges0
     /tmp/ccwOvjHr.s:5396   .debug_loc:0000000000000147 .LLST17
     /tmp/ccwOvjHr.s:6006   .debug_str:0000000000000e9a .LASF289
     /tmp/ccwOvjHr.s:5407   .debug_loc:000000000000017d .LLST18
     /tmp/ccwOvjHr.s:888    .text:00000000000003a4 .LBB81
     /tmp/ccwOvjHr.s:924    .text:00000000000003d8 .LBE81
     /tmp/ccwOvjHr.s:5414   .debug_loc:00000000000001a0 .LLST19
     /tmp/ccwOvjHr.s:918    .text:00000000000003cc .LVL62
     /tmp/ccwOvjHr.s:923    .text:00000000000003d8 .LVL63
     /tmp/ccwOvjHr.s:737    .text:0000000000000304 .LVL45
     /tmp/ccwOvjHr.s:739    .text:000000000000030c .LVL46
     /tmp/ccwOvjHr.s:5421   .debug_loc:00000000000001c3 .LLST14
     /tmp/ccwOvjHr.s:565    .text:0000000000000284 .LBB71
     /tmp/ccwOvjHr.s:580    .text:0000000000000290 .LBE71
     /tmp/ccwOvjHr.s:586    .text:0000000000000298 .LBB73
     /tmp/ccwOvjHr.s:601    .text:00000000000002a4 .LBE73
     /tmp/ccwOvjHr.s:942    .text:00000000000003e8 .LBB75
     /tmp/ccwOvjHr.s:953    .text:00000000000003ec .LBE75
     /tmp/ccwOvjHr.s:5428   .debug_loc:00000000000001e6 .LLST15
     /tmp/ccwOvjHr.s:958    .text:00000000000003f0 .LBB77
     /tmp/ccwOvjHr.s:970    .text:00000000000003f4 .LBE77
     /tmp/ccwOvjHr.s:5435   .debug_loc:0000000000000209 .LLST16
     /tmp/ccwOvjHr.s:935    .text:00000000000003e4 .LVL65
     /tmp/ccwOvjHr.s:993    .text:0000000000000410 .LVL70
     /tmp/ccwOvjHr.s:1001   .text:000000000000041c .LVL71
     /tmp/ccwOvjHr.s:1009   .text:0000000000000428 .LVL72
     /tmp/ccwOvjHr.s:1017   .text:0000000000000434 .LVL73
     /tmp/ccwOvjHr.s:1025   .text:0000000000000440 .LVL74
     /tmp/ccwOvjHr.s:1033   .text:000000000000044c .LVL75
     /tmp/ccwOvjHr.s:1041   .text:0000000000000458 .LVL76
     /tmp/ccwOvjHr.s:1049   .text:0000000000000464 .LVL77
     /tmp/ccwOvjHr.s:1057   .text:0000000000000470 .LVL78
     /tmp/ccwOvjHr.s:1065   .text:000000000000047c .LVL79
     /tmp/ccwOvjHr.s:1073   .text:0000000000000488 .LVL80
     /tmp/ccwOvjHr.s:1081   .text:0000000000000494 .LVL81
     /tmp/ccwOvjHr.s:1089   .text:00000000000004a0 .LVL82
     /tmp/ccwOvjHr.s:518    .text:0000000000000248 .LBB67
     /tmp/ccwOvjHr.s:534    .text:0000000000000254 .LBE67
     /tmp/ccwOvjHr.s:345    .text:000000000000015c .LFB32
     /tmp/ccwOvjHr.s:489    .text:0000000000000224 .LFE32
     /tmp/ccwOvjHr.s:5442   .debug_loc:000000000000022c .LLST7
     /tmp/ccwOvjHr.s:5456   .debug_loc:0000000000000265 .LLST8
     /tmp/ccwOvjHr.s:6124   .debug_str:0000000000001222 .LASF290
     /tmp/ccwOvjHr.s:5463   .debug_loc:0000000000000288 .LLST9
     /tmp/ccwOvjHr.s:5485   .debug_loc:00000000000002e7 .LLST10
     /tmp/ccwOvjHr.s:362    .text:0000000000000174 .LBB61
     /tmp/ccwOvjHr.s:378    .text:0000000000000180 .LBE61
     /tmp/ccwOvjHr.s:380    .text:0000000000000180 .LBB63
     /tmp/ccwOvjHr.s:392    .text:0000000000000188 .LBE63
GAS LISTING /tmp/ccwOvjHr.s 			page 55


     /tmp/ccwOvjHr.s:5507   .debug_loc:0000000000000328 .LLST11
     /tmp/ccwOvjHr.s:463    .text:0000000000000208 .LBB65
     /tmp/ccwOvjHr.s:474    .text:000000000000020c .LBE65
     /tmp/ccwOvjHr.s:5515   .debug_loc:000000000000034c .LLST12
     /tmp/ccwOvjHr.s:447    .text:00000000000001ec .LVL30
     /tmp/ccwOvjHr.s:454    .text:00000000000001fc .LVL31
     /tmp/ccwOvjHr.s:237    .text:00000000000000ec .LFB31
     /tmp/ccwOvjHr.s:339    .text:000000000000015c .LFE31
     /tmp/ccwOvjHr.s:5666   .debug_str:0000000000000295 .LASF291
     /tmp/ccwOvjHr.s:5522   .debug_loc:000000000000036f .LLST3
     /tmp/ccwOvjHr.s:5533   .debug_loc:00000000000003a5 .LLST4
     /tmp/ccwOvjHr.s:255    .text:0000000000000108 .LBB55
     /tmp/ccwOvjHr.s:271    .text:0000000000000114 .LBE55
     /tmp/ccwOvjHr.s:273    .text:0000000000000114 .LBB57
     /tmp/ccwOvjHr.s:286    .text:000000000000011c .LBE57
     /tmp/ccwOvjHr.s:5540   .debug_loc:00000000000003c8 .LLST5
     /tmp/ccwOvjHr.s:312    .text:0000000000000140 .LBB59
     /tmp/ccwOvjHr.s:323    .text:0000000000000144 .LBE59
     /tmp/ccwOvjHr.s:5548   .debug_loc:00000000000003ec .LLST6
     /tmp/ccwOvjHr.s:296    .text:000000000000012c .LVL14
     /tmp/ccwOvjHr.s:202    .text:00000000000000cc .LFB30
     /tmp/ccwOvjHr.s:231    .text:00000000000000ec .LFE30
     /tmp/ccwOvjHr.s:133    .text:0000000000000084 .LFB29
     /tmp/ccwOvjHr.s:165    .text:00000000000000a4 .LFE29
     /tmp/ccwOvjHr.s:144    .text:0000000000000090 .LBB53
     /tmp/ccwOvjHr.s:156    .text:0000000000000098 .LBE53
     /tmp/ccwOvjHr.s:5555   .debug_loc:000000000000040f .LLST2
     /tmp/ccwOvjHr.s:95     .text:0000000000000064 .LFB28
     /tmp/ccwOvjHr.s:127    .text:0000000000000084 .LFE28
     /tmp/ccwOvjHr.s:106    .text:0000000000000070 .LBB51
     /tmp/ccwOvjHr.s:118    .text:0000000000000078 .LBE51
     /tmp/ccwOvjHr.s:5563   .debug_loc:0000000000000433 .LLST1
     /tmp/ccwOvjHr.s:171    .text:00000000000000a4 .LFB27
     /tmp/ccwOvjHr.s:196    .text:00000000000000cc .LFE27
     /tmp/ccwOvjHr.s:185    .text:00000000000000bc .LVL10
     /tmp/ccwOvjHr.s:43     .text:0000000000000028 .LFB26
     /tmp/ccwOvjHr.s:89     .text:0000000000000064 .LFE26
     /tmp/ccwOvjHr.s:58     .text:0000000000000040 .LBB49
     /tmp/ccwOvjHr.s:70     .text:0000000000000044 .LBE49
     /tmp/ccwOvjHr.s:74     .text:000000000000004c .LVL4
     /tmp/ccwOvjHr.s:78     .text:0000000000000054 .LVL5
     /tmp/ccwOvjHr.s:5724   .debug_str:0000000000000518 .LASF310
     /tmp/ccwOvjHr.s:5646   .debug_str:00000000000001d3 .LASF292
     /tmp/ccwOvjHr.s:6184   .debug_str:00000000000013f0 .LASF293
     /tmp/ccwOvjHr.s:5754   .debug_str:00000000000005fc .LASF294
     /tmp/ccwOvjHr.s:6018   .debug_str:0000000000000eec .LASF296
     /tmp/ccwOvjHr.s:5908   .debug_str:0000000000000b51 .LASF295
     /tmp/ccwOvjHr.s:5970   .debug_str:0000000000000d8e .LASF297
     /tmp/ccwOvjHr.s:5722   .debug_str:000000000000050c .LASF298
     /tmp/ccwOvjHr.s:6160   .debug_str:0000000000001331 .LASF299
     /tmp/ccwOvjHr.s:6150   .debug_str:00000000000012ca .LASF300
     /tmp/ccwOvjHr.s:6196   .debug_str:000000000000143c .LASF311
     /tmp/ccwOvjHr.s:5650   .debug_str:00000000000001f2 .LASF312
     /tmp/ccwOvjHr.s:5884   .debug_str:0000000000000a68 .LASF301
     /tmp/ccwOvjHr.s:5700   .debug_str:0000000000000458 .LASF302
     /tmp/ccwOvjHr.s:5720   .debug_str:0000000000000505 .LASF303
     /tmp/ccwOvjHr.s:14     .text:0000000000000000 .LVL0
GAS LISTING /tmp/ccwOvjHr.s 			page 56


     /tmp/ccwOvjHr.s:1193   .text:0000000000000554 .LVL93
     /tmp/ccwOvjHr.s:532    .text:0000000000000254 .LVL35
     /tmp/ccwOvjHr.s:546    .text:0000000000000278 .LVL36
     /tmp/ccwOvjHr.s:562    .text:0000000000000284 .LVL37
     /tmp/ccwOvjHr.s:686    .text:00000000000002cc .LVL39
     /tmp/ccwOvjHr.s:702    .text:00000000000002e4 .LVL40
     /tmp/ccwOvjHr.s:742    .text:0000000000000310 .LVL47
     /tmp/ccwOvjHr.s:760    .text:0000000000000314 .LVL48
     /tmp/ccwOvjHr.s:790    .text:0000000000000330 .LVL49
     /tmp/ccwOvjHr.s:800    .text:0000000000000338 .LVL50
     /tmp/ccwOvjHr.s:825    .text:0000000000000374 .LVL52
     /tmp/ccwOvjHr.s:832    .text:0000000000000378 .LVL53
     /tmp/ccwOvjHr.s:843    .text:0000000000000384 .LVL54
     /tmp/ccwOvjHr.s:852    .text:0000000000000388 .LVL55
     /tmp/ccwOvjHr.s:859    .text:000000000000038c .LVL56
     /tmp/ccwOvjHr.s:871    .text:0000000000000394 .LVL57
     /tmp/ccwOvjHr.s:704    .text:00000000000002e8 .LVL41
     /tmp/ccwOvjHr.s:722    .text:00000000000002f4 .LVL42
     /tmp/ccwOvjHr.s:893    .text:00000000000003b0 .LVL60
     /tmp/ccwOvjHr.s:728    .text:00000000000002f8 .LVL43
     /tmp/ccwOvjHr.s:913    .text:00000000000003c0 .LVL61
     /tmp/ccwOvjHr.s:926    .text:00000000000003dc .LVL64
     /tmp/ccwOvjHr.s:608    .text:00000000000002b4 .LVL38
     /tmp/ccwOvjHr.s:941    .text:00000000000003e8 .LVL66
     /tmp/ccwOvjHr.s:950    .text:00000000000003ec .LVL67
     /tmp/ccwOvjHr.s:957    .text:00000000000003f0 .LVL68
     /tmp/ccwOvjHr.s:966    .text:00000000000003f4 .LVL69
     /tmp/ccwOvjHr.s:348    .text:000000000000015c .LVL20
     /tmp/ccwOvjHr.s:402    .text:000000000000018c .LVL23
     /tmp/ccwOvjHr.s:376    .text:0000000000000180 .LVL21
     /tmp/ccwOvjHr.s:458    .text:0000000000000200 .LVL32
     /tmp/ccwOvjHr.s:406    .text:0000000000000190 .LVL24
     /tmp/ccwOvjHr.s:413    .text:0000000000000198 .LVL25
     /tmp/ccwOvjHr.s:424    .text:00000000000001bc .LVL26
     /tmp/ccwOvjHr.s:434    .text:00000000000001d0 .LVL28
     /tmp/ccwOvjHr.s:439    .text:00000000000001d4 .LVL29
     /tmp/ccwOvjHr.s:430    .text:00000000000001c8 .LVL27
     /tmp/ccwOvjHr.s:389    .text:0000000000000188 .LVL22
     /tmp/ccwOvjHr.s:462    .text:0000000000000208 .LVL33
     /tmp/ccwOvjHr.s:471    .text:000000000000020c .LVL34
     /tmp/ccwOvjHr.s:240    .text:00000000000000ec .LVL11
     /tmp/ccwOvjHr.s:282    .text:000000000000011c .LVL13
     /tmp/ccwOvjHr.s:332    .text:0000000000000150 .LVL19
     /tmp/ccwOvjHr.s:269    .text:0000000000000114 .LVL12
     /tmp/ccwOvjHr.s:307    .text:0000000000000138 .LVL16
     /tmp/ccwOvjHr.s:311    .text:0000000000000140 .LVL17
     /tmp/ccwOvjHr.s:320    .text:0000000000000144 .LVL18
     /tmp/ccwOvjHr.s:143    .text:0000000000000090 .LVL8
     /tmp/ccwOvjHr.s:153    .text:0000000000000098 .LVL9
     /tmp/ccwOvjHr.s:105    .text:0000000000000070 .LVL6
     /tmp/ccwOvjHr.s:115    .text:0000000000000078 .LVL7
     /tmp/ccwOvjHr.s:1349   .debug_info:0000000000000000 .Ldebug_info0
     /tmp/ccwOvjHr.s:554    .text:0000000000000280 .LBB70
     /tmp/ccwOvjHr.s:688    .text:00000000000002cc .LBE70
     /tmp/ccwOvjHr.s:930    .text:00000000000003dc .LBB97
     /tmp/ccwOvjHr.s:971    .text:00000000000003f4 .LBE97
     /tmp/ccwOvjHr.s:988    .text:0000000000000408 .LBB98
GAS LISTING /tmp/ccwOvjHr.s 			page 57


     /tmp/ccwOvjHr.s:1092   .text:00000000000004a4 .LBE98
     /tmp/ccwOvjHr.s:698    .text:00000000000002dc .LBB79
     /tmp/ccwOvjHr.s:744    .text:0000000000000310 .LBE79
     /tmp/ccwOvjHr.s:886    .text:00000000000003a4 .LBB96
     /tmp/ccwOvjHr.s:929    .text:00000000000003dc .LBE96
     /tmp/ccwOvjHr.s:1215   .gcc_except_table:0000000000000000 .LLSDA34

UNDEFINED SYMBOLS
_Z7myTestsv
_ZN5Riscv14supervisorTrapEv
_ZN3PCB10initializeEv
_ZN8KConsole10initializeEv
__putc
_ZN3PCB10savedRegA4E
CONSOLE_STATUS
plic_claim
plic_complete
_ZN3PCB16timeSliceCounterE
_ZN12SleepPCBList13tryToWakePCBsEv
_ZN3PCB7runningE
_ZN3PCB8dispatchEv
CONSOLE_TX_DATA
_ZN8KConsole17putCharacterInputEc
_ZN8KConsole18putCharacterOutputEc
_ZN15MemoryAllocator15memAllocHandlerEv
_ZN15MemoryAllocator14memFreeHandlerEv
_ZN3PCB20threadMakePCBHandlerEv
_ZN3PCB19threadCreateHandlerEv
_ZN3PCB18threadStartHandlerEv
_ZN3PCB21threadDispatchHandlerEv
_ZN3PCB17threadExitHandlerEv
_ZN3PCB18threadSleepHandlerEv
_ZN10KSemaphore14semOpenHandlerEv
_ZN10KSemaphore14semWaitHandlerEv
_ZN10KSemaphore16semSignalHandlerEv
_ZN10KSemaphore15semCloseHandlerEv
_ZN8KConsole11getcHandlerEv
_ZN8KConsole11putcHandlerEv
_Z7kmallocm
_ZN3PCBnwEm
_ZN3PCBC1EPFvPvES0_S0_m
_ZN3PCB5startEv
_ZN3PCB10isFinishedEv
thread_dispatch
_ZN3PCBdlEPv
_Unwind_Resume
__gxx_personality_v0
_Z8userMainv
