GAS LISTING /tmp/ccZxeZ9e.s 			page 1


   1              		.file	"Riscv.cpp"
   2              		.option pic
   3              		.option norelax
   4              		.text
   5              	.Ltext0:
   6              		.align	2
   7              		.globl	_ZN5Riscv15userMainWrapperEPv
   9              	_ZN5Riscv15userMainWrapperEPv:
  10              	.LFB34:
  11              		.file 1 "src/Riscv.cpp"
   1:src/Riscv.cpp **** //
   2:src/Riscv.cpp **** // Created by os on 4/27/22.
   3:src/Riscv.cpp **** //
   4:src/Riscv.cpp **** 
   5:src/Riscv.cpp **** #include "../h/Riscv.hpp"
   6:src/Riscv.cpp **** #include "../h/MemoryAllocator.hpp"
   7:src/Riscv.cpp **** #include "../h/PCB.hpp"
   8:src/Riscv.cpp **** #include "../lib/console.h"
   9:src/Riscv.cpp **** #include "../h/syscall_cpp.hpp"
  10:src/Riscv.cpp **** #include "../h/SleepPCBList.hpp"
  11:src/Riscv.cpp **** #include "../h/KConsole.hpp"
  12:src/Riscv.cpp **** #include "../h/Tests.hpp"
  13:src/Riscv.cpp **** #include "../test/userMain.hpp"
  14:src/Riscv.cpp **** 
  15:src/Riscv.cpp **** void Riscv::initSystem()
  16:src/Riscv.cpp **** {
  17:src/Riscv.cpp ****     w_stvec((uint64)&Riscv::supervisorTrap);
  18:src/Riscv.cpp ****     PCB::initialize();
  19:src/Riscv.cpp ****     KConsole::initialize();
  20:src/Riscv.cpp **** }
  21:src/Riscv.cpp **** 
  22:src/Riscv.cpp **** void Riscv::endSystem()
  23:src/Riscv.cpp **** {
  24:src/Riscv.cpp ****     //todo
  25:src/Riscv.cpp ****     Riscv::disableInterrupts();
  26:src/Riscv.cpp **** }
  27:src/Riscv.cpp **** 
  28:src/Riscv.cpp **** 
  29:src/Riscv.cpp **** void Riscv::enableInterrupts() {
  30:src/Riscv.cpp ****     ms_sstatus(Riscv::SSTATUS_SIE);
  31:src/Riscv.cpp **** }
  32:src/Riscv.cpp **** 
  33:src/Riscv.cpp **** void Riscv::disableInterrupts()
  34:src/Riscv.cpp **** {
  35:src/Riscv.cpp ****     mc_sstatus(Riscv::SSTATUS_SIE);
  36:src/Riscv.cpp **** }
  37:src/Riscv.cpp **** 
  38:src/Riscv.cpp **** void Riscv::popSppSpie()
  39:src/Riscv.cpp **** {
  40:src/Riscv.cpp ****     __asm__ volatile ("csrw sepc, ra");
  41:src/Riscv.cpp ****     __asm__ volatile ("sret");
  42:src/Riscv.cpp **** }
  43:src/Riscv.cpp **** 
  44:src/Riscv.cpp **** void Riscv::printString(const char *string)
  45:src/Riscv.cpp **** {
  46:src/Riscv.cpp ****     uint64 sstatus = r_sstatus();
  47:src/Riscv.cpp ****     mc_sstatus(SSTATUS_SIE);
GAS LISTING /tmp/ccZxeZ9e.s 			page 2


  48:src/Riscv.cpp ****     while (*string != '\0')
  49:src/Riscv.cpp ****     {
  50:src/Riscv.cpp ****         __putc(*string);
  51:src/Riscv.cpp ****         string++;
  52:src/Riscv.cpp ****     }
  53:src/Riscv.cpp ****     ms_sstatus(sstatus & SSTATUS_SIE ? SSTATUS_SIE : 0);
  54:src/Riscv.cpp **** }
  55:src/Riscv.cpp **** 
  56:src/Riscv.cpp **** void Riscv::printInteger(uint64 num)
  57:src/Riscv.cpp **** {
  58:src/Riscv.cpp ****     uint64 sstatus = r_sstatus();
  59:src/Riscv.cpp ****     mc_sstatus(SSTATUS_SIE);
  60:src/Riscv.cpp ****     static char digits[] = "0123456789";
  61:src/Riscv.cpp ****     char buf[16];
  62:src/Riscv.cpp ****     int i, neg;
  63:src/Riscv.cpp ****     uint x;
  64:src/Riscv.cpp **** 
  65:src/Riscv.cpp ****     neg = 0;
  66:src/Riscv.cpp ****     if(num < 0)
  67:src/Riscv.cpp ****     {
  68:src/Riscv.cpp ****         neg = 1;
  69:src/Riscv.cpp ****         x = -num;
  70:src/Riscv.cpp ****     }
  71:src/Riscv.cpp ****     else
  72:src/Riscv.cpp ****         x = num;
  73:src/Riscv.cpp **** 
  74:src/Riscv.cpp ****     i = 0;
  75:src/Riscv.cpp ****     do
  76:src/Riscv.cpp ****     {
  77:src/Riscv.cpp ****         buf[i++] = digits[x%10];
  78:src/Riscv.cpp ****     }while((x/=10) != 0);
  79:src/Riscv.cpp ****     if(neg)
  80:src/Riscv.cpp ****         buf[i++] = '-';
  81:src/Riscv.cpp **** 
  82:src/Riscv.cpp ****     while(--i >= 0)
  83:src/Riscv.cpp ****         __putc(buf[i]);
  84:src/Riscv.cpp **** 
  85:src/Riscv.cpp ****     __putc('\n');
  86:src/Riscv.cpp **** 
  87:src/Riscv.cpp ****     ms_sstatus(sstatus & SSTATUS_SIE ? SSTATUS_SIE : 0);
  88:src/Riscv.cpp **** }
  89:src/Riscv.cpp **** 
  90:src/Riscv.cpp **** void Riscv::handleSupervisorTrap()
  91:src/Riscv.cpp **** {
  92:src/Riscv.cpp ****     uint64 a4;
  93:src/Riscv.cpp ****     __asm__ volatile("mv %0, a4" : "=r"(a4));
  94:src/Riscv.cpp **** 
  95:src/Riscv.cpp ****     uint64 scause = Riscv::r_scause();
  96:src/Riscv.cpp **** 
  97:src/Riscv.cpp ****     switch(scause)
  98:src/Riscv.cpp ****     {
  99:src/Riscv.cpp **** 
 100:src/Riscv.cpp ****         case timerInterrupt:
 101:src/Riscv.cpp **** 
 102:src/Riscv.cpp ****             Riscv::mc_sip(Riscv::SIP_SSIP);
 103:src/Riscv.cpp ****             //Riscv::printString("timerInterrupt\n");
 104:src/Riscv.cpp ****             static uint64 total = 0;
GAS LISTING /tmp/ccZxeZ9e.s 			page 3


 105:src/Riscv.cpp ****             total++;
 106:src/Riscv.cpp ****             //Riscv::printInteger(total);
 107:src/Riscv.cpp **** 
 108:src/Riscv.cpp ****             PCB::timeSliceCounter++;
 109:src/Riscv.cpp **** 
 110:src/Riscv.cpp ****             SleepPCBList::tryToWakePCBs();
 111:src/Riscv.cpp **** 
 112:src/Riscv.cpp ****             if (PCB::timeSliceCounter >= PCB::running->getTimeSlice())
 113:src/Riscv.cpp ****             {
 114:src/Riscv.cpp ****                 //Riscv::printString("Should dispatch...\n");
 115:src/Riscv.cpp ****                 volatile uint64 sepc = Riscv::r_sepc();
 116:src/Riscv.cpp ****                 volatile uint64 sstatus = Riscv::r_sstatus();
 117:src/Riscv.cpp ****                 PCB::timeSliceCounter = 0;
 118:src/Riscv.cpp ****                 PCB::dispatch();
 119:src/Riscv.cpp ****                 Riscv::w_sstatus(sstatus);
 120:src/Riscv.cpp ****                 Riscv::w_sepc(sepc);
 121:src/Riscv.cpp ****             }
 122:src/Riscv.cpp **** 
 123:src/Riscv.cpp ****             return;
 124:src/Riscv.cpp **** 
 125:src/Riscv.cpp ****         case hwInterrupt: // todo
 126:src/Riscv.cpp **** 
 127:src/Riscv.cpp ****             //Riscv::printString("Hardware interrupt...\n");
 128:src/Riscv.cpp ****             console_handler();
 129:src/Riscv.cpp ****             break;
 130:src/Riscv.cpp **** 
 131:src/Riscv.cpp ****         case operationInterrupt: // todo
 132:src/Riscv.cpp ****             break;
 133:src/Riscv.cpp **** 
 134:src/Riscv.cpp ****         case addrReadInterrupt: // todo
 135:src/Riscv.cpp ****             break;
 136:src/Riscv.cpp **** 
 137:src/Riscv.cpp ****         case addrWriteInterrupt: // todo
 138:src/Riscv.cpp ****             break;
 139:src/Riscv.cpp **** 
 140:src/Riscv.cpp ****         case ecallSystemInterupt:
 141:src/Riscv.cpp ****         case ecallUserInterrupt:
 142:src/Riscv.cpp **** 
 143:src/Riscv.cpp ****             uint64 operation;
 144:src/Riscv.cpp ****             __asm__ volatile("mv %0, a0" :  "=r"(operation));
 145:src/Riscv.cpp **** 
 146:src/Riscv.cpp ****             volatile uint64 sepc = Riscv::r_sepc();
 147:src/Riscv.cpp ****             sepc+=4;
 148:src/Riscv.cpp **** 
 149:src/Riscv.cpp ****             if(operation == MemoryAllocator::MEM_ALLOC)
 150:src/Riscv.cpp ****             {
 151:src/Riscv.cpp ****                 size_t size;
 152:src/Riscv.cpp ****                 __asm__ volatile("mv %0, a1" : "=r"(size));
 153:src/Riscv.cpp ****                 size*=MEM_BLOCK_SIZE;
 154:src/Riscv.cpp ****                 void* allocatedAddr = kmalloc(size);
 155:src/Riscv.cpp ****                 __asm__ volatile("mv a0,%0" : : "r"((uint64)allocatedAddr));
 156:src/Riscv.cpp ****             }
 157:src/Riscv.cpp ****             else if(operation == MemoryAllocator::MEM_FREE)
 158:src/Riscv.cpp ****             {
 159:src/Riscv.cpp ****                 uint64 addr = 0;
 160:src/Riscv.cpp ****                 __asm__ volatile("mv %0, a1" : "=r"(addr));
 161:src/Riscv.cpp ****                 uint64 retval = kfree((void*)addr);
GAS LISTING /tmp/ccZxeZ9e.s 			page 4


 162:src/Riscv.cpp ****                 __asm__ volatile("mv a0,%0" : :"r"(retval));
 163:src/Riscv.cpp ****             }
 164:src/Riscv.cpp ****             else if(operation == PCB::THREAD_CREATE)
 165:src/Riscv.cpp ****             {
 166:src/Riscv.cpp ****                 uint64 start_routine;
 167:src/Riscv.cpp ****                 uint64 args;
 168:src/Riscv.cpp ****                 PCB** threadHandle;
 169:src/Riscv.cpp ****                 __asm__ volatile("mv %0, a1" : "=r"(threadHandle));
 170:src/Riscv.cpp ****                 __asm__ volatile("mv %0, a2" : "=r"(start_routine));
 171:src/Riscv.cpp ****                 __asm__ volatile("mv %0, a3" : "=r"(args));
 172:src/Riscv.cpp ****                 //todo
 173:src/Riscv.cpp ****                 //uint64 stack_space;
 174:src/Riscv.cpp ****                 //__asm__ volatile("mv %0, a4" : "=r"(stack_space));
 175:src/Riscv.cpp **** 
 176:src/Riscv.cpp ****                 PCB* newPCB = new PCB((void (*)(void*))start_routine, (void*)args, (void*)a4, DEFAU
 177:src/Riscv.cpp **** 
 178:src/Riscv.cpp ****                 (*threadHandle) = newPCB;
 179:src/Riscv.cpp **** 
 180:src/Riscv.cpp ****                 if(newPCB == 0)
 181:src/Riscv.cpp ****                     __asm__ volatile("li a0, 0xffffffffffffffff");
 182:src/Riscv.cpp ****                 else
 183:src/Riscv.cpp ****                     __asm__ volatile("li a0, 0");
 184:src/Riscv.cpp ****             }
 185:src/Riscv.cpp ****             else if(operation == PCB::THREAD_DISPATCH)
 186:src/Riscv.cpp ****             {
 187:src/Riscv.cpp ****                 volatile uint64 sstatus = Riscv::r_sstatus();
 188:src/Riscv.cpp ****                 PCB::timeSliceCounter = 0;
 189:src/Riscv.cpp ****                 PCB::dispatch();
 190:src/Riscv.cpp ****                 Riscv::w_sstatus(sstatus);
 191:src/Riscv.cpp ****             }
 192:src/Riscv.cpp ****             else if(operation == PCB::THREAD_EXIT)
 193:src/Riscv.cpp ****             {
 194:src/Riscv.cpp ****                 Riscv::printString("Exiting thread...\n");
 195:src/Riscv.cpp ****                 volatile uint64 sstatus = Riscv::r_sstatus();
 196:src/Riscv.cpp ****                 PCB::timeSliceCounter = 0;
 197:src/Riscv.cpp ****                 PCB::running->setState(PCB::FINISHED);
 198:src/Riscv.cpp ****                 PCB::dispatch();
 199:src/Riscv.cpp ****                 Riscv::w_sstatus(sstatus);
 200:src/Riscv.cpp ****                 __asm__ volatile("li a0, 0");
 201:src/Riscv.cpp ****             }
 202:src/Riscv.cpp ****             else if(operation == PCB::TIME_SLEEP)
 203:src/Riscv.cpp ****             {
 204:src/Riscv.cpp ****                 uint64 time;
 205:src/Riscv.cpp ****                 __asm__ volatile("mv %0, a1" : "=r"(time));
 206:src/Riscv.cpp ****                 volatile uint64 sstatus = Riscv::r_sstatus();
 207:src/Riscv.cpp ****                 PCB::timeSliceCounter = 0;
 208:src/Riscv.cpp ****                 PCB::running->setTimeToSleep(time);
 209:src/Riscv.cpp ****                 SleepPCBList::insertSleepingPCB();
 210:src/Riscv.cpp ****                 PCB::dispatch();
 211:src/Riscv.cpp ****                 Riscv::w_sstatus(sstatus);
 212:src/Riscv.cpp ****                 __asm__ volatile("li a0, 0x0");
 213:src/Riscv.cpp ****             }
 214:src/Riscv.cpp ****             else if(operation == KSemaphore::SEM_OPEN)
 215:src/Riscv.cpp ****             {
 216:src/Riscv.cpp ****                 uint64 val;
 217:src/Riscv.cpp ****                 KSemaphore** semaphoreHandle;
 218:src/Riscv.cpp ****                 __asm__ volatile("mv %0, a1" : "=r"(semaphoreHandle));
GAS LISTING /tmp/ccZxeZ9e.s 			page 5


 219:src/Riscv.cpp ****                 __asm__ volatile("mv %0, a2" : "=r"(val));
 220:src/Riscv.cpp **** 
 221:src/Riscv.cpp ****                 KSemaphore* newSem = new KSemaphore(val);
 222:src/Riscv.cpp **** 
 223:src/Riscv.cpp ****                 (*semaphoreHandle) = newSem;
 224:src/Riscv.cpp **** 
 225:src/Riscv.cpp ****                 if(newSem == 0)
 226:src/Riscv.cpp ****                         __asm__ volatile("li a0, 0xffffffffffffffff");
 227:src/Riscv.cpp ****                 else
 228:src/Riscv.cpp ****                         __asm__ volatile("li a0, 0");
 229:src/Riscv.cpp **** 
 230:src/Riscv.cpp ****             }
 231:src/Riscv.cpp ****             else if(operation == KSemaphore::SEM_WAIT)
 232:src/Riscv.cpp ****             {
 233:src/Riscv.cpp ****                 volatile uint64 sstatus = Riscv::r_sstatus();
 234:src/Riscv.cpp ****                 KSemaphore* kSem;
 235:src/Riscv.cpp ****                 __asm__ volatile("mv %0, a1" : "=r"(kSem));
 236:src/Riscv.cpp ****                 volatile uint64 retval = kSem->wait();
 237:src/Riscv.cpp ****                 Riscv::w_sstatus(sstatus);
 238:src/Riscv.cpp ****                 __asm__ volatile("mv a0,%0" : :"r"(retval));
 239:src/Riscv.cpp ****             }
 240:src/Riscv.cpp ****             else if(operation == KSemaphore::SEM_SIGNAL)
 241:src/Riscv.cpp ****             {
 242:src/Riscv.cpp ****                 KSemaphore* kSem;
 243:src/Riscv.cpp ****                 __asm__ volatile("mv %0, a1" : "=r"(kSem));
 244:src/Riscv.cpp ****                 volatile uint64 retval = kSem->signal();
 245:src/Riscv.cpp ****                 __asm__ volatile("mv a0,%0" : :"r"(retval));
 246:src/Riscv.cpp ****             }
 247:src/Riscv.cpp ****             else if(operation == KSemaphore::SEM_CLOSE)
 248:src/Riscv.cpp ****             {
 249:src/Riscv.cpp ****                 KSemaphore* kSem;
 250:src/Riscv.cpp ****                 __asm__ volatile("mv %0, a1" : "=r"(kSem));
 251:src/Riscv.cpp ****                 delete kSem;
 252:src/Riscv.cpp ****                 __asm__ volatile("li a0, 0");
 253:src/Riscv.cpp ****             }
 254:src/Riscv.cpp ****             else if(operation == KConsole::CONSOLE_GETC)
 255:src/Riscv.cpp ****             {
 256:src/Riscv.cpp ****                 //todo
 257:src/Riscv.cpp ****             }
 258:src/Riscv.cpp ****             else if(operation == KConsole::CONSOLE_PUTC)
 259:src/Riscv.cpp ****             {
 260:src/Riscv.cpp ****                 //todo
 261:src/Riscv.cpp ****             }
 262:src/Riscv.cpp **** 
 263:src/Riscv.cpp ****             Riscv::w_sepc(sepc);
 264:src/Riscv.cpp **** 
 265:src/Riscv.cpp ****             return;
 266:src/Riscv.cpp ****     }
 267:src/Riscv.cpp **** }
 268:src/Riscv.cpp **** 
 269:src/Riscv.cpp **** void Riscv::kernelMain()
 270:src/Riscv.cpp **** {
 271:src/Riscv.cpp ****     initSystem();
 272:src/Riscv.cpp **** 
 273:src/Riscv.cpp ****     enableInterrupts();
 274:src/Riscv.cpp **** 
 275:src/Riscv.cpp ****     PCB* userPCB = new PCB(&Riscv::userMainWrapper, 0, kmalloc(DEFAULT_STACK_SIZE), DEFAULT_TIME_SL
GAS LISTING /tmp/ccZxeZ9e.s 			page 6


 276:src/Riscv.cpp **** 
 277:src/Riscv.cpp ****     while(userPCB->getState() != PCB::FINISHED)
 278:src/Riscv.cpp ****     {
 279:src/Riscv.cpp ****         thread_dispatch();
 280:src/Riscv.cpp ****     }
 281:src/Riscv.cpp **** 
 282:src/Riscv.cpp ****     //myTests();
 283:src/Riscv.cpp **** 
 284:src/Riscv.cpp ****     disableInterrupts();
 285:src/Riscv.cpp **** 
 286:src/Riscv.cpp ****     endSystem();
 287:src/Riscv.cpp **** 
 288:src/Riscv.cpp ****     Riscv::printString("End...");
 289:src/Riscv.cpp **** }
 290:src/Riscv.cpp **** 
 291:src/Riscv.cpp **** void Riscv::userMainWrapper(void* ) {
  12              		.loc 1 291 37
  13              		.cfi_startproc
  14 0000 130101FF 		addi	sp,sp,-16
  15              		.cfi_def_cfa_offset 16
  16 0004 23341100 		sd	ra,8(sp)
  17 0008 23308100 		sd	s0,0(sp)
  18              		.cfi_offset 1, -8
  19              		.cfi_offset 8, -16
  20 000c 13040101 		addi	s0,sp,16
  21              		.cfi_def_cfa 8, 0
 292:src/Riscv.cpp ****     userMain();
  22              		.loc 1 292 5
  23              		.loc 1 292 13 is_stmt 0
  24 0010 97000000 		call	_Z8userMainv@plt
  24      E7800000 
  25              	.LVL0:
 293:src/Riscv.cpp **** }
  26              		.loc 1 293 1
  27 0018 83308100 		ld	ra,8(sp)
  28              		.cfi_restore 1
  29 001c 03340100 		ld	s0,0(sp)
  30              		.cfi_restore 8
  31              		.cfi_def_cfa 2, 16
  32 0020 13010101 		addi	sp,sp,16
  33              		.cfi_def_cfa_offset 0
  34 0024 67800000 		jr	ra
  35              		.cfi_endproc
  36              	.LFE34:
  38              		.align	2
  39              		.globl	_ZN5Riscv10initSystemEv
  41              	_ZN5Riscv10initSystemEv:
  42              	.LFB25:
  16:src/Riscv.cpp ****     w_stvec((uint64)&Riscv::supervisorTrap);
  43              		.loc 1 16 1 is_stmt 1
  44              		.cfi_startproc
  45 0028 130101FF 		addi	sp,sp,-16
  46              		.cfi_def_cfa_offset 16
  47 002c 23341100 		sd	ra,8(sp)
  48 0030 23308100 		sd	s0,0(sp)
  49              		.cfi_offset 1, -8
  50              		.cfi_offset 8, -16
GAS LISTING /tmp/ccZxeZ9e.s 			page 7


  51 0034 13040101 		addi	s0,sp,16
  52              		.cfi_def_cfa 8, 0
  17:src/Riscv.cpp ****     PCB::initialize();
  53              		.loc 1 17 5
  17:src/Riscv.cpp ****     PCB::initialize();
  54              		.loc 1 17 12 is_stmt 0
  55 0038 97070000 		la	a5,_ZN5Riscv14supervisorTrapEv
  55      83B70700 
  56              	.LVL1:
  57              	.LBB84:
  58              	.LBB85:
  59              		.file 2 "src/../h/Riscv.hpp"
   1:src/../h/Riscv.hpp **** //
   2:src/../h/Riscv.hpp **** // Created by os on 4/27/22.
   3:src/../h/Riscv.hpp **** //
   4:src/../h/Riscv.hpp **** 
   5:src/../h/Riscv.hpp **** #ifndef PROJECT_BASE_V1_0_RISCV_HPP
   6:src/../h/Riscv.hpp **** #define PROJECT_BASE_V1_0_RISCV_HPP
   7:src/../h/Riscv.hpp **** 
   8:src/../h/Riscv.hpp **** #include "../lib/hw.h"
   9:src/../h/Riscv.hpp **** 
  10:src/../h/Riscv.hpp **** class Riscv
  11:src/../h/Riscv.hpp **** {
  12:src/../h/Riscv.hpp **** private:
  13:src/../h/Riscv.hpp **** 
  14:src/../h/Riscv.hpp **** public:
  15:src/../h/Riscv.hpp ****     static void kernelMain();
  16:src/../h/Riscv.hpp **** 
  17:src/../h/Riscv.hpp ****     static void initSystem();
  18:src/../h/Riscv.hpp ****     static void endSystem();
  19:src/../h/Riscv.hpp **** 
  20:src/../h/Riscv.hpp ****     static void userMainWrapper(void* p);
  21:src/../h/Riscv.hpp **** 
  22:src/../h/Riscv.hpp ****     static void enableInterrupts();
  23:src/../h/Riscv.hpp **** 
  24:src/../h/Riscv.hpp ****     static void disableInterrupts();
  25:src/../h/Riscv.hpp **** 
  26:src/../h/Riscv.hpp ****     static void printString(char const *string);
  27:src/../h/Riscv.hpp **** 
  28:src/../h/Riscv.hpp ****     static void printInteger(uint64 num);
  29:src/../h/Riscv.hpp **** 
  30:src/../h/Riscv.hpp ****     static void pushRegisters();
  31:src/../h/Riscv.hpp ****     static void popRegisters();
  32:src/../h/Riscv.hpp **** 
  33:src/../h/Riscv.hpp ****     static uint64 r_scause();
  34:src/../h/Riscv.hpp ****     static void w_scause(uint64 scause);
  35:src/../h/Riscv.hpp **** 
  36:src/../h/Riscv.hpp ****     static uint64 r_sepc();
  37:src/../h/Riscv.hpp ****     static void w_sepc(uint64 sepc);
  38:src/../h/Riscv.hpp **** 
  39:src/../h/Riscv.hpp ****     static uint64 r_stvec();
  40:src/../h/Riscv.hpp ****     static void w_stvec(uint64 stvec);
  41:src/../h/Riscv.hpp **** 
  42:src/../h/Riscv.hpp ****     static uint64 r_stval();
  43:src/../h/Riscv.hpp ****     static void w_stval(uint64 stval);
  44:src/../h/Riscv.hpp **** 
  45:src/../h/Riscv.hpp ****     enum BitMaskSip
GAS LISTING /tmp/ccZxeZ9e.s 			page 8


  46:src/../h/Riscv.hpp ****     {
  47:src/../h/Riscv.hpp ****         SIP_SSIP = (1 << 1),
  48:src/../h/Riscv.hpp ****         SIP_STIP = (1 << 5),
  49:src/../h/Riscv.hpp ****         SIP_SEIP = (1 << 9),
  50:src/../h/Riscv.hpp ****     };
  51:src/../h/Riscv.hpp **** 
  52:src/../h/Riscv.hpp ****     static void ms_sip(uint64 mask);
  53:src/../h/Riscv.hpp **** 
  54:src/../h/Riscv.hpp ****     static void mc_sip(uint64 mask);
  55:src/../h/Riscv.hpp **** 
  56:src/../h/Riscv.hpp ****     static uint64 r_sip();
  57:src/../h/Riscv.hpp **** 
  58:src/../h/Riscv.hpp ****     static void w_sip(uint64 sip);
  59:src/../h/Riscv.hpp **** 
  60:src/../h/Riscv.hpp ****     enum BitMaskSstatus
  61:src/../h/Riscv.hpp ****     {
  62:src/../h/Riscv.hpp ****         SSTATUS_SIE = (1 << 1),
  63:src/../h/Riscv.hpp ****         SSTATUS_SPIE = (1 << 5),
  64:src/../h/Riscv.hpp ****         SSTATUS_SPP = (1 << 8),
  65:src/../h/Riscv.hpp ****     };
  66:src/../h/Riscv.hpp **** 
  67:src/../h/Riscv.hpp ****     static void ms_sstatus(uint64 mask);
  68:src/../h/Riscv.hpp **** 
  69:src/../h/Riscv.hpp ****     static void mc_sstatus(uint64 mask);
  70:src/../h/Riscv.hpp **** 
  71:src/../h/Riscv.hpp ****     static uint64 r_sstatus();
  72:src/../h/Riscv.hpp **** 
  73:src/../h/Riscv.hpp ****     static void w_sstatus(uint64 sstatus);
  74:src/../h/Riscv.hpp **** 
  75:src/../h/Riscv.hpp ****     static void popSppSpie();
  76:src/../h/Riscv.hpp **** 
  77:src/../h/Riscv.hpp ****     static void supervisorTrap();
  78:src/../h/Riscv.hpp ****     static void handleSupervisorTrap();
  79:src/../h/Riscv.hpp **** 
  80:src/../h/Riscv.hpp ****     static const uint64 bntOne = 1UL << 63;;
  81:src/../h/Riscv.hpp ****     static const uint64 bntZero = 0UL;
  82:src/../h/Riscv.hpp ****     static const uint64 timerInterrupt = bntOne + 1UL;
  83:src/../h/Riscv.hpp ****     static const uint64 hwInterrupt = bntOne + 9UL;
  84:src/../h/Riscv.hpp ****     static const uint64 operationInterrupt = bntZero + 2UL;
  85:src/../h/Riscv.hpp ****     static const uint64 addrReadInterrupt = bntZero + 5UL;
  86:src/../h/Riscv.hpp ****     static const uint64 addrWriteInterrupt = bntZero + 7UL;
  87:src/../h/Riscv.hpp ****     static const uint64 ecallUserInterrupt = bntZero + 8UL;
  88:src/../h/Riscv.hpp ****     static const uint64 ecallSystemInterupt = bntZero + 9UL;
  89:src/../h/Riscv.hpp **** };
  90:src/../h/Riscv.hpp **** 
  91:src/../h/Riscv.hpp **** inline uint64 Riscv::r_scause() {
  92:src/../h/Riscv.hpp ****     uint64 volatile scause;
  93:src/../h/Riscv.hpp ****     __asm__ volatile("csrr %0, scause" : "=r"(scause));
  94:src/../h/Riscv.hpp ****     return scause;
  95:src/../h/Riscv.hpp **** }
  96:src/../h/Riscv.hpp **** 
  97:src/../h/Riscv.hpp **** inline void Riscv::w_scause(uint64 scause) {
  98:src/../h/Riscv.hpp ****     __asm__ volatile("csrw scause, %0" : :"r"(scause));
  99:src/../h/Riscv.hpp **** }
 100:src/../h/Riscv.hpp **** 
 101:src/../h/Riscv.hpp **** inline uint64 Riscv::r_sepc() {
 102:src/../h/Riscv.hpp ****     uint64 volatile sepc;
GAS LISTING /tmp/ccZxeZ9e.s 			page 9


 103:src/../h/Riscv.hpp ****     __asm__ volatile("csrr %0, sepc" : "=r"(sepc));
 104:src/../h/Riscv.hpp ****     return sepc;
 105:src/../h/Riscv.hpp **** }
 106:src/../h/Riscv.hpp **** 
 107:src/../h/Riscv.hpp **** inline void Riscv::w_sepc(uint64 sepc) {
 108:src/../h/Riscv.hpp ****     __asm__ volatile("csrw sepc, %0" : :"r"(sepc));
 109:src/../h/Riscv.hpp **** }
 110:src/../h/Riscv.hpp **** 
 111:src/../h/Riscv.hpp **** inline uint64 Riscv::r_stvec() {
 112:src/../h/Riscv.hpp ****     uint64 volatile stvec;
 113:src/../h/Riscv.hpp ****     __asm__ volatile("csrr %0, stvec" : "=r"(stvec));
 114:src/../h/Riscv.hpp ****     return stvec;
 115:src/../h/Riscv.hpp **** }
 116:src/../h/Riscv.hpp **** 
 117:src/../h/Riscv.hpp **** inline void Riscv::w_stvec(uint64 stvec) {
 118:src/../h/Riscv.hpp ****     __asm__ volatile("csrw stvec, %0" : :"r"(stvec));
  60              		.loc 2 118 5 is_stmt 1
  61              		.loc 2 118 53 is_stmt 0
  62              	#APP
  63              	# 118 "src/../h/Riscv.hpp" 1
 119              	}
  64              		csrw stvec, a5
  65              	# 0 "" 2
  66              	.LVL2:
  67              	#NO_APP
  68              	.LBE85:
  69              	.LBE84:
  18:src/Riscv.cpp ****     KConsole::initialize();
  70              		.loc 1 18 5 is_stmt 1
  18:src/Riscv.cpp ****     KConsole::initialize();
  71              		.loc 1 18 20 is_stmt 0
  72 0044 97000000 		call	_ZN3PCB10initializeEv@plt
  72      E7800000 
  73              	.LVL3:
  19:src/Riscv.cpp **** }
  74              		.loc 1 19 5 is_stmt 1
  19:src/Riscv.cpp **** }
  75              		.loc 1 19 25 is_stmt 0
  76 004c 97000000 		call	_ZN8KConsole10initializeEv@plt
  76      E7800000 
  77              	.LVL4:
  20:src/Riscv.cpp **** 
  78              		.loc 1 20 1
  79 0054 83308100 		ld	ra,8(sp)
  80              		.cfi_restore 1
  81 0058 03340100 		ld	s0,0(sp)
  82              		.cfi_restore 8
  83              		.cfi_def_cfa 2, 16
  84 005c 13010101 		addi	sp,sp,16
  85              		.cfi_def_cfa_offset 0
  86 0060 67800000 		jr	ra
  87              		.cfi_endproc
  88              	.LFE25:
  90              		.align	2
  91              		.globl	_ZN5Riscv16enableInterruptsEv
  93              	_ZN5Riscv16enableInterruptsEv:
  94              	.LFB27:
GAS LISTING /tmp/ccZxeZ9e.s 			page 10


  29:src/Riscv.cpp ****     ms_sstatus(Riscv::SSTATUS_SIE);
  95              		.loc 1 29 32 is_stmt 1
  96              		.cfi_startproc
  97 0064 130101FF 		addi	sp,sp,-16
  98              		.cfi_def_cfa_offset 16
  99 0068 23348100 		sd	s0,8(sp)
 100              		.cfi_offset 8, -8
 101 006c 13040101 		addi	s0,sp,16
 102              		.cfi_def_cfa 8, 0
  30:src/Riscv.cpp **** }
 103              		.loc 1 30 5
 104              	.LVL5:
 105              	.LBB86:
 106              	.LBB87:
 120:src/../h/Riscv.hpp **** 
 121:src/../h/Riscv.hpp **** inline uint64 Riscv::r_stval() {
 122:src/../h/Riscv.hpp ****     uint64 volatile stval;
 123:src/../h/Riscv.hpp ****     __asm__ volatile("csrr %0, stval" : "=r"(stval));
 124:src/../h/Riscv.hpp ****     return stval;
 125:src/../h/Riscv.hpp **** }
 126:src/../h/Riscv.hpp **** 
 127:src/../h/Riscv.hpp **** inline void Riscv::w_stval(uint64 stval) {
 128:src/../h/Riscv.hpp ****     __asm__ volatile("csrw stval, %0" : :"r"(stval));
 129:src/../h/Riscv.hpp **** }
 130:src/../h/Riscv.hpp **** 
 131:src/../h/Riscv.hpp **** inline void Riscv::ms_sip(uint64 mask) {
 132:src/../h/Riscv.hpp ****     __asm__ volatile("csrs sip, %0" : :"r"(mask));
 133:src/../h/Riscv.hpp **** }
 134:src/../h/Riscv.hpp **** 
 135:src/../h/Riscv.hpp **** inline void Riscv::mc_sip(uint64 mask) {
 136:src/../h/Riscv.hpp ****     __asm__ volatile("csrc sip, %0" : :"r"(mask));
 137:src/../h/Riscv.hpp **** }
 138:src/../h/Riscv.hpp **** 
 139:src/../h/Riscv.hpp **** inline uint64 Riscv::r_sip() {
 140:src/../h/Riscv.hpp ****     uint64 volatile sip;
 141:src/../h/Riscv.hpp ****     __asm__ volatile("csrr %0, sip" : "=r"(sip));
 142:src/../h/Riscv.hpp ****     return sip;
 143:src/../h/Riscv.hpp **** }
 144:src/../h/Riscv.hpp **** 
 145:src/../h/Riscv.hpp **** inline void Riscv::w_sip(uint64 sip) {
 146:src/../h/Riscv.hpp ****     __asm__ volatile("csrw sip, %0" : :"r"(sip));
 147:src/../h/Riscv.hpp **** }
 148:src/../h/Riscv.hpp **** 
 149:src/../h/Riscv.hpp **** inline void Riscv::ms_sstatus(uint64 mask) {
 150:src/../h/Riscv.hpp ****     __asm__ volatile("csrs sstatus, %0" : :"r"(mask));
 107              		.loc 2 150 5
 108              		.loc 2 150 54 is_stmt 0
 109 0070 93072000 		li	a5,2
 110              	#APP
 111              	# 150 "src/../h/Riscv.hpp" 1
 151              	}
 112              		csrs sstatus, a5
 113              	# 0 "" 2
 114              	.LVL6:
 115              	#NO_APP
 116              	.LBE87:
 117              	.LBE86:
GAS LISTING /tmp/ccZxeZ9e.s 			page 11


  31:src/Riscv.cpp **** 
 118              		.loc 1 31 1
 119 0078 03348100 		ld	s0,8(sp)
 120              		.cfi_restore 8
 121              		.cfi_def_cfa 2, 16
 122 007c 13010101 		addi	sp,sp,16
 123              		.cfi_def_cfa_offset 0
 124 0080 67800000 		jr	ra
 125              		.cfi_endproc
 126              	.LFE27:
 128              		.align	2
 129              		.globl	_ZN5Riscv17disableInterruptsEv
 131              	_ZN5Riscv17disableInterruptsEv:
 132              	.LFB28:
  34:src/Riscv.cpp ****     mc_sstatus(Riscv::SSTATUS_SIE);
 133              		.loc 1 34 1 is_stmt 1
 134              		.cfi_startproc
 135 0084 130101FF 		addi	sp,sp,-16
 136              		.cfi_def_cfa_offset 16
 137 0088 23348100 		sd	s0,8(sp)
 138              		.cfi_offset 8, -8
 139 008c 13040101 		addi	s0,sp,16
 140              		.cfi_def_cfa 8, 0
  35:src/Riscv.cpp **** }
 141              		.loc 1 35 5
 142              	.LVL7:
 143              	.LBB88:
 144              	.LBB89:
 152:src/../h/Riscv.hpp **** 
 153:src/../h/Riscv.hpp **** inline void Riscv::mc_sstatus(uint64 mask) {
 154:src/../h/Riscv.hpp ****     __asm__ volatile("csrc sstatus, %0" : :"r"(mask));
 145              		.loc 2 154 5
 146              		.loc 2 154 54 is_stmt 0
 147 0090 93072000 		li	a5,2
 148              	#APP
 149              	# 154 "src/../h/Riscv.hpp" 1
 155              	}
 150              		csrc sstatus, a5
 151              	# 0 "" 2
 152              	.LVL8:
 153              	#NO_APP
 154              	.LBE89:
 155              	.LBE88:
  36:src/Riscv.cpp **** 
 156              		.loc 1 36 1
 157 0098 03348100 		ld	s0,8(sp)
 158              		.cfi_restore 8
 159              		.cfi_def_cfa 2, 16
 160 009c 13010101 		addi	sp,sp,16
 161              		.cfi_def_cfa_offset 0
 162 00a0 67800000 		jr	ra
 163              		.cfi_endproc
 164              	.LFE28:
 166              		.align	2
 167              		.globl	_ZN5Riscv9endSystemEv
 169              	_ZN5Riscv9endSystemEv:
 170              	.LFB26:
GAS LISTING /tmp/ccZxeZ9e.s 			page 12


  23:src/Riscv.cpp ****     //todo
 171              		.loc 1 23 1 is_stmt 1
 172              		.cfi_startproc
 173 00a4 130101FF 		addi	sp,sp,-16
 174              		.cfi_def_cfa_offset 16
 175 00a8 23341100 		sd	ra,8(sp)
 176 00ac 23308100 		sd	s0,0(sp)
 177              		.cfi_offset 1, -8
 178              		.cfi_offset 8, -16
 179 00b0 13040101 		addi	s0,sp,16
 180              		.cfi_def_cfa 8, 0
  25:src/Riscv.cpp **** }
 181              		.loc 1 25 5
  25:src/Riscv.cpp **** }
 182              		.loc 1 25 29 is_stmt 0
 183 00b4 97000000 		call	_ZN5Riscv17disableInterruptsEv
 183      E7800000 
 184              	.LVL9:
  26:src/Riscv.cpp **** 
 185              		.loc 1 26 1
 186 00bc 83308100 		ld	ra,8(sp)
 187              		.cfi_restore 1
 188 00c0 03340100 		ld	s0,0(sp)
 189              		.cfi_restore 8
 190              		.cfi_def_cfa 2, 16
 191 00c4 13010101 		addi	sp,sp,16
 192              		.cfi_def_cfa_offset 0
 193 00c8 67800000 		jr	ra
 194              		.cfi_endproc
 195              	.LFE26:
 197              		.align	2
 198              		.globl	_ZN5Riscv10popSppSpieEv
 200              	_ZN5Riscv10popSppSpieEv:
 201              	.LFB29:
  39:src/Riscv.cpp ****     __asm__ volatile ("csrw sepc, ra");
 202              		.loc 1 39 1 is_stmt 1
 203              		.cfi_startproc
 204 00cc 130101FF 		addi	sp,sp,-16
 205              		.cfi_def_cfa_offset 16
 206 00d0 23348100 		sd	s0,8(sp)
 207              		.cfi_offset 8, -8
 208 00d4 13040101 		addi	s0,sp,16
 209              		.cfi_def_cfa 8, 0
  40:src/Riscv.cpp ****     __asm__ volatile ("sret");
 210              		.loc 1 40 5
  40:src/Riscv.cpp ****     __asm__ volatile ("sret");
 211              		.loc 1 40 39 is_stmt 0
 212              	#APP
 213              	# 40 "src/Riscv.cpp" 1
  41:src/Riscv.cpp **** }
 214              		csrw sepc, ra
 215              	# 0 "" 2
 216              		.loc 1 41 5 is_stmt 1
  41:src/Riscv.cpp **** }
 217              		.loc 1 41 30 is_stmt 0
 218              	# 41 "src/Riscv.cpp" 1
  42:src/Riscv.cpp **** 
GAS LISTING /tmp/ccZxeZ9e.s 			page 13


 219              		sret
 220              	# 0 "" 2
 221              		.loc 1 42 1
 222              	#NO_APP
 223 00e0 03348100 		ld	s0,8(sp)
 224              		.cfi_restore 8
 225              		.cfi_def_cfa 2, 16
 226 00e4 13010101 		addi	sp,sp,16
 227              		.cfi_def_cfa_offset 0
 228 00e8 67800000 		jr	ra
 229              		.cfi_endproc
 230              	.LFE29:
 232              		.align	2
 233              		.globl	_ZN5Riscv11printStringEPKc
 235              	_ZN5Riscv11printStringEPKc:
 236              	.LFB30:
  45:src/Riscv.cpp ****     uint64 sstatus = r_sstatus();
 237              		.loc 1 45 1 is_stmt 1
 238              		.cfi_startproc
 239              	.LVL10:
 240 00ec 130101FD 		addi	sp,sp,-48
 241              		.cfi_def_cfa_offset 48
 242 00f0 23341102 		sd	ra,40(sp)
 243 00f4 23308102 		sd	s0,32(sp)
 244 00f8 233C9100 		sd	s1,24(sp)
 245 00fc 23382101 		sd	s2,16(sp)
 246              		.cfi_offset 1, -8
 247              		.cfi_offset 8, -16
 248              		.cfi_offset 9, -24
 249              		.cfi_offset 18, -32
 250 0100 13040103 		addi	s0,sp,48
 251              		.cfi_def_cfa 8, 0
 252 0104 93040500 		mv	s1,a0
  46:src/Riscv.cpp ****     mc_sstatus(SSTATUS_SIE);
 253              		.loc 1 46 5
 254              	.LBB90:
 255              	.LBB91:
 156:src/../h/Riscv.hpp **** 
 157:src/../h/Riscv.hpp **** inline uint64 Riscv::r_sstatus() {
 158:src/../h/Riscv.hpp ****     uint64 volatile sstatus;
 256              		.loc 2 158 5
 159:src/../h/Riscv.hpp ****     __asm__ volatile("csrr %0, sstatus" : "=r"(sstatus));
 257              		.loc 2 159 5
 258              		.loc 2 159 57 is_stmt 0
 259              	#APP
 260              	# 159 "src/../h/Riscv.hpp" 1
 160              	    return sstatus;
 261              		csrr a5, sstatus
 262              	# 0 "" 2
 263              	#NO_APP
 264 010c 233CF4FC 		sd	a5,-40(s0)
 265              		.loc 2 160 5 is_stmt 1
 266              		.loc 2 160 12 is_stmt 0
 267 0110 033984FD 		ld	s2,-40(s0)
 268              	.LVL11:
 269              	.LBE91:
 270              	.LBE90:
GAS LISTING /tmp/ccZxeZ9e.s 			page 14


  47:src/Riscv.cpp ****     while (*string != '\0')
 271              		.loc 1 47 5 is_stmt 1
 272              	.LBB92:
 273              	.LBB93:
 154:src/../h/Riscv.hpp **** }
 274              		.loc 2 154 5
 154:src/../h/Riscv.hpp **** }
 275              		.loc 2 154 54 is_stmt 0
 276 0114 93072000 		li	a5,2
 277              	#APP
 278              	# 154 "src/../h/Riscv.hpp" 1
 279              		csrc sstatus, a5
 280              	# 0 "" 2
 281              	.LVL12:
 282              	#NO_APP
 283              	.L15:
 284              	.LBE93:
 285              	.LBE92:
  48:src/Riscv.cpp ****     {
 286              		.loc 1 48 5 is_stmt 1
  48:src/Riscv.cpp ****     {
 287              		.loc 1 48 20
  48:src/Riscv.cpp ****     {
 288              		.loc 1 48 12 is_stmt 0
 289 011c 03C50400 		lbu	a0,0(s1)
  48:src/Riscv.cpp ****     {
 290              		.loc 1 48 20
 291 0120 630A0500 		beqz	a0,.L14
  50:src/Riscv.cpp ****         string++;
 292              		.loc 1 50 9 is_stmt 1
  50:src/Riscv.cpp ****         string++;
 293              		.loc 1 50 15 is_stmt 0
 294 0124 97000000 		call	__putc@plt
 294      E7800000 
 295              	.LVL13:
  51:src/Riscv.cpp ****     }
 296              		.loc 1 51 9 is_stmt 1
  51:src/Riscv.cpp ****     }
 297              		.loc 1 51 15 is_stmt 0
 298 012c 93841400 		addi	s1,s1,1
 299              	.LVL14:
  48:src/Riscv.cpp ****     {
 300              		.loc 1 48 5
 301 0130 6FF0DFFE 		j	.L15
 302              	.L14:
  53:src/Riscv.cpp **** }
 303              		.loc 1 53 5 is_stmt 1
  53:src/Riscv.cpp **** }
 304              		.loc 1 53 38 is_stmt 0
 305 0134 1B090900 		sext.w	s2,s2
 306              	.LVL15:
  53:src/Riscv.cpp **** }
 307              		.loc 1 53 15
 308 0138 13792900 		andi	s2,s2,2
 309 013c 1B090900 		sext.w	s2,s2
 310              	.LVL16:
 311              	.LBB94:
GAS LISTING /tmp/ccZxeZ9e.s 			page 15


 312              	.LBB95:
 150:src/../h/Riscv.hpp **** }
 313              		.loc 2 150 5 is_stmt 1
 150:src/../h/Riscv.hpp **** }
 314              		.loc 2 150 54 is_stmt 0
 315              	#APP
 316              	# 150 "src/../h/Riscv.hpp" 1
 317              		csrs sstatus, s2
 318              	# 0 "" 2
 319              	.LVL17:
 320              	#NO_APP
 321              	.LBE95:
 322              	.LBE94:
  54:src/Riscv.cpp **** 
 323              		.loc 1 54 1
 324 0144 83308102 		ld	ra,40(sp)
 325              		.cfi_restore 1
 326 0148 03340102 		ld	s0,32(sp)
 327              		.cfi_restore 8
 328              		.cfi_def_cfa 2, 48
 329 014c 83348101 		ld	s1,24(sp)
 330              		.cfi_restore 9
 331              	.LVL18:
 332 0150 03390101 		ld	s2,16(sp)
 333              		.cfi_restore 18
 334 0154 13010103 		addi	sp,sp,48
 335              		.cfi_def_cfa_offset 0
 336 0158 67800000 		jr	ra
 337              		.cfi_endproc
 338              	.LFE30:
 340              		.align	2
 341              		.globl	_ZN5Riscv12printIntegerEm
 343              	_ZN5Riscv12printIntegerEm:
 344              	.LFB31:
  57:src/Riscv.cpp ****     uint64 sstatus = r_sstatus();
 345              		.loc 1 57 1 is_stmt 1
 346              		.cfi_startproc
 347              	.LVL19:
 348 015c 130101FC 		addi	sp,sp,-64
 349              		.cfi_def_cfa_offset 64
 350 0160 233C1102 		sd	ra,56(sp)
 351 0164 23388102 		sd	s0,48(sp)
 352 0168 23349102 		sd	s1,40(sp)
 353 016c 23302103 		sd	s2,32(sp)
 354              		.cfi_offset 1, -8
 355              		.cfi_offset 8, -16
 356              		.cfi_offset 9, -24
 357              		.cfi_offset 18, -32
 358 0170 13040104 		addi	s0,sp,64
 359              		.cfi_def_cfa 8, 0
  58:src/Riscv.cpp ****     mc_sstatus(SSTATUS_SIE);
 360              		.loc 1 58 5
 361              	.LBB96:
 362              	.LBB97:
 158:src/../h/Riscv.hpp ****     __asm__ volatile("csrr %0, sstatus" : "=r"(sstatus));
 363              		.loc 2 158 5
 159:src/../h/Riscv.hpp ****     return sstatus;
GAS LISTING /tmp/ccZxeZ9e.s 			page 16


 364              		.loc 2 159 5
 159:src/../h/Riscv.hpp ****     return sstatus;
 365              		.loc 2 159 57 is_stmt 0
 366              	#APP
 367              	# 159 "src/../h/Riscv.hpp" 1
 368              		csrr a5, sstatus
 369              	# 0 "" 2
 370              	#NO_APP
 371 0178 2334F4FC 		sd	a5,-56(s0)
 372              		.loc 2 160 5 is_stmt 1
 373              		.loc 2 160 12 is_stmt 0
 374 017c 033984FC 		ld	s2,-56(s0)
 375              	.LVL20:
 376              	.LBE97:
 377              	.LBE96:
  59:src/Riscv.cpp ****     static char digits[] = "0123456789";
 378              		.loc 1 59 5 is_stmt 1
 379              	.LBB98:
 380              	.LBB99:
 154:src/../h/Riscv.hpp **** }
 381              		.loc 2 154 5
 154:src/../h/Riscv.hpp **** }
 382              		.loc 2 154 54 is_stmt 0
 383 0180 93072000 		li	a5,2
 384              	#APP
 385              	# 154 "src/../h/Riscv.hpp" 1
 386              		csrc sstatus, a5
 387              	# 0 "" 2
 388              	.LVL21:
 389              	#NO_APP
 390              	.LBE99:
 391              	.LBE98:
  60:src/Riscv.cpp ****     char buf[16];
 392              		.loc 1 60 5 is_stmt 1
  61:src/Riscv.cpp ****     int i, neg;
 393              		.loc 1 61 5
  62:src/Riscv.cpp ****     uint x;
 394              		.loc 1 62 5
  63:src/Riscv.cpp **** 
 395              		.loc 1 63 5
  65:src/Riscv.cpp ****     if(num < 0)
 396              		.loc 1 65 5
  66:src/Riscv.cpp ****     {
 397              		.loc 1 66 5
  72:src/Riscv.cpp **** 
 398              		.loc 1 72 9
  72:src/Riscv.cpp **** 
 399              		.loc 1 72 11 is_stmt 0
 400 0188 1B050500 		sext.w	a0,a0
 401              	.LVL22:
  74:src/Riscv.cpp ****     do
 402              		.loc 1 74 5 is_stmt 1
  74:src/Riscv.cpp ****     do
 403              		.loc 1 74 7 is_stmt 0
 404 018c 93040000 		li	s1,0
 405              	.LVL23:
 406              	.L18:
GAS LISTING /tmp/ccZxeZ9e.s 			page 17


  75:src/Riscv.cpp ****     {
 407              		.loc 1 75 5 is_stmt 1
  77:src/Riscv.cpp ****     }while((x/=10) != 0);
 408              		.loc 1 77 9
  77:src/Riscv.cpp ****     }while((x/=10) != 0);
 409              		.loc 1 77 28 is_stmt 0
 410 0190 1306A000 		li	a2,10
 411 0194 3B77C502 		remuw	a4,a0,a2
 412              	.LVL24:
  77:src/Riscv.cpp ****     }while((x/=10) != 0);
 413              		.loc 1 77 31
 414 0198 93160702 		slli	a3,a4,32
 415 019c 93D60602 		srli	a3,a3,32
 416 01a0 17070000 		lla	a4,.LANCHOR0
 416      13070700 
 417 01a8 3307D700 		add	a4,a4,a3
 418 01ac 03470700 		lbu	a4,0(a4)
  77:src/Riscv.cpp ****     }while((x/=10) != 0);
 419              		.loc 1 77 18
 420 01b0 930604FE 		addi	a3,s0,-32
 421 01b4 B3879600 		add	a5,a3,s1
 422 01b8 9B841400 		addiw	s1,s1,1
 423              	.LVL25:
 424 01bc 2388E7FE 		sb	a4,-16(a5)
  78:src/Riscv.cpp ****     if(neg)
 425              		.loc 1 78 20 is_stmt 1
 426 01c0 1B070500 		sext.w	a4,a0
  78:src/Riscv.cpp ****     if(neg)
 427              		.loc 1 78 14 is_stmt 0
 428 01c4 3B55C502 		divuw	a0,a0,a2
 429              	.LVL26:
  78:src/Riscv.cpp ****     if(neg)
 430              		.loc 1 78 20
 431 01c8 93079000 		li	a5,9
 432 01cc E3E2E7FC 		bgtu	a4,a5,.L18
 433              	.LVL27:
 434              	.L20:
  82:src/Riscv.cpp ****         __putc(buf[i]);
 435              		.loc 1 82 5 is_stmt 1
  82:src/Riscv.cpp ****         __putc(buf[i]);
 436              		.loc 1 82 15
 437 01d0 9B84F4FF 		addiw	s1,s1,-1
 438              	.LVL28:
 439 01d4 63CE0400 		bltz	s1,.L19
  83:src/Riscv.cpp **** 
 440              		.loc 1 83 9
  83:src/Riscv.cpp **** 
 441              		.loc 1 83 15 is_stmt 0
 442 01d8 930704FE 		addi	a5,s0,-32
 443 01dc B3879700 		add	a5,a5,s1
 444 01e0 03C507FF 		lbu	a0,-16(a5)
 445 01e4 97000000 		call	__putc@plt
 445      E7800000 
 446              	.LVL29:
 447 01ec 6FF05FFE 		j	.L20
 448              	.L19:
  85:src/Riscv.cpp **** 
GAS LISTING /tmp/ccZxeZ9e.s 			page 18


 449              		.loc 1 85 5 is_stmt 1
  85:src/Riscv.cpp **** 
 450              		.loc 1 85 11 is_stmt 0
 451 01f0 1305A000 		li	a0,10
 452 01f4 97000000 		call	__putc@plt
 452      E7800000 
 453              	.LVL30:
  87:src/Riscv.cpp **** }
 454              		.loc 1 87 5 is_stmt 1
  87:src/Riscv.cpp **** }
 455              		.loc 1 87 38 is_stmt 0
 456 01fc 1B090900 		sext.w	s2,s2
 457              	.LVL31:
  87:src/Riscv.cpp **** }
 458              		.loc 1 87 15
 459 0200 13792900 		andi	s2,s2,2
 460 0204 1B090900 		sext.w	s2,s2
 461              	.LVL32:
 462              	.LBB100:
 463              	.LBB101:
 150:src/../h/Riscv.hpp **** }
 464              		.loc 2 150 5 is_stmt 1
 150:src/../h/Riscv.hpp **** }
 465              		.loc 2 150 54 is_stmt 0
 466              	#APP
 467              	# 150 "src/../h/Riscv.hpp" 1
 468              		csrs sstatus, s2
 469              	# 0 "" 2
 470              	.LVL33:
 471              	#NO_APP
 472              	.LBE101:
 473              	.LBE100:
  88:src/Riscv.cpp **** 
 474              		.loc 1 88 1
 475 020c 83308103 		ld	ra,56(sp)
 476              		.cfi_restore 1
 477 0210 03340103 		ld	s0,48(sp)
 478              		.cfi_restore 8
 479              		.cfi_def_cfa 2, 64
 480 0214 83348102 		ld	s1,40(sp)
 481              		.cfi_restore 9
 482 0218 03390102 		ld	s2,32(sp)
 483              		.cfi_restore 18
 484 021c 13010104 		addi	sp,sp,64
 485              		.cfi_def_cfa_offset 0
 486 0220 67800000 		jr	ra
 487              		.cfi_endproc
 488              	.LFE31:
 490              		.section	.rodata.str1.8,"aMS",@progbits,1
 491              		.align	3
 492              	.LC0:
 493 0000 45786974 		.string	"Exiting thread...\n"
 493      696E6720 
 493      74687265 
 493      61642E2E 
 493      2E0A00
 494              		.text
GAS LISTING /tmp/ccZxeZ9e.s 			page 19


 495              		.align	2
 496              		.globl	_ZN5Riscv20handleSupervisorTrapEv
 498              	_ZN5Riscv20handleSupervisorTrapEv:
 499              	.LFB32:
  91:src/Riscv.cpp ****     uint64 a4;
 500              		.loc 1 91 1 is_stmt 1
 501              		.cfi_startproc
 502              		.cfi_personality 0x9b,DW.ref.__gxx_personality_v0
 503              		.cfi_lsda 0x1b,.LLSDA32
 504 0224 130101F3 		addi	sp,sp,-208
 505              		.cfi_def_cfa_offset 208
 506 0228 2334110C 		sd	ra,200(sp)
 507 022c 2330810C 		sd	s0,192(sp)
 508 0230 233C910A 		sd	s1,184(sp)
 509 0234 2338210B 		sd	s2,176(sp)
 510 0238 2334310B 		sd	s3,168(sp)
 511 023c 2330410B 		sd	s4,160(sp)
 512 0240 233C5109 		sd	s5,152(sp)
 513              		.cfi_offset 1, -8
 514              		.cfi_offset 8, -16
 515              		.cfi_offset 9, -24
 516              		.cfi_offset 18, -32
 517              		.cfi_offset 19, -40
 518              		.cfi_offset 20, -48
 519              		.cfi_offset 21, -56
 520 0244 1304010D 		addi	s0,sp,208
 521              		.cfi_def_cfa 8, 0
  92:src/Riscv.cpp ****     __asm__ volatile("mv %0, a4" : "=r"(a4));
 522              		.loc 1 92 5
  93:src/Riscv.cpp **** 
 523              		.loc 1 93 5
  93:src/Riscv.cpp **** 
 524              		.loc 1 93 45 is_stmt 0
 525              	#APP
 526              	# 93 "src/Riscv.cpp" 1
 527              		mv s1, a4
 528              	# 0 "" 2
 529              	.LVL34:
  95:src/Riscv.cpp **** 
 530              		.loc 1 95 5 is_stmt 1
 531              	#NO_APP
 532              	.LBB102:
 533              	.LBB103:
  92:src/../h/Riscv.hpp ****     __asm__ volatile("csrr %0, scause" : "=r"(scause));
 534              		.loc 2 92 5
  93:src/../h/Riscv.hpp ****     return scause;
 535              		.loc 2 93 5
  93:src/../h/Riscv.hpp ****     return scause;
 536              		.loc 2 93 55 is_stmt 0
 537              	#APP
 538              	# 93 "src/../h/Riscv.hpp" 1
 539              		csrr a5, scause
 540              	# 0 "" 2
 541              	#NO_APP
 542 0250 2330F4F8 		sd	a5,-128(s0)
  94:src/../h/Riscv.hpp **** }
 543              		.loc 2 94 5 is_stmt 1
GAS LISTING /tmp/ccZxeZ9e.s 			page 20


  94:src/../h/Riscv.hpp **** }
 544              		.loc 2 94 12 is_stmt 0
 545 0254 833704F8 		ld	a5,-128(s0)
 546              	.LVL35:
 547              	.LBE103:
 548              	.LBE102:
  97:src/Riscv.cpp ****     {
 549              		.loc 1 97 5 is_stmt 1
 550              	.LBB104:
 551 0258 1307F0FF 		li	a4,-1
 552 025c 1317F703 		slli	a4,a4,63
 553 0260 13071700 		addi	a4,a4,1
 554 0264 638AE70E 		beq	a5,a4,.L23
 555 0268 1307F0FF 		li	a4,-1
 556 026c 1317F703 		slli	a4,a4,63
 557 0270 13071700 		addi	a4,a4,1
 558 0274 6364F70A 		bgtu	a5,a4,.L24
 559 0278 938787FF 		addi	a5,a5,-8
 560              	.LVL36:
 561 027c 13071000 		li	a4,1
 562 0280 636AF70A 		bgtu	a5,a4,.L22
 563              	.LBB105:
 140:src/Riscv.cpp ****         case ecallUserInterrupt:
 564              		.loc 1 140 9
 141:src/Riscv.cpp **** 
 565              		.loc 1 141 9
 143:src/Riscv.cpp ****             __asm__ volatile("mv %0, a0" :  "=r"(operation));
 566              		.loc 1 143 13
 144:src/Riscv.cpp **** 
 567              		.loc 1 144 13
 144:src/Riscv.cpp **** 
 568              		.loc 1 144 61 is_stmt 0
 569              	#APP
 570              	# 144 "src/Riscv.cpp" 1
 571              		mv a5, a0
 572              	# 0 "" 2
 573              	.LVL37:
 146:src/Riscv.cpp ****             sepc+=4;
 574              		.loc 1 146 13 is_stmt 1
 575              	#NO_APP
 576              	.LBB106:
 577              	.LBB107:
 102:src/../h/Riscv.hpp ****     __asm__ volatile("csrr %0, sepc" : "=r"(sepc));
 578              		.loc 2 102 5
 103:src/../h/Riscv.hpp ****     return sepc;
 579              		.loc 2 103 5
 103:src/../h/Riscv.hpp ****     return sepc;
 580              		.loc 2 103 51 is_stmt 0
 581              	#APP
 582              	# 103 "src/../h/Riscv.hpp" 1
 583              		csrr a4, sepc
 584              	# 0 "" 2
 585              	#NO_APP
 586 028c 233CE4F8 		sd	a4,-104(s0)
 104:src/../h/Riscv.hpp **** }
 587              		.loc 2 104 5 is_stmt 1
 104:src/../h/Riscv.hpp **** }
GAS LISTING /tmp/ccZxeZ9e.s 			page 21


 588              		.loc 2 104 12 is_stmt 0
 589 0290 033784F9 		ld	a4,-104(s0)
 590              	.LBE107:
 591              	.LBE106:
 146:src/Riscv.cpp ****             sepc+=4;
 592              		.loc 1 146 50
 593 0294 2334E4F4 		sd	a4,-184(s0)
 147:src/Riscv.cpp **** 
 594              		.loc 1 147 13 is_stmt 1
 147:src/Riscv.cpp **** 
 595              		.loc 1 147 17 is_stmt 0
 596 0298 033784F4 		ld	a4,-184(s0)
 597 029c 13074700 		addi	a4,a4,4
 598 02a0 2334E4F4 		sd	a4,-184(s0)
 149:src/Riscv.cpp ****             {
 599              		.loc 1 149 13 is_stmt 1
 600              	.LBB108:
 601 02a4 13071000 		li	a4,1
 602 02a8 6380E714 		beq	a5,a4,.L47
 603              	.LBE108:
 604              	.LBE105:
 605              	.LBE104:
 157:src/Riscv.cpp ****             {
 606              		.loc 1 157 18
 607              	.LBB236:
 608              	.LBB225:
 609              	.LBB198:
 610              	.LBB109:
 611 02ac 13072000 		li	a4,2
 612 02b0 638CE714 		beq	a5,a4,.L48
 613              	.LBE109:
 614              	.LBE198:
 615              	.LBE225:
 616              	.LBE236:
 164:src/Riscv.cpp ****             {
 617              		.loc 1 164 18
 618              	.LBB237:
 619              	.LBB226:
 620              	.LBB199:
 621              	.LBB188:
 622              	.LBB110:
 623 02b4 13071001 		li	a4,17
 624 02b8 6382E716 		beq	a5,a4,.L49
 625              	.LBE110:
 626              	.LBE188:
 627              	.LBE199:
 628              	.LBE226:
 629              	.LBE237:
 185:src/Riscv.cpp ****             {
 630              		.loc 1 185 18
 631              	.LBB238:
 632              	.LBB227:
 633              	.LBB200:
 634              	.LBB189:
 635              	.LBB179:
 636              	.LBB111:
 637 02bc 13073001 		li	a4,19
GAS LISTING /tmp/ccZxeZ9e.s 			page 22


 638 02c0 6384E71A 		beq	a5,a4,.L50
 639              	.LBE111:
 640              	.LBE179:
 641              	.LBE189:
 642              	.LBE200:
 643              	.LBE227:
 644              	.LBE238:
 192:src/Riscv.cpp ****             {
 645              		.loc 1 192 18
 646              	.LBB239:
 647              	.LBB228:
 648              	.LBB201:
 649              	.LBB190:
 650              	.LBB180:
 651              	.LBB169:
 652              	.LBB112:
 653 02c4 13072001 		li	a4,18
 654 02c8 6388E71C 		beq	a5,a4,.L51
 655              	.LBE112:
 656              	.LBE169:
 657              	.LBE180:
 658              	.LBE190:
 659              	.LBE201:
 660              	.LBE228:
 661              	.LBE239:
 202:src/Riscv.cpp ****             {
 662              		.loc 1 202 18
 663              	.LBB240:
 664              	.LBB229:
 665              	.LBB202:
 666              	.LBB191:
 667              	.LBB181:
 668              	.LBB170:
 669              	.LBB157:
 670              	.LBB113:
 671 02cc 13071003 		li	a4,49
 672 02d0 6380E722 		beq	a5,a4,.L52
 673              	.LBE113:
 674              	.LBE157:
 675              	.LBE170:
 676              	.LBE181:
 677              	.LBE191:
 678              	.LBE202:
 679              	.LBE229:
 680              	.LBE240:
 214:src/Riscv.cpp ****             {
 681              		.loc 1 214 18
 682              	.LBB241:
 683              	.LBB230:
 684              	.LBB203:
 685              	.LBB192:
 686              	.LBB182:
 687              	.LBB171:
 688              	.LBB158:
 689              	.LBB144:
 690              	.LBB114:
 691 02d4 13071002 		li	a4,33
GAS LISTING /tmp/ccZxeZ9e.s 			page 23


 692 02d8 6384E726 		beq	a5,a4,.L53
 693              	.LBE114:
 694              	.LBE144:
 695              	.LBE158:
 696              	.LBE171:
 697              	.LBE182:
 698              	.LBE192:
 699              	.LBE203:
 700              	.LBE230:
 701              	.LBE241:
 231:src/Riscv.cpp ****             {
 702              		.loc 1 231 18
 703              	.LBB242:
 704              	.LBB231:
 705              	.LBB204:
 706              	.LBB193:
 707              	.LBB183:
 708              	.LBB172:
 709              	.LBB159:
 710              	.LBB145:
 711              	.LBB132:
 712              	.LBB115:
 713 02dc 13073002 		li	a4,35
 714 02e0 638EE728 		beq	a5,a4,.L54
 715              	.LBE115:
 716              	.LBE132:
 717              	.LBE145:
 718              	.LBE159:
 719              	.LBE172:
 720              	.LBE183:
 721              	.LBE193:
 722              	.LBE204:
 723              	.LBE231:
 724              	.LBE242:
 240:src/Riscv.cpp ****             {
 725              		.loc 1 240 18
 726              	.LBB243:
 727              	.LBB232:
 728              	.LBB205:
 729              	.LBB194:
 730              	.LBB184:
 731              	.LBB173:
 732              	.LBB160:
 733              	.LBB146:
 734              	.LBB133:
 735              	.LBB127:
 736              	.LBB116:
 737 02e4 13074002 		li	a4,36
 738 02e8 6384E72C 		beq	a5,a4,.L55
 739              	.LBE116:
 740              	.LBE127:
 741              	.LBE133:
 742              	.LBE146:
 743              	.LBE160:
 744              	.LBE173:
 745              	.LBE184:
 746              	.LBE194:
GAS LISTING /tmp/ccZxeZ9e.s 			page 24


 747              	.LBE205:
 748              	.LBE232:
 749              	.LBE243:
 247:src/Riscv.cpp ****             {
 750              		.loc 1 247 18
 751              	.LBB244:
 752              	.LBB233:
 753              	.LBB206:
 754              	.LBB195:
 755              	.LBB185:
 756              	.LBB174:
 757              	.LBB161:
 758              	.LBB147:
 759              	.LBB134:
 760              	.LBB128:
 761              	.LBB120:
 762              	.LBB117:
 763 02ec 13072002 		li	a4,34
 764 02f0 6396E710 		bne	a5,a4,.L29
 765              	.LBB118:
 249:src/Riscv.cpp ****                 __asm__ volatile("mv %0, a1" : "=r"(kSem));
 766              		.loc 1 249 17
 250:src/Riscv.cpp ****                 delete kSem;
 767              		.loc 1 250 17
 250:src/Riscv.cpp ****                 delete kSem;
 768              		.loc 1 250 59 is_stmt 0
 769              	#APP
 770              	# 250 "src/Riscv.cpp" 1
 771              		mv s1, a1
 772              	# 0 "" 2
 773              	.LVL38:
 251:src/Riscv.cpp ****                 __asm__ volatile("li a0, 0");
 774              		.loc 1 251 17 is_stmt 1
 251:src/Riscv.cpp ****                 __asm__ volatile("li a0, 0");
 775              		.loc 1 251 28 is_stmt 0
 776              	#NO_APP
 777 02f8 638E0400 		beqz	s1,.L40
 251:src/Riscv.cpp ****                 __asm__ volatile("li a0, 0");
 778              		.loc 1 251 24 discriminator 1
 779 02fc 13850400 		mv	a0,s1
 780 0300 97000000 		call	_ZN10KSemaphoreD1Ev@plt
 780      E7800000 
 781              	.LVL39:
 782 0308 13850400 		mv	a0,s1
 783              	.LEHB0:
 784 030c 97000000 		call	_ZN10KSemaphoredlEPv@plt
 784      E7800000 
 785              	.LVL40:
 786              	.L40:
 252:src/Riscv.cpp ****             }
 787              		.loc 1 252 17 is_stmt 1
 252:src/Riscv.cpp ****             }
 788              		.loc 1 252 45 is_stmt 0
 789              	#APP
 790              	# 252 "src/Riscv.cpp" 1
 791              		li a0, 0
 792              	# 0 "" 2
GAS LISTING /tmp/ccZxeZ9e.s 			page 25


 793              	#NO_APP
 794              	.LBE118:
 795 0318 6F00400E 		j	.L29
 796              	.LVL41:
 797              	.L24:
 798              	.LBE117:
 799              	.LBE120:
 800              	.LBE128:
 801              	.LBE134:
 802              	.LBE147:
 803              	.LBE161:
 804              	.LBE174:
 805              	.LBE185:
 806              	.LBE195:
 807              	.LBE206:
 808              	.LBE233:
  97:src/Riscv.cpp ****     {
 809              		.loc 1 97 5
 810 031c 1307F0FF 		li	a4,-1
 811 0320 1317F703 		slli	a4,a4,63
 812 0324 13079700 		addi	a4,a4,9
 813 0328 6396E700 		bne	a5,a4,.L22
 814              	.LBB234:
 125:src/Riscv.cpp **** 
 815              		.loc 1 125 9 is_stmt 1
 128:src/Riscv.cpp ****             break;
 816              		.loc 1 128 13
 128:src/Riscv.cpp ****             break;
 817              		.loc 1 128 28 is_stmt 0
 818 032c 97000000 		call	console_handler@plt
 818      E7800000 
 819              	.LVL42:
 129:src/Riscv.cpp **** 
 820              		.loc 1 129 13 is_stmt 1
 821              	.L22:
 822              	.LBE234:
 823              	.LBE244:
 267:src/Riscv.cpp **** 
 824              		.loc 1 267 1 is_stmt 0
 825 0334 8330810C 		ld	ra,200(sp)
 826              		.cfi_remember_state
 827              		.cfi_restore 1
 828 0338 0334010C 		ld	s0,192(sp)
 829              		.cfi_restore 8
 830              		.cfi_def_cfa 2, 208
 831 033c 8334810B 		ld	s1,184(sp)
 832              		.cfi_restore 9
 833 0340 0339010B 		ld	s2,176(sp)
 834              		.cfi_restore 18
 835 0344 8339810A 		ld	s3,168(sp)
 836              		.cfi_restore 19
 837 0348 033A010A 		ld	s4,160(sp)
 838              		.cfi_restore 20
 839 034c 833A8109 		ld	s5,152(sp)
 840              		.cfi_restore 21
 841 0350 1301010D 		addi	sp,sp,208
 842              		.cfi_def_cfa_offset 0
GAS LISTING /tmp/ccZxeZ9e.s 			page 26


 843 0354 67800000 		jr	ra
 844              	.LVL43:
 845              	.L23:
 846              		.cfi_restore_state
 847              	.LBB245:
 848              	.LBB235:
 100:src/Riscv.cpp **** 
 849              		.loc 1 100 9 is_stmt 1
 102:src/Riscv.cpp ****             //Riscv::printString("timerInterrupt\n");
 850              		.loc 1 102 13
 851              	.LBB207:
 852              	.LBB208:
 136:src/../h/Riscv.hpp **** }
 853              		.loc 2 136 5
 136:src/../h/Riscv.hpp **** }
 854              		.loc 2 136 50 is_stmt 0
 855 0358 93072000 		li	a5,2
 856              	.LVL44:
 857              	#APP
 858              	# 136 "src/../h/Riscv.hpp" 1
 859              		csrc sip, a5
 860              	# 0 "" 2
 861              	.LVL45:
 862              	#NO_APP
 863              	.LBE208:
 864              	.LBE207:
 104:src/Riscv.cpp ****             total++;
 865              		.loc 1 104 13 is_stmt 1
 105:src/Riscv.cpp ****             //Riscv::printInteger(total);
 866              		.loc 1 105 13
 105:src/Riscv.cpp ****             //Riscv::printInteger(total);
 867              		.loc 1 105 18 is_stmt 0
 868 0360 17070000 		lla	a4,.LANCHOR1
 868      13070700 
 869 0368 83370700 		ld	a5,0(a4)
 870 036c 93871700 		addi	a5,a5,1
 871 0370 2330F700 		sd	a5,0(a4)
 108:src/Riscv.cpp **** 
 872              		.loc 1 108 13 is_stmt 1
 108:src/Riscv.cpp **** 
 873              		.loc 1 108 34 is_stmt 0
 874 0374 97040000 		la	s1,_ZN3PCB16timeSliceCounterE
 874      83B40400 
 875              	.LVL46:
 876 037c 83B70400 		ld	a5,0(s1)
 877 0380 93871700 		addi	a5,a5,1
 878 0384 23B0F400 		sd	a5,0(s1)
 110:src/Riscv.cpp **** 
 879              		.loc 1 110 13 is_stmt 1
 110:src/Riscv.cpp **** 
 880              		.loc 1 110 40 is_stmt 0
 881 0388 97000000 		call	_ZN12SleepPCBList13tryToWakePCBsEv@plt
 881      E7800000 
 882              	.LVL47:
 112:src/Riscv.cpp ****             {
 883              		.loc 1 112 13 is_stmt 1
 884              	.LBB209:
GAS LISTING /tmp/ccZxeZ9e.s 			page 27


 112:src/Riscv.cpp ****             {
 885              		.loc 1 112 68 is_stmt 0
 886 0390 97070000 		la	a5,_ZN3PCB7runningE
 886      83B70700 
 887 0398 83B70700 		ld	a5,0(a5)
 888              	.LVL48:
 889              	.LBB210:
 890              	.LBB211:
 891              		.file 3 "src/../h/PCB.hpp"
   1:src/../h/PCB.hpp **** //
   2:src/../h/PCB.hpp **** // Created by os on 4/27/22.
   3:src/../h/PCB.hpp **** //
   4:src/../h/PCB.hpp **** 
   5:src/../h/PCB.hpp **** #ifndef PROJECT_BASE_V1_0_PCB_HPP
   6:src/../h/PCB.hpp **** #define PROJECT_BASE_V1_0_PCB_HPP
   7:src/../h/PCB.hpp **** 
   8:src/../h/PCB.hpp **** #include "../lib/hw.h"
   9:src/../h/PCB.hpp **** #include "Scheduler.hpp"
  10:src/../h/PCB.hpp **** #include "Riscv.hpp"
  11:src/../h/PCB.hpp **** 
  12:src/../h/PCB.hpp **** class PCB
  13:src/../h/PCB.hpp **** {
  14:src/../h/PCB.hpp **** public:
  15:src/../h/PCB.hpp ****     using Body = void (*)(void*);
  16:src/../h/PCB.hpp **** 
  17:src/../h/PCB.hpp ****     PCB(Body body,  void* args, void* stack_space, uint64 timeSlice);
  18:src/../h/PCB.hpp ****     ~PCB();
  19:src/../h/PCB.hpp **** 
  20:src/../h/PCB.hpp ****     void start();
  21:src/../h/PCB.hpp ****     static void dispatch();
  22:src/../h/PCB.hpp ****     static void sleep(time_t);
  23:src/../h/PCB.hpp **** 
  24:src/../h/PCB.hpp ****     static PCB* running;
  25:src/../h/PCB.hpp **** 
  26:src/../h/PCB.hpp ****     static uint64 timeSliceCounter;
  27:src/../h/PCB.hpp ****     uint64 getTimeSlice() { return timeSlice;}
 892              		.loc 3 27 29 is_stmt 1
 893              		.loc 3 27 36 is_stmt 0
 894 039c 83B70701 		ld	a5,16(a5)
 895              	.LVL49:
 896              	.LBE211:
 897              	.LBE210:
 112:src/Riscv.cpp ****             {
 898              		.loc 1 112 39
 899 03a0 03B70400 		ld	a4,0(s1)
 112:src/Riscv.cpp ****             {
 900              		.loc 1 112 13
 901 03a4 E368F7F8 		bltu	a4,a5,.L22
 902              	.LBB212:
 115:src/Riscv.cpp ****                 volatile uint64 sstatus = Riscv::r_sstatus();
 903              		.loc 1 115 17 is_stmt 1
 904              	.LBB213:
 905              	.LBB214:
 102:src/../h/Riscv.hpp ****     __asm__ volatile("csrr %0, sepc" : "=r"(sepc));
 906              		.loc 2 102 5
 103:src/../h/Riscv.hpp ****     return sepc;
 907              		.loc 2 103 5
GAS LISTING /tmp/ccZxeZ9e.s 			page 28


 103:src/../h/Riscv.hpp ****     return sepc;
 908              		.loc 2 103 51 is_stmt 0
 909              	#APP
 910              	# 103 "src/../h/Riscv.hpp" 1
 911              		csrr a5, sepc
 912              	# 0 "" 2
 913              	#NO_APP
 914 03ac 2338F4F8 		sd	a5,-112(s0)
 104:src/../h/Riscv.hpp **** }
 915              		.loc 2 104 5 is_stmt 1
 104:src/../h/Riscv.hpp **** }
 916              		.loc 2 104 12 is_stmt 0
 917 03b0 833704F9 		ld	a5,-112(s0)
 918              	.LBE214:
 919              	.LBE213:
 115:src/Riscv.cpp ****                 volatile uint64 sstatus = Riscv::r_sstatus();
 920              		.loc 1 115 54
 921 03b4 233CF4F2 		sd	a5,-200(s0)
 116:src/Riscv.cpp ****                 PCB::timeSliceCounter = 0;
 922              		.loc 1 116 17 is_stmt 1
 923              	.LBB215:
 924              	.LBB216:
 158:src/../h/Riscv.hpp ****     __asm__ volatile("csrr %0, sstatus" : "=r"(sstatus));
 925              		.loc 2 158 5
 159:src/../h/Riscv.hpp ****     return sstatus;
 926              		.loc 2 159 5
 159:src/../h/Riscv.hpp ****     return sstatus;
 927              		.loc 2 159 57 is_stmt 0
 928              	#APP
 929              	# 159 "src/../h/Riscv.hpp" 1
 930              		csrr a5, sstatus
 931              	# 0 "" 2
 932              	#NO_APP
 933 03bc 2334F4F8 		sd	a5,-120(s0)
 934              		.loc 2 160 5 is_stmt 1
 935              		.loc 2 160 12 is_stmt 0
 936 03c0 833784F8 		ld	a5,-120(s0)
 937              	.LBE216:
 938              	.LBE215:
 116:src/Riscv.cpp ****                 PCB::timeSliceCounter = 0;
 939              		.loc 1 116 60
 940 03c4 2330F4F4 		sd	a5,-192(s0)
 117:src/Riscv.cpp ****                 PCB::dispatch();
 941              		.loc 1 117 17 is_stmt 1
 117:src/Riscv.cpp ****                 PCB::dispatch();
 942              		.loc 1 117 39 is_stmt 0
 943 03c8 23B00400 		sd	zero,0(s1)
 118:src/Riscv.cpp ****                 Riscv::w_sstatus(sstatus);
 944              		.loc 1 118 17 is_stmt 1
 118:src/Riscv.cpp ****                 Riscv::w_sstatus(sstatus);
 945              		.loc 1 118 30 is_stmt 0
 946 03cc 97000000 		call	_ZN3PCB8dispatchEv@plt
 946      E7800000 
 947              	.LVL50:
 119:src/Riscv.cpp ****                 Riscv::w_sepc(sepc);
 948              		.loc 1 119 17 is_stmt 1
 119:src/Riscv.cpp ****                 Riscv::w_sepc(sepc);
GAS LISTING /tmp/ccZxeZ9e.s 			page 29


 949              		.loc 1 119 33 is_stmt 0
 950 03d4 833704F4 		ld	a5,-192(s0)
 951              	.LVL51:
 952              	.LBB217:
 953              	.LBB218:
 161:src/../h/Riscv.hpp **** }
 162:src/../h/Riscv.hpp **** 
 163:src/../h/Riscv.hpp **** inline void Riscv::w_sstatus(uint64 sstatus) {
 164:src/../h/Riscv.hpp ****     __asm__ volatile("csrw sstatus, %0" : :"r"(sstatus));
 954              		.loc 2 164 5 is_stmt 1
 955              		.loc 2 164 57 is_stmt 0
 956              	#APP
 957              	# 164 "src/../h/Riscv.hpp" 1
 165              	}
 958              		csrw sstatus, a5
 959              	# 0 "" 2
 960              	.LVL52:
 961              	#NO_APP
 962              	.LBE218:
 963              	.LBE217:
 120:src/Riscv.cpp ****             }
 964              		.loc 1 120 17 is_stmt 1
 120:src/Riscv.cpp ****             }
 965              		.loc 1 120 30 is_stmt 0
 966 03dc 833784F3 		ld	a5,-200(s0)
 967              	.LVL53:
 968              	.LBB219:
 969              	.LBB220:
 108:src/../h/Riscv.hpp **** }
 970              		.loc 2 108 5 is_stmt 1
 108:src/../h/Riscv.hpp **** }
 971              		.loc 2 108 51 is_stmt 0
 972              	#APP
 973              	# 108 "src/../h/Riscv.hpp" 1
 109:src/../h/Riscv.hpp **** 
 974              		csrw sepc, a5
 975              	# 0 "" 2
 976              		.loc 2 109 1
 977              	#NO_APP
 978 03e4 6FF01FF5 		j	.L22
 979              	.LVL54:
 980              	.L47:
 981              	.LBE220:
 982              	.LBE219:
 983              	.LBE212:
 984              	.LBE209:
 985              	.LBB221:
 986              	.LBB196:
 151:src/Riscv.cpp ****                 __asm__ volatile("mv %0, a1" : "=r"(size));
 987              		.loc 1 151 17 is_stmt 1
 152:src/Riscv.cpp ****                 size*=MEM_BLOCK_SIZE;
 988              		.loc 1 152 17
 152:src/Riscv.cpp ****                 size*=MEM_BLOCK_SIZE;
 989              		.loc 1 152 59 is_stmt 0
 990              	#APP
 991              	# 152 "src/Riscv.cpp" 1
 992              		mv a0, a1
GAS LISTING /tmp/ccZxeZ9e.s 			page 30


 993              	# 0 "" 2
 994              	.LVL55:
 153:src/Riscv.cpp ****                 void* allocatedAddr = kmalloc(size);
 995              		.loc 1 153 17 is_stmt 1
 154:src/Riscv.cpp ****                 __asm__ volatile("mv a0,%0" : : "r"((uint64)allocatedAddr));
 996              		.loc 1 154 17
 154:src/Riscv.cpp ****                 __asm__ volatile("mv a0,%0" : : "r"((uint64)allocatedAddr));
 997              		.loc 1 154 46 is_stmt 0
 998              	#NO_APP
 999 03ec 13156500 		slli	a0,a0,6
 1000              	.LVL56:
 1001 03f0 97000000 		call	_Z7kmallocm@plt
 1001      E7800000 
 1002              	.LVL57:
 155:src/Riscv.cpp ****             }
 1003              		.loc 1 155 17 is_stmt 1
 155:src/Riscv.cpp ****             }
 1004              		.loc 1 155 76 is_stmt 0
 1005              	#APP
 1006              	# 155 "src/Riscv.cpp" 1
 1007              		mv a0,a0
 1008              	# 0 "" 2
 1009              	.LVL58:
 1010              	#NO_APP
 1011              	.L29:
 1012              	.LBE196:
 1013              	.LBE221:
 263:src/Riscv.cpp **** 
 1014              		.loc 1 263 13 is_stmt 1
 263:src/Riscv.cpp **** 
 1015              		.loc 1 263 26 is_stmt 0
 1016 03fc 833784F4 		ld	a5,-184(s0)
 1017              	.LVL59:
 1018              	.LBB222:
 1019              	.LBB223:
 108:src/../h/Riscv.hpp **** }
 1020              		.loc 2 108 5 is_stmt 1
 108:src/../h/Riscv.hpp **** }
 1021              		.loc 2 108 51 is_stmt 0
 1022              	#APP
 1023              	# 108 "src/../h/Riscv.hpp" 1
 1024              		csrw sepc, a5
 1025              	# 0 "" 2
 1026              	.LVL60:
 109:src/../h/Riscv.hpp **** 
 1027              		.loc 2 109 1
 1028              	#NO_APP
 1029 0404 6FF01FF3 		j	.L22
 1030              	.LVL61:
 1031              	.L48:
 1032              	.LBE223:
 1033              	.LBE222:
 1034              	.LBB224:
 1035              	.LBB197:
 1036              	.LBB186:
 159:src/Riscv.cpp ****                 __asm__ volatile("mv %0, a1" : "=r"(addr));
 1037              		.loc 1 159 17 is_stmt 1
GAS LISTING /tmp/ccZxeZ9e.s 			page 31


 160:src/Riscv.cpp ****                 uint64 retval = kfree((void*)addr);
 1038              		.loc 1 160 17
 160:src/Riscv.cpp ****                 uint64 retval = kfree((void*)addr);
 1039              		.loc 1 160 59 is_stmt 0
 1040              	#APP
 1041              	# 160 "src/Riscv.cpp" 1
 1042              		mv a0, a1
 1043              	# 0 "" 2
 1044              	.LVL62:
 161:src/Riscv.cpp ****                 __asm__ volatile("mv a0,%0" : :"r"(retval));
 1045              		.loc 1 161 17 is_stmt 1
 161:src/Riscv.cpp ****                 __asm__ volatile("mv a0,%0" : :"r"(retval));
 1046              		.loc 1 161 38 is_stmt 0
 1047              	#NO_APP
 1048 040c 97000000 		call	_Z5kfreePv@plt
 1048      E7800000 
 1049              	.LVL63:
 162:src/Riscv.cpp ****             }
 1050              		.loc 1 162 17 is_stmt 1
 162:src/Riscv.cpp ****             }
 1051              		.loc 1 162 60 is_stmt 0
 1052              	#APP
 1053              	# 162 "src/Riscv.cpp" 1
 1054              		mv a0,a0
 1055              	# 0 "" 2
 1056              	#NO_APP
 1057              	.LBE186:
 1058 0418 6FF05FFE 		j	.L29
 1059              	.LVL64:
 1060              	.L49:
 1061              	.LBB187:
 1062              	.LBB175:
 166:src/Riscv.cpp ****                 uint64 args;
 1063              		.loc 1 166 17 is_stmt 1
 167:src/Riscv.cpp ****                 PCB** threadHandle;
 1064              		.loc 1 167 17
 168:src/Riscv.cpp ****                 __asm__ volatile("mv %0, a1" : "=r"(threadHandle));
 1065              		.loc 1 168 17
 169:src/Riscv.cpp ****                 __asm__ volatile("mv %0, a2" : "=r"(start_routine));
 1066              		.loc 1 169 17
 169:src/Riscv.cpp ****                 __asm__ volatile("mv %0, a2" : "=r"(start_routine));
 1067              		.loc 1 169 67 is_stmt 0
 1068              	#APP
 1069              	# 169 "src/Riscv.cpp" 1
 1070              		mv s3, a1
 1071              	# 0 "" 2
 1072              	.LVL65:
 170:src/Riscv.cpp ****                 __asm__ volatile("mv %0, a3" : "=r"(args));
 1073              		.loc 1 170 17 is_stmt 1
 170:src/Riscv.cpp ****                 __asm__ volatile("mv %0, a3" : "=r"(args));
 1074              		.loc 1 170 68 is_stmt 0
 1075              	# 170 "src/Riscv.cpp" 1
 1076              		mv s4, a2
 1077              	# 0 "" 2
 1078              	.LVL66:
 171:src/Riscv.cpp ****                 //todo
 1079              		.loc 1 171 17 is_stmt 1
GAS LISTING /tmp/ccZxeZ9e.s 			page 32


 171:src/Riscv.cpp ****                 //todo
 1080              		.loc 1 171 59 is_stmt 0
 1081              	# 171 "src/Riscv.cpp" 1
 1082              		mv s5, a3
 1083              	# 0 "" 2
 1084              	.LVL67:
 176:src/Riscv.cpp **** 
 1085              		.loc 1 176 17 is_stmt 1
 176:src/Riscv.cpp **** 
 1086              		.loc 1 176 113 is_stmt 0
 1087              	#NO_APP
 1088 0428 13050005 		li	a0,80
 1089 042c 97000000 		call	_ZN3PCBnwEm@plt
 1089      E7800000 
 1090              	.LVL68:
 1091              	.LEHE0:
 1092 0434 13090500 		mv	s2,a0
 1093 0438 13072000 		li	a4,2
 1094 043c 93860400 		mv	a3,s1
 1095 0440 13860A00 		mv	a2,s5
 1096 0444 93050A00 		mv	a1,s4
 1097              	.LEHB1:
 1098 0448 97000000 		call	_ZN3PCBC1EPFvPvES0_S0_m@plt
 1098      E7800000 
 1099              	.LVL69:
 1100              	.LEHE1:
 178:src/Riscv.cpp **** 
 1101              		.loc 1 178 17 is_stmt 1 discriminator 2
 178:src/Riscv.cpp **** 
 1102              		.loc 1 178 33 is_stmt 0 discriminator 2
 1103 0450 23B02901 		sd	s2,0(s3)
 180:src/Riscv.cpp ****                     __asm__ volatile("li a0, 0xffffffffffffffff");
 1104              		.loc 1 180 17 is_stmt 1 discriminator 2
 1105 0454 63060900 		beqz	s2,.L56
 183:src/Riscv.cpp ****             }
 1106              		.loc 1 183 21
 183:src/Riscv.cpp ****             }
 1107              		.loc 1 183 49 is_stmt 0
 1108              	#APP
 1109              	# 183 "src/Riscv.cpp" 1
 1110              		li a0, 0
 1111              	# 0 "" 2
 1112              	#NO_APP
 1113 045c 6FF01FFA 		j	.L29
 1114              	.L56:
 181:src/Riscv.cpp ****                 else
 1115              		.loc 1 181 21 is_stmt 1
 181:src/Riscv.cpp ****                 else
 1116              		.loc 1 181 66 is_stmt 0
 1117              	#APP
 1118              	# 181 "src/Riscv.cpp" 1
 1119              		li a0, 0xffffffffffffffff
 1120              	# 0 "" 2
 1121              	#NO_APP
 1122 0464 6FF09FF9 		j	.L29
 1123              	.LVL70:
 1124              	.L50:
GAS LISTING /tmp/ccZxeZ9e.s 			page 33


 1125              	.LBE175:
 1126              	.LBB176:
 1127              	.LBB162:
 187:src/Riscv.cpp ****                 PCB::timeSliceCounter = 0;
 1128              		.loc 1 187 17 is_stmt 1
 1129              	.LBB163:
 1130              	.LBB164:
 158:src/../h/Riscv.hpp ****     __asm__ volatile("csrr %0, sstatus" : "=r"(sstatus));
 1131              		.loc 2 158 5
 159:src/../h/Riscv.hpp ****     return sstatus;
 1132              		.loc 2 159 5
 159:src/../h/Riscv.hpp ****     return sstatus;
 1133              		.loc 2 159 57 is_stmt 0
 1134              	#APP
 1135              	# 159 "src/../h/Riscv.hpp" 1
 1136              		csrr a5, sstatus
 1137              	# 0 "" 2
 1138              	.LVL71:
 1139              	#NO_APP
 1140 046c 2330F4FA 		sd	a5,-96(s0)
 160:src/../h/Riscv.hpp **** }
 1141              		.loc 2 160 5 is_stmt 1
 160:src/../h/Riscv.hpp **** }
 1142              		.loc 2 160 12 is_stmt 0
 1143 0470 833704FA 		ld	a5,-96(s0)
 1144              	.LBE164:
 1145              	.LBE163:
 187:src/Riscv.cpp ****                 PCB::timeSliceCounter = 0;
 1146              		.loc 1 187 60
 1147 0474 2338F4F4 		sd	a5,-176(s0)
 188:src/Riscv.cpp ****                 PCB::dispatch();
 1148              		.loc 1 188 17 is_stmt 1
 188:src/Riscv.cpp ****                 PCB::dispatch();
 1149              		.loc 1 188 39 is_stmt 0
 1150 0478 97070000 		la	a5,_ZN3PCB16timeSliceCounterE
 1150      83B70700 
 1151 0480 23B00700 		sd	zero,0(a5)
 189:src/Riscv.cpp ****                 Riscv::w_sstatus(sstatus);
 1152              		.loc 1 189 17 is_stmt 1
 1153              	.LEHB2:
 189:src/Riscv.cpp ****                 Riscv::w_sstatus(sstatus);
 1154              		.loc 1 189 30 is_stmt 0
 1155 0484 97000000 		call	_ZN3PCB8dispatchEv@plt
 1155      E7800000 
 1156              	.LVL72:
 190:src/Riscv.cpp ****             }
 1157              		.loc 1 190 17 is_stmt 1
 190:src/Riscv.cpp ****             }
 1158              		.loc 1 190 33 is_stmt 0
 1159 048c 833704F5 		ld	a5,-176(s0)
 1160              	.LVL73:
 1161              	.LBB165:
 1162              	.LBB166:
 164:src/../h/Riscv.hpp **** }
 1163              		.loc 2 164 5 is_stmt 1
 164:src/../h/Riscv.hpp **** }
 1164              		.loc 2 164 57 is_stmt 0
GAS LISTING /tmp/ccZxeZ9e.s 			page 34


 1165              	#APP
 1166              	# 164 "src/../h/Riscv.hpp" 1
 1167              		csrw sstatus, a5
 1168              	# 0 "" 2
 1169              		.loc 2 165 1
 1170              	#NO_APP
 1171 0494 6FF09FF6 		j	.L29
 1172              	.LVL74:
 1173              	.L51:
 1174              	.LBE166:
 1175              	.LBE165:
 1176              	.LBE162:
 1177              	.LBB167:
 1178              	.LBB148:
 194:src/Riscv.cpp ****                 volatile uint64 sstatus = Riscv::r_sstatus();
 1179              		.loc 1 194 17 is_stmt 1
 194:src/Riscv.cpp ****                 volatile uint64 sstatus = Riscv::r_sstatus();
 1180              		.loc 1 194 35 is_stmt 0
 1181 0498 17050000 		lla	a0,.LC0
 1181      13050500 
 1182 04a0 97000000 		call	_ZN5Riscv11printStringEPKc
 1182      E7800000 
 1183              	.LVL75:
 195:src/Riscv.cpp ****                 PCB::timeSliceCounter = 0;
 1184              		.loc 1 195 17 is_stmt 1
 1185              	.LBB149:
 1186              	.LBB150:
 158:src/../h/Riscv.hpp ****     __asm__ volatile("csrr %0, sstatus" : "=r"(sstatus));
 1187              		.loc 2 158 5
 159:src/../h/Riscv.hpp ****     return sstatus;
 1188              		.loc 2 159 5
 159:src/../h/Riscv.hpp ****     return sstatus;
 1189              		.loc 2 159 57 is_stmt 0
 1190              	#APP
 1191              	# 159 "src/../h/Riscv.hpp" 1
 1192              		csrr a5, sstatus
 1193              	# 0 "" 2
 1194              	#NO_APP
 1195 04ac 2334F4FA 		sd	a5,-88(s0)
 160:src/../h/Riscv.hpp **** }
 1196              		.loc 2 160 5 is_stmt 1
 160:src/../h/Riscv.hpp **** }
 1197              		.loc 2 160 12 is_stmt 0
 1198 04b0 833784FA 		ld	a5,-88(s0)
 1199              	.LBE150:
 1200              	.LBE149:
 195:src/Riscv.cpp ****                 PCB::timeSliceCounter = 0;
 1201              		.loc 1 195 60
 1202 04b4 233CF4F4 		sd	a5,-168(s0)
 196:src/Riscv.cpp ****                 PCB::running->setState(PCB::FINISHED);
 1203              		.loc 1 196 17 is_stmt 1
 196:src/Riscv.cpp ****                 PCB::running->setState(PCB::FINISHED);
 1204              		.loc 1 196 39 is_stmt 0
 1205 04b8 97070000 		la	a5,_ZN3PCB16timeSliceCounterE
 1205      83B70700 
 1206 04c0 23B00700 		sd	zero,0(a5)
 197:src/Riscv.cpp ****                 PCB::dispatch();
GAS LISTING /tmp/ccZxeZ9e.s 			page 35


 1207              		.loc 1 197 17 is_stmt 1
 197:src/Riscv.cpp ****                 PCB::dispatch();
 1208              		.loc 1 197 39 is_stmt 0
 1209 04c4 97070000 		la	a5,_ZN3PCB7runningE
 1209      83B70700 
 1210 04cc 83B70700 		ld	a5,0(a5)
 1211              	.LVL76:
 1212              	.LBB151:
 1213              	.LBB152:
  28:src/../h/PCB.hpp **** 
  29:src/../h/PCB.hpp ****     void* operator new(size_t size);
  30:src/../h/PCB.hpp ****     void operator delete(void *p);
  31:src/../h/PCB.hpp **** 
  32:src/../h/PCB.hpp ****     enum State{READY, RUNNING, SUSPENDED, FINISHED, EXITING, SLEEPING};
  33:src/../h/PCB.hpp ****     State getState() {return state;}
  34:src/../h/PCB.hpp ****     void setState(State s) {state = s;}
 1214              		.loc 3 34 29 is_stmt 1
 1215              		.loc 3 34 35 is_stmt 0
 1216 04d0 13073000 		li	a4,3
 1217 04d4 23ACE702 		sw	a4,56(a5)
 1218              	.LVL77:
 1219              	.LBE152:
 1220              	.LBE151:
 198:src/Riscv.cpp ****                 Riscv::w_sstatus(sstatus);
 1221              		.loc 1 198 17 is_stmt 1
 198:src/Riscv.cpp ****                 Riscv::w_sstatus(sstatus);
 1222              		.loc 1 198 30 is_stmt 0
 1223 04d8 97000000 		call	_ZN3PCB8dispatchEv@plt
 1223      E7800000 
 1224              	.LVL78:
 199:src/Riscv.cpp ****                 __asm__ volatile("li a0, 0");
 1225              		.loc 1 199 17 is_stmt 1
 199:src/Riscv.cpp ****                 __asm__ volatile("li a0, 0");
 1226              		.loc 1 199 33 is_stmt 0
 1227 04e0 833784F5 		ld	a5,-168(s0)
 1228              	.LVL79:
 1229              	.LBB153:
 1230              	.LBB154:
 164:src/../h/Riscv.hpp **** }
 1231              		.loc 2 164 5 is_stmt 1
 164:src/../h/Riscv.hpp **** }
 1232              		.loc 2 164 57 is_stmt 0
 1233              	#APP
 1234              	# 164 "src/../h/Riscv.hpp" 1
 1235              		csrw sstatus, a5
 1236              	# 0 "" 2
 1237              	.LVL80:
 1238              	#NO_APP
 1239              	.LBE154:
 1240              	.LBE153:
 200:src/Riscv.cpp ****             }
 1241              		.loc 1 200 17 is_stmt 1
 200:src/Riscv.cpp ****             }
 1242              		.loc 1 200 45 is_stmt 0
 1243              	#APP
 1244              	# 200 "src/Riscv.cpp" 1
 1245              		li a0, 0
GAS LISTING /tmp/ccZxeZ9e.s 			page 36


 1246              	# 0 "" 2
 1247              	#NO_APP
 1248              	.LBE148:
 1249 04ec 6FF01FF1 		j	.L29
 1250              	.LVL81:
 1251              	.L52:
 1252              	.LBB155:
 1253              	.LBB135:
 204:src/Riscv.cpp ****                 __asm__ volatile("mv %0, a1" : "=r"(time));
 1254              		.loc 1 204 17 is_stmt 1
 205:src/Riscv.cpp ****                 volatile uint64 sstatus = Riscv::r_sstatus();
 1255              		.loc 1 205 17
 205:src/Riscv.cpp ****                 volatile uint64 sstatus = Riscv::r_sstatus();
 1256              		.loc 1 205 59 is_stmt 0
 1257              	#APP
 1258              	# 205 "src/Riscv.cpp" 1
 1259              		mv a4, a1
 1260              	# 0 "" 2
 1261              	.LVL82:
 206:src/Riscv.cpp ****                 PCB::timeSliceCounter = 0;
 1262              		.loc 1 206 17 is_stmt 1
 1263              	#NO_APP
 1264              	.LBB136:
 1265              	.LBB137:
 158:src/../h/Riscv.hpp ****     __asm__ volatile("csrr %0, sstatus" : "=r"(sstatus));
 1266              		.loc 2 158 5
 159:src/../h/Riscv.hpp ****     return sstatus;
 1267              		.loc 2 159 5
 159:src/../h/Riscv.hpp ****     return sstatus;
 1268              		.loc 2 159 57 is_stmt 0
 1269              	#APP
 1270              	# 159 "src/../h/Riscv.hpp" 1
 1271              		csrr a5, sstatus
 1272              	# 0 "" 2
 1273              	.LVL83:
 1274              	#NO_APP
 1275 04f8 2338F4FA 		sd	a5,-80(s0)
 160:src/../h/Riscv.hpp **** }
 1276              		.loc 2 160 5 is_stmt 1
 160:src/../h/Riscv.hpp **** }
 1277              		.loc 2 160 12 is_stmt 0
 1278 04fc 833704FB 		ld	a5,-80(s0)
 1279              	.LBE137:
 1280              	.LBE136:
 206:src/Riscv.cpp ****                 PCB::timeSliceCounter = 0;
 1281              		.loc 1 206 60
 1282 0500 2330F4F6 		sd	a5,-160(s0)
 207:src/Riscv.cpp ****                 PCB::running->setTimeToSleep(time);
 1283              		.loc 1 207 17 is_stmt 1
 207:src/Riscv.cpp ****                 PCB::running->setTimeToSleep(time);
 1284              		.loc 1 207 39 is_stmt 0
 1285 0504 97070000 		la	a5,_ZN3PCB16timeSliceCounterE
 1285      83B70700 
 1286 050c 23B00700 		sd	zero,0(a5)
 208:src/Riscv.cpp ****                 SleepPCBList::insertSleepingPCB();
 1287              		.loc 1 208 17 is_stmt 1
 208:src/Riscv.cpp ****                 SleepPCBList::insertSleepingPCB();
GAS LISTING /tmp/ccZxeZ9e.s 			page 37


 1288              		.loc 1 208 45 is_stmt 0
 1289 0510 97070000 		la	a5,_ZN3PCB7runningE
 1289      83B70700 
 1290 0518 83B70700 		ld	a5,0(a5)
 1291              	.LVL84:
 1292              	.LBB138:
 1293              	.LBB139:
  35:src/../h/PCB.hpp ****     void setTimeToSleep(uint64 time) {timeToSleep = time;}
 1294              		.loc 3 35 39 is_stmt 1
 1295              		.loc 3 35 51 is_stmt 0
 1296 051c 23BCE700 		sd	a4,24(a5)
 1297              	.LVL85:
 1298              	.LBE139:
 1299              	.LBE138:
 209:src/Riscv.cpp ****                 PCB::dispatch();
 1300              		.loc 1 209 17 is_stmt 1
 209:src/Riscv.cpp ****                 PCB::dispatch();
 1301              		.loc 1 209 48 is_stmt 0
 1302 0520 97000000 		call	_ZN12SleepPCBList17insertSleepingPCBEv@plt
 1302      E7800000 
 1303              	.LVL86:
 210:src/Riscv.cpp ****                 Riscv::w_sstatus(sstatus);
 1304              		.loc 1 210 17 is_stmt 1
 210:src/Riscv.cpp ****                 Riscv::w_sstatus(sstatus);
 1305              		.loc 1 210 30 is_stmt 0
 1306 0528 97000000 		call	_ZN3PCB8dispatchEv@plt
 1306      E7800000 
 1307              	.LVL87:
 211:src/Riscv.cpp ****                 __asm__ volatile("li a0, 0x0");
 1308              		.loc 1 211 17 is_stmt 1
 211:src/Riscv.cpp ****                 __asm__ volatile("li a0, 0x0");
 1309              		.loc 1 211 33 is_stmt 0
 1310 0530 833704F6 		ld	a5,-160(s0)
 1311              	.LVL88:
 1312              	.LBB140:
 1313              	.LBB141:
 164:src/../h/Riscv.hpp **** }
 1314              		.loc 2 164 5 is_stmt 1
 164:src/../h/Riscv.hpp **** }
 1315              		.loc 2 164 57 is_stmt 0
 1316              	#APP
 1317              	# 164 "src/../h/Riscv.hpp" 1
 1318              		csrw sstatus, a5
 1319              	# 0 "" 2
 1320              	.LVL89:
 1321              	#NO_APP
 1322              	.LBE141:
 1323              	.LBE140:
 212:src/Riscv.cpp ****             }
 1324              		.loc 1 212 17 is_stmt 1
 212:src/Riscv.cpp ****             }
 1325              		.loc 1 212 47 is_stmt 0
 1326              	#APP
 1327              	# 212 "src/Riscv.cpp" 1
 1328              		li a0, 0x0
 1329              	# 0 "" 2
 1330              	#NO_APP
GAS LISTING /tmp/ccZxeZ9e.s 			page 38


 1331              	.LBE135:
 1332 053c 6FF01FEC 		j	.L29
 1333              	.LVL90:
 1334              	.L53:
 1335              	.LBB142:
 1336              	.LBB129:
 216:src/Riscv.cpp ****                 KSemaphore** semaphoreHandle;
 1337              		.loc 1 216 17 is_stmt 1
 217:src/Riscv.cpp ****                 __asm__ volatile("mv %0, a1" : "=r"(semaphoreHandle));
 1338              		.loc 1 217 17
 218:src/Riscv.cpp ****                 __asm__ volatile("mv %0, a2" : "=r"(val));
 1339              		.loc 1 218 17
 218:src/Riscv.cpp ****                 __asm__ volatile("mv %0, a2" : "=r"(val));
 1340              		.loc 1 218 70 is_stmt 0
 1341              	#APP
 1342              	# 218 "src/Riscv.cpp" 1
 1343              		mv s2, a1
 1344              	# 0 "" 2
 1345              	.LVL91:
 219:src/Riscv.cpp **** 
 1346              		.loc 1 219 17 is_stmt 1
 219:src/Riscv.cpp **** 
 1347              		.loc 1 219 58 is_stmt 0
 1348              	# 219 "src/Riscv.cpp" 1
 1349              		mv s3, a2
 1350              	# 0 "" 2
 1351              	.LVL92:
 221:src/Riscv.cpp **** 
 1352              		.loc 1 221 17 is_stmt 1
 221:src/Riscv.cpp **** 
 1353              		.loc 1 221 56 is_stmt 0
 1354              	#NO_APP
 1355 0548 13058001 		li	a0,24
 1356 054c 97000000 		call	_ZN10KSemaphorenwEm@plt
 1356      E7800000 
 1357              	.LVL93:
 1358              	.LEHE2:
 1359 0554 93040500 		mv	s1,a0
 1360              	.LVL94:
 1361 0558 9B850900 		sext.w	a1,s3
 1362              	.LEHB3:
 1363 055c 97000000 		call	_ZN10KSemaphoreC1Ei@plt
 1363      E7800000 
 1364              	.LVL95:
 1365              	.LEHE3:
 223:src/Riscv.cpp **** 
 1366              		.loc 1 223 17 is_stmt 1 discriminator 2
 223:src/Riscv.cpp **** 
 1367              		.loc 1 223 36 is_stmt 0 discriminator 2
 1368 0564 23309900 		sd	s1,0(s2)
 225:src/Riscv.cpp ****                         __asm__ volatile("li a0, 0xffffffffffffffff");
 1369              		.loc 1 225 17 is_stmt 1 discriminator 2
 1370 0568 63860400 		beqz	s1,.L57
 228:src/Riscv.cpp **** 
 1371              		.loc 1 228 25
 228:src/Riscv.cpp **** 
 1372              		.loc 1 228 53 is_stmt 0
GAS LISTING /tmp/ccZxeZ9e.s 			page 39


 1373              	#APP
 1374              	# 228 "src/Riscv.cpp" 1
 1375              		li a0, 0
 1376              	# 0 "" 2
 1377              	#NO_APP
 1378 0570 6FF0DFE8 		j	.L29
 1379              	.L57:
 226:src/Riscv.cpp ****                 else
 1380              		.loc 1 226 25 is_stmt 1
 226:src/Riscv.cpp ****                 else
 1381              		.loc 1 226 70 is_stmt 0
 1382              	#APP
 1383              	# 226 "src/Riscv.cpp" 1
 1384              		li a0, 0xffffffffffffffff
 1385              	# 0 "" 2
 1386              	#NO_APP
 1387 0578 6FF05FE8 		j	.L29
 1388              	.LVL96:
 1389              	.L54:
 1390              	.LBE129:
 1391              	.LBB130:
 1392              	.LBB121:
 233:src/Riscv.cpp ****                 KSemaphore* kSem;
 1393              		.loc 1 233 17 is_stmt 1
 1394              	.LBB122:
 1395              	.LBB123:
 158:src/../h/Riscv.hpp ****     __asm__ volatile("csrr %0, sstatus" : "=r"(sstatus));
 1396              		.loc 2 158 5
 159:src/../h/Riscv.hpp ****     return sstatus;
 1397              		.loc 2 159 5
 159:src/../h/Riscv.hpp ****     return sstatus;
 1398              		.loc 2 159 57 is_stmt 0
 1399              	#APP
 1400              	# 159 "src/../h/Riscv.hpp" 1
 1401              		csrr a5, sstatus
 1402              	# 0 "" 2
 1403              	.LVL97:
 1404              	#NO_APP
 1405 0580 233CF4FA 		sd	a5,-72(s0)
 160:src/../h/Riscv.hpp **** }
 1406              		.loc 2 160 5 is_stmt 1
 160:src/../h/Riscv.hpp **** }
 1407              		.loc 2 160 12 is_stmt 0
 1408 0584 833784FB 		ld	a5,-72(s0)
 1409              	.LBE123:
 1410              	.LBE122:
 233:src/Riscv.cpp ****                 KSemaphore* kSem;
 1411              		.loc 1 233 60
 1412 0588 2334F4F6 		sd	a5,-152(s0)
 234:src/Riscv.cpp ****                 __asm__ volatile("mv %0, a1" : "=r"(kSem));
 1413              		.loc 1 234 17 is_stmt 1
 235:src/Riscv.cpp ****                 volatile uint64 retval = kSem->wait();
 1414              		.loc 1 235 17
 235:src/Riscv.cpp ****                 volatile uint64 retval = kSem->wait();
 1415              		.loc 1 235 59 is_stmt 0
 1416              	#APP
 1417              	# 235 "src/Riscv.cpp" 1
GAS LISTING /tmp/ccZxeZ9e.s 			page 40


 1418              		mv a0, a1
 1419              	# 0 "" 2
 1420              	.LVL98:
 236:src/Riscv.cpp ****                 Riscv::w_sstatus(sstatus);
 1421              		.loc 1 236 17 is_stmt 1
 1422              	.LEHB4:
 236:src/Riscv.cpp ****                 Riscv::w_sstatus(sstatus);
 1423              		.loc 1 236 52 is_stmt 0
 1424              	#NO_APP
 1425 0590 97000000 		call	_ZN10KSemaphore4waitEv@plt
 1425      E7800000 
 1426              	.LVL99:
 236:src/Riscv.cpp ****                 Riscv::w_sstatus(sstatus);
 1427              		.loc 1 236 53
 1428 0598 2338A4F6 		sd	a0,-144(s0)
 237:src/Riscv.cpp ****                 __asm__ volatile("mv a0,%0" : :"r"(retval));
 1429              		.loc 1 237 17 is_stmt 1
 237:src/Riscv.cpp ****                 __asm__ volatile("mv a0,%0" : :"r"(retval));
 1430              		.loc 1 237 33 is_stmt 0
 1431 059c 833784F6 		ld	a5,-152(s0)
 1432              	.LVL100:
 1433              	.LBB124:
 1434              	.LBB125:
 164:src/../h/Riscv.hpp **** }
 1435              		.loc 2 164 5 is_stmt 1
 164:src/../h/Riscv.hpp **** }
 1436              		.loc 2 164 57 is_stmt 0
 1437              	#APP
 1438              	# 164 "src/../h/Riscv.hpp" 1
 1439              		csrw sstatus, a5
 1440              	# 0 "" 2
 1441              	.LVL101:
 1442              	#NO_APP
 1443              	.LBE125:
 1444              	.LBE124:
 238:src/Riscv.cpp ****             }
 1445              		.loc 1 238 17 is_stmt 1
 238:src/Riscv.cpp ****             }
 1446              		.loc 1 238 52 is_stmt 0
 1447 05a4 833704F7 		ld	a5,-144(s0)
 238:src/Riscv.cpp ****             }
 1448              		.loc 1 238 60
 1449              	#APP
 1450              	# 238 "src/Riscv.cpp" 1
 1451              		mv a0,a5
 1452              	# 0 "" 2
 1453              	#NO_APP
 1454              	.LBE121:
 1455 05ac 6FF01FE5 		j	.L29
 1456              	.LVL102:
 1457              	.L55:
 1458              	.LBB126:
 1459              	.LBB119:
 242:src/Riscv.cpp ****                 __asm__ volatile("mv %0, a1" : "=r"(kSem));
 1460              		.loc 1 242 17 is_stmt 1
 243:src/Riscv.cpp ****                 volatile uint64 retval = kSem->signal();
 1461              		.loc 1 243 17
GAS LISTING /tmp/ccZxeZ9e.s 			page 41


 243:src/Riscv.cpp ****                 volatile uint64 retval = kSem->signal();
 1462              		.loc 1 243 59 is_stmt 0
 1463              	#APP
 1464              	# 243 "src/Riscv.cpp" 1
 1465              		mv a0, a1
 1466              	# 0 "" 2
 1467              	.LVL103:
 244:src/Riscv.cpp ****                 __asm__ volatile("mv a0,%0" : :"r"(retval));
 1468              		.loc 1 244 17 is_stmt 1
 244:src/Riscv.cpp ****                 __asm__ volatile("mv a0,%0" : :"r"(retval));
 1469              		.loc 1 244 54 is_stmt 0
 1470              	#NO_APP
 1471 05b4 97000000 		call	_ZN10KSemaphore6signalEv@plt
 1471      E7800000 
 1472              	.LVL104:
 1473              	.LEHE4:
 244:src/Riscv.cpp ****                 __asm__ volatile("mv a0,%0" : :"r"(retval));
 1474              		.loc 1 244 55
 1475 05bc 233CA4F6 		sd	a0,-136(s0)
 245:src/Riscv.cpp ****             }
 1476              		.loc 1 245 17 is_stmt 1
 245:src/Riscv.cpp ****             }
 1477              		.loc 1 245 52 is_stmt 0
 1478 05c0 833784F7 		ld	a5,-136(s0)
 245:src/Riscv.cpp ****             }
 1479              		.loc 1 245 60
 1480              	#APP
 1481              	# 245 "src/Riscv.cpp" 1
 1482              		mv a0,a5
 1483              	# 0 "" 2
 1484              	#NO_APP
 1485              	.LBE119:
 1486 05c8 6FF05FE3 		j	.L29
 1487              	.LVL105:
 1488              	.L43:
 1489 05cc 93040500 		mv	s1,a0
 1490              	.LVL106:
 1491              	.LBE126:
 1492              	.LBE130:
 1493              	.LBE142:
 1494              	.LBE155:
 1495              	.LBE167:
 1496              	.LBE176:
 1497              	.LBB177:
 176:src/Riscv.cpp **** 
 1498              		.loc 1 176 113
 1499 05d0 13050900 		mv	a0,s2
 1500 05d4 97000000 		call	_ZN3PCBdlEPv@plt
 1500      E7800000 
 1501              	.LVL107:
 1502 05dc 13850400 		mv	a0,s1
 1503              	.LEHB5:
 1504 05e0 97000000 		call	_Unwind_Resume@plt
 1504      E7800000 
 1505              	.LVL108:
 1506              	.LEHE5:
 1507              	.L44:
GAS LISTING /tmp/ccZxeZ9e.s 			page 42


 1508 05e8 13090500 		mv	s2,a0
 1509              	.LVL109:
 1510              	.LBE177:
 1511              	.LBB178:
 1512              	.LBB168:
 1513              	.LBB156:
 1514              	.LBB143:
 1515              	.LBB131:
 221:src/Riscv.cpp **** 
 1516              		.loc 1 221 56
 1517 05ec 13850400 		mv	a0,s1
 1518 05f0 97000000 		call	_ZN10KSemaphoredlEPv@plt
 1518      E7800000 
 1519              	.LVL110:
 1520 05f8 13050900 		mv	a0,s2
 1521              	.LEHB6:
 1522 05fc 97000000 		call	_Unwind_Resume@plt
 1522      E7800000 
 1523              	.LVL111:
 1524              	.LEHE6:
 1525              	.LBE131:
 1526              	.LBE143:
 1527              	.LBE156:
 1528              	.LBE168:
 1529              	.LBE178:
 1530              	.LBE187:
 1531              	.LBE197:
 1532              	.LBE224:
 1533              	.LBE235:
 1534              	.LBE245:
 1535              		.cfi_endproc
 1536              	.LFE32:
 1537              		.globl	__gxx_personality_v0
 1538              		.section	.gcc_except_table,"a",@progbits
 1539              	.LLSDA32:
 1540 0000 FF       		.byte	0xff
 1541 0001 FF       		.byte	0xff
 1542 0002 03       		.byte	0x3
 1543 0003 5B       		.byte	0x5b
 1544 0004 00000000 		.4byte	.LEHB0-.LFB32
 1545 0008 00000000 		.4byte	.LEHE0-.LEHB0
 1546 000c 00000000 		.4byte	0
 1547 0010 00       		.byte	0
 1548 0011 00000000 		.4byte	.LEHB1-.LFB32
 1549 0015 00000000 		.4byte	.LEHE1-.LEHB1
 1550 0019 00000000 		.4byte	.L43-.LFB32
 1551 001d 00       		.byte	0
 1552 001e 00000000 		.4byte	.LEHB2-.LFB32
 1553 0022 00000000 		.4byte	.LEHE2-.LEHB2
 1554 0026 00000000 		.4byte	0
 1555 002a 00       		.byte	0
 1556 002b 00000000 		.4byte	.LEHB3-.LFB32
 1557 002f 00000000 		.4byte	.LEHE3-.LEHB3
 1558 0033 00000000 		.4byte	.L44-.LFB32
 1559 0037 00       		.byte	0
 1560 0038 00000000 		.4byte	.LEHB4-.LFB32
 1561 003c 00000000 		.4byte	.LEHE4-.LEHB4
GAS LISTING /tmp/ccZxeZ9e.s 			page 43


 1562 0040 00000000 		.4byte	0
 1563 0044 00       		.byte	0
 1564 0045 00000000 		.4byte	.LEHB5-.LFB32
 1565 0049 00000000 		.4byte	.LEHE5-.LEHB5
 1566 004d 00000000 		.4byte	0
 1567 0051 00       		.byte	0
 1568 0052 00000000 		.4byte	.LEHB6-.LFB32
 1569 0056 00000000 		.4byte	.LEHE6-.LEHB6
 1570 005a 00000000 		.4byte	0
 1571 005e 00       		.byte	0
 1572              		.text
 1574              		.section	.rodata.str1.8
 1575 0013 00000000 		.align	3
 1575      00
 1576              	.LC1:
 1577 0018 456E642E 		.string	"End..."
 1577      2E2E00
 1578              		.text
 1579              		.align	2
 1580              		.globl	_ZN5Riscv10kernelMainEv
 1582              	_ZN5Riscv10kernelMainEv:
 1583              	.LFB33:
 270:src/Riscv.cpp ****     initSystem();
 1584              		.loc 1 270 1 is_stmt 1
 1585              		.cfi_startproc
 1586              		.cfi_personality 0x9b,DW.ref.__gxx_personality_v0
 1587              		.cfi_lsda 0x1b,.LLSDA33
 1588 0604 130101FE 		addi	sp,sp,-32
 1589              		.cfi_def_cfa_offset 32
 1590 0608 233C1100 		sd	ra,24(sp)
 1591 060c 23388100 		sd	s0,16(sp)
 1592 0610 23349100 		sd	s1,8(sp)
 1593 0614 23302101 		sd	s2,0(sp)
 1594              		.cfi_offset 1, -8
 1595              		.cfi_offset 8, -16
 1596              		.cfi_offset 9, -24
 1597              		.cfi_offset 18, -32
 1598 0618 13040102 		addi	s0,sp,32
 1599              		.cfi_def_cfa 8, 0
 271:src/Riscv.cpp **** 
 1600              		.loc 1 271 5
 1601              	.LEHB7:
 271:src/Riscv.cpp **** 
 1602              		.loc 1 271 15 is_stmt 0
 1603 061c 97000000 		call	_ZN5Riscv10initSystemEv
 1603      E7800000 
 1604              	.LVL112:
 273:src/Riscv.cpp **** 
 1605              		.loc 1 273 5 is_stmt 1
 273:src/Riscv.cpp **** 
 1606              		.loc 1 273 21 is_stmt 0
 1607 0624 97000000 		call	_ZN5Riscv16enableInterruptsEv
 1607      E7800000 
 1608              	.LVL113:
 275:src/Riscv.cpp **** 
 1609              		.loc 1 275 5 is_stmt 1
 275:src/Riscv.cpp **** 
GAS LISTING /tmp/ccZxeZ9e.s 			page 44


 1610              		.loc 1 275 63 is_stmt 0
 1611 062c 37150000 		li	a0,4096
 1612 0630 97000000 		call	_Z7kmallocm@plt
 1612      E7800000 
 1613              	.LVL114:
 1614 0638 13090500 		mv	s2,a0
 275:src/Riscv.cpp **** 
 1615              		.loc 1 275 103
 1616 063c 13050005 		li	a0,80
 1617 0640 97000000 		call	_ZN3PCBnwEm@plt
 1617      E7800000 
 1618              	.LVL115:
 1619              	.LEHE7:
 1620 0648 93040500 		mv	s1,a0
 1621 064c 13072000 		li	a4,2
 1622 0650 93060900 		mv	a3,s2
 1623 0654 13060000 		li	a2,0
 1624 0658 97050000 		lla	a1,_ZN5Riscv15userMainWrapperEPv
 1624      93850500 
 1625              	.LEHB8:
 1626 0660 97000000 		call	_ZN3PCBC1EPFvPvES0_S0_m@plt
 1626      E7800000 
 1627              	.LVL116:
 1628              	.LEHE8:
 1629              	.L60:
 277:src/Riscv.cpp ****     {
 1630              		.loc 1 277 5 is_stmt 1
 277:src/Riscv.cpp ****     {
 1631              		.loc 1 277 31
 1632              	.LBB246:
 1633              	.LBB247:
  33:src/../h/PCB.hpp ****     void setState(State s) {state = s;}
 1634              		.loc 3 33 23
  33:src/../h/PCB.hpp ****     void setState(State s) {state = s;}
 1635              		.loc 3 33 30 is_stmt 0
 1636 0668 03A78403 		lw	a4,56(s1)
 1637              	.LVL117:
 1638              	.LBE247:
 1639              	.LBE246:
 277:src/Riscv.cpp ****     {
 1640              		.loc 1 277 31
 1641 066c 93073000 		li	a5,3
 1642 0670 6308F700 		beq	a4,a5,.L59
 279:src/Riscv.cpp ****     }
 1643              		.loc 1 279 9 is_stmt 1
 1644              	.LEHB9:
 279:src/Riscv.cpp ****     }
 1645              		.loc 1 279 24 is_stmt 0
 1646 0674 97000000 		call	thread_dispatch@plt
 1646      E7800000 
 1647              	.LVL118:
 277:src/Riscv.cpp ****     {
 1648              		.loc 1 277 5
 1649 067c 6FF0DFFE 		j	.L60
 1650              	.L59:
 284:src/Riscv.cpp **** 
 1651              		.loc 1 284 5 is_stmt 1
GAS LISTING /tmp/ccZxeZ9e.s 			page 45


 284:src/Riscv.cpp **** 
 1652              		.loc 1 284 22 is_stmt 0
 1653 0680 97000000 		call	_ZN5Riscv17disableInterruptsEv
 1653      E7800000 
 1654              	.LVL119:
 286:src/Riscv.cpp **** 
 1655              		.loc 1 286 5 is_stmt 1
 286:src/Riscv.cpp **** 
 1656              		.loc 1 286 14 is_stmt 0
 1657 0688 97000000 		call	_ZN5Riscv9endSystemEv
 1657      E7800000 
 1658              	.LVL120:
 288:src/Riscv.cpp **** }
 1659              		.loc 1 288 5 is_stmt 1
 288:src/Riscv.cpp **** }
 1660              		.loc 1 288 23 is_stmt 0
 1661 0690 17050000 		lla	a0,.LC1
 1661      13050500 
 1662 0698 97000000 		call	_ZN5Riscv11printStringEPKc
 1662      E7800000 
 1663              	.LVL121:
 1664              	.LEHE9:
 289:src/Riscv.cpp **** 
 1665              		.loc 1 289 1
 1666 06a0 83308101 		ld	ra,24(sp)
 1667              		.cfi_remember_state
 1668              		.cfi_restore 1
 1669 06a4 03340101 		ld	s0,16(sp)
 1670              		.cfi_restore 8
 1671              		.cfi_def_cfa 2, 32
 1672 06a8 83348100 		ld	s1,8(sp)
 1673              		.cfi_restore 9
 1674 06ac 03390100 		ld	s2,0(sp)
 1675              		.cfi_restore 18
 1676 06b0 13010102 		addi	sp,sp,32
 1677              		.cfi_def_cfa_offset 0
 1678 06b4 67800000 		jr	ra
 1679              	.L62:
 1680              		.cfi_restore_state
 1681 06b8 13090500 		mv	s2,a0
 275:src/Riscv.cpp **** 
 1682              		.loc 1 275 103
 1683 06bc 13850400 		mv	a0,s1
 1684 06c0 97000000 		call	_ZN3PCBdlEPv@plt
 1684      E7800000 
 1685              	.LVL122:
 1686 06c8 13050900 		mv	a0,s2
 1687              	.LEHB10:
 1688 06cc 97000000 		call	_Unwind_Resume@plt
 1688      E7800000 
 1689              	.LVL123:
 1690              	.LEHE10:
 1691              		.cfi_endproc
 1692              	.LFE33:
 1693              		.section	.gcc_except_table
 1694              	.LLSDA33:
 1695 005f FF       		.byte	0xff
GAS LISTING /tmp/ccZxeZ9e.s 			page 46


 1696 0060 FF       		.byte	0xff
 1697 0061 03       		.byte	0x3
 1698 0062 34       		.byte	0x34
 1699 0063 00000000 		.4byte	.LEHB7-.LFB33
 1700 0067 00000000 		.4byte	.LEHE7-.LEHB7
 1701 006b 00000000 		.4byte	0
 1702 006f 00       		.byte	0
 1703 0070 00000000 		.4byte	.LEHB8-.LFB33
 1704 0074 00000000 		.4byte	.LEHE8-.LEHB8
 1705 0078 00000000 		.4byte	.L62-.LFB33
 1706 007c 00       		.byte	0
 1707 007d 00000000 		.4byte	.LEHB9-.LFB33
 1708 0081 00000000 		.4byte	.LEHE9-.LEHB9
 1709 0085 00000000 		.4byte	0
 1710 0089 00       		.byte	0
 1711 008a 00000000 		.4byte	.LEHB10-.LFB33
 1712 008e 00000000 		.4byte	.LEHE10-.LEHB10
 1713 0092 00000000 		.4byte	0
 1714 0096 00       		.byte	0
 1715              		.text
 1717              		.section	.rodata
 1718              		.align	3
 1719              		.set	.LANCHOR0,. + 0
 1722              	_ZZN5Riscv12printIntegerEmE6digits:
 1723 0000 30313233 		.string	"0123456789"
 1723      34353637 
 1723      383900
 1724              		.bss
 1725              		.align	3
 1726              		.set	.LANCHOR1,. + 0
 1729              	_ZZN5Riscv20handleSupervisorTrapEvE5total:
 1730 0000 00000000 		.zero	8
 1730      00000000 
 1731              		.text
 1732              	.Letext0:
 1733              		.file 4 "src/../h/../lib/hw.h"
 1734              		.file 5 "src/../h/KSemaphore.hpp"
 1735              		.file 6 "src/../h/SleepPCBList.hpp"
 1736              		.file 7 "src/../h/KConsole.hpp"
 1737              		.file 8 "src/../test/userMain.hpp"
 1738              		.file 9 "src/../h/MemoryAllocator.hpp"
 1739              		.file 10 "src/../h/syscall_c.h"
 1740              		.file 11 "src/../lib/console.h"
 6776              		.align	3
 6779              	DW.ref.__gxx_personality_v0:
 6780 0000 00000000 		.dword	__gxx_personality_v0
 6780      00000000 
 6781              		.ident	"GCC: (Ubuntu 9.3.0-17ubuntu1~20.04) 9.3.0"
 6782              		.section	.note.GNU-stack,"",@progbits
GAS LISTING /tmp/ccZxeZ9e.s 			page 47


DEFINED SYMBOLS
                            *ABS*:0000000000000000 Riscv.cpp
     /tmp/ccZxeZ9e.s:9      .text:0000000000000000 _ZN5Riscv15userMainWrapperEPv
     /tmp/ccZxeZ9e.s:13     .text:0000000000000000 .L0 
     /tmp/ccZxeZ9e.s:14     .text:0000000000000000 .L0 
     /tmp/ccZxeZ9e.s:15     .text:0000000000000004 .L0 
     /tmp/ccZxeZ9e.s:18     .text:000000000000000c .L0 
     /tmp/ccZxeZ9e.s:19     .text:000000000000000c .L0 
     /tmp/ccZxeZ9e.s:21     .text:0000000000000010 .L0 
     /tmp/ccZxeZ9e.s:23     .text:0000000000000010 .L0 
     /tmp/ccZxeZ9e.s:24     .text:0000000000000010 .L0 
     /tmp/ccZxeZ9e.s:27     .text:0000000000000018 .L0 
     /tmp/ccZxeZ9e.s:28     .text:000000000000001c .L0 
     /tmp/ccZxeZ9e.s:30     .text:0000000000000020 .L0 
     /tmp/ccZxeZ9e.s:31     .text:0000000000000020 .L0 
     /tmp/ccZxeZ9e.s:33     .text:0000000000000024 .L0 
     /tmp/ccZxeZ9e.s:35     .text:0000000000000028 .L0 
     /tmp/ccZxeZ9e.s:41     .text:0000000000000028 _ZN5Riscv10initSystemEv
     /tmp/ccZxeZ9e.s:44     .text:0000000000000028 .L0 
     /tmp/ccZxeZ9e.s:45     .text:0000000000000028 .L0 
     /tmp/ccZxeZ9e.s:46     .text:000000000000002c .L0 
     /tmp/ccZxeZ9e.s:49     .text:0000000000000034 .L0 
     /tmp/ccZxeZ9e.s:50     .text:0000000000000034 .L0 
     /tmp/ccZxeZ9e.s:52     .text:0000000000000038 .L0 
     /tmp/ccZxeZ9e.s:54     .text:0000000000000038 .L0 
     /tmp/ccZxeZ9e.s:55     .text:0000000000000038 .L0 
     /tmp/ccZxeZ9e.s:61     .text:0000000000000040 .L0 
  src/../h/Riscv.hpp:118    .text:0000000000000040 .L0 
     /tmp/ccZxeZ9e.s:71     .text:0000000000000044 .L0 
     /tmp/ccZxeZ9e.s:72     .text:0000000000000044 .L0 
     /tmp/ccZxeZ9e.s:75     .text:000000000000004c .L0 
     /tmp/ccZxeZ9e.s:76     .text:000000000000004c .L0 
     /tmp/ccZxeZ9e.s:79     .text:0000000000000054 .L0 
     /tmp/ccZxeZ9e.s:80     .text:0000000000000058 .L0 
     /tmp/ccZxeZ9e.s:82     .text:000000000000005c .L0 
     /tmp/ccZxeZ9e.s:83     .text:000000000000005c .L0 
     /tmp/ccZxeZ9e.s:85     .text:0000000000000060 .L0 
     /tmp/ccZxeZ9e.s:87     .text:0000000000000064 .L0 
     /tmp/ccZxeZ9e.s:93     .text:0000000000000064 _ZN5Riscv16enableInterruptsEv
     /tmp/ccZxeZ9e.s:96     .text:0000000000000064 .L0 
     /tmp/ccZxeZ9e.s:97     .text:0000000000000064 .L0 
     /tmp/ccZxeZ9e.s:98     .text:0000000000000068 .L0 
     /tmp/ccZxeZ9e.s:100    .text:000000000000006c .L0 
     /tmp/ccZxeZ9e.s:102    .text:0000000000000070 .L0 
     /tmp/ccZxeZ9e.s:107    .text:0000000000000070 .L0 
     /tmp/ccZxeZ9e.s:108    .text:0000000000000070 .L0 
     /tmp/ccZxeZ9e.s:109    .text:0000000000000070 .L0 
     /tmp/ccZxeZ9e.s:119    .text:0000000000000078 .L0 
     /tmp/ccZxeZ9e.s:120    .text:000000000000007c .L0 
     /tmp/ccZxeZ9e.s:121    .text:000000000000007c .L0 
     /tmp/ccZxeZ9e.s:123    .text:0000000000000080 .L0 
     /tmp/ccZxeZ9e.s:125    .text:0000000000000084 .L0 
     /tmp/ccZxeZ9e.s:131    .text:0000000000000084 _ZN5Riscv17disableInterruptsEv
     /tmp/ccZxeZ9e.s:134    .text:0000000000000084 .L0 
     /tmp/ccZxeZ9e.s:135    .text:0000000000000084 .L0 
     /tmp/ccZxeZ9e.s:136    .text:0000000000000088 .L0 
     /tmp/ccZxeZ9e.s:138    .text:000000000000008c .L0 
GAS LISTING /tmp/ccZxeZ9e.s 			page 48


     /tmp/ccZxeZ9e.s:140    .text:0000000000000090 .L0 
     /tmp/ccZxeZ9e.s:145    .text:0000000000000090 .L0 
     /tmp/ccZxeZ9e.s:146    .text:0000000000000090 .L0 
     /tmp/ccZxeZ9e.s:147    .text:0000000000000090 .L0 
     /tmp/ccZxeZ9e.s:157    .text:0000000000000098 .L0 
     /tmp/ccZxeZ9e.s:158    .text:000000000000009c .L0 
     /tmp/ccZxeZ9e.s:159    .text:000000000000009c .L0 
     /tmp/ccZxeZ9e.s:161    .text:00000000000000a0 .L0 
     /tmp/ccZxeZ9e.s:163    .text:00000000000000a4 .L0 
     /tmp/ccZxeZ9e.s:169    .text:00000000000000a4 _ZN5Riscv9endSystemEv
     /tmp/ccZxeZ9e.s:172    .text:00000000000000a4 .L0 
     /tmp/ccZxeZ9e.s:173    .text:00000000000000a4 .L0 
     /tmp/ccZxeZ9e.s:174    .text:00000000000000a8 .L0 
     /tmp/ccZxeZ9e.s:177    .text:00000000000000b0 .L0 
     /tmp/ccZxeZ9e.s:178    .text:00000000000000b0 .L0 
     /tmp/ccZxeZ9e.s:180    .text:00000000000000b4 .L0 
     /tmp/ccZxeZ9e.s:182    .text:00000000000000b4 .L0 
     /tmp/ccZxeZ9e.s:183    .text:00000000000000b4 .L0 
     /tmp/ccZxeZ9e.s:186    .text:00000000000000bc .L0 
     /tmp/ccZxeZ9e.s:187    .text:00000000000000c0 .L0 
     /tmp/ccZxeZ9e.s:189    .text:00000000000000c4 .L0 
     /tmp/ccZxeZ9e.s:190    .text:00000000000000c4 .L0 
     /tmp/ccZxeZ9e.s:192    .text:00000000000000c8 .L0 
     /tmp/ccZxeZ9e.s:194    .text:00000000000000cc .L0 
     /tmp/ccZxeZ9e.s:200    .text:00000000000000cc _ZN5Riscv10popSppSpieEv
     /tmp/ccZxeZ9e.s:203    .text:00000000000000cc .L0 
     /tmp/ccZxeZ9e.s:204    .text:00000000000000cc .L0 
     /tmp/ccZxeZ9e.s:205    .text:00000000000000d0 .L0 
     /tmp/ccZxeZ9e.s:207    .text:00000000000000d4 .L0 
     /tmp/ccZxeZ9e.s:209    .text:00000000000000d8 .L0 
     /tmp/ccZxeZ9e.s:211    .text:00000000000000d8 .L0 
       src/Riscv.cpp:40     .text:00000000000000d8 .L0 
     /tmp/ccZxeZ9e.s:217    .text:00000000000000dc .L0 
       src/Riscv.cpp:41     .text:00000000000000dc .L0 
     /tmp/ccZxeZ9e.s:223    .text:00000000000000e0 .L0 
     /tmp/ccZxeZ9e.s:224    .text:00000000000000e4 .L0 
     /tmp/ccZxeZ9e.s:225    .text:00000000000000e4 .L0 
     /tmp/ccZxeZ9e.s:227    .text:00000000000000e8 .L0 
     /tmp/ccZxeZ9e.s:229    .text:00000000000000ec .L0 
     /tmp/ccZxeZ9e.s:235    .text:00000000000000ec _ZN5Riscv11printStringEPKc
     /tmp/ccZxeZ9e.s:238    .text:00000000000000ec .L0 
     /tmp/ccZxeZ9e.s:240    .text:00000000000000ec .L0 
     /tmp/ccZxeZ9e.s:241    .text:00000000000000f0 .L0 
     /tmp/ccZxeZ9e.s:246    .text:0000000000000100 .L0 
     /tmp/ccZxeZ9e.s:247    .text:0000000000000100 .L0 
     /tmp/ccZxeZ9e.s:248    .text:0000000000000100 .L0 
     /tmp/ccZxeZ9e.s:249    .text:0000000000000100 .L0 
     /tmp/ccZxeZ9e.s:251    .text:0000000000000104 .L0 
     /tmp/ccZxeZ9e.s:256    .text:0000000000000108 .L0 
     /tmp/ccZxeZ9e.s:257    .text:0000000000000108 .L0 
     /tmp/ccZxeZ9e.s:258    .text:0000000000000108 .L0 
  src/../h/Riscv.hpp:159    .text:0000000000000108 .L0 
     /tmp/ccZxeZ9e.s:266    .text:0000000000000110 .L0 
     /tmp/ccZxeZ9e.s:267    .text:0000000000000110 .L0 
     /tmp/ccZxeZ9e.s:274    .text:0000000000000114 .L0 
     /tmp/ccZxeZ9e.s:275    .text:0000000000000114 .L0 
     /tmp/ccZxeZ9e.s:276    .text:0000000000000114 .L0 
GAS LISTING /tmp/ccZxeZ9e.s 			page 49


     /tmp/ccZxeZ9e.s:287    .text:000000000000011c .L0 
     /tmp/ccZxeZ9e.s:288    .text:000000000000011c .L0 
     /tmp/ccZxeZ9e.s:289    .text:000000000000011c .L0 
     /tmp/ccZxeZ9e.s:291    .text:0000000000000120 .L0 
     /tmp/ccZxeZ9e.s:293    .text:0000000000000124 .L0 
     /tmp/ccZxeZ9e.s:294    .text:0000000000000124 .L0 
     /tmp/ccZxeZ9e.s:297    .text:000000000000012c .L0 
     /tmp/ccZxeZ9e.s:298    .text:000000000000012c .L0 
     /tmp/ccZxeZ9e.s:301    .text:0000000000000130 .L0 
     /tmp/ccZxeZ9e.s:304    .text:0000000000000134 .L0 
     /tmp/ccZxeZ9e.s:305    .text:0000000000000134 .L0 
     /tmp/ccZxeZ9e.s:308    .text:0000000000000138 .L0 
     /tmp/ccZxeZ9e.s:314    .text:0000000000000140 .L0 
  src/../h/Riscv.hpp:150    .text:0000000000000140 .L0 
     /tmp/ccZxeZ9e.s:324    .text:0000000000000144 .L0 
     /tmp/ccZxeZ9e.s:325    .text:0000000000000148 .L0 
     /tmp/ccZxeZ9e.s:327    .text:000000000000014c .L0 
     /tmp/ccZxeZ9e.s:328    .text:000000000000014c .L0 
     /tmp/ccZxeZ9e.s:330    .text:0000000000000150 .L0 
     /tmp/ccZxeZ9e.s:333    .text:0000000000000154 .L0 
     /tmp/ccZxeZ9e.s:335    .text:0000000000000158 .L0 
     /tmp/ccZxeZ9e.s:337    .text:000000000000015c .L0 
     /tmp/ccZxeZ9e.s:343    .text:000000000000015c _ZN5Riscv12printIntegerEm
     /tmp/ccZxeZ9e.s:346    .text:000000000000015c .L0 
     /tmp/ccZxeZ9e.s:348    .text:000000000000015c .L0 
     /tmp/ccZxeZ9e.s:349    .text:0000000000000160 .L0 
     /tmp/ccZxeZ9e.s:354    .text:0000000000000170 .L0 
     /tmp/ccZxeZ9e.s:355    .text:0000000000000170 .L0 
     /tmp/ccZxeZ9e.s:356    .text:0000000000000170 .L0 
     /tmp/ccZxeZ9e.s:357    .text:0000000000000170 .L0 
     /tmp/ccZxeZ9e.s:359    .text:0000000000000174 .L0 
     /tmp/ccZxeZ9e.s:363    .text:0000000000000174 .L0 
     /tmp/ccZxeZ9e.s:364    .text:0000000000000174 .L0 
     /tmp/ccZxeZ9e.s:365    .text:0000000000000174 .L0 
  src/../h/Riscv.hpp:159    .text:0000000000000174 .L0 
     /tmp/ccZxeZ9e.s:373    .text:000000000000017c .L0 
     /tmp/ccZxeZ9e.s:374    .text:000000000000017c .L0 
     /tmp/ccZxeZ9e.s:381    .text:0000000000000180 .L0 
     /tmp/ccZxeZ9e.s:382    .text:0000000000000180 .L0 
     /tmp/ccZxeZ9e.s:383    .text:0000000000000180 .L0 
     /tmp/ccZxeZ9e.s:393    .text:0000000000000188 .L0 
     /tmp/ccZxeZ9e.s:394    .text:0000000000000188 .L0 
     /tmp/ccZxeZ9e.s:395    .text:0000000000000188 .L0 
     /tmp/ccZxeZ9e.s:396    .text:0000000000000188 .L0 
     /tmp/ccZxeZ9e.s:397    .text:0000000000000188 .L0 
     /tmp/ccZxeZ9e.s:398    .text:0000000000000188 .L0 
     /tmp/ccZxeZ9e.s:399    .text:0000000000000188 .L0 
     /tmp/ccZxeZ9e.s:400    .text:0000000000000188 .L0 
     /tmp/ccZxeZ9e.s:403    .text:000000000000018c .L0 
     /tmp/ccZxeZ9e.s:404    .text:000000000000018c .L0 
     /tmp/ccZxeZ9e.s:408    .text:0000000000000190 .L0 
     /tmp/ccZxeZ9e.s:409    .text:0000000000000190 .L0 
     /tmp/ccZxeZ9e.s:410    .text:0000000000000190 .L0 
     /tmp/ccZxeZ9e.s:414    .text:0000000000000198 .L0 
     /tmp/ccZxeZ9e.s:420    .text:00000000000001b0 .L0 
     /tmp/ccZxeZ9e.s:426    .text:00000000000001c0 .L0 
     /tmp/ccZxeZ9e.s:428    .text:00000000000001c4 .L0 
GAS LISTING /tmp/ccZxeZ9e.s 			page 50


     /tmp/ccZxeZ9e.s:431    .text:00000000000001c8 .L0 
     /tmp/ccZxeZ9e.s:436    .text:00000000000001d0 .L0 
     /tmp/ccZxeZ9e.s:437    .text:00000000000001d0 .L0 
     /tmp/ccZxeZ9e.s:441    .text:00000000000001d8 .L0 
     /tmp/ccZxeZ9e.s:442    .text:00000000000001d8 .L0 
     /tmp/ccZxeZ9e.s:450    .text:00000000000001f0 .L0 
     /tmp/ccZxeZ9e.s:451    .text:00000000000001f0 .L0 
     /tmp/ccZxeZ9e.s:455    .text:00000000000001fc .L0 
     /tmp/ccZxeZ9e.s:456    .text:00000000000001fc .L0 
     /tmp/ccZxeZ9e.s:459    .text:0000000000000200 .L0 
     /tmp/ccZxeZ9e.s:465    .text:0000000000000208 .L0 
  src/../h/Riscv.hpp:150    .text:0000000000000208 .L0 
     /tmp/ccZxeZ9e.s:475    .text:000000000000020c .L0 
     /tmp/ccZxeZ9e.s:476    .text:0000000000000210 .L0 
     /tmp/ccZxeZ9e.s:478    .text:0000000000000214 .L0 
     /tmp/ccZxeZ9e.s:479    .text:0000000000000214 .L0 
     /tmp/ccZxeZ9e.s:481    .text:0000000000000218 .L0 
     /tmp/ccZxeZ9e.s:483    .text:000000000000021c .L0 
     /tmp/ccZxeZ9e.s:485    .text:0000000000000220 .L0 
     /tmp/ccZxeZ9e.s:487    .text:0000000000000224 .L0 
     /tmp/ccZxeZ9e.s:498    .text:0000000000000224 _ZN5Riscv20handleSupervisorTrapEv
     /tmp/ccZxeZ9e.s:501    .text:0000000000000224 .L0 
     /tmp/ccZxeZ9e.s:6779   .data.rel.local.DW.ref.__gxx_personality_v0:0000000000000000 DW.ref.__gxx_personality_v0
     /tmp/ccZxeZ9e.s:504    .text:0000000000000224 .L0 
     /tmp/ccZxeZ9e.s:505    .text:0000000000000228 .L0 
     /tmp/ccZxeZ9e.s:513    .text:0000000000000244 .L0 
     /tmp/ccZxeZ9e.s:514    .text:0000000000000244 .L0 
     /tmp/ccZxeZ9e.s:515    .text:0000000000000244 .L0 
     /tmp/ccZxeZ9e.s:516    .text:0000000000000244 .L0 
     /tmp/ccZxeZ9e.s:517    .text:0000000000000244 .L0 
     /tmp/ccZxeZ9e.s:518    .text:0000000000000244 .L0 
     /tmp/ccZxeZ9e.s:519    .text:0000000000000244 .L0 
     /tmp/ccZxeZ9e.s:521    .text:0000000000000248 .L0 
     /tmp/ccZxeZ9e.s:523    .text:0000000000000248 .L0 
     /tmp/ccZxeZ9e.s:524    .text:0000000000000248 .L0 
       src/Riscv.cpp:93     .text:0000000000000248 .L0 
     /tmp/ccZxeZ9e.s:534    .text:000000000000024c .L0 
     /tmp/ccZxeZ9e.s:535    .text:000000000000024c .L0 
     /tmp/ccZxeZ9e.s:536    .text:000000000000024c .L0 
  src/../h/Riscv.hpp:93     .text:000000000000024c .L0 
     /tmp/ccZxeZ9e.s:544    .text:0000000000000254 .L0 
     /tmp/ccZxeZ9e.s:545    .text:0000000000000254 .L0 
     /tmp/ccZxeZ9e.s:551    .text:0000000000000258 .L0 
     /tmp/ccZxeZ9e.s:565    .text:0000000000000284 .L0 
     /tmp/ccZxeZ9e.s:566    .text:0000000000000284 .L0 
     /tmp/ccZxeZ9e.s:567    .text:0000000000000284 .L0 
     /tmp/ccZxeZ9e.s:568    .text:0000000000000284 .L0 
       src/Riscv.cpp:144    .text:0000000000000284 .L0 
     /tmp/ccZxeZ9e.s:578    .text:0000000000000288 .L0 
     /tmp/ccZxeZ9e.s:579    .text:0000000000000288 .L0 
     /tmp/ccZxeZ9e.s:580    .text:0000000000000288 .L0 
  src/../h/Riscv.hpp:103    .text:0000000000000288 .L0 
     /tmp/ccZxeZ9e.s:588    .text:0000000000000290 .L0 
     /tmp/ccZxeZ9e.s:589    .text:0000000000000290 .L0 
     /tmp/ccZxeZ9e.s:593    .text:0000000000000294 .L0 
     /tmp/ccZxeZ9e.s:595    .text:0000000000000298 .L0 
     /tmp/ccZxeZ9e.s:596    .text:0000000000000298 .L0 
GAS LISTING /tmp/ccZxeZ9e.s 			page 51


     /tmp/ccZxeZ9e.s:601    .text:00000000000002a4 .L0 
     /tmp/ccZxeZ9e.s:611    .text:00000000000002ac .L0 
     /tmp/ccZxeZ9e.s:623    .text:00000000000002b4 .L0 
     /tmp/ccZxeZ9e.s:637    .text:00000000000002bc .L0 
     /tmp/ccZxeZ9e.s:653    .text:00000000000002c4 .L0 
     /tmp/ccZxeZ9e.s:671    .text:00000000000002cc .L0 
     /tmp/ccZxeZ9e.s:691    .text:00000000000002d4 .L0 
     /tmp/ccZxeZ9e.s:713    .text:00000000000002dc .L0 
     /tmp/ccZxeZ9e.s:737    .text:00000000000002e4 .L0 
     /tmp/ccZxeZ9e.s:763    .text:00000000000002ec .L0 
     /tmp/ccZxeZ9e.s:767    .text:00000000000002f4 .L0 
     /tmp/ccZxeZ9e.s:768    .text:00000000000002f4 .L0 
       src/Riscv.cpp:250    .text:00000000000002f4 .L0 
     /tmp/ccZxeZ9e.s:775    .text:00000000000002f8 .L0 
     /tmp/ccZxeZ9e.s:777    .text:00000000000002f8 .L0 
     /tmp/ccZxeZ9e.s:779    .text:00000000000002fc .L0 
     /tmp/ccZxeZ9e.s:788    .text:0000000000000314 .L0 
       src/Riscv.cpp:252    .text:0000000000000314 .L0 
     /tmp/ccZxeZ9e.s:810    .text:000000000000031c .L0 
     /tmp/ccZxeZ9e.s:816    .text:000000000000032c .L0 
     /tmp/ccZxeZ9e.s:817    .text:000000000000032c .L0 
     /tmp/ccZxeZ9e.s:818    .text:000000000000032c .L0 
     /tmp/ccZxeZ9e.s:824    .text:0000000000000334 .L0 
     /tmp/ccZxeZ9e.s:825    .text:0000000000000334 .L0 
     /tmp/ccZxeZ9e.s:826    .text:0000000000000338 .L0 
     /tmp/ccZxeZ9e.s:827    .text:0000000000000338 .L0 
     /tmp/ccZxeZ9e.s:829    .text:000000000000033c .L0 
     /tmp/ccZxeZ9e.s:830    .text:000000000000033c .L0 
     /tmp/ccZxeZ9e.s:832    .text:0000000000000340 .L0 
     /tmp/ccZxeZ9e.s:834    .text:0000000000000344 .L0 
     /tmp/ccZxeZ9e.s:836    .text:0000000000000348 .L0 
     /tmp/ccZxeZ9e.s:838    .text:000000000000034c .L0 
     /tmp/ccZxeZ9e.s:840    .text:0000000000000350 .L0 
     /tmp/ccZxeZ9e.s:842    .text:0000000000000354 .L0 
     /tmp/ccZxeZ9e.s:846    .text:0000000000000358 .L0 
     /tmp/ccZxeZ9e.s:850    .text:0000000000000358 .L0 
     /tmp/ccZxeZ9e.s:853    .text:0000000000000358 .L0 
     /tmp/ccZxeZ9e.s:854    .text:0000000000000358 .L0 
     /tmp/ccZxeZ9e.s:855    .text:0000000000000358 .L0 
     /tmp/ccZxeZ9e.s:866    .text:0000000000000360 .L0 
     /tmp/ccZxeZ9e.s:867    .text:0000000000000360 .L0 
     /tmp/ccZxeZ9e.s:868    .text:0000000000000360 .L0 
     /tmp/ccZxeZ9e.s:873    .text:0000000000000374 .L0 
     /tmp/ccZxeZ9e.s:874    .text:0000000000000374 .L0 
     /tmp/ccZxeZ9e.s:880    .text:0000000000000388 .L0 
     /tmp/ccZxeZ9e.s:881    .text:0000000000000388 .L0 
     /tmp/ccZxeZ9e.s:885    .text:0000000000000390 .L0 
     /tmp/ccZxeZ9e.s:886    .text:0000000000000390 .L0 
     /tmp/ccZxeZ9e.s:893    .text:000000000000039c .L0 
     /tmp/ccZxeZ9e.s:894    .text:000000000000039c .L0 
     /tmp/ccZxeZ9e.s:899    .text:00000000000003a0 .L0 
     /tmp/ccZxeZ9e.s:901    .text:00000000000003a4 .L0 
     /tmp/ccZxeZ9e.s:906    .text:00000000000003a8 .L0 
     /tmp/ccZxeZ9e.s:907    .text:00000000000003a8 .L0 
     /tmp/ccZxeZ9e.s:908    .text:00000000000003a8 .L0 
  src/../h/Riscv.hpp:103    .text:00000000000003a8 .L0 
     /tmp/ccZxeZ9e.s:916    .text:00000000000003b0 .L0 
GAS LISTING /tmp/ccZxeZ9e.s 			page 52


     /tmp/ccZxeZ9e.s:917    .text:00000000000003b0 .L0 
     /tmp/ccZxeZ9e.s:921    .text:00000000000003b4 .L0 
     /tmp/ccZxeZ9e.s:925    .text:00000000000003b8 .L0 
     /tmp/ccZxeZ9e.s:926    .text:00000000000003b8 .L0 
     /tmp/ccZxeZ9e.s:927    .text:00000000000003b8 .L0 
  src/../h/Riscv.hpp:159    .text:00000000000003b8 .L0 
     /tmp/ccZxeZ9e.s:935    .text:00000000000003c0 .L0 
     /tmp/ccZxeZ9e.s:936    .text:00000000000003c0 .L0 
     /tmp/ccZxeZ9e.s:940    .text:00000000000003c4 .L0 
     /tmp/ccZxeZ9e.s:942    .text:00000000000003c8 .L0 
     /tmp/ccZxeZ9e.s:943    .text:00000000000003c8 .L0 
     /tmp/ccZxeZ9e.s:945    .text:00000000000003cc .L0 
     /tmp/ccZxeZ9e.s:946    .text:00000000000003cc .L0 
     /tmp/ccZxeZ9e.s:949    .text:00000000000003d4 .L0 
     /tmp/ccZxeZ9e.s:950    .text:00000000000003d4 .L0 
     /tmp/ccZxeZ9e.s:955    .text:00000000000003d8 .L0 
  src/../h/Riscv.hpp:164    .text:00000000000003d8 .L0 
     /tmp/ccZxeZ9e.s:965    .text:00000000000003dc .L0 
     /tmp/ccZxeZ9e.s:966    .text:00000000000003dc .L0 
     /tmp/ccZxeZ9e.s:971    .text:00000000000003e0 .L0 
  src/../h/Riscv.hpp:108    .text:00000000000003e0 .L0 
     /tmp/ccZxeZ9e.s:978    .text:00000000000003e4 .L0 
     /tmp/ccZxeZ9e.s:988    .text:00000000000003e8 .L0 
     /tmp/ccZxeZ9e.s:989    .text:00000000000003e8 .L0 
       src/Riscv.cpp:152    .text:00000000000003e8 .L0 
     /tmp/ccZxeZ9e.s:996    .text:00000000000003ec .L0 
     /tmp/ccZxeZ9e.s:997    .text:00000000000003ec .L0 
     /tmp/ccZxeZ9e.s:999    .text:00000000000003ec .L0 
     /tmp/ccZxeZ9e.s:1004   .text:00000000000003f8 .L0 
       src/Riscv.cpp:155    .text:00000000000003f8 .L0 
     /tmp/ccZxeZ9e.s:1015   .text:00000000000003fc .L0 
     /tmp/ccZxeZ9e.s:1016   .text:00000000000003fc .L0 
     /tmp/ccZxeZ9e.s:1021   .text:0000000000000400 .L0 
  src/../h/Riscv.hpp:108    .text:0000000000000400 .L0 
     /tmp/ccZxeZ9e.s:1029   .text:0000000000000404 .L0 
     /tmp/ccZxeZ9e.s:1038   .text:0000000000000408 .L0 
     /tmp/ccZxeZ9e.s:1039   .text:0000000000000408 .L0 
       src/Riscv.cpp:160    .text:0000000000000408 .L0 
     /tmp/ccZxeZ9e.s:1046   .text:000000000000040c .L0 
     /tmp/ccZxeZ9e.s:1048   .text:000000000000040c .L0 
     /tmp/ccZxeZ9e.s:1051   .text:0000000000000414 .L0 
       src/Riscv.cpp:162    .text:0000000000000414 .L0 
     /tmp/ccZxeZ9e.s:1064   .text:000000000000041c .L0 
     /tmp/ccZxeZ9e.s:1065   .text:000000000000041c .L0 
     /tmp/ccZxeZ9e.s:1066   .text:000000000000041c .L0 
     /tmp/ccZxeZ9e.s:1067   .text:000000000000041c .L0 
       src/Riscv.cpp:169    .text:000000000000041c .L0 
     /tmp/ccZxeZ9e.s:1074   .text:0000000000000420 .L0 
       src/Riscv.cpp:170    .text:0000000000000420 .L0 
     /tmp/ccZxeZ9e.s:1080   .text:0000000000000424 .L0 
       src/Riscv.cpp:171    .text:0000000000000424 .L0 
     /tmp/ccZxeZ9e.s:1086   .text:0000000000000428 .L0 
     /tmp/ccZxeZ9e.s:1088   .text:0000000000000428 .L0 
     /tmp/ccZxeZ9e.s:1102   .text:0000000000000450 .L0 
     /tmp/ccZxeZ9e.s:1103   .text:0000000000000450 .L0 
     /tmp/ccZxeZ9e.s:1105   .text:0000000000000454 .L0 
     /tmp/ccZxeZ9e.s:1107   .text:0000000000000458 .L0 
GAS LISTING /tmp/ccZxeZ9e.s 			page 53


       src/Riscv.cpp:183    .text:0000000000000458 .L0 
     /tmp/ccZxeZ9e.s:1116   .text:0000000000000460 .L0 
       src/Riscv.cpp:181    .text:0000000000000460 .L0 
     /tmp/ccZxeZ9e.s:1131   .text:0000000000000468 .L0 
     /tmp/ccZxeZ9e.s:1132   .text:0000000000000468 .L0 
     /tmp/ccZxeZ9e.s:1133   .text:0000000000000468 .L0 
  src/../h/Riscv.hpp:159    .text:0000000000000468 .L0 
     /tmp/ccZxeZ9e.s:1142   .text:0000000000000470 .L0 
     /tmp/ccZxeZ9e.s:1143   .text:0000000000000470 .L0 
     /tmp/ccZxeZ9e.s:1147   .text:0000000000000474 .L0 
     /tmp/ccZxeZ9e.s:1149   .text:0000000000000478 .L0 
     /tmp/ccZxeZ9e.s:1150   .text:0000000000000478 .L0 
     /tmp/ccZxeZ9e.s:1154   .text:0000000000000484 .L0 
     /tmp/ccZxeZ9e.s:1155   .text:0000000000000484 .L0 
     /tmp/ccZxeZ9e.s:1158   .text:000000000000048c .L0 
     /tmp/ccZxeZ9e.s:1159   .text:000000000000048c .L0 
     /tmp/ccZxeZ9e.s:1164   .text:0000000000000490 .L0 
  src/../h/Riscv.hpp:164    .text:0000000000000490 .L0 
     /tmp/ccZxeZ9e.s:1171   .text:0000000000000494 .L0 
     /tmp/ccZxeZ9e.s:1180   .text:0000000000000498 .L0 
     /tmp/ccZxeZ9e.s:1181   .text:0000000000000498 .L0 
     /tmp/ccZxeZ9e.s:1187   .text:00000000000004a8 .L0 
     /tmp/ccZxeZ9e.s:1188   .text:00000000000004a8 .L0 
     /tmp/ccZxeZ9e.s:1189   .text:00000000000004a8 .L0 
  src/../h/Riscv.hpp:159    .text:00000000000004a8 .L0 
     /tmp/ccZxeZ9e.s:1197   .text:00000000000004b0 .L0 
     /tmp/ccZxeZ9e.s:1198   .text:00000000000004b0 .L0 
     /tmp/ccZxeZ9e.s:1202   .text:00000000000004b4 .L0 
     /tmp/ccZxeZ9e.s:1204   .text:00000000000004b8 .L0 
     /tmp/ccZxeZ9e.s:1205   .text:00000000000004b8 .L0 
     /tmp/ccZxeZ9e.s:1208   .text:00000000000004c4 .L0 
     /tmp/ccZxeZ9e.s:1209   .text:00000000000004c4 .L0 
     /tmp/ccZxeZ9e.s:1215   .text:00000000000004d0 .L0 
     /tmp/ccZxeZ9e.s:1216   .text:00000000000004d0 .L0 
     /tmp/ccZxeZ9e.s:1222   .text:00000000000004d8 .L0 
     /tmp/ccZxeZ9e.s:1223   .text:00000000000004d8 .L0 
     /tmp/ccZxeZ9e.s:1226   .text:00000000000004e0 .L0 
     /tmp/ccZxeZ9e.s:1227   .text:00000000000004e0 .L0 
     /tmp/ccZxeZ9e.s:1232   .text:00000000000004e4 .L0 
  src/../h/Riscv.hpp:164    .text:00000000000004e4 .L0 
     /tmp/ccZxeZ9e.s:1242   .text:00000000000004e8 .L0 
       src/Riscv.cpp:200    .text:00000000000004e8 .L0 
     /tmp/ccZxeZ9e.s:1255   .text:00000000000004f0 .L0 
     /tmp/ccZxeZ9e.s:1256   .text:00000000000004f0 .L0 
       src/Riscv.cpp:205    .text:00000000000004f0 .L0 
     /tmp/ccZxeZ9e.s:1266   .text:00000000000004f4 .L0 
     /tmp/ccZxeZ9e.s:1267   .text:00000000000004f4 .L0 
     /tmp/ccZxeZ9e.s:1268   .text:00000000000004f4 .L0 
  src/../h/Riscv.hpp:159    .text:00000000000004f4 .L0 
     /tmp/ccZxeZ9e.s:1277   .text:00000000000004fc .L0 
     /tmp/ccZxeZ9e.s:1278   .text:00000000000004fc .L0 
     /tmp/ccZxeZ9e.s:1282   .text:0000000000000500 .L0 
     /tmp/ccZxeZ9e.s:1284   .text:0000000000000504 .L0 
     /tmp/ccZxeZ9e.s:1285   .text:0000000000000504 .L0 
     /tmp/ccZxeZ9e.s:1288   .text:0000000000000510 .L0 
     /tmp/ccZxeZ9e.s:1289   .text:0000000000000510 .L0 
     /tmp/ccZxeZ9e.s:1295   .text:000000000000051c .L0 
GAS LISTING /tmp/ccZxeZ9e.s 			page 54


     /tmp/ccZxeZ9e.s:1296   .text:000000000000051c .L0 
     /tmp/ccZxeZ9e.s:1301   .text:0000000000000520 .L0 
     /tmp/ccZxeZ9e.s:1302   .text:0000000000000520 .L0 
     /tmp/ccZxeZ9e.s:1305   .text:0000000000000528 .L0 
     /tmp/ccZxeZ9e.s:1306   .text:0000000000000528 .L0 
     /tmp/ccZxeZ9e.s:1309   .text:0000000000000530 .L0 
     /tmp/ccZxeZ9e.s:1310   .text:0000000000000530 .L0 
     /tmp/ccZxeZ9e.s:1315   .text:0000000000000534 .L0 
  src/../h/Riscv.hpp:164    .text:0000000000000534 .L0 
     /tmp/ccZxeZ9e.s:1325   .text:0000000000000538 .L0 
       src/Riscv.cpp:212    .text:0000000000000538 .L0 
     /tmp/ccZxeZ9e.s:1338   .text:0000000000000540 .L0 
     /tmp/ccZxeZ9e.s:1339   .text:0000000000000540 .L0 
     /tmp/ccZxeZ9e.s:1340   .text:0000000000000540 .L0 
       src/Riscv.cpp:218    .text:0000000000000540 .L0 
     /tmp/ccZxeZ9e.s:1347   .text:0000000000000544 .L0 
       src/Riscv.cpp:219    .text:0000000000000544 .L0 
     /tmp/ccZxeZ9e.s:1353   .text:0000000000000548 .L0 
     /tmp/ccZxeZ9e.s:1355   .text:0000000000000548 .L0 
     /tmp/ccZxeZ9e.s:1367   .text:0000000000000564 .L0 
     /tmp/ccZxeZ9e.s:1368   .text:0000000000000564 .L0 
     /tmp/ccZxeZ9e.s:1370   .text:0000000000000568 .L0 
     /tmp/ccZxeZ9e.s:1372   .text:000000000000056c .L0 
       src/Riscv.cpp:228    .text:000000000000056c .L0 
     /tmp/ccZxeZ9e.s:1381   .text:0000000000000574 .L0 
       src/Riscv.cpp:226    .text:0000000000000574 .L0 
     /tmp/ccZxeZ9e.s:1396   .text:000000000000057c .L0 
     /tmp/ccZxeZ9e.s:1397   .text:000000000000057c .L0 
     /tmp/ccZxeZ9e.s:1398   .text:000000000000057c .L0 
  src/../h/Riscv.hpp:159    .text:000000000000057c .L0 
     /tmp/ccZxeZ9e.s:1407   .text:0000000000000584 .L0 
     /tmp/ccZxeZ9e.s:1408   .text:0000000000000584 .L0 
     /tmp/ccZxeZ9e.s:1412   .text:0000000000000588 .L0 
     /tmp/ccZxeZ9e.s:1414   .text:000000000000058c .L0 
     /tmp/ccZxeZ9e.s:1415   .text:000000000000058c .L0 
       src/Riscv.cpp:235    .text:000000000000058c .L0 
     /tmp/ccZxeZ9e.s:1423   .text:0000000000000590 .L0 
     /tmp/ccZxeZ9e.s:1425   .text:0000000000000590 .L0 
     /tmp/ccZxeZ9e.s:1428   .text:0000000000000598 .L0 
     /tmp/ccZxeZ9e.s:1430   .text:000000000000059c .L0 
     /tmp/ccZxeZ9e.s:1431   .text:000000000000059c .L0 
     /tmp/ccZxeZ9e.s:1436   .text:00000000000005a0 .L0 
  src/../h/Riscv.hpp:164    .text:00000000000005a0 .L0 
     /tmp/ccZxeZ9e.s:1446   .text:00000000000005a4 .L0 
     /tmp/ccZxeZ9e.s:1447   .text:00000000000005a4 .L0 
       src/Riscv.cpp:238    .text:00000000000005a8 .L0 
     /tmp/ccZxeZ9e.s:1461   .text:00000000000005b0 .L0 
     /tmp/ccZxeZ9e.s:1462   .text:00000000000005b0 .L0 
       src/Riscv.cpp:243    .text:00000000000005b0 .L0 
     /tmp/ccZxeZ9e.s:1469   .text:00000000000005b4 .L0 
     /tmp/ccZxeZ9e.s:1471   .text:00000000000005b4 .L0 
     /tmp/ccZxeZ9e.s:1475   .text:00000000000005bc .L0 
     /tmp/ccZxeZ9e.s:1477   .text:00000000000005c0 .L0 
     /tmp/ccZxeZ9e.s:1478   .text:00000000000005c0 .L0 
       src/Riscv.cpp:245    .text:00000000000005c4 .L0 
     /tmp/ccZxeZ9e.s:1499   .text:00000000000005d0 .L0 
     /tmp/ccZxeZ9e.s:1517   .text:00000000000005ec .L0 
GAS LISTING /tmp/ccZxeZ9e.s 			page 55


     /tmp/ccZxeZ9e.s:1535   .text:0000000000000604 .L0 
     /tmp/ccZxeZ9e.s:1582   .text:0000000000000604 _ZN5Riscv10kernelMainEv
     /tmp/ccZxeZ9e.s:1585   .text:0000000000000604 .L0 
     /tmp/ccZxeZ9e.s:1588   .text:0000000000000604 .L0 
     /tmp/ccZxeZ9e.s:1589   .text:0000000000000608 .L0 
     /tmp/ccZxeZ9e.s:1594   .text:0000000000000618 .L0 
     /tmp/ccZxeZ9e.s:1595   .text:0000000000000618 .L0 
     /tmp/ccZxeZ9e.s:1596   .text:0000000000000618 .L0 
     /tmp/ccZxeZ9e.s:1597   .text:0000000000000618 .L0 
     /tmp/ccZxeZ9e.s:1599   .text:000000000000061c .L0 
     /tmp/ccZxeZ9e.s:1602   .text:000000000000061c .L0 
     /tmp/ccZxeZ9e.s:1603   .text:000000000000061c .L0 
     /tmp/ccZxeZ9e.s:1606   .text:0000000000000624 .L0 
     /tmp/ccZxeZ9e.s:1607   .text:0000000000000624 .L0 
     /tmp/ccZxeZ9e.s:1610   .text:000000000000062c .L0 
     /tmp/ccZxeZ9e.s:1611   .text:000000000000062c .L0 
     /tmp/ccZxeZ9e.s:1616   .text:000000000000063c .L0 
     /tmp/ccZxeZ9e.s:1631   .text:0000000000000668 .L0 
     /tmp/ccZxeZ9e.s:1634   .text:0000000000000668 .L0 
     /tmp/ccZxeZ9e.s:1635   .text:0000000000000668 .L0 
     /tmp/ccZxeZ9e.s:1636   .text:0000000000000668 .L0 
     /tmp/ccZxeZ9e.s:1641   .text:000000000000066c .L0 
     /tmp/ccZxeZ9e.s:1645   .text:0000000000000674 .L0 
     /tmp/ccZxeZ9e.s:1646   .text:0000000000000674 .L0 
     /tmp/ccZxeZ9e.s:1649   .text:000000000000067c .L0 
     /tmp/ccZxeZ9e.s:1652   .text:0000000000000680 .L0 
     /tmp/ccZxeZ9e.s:1653   .text:0000000000000680 .L0 
     /tmp/ccZxeZ9e.s:1656   .text:0000000000000688 .L0 
     /tmp/ccZxeZ9e.s:1657   .text:0000000000000688 .L0 
     /tmp/ccZxeZ9e.s:1660   .text:0000000000000690 .L0 
     /tmp/ccZxeZ9e.s:1661   .text:0000000000000690 .L0 
     /tmp/ccZxeZ9e.s:1666   .text:00000000000006a0 .L0 
     /tmp/ccZxeZ9e.s:1667   .text:00000000000006a4 .L0 
     /tmp/ccZxeZ9e.s:1668   .text:00000000000006a4 .L0 
     /tmp/ccZxeZ9e.s:1670   .text:00000000000006a8 .L0 
     /tmp/ccZxeZ9e.s:1671   .text:00000000000006a8 .L0 
     /tmp/ccZxeZ9e.s:1673   .text:00000000000006ac .L0 
     /tmp/ccZxeZ9e.s:1675   .text:00000000000006b0 .L0 
     /tmp/ccZxeZ9e.s:1677   .text:00000000000006b4 .L0 
     /tmp/ccZxeZ9e.s:1680   .text:00000000000006b8 .L0 
     /tmp/ccZxeZ9e.s:1683   .text:00000000000006bc .L0 
     /tmp/ccZxeZ9e.s:1691   .text:00000000000006d4 .L0 
     /tmp/ccZxeZ9e.s:1719   .rodata:0000000000000000 .LANCHOR0
     /tmp/ccZxeZ9e.s:1722   .rodata:0000000000000000 _ZZN5Riscv12printIntegerEmE6digits
     /tmp/ccZxeZ9e.s:1726   .bss:0000000000000000 .LANCHOR1
     /tmp/ccZxeZ9e.s:1729   .bss:0000000000000000 _ZZN5Riscv20handleSupervisorTrapEvE5total
     /tmp/ccZxeZ9e.s:1741   .text:00000000000006d4 .L0 
     /tmp/ccZxeZ9e.s:55     .text:0000000000000038 .L0 
     /tmp/ccZxeZ9e.s:416    .text:00000000000001a0 .L0 
     /tmp/ccZxeZ9e.s:868    .text:0000000000000360 .L0 
     /tmp/ccZxeZ9e.s:874    .text:0000000000000374 .L0 
     /tmp/ccZxeZ9e.s:886    .text:0000000000000390 .L0 
     /tmp/ccZxeZ9e.s:1150   .text:0000000000000478 .L0 
     /tmp/ccZxeZ9e.s:492    .rodata.str1.8:0000000000000000 .LC0
     /tmp/ccZxeZ9e.s:1181   .text:0000000000000498 .L0 
     /tmp/ccZxeZ9e.s:1205   .text:00000000000004b8 .L0 
     /tmp/ccZxeZ9e.s:1209   .text:00000000000004c4 .L0 
GAS LISTING /tmp/ccZxeZ9e.s 			page 56


     /tmp/ccZxeZ9e.s:1285   .text:0000000000000504 .L0 
     /tmp/ccZxeZ9e.s:1289   .text:0000000000000510 .L0 
     /tmp/ccZxeZ9e.s:1624   .text:0000000000000658 .L0 
     /tmp/ccZxeZ9e.s:1576   .rodata.str1.8:0000000000000018 .LC1
     /tmp/ccZxeZ9e.s:1661   .text:0000000000000690 .L0 
     /tmp/ccZxeZ9e.s:302    .text:0000000000000134 .L14
     /tmp/ccZxeZ9e.s:283    .text:000000000000011c .L15
     /tmp/ccZxeZ9e.s:406    .text:0000000000000190 .L18
     /tmp/ccZxeZ9e.s:448    .text:00000000000001f0 .L19
     /tmp/ccZxeZ9e.s:434    .text:00000000000001d0 .L20
     /tmp/ccZxeZ9e.s:845    .text:0000000000000358 .L23
     /tmp/ccZxeZ9e.s:797    .text:000000000000031c .L24
     /tmp/ccZxeZ9e.s:821    .text:0000000000000334 .L22
     /tmp/ccZxeZ9e.s:980    .text:00000000000003e8 .L47
     /tmp/ccZxeZ9e.s:1031   .text:0000000000000408 .L48
     /tmp/ccZxeZ9e.s:1060   .text:000000000000041c .L49
     /tmp/ccZxeZ9e.s:1124   .text:0000000000000468 .L50
     /tmp/ccZxeZ9e.s:1173   .text:0000000000000498 .L51
     /tmp/ccZxeZ9e.s:1251   .text:00000000000004f0 .L52
     /tmp/ccZxeZ9e.s:1334   .text:0000000000000540 .L53
     /tmp/ccZxeZ9e.s:1389   .text:000000000000057c .L54
     /tmp/ccZxeZ9e.s:1457   .text:00000000000005b0 .L55
     /tmp/ccZxeZ9e.s:1011   .text:00000000000003fc .L29
     /tmp/ccZxeZ9e.s:786    .text:0000000000000314 .L40
     /tmp/ccZxeZ9e.s:1114   .text:0000000000000460 .L56
     /tmp/ccZxeZ9e.s:1379   .text:0000000000000574 .L57
     /tmp/ccZxeZ9e.s:1650   .text:0000000000000680 .L59
     /tmp/ccZxeZ9e.s:1629   .text:0000000000000668 .L60
     /tmp/ccZxeZ9e.s:783    .text:000000000000030c .LEHB0
     /tmp/ccZxeZ9e.s:499    .text:0000000000000224 .LFB32
     /tmp/ccZxeZ9e.s:1091   .text:0000000000000434 .LEHE0
     /tmp/ccZxeZ9e.s:1097   .text:0000000000000448 .LEHB1
     /tmp/ccZxeZ9e.s:1100   .text:0000000000000450 .LEHE1
     /tmp/ccZxeZ9e.s:1488   .text:00000000000005cc .L43
     /tmp/ccZxeZ9e.s:1153   .text:0000000000000484 .LEHB2
     /tmp/ccZxeZ9e.s:1358   .text:0000000000000554 .LEHE2
     /tmp/ccZxeZ9e.s:1362   .text:000000000000055c .LEHB3
     /tmp/ccZxeZ9e.s:1365   .text:0000000000000564 .LEHE3
     /tmp/ccZxeZ9e.s:1507   .text:00000000000005e8 .L44
     /tmp/ccZxeZ9e.s:1422   .text:0000000000000590 .LEHB4
     /tmp/ccZxeZ9e.s:1473   .text:00000000000005bc .LEHE4
     /tmp/ccZxeZ9e.s:1503   .text:00000000000005e0 .LEHB5
     /tmp/ccZxeZ9e.s:1506   .text:00000000000005e8 .LEHE5
     /tmp/ccZxeZ9e.s:1521   .text:00000000000005fc .LEHB6
     /tmp/ccZxeZ9e.s:1524   .text:0000000000000604 .LEHE6
     /tmp/ccZxeZ9e.s:1601   .text:000000000000061c .LEHB7
     /tmp/ccZxeZ9e.s:1583   .text:0000000000000604 .LFB33
     /tmp/ccZxeZ9e.s:1619   .text:0000000000000648 .LEHE7
     /tmp/ccZxeZ9e.s:1625   .text:0000000000000660 .LEHB8
     /tmp/ccZxeZ9e.s:1628   .text:0000000000000668 .LEHE8
     /tmp/ccZxeZ9e.s:1679   .text:00000000000006b8 .L62
     /tmp/ccZxeZ9e.s:1644   .text:0000000000000674 .LEHB9
     /tmp/ccZxeZ9e.s:1664   .text:00000000000006a0 .LEHE9
     /tmp/ccZxeZ9e.s:1687   .text:00000000000006cc .LEHB10
     /tmp/ccZxeZ9e.s:1690   .text:00000000000006d4 .LEHE10
     /tmp/ccZxeZ9e.s:4514   .debug_abbrev:0000000000000000 .Ldebug_abbrev0
     /tmp/ccZxeZ9e.s:6301   .debug_str:00000000000001e3 .LASF254
GAS LISTING /tmp/ccZxeZ9e.s 			page 57


     /tmp/ccZxeZ9e.s:6331   .debug_str:0000000000000379 .LASF255
     /tmp/ccZxeZ9e.s:6679   .debug_str:0000000000000df2 .LASF256
     /tmp/ccZxeZ9e.s:5      .text:0000000000000000 .Ltext0
     /tmp/ccZxeZ9e.s:1732   .text:00000000000006d4 .Letext0
     /tmp/ccZxeZ9e.s:6245   .debug_line:0000000000000000 .Ldebug_line0
     /tmp/ccZxeZ9e.s:6425   .debug_str:0000000000000649 .LASF0
     /tmp/ccZxeZ9e.s:6585   .debug_str:0000000000000b5e .LASF3
     /tmp/ccZxeZ9e.s:6463   .debug_str:0000000000000789 .LASF1
     /tmp/ccZxeZ9e.s:6597   .debug_str:0000000000000ba5 .LASF2
     /tmp/ccZxeZ9e.s:6615   .debug_str:0000000000000c3c .LASF4
     /tmp/ccZxeZ9e.s:6443   .debug_str:00000000000006d6 .LASF5
     /tmp/ccZxeZ9e.s:6265   .debug_str:000000000000007b .LASF6
     /tmp/ccZxeZ9e.s:6565   .debug_str:0000000000000ac8 .LASF7
     /tmp/ccZxeZ9e.s:6553   .debug_str:0000000000000a7d .LASF8
     /tmp/ccZxeZ9e.s:6453   .debug_str:0000000000000750 .LASF9
     /tmp/ccZxeZ9e.s:6395   .debug_str:000000000000056e .LASF10
     /tmp/ccZxeZ9e.s:6405   .debug_str:00000000000005c6 .LASF11
     /tmp/ccZxeZ9e.s:6317   .debug_str:000000000000032a .LASF12
     /tmp/ccZxeZ9e.s:6385   .debug_str:0000000000000536 .LASF13
     /tmp/ccZxeZ9e.s:6333   .debug_str:0000000000000387 .LASF14
     /tmp/ccZxeZ9e.s:6315   .debug_str:000000000000031a .LASF15
     /tmp/ccZxeZ9e.s:6651   .debug_str:0000000000000d5e .LASF16
     /tmp/ccZxeZ9e.s:6369   .debug_str:000000000000047c .LASF17
     /tmp/ccZxeZ9e.s:6641   .debug_str:0000000000000d06 .LASF18
     /tmp/ccZxeZ9e.s:6717   .debug_str:0000000000000f09 .LASF95
     /tmp/ccZxeZ9e.s:6579   .debug_str:0000000000000b34 .LASF22
     /tmp/ccZxeZ9e.s:6469   .debug_str:00000000000007ab .LASF19
     /tmp/ccZxeZ9e.s:6375   .debug_str:00000000000004c6 .LASF20
     /tmp/ccZxeZ9e.s:6733   .debug_str:0000000000000f81 .LASF21
     /tmp/ccZxeZ9e.s:6701   .debug_str:0000000000000e8c .LASF23
     /tmp/ccZxeZ9e.s:6379   .debug_str:00000000000004f2 .LASF24
     /tmp/ccZxeZ9e.s:6669   .debug_str:0000000000000db2 .LASF25
     /tmp/ccZxeZ9e.s:6347   .debug_str:00000000000003ef .LASF26
     /tmp/ccZxeZ9e.s:6419   .debug_str:0000000000000620 .LASF27
     /tmp/ccZxeZ9e.s:6643   .debug_str:0000000000000d1c .LASF29
     /tmp/ccZxeZ9e.s:6515   .debug_str:0000000000000930 .LASF28
     /tmp/ccZxeZ9e.s:6495   .debug_str:000000000000087d .LASF30
     /tmp/ccZxeZ9e.s:6365   .debug_str:000000000000045f .LASF31
     /tmp/ccZxeZ9e.s:6257   .debug_str:0000000000000048 .LASF32
     /tmp/ccZxeZ9e.s:6497   .debug_str:0000000000000895 .LASF37
     /tmp/ccZxeZ9e.s:6707   .debug_str:0000000000000eb0 .LASF39
     /tmp/ccZxeZ9e.s:6313   .debug_str:0000000000000309 .LASF33
     /tmp/ccZxeZ9e.s:6475   .debug_str:00000000000007e7 .LASF34
     /tmp/ccZxeZ9e.s:6437   .debug_str:00000000000006af .LASF35
     /tmp/ccZxeZ9e.s:6339   .debug_str:00000000000003b0 .LASF36
     /tmp/ccZxeZ9e.s:6741   .debug_str:0000000000000fb5 .LASF38
     /tmp/ccZxeZ9e.s:6277   .debug_str:00000000000000f9 .LASF40
     /tmp/ccZxeZ9e.s:6563   .debug_str:0000000000000abb .LASF41
     /tmp/ccZxeZ9e.s:6281   .debug_str:0000000000000121 .LASF42
     /tmp/ccZxeZ9e.s:6625   .debug_str:0000000000000c88 .LASF43
     /tmp/ccZxeZ9e.s:6373   .debug_str:00000000000004ab .LASF44
     /tmp/ccZxeZ9e.s:6431   .debug_str:0000000000000688 .LASF45
     /tmp/ccZxeZ9e.s:6725   .debug_str:0000000000000f39 .LASF46
     /tmp/ccZxeZ9e.s:6697   .debug_str:0000000000000e7e .LASF49
     /tmp/ccZxeZ9e.s:6685   .debug_str:0000000000000e24 .LASF51
     /tmp/ccZxeZ9e.s:6593   .debug_str:0000000000000b91 .LASF47
     /tmp/ccZxeZ9e.s:6535   .debug_str:00000000000009d7 .LASF48
GAS LISTING /tmp/ccZxeZ9e.s 			page 58


     /tmp/ccZxeZ9e.s:6571   .debug_str:0000000000000ae9 .LASF50
     /tmp/ccZxeZ9e.s:6575   .debug_str:0000000000000b0d .LASF52
     /tmp/ccZxeZ9e.s:6529   .debug_str:000000000000099b .LASF53
     /tmp/ccZxeZ9e.s:6455   .debug_str:0000000000000763 .LASF54
     /tmp/ccZxeZ9e.s:6727   .debug_str:0000000000000f53 .LASF55
     /tmp/ccZxeZ9e.s:6675   .debug_str:0000000000000dd4 .LASF56
     /tmp/ccZxeZ9e.s:6523   .debug_str:000000000000096b .LASF57
     /tmp/ccZxeZ9e.s:6533   .debug_str:00000000000009c3 .LASF58
     /tmp/ccZxeZ9e.s:6507   .debug_str:00000000000008ec .LASF59
     /tmp/ccZxeZ9e.s:6577   .debug_str:0000000000000b20 .LASF60
     /tmp/ccZxeZ9e.s:6769   .debug_str:000000000000107a .LASF61
     /tmp/ccZxeZ9e.s:6435   .debug_str:000000000000069b .LASF62
     /tmp/ccZxeZ9e.s:6647   .debug_str:0000000000000d50 .LASF63
     /tmp/ccZxeZ9e.s:6619   .debug_str:0000000000000c66 .LASF64
     /tmp/ccZxeZ9e.s:6621   .debug_str:0000000000000c79 .LASF65
     /tmp/ccZxeZ9e.s:6323   .debug_str:0000000000000347 .LASF66
     /tmp/ccZxeZ9e.s:6359   .debug_str:0000000000000434 .LASF67
     /tmp/ccZxeZ9e.s:6269   .debug_str:000000000000008d .LASF68
     /tmp/ccZxeZ9e.s:6433   .debug_str:0000000000000695 .LASF69
     /tmp/ccZxeZ9e.s:6351   .debug_str:000000000000040e .LASF70
     /tmp/ccZxeZ9e.s:6267   .debug_str:0000000000000082 .LASF71
     /tmp/ccZxeZ9e.s:6603   .debug_str:0000000000000bcb .LASF72
     /tmp/ccZxeZ9e.s:6595   .debug_str:0000000000000b9a .LASF73
     /tmp/ccZxeZ9e.s:6757   .debug_str:000000000000101b .LASF74
     /tmp/ccZxeZ9e.s:6719   .debug_str:0000000000000f0f .LASF75
     /tmp/ccZxeZ9e.s:6739   .debug_str:0000000000000f9f .LASF76
     /tmp/ccZxeZ9e.s:6709   .debug_str:0000000000000ece .LASF77
     /tmp/ccZxeZ9e.s:6499   .debug_str:00000000000008a5 .LASF78
     /tmp/ccZxeZ9e.s:6413   .debug_str:00000000000005fa .LASF79
     /tmp/ccZxeZ9e.s:6421   .debug_str:000000000000062b .LASF80
     /tmp/ccZxeZ9e.s:6689   .debug_str:0000000000000e45 .LASF81
     /tmp/ccZxeZ9e.s:6403   .debug_str:00000000000005aa .LASF82
     /tmp/ccZxeZ9e.s:6559   .debug_str:0000000000000a9d .LASF83
     /tmp/ccZxeZ9e.s:6451   .debug_str:000000000000072e .LASF84
     /tmp/ccZxeZ9e.s:6589   .debug_str:0000000000000b85 .LASF85
     /tmp/ccZxeZ9e.s:6261   .debug_str:0000000000000066 .LASF86
     /tmp/ccZxeZ9e.s:6293   .debug_str:00000000000001aa .LASF87
     /tmp/ccZxeZ9e.s:6687   .debug_str:0000000000000e39 .LASF88
     /tmp/ccZxeZ9e.s:6295   .debug_str:00000000000001b9 .LASF89
     /tmp/ccZxeZ9e.s:6511   .debug_str:0000000000000919 .LASF90
     /tmp/ccZxeZ9e.s:6407   .debug_str:00000000000005d4 .LASF91
     /tmp/ccZxeZ9e.s:6361   .debug_str:000000000000043a .LASF92
     /tmp/ccZxeZ9e.s:6311   .debug_str:00000000000002f5 .LASF93
     /tmp/ccZxeZ9e.s:6663   .debug_str:0000000000000d9f .LASF94
     /tmp/ccZxeZ9e.s:6665   .debug_str:0000000000000da4 .LASF96
     /tmp/ccZxeZ9e.s:6309   .debug_str:00000000000002ef .LASF97
     /tmp/ccZxeZ9e.s:6633   .debug_str:0000000000000cce .LASF98
     /tmp/ccZxeZ9e.s:6325   .debug_str:000000000000035a .LASF99
     /tmp/ccZxeZ9e.s:6297   .debug_str:00000000000001cc .LASF100
     /tmp/ccZxeZ9e.s:6555   .debug_str:0000000000000a90 .LASF101
     /tmp/ccZxeZ9e.s:6459   .debug_str:000000000000077b .LASF102
     /tmp/ccZxeZ9e.s:6659   .debug_str:0000000000000d8c .LASF156
     /tmp/ccZxeZ9e.s:6415   .debug_str:0000000000000605 .LASF103
     /tmp/ccZxeZ9e.s:6519   .debug_str:000000000000094a .LASF257
     /tmp/ccZxeZ9e.s:6539   .debug_str:00000000000009f3 .LASF258
     /tmp/ccZxeZ9e.s:6461   .debug_str:0000000000000784 .LASF104
     /tmp/ccZxeZ9e.s:6755   .debug_str:000000000000100f .LASF106
GAS LISTING /tmp/ccZxeZ9e.s 			page 59


     /tmp/ccZxeZ9e.s:6751   .debug_str:0000000000000ff3 .LASF105
     /tmp/ccZxeZ9e.s:6673   .debug_str:0000000000000dc4 .LASF107
     /tmp/ccZxeZ9e.s:6353   .debug_str:0000000000000420 .LASF108
     /tmp/ccZxeZ9e.s:6275   .debug_str:00000000000000e6 .LASF109
     /tmp/ccZxeZ9e.s:6467   .debug_str:00000000000007a5 .LASF110
     /tmp/ccZxeZ9e.s:6541   .debug_str:00000000000009f8 .LASF111
     /tmp/ccZxeZ9e.s:6667   .debug_str:0000000000000daa .LASF112
     /tmp/ccZxeZ9e.s:6627   .debug_str:0000000000000c96 .LASF113
     /tmp/ccZxeZ9e.s:6493   .debug_str:0000000000000870 .LASF118
     /tmp/ccZxeZ9e.s:6477   .debug_str:0000000000000805 .LASF120
     /tmp/ccZxeZ9e.s:6761   .debug_str:0000000000001043 .LASF114
     /tmp/ccZxeZ9e.s:6389   .debug_str:000000000000054f .LASF115
     /tmp/ccZxeZ9e.s:6427   .debug_str:0000000000000656 .LASF116
     /tmp/ccZxeZ9e.s:6439   .debug_str:00000000000006c1 .LASF117
     /tmp/ccZxeZ9e.s:6629   .debug_str:0000000000000ca7 .LASF119
     /tmp/ccZxeZ9e.s:6349   .debug_str:00000000000003fb .LASF121
     /tmp/ccZxeZ9e.s:6609   .debug_str:0000000000000c02 .LASF122
     /tmp/ccZxeZ9e.s:6645   .debug_str:0000000000000d34 .LASF123
     /tmp/ccZxeZ9e.s:6517   .debug_str:000000000000093b .LASF124
     /tmp/ccZxeZ9e.s:6253   .debug_str:0000000000000029 .LASF125
     /tmp/ccZxeZ9e.s:6737   .debug_str:0000000000000f90 .LASF126
     /tmp/ccZxeZ9e.s:6549   .debug_str:0000000000000a4f .LASF127
     /tmp/ccZxeZ9e.s:6639   .debug_str:0000000000000cf8 .LASF128
     /tmp/ccZxeZ9e.s:6569   .debug_str:0000000000000add .LASF129
     /tmp/ccZxeZ9e.s:6249   .debug_str:000000000000000d .LASF130
     /tmp/ccZxeZ9e.s:6743   .debug_str:0000000000000fc1 .LASF131
     /tmp/ccZxeZ9e.s:6445   .debug_str:00000000000006e8 .LASF136
     /tmp/ccZxeZ9e.s:6637   .debug_str:0000000000000ced .LASF132
     /tmp/ccZxeZ9e.s:6753   .debug_str:0000000000000ff9 .LASF133
     /tmp/ccZxeZ9e.s:6661   .debug_str:0000000000000d94 .LASF134
     /tmp/ccZxeZ9e.s:6343   .debug_str:00000000000003d4 .LASF135
     /tmp/ccZxeZ9e.s:6623   .debug_str:0000000000000c80 .LASF137
     /tmp/ccZxeZ9e.s:6551   .debug_str:0000000000000a69 .LASF138
     /tmp/ccZxeZ9e.s:6527   .debug_str:000000000000097c .LASF139
     /tmp/ccZxeZ9e.s:6337   .debug_str:000000000000039e .LASF140
     /tmp/ccZxeZ9e.s:6573   .debug_str:0000000000000af0 .LASF141
     /tmp/ccZxeZ9e.s:6771   .debug_str:0000000000001082 .LASF142
     /tmp/ccZxeZ9e.s:6531   .debug_str:00000000000009a2 .LASF143
     /tmp/ccZxeZ9e.s:6607   .debug_str:0000000000000bef .LASF144
     /tmp/ccZxeZ9e.s:6631   .debug_str:0000000000000cb0 .LASF145
     /tmp/ccZxeZ9e.s:6677   .debug_str:0000000000000de8 .LASF146
     /tmp/ccZxeZ9e.s:6543   .debug_str:0000000000000a08 .LASF147
     /tmp/ccZxeZ9e.s:6749   .debug_str:0000000000000fe5 .LASF148
     /tmp/ccZxeZ9e.s:6287   .debug_str:0000000000000168 .LASF150
     /tmp/ccZxeZ9e.s:6285   .debug_str:0000000000000153 .LASF149
     /tmp/ccZxeZ9e.s:6307   .debug_str:00000000000002c3 .LASF151
     /tmp/ccZxeZ9e.s:6765   .debug_str:000000000000105b .LASF259
     /tmp/ccZxeZ9e.s:6305   .debug_str:00000000000002b2 .LASF260
     /tmp/ccZxeZ9e.s:6255   .debug_str:0000000000000043 .LASF152
     /tmp/ccZxeZ9e.s:6699   .debug_str:0000000000000e87 .LASF153
     /tmp/ccZxeZ9e.s:6483   .debug_str:000000000000083e .LASF154
     /tmp/ccZxeZ9e.s:6357   .debug_str:000000000000042e .LASF155
     /tmp/ccZxeZ9e.s:6683   .debug_str:0000000000000e1c .LASF157
     /tmp/ccZxeZ9e.s:6489   .debug_str:0000000000000857 .LASF158
     /tmp/ccZxeZ9e.s:6583   .debug_str:0000000000000b53 .LASF159
     /tmp/ccZxeZ9e.s:6401   .debug_str:0000000000000596 .LASF160
     /tmp/ccZxeZ9e.s:6601   .debug_str:0000000000000bbf .LASF161
GAS LISTING /tmp/ccZxeZ9e.s 			page 60


     /tmp/ccZxeZ9e.s:6581   .debug_str:0000000000000b3f .LASF162
     /tmp/ccZxeZ9e.s:6355   .debug_str:0000000000000429 .LASF163
     /tmp/ccZxeZ9e.s:6635   .debug_str:0000000000000cd6 .LASF164
     /tmp/ccZxeZ9e.s:6655   .debug_str:0000000000000d7d .LASF165
     /tmp/ccZxeZ9e.s:6371   .debug_str:0000000000000492 .LASF166
     /tmp/ccZxeZ9e.s:6251   .debug_str:000000000000001d .LASF167
     /tmp/ccZxeZ9e.s:6605   .debug_str:0000000000000be3 .LASF168
     /tmp/ccZxeZ9e.s:6491   .debug_str:000000000000085c .LASF169
     /tmp/ccZxeZ9e.s:6417   .debug_str:000000000000060b .LASF170
     /tmp/ccZxeZ9e.s:6321   .debug_str:000000000000033e .LASF171
     /tmp/ccZxeZ9e.s:6327   .debug_str:0000000000000364 .LASF172
     /tmp/ccZxeZ9e.s:6521   .debug_str:0000000000000962 .LASF173
     /tmp/ccZxeZ9e.s:6613   .debug_str:0000000000000c31 .LASF174
     /tmp/ccZxeZ9e.s:6465   .debug_str:000000000000079c .LASF175
     /tmp/ccZxeZ9e.s:6423   .debug_str:0000000000000643 .LASF176
     /tmp/ccZxeZ9e.s:6767   .debug_str:0000000000001062 .LASF177
     /tmp/ccZxeZ9e.s:6259   .debug_str:000000000000005e .LASF178
     /tmp/ccZxeZ9e.s:6481   .debug_str:0000000000000824 .LASF179
     /tmp/ccZxeZ9e.s:6759   .debug_str:0000000000001033 .LASF180
     /tmp/ccZxeZ9e.s:6617   .debug_str:0000000000000c43 .LASF181
     /tmp/ccZxeZ9e.s:6653   .debug_str:0000000000000d6a .LASF182
     /tmp/ccZxeZ9e.s:6611   .debug_str:0000000000000c0b .LASF183
     /tmp/ccZxeZ9e.s:6247   .debug_str:0000000000000000 .LASF184
     /tmp/ccZxeZ9e.s:6273   .debug_str:00000000000000c2 .LASF185
     /tmp/ccZxeZ9e.s:6731   .debug_str:0000000000000f74 .LASF186
     /tmp/ccZxeZ9e.s:6505   .debug_str:00000000000008dc .LASF187
     /tmp/ccZxeZ9e.s:6363   .debug_str:000000000000044d .LASF188
     /tmp/ccZxeZ9e.s:6381   .debug_str:00000000000004fe .LASF189
     /tmp/ccZxeZ9e.s:6299   .debug_str:00000000000001d5 .LASF190
     /tmp/ccZxeZ9e.s:6271   .debug_str:000000000000009f .LASF191
     /tmp/ccZxeZ9e.s:6525   .debug_str:0000000000000973 .LASF192
     /tmp/ccZxeZ9e.s:6341   .debug_str:00000000000003cf .LASF193
     /tmp/ccZxeZ9e.s:6319   .debug_str:0000000000000339 .LASF194
     /tmp/ccZxeZ9e.s:6457   .debug_str:0000000000000776 .LASF195
     /tmp/ccZxeZ9e.s:6387   .debug_str:0000000000000545 .LASF196
     /tmp/ccZxeZ9e.s:6745   .debug_str:0000000000000fcc .LASF197
     /tmp/ccZxeZ9e.s:6329   .debug_str:000000000000036e .LASF198
     /tmp/ccZxeZ9e.s:6409   .debug_str:00000000000005e7 .LASF199
     /tmp/ccZxeZ9e.s:6545   .debug_str:0000000000000a14 .LASF200
     /tmp/ccZxeZ9e.s:6503   .debug_str:00000000000008c8 .LASF201
     /tmp/ccZxeZ9e.s:6657   .debug_str:0000000000000d84 .LASF202
     /tmp/ccZxeZ9e.s:6509   .debug_str:00000000000008f4 .LASF203
     /tmp/ccZxeZ9e.s:6441   .debug_str:00000000000006ce .LASF204
     /tmp/ccZxeZ9e.s:6711   .debug_str:0000000000000ed8 .LASF205
     /tmp/ccZxeZ9e.s:6693   .debug_str:0000000000000e66 .LASF206
     /tmp/ccZxeZ9e.s:6429   .debug_str:0000000000000666 .LASF207
     /tmp/ccZxeZ9e.s:6691   .debug_str:0000000000000e54 .LASF208
     /tmp/ccZxeZ9e.s:6587   .debug_str:0000000000000b63 .LASF209
     /tmp/ccZxeZ9e.s:6291   .debug_str:0000000000000197 .LASF210
     /tmp/ccZxeZ9e.s:6303   .debug_str:000000000000028f .LASF211
     /tmp/ccZxeZ9e.s:6367   .debug_str:0000000000000469 .LASF212
     /tmp/ccZxeZ9e.s:6377   .debug_str:00000000000004cf .LASF213
     /tmp/ccZxeZ9e.s:6471   .debug_str:00000000000007b4 .LASF214
     /tmp/ccZxeZ9e.s:6729   .debug_str:0000000000000f5b .LASF215
     /tmp/ccZxeZ9e.s:6447   .debug_str:00000000000006f5 .LASF216
     /tmp/ccZxeZ9e.s:6473   .debug_str:00000000000007cf .LASF217
     /tmp/ccZxeZ9e.s:6547   .debug_str:0000000000000a27 .LASF218
GAS LISTING /tmp/ccZxeZ9e.s 			page 61


     /tmp/ccZxeZ9e.s:6383   .debug_str:0000000000000525 .LASF219
     /tmp/ccZxeZ9e.s:6721   .debug_str:0000000000000f19 .LASF220
     /tmp/ccZxeZ9e.s:6393   .debug_str:0000000000000561 .LASF221
     /tmp/ccZxeZ9e.s:6263   .debug_str:000000000000006e .LASF222
     /tmp/ccZxeZ9e.s:10     .text:0000000000000000 .LFB34
     /tmp/ccZxeZ9e.s:36     .text:0000000000000028 .LFE34
     /tmp/ccZxeZ9e.s:25     .text:0000000000000018 .LVL0
     /tmp/ccZxeZ9e.s:1692   .text:00000000000006d4 .LFE33
     /tmp/ccZxeZ9e.s:6399   .debug_str:000000000000058e .LASF242
     /tmp/ccZxeZ9e.s:1632   .text:0000000000000668 .LBB246
     /tmp/ccZxeZ9e.s:1639   .text:000000000000066c .LBE246
     /tmp/ccZxeZ9e.s:5734   .debug_loc:0000000000000000 .LLST43
     /tmp/ccZxeZ9e.s:1604   .text:0000000000000624 .LVL112
     /tmp/ccZxeZ9e.s:1608   .text:000000000000062c .LVL113
     /tmp/ccZxeZ9e.s:1613   .text:0000000000000638 .LVL114
     /tmp/ccZxeZ9e.s:1618   .text:0000000000000648 .LVL115
     /tmp/ccZxeZ9e.s:1627   .text:0000000000000668 .LVL116
     /tmp/ccZxeZ9e.s:1647   .text:000000000000067c .LVL118
     /tmp/ccZxeZ9e.s:1654   .text:0000000000000688 .LVL119
     /tmp/ccZxeZ9e.s:1658   .text:0000000000000690 .LVL120
     /tmp/ccZxeZ9e.s:1663   .text:00000000000006a0 .LVL121
     /tmp/ccZxeZ9e.s:1685   .text:00000000000006c8 .LVL122
     /tmp/ccZxeZ9e.s:1689   .text:00000000000006d4 .LVL123
     /tmp/ccZxeZ9e.s:1536   .text:0000000000000604 .LFE32
     /tmp/ccZxeZ9e.s:5741   .debug_loc:0000000000000023 .LLST12
     /tmp/ccZxeZ9e.s:6335   .debug_str:0000000000000397 .LASF223
     /tmp/ccZxeZ9e.s:5768   .debug_loc:00000000000000a5 .LLST13
     /tmp/ccZxeZ9e.s:6205   .debug_ranges:0000000000000000 .Ldebug_ranges0
     /tmp/ccZxeZ9e.s:6695   .debug_str:0000000000000e78 .LASF224
     /tmp/ccZxeZ9e.s:6487   .debug_str:000000000000084d .LASF225
     /tmp/ccZxeZ9e.s:5789   .debug_loc:0000000000000103 .LLST14
     /tmp/ccZxeZ9e.s:6671   .debug_str:0000000000000dbf .LASF226
     /tmp/ccZxeZ9e.s:902    .text:00000000000003a8 .LBB212
     /tmp/ccZxeZ9e.s:983    .text:00000000000003e8 .LBE212
     /tmp/ccZxeZ9e.s:6411   .debug_str:00000000000005f2 .LASF227
     /tmp/ccZxeZ9e.s:904    .text:00000000000003a8 .LBB213
     /tmp/ccZxeZ9e.s:919    .text:00000000000003b4 .LBE213
     /tmp/ccZxeZ9e.s:923    .text:00000000000003b8 .LBB215
     /tmp/ccZxeZ9e.s:938    .text:00000000000003c4 .LBE215
     /tmp/ccZxeZ9e.s:952    .text:00000000000003d8 .LBB217
     /tmp/ccZxeZ9e.s:963    .text:00000000000003dc .LBE217
     /tmp/ccZxeZ9e.s:5832   .debug_loc:00000000000001d1 .LLST40
     /tmp/ccZxeZ9e.s:968    .text:00000000000003e0 .LBB219
     /tmp/ccZxeZ9e.s:982    .text:00000000000003e8 .LBE219
     /tmp/ccZxeZ9e.s:5839   .debug_loc:00000000000001f4 .LLST41
     /tmp/ccZxeZ9e.s:947    .text:00000000000003d4 .LVL50
     /tmp/ccZxeZ9e.s:986    .text:00000000000003e8 .LBB196
     /tmp/ccZxeZ9e.s:1012   .text:00000000000003fc .LBE196
     /tmp/ccZxeZ9e.s:6513   .debug_str:000000000000092b .LASF228
     /tmp/ccZxeZ9e.s:5846   .debug_loc:0000000000000217 .LLST36
     /tmp/ccZxeZ9e.s:6723   .debug_str:0000000000000f2b .LASF229
     /tmp/ccZxeZ9e.s:5861   .debug_loc:0000000000000251 .LLST37
     /tmp/ccZxeZ9e.s:1002   .text:00000000000003f8 .LVL57
     /tmp/ccZxeZ9e.s:1036   .text:0000000000000408 .LBB186
     /tmp/ccZxeZ9e.s:1057   .text:0000000000000418 .LBE186
     /tmp/ccZxeZ9e.s:6591   .debug_str:0000000000000b8c .LASF230
     /tmp/ccZxeZ9e.s:5868   .debug_loc:0000000000000274 .LLST34
GAS LISTING /tmp/ccZxeZ9e.s 			page 62


     /tmp/ccZxeZ9e.s:6289   .debug_str:0000000000000190 .LASF231
     /tmp/ccZxeZ9e.s:5880   .debug_loc:00000000000002ab .LLST35
     /tmp/ccZxeZ9e.s:1049   .text:0000000000000414 .LVL63
     /tmp/ccZxeZ9e.s:6567   .debug_str:0000000000000acf .LASF232
     /tmp/ccZxeZ9e.s:5887   .debug_loc:00000000000002ce .LLST30
     /tmp/ccZxeZ9e.s:5898   .debug_loc:0000000000000304 .LLST31
     /tmp/ccZxeZ9e.s:6279   .debug_str:0000000000000114 .LASF233
     /tmp/ccZxeZ9e.s:5909   .debug_loc:000000000000033a .LLST32
     /tmp/ccZxeZ9e.s:6537   .debug_str:00000000000009ec .LASF234
     /tmp/ccZxeZ9e.s:5920   .debug_loc:0000000000000370 .LLST33
     /tmp/ccZxeZ9e.s:1090   .text:0000000000000434 .LVL68
     /tmp/ccZxeZ9e.s:1099   .text:0000000000000450 .LVL69
     /tmp/ccZxeZ9e.s:1501   .text:00000000000005dc .LVL107
     /tmp/ccZxeZ9e.s:1127   .text:0000000000000468 .LBB162
     /tmp/ccZxeZ9e.s:1176   .text:0000000000000498 .LBE162
     /tmp/ccZxeZ9e.s:1129   .text:0000000000000468 .LBB163
     /tmp/ccZxeZ9e.s:1145   .text:0000000000000474 .LBE163
     /tmp/ccZxeZ9e.s:1161   .text:0000000000000490 .LBB165
     /tmp/ccZxeZ9e.s:1175   .text:0000000000000498 .LBE165
     /tmp/ccZxeZ9e.s:5927   .debug_loc:0000000000000393 .LLST29
     /tmp/ccZxeZ9e.s:1156   .text:000000000000048c .LVL72
     /tmp/ccZxeZ9e.s:1178   .text:0000000000000498 .LBB148
     /tmp/ccZxeZ9e.s:1248   .text:00000000000004ec .LBE148
     /tmp/ccZxeZ9e.s:1185   .text:00000000000004a8 .LBB149
     /tmp/ccZxeZ9e.s:1200   .text:00000000000004b4 .LBE149
     /tmp/ccZxeZ9e.s:1212   .text:00000000000004d0 .LBB151
     /tmp/ccZxeZ9e.s:1220   .text:00000000000004d8 .LBE151
     /tmp/ccZxeZ9e.s:5934   .debug_loc:00000000000003b6 .LLST26
     /tmp/ccZxeZ9e.s:5942   .debug_loc:00000000000003da .LLST27
     /tmp/ccZxeZ9e.s:1229   .text:00000000000004e4 .LBB153
     /tmp/ccZxeZ9e.s:1240   .text:00000000000004e8 .LBE153
     /tmp/ccZxeZ9e.s:5949   .debug_loc:00000000000003fd .LLST28
     /tmp/ccZxeZ9e.s:1183   .text:00000000000004a8 .LVL75
     /tmp/ccZxeZ9e.s:1224   .text:00000000000004e0 .LVL78
     /tmp/ccZxeZ9e.s:1253   .text:00000000000004f0 .LBB135
     /tmp/ccZxeZ9e.s:1331   .text:000000000000053c .LBE135
     /tmp/ccZxeZ9e.s:6557   .debug_str:0000000000000a98 .LASF235
     /tmp/ccZxeZ9e.s:5956   .debug_loc:0000000000000420 .LLST22
     /tmp/ccZxeZ9e.s:1264   .text:00000000000004f4 .LBB136
     /tmp/ccZxeZ9e.s:1280   .text:0000000000000500 .LBE136
     /tmp/ccZxeZ9e.s:1292   .text:000000000000051c .LBB138
     /tmp/ccZxeZ9e.s:1299   .text:0000000000000520 .LBE138
     /tmp/ccZxeZ9e.s:5963   .debug_loc:0000000000000443 .LLST23
     /tmp/ccZxeZ9e.s:5970   .debug_loc:0000000000000466 .LLST24
     /tmp/ccZxeZ9e.s:1312   .text:0000000000000534 .LBB140
     /tmp/ccZxeZ9e.s:1323   .text:0000000000000538 .LBE140
     /tmp/ccZxeZ9e.s:5977   .debug_loc:0000000000000489 .LLST25
     /tmp/ccZxeZ9e.s:1303   .text:0000000000000528 .LVL86
     /tmp/ccZxeZ9e.s:1307   .text:0000000000000530 .LVL87
     /tmp/ccZxeZ9e.s:5984   .debug_loc:00000000000004ac .LLST19
     /tmp/ccZxeZ9e.s:6449   .debug_str:000000000000071e .LASF236
     /tmp/ccZxeZ9e.s:5995   .debug_loc:00000000000004e2 .LLST20
     /tmp/ccZxeZ9e.s:6479   .debug_str:000000000000081d .LASF237
     /tmp/ccZxeZ9e.s:6006   .debug_loc:0000000000000518 .LLST21
     /tmp/ccZxeZ9e.s:1357   .text:0000000000000554 .LVL93
     /tmp/ccZxeZ9e.s:1364   .text:0000000000000564 .LVL95
     /tmp/ccZxeZ9e.s:1519   .text:00000000000005f8 .LVL110
GAS LISTING /tmp/ccZxeZ9e.s 			page 63


     /tmp/ccZxeZ9e.s:1392   .text:000000000000057c .LBB121
     /tmp/ccZxeZ9e.s:1454   .text:00000000000005ac .LBE121
     /tmp/ccZxeZ9e.s:6715   .debug_str:0000000000000f04 .LASF238
     /tmp/ccZxeZ9e.s:6013   .debug_loc:000000000000053b .LLST17
     /tmp/ccZxeZ9e.s:1394   .text:000000000000057c .LBB122
     /tmp/ccZxeZ9e.s:1410   .text:0000000000000588 .LBE122
     /tmp/ccZxeZ9e.s:1433   .text:00000000000005a0 .LBB124
     /tmp/ccZxeZ9e.s:1444   .text:00000000000005a4 .LBE124
     /tmp/ccZxeZ9e.s:6020   .debug_loc:000000000000055e .LLST18
     /tmp/ccZxeZ9e.s:1426   .text:0000000000000598 .LVL99
     /tmp/ccZxeZ9e.s:1459   .text:00000000000005b0 .LBB119
     /tmp/ccZxeZ9e.s:1485   .text:00000000000005c8 .LBE119
     /tmp/ccZxeZ9e.s:6027   .debug_loc:0000000000000581 .LLST16
     /tmp/ccZxeZ9e.s:1472   .text:00000000000005bc .LVL104
     /tmp/ccZxeZ9e.s:765    .text:00000000000002f4 .LBB118
     /tmp/ccZxeZ9e.s:794    .text:0000000000000318 .LBE118
     /tmp/ccZxeZ9e.s:6034   .debug_loc:00000000000005a4 .LLST15
     /tmp/ccZxeZ9e.s:781    .text:0000000000000308 .LVL39
     /tmp/ccZxeZ9e.s:785    .text:0000000000000314 .LVL40
     /tmp/ccZxeZ9e.s:576    .text:0000000000000288 .LBB106
     /tmp/ccZxeZ9e.s:591    .text:0000000000000294 .LBE106
     /tmp/ccZxeZ9e.s:851    .text:0000000000000358 .LBB207
     /tmp/ccZxeZ9e.s:864    .text:0000000000000360 .LBE207
     /tmp/ccZxeZ9e.s:6041   .debug_loc:00000000000005c7 .LLST38
     /tmp/ccZxeZ9e.s:889    .text:000000000000039c .LBB210
     /tmp/ccZxeZ9e.s:897    .text:00000000000003a0 .LBE210
     /tmp/ccZxeZ9e.s:6049   .debug_loc:00000000000005eb .LLST39
     /tmp/ccZxeZ9e.s:1018   .text:0000000000000400 .LBB222
     /tmp/ccZxeZ9e.s:1033   .text:0000000000000408 .LBE222
     /tmp/ccZxeZ9e.s:6056   .debug_loc:000000000000060e .LLST42
     /tmp/ccZxeZ9e.s:819    .text:0000000000000334 .LVL42
     /tmp/ccZxeZ9e.s:882    .text:0000000000000390 .LVL47
     /tmp/ccZxeZ9e.s:532    .text:000000000000024c .LBB102
     /tmp/ccZxeZ9e.s:548    .text:0000000000000258 .LBE102
     /tmp/ccZxeZ9e.s:1505   .text:00000000000005e8 .LVL108
     /tmp/ccZxeZ9e.s:1523   .text:0000000000000604 .LVL111
     /tmp/ccZxeZ9e.s:344    .text:000000000000015c .LFB31
     /tmp/ccZxeZ9e.s:488    .text:0000000000000224 .LFE31
     /tmp/ccZxeZ9e.s:6063   .debug_loc:0000000000000631 .LLST6
     /tmp/ccZxeZ9e.s:6077   .debug_loc:000000000000066a .LLST7
     /tmp/ccZxeZ9e.s:6681   .debug_str:0000000000000e15 .LASF239
     /tmp/ccZxeZ9e.s:6084   .debug_loc:000000000000068d .LLST8
     /tmp/ccZxeZ9e.s:6106   .debug_loc:00000000000006ec .LLST9
     /tmp/ccZxeZ9e.s:361    .text:0000000000000174 .LBB96
     /tmp/ccZxeZ9e.s:377    .text:0000000000000180 .LBE96
     /tmp/ccZxeZ9e.s:379    .text:0000000000000180 .LBB98
     /tmp/ccZxeZ9e.s:391    .text:0000000000000188 .LBE98
     /tmp/ccZxeZ9e.s:6128   .debug_loc:000000000000072d .LLST10
     /tmp/ccZxeZ9e.s:462    .text:0000000000000208 .LBB100
     /tmp/ccZxeZ9e.s:473    .text:000000000000020c .LBE100
     /tmp/ccZxeZ9e.s:6136   .debug_loc:0000000000000751 .LLST11
     /tmp/ccZxeZ9e.s:446    .text:00000000000001ec .LVL29
     /tmp/ccZxeZ9e.s:453    .text:00000000000001fc .LVL30
     /tmp/ccZxeZ9e.s:236    .text:00000000000000ec .LFB30
     /tmp/ccZxeZ9e.s:338    .text:000000000000015c .LFE30
     /tmp/ccZxeZ9e.s:6649   .debug_str:0000000000000d57 .LASF240
     /tmp/ccZxeZ9e.s:6143   .debug_loc:0000000000000774 .LLST2
GAS LISTING /tmp/ccZxeZ9e.s 			page 64


     /tmp/ccZxeZ9e.s:6154   .debug_loc:00000000000007aa .LLST3
     /tmp/ccZxeZ9e.s:254    .text:0000000000000108 .LBB90
     /tmp/ccZxeZ9e.s:270    .text:0000000000000114 .LBE90
     /tmp/ccZxeZ9e.s:272    .text:0000000000000114 .LBB92
     /tmp/ccZxeZ9e.s:285    .text:000000000000011c .LBE92
     /tmp/ccZxeZ9e.s:6161   .debug_loc:00000000000007cd .LLST4
     /tmp/ccZxeZ9e.s:311    .text:0000000000000140 .LBB94
     /tmp/ccZxeZ9e.s:322    .text:0000000000000144 .LBE94
     /tmp/ccZxeZ9e.s:6169   .debug_loc:00000000000007f1 .LLST5
     /tmp/ccZxeZ9e.s:295    .text:000000000000012c .LVL13
     /tmp/ccZxeZ9e.s:201    .text:00000000000000cc .LFB29
     /tmp/ccZxeZ9e.s:230    .text:00000000000000ec .LFE29
     /tmp/ccZxeZ9e.s:132    .text:0000000000000084 .LFB28
     /tmp/ccZxeZ9e.s:164    .text:00000000000000a4 .LFE28
     /tmp/ccZxeZ9e.s:143    .text:0000000000000090 .LBB88
     /tmp/ccZxeZ9e.s:155    .text:0000000000000098 .LBE88
     /tmp/ccZxeZ9e.s:6176   .debug_loc:0000000000000814 .LLST1
     /tmp/ccZxeZ9e.s:94     .text:0000000000000064 .LFB27
     /tmp/ccZxeZ9e.s:126    .text:0000000000000084 .LFE27
     /tmp/ccZxeZ9e.s:105    .text:0000000000000070 .LBB86
     /tmp/ccZxeZ9e.s:117    .text:0000000000000078 .LBE86
     /tmp/ccZxeZ9e.s:6184   .debug_loc:0000000000000838 .LLST0
     /tmp/ccZxeZ9e.s:170    .text:00000000000000a4 .LFB26
     /tmp/ccZxeZ9e.s:195    .text:00000000000000cc .LFE26
     /tmp/ccZxeZ9e.s:184    .text:00000000000000bc .LVL9
     /tmp/ccZxeZ9e.s:42     .text:0000000000000028 .LFB25
     /tmp/ccZxeZ9e.s:88     .text:0000000000000064 .LFE25
     /tmp/ccZxeZ9e.s:57     .text:0000000000000040 .LBB84
     /tmp/ccZxeZ9e.s:69     .text:0000000000000044 .LBE84
     /tmp/ccZxeZ9e.s:73     .text:000000000000004c .LVL3
     /tmp/ccZxeZ9e.s:77     .text:0000000000000054 .LVL4
     /tmp/ccZxeZ9e.s:6345   .debug_str:00000000000003ea .LASF241
     /tmp/ccZxeZ9e.s:6705   .debug_str:0000000000000eab .LASF243
     /tmp/ccZxeZ9e.s:6735   .debug_str:0000000000000f8a .LASF244
     /tmp/ccZxeZ9e.s:6501   .debug_str:00000000000008bb .LASF245
     /tmp/ccZxeZ9e.s:6561   .debug_str:0000000000000ab2 .LASF247
     /tmp/ccZxeZ9e.s:6599   .debug_str:0000000000000bb3 .LASF246
     /tmp/ccZxeZ9e.s:6713   .debug_str:0000000000000efc .LASF248
     /tmp/ccZxeZ9e.s:6703   .debug_str:0000000000000e9b .LASF249
     /tmp/ccZxeZ9e.s:6747   .debug_str:0000000000000fd6 .LASF261
     /tmp/ccZxeZ9e.s:6283   .debug_str:000000000000013b .LASF262
     /tmp/ccZxeZ9e.s:6763   .debug_str:0000000000001050 .LASF250
     /tmp/ccZxeZ9e.s:6391   .debug_str:000000000000055b .LASF251
     /tmp/ccZxeZ9e.s:6397   .debug_str:000000000000057e .LASF252
     /tmp/ccZxeZ9e.s:6485   .debug_str:0000000000000846 .LASF253
     /tmp/ccZxeZ9e.s:1637   .text:000000000000066c .LVL117
     /tmp/ccZxeZ9e.s:529    .text:000000000000024c .LVL34
     /tmp/ccZxeZ9e.s:773    .text:00000000000002f8 .LVL38
     /tmp/ccZxeZ9e.s:796    .text:000000000000031c .LVL41
     /tmp/ccZxeZ9e.s:844    .text:0000000000000358 .LVL43
     /tmp/ccZxeZ9e.s:875    .text:000000000000037c .LVL46
     /tmp/ccZxeZ9e.s:979    .text:00000000000003e8 .LVL54
     /tmp/ccZxeZ9e.s:1009   .text:00000000000003fc .LVL58
     /tmp/ccZxeZ9e.s:1030   .text:0000000000000408 .LVL61
     /tmp/ccZxeZ9e.s:1360   .text:0000000000000558 .LVL94
     /tmp/ccZxeZ9e.s:1388   .text:000000000000057c .LVL96
     /tmp/ccZxeZ9e.s:1490   .text:00000000000005d0 .LVL106
GAS LISTING /tmp/ccZxeZ9e.s 			page 65


     /tmp/ccZxeZ9e.s:546    .text:0000000000000258 .LVL35
     /tmp/ccZxeZ9e.s:560    .text:000000000000027c .LVL36
     /tmp/ccZxeZ9e.s:573    .text:0000000000000288 .LVL37
     /tmp/ccZxeZ9e.s:856    .text:000000000000035c .LVL44
     /tmp/ccZxeZ9e.s:1059   .text:000000000000041c .LVL64
     /tmp/ccZxeZ9e.s:1123   .text:0000000000000468 .LVL70
     /tmp/ccZxeZ9e.s:1138   .text:000000000000046c .LVL71
     /tmp/ccZxeZ9e.s:1172   .text:0000000000000498 .LVL74
     /tmp/ccZxeZ9e.s:1250   .text:00000000000004f0 .LVL81
     /tmp/ccZxeZ9e.s:1273   .text:00000000000004f8 .LVL83
     /tmp/ccZxeZ9e.s:1333   .text:0000000000000540 .LVL90
     /tmp/ccZxeZ9e.s:1403   .text:0000000000000580 .LVL97
     /tmp/ccZxeZ9e.s:1456   .text:00000000000005b0 .LVL102
     /tmp/ccZxeZ9e.s:951    .text:00000000000003d8 .LVL51
     /tmp/ccZxeZ9e.s:960    .text:00000000000003dc .LVL52
     /tmp/ccZxeZ9e.s:967    .text:00000000000003e0 .LVL53
     /tmp/ccZxeZ9e.s:994    .text:00000000000003ec .LVL55
     /tmp/ccZxeZ9e.s:1000   .text:00000000000003f0 .LVL56
     /tmp/ccZxeZ9e.s:1044   .text:000000000000040c .LVL62
     /tmp/ccZxeZ9e.s:1078   .text:0000000000000424 .LVL66
     /tmp/ccZxeZ9e.s:1487   .text:00000000000005cc .LVL105
     /tmp/ccZxeZ9e.s:1084   .text:0000000000000428 .LVL67
     /tmp/ccZxeZ9e.s:1072   .text:0000000000000420 .LVL65
     /tmp/ccZxeZ9e.s:1160   .text:0000000000000490 .LVL73
     /tmp/ccZxeZ9e.s:1211   .text:00000000000004d0 .LVL76
     /tmp/ccZxeZ9e.s:1218   .text:00000000000004d8 .LVL77
     /tmp/ccZxeZ9e.s:1228   .text:00000000000004e4 .LVL79
     /tmp/ccZxeZ9e.s:1237   .text:00000000000004e8 .LVL80
     /tmp/ccZxeZ9e.s:1261   .text:00000000000004f4 .LVL82
     /tmp/ccZxeZ9e.s:1291   .text:000000000000051c .LVL84
     /tmp/ccZxeZ9e.s:1297   .text:0000000000000520 .LVL85
     /tmp/ccZxeZ9e.s:1311   .text:0000000000000534 .LVL88
     /tmp/ccZxeZ9e.s:1320   .text:0000000000000538 .LVL89
     /tmp/ccZxeZ9e.s:1351   .text:0000000000000548 .LVL92
     /tmp/ccZxeZ9e.s:1345   .text:0000000000000544 .LVL91
     /tmp/ccZxeZ9e.s:1509   .text:00000000000005ec .LVL109
     /tmp/ccZxeZ9e.s:1420   .text:0000000000000590 .LVL98
     /tmp/ccZxeZ9e.s:1432   .text:00000000000005a0 .LVL100
     /tmp/ccZxeZ9e.s:1441   .text:00000000000005a4 .LVL101
     /tmp/ccZxeZ9e.s:1467   .text:00000000000005b4 .LVL103
     /tmp/ccZxeZ9e.s:861    .text:0000000000000360 .LVL45
     /tmp/ccZxeZ9e.s:888    .text:000000000000039c .LVL48
     /tmp/ccZxeZ9e.s:895    .text:00000000000003a0 .LVL49
     /tmp/ccZxeZ9e.s:1017   .text:0000000000000400 .LVL59
     /tmp/ccZxeZ9e.s:1026   .text:0000000000000404 .LVL60
     /tmp/ccZxeZ9e.s:347    .text:000000000000015c .LVL19
     /tmp/ccZxeZ9e.s:401    .text:000000000000018c .LVL22
     /tmp/ccZxeZ9e.s:375    .text:0000000000000180 .LVL20
     /tmp/ccZxeZ9e.s:457    .text:0000000000000200 .LVL31
     /tmp/ccZxeZ9e.s:405    .text:0000000000000190 .LVL23
     /tmp/ccZxeZ9e.s:412    .text:0000000000000198 .LVL24
     /tmp/ccZxeZ9e.s:423    .text:00000000000001bc .LVL25
     /tmp/ccZxeZ9e.s:433    .text:00000000000001d0 .LVL27
     /tmp/ccZxeZ9e.s:438    .text:00000000000001d4 .LVL28
     /tmp/ccZxeZ9e.s:429    .text:00000000000001c8 .LVL26
     /tmp/ccZxeZ9e.s:388    .text:0000000000000188 .LVL21
     /tmp/ccZxeZ9e.s:461    .text:0000000000000208 .LVL32
GAS LISTING /tmp/ccZxeZ9e.s 			page 66


     /tmp/ccZxeZ9e.s:470    .text:000000000000020c .LVL33
     /tmp/ccZxeZ9e.s:239    .text:00000000000000ec .LVL10
     /tmp/ccZxeZ9e.s:281    .text:000000000000011c .LVL12
     /tmp/ccZxeZ9e.s:331    .text:0000000000000150 .LVL18
     /tmp/ccZxeZ9e.s:268    .text:0000000000000114 .LVL11
     /tmp/ccZxeZ9e.s:306    .text:0000000000000138 .LVL15
     /tmp/ccZxeZ9e.s:310    .text:0000000000000140 .LVL16
     /tmp/ccZxeZ9e.s:319    .text:0000000000000144 .LVL17
     /tmp/ccZxeZ9e.s:142    .text:0000000000000090 .LVL7
     /tmp/ccZxeZ9e.s:152    .text:0000000000000098 .LVL8
     /tmp/ccZxeZ9e.s:104    .text:0000000000000070 .LVL5
     /tmp/ccZxeZ9e.s:114    .text:0000000000000078 .LVL6
     /tmp/ccZxeZ9e.s:1742   .debug_info:0000000000000000 .Ldebug_info0
     /tmp/ccZxeZ9e.s:563    .text:0000000000000284 .LBB105
     /tmp/ccZxeZ9e.s:604    .text:00000000000002ac .LBE105
     /tmp/ccZxeZ9e.s:608    .text:00000000000002ac .LBB225
     /tmp/ccZxeZ9e.s:615    .text:00000000000002b4 .LBE225
     /tmp/ccZxeZ9e.s:619    .text:00000000000002b4 .LBB226
     /tmp/ccZxeZ9e.s:628    .text:00000000000002bc .LBE226
     /tmp/ccZxeZ9e.s:632    .text:00000000000002bc .LBB227
     /tmp/ccZxeZ9e.s:643    .text:00000000000002c4 .LBE227
     /tmp/ccZxeZ9e.s:647    .text:00000000000002c4 .LBB228
     /tmp/ccZxeZ9e.s:660    .text:00000000000002cc .LBE228
     /tmp/ccZxeZ9e.s:664    .text:00000000000002cc .LBB229
     /tmp/ccZxeZ9e.s:679    .text:00000000000002d4 .LBE229
     /tmp/ccZxeZ9e.s:683    .text:00000000000002d4 .LBB230
     /tmp/ccZxeZ9e.s:700    .text:00000000000002dc .LBE230
     /tmp/ccZxeZ9e.s:704    .text:00000000000002dc .LBB231
     /tmp/ccZxeZ9e.s:723    .text:00000000000002e4 .LBE231
     /tmp/ccZxeZ9e.s:727    .text:00000000000002e4 .LBB232
     /tmp/ccZxeZ9e.s:748    .text:00000000000002ec .LBE232
     /tmp/ccZxeZ9e.s:752    .text:00000000000002ec .LBB233
     /tmp/ccZxeZ9e.s:808    .text:000000000000031c .LBE233
     /tmp/ccZxeZ9e.s:814    .text:000000000000032c .LBB234
     /tmp/ccZxeZ9e.s:822    .text:0000000000000334 .LBE234
     /tmp/ccZxeZ9e.s:848    .text:0000000000000358 .LBB235
     /tmp/ccZxeZ9e.s:1533   .text:0000000000000604 .LBE235
     /tmp/ccZxeZ9e.s:1336   .text:0000000000000540 .LBB129
     /tmp/ccZxeZ9e.s:1390   .text:000000000000057c .LBE129
     /tmp/ccZxeZ9e.s:1515   .text:00000000000005ec .LBB131
     /tmp/ccZxeZ9e.s:1525   .text:0000000000000604 .LBE131
     /tmp/ccZxeZ9e.s:1062   .text:000000000000041c .LBB175
     /tmp/ccZxeZ9e.s:1125   .text:0000000000000468 .LBE175
     /tmp/ccZxeZ9e.s:1497   .text:00000000000005d0 .LBB177
     /tmp/ccZxeZ9e.s:1510   .text:00000000000005ec .LBE177
     /tmp/ccZxeZ9e.s:1539   .gcc_except_table:0000000000000000 .LLSDA32
     /tmp/ccZxeZ9e.s:1694   .gcc_except_table:000000000000005f .LLSDA33

UNDEFINED SYMBOLS
_Z8userMainv
_ZN5Riscv14supervisorTrapEv
_ZN3PCB10initializeEv
_ZN8KConsole10initializeEv
__putc
_ZN10KSemaphoreD1Ev
_ZN10KSemaphoredlEPv
console_handler
GAS LISTING /tmp/ccZxeZ9e.s 			page 67


_ZN3PCB16timeSliceCounterE
_ZN12SleepPCBList13tryToWakePCBsEv
_ZN3PCB7runningE
_ZN3PCB8dispatchEv
_Z7kmallocm
_Z5kfreePv
_ZN3PCBnwEm
_ZN3PCBC1EPFvPvES0_S0_m
_ZN12SleepPCBList17insertSleepingPCBEv
_ZN10KSemaphorenwEm
_ZN10KSemaphoreC1Ei
_ZN10KSemaphore4waitEv
_ZN10KSemaphore6signalEv
_ZN3PCBdlEPv
_Unwind_Resume
__gxx_personality_v0
thread_dispatch
