GAS LISTING /tmp/cc3nUUqy.s 			page 1


   1              		.file	"Riscv.cpp"
   2              		.option pic
   3              		.option norelax
   4              		.text
   5              	.Ltext0:
   6              		.align	2
   7              		.globl	_ZN5Riscv10initSystemEv
   9              	_ZN5Riscv10initSystemEv:
  10              	.LFB21:
  11              		.file 1 "src/Riscv.cpp"
   1:src/Riscv.cpp **** //
   2:src/Riscv.cpp **** // Created by os on 4/27/22.
   3:src/Riscv.cpp **** //
   4:src/Riscv.cpp **** 
   5:src/Riscv.cpp **** #include "../h/Riscv.hpp"
   6:src/Riscv.cpp **** #include "../h/MemoryAllocator.hpp"
   7:src/Riscv.cpp **** #include "../h/PCB.hpp"
   8:src/Riscv.cpp **** #include "../lib/console.h"
   9:src/Riscv.cpp **** #include "../h/syscall_cpp.hpp"
  10:src/Riscv.cpp **** #include "../h/SleepPCBList.hpp"
  11:src/Riscv.cpp **** 
  12:src/Riscv.cpp **** //todo
  13:src/Riscv.cpp **** //sta sve treba da se odradi ovde
  14:src/Riscv.cpp **** void Riscv::initSystem()
  15:src/Riscv.cpp **** {
  12              		.loc 1 15 1
  13              		.cfi_startproc
  14              		.cfi_personality 0x9b,DW.ref.__gxx_personality_v0
  15              		.cfi_lsda 0x1b,.LLSDA21
  16 0000 130101FE 		addi	sp,sp,-32
  17              		.cfi_def_cfa_offset 32
  18 0004 233C1100 		sd	ra,24(sp)
  19 0008 23388100 		sd	s0,16(sp)
  20 000c 23349100 		sd	s1,8(sp)
  21 0010 23302101 		sd	s2,0(sp)
  22              		.cfi_offset 1, -8
  23              		.cfi_offset 8, -16
  24              		.cfi_offset 9, -24
  25              		.cfi_offset 18, -32
  26 0014 13040102 		addi	s0,sp,32
  27              		.cfi_def_cfa 8, 0
  16:src/Riscv.cpp ****     w_stvec((uint64)&Riscv::supervisorTrap);
  28              		.loc 1 16 5
  29              		.loc 1 16 12 is_stmt 0
  30 0018 97070000 		la	a5,_ZN5Riscv14supervisorTrapEv
  30      83B70700 
  31              	.LVL0:
  32              	.LBB80:
  33              	.LBB81:
  34              		.file 2 "src/../h/Riscv.hpp"
   1:src/../h/Riscv.hpp **** //
   2:src/../h/Riscv.hpp **** // Created by os on 4/27/22.
   3:src/../h/Riscv.hpp **** //
   4:src/../h/Riscv.hpp **** 
   5:src/../h/Riscv.hpp **** #ifndef PROJECT_BASE_V1_0_RISCV_HPP
   6:src/../h/Riscv.hpp **** #define PROJECT_BASE_V1_0_RISCV_HPP
   7:src/../h/Riscv.hpp **** 
GAS LISTING /tmp/cc3nUUqy.s 			page 2


   8:src/../h/Riscv.hpp **** #include "../lib/hw.h"
   9:src/../h/Riscv.hpp **** 
  10:src/../h/Riscv.hpp **** class Riscv
  11:src/../h/Riscv.hpp **** {
  12:src/../h/Riscv.hpp **** private:
  13:src/../h/Riscv.hpp **** 
  14:src/../h/Riscv.hpp **** public:
  15:src/../h/Riscv.hpp ****     static void initSystem();
  16:src/../h/Riscv.hpp ****     static void endSystem();
  17:src/../h/Riscv.hpp **** 
  18:src/../h/Riscv.hpp ****     static void enableInterrupts();
  19:src/../h/Riscv.hpp **** 
  20:src/../h/Riscv.hpp ****     static void disableInterrupts();
  21:src/../h/Riscv.hpp **** 
  22:src/../h/Riscv.hpp ****     static void printString(char const *string);
  23:src/../h/Riscv.hpp **** 
  24:src/../h/Riscv.hpp ****     static void printInteger(uint64 num);
  25:src/../h/Riscv.hpp **** 
  26:src/../h/Riscv.hpp ****     static void pushRegisters();
  27:src/../h/Riscv.hpp ****     static void popRegisters();
  28:src/../h/Riscv.hpp **** 
  29:src/../h/Riscv.hpp ****     static uint64 r_scause();
  30:src/../h/Riscv.hpp ****     static void w_scause(uint64 scause);
  31:src/../h/Riscv.hpp **** 
  32:src/../h/Riscv.hpp ****     static uint64 r_sepc();
  33:src/../h/Riscv.hpp ****     static void w_sepc(uint64 sepc);
  34:src/../h/Riscv.hpp **** 
  35:src/../h/Riscv.hpp ****     static uint64 r_stvec();
  36:src/../h/Riscv.hpp ****     static void w_stvec(uint64 stvec);
  37:src/../h/Riscv.hpp **** 
  38:src/../h/Riscv.hpp ****     static uint64 r_stval();
  39:src/../h/Riscv.hpp ****     static void w_stval(uint64 stval);
  40:src/../h/Riscv.hpp **** 
  41:src/../h/Riscv.hpp ****     enum BitMaskSip
  42:src/../h/Riscv.hpp ****     {
  43:src/../h/Riscv.hpp ****         SIP_SSIP = (1 << 1),
  44:src/../h/Riscv.hpp ****         SIP_STIP = (1 << 5),
  45:src/../h/Riscv.hpp ****         SIP_SEIP = (1 << 9),
  46:src/../h/Riscv.hpp ****     };
  47:src/../h/Riscv.hpp **** 
  48:src/../h/Riscv.hpp ****     static void ms_sip(uint64 mask);
  49:src/../h/Riscv.hpp **** 
  50:src/../h/Riscv.hpp ****     static void mc_sip(uint64 mask);
  51:src/../h/Riscv.hpp **** 
  52:src/../h/Riscv.hpp ****     static uint64 r_sip();
  53:src/../h/Riscv.hpp **** 
  54:src/../h/Riscv.hpp ****     static void w_sip(uint64 sip);
  55:src/../h/Riscv.hpp **** 
  56:src/../h/Riscv.hpp ****     enum BitMaskSstatus
  57:src/../h/Riscv.hpp ****     {
  58:src/../h/Riscv.hpp ****         SSTATUS_SIE = (1 << 1),
  59:src/../h/Riscv.hpp ****         SSTATUS_SPIE = (1 << 5),
  60:src/../h/Riscv.hpp ****         SSTATUS_SPP = (1 << 8),
  61:src/../h/Riscv.hpp ****     };
  62:src/../h/Riscv.hpp **** 
  63:src/../h/Riscv.hpp ****     static void ms_sstatus(uint64 mask);
  64:src/../h/Riscv.hpp **** 
GAS LISTING /tmp/cc3nUUqy.s 			page 3


  65:src/../h/Riscv.hpp ****     static void mc_sstatus(uint64 mask);
  66:src/../h/Riscv.hpp **** 
  67:src/../h/Riscv.hpp ****     static uint64 r_sstatus();
  68:src/../h/Riscv.hpp **** 
  69:src/../h/Riscv.hpp ****     static void w_sstatus(uint64 sstatus);
  70:src/../h/Riscv.hpp **** 
  71:src/../h/Riscv.hpp ****     static void popSppSpie();
  72:src/../h/Riscv.hpp **** 
  73:src/../h/Riscv.hpp ****     static void supervisorTrap();
  74:src/../h/Riscv.hpp ****     static void handleSupervisorTrap();
  75:src/../h/Riscv.hpp **** 
  76:src/../h/Riscv.hpp ****     static const uint64 bntOne = 1UL << 63;;
  77:src/../h/Riscv.hpp ****     static const uint64 bntZero = 0UL;
  78:src/../h/Riscv.hpp ****     static const uint64 timerInterrupt = bntOne + 1UL;
  79:src/../h/Riscv.hpp ****     static const uint64 hwInterrupt = bntOne + 9UL;
  80:src/../h/Riscv.hpp ****     static const uint64 operationInterrupt = bntZero + 2UL;
  81:src/../h/Riscv.hpp ****     static const uint64 addrReadInterrupt = bntZero + 5UL;
  82:src/../h/Riscv.hpp ****     static const uint64 addrWriteInterrupt = bntZero + 7UL;
  83:src/../h/Riscv.hpp ****     static const uint64 ecallUserInterrupt = bntZero + 8UL;
  84:src/../h/Riscv.hpp ****     static const uint64 ecallSystemInterupt = bntZero + 9UL;
  85:src/../h/Riscv.hpp **** };
  86:src/../h/Riscv.hpp **** 
  87:src/../h/Riscv.hpp **** inline uint64 Riscv::r_scause() {
  88:src/../h/Riscv.hpp ****     uint64 volatile scause;
  89:src/../h/Riscv.hpp ****     __asm__ volatile("csrr %0, scause" : "=r"(scause));
  90:src/../h/Riscv.hpp ****     return scause;
  91:src/../h/Riscv.hpp **** }
  92:src/../h/Riscv.hpp **** 
  93:src/../h/Riscv.hpp **** inline void Riscv::w_scause(uint64 scause) {
  94:src/../h/Riscv.hpp ****     __asm__ volatile("csrw scause, %0" : :"r"(scause));
  95:src/../h/Riscv.hpp **** }
  96:src/../h/Riscv.hpp **** 
  97:src/../h/Riscv.hpp **** inline uint64 Riscv::r_sepc() {
  98:src/../h/Riscv.hpp ****     uint64 volatile sepc;
  99:src/../h/Riscv.hpp ****     __asm__ volatile("csrr %0, sepc" : "=r"(sepc));
 100:src/../h/Riscv.hpp ****     return sepc;
 101:src/../h/Riscv.hpp **** }
 102:src/../h/Riscv.hpp **** 
 103:src/../h/Riscv.hpp **** inline void Riscv::w_sepc(uint64 sepc) {
 104:src/../h/Riscv.hpp ****     __asm__ volatile("csrw sepc, %0" : :"r"(sepc));
 105:src/../h/Riscv.hpp **** }
 106:src/../h/Riscv.hpp **** 
 107:src/../h/Riscv.hpp **** inline uint64 Riscv::r_stvec() {
 108:src/../h/Riscv.hpp ****     uint64 volatile stvec;
 109:src/../h/Riscv.hpp ****     __asm__ volatile("csrr %0, stvec" : "=r"(stvec));
 110:src/../h/Riscv.hpp ****     return stvec;
 111:src/../h/Riscv.hpp **** }
 112:src/../h/Riscv.hpp **** 
 113:src/../h/Riscv.hpp **** inline void Riscv::w_stvec(uint64 stvec) {
 114:src/../h/Riscv.hpp ****     __asm__ volatile("csrw stvec, %0" : :"r"(stvec));
  35              		.loc 2 114 5 is_stmt 1
  36              		.loc 2 114 53 is_stmt 0
  37              	#APP
  38              	# 114 "src/../h/Riscv.hpp" 1
 115              	}
  39              		csrw stvec, a5
  40              	# 0 "" 2
GAS LISTING /tmp/cc3nUUqy.s 			page 4


  41              	.LVL1:
  42              	#NO_APP
  43              	.LBE81:
  44              	.LBE80:
  17:src/Riscv.cpp ****     Thread* t = new Thread(0, 0);
  45              		.loc 1 17 5 is_stmt 1
  46              		.loc 1 17 32 is_stmt 0
  47 0024 13058001 		li	a0,24
  48              	.LEHB0:
  49 0028 97000000 		call	_Znwm@plt
  49      E7800000 
  50              	.LVL2:
  51              	.LEHE0:
  52 0030 93040500 		mv	s1,a0
  53 0034 13060000 		li	a2,0
  54 0038 93050000 		li	a1,0
  55              	.LEHB1:
  56 003c 97000000 		call	_ZN6ThreadC1EPFvPvES0_@plt
  56      E7800000 
  57              	.LVL3:
  58              	.LEHE1:
  18:src/Riscv.cpp ****     t->start();
  59              		.loc 1 18 5 is_stmt 1 discriminator 2
  60              		.loc 1 18 13 is_stmt 0 discriminator 2
  61 0044 13850400 		mv	a0,s1
  62              	.LEHB2:
  63 0048 97000000 		call	_ZN6Thread5startEv@plt
  63      E7800000 
  64              	.LVL4:
  19:src/Riscv.cpp ****     PCB::running = Scheduler::get();
  65              		.loc 1 19 5 is_stmt 1 discriminator 2
  66              		.loc 1 19 34 is_stmt 0 discriminator 2
  67 0050 97000000 		call	_ZN9Scheduler3getEv@plt
  67      E7800000 
  68              	.LVL5:
  69              	.LEHE2:
  70              		.loc 1 19 18 discriminator 2
  71 0058 97070000 		la	a5,_ZN3PCB7runningE
  71      83B70700 
  72 0060 23B0A700 		sd	a0,0(a5)
  20:src/Riscv.cpp ****     PCB::running->setState(PCB::RUNNING);
  73              		.loc 1 20 5 is_stmt 1 discriminator 2
  74              	.LVL6:
  75              	.LBB82:
  76              	.LBB83:
  77              		.file 3 "src/../h/PCB.hpp"
   1:src/../h/PCB.hpp **** //
   2:src/../h/PCB.hpp **** // Created by os on 4/27/22.
   3:src/../h/PCB.hpp **** //
   4:src/../h/PCB.hpp **** 
   5:src/../h/PCB.hpp **** #ifndef PROJECT_BASE_V1_0_PCB_HPP
   6:src/../h/PCB.hpp **** #define PROJECT_BASE_V1_0_PCB_HPP
   7:src/../h/PCB.hpp **** 
   8:src/../h/PCB.hpp **** #include "../lib/hw.h"
   9:src/../h/PCB.hpp **** #include "Scheduler.hpp"
  10:src/../h/PCB.hpp **** #include "Riscv.hpp"
  11:src/../h/PCB.hpp **** 
GAS LISTING /tmp/cc3nUUqy.s 			page 5


  12:src/../h/PCB.hpp **** class PCB
  13:src/../h/PCB.hpp **** {
  14:src/../h/PCB.hpp **** public:
  15:src/../h/PCB.hpp ****     using Body = void (*)(void*);
  16:src/../h/PCB.hpp **** 
  17:src/../h/PCB.hpp ****     PCB(Body body,  void* args, void* stack_space, uint64 timeSlice);
  18:src/../h/PCB.hpp ****     ~PCB();
  19:src/../h/PCB.hpp **** 
  20:src/../h/PCB.hpp ****     void start();
  21:src/../h/PCB.hpp ****     static void dispatch();
  22:src/../h/PCB.hpp ****     static void sleep(time_t);
  23:src/../h/PCB.hpp **** 
  24:src/../h/PCB.hpp ****     static PCB* running;
  25:src/../h/PCB.hpp ****     static PCB* exitingPCB;
  26:src/../h/PCB.hpp **** 
  27:src/../h/PCB.hpp ****     static uint64 timeSliceCounter;
  28:src/../h/PCB.hpp ****     uint64 getTimeSlice() { return timeSlice;}
  29:src/../h/PCB.hpp **** 
  30:src/../h/PCB.hpp ****     void* operator new(size_t size);
  31:src/../h/PCB.hpp ****     void operator delete(void *p);
  32:src/../h/PCB.hpp **** 
  33:src/../h/PCB.hpp ****     enum State{READY, RUNNING, SUSPENDED, FINISHED, EXITING, SLEEPING};
  34:src/../h/PCB.hpp ****     State getState() {return state;}
  35:src/../h/PCB.hpp ****     void setState(State s) {state = s;}
  78              		.loc 3 35 29 discriminator 2
  79              		.loc 3 35 35 is_stmt 0 discriminator 2
  80 0064 93071000 		li	a5,1
  81 0068 2328F502 		sw	a5,48(a0)
  82              	.LVL7:
  83              	.LBE83:
  84              	.LBE82:
  21:src/Riscv.cpp **** }
  85              		.loc 1 21 1 discriminator 2
  86 006c 83308101 		ld	ra,24(sp)
  87              		.cfi_remember_state
  88              		.cfi_restore 1
  89 0070 03340101 		ld	s0,16(sp)
  90              		.cfi_restore 8
  91              		.cfi_def_cfa 2, 32
  92 0074 83348100 		ld	s1,8(sp)
  93              		.cfi_restore 9
  94              	.LVL8:
  95 0078 03390100 		ld	s2,0(sp)
  96              		.cfi_restore 18
  97 007c 13010102 		addi	sp,sp,32
  98              		.cfi_def_cfa_offset 0
  99 0080 67800000 		jr	ra
 100              	.L3:
 101              		.cfi_restore_state
 102 0084 13090500 		mv	s2,a0
  17:src/Riscv.cpp ****     t->start();
 103              		.loc 1 17 32
 104 0088 13850400 		mv	a0,s1
 105 008c 97000000 		call	_ZdlPv@plt
 105      E7800000 
 106              	.LVL9:
 107 0094 13050900 		mv	a0,s2
GAS LISTING /tmp/cc3nUUqy.s 			page 6


 108              	.LEHB3:
 109 0098 97000000 		call	_Unwind_Resume@plt
 109      E7800000 
 110              	.LVL10:
 111              	.LEHE3:
 112              		.cfi_endproc
 113              	.LFE21:
 114              		.globl	__gxx_personality_v0
 115              		.section	.gcc_except_table,"a",@progbits
 116              	.LLSDA21:
 117 0000 FF       		.byte	0xff
 118 0001 FF       		.byte	0xff
 119 0002 03       		.byte	0x3
 120 0003 34       		.byte	0x34
 121 0004 00000000 		.4byte	.LEHB0-.LFB21
 122 0008 00000000 		.4byte	.LEHE0-.LEHB0
 123 000c 00000000 		.4byte	0
 124 0010 00       		.byte	0
 125 0011 00000000 		.4byte	.LEHB1-.LFB21
 126 0015 00000000 		.4byte	.LEHE1-.LEHB1
 127 0019 00000000 		.4byte	.L3-.LFB21
 128 001d 00       		.byte	0
 129 001e 00000000 		.4byte	.LEHB2-.LFB21
 130 0022 00000000 		.4byte	.LEHE2-.LEHB2
 131 0026 00000000 		.4byte	0
 132 002a 00       		.byte	0
 133 002b 00000000 		.4byte	.LEHB3-.LFB21
 134 002f 00000000 		.4byte	.LEHE3-.LEHB3
 135 0033 00000000 		.4byte	0
 136 0037 00       		.byte	0
 137              		.text
 139              		.align	2
 140              		.globl	_ZN5Riscv16enableInterruptsEv
 142              	_ZN5Riscv16enableInterruptsEv:
 143              	.LFB23:
  22:src/Riscv.cpp **** 
  23:src/Riscv.cpp **** void Riscv::endSystem() {
  24:src/Riscv.cpp ****     //todo
  25:src/Riscv.cpp ****     //da li treba jos nesto da se ocisti
  26:src/Riscv.cpp ****     Riscv::disableInterrupts();
  27:src/Riscv.cpp **** }
  28:src/Riscv.cpp **** 
  29:src/Riscv.cpp **** 
  30:src/Riscv.cpp **** void Riscv::enableInterrupts() {
 144              		.loc 1 30 32 is_stmt 1
 145              		.cfi_startproc
 146 00a0 130101FF 		addi	sp,sp,-16
 147              		.cfi_def_cfa_offset 16
 148 00a4 23348100 		sd	s0,8(sp)
 149              		.cfi_offset 8, -8
 150 00a8 13040101 		addi	s0,sp,16
 151              		.cfi_def_cfa 8, 0
  31:src/Riscv.cpp ****     ms_sstatus(Riscv::SSTATUS_SIE);
 152              		.loc 1 31 5
 153              	.LVL11:
 154              	.LBB84:
 155              	.LBB85:
GAS LISTING /tmp/cc3nUUqy.s 			page 7


 116:src/../h/Riscv.hpp **** 
 117:src/../h/Riscv.hpp **** inline uint64 Riscv::r_stval() {
 118:src/../h/Riscv.hpp ****     uint64 volatile stval;
 119:src/../h/Riscv.hpp ****     __asm__ volatile("csrr %0, stval" : "=r"(stval));
 120:src/../h/Riscv.hpp ****     return stval;
 121:src/../h/Riscv.hpp **** }
 122:src/../h/Riscv.hpp **** 
 123:src/../h/Riscv.hpp **** inline void Riscv::w_stval(uint64 stval) {
 124:src/../h/Riscv.hpp ****     __asm__ volatile("csrw stval, %0" : :"r"(stval));
 125:src/../h/Riscv.hpp **** }
 126:src/../h/Riscv.hpp **** 
 127:src/../h/Riscv.hpp **** inline void Riscv::ms_sip(uint64 mask) {
 128:src/../h/Riscv.hpp ****     __asm__ volatile("csrs sip, %0" : :"r"(mask));
 129:src/../h/Riscv.hpp **** }
 130:src/../h/Riscv.hpp **** 
 131:src/../h/Riscv.hpp **** inline void Riscv::mc_sip(uint64 mask) {
 132:src/../h/Riscv.hpp ****     __asm__ volatile("csrc sip, %0" : :"r"(mask));
 133:src/../h/Riscv.hpp **** }
 134:src/../h/Riscv.hpp **** 
 135:src/../h/Riscv.hpp **** inline uint64 Riscv::r_sip() {
 136:src/../h/Riscv.hpp ****     uint64 volatile sip;
 137:src/../h/Riscv.hpp ****     __asm__ volatile("csrr %0, sip" : "=r"(sip));
 138:src/../h/Riscv.hpp ****     return sip;
 139:src/../h/Riscv.hpp **** }
 140:src/../h/Riscv.hpp **** 
 141:src/../h/Riscv.hpp **** inline void Riscv::w_sip(uint64 sip) {
 142:src/../h/Riscv.hpp ****     __asm__ volatile("csrw sip, %0" : :"r"(sip));
 143:src/../h/Riscv.hpp **** }
 144:src/../h/Riscv.hpp **** 
 145:src/../h/Riscv.hpp **** inline void Riscv::ms_sstatus(uint64 mask) {
 146:src/../h/Riscv.hpp ****     __asm__ volatile("csrs sstatus, %0" : :"r"(mask));
 156              		.loc 2 146 5
 157              		.loc 2 146 54 is_stmt 0
 158 00ac 93072000 		li	a5,2
 159              	#APP
 160              	# 146 "src/../h/Riscv.hpp" 1
 147              	}
 161              		csrs sstatus, a5
 162              	# 0 "" 2
 163              	.LVL12:
 164              	#NO_APP
 165              	.LBE85:
 166              	.LBE84:
  32:src/Riscv.cpp **** }
 167              		.loc 1 32 1
 168 00b4 03348100 		ld	s0,8(sp)
 169              		.cfi_restore 8
 170              		.cfi_def_cfa 2, 16
 171 00b8 13010101 		addi	sp,sp,16
 172              		.cfi_def_cfa_offset 0
 173 00bc 67800000 		jr	ra
 174              		.cfi_endproc
 175              	.LFE23:
 177              		.align	2
 178              		.globl	_ZN5Riscv17disableInterruptsEv
 180              	_ZN5Riscv17disableInterruptsEv:
 181              	.LFB24:
GAS LISTING /tmp/cc3nUUqy.s 			page 8


  33:src/Riscv.cpp **** 
  34:src/Riscv.cpp **** void Riscv::disableInterrupts()
  35:src/Riscv.cpp **** {
 182              		.loc 1 35 1 is_stmt 1
 183              		.cfi_startproc
 184 00c0 130101FF 		addi	sp,sp,-16
 185              		.cfi_def_cfa_offset 16
 186 00c4 23348100 		sd	s0,8(sp)
 187              		.cfi_offset 8, -8
 188 00c8 13040101 		addi	s0,sp,16
 189              		.cfi_def_cfa 8, 0
  36:src/Riscv.cpp ****     mc_sstatus(Riscv::SSTATUS_SIE);
 190              		.loc 1 36 5
 191              	.LVL13:
 192              	.LBB86:
 193              	.LBB87:
 148:src/../h/Riscv.hpp **** 
 149:src/../h/Riscv.hpp **** inline void Riscv::mc_sstatus(uint64 mask) {
 150:src/../h/Riscv.hpp ****     __asm__ volatile("csrc sstatus, %0" : :"r"(mask));
 194              		.loc 2 150 5
 195              		.loc 2 150 54 is_stmt 0
 196 00cc 93072000 		li	a5,2
 197              	#APP
 198              	# 150 "src/../h/Riscv.hpp" 1
 151              	}
 199              		csrc sstatus, a5
 200              	# 0 "" 2
 201              	.LVL14:
 202              	#NO_APP
 203              	.LBE87:
 204              	.LBE86:
  37:src/Riscv.cpp **** }
 205              		.loc 1 37 1
 206 00d4 03348100 		ld	s0,8(sp)
 207              		.cfi_restore 8
 208              		.cfi_def_cfa 2, 16
 209 00d8 13010101 		addi	sp,sp,16
 210              		.cfi_def_cfa_offset 0
 211 00dc 67800000 		jr	ra
 212              		.cfi_endproc
 213              	.LFE24:
 215              		.align	2
 216              		.globl	_ZN5Riscv9endSystemEv
 218              	_ZN5Riscv9endSystemEv:
 219              	.LFB22:
  23:src/Riscv.cpp ****     //todo
 220              		.loc 1 23 25 is_stmt 1
 221              		.cfi_startproc
 222 00e0 130101FF 		addi	sp,sp,-16
 223              		.cfi_def_cfa_offset 16
 224 00e4 23341100 		sd	ra,8(sp)
 225 00e8 23308100 		sd	s0,0(sp)
 226              		.cfi_offset 1, -8
 227              		.cfi_offset 8, -16
 228 00ec 13040101 		addi	s0,sp,16
 229              		.cfi_def_cfa 8, 0
  26:src/Riscv.cpp **** }
GAS LISTING /tmp/cc3nUUqy.s 			page 9


 230              		.loc 1 26 5
  26:src/Riscv.cpp **** }
 231              		.loc 1 26 29 is_stmt 0
 232 00f0 97000000 		call	_ZN5Riscv17disableInterruptsEv
 232      E7800000 
 233              	.LVL15:
  27:src/Riscv.cpp **** 
 234              		.loc 1 27 1
 235 00f8 83308100 		ld	ra,8(sp)
 236              		.cfi_restore 1
 237 00fc 03340100 		ld	s0,0(sp)
 238              		.cfi_restore 8
 239              		.cfi_def_cfa 2, 16
 240 0100 13010101 		addi	sp,sp,16
 241              		.cfi_def_cfa_offset 0
 242 0104 67800000 		jr	ra
 243              		.cfi_endproc
 244              	.LFE22:
 246              		.align	2
 247              		.globl	_ZN5Riscv10popSppSpieEv
 249              	_ZN5Riscv10popSppSpieEv:
 250              	.LFB25:
  38:src/Riscv.cpp **** 
  39:src/Riscv.cpp **** void Riscv::popSppSpie() {
 251              		.loc 1 39 26 is_stmt 1
 252              		.cfi_startproc
 253 0108 130101FF 		addi	sp,sp,-16
 254              		.cfi_def_cfa_offset 16
 255 010c 23348100 		sd	s0,8(sp)
 256              		.cfi_offset 8, -8
 257 0110 13040101 		addi	s0,sp,16
 258              		.cfi_def_cfa 8, 0
  40:src/Riscv.cpp ****     __asm__ volatile ("csrw sepc, ra");
 259              		.loc 1 40 5
 260              		.loc 1 40 39 is_stmt 0
 261              	#APP
 262              	# 40 "src/Riscv.cpp" 1
  41              	    __asm__ volatile ("sret");
 263              		csrw sepc, ra
 264              	# 0 "" 2
 265              		.loc 1 41 5 is_stmt 1
 266              		.loc 1 41 30 is_stmt 0
 267              	# 41 "src/Riscv.cpp" 1
  42              	}
 268              		sret
 269              	# 0 "" 2
 270              		.loc 1 42 1
 271              	#NO_APP
 272 011c 03348100 		ld	s0,8(sp)
 273              		.cfi_restore 8
 274              		.cfi_def_cfa 2, 16
 275 0120 13010101 		addi	sp,sp,16
 276              		.cfi_def_cfa_offset 0
 277 0124 67800000 		jr	ra
 278              		.cfi_endproc
 279              	.LFE25:
 281              		.align	2
GAS LISTING /tmp/cc3nUUqy.s 			page 10


 282              		.globl	_ZN5Riscv11printStringEPKc
 284              	_ZN5Riscv11printStringEPKc:
 285              	.LFB26:
  43:src/Riscv.cpp **** 
  44:src/Riscv.cpp **** void Riscv::printString(const char *string)
  45:src/Riscv.cpp **** {
 286              		.loc 1 45 1 is_stmt 1
 287              		.cfi_startproc
 288              	.LVL16:
 289 0128 130101FD 		addi	sp,sp,-48
 290              		.cfi_def_cfa_offset 48
 291 012c 23341102 		sd	ra,40(sp)
 292 0130 23308102 		sd	s0,32(sp)
 293 0134 233C9100 		sd	s1,24(sp)
 294 0138 23382101 		sd	s2,16(sp)
 295              		.cfi_offset 1, -8
 296              		.cfi_offset 8, -16
 297              		.cfi_offset 9, -24
 298              		.cfi_offset 18, -32
 299 013c 13040103 		addi	s0,sp,48
 300              		.cfi_def_cfa 8, 0
 301 0140 93040500 		mv	s1,a0
  46:src/Riscv.cpp ****     uint64 sstatus = r_sstatus();
 302              		.loc 1 46 5
 303              	.LBB88:
 304              	.LBB89:
 152:src/../h/Riscv.hpp **** 
 153:src/../h/Riscv.hpp **** inline uint64 Riscv::r_sstatus() {
 154:src/../h/Riscv.hpp ****     uint64 volatile sstatus;
 305              		.loc 2 154 5
 155:src/../h/Riscv.hpp ****     __asm__ volatile("csrr %0, sstatus" : "=r"(sstatus));
 306              		.loc 2 155 5
 307              		.loc 2 155 57 is_stmt 0
 308              	#APP
 309              	# 155 "src/../h/Riscv.hpp" 1
 156              	    return sstatus;
 310              		csrr a5, sstatus
 311              	# 0 "" 2
 312              	#NO_APP
 313 0148 233CF4FC 		sd	a5,-40(s0)
 314              		.loc 2 156 5 is_stmt 1
 315              		.loc 2 156 12 is_stmt 0
 316 014c 033984FD 		ld	s2,-40(s0)
 317              	.LVL17:
 318              	.LBE89:
 319              	.LBE88:
  47:src/Riscv.cpp ****     mc_sstatus(SSTATUS_SIE);
 320              		.loc 1 47 5 is_stmt 1
 321              	.LBB90:
 322              	.LBB91:
 150:src/../h/Riscv.hpp **** }
 323              		.loc 2 150 5
 150:src/../h/Riscv.hpp **** }
 324              		.loc 2 150 54 is_stmt 0
 325 0150 93072000 		li	a5,2
 326              	#APP
 327              	# 150 "src/../h/Riscv.hpp" 1
GAS LISTING /tmp/cc3nUUqy.s 			page 11


 328              		csrc sstatus, a5
 329              	# 0 "" 2
 330              	.LVL18:
 331              	#NO_APP
 332              	.L16:
 333              	.LBE91:
 334              	.LBE90:
  48:src/Riscv.cpp ****     while (*string != '\0')
 335              		.loc 1 48 5 is_stmt 1
 336              		.loc 1 48 20
 337              		.loc 1 48 12 is_stmt 0
 338 0158 03C50400 		lbu	a0,0(s1)
 339              		.loc 1 48 20
 340 015c 630A0500 		beqz	a0,.L15
  49:src/Riscv.cpp ****     {
  50:src/Riscv.cpp ****         __putc(*string);
 341              		.loc 1 50 9 is_stmt 1
 342              		.loc 1 50 15 is_stmt 0
 343 0160 97000000 		call	__putc@plt
 343      E7800000 
 344              	.LVL19:
  51:src/Riscv.cpp ****         string++;
 345              		.loc 1 51 9 is_stmt 1
 346              		.loc 1 51 15 is_stmt 0
 347 0168 93841400 		addi	s1,s1,1
 348              	.LVL20:
  48:src/Riscv.cpp ****     while (*string != '\0')
 349              		.loc 1 48 5
 350 016c 6FF0DFFE 		j	.L16
 351              	.L15:
  52:src/Riscv.cpp ****     }
  53:src/Riscv.cpp ****     ms_sstatus(sstatus & SSTATUS_SIE ? SSTATUS_SIE : 0);
 352              		.loc 1 53 5 is_stmt 1
 353              		.loc 1 53 38 is_stmt 0
 354 0170 1B090900 		sext.w	s2,s2
 355              	.LVL21:
 356              		.loc 1 53 15
 357 0174 13792900 		andi	s2,s2,2
 358 0178 1B090900 		sext.w	s2,s2
 359              	.LVL22:
 360              	.LBB92:
 361              	.LBB93:
 146:src/../h/Riscv.hpp **** }
 362              		.loc 2 146 5 is_stmt 1
 146:src/../h/Riscv.hpp **** }
 363              		.loc 2 146 54 is_stmt 0
 364              	#APP
 365              	# 146 "src/../h/Riscv.hpp" 1
 366              		csrs sstatus, s2
 367              	# 0 "" 2
 368              	.LVL23:
 369              	#NO_APP
 370              	.LBE93:
 371              	.LBE92:
  54:src/Riscv.cpp **** }
 372              		.loc 1 54 1
 373 0180 83308102 		ld	ra,40(sp)
GAS LISTING /tmp/cc3nUUqy.s 			page 12


 374              		.cfi_restore 1
 375 0184 03340102 		ld	s0,32(sp)
 376              		.cfi_restore 8
 377              		.cfi_def_cfa 2, 48
 378 0188 83348101 		ld	s1,24(sp)
 379              		.cfi_restore 9
 380              	.LVL24:
 381 018c 03390101 		ld	s2,16(sp)
 382              		.cfi_restore 18
 383 0190 13010103 		addi	sp,sp,48
 384              		.cfi_def_cfa_offset 0
 385 0194 67800000 		jr	ra
 386              		.cfi_endproc
 387              	.LFE26:
 389              		.align	2
 390              		.globl	_ZN5Riscv12printIntegerEm
 392              	_ZN5Riscv12printIntegerEm:
 393              	.LFB27:
  55:src/Riscv.cpp **** 
  56:src/Riscv.cpp **** void Riscv::printInteger(uint64 num)
  57:src/Riscv.cpp **** {
 394              		.loc 1 57 1 is_stmt 1
 395              		.cfi_startproc
 396              	.LVL25:
 397 0198 130101FC 		addi	sp,sp,-64
 398              		.cfi_def_cfa_offset 64
 399 019c 233C1102 		sd	ra,56(sp)
 400 01a0 23388102 		sd	s0,48(sp)
 401 01a4 23349102 		sd	s1,40(sp)
 402 01a8 23302103 		sd	s2,32(sp)
 403              		.cfi_offset 1, -8
 404              		.cfi_offset 8, -16
 405              		.cfi_offset 9, -24
 406              		.cfi_offset 18, -32
 407 01ac 13040104 		addi	s0,sp,64
 408              		.cfi_def_cfa 8, 0
  58:src/Riscv.cpp ****     uint64 sstatus = r_sstatus();
 409              		.loc 1 58 5
 410              	.LBB94:
 411              	.LBB95:
 154:src/../h/Riscv.hpp ****     __asm__ volatile("csrr %0, sstatus" : "=r"(sstatus));
 412              		.loc 2 154 5
 155:src/../h/Riscv.hpp ****     return sstatus;
 413              		.loc 2 155 5
 155:src/../h/Riscv.hpp ****     return sstatus;
 414              		.loc 2 155 57 is_stmt 0
 415              	#APP
 416              	# 155 "src/../h/Riscv.hpp" 1
 417              		csrr a5, sstatus
 418              	# 0 "" 2
 419              	#NO_APP
 420 01b4 2334F4FC 		sd	a5,-56(s0)
 421              		.loc 2 156 5 is_stmt 1
 422              		.loc 2 156 12 is_stmt 0
 423 01b8 033984FC 		ld	s2,-56(s0)
 424              	.LVL26:
 425              	.LBE95:
GAS LISTING /tmp/cc3nUUqy.s 			page 13


 426              	.LBE94:
  59:src/Riscv.cpp ****     mc_sstatus(SSTATUS_SIE);
 427              		.loc 1 59 5 is_stmt 1
 428              	.LBB96:
 429              	.LBB97:
 150:src/../h/Riscv.hpp **** }
 430              		.loc 2 150 5
 150:src/../h/Riscv.hpp **** }
 431              		.loc 2 150 54 is_stmt 0
 432 01bc 93072000 		li	a5,2
 433              	#APP
 434              	# 150 "src/../h/Riscv.hpp" 1
 435              		csrc sstatus, a5
 436              	# 0 "" 2
 437              	.LVL27:
 438              	#NO_APP
 439              	.LBE97:
 440              	.LBE96:
  60:src/Riscv.cpp ****     static char digits[] = "0123456789";
 441              		.loc 1 60 5 is_stmt 1
  61:src/Riscv.cpp ****     char buf[16];
 442              		.loc 1 61 5
  62:src/Riscv.cpp ****     int i, neg;
 443              		.loc 1 62 5
  63:src/Riscv.cpp ****     uint x;
 444              		.loc 1 63 5
  64:src/Riscv.cpp **** 
  65:src/Riscv.cpp ****     neg = 0;
 445              		.loc 1 65 5
  66:src/Riscv.cpp ****     if(num < 0)
 446              		.loc 1 66 5
  67:src/Riscv.cpp ****     {
  68:src/Riscv.cpp ****         neg = 1;
  69:src/Riscv.cpp ****         x = -num;
  70:src/Riscv.cpp ****     }
  71:src/Riscv.cpp ****     else
  72:src/Riscv.cpp ****         x = num;
 447              		.loc 1 72 9
 448              		.loc 1 72 11 is_stmt 0
 449 01c4 1B050500 		sext.w	a0,a0
 450              	.LVL28:
  73:src/Riscv.cpp **** 
  74:src/Riscv.cpp ****     i = 0;
 451              		.loc 1 74 5 is_stmt 1
 452              		.loc 1 74 7 is_stmt 0
 453 01c8 93040000 		li	s1,0
 454              	.LVL29:
 455              	.L19:
  75:src/Riscv.cpp ****     do
 456              		.loc 1 75 5 is_stmt 1
  76:src/Riscv.cpp ****     {
  77:src/Riscv.cpp ****         buf[i++] = digits[x%10];
 457              		.loc 1 77 9
 458              		.loc 1 77 28 is_stmt 0
 459 01cc 1306A000 		li	a2,10
 460 01d0 3B77C502 		remuw	a4,a0,a2
 461              	.LVL30:
GAS LISTING /tmp/cc3nUUqy.s 			page 14


 462              		.loc 1 77 31
 463 01d4 93160702 		slli	a3,a4,32
 464 01d8 93D60602 		srli	a3,a3,32
 465 01dc 17070000 		lla	a4,.LANCHOR0
 465      13070700 
 466 01e4 3307D700 		add	a4,a4,a3
 467 01e8 03470700 		lbu	a4,0(a4)
 468              		.loc 1 77 18
 469 01ec 930604FE 		addi	a3,s0,-32
 470 01f0 B3879600 		add	a5,a3,s1
 471 01f4 9B841400 		addiw	s1,s1,1
 472              	.LVL31:
 473 01f8 2388E7FE 		sb	a4,-16(a5)
  78:src/Riscv.cpp ****     }while((x/=10) != 0);
 474              		.loc 1 78 20 is_stmt 1
 475 01fc 1B070500 		sext.w	a4,a0
 476              		.loc 1 78 14 is_stmt 0
 477 0200 3B55C502 		divuw	a0,a0,a2
 478              	.LVL32:
 479              		.loc 1 78 20
 480 0204 93079000 		li	a5,9
 481 0208 E3E2E7FC 		bgtu	a4,a5,.L19
 482              	.LVL33:
 483              	.L21:
  79:src/Riscv.cpp ****     if(neg)
  80:src/Riscv.cpp ****         buf[i++] = '-';
  81:src/Riscv.cpp **** 
  82:src/Riscv.cpp ****     while(--i >= 0)
 484              		.loc 1 82 5 is_stmt 1
 485              		.loc 1 82 15
 486 020c 9B84F4FF 		addiw	s1,s1,-1
 487              	.LVL34:
 488 0210 63CE0400 		bltz	s1,.L20
  83:src/Riscv.cpp ****         __putc(buf[i]);
 489              		.loc 1 83 9
 490              		.loc 1 83 15 is_stmt 0
 491 0214 930704FE 		addi	a5,s0,-32
 492 0218 B3879700 		add	a5,a5,s1
 493 021c 03C507FF 		lbu	a0,-16(a5)
 494 0220 97000000 		call	__putc@plt
 494      E7800000 
 495              	.LVL35:
 496 0228 6FF05FFE 		j	.L21
 497              	.L20:
  84:src/Riscv.cpp **** 
  85:src/Riscv.cpp ****     __putc('\n');
 498              		.loc 1 85 5 is_stmt 1
 499              		.loc 1 85 11 is_stmt 0
 500 022c 1305A000 		li	a0,10
 501 0230 97000000 		call	__putc@plt
 501      E7800000 
 502              	.LVL36:
  86:src/Riscv.cpp **** 
  87:src/Riscv.cpp ****     ms_sstatus(sstatus & SSTATUS_SIE ? SSTATUS_SIE : 0);
 503              		.loc 1 87 5 is_stmt 1
 504              		.loc 1 87 38 is_stmt 0
 505 0238 1B090900 		sext.w	s2,s2
GAS LISTING /tmp/cc3nUUqy.s 			page 15


 506              	.LVL37:
 507              		.loc 1 87 15
 508 023c 13792900 		andi	s2,s2,2
 509 0240 1B090900 		sext.w	s2,s2
 510              	.LVL38:
 511              	.LBB98:
 512              	.LBB99:
 146:src/../h/Riscv.hpp **** }
 513              		.loc 2 146 5 is_stmt 1
 146:src/../h/Riscv.hpp **** }
 514              		.loc 2 146 54 is_stmt 0
 515              	#APP
 516              	# 146 "src/../h/Riscv.hpp" 1
 517              		csrs sstatus, s2
 518              	# 0 "" 2
 519              	.LVL39:
 520              	#NO_APP
 521              	.LBE99:
 522              	.LBE98:
  88:src/Riscv.cpp **** }
 523              		.loc 1 88 1
 524 0248 83308103 		ld	ra,56(sp)
 525              		.cfi_restore 1
 526 024c 03340103 		ld	s0,48(sp)
 527              		.cfi_restore 8
 528              		.cfi_def_cfa 2, 64
 529 0250 83348102 		ld	s1,40(sp)
 530              		.cfi_restore 9
 531 0254 03390102 		ld	s2,32(sp)
 532              		.cfi_restore 18
 533 0258 13010104 		addi	sp,sp,64
 534              		.cfi_def_cfa_offset 0
 535 025c 67800000 		jr	ra
 536              		.cfi_endproc
 537              	.LFE27:
 539              		.section	.rodata.str1.8,"aMS",@progbits,1
 540              		.align	3
 541              	.LC0:
 542 0000 74696D65 		.string	"timerInterrupt\n"
 542      72496E74 
 542      65727275 
 542      70740A00 
 543              		.text
 544              		.align	2
 545              		.globl	_ZN5Riscv20handleSupervisorTrapEv
 547              	_ZN5Riscv20handleSupervisorTrapEv:
 548              	.LFB28:
  89:src/Riscv.cpp **** 
  90:src/Riscv.cpp **** void Riscv::handleSupervisorTrap()
  91:src/Riscv.cpp **** {
 549              		.loc 1 91 1 is_stmt 1
 550              		.cfi_startproc
 551              		.cfi_personality 0x9b,DW.ref.__gxx_personality_v0
 552              		.cfi_lsda 0x1b,.LLSDA28
 553 0260 130101F8 		addi	sp,sp,-128
 554              		.cfi_def_cfa_offset 128
 555 0264 233C1106 		sd	ra,120(sp)
GAS LISTING /tmp/cc3nUUqy.s 			page 16


 556 0268 23388106 		sd	s0,112(sp)
 557 026c 23349106 		sd	s1,104(sp)
 558 0270 23302107 		sd	s2,96(sp)
 559 0274 233C3105 		sd	s3,88(sp)
 560 0278 23384105 		sd	s4,80(sp)
 561 027c 23345105 		sd	s5,72(sp)
 562 0280 23306105 		sd	s6,64(sp)
 563              		.cfi_offset 1, -8
 564              		.cfi_offset 8, -16
 565              		.cfi_offset 9, -24
 566              		.cfi_offset 18, -32
 567              		.cfi_offset 19, -40
 568              		.cfi_offset 20, -48
 569              		.cfi_offset 21, -56
 570              		.cfi_offset 22, -64
 571 0284 13040108 		addi	s0,sp,128
 572              		.cfi_def_cfa 8, 0
  92:src/Riscv.cpp ****     uint64 a4;
 573              		.loc 1 92 5
  93:src/Riscv.cpp ****     __asm__ volatile("mv %0, a4" : "=r"(a4));
 574              		.loc 1 93 5
 575              		.loc 1 93 45 is_stmt 0
 576              	#APP
 577              	# 93 "src/Riscv.cpp" 1
  94              	
 578              		mv s2, a4
 579              	# 0 "" 2
 580              	.LVL40:
  95:src/Riscv.cpp ****     uint64 scause = Riscv::r_scause();
 581              		.loc 1 95 5 is_stmt 1
 582              	#NO_APP
 583              	.LBB100:
 584              	.LBB101:
  88:src/../h/Riscv.hpp ****     __asm__ volatile("csrr %0, scause" : "=r"(scause));
 585              		.loc 2 88 5
  89:src/../h/Riscv.hpp ****     return scause;
 586              		.loc 2 89 5
  89:src/../h/Riscv.hpp ****     return scause;
 587              		.loc 2 89 55 is_stmt 0
 588              	#APP
 589              	# 89 "src/../h/Riscv.hpp" 1
 590              		csrr a5, scause
 591              	# 0 "" 2
 592              	#NO_APP
 593 0290 2334F4F8 		sd	a5,-120(s0)
  90:src/../h/Riscv.hpp **** }
 594              		.loc 2 90 5 is_stmt 1
  90:src/../h/Riscv.hpp **** }
 595              		.loc 2 90 12 is_stmt 0
 596 0294 033784F8 		ld	a4,-120(s0)
 597              	.LVL41:
 598              	.LBE101:
 599              	.LBE100:
  96:src/Riscv.cpp **** 
  97:src/Riscv.cpp ****     switch(scause)
 600              		.loc 1 97 5 is_stmt 1
 601              	.LBB102:
GAS LISTING /tmp/cc3nUUqy.s 			page 17


 602 0298 93079000 		li	a5,9
 603 029c 63FCE708 		bleu	a4,a5,.L47
 604 02a0 9307F0FF 		li	a5,-1
 605 02a4 9397F703 		slli	a5,a5,63
 606 02a8 93871700 		addi	a5,a5,1
 607 02ac 6318F708 		bne	a4,a5,.L26
 608              	.LBB103:
  98:src/Riscv.cpp ****     {
  99:src/Riscv.cpp **** 
 100:src/Riscv.cpp ****         case timerInterrupt:
 609              		.loc 1 100 9
 101:src/Riscv.cpp **** 
 102:src/Riscv.cpp ****             Riscv::mc_sip(Riscv::SIP_SSIP);
 610              		.loc 1 102 13
 611              	.LVL42:
 612              	.LBB104:
 613              	.LBB105:
 132:src/../h/Riscv.hpp **** }
 614              		.loc 2 132 5
 132:src/../h/Riscv.hpp **** }
 615              		.loc 2 132 50 is_stmt 0
 616 02b0 93072000 		li	a5,2
 617              	#APP
 618              	# 132 "src/../h/Riscv.hpp" 1
 619              		csrc sip, a5
 620              	# 0 "" 2
 621              	.LVL43:
 622              	#NO_APP
 623              	.LBE105:
 624              	.LBE104:
 103:src/Riscv.cpp ****             Riscv::printString("timerInterrupt\n");
 625              		.loc 1 103 13 is_stmt 1
 626              		.loc 1 103 31 is_stmt 0
 627 02b8 17050000 		lla	a0,.LC0
 627      13050500 
 628              	.LEHB4:
 629 02c0 97000000 		call	_ZN5Riscv11printStringEPKc
 629      E7800000 
 630              	.LVL44:
 104:src/Riscv.cpp **** 
 105:src/Riscv.cpp ****             PCB::timeSliceCounter++;
 631              		.loc 1 105 13 is_stmt 1
 632              		.loc 1 105 34 is_stmt 0
 633 02c8 97040000 		la	s1,_ZN3PCB16timeSliceCounterE
 633      83B40400 
 634 02d0 83B70400 		ld	a5,0(s1)
 635 02d4 93871700 		addi	a5,a5,1
 636 02d8 23B0F400 		sd	a5,0(s1)
 106:src/Riscv.cpp **** 
 107:src/Riscv.cpp ****             SleepPCBList::tryToWakePCBs();
 637              		.loc 1 107 13 is_stmt 1
 638              		.loc 1 107 40 is_stmt 0
 639 02dc 97000000 		call	_ZN12SleepPCBList13tryToWakePCBsEv@plt
 639      E7800000 
 640              	.LVL45:
 108:src/Riscv.cpp **** 
 109:src/Riscv.cpp ****             if (PCB::timeSliceCounter >= PCB::running->getTimeSlice())
GAS LISTING /tmp/cc3nUUqy.s 			page 18


 641              		.loc 1 109 13 is_stmt 1
 642              	.LBB106:
 643              		.loc 1 109 68 is_stmt 0
 644 02e4 97070000 		la	a5,_ZN3PCB7runningE
 644      83B70700 
 645 02ec 83B70700 		ld	a5,0(a5)
 646              	.LVL46:
 647              	.LBB107:
 648              	.LBB108:
  28:src/../h/PCB.hpp **** 
 649              		.loc 3 28 29 is_stmt 1
  28:src/../h/PCB.hpp **** 
 650              		.loc 3 28 36 is_stmt 0
 651 02f0 83B78700 		ld	a5,8(a5)
 652              	.LVL47:
 653              	.LBE108:
 654              	.LBE107:
 655              		.loc 1 109 39
 656 02f4 03B70400 		ld	a4,0(s1)
 657              		.loc 1 109 13
 658 02f8 6362F704 		bltu	a4,a5,.L26
 659              	.LBB109:
 110:src/Riscv.cpp ****             {
 111:src/Riscv.cpp ****                 uint64 sepc = Riscv::r_sepc();
 660              		.loc 1 111 17 is_stmt 1
 661              	.LBB110:
 662              	.LBB111:
  98:src/../h/Riscv.hpp ****     __asm__ volatile("csrr %0, sepc" : "=r"(sepc));
 663              		.loc 2 98 5
  99:src/../h/Riscv.hpp ****     return sepc;
 664              		.loc 2 99 5
  99:src/../h/Riscv.hpp ****     return sepc;
 665              		.loc 2 99 51 is_stmt 0
 666              	#APP
 667              	# 99 "src/../h/Riscv.hpp" 1
 668              		csrr a5, sepc
 669              	# 0 "" 2
 670              	#NO_APP
 671 0300 233CF4F8 		sd	a5,-104(s0)
 100:src/../h/Riscv.hpp **** }
 672              		.loc 2 100 5 is_stmt 1
 100:src/../h/Riscv.hpp **** }
 673              		.loc 2 100 12 is_stmt 0
 674 0304 833484F9 		ld	s1,-104(s0)
 675              	.LVL48:
 676              	.LBE111:
 677              	.LBE110:
 112:src/Riscv.cpp ****                 uint64 sstatus = Riscv::r_sstatus();
 678              		.loc 1 112 17 is_stmt 1
 679              	.LBB112:
 680              	.LBB113:
 154:src/../h/Riscv.hpp ****     __asm__ volatile("csrr %0, sstatus" : "=r"(sstatus));
 681              		.loc 2 154 5
 155:src/../h/Riscv.hpp ****     return sstatus;
 682              		.loc 2 155 5
 155:src/../h/Riscv.hpp ****     return sstatus;
 683              		.loc 2 155 57 is_stmt 0
GAS LISTING /tmp/cc3nUUqy.s 			page 19


 684              	#APP
 685              	# 155 "src/../h/Riscv.hpp" 1
 686              		csrr a5, sstatus
 687              	# 0 "" 2
 688              	#NO_APP
 689 030c 2338F4F8 		sd	a5,-112(s0)
 690              		.loc 2 156 5 is_stmt 1
 691              		.loc 2 156 12 is_stmt 0
 692 0310 033904F9 		ld	s2,-112(s0)
 693              	.LVL49:
 694              	.LBE113:
 695              	.LBE112:
 113:src/Riscv.cpp ****                 PCB::timeSliceCounter = 0;
 696              		.loc 1 113 17 is_stmt 1
 697              		.loc 1 113 39 is_stmt 0
 698 0314 97070000 		la	a5,_ZN3PCB16timeSliceCounterE
 698      83B70700 
 699 031c 23B00700 		sd	zero,0(a5)
 114:src/Riscv.cpp ****                 PCB::dispatch();
 700              		.loc 1 114 17 is_stmt 1
 701              		.loc 1 114 30 is_stmt 0
 702 0320 97000000 		call	_ZN3PCB8dispatchEv@plt
 702      E7800000 
 703              	.LVL50:
 115:src/Riscv.cpp ****                 Riscv::w_sstatus(sstatus);
 704              		.loc 1 115 17 is_stmt 1
 705              	.LBB114:
 706              	.LBB115:
 157:src/../h/Riscv.hpp **** }
 158:src/../h/Riscv.hpp **** 
 159:src/../h/Riscv.hpp **** inline void Riscv::w_sstatus(uint64 sstatus) {
 160:src/../h/Riscv.hpp ****     __asm__ volatile("csrw sstatus, %0" : :"r"(sstatus));
 707              		.loc 2 160 5
 708              		.loc 2 160 57 is_stmt 0
 709              	#APP
 710              	# 160 "src/../h/Riscv.hpp" 1
 161              	}
 711              		csrw sstatus, s2
 712              	# 0 "" 2
 713              	.LVL51:
 714              	#NO_APP
 715              	.LBE115:
 716              	.LBE114:
 116:src/Riscv.cpp ****                 Riscv::w_sepc(sepc);
 717              		.loc 1 116 17 is_stmt 1
 718              	.LBB116:
 719              	.LBB117:
 104:src/../h/Riscv.hpp **** }
 720              		.loc 2 104 5
 104:src/../h/Riscv.hpp **** }
 721              		.loc 2 104 51 is_stmt 0
 722              	#APP
 723              	# 104 "src/../h/Riscv.hpp" 1
 105:src/../h/Riscv.hpp **** 
 724              		csrw sepc, s1
 725              	# 0 "" 2
 726              		.loc 2 105 1
GAS LISTING /tmp/cc3nUUqy.s 			page 20


 727              	#NO_APP
 728 0330 6F00C000 		j	.L26
 729              	.LVL52:
 730              	.L47:
 731              	.LBE117:
 732              	.LBE116:
 733              	.LBE109:
 734              	.LBE106:
 735              	.LBE103:
  97:src/Riscv.cpp ****     {
 736              		.loc 1 97 5
 737 0334 93078000 		li	a5,8
 738 0338 637AF702 		bgeu	a4,a5,.L48
 739              	.LVL53:
 740              	.L26:
 741              	.LBE102:
 117:src/Riscv.cpp ****             }
 118:src/Riscv.cpp **** 
 119:src/Riscv.cpp ****             break;
 120:src/Riscv.cpp **** 
 121:src/Riscv.cpp ****         case hwInterrupt: // todo
 122:src/Riscv.cpp **** 
 123:src/Riscv.cpp ****             break;
 124:src/Riscv.cpp **** 
 125:src/Riscv.cpp ****         case operationInterrupt: // todo
 126:src/Riscv.cpp ****             break;
 127:src/Riscv.cpp **** 
 128:src/Riscv.cpp ****         case addrReadInterrupt: // todo
 129:src/Riscv.cpp ****             break;
 130:src/Riscv.cpp **** 
 131:src/Riscv.cpp ****         case addrWriteInterrupt: // todo
 132:src/Riscv.cpp ****             break;
 133:src/Riscv.cpp **** 
 134:src/Riscv.cpp ****         case ecallSystemInterupt:
 135:src/Riscv.cpp ****         case ecallUserInterrupt:
 136:src/Riscv.cpp **** 
 137:src/Riscv.cpp ****             uint64 operation;
 138:src/Riscv.cpp ****             __asm__ volatile("mv %0, a0" :  "=r"(operation));
 139:src/Riscv.cpp **** 
 140:src/Riscv.cpp ****             uint64 sepc = Riscv::r_sepc();
 141:src/Riscv.cpp ****             sepc+=4;
 142:src/Riscv.cpp **** 
 143:src/Riscv.cpp ****             if(operation == MemoryAllocator::MEM_ALLOC)
 144:src/Riscv.cpp ****             {
 145:src/Riscv.cpp ****                 size_t size;
 146:src/Riscv.cpp ****                 __asm__ volatile("mv %0, a1" : "=r"(size));
 147:src/Riscv.cpp ****                 size*=MEM_BLOCK_SIZE;
 148:src/Riscv.cpp ****                 void* allocatedAddr = kmalloc(size);
 149:src/Riscv.cpp ****                 __asm__ volatile("mv a0,%0" : : "r"((uint64)allocatedAddr));
 150:src/Riscv.cpp ****             }
 151:src/Riscv.cpp ****             else if(operation == MemoryAllocator::MEM_FREE)
 152:src/Riscv.cpp ****             {
 153:src/Riscv.cpp ****                 uint64 addr = 0;
 154:src/Riscv.cpp ****                 __asm__ volatile("mv %0, a1" : "=r"(addr));
 155:src/Riscv.cpp ****                 uint64 retval = kfree((void*)addr);
 156:src/Riscv.cpp ****                 __asm__ volatile("mv a0,%0" : :"r"(retval));
 157:src/Riscv.cpp ****             }
GAS LISTING /tmp/cc3nUUqy.s 			page 21


 158:src/Riscv.cpp ****             else if(operation == PCB::THREAD_CREATE)
 159:src/Riscv.cpp ****             {
 160:src/Riscv.cpp ****                 uint64 start_routine;
 161:src/Riscv.cpp ****                 uint64 args;
 162:src/Riscv.cpp ****                 PCB** threadHandle;
 163:src/Riscv.cpp ****                 __asm__ volatile("mv %0, a1" : "=r"(threadHandle));
 164:src/Riscv.cpp ****                 __asm__ volatile("mv %0, a2" : "=r"(start_routine));
 165:src/Riscv.cpp ****                 __asm__ volatile("mv %0, a3" : "=r"(args));
 166:src/Riscv.cpp ****                 //todo
 167:src/Riscv.cpp ****                 //uint64 stack_space;
 168:src/Riscv.cpp ****                 //__asm__ volatile("mv %0, a4" : "=r"(stack_space));
 169:src/Riscv.cpp **** 
 170:src/Riscv.cpp ****                 PCB* newPCB = new PCB((void (*)(void*))start_routine, (void*)args, (void*)a4, DEFAU
 171:src/Riscv.cpp **** 
 172:src/Riscv.cpp ****                 (*threadHandle) = newPCB;
 173:src/Riscv.cpp **** 
 174:src/Riscv.cpp ****                 if(newPCB == 0)
 175:src/Riscv.cpp ****                     __asm__ volatile("li a0, 0xffffffffffffffff");
 176:src/Riscv.cpp ****                 else
 177:src/Riscv.cpp ****                     __asm__ volatile("li a0, 0");
 178:src/Riscv.cpp ****             }
 179:src/Riscv.cpp ****             else if(operation == PCB::THREAD_DISPATCH)
 180:src/Riscv.cpp ****             {
 181:src/Riscv.cpp ****                 uint64 sstatus = Riscv::r_sstatus();
 182:src/Riscv.cpp ****                 PCB::timeSliceCounter = 0;
 183:src/Riscv.cpp ****                 PCB::dispatch();
 184:src/Riscv.cpp ****                 Riscv::w_sstatus(sstatus);
 185:src/Riscv.cpp ****             }
 186:src/Riscv.cpp ****             else if(operation == PCB::THREAD_EXIT)
 187:src/Riscv.cpp ****             {
 188:src/Riscv.cpp ****                 if(PCB::running == 0)
 189:src/Riscv.cpp ****                 {
 190:src/Riscv.cpp ****                     __asm__ volatile("li a0, 0xffffffffffffffff");
 191:src/Riscv.cpp ****                     return;
 192:src/Riscv.cpp ****                 }
 193:src/Riscv.cpp ****                 uint64 sstatus = Riscv::r_sstatus();
 194:src/Riscv.cpp ****                 PCB::timeSliceCounter = 0;
 195:src/Riscv.cpp ****                 PCB::running->setState(PCB::EXITING);
 196:src/Riscv.cpp ****                 PCB::dispatch();
 197:src/Riscv.cpp ****                 Riscv::w_sstatus(sstatus);
 198:src/Riscv.cpp ****             }
 199:src/Riscv.cpp ****             else if(operation == PCB::TIME_SLEEP)
 200:src/Riscv.cpp ****             {
 201:src/Riscv.cpp ****                 uint64 time;
 202:src/Riscv.cpp ****                 __asm__ volatile("mv %0, a1" : "=r"(time));
 203:src/Riscv.cpp ****                 uint64 sstatus = Riscv::r_sstatus();
 204:src/Riscv.cpp ****                 PCB::timeSliceCounter = 0;
 205:src/Riscv.cpp ****                 PCB::running->setTimeToSleep(time);
 206:src/Riscv.cpp ****                 SleepPCBList::insertSleepingPCB();
 207:src/Riscv.cpp ****                 PCB::dispatch();
 208:src/Riscv.cpp ****                 Riscv::w_sstatus(sstatus);
 209:src/Riscv.cpp ****                 //todo
 210:src/Riscv.cpp ****                 //kad treba vratiti kod greske
 211:src/Riscv.cpp ****                 __asm__ volatile("li a0, 0x0");
 212:src/Riscv.cpp ****             }
 213:src/Riscv.cpp ****             else if(operation == KSemaphore::SEM_OPEN)
 214:src/Riscv.cpp ****             {
GAS LISTING /tmp/cc3nUUqy.s 			page 22


 215:src/Riscv.cpp ****                 uint64 val;
 216:src/Riscv.cpp ****                 KSemaphore** semaphoreHandle;
 217:src/Riscv.cpp ****                 __asm__ volatile("mv %0, a1" : "=r"(semaphoreHandle));
 218:src/Riscv.cpp ****                 __asm__ volatile("mv %0, a2" : "=r"(val));
 219:src/Riscv.cpp **** 
 220:src/Riscv.cpp ****                 KSemaphore* newSem = new KSemaphore(val);
 221:src/Riscv.cpp **** 
 222:src/Riscv.cpp ****                 (*semaphoreHandle) = newSem;
 223:src/Riscv.cpp **** 
 224:src/Riscv.cpp ****                 if(newSem == 0)
 225:src/Riscv.cpp ****                         __asm__ volatile("li a0, 0xffffffffffffffff");
 226:src/Riscv.cpp ****                 else
 227:src/Riscv.cpp ****                         __asm__ volatile("li a0, 0");
 228:src/Riscv.cpp **** 
 229:src/Riscv.cpp ****             }
 230:src/Riscv.cpp ****             else if(operation == KSemaphore::SEM_WAIT)
 231:src/Riscv.cpp ****             {
 232:src/Riscv.cpp ****                 //todo
 233:src/Riscv.cpp ****                 //negativna povratna vrednost sta i kako
 234:src/Riscv.cpp ****                 KSemaphore* kSem;
 235:src/Riscv.cpp ****                 __asm__ volatile("mv %0, a1" : "=r"(kSem));
 236:src/Riscv.cpp ****                 uint64 retval = kSem->wait();
 237:src/Riscv.cpp ****                 __asm__ volatile("mv a0,%0" : :"r"(retval));
 238:src/Riscv.cpp ****             }
 239:src/Riscv.cpp ****             else if(operation == KSemaphore::SEM_SIGNAL)
 240:src/Riscv.cpp ****             {
 241:src/Riscv.cpp ****                 //todo
 242:src/Riscv.cpp ****                 //negativna povratna vrednost sta i kako
 243:src/Riscv.cpp ****                 KSemaphore* kSem;
 244:src/Riscv.cpp ****                 __asm__ volatile("mv %0, a1" : "=r"(kSem));
 245:src/Riscv.cpp ****                 uint64 retval = kSem->signal();
 246:src/Riscv.cpp ****                 __asm__ volatile("mv a0,%0" : :"r"(retval));
 247:src/Riscv.cpp ****             }
 248:src/Riscv.cpp ****             else if(operation == KSemaphore::SEM_CLOSE)
 249:src/Riscv.cpp ****             {
 250:src/Riscv.cpp ****                 //todo
 251:src/Riscv.cpp ****                 //negativna povratna vrednost sta i kako
 252:src/Riscv.cpp ****                 KSemaphore* kSem;
 253:src/Riscv.cpp ****                 __asm__ volatile("mv %0, a1" : "=r"(kSem));
 254:src/Riscv.cpp **** 
 255:src/Riscv.cpp ****                 delete kSem;
 256:src/Riscv.cpp **** 
 257:src/Riscv.cpp ****                 __asm__ volatile("li a0, 0");
 258:src/Riscv.cpp ****             }
 259:src/Riscv.cpp **** 
 260:src/Riscv.cpp ****             Riscv::w_sepc(sepc);
 261:src/Riscv.cpp **** 
 262:src/Riscv.cpp ****             return;
 263:src/Riscv.cpp ****     }
 264:src/Riscv.cpp **** 
 265:src/Riscv.cpp ****     console_handler();
 742              		.loc 1 265 5 is_stmt 1
 743              		.loc 1 265 20 is_stmt 0
 744 033c 97000000 		call	console_handler@plt
 744      E7800000 
 745              	.LVL54:
 746              	.L23:
GAS LISTING /tmp/cc3nUUqy.s 			page 23


 266:src/Riscv.cpp **** }
 747              		.loc 1 266 1
 748 0344 83308107 		ld	ra,120(sp)
 749              		.cfi_remember_state
 750              		.cfi_restore 1
 751 0348 03340107 		ld	s0,112(sp)
 752              		.cfi_restore 8
 753              		.cfi_def_cfa 2, 128
 754 034c 83348106 		ld	s1,104(sp)
 755              		.cfi_restore 9
 756 0350 03390106 		ld	s2,96(sp)
 757              		.cfi_restore 18
 758 0354 83398105 		ld	s3,88(sp)
 759              		.cfi_restore 19
 760 0358 033A0105 		ld	s4,80(sp)
 761              		.cfi_restore 20
 762 035c 833A8104 		ld	s5,72(sp)
 763              		.cfi_restore 21
 764 0360 033B0104 		ld	s6,64(sp)
 765              		.cfi_restore 22
 766 0364 13010108 		addi	sp,sp,128
 767              		.cfi_def_cfa_offset 0
 768 0368 67800000 		jr	ra
 769              	.LVL55:
 770              	.L48:
 771              		.cfi_restore_state
 772              	.LBB228:
 773              	.LBB218:
 134:src/Riscv.cpp ****         case ecallUserInterrupt:
 774              		.loc 1 134 9 is_stmt 1
 135:src/Riscv.cpp **** 
 775              		.loc 1 135 9
 137:src/Riscv.cpp ****             __asm__ volatile("mv %0, a0" :  "=r"(operation));
 776              		.loc 1 137 13
 138:src/Riscv.cpp **** 
 777              		.loc 1 138 13
 138:src/Riscv.cpp **** 
 778              		.loc 1 138 61 is_stmt 0
 779              	#APP
 780              	# 138 "src/Riscv.cpp" 1
 781              		mv a5, a0
 782              	# 0 "" 2
 783              	.LVL56:
 140:src/Riscv.cpp ****             sepc+=4;
 784              		.loc 1 140 13 is_stmt 1
 785              	#NO_APP
 786              	.LBB118:
 787              	.LBB119:
  98:src/../h/Riscv.hpp ****     __asm__ volatile("csrr %0, sepc" : "=r"(sepc));
 788              		.loc 2 98 5
  99:src/../h/Riscv.hpp ****     return sepc;
 789              		.loc 2 99 5
  99:src/../h/Riscv.hpp ****     return sepc;
 790              		.loc 2 99 51 is_stmt 0
 791              	#APP
 792              	# 99 "src/../h/Riscv.hpp" 1
 793              		csrr a4, sepc
GAS LISTING /tmp/cc3nUUqy.s 			page 24


 794              	# 0 "" 2
 795              	.LVL57:
 796              	#NO_APP
 797 0374 2330E4FA 		sd	a4,-96(s0)
 100:src/../h/Riscv.hpp **** }
 798              		.loc 2 100 5 is_stmt 1
 100:src/../h/Riscv.hpp **** }
 799              		.loc 2 100 12 is_stmt 0
 800 0378 033704FA 		ld	a4,-96(s0)
 801              	.LVL58:
 802              	.LBE119:
 803              	.LBE118:
 141:src/Riscv.cpp **** 
 804              		.loc 1 141 13 is_stmt 1
 141:src/Riscv.cpp **** 
 805              		.loc 1 141 17 is_stmt 0
 806 037c 93044700 		addi	s1,a4,4
 807              	.LVL59:
 143:src/Riscv.cpp ****             {
 808              		.loc 1 143 13 is_stmt 1
 809              	.LBB120:
 810 0380 13071000 		li	a4,1
 811 0384 638AE706 		beq	a5,a4,.L49
 812              	.LBE120:
 813              	.LBE218:
 814              	.LBE228:
 151:src/Riscv.cpp ****             {
 815              		.loc 1 151 18
 816              	.LBB229:
 817              	.LBB219:
 818              	.LBB206:
 819              	.LBB121:
 820 0388 13072000 		li	a4,2
 821 038c 6384E708 		beq	a5,a4,.L50
 822              	.LBE121:
 823              	.LBE206:
 824              	.LBE219:
 825              	.LBE229:
 158:src/Riscv.cpp ****             {
 826              		.loc 1 158 18
 827              	.LBB230:
 828              	.LBB220:
 829              	.LBB207:
 830              	.LBB196:
 831              	.LBB122:
 832 0390 13071001 		li	a4,17
 833 0394 638AE708 		beq	a5,a4,.L51
 834              	.LBE122:
 835              	.LBE196:
 836              	.LBE207:
 837              	.LBE220:
 838              	.LBE230:
 179:src/Riscv.cpp ****             {
 839              		.loc 1 179 18
 840              	.LBB231:
 841              	.LBB221:
 842              	.LBB208:
GAS LISTING /tmp/cc3nUUqy.s 			page 25


 843              	.LBB197:
 844              	.LBB187:
 845              	.LBB123:
 846 0398 13073001 		li	a4,19
 847 039c 638CE70C 		beq	a5,a4,.L52
 848              	.LBE123:
 849              	.LBE187:
 850              	.LBE197:
 851              	.LBE208:
 852              	.LBE221:
 853              	.LBE231:
 186:src/Riscv.cpp ****             {
 854              		.loc 1 186 18
 855              	.LBB232:
 856              	.LBB222:
 857              	.LBB209:
 858              	.LBB198:
 859              	.LBB188:
 860              	.LBB177:
 861              	.LBB124:
 862 03a0 13072001 		li	a4,18
 863 03a4 638CE70E 		beq	a5,a4,.L53
 864              	.LBE124:
 865              	.LBE177:
 866              	.LBE188:
 867              	.LBE198:
 868              	.LBE209:
 869              	.LBE222:
 870              	.LBE232:
 199:src/Riscv.cpp ****             {
 871              		.loc 1 199 18
 872              	.LBB233:
 873              	.LBB223:
 874              	.LBB210:
 875              	.LBB199:
 876              	.LBB189:
 877              	.LBB178:
 878              	.LBB165:
 879              	.LBB125:
 880 03a8 13071003 		li	a4,49
 881 03ac 6382E714 		beq	a5,a4,.L54
 882              	.LBE125:
 883              	.LBE165:
 884              	.LBE178:
 885              	.LBE189:
 886              	.LBE199:
 887              	.LBE210:
 888              	.LBE223:
 889              	.LBE233:
 213:src/Riscv.cpp ****             {
 890              		.loc 1 213 18
 891              	.LBB234:
 892              	.LBB224:
 893              	.LBB211:
 894              	.LBB200:
 895              	.LBB190:
 896              	.LBB179:
GAS LISTING /tmp/cc3nUUqy.s 			page 26


 897              	.LBB166:
 898              	.LBB152:
 899              	.LBB126:
 900 03b0 13071002 		li	a4,33
 901 03b4 6382E718 		beq	a5,a4,.L55
 902              	.LBE126:
 903              	.LBE152:
 904              	.LBE166:
 905              	.LBE179:
 906              	.LBE190:
 907              	.LBE200:
 908              	.LBE211:
 909              	.LBE224:
 910              	.LBE234:
 230:src/Riscv.cpp ****             {
 911              		.loc 1 230 18
 912              	.LBB235:
 913              	.LBB225:
 914              	.LBB212:
 915              	.LBB201:
 916              	.LBB191:
 917              	.LBB180:
 918              	.LBB167:
 919              	.LBB153:
 920              	.LBB140:
 921              	.LBB127:
 922 03b8 13073002 		li	a4,35
 923 03bc 638CE71A 		beq	a5,a4,.L56
 924              	.LBE127:
 925              	.LBE140:
 926              	.LBE153:
 927              	.LBE167:
 928              	.LBE180:
 929              	.LBE191:
 930              	.LBE201:
 931              	.LBE212:
 932              	.LBE225:
 933              	.LBE235:
 239:src/Riscv.cpp ****             {
 934              		.loc 1 239 18
 935              	.LBB236:
 936              	.LBB226:
 937              	.LBB213:
 938              	.LBB202:
 939              	.LBB192:
 940              	.LBB181:
 941              	.LBB168:
 942              	.LBB154:
 943              	.LBB141:
 944              	.LBB135:
 945              	.LBB128:
 946 03c0 13074002 		li	a4,36
 947 03c4 6382E71C 		beq	a5,a4,.L57
 948              	.LBE128:
 949              	.LBE135:
 950              	.LBE141:
 951              	.LBE154:
GAS LISTING /tmp/cc3nUUqy.s 			page 27


 952              	.LBE168:
 953              	.LBE181:
 954              	.LBE192:
 955              	.LBE202:
 956              	.LBE213:
 957              	.LBE226:
 958              	.LBE236:
 248:src/Riscv.cpp ****             {
 959              		.loc 1 248 18
 960              	.LBB237:
 961              	.LBB227:
 962              	.LBB214:
 963              	.LBB203:
 964              	.LBB193:
 965              	.LBB182:
 966              	.LBB169:
 967              	.LBB155:
 968              	.LBB142:
 969              	.LBB136:
 970              	.LBB132:
 971              	.LBB129:
 972 03c8 13072002 		li	a4,34
 973 03cc 6390E704 		bne	a5,a4,.L28
 974              	.LBB130:
 252:src/Riscv.cpp ****                 __asm__ volatile("mv %0, a1" : "=r"(kSem));
 975              		.loc 1 252 17
 253:src/Riscv.cpp **** 
 976              		.loc 1 253 17
 253:src/Riscv.cpp **** 
 977              		.loc 1 253 59 is_stmt 0
 978              	#APP
 979              	# 253 "src/Riscv.cpp" 1
 980              		mv s2, a1
 981              	# 0 "" 2
 982              	.LVL60:
 255:src/Riscv.cpp **** 
 983              		.loc 1 255 17 is_stmt 1
 255:src/Riscv.cpp **** 
 984              		.loc 1 255 28 is_stmt 0
 985              	#NO_APP
 986 03d4 630E0900 		beqz	s2,.L41
 255:src/Riscv.cpp **** 
 987              		.loc 1 255 24 discriminator 1
 988 03d8 13050900 		mv	a0,s2
 989 03dc 97000000 		call	_ZN10KSemaphoreD1Ev@plt
 989      E7800000 
 990              	.LVL61:
 991 03e4 13050900 		mv	a0,s2
 992 03e8 97000000 		call	_ZN10KSemaphoredlEPv@plt
 992      E7800000 
 993              	.LVL62:
 994              	.L41:
 257:src/Riscv.cpp ****             }
 995              		.loc 1 257 17 is_stmt 1
 257:src/Riscv.cpp ****             }
 996              		.loc 1 257 45 is_stmt 0
 997              	#APP
GAS LISTING /tmp/cc3nUUqy.s 			page 28


 998              	# 257 "src/Riscv.cpp" 1
 999              		li a0, 0
 1000              	# 0 "" 2
 1001              	#NO_APP
 1002              	.LBE130:
 1003 03f4 6F008001 		j	.L28
 1004              	.LVL63:
 1005              	.L49:
 1006              	.LBE129:
 1007              	.LBE132:
 1008              	.LBE136:
 1009              	.LBE142:
 1010              	.LBE155:
 1011              	.LBE169:
 1012              	.LBE182:
 1013              	.LBE193:
 1014              	.LBE203:
 1015              	.LBB204:
 145:src/Riscv.cpp ****                 __asm__ volatile("mv %0, a1" : "=r"(size));
 1016              		.loc 1 145 17 is_stmt 1
 146:src/Riscv.cpp ****                 size*=MEM_BLOCK_SIZE;
 1017              		.loc 1 146 17
 146:src/Riscv.cpp ****                 size*=MEM_BLOCK_SIZE;
 1018              		.loc 1 146 59 is_stmt 0
 1019              	#APP
 1020              	# 146 "src/Riscv.cpp" 1
 1021              		mv a0, a1
 1022              	# 0 "" 2
 1023              	.LVL64:
 147:src/Riscv.cpp ****                 void* allocatedAddr = kmalloc(size);
 1024              		.loc 1 147 17 is_stmt 1
 148:src/Riscv.cpp ****                 __asm__ volatile("mv a0,%0" : : "r"((uint64)allocatedAddr));
 1025              		.loc 1 148 17
 148:src/Riscv.cpp ****                 __asm__ volatile("mv a0,%0" : : "r"((uint64)allocatedAddr));
 1026              		.loc 1 148 46 is_stmt 0
 1027              	#NO_APP
 1028 03fc 13156500 		slli	a0,a0,6
 1029              	.LVL65:
 1030 0400 97000000 		call	_Z7kmallocm@plt
 1030      E7800000 
 1031              	.LVL66:
 149:src/Riscv.cpp ****             }
 1032              		.loc 1 149 17 is_stmt 1
 149:src/Riscv.cpp ****             }
 1033              		.loc 1 149 76 is_stmt 0
 1034              	#APP
 1035              	# 149 "src/Riscv.cpp" 1
 1036              		mv a0,a0
 1037              	# 0 "" 2
 1038              	.LVL67:
 1039              	#NO_APP
 1040              	.L28:
 1041              	.LBE204:
 1042              	.LBE214:
 260:src/Riscv.cpp **** 
 1043              		.loc 1 260 13 is_stmt 1
 1044              	.LBB215:
GAS LISTING /tmp/cc3nUUqy.s 			page 29


 1045              	.LBB216:
 104:src/../h/Riscv.hpp **** }
 1046              		.loc 2 104 5
 104:src/../h/Riscv.hpp **** }
 1047              		.loc 2 104 51 is_stmt 0
 1048              	#APP
 1049              	# 104 "src/../h/Riscv.hpp" 1
 105:src/../h/Riscv.hpp **** 
 1050              		csrw sepc, s1
 1051              	# 0 "" 2
 1052              		.loc 2 105 1
 1053              	#NO_APP
 1054 0410 6FF05FF3 		j	.L23
 1055              	.LVL68:
 1056              	.L50:
 1057              	.LBE216:
 1058              	.LBE215:
 1059              	.LBB217:
 1060              	.LBB205:
 1061              	.LBB194:
 153:src/Riscv.cpp ****                 __asm__ volatile("mv %0, a1" : "=r"(addr));
 1062              		.loc 1 153 17 is_stmt 1
 154:src/Riscv.cpp ****                 uint64 retval = kfree((void*)addr);
 1063              		.loc 1 154 17
 154:src/Riscv.cpp ****                 uint64 retval = kfree((void*)addr);
 1064              		.loc 1 154 59 is_stmt 0
 1065              	#APP
 1066              	# 154 "src/Riscv.cpp" 1
 1067              		mv a0, a1
 1068              	# 0 "" 2
 1069              	.LVL69:
 155:src/Riscv.cpp ****                 __asm__ volatile("mv a0,%0" : :"r"(retval));
 1070              		.loc 1 155 17 is_stmt 1
 155:src/Riscv.cpp ****                 __asm__ volatile("mv a0,%0" : :"r"(retval));
 1071              		.loc 1 155 38 is_stmt 0
 1072              	#NO_APP
 1073 0418 97000000 		call	_Z5kfreePv@plt
 1073      E7800000 
 1074              	.LVL70:
 156:src/Riscv.cpp ****             }
 1075              		.loc 1 156 17 is_stmt 1
 156:src/Riscv.cpp ****             }
 1076              		.loc 1 156 60 is_stmt 0
 1077              	#APP
 1078              	# 156 "src/Riscv.cpp" 1
 1079              		mv a0,a0
 1080              	# 0 "" 2
 1081              	#NO_APP
 1082              	.LBE194:
 1083 0424 6FF09FFE 		j	.L28
 1084              	.LVL71:
 1085              	.L51:
 1086              	.LBB195:
 1087              	.LBB183:
 160:src/Riscv.cpp ****                 uint64 args;
 1088              		.loc 1 160 17 is_stmt 1
 161:src/Riscv.cpp ****                 PCB** threadHandle;
GAS LISTING /tmp/cc3nUUqy.s 			page 30


 1089              		.loc 1 161 17
 162:src/Riscv.cpp ****                 __asm__ volatile("mv %0, a1" : "=r"(threadHandle));
 1090              		.loc 1 162 17
 163:src/Riscv.cpp ****                 __asm__ volatile("mv %0, a2" : "=r"(start_routine));
 1091              		.loc 1 163 17
 163:src/Riscv.cpp ****                 __asm__ volatile("mv %0, a2" : "=r"(start_routine));
 1092              		.loc 1 163 67 is_stmt 0
 1093              	#APP
 1094              	# 163 "src/Riscv.cpp" 1
 1095              		mv s4, a1
 1096              	# 0 "" 2
 1097              	.LVL72:
 164:src/Riscv.cpp ****                 __asm__ volatile("mv %0, a3" : "=r"(args));
 1098              		.loc 1 164 17 is_stmt 1
 164:src/Riscv.cpp ****                 __asm__ volatile("mv %0, a3" : "=r"(args));
 1099              		.loc 1 164 68 is_stmt 0
 1100              	# 164 "src/Riscv.cpp" 1
 1101              		mv s5, a2
 1102              	# 0 "" 2
 1103              	.LVL73:
 165:src/Riscv.cpp ****                 //todo
 1104              		.loc 1 165 17 is_stmt 1
 165:src/Riscv.cpp ****                 //todo
 1105              		.loc 1 165 59 is_stmt 0
 1106              	# 165 "src/Riscv.cpp" 1
 1107              		mv s6, a3
 1108              	# 0 "" 2
 1109              	.LVL74:
 170:src/Riscv.cpp **** 
 1110              		.loc 1 170 17 is_stmt 1
 170:src/Riscv.cpp **** 
 1111              		.loc 1 170 113 is_stmt 0
 1112              	#NO_APP
 1113 0434 13050005 		li	a0,80
 1114 0438 97000000 		call	_ZN3PCBnwEm@plt
 1114      E7800000 
 1115              	.LVL75:
 1116              	.LEHE4:
 1117 0440 93090500 		mv	s3,a0
 1118 0444 13072000 		li	a4,2
 1119 0448 93060900 		mv	a3,s2
 1120 044c 13060B00 		mv	a2,s6
 1121 0450 93850A00 		mv	a1,s5
 1122              	.LEHB5:
 1123 0454 97000000 		call	_ZN3PCBC1EPFvPvES0_S0_m@plt
 1123      E7800000 
 1124              	.LVL76:
 1125              	.LEHE5:
 172:src/Riscv.cpp **** 
 1126              		.loc 1 172 17 is_stmt 1 discriminator 2
 172:src/Riscv.cpp **** 
 1127              		.loc 1 172 33 is_stmt 0 discriminator 2
 1128 045c 23303A01 		sd	s3,0(s4)
 174:src/Riscv.cpp ****                     __asm__ volatile("li a0, 0xffffffffffffffff");
 1129              		.loc 1 174 17 is_stmt 1 discriminator 2
 1130 0460 63860900 		beqz	s3,.L58
 177:src/Riscv.cpp ****             }
GAS LISTING /tmp/cc3nUUqy.s 			page 31


 1131              		.loc 1 177 21
 177:src/Riscv.cpp ****             }
 1132              		.loc 1 177 49 is_stmt 0
 1133              	#APP
 1134              	# 177 "src/Riscv.cpp" 1
 1135              		li a0, 0
 1136              	# 0 "" 2
 1137              	#NO_APP
 1138 0468 6FF05FFA 		j	.L28
 1139              	.L58:
 175:src/Riscv.cpp ****                 else
 1140              		.loc 1 175 21 is_stmt 1
 175:src/Riscv.cpp ****                 else
 1141              		.loc 1 175 66 is_stmt 0
 1142              	#APP
 1143              	# 175 "src/Riscv.cpp" 1
 1144              		li a0, 0xffffffffffffffff
 1145              	# 0 "" 2
 1146              	#NO_APP
 1147 0470 6FF0DFF9 		j	.L28
 1148              	.LVL77:
 1149              	.L52:
 1150              	.LBE183:
 1151              	.LBB184:
 1152              	.LBB170:
 181:src/Riscv.cpp ****                 PCB::timeSliceCounter = 0;
 1153              		.loc 1 181 17 is_stmt 1
 1154              	.LBB171:
 1155              	.LBB172:
 154:src/../h/Riscv.hpp ****     __asm__ volatile("csrr %0, sstatus" : "=r"(sstatus));
 1156              		.loc 2 154 5
 155:src/../h/Riscv.hpp ****     return sstatus;
 1157              		.loc 2 155 5
 155:src/../h/Riscv.hpp ****     return sstatus;
 1158              		.loc 2 155 57 is_stmt 0
 1159              	#APP
 1160              	# 155 "src/../h/Riscv.hpp" 1
 1161              		csrr a5, sstatus
 1162              	# 0 "" 2
 1163              	.LVL78:
 1164              	#NO_APP
 1165 0478 2334F4FA 		sd	a5,-88(s0)
 156:src/../h/Riscv.hpp **** }
 1166              		.loc 2 156 5 is_stmt 1
 156:src/../h/Riscv.hpp **** }
 1167              		.loc 2 156 12 is_stmt 0
 1168 047c 033984FA 		ld	s2,-88(s0)
 1169              	.LVL79:
 1170              	.LBE172:
 1171              	.LBE171:
 182:src/Riscv.cpp ****                 PCB::dispatch();
 1172              		.loc 1 182 17 is_stmt 1
 182:src/Riscv.cpp ****                 PCB::dispatch();
 1173              		.loc 1 182 39 is_stmt 0
 1174 0480 97070000 		la	a5,_ZN3PCB16timeSliceCounterE
 1174      83B70700 
 1175 0488 23B00700 		sd	zero,0(a5)
GAS LISTING /tmp/cc3nUUqy.s 			page 32


 183:src/Riscv.cpp ****                 Riscv::w_sstatus(sstatus);
 1176              		.loc 1 183 17 is_stmt 1
 1177              	.LEHB6:
 183:src/Riscv.cpp ****                 Riscv::w_sstatus(sstatus);
 1178              		.loc 1 183 30 is_stmt 0
 1179 048c 97000000 		call	_ZN3PCB8dispatchEv@plt
 1179      E7800000 
 1180              	.LVL80:
 184:src/Riscv.cpp ****             }
 1181              		.loc 1 184 17 is_stmt 1
 1182              	.LBB173:
 1183              	.LBB174:
 160:src/../h/Riscv.hpp **** }
 1184              		.loc 2 160 5
 160:src/../h/Riscv.hpp **** }
 1185              		.loc 2 160 57 is_stmt 0
 1186              	#APP
 1187              	# 160 "src/../h/Riscv.hpp" 1
 1188              		csrw sstatus, s2
 1189              	# 0 "" 2
 1190              		.loc 2 161 1
 1191              	#NO_APP
 1192 0498 6FF05FF7 		j	.L28
 1193              	.LVL81:
 1194              	.L53:
 1195              	.LBE174:
 1196              	.LBE173:
 1197              	.LBE170:
 1198              	.LBB175:
 1199              	.LBB156:
 188:src/Riscv.cpp ****                 {
 1200              		.loc 1 188 17 is_stmt 1
 188:src/Riscv.cpp ****                 {
 1201              		.loc 1 188 33 is_stmt 0
 1202 049c 97070000 		la	a5,_ZN3PCB7runningE
 1202      83B70700 
 1203              	.LVL82:
 1204 04a4 83B70700 		ld	a5,0(a5)
 188:src/Riscv.cpp ****                 {
 1205              		.loc 1 188 17
 1206 04a8 63800704 		beqz	a5,.L59
 193:src/Riscv.cpp ****                 PCB::timeSliceCounter = 0;
 1207              		.loc 1 193 17 is_stmt 1
 1208              	.LBB157:
 1209              	.LBB158:
 154:src/../h/Riscv.hpp ****     __asm__ volatile("csrr %0, sstatus" : "=r"(sstatus));
 1210              		.loc 2 154 5
 155:src/../h/Riscv.hpp ****     return sstatus;
 1211              		.loc 2 155 5
 155:src/../h/Riscv.hpp ****     return sstatus;
 1212              		.loc 2 155 57 is_stmt 0
 1213              	#APP
 1214              	# 155 "src/../h/Riscv.hpp" 1
 1215              		csrr a5, sstatus
 1216              	# 0 "" 2
 1217              	#NO_APP
 1218 04b0 2338F4FA 		sd	a5,-80(s0)
GAS LISTING /tmp/cc3nUUqy.s 			page 33


 156:src/../h/Riscv.hpp **** }
 1219              		.loc 2 156 5 is_stmt 1
 156:src/../h/Riscv.hpp **** }
 1220              		.loc 2 156 12 is_stmt 0
 1221 04b4 033904FB 		ld	s2,-80(s0)
 1222              	.LVL83:
 1223              	.LBE158:
 1224              	.LBE157:
 194:src/Riscv.cpp ****                 PCB::running->setState(PCB::EXITING);
 1225              		.loc 1 194 17 is_stmt 1
 194:src/Riscv.cpp ****                 PCB::running->setState(PCB::EXITING);
 1226              		.loc 1 194 39 is_stmt 0
 1227 04b8 97070000 		la	a5,_ZN3PCB16timeSliceCounterE
 1227      83B70700 
 1228 04c0 23B00700 		sd	zero,0(a5)
 195:src/Riscv.cpp ****                 PCB::dispatch();
 1229              		.loc 1 195 17 is_stmt 1
 195:src/Riscv.cpp ****                 PCB::dispatch();
 1230              		.loc 1 195 39 is_stmt 0
 1231 04c4 97070000 		la	a5,_ZN3PCB7runningE
 1231      83B70700 
 1232 04cc 83B70700 		ld	a5,0(a5)
 1233              	.LVL84:
 1234              	.LBB159:
 1235              	.LBB160:
 1236              		.loc 3 35 29 is_stmt 1
 1237              		.loc 3 35 35 is_stmt 0
 1238 04d0 13074000 		li	a4,4
 1239 04d4 23A8E702 		sw	a4,48(a5)
 1240              	.LVL85:
 1241              	.LBE160:
 1242              	.LBE159:
 196:src/Riscv.cpp ****                 Riscv::w_sstatus(sstatus);
 1243              		.loc 1 196 17 is_stmt 1
 196:src/Riscv.cpp ****                 Riscv::w_sstatus(sstatus);
 1244              		.loc 1 196 30 is_stmt 0
 1245 04d8 97000000 		call	_ZN3PCB8dispatchEv@plt
 1245      E7800000 
 1246              	.LVL86:
 197:src/Riscv.cpp ****             }
 1247              		.loc 1 197 17 is_stmt 1
 1248              	.LBB161:
 1249              	.LBB162:
 160:src/../h/Riscv.hpp **** }
 1250              		.loc 2 160 5
 160:src/../h/Riscv.hpp **** }
 1251              		.loc 2 160 57 is_stmt 0
 1252              	#APP
 1253              	# 160 "src/../h/Riscv.hpp" 1
 1254              		csrw sstatus, s2
 1255              	# 0 "" 2
 1256              		.loc 2 161 1
 1257              	#NO_APP
 1258 04e4 6FF09FF2 		j	.L28
 1259              	.LVL87:
 1260              	.L59:
 1261              	.LBE162:
GAS LISTING /tmp/cc3nUUqy.s 			page 34


 1262              	.LBE161:
 190:src/Riscv.cpp ****                     return;
 1263              		.loc 1 190 21 is_stmt 1
 190:src/Riscv.cpp ****                     return;
 1264              		.loc 1 190 66 is_stmt 0
 1265              	#APP
 1266              	# 190 "src/Riscv.cpp" 1
 191:src/Riscv.cpp ****                 }
 1267              		li a0, 0xffffffffffffffff
 1268              	# 0 "" 2
 1269              		.loc 1 191 21 is_stmt 1
 1270              	#NO_APP
 1271 04ec 6FF09FE5 		j	.L23
 1272              	.LVL88:
 1273              	.L54:
 1274              	.LBE156:
 1275              	.LBB163:
 1276              	.LBB143:
 201:src/Riscv.cpp ****                 __asm__ volatile("mv %0, a1" : "=r"(time));
 1277              		.loc 1 201 17
 202:src/Riscv.cpp ****                 uint64 sstatus = Riscv::r_sstatus();
 1278              		.loc 1 202 17
 202:src/Riscv.cpp ****                 uint64 sstatus = Riscv::r_sstatus();
 1279              		.loc 1 202 59 is_stmt 0
 1280              	#APP
 1281              	# 202 "src/Riscv.cpp" 1
 1282              		mv a4, a1
 1283              	# 0 "" 2
 1284              	.LVL89:
 203:src/Riscv.cpp ****                 PCB::timeSliceCounter = 0;
 1285              		.loc 1 203 17 is_stmt 1
 1286              	#NO_APP
 1287              	.LBB144:
 1288              	.LBB145:
 154:src/../h/Riscv.hpp ****     __asm__ volatile("csrr %0, sstatus" : "=r"(sstatus));
 1289              		.loc 2 154 5
 155:src/../h/Riscv.hpp ****     return sstatus;
 1290              		.loc 2 155 5
 155:src/../h/Riscv.hpp ****     return sstatus;
 1291              		.loc 2 155 57 is_stmt 0
 1292              	#APP
 1293              	# 155 "src/../h/Riscv.hpp" 1
 1294              		csrr a5, sstatus
 1295              	# 0 "" 2
 1296              	.LVL90:
 1297              	#NO_APP
 1298 04f8 233CF4FA 		sd	a5,-72(s0)
 156:src/../h/Riscv.hpp **** }
 1299              		.loc 2 156 5 is_stmt 1
 156:src/../h/Riscv.hpp **** }
 1300              		.loc 2 156 12 is_stmt 0
 1301 04fc 033984FB 		ld	s2,-72(s0)
 1302              	.LVL91:
 1303              	.LBE145:
 1304              	.LBE144:
 204:src/Riscv.cpp ****                 PCB::running->setTimeToSleep(time);
 1305              		.loc 1 204 17 is_stmt 1
GAS LISTING /tmp/cc3nUUqy.s 			page 35


 204:src/Riscv.cpp ****                 PCB::running->setTimeToSleep(time);
 1306              		.loc 1 204 39 is_stmt 0
 1307 0500 97070000 		la	a5,_ZN3PCB16timeSliceCounterE
 1307      83B70700 
 1308 0508 23B00700 		sd	zero,0(a5)
 205:src/Riscv.cpp ****                 SleepPCBList::insertSleepingPCB();
 1309              		.loc 1 205 17 is_stmt 1
 205:src/Riscv.cpp ****                 SleepPCBList::insertSleepingPCB();
 1310              		.loc 1 205 45 is_stmt 0
 1311 050c 97070000 		la	a5,_ZN3PCB7runningE
 1311      83B70700 
 1312 0514 83B70700 		ld	a5,0(a5)
 1313              	.LVL92:
 1314              	.LBB146:
 1315              	.LBB147:
  36:src/../h/PCB.hpp ****     void setTimeToSleep(uint64 time) {timeToSleep = time;}
 1316              		.loc 3 36 39 is_stmt 1
 1317              		.loc 3 36 51 is_stmt 0
 1318 0518 23B8E700 		sd	a4,16(a5)
 1319              	.LVL93:
 1320              	.LBE147:
 1321              	.LBE146:
 206:src/Riscv.cpp ****                 PCB::dispatch();
 1322              		.loc 1 206 17 is_stmt 1
 206:src/Riscv.cpp ****                 PCB::dispatch();
 1323              		.loc 1 206 48 is_stmt 0
 1324 051c 97000000 		call	_ZN12SleepPCBList17insertSleepingPCBEv@plt
 1324      E7800000 
 1325              	.LVL94:
 207:src/Riscv.cpp ****                 Riscv::w_sstatus(sstatus);
 1326              		.loc 1 207 17 is_stmt 1
 207:src/Riscv.cpp ****                 Riscv::w_sstatus(sstatus);
 1327              		.loc 1 207 30 is_stmt 0
 1328 0524 97000000 		call	_ZN3PCB8dispatchEv@plt
 1328      E7800000 
 1329              	.LVL95:
 208:src/Riscv.cpp ****                 //todo
 1330              		.loc 1 208 17 is_stmt 1
 1331              	.LBB148:
 1332              	.LBB149:
 160:src/../h/Riscv.hpp **** }
 1333              		.loc 2 160 5
 160:src/../h/Riscv.hpp **** }
 1334              		.loc 2 160 57 is_stmt 0
 1335              	#APP
 1336              	# 160 "src/../h/Riscv.hpp" 1
 1337              		csrw sstatus, s2
 1338              	# 0 "" 2
 1339              	.LVL96:
 1340              	#NO_APP
 1341              	.LBE149:
 1342              	.LBE148:
 211:src/Riscv.cpp ****             }
 1343              		.loc 1 211 17 is_stmt 1
 211:src/Riscv.cpp ****             }
 1344              		.loc 1 211 47 is_stmt 0
 1345              	#APP
GAS LISTING /tmp/cc3nUUqy.s 			page 36


 1346              	# 211 "src/Riscv.cpp" 1
 1347              		li a0, 0x0
 1348              	# 0 "" 2
 1349              	#NO_APP
 1350              	.LBE143:
 1351 0534 6FF09FED 		j	.L28
 1352              	.LVL97:
 1353              	.L55:
 1354              	.LBB150:
 1355              	.LBB137:
 215:src/Riscv.cpp ****                 KSemaphore** semaphoreHandle;
 1356              		.loc 1 215 17 is_stmt 1
 216:src/Riscv.cpp ****                 __asm__ volatile("mv %0, a1" : "=r"(semaphoreHandle));
 1357              		.loc 1 216 17
 217:src/Riscv.cpp ****                 __asm__ volatile("mv %0, a2" : "=r"(val));
 1358              		.loc 1 217 17
 217:src/Riscv.cpp ****                 __asm__ volatile("mv %0, a2" : "=r"(val));
 1359              		.loc 1 217 70 is_stmt 0
 1360              	#APP
 1361              	# 217 "src/Riscv.cpp" 1
 1362              		mv s3, a1
 1363              	# 0 "" 2
 1364              	.LVL98:
 218:src/Riscv.cpp **** 
 1365              		.loc 1 218 17 is_stmt 1
 218:src/Riscv.cpp **** 
 1366              		.loc 1 218 58 is_stmt 0
 1367              	# 218 "src/Riscv.cpp" 1
 1368              		mv s4, a2
 1369              	# 0 "" 2
 1370              	.LVL99:
 220:src/Riscv.cpp **** 
 1371              		.loc 1 220 17 is_stmt 1
 220:src/Riscv.cpp **** 
 1372              		.loc 1 220 56 is_stmt 0
 1373              	#NO_APP
 1374 0540 13058001 		li	a0,24
 1375 0544 97000000 		call	_ZN10KSemaphorenwEm@plt
 1375      E7800000 
 1376              	.LVL100:
 1377              	.LEHE6:
 1378 054c 13090500 		mv	s2,a0
 1379              	.LVL101:
 1380 0550 9B050A00 		sext.w	a1,s4
 1381              	.LEHB7:
 1382 0554 97000000 		call	_ZN10KSemaphoreC1Ei@plt
 1382      E7800000 
 1383              	.LVL102:
 1384              	.LEHE7:
 222:src/Riscv.cpp **** 
 1385              		.loc 1 222 17 is_stmt 1 discriminator 2
 222:src/Riscv.cpp **** 
 1386              		.loc 1 222 36 is_stmt 0 discriminator 2
 1387 055c 23B02901 		sd	s2,0(s3)
 224:src/Riscv.cpp ****                         __asm__ volatile("li a0, 0xffffffffffffffff");
 1388              		.loc 1 224 17 is_stmt 1 discriminator 2
 1389 0560 63060900 		beqz	s2,.L60
GAS LISTING /tmp/cc3nUUqy.s 			page 37


 227:src/Riscv.cpp **** 
 1390              		.loc 1 227 25
 227:src/Riscv.cpp **** 
 1391              		.loc 1 227 53 is_stmt 0
 1392              	#APP
 1393              	# 227 "src/Riscv.cpp" 1
 1394              		li a0, 0
 1395              	# 0 "" 2
 1396              	#NO_APP
 1397 0568 6FF05FEA 		j	.L28
 1398              	.L60:
 225:src/Riscv.cpp ****                 else
 1399              		.loc 1 225 25 is_stmt 1
 225:src/Riscv.cpp ****                 else
 1400              		.loc 1 225 70 is_stmt 0
 1401              	#APP
 1402              	# 225 "src/Riscv.cpp" 1
 1403              		li a0, 0xffffffffffffffff
 1404              	# 0 "" 2
 1405              	#NO_APP
 1406 0570 6FF0DFE9 		j	.L28
 1407              	.LVL103:
 1408              	.L56:
 1409              	.LBE137:
 1410              	.LBB138:
 1411              	.LBB133:
 234:src/Riscv.cpp ****                 __asm__ volatile("mv %0, a1" : "=r"(kSem));
 1412              		.loc 1 234 17 is_stmt 1
 235:src/Riscv.cpp ****                 uint64 retval = kSem->wait();
 1413              		.loc 1 235 17
 235:src/Riscv.cpp ****                 uint64 retval = kSem->wait();
 1414              		.loc 1 235 59 is_stmt 0
 1415              	#APP
 1416              	# 235 "src/Riscv.cpp" 1
 1417              		mv a0, a1
 1418              	# 0 "" 2
 1419              	.LVL104:
 236:src/Riscv.cpp ****                 __asm__ volatile("mv a0,%0" : :"r"(retval));
 1420              		.loc 1 236 17 is_stmt 1
 1421              	.LEHB8:
 236:src/Riscv.cpp ****                 __asm__ volatile("mv a0,%0" : :"r"(retval));
 1422              		.loc 1 236 43 is_stmt 0
 1423              	#NO_APP
 1424 0578 97000000 		call	_ZN10KSemaphore4waitEv@plt
 1424      E7800000 
 1425              	.LVL105:
 237:src/Riscv.cpp ****             }
 1426              		.loc 1 237 17 is_stmt 1
 237:src/Riscv.cpp ****             }
 1427              		.loc 1 237 60 is_stmt 0
 1428              	#APP
 1429              	# 237 "src/Riscv.cpp" 1
 1430              		mv a0,a0
 1431              	# 0 "" 2
 1432              	#NO_APP
 1433              	.LBE133:
 1434 0584 6FF09FE8 		j	.L28
GAS LISTING /tmp/cc3nUUqy.s 			page 38


 1435              	.LVL106:
 1436              	.L57:
 1437              	.LBB134:
 1438              	.LBB131:
 243:src/Riscv.cpp ****                 __asm__ volatile("mv %0, a1" : "=r"(kSem));
 1439              		.loc 1 243 17 is_stmt 1
 244:src/Riscv.cpp ****                 uint64 retval = kSem->signal();
 1440              		.loc 1 244 17
 244:src/Riscv.cpp ****                 uint64 retval = kSem->signal();
 1441              		.loc 1 244 59 is_stmt 0
 1442              	#APP
 1443              	# 244 "src/Riscv.cpp" 1
 1444              		mv a0, a1
 1445              	# 0 "" 2
 1446              	.LVL107:
 245:src/Riscv.cpp ****                 __asm__ volatile("mv a0,%0" : :"r"(retval));
 1447              		.loc 1 245 17 is_stmt 1
 245:src/Riscv.cpp ****                 __asm__ volatile("mv a0,%0" : :"r"(retval));
 1448              		.loc 1 245 45 is_stmt 0
 1449              	#NO_APP
 1450 058c 97000000 		call	_ZN10KSemaphore6signalEv@plt
 1450      E7800000 
 1451              	.LVL108:
 1452              	.LEHE8:
 246:src/Riscv.cpp ****             }
 1453              		.loc 1 246 17 is_stmt 1
 246:src/Riscv.cpp ****             }
 1454              		.loc 1 246 60 is_stmt 0
 1455              	#APP
 1456              	# 246 "src/Riscv.cpp" 1
 1457              		mv a0,a0
 1458              	# 0 "" 2
 1459              	#NO_APP
 1460              	.LBE131:
 1461 0598 6FF05FE7 		j	.L28
 1462              	.LVL109:
 1463              	.L44:
 1464 059c 93040500 		mv	s1,a0
 1465              	.LVL110:
 1466              	.LBE134:
 1467              	.LBE138:
 1468              	.LBE150:
 1469              	.LBE163:
 1470              	.LBE175:
 1471              	.LBE184:
 1472              	.LBB185:
 170:src/Riscv.cpp **** 
 1473              		.loc 1 170 113
 1474 05a0 13850900 		mv	a0,s3
 1475 05a4 97000000 		call	_ZN3PCBdlEPv@plt
 1475      E7800000 
 1476              	.LVL111:
 1477 05ac 13850400 		mv	a0,s1
 1478              	.LEHB9:
 1479 05b0 97000000 		call	_Unwind_Resume@plt
 1479      E7800000 
 1480              	.LVL112:
GAS LISTING /tmp/cc3nUUqy.s 			page 39


 1481              	.LEHE9:
 1482              	.L45:
 1483 05b8 93040500 		mv	s1,a0
 1484              	.LVL113:
 1485              	.LBE185:
 1486              	.LBB186:
 1487              	.LBB176:
 1488              	.LBB164:
 1489              	.LBB151:
 1490              	.LBB139:
 220:src/Riscv.cpp **** 
 1491              		.loc 1 220 56
 1492 05bc 13050900 		mv	a0,s2
 1493 05c0 97000000 		call	_ZN10KSemaphoredlEPv@plt
 1493      E7800000 
 1494              	.LVL114:
 1495 05c8 13850400 		mv	a0,s1
 1496              	.LEHB10:
 1497 05cc 97000000 		call	_Unwind_Resume@plt
 1497      E7800000 
 1498              	.LVL115:
 1499              	.LEHE10:
 1500              	.LBE139:
 1501              	.LBE151:
 1502              	.LBE164:
 1503              	.LBE176:
 1504              	.LBE186:
 1505              	.LBE195:
 1506              	.LBE205:
 1507              	.LBE217:
 1508              	.LBE227:
 1509              	.LBE237:
 1510              		.cfi_endproc
 1511              	.LFE28:
 1512              		.section	.gcc_except_table
 1513              	.LLSDA28:
 1514 0038 FF       		.byte	0xff
 1515 0039 FF       		.byte	0xff
 1516 003a 03       		.byte	0x3
 1517 003b 5B       		.byte	0x5b
 1518 003c 00000000 		.4byte	.LEHB4-.LFB28
 1519 0040 00000000 		.4byte	.LEHE4-.LEHB4
 1520 0044 00000000 		.4byte	0
 1521 0048 00       		.byte	0
 1522 0049 00000000 		.4byte	.LEHB5-.LFB28
 1523 004d 00000000 		.4byte	.LEHE5-.LEHB5
 1524 0051 00000000 		.4byte	.L44-.LFB28
 1525 0055 00       		.byte	0
 1526 0056 00000000 		.4byte	.LEHB6-.LFB28
 1527 005a 00000000 		.4byte	.LEHE6-.LEHB6
 1528 005e 00000000 		.4byte	0
 1529 0062 00       		.byte	0
 1530 0063 00000000 		.4byte	.LEHB7-.LFB28
 1531 0067 00000000 		.4byte	.LEHE7-.LEHB7
 1532 006b 00000000 		.4byte	.L45-.LFB28
 1533 006f 00       		.byte	0
 1534 0070 00000000 		.4byte	.LEHB8-.LFB28
GAS LISTING /tmp/cc3nUUqy.s 			page 40


 1535 0074 00000000 		.4byte	.LEHE8-.LEHB8
 1536 0078 00000000 		.4byte	0
 1537 007c 00       		.byte	0
 1538 007d 00000000 		.4byte	.LEHB9-.LFB28
 1539 0081 00000000 		.4byte	.LEHE9-.LEHB9
 1540 0085 00000000 		.4byte	0
 1541 0089 00       		.byte	0
 1542 008a 00000000 		.4byte	.LEHB10-.LFB28
 1543 008e 00000000 		.4byte	.LEHE10-.LEHB10
 1544 0092 00000000 		.4byte	0
 1545 0096 00       		.byte	0
 1546              		.text
 1548              		.section	.rodata
 1549              		.align	3
 1550              		.set	.LANCHOR0,. + 0
 1553              	_ZZN5Riscv12printIntegerEmE6digits:
 1554 0000 30313233 		.string	"0123456789"
 1554      34353637 
 1554      383900
 1555              		.text
 1556              	.Letext0:
 1557              		.file 4 "src/../h/../lib/hw.h"
 1558              		.file 5 "src/../h/Queue.hpp"
 1559              		.file 6 "src/../h/Scheduler.hpp"
 1560              		.file 7 "src/../h/KSemaphore.hpp"
 1561              		.file 8 "src/../h/syscall_cpp.hpp"
 1562              		.file 9 "src/../h/SleepPCBList.hpp"
 1563              		.file 10 "src/../h/MemoryAllocator.hpp"
 1564              		.file 11 "src/../lib/console.h"
 6567              		.align	3
 6570              	DW.ref.__gxx_personality_v0:
 6571 0000 00000000 		.dword	__gxx_personality_v0
 6571      00000000 
 6572              		.ident	"GCC: (Ubuntu 9.3.0-17ubuntu1~20.04) 9.3.0"
 6573              		.section	.note.GNU-stack,"",@progbits
GAS LISTING /tmp/cc3nUUqy.s 			page 41


DEFINED SYMBOLS
                            *ABS*:0000000000000000 Riscv.cpp
     /tmp/cc3nUUqy.s:9      .text:0000000000000000 _ZN5Riscv10initSystemEv
     /tmp/cc3nUUqy.s:13     .text:0000000000000000 .L0 
     /tmp/cc3nUUqy.s:6570   .data.rel.local.DW.ref.__gxx_personality_v0:0000000000000000 DW.ref.__gxx_personality_v0
     /tmp/cc3nUUqy.s:16     .text:0000000000000000 .L0 
     /tmp/cc3nUUqy.s:17     .text:0000000000000004 .L0 
     /tmp/cc3nUUqy.s:22     .text:0000000000000014 .L0 
     /tmp/cc3nUUqy.s:23     .text:0000000000000014 .L0 
     /tmp/cc3nUUqy.s:24     .text:0000000000000014 .L0 
     /tmp/cc3nUUqy.s:25     .text:0000000000000014 .L0 
     /tmp/cc3nUUqy.s:27     .text:0000000000000018 .L0 
     /tmp/cc3nUUqy.s:29     .text:0000000000000018 .L0 
     /tmp/cc3nUUqy.s:30     .text:0000000000000018 .L0 
     /tmp/cc3nUUqy.s:36     .text:0000000000000020 .L0 
  src/../h/Riscv.hpp:114    .text:0000000000000020 .L0 
     /tmp/cc3nUUqy.s:46     .text:0000000000000024 .L0 
     /tmp/cc3nUUqy.s:47     .text:0000000000000024 .L0 
     /tmp/cc3nUUqy.s:60     .text:0000000000000044 .L0 
     /tmp/cc3nUUqy.s:61     .text:0000000000000044 .L0 
     /tmp/cc3nUUqy.s:66     .text:0000000000000050 .L0 
     /tmp/cc3nUUqy.s:67     .text:0000000000000050 .L0 
     /tmp/cc3nUUqy.s:71     .text:0000000000000058 .L0 
     /tmp/cc3nUUqy.s:78     .text:0000000000000064 .L0 
     /tmp/cc3nUUqy.s:79     .text:0000000000000064 .L0 
     /tmp/cc3nUUqy.s:80     .text:0000000000000064 .L0 
     /tmp/cc3nUUqy.s:86     .text:000000000000006c .L0 
     /tmp/cc3nUUqy.s:87     .text:0000000000000070 .L0 
     /tmp/cc3nUUqy.s:88     .text:0000000000000070 .L0 
     /tmp/cc3nUUqy.s:90     .text:0000000000000074 .L0 
     /tmp/cc3nUUqy.s:91     .text:0000000000000074 .L0 
     /tmp/cc3nUUqy.s:93     .text:0000000000000078 .L0 
     /tmp/cc3nUUqy.s:96     .text:000000000000007c .L0 
     /tmp/cc3nUUqy.s:98     .text:0000000000000080 .L0 
     /tmp/cc3nUUqy.s:101    .text:0000000000000084 .L0 
     /tmp/cc3nUUqy.s:104    .text:0000000000000088 .L0 
     /tmp/cc3nUUqy.s:112    .text:00000000000000a0 .L0 
     /tmp/cc3nUUqy.s:142    .text:00000000000000a0 _ZN5Riscv16enableInterruptsEv
     /tmp/cc3nUUqy.s:145    .text:00000000000000a0 .L0 
     /tmp/cc3nUUqy.s:146    .text:00000000000000a0 .L0 
     /tmp/cc3nUUqy.s:147    .text:00000000000000a4 .L0 
     /tmp/cc3nUUqy.s:149    .text:00000000000000a8 .L0 
     /tmp/cc3nUUqy.s:151    .text:00000000000000ac .L0 
     /tmp/cc3nUUqy.s:156    .text:00000000000000ac .L0 
     /tmp/cc3nUUqy.s:157    .text:00000000000000ac .L0 
     /tmp/cc3nUUqy.s:158    .text:00000000000000ac .L0 
     /tmp/cc3nUUqy.s:168    .text:00000000000000b4 .L0 
     /tmp/cc3nUUqy.s:169    .text:00000000000000b8 .L0 
     /tmp/cc3nUUqy.s:170    .text:00000000000000b8 .L0 
     /tmp/cc3nUUqy.s:172    .text:00000000000000bc .L0 
     /tmp/cc3nUUqy.s:174    .text:00000000000000c0 .L0 
     /tmp/cc3nUUqy.s:180    .text:00000000000000c0 _ZN5Riscv17disableInterruptsEv
     /tmp/cc3nUUqy.s:183    .text:00000000000000c0 .L0 
     /tmp/cc3nUUqy.s:184    .text:00000000000000c0 .L0 
     /tmp/cc3nUUqy.s:185    .text:00000000000000c4 .L0 
     /tmp/cc3nUUqy.s:187    .text:00000000000000c8 .L0 
     /tmp/cc3nUUqy.s:189    .text:00000000000000cc .L0 
GAS LISTING /tmp/cc3nUUqy.s 			page 42


     /tmp/cc3nUUqy.s:194    .text:00000000000000cc .L0 
     /tmp/cc3nUUqy.s:195    .text:00000000000000cc .L0 
     /tmp/cc3nUUqy.s:196    .text:00000000000000cc .L0 
     /tmp/cc3nUUqy.s:206    .text:00000000000000d4 .L0 
     /tmp/cc3nUUqy.s:207    .text:00000000000000d8 .L0 
     /tmp/cc3nUUqy.s:208    .text:00000000000000d8 .L0 
     /tmp/cc3nUUqy.s:210    .text:00000000000000dc .L0 
     /tmp/cc3nUUqy.s:212    .text:00000000000000e0 .L0 
     /tmp/cc3nUUqy.s:218    .text:00000000000000e0 _ZN5Riscv9endSystemEv
     /tmp/cc3nUUqy.s:221    .text:00000000000000e0 .L0 
     /tmp/cc3nUUqy.s:222    .text:00000000000000e0 .L0 
     /tmp/cc3nUUqy.s:223    .text:00000000000000e4 .L0 
     /tmp/cc3nUUqy.s:226    .text:00000000000000ec .L0 
     /tmp/cc3nUUqy.s:227    .text:00000000000000ec .L0 
     /tmp/cc3nUUqy.s:229    .text:00000000000000f0 .L0 
     /tmp/cc3nUUqy.s:231    .text:00000000000000f0 .L0 
     /tmp/cc3nUUqy.s:232    .text:00000000000000f0 .L0 
     /tmp/cc3nUUqy.s:235    .text:00000000000000f8 .L0 
     /tmp/cc3nUUqy.s:236    .text:00000000000000fc .L0 
     /tmp/cc3nUUqy.s:238    .text:0000000000000100 .L0 
     /tmp/cc3nUUqy.s:239    .text:0000000000000100 .L0 
     /tmp/cc3nUUqy.s:241    .text:0000000000000104 .L0 
     /tmp/cc3nUUqy.s:243    .text:0000000000000108 .L0 
     /tmp/cc3nUUqy.s:249    .text:0000000000000108 _ZN5Riscv10popSppSpieEv
     /tmp/cc3nUUqy.s:252    .text:0000000000000108 .L0 
     /tmp/cc3nUUqy.s:253    .text:0000000000000108 .L0 
     /tmp/cc3nUUqy.s:254    .text:000000000000010c .L0 
     /tmp/cc3nUUqy.s:256    .text:0000000000000110 .L0 
     /tmp/cc3nUUqy.s:258    .text:0000000000000114 .L0 
     /tmp/cc3nUUqy.s:260    .text:0000000000000114 .L0 
       src/Riscv.cpp:40     .text:0000000000000114 .L0 
     /tmp/cc3nUUqy.s:266    .text:0000000000000118 .L0 
       src/Riscv.cpp:41     .text:0000000000000118 .L0 
     /tmp/cc3nUUqy.s:272    .text:000000000000011c .L0 
     /tmp/cc3nUUqy.s:273    .text:0000000000000120 .L0 
     /tmp/cc3nUUqy.s:274    .text:0000000000000120 .L0 
     /tmp/cc3nUUqy.s:276    .text:0000000000000124 .L0 
     /tmp/cc3nUUqy.s:278    .text:0000000000000128 .L0 
     /tmp/cc3nUUqy.s:284    .text:0000000000000128 _ZN5Riscv11printStringEPKc
     /tmp/cc3nUUqy.s:287    .text:0000000000000128 .L0 
     /tmp/cc3nUUqy.s:289    .text:0000000000000128 .L0 
     /tmp/cc3nUUqy.s:290    .text:000000000000012c .L0 
     /tmp/cc3nUUqy.s:295    .text:000000000000013c .L0 
     /tmp/cc3nUUqy.s:296    .text:000000000000013c .L0 
     /tmp/cc3nUUqy.s:297    .text:000000000000013c .L0 
     /tmp/cc3nUUqy.s:298    .text:000000000000013c .L0 
     /tmp/cc3nUUqy.s:300    .text:0000000000000140 .L0 
     /tmp/cc3nUUqy.s:305    .text:0000000000000144 .L0 
     /tmp/cc3nUUqy.s:306    .text:0000000000000144 .L0 
     /tmp/cc3nUUqy.s:307    .text:0000000000000144 .L0 
  src/../h/Riscv.hpp:155    .text:0000000000000144 .L0 
     /tmp/cc3nUUqy.s:315    .text:000000000000014c .L0 
     /tmp/cc3nUUqy.s:316    .text:000000000000014c .L0 
     /tmp/cc3nUUqy.s:323    .text:0000000000000150 .L0 
     /tmp/cc3nUUqy.s:324    .text:0000000000000150 .L0 
     /tmp/cc3nUUqy.s:325    .text:0000000000000150 .L0 
     /tmp/cc3nUUqy.s:336    .text:0000000000000158 .L0 
GAS LISTING /tmp/cc3nUUqy.s 			page 43


     /tmp/cc3nUUqy.s:337    .text:0000000000000158 .L0 
     /tmp/cc3nUUqy.s:338    .text:0000000000000158 .L0 
     /tmp/cc3nUUqy.s:340    .text:000000000000015c .L0 
     /tmp/cc3nUUqy.s:342    .text:0000000000000160 .L0 
     /tmp/cc3nUUqy.s:343    .text:0000000000000160 .L0 
     /tmp/cc3nUUqy.s:346    .text:0000000000000168 .L0 
     /tmp/cc3nUUqy.s:347    .text:0000000000000168 .L0 
     /tmp/cc3nUUqy.s:350    .text:000000000000016c .L0 
     /tmp/cc3nUUqy.s:353    .text:0000000000000170 .L0 
     /tmp/cc3nUUqy.s:354    .text:0000000000000170 .L0 
     /tmp/cc3nUUqy.s:357    .text:0000000000000174 .L0 
     /tmp/cc3nUUqy.s:363    .text:000000000000017c .L0 
  src/../h/Riscv.hpp:146    .text:000000000000017c .L0 
     /tmp/cc3nUUqy.s:373    .text:0000000000000180 .L0 
     /tmp/cc3nUUqy.s:374    .text:0000000000000184 .L0 
     /tmp/cc3nUUqy.s:376    .text:0000000000000188 .L0 
     /tmp/cc3nUUqy.s:377    .text:0000000000000188 .L0 
     /tmp/cc3nUUqy.s:379    .text:000000000000018c .L0 
     /tmp/cc3nUUqy.s:382    .text:0000000000000190 .L0 
     /tmp/cc3nUUqy.s:384    .text:0000000000000194 .L0 
     /tmp/cc3nUUqy.s:386    .text:0000000000000198 .L0 
     /tmp/cc3nUUqy.s:392    .text:0000000000000198 _ZN5Riscv12printIntegerEm
     /tmp/cc3nUUqy.s:395    .text:0000000000000198 .L0 
     /tmp/cc3nUUqy.s:397    .text:0000000000000198 .L0 
     /tmp/cc3nUUqy.s:398    .text:000000000000019c .L0 
     /tmp/cc3nUUqy.s:403    .text:00000000000001ac .L0 
     /tmp/cc3nUUqy.s:404    .text:00000000000001ac .L0 
     /tmp/cc3nUUqy.s:405    .text:00000000000001ac .L0 
     /tmp/cc3nUUqy.s:406    .text:00000000000001ac .L0 
     /tmp/cc3nUUqy.s:408    .text:00000000000001b0 .L0 
     /tmp/cc3nUUqy.s:412    .text:00000000000001b0 .L0 
     /tmp/cc3nUUqy.s:413    .text:00000000000001b0 .L0 
     /tmp/cc3nUUqy.s:414    .text:00000000000001b0 .L0 
  src/../h/Riscv.hpp:155    .text:00000000000001b0 .L0 
     /tmp/cc3nUUqy.s:422    .text:00000000000001b8 .L0 
     /tmp/cc3nUUqy.s:423    .text:00000000000001b8 .L0 
     /tmp/cc3nUUqy.s:430    .text:00000000000001bc .L0 
     /tmp/cc3nUUqy.s:431    .text:00000000000001bc .L0 
     /tmp/cc3nUUqy.s:432    .text:00000000000001bc .L0 
     /tmp/cc3nUUqy.s:442    .text:00000000000001c4 .L0 
     /tmp/cc3nUUqy.s:443    .text:00000000000001c4 .L0 
     /tmp/cc3nUUqy.s:444    .text:00000000000001c4 .L0 
     /tmp/cc3nUUqy.s:445    .text:00000000000001c4 .L0 
     /tmp/cc3nUUqy.s:446    .text:00000000000001c4 .L0 
     /tmp/cc3nUUqy.s:447    .text:00000000000001c4 .L0 
     /tmp/cc3nUUqy.s:448    .text:00000000000001c4 .L0 
     /tmp/cc3nUUqy.s:449    .text:00000000000001c4 .L0 
     /tmp/cc3nUUqy.s:452    .text:00000000000001c8 .L0 
     /tmp/cc3nUUqy.s:453    .text:00000000000001c8 .L0 
     /tmp/cc3nUUqy.s:457    .text:00000000000001cc .L0 
     /tmp/cc3nUUqy.s:458    .text:00000000000001cc .L0 
     /tmp/cc3nUUqy.s:459    .text:00000000000001cc .L0 
     /tmp/cc3nUUqy.s:463    .text:00000000000001d4 .L0 
     /tmp/cc3nUUqy.s:469    .text:00000000000001ec .L0 
     /tmp/cc3nUUqy.s:475    .text:00000000000001fc .L0 
     /tmp/cc3nUUqy.s:477    .text:0000000000000200 .L0 
     /tmp/cc3nUUqy.s:480    .text:0000000000000204 .L0 
GAS LISTING /tmp/cc3nUUqy.s 			page 44


     /tmp/cc3nUUqy.s:485    .text:000000000000020c .L0 
     /tmp/cc3nUUqy.s:486    .text:000000000000020c .L0 
     /tmp/cc3nUUqy.s:490    .text:0000000000000214 .L0 
     /tmp/cc3nUUqy.s:491    .text:0000000000000214 .L0 
     /tmp/cc3nUUqy.s:499    .text:000000000000022c .L0 
     /tmp/cc3nUUqy.s:500    .text:000000000000022c .L0 
     /tmp/cc3nUUqy.s:504    .text:0000000000000238 .L0 
     /tmp/cc3nUUqy.s:505    .text:0000000000000238 .L0 
     /tmp/cc3nUUqy.s:508    .text:000000000000023c .L0 
     /tmp/cc3nUUqy.s:514    .text:0000000000000244 .L0 
  src/../h/Riscv.hpp:146    .text:0000000000000244 .L0 
     /tmp/cc3nUUqy.s:524    .text:0000000000000248 .L0 
     /tmp/cc3nUUqy.s:525    .text:000000000000024c .L0 
     /tmp/cc3nUUqy.s:527    .text:0000000000000250 .L0 
     /tmp/cc3nUUqy.s:528    .text:0000000000000250 .L0 
     /tmp/cc3nUUqy.s:530    .text:0000000000000254 .L0 
     /tmp/cc3nUUqy.s:532    .text:0000000000000258 .L0 
     /tmp/cc3nUUqy.s:534    .text:000000000000025c .L0 
     /tmp/cc3nUUqy.s:536    .text:0000000000000260 .L0 
     /tmp/cc3nUUqy.s:547    .text:0000000000000260 _ZN5Riscv20handleSupervisorTrapEv
     /tmp/cc3nUUqy.s:550    .text:0000000000000260 .L0 
     /tmp/cc3nUUqy.s:553    .text:0000000000000260 .L0 
     /tmp/cc3nUUqy.s:554    .text:0000000000000264 .L0 
     /tmp/cc3nUUqy.s:563    .text:0000000000000284 .L0 
     /tmp/cc3nUUqy.s:564    .text:0000000000000284 .L0 
     /tmp/cc3nUUqy.s:565    .text:0000000000000284 .L0 
     /tmp/cc3nUUqy.s:566    .text:0000000000000284 .L0 
     /tmp/cc3nUUqy.s:567    .text:0000000000000284 .L0 
     /tmp/cc3nUUqy.s:568    .text:0000000000000284 .L0 
     /tmp/cc3nUUqy.s:569    .text:0000000000000284 .L0 
     /tmp/cc3nUUqy.s:570    .text:0000000000000284 .L0 
     /tmp/cc3nUUqy.s:572    .text:0000000000000288 .L0 
     /tmp/cc3nUUqy.s:574    .text:0000000000000288 .L0 
     /tmp/cc3nUUqy.s:575    .text:0000000000000288 .L0 
       src/Riscv.cpp:93     .text:0000000000000288 .L0 
     /tmp/cc3nUUqy.s:585    .text:000000000000028c .L0 
     /tmp/cc3nUUqy.s:586    .text:000000000000028c .L0 
     /tmp/cc3nUUqy.s:587    .text:000000000000028c .L0 
  src/../h/Riscv.hpp:89     .text:000000000000028c .L0 
     /tmp/cc3nUUqy.s:595    .text:0000000000000294 .L0 
     /tmp/cc3nUUqy.s:596    .text:0000000000000294 .L0 
     /tmp/cc3nUUqy.s:602    .text:0000000000000298 .L0 
     /tmp/cc3nUUqy.s:610    .text:00000000000002b0 .L0 
     /tmp/cc3nUUqy.s:614    .text:00000000000002b0 .L0 
     /tmp/cc3nUUqy.s:615    .text:00000000000002b0 .L0 
     /tmp/cc3nUUqy.s:616    .text:00000000000002b0 .L0 
     /tmp/cc3nUUqy.s:626    .text:00000000000002b8 .L0 
     /tmp/cc3nUUqy.s:627    .text:00000000000002b8 .L0 
     /tmp/cc3nUUqy.s:632    .text:00000000000002c8 .L0 
     /tmp/cc3nUUqy.s:633    .text:00000000000002c8 .L0 
     /tmp/cc3nUUqy.s:638    .text:00000000000002dc .L0 
     /tmp/cc3nUUqy.s:639    .text:00000000000002dc .L0 
     /tmp/cc3nUUqy.s:643    .text:00000000000002e4 .L0 
     /tmp/cc3nUUqy.s:644    .text:00000000000002e4 .L0 
     /tmp/cc3nUUqy.s:650    .text:00000000000002f0 .L0 
     /tmp/cc3nUUqy.s:651    .text:00000000000002f0 .L0 
     /tmp/cc3nUUqy.s:656    .text:00000000000002f4 .L0 
GAS LISTING /tmp/cc3nUUqy.s 			page 45


     /tmp/cc3nUUqy.s:658    .text:00000000000002f8 .L0 
     /tmp/cc3nUUqy.s:663    .text:00000000000002fc .L0 
     /tmp/cc3nUUqy.s:664    .text:00000000000002fc .L0 
     /tmp/cc3nUUqy.s:665    .text:00000000000002fc .L0 
  src/../h/Riscv.hpp:99     .text:00000000000002fc .L0 
     /tmp/cc3nUUqy.s:673    .text:0000000000000304 .L0 
     /tmp/cc3nUUqy.s:674    .text:0000000000000304 .L0 
     /tmp/cc3nUUqy.s:681    .text:0000000000000308 .L0 
     /tmp/cc3nUUqy.s:682    .text:0000000000000308 .L0 
     /tmp/cc3nUUqy.s:683    .text:0000000000000308 .L0 
  src/../h/Riscv.hpp:155    .text:0000000000000308 .L0 
     /tmp/cc3nUUqy.s:691    .text:0000000000000310 .L0 
     /tmp/cc3nUUqy.s:692    .text:0000000000000310 .L0 
     /tmp/cc3nUUqy.s:697    .text:0000000000000314 .L0 
     /tmp/cc3nUUqy.s:698    .text:0000000000000314 .L0 
     /tmp/cc3nUUqy.s:701    .text:0000000000000320 .L0 
     /tmp/cc3nUUqy.s:702    .text:0000000000000320 .L0 
     /tmp/cc3nUUqy.s:707    .text:0000000000000328 .L0 
     /tmp/cc3nUUqy.s:708    .text:0000000000000328 .L0 
  src/../h/Riscv.hpp:160    .text:0000000000000328 .L0 
     /tmp/cc3nUUqy.s:720    .text:000000000000032c .L0 
     /tmp/cc3nUUqy.s:721    .text:000000000000032c .L0 
  src/../h/Riscv.hpp:104    .text:000000000000032c .L0 
     /tmp/cc3nUUqy.s:728    .text:0000000000000330 .L0 
     /tmp/cc3nUUqy.s:737    .text:0000000000000334 .L0 
     /tmp/cc3nUUqy.s:743    .text:000000000000033c .L0 
     /tmp/cc3nUUqy.s:744    .text:000000000000033c .L0 
     /tmp/cc3nUUqy.s:748    .text:0000000000000344 .L0 
     /tmp/cc3nUUqy.s:749    .text:0000000000000348 .L0 
     /tmp/cc3nUUqy.s:750    .text:0000000000000348 .L0 
     /tmp/cc3nUUqy.s:752    .text:000000000000034c .L0 
     /tmp/cc3nUUqy.s:753    .text:000000000000034c .L0 
     /tmp/cc3nUUqy.s:755    .text:0000000000000350 .L0 
     /tmp/cc3nUUqy.s:757    .text:0000000000000354 .L0 
     /tmp/cc3nUUqy.s:759    .text:0000000000000358 .L0 
     /tmp/cc3nUUqy.s:761    .text:000000000000035c .L0 
     /tmp/cc3nUUqy.s:763    .text:0000000000000360 .L0 
     /tmp/cc3nUUqy.s:765    .text:0000000000000364 .L0 
     /tmp/cc3nUUqy.s:767    .text:0000000000000368 .L0 
     /tmp/cc3nUUqy.s:771    .text:000000000000036c .L0 
     /tmp/cc3nUUqy.s:775    .text:000000000000036c .L0 
     /tmp/cc3nUUqy.s:776    .text:000000000000036c .L0 
     /tmp/cc3nUUqy.s:777    .text:000000000000036c .L0 
     /tmp/cc3nUUqy.s:778    .text:000000000000036c .L0 
       src/Riscv.cpp:138    .text:000000000000036c .L0 
     /tmp/cc3nUUqy.s:788    .text:0000000000000370 .L0 
     /tmp/cc3nUUqy.s:789    .text:0000000000000370 .L0 
     /tmp/cc3nUUqy.s:790    .text:0000000000000370 .L0 
  src/../h/Riscv.hpp:99     .text:0000000000000370 .L0 
     /tmp/cc3nUUqy.s:799    .text:0000000000000378 .L0 
     /tmp/cc3nUUqy.s:800    .text:0000000000000378 .L0 
     /tmp/cc3nUUqy.s:805    .text:000000000000037c .L0 
     /tmp/cc3nUUqy.s:806    .text:000000000000037c .L0 
     /tmp/cc3nUUqy.s:810    .text:0000000000000380 .L0 
     /tmp/cc3nUUqy.s:820    .text:0000000000000388 .L0 
     /tmp/cc3nUUqy.s:832    .text:0000000000000390 .L0 
     /tmp/cc3nUUqy.s:846    .text:0000000000000398 .L0 
GAS LISTING /tmp/cc3nUUqy.s 			page 46


     /tmp/cc3nUUqy.s:862    .text:00000000000003a0 .L0 
     /tmp/cc3nUUqy.s:880    .text:00000000000003a8 .L0 
     /tmp/cc3nUUqy.s:900    .text:00000000000003b0 .L0 
     /tmp/cc3nUUqy.s:922    .text:00000000000003b8 .L0 
     /tmp/cc3nUUqy.s:946    .text:00000000000003c0 .L0 
     /tmp/cc3nUUqy.s:972    .text:00000000000003c8 .L0 
     /tmp/cc3nUUqy.s:976    .text:00000000000003d0 .L0 
     /tmp/cc3nUUqy.s:977    .text:00000000000003d0 .L0 
       src/Riscv.cpp:253    .text:00000000000003d0 .L0 
     /tmp/cc3nUUqy.s:984    .text:00000000000003d4 .L0 
     /tmp/cc3nUUqy.s:986    .text:00000000000003d4 .L0 
     /tmp/cc3nUUqy.s:988    .text:00000000000003d8 .L0 
     /tmp/cc3nUUqy.s:996    .text:00000000000003f0 .L0 
       src/Riscv.cpp:257    .text:00000000000003f0 .L0 
     /tmp/cc3nUUqy.s:1017   .text:00000000000003f8 .L0 
     /tmp/cc3nUUqy.s:1018   .text:00000000000003f8 .L0 
       src/Riscv.cpp:146    .text:00000000000003f8 .L0 
     /tmp/cc3nUUqy.s:1025   .text:00000000000003fc .L0 
     /tmp/cc3nUUqy.s:1026   .text:00000000000003fc .L0 
     /tmp/cc3nUUqy.s:1028   .text:00000000000003fc .L0 
     /tmp/cc3nUUqy.s:1033   .text:0000000000000408 .L0 
       src/Riscv.cpp:149    .text:0000000000000408 .L0 
     /tmp/cc3nUUqy.s:1046   .text:000000000000040c .L0 
     /tmp/cc3nUUqy.s:1047   .text:000000000000040c .L0 
  src/../h/Riscv.hpp:104    .text:000000000000040c .L0 
     /tmp/cc3nUUqy.s:1054   .text:0000000000000410 .L0 
     /tmp/cc3nUUqy.s:1063   .text:0000000000000414 .L0 
     /tmp/cc3nUUqy.s:1064   .text:0000000000000414 .L0 
       src/Riscv.cpp:154    .text:0000000000000414 .L0 
     /tmp/cc3nUUqy.s:1071   .text:0000000000000418 .L0 
     /tmp/cc3nUUqy.s:1073   .text:0000000000000418 .L0 
     /tmp/cc3nUUqy.s:1076   .text:0000000000000420 .L0 
       src/Riscv.cpp:156    .text:0000000000000420 .L0 
     /tmp/cc3nUUqy.s:1089   .text:0000000000000428 .L0 
     /tmp/cc3nUUqy.s:1090   .text:0000000000000428 .L0 
     /tmp/cc3nUUqy.s:1091   .text:0000000000000428 .L0 
     /tmp/cc3nUUqy.s:1092   .text:0000000000000428 .L0 
       src/Riscv.cpp:163    .text:0000000000000428 .L0 
     /tmp/cc3nUUqy.s:1099   .text:000000000000042c .L0 
       src/Riscv.cpp:164    .text:000000000000042c .L0 
     /tmp/cc3nUUqy.s:1105   .text:0000000000000430 .L0 
       src/Riscv.cpp:165    .text:0000000000000430 .L0 
     /tmp/cc3nUUqy.s:1111   .text:0000000000000434 .L0 
     /tmp/cc3nUUqy.s:1113   .text:0000000000000434 .L0 
     /tmp/cc3nUUqy.s:1127   .text:000000000000045c .L0 
     /tmp/cc3nUUqy.s:1128   .text:000000000000045c .L0 
     /tmp/cc3nUUqy.s:1130   .text:0000000000000460 .L0 
     /tmp/cc3nUUqy.s:1132   .text:0000000000000464 .L0 
       src/Riscv.cpp:177    .text:0000000000000464 .L0 
     /tmp/cc3nUUqy.s:1141   .text:000000000000046c .L0 
       src/Riscv.cpp:175    .text:000000000000046c .L0 
     /tmp/cc3nUUqy.s:1156   .text:0000000000000474 .L0 
     /tmp/cc3nUUqy.s:1157   .text:0000000000000474 .L0 
     /tmp/cc3nUUqy.s:1158   .text:0000000000000474 .L0 
  src/../h/Riscv.hpp:155    .text:0000000000000474 .L0 
     /tmp/cc3nUUqy.s:1167   .text:000000000000047c .L0 
     /tmp/cc3nUUqy.s:1168   .text:000000000000047c .L0 
GAS LISTING /tmp/cc3nUUqy.s 			page 47


     /tmp/cc3nUUqy.s:1173   .text:0000000000000480 .L0 
     /tmp/cc3nUUqy.s:1174   .text:0000000000000480 .L0 
     /tmp/cc3nUUqy.s:1178   .text:000000000000048c .L0 
     /tmp/cc3nUUqy.s:1179   .text:000000000000048c .L0 
     /tmp/cc3nUUqy.s:1184   .text:0000000000000494 .L0 
     /tmp/cc3nUUqy.s:1185   .text:0000000000000494 .L0 
  src/../h/Riscv.hpp:160    .text:0000000000000494 .L0 
     /tmp/cc3nUUqy.s:1192   .text:0000000000000498 .L0 
     /tmp/cc3nUUqy.s:1201   .text:000000000000049c .L0 
     /tmp/cc3nUUqy.s:1202   .text:000000000000049c .L0 
     /tmp/cc3nUUqy.s:1206   .text:00000000000004a8 .L0 
     /tmp/cc3nUUqy.s:1210   .text:00000000000004ac .L0 
     /tmp/cc3nUUqy.s:1211   .text:00000000000004ac .L0 
     /tmp/cc3nUUqy.s:1212   .text:00000000000004ac .L0 
  src/../h/Riscv.hpp:155    .text:00000000000004ac .L0 
     /tmp/cc3nUUqy.s:1220   .text:00000000000004b4 .L0 
     /tmp/cc3nUUqy.s:1221   .text:00000000000004b4 .L0 
     /tmp/cc3nUUqy.s:1226   .text:00000000000004b8 .L0 
     /tmp/cc3nUUqy.s:1227   .text:00000000000004b8 .L0 
     /tmp/cc3nUUqy.s:1230   .text:00000000000004c4 .L0 
     /tmp/cc3nUUqy.s:1231   .text:00000000000004c4 .L0 
     /tmp/cc3nUUqy.s:1237   .text:00000000000004d0 .L0 
     /tmp/cc3nUUqy.s:1238   .text:00000000000004d0 .L0 
     /tmp/cc3nUUqy.s:1244   .text:00000000000004d8 .L0 
     /tmp/cc3nUUqy.s:1245   .text:00000000000004d8 .L0 
     /tmp/cc3nUUqy.s:1250   .text:00000000000004e0 .L0 
     /tmp/cc3nUUqy.s:1251   .text:00000000000004e0 .L0 
  src/../h/Riscv.hpp:160    .text:00000000000004e0 .L0 
     /tmp/cc3nUUqy.s:1258   .text:00000000000004e4 .L0 
     /tmp/cc3nUUqy.s:1264   .text:00000000000004e8 .L0 
       src/Riscv.cpp:190    .text:00000000000004e8 .L0 
     /tmp/cc3nUUqy.s:1271   .text:00000000000004ec .L0 
     /tmp/cc3nUUqy.s:1278   .text:00000000000004f0 .L0 
     /tmp/cc3nUUqy.s:1279   .text:00000000000004f0 .L0 
       src/Riscv.cpp:202    .text:00000000000004f0 .L0 
     /tmp/cc3nUUqy.s:1289   .text:00000000000004f4 .L0 
     /tmp/cc3nUUqy.s:1290   .text:00000000000004f4 .L0 
     /tmp/cc3nUUqy.s:1291   .text:00000000000004f4 .L0 
  src/../h/Riscv.hpp:155    .text:00000000000004f4 .L0 
     /tmp/cc3nUUqy.s:1300   .text:00000000000004fc .L0 
     /tmp/cc3nUUqy.s:1301   .text:00000000000004fc .L0 
     /tmp/cc3nUUqy.s:1306   .text:0000000000000500 .L0 
     /tmp/cc3nUUqy.s:1307   .text:0000000000000500 .L0 
     /tmp/cc3nUUqy.s:1310   .text:000000000000050c .L0 
     /tmp/cc3nUUqy.s:1311   .text:000000000000050c .L0 
     /tmp/cc3nUUqy.s:1317   .text:0000000000000518 .L0 
     /tmp/cc3nUUqy.s:1318   .text:0000000000000518 .L0 
     /tmp/cc3nUUqy.s:1323   .text:000000000000051c .L0 
     /tmp/cc3nUUqy.s:1324   .text:000000000000051c .L0 
     /tmp/cc3nUUqy.s:1327   .text:0000000000000524 .L0 
     /tmp/cc3nUUqy.s:1328   .text:0000000000000524 .L0 
     /tmp/cc3nUUqy.s:1333   .text:000000000000052c .L0 
     /tmp/cc3nUUqy.s:1334   .text:000000000000052c .L0 
  src/../h/Riscv.hpp:160    .text:000000000000052c .L0 
     /tmp/cc3nUUqy.s:1344   .text:0000000000000530 .L0 
       src/Riscv.cpp:211    .text:0000000000000530 .L0 
     /tmp/cc3nUUqy.s:1357   .text:0000000000000538 .L0 
GAS LISTING /tmp/cc3nUUqy.s 			page 48


     /tmp/cc3nUUqy.s:1358   .text:0000000000000538 .L0 
     /tmp/cc3nUUqy.s:1359   .text:0000000000000538 .L0 
       src/Riscv.cpp:217    .text:0000000000000538 .L0 
     /tmp/cc3nUUqy.s:1366   .text:000000000000053c .L0 
       src/Riscv.cpp:218    .text:000000000000053c .L0 
     /tmp/cc3nUUqy.s:1372   .text:0000000000000540 .L0 
     /tmp/cc3nUUqy.s:1374   .text:0000000000000540 .L0 
     /tmp/cc3nUUqy.s:1386   .text:000000000000055c .L0 
     /tmp/cc3nUUqy.s:1387   .text:000000000000055c .L0 
     /tmp/cc3nUUqy.s:1389   .text:0000000000000560 .L0 
     /tmp/cc3nUUqy.s:1391   .text:0000000000000564 .L0 
       src/Riscv.cpp:227    .text:0000000000000564 .L0 
     /tmp/cc3nUUqy.s:1400   .text:000000000000056c .L0 
       src/Riscv.cpp:225    .text:000000000000056c .L0 
     /tmp/cc3nUUqy.s:1413   .text:0000000000000574 .L0 
     /tmp/cc3nUUqy.s:1414   .text:0000000000000574 .L0 
       src/Riscv.cpp:235    .text:0000000000000574 .L0 
     /tmp/cc3nUUqy.s:1422   .text:0000000000000578 .L0 
     /tmp/cc3nUUqy.s:1424   .text:0000000000000578 .L0 
     /tmp/cc3nUUqy.s:1427   .text:0000000000000580 .L0 
       src/Riscv.cpp:237    .text:0000000000000580 .L0 
     /tmp/cc3nUUqy.s:1440   .text:0000000000000588 .L0 
     /tmp/cc3nUUqy.s:1441   .text:0000000000000588 .L0 
       src/Riscv.cpp:244    .text:0000000000000588 .L0 
     /tmp/cc3nUUqy.s:1448   .text:000000000000058c .L0 
     /tmp/cc3nUUqy.s:1450   .text:000000000000058c .L0 
     /tmp/cc3nUUqy.s:1454   .text:0000000000000594 .L0 
       src/Riscv.cpp:246    .text:0000000000000594 .L0 
     /tmp/cc3nUUqy.s:1474   .text:00000000000005a0 .L0 
     /tmp/cc3nUUqy.s:1492   .text:00000000000005bc .L0 
     /tmp/cc3nUUqy.s:1510   .text:00000000000005d4 .L0 
     /tmp/cc3nUUqy.s:1550   .rodata:0000000000000000 .LANCHOR0
     /tmp/cc3nUUqy.s:1553   .rodata:0000000000000000 _ZZN5Riscv12printIntegerEmE6digits
     /tmp/cc3nUUqy.s:1565   .text:00000000000005d4 .L0 
     /tmp/cc3nUUqy.s:30     .text:0000000000000018 .L0 
     /tmp/cc3nUUqy.s:71     .text:0000000000000058 .L0 
     /tmp/cc3nUUqy.s:465    .text:00000000000001dc .L0 
     /tmp/cc3nUUqy.s:541    .rodata.str1.8:0000000000000000 .LC0
     /tmp/cc3nUUqy.s:627    .text:00000000000002b8 .L0 
     /tmp/cc3nUUqy.s:633    .text:00000000000002c8 .L0 
     /tmp/cc3nUUqy.s:644    .text:00000000000002e4 .L0 
     /tmp/cc3nUUqy.s:698    .text:0000000000000314 .L0 
     /tmp/cc3nUUqy.s:1174   .text:0000000000000480 .L0 
     /tmp/cc3nUUqy.s:1202   .text:000000000000049c .L0 
     /tmp/cc3nUUqy.s:1227   .text:00000000000004b8 .L0 
     /tmp/cc3nUUqy.s:1231   .text:00000000000004c4 .L0 
     /tmp/cc3nUUqy.s:1307   .text:0000000000000500 .L0 
     /tmp/cc3nUUqy.s:1311   .text:000000000000050c .L0 
     /tmp/cc3nUUqy.s:351    .text:0000000000000170 .L15
     /tmp/cc3nUUqy.s:332    .text:0000000000000158 .L16
     /tmp/cc3nUUqy.s:455    .text:00000000000001cc .L19
     /tmp/cc3nUUqy.s:497    .text:000000000000022c .L20
     /tmp/cc3nUUqy.s:483    .text:000000000000020c .L21
     /tmp/cc3nUUqy.s:730    .text:0000000000000334 .L47
     /tmp/cc3nUUqy.s:740    .text:000000000000033c .L26
     /tmp/cc3nUUqy.s:770    .text:000000000000036c .L48
     /tmp/cc3nUUqy.s:1005   .text:00000000000003f8 .L49
GAS LISTING /tmp/cc3nUUqy.s 			page 49


     /tmp/cc3nUUqy.s:1056   .text:0000000000000414 .L50
     /tmp/cc3nUUqy.s:1085   .text:0000000000000428 .L51
     /tmp/cc3nUUqy.s:1149   .text:0000000000000474 .L52
     /tmp/cc3nUUqy.s:1194   .text:000000000000049c .L53
     /tmp/cc3nUUqy.s:1273   .text:00000000000004f0 .L54
     /tmp/cc3nUUqy.s:1353   .text:0000000000000538 .L55
     /tmp/cc3nUUqy.s:1408   .text:0000000000000574 .L56
     /tmp/cc3nUUqy.s:1436   .text:0000000000000588 .L57
     /tmp/cc3nUUqy.s:1040   .text:000000000000040c .L28
     /tmp/cc3nUUqy.s:994    .text:00000000000003f0 .L41
     /tmp/cc3nUUqy.s:746    .text:0000000000000344 .L23
     /tmp/cc3nUUqy.s:1139   .text:000000000000046c .L58
     /tmp/cc3nUUqy.s:1260   .text:00000000000004e8 .L59
     /tmp/cc3nUUqy.s:1398   .text:000000000000056c .L60
     /tmp/cc3nUUqy.s:48     .text:0000000000000028 .LEHB0
     /tmp/cc3nUUqy.s:10     .text:0000000000000000 .LFB21
     /tmp/cc3nUUqy.s:51     .text:0000000000000030 .LEHE0
     /tmp/cc3nUUqy.s:55     .text:000000000000003c .LEHB1
     /tmp/cc3nUUqy.s:58     .text:0000000000000044 .LEHE1
     /tmp/cc3nUUqy.s:100    .text:0000000000000084 .L3
     /tmp/cc3nUUqy.s:62     .text:0000000000000048 .LEHB2
     /tmp/cc3nUUqy.s:69     .text:0000000000000058 .LEHE2
     /tmp/cc3nUUqy.s:108    .text:0000000000000098 .LEHB3
     /tmp/cc3nUUqy.s:111    .text:00000000000000a0 .LEHE3
     /tmp/cc3nUUqy.s:628    .text:00000000000002c0 .LEHB4
     /tmp/cc3nUUqy.s:548    .text:0000000000000260 .LFB28
     /tmp/cc3nUUqy.s:1116   .text:0000000000000440 .LEHE4
     /tmp/cc3nUUqy.s:1122   .text:0000000000000454 .LEHB5
     /tmp/cc3nUUqy.s:1125   .text:000000000000045c .LEHE5
     /tmp/cc3nUUqy.s:1463   .text:000000000000059c .L44
     /tmp/cc3nUUqy.s:1177   .text:000000000000048c .LEHB6
     /tmp/cc3nUUqy.s:1377   .text:000000000000054c .LEHE6
     /tmp/cc3nUUqy.s:1381   .text:0000000000000554 .LEHB7
     /tmp/cc3nUUqy.s:1384   .text:000000000000055c .LEHE7
     /tmp/cc3nUUqy.s:1482   .text:00000000000005b8 .L45
     /tmp/cc3nUUqy.s:1421   .text:0000000000000578 .LEHB8
     /tmp/cc3nUUqy.s:1452   .text:0000000000000594 .LEHE8
     /tmp/cc3nUUqy.s:1478   .text:00000000000005b0 .LEHB9
     /tmp/cc3nUUqy.s:1481   .text:00000000000005b8 .LEHE9
     /tmp/cc3nUUqy.s:1496   .text:00000000000005cc .LEHB10
     /tmp/cc3nUUqy.s:1499   .text:00000000000005d4 .LEHE10
     /tmp/cc3nUUqy.s:4254   .debug_abbrev:0000000000000000 .Ldebug_abbrev0
     /tmp/cc3nUUqy.s:6318   .debug_str:000000000000077a .LASF235
     /tmp/cc3nUUqy.s:6160   .debug_str:00000000000002dd .LASF236
     /tmp/cc3nUUqy.s:6468   .debug_str:0000000000000bf8 .LASF237
     /tmp/cc3nUUqy.s:5      .text:0000000000000000 .Ltext0
     /tmp/cc3nUUqy.s:1556   .text:00000000000005d4 .Letext0
     /tmp/cc3nUUqy.s:6070   .debug_line:0000000000000000 .Ldebug_line0
     /tmp/cc3nUUqy.s:6250   .debug_str:0000000000000577 .LASF0
     /tmp/cc3nUUqy.s:6378   .debug_str:00000000000009a5 .LASF3
     /tmp/cc3nUUqy.s:6284   .debug_str:0000000000000665 .LASF1
     /tmp/cc3nUUqy.s:6386   .debug_str:00000000000009c5 .LASF2
     /tmp/cc3nUUqy.s:6402   .debug_str:0000000000000a49 .LASF4
     /tmp/cc3nUUqy.s:6268   .debug_str:00000000000005e8 .LASF5
     /tmp/cc3nUUqy.s:6090   .debug_str:0000000000000086 .LASF6
     /tmp/cc3nUUqy.s:6362   .debug_str:0000000000000940 .LASF7
     /tmp/cc3nUUqy.s:6352   .debug_str:00000000000008fe .LASF8
GAS LISTING /tmp/cc3nUUqy.s 			page 50


     /tmp/cc3nUUqy.s:6274   .debug_str:000000000000062c .LASF9
     /tmp/cc3nUUqy.s:6224   .debug_str:00000000000004a9 .LASF10
     /tmp/cc3nUUqy.s:6232   .debug_str:00000000000004f9 .LASF11
     /tmp/cc3nUUqy.s:6148   .debug_str:0000000000000299 .LASF12
     /tmp/cc3nUUqy.s:6212   .debug_str:000000000000045f .LASF13
     /tmp/cc3nUUqy.s:6162   .debug_str:00000000000002eb .LASF14
     /tmp/cc3nUUqy.s:6146   .debug_str:0000000000000289 .LASF15
     /tmp/cc3nUUqy.s:6438   .debug_str:0000000000000b56 .LASF16
     /tmp/cc3nUUqy.s:6196   .debug_str:00000000000003cc .LASF17
     /tmp/cc3nUUqy.s:6426   .debug_str:0000000000000af9 .LASF18
     /tmp/cc3nUUqy.s:6500   .debug_str:0000000000000cbb .LASF91
     /tmp/cc3nUUqy.s:6374   .debug_str:000000000000098f .LASF22
     /tmp/cc3nUUqy.s:6292   .debug_str:000000000000069a .LASF19
     /tmp/cc3nUUqy.s:6202   .debug_str:0000000000000416 .LASF20
     /tmp/cc3nUUqy.s:6518   .debug_str:0000000000000d20 .LASF21
     /tmp/cc3nUUqy.s:6490   .debug_str:0000000000000c85 .LASF23
     /tmp/cc3nUUqy.s:6204   .debug_str:000000000000041f .LASF24
     /tmp/cc3nUUqy.s:6456   .debug_str:0000000000000ba2 .LASF25
     /tmp/cc3nUUqy.s:6178   .debug_str:000000000000035d .LASF26
     /tmp/cc3nUUqy.s:6324   .debug_str:0000000000000836 .LASF27
     /tmp/cc3nUUqy.s:6312   .debug_str:000000000000073c .LASF29
     /tmp/cc3nUUqy.s:6194   .debug_str:00000000000003c2 .LASF28
     /tmp/cc3nUUqy.s:6084   .debug_str:0000000000000060 .LASF30
     /tmp/cc3nUUqy.s:6144   .debug_str:0000000000000278 .LASF31
     /tmp/cc3nUUqy.s:6296   .debug_str:00000000000006a8 .LASF32
     /tmp/cc3nUUqy.s:6264   .debug_str:00000000000005c9 .LASF33
     /tmp/cc3nUUqy.s:6168   .debug_str:000000000000031e .LASF34
     /tmp/cc3nUUqy.s:6528   .debug_str:0000000000000d5b .LASF35
     /tmp/cc3nUUqy.s:6106   .debug_str:0000000000000127 .LASF37
     /tmp/cc3nUUqy.s:6360   .debug_str:0000000000000933 .LASF36
     /tmp/cc3nUUqy.s:6112   .debug_str:0000000000000155 .LASF38
     /tmp/cc3nUUqy.s:6412   .debug_str:0000000000000a95 .LASF39
     /tmp/cc3nUUqy.s:6200   .debug_str:00000000000003fb .LASF40
     /tmp/cc3nUUqy.s:6256   .debug_str:0000000000000599 .LASF41
     /tmp/cc3nUUqy.s:6512   .debug_str:0000000000000cf1 .LASF42
     /tmp/cc3nUUqy.s:6484   .debug_str:0000000000000c72 .LASF45
     /tmp/cc3nUUqy.s:6476   .debug_str:0000000000000c30 .LASF47
     /tmp/cc3nUUqy.s:6382   .debug_str:00000000000009b1 .LASF43
     /tmp/cc3nUUqy.s:6338   .debug_str:0000000000000894 .LASF44
     /tmp/cc3nUUqy.s:6368   .debug_str:0000000000000961 .LASF46
     /tmp/cc3nUUqy.s:6370   .debug_str:0000000000000968 .LASF48
     /tmp/cc3nUUqy.s:6334   .debug_str:0000000000000879 .LASF49
     /tmp/cc3nUUqy.s:6276   .debug_str:000000000000063f .LASF50
     /tmp/cc3nUUqy.s:6514   .debug_str:0000000000000d0b .LASF51
     /tmp/cc3nUUqy.s:6464   .debug_str:0000000000000bda .LASF52
     /tmp/cc3nUUqy.s:6332   .debug_str:0000000000000871 .LASF53
     /tmp/cc3nUUqy.s:6336   .debug_str:0000000000000880 .LASF54
     /tmp/cc3nUUqy.s:6320   .debug_str:000000000000081c .LASF55
     /tmp/cc3nUUqy.s:6372   .debug_str:000000000000097b .LASF56
     /tmp/cc3nUUqy.s:6558   .debug_str:0000000000000e33 .LASF57
     /tmp/cc3nUUqy.s:6260   .debug_str:00000000000005ac .LASF58
     /tmp/cc3nUUqy.s:6434   .debug_str:0000000000000b48 .LASF59
     /tmp/cc3nUUqy.s:6406   .debug_str:0000000000000a73 .LASF60
     /tmp/cc3nUUqy.s:6408   .debug_str:0000000000000a86 .LASF61
     /tmp/cc3nUUqy.s:6154   .debug_str:00000000000002b6 .LASF62
     /tmp/cc3nUUqy.s:6190   .debug_str:00000000000003aa .LASF63
     /tmp/cc3nUUqy.s:6244   .debug_str:0000000000000547 .LASF64
GAS LISTING /tmp/cc3nUUqy.s 			page 51


     /tmp/cc3nUUqy.s:6258   .debug_str:00000000000005a6 .LASF65
     /tmp/cc3nUUqy.s:6182   .debug_str:000000000000037c .LASF66
     /tmp/cc3nUUqy.s:6092   .debug_str:000000000000008d .LASF67
     /tmp/cc3nUUqy.s:6392   .debug_str:00000000000009eb .LASF68
     /tmp/cc3nUUqy.s:6384   .debug_str:00000000000009ba .LASF69
     /tmp/cc3nUUqy.s:6546   .debug_str:0000000000000dd4 .LASF70
     /tmp/cc3nUUqy.s:6502   .debug_str:0000000000000cc1 .LASF71
     /tmp/cc3nUUqy.s:6524   .debug_str:0000000000000d3e .LASF72
     /tmp/cc3nUUqy.s:6496   .debug_str:0000000000000cac .LASF73
     /tmp/cc3nUUqy.s:6314   .debug_str:0000000000000754 .LASF74
     /tmp/cc3nUUqy.s:6238   .debug_str:0000000000000521 .LASF75
     /tmp/cc3nUUqy.s:6246   .debug_str:0000000000000559 .LASF76
     /tmp/cc3nUUqy.s:6482   .debug_str:0000000000000c63 .LASF77
     /tmp/cc3nUUqy.s:6230   .debug_str:00000000000004dd .LASF78
     /tmp/cc3nUUqy.s:6358   .debug_str:000000000000091e .LASF79
     /tmp/cc3nUUqy.s:6272   .debug_str:000000000000060a .LASF80
     /tmp/cc3nUUqy.s:6380   .debug_str:00000000000009aa .LASF81
     /tmp/cc3nUUqy.s:6088   .debug_str:000000000000007e .LASF82
     /tmp/cc3nUUqy.s:6126   .debug_str:00000000000001e3 .LASF83
     /tmp/cc3nUUqy.s:6480   .debug_str:0000000000000c57 .LASF84
     /tmp/cc3nUUqy.s:6128   .debug_str:00000000000001f2 .LASF85
     /tmp/cc3nUUqy.s:6322   .debug_str:0000000000000824 .LASF86
     /tmp/cc3nUUqy.s:6234   .debug_str:0000000000000507 .LASF87
     /tmp/cc3nUUqy.s:6494   .debug_str:0000000000000c99 .LASF88
     /tmp/cc3nUUqy.s:6142   .debug_str:0000000000000264 .LASF89
     /tmp/cc3nUUqy.s:6450   .debug_str:0000000000000b8f .LASF90
     /tmp/cc3nUUqy.s:6470   .debug_str:0000000000000c1b .LASF92
     /tmp/cc3nUUqy.s:6486   .debug_str:0000000000000c7b .LASF95
     /tmp/cc3nUUqy.s:6278   .debug_str:0000000000000652 .LASF93
     /tmp/cc3nUUqy.s:6150   .debug_str:00000000000002a8 .LASF94
     /tmp/cc3nUUqy.s:6448   .debug_str:0000000000000b89 .LASF96
     /tmp/cc3nUUqy.s:6294   .debug_str:00000000000006a3 .LASF97
     /tmp/cc3nUUqy.s:6532   .debug_str:0000000000000d72 .LASF116
     /tmp/cc3nUUqy.s:6108   .debug_str:0000000000000142 .LASF99
     /tmp/cc3nUUqy.s:6166   .debug_str:000000000000030c .LASF101
     /tmp/cc3nUUqy.s:6254   .debug_str:0000000000000594 .LASF98
     /tmp/cc3nUUqy.s:6420   .debug_str:0000000000000ace .LASF103
     /tmp/cc3nUUqy.s:6282   .debug_str:0000000000000660 .LASF100
     /tmp/cc3nUUqy.s:6304   .debug_str:0000000000000700 .LASF102
     /tmp/cc3nUUqy.s:6188   .debug_str:000000000000039c .LASF104
     /tmp/cc3nUUqy.s:6526   .debug_str:0000000000000d54 .LASF105
     /tmp/cc3nUUqy.s:6122   .debug_str:00000000000001cb .LASF106
     /tmp/cc3nUUqy.s:6452   .debug_str:0000000000000b94 .LASF107
     /tmp/cc3nUUqy.s:6140   .debug_str:000000000000025e .LASF108
     /tmp/cc3nUUqy.s:6422   .debug_str:0000000000000ae3 .LASF109
     /tmp/cc3nUUqy.s:6156   .debug_str:00000000000002c9 .LASF110
     /tmp/cc3nUUqy.s:6130   .debug_str:0000000000000205 .LASF111
     /tmp/cc3nUUqy.s:6354   .debug_str:0000000000000911 .LASF112
     /tmp/cc3nUUqy.s:6280   .debug_str:0000000000000657 .LASF113
     /tmp/cc3nUUqy.s:6446   .debug_str:0000000000000b81 .LASF114
     /tmp/cc3nUUqy.s:6240   .debug_str:000000000000052c .LASF115
     /tmp/cc3nUUqy.s:6328   .debug_str:0000000000000850 .LASF117
     /tmp/cc3nUUqy.s:6342   .debug_str:00000000000008b0 .LASF238
     /tmp/cc3nUUqy.s:6504   .debug_str:0000000000000ccb .LASF118
     /tmp/cc3nUUqy.s:6544   .debug_str:0000000000000dc8 .LASF119
     /tmp/cc3nUUqy.s:6538   .debug_str:0000000000000da7 .LASF120
     /tmp/cc3nUUqy.s:6462   .debug_str:0000000000000bca .LASF121
GAS LISTING /tmp/cc3nUUqy.s 			page 52


     /tmp/cc3nUUqy.s:6184   .debug_str:000000000000038e .LASF122
     /tmp/cc3nUUqy.s:6104   .debug_str:0000000000000114 .LASF123
     /tmp/cc3nUUqy.s:6288   .debug_str:0000000000000681 .LASF124
     /tmp/cc3nUUqy.s:6346   .debug_str:00000000000008c8 .LASF125
     /tmp/cc3nUUqy.s:6454   .debug_str:0000000000000b9a .LASF126
     /tmp/cc3nUUqy.s:6506   .debug_str:0000000000000cd0 .LASF127
     /tmp/cc3nUUqy.s:6414   .debug_str:0000000000000aa3 .LASF128
     /tmp/cc3nUUqy.s:6310   .debug_str:000000000000072f .LASF129
     /tmp/cc3nUUqy.s:6298   .debug_str:00000000000006c6 .LASF130
     /tmp/cc3nUUqy.s:6550   .debug_str:0000000000000dfc .LASF131
     /tmp/cc3nUUqy.s:6216   .debug_str:0000000000000476 .LASF132
     /tmp/cc3nUUqy.s:6252   .debug_str:0000000000000584 .LASF133
     /tmp/cc3nUUqy.s:6266   .debug_str:00000000000005db .LASF134
     /tmp/cc3nUUqy.s:6418   .debug_str:0000000000000ac5 .LASF135
     /tmp/cc3nUUqy.s:6180   .debug_str:0000000000000369 .LASF136
     /tmp/cc3nUUqy.s:6396   .debug_str:0000000000000a0f .LASF137
     /tmp/cc3nUUqy.s:6432   .debug_str:0000000000000b2c .LASF138
     /tmp/cc3nUUqy.s:6326   .debug_str:0000000000000841 .LASF139
     /tmp/cc3nUUqy.s:6078   .debug_str:0000000000000029 .LASF140
     /tmp/cc3nUUqy.s:6522   .debug_str:0000000000000d2f .LASF141
     /tmp/cc3nUUqy.s:6350   .debug_str:00000000000008e4 .LASF142
     /tmp/cc3nUUqy.s:6424   .debug_str:0000000000000aeb .LASF143
     /tmp/cc3nUUqy.s:6366   .debug_str:0000000000000955 .LASF144
     /tmp/cc3nUUqy.s:6074   .debug_str:000000000000000d .LASF145
     /tmp/cc3nUUqy.s:6530   .debug_str:0000000000000d67 .LASF146
     /tmp/cc3nUUqy.s:6410   .debug_str:0000000000000a8d .LASF175
     /tmp/cc3nUUqy.s:6466   .debug_str:0000000000000bee .LASF147
     /tmp/cc3nUUqy.s:6348   .debug_str:00000000000008d8 .LASF148
     /tmp/cc3nUUqy.s:6172   .debug_str:0000000000000343 .LASF149
     /tmp/cc3nUUqy.s:6118   .debug_str:000000000000019c .LASF151
     /tmp/cc3nUUqy.s:6116   .debug_str:0000000000000187 .LASF150
     /tmp/cc3nUUqy.s:6138   .debug_str:0000000000000232 .LASF152
     /tmp/cc3nUUqy.s:6554   .debug_str:0000000000000e14 .LASF239
     /tmp/cc3nUUqy.s:6136   .debug_str:0000000000000221 .LASF240
     /tmp/cc3nUUqy.s:6082   .debug_str:000000000000005b .LASF153
     /tmp/cc3nUUqy.s:6444   .debug_str:0000000000000b7c .LASF154
     /tmp/cc3nUUqy.s:6302   .debug_str:00000000000006f8 .LASF155
     /tmp/cc3nUUqy.s:6170   .debug_str:000000000000033d .LASF156
     /tmp/cc3nUUqy.s:6474   .debug_str:0000000000000c28 .LASF157
     /tmp/cc3nUUqy.s:6124   .debug_str:00000000000001d9 .LASF158
     /tmp/cc3nUUqy.s:6222   .debug_str:000000000000049f .LASF159
     /tmp/cc3nUUqy.s:6096   .debug_str:00000000000000ac .LASF241
     /tmp/cc3nUUqy.s:6540   .debug_str:0000000000000dad .LASF242
     /tmp/cc3nUUqy.s:6478   .debug_str:0000000000000c45 .LASF160
     /tmp/cc3nUUqy.s:6344   .debug_str:00000000000008b5 .LASF161
     /tmp/cc3nUUqy.s:6458   .debug_str:0000000000000baf .LASF162
     /tmp/cc3nUUqy.s:6080   .debug_str:0000000000000043 .LASF163
     /tmp/cc3nUUqy.s:6416   .debug_str:0000000000000ab4 .LASF164
     /tmp/cc3nUUqy.s:6164   .debug_str:00000000000002fb .LASF165
     /tmp/cc3nUUqy.s:6098   .debug_str:00000000000000c4 .LASF166
     /tmp/cc3nUUqy.s:6376   .debug_str:000000000000099a .LASF167
     /tmp/cc3nUUqy.s:6228   .debug_str:00000000000004c9 .LASF168
     /tmp/cc3nUUqy.s:6390   .debug_str:00000000000009df .LASF169
     /tmp/cc3nUUqy.s:6094   .debug_str:0000000000000098 .LASF170
     /tmp/cc3nUUqy.s:6186   .debug_str:0000000000000397 .LASF171
     /tmp/cc3nUUqy.s:6220   .debug_str:0000000000000488 .LASF172
     /tmp/cc3nUUqy.s:6442   .debug_str:0000000000000b75 .LASF173
GAS LISTING /tmp/cc3nUUqy.s 			page 53


     /tmp/cc3nUUqy.s:6198   .debug_str:00000000000003e2 .LASF174
     /tmp/cc3nUUqy.s:6076   .debug_str:000000000000001d .LASF176
     /tmp/cc3nUUqy.s:6394   .debug_str:0000000000000a03 .LASF177
     /tmp/cc3nUUqy.s:6308   .debug_str:000000000000071b .LASF178
     /tmp/cc3nUUqy.s:6242   .debug_str:0000000000000532 .LASF179
     /tmp/cc3nUUqy.s:6152   .debug_str:00000000000002ad .LASF180
     /tmp/cc3nUUqy.s:6158   .debug_str:00000000000002d3 .LASF181
     /tmp/cc3nUUqy.s:6330   .debug_str:0000000000000868 .LASF182
     /tmp/cc3nUUqy.s:6400   .debug_str:0000000000000a3e .LASF183
     /tmp/cc3nUUqy.s:6286   .debug_str:0000000000000678 .LASF184
     /tmp/cc3nUUqy.s:6248   .debug_str:0000000000000571 .LASF185
     /tmp/cc3nUUqy.s:6556   .debug_str:0000000000000e1b .LASF186
     /tmp/cc3nUUqy.s:6086   .debug_str:0000000000000076 .LASF187
     /tmp/cc3nUUqy.s:6300   .debug_str:00000000000006de .LASF188
     /tmp/cc3nUUqy.s:6548   .debug_str:0000000000000dec .LASF189
     /tmp/cc3nUUqy.s:6404   .debug_str:0000000000000a50 .LASF190
     /tmp/cc3nUUqy.s:6440   .debug_str:0000000000000b62 .LASF191
     /tmp/cc3nUUqy.s:6398   .debug_str:0000000000000a18 .LASF192
     /tmp/cc3nUUqy.s:6072   .debug_str:0000000000000000 .LASF193
     /tmp/cc3nUUqy.s:6102   .debug_str:00000000000000f0 .LASF194
     /tmp/cc3nUUqy.s:6236   .debug_str:000000000000051a .LASF195
     /tmp/cc3nUUqy.s:6562   .debug_str:0000000000000e4a .LASF196
     /tmp/cc3nUUqy.s:6290   .debug_str:0000000000000687 .LASF197
     /tmp/cc3nUUqy.s:6534   .debug_str:0000000000000d82 .LASF198
     /tmp/cc3nUUqy.s:6460   .debug_str:0000000000000bb7 .LASF199
     /tmp/cc3nUUqy.s:6262   .debug_str:00000000000005c0 .LASF200
     /tmp/cc3nUUqy.s:6560   .debug_str:0000000000000e3b .LASF201
     /tmp/cc3nUUqy.s:6428   .debug_str:0000000000000b0f .LASF243
     /tmp/cc3nUUqy.s:6516   .debug_str:0000000000000d13 .LASF202
     /tmp/cc3nUUqy.s:6316   .debug_str:000000000000076a .LASF203
     /tmp/cc3nUUqy.s:6192   .debug_str:00000000000003b0 .LASF204
     /tmp/cc3nUUqy.s:6206   .debug_str:000000000000042b .LASF205
     /tmp/cc3nUUqy.s:6132   .debug_str:000000000000020e .LASF206
     /tmp/cc3nUUqy.s:6100   .debug_str:00000000000000cd .LASF207
     /tmp/cc3nUUqy.s:1511   .text:00000000000005d4 .LFE28
     /tmp/cc3nUUqy.s:5483   .debug_loc:0000000000000000 .LLST15
     /tmp/cc3nUUqy.s:6430   .debug_str:0000000000000b25 .LASF208
     /tmp/cc3nUUqy.s:5522   .debug_loc:00000000000000bb .LLST16
     /tmp/cc3nUUqy.s:6032   .debug_ranges:0000000000000000 .Ldebug_ranges0
     /tmp/cc3nUUqy.s:6306   .debug_str:0000000000000711 .LASF209
     /tmp/cc3nUUqy.s:5537   .debug_loc:0000000000000104 .LLST17
     /tmp/cc3nUUqy.s:6488   .debug_str:0000000000000c80 .LASF210
     /tmp/cc3nUUqy.s:5580   .debug_loc:00000000000001d2 .LLST18
     /tmp/cc3nUUqy.s:659    .text:00000000000002fc .LBB109
     /tmp/cc3nUUqy.s:733    .text:0000000000000334 .LBE109
     /tmp/cc3nUUqy.s:5595   .debug_loc:000000000000021b .LLST21
     /tmp/cc3nUUqy.s:6508   .debug_str:0000000000000cdb .LASF211
     /tmp/cc3nUUqy.s:5602   .debug_loc:000000000000023e .LLST22
     /tmp/cc3nUUqy.s:661    .text:00000000000002fc .LBB110
     /tmp/cc3nUUqy.s:677    .text:0000000000000308 .LBE110
     /tmp/cc3nUUqy.s:679    .text:0000000000000308 .LBB112
     /tmp/cc3nUUqy.s:695    .text:0000000000000314 .LBE112
     /tmp/cc3nUUqy.s:705    .text:0000000000000328 .LBB114
     /tmp/cc3nUUqy.s:716    .text:000000000000032c .LBE114
     /tmp/cc3nUUqy.s:5609   .debug_loc:0000000000000261 .LLST23
     /tmp/cc3nUUqy.s:718    .text:000000000000032c .LBB116
     /tmp/cc3nUUqy.s:732    .text:0000000000000334 .LBE116
GAS LISTING /tmp/cc3nUUqy.s 			page 54


     /tmp/cc3nUUqy.s:5616   .debug_loc:0000000000000284 .LLST24
     /tmp/cc3nUUqy.s:703    .text:0000000000000328 .LVL50
     /tmp/cc3nUUqy.s:1015   .text:00000000000003f8 .LBB204
     /tmp/cc3nUUqy.s:1041   .text:000000000000040c .LBE204
     /tmp/cc3nUUqy.s:5623   .debug_loc:00000000000002a7 .LLST50
     /tmp/cc3nUUqy.s:6510   .debug_str:0000000000000ce3 .LASF212
     /tmp/cc3nUUqy.s:5638   .debug_loc:00000000000002e1 .LLST51
     /tmp/cc3nUUqy.s:1031   .text:0000000000000408 .LVL66
     /tmp/cc3nUUqy.s:1061   .text:0000000000000414 .LBB194
     /tmp/cc3nUUqy.s:1082   .text:0000000000000424 .LBE194
     /tmp/cc3nUUqy.s:6134   .debug_str:000000000000021c .LASF213
     /tmp/cc3nUUqy.s:5645   .debug_loc:0000000000000304 .LLST48
     /tmp/cc3nUUqy.s:6120   .debug_str:00000000000001c4 .LASF214
     /tmp/cc3nUUqy.s:5657   .debug_loc:000000000000033b .LLST49
     /tmp/cc3nUUqy.s:1074   .text:0000000000000420 .LVL70
     /tmp/cc3nUUqy.s:6364   .debug_str:0000000000000947 .LASF215
     /tmp/cc3nUUqy.s:5664   .debug_loc:000000000000035e .LLST44
     /tmp/cc3nUUqy.s:5675   .debug_loc:0000000000000394 .LLST45
     /tmp/cc3nUUqy.s:6110   .debug_str:0000000000000148 .LASF216
     /tmp/cc3nUUqy.s:5686   .debug_loc:00000000000003ca .LLST46
     /tmp/cc3nUUqy.s:6210   .debug_str:0000000000000458 .LASF217
     /tmp/cc3nUUqy.s:5697   .debug_loc:0000000000000400 .LLST47
     /tmp/cc3nUUqy.s:1115   .text:0000000000000440 .LVL75
     /tmp/cc3nUUqy.s:1124   .text:000000000000045c .LVL76
     /tmp/cc3nUUqy.s:1476   .text:00000000000005ac .LVL111
     /tmp/cc3nUUqy.s:1152   .text:0000000000000474 .LBB170
     /tmp/cc3nUUqy.s:1197   .text:000000000000049c .LBE170
     /tmp/cc3nUUqy.s:5704   .debug_loc:0000000000000423 .LLST42
     /tmp/cc3nUUqy.s:1154   .text:0000000000000474 .LBB171
     /tmp/cc3nUUqy.s:1171   .text:0000000000000480 .LBE171
     /tmp/cc3nUUqy.s:1182   .text:0000000000000494 .LBB173
     /tmp/cc3nUUqy.s:1196   .text:000000000000049c .LBE173
     /tmp/cc3nUUqy.s:5711   .debug_loc:0000000000000446 .LLST43
     /tmp/cc3nUUqy.s:1180   .text:0000000000000494 .LVL80
     /tmp/cc3nUUqy.s:1199   .text:000000000000049c .LBB156
     /tmp/cc3nUUqy.s:1274   .text:00000000000004f0 .LBE156
     /tmp/cc3nUUqy.s:5718   .debug_loc:0000000000000469 .LLST38
     /tmp/cc3nUUqy.s:1208   .text:00000000000004ac .LBB157
     /tmp/cc3nUUqy.s:1224   .text:00000000000004b8 .LBE157
     /tmp/cc3nUUqy.s:1234   .text:00000000000004d0 .LBB159
     /tmp/cc3nUUqy.s:1242   .text:00000000000004d8 .LBE159
     /tmp/cc3nUUqy.s:5725   .debug_loc:000000000000048c .LLST39
     /tmp/cc3nUUqy.s:5733   .debug_loc:00000000000004b0 .LLST40
     /tmp/cc3nUUqy.s:1248   .text:00000000000004e0 .LBB161
     /tmp/cc3nUUqy.s:1262   .text:00000000000004e8 .LBE161
     /tmp/cc3nUUqy.s:5740   .debug_loc:00000000000004d3 .LLST41
     /tmp/cc3nUUqy.s:1246   .text:00000000000004e0 .LVL86
     /tmp/cc3nUUqy.s:1276   .text:00000000000004f0 .LBB143
     /tmp/cc3nUUqy.s:1350   .text:0000000000000534 .LBE143
     /tmp/cc3nUUqy.s:6356   .debug_str:0000000000000919 .LASF218
     /tmp/cc3nUUqy.s:5747   .debug_loc:00000000000004f6 .LLST33
     /tmp/cc3nUUqy.s:5754   .debug_loc:0000000000000519 .LLST34
     /tmp/cc3nUUqy.s:1287   .text:00000000000004f4 .LBB144
     /tmp/cc3nUUqy.s:1304   .text:0000000000000500 .LBE144
     /tmp/cc3nUUqy.s:1314   .text:0000000000000518 .LBB146
     /tmp/cc3nUUqy.s:1321   .text:000000000000051c .LBE146
     /tmp/cc3nUUqy.s:5761   .debug_loc:000000000000053c .LLST35
GAS LISTING /tmp/cc3nUUqy.s 			page 55


     /tmp/cc3nUUqy.s:5768   .debug_loc:000000000000055f .LLST36
     /tmp/cc3nUUqy.s:1331   .text:000000000000052c .LBB148
     /tmp/cc3nUUqy.s:1342   .text:0000000000000530 .LBE148
     /tmp/cc3nUUqy.s:5775   .debug_loc:0000000000000582 .LLST37
     /tmp/cc3nUUqy.s:1325   .text:0000000000000524 .LVL94
     /tmp/cc3nUUqy.s:1329   .text:000000000000052c .LVL95
     /tmp/cc3nUUqy.s:5782   .debug_loc:00000000000005a5 .LLST30
     /tmp/cc3nUUqy.s:6270   .debug_str:00000000000005fa .LASF219
     /tmp/cc3nUUqy.s:5793   .debug_loc:00000000000005db .LLST31
     /tmp/cc3nUUqy.s:6542   .debug_str:0000000000000dc1 .LASF220
     /tmp/cc3nUUqy.s:5804   .debug_loc:0000000000000611 .LLST32
     /tmp/cc3nUUqy.s:1376   .text:000000000000054c .LVL100
     /tmp/cc3nUUqy.s:1383   .text:000000000000055c .LVL102
     /tmp/cc3nUUqy.s:1494   .text:00000000000005c8 .LVL114
     /tmp/cc3nUUqy.s:1411   .text:0000000000000574 .LBB133
     /tmp/cc3nUUqy.s:1433   .text:0000000000000584 .LBE133
     /tmp/cc3nUUqy.s:6498   .debug_str:0000000000000cb6 .LASF221
     /tmp/cc3nUUqy.s:5811   .debug_loc:0000000000000634 .LLST28
     /tmp/cc3nUUqy.s:5818   .debug_loc:0000000000000657 .LLST29
     /tmp/cc3nUUqy.s:1425   .text:0000000000000580 .LVL105
     /tmp/cc3nUUqy.s:1438   .text:0000000000000588 .LBB131
     /tmp/cc3nUUqy.s:1460   .text:0000000000000598 .LBE131
     /tmp/cc3nUUqy.s:5825   .debug_loc:000000000000067a .LLST26
     /tmp/cc3nUUqy.s:5832   .debug_loc:000000000000069d .LLST27
     /tmp/cc3nUUqy.s:1451   .text:0000000000000594 .LVL108
     /tmp/cc3nUUqy.s:974    .text:00000000000003d0 .LBB130
     /tmp/cc3nUUqy.s:1002   .text:00000000000003f4 .LBE130
     /tmp/cc3nUUqy.s:5839   .debug_loc:00000000000006c0 .LLST25
     /tmp/cc3nUUqy.s:990    .text:00000000000003e4 .LVL61
     /tmp/cc3nUUqy.s:993    .text:00000000000003f0 .LVL62
     /tmp/cc3nUUqy.s:612    .text:00000000000002b0 .LBB104
     /tmp/cc3nUUqy.s:624    .text:00000000000002b8 .LBE104
     /tmp/cc3nUUqy.s:5846   .debug_loc:00000000000006e3 .LLST19
     /tmp/cc3nUUqy.s:647    .text:00000000000002f0 .LBB107
     /tmp/cc3nUUqy.s:654    .text:00000000000002f4 .LBE107
     /tmp/cc3nUUqy.s:5854   .debug_loc:0000000000000707 .LLST20
     /tmp/cc3nUUqy.s:786    .text:0000000000000370 .LBB118
     /tmp/cc3nUUqy.s:803    .text:000000000000037c .LBE118
     /tmp/cc3nUUqy.s:1044   .text:000000000000040c .LBB215
     /tmp/cc3nUUqy.s:1058   .text:0000000000000414 .LBE215
     /tmp/cc3nUUqy.s:5861   .debug_loc:000000000000072a .LLST52
     /tmp/cc3nUUqy.s:630    .text:00000000000002c8 .LVL44
     /tmp/cc3nUUqy.s:640    .text:00000000000002e4 .LVL45
     /tmp/cc3nUUqy.s:583    .text:000000000000028c .LBB100
     /tmp/cc3nUUqy.s:599    .text:0000000000000298 .LBE100
     /tmp/cc3nUUqy.s:745    .text:0000000000000344 .LVL54
     /tmp/cc3nUUqy.s:1480   .text:00000000000005b8 .LVL112
     /tmp/cc3nUUqy.s:1498   .text:00000000000005d4 .LVL115
     /tmp/cc3nUUqy.s:393    .text:0000000000000198 .LFB27
     /tmp/cc3nUUqy.s:537    .text:0000000000000260 .LFE27
     /tmp/cc3nUUqy.s:5868   .debug_loc:000000000000074d .LLST9
     /tmp/cc3nUUqy.s:5882   .debug_loc:0000000000000786 .LLST10
     /tmp/cc3nUUqy.s:6472   .debug_str:0000000000000c21 .LASF222
     /tmp/cc3nUUqy.s:5889   .debug_loc:00000000000007a9 .LLST11
     /tmp/cc3nUUqy.s:5911   .debug_loc:0000000000000808 .LLST12
     /tmp/cc3nUUqy.s:410    .text:00000000000001b0 .LBB94
     /tmp/cc3nUUqy.s:426    .text:00000000000001bc .LBE94
GAS LISTING /tmp/cc3nUUqy.s 			page 56


     /tmp/cc3nUUqy.s:428    .text:00000000000001bc .LBB96
     /tmp/cc3nUUqy.s:440    .text:00000000000001c4 .LBE96
     /tmp/cc3nUUqy.s:5933   .debug_loc:0000000000000849 .LLST13
     /tmp/cc3nUUqy.s:511    .text:0000000000000244 .LBB98
     /tmp/cc3nUUqy.s:522    .text:0000000000000248 .LBE98
     /tmp/cc3nUUqy.s:5941   .debug_loc:000000000000086d .LLST14
     /tmp/cc3nUUqy.s:495    .text:0000000000000228 .LVL35
     /tmp/cc3nUUqy.s:502    .text:0000000000000238 .LVL36
     /tmp/cc3nUUqy.s:285    .text:0000000000000128 .LFB26
     /tmp/cc3nUUqy.s:387    .text:0000000000000198 .LFE26
     /tmp/cc3nUUqy.s:6436   .debug_str:0000000000000b4f .LASF223
     /tmp/cc3nUUqy.s:5948   .debug_loc:0000000000000890 .LLST5
     /tmp/cc3nUUqy.s:5959   .debug_loc:00000000000008c6 .LLST6
     /tmp/cc3nUUqy.s:303    .text:0000000000000144 .LBB88
     /tmp/cc3nUUqy.s:319    .text:0000000000000150 .LBE88
     /tmp/cc3nUUqy.s:321    .text:0000000000000150 .LBB90
     /tmp/cc3nUUqy.s:334    .text:0000000000000158 .LBE90
     /tmp/cc3nUUqy.s:5966   .debug_loc:00000000000008e9 .LLST7
     /tmp/cc3nUUqy.s:360    .text:000000000000017c .LBB92
     /tmp/cc3nUUqy.s:371    .text:0000000000000180 .LBE92
     /tmp/cc3nUUqy.s:5974   .debug_loc:000000000000090d .LLST8
     /tmp/cc3nUUqy.s:344    .text:0000000000000168 .LVL19
     /tmp/cc3nUUqy.s:250    .text:0000000000000108 .LFB25
     /tmp/cc3nUUqy.s:279    .text:0000000000000128 .LFE25
     /tmp/cc3nUUqy.s:181    .text:00000000000000c0 .LFB24
     /tmp/cc3nUUqy.s:213    .text:00000000000000e0 .LFE24
     /tmp/cc3nUUqy.s:192    .text:00000000000000cc .LBB86
     /tmp/cc3nUUqy.s:204    .text:00000000000000d4 .LBE86
     /tmp/cc3nUUqy.s:5981   .debug_loc:0000000000000930 .LLST4
     /tmp/cc3nUUqy.s:143    .text:00000000000000a0 .LFB23
     /tmp/cc3nUUqy.s:175    .text:00000000000000c0 .LFE23
     /tmp/cc3nUUqy.s:154    .text:00000000000000ac .LBB84
     /tmp/cc3nUUqy.s:166    .text:00000000000000b4 .LBE84
     /tmp/cc3nUUqy.s:5989   .debug_loc:0000000000000954 .LLST3
     /tmp/cc3nUUqy.s:219    .text:00000000000000e0 .LFB22
     /tmp/cc3nUUqy.s:244    .text:0000000000000108 .LFE22
     /tmp/cc3nUUqy.s:233    .text:00000000000000f8 .LVL15
     /tmp/cc3nUUqy.s:113    .text:00000000000000a0 .LFE21
     /tmp/cc3nUUqy.s:5997   .debug_loc:0000000000000978 .LLST0
     /tmp/cc3nUUqy.s:32     .text:0000000000000020 .LBB80
     /tmp/cc3nUUqy.s:44     .text:0000000000000024 .LBE80
     /tmp/cc3nUUqy.s:75     .text:0000000000000064 .LBB82
     /tmp/cc3nUUqy.s:84     .text:000000000000006c .LBE82
     /tmp/cc3nUUqy.s:6004   .debug_loc:000000000000099b .LLST1
     /tmp/cc3nUUqy.s:6012   .debug_loc:00000000000009bf .LLST2
     /tmp/cc3nUUqy.s:50     .text:0000000000000030 .LVL2
     /tmp/cc3nUUqy.s:57     .text:0000000000000044 .LVL3
     /tmp/cc3nUUqy.s:64     .text:0000000000000050 .LVL4
     /tmp/cc3nUUqy.s:68     .text:0000000000000058 .LVL5
     /tmp/cc3nUUqy.s:106    .text:0000000000000094 .LVL9
     /tmp/cc3nUUqy.s:110    .text:00000000000000a0 .LVL10
     /tmp/cc3nUUqy.s:6176   .debug_str:0000000000000358 .LASF224
     /tmp/cc3nUUqy.s:6492   .debug_str:0000000000000c94 .LASF225
     /tmp/cc3nUUqy.s:6520   .debug_str:0000000000000d29 .LASF226
     /tmp/cc3nUUqy.s:6388   .debug_str:00000000000009d3 .LASF227
     /tmp/cc3nUUqy.s:6214   .debug_str:000000000000046e .LASF229
     /tmp/cc3nUUqy.s:6552   .debug_str:0000000000000e09 .LASF228
GAS LISTING /tmp/cc3nUUqy.s 			page 57


     /tmp/cc3nUUqy.s:6218   .debug_str:0000000000000482 .LASF230
     /tmp/cc3nUUqy.s:6226   .debug_str:00000000000004b9 .LASF231
     /tmp/cc3nUUqy.s:6536   .debug_str:0000000000000d98 .LASF244
     /tmp/cc3nUUqy.s:6114   .debug_str:000000000000016f .LASF245
     /tmp/cc3nUUqy.s:6174   .debug_str:0000000000000351 .LASF232
     /tmp/cc3nUUqy.s:6208   .debug_str:0000000000000452 .LASF233
     /tmp/cc3nUUqy.s:6340   .debug_str:00000000000008a9 .LASF234
     /tmp/cc3nUUqy.s:580    .text:000000000000028c .LVL40
     /tmp/cc3nUUqy.s:693    .text:0000000000000314 .LVL49
     /tmp/cc3nUUqy.s:729    .text:0000000000000334 .LVL52
     /tmp/cc3nUUqy.s:739    .text:000000000000033c .LVL53
     /tmp/cc3nUUqy.s:769    .text:000000000000036c .LVL55
     /tmp/cc3nUUqy.s:982    .text:00000000000003d4 .LVL60
     /tmp/cc3nUUqy.s:1004   .text:00000000000003f8 .LVL63
     /tmp/cc3nUUqy.s:1038   .text:000000000000040c .LVL67
     /tmp/cc3nUUqy.s:1055   .text:0000000000000414 .LVL68
     /tmp/cc3nUUqy.s:1169   .text:0000000000000480 .LVL79
     /tmp/cc3nUUqy.s:1193   .text:000000000000049c .LVL81
     /tmp/cc3nUUqy.s:1222   .text:00000000000004b8 .LVL83
     /tmp/cc3nUUqy.s:1259   .text:00000000000004e8 .LVL87
     /tmp/cc3nUUqy.s:1302   .text:0000000000000500 .LVL91
     /tmp/cc3nUUqy.s:1352   .text:0000000000000538 .LVL97
     /tmp/cc3nUUqy.s:1379   .text:0000000000000550 .LVL101
     /tmp/cc3nUUqy.s:1407   .text:0000000000000574 .LVL103
     /tmp/cc3nUUqy.s:597    .text:0000000000000298 .LVL41
     /tmp/cc3nUUqy.s:795    .text:0000000000000374 .LVL57
     /tmp/cc3nUUqy.s:783    .text:0000000000000370 .LVL56
     /tmp/cc3nUUqy.s:1084   .text:0000000000000428 .LVL71
     /tmp/cc3nUUqy.s:1148   .text:0000000000000474 .LVL77
     /tmp/cc3nUUqy.s:1163   .text:0000000000000478 .LVL78
     /tmp/cc3nUUqy.s:1203   .text:00000000000004a4 .LVL82
     /tmp/cc3nUUqy.s:1272   .text:00000000000004f0 .LVL88
     /tmp/cc3nUUqy.s:1296   .text:00000000000004f8 .LVL90
     /tmp/cc3nUUqy.s:1435   .text:0000000000000588 .LVL106
     /tmp/cc3nUUqy.s:801    .text:000000000000037c .LVL58
     /tmp/cc3nUUqy.s:807    .text:0000000000000380 .LVL59
     /tmp/cc3nUUqy.s:1465   .text:00000000000005a0 .LVL110
     /tmp/cc3nUUqy.s:1484   .text:00000000000005bc .LVL113
     /tmp/cc3nUUqy.s:675    .text:0000000000000308 .LVL48
     /tmp/cc3nUUqy.s:713    .text:000000000000032c .LVL51
     /tmp/cc3nUUqy.s:1023   .text:00000000000003fc .LVL64
     /tmp/cc3nUUqy.s:1029   .text:0000000000000400 .LVL65
     /tmp/cc3nUUqy.s:1069   .text:0000000000000418 .LVL69
     /tmp/cc3nUUqy.s:1103   .text:0000000000000430 .LVL73
     /tmp/cc3nUUqy.s:1462   .text:000000000000059c .LVL109
     /tmp/cc3nUUqy.s:1109   .text:0000000000000434 .LVL74
     /tmp/cc3nUUqy.s:1097   .text:000000000000042c .LVL72
     /tmp/cc3nUUqy.s:1233   .text:00000000000004d0 .LVL84
     /tmp/cc3nUUqy.s:1240   .text:00000000000004d8 .LVL85
     /tmp/cc3nUUqy.s:1284   .text:00000000000004f4 .LVL89
     /tmp/cc3nUUqy.s:1313   .text:0000000000000518 .LVL92
     /tmp/cc3nUUqy.s:1319   .text:000000000000051c .LVL93
     /tmp/cc3nUUqy.s:1339   .text:0000000000000530 .LVL96
     /tmp/cc3nUUqy.s:1370   .text:0000000000000540 .LVL99
     /tmp/cc3nUUqy.s:1364   .text:000000000000053c .LVL98
     /tmp/cc3nUUqy.s:1419   .text:0000000000000578 .LVL104
     /tmp/cc3nUUqy.s:1446   .text:000000000000058c .LVL107
GAS LISTING /tmp/cc3nUUqy.s 			page 58


     /tmp/cc3nUUqy.s:611    .text:00000000000002b0 .LVL42
     /tmp/cc3nUUqy.s:621    .text:00000000000002b8 .LVL43
     /tmp/cc3nUUqy.s:646    .text:00000000000002f0 .LVL46
     /tmp/cc3nUUqy.s:652    .text:00000000000002f4 .LVL47
     /tmp/cc3nUUqy.s:396    .text:0000000000000198 .LVL25
     /tmp/cc3nUUqy.s:450    .text:00000000000001c8 .LVL28
     /tmp/cc3nUUqy.s:424    .text:00000000000001bc .LVL26
     /tmp/cc3nUUqy.s:506    .text:000000000000023c .LVL37
     /tmp/cc3nUUqy.s:454    .text:00000000000001cc .LVL29
     /tmp/cc3nUUqy.s:461    .text:00000000000001d4 .LVL30
     /tmp/cc3nUUqy.s:472    .text:00000000000001f8 .LVL31
     /tmp/cc3nUUqy.s:482    .text:000000000000020c .LVL33
     /tmp/cc3nUUqy.s:487    .text:0000000000000210 .LVL34
     /tmp/cc3nUUqy.s:478    .text:0000000000000204 .LVL32
     /tmp/cc3nUUqy.s:437    .text:00000000000001c4 .LVL27
     /tmp/cc3nUUqy.s:510    .text:0000000000000244 .LVL38
     /tmp/cc3nUUqy.s:519    .text:0000000000000248 .LVL39
     /tmp/cc3nUUqy.s:288    .text:0000000000000128 .LVL16
     /tmp/cc3nUUqy.s:330    .text:0000000000000158 .LVL18
     /tmp/cc3nUUqy.s:380    .text:000000000000018c .LVL24
     /tmp/cc3nUUqy.s:317    .text:0000000000000150 .LVL17
     /tmp/cc3nUUqy.s:355    .text:0000000000000174 .LVL21
     /tmp/cc3nUUqy.s:359    .text:000000000000017c .LVL22
     /tmp/cc3nUUqy.s:368    .text:0000000000000180 .LVL23
     /tmp/cc3nUUqy.s:191    .text:00000000000000cc .LVL13
     /tmp/cc3nUUqy.s:201    .text:00000000000000d4 .LVL14
     /tmp/cc3nUUqy.s:153    .text:00000000000000ac .LVL11
     /tmp/cc3nUUqy.s:163    .text:00000000000000b4 .LVL12
     /tmp/cc3nUUqy.s:94     .text:0000000000000078 .LVL8
     /tmp/cc3nUUqy.s:74     .text:0000000000000064 .LVL6
     /tmp/cc3nUUqy.s:82     .text:000000000000006c .LVL7
     /tmp/cc3nUUqy.s:1566   .debug_info:0000000000000000 .Ldebug_info0
     /tmp/cc3nUUqy.s:608    .text:00000000000002b0 .LBB103
     /tmp/cc3nUUqy.s:735    .text:0000000000000334 .LBE103
     /tmp/cc3nUUqy.s:773    .text:000000000000036c .LBB218
     /tmp/cc3nUUqy.s:813    .text:0000000000000388 .LBE218
     /tmp/cc3nUUqy.s:817    .text:0000000000000388 .LBB219
     /tmp/cc3nUUqy.s:824    .text:0000000000000390 .LBE219
     /tmp/cc3nUUqy.s:828    .text:0000000000000390 .LBB220
     /tmp/cc3nUUqy.s:837    .text:0000000000000398 .LBE220
     /tmp/cc3nUUqy.s:841    .text:0000000000000398 .LBB221
     /tmp/cc3nUUqy.s:852    .text:00000000000003a0 .LBE221
     /tmp/cc3nUUqy.s:856    .text:00000000000003a0 .LBB222
     /tmp/cc3nUUqy.s:869    .text:00000000000003a8 .LBE222
     /tmp/cc3nUUqy.s:873    .text:00000000000003a8 .LBB223
     /tmp/cc3nUUqy.s:888    .text:00000000000003b0 .LBE223
     /tmp/cc3nUUqy.s:892    .text:00000000000003b0 .LBB224
     /tmp/cc3nUUqy.s:909    .text:00000000000003b8 .LBE224
     /tmp/cc3nUUqy.s:913    .text:00000000000003b8 .LBB225
     /tmp/cc3nUUqy.s:932    .text:00000000000003c0 .LBE225
     /tmp/cc3nUUqy.s:936    .text:00000000000003c0 .LBB226
     /tmp/cc3nUUqy.s:957    .text:00000000000003c8 .LBE226
     /tmp/cc3nUUqy.s:961    .text:00000000000003c8 .LBB227
     /tmp/cc3nUUqy.s:1508   .text:00000000000005d4 .LBE227
     /tmp/cc3nUUqy.s:1355   .text:0000000000000538 .LBB137
     /tmp/cc3nUUqy.s:1409   .text:0000000000000574 .LBE137
     /tmp/cc3nUUqy.s:1490   .text:00000000000005bc .LBB139
GAS LISTING /tmp/cc3nUUqy.s 			page 59


     /tmp/cc3nUUqy.s:1500   .text:00000000000005d4 .LBE139
     /tmp/cc3nUUqy.s:1087   .text:0000000000000428 .LBB183
     /tmp/cc3nUUqy.s:1150   .text:0000000000000474 .LBE183
     /tmp/cc3nUUqy.s:1472   .text:00000000000005a0 .LBB185
     /tmp/cc3nUUqy.s:1485   .text:00000000000005bc .LBE185
     /tmp/cc3nUUqy.s:116    .gcc_except_table:0000000000000000 .LLSDA21
     /tmp/cc3nUUqy.s:1513   .gcc_except_table:0000000000000038 .LLSDA28

UNDEFINED SYMBOLS
_ZN5Riscv14supervisorTrapEv
_Znwm
_ZN6ThreadC1EPFvPvES0_
_ZN6Thread5startEv
_ZN9Scheduler3getEv
_ZN3PCB7runningE
_ZdlPv
_Unwind_Resume
__gxx_personality_v0
__putc
_ZN3PCB16timeSliceCounterE
_ZN12SleepPCBList13tryToWakePCBsEv
_ZN3PCB8dispatchEv
console_handler
_ZN10KSemaphoreD1Ev
_ZN10KSemaphoredlEPv
_Z7kmallocm
_Z5kfreePv
_ZN3PCBnwEm
_ZN3PCBC1EPFvPvES0_S0_m
_ZN12SleepPCBList17insertSleepingPCBEv
_ZN10KSemaphorenwEm
_ZN10KSemaphoreC1Ei
_ZN10KSemaphore4waitEv
_ZN10KSemaphore6signalEv
_ZN3PCBdlEPv
