GAS LISTING /tmp/cc6j8WUU.s 			page 1


   1              		.file	"Scheduler.cpp"
   2              		.option pic
   3              		.option norelax
   4              		.text
   5              	.Ltext0:
   6              		.align	2
   7              		.globl	_ZN9SchedulernwEm
   9              	_ZN9SchedulernwEm:
  10              	.LFB29:
  11              		.file 1 "src/Scheduler.cpp"
   1:src/Scheduler.cpp **** //
   2:src/Scheduler.cpp **** // Created by os on 4/27/22.
   3:src/Scheduler.cpp **** //
   4:src/Scheduler.cpp **** 
   5:src/Scheduler.cpp **** #include "../h/Scheduler.h"
   6:src/Scheduler.cpp **** #include "../h/PCB.h"
   7:src/Scheduler.cpp **** 
   8:src/Scheduler.cpp **** //todo
   9:src/Scheduler.cpp **** //Queue<PCB*>* Scheduler::queuePCB = (Queue<PCB*>*)kmalloc(sizeof(Queue<PCB*>));
  10:src/Scheduler.cpp **** Scheduler* Scheduler::scheduler = 0;
  11:src/Scheduler.cpp **** 
  12:src/Scheduler.cpp **** void Scheduler::put(PCB *pcb) {
  13:src/Scheduler.cpp ****     //Scheduler::queuePCB->push(pcb);
  14:src/Scheduler.cpp ****     Riscv::printInteger(sizeof(Scheduler));
  15:src/Scheduler.cpp ****     Riscv::printString("needs to put\n");
  16:src/Scheduler.cpp ****     if(scheduler == 0)
  17:src/Scheduler.cpp ****         scheduler = new Scheduler();
  18:src/Scheduler.cpp ****     scheduler->queuePCB.push(pcb);
  19:src/Scheduler.cpp ****     Riscv::printString("put\n");
  20:src/Scheduler.cpp **** }
  21:src/Scheduler.cpp **** 
  22:src/Scheduler.cpp **** PCB *Scheduler::get() {
  23:src/Scheduler.cpp ****     if(scheduler == 0)
  24:src/Scheduler.cpp ****         scheduler = new Scheduler();
  25:src/Scheduler.cpp ****     PCB* fr = scheduler->queuePCB.front();
  26:src/Scheduler.cpp ****     scheduler->queuePCB.pop();
  27:src/Scheduler.cpp ****     return fr;
  28:src/Scheduler.cpp **** }
  29:src/Scheduler.cpp **** 
  30:src/Scheduler.cpp **** void *Scheduler::operator new(size_t size) {
  12              		.loc 1 30 44
  13              		.cfi_startproc
  14              	.LVL0:
  15 0000 130101FF 		addi	sp,sp,-16
  16              		.cfi_def_cfa_offset 16
  17 0004 23341100 		sd	ra,8(sp)
  18 0008 23308100 		sd	s0,0(sp)
  19              		.cfi_offset 1, -8
  20              		.cfi_offset 8, -16
  21 000c 13040101 		addi	s0,sp,16
  22              		.cfi_def_cfa 8, 0
  31:src/Scheduler.cpp ****     return kmalloc(size);
  23              		.loc 1 31 5
  24              		.loc 1 31 19 is_stmt 0
  25 0010 97000000 		call	_Z7kmallocm@plt
  25      E7800000 
  26              	.LVL1:
GAS LISTING /tmp/cc6j8WUU.s 			page 2


  32:src/Scheduler.cpp **** }
  27              		.loc 1 32 1
  28 0018 83308100 		ld	ra,8(sp)
  29              		.cfi_restore 1
  30 001c 03340100 		ld	s0,0(sp)
  31              		.cfi_restore 8
  32              		.cfi_def_cfa 2, 16
  33 0020 13010101 		addi	sp,sp,16
  34              		.cfi_def_cfa_offset 0
  35 0024 67800000 		jr	ra
  36              		.cfi_endproc
  37              	.LFE29:
  39              		.align	2
  40              		.globl	_ZN9SchedulerdlEPv
  42              	_ZN9SchedulerdlEPv:
  43              	.LFB30:
  33:src/Scheduler.cpp **** 
  34:src/Scheduler.cpp **** void Scheduler::operator delete(void *p) {
  44              		.loc 1 34 42 is_stmt 1
  45              		.cfi_startproc
  46              	.LVL2:
  47 0028 130101FF 		addi	sp,sp,-16
  48              		.cfi_def_cfa_offset 16
  49 002c 23341100 		sd	ra,8(sp)
  50 0030 23308100 		sd	s0,0(sp)
  51              		.cfi_offset 1, -8
  52              		.cfi_offset 8, -16
  53 0034 13040101 		addi	s0,sp,16
  54              		.cfi_def_cfa 8, 0
  35:src/Scheduler.cpp ****     kfree(p);
  55              		.loc 1 35 5
  56              		.loc 1 35 10 is_stmt 0
  57 0038 97000000 		call	_Z5kfreePv@plt
  57      E7800000 
  58              	.LVL3:
  36:src/Scheduler.cpp **** }
  59              		.loc 1 36 1
  60 0040 83308100 		ld	ra,8(sp)
  61              		.cfi_restore 1
  62 0044 03340100 		ld	s0,0(sp)
  63              		.cfi_restore 8
  64              		.cfi_def_cfa 2, 16
  65 0048 13010101 		addi	sp,sp,16
  66              		.cfi_def_cfa_offset 0
  67 004c 67800000 		jr	ra
  68              		.cfi_endproc
  69              	.LFE30:
  71              		.section	.text._ZN5QueueIP3PCBEC2Ev,"axG",@progbits,_ZN5QueueIP3PCBEC5Ev,comdat
  72              		.align	2
  73              		.weak	_ZN5QueueIP3PCBEC2Ev
  75              	_ZN5QueueIP3PCBEC2Ev:
  76              	.LFB32:
  77              		.file 2 "src/../h/Queue.h"
   1:src/../h/Queue.h **** //
   2:src/../h/Queue.h **** // Created by os on 4/27/22.
   3:src/../h/Queue.h **** //
   4:src/../h/Queue.h **** 
GAS LISTING /tmp/cc6j8WUU.s 			page 3


   5:src/../h/Queue.h **** #ifndef PROJECT_BASE_V1_0_QUEUE_H
   6:src/../h/Queue.h **** #define PROJECT_BASE_V1_0_QUEUE_H
   7:src/../h/Queue.h **** 
   8:src/../h/Queue.h **** #include "../lib/hw.h"
   9:src/../h/Queue.h **** #include "MemoryAllocator.h"
  10:src/../h/Queue.h **** 
  11:src/../h/Queue.h **** template <typename T>
  12:src/../h/Queue.h **** class Queue
  13:src/../h/Queue.h **** {
  14:src/../h/Queue.h **** private:
  15:src/../h/Queue.h ****     typedef struct Elem
  16:src/../h/Queue.h ****     {
  17:src/../h/Queue.h ****         T data;
  18:src/../h/Queue.h ****         struct Elem* next;
  19:src/../h/Queue.h ****     }Elem;
  20:src/../h/Queue.h ****     Elem* first;
  21:src/../h/Queue.h ****     Elem* last;
  22:src/../h/Queue.h **** public:
  23:src/../h/Queue.h ****     void pop();
  24:src/../h/Queue.h ****     T front();
  25:src/../h/Queue.h ****     void push(T t);
  26:src/../h/Queue.h ****     Queue();
  27:src/../h/Queue.h ****     ~Queue();
  28:src/../h/Queue.h **** };
  29:src/../h/Queue.h **** 
  30:src/../h/Queue.h **** template<typename T>
  31:src/../h/Queue.h **** void Queue<T>::pop() {
  32:src/../h/Queue.h ****     Elem* newFirst = first->next;
  33:src/../h/Queue.h ****     kfree(first);
  34:src/../h/Queue.h ****     first = newFirst;
  35:src/../h/Queue.h ****     if(first == 0)
  36:src/../h/Queue.h ****         first = last = 0;
  37:src/../h/Queue.h **** }
  38:src/../h/Queue.h **** 
  39:src/../h/Queue.h **** template<typename T>
  40:src/../h/Queue.h **** void Queue<T>::push(T t) {
  41:src/../h/Queue.h ****     Elem* newElem = (Elem*) kmalloc(sizeof(Elem));
  42:src/../h/Queue.h ****     newElem->data = t;
  43:src/../h/Queue.h ****     newElem->next = 0;
  44:src/../h/Queue.h ****     if(first == 0) {
  45:src/../h/Queue.h ****         first = newElem;
  46:src/../h/Queue.h ****         last = 0;
  47:src/../h/Queue.h ****         first->next = last;
  48:src/../h/Queue.h ****     }
  49:src/../h/Queue.h **** }
  50:src/../h/Queue.h **** 
  51:src/../h/Queue.h **** template<typename T>
  52:src/../h/Queue.h **** T Queue<T>::front() {
  53:src/../h/Queue.h ****     if(first == 0)
  54:src/../h/Queue.h ****         return 0;
  55:src/../h/Queue.h ****     return first->data;
  56:src/../h/Queue.h **** }
  57:src/../h/Queue.h **** 
  58:src/../h/Queue.h **** template<typename T>
  59:src/../h/Queue.h **** Queue<T>::Queue() {
  78              		.loc 2 59 1 is_stmt 1
  79              		.cfi_startproc
GAS LISTING /tmp/cc6j8WUU.s 			page 4


  80              	.LVL4:
  81 0000 130101FF 		addi	sp,sp,-16
  82              		.cfi_def_cfa_offset 16
  83 0004 23348100 		sd	s0,8(sp)
  84              		.cfi_offset 8, -8
  85 0008 13040101 		addi	s0,sp,16
  86              		.cfi_def_cfa 8, 0
  87              	.LBB8:
  60:src/../h/Queue.h ****     first = last = 0;
  88              		.loc 2 60 5 is_stmt 0
  89 000c 23340500 		sd	zero,8(a0)
  90 0010 23300500 		sd	zero,0(a0)
  91              	.LBE8:
  61:src/../h/Queue.h **** }
  92              		.loc 2 61 1
  93 0014 03348100 		ld	s0,8(sp)
  94              		.cfi_restore 8
  95              		.cfi_def_cfa 2, 16
  96 0018 13010101 		addi	sp,sp,16
  97              		.cfi_def_cfa_offset 0
  98 001c 67800000 		jr	ra
  99              		.cfi_endproc
 100              	.LFE32:
 102              		.weak	_ZN5QueueIP3PCBEC1Ev
 103              		.set	_ZN5QueueIP3PCBEC1Ev,_ZN5QueueIP3PCBEC2Ev
 104              		.section	.text._ZN5QueueIP3PCBE4pushES1_,"axG",@progbits,_ZN5QueueIP3PCBE4pushES1_,comdat
 105              		.align	2
 106              		.weak	_ZN5QueueIP3PCBE4pushES1_
 108              	_ZN5QueueIP3PCBE4pushES1_:
 109              	.LFB37:
  40:src/../h/Queue.h ****     Elem* newElem = (Elem*) kmalloc(sizeof(Elem));
 110              		.loc 2 40 6 is_stmt 1
 111              		.cfi_startproc
 112              	.LVL5:
 113 0000 130101FE 		addi	sp,sp,-32
 114              		.cfi_def_cfa_offset 32
 115 0004 233C1100 		sd	ra,24(sp)
 116 0008 23388100 		sd	s0,16(sp)
 117 000c 23349100 		sd	s1,8(sp)
 118 0010 23302101 		sd	s2,0(sp)
 119              		.cfi_offset 1, -8
 120              		.cfi_offset 8, -16
 121              		.cfi_offset 9, -24
 122              		.cfi_offset 18, -32
 123 0014 13040102 		addi	s0,sp,32
 124              		.cfi_def_cfa 8, 0
 125 0018 93040500 		mv	s1,a0
 126 001c 13890500 		mv	s2,a1
  41:src/../h/Queue.h ****     newElem->data = t;
 127              		.loc 2 41 36 is_stmt 0
 128 0020 13050001 		li	a0,16
 129              	.LVL6:
 130 0024 97000000 		call	_Z7kmallocm@plt
 130      E7800000 
 131              	.LVL7:
  42:src/../h/Queue.h ****     newElem->next = 0;
 132              		.loc 2 42 5
GAS LISTING /tmp/cc6j8WUU.s 			page 5


 133 002c 23302501 		sd	s2,0(a0)
  43:src/../h/Queue.h ****     if(first == 0) {
 134              		.loc 2 43 5
 135 0030 23340500 		sd	zero,8(a0)
  44:src/../h/Queue.h ****         first = newElem;
 136              		.loc 2 44 8
 137 0034 83B70400 		ld	a5,0(s1)
  44:src/../h/Queue.h ****         first = newElem;
 138              		.loc 2 44 5
 139 0038 638E0700 		beqz	a5,.L10
 140              	.L7:
  49:src/../h/Queue.h **** 
 141              		.loc 2 49 1
 142 003c 83308101 		ld	ra,24(sp)
 143              		.cfi_remember_state
 144              		.cfi_restore 1
 145 0040 03340101 		ld	s0,16(sp)
 146              		.cfi_restore 8
 147              		.cfi_def_cfa 2, 32
 148 0044 83348100 		ld	s1,8(sp)
 149              		.cfi_restore 9
 150              	.LVL8:
 151 0048 03390100 		ld	s2,0(sp)
 152              		.cfi_restore 18
 153              	.LVL9:
 154 004c 13010102 		addi	sp,sp,32
 155              		.cfi_def_cfa_offset 0
 156 0050 67800000 		jr	ra
 157              	.LVL10:
 158              	.L10:
 159              		.cfi_restore_state
  45:src/../h/Queue.h ****         last = 0;
 160              		.loc 2 45 9
 161 0054 23B0A400 		sd	a0,0(s1)
  46:src/../h/Queue.h ****         first->next = last;
 162              		.loc 2 46 9
 163 0058 23B40400 		sd	zero,8(s1)
  47:src/../h/Queue.h ****     }
 164              		.loc 2 47 9
 165 005c 23340500 		sd	zero,8(a0)
  49:src/../h/Queue.h **** 
 166              		.loc 2 49 1
 167 0060 6FF0DFFD 		j	.L7
 168              		.cfi_endproc
 169              	.LFE37:
 171              		.section	.rodata.str1.8,"aMS",@progbits,1
 172              		.align	3
 173              	.LC0:
 174 0000 6E656564 		.string	"needs to put\n"
 174      7320746F 
 174      20707574 
 174      0A00
 175 000e 0000     		.align	3
 176              	.LC1:
 177 0010 7075740A 		.string	"put\n"
 177      00
 178              		.text
GAS LISTING /tmp/cc6j8WUU.s 			page 6


 179              		.align	2
 180              		.globl	_ZN9Scheduler3putEP3PCB
 182              	_ZN9Scheduler3putEP3PCB:
 183              	.LFB24:
  12:src/Scheduler.cpp ****     //Scheduler::queuePCB->push(pcb);
 184              		.loc 1 12 31 is_stmt 1
 185              		.cfi_startproc
 186              	.LVL11:
 187 0050 130101FE 		addi	sp,sp,-32
 188              		.cfi_def_cfa_offset 32
 189 0054 233C1100 		sd	ra,24(sp)
 190 0058 23388100 		sd	s0,16(sp)
 191 005c 23349100 		sd	s1,8(sp)
 192 0060 23302101 		sd	s2,0(sp)
 193              		.cfi_offset 1, -8
 194              		.cfi_offset 8, -16
 195              		.cfi_offset 9, -24
 196              		.cfi_offset 18, -32
 197 0064 13040102 		addi	s0,sp,32
 198              		.cfi_def_cfa 8, 0
 199 0068 93040500 		mv	s1,a0
  14:src/Scheduler.cpp ****     Riscv::printString("needs to put\n");
 200              		.loc 1 14 5
  14:src/Scheduler.cpp ****     Riscv::printString("needs to put\n");
 201              		.loc 1 14 24 is_stmt 0
 202 006c 13050001 		li	a0,16
 203              	.LVL12:
 204 0070 97000000 		call	_ZN5Riscv12printIntegerEm@plt
 204      E7800000 
 205              	.LVL13:
  15:src/Scheduler.cpp ****     if(scheduler == 0)
 206              		.loc 1 15 5 is_stmt 1
  15:src/Scheduler.cpp ****     if(scheduler == 0)
 207              		.loc 1 15 23 is_stmt 0
 208 0078 17050000 		lla	a0,.LC0
 208      13050500 
 209 0080 97000000 		call	_ZN5Riscv11printStringEPKc@plt
 209      E7800000 
 210              	.LVL14:
  16:src/Scheduler.cpp ****         scheduler = new Scheduler();
 211              		.loc 1 16 5 is_stmt 1
  16:src/Scheduler.cpp ****         scheduler = new Scheduler();
 212              		.loc 1 16 18 is_stmt 0
 213 0088 97070000 		ld	a5,.LANCHOR0
 213      83B70700 
  16:src/Scheduler.cpp ****         scheduler = new Scheduler();
 214              		.loc 1 16 5
 215 0090 63800704 		beqz	a5,.L14
 216              	.L12:
  18:src/Scheduler.cpp ****     Riscv::printString("put\n");
 217              		.loc 1 18 5 is_stmt 1
  18:src/Scheduler.cpp ****     Riscv::printString("put\n");
 218              		.loc 1 18 29 is_stmt 0
 219 0094 93850400 		mv	a1,s1
 220 0098 17050000 		ld	a0,.LANCHOR0
 220      03350500 
 221 00a0 97000000 		call	_ZN5QueueIP3PCBE4pushES1_
GAS LISTING /tmp/cc6j8WUU.s 			page 7


 221      E7800000 
 222              	.LVL15:
  19:src/Scheduler.cpp **** }
 223              		.loc 1 19 5 is_stmt 1
  19:src/Scheduler.cpp **** }
 224              		.loc 1 19 23 is_stmt 0
 225 00a8 17050000 		lla	a0,.LC1
 225      13050500 
 226 00b0 97000000 		call	_ZN5Riscv11printStringEPKc@plt
 226      E7800000 
 227              	.LVL16:
  20:src/Scheduler.cpp **** 
 228              		.loc 1 20 1
 229 00b8 83308101 		ld	ra,24(sp)
 230              		.cfi_remember_state
 231              		.cfi_restore 1
 232 00bc 03340101 		ld	s0,16(sp)
 233              		.cfi_restore 8
 234              		.cfi_def_cfa 2, 32
 235 00c0 83348100 		ld	s1,8(sp)
 236              		.cfi_restore 9
 237              	.LVL17:
 238 00c4 03390100 		ld	s2,0(sp)
 239              		.cfi_restore 18
 240 00c8 13010102 		addi	sp,sp,32
 241              		.cfi_def_cfa_offset 0
 242 00cc 67800000 		jr	ra
 243              	.LVL18:
 244              	.L14:
 245              		.cfi_restore_state
  17:src/Scheduler.cpp ****     scheduler->queuePCB.push(pcb);
 246              		.loc 1 17 9 is_stmt 1
  17:src/Scheduler.cpp ****     scheduler->queuePCB.push(pcb);
 247              		.loc 1 17 35 is_stmt 0
 248 00d0 13050001 		li	a0,16
 249 00d4 97000000 		call	_ZN9SchedulernwEm
 249      E7800000 
 250              	.LVL19:
 251 00dc 13090500 		mv	s2,a0
 252 00e0 23300500 		sd	zero,0(a0)
 253 00e4 23340500 		sd	zero,8(a0)
 254              	.LVL20:
 255              	.LBB9:
 256              	.LBB10:
 257              		.file 3 "src/../h/Scheduler.h"
   1:src/../h/Scheduler.h **** //
   2:src/../h/Scheduler.h **** // Created by os on 4/27/22.
   3:src/../h/Scheduler.h **** //
   4:src/../h/Scheduler.h **** 
   5:src/../h/Scheduler.h **** #ifndef PROJECT_BASE_V1_0_SCHEDULER_H
   6:src/../h/Scheduler.h **** #define PROJECT_BASE_V1_0_SCHEDULER_H
   7:src/../h/Scheduler.h **** 
   8:src/../h/Scheduler.h **** #include "../lib/hw.h"
   9:src/../h/Scheduler.h **** #include "MemoryAllocator.h"
  10:src/../h/Scheduler.h **** #include "Queue.h"
  11:src/../h/Scheduler.h **** 
  12:src/../h/Scheduler.h **** class PCB;
GAS LISTING /tmp/cc6j8WUU.s 			page 8


  13:src/../h/Scheduler.h **** 
  14:src/../h/Scheduler.h **** class Scheduler
 258              		.loc 3 14 7
 259 00e8 97000000 		call	_ZN5QueueIP3PCBEC1Ev
 259      E7800000 
 260              	.LVL21:
 261              	.LBE10:
 262              	.LBE9:
  17:src/Scheduler.cpp ****     scheduler->queuePCB.push(pcb);
 263              		.loc 1 17 19
 264 00f0 97070000 		sd	s2,.LANCHOR0,a5
 264      23B02701 
 265 00f8 6FF0DFF9 		j	.L12
 266              		.cfi_endproc
 267              	.LFE24:
 269              		.section	.text._ZN5QueueIP3PCBE5frontEv,"axG",@progbits,_ZN5QueueIP3PCBE5frontEv,comdat
 270              		.align	2
 271              		.weak	_ZN5QueueIP3PCBE5frontEv
 273              	_ZN5QueueIP3PCBE5frontEv:
 274              	.LFB38:
  52:src/../h/Queue.h ****     if(first == 0)
 275              		.loc 2 52 3 is_stmt 1
 276              		.cfi_startproc
 277              	.LVL22:
 278 0000 130101FF 		addi	sp,sp,-16
 279              		.cfi_def_cfa_offset 16
 280 0004 23348100 		sd	s0,8(sp)
 281              		.cfi_offset 8, -8
 282 0008 13040101 		addi	s0,sp,16
 283              		.cfi_def_cfa 8, 0
  53:src/../h/Queue.h ****         return 0;
 284              		.loc 2 53 8 is_stmt 0
 285 000c 03350500 		ld	a0,0(a0)
 286              	.LVL23:
  53:src/../h/Queue.h ****         return 0;
 287              		.loc 2 53 5
 288 0010 63040500 		beqz	a0,.L15
  55:src/../h/Queue.h **** }
 289              		.loc 2 55 19
 290 0014 03350500 		ld	a0,0(a0)
 291              	.L15:
  56:src/../h/Queue.h **** 
 292              		.loc 2 56 1
 293 0018 03348100 		ld	s0,8(sp)
 294              		.cfi_restore 8
 295              		.cfi_def_cfa 2, 16
 296 001c 13010101 		addi	sp,sp,16
 297              		.cfi_def_cfa_offset 0
 298 0020 67800000 		jr	ra
 299              		.cfi_endproc
 300              	.LFE38:
 302              		.section	.text._ZN5QueueIP3PCBE3popEv,"axG",@progbits,_ZN5QueueIP3PCBE3popEv,comdat
 303              		.align	2
 304              		.weak	_ZN5QueueIP3PCBE3popEv
 306              	_ZN5QueueIP3PCBE3popEv:
 307              	.LFB39:
  31:src/../h/Queue.h ****     Elem* newFirst = first->next;
GAS LISTING /tmp/cc6j8WUU.s 			page 9


 308              		.loc 2 31 6 is_stmt 1
 309              		.cfi_startproc
 310              	.LVL24:
 311 0000 130101FE 		addi	sp,sp,-32
 312              		.cfi_def_cfa_offset 32
 313 0004 233C1100 		sd	ra,24(sp)
 314 0008 23388100 		sd	s0,16(sp)
 315 000c 23349100 		sd	s1,8(sp)
 316 0010 23302101 		sd	s2,0(sp)
 317              		.cfi_offset 1, -8
 318              		.cfi_offset 8, -16
 319              		.cfi_offset 9, -24
 320              		.cfi_offset 18, -32
 321 0014 13040102 		addi	s0,sp,32
 322              		.cfi_def_cfa 8, 0
 323 0018 93040500 		mv	s1,a0
  32:src/../h/Queue.h ****     kfree(first);
 324              		.loc 2 32 22 is_stmt 0
 325 001c 03350500 		ld	a0,0(a0)
 326              	.LVL25:
  32:src/../h/Queue.h ****     kfree(first);
 327              		.loc 2 32 11
 328 0020 03398500 		ld	s2,8(a0)
 329              	.LVL26:
  33:src/../h/Queue.h ****     first = newFirst;
 330              		.loc 2 33 10
 331 0024 97000000 		call	_Z5kfreePv@plt
 331      E7800000 
 332              	.LVL27:
  34:src/../h/Queue.h ****     if(first == 0)
 333              		.loc 2 34 5
 334 002c 23B02401 		sd	s2,0(s1)
  35:src/../h/Queue.h ****         first = last = 0;
 335              		.loc 2 35 5
 336 0030 630E0900 		beqz	s2,.L21
 337              	.L18:
  37:src/../h/Queue.h **** 
 338              		.loc 2 37 1
 339 0034 83308101 		ld	ra,24(sp)
 340              		.cfi_remember_state
 341              		.cfi_restore 1
 342 0038 03340101 		ld	s0,16(sp)
 343              		.cfi_restore 8
 344              		.cfi_def_cfa 2, 32
 345 003c 83348100 		ld	s1,8(sp)
 346              		.cfi_restore 9
 347              	.LVL28:
 348 0040 03390100 		ld	s2,0(sp)
 349              		.cfi_restore 18
 350              	.LVL29:
 351 0044 13010102 		addi	sp,sp,32
 352              		.cfi_def_cfa_offset 0
 353 0048 67800000 		jr	ra
 354              	.LVL30:
 355              	.L21:
 356              		.cfi_restore_state
  36:src/../h/Queue.h **** }
GAS LISTING /tmp/cc6j8WUU.s 			page 10


 357              		.loc 2 36 9
 358 004c 23B40400 		sd	zero,8(s1)
 359 0050 23B00400 		sd	zero,0(s1)
  37:src/../h/Queue.h **** 
 360              		.loc 2 37 1
 361 0054 6FF01FFE 		j	.L18
 362              		.cfi_endproc
 363              	.LFE39:
 365              		.text
 366              		.align	2
 367              		.globl	_ZN9Scheduler3getEv
 369              	_ZN9Scheduler3getEv:
 370              	.LFB28:
  22:src/Scheduler.cpp ****     if(scheduler == 0)
 371              		.loc 1 22 23 is_stmt 1
 372              		.cfi_startproc
 373 00fc 130101FE 		addi	sp,sp,-32
 374              		.cfi_def_cfa_offset 32
 375 0100 233C1100 		sd	ra,24(sp)
 376 0104 23388100 		sd	s0,16(sp)
 377 0108 23349100 		sd	s1,8(sp)
 378 010c 23302101 		sd	s2,0(sp)
 379              		.cfi_offset 1, -8
 380              		.cfi_offset 8, -16
 381              		.cfi_offset 9, -24
 382              		.cfi_offset 18, -32
 383 0110 13040102 		addi	s0,sp,32
 384              		.cfi_def_cfa 8, 0
  23:src/Scheduler.cpp ****         scheduler = new Scheduler();
 385              		.loc 1 23 5
  23:src/Scheduler.cpp ****         scheduler = new Scheduler();
 386              		.loc 1 23 18 is_stmt 0
 387 0114 97070000 		ld	a5,.LANCHOR0
 387      83B70700 
  23:src/Scheduler.cpp ****         scheduler = new Scheduler();
 388              		.loc 1 23 5
 389 011c 63820704 		beqz	a5,.L25
 390              	.L23:
  25:src/Scheduler.cpp ****     scheduler->queuePCB.pop();
 391              		.loc 1 25 5 is_stmt 1
  25:src/Scheduler.cpp ****     scheduler->queuePCB.pop();
 392              		.loc 1 25 26 is_stmt 0
 393 0120 17090000 		ld	s2,.LANCHOR0
 393      03390900 
  25:src/Scheduler.cpp ****     scheduler->queuePCB.pop();
 394              		.loc 1 25 40
 395 0128 13050900 		mv	a0,s2
 396 012c 97000000 		call	_ZN5QueueIP3PCBE5frontEv
 396      E7800000 
 397              	.LVL31:
 398 0134 93040500 		mv	s1,a0
 399              	.LVL32:
  26:src/Scheduler.cpp ****     return fr;
 400              		.loc 1 26 5 is_stmt 1
  26:src/Scheduler.cpp ****     return fr;
 401              		.loc 1 26 28 is_stmt 0
 402 0138 13050900 		mv	a0,s2
GAS LISTING /tmp/cc6j8WUU.s 			page 11


 403 013c 97000000 		call	_ZN5QueueIP3PCBE3popEv
 403      E7800000 
 404              	.LVL33:
  27:src/Scheduler.cpp **** }
 405              		.loc 1 27 5 is_stmt 1
  28:src/Scheduler.cpp **** 
 406              		.loc 1 28 1 is_stmt 0
 407 0144 13850400 		mv	a0,s1
 408 0148 83308101 		ld	ra,24(sp)
 409              		.cfi_remember_state
 410              		.cfi_restore 1
 411 014c 03340101 		ld	s0,16(sp)
 412              		.cfi_restore 8
 413              		.cfi_def_cfa 2, 32
 414 0150 83348100 		ld	s1,8(sp)
 415              		.cfi_restore 9
 416              	.LVL34:
 417 0154 03390100 		ld	s2,0(sp)
 418              		.cfi_restore 18
 419 0158 13010102 		addi	sp,sp,32
 420              		.cfi_def_cfa_offset 0
 421 015c 67800000 		jr	ra
 422              	.LVL35:
 423              	.L25:
 424              		.cfi_restore_state
  24:src/Scheduler.cpp ****     PCB* fr = scheduler->queuePCB.front();
 425              		.loc 1 24 9 is_stmt 1
  24:src/Scheduler.cpp ****     PCB* fr = scheduler->queuePCB.front();
 426              		.loc 1 24 35 is_stmt 0
 427 0160 13050001 		li	a0,16
 428 0164 97000000 		call	_ZN9SchedulernwEm
 428      E7800000 
 429              	.LVL36:
 430 016c 93040500 		mv	s1,a0
 431 0170 23300500 		sd	zero,0(a0)
 432 0174 23340500 		sd	zero,8(a0)
 433              	.LVL37:
 434              	.LBB11:
 435              	.LBB12:
 436              		.loc 3 14 7
 437 0178 97000000 		call	_ZN5QueueIP3PCBEC1Ev
 437      E7800000 
 438              	.LVL38:
 439              	.LBE12:
 440              	.LBE11:
  24:src/Scheduler.cpp ****     PCB* fr = scheduler->queuePCB.front();
 441              		.loc 1 24 19
 442 0180 97070000 		sd	s1,.LANCHOR0,a5
 442      23B09700 
 443 0188 6FF09FF9 		j	.L23
 444              		.cfi_endproc
 445              	.LFE28:
 447              		.globl	_ZN9Scheduler9schedulerE
 448              		.bss
 449              		.align	3
 450              		.set	.LANCHOR0,. + 0
 453              	_ZN9Scheduler9schedulerE:
GAS LISTING /tmp/cc6j8WUU.s 			page 12


 454 0000 00000000 		.zero	8
 454      00000000 
 455              		.text
 456              	.Letext0:
 457              		.file 4 "src/../h/../lib/hw.h"
 458              		.file 5 "src/../h/PCB.h"
 459              		.file 6 "src/../h/Riscv.h"
 460              		.file 7 "src/../h/MemoryAllocator.h"
GAS LISTING /tmp/cc6j8WUU.s 			page 13


DEFINED SYMBOLS
                            *ABS*:0000000000000000 Scheduler.cpp
     /tmp/cc6j8WUU.s:9      .text:0000000000000000 _ZN9SchedulernwEm
     /tmp/cc6j8WUU.s:13     .text:0000000000000000 .L0 
     /tmp/cc6j8WUU.s:15     .text:0000000000000000 .L0 
     /tmp/cc6j8WUU.s:16     .text:0000000000000004 .L0 
     /tmp/cc6j8WUU.s:19     .text:000000000000000c .L0 
     /tmp/cc6j8WUU.s:20     .text:000000000000000c .L0 
     /tmp/cc6j8WUU.s:22     .text:0000000000000010 .L0 
     /tmp/cc6j8WUU.s:24     .text:0000000000000010 .L0 
     /tmp/cc6j8WUU.s:25     .text:0000000000000010 .L0 
     /tmp/cc6j8WUU.s:28     .text:0000000000000018 .L0 
     /tmp/cc6j8WUU.s:29     .text:000000000000001c .L0 
     /tmp/cc6j8WUU.s:31     .text:0000000000000020 .L0 
     /tmp/cc6j8WUU.s:32     .text:0000000000000020 .L0 
     /tmp/cc6j8WUU.s:34     .text:0000000000000024 .L0 
     /tmp/cc6j8WUU.s:36     .text:0000000000000028 .L0 
     /tmp/cc6j8WUU.s:42     .text:0000000000000028 _ZN9SchedulerdlEPv
     /tmp/cc6j8WUU.s:45     .text:0000000000000028 .L0 
     /tmp/cc6j8WUU.s:47     .text:0000000000000028 .L0 
     /tmp/cc6j8WUU.s:48     .text:000000000000002c .L0 
     /tmp/cc6j8WUU.s:51     .text:0000000000000034 .L0 
     /tmp/cc6j8WUU.s:52     .text:0000000000000034 .L0 
     /tmp/cc6j8WUU.s:54     .text:0000000000000038 .L0 
     /tmp/cc6j8WUU.s:56     .text:0000000000000038 .L0 
     /tmp/cc6j8WUU.s:57     .text:0000000000000038 .L0 
     /tmp/cc6j8WUU.s:60     .text:0000000000000040 .L0 
     /tmp/cc6j8WUU.s:61     .text:0000000000000044 .L0 
     /tmp/cc6j8WUU.s:63     .text:0000000000000048 .L0 
     /tmp/cc6j8WUU.s:64     .text:0000000000000048 .L0 
     /tmp/cc6j8WUU.s:66     .text:000000000000004c .L0 
     /tmp/cc6j8WUU.s:68     .text:0000000000000050 .L0 
     /tmp/cc6j8WUU.s:75     .text._ZN5QueueIP3PCBEC2Ev:0000000000000000 _ZN5QueueIP3PCBEC2Ev
     /tmp/cc6j8WUU.s:79     .text._ZN5QueueIP3PCBEC2Ev:0000000000000000 .L0 
     /tmp/cc6j8WUU.s:81     .text._ZN5QueueIP3PCBEC2Ev:0000000000000000 .L0 
     /tmp/cc6j8WUU.s:82     .text._ZN5QueueIP3PCBEC2Ev:0000000000000004 .L0 
     /tmp/cc6j8WUU.s:84     .text._ZN5QueueIP3PCBEC2Ev:0000000000000008 .L0 
     /tmp/cc6j8WUU.s:86     .text._ZN5QueueIP3PCBEC2Ev:000000000000000c .L0 
     /tmp/cc6j8WUU.s:89     .text._ZN5QueueIP3PCBEC2Ev:000000000000000c .L0 
     /tmp/cc6j8WUU.s:93     .text._ZN5QueueIP3PCBEC2Ev:0000000000000014 .L0 
     /tmp/cc6j8WUU.s:94     .text._ZN5QueueIP3PCBEC2Ev:0000000000000018 .L0 
     /tmp/cc6j8WUU.s:95     .text._ZN5QueueIP3PCBEC2Ev:0000000000000018 .L0 
     /tmp/cc6j8WUU.s:97     .text._ZN5QueueIP3PCBEC2Ev:000000000000001c .L0 
     /tmp/cc6j8WUU.s:99     .text._ZN5QueueIP3PCBEC2Ev:0000000000000020 .L0 
     /tmp/cc6j8WUU.s:75     .text._ZN5QueueIP3PCBEC2Ev:0000000000000000 _ZN5QueueIP3PCBEC1Ev
     /tmp/cc6j8WUU.s:108    .text._ZN5QueueIP3PCBE4pushES1_:0000000000000000 _ZN5QueueIP3PCBE4pushES1_
     /tmp/cc6j8WUU.s:111    .text._ZN5QueueIP3PCBE4pushES1_:0000000000000000 .L0 
     /tmp/cc6j8WUU.s:113    .text._ZN5QueueIP3PCBE4pushES1_:0000000000000000 .L0 
     /tmp/cc6j8WUU.s:114    .text._ZN5QueueIP3PCBE4pushES1_:0000000000000004 .L0 
     /tmp/cc6j8WUU.s:119    .text._ZN5QueueIP3PCBE4pushES1_:0000000000000014 .L0 
     /tmp/cc6j8WUU.s:120    .text._ZN5QueueIP3PCBE4pushES1_:0000000000000014 .L0 
     /tmp/cc6j8WUU.s:121    .text._ZN5QueueIP3PCBE4pushES1_:0000000000000014 .L0 
     /tmp/cc6j8WUU.s:122    .text._ZN5QueueIP3PCBE4pushES1_:0000000000000014 .L0 
     /tmp/cc6j8WUU.s:124    .text._ZN5QueueIP3PCBE4pushES1_:0000000000000018 .L0 
     /tmp/cc6j8WUU.s:128    .text._ZN5QueueIP3PCBE4pushES1_:0000000000000020 .L0 
     /tmp/cc6j8WUU.s:133    .text._ZN5QueueIP3PCBE4pushES1_:000000000000002c .L0 
     /tmp/cc6j8WUU.s:135    .text._ZN5QueueIP3PCBE4pushES1_:0000000000000030 .L0 
GAS LISTING /tmp/cc6j8WUU.s 			page 14


     /tmp/cc6j8WUU.s:137    .text._ZN5QueueIP3PCBE4pushES1_:0000000000000034 .L0 
     /tmp/cc6j8WUU.s:139    .text._ZN5QueueIP3PCBE4pushES1_:0000000000000038 .L0 
     /tmp/cc6j8WUU.s:142    .text._ZN5QueueIP3PCBE4pushES1_:000000000000003c .L0 
     /tmp/cc6j8WUU.s:143    .text._ZN5QueueIP3PCBE4pushES1_:0000000000000040 .L0 
     /tmp/cc6j8WUU.s:144    .text._ZN5QueueIP3PCBE4pushES1_:0000000000000040 .L0 
     /tmp/cc6j8WUU.s:146    .text._ZN5QueueIP3PCBE4pushES1_:0000000000000044 .L0 
     /tmp/cc6j8WUU.s:147    .text._ZN5QueueIP3PCBE4pushES1_:0000000000000044 .L0 
     /tmp/cc6j8WUU.s:149    .text._ZN5QueueIP3PCBE4pushES1_:0000000000000048 .L0 
     /tmp/cc6j8WUU.s:152    .text._ZN5QueueIP3PCBE4pushES1_:000000000000004c .L0 
     /tmp/cc6j8WUU.s:155    .text._ZN5QueueIP3PCBE4pushES1_:0000000000000050 .L0 
     /tmp/cc6j8WUU.s:159    .text._ZN5QueueIP3PCBE4pushES1_:0000000000000054 .L0 
     /tmp/cc6j8WUU.s:161    .text._ZN5QueueIP3PCBE4pushES1_:0000000000000054 .L0 
     /tmp/cc6j8WUU.s:163    .text._ZN5QueueIP3PCBE4pushES1_:0000000000000058 .L0 
     /tmp/cc6j8WUU.s:165    .text._ZN5QueueIP3PCBE4pushES1_:000000000000005c .L0 
     /tmp/cc6j8WUU.s:167    .text._ZN5QueueIP3PCBE4pushES1_:0000000000000060 .L0 
     /tmp/cc6j8WUU.s:168    .text._ZN5QueueIP3PCBE4pushES1_:0000000000000064 .L0 
     /tmp/cc6j8WUU.s:182    .text:0000000000000050 _ZN9Scheduler3putEP3PCB
     /tmp/cc6j8WUU.s:185    .text:0000000000000050 .L0 
     /tmp/cc6j8WUU.s:187    .text:0000000000000050 .L0 
     /tmp/cc6j8WUU.s:188    .text:0000000000000054 .L0 
     /tmp/cc6j8WUU.s:193    .text:0000000000000064 .L0 
     /tmp/cc6j8WUU.s:194    .text:0000000000000064 .L0 
     /tmp/cc6j8WUU.s:195    .text:0000000000000064 .L0 
     /tmp/cc6j8WUU.s:196    .text:0000000000000064 .L0 
     /tmp/cc6j8WUU.s:198    .text:0000000000000068 .L0 
     /tmp/cc6j8WUU.s:201    .text:000000000000006c .L0 
     /tmp/cc6j8WUU.s:202    .text:000000000000006c .L0 
     /tmp/cc6j8WUU.s:207    .text:0000000000000078 .L0 
     /tmp/cc6j8WUU.s:208    .text:0000000000000078 .L0 
     /tmp/cc6j8WUU.s:212    .text:0000000000000088 .L0 
     /tmp/cc6j8WUU.s:213    .text:0000000000000088 .L0 
     /tmp/cc6j8WUU.s:215    .text:0000000000000090 .L0 
     /tmp/cc6j8WUU.s:218    .text:0000000000000094 .L0 
     /tmp/cc6j8WUU.s:219    .text:0000000000000094 .L0 
     /tmp/cc6j8WUU.s:224    .text:00000000000000a8 .L0 
     /tmp/cc6j8WUU.s:225    .text:00000000000000a8 .L0 
     /tmp/cc6j8WUU.s:229    .text:00000000000000b8 .L0 
     /tmp/cc6j8WUU.s:230    .text:00000000000000bc .L0 
     /tmp/cc6j8WUU.s:231    .text:00000000000000bc .L0 
     /tmp/cc6j8WUU.s:233    .text:00000000000000c0 .L0 
     /tmp/cc6j8WUU.s:234    .text:00000000000000c0 .L0 
     /tmp/cc6j8WUU.s:236    .text:00000000000000c4 .L0 
     /tmp/cc6j8WUU.s:239    .text:00000000000000c8 .L0 
     /tmp/cc6j8WUU.s:241    .text:00000000000000cc .L0 
     /tmp/cc6j8WUU.s:245    .text:00000000000000d0 .L0 
     /tmp/cc6j8WUU.s:247    .text:00000000000000d0 .L0 
     /tmp/cc6j8WUU.s:248    .text:00000000000000d0 .L0 
     /tmp/cc6j8WUU.s:259    .text:00000000000000e8 .L0 
     /tmp/cc6j8WUU.s:264    .text:00000000000000f0 .L0 
     /tmp/cc6j8WUU.s:266    .text:00000000000000fc .L0 
     /tmp/cc6j8WUU.s:273    .text._ZN5QueueIP3PCBE5frontEv:0000000000000000 _ZN5QueueIP3PCBE5frontEv
     /tmp/cc6j8WUU.s:276    .text._ZN5QueueIP3PCBE5frontEv:0000000000000000 .L0 
     /tmp/cc6j8WUU.s:278    .text._ZN5QueueIP3PCBE5frontEv:0000000000000000 .L0 
     /tmp/cc6j8WUU.s:279    .text._ZN5QueueIP3PCBE5frontEv:0000000000000004 .L0 
     /tmp/cc6j8WUU.s:281    .text._ZN5QueueIP3PCBE5frontEv:0000000000000008 .L0 
     /tmp/cc6j8WUU.s:283    .text._ZN5QueueIP3PCBE5frontEv:000000000000000c .L0 
     /tmp/cc6j8WUU.s:285    .text._ZN5QueueIP3PCBE5frontEv:000000000000000c .L0 
GAS LISTING /tmp/cc6j8WUU.s 			page 15


     /tmp/cc6j8WUU.s:288    .text._ZN5QueueIP3PCBE5frontEv:0000000000000010 .L0 
     /tmp/cc6j8WUU.s:290    .text._ZN5QueueIP3PCBE5frontEv:0000000000000014 .L0 
     /tmp/cc6j8WUU.s:293    .text._ZN5QueueIP3PCBE5frontEv:0000000000000018 .L0 
     /tmp/cc6j8WUU.s:294    .text._ZN5QueueIP3PCBE5frontEv:000000000000001c .L0 
     /tmp/cc6j8WUU.s:295    .text._ZN5QueueIP3PCBE5frontEv:000000000000001c .L0 
     /tmp/cc6j8WUU.s:297    .text._ZN5QueueIP3PCBE5frontEv:0000000000000020 .L0 
     /tmp/cc6j8WUU.s:299    .text._ZN5QueueIP3PCBE5frontEv:0000000000000024 .L0 
     /tmp/cc6j8WUU.s:306    .text._ZN5QueueIP3PCBE3popEv:0000000000000000 _ZN5QueueIP3PCBE3popEv
     /tmp/cc6j8WUU.s:309    .text._ZN5QueueIP3PCBE3popEv:0000000000000000 .L0 
     /tmp/cc6j8WUU.s:311    .text._ZN5QueueIP3PCBE3popEv:0000000000000000 .L0 
     /tmp/cc6j8WUU.s:312    .text._ZN5QueueIP3PCBE3popEv:0000000000000004 .L0 
     /tmp/cc6j8WUU.s:317    .text._ZN5QueueIP3PCBE3popEv:0000000000000014 .L0 
     /tmp/cc6j8WUU.s:318    .text._ZN5QueueIP3PCBE3popEv:0000000000000014 .L0 
     /tmp/cc6j8WUU.s:319    .text._ZN5QueueIP3PCBE3popEv:0000000000000014 .L0 
     /tmp/cc6j8WUU.s:320    .text._ZN5QueueIP3PCBE3popEv:0000000000000014 .L0 
     /tmp/cc6j8WUU.s:322    .text._ZN5QueueIP3PCBE3popEv:0000000000000018 .L0 
     /tmp/cc6j8WUU.s:325    .text._ZN5QueueIP3PCBE3popEv:000000000000001c .L0 
     /tmp/cc6j8WUU.s:328    .text._ZN5QueueIP3PCBE3popEv:0000000000000020 .L0 
     /tmp/cc6j8WUU.s:331    .text._ZN5QueueIP3PCBE3popEv:0000000000000024 .L0 
     /tmp/cc6j8WUU.s:334    .text._ZN5QueueIP3PCBE3popEv:000000000000002c .L0 
     /tmp/cc6j8WUU.s:336    .text._ZN5QueueIP3PCBE3popEv:0000000000000030 .L0 
     /tmp/cc6j8WUU.s:339    .text._ZN5QueueIP3PCBE3popEv:0000000000000034 .L0 
     /tmp/cc6j8WUU.s:340    .text._ZN5QueueIP3PCBE3popEv:0000000000000038 .L0 
     /tmp/cc6j8WUU.s:341    .text._ZN5QueueIP3PCBE3popEv:0000000000000038 .L0 
     /tmp/cc6j8WUU.s:343    .text._ZN5QueueIP3PCBE3popEv:000000000000003c .L0 
     /tmp/cc6j8WUU.s:344    .text._ZN5QueueIP3PCBE3popEv:000000000000003c .L0 
     /tmp/cc6j8WUU.s:346    .text._ZN5QueueIP3PCBE3popEv:0000000000000040 .L0 
     /tmp/cc6j8WUU.s:349    .text._ZN5QueueIP3PCBE3popEv:0000000000000044 .L0 
     /tmp/cc6j8WUU.s:352    .text._ZN5QueueIP3PCBE3popEv:0000000000000048 .L0 
     /tmp/cc6j8WUU.s:356    .text._ZN5QueueIP3PCBE3popEv:000000000000004c .L0 
     /tmp/cc6j8WUU.s:358    .text._ZN5QueueIP3PCBE3popEv:000000000000004c .L0 
     /tmp/cc6j8WUU.s:361    .text._ZN5QueueIP3PCBE3popEv:0000000000000054 .L0 
     /tmp/cc6j8WUU.s:362    .text._ZN5QueueIP3PCBE3popEv:0000000000000058 .L0 
     /tmp/cc6j8WUU.s:369    .text:00000000000000fc _ZN9Scheduler3getEv
     /tmp/cc6j8WUU.s:372    .text:00000000000000fc .L0 
     /tmp/cc6j8WUU.s:373    .text:00000000000000fc .L0 
     /tmp/cc6j8WUU.s:374    .text:0000000000000100 .L0 
     /tmp/cc6j8WUU.s:379    .text:0000000000000110 .L0 
     /tmp/cc6j8WUU.s:380    .text:0000000000000110 .L0 
     /tmp/cc6j8WUU.s:381    .text:0000000000000110 .L0 
     /tmp/cc6j8WUU.s:382    .text:0000000000000110 .L0 
     /tmp/cc6j8WUU.s:384    .text:0000000000000114 .L0 
     /tmp/cc6j8WUU.s:386    .text:0000000000000114 .L0 
     /tmp/cc6j8WUU.s:387    .text:0000000000000114 .L0 
     /tmp/cc6j8WUU.s:389    .text:000000000000011c .L0 
     /tmp/cc6j8WUU.s:392    .text:0000000000000120 .L0 
     /tmp/cc6j8WUU.s:393    .text:0000000000000120 .L0 
     /tmp/cc6j8WUU.s:395    .text:0000000000000128 .L0 
     /tmp/cc6j8WUU.s:401    .text:0000000000000138 .L0 
     /tmp/cc6j8WUU.s:402    .text:0000000000000138 .L0 
     /tmp/cc6j8WUU.s:406    .text:0000000000000144 .L0 
     /tmp/cc6j8WUU.s:407    .text:0000000000000144 .L0 
     /tmp/cc6j8WUU.s:409    .text:000000000000014c .L0 
     /tmp/cc6j8WUU.s:410    .text:000000000000014c .L0 
     /tmp/cc6j8WUU.s:412    .text:0000000000000150 .L0 
     /tmp/cc6j8WUU.s:413    .text:0000000000000150 .L0 
     /tmp/cc6j8WUU.s:415    .text:0000000000000154 .L0 
GAS LISTING /tmp/cc6j8WUU.s 			page 16


     /tmp/cc6j8WUU.s:418    .text:0000000000000158 .L0 
     /tmp/cc6j8WUU.s:420    .text:000000000000015c .L0 
     /tmp/cc6j8WUU.s:424    .text:0000000000000160 .L0 
     /tmp/cc6j8WUU.s:426    .text:0000000000000160 .L0 
     /tmp/cc6j8WUU.s:427    .text:0000000000000160 .L0 
     /tmp/cc6j8WUU.s:437    .text:0000000000000178 .L0 
     /tmp/cc6j8WUU.s:442    .text:0000000000000180 .L0 
     /tmp/cc6j8WUU.s:444    .text:000000000000018c .L0 
     /tmp/cc6j8WUU.s:453    .bss:0000000000000000 _ZN9Scheduler9schedulerE
     /tmp/cc6j8WUU.s:450    .bss:0000000000000000 .LANCHOR0
     /tmp/cc6j8WUU.s:461    .text:000000000000018c .L0 
     /tmp/cc6j8WUU.s:104    .text._ZN5QueueIP3PCBEC2Ev:0000000000000020 .L0 
     /tmp/cc6j8WUU.s:171    .text._ZN5QueueIP3PCBE4pushES1_:0000000000000064 .L0 
     /tmp/cc6j8WUU.s:302    .text._ZN5QueueIP3PCBE5frontEv:0000000000000024 .L0 
     /tmp/cc6j8WUU.s:365    .text._ZN5QueueIP3PCBE3popEv:0000000000000058 .L0 
     /tmp/cc6j8WUU.s:173    .rodata.str1.8:0000000000000000 .LC0
     /tmp/cc6j8WUU.s:208    .text:0000000000000078 .L0 
     /tmp/cc6j8WUU.s:213    .text:0000000000000088 .L0 
     /tmp/cc6j8WUU.s:220    .text:0000000000000098 .L0 
     /tmp/cc6j8WUU.s:176    .rodata.str1.8:0000000000000010 .LC1
     /tmp/cc6j8WUU.s:225    .text:00000000000000a8 .L0 
     /tmp/cc6j8WUU.s:264    .text:00000000000000f0 .L0 
     /tmp/cc6j8WUU.s:387    .text:0000000000000114 .L0 
     /tmp/cc6j8WUU.s:393    .text:0000000000000120 .L0 
     /tmp/cc6j8WUU.s:442    .text:0000000000000180 .L0 
     /tmp/cc6j8WUU.s:244    .text:00000000000000d0 .L14
     /tmp/cc6j8WUU.s:216    .text:0000000000000094 .L12
     /tmp/cc6j8WUU.s:423    .text:0000000000000160 .L25
     /tmp/cc6j8WUU.s:390    .text:0000000000000120 .L23
     /tmp/cc6j8WUU.s:158    .text._ZN5QueueIP3PCBE4pushES1_:0000000000000054 .L10
     /tmp/cc6j8WUU.s:140    .text._ZN5QueueIP3PCBE4pushES1_:000000000000003c .L7
     /tmp/cc6j8WUU.s:291    .text._ZN5QueueIP3PCBE5frontEv:0000000000000018 .L15
     /tmp/cc6j8WUU.s:355    .text._ZN5QueueIP3PCBE3popEv:000000000000004c .L21
     /tmp/cc6j8WUU.s:337    .text._ZN5QueueIP3PCBE3popEv:0000000000000034 .L18
     /tmp/cc6j8WUU.s:1747   .debug_abbrev:0000000000000000 .Ldebug_abbrev0
     /tmp/cc6j8WUU.s:3108   .debug_str:0000000000000487 .LASF135
     /tmp/cc6j8WUU.s:3066   .debug_str:000000000000034a .LASF136
     /tmp/cc6j8WUU.s:3198   .debug_str:000000000000078d .LASF137
     /tmp/cc6j8WUU.s:2940   .debug_ranges:0000000000000000 .Ldebug_ranges0
     /tmp/cc6j8WUU.s:2954   .debug_line:0000000000000000 .Ldebug_line0
     /tmp/cc6j8WUU.s:3056   .debug_str:0000000000000311 .LASF0
     /tmp/cc6j8WUU.s:3084   .debug_str:00000000000003ea .LASF1
     /tmp/cc6j8WUU.s:3150   .debug_str:0000000000000642 .LASF2
     /tmp/cc6j8WUU.s:3156   .debug_str:000000000000067d .LASF4
     /tmp/cc6j8WUU.s:3070   .debug_str:0000000000000369 .LASF3
     /tmp/cc6j8WUU.s:2966   .debug_str:000000000000004b .LASF5
     /tmp/cc6j8WUU.s:3134   .debug_str:00000000000005e0 .LASF6
     /tmp/cc6j8WUU.s:3126   .debug_str:000000000000059b .LASF7
     /tmp/cc6j8WUU.s:3076   .debug_str:00000000000003a5 .LASF8
     /tmp/cc6j8WUU.s:3036   .debug_str:0000000000000260 .LASF9
     /tmp/cc6j8WUU.s:3040   .debug_str:000000000000028c .LASF10
     /tmp/cc6j8WUU.s:2998   .debug_str:000000000000016d .LASF11
     /tmp/cc6j8WUU.s:3026   .debug_str:0000000000000228 .LASF12
     /tmp/cc6j8WUU.s:3006   .debug_str:00000000000001ab .LASF13
     /tmp/cc6j8WUU.s:2996   .debug_str:000000000000015d .LASF14
     /tmp/cc6j8WUU.s:3176   .debug_str:000000000000070b .LASF15
     /tmp/cc6j8WUU.s:3022   .debug_str:0000000000000206 .LASF16
GAS LISTING /tmp/cc6j8WUU.s 			page 17


     /tmp/cc6j8WUU.s:3170   .debug_str:00000000000006e6 .LASF17
     /tmp/cc6j8WUU.s:3234   .debug_str:0000000000000884 .LASF29
     /tmp/cc6j8WUU.s:3212   .debug_str:00000000000007f4 .LASF18
     /tmp/cc6j8WUU.s:3080   .debug_str:00000000000003cb .LASF19
     /tmp/cc6j8WUU.s:3000   .debug_str:000000000000017c .LASF20
     /tmp/cc6j8WUU.s:3182   .debug_str:0000000000000728 .LASF21
     /tmp/cc6j8WUU.s:3096   .debug_str:000000000000042e .LASF22
     /tmp/cc6j8WUU.s:3106   .debug_str:0000000000000470 .LASF32
     /tmp/cc6j8WUU.s:3210   .debug_str:00000000000007ee .LASF41
     /tmp/cc6j8WUU.s:2964   .debug_str:0000000000000032 .LASF43
     /tmp/cc6j8WUU.s:3058   .debug_str:000000000000031e .LASF23
     /tmp/cc6j8WUU.s:3190   .debug_str:0000000000000745 .LASF25
     /tmp/cc6j8WUU.s:3200   .debug_str:00000000000007b0 .LASF24
     /tmp/cc6j8WUU.s:3152   .debug_str:0000000000000650 .LASF26
     /tmp/cc6j8WUU.s:3140   .debug_str:00000000000005fa .LASF27
     /tmp/cc6j8WUU.s:3122   .debug_str:0000000000000573 .LASF28
     /tmp/cc6j8WUU.s:3180   .debug_str:0000000000000720 .LASF30
     /tmp/cc6j8WUU.s:3048   .debug_str:00000000000002cf .LASF31
     /tmp/cc6j8WUU.s:3214   .debug_str:00000000000007f9 .LASF33
     /tmp/cc6j8WUU.s:3120   .debug_str:000000000000056e .LASF138
     /tmp/cc6j8WUU.s:3240   .debug_str:00000000000008ae .LASF34
     /tmp/cc6j8WUU.s:3192   .debug_str:000000000000075f .LASF35
     /tmp/cc6j8WUU.s:3018   .debug_str:00000000000001f7 .LASF66
     /tmp/cc6j8WUU.s:2978   .debug_str:000000000000009e .LASF68
     /tmp/cc6j8WUU.s:3088   .debug_str:0000000000000406 .LASF51
     /tmp/cc6j8WUU.s:3128   .debug_str:00000000000005ae .LASF53
     /tmp/cc6j8WUU.s:3188   .debug_str:000000000000073d .LASF39
     /tmp/cc6j8WUU.s:3168   .debug_str:00000000000006d8 .LASF36
     /tmp/cc6j8WUU.s:3136   .debug_str:00000000000005e7 .LASF37
     /tmp/cc6j8WUU.s:3014   .debug_str:00000000000001d5 .LASF38
     /tmp/cc6j8WUU.s:3164   .debug_str:00000000000006ac .LASF40
     /tmp/cc6j8WUU.s:3092   .debug_str:0000000000000415 .LASF42
     /tmp/cc6j8WUU.s:3100   .debug_str:000000000000043b .LASF44
     /tmp/cc6j8WUU.s:2984   .debug_str:00000000000000f4 .LASF45
     /tmp/cc6j8WUU.s:3042   .debug_str:000000000000029a .LASF46
     /tmp/cc6j8WUU.s:3114   .debug_str:0000000000000546 .LASF47
     /tmp/cc6j8WUU.s:3004   .debug_str:0000000000000194 .LASF48
     /tmp/cc6j8WUU.s:3248   .debug_str:00000000000008e5 .LASF49
     /tmp/cc6j8WUU.s:3024   .debug_str:000000000000021c .LASF50
     /tmp/cc6j8WUU.s:2960   .debug_str:000000000000001a .LASF52
     /tmp/cc6j8WUU.s:3068   .debug_str:000000000000035c .LASF54
     /tmp/cc6j8WUU.s:3196   .debug_str:0000000000000783 .LASF55
     /tmp/cc6j8WUU.s:3010   .debug_str:00000000000001c0 .LASF139
     /tmp/cc6j8WUU.s:2982   .debug_str:00000000000000cc .LASF140
     /tmp/cc6j8WUU.s:3230   .debug_str:0000000000000867 .LASF141
     /tmp/cc6j8WUU.s:2992   .debug_str:0000000000000138 .LASF142
     /tmp/cc6j8WUU.s:2958   .debug_str:0000000000000015 .LASF56
     /tmp/cc6j8WUU.s:3244   .debug_str:00000000000008c8 .LASF57
     /tmp/cc6j8WUU.s:3202   .debug_str:00000000000007b6 .LASF58
     /tmp/cc6j8WUU.s:3186   .debug_str:0000000000000733 .LASF59
     /tmp/cc6j8WUU.s:3178   .debug_str:0000000000000717 .LASF60
     /tmp/cc6j8WUU.s:3034   .debug_str:0000000000000256 .LASF61
     /tmp/cc6j8WUU.s:2972   .debug_str:0000000000000067 .LASF143
     /tmp/cc6j8WUU.s:3242   .debug_str:00000000000008b4 .LASF144
     /tmp/cc6j8WUU.s:2986   .debug_str:0000000000000100 .LASF62
     /tmp/cc6j8WUU.s:3124   .debug_str:0000000000000588 .LASF63
     /tmp/cc6j8WUU.s:2974   .debug_str:000000000000007f .LASF64
GAS LISTING /tmp/cc6j8WUU.s 			page 18


     /tmp/cc6j8WUU.s:2970   .debug_str:000000000000005d .LASF145
     /tmp/cc6j8WUU.s:3238   .debug_str:000000000000089c .LASF146
     /tmp/cc6j8WUU.s:3222   .debug_str:0000000000000835 .LASF65
     /tmp/cc6j8WUU.s:3112   .debug_str:000000000000053b .LASF67
     /tmp/cc6j8WUU.s:3104   .debug_str:0000000000000458 .LASF69
     /tmp/cc6j8WUU.s:3236   .debug_str:0000000000000890 .LASF70
     /tmp/cc6j8WUU.s:2980   .debug_str:00000000000000b1 .LASF71
     /tmp/cc6j8WUU.s:3132   .debug_str:00000000000005d3 .LASF72
     /tmp/cc6j8WUU.s:3082   .debug_str:00000000000003d0 .LASF73
     /tmp/cc6j8WUU.s:3162   .debug_str:000000000000069e .LASF74
     /tmp/cc6j8WUU.s:3166   .debug_str:00000000000006bd .LASF75
     /tmp/cc6j8WUU.s:3060   .debug_str:0000000000000323 .LASF76
     /tmp/cc6j8WUU.s:3226   .debug_str:0000000000000845 .LASF77
     /tmp/cc6j8WUU.s:3086   .debug_str:00000000000003fd .LASF78
     /tmp/cc6j8WUU.s:3204   .debug_str:00000000000007be .LASF82
     /tmp/cc6j8WUU.s:3146   .debug_str:000000000000062e .LASF79
     /tmp/cc6j8WUU.s:3118   .debug_str:0000000000000559 .LASF80
     /tmp/cc6j8WUU.s:3138   .debug_str:00000000000005f3 .LASF81
     /tmp/cc6j8WUU.s:2990   .debug_str:0000000000000125 .LASF83
     /tmp/cc6j8WUU.s:3116   .debug_str:0000000000000552 .LASF84
     /tmp/cc6j8WUU.s:3078   .debug_str:00000000000003b8 .LASF85
     /tmp/cc6j8WUU.s:3228   .debug_str:000000000000085f .LASF86
     /tmp/cc6j8WUU.s:3194   .debug_str:000000000000076f .LASF87
     /tmp/cc6j8WUU.s:3074   .debug_str:000000000000039d .LASF88
     /tmp/cc6j8WUU.s:3028   .debug_str:0000000000000237 .LASF89
     /tmp/cc6j8WUU.s:3098   .debug_str:0000000000000433 .LASF90
     /tmp/cc6j8WUU.s:3142   .debug_str:0000000000000601 .LASF91
     /tmp/cc6j8WUU.s:3254   .debug_str:000000000000090c .LASF92
     /tmp/cc6j8WUU.s:3064   .debug_str:0000000000000336 .LASF93
     /tmp/cc6j8WUU.s:3174   .debug_str:0000000000000704 .LASF94
     /tmp/cc6j8WUU.s:3158   .debug_str:0000000000000684 .LASF95
     /tmp/cc6j8WUU.s:3160   .debug_str:0000000000000697 .LASF96
     /tmp/cc6j8WUU.s:3002   .debug_str:0000000000000181 .LASF97
     /tmp/cc6j8WUU.s:3020   .debug_str:0000000000000200 .LASF98
     /tmp/cc6j8WUU.s:3052   .debug_str:00000000000002e7 .LASF99
     /tmp/cc6j8WUU.s:3062   .debug_str:0000000000000330 .LASF100
     /tmp/cc6j8WUU.s:3016   .debug_str:00000000000001e5 .LASF101
     /tmp/cc6j8WUU.s:2968   .debug_str:0000000000000052 .LASF102
     /tmp/cc6j8WUU.s:3154   .debug_str:0000000000000665 .LASF103
     /tmp/cc6j8WUU.s:3148   .debug_str:0000000000000637 .LASF104
     /tmp/cc6j8WUU.s:3246   .debug_str:00000000000008cd .LASF105
     /tmp/cc6j8WUU.s:3224   .debug_str:000000000000083b .LASF106
     /tmp/cc6j8WUU.s:3232   .debug_str:000000000000086e .LASF107
     /tmp/cc6j8WUU.s:3218   .debug_str:0000000000000823 .LASF108
     /tmp/cc6j8WUU.s:2976   .debug_str:0000000000000088 .LASF109
     /tmp/cc6j8WUU.s:3046   .debug_str:00000000000002c4 .LASF110
     /tmp/cc6j8WUU.s:3054   .debug_str:00000000000002f9 .LASF111
     /tmp/cc6j8WUU.s:3208   .debug_str:00000000000007df .LASF112
     /tmp/cc6j8WUU.s:3038   .debug_str:0000000000000270 .LASF113
     /tmp/cc6j8WUU.s:3130   .debug_str:00000000000005be .LASF114
     /tmp/cc6j8WUU.s:3072   .debug_str:000000000000037b .LASF115
     /tmp/cc6j8WUU.s:3012   .debug_str:00000000000001ce .LASF116
     /tmp/cc6j8WUU.s:2962   .debug_str:000000000000002a .LASF117
     /tmp/cc6j8WUU.s:3250   .debug_str:00000000000008f2 .LASF118
     /tmp/cc6j8WUU.s:3206   .debug_str:00000000000007d3 .LASF119
     /tmp/cc6j8WUU.s:2988   .debug_str:0000000000000112 .LASF120
     /tmp/cc6j8WUU.s:3110   .debug_str:0000000000000529 .LASF121
GAS LISTING /tmp/cc6j8WUU.s 			page 19


     /tmp/cc6j8WUU.s:3044   .debug_str:00000000000002b1 .LASF122
     /tmp/cc6j8WUU.s:3216   .debug_str:0000000000000810 .LASF123
     /tmp/cc6j8WUU.s:2994   .debug_str:0000000000000149 .LASF124
     /tmp/cc6j8WUU.s:3184   .debug_str:000000000000072e .LASF125
     /tmp/cc6j8WUU.s:3102   .debug_str:0000000000000453 .LASF126
     /tmp/cc6j8WUU.s:3144   .debug_str:0000000000000615 .LASF147
     /tmp/cc6j8WUU.s:307    .text._ZN5QueueIP3PCBE3popEv:0000000000000000 .LFB39
     /tmp/cc6j8WUU.s:363    .text._ZN5QueueIP3PCBE3popEv:0000000000000058 .LFE39
     /tmp/cc6j8WUU.s:3030   .debug_str:000000000000024b .LASF128
     /tmp/cc6j8WUU.s:2749   .debug_loc:0000000000000000 .LLST7
     /tmp/cc6j8WUU.s:3090   .debug_str:000000000000040c .LASF127
     /tmp/cc6j8WUU.s:2771   .debug_loc:000000000000005f .LLST8
     /tmp/cc6j8WUU.s:332    .text._ZN5QueueIP3PCBE3popEv:000000000000002c .LVL27
     /tmp/cc6j8WUU.s:274    .text._ZN5QueueIP3PCBE5frontEv:0000000000000000 .LFB38
     /tmp/cc6j8WUU.s:300    .text._ZN5QueueIP3PCBE5frontEv:0000000000000024 .LFE38
     /tmp/cc6j8WUU.s:2782   .debug_loc:0000000000000095 .LLST6
     /tmp/cc6j8WUU.s:109    .text._ZN5QueueIP3PCBE4pushES1_:0000000000000000 .LFB37
     /tmp/cc6j8WUU.s:169    .text._ZN5QueueIP3PCBE4pushES1_:0000000000000064 .LFE37
     /tmp/cc6j8WUU.s:2796   .debug_loc:00000000000000ce .LLST2
     /tmp/cc6j8WUU.s:2818   .debug_loc:000000000000012d .LLST3
     /tmp/cc6j8WUU.s:3172   .debug_str:00000000000006fc .LASF129
     /tmp/cc6j8WUU.s:131    .text._ZN5QueueIP3PCBE4pushES1_:000000000000002c .LVL7
     /tmp/cc6j8WUU.s:2956   .debug_str:0000000000000000 .LASF148
     /tmp/cc6j8WUU.s:76     .text._ZN5QueueIP3PCBEC2Ev:0000000000000000 .LFB32
     /tmp/cc6j8WUU.s:100    .text._ZN5QueueIP3PCBEC2Ev:0000000000000020 .LFE32
     /tmp/cc6j8WUU.s:43     .text:0000000000000028 .LFB30
     /tmp/cc6j8WUU.s:69     .text:0000000000000050 .LFE30
     /tmp/cc6j8WUU.s:2840   .debug_loc:000000000000018c .LLST1
     /tmp/cc6j8WUU.s:58     .text:0000000000000040 .LVL3
     /tmp/cc6j8WUU.s:10     .text:0000000000000000 .LFB29
     /tmp/cc6j8WUU.s:37     .text:0000000000000028 .LFE29
     /tmp/cc6j8WUU.s:3008   .debug_str:00000000000001bb .LASF130
     /tmp/cc6j8WUU.s:2854   .debug_loc:00000000000001c5 .LLST0
     /tmp/cc6j8WUU.s:26     .text:0000000000000018 .LVL1
     /tmp/cc6j8WUU.s:370    .text:00000000000000fc .LFB28
     /tmp/cc6j8WUU.s:445    .text:000000000000018c .LFE28
     /tmp/cc6j8WUU.s:2868   .debug_loc:00000000000001fe .LLST9
     /tmp/cc6j8WUU.s:434    .text:0000000000000178 .LBB11
     /tmp/cc6j8WUU.s:440    .text:0000000000000180 .LBE11
     /tmp/cc6j8WUU.s:2879   .debug_loc:0000000000000234 .LLST10
     /tmp/cc6j8WUU.s:438    .text:0000000000000180 .LVL38
     /tmp/cc6j8WUU.s:397    .text:0000000000000134 .LVL31
     /tmp/cc6j8WUU.s:404    .text:0000000000000144 .LVL33
     /tmp/cc6j8WUU.s:429    .text:000000000000016c .LVL36
     /tmp/cc6j8WUU.s:183    .text:0000000000000050 .LFB24
     /tmp/cc6j8WUU.s:267    .text:00000000000000fc .LFE24
     /tmp/cc6j8WUU.s:2886   .debug_loc:0000000000000257 .LLST4
     /tmp/cc6j8WUU.s:255    .text:00000000000000e8 .LBB9
     /tmp/cc6j8WUU.s:262    .text:00000000000000f0 .LBE9
     /tmp/cc6j8WUU.s:2908   .debug_loc:00000000000002b6 .LLST5
     /tmp/cc6j8WUU.s:260    .text:00000000000000f0 .LVL21
     /tmp/cc6j8WUU.s:205    .text:0000000000000078 .LVL13
     /tmp/cc6j8WUU.s:210    .text:0000000000000088 .LVL14
     /tmp/cc6j8WUU.s:222    .text:00000000000000a8 .LVL15
     /tmp/cc6j8WUU.s:227    .text:00000000000000b8 .LVL16
     /tmp/cc6j8WUU.s:250    .text:00000000000000dc .LVL19
     /tmp/cc6j8WUU.s:3050   .debug_str:00000000000002d5 .LASF149
GAS LISTING /tmp/cc6j8WUU.s 			page 20


     /tmp/cc6j8WUU.s:3252   .debug_str:0000000000000901 .LASF131
     /tmp/cc6j8WUU.s:3032   .debug_str:0000000000000250 .LASF133
     /tmp/cc6j8WUU.s:3094   .debug_str:0000000000000422 .LASF132
     /tmp/cc6j8WUU.s:3220   .debug_str:000000000000082d .LASF134
     /tmp/cc6j8WUU.s:310    .text._ZN5QueueIP3PCBE3popEv:0000000000000000 .LVL24
     /tmp/cc6j8WUU.s:326    .text._ZN5QueueIP3PCBE3popEv:0000000000000020 .LVL25
     /tmp/cc6j8WUU.s:347    .text._ZN5QueueIP3PCBE3popEv:0000000000000040 .LVL28
     /tmp/cc6j8WUU.s:354    .text._ZN5QueueIP3PCBE3popEv:000000000000004c .LVL30
     /tmp/cc6j8WUU.s:329    .text._ZN5QueueIP3PCBE3popEv:0000000000000024 .LVL26
     /tmp/cc6j8WUU.s:350    .text._ZN5QueueIP3PCBE3popEv:0000000000000044 .LVL29
     /tmp/cc6j8WUU.s:277    .text._ZN5QueueIP3PCBE5frontEv:0000000000000000 .LVL22
     /tmp/cc6j8WUU.s:286    .text._ZN5QueueIP3PCBE5frontEv:0000000000000010 .LVL23
     /tmp/cc6j8WUU.s:112    .text._ZN5QueueIP3PCBE4pushES1_:0000000000000000 .LVL5
     /tmp/cc6j8WUU.s:129    .text._ZN5QueueIP3PCBE4pushES1_:0000000000000024 .LVL6
     /tmp/cc6j8WUU.s:150    .text._ZN5QueueIP3PCBE4pushES1_:0000000000000048 .LVL8
     /tmp/cc6j8WUU.s:157    .text._ZN5QueueIP3PCBE4pushES1_:0000000000000054 .LVL10
     /tmp/cc6j8WUU.s:153    .text._ZN5QueueIP3PCBE4pushES1_:000000000000004c .LVL9
     /tmp/cc6j8WUU.s:46     .text:0000000000000028 .LVL2
     /tmp/cc6j8WUU.s:14     .text:0000000000000000 .LVL0
     /tmp/cc6j8WUU.s:399    .text:0000000000000138 .LVL32
     /tmp/cc6j8WUU.s:416    .text:0000000000000154 .LVL34
     /tmp/cc6j8WUU.s:422    .text:0000000000000160 .LVL35
     /tmp/cc6j8WUU.s:433    .text:0000000000000178 .LVL37
     /tmp/cc6j8WUU.s:186    .text:0000000000000050 .LVL11
     /tmp/cc6j8WUU.s:203    .text:0000000000000070 .LVL12
     /tmp/cc6j8WUU.s:237    .text:00000000000000c4 .LVL17
     /tmp/cc6j8WUU.s:243    .text:00000000000000d0 .LVL18
     /tmp/cc6j8WUU.s:254    .text:00000000000000e8 .LVL20
     /tmp/cc6j8WUU.s:462    .debug_info:0000000000000000 .Ldebug_info0
     /tmp/cc6j8WUU.s:5      .text:0000000000000000 .Ltext0
     /tmp/cc6j8WUU.s:456    .text:000000000000018c .Letext0
                           .group:0000000000000000 _ZN5QueueIP3PCBEC5Ev

UNDEFINED SYMBOLS
_Z7kmallocm
_Z5kfreePv
_ZN5Riscv12printIntegerEm
_ZN5Riscv11printStringEPKc
