GAS LISTING /tmp/ccTOqXXk.s 			page 1


   1              		.file	"Scheduler.cpp"
   2              		.option pic
   3              		.option norelax
   4              		.text
   5              	.Ltext0:
   6              		.align	2
   7              		.globl	_ZN9SchedulernwEm
   9              	_ZN9SchedulernwEm:
  10              	.LFB24:
  11              		.file 1 "src/Scheduler.cpp"
   1:src/Scheduler.cpp **** //
   2:src/Scheduler.cpp **** // Created by os on 4/27/22.
   3:src/Scheduler.cpp **** //
   4:src/Scheduler.cpp **** 
   5:src/Scheduler.cpp **** #include "../h/Scheduler.h"
   6:src/Scheduler.cpp **** #include "../h/PCB.h"
   7:src/Scheduler.cpp **** 
   8:src/Scheduler.cpp **** //todo
   9:src/Scheduler.cpp **** Scheduler* Scheduler::scheduler = 0;
  10:src/Scheduler.cpp **** 
  11:src/Scheduler.cpp **** void Scheduler::put(PCB *pcb) {
  12:src/Scheduler.cpp ****     //Scheduler::queuePCB->push(pcb);
  13:src/Scheduler.cpp ****     //Riscv::printInteger(sizeof(Scheduler));
  14:src/Scheduler.cpp ****     //Riscv::printString("needs to put\n");
  15:src/Scheduler.cpp ****     pcb->setState(PCB::READY);
  16:src/Scheduler.cpp ****     if(scheduler == 0)
  17:src/Scheduler.cpp ****         scheduler = new Scheduler();
  18:src/Scheduler.cpp ****     scheduler->queuePCB.push(pcb);
  19:src/Scheduler.cpp ****     //Riscv::printString("put\n");
  20:src/Scheduler.cpp **** }
  21:src/Scheduler.cpp **** 
  22:src/Scheduler.cpp **** PCB *Scheduler::get() {
  23:src/Scheduler.cpp ****     if(scheduler == 0)
  24:src/Scheduler.cpp ****         scheduler = new Scheduler();
  25:src/Scheduler.cpp ****     PCB* fr = scheduler->queuePCB.front();
  26:src/Scheduler.cpp ****     scheduler->queuePCB.pop();
  27:src/Scheduler.cpp ****     return fr;
  28:src/Scheduler.cpp **** }
  29:src/Scheduler.cpp **** 
  30:src/Scheduler.cpp **** void *Scheduler::operator new(size_t size) {
  12              		.loc 1 30 44
  13              		.cfi_startproc
  14              	.LVL0:
  15 0000 130101FF 		addi	sp,sp,-16
  16              		.cfi_def_cfa_offset 16
  17 0004 23341100 		sd	ra,8(sp)
  18 0008 23308100 		sd	s0,0(sp)
  19              		.cfi_offset 1, -8
  20              		.cfi_offset 8, -16
  21 000c 13040101 		addi	s0,sp,16
  22              		.cfi_def_cfa 8, 0
  31:src/Scheduler.cpp ****     return kmalloc(size);
  23              		.loc 1 31 5
  24              		.loc 1 31 19 is_stmt 0
  25 0010 97000000 		call	_Z7kmallocm@plt
  25      E7800000 
  26              	.LVL1:
GAS LISTING /tmp/ccTOqXXk.s 			page 2


  32:src/Scheduler.cpp **** }
  27              		.loc 1 32 1
  28 0018 83308100 		ld	ra,8(sp)
  29              		.cfi_restore 1
  30 001c 03340100 		ld	s0,0(sp)
  31              		.cfi_restore 8
  32              		.cfi_def_cfa 2, 16
  33 0020 13010101 		addi	sp,sp,16
  34              		.cfi_def_cfa_offset 0
  35 0024 67800000 		jr	ra
  36              		.cfi_endproc
  37              	.LFE24:
  39              		.align	2
  40              		.globl	_ZN9SchedulerdlEPv
  42              	_ZN9SchedulerdlEPv:
  43              	.LFB25:
  33:src/Scheduler.cpp **** 
  34:src/Scheduler.cpp **** void Scheduler::operator delete(void *p) {
  44              		.loc 1 34 42 is_stmt 1
  45              		.cfi_startproc
  46              	.LVL2:
  47 0028 130101FF 		addi	sp,sp,-16
  48              		.cfi_def_cfa_offset 16
  49 002c 23341100 		sd	ra,8(sp)
  50 0030 23308100 		sd	s0,0(sp)
  51              		.cfi_offset 1, -8
  52              		.cfi_offset 8, -16
  53 0034 13040101 		addi	s0,sp,16
  54              		.cfi_def_cfa 8, 0
  35:src/Scheduler.cpp ****     //todo
  36:src/Scheduler.cpp ****     kfree(p);
  55              		.loc 1 36 5
  56              		.loc 1 36 10 is_stmt 0
  57 0038 97000000 		call	_Z5kfreePv@plt
  57      E7800000 
  58              	.LVL3:
  37:src/Scheduler.cpp **** }
  59              		.loc 1 37 1
  60 0040 83308100 		ld	ra,8(sp)
  61              		.cfi_restore 1
  62 0044 03340100 		ld	s0,0(sp)
  63              		.cfi_restore 8
  64              		.cfi_def_cfa 2, 16
  65 0048 13010101 		addi	sp,sp,16
  66              		.cfi_def_cfa_offset 0
  67 004c 67800000 		jr	ra
  68              		.cfi_endproc
  69              	.LFE25:
  71              		.align	2
  72              		.globl	_ZN9Scheduler3putEP3PCB
  74              	_ZN9Scheduler3putEP3PCB:
  75              	.LFB19:
  11:src/Scheduler.cpp ****     //Scheduler::queuePCB->push(pcb);
  76              		.loc 1 11 31 is_stmt 1
  77              		.cfi_startproc
  78              		.cfi_personality 0x9b,DW.ref.__gxx_personality_v0
  79              		.cfi_lsda 0x1b,.LLSDA19
GAS LISTING /tmp/ccTOqXXk.s 			page 3


  80              	.LVL4:
  81 0050 130101FE 		addi	sp,sp,-32
  82              		.cfi_def_cfa_offset 32
  83 0054 233C1100 		sd	ra,24(sp)
  84 0058 23388100 		sd	s0,16(sp)
  85 005c 23349100 		sd	s1,8(sp)
  86 0060 23302101 		sd	s2,0(sp)
  87              		.cfi_offset 1, -8
  88              		.cfi_offset 8, -16
  89              		.cfi_offset 9, -24
  90              		.cfi_offset 18, -32
  91 0064 13040102 		addi	s0,sp,32
  92              		.cfi_def_cfa 8, 0
  93 0068 93040500 		mv	s1,a0
  15:src/Scheduler.cpp ****     if(scheduler == 0)
  94              		.loc 1 15 5
  95              	.LVL5:
  96              	.LBB13:
  97              	.LBB14:
  98              		.file 2 "src/../h/PCB.h"
   1:src/../h/PCB.h **** //
   2:src/../h/PCB.h **** // Created by os on 4/27/22.
   3:src/../h/PCB.h **** //
   4:src/../h/PCB.h **** 
   5:src/../h/PCB.h **** #ifndef PROJECT_BASE_V1_0_PCB_H
   6:src/../h/PCB.h **** #define PROJECT_BASE_V1_0_PCB_H
   7:src/../h/PCB.h **** 
   8:src/../h/PCB.h **** #include "../lib/hw.h"
   9:src/../h/PCB.h **** #include "Scheduler.h"
  10:src/../h/PCB.h **** #include "Riscv.h"
  11:src/../h/PCB.h **** 
  12:src/../h/PCB.h **** class PCB
  13:src/../h/PCB.h **** {
  14:src/../h/PCB.h **** public:
  15:src/../h/PCB.h ****     using Body = void (*)(void*);
  16:src/../h/PCB.h **** 
  17:src/../h/PCB.h ****     PCB(Body body,  void* args, void* stack_space, uint64 timeSlice);
  18:src/../h/PCB.h **** 
  19:src/../h/PCB.h ****     void start();
  20:src/../h/PCB.h ****     static void dispatch();
  21:src/../h/PCB.h ****     static void sleep(time_t);
  22:src/../h/PCB.h **** 
  23:src/../h/PCB.h ****     static PCB* running;
  24:src/../h/PCB.h **** 
  25:src/../h/PCB.h ****     static const uint64 THREAD_CREATE = 0x11;
  26:src/../h/PCB.h **** 
  27:src/../h/PCB.h ****     static const uint64 THREAD_EXIT = 0x12;
  28:src/../h/PCB.h ****     static const uint64 THREAD_DISPATCH = 0x13;
  29:src/../h/PCB.h **** 
  30:src/../h/PCB.h ****     static uint64 timeSliceCounter;
  31:src/../h/PCB.h **** 
  32:src/../h/PCB.h ****     uint64 getTimeSlice() { return timeSlice;}
  33:src/../h/PCB.h **** 
  34:src/../h/PCB.h ****     void* operator new(size_t size);
  35:src/../h/PCB.h ****     void operator delete(void *p);
  36:src/../h/PCB.h **** 
  37:src/../h/PCB.h ****     enum State{READY, RUNNING, SUSPENDED, FINISHED};
GAS LISTING /tmp/ccTOqXXk.s 			page 4


  38:src/../h/PCB.h **** 
  39:src/../h/PCB.h ****     State getState() {return state;}
  40:src/../h/PCB.h ****     void setState(State s) {state = s;}
  99              		.loc 2 40 29
 100              		.loc 2 40 35 is_stmt 0
 101 006c 232C0500 		sw	zero,24(a0)
 102              	.LVL6:
 103              	.LBE14:
 104              	.LBE13:
  16:src/Scheduler.cpp ****         scheduler = new Scheduler();
 105              		.loc 1 16 5 is_stmt 1
  16:src/Scheduler.cpp ****         scheduler = new Scheduler();
 106              		.loc 1 16 18 is_stmt 0
 107 0070 97070000 		ld	a5,.LANCHOR0
 107      83B70700 
  16:src/Scheduler.cpp ****         scheduler = new Scheduler();
 108              		.loc 1 16 5
 109 0078 63880702 		beqz	a5,.L11
 110              	.LVL7:
 111              	.L6:
  18:src/Scheduler.cpp ****     //Riscv::printString("put\n");
 112              		.loc 1 18 5 is_stmt 1
  18:src/Scheduler.cpp ****     //Riscv::printString("put\n");
 113              		.loc 1 18 29 is_stmt 0
 114 007c 93850400 		mv	a1,s1
 115 0080 17050000 		ld	a0,.LANCHOR0
 115      03350500 
 116              	.LEHB0:
 117 0088 97000000 		call	_ZN5Queue4pushEP3PCB@plt
 117      E7800000 
 118              	.LVL8:
  20:src/Scheduler.cpp **** 
 119              		.loc 1 20 1
 120 0090 83308101 		ld	ra,24(sp)
 121              		.cfi_remember_state
 122              		.cfi_restore 1
 123 0094 03340101 		ld	s0,16(sp)
 124              		.cfi_restore 8
 125              		.cfi_def_cfa 2, 32
 126 0098 83348100 		ld	s1,8(sp)
 127              		.cfi_restore 9
 128              	.LVL9:
 129 009c 03390100 		ld	s2,0(sp)
 130              		.cfi_restore 18
 131 00a0 13010102 		addi	sp,sp,32
 132              		.cfi_def_cfa_offset 0
 133 00a4 67800000 		jr	ra
 134              	.LVL10:
 135              	.L11:
 136              		.cfi_restore_state
  17:src/Scheduler.cpp ****     scheduler->queuePCB.push(pcb);
 137              		.loc 1 17 9 is_stmt 1
  17:src/Scheduler.cpp ****     scheduler->queuePCB.push(pcb);
 138              		.loc 1 17 35 is_stmt 0
 139 00a8 13050001 		li	a0,16
 140 00ac 97000000 		call	_ZN9SchedulernwEm
 140      E7800000 
GAS LISTING /tmp/ccTOqXXk.s 			page 5


 141              	.LVL11:
 142              	.LEHE0:
 143 00b4 13090500 		mv	s2,a0
 144 00b8 23300500 		sd	zero,0(a0)
 145 00bc 23340500 		sd	zero,8(a0)
 146              	.LVL12:
 147              	.LEHB1:
 148              	.LBB15:
 149              	.LBB16:
 150              	.LBB17:
 151              		.file 3 "src/../h/Scheduler.h"
   1:src/../h/Scheduler.h **** //
   2:src/../h/Scheduler.h **** // Created by os on 4/27/22.
   3:src/../h/Scheduler.h **** //
   4:src/../h/Scheduler.h **** 
   5:src/../h/Scheduler.h **** #ifndef PROJECT_BASE_V1_0_SCHEDULER_H
   6:src/../h/Scheduler.h **** #define PROJECT_BASE_V1_0_SCHEDULER_H
   7:src/../h/Scheduler.h **** 
   8:src/../h/Scheduler.h **** #include "../lib/hw.h"
   9:src/../h/Scheduler.h **** #include "MemoryAllocator.h"
  10:src/../h/Scheduler.h **** #include "Queue.h"
  11:src/../h/Scheduler.h **** 
  12:src/../h/Scheduler.h **** class PCB;
  13:src/../h/Scheduler.h **** 
  14:src/../h/Scheduler.h **** class Scheduler
 152              		.loc 3 14 7
 153 00c0 97000000 		call	_ZN5QueueC1Ev@plt
 153      E7800000 
 154              	.LVL13:
 155              	.LEHE1:
 156              	.LBE17:
 157              	.LBE16:
 158              	.LBE15:
  17:src/Scheduler.cpp ****     scheduler->queuePCB.push(pcb);
 159              		.loc 1 17 19
 160 00c8 97070000 		sd	s2,.LANCHOR0,a5
 160      23B02701 
 161 00d0 6FF0DFFA 		j	.L6
 162              	.LVL14:
 163              	.L8:
 164 00d4 93040500 		mv	s1,a0
 165              	.LVL15:
  17:src/Scheduler.cpp ****     scheduler->queuePCB.push(pcb);
 166              		.loc 1 17 35
 167 00d8 13050900 		mv	a0,s2
 168 00dc 97000000 		call	_ZN9SchedulerdlEPv
 168      E7800000 
 169              	.LVL16:
 170 00e4 13850400 		mv	a0,s1
 171              	.LEHB2:
 172 00e8 97000000 		call	_Unwind_Resume@plt
 172      E7800000 
 173              	.LVL17:
 174              	.LEHE2:
 175              		.cfi_endproc
 176              	.LFE19:
 177              		.globl	__gxx_personality_v0
GAS LISTING /tmp/ccTOqXXk.s 			page 6


 178              		.section	.gcc_except_table,"a",@progbits
 179              	.LLSDA19:
 180 0000 FF       		.byte	0xff
 181 0001 FF       		.byte	0xff
 182 0002 03       		.byte	0x3
 183 0003 27       		.byte	0x27
 184 0004 00000000 		.4byte	.LEHB0-.LFB19
 185 0008 00000000 		.4byte	.LEHE0-.LEHB0
 186 000c 00000000 		.4byte	0
 187 0010 00       		.byte	0
 188 0011 00000000 		.4byte	.LEHB1-.LFB19
 189 0015 00000000 		.4byte	.LEHE1-.LEHB1
 190 0019 00000000 		.4byte	.L8-.LFB19
 191 001d 00       		.byte	0
 192 001e 00000000 		.4byte	.LEHB2-.LFB19
 193 0022 00000000 		.4byte	.LEHE2-.LEHB2
 194 0026 00000000 		.4byte	0
 195 002a 00       		.byte	0
 196              		.text
 198              		.align	2
 199              		.globl	_ZN9Scheduler3getEv
 201              	_ZN9Scheduler3getEv:
 202              	.LFB23:
  22:src/Scheduler.cpp ****     if(scheduler == 0)
 203              		.loc 1 22 23 is_stmt 1
 204              		.cfi_startproc
 205              		.cfi_personality 0x9b,DW.ref.__gxx_personality_v0
 206              		.cfi_lsda 0x1b,.LLSDA23
 207 00f0 130101FE 		addi	sp,sp,-32
 208              		.cfi_def_cfa_offset 32
 209 00f4 233C1100 		sd	ra,24(sp)
 210 00f8 23388100 		sd	s0,16(sp)
 211 00fc 23349100 		sd	s1,8(sp)
 212 0100 23302101 		sd	s2,0(sp)
 213              		.cfi_offset 1, -8
 214              		.cfi_offset 8, -16
 215              		.cfi_offset 9, -24
 216              		.cfi_offset 18, -32
 217 0104 13040102 		addi	s0,sp,32
 218              		.cfi_def_cfa 8, 0
  23:src/Scheduler.cpp ****         scheduler = new Scheduler();
 219              		.loc 1 23 5
  23:src/Scheduler.cpp ****         scheduler = new Scheduler();
 220              		.loc 1 23 18 is_stmt 0
 221 0108 97070000 		ld	a5,.LANCHOR0
 221      83B70700 
  23:src/Scheduler.cpp ****         scheduler = new Scheduler();
 222              		.loc 1 23 5
 223 0110 63820704 		beqz	a5,.L18
 224              	.L13:
  25:src/Scheduler.cpp ****     scheduler->queuePCB.pop();
 225              		.loc 1 25 5 is_stmt 1
  25:src/Scheduler.cpp ****     scheduler->queuePCB.pop();
 226              		.loc 1 25 26 is_stmt 0
 227 0114 17090000 		lla	s2,.LANCHOR0
 227      13090900 
  25:src/Scheduler.cpp ****     scheduler->queuePCB.pop();
GAS LISTING /tmp/ccTOqXXk.s 			page 7


 228              		.loc 1 25 40
 229 011c 03350900 		ld	a0,0(s2)
 230              	.LEHB3:
 231 0120 97000000 		call	_ZN5Queue5frontEv@plt
 231      E7800000 
 232              	.LVL18:
 233 0128 93040500 		mv	s1,a0
 234              	.LVL19:
  26:src/Scheduler.cpp ****     return fr;
 235              		.loc 1 26 5 is_stmt 1
  26:src/Scheduler.cpp ****     return fr;
 236              		.loc 1 26 28 is_stmt 0
 237 012c 03350900 		ld	a0,0(s2)
 238 0130 97000000 		call	_ZN5Queue3popEv@plt
 238      E7800000 
 239              	.LVL20:
  27:src/Scheduler.cpp **** }
 240              		.loc 1 27 5 is_stmt 1
  28:src/Scheduler.cpp **** 
 241              		.loc 1 28 1 is_stmt 0
 242 0138 13850400 		mv	a0,s1
 243 013c 83308101 		ld	ra,24(sp)
 244              		.cfi_remember_state
 245              		.cfi_restore 1
 246 0140 03340101 		ld	s0,16(sp)
 247              		.cfi_restore 8
 248              		.cfi_def_cfa 2, 32
 249 0144 83348100 		ld	s1,8(sp)
 250              		.cfi_restore 9
 251              	.LVL21:
 252 0148 03390100 		ld	s2,0(sp)
 253              		.cfi_restore 18
 254 014c 13010102 		addi	sp,sp,32
 255              		.cfi_def_cfa_offset 0
 256 0150 67800000 		jr	ra
 257              	.LVL22:
 258              	.L18:
 259              		.cfi_restore_state
  24:src/Scheduler.cpp ****     PCB* fr = scheduler->queuePCB.front();
 260              		.loc 1 24 9 is_stmt 1
  24:src/Scheduler.cpp ****     PCB* fr = scheduler->queuePCB.front();
 261              		.loc 1 24 35 is_stmt 0
 262 0154 13050001 		li	a0,16
 263 0158 97000000 		call	_ZN9SchedulernwEm
 263      E7800000 
 264              	.LVL23:
 265              	.LEHE3:
 266 0160 93040500 		mv	s1,a0
 267 0164 23300500 		sd	zero,0(a0)
 268 0168 23340500 		sd	zero,8(a0)
 269              	.LVL24:
 270              	.LEHB4:
 271              	.LBB18:
 272              	.LBB19:
 273              	.LBB20:
 274              		.loc 3 14 7
 275 016c 97000000 		call	_ZN5QueueC1Ev@plt
GAS LISTING /tmp/ccTOqXXk.s 			page 8


 275      E7800000 
 276              	.LVL25:
 277              	.LEHE4:
 278              	.LBE20:
 279              	.LBE19:
 280              	.LBE18:
  24:src/Scheduler.cpp ****     PCB* fr = scheduler->queuePCB.front();
 281              		.loc 1 24 19
 282 0174 97070000 		sd	s1,.LANCHOR0,a5
 282      23B09700 
 283 017c 6FF09FF9 		j	.L13
 284              	.LVL26:
 285              	.L15:
 286 0180 13090500 		mv	s2,a0
  24:src/Scheduler.cpp ****     PCB* fr = scheduler->queuePCB.front();
 287              		.loc 1 24 35
 288 0184 13850400 		mv	a0,s1
 289 0188 97000000 		call	_ZN9SchedulerdlEPv
 289      E7800000 
 290              	.LVL27:
 291 0190 13050900 		mv	a0,s2
 292              	.LEHB5:
 293 0194 97000000 		call	_Unwind_Resume@plt
 293      E7800000 
 294              	.LVL28:
 295              	.LEHE5:
 296              		.cfi_endproc
 297              	.LFE23:
 298              		.section	.gcc_except_table
 299              	.LLSDA23:
 300 002b FF       		.byte	0xff
 301 002c FF       		.byte	0xff
 302 002d 03       		.byte	0x3
 303 002e 27       		.byte	0x27
 304 002f 00000000 		.4byte	.LEHB3-.LFB23
 305 0033 00000000 		.4byte	.LEHE3-.LEHB3
 306 0037 00000000 		.4byte	0
 307 003b 00       		.byte	0
 308 003c 00000000 		.4byte	.LEHB4-.LFB23
 309 0040 00000000 		.4byte	.LEHE4-.LEHB4
 310 0044 00000000 		.4byte	.L15-.LFB23
 311 0048 00       		.byte	0
 312 0049 00000000 		.4byte	.LEHB5-.LFB23
 313 004d 00000000 		.4byte	.LEHE5-.LEHB5
 314 0051 00000000 		.4byte	0
 315 0055 00       		.byte	0
 316              		.text
 318              		.align	2
 319              		.globl	_ZN9Scheduler7getSizeEv
 321              	_ZN9Scheduler7getSizeEv:
 322              	.LFB26:
  38:src/Scheduler.cpp **** 
  39:src/Scheduler.cpp **** int Scheduler::getSize() {
 323              		.loc 1 39 26 is_stmt 1
 324              		.cfi_startproc
 325              		.cfi_personality 0x9b,DW.ref.__gxx_personality_v0
 326              		.cfi_lsda 0x1b,.LLSDA26
GAS LISTING /tmp/ccTOqXXk.s 			page 9


 327 019c 130101FE 		addi	sp,sp,-32
 328              		.cfi_def_cfa_offset 32
 329 01a0 233C1100 		sd	ra,24(sp)
 330 01a4 23388100 		sd	s0,16(sp)
 331 01a8 23349100 		sd	s1,8(sp)
 332 01ac 23302101 		sd	s2,0(sp)
 333              		.cfi_offset 1, -8
 334              		.cfi_offset 8, -16
 335              		.cfi_offset 9, -24
 336              		.cfi_offset 18, -32
 337 01b0 13040102 		addi	s0,sp,32
 338              		.cfi_def_cfa 8, 0
  40:src/Scheduler.cpp ****     if(scheduler == 0)
 339              		.loc 1 40 5
 340              		.loc 1 40 18 is_stmt 0
 341 01b4 97070000 		ld	a5,.LANCHOR0
 341      83B70700 
 342              		.loc 1 40 5
 343 01bc 63860702 		beqz	a5,.L25
 344              	.L20:
  41:src/Scheduler.cpp ****         scheduler = new Scheduler();
  42:src/Scheduler.cpp ****     return scheduler->queuePCB.size();
 345              		.loc 1 42 5 is_stmt 1
 346              		.loc 1 42 36 is_stmt 0
 347 01c0 17050000 		ld	a0,.LANCHOR0
 347      03350500 
 348              	.LEHB6:
 349 01c8 97000000 		call	_ZN5Queue4sizeEv@plt
 349      E7800000 
 350              	.LVL29:
  43:src/Scheduler.cpp **** }
 351              		.loc 1 43 1
 352 01d0 83308101 		ld	ra,24(sp)
 353              		.cfi_remember_state
 354              		.cfi_restore 1
 355 01d4 03340101 		ld	s0,16(sp)
 356              		.cfi_restore 8
 357              		.cfi_def_cfa 2, 32
 358 01d8 83348100 		ld	s1,8(sp)
 359              		.cfi_restore 9
 360 01dc 03390100 		ld	s2,0(sp)
 361              		.cfi_restore 18
 362 01e0 13010102 		addi	sp,sp,32
 363              		.cfi_def_cfa_offset 0
 364 01e4 67800000 		jr	ra
 365              	.L25:
 366              		.cfi_restore_state
  41:src/Scheduler.cpp ****         scheduler = new Scheduler();
 367              		.loc 1 41 9 is_stmt 1
  41:src/Scheduler.cpp ****         scheduler = new Scheduler();
 368              		.loc 1 41 35 is_stmt 0
 369 01e8 13050001 		li	a0,16
 370 01ec 97000000 		call	_ZN9SchedulernwEm
 370      E7800000 
 371              	.LVL30:
 372              	.LEHE6:
 373 01f4 93040500 		mv	s1,a0
GAS LISTING /tmp/ccTOqXXk.s 			page 10


 374 01f8 23300500 		sd	zero,0(a0)
 375 01fc 23340500 		sd	zero,8(a0)
 376              	.LVL31:
 377              	.LEHB7:
 378              	.LBB21:
 379              	.LBB22:
 380              	.LBB23:
 381              		.loc 3 14 7
 382 0200 97000000 		call	_ZN5QueueC1Ev@plt
 382      E7800000 
 383              	.LVL32:
 384              	.LEHE7:
 385              	.LBE23:
 386              	.LBE22:
 387              	.LBE21:
  41:src/Scheduler.cpp ****         scheduler = new Scheduler();
 388              		.loc 1 41 19
 389 0208 97070000 		sd	s1,.LANCHOR0,a5
 389      23B09700 
 390 0210 6FF01FFB 		j	.L20
 391              	.LVL33:
 392              	.L22:
 393 0214 13090500 		mv	s2,a0
  41:src/Scheduler.cpp ****         scheduler = new Scheduler();
 394              		.loc 1 41 35
 395 0218 13850400 		mv	a0,s1
 396 021c 97000000 		call	_ZN9SchedulerdlEPv
 396      E7800000 
 397              	.LVL34:
 398 0224 13050900 		mv	a0,s2
 399              	.LEHB8:
 400 0228 97000000 		call	_Unwind_Resume@plt
 400      E7800000 
 401              	.LVL35:
 402              	.LEHE8:
 403              		.cfi_endproc
 404              	.LFE26:
 405              		.section	.gcc_except_table
 406              	.LLSDA26:
 407 0056 FF       		.byte	0xff
 408 0057 FF       		.byte	0xff
 409 0058 03       		.byte	0x3
 410 0059 27       		.byte	0x27
 411 005a 00000000 		.4byte	.LEHB6-.LFB26
 412 005e 00000000 		.4byte	.LEHE6-.LEHB6
 413 0062 00000000 		.4byte	0
 414 0066 00       		.byte	0
 415 0067 00000000 		.4byte	.LEHB7-.LFB26
 416 006b 00000000 		.4byte	.LEHE7-.LEHB7
 417 006f 00000000 		.4byte	.L22-.LFB26
 418 0073 00       		.byte	0
 419 0074 00000000 		.4byte	.LEHB8-.LFB26
 420 0078 00000000 		.4byte	.LEHE8-.LEHB8
 421 007c 00000000 		.4byte	0
 422 0080 00       		.byte	0
 423              		.text
 425              		.globl	_ZN9Scheduler9schedulerE
GAS LISTING /tmp/ccTOqXXk.s 			page 11


 426              		.bss
 427              		.align	3
 428              		.set	.LANCHOR0,. + 0
 431              	_ZN9Scheduler9schedulerE:
 432 0000 00000000 		.zero	8
 432      00000000 
 433              		.text
 434              	.Letext0:
 435              		.file 4 "src/../h/../lib/hw.h"
 436              		.file 5 "src/../h/Queue.h"
 437              		.file 6 "src/../h/MemoryAllocator.h"
 2743              		.align	3
 2746              	DW.ref.__gxx_personality_v0:
 2747 0000 00000000 		.dword	__gxx_personality_v0
 2747      00000000 
 2748              		.ident	"GCC: (Ubuntu 9.3.0-17ubuntu1~20.04) 9.3.0"
 2749              		.section	.note.GNU-stack,"",@progbits
GAS LISTING /tmp/ccTOqXXk.s 			page 12


DEFINED SYMBOLS
                            *ABS*:0000000000000000 Scheduler.cpp
     /tmp/ccTOqXXk.s:9      .text:0000000000000000 _ZN9SchedulernwEm
     /tmp/ccTOqXXk.s:13     .text:0000000000000000 .L0 
     /tmp/ccTOqXXk.s:15     .text:0000000000000000 .L0 
     /tmp/ccTOqXXk.s:16     .text:0000000000000004 .L0 
     /tmp/ccTOqXXk.s:19     .text:000000000000000c .L0 
     /tmp/ccTOqXXk.s:20     .text:000000000000000c .L0 
     /tmp/ccTOqXXk.s:22     .text:0000000000000010 .L0 
     /tmp/ccTOqXXk.s:24     .text:0000000000000010 .L0 
     /tmp/ccTOqXXk.s:25     .text:0000000000000010 .L0 
     /tmp/ccTOqXXk.s:28     .text:0000000000000018 .L0 
     /tmp/ccTOqXXk.s:29     .text:000000000000001c .L0 
     /tmp/ccTOqXXk.s:31     .text:0000000000000020 .L0 
     /tmp/ccTOqXXk.s:32     .text:0000000000000020 .L0 
     /tmp/ccTOqXXk.s:34     .text:0000000000000024 .L0 
     /tmp/ccTOqXXk.s:36     .text:0000000000000028 .L0 
     /tmp/ccTOqXXk.s:42     .text:0000000000000028 _ZN9SchedulerdlEPv
     /tmp/ccTOqXXk.s:45     .text:0000000000000028 .L0 
     /tmp/ccTOqXXk.s:47     .text:0000000000000028 .L0 
     /tmp/ccTOqXXk.s:48     .text:000000000000002c .L0 
     /tmp/ccTOqXXk.s:51     .text:0000000000000034 .L0 
     /tmp/ccTOqXXk.s:52     .text:0000000000000034 .L0 
     /tmp/ccTOqXXk.s:54     .text:0000000000000038 .L0 
     /tmp/ccTOqXXk.s:56     .text:0000000000000038 .L0 
     /tmp/ccTOqXXk.s:57     .text:0000000000000038 .L0 
     /tmp/ccTOqXXk.s:60     .text:0000000000000040 .L0 
     /tmp/ccTOqXXk.s:61     .text:0000000000000044 .L0 
     /tmp/ccTOqXXk.s:63     .text:0000000000000048 .L0 
     /tmp/ccTOqXXk.s:64     .text:0000000000000048 .L0 
     /tmp/ccTOqXXk.s:66     .text:000000000000004c .L0 
     /tmp/ccTOqXXk.s:68     .text:0000000000000050 .L0 
     /tmp/ccTOqXXk.s:74     .text:0000000000000050 _ZN9Scheduler3putEP3PCB
     /tmp/ccTOqXXk.s:77     .text:0000000000000050 .L0 
     /tmp/ccTOqXXk.s:2746   .data.rel.local.DW.ref.__gxx_personality_v0:0000000000000000 DW.ref.__gxx_personality_v0
     /tmp/ccTOqXXk.s:81     .text:0000000000000050 .L0 
     /tmp/ccTOqXXk.s:82     .text:0000000000000054 .L0 
     /tmp/ccTOqXXk.s:87     .text:0000000000000064 .L0 
     /tmp/ccTOqXXk.s:88     .text:0000000000000064 .L0 
     /tmp/ccTOqXXk.s:89     .text:0000000000000064 .L0 
     /tmp/ccTOqXXk.s:90     .text:0000000000000064 .L0 
     /tmp/ccTOqXXk.s:92     .text:0000000000000068 .L0 
     /tmp/ccTOqXXk.s:99     .text:000000000000006c .L0 
     /tmp/ccTOqXXk.s:100    .text:000000000000006c .L0 
     /tmp/ccTOqXXk.s:101    .text:000000000000006c .L0 
     /tmp/ccTOqXXk.s:106    .text:0000000000000070 .L0 
     /tmp/ccTOqXXk.s:107    .text:0000000000000070 .L0 
     /tmp/ccTOqXXk.s:109    .text:0000000000000078 .L0 
     /tmp/ccTOqXXk.s:113    .text:000000000000007c .L0 
     /tmp/ccTOqXXk.s:114    .text:000000000000007c .L0 
     /tmp/ccTOqXXk.s:120    .text:0000000000000090 .L0 
     /tmp/ccTOqXXk.s:121    .text:0000000000000094 .L0 
     /tmp/ccTOqXXk.s:122    .text:0000000000000094 .L0 
     /tmp/ccTOqXXk.s:124    .text:0000000000000098 .L0 
     /tmp/ccTOqXXk.s:125    .text:0000000000000098 .L0 
     /tmp/ccTOqXXk.s:127    .text:000000000000009c .L0 
     /tmp/ccTOqXXk.s:130    .text:00000000000000a0 .L0 
GAS LISTING /tmp/ccTOqXXk.s 			page 13


     /tmp/ccTOqXXk.s:132    .text:00000000000000a4 .L0 
     /tmp/ccTOqXXk.s:136    .text:00000000000000a8 .L0 
     /tmp/ccTOqXXk.s:138    .text:00000000000000a8 .L0 
     /tmp/ccTOqXXk.s:139    .text:00000000000000a8 .L0 
     /tmp/ccTOqXXk.s:153    .text:00000000000000c0 .L0 
     /tmp/ccTOqXXk.s:160    .text:00000000000000c8 .L0 
     /tmp/ccTOqXXk.s:167    .text:00000000000000d8 .L0 
     /tmp/ccTOqXXk.s:175    .text:00000000000000f0 .L0 
     /tmp/ccTOqXXk.s:201    .text:00000000000000f0 _ZN9Scheduler3getEv
     /tmp/ccTOqXXk.s:204    .text:00000000000000f0 .L0 
     /tmp/ccTOqXXk.s:207    .text:00000000000000f0 .L0 
     /tmp/ccTOqXXk.s:208    .text:00000000000000f4 .L0 
     /tmp/ccTOqXXk.s:213    .text:0000000000000104 .L0 
     /tmp/ccTOqXXk.s:214    .text:0000000000000104 .L0 
     /tmp/ccTOqXXk.s:215    .text:0000000000000104 .L0 
     /tmp/ccTOqXXk.s:216    .text:0000000000000104 .L0 
     /tmp/ccTOqXXk.s:218    .text:0000000000000108 .L0 
     /tmp/ccTOqXXk.s:220    .text:0000000000000108 .L0 
     /tmp/ccTOqXXk.s:221    .text:0000000000000108 .L0 
     /tmp/ccTOqXXk.s:223    .text:0000000000000110 .L0 
     /tmp/ccTOqXXk.s:226    .text:0000000000000114 .L0 
     /tmp/ccTOqXXk.s:227    .text:0000000000000114 .L0 
     /tmp/ccTOqXXk.s:229    .text:000000000000011c .L0 
     /tmp/ccTOqXXk.s:236    .text:000000000000012c .L0 
     /tmp/ccTOqXXk.s:237    .text:000000000000012c .L0 
     /tmp/ccTOqXXk.s:241    .text:0000000000000138 .L0 
     /tmp/ccTOqXXk.s:242    .text:0000000000000138 .L0 
     /tmp/ccTOqXXk.s:244    .text:0000000000000140 .L0 
     /tmp/ccTOqXXk.s:245    .text:0000000000000140 .L0 
     /tmp/ccTOqXXk.s:247    .text:0000000000000144 .L0 
     /tmp/ccTOqXXk.s:248    .text:0000000000000144 .L0 
     /tmp/ccTOqXXk.s:250    .text:0000000000000148 .L0 
     /tmp/ccTOqXXk.s:253    .text:000000000000014c .L0 
     /tmp/ccTOqXXk.s:255    .text:0000000000000150 .L0 
     /tmp/ccTOqXXk.s:259    .text:0000000000000154 .L0 
     /tmp/ccTOqXXk.s:261    .text:0000000000000154 .L0 
     /tmp/ccTOqXXk.s:262    .text:0000000000000154 .L0 
     /tmp/ccTOqXXk.s:275    .text:000000000000016c .L0 
     /tmp/ccTOqXXk.s:282    .text:0000000000000174 .L0 
     /tmp/ccTOqXXk.s:288    .text:0000000000000184 .L0 
     /tmp/ccTOqXXk.s:296    .text:000000000000019c .L0 
     /tmp/ccTOqXXk.s:321    .text:000000000000019c _ZN9Scheduler7getSizeEv
     /tmp/ccTOqXXk.s:324    .text:000000000000019c .L0 
     /tmp/ccTOqXXk.s:327    .text:000000000000019c .L0 
     /tmp/ccTOqXXk.s:328    .text:00000000000001a0 .L0 
     /tmp/ccTOqXXk.s:333    .text:00000000000001b0 .L0 
     /tmp/ccTOqXXk.s:334    .text:00000000000001b0 .L0 
     /tmp/ccTOqXXk.s:335    .text:00000000000001b0 .L0 
     /tmp/ccTOqXXk.s:336    .text:00000000000001b0 .L0 
     /tmp/ccTOqXXk.s:338    .text:00000000000001b4 .L0 
     /tmp/ccTOqXXk.s:340    .text:00000000000001b4 .L0 
     /tmp/ccTOqXXk.s:341    .text:00000000000001b4 .L0 
     /tmp/ccTOqXXk.s:343    .text:00000000000001bc .L0 
     /tmp/ccTOqXXk.s:346    .text:00000000000001c0 .L0 
     /tmp/ccTOqXXk.s:347    .text:00000000000001c0 .L0 
     /tmp/ccTOqXXk.s:352    .text:00000000000001d0 .L0 
     /tmp/ccTOqXXk.s:353    .text:00000000000001d4 .L0 
GAS LISTING /tmp/ccTOqXXk.s 			page 14


     /tmp/ccTOqXXk.s:354    .text:00000000000001d4 .L0 
     /tmp/ccTOqXXk.s:356    .text:00000000000001d8 .L0 
     /tmp/ccTOqXXk.s:357    .text:00000000000001d8 .L0 
     /tmp/ccTOqXXk.s:359    .text:00000000000001dc .L0 
     /tmp/ccTOqXXk.s:361    .text:00000000000001e0 .L0 
     /tmp/ccTOqXXk.s:363    .text:00000000000001e4 .L0 
     /tmp/ccTOqXXk.s:366    .text:00000000000001e8 .L0 
     /tmp/ccTOqXXk.s:368    .text:00000000000001e8 .L0 
     /tmp/ccTOqXXk.s:369    .text:00000000000001e8 .L0 
     /tmp/ccTOqXXk.s:382    .text:0000000000000200 .L0 
     /tmp/ccTOqXXk.s:389    .text:0000000000000208 .L0 
     /tmp/ccTOqXXk.s:395    .text:0000000000000218 .L0 
     /tmp/ccTOqXXk.s:403    .text:0000000000000230 .L0 
     /tmp/ccTOqXXk.s:431    .bss:0000000000000000 _ZN9Scheduler9schedulerE
     /tmp/ccTOqXXk.s:428    .bss:0000000000000000 .LANCHOR0
     /tmp/ccTOqXXk.s:438    .text:0000000000000230 .L0 
     /tmp/ccTOqXXk.s:107    .text:0000000000000070 .L0 
     /tmp/ccTOqXXk.s:115    .text:0000000000000080 .L0 
     /tmp/ccTOqXXk.s:160    .text:00000000000000c8 .L0 
     /tmp/ccTOqXXk.s:221    .text:0000000000000108 .L0 
     /tmp/ccTOqXXk.s:227    .text:0000000000000114 .L0 
     /tmp/ccTOqXXk.s:282    .text:0000000000000174 .L0 
     /tmp/ccTOqXXk.s:341    .text:00000000000001b4 .L0 
     /tmp/ccTOqXXk.s:347    .text:00000000000001c0 .L0 
     /tmp/ccTOqXXk.s:389    .text:0000000000000208 .L0 
     /tmp/ccTOqXXk.s:135    .text:00000000000000a8 .L11
     /tmp/ccTOqXXk.s:111    .text:000000000000007c .L6
     /tmp/ccTOqXXk.s:258    .text:0000000000000154 .L18
     /tmp/ccTOqXXk.s:224    .text:0000000000000114 .L13
     /tmp/ccTOqXXk.s:365    .text:00000000000001e8 .L25
     /tmp/ccTOqXXk.s:344    .text:00000000000001c0 .L20
     /tmp/ccTOqXXk.s:116    .text:0000000000000088 .LEHB0
     /tmp/ccTOqXXk.s:75     .text:0000000000000050 .LFB19
     /tmp/ccTOqXXk.s:142    .text:00000000000000b4 .LEHE0
     /tmp/ccTOqXXk.s:147    .text:00000000000000c0 .LEHB1
     /tmp/ccTOqXXk.s:155    .text:00000000000000c8 .LEHE1
     /tmp/ccTOqXXk.s:163    .text:00000000000000d4 .L8
     /tmp/ccTOqXXk.s:171    .text:00000000000000e8 .LEHB2
     /tmp/ccTOqXXk.s:174    .text:00000000000000f0 .LEHE2
     /tmp/ccTOqXXk.s:230    .text:0000000000000120 .LEHB3
     /tmp/ccTOqXXk.s:202    .text:00000000000000f0 .LFB23
     /tmp/ccTOqXXk.s:265    .text:0000000000000160 .LEHE3
     /tmp/ccTOqXXk.s:270    .text:000000000000016c .LEHB4
     /tmp/ccTOqXXk.s:277    .text:0000000000000174 .LEHE4
     /tmp/ccTOqXXk.s:285    .text:0000000000000180 .L15
     /tmp/ccTOqXXk.s:292    .text:0000000000000194 .LEHB5
     /tmp/ccTOqXXk.s:295    .text:000000000000019c .LEHE5
     /tmp/ccTOqXXk.s:348    .text:00000000000001c8 .LEHB6
     /tmp/ccTOqXXk.s:322    .text:000000000000019c .LFB26
     /tmp/ccTOqXXk.s:372    .text:00000000000001f4 .LEHE6
     /tmp/ccTOqXXk.s:377    .text:0000000000000200 .LEHB7
     /tmp/ccTOqXXk.s:384    .text:0000000000000208 .LEHE7
     /tmp/ccTOqXXk.s:392    .text:0000000000000214 .L22
     /tmp/ccTOqXXk.s:399    .text:0000000000000228 .LEHB8
     /tmp/ccTOqXXk.s:402    .text:0000000000000230 .LEHE8
     /tmp/ccTOqXXk.s:1454   .debug_abbrev:0000000000000000 .Ldebug_abbrev0
     /tmp/ccTOqXXk.s:2642   .debug_str:000000000000027c .LASF77
GAS LISTING /tmp/ccTOqXXk.s 			page 15


     /tmp/ccTOqXXk.s:2618   .debug_str:00000000000001e1 .LASF78
     /tmp/ccTOqXXk.s:2706   .debug_str:00000000000004be .LASF79
     /tmp/ccTOqXXk.s:5      .text:0000000000000000 .Ltext0
     /tmp/ccTOqXXk.s:434    .text:0000000000000230 .Letext0
     /tmp/ccTOqXXk.s:2544   .debug_line:0000000000000000 .Ldebug_line0
     /tmp/ccTOqXXk.s:2614   .debug_str:00000000000001cf .LASF0
     /tmp/ccTOqXXk.s:2630   .debug_str:000000000000022f .LASF1
     /tmp/ccTOqXXk.s:2668   .debug_str:00000000000003da .LASF2
     /tmp/ccTOqXXk.s:2672   .debug_str:00000000000003f1 .LASF4
     /tmp/ccTOqXXk.s:2622   .debug_str:0000000000000200 .LASF3
     /tmp/ccTOqXXk.s:2550   .debug_str:0000000000000015 .LASF5
     /tmp/ccTOqXXk.s:2654   .debug_str:000000000000036c .LASF6
     /tmp/ccTOqXXk.s:2650   .debug_str:0000000000000349 .LASF7
     /tmp/ccTOqXXk.s:2624   .debug_str:0000000000000212 .LASF8
     /tmp/ccTOqXXk.s:2606   .debug_str:0000000000000193 .LASF9
     /tmp/ccTOqXXk.s:2610   .debug_str:00000000000001bb .LASF10
     /tmp/ccTOqXXk.s:2574   .debug_str:00000000000000d2 .LASF11
     /tmp/ccTOqXXk.s:2598   .debug_str:000000000000016f .LASF12
     /tmp/ccTOqXXk.s:2580   .debug_str:00000000000000f0 .LASF13
     /tmp/ccTOqXXk.s:2572   .debug_str:00000000000000c2 .LASF14
     /tmp/ccTOqXXk.s:2690   .debug_str:0000000000000477 .LASF15
     /tmp/ccTOqXXk.s:2594   .debug_str:000000000000014d .LASF16
     /tmp/ccTOqXXk.s:2686   .debug_str:0000000000000445 .LASF17
     /tmp/ccTOqXXk.s:2708   .debug_str:00000000000004e1 .LASF28
     /tmp/ccTOqXXk.s:2716   .debug_str:000000000000050d .LASF20
     /tmp/ccTOqXXk.s:2626   .debug_str:0000000000000225 .LASF18
     /tmp/ccTOqXXk.s:2576   .debug_str:00000000000000e1 .LASF19
     /tmp/ccTOqXXk.s:2694   .debug_str:000000000000048b .LASF21
     /tmp/ccTOqXXk.s:2636   .debug_str:0000000000000255 .LASF22
     /tmp/ccTOqXXk.s:2724   .debug_str:000000000000052d .LASF37
     /tmp/ccTOqXXk.s:2714   .debug_str:0000000000000507 .LASF24
     /tmp/ccTOqXXk.s:2582   .debug_str:0000000000000100 .LASF26
     /tmp/ccTOqXXk.s:2616   .debug_str:00000000000001dc .LASF23
     /tmp/ccTOqXXk.s:2680   .debug_str:000000000000041a .LASF29
     /tmp/ccTOqXXk.s:2628   .debug_str:000000000000022a .LASF25
     /tmp/ccTOqXXk.s:2660   .debug_str:0000000000000386 .LASF27
     /tmp/ccTOqXXk.s:2592   .debug_str:000000000000013f .LASF30
     /tmp/ccTOqXXk.s:2658   .debug_str:000000000000037f .LASF41
     /tmp/ccTOqXXk.s:2562   .debug_str:0000000000000082 .LASF43
     /tmp/ccTOqXXk.s:2698   .debug_str:0000000000000496 .LASF80
     /tmp/ccTOqXXk.s:2570   .debug_str:00000000000000bc .LASF31
     /tmp/ccTOqXXk.s:2682   .debug_str:000000000000042f .LASF32
     /tmp/ccTOqXXk.s:2578   .debug_str:00000000000000e6 .LASF33
     /tmp/ccTOqXXk.s:2566   .debug_str:00000000000000a2 .LASF34
     /tmp/ccTOqXXk.s:2692   .debug_str:0000000000000483 .LASF35
     /tmp/ccTOqXXk.s:2612   .debug_str:00000000000001c9 .LASF36
     /tmp/ccTOqXXk.s:2712   .debug_str:00000000000004ef .LASF38
     /tmp/ccTOqXXk.s:2646   .debug_str:0000000000000331 .LASF81
     /tmp/ccTOqXXk.s:2728   .debug_str:000000000000054c .LASF39
     /tmp/ccTOqXXk.s:2702   .debug_str:00000000000004a4 .LASF40
     /tmp/ccTOqXXk.s:2590   .debug_str:0000000000000136 .LASF82
     /tmp/ccTOqXXk.s:2558   .debug_str:0000000000000047 .LASF83
     /tmp/ccTOqXXk.s:2632   .debug_str:0000000000000242 .LASF42
     /tmp/ccTOqXXk.s:2652   .debug_str:000000000000035c .LASF44
     /tmp/ccTOqXXk.s:2700   .debug_str:000000000000049c .LASF48
     /tmp/ccTOqXXk.s:2684   .debug_str:0000000000000437 .LASF45
     /tmp/ccTOqXXk.s:2656   .debug_str:0000000000000373 .LASF46
GAS LISTING /tmp/ccTOqXXk.s 			page 16


     /tmp/ccTOqXXk.s:2588   .debug_str:0000000000000126 .LASF47
     /tmp/ccTOqXXk.s:2676   .debug_str:0000000000000400 .LASF49
     /tmp/ccTOqXXk.s:2634   .debug_str:0000000000000248 .LASF50
     /tmp/ccTOqXXk.s:2638   .debug_str:000000000000025a .LASF51
     /tmp/ccTOqXXk.s:2734   .debug_str:000000000000056b .LASF52
     /tmp/ccTOqXXk.s:2596   .debug_str:0000000000000163 .LASF53
     /tmp/ccTOqXXk.s:2548   .debug_str:0000000000000005 .LASF54
     /tmp/ccTOqXXk.s:2620   .debug_str:00000000000001f3 .LASF55
     /tmp/ccTOqXXk.s:2678   .debug_str:0000000000000411 .LASF56
     /tmp/ccTOqXXk.s:2644   .debug_str:000000000000031e .LASF57
     /tmp/ccTOqXXk.s:2670   .debug_str:00000000000003e8 .LASF58
     /tmp/ccTOqXXk.s:2688   .debug_str:000000000000045b .LASF59
     /tmp/ccTOqXXk.s:2704   .debug_str:00000000000004b4 .LASF60
     /tmp/ccTOqXXk.s:2586   .debug_str:0000000000000118 .LASF84
     /tmp/ccTOqXXk.s:2560   .debug_str:000000000000005a .LASF85
     /tmp/ccTOqXXk.s:2722   .debug_str:0000000000000526 .LASF86
     /tmp/ccTOqXXk.s:2568   .debug_str:00000000000000ab .LASF87
     /tmp/ccTOqXXk.s:2546   .debug_str:0000000000000000 .LASF61
     /tmp/ccTOqXXk.s:2732   .debug_str:0000000000000566 .LASF62
     /tmp/ccTOqXXk.s:2584   .debug_str:0000000000000112 .LASF63
     /tmp/ccTOqXXk.s:2710   .debug_str:00000000000004e7 .LASF64
     /tmp/ccTOqXXk.s:2640   .debug_str:0000000000000272 .LASF65
     /tmp/ccTOqXXk.s:2604   .debug_str:0000000000000189 .LASF66
     /tmp/ccTOqXXk.s:2554   .debug_str:0000000000000026 .LASF88
     /tmp/ccTOqXXk.s:2730   .debug_str:0000000000000552 .LASF89
     /tmp/ccTOqXXk.s:2564   .debug_str:0000000000000090 .LASF67
     /tmp/ccTOqXXk.s:2648   .debug_str:0000000000000336 .LASF68
     /tmp/ccTOqXXk.s:2674   .debug_str:00000000000003f8 .LASF69
     /tmp/ccTOqXXk.s:2664   .debug_str:00000000000003b0 .LASF90
     /tmp/ccTOqXXk.s:2556   .debug_str:000000000000003e .LASF70
     /tmp/ccTOqXXk.s:2552   .debug_str:000000000000001c .LASF91
     /tmp/ccTOqXXk.s:2738   .debug_str:0000000000000583 .LASF92
     /tmp/ccTOqXXk.s:2696   .debug_str:0000000000000491 .LASF71
     /tmp/ccTOqXXk.s:2662   .debug_str:0000000000000397 .LASF93
     /tmp/ccTOqXXk.s:404    .text:0000000000000230 .LFE26
     /tmp/ccTOqXXk.s:378    .text:0000000000000200 .LBB21
     /tmp/ccTOqXXk.s:387    .text:0000000000000208 .LBE21
     /tmp/ccTOqXXk.s:2411   .debug_loc:0000000000000000 .LLST8
     /tmp/ccTOqXXk.s:383    .text:0000000000000208 .LVL32
     /tmp/ccTOqXXk.s:350    .text:00000000000001d0 .LVL29
     /tmp/ccTOqXXk.s:371    .text:00000000000001f4 .LVL30
     /tmp/ccTOqXXk.s:397    .text:0000000000000224 .LVL34
     /tmp/ccTOqXXk.s:401    .text:0000000000000230 .LVL35
     /tmp/ccTOqXXk.s:43     .text:0000000000000028 .LFB25
     /tmp/ccTOqXXk.s:69     .text:0000000000000050 .LFE25
     /tmp/ccTOqXXk.s:2422   .debug_loc:0000000000000036 .LLST1
     /tmp/ccTOqXXk.s:58     .text:0000000000000040 .LVL3
     /tmp/ccTOqXXk.s:10     .text:0000000000000000 .LFB24
     /tmp/ccTOqXXk.s:37     .text:0000000000000028 .LFE24
     /tmp/ccTOqXXk.s:2436   .debug_loc:000000000000006f .LLST0
     /tmp/ccTOqXXk.s:26     .text:0000000000000018 .LVL1
     /tmp/ccTOqXXk.s:297    .text:000000000000019c .LFE23
     /tmp/ccTOqXXk.s:2450   .debug_loc:00000000000000a8 .LLST6
     /tmp/ccTOqXXk.s:271    .text:000000000000016c .LBB18
     /tmp/ccTOqXXk.s:280    .text:0000000000000174 .LBE18
     /tmp/ccTOqXXk.s:2461   .debug_loc:00000000000000de .LLST7
     /tmp/ccTOqXXk.s:276    .text:0000000000000174 .LVL25
GAS LISTING /tmp/ccTOqXXk.s 			page 17


     /tmp/ccTOqXXk.s:232    .text:0000000000000128 .LVL18
     /tmp/ccTOqXXk.s:239    .text:0000000000000138 .LVL20
     /tmp/ccTOqXXk.s:264    .text:0000000000000160 .LVL23
     /tmp/ccTOqXXk.s:290    .text:0000000000000190 .LVL27
     /tmp/ccTOqXXk.s:294    .text:000000000000019c .LVL28
     /tmp/ccTOqXXk.s:176    .text:00000000000000f0 .LFE19
     /tmp/ccTOqXXk.s:2472   .debug_loc:0000000000000114 .LLST2
     /tmp/ccTOqXXk.s:96     .text:000000000000006c .LBB13
     /tmp/ccTOqXXk.s:104    .text:0000000000000070 .LBE13
     /tmp/ccTOqXXk.s:2501   .debug_loc:0000000000000189 .LLST3
     /tmp/ccTOqXXk.s:2509   .debug_loc:00000000000001ad .LLST4
     /tmp/ccTOqXXk.s:148    .text:00000000000000c0 .LBB15
     /tmp/ccTOqXXk.s:158    .text:00000000000000c8 .LBE15
     /tmp/ccTOqXXk.s:2516   .debug_loc:00000000000001d0 .LLST5
     /tmp/ccTOqXXk.s:154    .text:00000000000000c8 .LVL13
     /tmp/ccTOqXXk.s:118    .text:0000000000000090 .LVL8
     /tmp/ccTOqXXk.s:141    .text:00000000000000b4 .LVL11
     /tmp/ccTOqXXk.s:169    .text:00000000000000e4 .LVL16
     /tmp/ccTOqXXk.s:173    .text:00000000000000f0 .LVL17
     /tmp/ccTOqXXk.s:2600   .debug_str:000000000000017e .LASF72
     /tmp/ccTOqXXk.s:2666   .debug_str:00000000000003c8 .LASF94
     /tmp/ccTOqXXk.s:2726   .debug_str:000000000000053d .LASF95
     /tmp/ccTOqXXk.s:2608   .debug_str:00000000000001a3 .LASF96
     /tmp/ccTOqXXk.s:2736   .debug_str:0000000000000578 .LASF73
     /tmp/ccTOqXXk.s:2602   .debug_str:0000000000000183 .LASF75
     /tmp/ccTOqXXk.s:2718   .debug_str:0000000000000512 .LASF74
     /tmp/ccTOqXXk.s:2720   .debug_str:000000000000051e .LASF76
     /tmp/ccTOqXXk.s:376    .text:0000000000000200 .LVL31
     /tmp/ccTOqXXk.s:391    .text:0000000000000214 .LVL33
     /tmp/ccTOqXXk.s:46     .text:0000000000000028 .LVL2
     /tmp/ccTOqXXk.s:14     .text:0000000000000000 .LVL0
     /tmp/ccTOqXXk.s:234    .text:000000000000012c .LVL19
     /tmp/ccTOqXXk.s:251    .text:0000000000000148 .LVL21
     /tmp/ccTOqXXk.s:257    .text:0000000000000154 .LVL22
     /tmp/ccTOqXXk.s:269    .text:000000000000016c .LVL24
     /tmp/ccTOqXXk.s:284    .text:0000000000000180 .LVL26
     /tmp/ccTOqXXk.s:80     .text:0000000000000050 .LVL4
     /tmp/ccTOqXXk.s:110    .text:000000000000007c .LVL7
     /tmp/ccTOqXXk.s:128    .text:000000000000009c .LVL9
     /tmp/ccTOqXXk.s:134    .text:00000000000000a8 .LVL10
     /tmp/ccTOqXXk.s:165    .text:00000000000000d8 .LVL15
     /tmp/ccTOqXXk.s:95     .text:000000000000006c .LVL5
     /tmp/ccTOqXXk.s:102    .text:0000000000000070 .LVL6
     /tmp/ccTOqXXk.s:146    .text:00000000000000c0 .LVL12
     /tmp/ccTOqXXk.s:162    .text:00000000000000d4 .LVL14
     /tmp/ccTOqXXk.s:439    .debug_info:0000000000000000 .Ldebug_info0
     /tmp/ccTOqXXk.s:179    .gcc_except_table:0000000000000000 .LLSDA19
     /tmp/ccTOqXXk.s:299    .gcc_except_table:000000000000002b .LLSDA23
     /tmp/ccTOqXXk.s:406    .gcc_except_table:0000000000000056 .LLSDA26

UNDEFINED SYMBOLS
_Z7kmallocm
_Z5kfreePv
_ZN5Queue4pushEP3PCB
_ZN5QueueC1Ev
_Unwind_Resume
__gxx_personality_v0
GAS LISTING /tmp/ccTOqXXk.s 			page 18


_ZN5Queue5frontEv
_ZN5Queue3popEv
_ZN5Queue4sizeEv
