GAS LISTING /tmp/ccHn2wWN.s 			page 1


   1              		.file	"Scheduler.cpp"
   2              		.option pic
   3              		.option norelax
   4              		.text
   5              	.Ltext0:
   6              		.align	2
   7              		.globl	_ZN9SchedulernwEm
   9              	_ZN9SchedulernwEm:
  10              	.LFB26:
  11              		.file 1 "src/Scheduler.cpp"
   1:src/Scheduler.cpp **** //
   2:src/Scheduler.cpp **** // Created by os on 4/27/22.
   3:src/Scheduler.cpp **** //
   4:src/Scheduler.cpp **** 
   5:src/Scheduler.cpp **** #include "../h/Scheduler.hpp"
   6:src/Scheduler.cpp **** #include "../h/PCB.hpp"
   7:src/Scheduler.cpp **** 
   8:src/Scheduler.cpp **** //todo
   9:src/Scheduler.cpp **** Scheduler* Scheduler::scheduler = 0;
  10:src/Scheduler.cpp **** PCB* Scheduler::schedulerPCBHead = 0;
  11:src/Scheduler.cpp **** PCB* Scheduler::schedulerPCBTail = 0;
  12:src/Scheduler.cpp **** 
  13:src/Scheduler.cpp **** void Scheduler::put2(PCB *pcb) {
  14:src/Scheduler.cpp ****     pcb->setState(PCB::READY);
  15:src/Scheduler.cpp ****     if(scheduler == 0)
  16:src/Scheduler.cpp ****         scheduler = new Scheduler();
  17:src/Scheduler.cpp ****     scheduler->queuePCB.push(pcb);
  18:src/Scheduler.cpp **** }
  19:src/Scheduler.cpp **** 
  20:src/Scheduler.cpp **** PCB *Scheduler::get2() {
  21:src/Scheduler.cpp ****     if(scheduler == 0)
  22:src/Scheduler.cpp ****         scheduler = new Scheduler();
  23:src/Scheduler.cpp ****     PCB* fr = scheduler->queuePCB.front();
  24:src/Scheduler.cpp ****     scheduler->queuePCB.pop();
  25:src/Scheduler.cpp ****     return fr;
  26:src/Scheduler.cpp **** }
  27:src/Scheduler.cpp **** 
  28:src/Scheduler.cpp **** void *Scheduler::operator new(size_t size) {
  12              		.loc 1 28 44
  13              		.cfi_startproc
  14              	.LVL0:
  15 0000 130101FF 		addi	sp,sp,-16
  16              		.cfi_def_cfa_offset 16
  17 0004 23341100 		sd	ra,8(sp)
  18 0008 23308100 		sd	s0,0(sp)
  19              		.cfi_offset 1, -8
  20              		.cfi_offset 8, -16
  21 000c 13040101 		addi	s0,sp,16
  22              		.cfi_def_cfa 8, 0
  29:src/Scheduler.cpp ****     return kmalloc(size);
  23              		.loc 1 29 5
  24              		.loc 1 29 19 is_stmt 0
  25 0010 97000000 		call	_Z7kmallocm@plt
  25      E7800000 
  26              	.LVL1:
  30:src/Scheduler.cpp **** }
  27              		.loc 1 30 1
GAS LISTING /tmp/ccHn2wWN.s 			page 2


  28 0018 83308100 		ld	ra,8(sp)
  29              		.cfi_restore 1
  30 001c 03340100 		ld	s0,0(sp)
  31              		.cfi_restore 8
  32              		.cfi_def_cfa 2, 16
  33 0020 13010101 		addi	sp,sp,16
  34              		.cfi_def_cfa_offset 0
  35 0024 67800000 		jr	ra
  36              		.cfi_endproc
  37              	.LFE26:
  39              		.align	2
  40              		.globl	_ZN9SchedulerdlEPv
  42              	_ZN9SchedulerdlEPv:
  43              	.LFB27:
  31:src/Scheduler.cpp **** 
  32:src/Scheduler.cpp **** void Scheduler::operator delete(void *p) {
  44              		.loc 1 32 42 is_stmt 1
  45              		.cfi_startproc
  46              	.LVL2:
  47 0028 130101FF 		addi	sp,sp,-16
  48              		.cfi_def_cfa_offset 16
  49 002c 23341100 		sd	ra,8(sp)
  50 0030 23308100 		sd	s0,0(sp)
  51              		.cfi_offset 1, -8
  52              		.cfi_offset 8, -16
  53 0034 13040101 		addi	s0,sp,16
  54              		.cfi_def_cfa 8, 0
  33:src/Scheduler.cpp ****     //todo
  34:src/Scheduler.cpp ****     kfree(p);
  55              		.loc 1 34 5
  56              		.loc 1 34 10 is_stmt 0
  57 0038 97000000 		call	_Z5kfreePv@plt
  57      E7800000 
  58              	.LVL3:
  35:src/Scheduler.cpp **** }
  59              		.loc 1 35 1
  60 0040 83308100 		ld	ra,8(sp)
  61              		.cfi_restore 1
  62 0044 03340100 		ld	s0,0(sp)
  63              		.cfi_restore 8
  64              		.cfi_def_cfa 2, 16
  65 0048 13010101 		addi	sp,sp,16
  66              		.cfi_def_cfa_offset 0
  67 004c 67800000 		jr	ra
  68              		.cfi_endproc
  69              	.LFE27:
  71              		.align	2
  72              		.globl	_ZN9Scheduler4put2EP3PCB
  74              	_ZN9Scheduler4put2EP3PCB:
  75              	.LFB21:
  13:src/Scheduler.cpp ****     pcb->setState(PCB::READY);
  76              		.loc 1 13 32 is_stmt 1
  77              		.cfi_startproc
  78              		.cfi_personality 0x9b,DW.ref.__gxx_personality_v0
  79              		.cfi_lsda 0x1b,.LLSDA21
  80              	.LVL4:
  81 0050 130101FE 		addi	sp,sp,-32
GAS LISTING /tmp/ccHn2wWN.s 			page 3


  82              		.cfi_def_cfa_offset 32
  83 0054 233C1100 		sd	ra,24(sp)
  84 0058 23388100 		sd	s0,16(sp)
  85 005c 23349100 		sd	s1,8(sp)
  86 0060 23302101 		sd	s2,0(sp)
  87              		.cfi_offset 1, -8
  88              		.cfi_offset 8, -16
  89              		.cfi_offset 9, -24
  90              		.cfi_offset 18, -32
  91 0064 13040102 		addi	s0,sp,32
  92              		.cfi_def_cfa 8, 0
  93 0068 93040500 		mv	s1,a0
  14:src/Scheduler.cpp ****     if(scheduler == 0)
  94              		.loc 1 14 5
  95              	.LVL5:
  96              	.LBB13:
  97              	.LBB14:
  98              		.file 2 "src/../h/PCB.hpp"
   1:src/../h/PCB.hpp **** //
   2:src/../h/PCB.hpp **** // Created by os on 4/27/22.
   3:src/../h/PCB.hpp **** //
   4:src/../h/PCB.hpp **** 
   5:src/../h/PCB.hpp **** #ifndef PROJECT_BASE_V1_0_PCB_HPP
   6:src/../h/PCB.hpp **** #define PROJECT_BASE_V1_0_PCB_HPP
   7:src/../h/PCB.hpp **** 
   8:src/../h/PCB.hpp **** #include "../lib/hw.h"
   9:src/../h/PCB.hpp **** #include "Scheduler.hpp"
  10:src/../h/PCB.hpp **** #include "Riscv.hpp"
  11:src/../h/PCB.hpp **** 
  12:src/../h/PCB.hpp **** class PCB
  13:src/../h/PCB.hpp **** {
  14:src/../h/PCB.hpp **** public:
  15:src/../h/PCB.hpp ****     using Body = void (*)(void*);
  16:src/../h/PCB.hpp **** 
  17:src/../h/PCB.hpp ****     PCB(Body body,  void* args, void* stack_space, uint64 timeSlice);
  18:src/../h/PCB.hpp ****     ~PCB();
  19:src/../h/PCB.hpp **** 
  20:src/../h/PCB.hpp ****     void start();
  21:src/../h/PCB.hpp ****     static void dispatch();
  22:src/../h/PCB.hpp ****     static void sleep(time_t);
  23:src/../h/PCB.hpp **** 
  24:src/../h/PCB.hpp ****     static PCB* running;
  25:src/../h/PCB.hpp ****     static PCB* exitingPCB;
  26:src/../h/PCB.hpp **** 
  27:src/../h/PCB.hpp ****     static uint64 timeSliceCounter;
  28:src/../h/PCB.hpp ****     uint64 getTimeSlice() { return timeSlice;}
  29:src/../h/PCB.hpp **** 
  30:src/../h/PCB.hpp ****     void* operator new(size_t size);
  31:src/../h/PCB.hpp ****     void operator delete(void *p);
  32:src/../h/PCB.hpp **** 
  33:src/../h/PCB.hpp ****     enum State{READY, RUNNING, SUSPENDED, FINISHED, EXITING, SLEEPING};
  34:src/../h/PCB.hpp ****     State getState() {return state;}
  35:src/../h/PCB.hpp ****     void setState(State s) {state = s;}
  99              		.loc 2 35 29
 100              		.loc 2 35 35 is_stmt 0
 101 006c 23280502 		sw	zero,48(a0)
 102              	.LVL6:
GAS LISTING /tmp/ccHn2wWN.s 			page 4


 103              	.LBE14:
 104              	.LBE13:
  15:src/Scheduler.cpp ****         scheduler = new Scheduler();
 105              		.loc 1 15 5 is_stmt 1
  15:src/Scheduler.cpp ****         scheduler = new Scheduler();
 106              		.loc 1 15 18 is_stmt 0
 107 0070 97070000 		ld	a5,.LANCHOR0
 107      83B70700 
  15:src/Scheduler.cpp ****         scheduler = new Scheduler();
 108              		.loc 1 15 5
 109 0078 63880702 		beqz	a5,.L11
 110              	.LVL7:
 111              	.L6:
  17:src/Scheduler.cpp **** }
 112              		.loc 1 17 5 is_stmt 1
  17:src/Scheduler.cpp **** }
 113              		.loc 1 17 29 is_stmt 0
 114 007c 93850400 		mv	a1,s1
 115 0080 17050000 		ld	a0,.LANCHOR0
 115      03350500 
 116              	.LEHB0:
 117 0088 97000000 		call	_ZN5Queue4pushEP3PCB@plt
 117      E7800000 
 118              	.LVL8:
  18:src/Scheduler.cpp **** 
 119              		.loc 1 18 1
 120 0090 83308101 		ld	ra,24(sp)
 121              		.cfi_remember_state
 122              		.cfi_restore 1
 123 0094 03340101 		ld	s0,16(sp)
 124              		.cfi_restore 8
 125              		.cfi_def_cfa 2, 32
 126 0098 83348100 		ld	s1,8(sp)
 127              		.cfi_restore 9
 128              	.LVL9:
 129 009c 03390100 		ld	s2,0(sp)
 130              		.cfi_restore 18
 131 00a0 13010102 		addi	sp,sp,32
 132              		.cfi_def_cfa_offset 0
 133 00a4 67800000 		jr	ra
 134              	.LVL10:
 135              	.L11:
 136              		.cfi_restore_state
  16:src/Scheduler.cpp ****     scheduler->queuePCB.push(pcb);
 137              		.loc 1 16 9 is_stmt 1
  16:src/Scheduler.cpp ****     scheduler->queuePCB.push(pcb);
 138              		.loc 1 16 35 is_stmt 0
 139 00a8 13050001 		li	a0,16
 140 00ac 97000000 		call	_ZN9SchedulernwEm
 140      E7800000 
 141              	.LVL11:
 142              	.LEHE0:
 143 00b4 13090500 		mv	s2,a0
 144 00b8 23300500 		sd	zero,0(a0)
 145 00bc 23340500 		sd	zero,8(a0)
 146              	.LVL12:
 147              	.LEHB1:
GAS LISTING /tmp/ccHn2wWN.s 			page 5


 148              	.LBB15:
 149              	.LBB16:
 150              	.LBB17:
 151              		.file 3 "src/../h/Scheduler.hpp"
   1:src/../h/Scheduler.hpp **** //
   2:src/../h/Scheduler.hpp **** // Created by os on 4/27/22.
   3:src/../h/Scheduler.hpp **** //
   4:src/../h/Scheduler.hpp **** 
   5:src/../h/Scheduler.hpp **** #ifndef PROJECT_BASE_V1_0_SCHEDULER_HPP
   6:src/../h/Scheduler.hpp **** #define PROJECT_BASE_V1_0_SCHEDULER_HPP
   7:src/../h/Scheduler.hpp **** 
   8:src/../h/Scheduler.hpp **** #include "../lib/hw.h"
   9:src/../h/Scheduler.hpp **** #include "MemoryAllocator.hpp"
  10:src/../h/Scheduler.hpp **** #include "Queue.hpp"
  11:src/../h/Scheduler.hpp **** 
  12:src/../h/Scheduler.hpp **** class PCB;
  13:src/../h/Scheduler.hpp **** 
  14:src/../h/Scheduler.hpp **** class Scheduler
 152              		.loc 3 14 7
 153 00c0 97000000 		call	_ZN5QueueC1Ev@plt
 153      E7800000 
 154              	.LVL13:
 155              	.LEHE1:
 156              	.LBE17:
 157              	.LBE16:
 158              	.LBE15:
  16:src/Scheduler.cpp ****     scheduler->queuePCB.push(pcb);
 159              		.loc 1 16 19
 160 00c8 97070000 		sd	s2,.LANCHOR0,a5
 160      23B02701 
 161 00d0 6FF0DFFA 		j	.L6
 162              	.LVL14:
 163              	.L8:
 164 00d4 93040500 		mv	s1,a0
 165              	.LVL15:
  16:src/Scheduler.cpp ****     scheduler->queuePCB.push(pcb);
 166              		.loc 1 16 35
 167 00d8 13050900 		mv	a0,s2
 168 00dc 97000000 		call	_ZN9SchedulerdlEPv
 168      E7800000 
 169              	.LVL16:
 170 00e4 13850400 		mv	a0,s1
 171              	.LEHB2:
 172 00e8 97000000 		call	_Unwind_Resume@plt
 172      E7800000 
 173              	.LVL17:
 174              	.LEHE2:
 175              		.cfi_endproc
 176              	.LFE21:
 177              		.globl	__gxx_personality_v0
 178              		.section	.gcc_except_table,"a",@progbits
 179              	.LLSDA21:
 180 0000 FF       		.byte	0xff
 181 0001 FF       		.byte	0xff
 182 0002 03       		.byte	0x3
 183 0003 27       		.byte	0x27
 184 0004 00000000 		.4byte	.LEHB0-.LFB21
GAS LISTING /tmp/ccHn2wWN.s 			page 6


 185 0008 00000000 		.4byte	.LEHE0-.LEHB0
 186 000c 00000000 		.4byte	0
 187 0010 00       		.byte	0
 188 0011 00000000 		.4byte	.LEHB1-.LFB21
 189 0015 00000000 		.4byte	.LEHE1-.LEHB1
 190 0019 00000000 		.4byte	.L8-.LFB21
 191 001d 00       		.byte	0
 192 001e 00000000 		.4byte	.LEHB2-.LFB21
 193 0022 00000000 		.4byte	.LEHE2-.LEHB2
 194 0026 00000000 		.4byte	0
 195 002a 00       		.byte	0
 196              		.text
 198              		.align	2
 199              		.globl	_ZN9Scheduler4get2Ev
 201              	_ZN9Scheduler4get2Ev:
 202              	.LFB25:
  20:src/Scheduler.cpp ****     if(scheduler == 0)
 203              		.loc 1 20 24 is_stmt 1
 204              		.cfi_startproc
 205              		.cfi_personality 0x9b,DW.ref.__gxx_personality_v0
 206              		.cfi_lsda 0x1b,.LLSDA25
 207 00f0 130101FE 		addi	sp,sp,-32
 208              		.cfi_def_cfa_offset 32
 209 00f4 233C1100 		sd	ra,24(sp)
 210 00f8 23388100 		sd	s0,16(sp)
 211 00fc 23349100 		sd	s1,8(sp)
 212 0100 23302101 		sd	s2,0(sp)
 213              		.cfi_offset 1, -8
 214              		.cfi_offset 8, -16
 215              		.cfi_offset 9, -24
 216              		.cfi_offset 18, -32
 217 0104 13040102 		addi	s0,sp,32
 218              		.cfi_def_cfa 8, 0
  21:src/Scheduler.cpp ****         scheduler = new Scheduler();
 219              		.loc 1 21 5
  21:src/Scheduler.cpp ****         scheduler = new Scheduler();
 220              		.loc 1 21 18 is_stmt 0
 221 0108 97070000 		ld	a5,.LANCHOR0
 221      83B70700 
  21:src/Scheduler.cpp ****         scheduler = new Scheduler();
 222              		.loc 1 21 5
 223 0110 63820704 		beqz	a5,.L18
 224              	.L13:
  23:src/Scheduler.cpp ****     scheduler->queuePCB.pop();
 225              		.loc 1 23 5 is_stmt 1
  23:src/Scheduler.cpp ****     scheduler->queuePCB.pop();
 226              		.loc 1 23 26 is_stmt 0
 227 0114 17090000 		lla	s2,.LANCHOR0
 227      13090900 
  23:src/Scheduler.cpp ****     scheduler->queuePCB.pop();
 228              		.loc 1 23 40
 229 011c 03350900 		ld	a0,0(s2)
 230              	.LEHB3:
 231 0120 97000000 		call	_ZN5Queue5frontEv@plt
 231      E7800000 
 232              	.LVL18:
 233 0128 93040500 		mv	s1,a0
GAS LISTING /tmp/ccHn2wWN.s 			page 7


 234              	.LVL19:
  24:src/Scheduler.cpp ****     return fr;
 235              		.loc 1 24 5 is_stmt 1
  24:src/Scheduler.cpp ****     return fr;
 236              		.loc 1 24 28 is_stmt 0
 237 012c 03350900 		ld	a0,0(s2)
 238 0130 97000000 		call	_ZN5Queue3popEv@plt
 238      E7800000 
 239              	.LVL20:
  25:src/Scheduler.cpp **** }
 240              		.loc 1 25 5 is_stmt 1
  26:src/Scheduler.cpp **** 
 241              		.loc 1 26 1 is_stmt 0
 242 0138 13850400 		mv	a0,s1
 243 013c 83308101 		ld	ra,24(sp)
 244              		.cfi_remember_state
 245              		.cfi_restore 1
 246 0140 03340101 		ld	s0,16(sp)
 247              		.cfi_restore 8
 248              		.cfi_def_cfa 2, 32
 249 0144 83348100 		ld	s1,8(sp)
 250              		.cfi_restore 9
 251              	.LVL21:
 252 0148 03390100 		ld	s2,0(sp)
 253              		.cfi_restore 18
 254 014c 13010102 		addi	sp,sp,32
 255              		.cfi_def_cfa_offset 0
 256 0150 67800000 		jr	ra
 257              	.LVL22:
 258              	.L18:
 259              		.cfi_restore_state
  22:src/Scheduler.cpp ****     PCB* fr = scheduler->queuePCB.front();
 260              		.loc 1 22 9 is_stmt 1
  22:src/Scheduler.cpp ****     PCB* fr = scheduler->queuePCB.front();
 261              		.loc 1 22 35 is_stmt 0
 262 0154 13050001 		li	a0,16
 263 0158 97000000 		call	_ZN9SchedulernwEm
 263      E7800000 
 264              	.LVL23:
 265              	.LEHE3:
 266 0160 93040500 		mv	s1,a0
 267 0164 23300500 		sd	zero,0(a0)
 268 0168 23340500 		sd	zero,8(a0)
 269              	.LVL24:
 270              	.LEHB4:
 271              	.LBB18:
 272              	.LBB19:
 273              	.LBB20:
 274              		.loc 3 14 7
 275 016c 97000000 		call	_ZN5QueueC1Ev@plt
 275      E7800000 
 276              	.LVL25:
 277              	.LEHE4:
 278              	.LBE20:
 279              	.LBE19:
 280              	.LBE18:
  22:src/Scheduler.cpp ****     PCB* fr = scheduler->queuePCB.front();
GAS LISTING /tmp/ccHn2wWN.s 			page 8


 281              		.loc 1 22 19
 282 0174 97070000 		sd	s1,.LANCHOR0,a5
 282      23B09700 
 283 017c 6FF09FF9 		j	.L13
 284              	.LVL26:
 285              	.L15:
 286 0180 13090500 		mv	s2,a0
  22:src/Scheduler.cpp ****     PCB* fr = scheduler->queuePCB.front();
 287              		.loc 1 22 35
 288 0184 13850400 		mv	a0,s1
 289 0188 97000000 		call	_ZN9SchedulerdlEPv
 289      E7800000 
 290              	.LVL27:
 291 0190 13050900 		mv	a0,s2
 292              	.LEHB5:
 293 0194 97000000 		call	_Unwind_Resume@plt
 293      E7800000 
 294              	.LVL28:
 295              	.LEHE5:
 296              		.cfi_endproc
 297              	.LFE25:
 298              		.section	.gcc_except_table
 299              	.LLSDA25:
 300 002b FF       		.byte	0xff
 301 002c FF       		.byte	0xff
 302 002d 03       		.byte	0x3
 303 002e 27       		.byte	0x27
 304 002f 00000000 		.4byte	.LEHB3-.LFB25
 305 0033 00000000 		.4byte	.LEHE3-.LEHB3
 306 0037 00000000 		.4byte	0
 307 003b 00       		.byte	0
 308 003c 00000000 		.4byte	.LEHB4-.LFB25
 309 0040 00000000 		.4byte	.LEHE4-.LEHB4
 310 0044 00000000 		.4byte	.L15-.LFB25
 311 0048 00       		.byte	0
 312 0049 00000000 		.4byte	.LEHB5-.LFB25
 313 004d 00000000 		.4byte	.LEHE5-.LEHB5
 314 0051 00000000 		.4byte	0
 315 0055 00       		.byte	0
 316              		.text
 318              		.align	2
 319              		.globl	_ZN9Scheduler7getSizeEv
 321              	_ZN9Scheduler7getSizeEv:
 322              	.LFB28:
  36:src/Scheduler.cpp **** 
  37:src/Scheduler.cpp **** int Scheduler::getSize() {
 323              		.loc 1 37 26 is_stmt 1
 324              		.cfi_startproc
 325              		.cfi_personality 0x9b,DW.ref.__gxx_personality_v0
 326              		.cfi_lsda 0x1b,.LLSDA28
 327 019c 130101FE 		addi	sp,sp,-32
 328              		.cfi_def_cfa_offset 32
 329 01a0 233C1100 		sd	ra,24(sp)
 330 01a4 23388100 		sd	s0,16(sp)
 331 01a8 23349100 		sd	s1,8(sp)
 332 01ac 23302101 		sd	s2,0(sp)
 333              		.cfi_offset 1, -8
GAS LISTING /tmp/ccHn2wWN.s 			page 9


 334              		.cfi_offset 8, -16
 335              		.cfi_offset 9, -24
 336              		.cfi_offset 18, -32
 337 01b0 13040102 		addi	s0,sp,32
 338              		.cfi_def_cfa 8, 0
  38:src/Scheduler.cpp ****     if(scheduler == 0)
 339              		.loc 1 38 5
 340              		.loc 1 38 18 is_stmt 0
 341 01b4 97070000 		ld	a5,.LANCHOR0
 341      83B70700 
 342              		.loc 1 38 5
 343 01bc 63860702 		beqz	a5,.L25
 344              	.L20:
  39:src/Scheduler.cpp ****         scheduler = new Scheduler();
  40:src/Scheduler.cpp ****     return scheduler->queuePCB.size();
 345              		.loc 1 40 5 is_stmt 1
 346              		.loc 1 40 36 is_stmt 0
 347 01c0 17050000 		ld	a0,.LANCHOR0
 347      03350500 
 348              	.LEHB6:
 349 01c8 97000000 		call	_ZN5Queue4sizeEv@plt
 349      E7800000 
 350              	.LVL29:
  41:src/Scheduler.cpp **** }
 351              		.loc 1 41 1
 352 01d0 83308101 		ld	ra,24(sp)
 353              		.cfi_remember_state
 354              		.cfi_restore 1
 355 01d4 03340101 		ld	s0,16(sp)
 356              		.cfi_restore 8
 357              		.cfi_def_cfa 2, 32
 358 01d8 83348100 		ld	s1,8(sp)
 359              		.cfi_restore 9
 360 01dc 03390100 		ld	s2,0(sp)
 361              		.cfi_restore 18
 362 01e0 13010102 		addi	sp,sp,32
 363              		.cfi_def_cfa_offset 0
 364 01e4 67800000 		jr	ra
 365              	.L25:
 366              		.cfi_restore_state
  39:src/Scheduler.cpp ****         scheduler = new Scheduler();
 367              		.loc 1 39 9 is_stmt 1
  39:src/Scheduler.cpp ****         scheduler = new Scheduler();
 368              		.loc 1 39 35 is_stmt 0
 369 01e8 13050001 		li	a0,16
 370 01ec 97000000 		call	_ZN9SchedulernwEm
 370      E7800000 
 371              	.LVL30:
 372              	.LEHE6:
 373 01f4 93040500 		mv	s1,a0
 374 01f8 23300500 		sd	zero,0(a0)
 375 01fc 23340500 		sd	zero,8(a0)
 376              	.LVL31:
 377              	.LEHB7:
 378              	.LBB21:
 379              	.LBB22:
 380              	.LBB23:
GAS LISTING /tmp/ccHn2wWN.s 			page 10


 381              		.loc 3 14 7
 382 0200 97000000 		call	_ZN5QueueC1Ev@plt
 382      E7800000 
 383              	.LVL32:
 384              	.LEHE7:
 385              	.LBE23:
 386              	.LBE22:
 387              	.LBE21:
  39:src/Scheduler.cpp ****         scheduler = new Scheduler();
 388              		.loc 1 39 19
 389 0208 97070000 		sd	s1,.LANCHOR0,a5
 389      23B09700 
 390 0210 6FF01FFB 		j	.L20
 391              	.LVL33:
 392              	.L22:
 393 0214 13090500 		mv	s2,a0
  39:src/Scheduler.cpp ****         scheduler = new Scheduler();
 394              		.loc 1 39 35
 395 0218 13850400 		mv	a0,s1
 396 021c 97000000 		call	_ZN9SchedulerdlEPv
 396      E7800000 
 397              	.LVL34:
 398 0224 13050900 		mv	a0,s2
 399              	.LEHB8:
 400 0228 97000000 		call	_Unwind_Resume@plt
 400      E7800000 
 401              	.LVL35:
 402              	.LEHE8:
 403              		.cfi_endproc
 404              	.LFE28:
 405              		.section	.gcc_except_table
 406              	.LLSDA28:
 407 0056 FF       		.byte	0xff
 408 0057 FF       		.byte	0xff
 409 0058 03       		.byte	0x3
 410 0059 27       		.byte	0x27
 411 005a 00000000 		.4byte	.LEHB6-.LFB28
 412 005e 00000000 		.4byte	.LEHE6-.LEHB6
 413 0062 00000000 		.4byte	0
 414 0066 00       		.byte	0
 415 0067 00000000 		.4byte	.LEHB7-.LFB28
 416 006b 00000000 		.4byte	.LEHE7-.LEHB7
 417 006f 00000000 		.4byte	.L22-.LFB28
 418 0073 00       		.byte	0
 419 0074 00000000 		.4byte	.LEHB8-.LFB28
 420 0078 00000000 		.4byte	.LEHE8-.LEHB8
 421 007c 00000000 		.4byte	0
 422 0080 00       		.byte	0
 423              		.text
 425              		.align	2
 426              		.globl	_ZN9Scheduler3putEP3PCB
 428              	_ZN9Scheduler3putEP3PCB:
 429              	.LFB29:
  42:src/Scheduler.cpp **** 
  43:src/Scheduler.cpp **** void Scheduler::put(PCB *pcb) {
 430              		.loc 1 43 31 is_stmt 1
 431              		.cfi_startproc
GAS LISTING /tmp/ccHn2wWN.s 			page 11


 432              	.LVL36:
 433 0230 130101FF 		addi	sp,sp,-16
 434              		.cfi_def_cfa_offset 16
 435 0234 23348100 		sd	s0,8(sp)
 436              		.cfi_offset 8, -8
 437 0238 13040101 		addi	s0,sp,16
 438              		.cfi_def_cfa 8, 0
  44:src/Scheduler.cpp ****     pcb->nextPCB = 0;
 439              		.loc 1 44 5
 440              		.loc 1 44 18 is_stmt 0
 441 023c 23300500 		sd	zero,0(a0)
  45:src/Scheduler.cpp ****     if(schedulerPCBHead == 0)
 442              		.loc 1 45 5 is_stmt 1
 443              		.loc 1 45 25 is_stmt 0
 444 0240 97070000 		ld	a5,.LANCHOR0+8
 444      83B70700 
 445              		.loc 1 45 5
 446 0248 63820702 		beqz	a5,.L30
  46:src/Scheduler.cpp ****     {
  47:src/Scheduler.cpp ****         schedulerPCBHead = schedulerPCBTail = pcb;
  48:src/Scheduler.cpp ****     }
  49:src/Scheduler.cpp ****     else
  50:src/Scheduler.cpp ****     {
  51:src/Scheduler.cpp ****         schedulerPCBTail->nextPCB = pcb;
 447              		.loc 1 51 9 is_stmt 1
 448              		.loc 1 51 27 is_stmt 0
 449 024c 97070000 		lla	a5,.LANCHOR0
 449      93870700 
 450 0254 03B70701 		ld	a4,16(a5)
 451              		.loc 1 51 35
 452 0258 2330A700 		sd	a0,0(a4)
  52:src/Scheduler.cpp ****         schedulerPCBTail = pcb;
 453              		.loc 1 52 9 is_stmt 1
 454              		.loc 1 52 26 is_stmt 0
 455 025c 23B8A700 		sd	a0,16(a5)
 456              	.L26:
  53:src/Scheduler.cpp ****     }
  54:src/Scheduler.cpp **** }
 457              		.loc 1 54 1
 458 0260 03348100 		ld	s0,8(sp)
 459              		.cfi_remember_state
 460              		.cfi_restore 8
 461              		.cfi_def_cfa 2, 16
 462 0264 13010101 		addi	sp,sp,16
 463              		.cfi_def_cfa_offset 0
 464 0268 67800000 		jr	ra
 465              	.L30:
 466              		.cfi_restore_state
  47:src/Scheduler.cpp ****     }
 467              		.loc 1 47 9 is_stmt 1
  47:src/Scheduler.cpp ****     }
 468              		.loc 1 47 45 is_stmt 0
 469 026c 97070000 		lla	a5,.LANCHOR0
 469      93870700 
 470 0274 23B8A700 		sd	a0,16(a5)
  47:src/Scheduler.cpp ****     }
 471              		.loc 1 47 26
GAS LISTING /tmp/ccHn2wWN.s 			page 12


 472 0278 23B4A700 		sd	a0,8(a5)
 473 027c 6FF05FFE 		j	.L26
 474              		.cfi_endproc
 475              	.LFE29:
 477              		.align	2
 478              		.globl	_ZN9Scheduler3getEv
 480              	_ZN9Scheduler3getEv:
 481              	.LFB30:
  55:src/Scheduler.cpp **** 
  56:src/Scheduler.cpp **** PCB *Scheduler::get() {
 482              		.loc 1 56 23 is_stmt 1
 483              		.cfi_startproc
 484 0280 130101FF 		addi	sp,sp,-16
 485              		.cfi_def_cfa_offset 16
 486 0284 23348100 		sd	s0,8(sp)
 487              		.cfi_offset 8, -8
 488 0288 13040101 		addi	s0,sp,16
 489              		.cfi_def_cfa 8, 0
  57:src/Scheduler.cpp ****     if(schedulerPCBHead == 0)
 490              		.loc 1 57 5
 491              		.loc 1 57 25 is_stmt 0
 492 028c 17050000 		ld	a0,.LANCHOR0+8
 492      03350500 
 493              		.loc 1 57 5
 494 0294 630C0500 		beqz	a0,.L31
  58:src/Scheduler.cpp ****         return 0;
  59:src/Scheduler.cpp ****     PCB* retval = schedulerPCBHead;
 495              		.loc 1 59 5 is_stmt 1
 496              	.LVL37:
  60:src/Scheduler.cpp ****     if(schedulerPCBHead->nextPCB == 0)
 497              		.loc 1 60 5
 498              		.loc 1 60 26 is_stmt 0
 499 0298 83370500 		ld	a5,0(a0)
 500              		.loc 1 60 5
 501 029c 638E0700 		beqz	a5,.L36
  61:src/Scheduler.cpp ****     {
  62:src/Scheduler.cpp ****         schedulerPCBHead = schedulerPCBTail = 0;
  63:src/Scheduler.cpp ****     }
  64:src/Scheduler.cpp ****     else
  65:src/Scheduler.cpp ****     {
  66:src/Scheduler.cpp ****         schedulerPCBHead = schedulerPCBHead->nextPCB;
 502              		.loc 1 66 9 is_stmt 1
 503              		.loc 1 66 26 is_stmt 0
 504 02a0 17070000 		sd	a5,.LANCHOR0+8,a4
 504      2330F700 
 505              	.L34:
  67:src/Scheduler.cpp ****     }
  68:src/Scheduler.cpp ****     retval->nextPCB = 0;
 506              		.loc 1 68 5 is_stmt 1
 507              		.loc 1 68 21 is_stmt 0
 508 02a8 23300500 		sd	zero,0(a0)
  69:src/Scheduler.cpp ****     return retval;
 509              		.loc 1 69 5 is_stmt 1
 510              	.LVL38:
 511              	.L31:
  70:src/Scheduler.cpp **** }
 512              		.loc 1 70 1 is_stmt 0
GAS LISTING /tmp/ccHn2wWN.s 			page 13


 513 02ac 03348100 		ld	s0,8(sp)
 514              		.cfi_remember_state
 515              		.cfi_restore 8
 516              		.cfi_def_cfa 2, 16
 517 02b0 13010101 		addi	sp,sp,16
 518              		.cfi_def_cfa_offset 0
 519 02b4 67800000 		jr	ra
 520              	.LVL39:
 521              	.L36:
 522              		.cfi_restore_state
  62:src/Scheduler.cpp ****     }
 523              		.loc 1 62 9 is_stmt 1
  62:src/Scheduler.cpp ****     }
 524              		.loc 1 62 45 is_stmt 0
 525 02b8 97070000 		lla	a5,.LANCHOR0
 525      93870700 
 526 02c0 23B80700 		sd	zero,16(a5)
  62:src/Scheduler.cpp ****     }
 527              		.loc 1 62 26
 528 02c4 23B40700 		sd	zero,8(a5)
 529 02c8 6FF01FFE 		j	.L34
 530              		.cfi_endproc
 531              	.LFE30:
 533              		.globl	_ZN9Scheduler16schedulerPCBTailE
 534              		.globl	_ZN9Scheduler16schedulerPCBHeadE
 535              		.globl	_ZN9Scheduler9schedulerE
 536              		.bss
 537              		.align	3
 538              		.set	.LANCHOR0,. + 0
 541              	_ZN9Scheduler9schedulerE:
 542 0000 00000000 		.zero	8
 542      00000000 
 545              	_ZN9Scheduler16schedulerPCBHeadE:
 546 0008 00000000 		.zero	8
 546      00000000 
 549              	_ZN9Scheduler16schedulerPCBTailE:
 550 0010 00000000 		.zero	8
 550      00000000 
 551              		.text
 552              	.Letext0:
 553              		.file 4 "src/../h/../lib/hw.h"
 554              		.file 5 "src/../h/Queue.hpp"
 555              		.file 6 "src/../h/MemoryAllocator.hpp"
 3186              		.align	3
 3189              	DW.ref.__gxx_personality_v0:
 3190 0000 00000000 		.dword	__gxx_personality_v0
 3190      00000000 
 3191              		.ident	"GCC: (Ubuntu 9.3.0-17ubuntu1~20.04) 9.3.0"
 3192              		.section	.note.GNU-stack,"",@progbits
GAS LISTING /tmp/ccHn2wWN.s 			page 14


DEFINED SYMBOLS
                            *ABS*:0000000000000000 Scheduler.cpp
     /tmp/ccHn2wWN.s:9      .text:0000000000000000 _ZN9SchedulernwEm
     /tmp/ccHn2wWN.s:13     .text:0000000000000000 .L0 
     /tmp/ccHn2wWN.s:15     .text:0000000000000000 .L0 
     /tmp/ccHn2wWN.s:16     .text:0000000000000004 .L0 
     /tmp/ccHn2wWN.s:19     .text:000000000000000c .L0 
     /tmp/ccHn2wWN.s:20     .text:000000000000000c .L0 
     /tmp/ccHn2wWN.s:22     .text:0000000000000010 .L0 
     /tmp/ccHn2wWN.s:24     .text:0000000000000010 .L0 
     /tmp/ccHn2wWN.s:25     .text:0000000000000010 .L0 
     /tmp/ccHn2wWN.s:28     .text:0000000000000018 .L0 
     /tmp/ccHn2wWN.s:29     .text:000000000000001c .L0 
     /tmp/ccHn2wWN.s:31     .text:0000000000000020 .L0 
     /tmp/ccHn2wWN.s:32     .text:0000000000000020 .L0 
     /tmp/ccHn2wWN.s:34     .text:0000000000000024 .L0 
     /tmp/ccHn2wWN.s:36     .text:0000000000000028 .L0 
     /tmp/ccHn2wWN.s:42     .text:0000000000000028 _ZN9SchedulerdlEPv
     /tmp/ccHn2wWN.s:45     .text:0000000000000028 .L0 
     /tmp/ccHn2wWN.s:47     .text:0000000000000028 .L0 
     /tmp/ccHn2wWN.s:48     .text:000000000000002c .L0 
     /tmp/ccHn2wWN.s:51     .text:0000000000000034 .L0 
     /tmp/ccHn2wWN.s:52     .text:0000000000000034 .L0 
     /tmp/ccHn2wWN.s:54     .text:0000000000000038 .L0 
     /tmp/ccHn2wWN.s:56     .text:0000000000000038 .L0 
     /tmp/ccHn2wWN.s:57     .text:0000000000000038 .L0 
     /tmp/ccHn2wWN.s:60     .text:0000000000000040 .L0 
     /tmp/ccHn2wWN.s:61     .text:0000000000000044 .L0 
     /tmp/ccHn2wWN.s:63     .text:0000000000000048 .L0 
     /tmp/ccHn2wWN.s:64     .text:0000000000000048 .L0 
     /tmp/ccHn2wWN.s:66     .text:000000000000004c .L0 
     /tmp/ccHn2wWN.s:68     .text:0000000000000050 .L0 
     /tmp/ccHn2wWN.s:74     .text:0000000000000050 _ZN9Scheduler4put2EP3PCB
     /tmp/ccHn2wWN.s:77     .text:0000000000000050 .L0 
     /tmp/ccHn2wWN.s:3189   .data.rel.local.DW.ref.__gxx_personality_v0:0000000000000000 DW.ref.__gxx_personality_v0
     /tmp/ccHn2wWN.s:81     .text:0000000000000050 .L0 
     /tmp/ccHn2wWN.s:82     .text:0000000000000054 .L0 
     /tmp/ccHn2wWN.s:87     .text:0000000000000064 .L0 
     /tmp/ccHn2wWN.s:88     .text:0000000000000064 .L0 
     /tmp/ccHn2wWN.s:89     .text:0000000000000064 .L0 
     /tmp/ccHn2wWN.s:90     .text:0000000000000064 .L0 
     /tmp/ccHn2wWN.s:92     .text:0000000000000068 .L0 
     /tmp/ccHn2wWN.s:99     .text:000000000000006c .L0 
     /tmp/ccHn2wWN.s:100    .text:000000000000006c .L0 
     /tmp/ccHn2wWN.s:101    .text:000000000000006c .L0 
     /tmp/ccHn2wWN.s:106    .text:0000000000000070 .L0 
     /tmp/ccHn2wWN.s:107    .text:0000000000000070 .L0 
     /tmp/ccHn2wWN.s:109    .text:0000000000000078 .L0 
     /tmp/ccHn2wWN.s:113    .text:000000000000007c .L0 
     /tmp/ccHn2wWN.s:114    .text:000000000000007c .L0 
     /tmp/ccHn2wWN.s:120    .text:0000000000000090 .L0 
     /tmp/ccHn2wWN.s:121    .text:0000000000000094 .L0 
     /tmp/ccHn2wWN.s:122    .text:0000000000000094 .L0 
     /tmp/ccHn2wWN.s:124    .text:0000000000000098 .L0 
     /tmp/ccHn2wWN.s:125    .text:0000000000000098 .L0 
     /tmp/ccHn2wWN.s:127    .text:000000000000009c .L0 
     /tmp/ccHn2wWN.s:130    .text:00000000000000a0 .L0 
GAS LISTING /tmp/ccHn2wWN.s 			page 15


     /tmp/ccHn2wWN.s:132    .text:00000000000000a4 .L0 
     /tmp/ccHn2wWN.s:136    .text:00000000000000a8 .L0 
     /tmp/ccHn2wWN.s:138    .text:00000000000000a8 .L0 
     /tmp/ccHn2wWN.s:139    .text:00000000000000a8 .L0 
     /tmp/ccHn2wWN.s:153    .text:00000000000000c0 .L0 
     /tmp/ccHn2wWN.s:160    .text:00000000000000c8 .L0 
     /tmp/ccHn2wWN.s:167    .text:00000000000000d8 .L0 
     /tmp/ccHn2wWN.s:175    .text:00000000000000f0 .L0 
     /tmp/ccHn2wWN.s:201    .text:00000000000000f0 _ZN9Scheduler4get2Ev
     /tmp/ccHn2wWN.s:204    .text:00000000000000f0 .L0 
     /tmp/ccHn2wWN.s:207    .text:00000000000000f0 .L0 
     /tmp/ccHn2wWN.s:208    .text:00000000000000f4 .L0 
     /tmp/ccHn2wWN.s:213    .text:0000000000000104 .L0 
     /tmp/ccHn2wWN.s:214    .text:0000000000000104 .L0 
     /tmp/ccHn2wWN.s:215    .text:0000000000000104 .L0 
     /tmp/ccHn2wWN.s:216    .text:0000000000000104 .L0 
     /tmp/ccHn2wWN.s:218    .text:0000000000000108 .L0 
     /tmp/ccHn2wWN.s:220    .text:0000000000000108 .L0 
     /tmp/ccHn2wWN.s:221    .text:0000000000000108 .L0 
     /tmp/ccHn2wWN.s:223    .text:0000000000000110 .L0 
     /tmp/ccHn2wWN.s:226    .text:0000000000000114 .L0 
     /tmp/ccHn2wWN.s:227    .text:0000000000000114 .L0 
     /tmp/ccHn2wWN.s:229    .text:000000000000011c .L0 
     /tmp/ccHn2wWN.s:236    .text:000000000000012c .L0 
     /tmp/ccHn2wWN.s:237    .text:000000000000012c .L0 
     /tmp/ccHn2wWN.s:241    .text:0000000000000138 .L0 
     /tmp/ccHn2wWN.s:242    .text:0000000000000138 .L0 
     /tmp/ccHn2wWN.s:244    .text:0000000000000140 .L0 
     /tmp/ccHn2wWN.s:245    .text:0000000000000140 .L0 
     /tmp/ccHn2wWN.s:247    .text:0000000000000144 .L0 
     /tmp/ccHn2wWN.s:248    .text:0000000000000144 .L0 
     /tmp/ccHn2wWN.s:250    .text:0000000000000148 .L0 
     /tmp/ccHn2wWN.s:253    .text:000000000000014c .L0 
     /tmp/ccHn2wWN.s:255    .text:0000000000000150 .L0 
     /tmp/ccHn2wWN.s:259    .text:0000000000000154 .L0 
     /tmp/ccHn2wWN.s:261    .text:0000000000000154 .L0 
     /tmp/ccHn2wWN.s:262    .text:0000000000000154 .L0 
     /tmp/ccHn2wWN.s:275    .text:000000000000016c .L0 
     /tmp/ccHn2wWN.s:282    .text:0000000000000174 .L0 
     /tmp/ccHn2wWN.s:288    .text:0000000000000184 .L0 
     /tmp/ccHn2wWN.s:296    .text:000000000000019c .L0 
     /tmp/ccHn2wWN.s:321    .text:000000000000019c _ZN9Scheduler7getSizeEv
     /tmp/ccHn2wWN.s:324    .text:000000000000019c .L0 
     /tmp/ccHn2wWN.s:327    .text:000000000000019c .L0 
     /tmp/ccHn2wWN.s:328    .text:00000000000001a0 .L0 
     /tmp/ccHn2wWN.s:333    .text:00000000000001b0 .L0 
     /tmp/ccHn2wWN.s:334    .text:00000000000001b0 .L0 
     /tmp/ccHn2wWN.s:335    .text:00000000000001b0 .L0 
     /tmp/ccHn2wWN.s:336    .text:00000000000001b0 .L0 
     /tmp/ccHn2wWN.s:338    .text:00000000000001b4 .L0 
     /tmp/ccHn2wWN.s:340    .text:00000000000001b4 .L0 
     /tmp/ccHn2wWN.s:341    .text:00000000000001b4 .L0 
     /tmp/ccHn2wWN.s:343    .text:00000000000001bc .L0 
     /tmp/ccHn2wWN.s:346    .text:00000000000001c0 .L0 
     /tmp/ccHn2wWN.s:347    .text:00000000000001c0 .L0 
     /tmp/ccHn2wWN.s:352    .text:00000000000001d0 .L0 
     /tmp/ccHn2wWN.s:353    .text:00000000000001d4 .L0 
GAS LISTING /tmp/ccHn2wWN.s 			page 16


     /tmp/ccHn2wWN.s:354    .text:00000000000001d4 .L0 
     /tmp/ccHn2wWN.s:356    .text:00000000000001d8 .L0 
     /tmp/ccHn2wWN.s:357    .text:00000000000001d8 .L0 
     /tmp/ccHn2wWN.s:359    .text:00000000000001dc .L0 
     /tmp/ccHn2wWN.s:361    .text:00000000000001e0 .L0 
     /tmp/ccHn2wWN.s:363    .text:00000000000001e4 .L0 
     /tmp/ccHn2wWN.s:366    .text:00000000000001e8 .L0 
     /tmp/ccHn2wWN.s:368    .text:00000000000001e8 .L0 
     /tmp/ccHn2wWN.s:369    .text:00000000000001e8 .L0 
     /tmp/ccHn2wWN.s:382    .text:0000000000000200 .L0 
     /tmp/ccHn2wWN.s:389    .text:0000000000000208 .L0 
     /tmp/ccHn2wWN.s:395    .text:0000000000000218 .L0 
     /tmp/ccHn2wWN.s:403    .text:0000000000000230 .L0 
     /tmp/ccHn2wWN.s:428    .text:0000000000000230 _ZN9Scheduler3putEP3PCB
     /tmp/ccHn2wWN.s:431    .text:0000000000000230 .L0 
     /tmp/ccHn2wWN.s:433    .text:0000000000000230 .L0 
     /tmp/ccHn2wWN.s:434    .text:0000000000000234 .L0 
     /tmp/ccHn2wWN.s:436    .text:0000000000000238 .L0 
     /tmp/ccHn2wWN.s:438    .text:000000000000023c .L0 
     /tmp/ccHn2wWN.s:440    .text:000000000000023c .L0 
     /tmp/ccHn2wWN.s:441    .text:000000000000023c .L0 
     /tmp/ccHn2wWN.s:443    .text:0000000000000240 .L0 
     /tmp/ccHn2wWN.s:444    .text:0000000000000240 .L0 
     /tmp/ccHn2wWN.s:446    .text:0000000000000248 .L0 
     /tmp/ccHn2wWN.s:448    .text:000000000000024c .L0 
     /tmp/ccHn2wWN.s:449    .text:000000000000024c .L0 
     /tmp/ccHn2wWN.s:452    .text:0000000000000258 .L0 
     /tmp/ccHn2wWN.s:454    .text:000000000000025c .L0 
     /tmp/ccHn2wWN.s:455    .text:000000000000025c .L0 
     /tmp/ccHn2wWN.s:458    .text:0000000000000260 .L0 
     /tmp/ccHn2wWN.s:459    .text:0000000000000264 .L0 
     /tmp/ccHn2wWN.s:460    .text:0000000000000264 .L0 
     /tmp/ccHn2wWN.s:461    .text:0000000000000264 .L0 
     /tmp/ccHn2wWN.s:463    .text:0000000000000268 .L0 
     /tmp/ccHn2wWN.s:466    .text:000000000000026c .L0 
     /tmp/ccHn2wWN.s:468    .text:000000000000026c .L0 
     /tmp/ccHn2wWN.s:469    .text:000000000000026c .L0 
     /tmp/ccHn2wWN.s:472    .text:0000000000000278 .L0 
     /tmp/ccHn2wWN.s:474    .text:0000000000000280 .L0 
     /tmp/ccHn2wWN.s:480    .text:0000000000000280 _ZN9Scheduler3getEv
     /tmp/ccHn2wWN.s:483    .text:0000000000000280 .L0 
     /tmp/ccHn2wWN.s:484    .text:0000000000000280 .L0 
     /tmp/ccHn2wWN.s:485    .text:0000000000000284 .L0 
     /tmp/ccHn2wWN.s:487    .text:0000000000000288 .L0 
     /tmp/ccHn2wWN.s:489    .text:000000000000028c .L0 
     /tmp/ccHn2wWN.s:491    .text:000000000000028c .L0 
     /tmp/ccHn2wWN.s:492    .text:000000000000028c .L0 
     /tmp/ccHn2wWN.s:494    .text:0000000000000294 .L0 
     /tmp/ccHn2wWN.s:497    .text:0000000000000298 .L0 
     /tmp/ccHn2wWN.s:498    .text:0000000000000298 .L0 
     /tmp/ccHn2wWN.s:499    .text:0000000000000298 .L0 
     /tmp/ccHn2wWN.s:501    .text:000000000000029c .L0 
     /tmp/ccHn2wWN.s:503    .text:00000000000002a0 .L0 
     /tmp/ccHn2wWN.s:504    .text:00000000000002a0 .L0 
     /tmp/ccHn2wWN.s:507    .text:00000000000002a8 .L0 
     /tmp/ccHn2wWN.s:508    .text:00000000000002a8 .L0 
     /tmp/ccHn2wWN.s:512    .text:00000000000002ac .L0 
GAS LISTING /tmp/ccHn2wWN.s 			page 17


     /tmp/ccHn2wWN.s:513    .text:00000000000002ac .L0 
     /tmp/ccHn2wWN.s:514    .text:00000000000002b0 .L0 
     /tmp/ccHn2wWN.s:515    .text:00000000000002b0 .L0 
     /tmp/ccHn2wWN.s:516    .text:00000000000002b0 .L0 
     /tmp/ccHn2wWN.s:518    .text:00000000000002b4 .L0 
     /tmp/ccHn2wWN.s:522    .text:00000000000002b8 .L0 
     /tmp/ccHn2wWN.s:524    .text:00000000000002b8 .L0 
     /tmp/ccHn2wWN.s:525    .text:00000000000002b8 .L0 
     /tmp/ccHn2wWN.s:528    .text:00000000000002c4 .L0 
     /tmp/ccHn2wWN.s:530    .text:00000000000002cc .L0 
     /tmp/ccHn2wWN.s:549    .bss:0000000000000010 _ZN9Scheduler16schedulerPCBTailE
     /tmp/ccHn2wWN.s:545    .bss:0000000000000008 _ZN9Scheduler16schedulerPCBHeadE
     /tmp/ccHn2wWN.s:541    .bss:0000000000000000 _ZN9Scheduler9schedulerE
     /tmp/ccHn2wWN.s:538    .bss:0000000000000000 .LANCHOR0
     /tmp/ccHn2wWN.s:556    .text:00000000000002cc .L0 
     /tmp/ccHn2wWN.s:107    .text:0000000000000070 .L0 
     /tmp/ccHn2wWN.s:115    .text:0000000000000080 .L0 
     /tmp/ccHn2wWN.s:160    .text:00000000000000c8 .L0 
     /tmp/ccHn2wWN.s:221    .text:0000000000000108 .L0 
     /tmp/ccHn2wWN.s:227    .text:0000000000000114 .L0 
     /tmp/ccHn2wWN.s:282    .text:0000000000000174 .L0 
     /tmp/ccHn2wWN.s:341    .text:00000000000001b4 .L0 
     /tmp/ccHn2wWN.s:347    .text:00000000000001c0 .L0 
     /tmp/ccHn2wWN.s:389    .text:0000000000000208 .L0 
     /tmp/ccHn2wWN.s:444    .text:0000000000000240 .L0 
     /tmp/ccHn2wWN.s:449    .text:000000000000024c .L0 
     /tmp/ccHn2wWN.s:469    .text:000000000000026c .L0 
     /tmp/ccHn2wWN.s:492    .text:000000000000028c .L0 
     /tmp/ccHn2wWN.s:504    .text:00000000000002a0 .L0 
     /tmp/ccHn2wWN.s:525    .text:00000000000002b8 .L0 
     /tmp/ccHn2wWN.s:135    .text:00000000000000a8 .L11
     /tmp/ccHn2wWN.s:111    .text:000000000000007c .L6
     /tmp/ccHn2wWN.s:258    .text:0000000000000154 .L18
     /tmp/ccHn2wWN.s:224    .text:0000000000000114 .L13
     /tmp/ccHn2wWN.s:365    .text:00000000000001e8 .L25
     /tmp/ccHn2wWN.s:344    .text:00000000000001c0 .L20
     /tmp/ccHn2wWN.s:465    .text:000000000000026c .L30
     /tmp/ccHn2wWN.s:456    .text:0000000000000260 .L26
     /tmp/ccHn2wWN.s:511    .text:00000000000002ac .L31
     /tmp/ccHn2wWN.s:521    .text:00000000000002b8 .L36
     /tmp/ccHn2wWN.s:505    .text:00000000000002a8 .L34
     /tmp/ccHn2wWN.s:116    .text:0000000000000088 .LEHB0
     /tmp/ccHn2wWN.s:75     .text:0000000000000050 .LFB21
     /tmp/ccHn2wWN.s:142    .text:00000000000000b4 .LEHE0
     /tmp/ccHn2wWN.s:147    .text:00000000000000c0 .LEHB1
     /tmp/ccHn2wWN.s:155    .text:00000000000000c8 .LEHE1
     /tmp/ccHn2wWN.s:163    .text:00000000000000d4 .L8
     /tmp/ccHn2wWN.s:171    .text:00000000000000e8 .LEHB2
     /tmp/ccHn2wWN.s:174    .text:00000000000000f0 .LEHE2
     /tmp/ccHn2wWN.s:230    .text:0000000000000120 .LEHB3
     /tmp/ccHn2wWN.s:202    .text:00000000000000f0 .LFB25
     /tmp/ccHn2wWN.s:265    .text:0000000000000160 .LEHE3
     /tmp/ccHn2wWN.s:270    .text:000000000000016c .LEHB4
     /tmp/ccHn2wWN.s:277    .text:0000000000000174 .LEHE4
     /tmp/ccHn2wWN.s:285    .text:0000000000000180 .L15
     /tmp/ccHn2wWN.s:292    .text:0000000000000194 .LEHB5
     /tmp/ccHn2wWN.s:295    .text:000000000000019c .LEHE5
GAS LISTING /tmp/ccHn2wWN.s 			page 18


     /tmp/ccHn2wWN.s:348    .text:00000000000001c8 .LEHB6
     /tmp/ccHn2wWN.s:322    .text:000000000000019c .LFB28
     /tmp/ccHn2wWN.s:372    .text:00000000000001f4 .LEHE6
     /tmp/ccHn2wWN.s:377    .text:0000000000000200 .LEHB7
     /tmp/ccHn2wWN.s:384    .text:0000000000000208 .LEHE7
     /tmp/ccHn2wWN.s:392    .text:0000000000000214 .L22
     /tmp/ccHn2wWN.s:399    .text:0000000000000228 .LEHB8
     /tmp/ccHn2wWN.s:402    .text:0000000000000230 .LEHE8
     /tmp/ccHn2wWN.s:1775   .debug_abbrev:0000000000000000 .Ldebug_abbrev0
     /tmp/ccHn2wWN.s:3055   .debug_str:0000000000000370 .LASF113
     /tmp/ccHn2wWN.s:3027   .debug_str:00000000000002c2 .LASF114
     /tmp/ccHn2wWN.s:3137   .debug_str:0000000000000647 .LASF115
     /tmp/ccHn2wWN.s:5      .text:0000000000000000 .Ltext0
     /tmp/ccHn2wWN.s:552    .text:00000000000002cc .Letext0
     /tmp/ccHn2wWN.s:2929   .debug_line:0000000000000000 .Ldebug_line0
     /tmp/ccHn2wWN.s:3021   .debug_str:000000000000029b .LASF0
     /tmp/ccHn2wWN.s:3041   .debug_str:0000000000000315 .LASF1
     /tmp/ccHn2wWN.s:3093   .debug_str:0000000000000545 .LASF2
     /tmp/ccHn2wWN.s:3097   .debug_str:000000000000055c .LASF4
     /tmp/ccHn2wWN.s:3031   .debug_str:00000000000002e1 .LASF3
     /tmp/ccHn2wWN.s:2937   .debug_str:000000000000002f .LASF5
     /tmp/ccHn2wWN.s:3079   .debug_str:00000000000004d7 .LASF6
     /tmp/ccHn2wWN.s:3075   .debug_str:00000000000004bc .LASF7
     /tmp/ccHn2wWN.s:3035   .debug_str:00000000000002f8 .LASF8
     /tmp/ccHn2wWN.s:3013   .debug_str:000000000000025f .LASF9
     /tmp/ccHn2wWN.s:3017   .debug_str:0000000000000287 .LASF10
     /tmp/ccHn2wWN.s:2969   .debug_str:0000000000000151 .LASF11
     /tmp/ccHn2wWN.s:3003   .debug_str:0000000000000226 .LASF12
     /tmp/ccHn2wWN.s:2977   .debug_str:0000000000000178 .LASF13
     /tmp/ccHn2wWN.s:2967   .debug_str:0000000000000141 .LASF14
     /tmp/ccHn2wWN.s:3117   .debug_str:00000000000005f3 .LASF15
     /tmp/ccHn2wWN.s:2995   .debug_str:00000000000001f8 .LASF16
     /tmp/ccHn2wWN.s:3113   .debug_str:00000000000005c1 .LASF17
     /tmp/ccHn2wWN.s:3139   .debug_str:000000000000066a .LASF28
     /tmp/ccHn2wWN.s:3149   .debug_str:00000000000006af .LASF20
     /tmp/ccHn2wWN.s:3037   .debug_str:000000000000030b .LASF18
     /tmp/ccHn2wWN.s:2971   .debug_str:0000000000000160 .LASF19
     /tmp/ccHn2wWN.s:3123   .debug_str:000000000000060c .LASF21
     /tmp/ccHn2wWN.s:3047   .debug_str:000000000000033b .LASF22
     /tmp/ccHn2wWN.s:3167   .debug_str:0000000000000716 .LASF39
     /tmp/ccHn2wWN.s:3147   .debug_str:00000000000006a9 .LASF24
     /tmp/ccHn2wWN.s:2981   .debug_str:0000000000000199 .LASF26
     /tmp/ccHn2wWN.s:3023   .debug_str:00000000000002a8 .LASF23
     /tmp/ccHn2wWN.s:3107   .debug_str:0000000000000596 .LASF29
     /tmp/ccHn2wWN.s:3039   .debug_str:0000000000000310 .LASF25
     /tmp/ccHn2wWN.s:3085   .debug_str:00000000000004f1 .LASF27
     /tmp/ccHn2wWN.s:2991   .debug_str:00000000000001d8 .LASF30
     /tmp/ccHn2wWN.s:3083   .debug_str:00000000000004ea .LASF45
     /tmp/ccHn2wWN.s:2951   .debug_str:00000000000000bd .LASF47
     /tmp/ccHn2wWN.s:3127   .debug_str:0000000000000617 .LASF116
     /tmp/ccHn2wWN.s:2965   .debug_str:000000000000013b .LASF31
     /tmp/ccHn2wWN.s:3109   .debug_str:00000000000005ab .LASF32
     /tmp/ccHn2wWN.s:2975   .debug_str:000000000000016e .LASF33
     /tmp/ccHn2wWN.s:2957   .debug_str:00000000000000e7 .LASF34
     /tmp/ccHn2wWN.s:3077   .debug_str:00000000000004cf .LASF35
     /tmp/ccHn2wWN.s:2973   .debug_str:0000000000000165 .LASF36
     /tmp/ccHn2wWN.s:3121   .debug_str:0000000000000604 .LASF37
GAS LISTING /tmp/ccHn2wWN.s 			page 19


     /tmp/ccHn2wWN.s:3019   .debug_str:0000000000000295 .LASF38
     /tmp/ccHn2wWN.s:3145   .debug_str:0000000000000691 .LASF40
     /tmp/ccHn2wWN.s:3065   .debug_str:000000000000046e .LASF117
     /tmp/ccHn2wWN.s:3155   .debug_str:00000000000006dd .LASF41
     /tmp/ccHn2wWN.s:3175   .debug_str:000000000000074f .LASF42
     /tmp/ccHn2wWN.s:3171   .debug_str:0000000000000735 .LASF43
     /tmp/ccHn2wWN.s:3133   .debug_str:000000000000062d .LASF44
     /tmp/ccHn2wWN.s:2989   .debug_str:00000000000001cf .LASF71
     /tmp/ccHn2wWN.s:2945   .debug_str:0000000000000061 .LASF73
     /tmp/ccHn2wWN.s:3043   .debug_str:0000000000000328 .LASF46
     /tmp/ccHn2wWN.s:3069   .debug_str:0000000000000486 .LASF48
     /tmp/ccHn2wWN.s:3129   .debug_str:000000000000061d .LASF49
     /tmp/ccHn2wWN.s:3157   .debug_str:00000000000006e2 .LASF50
     /tmp/ccHn2wWN.s:3101   .debug_str:000000000000056b .LASF51
     /tmp/ccHn2wWN.s:3045   .debug_str:000000000000032e .LASF52
     /tmp/ccHn2wWN.s:3049   .debug_str:0000000000000340 .LASF53
     /tmp/ccHn2wWN.s:3177   .debug_str:000000000000075b .LASF54
     /tmp/ccHn2wWN.s:2997   .debug_str:000000000000020e .LASF55
     /tmp/ccHn2wWN.s:2935   .debug_str:000000000000001f .LASF56
     /tmp/ccHn2wWN.s:3029   .debug_str:00000000000002d4 .LASF57
     /tmp/ccHn2wWN.s:3105   .debug_str:000000000000058d .LASF58
     /tmp/ccHn2wWN.s:3059   .debug_str:0000000000000433 .LASF59
     /tmp/ccHn2wWN.s:3095   .debug_str:0000000000000553 .LASF60
     /tmp/ccHn2wWN.s:3115   .debug_str:00000000000005d7 .LASF61
     /tmp/ccHn2wWN.s:3061   .debug_str:0000000000000446 .LASF62
     /tmp/ccHn2wWN.s:2931   .debug_str:0000000000000000 .LASF63
     /tmp/ccHn2wWN.s:3163   .debug_str:00000000000006fc .LASF64
     /tmp/ccHn2wWN.s:3073   .debug_str:00000000000004a2 .LASF65
     /tmp/ccHn2wWN.s:3111   .debug_str:00000000000005b3 .LASF66
     /tmp/ccHn2wWN.s:3081   .debug_str:00000000000004de .LASF67
     /tmp/ccHn2wWN.s:2987   .debug_str:00000000000001bf .LASF68
     /tmp/ccHn2wWN.s:3165   .debug_str:000000000000070b .LASF69
     /tmp/ccHn2wWN.s:3053   .debug_str:0000000000000360 .LASF70
     /tmp/ccHn2wWN.s:2993   .debug_str:00000000000001e6 .LASF72
     /tmp/ccHn2wWN.s:3151   .debug_str:00000000000006b4 .LASF74
     /tmp/ccHn2wWN.s:2959   .debug_str:00000000000000f0 .LASF75
     /tmp/ccHn2wWN.s:3141   .debug_str:0000000000000670 .LASF76
     /tmp/ccHn2wWN.s:3099   .debug_str:0000000000000563 .LASF101
     /tmp/ccHn2wWN.s:3135   .debug_str:000000000000063d .LASF77
     /tmp/ccHn2wWN.s:3071   .debug_str:0000000000000496 .LASF78
     /tmp/ccHn2wWN.s:2985   .debug_str:00000000000001b1 .LASF79
     /tmp/ccHn2wWN.s:2949   .debug_str:0000000000000095 .LASF81
     /tmp/ccHn2wWN.s:3025   .debug_str:00000000000002ad .LASF80
     /tmp/ccHn2wWN.s:2963   .debug_str:000000000000010f .LASF82
     /tmp/ccHn2wWN.s:3161   .debug_str:00000000000006f5 .LASF118
     /tmp/ccHn2wWN.s:2961   .debug_str:00000000000000fe .LASF119
     /tmp/ccHn2wWN.s:2933   .debug_str:000000000000001a .LASF83
     /tmp/ccHn2wWN.s:3119   .debug_str:00000000000005ff .LASF84
     /tmp/ccHn2wWN.s:3051   .debug_str:0000000000000358 .LASF85
     /tmp/ccHn2wWN.s:2983   .debug_str:00000000000001ab .LASF86
     /tmp/ccHn2wWN.s:3143   .debug_str:0000000000000689 .LASF87
     /tmp/ccHn2wWN.s:2953   .debug_str:00000000000000cb .LASF88
     /tmp/ccHn2wWN.s:3011   .debug_str:0000000000000255 .LASF89
     /tmp/ccHn2wWN.s:2941   .debug_str:0000000000000040 .LASF120
     /tmp/ccHn2wWN.s:3173   .debug_str:000000000000073b .LASF121
     /tmp/ccHn2wWN.s:3033   .debug_str:00000000000002f3 .LASF90
     /tmp/ccHn2wWN.s:3063   .debug_str:0000000000000455 .LASF91
GAS LISTING /tmp/ccHn2wWN.s 			page 20


     /tmp/ccHn2wWN.s:3001   .debug_str:0000000000000221 .LASF92
     /tmp/ccHn2wWN.s:3005   .debug_str:0000000000000235 .LASF96
     /tmp/ccHn2wWN.s:2955   .debug_str:00000000000000d5 .LASF93
     /tmp/ccHn2wWN.s:3067   .debug_str:0000000000000473 .LASF94
     /tmp/ccHn2wWN.s:3131   .debug_str:0000000000000625 .LASF95
     /tmp/ccHn2wWN.s:3089   .debug_str:000000000000051b .LASF97
     /tmp/ccHn2wWN.s:3103   .debug_str:000000000000057c .LASF98
     /tmp/ccHn2wWN.s:2979   .debug_str:0000000000000188 .LASF99
     /tmp/ccHn2wWN.s:2943   .debug_str:0000000000000058 .LASF100
     /tmp/ccHn2wWN.s:2939   .debug_str:0000000000000036 .LASF102
     /tmp/ccHn2wWN.s:3181   .debug_str:0000000000000773 .LASF122
     /tmp/ccHn2wWN.s:3125   .debug_str:0000000000000612 .LASF103
     /tmp/ccHn2wWN.s:3087   .debug_str:0000000000000502 .LASF104
     /tmp/ccHn2wWN.s:3057   .debug_str:0000000000000412 .LASF105
     /tmp/ccHn2wWN.s:2947   .debug_str:0000000000000074 .LASF106
     /tmp/ccHn2wWN.s:481    .text:0000000000000280 .LFB30
     /tmp/ccHn2wWN.s:531    .text:00000000000002cc .LFE30
     /tmp/ccHn2wWN.s:2999   .debug_str:000000000000021a .LASF107
     /tmp/ccHn2wWN.s:2785   .debug_loc:0000000000000000 .LLST9
     /tmp/ccHn2wWN.s:429    .text:0000000000000230 .LFB29
     /tmp/ccHn2wWN.s:475    .text:0000000000000280 .LFE29
     /tmp/ccHn2wWN.s:404    .text:0000000000000230 .LFE28
     /tmp/ccHn2wWN.s:378    .text:0000000000000200 .LBB21
     /tmp/ccHn2wWN.s:387    .text:0000000000000208 .LBE21
     /tmp/ccHn2wWN.s:2796   .debug_loc:0000000000000036 .LLST8
     /tmp/ccHn2wWN.s:383    .text:0000000000000208 .LVL32
     /tmp/ccHn2wWN.s:350    .text:00000000000001d0 .LVL29
     /tmp/ccHn2wWN.s:371    .text:00000000000001f4 .LVL30
     /tmp/ccHn2wWN.s:397    .text:0000000000000224 .LVL34
     /tmp/ccHn2wWN.s:401    .text:0000000000000230 .LVL35
     /tmp/ccHn2wWN.s:43     .text:0000000000000028 .LFB27
     /tmp/ccHn2wWN.s:69     .text:0000000000000050 .LFE27
     /tmp/ccHn2wWN.s:2807   .debug_loc:000000000000006c .LLST1
     /tmp/ccHn2wWN.s:58     .text:0000000000000040 .LVL3
     /tmp/ccHn2wWN.s:10     .text:0000000000000000 .LFB26
     /tmp/ccHn2wWN.s:37     .text:0000000000000028 .LFE26
     /tmp/ccHn2wWN.s:2821   .debug_loc:00000000000000a5 .LLST0
     /tmp/ccHn2wWN.s:26     .text:0000000000000018 .LVL1
     /tmp/ccHn2wWN.s:297    .text:000000000000019c .LFE25
     /tmp/ccHn2wWN.s:2835   .debug_loc:00000000000000de .LLST6
     /tmp/ccHn2wWN.s:271    .text:000000000000016c .LBB18
     /tmp/ccHn2wWN.s:280    .text:0000000000000174 .LBE18
     /tmp/ccHn2wWN.s:2846   .debug_loc:0000000000000114 .LLST7
     /tmp/ccHn2wWN.s:276    .text:0000000000000174 .LVL25
     /tmp/ccHn2wWN.s:232    .text:0000000000000128 .LVL18
     /tmp/ccHn2wWN.s:239    .text:0000000000000138 .LVL20
     /tmp/ccHn2wWN.s:264    .text:0000000000000160 .LVL23
     /tmp/ccHn2wWN.s:290    .text:0000000000000190 .LVL27
     /tmp/ccHn2wWN.s:294    .text:000000000000019c .LVL28
     /tmp/ccHn2wWN.s:176    .text:00000000000000f0 .LFE21
     /tmp/ccHn2wWN.s:2857   .debug_loc:000000000000014a .LLST2
     /tmp/ccHn2wWN.s:96     .text:000000000000006c .LBB13
     /tmp/ccHn2wWN.s:104    .text:0000000000000070 .LBE13
     /tmp/ccHn2wWN.s:2886   .debug_loc:00000000000001bf .LLST3
     /tmp/ccHn2wWN.s:2894   .debug_loc:00000000000001e3 .LLST4
     /tmp/ccHn2wWN.s:148    .text:00000000000000c0 .LBB15
     /tmp/ccHn2wWN.s:158    .text:00000000000000c8 .LBE15
GAS LISTING /tmp/ccHn2wWN.s 			page 21


     /tmp/ccHn2wWN.s:2901   .debug_loc:0000000000000206 .LLST5
     /tmp/ccHn2wWN.s:154    .text:00000000000000c8 .LVL13
     /tmp/ccHn2wWN.s:118    .text:0000000000000090 .LVL8
     /tmp/ccHn2wWN.s:141    .text:00000000000000b4 .LVL11
     /tmp/ccHn2wWN.s:169    .text:00000000000000e4 .LVL16
     /tmp/ccHn2wWN.s:173    .text:00000000000000f0 .LVL17
     /tmp/ccHn2wWN.s:3007   .debug_str:000000000000024a .LASF108
     /tmp/ccHn2wWN.s:3091   .debug_str:0000000000000533 .LASF123
     /tmp/ccHn2wWN.s:3169   .debug_str:0000000000000726 .LASF124
     /tmp/ccHn2wWN.s:3015   .debug_str:000000000000026f .LASF125
     /tmp/ccHn2wWN.s:3179   .debug_str:0000000000000768 .LASF109
     /tmp/ccHn2wWN.s:3009   .debug_str:000000000000024f .LASF111
     /tmp/ccHn2wWN.s:3153   .debug_str:00000000000006d1 .LASF110
     /tmp/ccHn2wWN.s:3159   .debug_str:00000000000006ed .LASF112
     /tmp/ccHn2wWN.s:496    .text:0000000000000298 .LVL37
     /tmp/ccHn2wWN.s:510    .text:00000000000002ac .LVL38
     /tmp/ccHn2wWN.s:520    .text:00000000000002b8 .LVL39
     /tmp/ccHn2wWN.s:376    .text:0000000000000200 .LVL31
     /tmp/ccHn2wWN.s:391    .text:0000000000000214 .LVL33
     /tmp/ccHn2wWN.s:46     .text:0000000000000028 .LVL2
     /tmp/ccHn2wWN.s:14     .text:0000000000000000 .LVL0
     /tmp/ccHn2wWN.s:234    .text:000000000000012c .LVL19
     /tmp/ccHn2wWN.s:251    .text:0000000000000148 .LVL21
     /tmp/ccHn2wWN.s:257    .text:0000000000000154 .LVL22
     /tmp/ccHn2wWN.s:269    .text:000000000000016c .LVL24
     /tmp/ccHn2wWN.s:284    .text:0000000000000180 .LVL26
     /tmp/ccHn2wWN.s:80     .text:0000000000000050 .LVL4
     /tmp/ccHn2wWN.s:110    .text:000000000000007c .LVL7
     /tmp/ccHn2wWN.s:128    .text:000000000000009c .LVL9
     /tmp/ccHn2wWN.s:134    .text:00000000000000a8 .LVL10
     /tmp/ccHn2wWN.s:165    .text:00000000000000d8 .LVL15
     /tmp/ccHn2wWN.s:95     .text:000000000000006c .LVL5
     /tmp/ccHn2wWN.s:102    .text:0000000000000070 .LVL6
     /tmp/ccHn2wWN.s:146    .text:00000000000000c0 .LVL12
     /tmp/ccHn2wWN.s:162    .text:00000000000000d4 .LVL14
     /tmp/ccHn2wWN.s:557    .debug_info:0000000000000000 .Ldebug_info0
     /tmp/ccHn2wWN.s:179    .gcc_except_table:0000000000000000 .LLSDA21
     /tmp/ccHn2wWN.s:299    .gcc_except_table:000000000000002b .LLSDA25
     /tmp/ccHn2wWN.s:406    .gcc_except_table:0000000000000056 .LLSDA28

UNDEFINED SYMBOLS
_Z7kmallocm
_Z5kfreePv
_ZN5Queue4pushEP3PCB
_ZN5QueueC1Ev
_Unwind_Resume
__gxx_personality_v0
_ZN5Queue5frontEv
_ZN5Queue3popEv
_ZN5Queue4sizeEv
