GAS LISTING /tmp/ccwJmhxr.s 			page 1


   1              		.file	"Scheduler.cpp"
   2              		.option pic
   3              		.option norelax
   4              		.text
   5              	.Ltext0:
   6              		.align	2
   7              		.globl	_ZN9SchedulernwEm
   9              	_ZN9SchedulernwEm:
  10              	.LFB24:
  11              		.file 1 "src/Scheduler.cpp"
   1:src/Scheduler.cpp **** //
   2:src/Scheduler.cpp **** // Created by os on 4/27/22.
   3:src/Scheduler.cpp **** //
   4:src/Scheduler.cpp **** 
   5:src/Scheduler.cpp **** #include "../h/Scheduler.hpp"
   6:src/Scheduler.cpp **** #include "../h/PCB.hpp"
   7:src/Scheduler.cpp **** #include "../test/printing.hpp"
   8:src/Scheduler.cpp **** 
   9:src/Scheduler.cpp **** PCB* Scheduler::schedulerPCBHead = 0;
  10:src/Scheduler.cpp **** PCB* Scheduler::schedulerPCBTail = 0;
  11:src/Scheduler.cpp **** 
  12:src/Scheduler.cpp **** void *Scheduler::operator new(size_t size)
  13:src/Scheduler.cpp **** {
  12              		.loc 1 13 1
  13              		.cfi_startproc
  14              	.LVL0:
  15 0000 130101FF 		addi	sp,sp,-16
  16              		.cfi_def_cfa_offset 16
  17 0004 23341100 		sd	ra,8(sp)
  18 0008 23308100 		sd	s0,0(sp)
  19              		.cfi_offset 1, -8
  20              		.cfi_offset 8, -16
  21 000c 13040101 		addi	s0,sp,16
  22              		.cfi_def_cfa 8, 0
  14:src/Scheduler.cpp ****     return kmalloc(size);
  23              		.loc 1 14 5
  24              		.loc 1 14 19 is_stmt 0
  25 0010 97000000 		call	_Z7kmallocm@plt
  25      E7800000 
  26              	.LVL1:
  15:src/Scheduler.cpp **** }
  27              		.loc 1 15 1
  28 0018 83308100 		ld	ra,8(sp)
  29              		.cfi_restore 1
  30 001c 03340100 		ld	s0,0(sp)
  31              		.cfi_restore 8
  32              		.cfi_def_cfa 2, 16
  33 0020 13010101 		addi	sp,sp,16
  34              		.cfi_def_cfa_offset 0
  35 0024 67800000 		jr	ra
  36              		.cfi_endproc
  37              	.LFE24:
  39              		.align	2
  40              		.globl	_ZN9SchedulerdlEPv
  42              	_ZN9SchedulerdlEPv:
  43              	.LFB25:
  16:src/Scheduler.cpp **** 
GAS LISTING /tmp/ccwJmhxr.s 			page 2


  17:src/Scheduler.cpp **** void Scheduler::operator delete(void *p)
  18:src/Scheduler.cpp **** {
  44              		.loc 1 18 1 is_stmt 1
  45              		.cfi_startproc
  46              	.LVL2:
  47 0028 130101FF 		addi	sp,sp,-16
  48              		.cfi_def_cfa_offset 16
  49 002c 23341100 		sd	ra,8(sp)
  50 0030 23308100 		sd	s0,0(sp)
  51              		.cfi_offset 1, -8
  52              		.cfi_offset 8, -16
  53 0034 13040101 		addi	s0,sp,16
  54              		.cfi_def_cfa 8, 0
  19:src/Scheduler.cpp ****     kfree(p);
  55              		.loc 1 19 5
  56              		.loc 1 19 10 is_stmt 0
  57 0038 97000000 		call	_Z5kfreePv@plt
  57      E7800000 
  58              	.LVL3:
  20:src/Scheduler.cpp **** }
  59              		.loc 1 20 1
  60 0040 83308100 		ld	ra,8(sp)
  61              		.cfi_restore 1
  62 0044 03340100 		ld	s0,0(sp)
  63              		.cfi_restore 8
  64              		.cfi_def_cfa 2, 16
  65 0048 13010101 		addi	sp,sp,16
  66              		.cfi_def_cfa_offset 0
  67 004c 67800000 		jr	ra
  68              		.cfi_endproc
  69              	.LFE25:
  71              		.align	2
  72              		.globl	_ZN9Scheduler7getSizeEv
  74              	_ZN9Scheduler7getSizeEv:
  75              	.LFB26:
  21:src/Scheduler.cpp **** 
  22:src/Scheduler.cpp **** int Scheduler::getSize()
  23:src/Scheduler.cpp **** {
  76              		.loc 1 23 1 is_stmt 1
  77              		.cfi_startproc
  78 0050 130101FF 		addi	sp,sp,-16
  79              		.cfi_def_cfa_offset 16
  80 0054 23348100 		sd	s0,8(sp)
  81              		.cfi_offset 8, -8
  82 0058 13040101 		addi	s0,sp,16
  83              		.cfi_def_cfa 8, 0
  24:src/Scheduler.cpp ****     uint64 sz = 0;
  84              		.loc 1 24 5
  85              	.LVL4:
  25:src/Scheduler.cpp ****     PCB* curr = schedulerPCBHead;
  86              		.loc 1 25 5
  87              		.loc 1 25 10 is_stmt 0
  88 005c 97070000 		ld	a5,.LANCHOR0
  88      83B70700 
  89              	.LVL5:
  24:src/Scheduler.cpp ****     uint64 sz = 0;
  90              		.loc 1 24 12
GAS LISTING /tmp/ccwJmhxr.s 			page 3


  91 0064 13050000 		li	a0,0
  92              	.LVL6:
  93              	.L7:
  26:src/Scheduler.cpp ****     while(curr != 0)
  94              		.loc 1 26 5 is_stmt 1
  95              		.loc 1 26 16
  96 0068 63880700 		beqz	a5,.L6
  27:src/Scheduler.cpp ****     {
  28:src/Scheduler.cpp ****         sz++;
  97              		.loc 1 28 9
  98              		.loc 1 28 11 is_stmt 0
  99 006c 13051500 		addi	a0,a0,1
 100              	.LVL7:
  29:src/Scheduler.cpp ****         curr = curr->nextPCB;
 101              		.loc 1 29 9 is_stmt 1
 102              		.loc 1 29 14 is_stmt 0
 103 0070 83B78700 		ld	a5,8(a5)
 104              	.LVL8:
  26:src/Scheduler.cpp ****     while(curr != 0)
 105              		.loc 1 26 5
 106 0074 6FF05FFF 		j	.L7
 107              	.L6:
  30:src/Scheduler.cpp ****     }
  31:src/Scheduler.cpp ****     return sz;
 108              		.loc 1 31 5 is_stmt 1
  32:src/Scheduler.cpp **** }
 109              		.loc 1 32 1 is_stmt 0
 110 0078 1B050500 		sext.w	a0,a0
 111              	.LVL9:
 112 007c 03348100 		ld	s0,8(sp)
 113              		.cfi_restore 8
 114              		.cfi_def_cfa 2, 16
 115 0080 13010101 		addi	sp,sp,16
 116              		.cfi_def_cfa_offset 0
 117 0084 67800000 		jr	ra
 118              		.cfi_endproc
 119              	.LFE26:
 121              		.align	2
 122              		.globl	_ZN9Scheduler3putEP3PCB
 124              	_ZN9Scheduler3putEP3PCB:
 125              	.LFB27:
  33:src/Scheduler.cpp **** 
  34:src/Scheduler.cpp **** void Scheduler::put(PCB *pcb)
  35:src/Scheduler.cpp **** {
 126              		.loc 1 35 1 is_stmt 1
 127              		.cfi_startproc
 128              	.LVL10:
 129 0088 130101FF 		addi	sp,sp,-16
 130              		.cfi_def_cfa_offset 16
 131 008c 23348100 		sd	s0,8(sp)
 132              		.cfi_offset 8, -8
 133 0090 13040101 		addi	s0,sp,16
 134              		.cfi_def_cfa 8, 0
  36:src/Scheduler.cpp ****     pcb->setState(PCB::READY);
 135              		.loc 1 36 5
 136              	.LVL11:
 137              	.LBB4:
GAS LISTING /tmp/ccwJmhxr.s 			page 4


 138              	.LBB5:
 139              		.file 2 "src/../h/PCB.hpp"
   1:src/../h/PCB.hpp **** //
   2:src/../h/PCB.hpp **** // Created by os on 4/27/22.
   3:src/../h/PCB.hpp **** //
   4:src/../h/PCB.hpp **** 
   5:src/../h/PCB.hpp **** #ifndef PROJECT_BASE_V1_0_PCB_HPP
   6:src/../h/PCB.hpp **** #define PROJECT_BASE_V1_0_PCB_HPP
   7:src/../h/PCB.hpp **** 
   8:src/../h/PCB.hpp **** #include "../lib/hw.h"
   9:src/../h/PCB.hpp **** #include "Scheduler.hpp"
  10:src/../h/PCB.hpp **** #include "Riscv.hpp"
  11:src/../h/PCB.hpp **** 
  12:src/../h/PCB.hpp **** class PCB
  13:src/../h/PCB.hpp **** {
  14:src/../h/PCB.hpp **** public:
  15:src/../h/PCB.hpp ****     static uint64 savedRegA4;
  16:src/../h/PCB.hpp **** 
  17:src/../h/PCB.hpp ****     using Body = void (*)(void*);
  18:src/../h/PCB.hpp **** 
  19:src/../h/PCB.hpp ****     PCB(Body body,  void* args, void* stack_space, uint64 timeSlice);
  20:src/../h/PCB.hpp ****     ~PCB();
  21:src/../h/PCB.hpp **** 
  22:src/../h/PCB.hpp ****     void start();
  23:src/../h/PCB.hpp ****     static void dispatch();
  24:src/../h/PCB.hpp ****     static void sleep(time_t);
  25:src/../h/PCB.hpp **** 
  26:src/../h/PCB.hpp ****     static PCB* running;
  27:src/../h/PCB.hpp **** 
  28:src/../h/PCB.hpp ****     static uint64 timeSliceCounter;
  29:src/../h/PCB.hpp ****     uint64 getTimeSlice() { return timeSlice;}
  30:src/../h/PCB.hpp **** 
  31:src/../h/PCB.hpp ****     void* operator new(size_t size);
  32:src/../h/PCB.hpp ****     void operator delete(void *p);
  33:src/../h/PCB.hpp **** 
  34:src/../h/PCB.hpp ****     enum State{READY, RUNNING, SUSPENDED, FINISHED, EXITING, SLEEPING};
  35:src/../h/PCB.hpp ****     State getState() {return state;}
  36:src/../h/PCB.hpp ****     void setState(State s) {state = s;}
 140              		.loc 2 36 29
 141              		.loc 2 36 35 is_stmt 0
 142 0094 232C0502 		sw	zero,56(a0)
 143              	.LVL12:
 144              	.LBE5:
 145              	.LBE4:
  37:src/Scheduler.cpp ****     pcb->nextPCB = 0;
 146              		.loc 1 37 5 is_stmt 1
 147              		.loc 1 37 18 is_stmt 0
 148 0098 23340500 		sd	zero,8(a0)
  38:src/Scheduler.cpp ****     if(schedulerPCBHead == 0)
 149              		.loc 1 38 5 is_stmt 1
 150              		.loc 1 38 25 is_stmt 0
 151 009c 97070000 		ld	a5,.LANCHOR0
 151      83B70700 
 152              		.loc 1 38 5
 153 00a4 63820702 		beqz	a5,.L13
  39:src/Scheduler.cpp ****         schedulerPCBHead = schedulerPCBTail = pcb;
  40:src/Scheduler.cpp ****     else
GAS LISTING /tmp/ccwJmhxr.s 			page 5


  41:src/Scheduler.cpp ****     {
  42:src/Scheduler.cpp ****         schedulerPCBTail->nextPCB = pcb;
 154              		.loc 1 42 9 is_stmt 1
 155              		.loc 1 42 27 is_stmt 0
 156 00a8 97070000 		lla	a5,.LANCHOR0
 156      93870700 
 157 00b0 03B78700 		ld	a4,8(a5)
 158              		.loc 1 42 35
 159 00b4 2334A700 		sd	a0,8(a4)
  43:src/Scheduler.cpp ****         schedulerPCBTail = pcb;
 160              		.loc 1 43 9 is_stmt 1
 161              		.loc 1 43 26 is_stmt 0
 162 00b8 23B4A700 		sd	a0,8(a5)
 163              	.L9:
  44:src/Scheduler.cpp ****     }
  45:src/Scheduler.cpp **** }
 164              		.loc 1 45 1
 165 00bc 03348100 		ld	s0,8(sp)
 166              		.cfi_remember_state
 167              		.cfi_restore 8
 168              		.cfi_def_cfa 2, 16
 169 00c0 13010101 		addi	sp,sp,16
 170              		.cfi_def_cfa_offset 0
 171 00c4 67800000 		jr	ra
 172              	.L13:
 173              		.cfi_restore_state
  39:src/Scheduler.cpp ****     else
 174              		.loc 1 39 9 is_stmt 1
  39:src/Scheduler.cpp ****     else
 175              		.loc 1 39 45 is_stmt 0
 176 00c8 97070000 		lla	a5,.LANCHOR0
 176      93870700 
 177 00d0 23B4A700 		sd	a0,8(a5)
  39:src/Scheduler.cpp ****     else
 178              		.loc 1 39 26
 179 00d4 23B0A700 		sd	a0,0(a5)
 180 00d8 6FF05FFE 		j	.L9
 181              		.cfi_endproc
 182              	.LFE27:
 184              		.align	2
 185              		.globl	_ZN9Scheduler3getEv
 187              	_ZN9Scheduler3getEv:
 188              	.LFB28:
  46:src/Scheduler.cpp **** 
  47:src/Scheduler.cpp **** PCB *Scheduler::get()
  48:src/Scheduler.cpp **** {
 189              		.loc 1 48 1 is_stmt 1
 190              		.cfi_startproc
 191 00dc 130101FF 		addi	sp,sp,-16
 192              		.cfi_def_cfa_offset 16
 193 00e0 23348100 		sd	s0,8(sp)
 194              		.cfi_offset 8, -8
 195 00e4 13040101 		addi	s0,sp,16
 196              		.cfi_def_cfa 8, 0
  49:src/Scheduler.cpp ****     if(schedulerPCBHead == 0)
 197              		.loc 1 49 5
 198              		.loc 1 49 25 is_stmt 0
GAS LISTING /tmp/ccwJmhxr.s 			page 6


 199 00e8 17050000 		ld	a0,.LANCHOR0
 199      03350500 
 200              		.loc 1 49 5
 201 00f0 630C0500 		beqz	a0,.L14
  50:src/Scheduler.cpp ****         return 0;
  51:src/Scheduler.cpp ****     PCB* retval = schedulerPCBHead;
 202              		.loc 1 51 5 is_stmt 1
 203              	.LVL13:
  52:src/Scheduler.cpp ****     if(schedulerPCBHead->nextPCB == 0)
 204              		.loc 1 52 5
 205              		.loc 1 52 26 is_stmt 0
 206 00f4 83378500 		ld	a5,8(a0)
 207              		.loc 1 52 5
 208 00f8 638E0700 		beqz	a5,.L19
  53:src/Scheduler.cpp ****         schedulerPCBHead = schedulerPCBTail = 0;
  54:src/Scheduler.cpp ****     else
  55:src/Scheduler.cpp ****         schedulerPCBHead = schedulerPCBHead->nextPCB;
 209              		.loc 1 55 9 is_stmt 1
 210              		.loc 1 55 26 is_stmt 0
 211 00fc 17070000 		sd	a5,.LANCHOR0,a4
 211      2330F700 
 212              	.L17:
  56:src/Scheduler.cpp ****     retval->nextPCB = 0;
 213              		.loc 1 56 5 is_stmt 1
 214              		.loc 1 56 21 is_stmt 0
 215 0104 23340500 		sd	zero,8(a0)
  57:src/Scheduler.cpp ****     return retval;
 216              		.loc 1 57 5 is_stmt 1
 217              	.LVL14:
 218              	.L14:
  58:src/Scheduler.cpp **** }
 219              		.loc 1 58 1 is_stmt 0
 220 0108 03348100 		ld	s0,8(sp)
 221              		.cfi_remember_state
 222              		.cfi_restore 8
 223              		.cfi_def_cfa 2, 16
 224 010c 13010101 		addi	sp,sp,16
 225              		.cfi_def_cfa_offset 0
 226 0110 67800000 		jr	ra
 227              	.LVL15:
 228              	.L19:
 229              		.cfi_restore_state
  53:src/Scheduler.cpp ****     else
 230              		.loc 1 53 9 is_stmt 1
  53:src/Scheduler.cpp ****     else
 231              		.loc 1 53 45 is_stmt 0
 232 0114 97070000 		lla	a5,.LANCHOR0
 232      93870700 
 233 011c 23B40700 		sd	zero,8(a5)
  53:src/Scheduler.cpp ****     else
 234              		.loc 1 53 26
 235 0120 23B00700 		sd	zero,0(a5)
 236 0124 6FF01FFE 		j	.L17
 237              		.cfi_endproc
 238              	.LFE28:
 240              		.section	.rodata.str1.8,"aMS",@progbits,1
 241              		.align	3
GAS LISTING /tmp/ccwJmhxr.s 			page 7


 242              	.LC0:
 243 0000 53636865 		.string	"Scheduler print\n"
 243      64756C65 
 243      72207072 
 243      696E740A 
 243      00
 244 0011 00000000 		.align	3
 244      000000
 245              	.LC1:
 246 0018 0A00     		.string	"\n"
 247              		.text
 248              		.align	2
 249              		.globl	_ZN9Scheduler5printEv
 251              	_ZN9Scheduler5printEv:
 252              	.LFB29:
  59:src/Scheduler.cpp **** 
  60:src/Scheduler.cpp **** void Scheduler::print() {
 253              		.loc 1 60 25 is_stmt 1
 254              		.cfi_startproc
 255 0128 130101FE 		addi	sp,sp,-32
 256              		.cfi_def_cfa_offset 32
 257 012c 233C1100 		sd	ra,24(sp)
 258 0130 23388100 		sd	s0,16(sp)
 259 0134 23349100 		sd	s1,8(sp)
 260              		.cfi_offset 1, -8
 261              		.cfi_offset 8, -16
 262              		.cfi_offset 9, -24
 263 0138 13040102 		addi	s0,sp,32
 264              		.cfi_def_cfa 8, 0
  61:src/Scheduler.cpp ****     Riscv::printString("Scheduler print\n");
 265              		.loc 1 61 5
 266              		.loc 1 61 23 is_stmt 0
 267 013c 17050000 		lla	a0,.LC0
 267      13050500 
 268 0144 97000000 		call	_ZN5Riscv11printStringEPKc@plt
 268      E7800000 
 269              	.LVL16:
  62:src/Scheduler.cpp ****     PCB* curr = schedulerPCBHead;
 270              		.loc 1 62 5 is_stmt 1
 271              		.loc 1 62 10 is_stmt 0
 272 014c 97040000 		ld	s1,.LANCHOR0
 272      83B40400 
 273              	.LVL17:
 274              	.L22:
  63:src/Scheduler.cpp ****     while(curr != 0)
 275              		.loc 1 63 5 is_stmt 1
 276              		.loc 1 63 16
 277 0154 63880402 		beqz	s1,.L20
  64:src/Scheduler.cpp ****     {
  65:src/Scheduler.cpp ****         printInt((uint64)curr, 16);
 278              		.loc 1 65 9
 279              		.loc 1 65 17 is_stmt 0
 280 0158 13060000 		li	a2,0
 281 015c 93050001 		li	a1,16
 282 0160 1B850400 		sext.w	a0,s1
 283 0164 97000000 		call	_Z8printIntiii@plt
 283      E7800000 
GAS LISTING /tmp/ccwJmhxr.s 			page 8


 284              	.LVL18:
  66:src/Scheduler.cpp ****         Riscv::printString("\n");
 285              		.loc 1 66 9 is_stmt 1
 286              		.loc 1 66 27 is_stmt 0
 287 016c 17050000 		lla	a0,.LC1
 287      13050500 
 288 0174 97000000 		call	_ZN5Riscv11printStringEPKc@plt
 288      E7800000 
 289              	.LVL19:
  67:src/Scheduler.cpp ****         curr = curr->nextPCB;
 290              		.loc 1 67 9 is_stmt 1
 291              		.loc 1 67 14 is_stmt 0
 292 017c 83B48400 		ld	s1,8(s1)
 293              	.LVL20:
  63:src/Scheduler.cpp ****     {
 294              		.loc 1 63 5
 295 0180 6FF05FFD 		j	.L22
 296              	.L20:
  68:src/Scheduler.cpp ****     }
  69:src/Scheduler.cpp **** }
 297              		.loc 1 69 1
 298 0184 83308101 		ld	ra,24(sp)
 299              		.cfi_restore 1
 300 0188 03340101 		ld	s0,16(sp)
 301              		.cfi_restore 8
 302              		.cfi_def_cfa 2, 32
 303 018c 83348100 		ld	s1,8(sp)
 304              		.cfi_restore 9
 305              	.LVL21:
 306 0190 13010102 		addi	sp,sp,32
 307              		.cfi_def_cfa_offset 0
 308 0194 67800000 		jr	ra
 309              		.cfi_endproc
 310              	.LFE29:
 312              		.globl	_ZN9Scheduler16schedulerPCBTailE
 313              		.globl	_ZN9Scheduler16schedulerPCBHeadE
 314              		.bss
 315              		.align	3
 316              		.set	.LANCHOR0,. + 0
 319              	_ZN9Scheduler16schedulerPCBHeadE:
 320 0000 00000000 		.zero	8
 320      00000000 
 323              	_ZN9Scheduler16schedulerPCBTailE:
 324 0008 00000000 		.zero	8
 324      00000000 
 325              		.text
 326              	.Letext0:
 327              		.file 3 "src/../h/../lib/hw.h"
 328              		.file 4 "src/../h/Scheduler.hpp"
 329              		.file 5 "src/../h/Riscv.hpp"
 330              		.file 6 "src/../test/printing.hpp"
 331              		.file 7 "src/../h/MemoryAllocator.hpp"
GAS LISTING /tmp/ccwJmhxr.s 			page 9


DEFINED SYMBOLS
                            *ABS*:0000000000000000 Scheduler.cpp
     /tmp/ccwJmhxr.s:9      .text:0000000000000000 _ZN9SchedulernwEm
     /tmp/ccwJmhxr.s:13     .text:0000000000000000 .L0 
     /tmp/ccwJmhxr.s:15     .text:0000000000000000 .L0 
     /tmp/ccwJmhxr.s:16     .text:0000000000000004 .L0 
     /tmp/ccwJmhxr.s:19     .text:000000000000000c .L0 
     /tmp/ccwJmhxr.s:20     .text:000000000000000c .L0 
     /tmp/ccwJmhxr.s:22     .text:0000000000000010 .L0 
     /tmp/ccwJmhxr.s:24     .text:0000000000000010 .L0 
     /tmp/ccwJmhxr.s:25     .text:0000000000000010 .L0 
     /tmp/ccwJmhxr.s:28     .text:0000000000000018 .L0 
     /tmp/ccwJmhxr.s:29     .text:000000000000001c .L0 
     /tmp/ccwJmhxr.s:31     .text:0000000000000020 .L0 
     /tmp/ccwJmhxr.s:32     .text:0000000000000020 .L0 
     /tmp/ccwJmhxr.s:34     .text:0000000000000024 .L0 
     /tmp/ccwJmhxr.s:36     .text:0000000000000028 .L0 
     /tmp/ccwJmhxr.s:42     .text:0000000000000028 _ZN9SchedulerdlEPv
     /tmp/ccwJmhxr.s:45     .text:0000000000000028 .L0 
     /tmp/ccwJmhxr.s:47     .text:0000000000000028 .L0 
     /tmp/ccwJmhxr.s:48     .text:000000000000002c .L0 
     /tmp/ccwJmhxr.s:51     .text:0000000000000034 .L0 
     /tmp/ccwJmhxr.s:52     .text:0000000000000034 .L0 
     /tmp/ccwJmhxr.s:54     .text:0000000000000038 .L0 
     /tmp/ccwJmhxr.s:56     .text:0000000000000038 .L0 
     /tmp/ccwJmhxr.s:57     .text:0000000000000038 .L0 
     /tmp/ccwJmhxr.s:60     .text:0000000000000040 .L0 
     /tmp/ccwJmhxr.s:61     .text:0000000000000044 .L0 
     /tmp/ccwJmhxr.s:63     .text:0000000000000048 .L0 
     /tmp/ccwJmhxr.s:64     .text:0000000000000048 .L0 
     /tmp/ccwJmhxr.s:66     .text:000000000000004c .L0 
     /tmp/ccwJmhxr.s:68     .text:0000000000000050 .L0 
     /tmp/ccwJmhxr.s:74     .text:0000000000000050 _ZN9Scheduler7getSizeEv
     /tmp/ccwJmhxr.s:77     .text:0000000000000050 .L0 
     /tmp/ccwJmhxr.s:78     .text:0000000000000050 .L0 
     /tmp/ccwJmhxr.s:79     .text:0000000000000054 .L0 
     /tmp/ccwJmhxr.s:81     .text:0000000000000058 .L0 
     /tmp/ccwJmhxr.s:83     .text:000000000000005c .L0 
     /tmp/ccwJmhxr.s:86     .text:000000000000005c .L0 
     /tmp/ccwJmhxr.s:87     .text:000000000000005c .L0 
     /tmp/ccwJmhxr.s:88     .text:000000000000005c .L0 
     /tmp/ccwJmhxr.s:91     .text:0000000000000064 .L0 
     /tmp/ccwJmhxr.s:95     .text:0000000000000068 .L0 
     /tmp/ccwJmhxr.s:96     .text:0000000000000068 .L0 
     /tmp/ccwJmhxr.s:98     .text:000000000000006c .L0 
     /tmp/ccwJmhxr.s:99     .text:000000000000006c .L0 
     /tmp/ccwJmhxr.s:102    .text:0000000000000070 .L0 
     /tmp/ccwJmhxr.s:103    .text:0000000000000070 .L0 
     /tmp/ccwJmhxr.s:106    .text:0000000000000074 .L0 
     /tmp/ccwJmhxr.s:109    .text:0000000000000078 .L0 
     /tmp/ccwJmhxr.s:110    .text:0000000000000078 .L0 
     /tmp/ccwJmhxr.s:113    .text:0000000000000080 .L0 
     /tmp/ccwJmhxr.s:114    .text:0000000000000080 .L0 
     /tmp/ccwJmhxr.s:116    .text:0000000000000084 .L0 
     /tmp/ccwJmhxr.s:118    .text:0000000000000088 .L0 
     /tmp/ccwJmhxr.s:124    .text:0000000000000088 _ZN9Scheduler3putEP3PCB
     /tmp/ccwJmhxr.s:127    .text:0000000000000088 .L0 
GAS LISTING /tmp/ccwJmhxr.s 			page 10


     /tmp/ccwJmhxr.s:129    .text:0000000000000088 .L0 
     /tmp/ccwJmhxr.s:130    .text:000000000000008c .L0 
     /tmp/ccwJmhxr.s:132    .text:0000000000000090 .L0 
     /tmp/ccwJmhxr.s:134    .text:0000000000000094 .L0 
     /tmp/ccwJmhxr.s:140    .text:0000000000000094 .L0 
     /tmp/ccwJmhxr.s:141    .text:0000000000000094 .L0 
     /tmp/ccwJmhxr.s:142    .text:0000000000000094 .L0 
     /tmp/ccwJmhxr.s:147    .text:0000000000000098 .L0 
     /tmp/ccwJmhxr.s:148    .text:0000000000000098 .L0 
     /tmp/ccwJmhxr.s:150    .text:000000000000009c .L0 
     /tmp/ccwJmhxr.s:151    .text:000000000000009c .L0 
     /tmp/ccwJmhxr.s:153    .text:00000000000000a4 .L0 
     /tmp/ccwJmhxr.s:155    .text:00000000000000a8 .L0 
     /tmp/ccwJmhxr.s:156    .text:00000000000000a8 .L0 
     /tmp/ccwJmhxr.s:159    .text:00000000000000b4 .L0 
     /tmp/ccwJmhxr.s:161    .text:00000000000000b8 .L0 
     /tmp/ccwJmhxr.s:162    .text:00000000000000b8 .L0 
     /tmp/ccwJmhxr.s:165    .text:00000000000000bc .L0 
     /tmp/ccwJmhxr.s:166    .text:00000000000000c0 .L0 
     /tmp/ccwJmhxr.s:167    .text:00000000000000c0 .L0 
     /tmp/ccwJmhxr.s:168    .text:00000000000000c0 .L0 
     /tmp/ccwJmhxr.s:170    .text:00000000000000c4 .L0 
     /tmp/ccwJmhxr.s:173    .text:00000000000000c8 .L0 
     /tmp/ccwJmhxr.s:175    .text:00000000000000c8 .L0 
     /tmp/ccwJmhxr.s:176    .text:00000000000000c8 .L0 
     /tmp/ccwJmhxr.s:179    .text:00000000000000d4 .L0 
     /tmp/ccwJmhxr.s:181    .text:00000000000000dc .L0 
     /tmp/ccwJmhxr.s:187    .text:00000000000000dc _ZN9Scheduler3getEv
     /tmp/ccwJmhxr.s:190    .text:00000000000000dc .L0 
     /tmp/ccwJmhxr.s:191    .text:00000000000000dc .L0 
     /tmp/ccwJmhxr.s:192    .text:00000000000000e0 .L0 
     /tmp/ccwJmhxr.s:194    .text:00000000000000e4 .L0 
     /tmp/ccwJmhxr.s:196    .text:00000000000000e8 .L0 
     /tmp/ccwJmhxr.s:198    .text:00000000000000e8 .L0 
     /tmp/ccwJmhxr.s:199    .text:00000000000000e8 .L0 
     /tmp/ccwJmhxr.s:201    .text:00000000000000f0 .L0 
     /tmp/ccwJmhxr.s:204    .text:00000000000000f4 .L0 
     /tmp/ccwJmhxr.s:205    .text:00000000000000f4 .L0 
     /tmp/ccwJmhxr.s:206    .text:00000000000000f4 .L0 
     /tmp/ccwJmhxr.s:208    .text:00000000000000f8 .L0 
     /tmp/ccwJmhxr.s:210    .text:00000000000000fc .L0 
     /tmp/ccwJmhxr.s:211    .text:00000000000000fc .L0 
     /tmp/ccwJmhxr.s:214    .text:0000000000000104 .L0 
     /tmp/ccwJmhxr.s:215    .text:0000000000000104 .L0 
     /tmp/ccwJmhxr.s:219    .text:0000000000000108 .L0 
     /tmp/ccwJmhxr.s:220    .text:0000000000000108 .L0 
     /tmp/ccwJmhxr.s:221    .text:000000000000010c .L0 
     /tmp/ccwJmhxr.s:222    .text:000000000000010c .L0 
     /tmp/ccwJmhxr.s:223    .text:000000000000010c .L0 
     /tmp/ccwJmhxr.s:225    .text:0000000000000110 .L0 
     /tmp/ccwJmhxr.s:229    .text:0000000000000114 .L0 
     /tmp/ccwJmhxr.s:231    .text:0000000000000114 .L0 
     /tmp/ccwJmhxr.s:232    .text:0000000000000114 .L0 
     /tmp/ccwJmhxr.s:235    .text:0000000000000120 .L0 
     /tmp/ccwJmhxr.s:237    .text:0000000000000128 .L0 
     /tmp/ccwJmhxr.s:251    .text:0000000000000128 _ZN9Scheduler5printEv
     /tmp/ccwJmhxr.s:254    .text:0000000000000128 .L0 
GAS LISTING /tmp/ccwJmhxr.s 			page 11


     /tmp/ccwJmhxr.s:255    .text:0000000000000128 .L0 
     /tmp/ccwJmhxr.s:256    .text:000000000000012c .L0 
     /tmp/ccwJmhxr.s:260    .text:0000000000000138 .L0 
     /tmp/ccwJmhxr.s:261    .text:0000000000000138 .L0 
     /tmp/ccwJmhxr.s:262    .text:0000000000000138 .L0 
     /tmp/ccwJmhxr.s:264    .text:000000000000013c .L0 
     /tmp/ccwJmhxr.s:266    .text:000000000000013c .L0 
     /tmp/ccwJmhxr.s:267    .text:000000000000013c .L0 
     /tmp/ccwJmhxr.s:271    .text:000000000000014c .L0 
     /tmp/ccwJmhxr.s:272    .text:000000000000014c .L0 
     /tmp/ccwJmhxr.s:276    .text:0000000000000154 .L0 
     /tmp/ccwJmhxr.s:277    .text:0000000000000154 .L0 
     /tmp/ccwJmhxr.s:279    .text:0000000000000158 .L0 
     /tmp/ccwJmhxr.s:280    .text:0000000000000158 .L0 
     /tmp/ccwJmhxr.s:286    .text:000000000000016c .L0 
     /tmp/ccwJmhxr.s:287    .text:000000000000016c .L0 
     /tmp/ccwJmhxr.s:291    .text:000000000000017c .L0 
     /tmp/ccwJmhxr.s:292    .text:000000000000017c .L0 
     /tmp/ccwJmhxr.s:295    .text:0000000000000180 .L0 
     /tmp/ccwJmhxr.s:298    .text:0000000000000184 .L0 
     /tmp/ccwJmhxr.s:299    .text:0000000000000188 .L0 
     /tmp/ccwJmhxr.s:301    .text:000000000000018c .L0 
     /tmp/ccwJmhxr.s:302    .text:000000000000018c .L0 
     /tmp/ccwJmhxr.s:304    .text:0000000000000190 .L0 
     /tmp/ccwJmhxr.s:307    .text:0000000000000194 .L0 
     /tmp/ccwJmhxr.s:309    .text:0000000000000198 .L0 
     /tmp/ccwJmhxr.s:323    .bss:0000000000000008 _ZN9Scheduler16schedulerPCBTailE
     /tmp/ccwJmhxr.s:319    .bss:0000000000000000 _ZN9Scheduler16schedulerPCBHeadE
     /tmp/ccwJmhxr.s:316    .bss:0000000000000000 .LANCHOR0
     /tmp/ccwJmhxr.s:332    .text:0000000000000198 .L0 
     /tmp/ccwJmhxr.s:88     .text:000000000000005c .L0 
     /tmp/ccwJmhxr.s:151    .text:000000000000009c .L0 
     /tmp/ccwJmhxr.s:156    .text:00000000000000a8 .L0 
     /tmp/ccwJmhxr.s:176    .text:00000000000000c8 .L0 
     /tmp/ccwJmhxr.s:199    .text:00000000000000e8 .L0 
     /tmp/ccwJmhxr.s:211    .text:00000000000000fc .L0 
     /tmp/ccwJmhxr.s:232    .text:0000000000000114 .L0 
     /tmp/ccwJmhxr.s:242    .rodata.str1.8:0000000000000000 .LC0
     /tmp/ccwJmhxr.s:267    .text:000000000000013c .L0 
     /tmp/ccwJmhxr.s:272    .text:000000000000014c .L0 
     /tmp/ccwJmhxr.s:245    .rodata.str1.8:0000000000000018 .LC1
     /tmp/ccwJmhxr.s:287    .text:000000000000016c .L0 
     /tmp/ccwJmhxr.s:107    .text:0000000000000078 .L6
     /tmp/ccwJmhxr.s:93     .text:0000000000000068 .L7
     /tmp/ccwJmhxr.s:172    .text:00000000000000c8 .L13
     /tmp/ccwJmhxr.s:163    .text:00000000000000bc .L9
     /tmp/ccwJmhxr.s:218    .text:0000000000000108 .L14
     /tmp/ccwJmhxr.s:228    .text:0000000000000114 .L19
     /tmp/ccwJmhxr.s:212    .text:0000000000000104 .L17
     /tmp/ccwJmhxr.s:296    .text:0000000000000184 .L20
     /tmp/ccwJmhxr.s:274    .text:0000000000000154 .L22
     /tmp/ccwJmhxr.s:1649   .debug_abbrev:0000000000000000 .Ldebug_abbrev0
     /tmp/ccwJmhxr.s:2715   .debug_str:000000000000017a .LASF184
     /tmp/ccwJmhxr.s:2819   .debug_str:000000000000050c .LASF185
     /tmp/ccwJmhxr.s:2995   .debug_str:0000000000000a88 .LASF186
     /tmp/ccwJmhxr.s:5      .text:0000000000000000 .Ltext0
     /tmp/ccwJmhxr.s:326    .text:0000000000000198 .Letext0
GAS LISTING /tmp/ccwJmhxr.s 			page 12


     /tmp/ccwJmhxr.s:2673   .debug_line:0000000000000000 .Ldebug_line0
     /tmp/ccwJmhxr.s:2809   .debug_str:00000000000004bc .LASF0
     /tmp/ccwJmhxr.s:2837   .debug_str:00000000000005aa .LASF1
     /tmp/ccwJmhxr.s:2929   .debug_str:00000000000008b9 .LASF2
     /tmp/ccwJmhxr.s:2941   .debug_str:000000000000090e .LASF4
     /tmp/ccwJmhxr.s:2825   .debug_str:000000000000053e .LASF3
     /tmp/ccwJmhxr.s:2689   .debug_str:0000000000000069 .LASF5
     /tmp/ccwJmhxr.s:2907   .debug_str:0000000000000809 .LASF6
     /tmp/ccwJmhxr.s:2897   .debug_str:00000000000007b6 .LASF7
     /tmp/ccwJmhxr.s:2831   .debug_str:000000000000057f .LASF8
     /tmp/ccwJmhxr.s:2789   .debug_str:0000000000000423 .LASF9
     /tmp/ccwJmhxr.s:2793   .debug_str:000000000000044f .LASF10
     /tmp/ccwJmhxr.s:2731   .debug_str:00000000000002a6 .LASF11
     /tmp/ccwJmhxr.s:2779   .debug_str:00000000000003ec .LASF12
     /tmp/ccwJmhxr.s:2737   .debug_str:00000000000002c8 .LASF13
     /tmp/ccwJmhxr.s:2729   .debug_str:0000000000000296 .LASF14
     /tmp/ccwJmhxr.s:2975   .debug_str:0000000000000a20 .LASF15
     /tmp/ccwJmhxr.s:2769   .debug_str:00000000000003ab .LASF16
     /tmp/ccwJmhxr.s:2965   .debug_str:00000000000009af .LASF17
     /tmp/ccwJmhxr.s:2983   .debug_str:0000000000000a44 .LASF187
     /tmp/ccwJmhxr.s:2723   .debug_str:0000000000000269 .LASF18
     /tmp/ccwJmhxr.s:2959   .debug_str:000000000000098e .LASF19
     /tmp/ccwJmhxr.s:2735   .debug_str:00000000000002be .LASF20
     /tmp/ccwJmhxr.s:2713   .debug_str:0000000000000171 .LASF21
     /tmp/ccwJmhxr.s:2901   .debug_str:00000000000007df .LASF22
     /tmp/ccwJmhxr.s:2733   .debug_str:00000000000002b5 .LASF23
     /tmp/ccwJmhxr.s:2977   .debug_str:0000000000000a2c .LASF84
     /tmp/ccwJmhxr.s:2799   .debug_str:0000000000000482 .LASF24
     /tmp/ccwJmhxr.s:2693   .debug_str:000000000000008a .LASF29
     /tmp/ccwJmhxr.s:2999   .debug_str:0000000000000ab3 .LASF188
     /tmp/ccwJmhxr.s:2885   .debug_str:000000000000075d .LASF189
     /tmp/ccwJmhxr.s:2835   .debug_str:00000000000005a5 .LASF25
     /tmp/ccwJmhxr.s:3047   .debug_str:0000000000000c32 .LASF27
     /tmp/ccwJmhxr.s:3041   .debug_str:0000000000000c02 .LASF26
     /tmp/ccwJmhxr.s:2989   .debug_str:0000000000000a5a .LASF28
     /tmp/ccwJmhxr.s:2757   .debug_str:0000000000000362 .LASF54
     /tmp/ccwJmhxr.s:2701   .debug_str:00000000000000d5 .LASF56
     /tmp/ccwJmhxr.s:2839   .debug_str:00000000000005bd .LASF34
     /tmp/ccwJmhxr.s:2889   .debug_str:0000000000000775 .LASF36
     /tmp/ccwJmhxr.s:2985   .debug_str:0000000000000a4a .LASF30
     /tmp/ccwJmhxr.s:2951   .debug_str:0000000000000945 .LASF31
     /tmp/ccwJmhxr.s:2841   .debug_str:00000000000005c3 .LASF38
     /tmp/ccwJmhxr.s:2847   .debug_str:00000000000005fa .LASF40
     /tmp/ccwJmhxr.s:3051   .debug_str:0000000000000c56 .LASF32
     /tmp/ccwJmhxr.s:2771   .debug_str:00000000000003c1 .LASF33
     /tmp/ccwJmhxr.s:2681   .debug_str:000000000000002a .LASF35
     /tmp/ccwJmhxr.s:2821   .debug_str:000000000000051e .LASF37
     /tmp/ccwJmhxr.s:2955   .debug_str:0000000000000967 .LASF39
     /tmp/ccwJmhxr.s:2865   .debug_str:00000000000006a0 .LASF41
     /tmp/ccwJmhxr.s:2939   .debug_str:0000000000000905 .LASF42
     /tmp/ccwJmhxr.s:2971   .debug_str:00000000000009fd .LASF43
     /tmp/ccwJmhxr.s:2867   .debug_str:00000000000006b3 .LASF44
     /tmp/ccwJmhxr.s:2677   .debug_str:000000000000000b .LASF45
     /tmp/ccwJmhxr.s:3029   .debug_str:0000000000000b94 .LASF46
     /tmp/ccwJmhxr.s:2895   .debug_str:000000000000079c .LASF47
     /tmp/ccwJmhxr.s:2963   .debug_str:00000000000009a1 .LASF48
     /tmp/ccwJmhxr.s:2909   .debug_str:0000000000000810 .LASF49
GAS LISTING /tmp/ccwJmhxr.s 			page 13


     /tmp/ccwJmhxr.s:2753   .debug_str:0000000000000340 .LASF50
     /tmp/ccwJmhxr.s:2783   .debug_str:0000000000000403 .LASF51
     /tmp/ccwJmhxr.s:2923   .debug_str:0000000000000889 .LASF52
     /tmp/ccwJmhxr.s:3035   .debug_str:0000000000000bc5 .LASF53
     /tmp/ccwJmhxr.s:2827   .debug_str:0000000000000550 .LASF60
     /tmp/ccwJmhxr.s:2961   .debug_str:0000000000000996 .LASF55
     /tmp/ccwJmhxr.s:3045   .debug_str:0000000000000c1c .LASF57
     /tmp/ccwJmhxr.s:2979   .debug_str:0000000000000a34 .LASF58
     /tmp/ccwJmhxr.s:2747   .debug_str:000000000000031f .LASF59
     /tmp/ccwJmhxr.s:2947   .debug_str:000000000000092f .LASF61
     /tmp/ccwJmhxr.s:2811   .debug_str:00000000000004c9 .LASF62
     /tmp/ccwJmhxr.s:2875   .debug_str:00000000000006ed .LASF63
     /tmp/ccwJmhxr.s:2741   .debug_str:00000000000002e9 .LASF64
     /tmp/ccwJmhxr.s:2913   .debug_str:0000000000000823 .LASF65
     /tmp/ccwJmhxr.s:3063   .debug_str:0000000000000c93 .LASF66
     /tmp/ccwJmhxr.s:2879   .debug_str:0000000000000713 .LASF67
     /tmp/ccwJmhxr.s:2937   .debug_str:00000000000008f2 .LASF68
     /tmp/ccwJmhxr.s:2957   .debug_str:0000000000000970 .LASF69
     /tmp/ccwJmhxr.s:3009   .debug_str:0000000000000afd .LASF70
     /tmp/ccwJmhxr.s:2857   .debug_str:0000000000000647 .LASF71
     /tmp/ccwJmhxr.s:3001   .debug_str:0000000000000acb .LASF72
     /tmp/ccwJmhxr.s:2969   .debug_str:00000000000009dd .LASF73
     /tmp/ccwJmhxr.s:2993   .debug_str:0000000000000a7e .LASF74
     /tmp/ccwJmhxr.s:2891   .debug_str:0000000000000785 .LASF75
     /tmp/ccwJmhxr.s:3039   .debug_str:0000000000000bf4 .LASF76
     /tmp/ccwJmhxr.s:2707   .debug_str:0000000000000124 .LASF78
     /tmp/ccwJmhxr.s:2813   .debug_str:00000000000004dd .LASF77
     /tmp/ccwJmhxr.s:2721   .debug_str:000000000000023d .LASF79
     /tmp/ccwJmhxr.s:3027   .debug_str:0000000000000b8d .LASF190
     /tmp/ccwJmhxr.s:2719   .debug_str:000000000000022c .LASF191
     /tmp/ccwJmhxr.s:2679   .debug_str:0000000000000025 .LASF80
     /tmp/ccwJmhxr.s:3007   .debug_str:0000000000000af8 .LASF81
     /tmp/ccwJmhxr.s:2849   .debug_str:0000000000000612 .LASF82
     /tmp/ccwJmhxr.s:2759   .debug_str:000000000000036b .LASF83
     /tmp/ccwJmhxr.s:2997   .debug_str:0000000000000aab .LASF85
     /tmp/ccwJmhxr.s:2787   .debug_str:0000000000000419 .LASF86
     /tmp/ccwJmhxr.s:2695   .debug_str:0000000000000095 .LASF192
     /tmp/ccwJmhxr.s:3043   .debug_str:0000000000000c08 .LASF193
     /tmp/ccwJmhxr.s:2709   .debug_str:000000000000014c .LASF87
     /tmp/ccwJmhxr.s:2887   .debug_str:0000000000000762 .LASF88
     /tmp/ccwJmhxr.s:2987   .debug_str:0000000000000a52 .LASF89
     /tmp/ccwJmhxr.s:2925   .debug_str:0000000000000896 .LASF118
     /tmp/ccwJmhxr.s:2717   .debug_str:0000000000000226 .LASF90
     /tmp/ccwJmhxr.s:2873   .debug_str:00000000000006d7 .LASF91
     /tmp/ccwJmhxr.s:2953   .debug_str:0000000000000956 .LASF92
     /tmp/ccwJmhxr.s:2739   .debug_str:00000000000002d8 .LASF93
     /tmp/ccwJmhxr.s:3019   .debug_str:0000000000000b5b .LASF94
     /tmp/ccwJmhxr.s:2805   .debug_str:0000000000000499 .LASF95
     /tmp/ccwJmhxr.s:2967   .debug_str:00000000000009c5 .LASF96
     /tmp/ccwJmhxr.s:2893   .debug_str:0000000000000791 .LASF97
     /tmp/ccwJmhxr.s:2853   .debug_str:000000000000061f .LASF98
     /tmp/ccwJmhxr.s:2767   .debug_str:00000000000003a1 .LASF99
     /tmp/ccwJmhxr.s:2899   .debug_str:00000000000007c9 .LASF100
     /tmp/ccwJmhxr.s:2855   .debug_str:0000000000000637 .LASF101
     /tmp/ccwJmhxr.s:3013   .debug_str:0000000000000b21 .LASF102
     /tmp/ccwJmhxr.s:3011   .debug_str:0000000000000b10 .LASF103
     /tmp/ccwJmhxr.s:2845   .debug_str:00000000000005dc .LASF104
GAS LISTING /tmp/ccwJmhxr.s 			page 14


     /tmp/ccwJmhxr.s:2763   .debug_str:0000000000000377 .LASF105
     /tmp/ccwJmhxr.s:3037   .debug_str:0000000000000bd0 .LASF106
     /tmp/ccwJmhxr.s:2687   .debug_str:0000000000000057 .LASF107
     /tmp/ccwJmhxr.s:2743   .debug_str:00000000000002fb .LASF108
     /tmp/ccwJmhxr.s:3033   .debug_str:0000000000000bb9 .LASF109
     /tmp/ccwJmhxr.s:2703   .debug_str:00000000000000e8 .LASF110
     /tmp/ccwJmhxr.s:2905   .debug_str:00000000000007fc .LASF111
     /tmp/ccwJmhxr.s:2691   .debug_str:0000000000000070 .LASF112
     /tmp/ccwJmhxr.s:2949   .debug_str:0000000000000937 .LASF113
     /tmp/ccwJmhxr.s:2919   .debug_str:0000000000000867 .LASF114
     /tmp/ccwJmhxr.s:2869   .debug_str:00000000000006c2 .LASF115
     /tmp/ccwJmhxr.s:3023   .debug_str:0000000000000b6b .LASF116
     /tmp/ccwJmhxr.s:3005   .debug_str:0000000000000aef .LASF117
     /tmp/ccwJmhxr.s:2685   .debug_str:0000000000000042 .LASF119
     /tmp/ccwJmhxr.s:3057   .debug_str:0000000000000c7d .LASF120
     /tmp/ccwJmhxr.s:2883   .debug_str:0000000000000748 .LASF121
     /tmp/ccwJmhxr.s:2911   .debug_str:000000000000081c .LASF122
     /tmp/ccwJmhxr.s:2915   .debug_str:0000000000000840 .LASF123
     /tmp/ccwJmhxr.s:2877   .debug_str:000000000000070c .LASF124
     /tmp/ccwJmhxr.s:2833   .debug_str:0000000000000592 .LASF125
     /tmp/ccwJmhxr.s:3025   .debug_str:0000000000000b85 .LASF126
     /tmp/ccwJmhxr.s:2991   .debug_str:0000000000000a6a .LASF127
     /tmp/ccwJmhxr.s:2871   .debug_str:00000000000006cf .LASF128
     /tmp/ccwJmhxr.s:2881   .debug_str:0000000000000734 .LASF129
     /tmp/ccwJmhxr.s:2861   .debug_str:0000000000000686 .LASF130
     /tmp/ccwJmhxr.s:2917   .debug_str:0000000000000853 .LASF131
     /tmp/ccwJmhxr.s:3059   .debug_str:0000000000000c86 .LASF132
     /tmp/ccwJmhxr.s:2817   .debug_str:00000000000004f8 .LASF133
     /tmp/ccwJmhxr.s:2973   .debug_str:0000000000000a19 .LASF134
     /tmp/ccwJmhxr.s:2943   .debug_str:0000000000000915 .LASF135
     /tmp/ccwJmhxr.s:2945   .debug_str:0000000000000928 .LASF136
     /tmp/ccwJmhxr.s:2765   .debug_str:000000000000038e .LASF137
     /tmp/ccwJmhxr.s:2761   .debug_str:0000000000000371 .LASF138
     /tmp/ccwJmhxr.s:2697   .debug_str:00000000000000ad .LASF139
     /tmp/ccwJmhxr.s:2815   .debug_str:00000000000004f2 .LASF140
     /tmp/ccwJmhxr.s:2755   .debug_str:0000000000000350 .LASF141
     /tmp/ccwJmhxr.s:2675   .debug_str:0000000000000000 .LASF142
     /tmp/ccwJmhxr.s:2935   .debug_str:00000000000008da .LASF143
     /tmp/ccwJmhxr.s:2927   .debug_str:00000000000008ae .LASF144
     /tmp/ccwJmhxr.s:3049   .debug_str:0000000000000c3e .LASF145
     /tmp/ccwJmhxr.s:2933   .debug_str:00000000000008d3 .LASF146
     /tmp/ccwJmhxr.s:2727   .debug_str:0000000000000283 .LASF147
     /tmp/ccwJmhxr.s:3021   .debug_str:0000000000000b61 .LASF148
     /tmp/ccwJmhxr.s:3031   .debug_str:0000000000000ba3 .LASF149
     /tmp/ccwJmhxr.s:3015   .debug_str:0000000000000b3f .LASF150
     /tmp/ccwJmhxr.s:2699   .debug_str:00000000000000bf .LASF151
     /tmp/ccwJmhxr.s:2751   .debug_str:000000000000033a .LASF152
     /tmp/ccwJmhxr.s:2797   .debug_str:0000000000000470 .LASF153
     /tmp/ccwJmhxr.s:2803   .debug_str:0000000000000493 .LASF154
     /tmp/ccwJmhxr.s:3017   .debug_str:0000000000000b49 .LASF155
     /tmp/ccwJmhxr.s:2801   .debug_str:0000000000000488 .LASF156
     /tmp/ccwJmhxr.s:2807   .debug_str:00000000000004a4 .LASF157
     /tmp/ccwJmhxr.s:3003   .debug_str:0000000000000ae0 .LASF158
     /tmp/ccwJmhxr.s:2791   .debug_str:0000000000000433 .LASF159
     /tmp/ccwJmhxr.s:2903   .debug_str:00000000000007e7 .LASF160
     /tmp/ccwJmhxr.s:2829   .debug_str:000000000000055d .LASF161
     /tmp/ccwJmhxr.s:2921   .debug_str:0000000000000882 .LASF162
GAS LISTING /tmp/ccwJmhxr.s 			page 15


     /tmp/ccwJmhxr.s:2683   .debug_str:000000000000003a .LASF163
     /tmp/ccwJmhxr.s:3053   .debug_str:0000000000000c63 .LASF164
     /tmp/ccwJmhxr.s:2843   .debug_str:00000000000005d0 .LASF165
     /tmp/ccwJmhxr.s:2711   .debug_str:000000000000015e .LASF166
     /tmp/ccwJmhxr.s:2863   .debug_str:000000000000068e .LASF167
     /tmp/ccwJmhxr.s:2795   .debug_str:000000000000045d .LASF168
     /tmp/ccwJmhxr.s:2823   .debug_str:000000000000052b .LASF169
     /tmp/ccwJmhxr.s:2725   .debug_str:000000000000026f .LASF170
     /tmp/ccwJmhxr.s:2981   .debug_str:0000000000000a3f .LASF171
     /tmp/ccwJmhxr.s:2851   .debug_str:000000000000061a .LASF172
     /tmp/ccwJmhxr.s:2859   .debug_str:0000000000000665 .LASF173
     /tmp/ccwJmhxr.s:2705   .debug_str:0000000000000103 .LASF174
     /tmp/ccwJmhxr.s:252    .text:0000000000000128 .LFB29
     /tmp/ccwJmhxr.s:310    .text:0000000000000198 .LFE29
     /tmp/ccwJmhxr.s:3061   .debug_str:0000000000000c8e .LASF175
     /tmp/ccwJmhxr.s:2587   .debug_loc:0000000000000000 .LLST6
     /tmp/ccwJmhxr.s:269    .text:000000000000014c .LVL16
     /tmp/ccwJmhxr.s:284    .text:000000000000016c .LVL18
     /tmp/ccwJmhxr.s:289    .text:000000000000017c .LVL19
     /tmp/ccwJmhxr.s:188    .text:00000000000000dc .LFB28
     /tmp/ccwJmhxr.s:238    .text:0000000000000128 .LFE28
     /tmp/ccwJmhxr.s:2775   .debug_str:00000000000003dc .LASF176
     /tmp/ccwJmhxr.s:2594   .debug_loc:0000000000000023 .LLST5
     /tmp/ccwJmhxr.s:125    .text:0000000000000088 .LFB27
     /tmp/ccwJmhxr.s:182    .text:00000000000000dc .LFE27
     /tmp/ccwJmhxr.s:137    .text:0000000000000094 .LBB4
     /tmp/ccwJmhxr.s:145    .text:0000000000000098 .LBE4
     /tmp/ccwJmhxr.s:2605   .debug_loc:0000000000000059 .LLST3
     /tmp/ccwJmhxr.s:2613   .debug_loc:000000000000007d .LLST4
     /tmp/ccwJmhxr.s:75     .text:0000000000000050 .LFB26
     /tmp/ccwJmhxr.s:119    .text:0000000000000088 .LFE26
     /tmp/ccwJmhxr.s:2620   .debug_loc:00000000000000a0 .LLST2
     /tmp/ccwJmhxr.s:43     .text:0000000000000028 .LFB25
     /tmp/ccwJmhxr.s:69     .text:0000000000000050 .LFE25
     /tmp/ccwJmhxr.s:2632   .debug_loc:00000000000000d7 .LLST1
     /tmp/ccwJmhxr.s:58     .text:0000000000000040 .LVL3
     /tmp/ccwJmhxr.s:10     .text:0000000000000000 .LFB24
     /tmp/ccwJmhxr.s:37     .text:0000000000000028 .LFE24
     /tmp/ccwJmhxr.s:2745   .debug_str:000000000000031a .LASF177
     /tmp/ccwJmhxr.s:2646   .debug_loc:0000000000000110 .LLST0
     /tmp/ccwJmhxr.s:26     .text:0000000000000018 .LVL1
     /tmp/ccwJmhxr.s:2749   .debug_str:0000000000000335 .LASF194
     /tmp/ccwJmhxr.s:2773   .debug_str:00000000000003cd .LASF178
     /tmp/ccwJmhxr.s:2777   .debug_str:00000000000003e3 .LASF180
     /tmp/ccwJmhxr.s:3055   .debug_str:0000000000000c72 .LASF179
     /tmp/ccwJmhxr.s:2785   .debug_str:0000000000000413 .LASF181
     /tmp/ccwJmhxr.s:2931   .debug_str:00000000000008c7 .LASF182
     /tmp/ccwJmhxr.s:2781   .debug_str:00000000000003fb .LASF183
     /tmp/ccwJmhxr.s:273    .text:0000000000000154 .LVL17
     /tmp/ccwJmhxr.s:305    .text:0000000000000190 .LVL21
     /tmp/ccwJmhxr.s:203    .text:00000000000000f4 .LVL13
     /tmp/ccwJmhxr.s:217    .text:0000000000000108 .LVL14
     /tmp/ccwJmhxr.s:227    .text:0000000000000114 .LVL15
     /tmp/ccwJmhxr.s:136    .text:0000000000000094 .LVL11
     /tmp/ccwJmhxr.s:143    .text:0000000000000098 .LVL12
     /tmp/ccwJmhxr.s:85     .text:000000000000005c .LVL4
     /tmp/ccwJmhxr.s:92     .text:0000000000000068 .LVL6
GAS LISTING /tmp/ccwJmhxr.s 			page 16


     /tmp/ccwJmhxr.s:111    .text:000000000000007c .LVL9
     /tmp/ccwJmhxr.s:46     .text:0000000000000028 .LVL2
     /tmp/ccwJmhxr.s:14     .text:0000000000000000 .LVL0
     /tmp/ccwJmhxr.s:333    .debug_info:0000000000000000 .Ldebug_info0

UNDEFINED SYMBOLS
_Z7kmallocm
_Z5kfreePv
_ZN5Riscv11printStringEPKc
_Z8printIntiii
