GAS LISTING /tmp/ccbobVZB.s 			page 1


   1              		.file	"Scheduler.cpp"
   2              		.option pic
   3              		.option norelax
   4              		.text
   5              	.Ltext0:
   6              		.align	2
   7              		.globl	_ZN9SchedulernwEm
   9              	_ZN9SchedulernwEm:
  10              	.LFB24:
  11              		.file 1 "src/Scheduler.cpp"
   1:src/Scheduler.cpp **** //
   2:src/Scheduler.cpp **** // Created by os on 4/27/22.
   3:src/Scheduler.cpp **** //
   4:src/Scheduler.cpp **** 
   5:src/Scheduler.cpp **** #include "../h/Scheduler.hpp"
   6:src/Scheduler.cpp **** #include "../h/PCB.hpp"
   7:src/Scheduler.cpp **** #include "../test/printing.hpp"
   8:src/Scheduler.cpp **** 
   9:src/Scheduler.cpp **** PCB* Scheduler::schedulerPCBHead = 0;
  10:src/Scheduler.cpp **** PCB* Scheduler::schedulerPCBTail = 0;
  11:src/Scheduler.cpp **** 
  12:src/Scheduler.cpp **** void *Scheduler::operator new(size_t size)
  13:src/Scheduler.cpp **** {
  12              		.loc 1 13 1
  13              		.cfi_startproc
  14              	.LVL0:
  15 0000 130101FF 		addi	sp,sp,-16
  16              		.cfi_def_cfa_offset 16
  17 0004 23341100 		sd	ra,8(sp)
  18 0008 23308100 		sd	s0,0(sp)
  19              		.cfi_offset 1, -8
  20              		.cfi_offset 8, -16
  21 000c 13040101 		addi	s0,sp,16
  22              		.cfi_def_cfa 8, 0
  14:src/Scheduler.cpp ****     return kmalloc(size);
  23              		.loc 1 14 5
  24              		.loc 1 14 19 is_stmt 0
  25 0010 97000000 		call	_Z7kmallocm@plt
  25      E7800000 
  26              	.LVL1:
  15:src/Scheduler.cpp **** }
  27              		.loc 1 15 1
  28 0018 83308100 		ld	ra,8(sp)
  29              		.cfi_restore 1
  30 001c 03340100 		ld	s0,0(sp)
  31              		.cfi_restore 8
  32              		.cfi_def_cfa 2, 16
  33 0020 13010101 		addi	sp,sp,16
  34              		.cfi_def_cfa_offset 0
  35 0024 67800000 		jr	ra
  36              		.cfi_endproc
  37              	.LFE24:
  39              		.align	2
  40              		.globl	_ZN9SchedulerdlEPv
  42              	_ZN9SchedulerdlEPv:
  43              	.LFB25:
  16:src/Scheduler.cpp **** 
GAS LISTING /tmp/ccbobVZB.s 			page 2


  17:src/Scheduler.cpp **** void Scheduler::operator delete(void *p)
  18:src/Scheduler.cpp **** {
  44              		.loc 1 18 1 is_stmt 1
  45              		.cfi_startproc
  46              	.LVL2:
  47 0028 130101FF 		addi	sp,sp,-16
  48              		.cfi_def_cfa_offset 16
  49 002c 23341100 		sd	ra,8(sp)
  50 0030 23308100 		sd	s0,0(sp)
  51              		.cfi_offset 1, -8
  52              		.cfi_offset 8, -16
  53 0034 13040101 		addi	s0,sp,16
  54              		.cfi_def_cfa 8, 0
  19:src/Scheduler.cpp ****     kfree(p);
  55              		.loc 1 19 5
  56              		.loc 1 19 10 is_stmt 0
  57 0038 97000000 		call	_Z5kfreePv@plt
  57      E7800000 
  58              	.LVL3:
  20:src/Scheduler.cpp **** }
  59              		.loc 1 20 1
  60 0040 83308100 		ld	ra,8(sp)
  61              		.cfi_restore 1
  62 0044 03340100 		ld	s0,0(sp)
  63              		.cfi_restore 8
  64              		.cfi_def_cfa 2, 16
  65 0048 13010101 		addi	sp,sp,16
  66              		.cfi_def_cfa_offset 0
  67 004c 67800000 		jr	ra
  68              		.cfi_endproc
  69              	.LFE25:
  71              		.align	2
  72              		.globl	_ZN9Scheduler7getSizeEv
  74              	_ZN9Scheduler7getSizeEv:
  75              	.LFB26:
  21:src/Scheduler.cpp **** 
  22:src/Scheduler.cpp **** int Scheduler::getSize()
  23:src/Scheduler.cpp **** {
  76              		.loc 1 23 1 is_stmt 1
  77              		.cfi_startproc
  78 0050 130101FF 		addi	sp,sp,-16
  79              		.cfi_def_cfa_offset 16
  80 0054 23348100 		sd	s0,8(sp)
  81              		.cfi_offset 8, -8
  82 0058 13040101 		addi	s0,sp,16
  83              		.cfi_def_cfa 8, 0
  24:src/Scheduler.cpp ****     uint64 sz = 0;
  84              		.loc 1 24 5
  85              	.LVL4:
  25:src/Scheduler.cpp ****     PCB* curr = schedulerPCBHead;
  86              		.loc 1 25 5
  87              		.loc 1 25 10 is_stmt 0
  88 005c 97070000 		ld	a5,.LANCHOR0
  88      83B70700 
  89              	.LVL5:
  24:src/Scheduler.cpp ****     uint64 sz = 0;
  90              		.loc 1 24 12
GAS LISTING /tmp/ccbobVZB.s 			page 3


  91 0064 13050000 		li	a0,0
  92              	.LVL6:
  93              	.L7:
  26:src/Scheduler.cpp ****     while(curr != 0)
  94              		.loc 1 26 5 is_stmt 1
  95              		.loc 1 26 16
  96 0068 63880700 		beqz	a5,.L6
  27:src/Scheduler.cpp ****     {
  28:src/Scheduler.cpp ****         sz++;
  97              		.loc 1 28 9
  98              		.loc 1 28 11 is_stmt 0
  99 006c 13051500 		addi	a0,a0,1
 100              	.LVL7:
  29:src/Scheduler.cpp ****         curr = curr->nextPCB;
 101              		.loc 1 29 9 is_stmt 1
 102              		.loc 1 29 14 is_stmt 0
 103 0070 83B78700 		ld	a5,8(a5)
 104              	.LVL8:
  26:src/Scheduler.cpp ****     while(curr != 0)
 105              		.loc 1 26 5
 106 0074 6FF05FFF 		j	.L7
 107              	.L6:
  30:src/Scheduler.cpp ****     }
  31:src/Scheduler.cpp ****     return sz;
 108              		.loc 1 31 5 is_stmt 1
  32:src/Scheduler.cpp **** }
 109              		.loc 1 32 1 is_stmt 0
 110 0078 1B050500 		sext.w	a0,a0
 111              	.LVL9:
 112 007c 03348100 		ld	s0,8(sp)
 113              		.cfi_restore 8
 114              		.cfi_def_cfa 2, 16
 115 0080 13010101 		addi	sp,sp,16
 116              		.cfi_def_cfa_offset 0
 117 0084 67800000 		jr	ra
 118              		.cfi_endproc
 119              	.LFE26:
 121              		.align	2
 122              		.globl	_ZN9Scheduler3putEP3PCB
 124              	_ZN9Scheduler3putEP3PCB:
 125              	.LFB27:
  33:src/Scheduler.cpp **** 
  34:src/Scheduler.cpp **** void Scheduler::put(PCB *pcb)
  35:src/Scheduler.cpp **** {
 126              		.loc 1 35 1 is_stmt 1
 127              		.cfi_startproc
 128              	.LVL10:
 129 0088 130101FF 		addi	sp,sp,-16
 130              		.cfi_def_cfa_offset 16
 131 008c 23348100 		sd	s0,8(sp)
 132              		.cfi_offset 8, -8
 133 0090 13040101 		addi	s0,sp,16
 134              		.cfi_def_cfa 8, 0
  36:src/Scheduler.cpp ****     pcb->setState(PCB::READY);
 135              		.loc 1 36 5
 136              	.LVL11:
 137              	.LBB4:
GAS LISTING /tmp/ccbobVZB.s 			page 4


 138              	.LBB5:
 139              		.file 2 "src/../h/PCB.hpp"
   1:src/../h/PCB.hpp **** //
   2:src/../h/PCB.hpp **** // Created by os on 4/27/22.
   3:src/../h/PCB.hpp **** //
   4:src/../h/PCB.hpp **** 
   5:src/../h/PCB.hpp **** #ifndef PROJECT_BASE_V1_0_PCB_HPP
   6:src/../h/PCB.hpp **** #define PROJECT_BASE_V1_0_PCB_HPP
   7:src/../h/PCB.hpp **** 
   8:src/../h/PCB.hpp **** #include "../lib/hw.h"
   9:src/../h/PCB.hpp **** #include "Scheduler.hpp"
  10:src/../h/PCB.hpp **** #include "Riscv.hpp"
  11:src/../h/PCB.hpp **** 
  12:src/../h/PCB.hpp **** class PCB
  13:src/../h/PCB.hpp **** {
  14:src/../h/PCB.hpp **** public:
  15:src/../h/PCB.hpp ****     static uint64 savedRegA4;
  16:src/../h/PCB.hpp **** 
  17:src/../h/PCB.hpp ****     using Body = void (*)(void*);
  18:src/../h/PCB.hpp **** 
  19:src/../h/PCB.hpp ****     PCB(Body body,  void* args, void* stack_space, uint64 timeSlice);
  20:src/../h/PCB.hpp ****     ~PCB();
  21:src/../h/PCB.hpp **** 
  22:src/../h/PCB.hpp ****     void start();
  23:src/../h/PCB.hpp ****     static void dispatch();
  24:src/../h/PCB.hpp ****     static void sleep(time_t);
  25:src/../h/PCB.hpp **** 
  26:src/../h/PCB.hpp ****     static PCB* running;
  27:src/../h/PCB.hpp **** 
  28:src/../h/PCB.hpp ****     static uint64 timeSliceCounter;
  29:src/../h/PCB.hpp ****     uint64 getTimeSlice() { return timeSlice;}
  30:src/../h/PCB.hpp **** 
  31:src/../h/PCB.hpp ****     void* operator new(size_t size);
  32:src/../h/PCB.hpp ****     void operator delete(void *p);
  33:src/../h/PCB.hpp **** 
  34:src/../h/PCB.hpp ****     enum State{READY, RUNNING, SUSPENDED, FINISHED, EXITING, SLEEPING};
  35:src/../h/PCB.hpp ****     State getState() {return state;}
  36:src/../h/PCB.hpp ****     void setState(State s) {state = s;}
 140              		.loc 2 36 29
 141              		.loc 2 36 35 is_stmt 0
 142 0094 23200504 		sw	zero,64(a0)
 143              	.LVL12:
 144              	.LBE5:
 145              	.LBE4:
  37:src/Scheduler.cpp ****     pcb->nextPCB = 0;
 146              		.loc 1 37 5 is_stmt 1
 147              		.loc 1 37 18 is_stmt 0
 148 0098 23340500 		sd	zero,8(a0)
  38:src/Scheduler.cpp ****     if(schedulerPCBHead == 0)
 149              		.loc 1 38 5 is_stmt 1
 150              		.loc 1 38 25 is_stmt 0
 151 009c 97070000 		ld	a5,.LANCHOR0
 151      83B70700 
 152              		.loc 1 38 5
 153 00a4 63820702 		beqz	a5,.L13
  39:src/Scheduler.cpp ****         schedulerPCBHead = schedulerPCBTail = pcb;
  40:src/Scheduler.cpp ****     else
GAS LISTING /tmp/ccbobVZB.s 			page 5


  41:src/Scheduler.cpp ****     {
  42:src/Scheduler.cpp ****         schedulerPCBTail->nextPCB = pcb;
 154              		.loc 1 42 9 is_stmt 1
 155              		.loc 1 42 27 is_stmt 0
 156 00a8 97070000 		lla	a5,.LANCHOR0
 156      93870700 
 157 00b0 03B78700 		ld	a4,8(a5)
 158              		.loc 1 42 35
 159 00b4 2334A700 		sd	a0,8(a4)
  43:src/Scheduler.cpp ****         schedulerPCBTail = pcb;
 160              		.loc 1 43 9 is_stmt 1
 161              		.loc 1 43 26 is_stmt 0
 162 00b8 23B4A700 		sd	a0,8(a5)
 163              	.L9:
  44:src/Scheduler.cpp ****     }
  45:src/Scheduler.cpp **** }
 164              		.loc 1 45 1
 165 00bc 03348100 		ld	s0,8(sp)
 166              		.cfi_remember_state
 167              		.cfi_restore 8
 168              		.cfi_def_cfa 2, 16
 169 00c0 13010101 		addi	sp,sp,16
 170              		.cfi_def_cfa_offset 0
 171 00c4 67800000 		jr	ra
 172              	.L13:
 173              		.cfi_restore_state
  39:src/Scheduler.cpp ****     else
 174              		.loc 1 39 9 is_stmt 1
  39:src/Scheduler.cpp ****     else
 175              		.loc 1 39 45 is_stmt 0
 176 00c8 97070000 		lla	a5,.LANCHOR0
 176      93870700 
 177 00d0 23B4A700 		sd	a0,8(a5)
  39:src/Scheduler.cpp ****     else
 178              		.loc 1 39 26
 179 00d4 23B0A700 		sd	a0,0(a5)
 180 00d8 6FF05FFE 		j	.L9
 181              		.cfi_endproc
 182              	.LFE27:
 184              		.align	2
 185              		.globl	_ZN9Scheduler3getEv
 187              	_ZN9Scheduler3getEv:
 188              	.LFB28:
  46:src/Scheduler.cpp **** 
  47:src/Scheduler.cpp **** PCB *Scheduler::get()
  48:src/Scheduler.cpp **** {
 189              		.loc 1 48 1 is_stmt 1
 190              		.cfi_startproc
 191 00dc 130101FF 		addi	sp,sp,-16
 192              		.cfi_def_cfa_offset 16
 193 00e0 23348100 		sd	s0,8(sp)
 194              		.cfi_offset 8, -8
 195 00e4 13040101 		addi	s0,sp,16
 196              		.cfi_def_cfa 8, 0
  49:src/Scheduler.cpp ****     if(schedulerPCBHead == 0)
 197              		.loc 1 49 5
 198              		.loc 1 49 25 is_stmt 0
GAS LISTING /tmp/ccbobVZB.s 			page 6


 199 00e8 17050000 		ld	a0,.LANCHOR0
 199      03350500 
 200              		.loc 1 49 5
 201 00f0 630C0500 		beqz	a0,.L14
  50:src/Scheduler.cpp ****         return 0;
  51:src/Scheduler.cpp ****     PCB* retval = schedulerPCBHead;
 202              		.loc 1 51 5 is_stmt 1
 203              	.LVL13:
  52:src/Scheduler.cpp ****     if(schedulerPCBHead->nextPCB == 0)
 204              		.loc 1 52 5
 205              		.loc 1 52 26 is_stmt 0
 206 00f4 83378500 		ld	a5,8(a0)
 207              		.loc 1 52 5
 208 00f8 638E0700 		beqz	a5,.L19
  53:src/Scheduler.cpp ****         schedulerPCBHead = schedulerPCBTail = 0;
  54:src/Scheduler.cpp ****     else
  55:src/Scheduler.cpp ****         schedulerPCBHead = schedulerPCBHead->nextPCB;
 209              		.loc 1 55 9 is_stmt 1
 210              		.loc 1 55 26 is_stmt 0
 211 00fc 17070000 		sd	a5,.LANCHOR0,a4
 211      2330F700 
 212              	.L17:
  56:src/Scheduler.cpp ****     retval->nextPCB = 0;
 213              		.loc 1 56 5 is_stmt 1
 214              		.loc 1 56 21 is_stmt 0
 215 0104 23340500 		sd	zero,8(a0)
  57:src/Scheduler.cpp ****     return retval;
 216              		.loc 1 57 5 is_stmt 1
 217              	.LVL14:
 218              	.L14:
  58:src/Scheduler.cpp **** }
 219              		.loc 1 58 1 is_stmt 0
 220 0108 03348100 		ld	s0,8(sp)
 221              		.cfi_remember_state
 222              		.cfi_restore 8
 223              		.cfi_def_cfa 2, 16
 224 010c 13010101 		addi	sp,sp,16
 225              		.cfi_def_cfa_offset 0
 226 0110 67800000 		jr	ra
 227              	.LVL15:
 228              	.L19:
 229              		.cfi_restore_state
  53:src/Scheduler.cpp ****     else
 230              		.loc 1 53 9 is_stmt 1
  53:src/Scheduler.cpp ****     else
 231              		.loc 1 53 45 is_stmt 0
 232 0114 97070000 		lla	a5,.LANCHOR0
 232      93870700 
 233 011c 23B40700 		sd	zero,8(a5)
  53:src/Scheduler.cpp ****     else
 234              		.loc 1 53 26
 235 0120 23B00700 		sd	zero,0(a5)
 236 0124 6FF01FFE 		j	.L17
 237              		.cfi_endproc
 238              	.LFE28:
 240              		.section	.rodata.str1.8,"aMS",@progbits,1
 241              		.align	3
GAS LISTING /tmp/ccbobVZB.s 			page 7


 242              	.LC0:
 243 0000 53636865 		.string	"Scheduler print\n"
 243      64756C65 
 243      72207072 
 243      696E740A 
 243      00
 244 0011 00000000 		.align	3
 244      000000
 245              	.LC1:
 246 0018 0A00     		.string	"\n"
 247              		.text
 248              		.align	2
 249              		.globl	_ZN9Scheduler5printEv
 251              	_ZN9Scheduler5printEv:
 252              	.LFB29:
  59:src/Scheduler.cpp **** 
  60:src/Scheduler.cpp **** void Scheduler::print() {
 253              		.loc 1 60 25 is_stmt 1
 254              		.cfi_startproc
 255 0128 130101FE 		addi	sp,sp,-32
 256              		.cfi_def_cfa_offset 32
 257 012c 233C1100 		sd	ra,24(sp)
 258 0130 23388100 		sd	s0,16(sp)
 259 0134 23349100 		sd	s1,8(sp)
 260              		.cfi_offset 1, -8
 261              		.cfi_offset 8, -16
 262              		.cfi_offset 9, -24
 263 0138 13040102 		addi	s0,sp,32
 264              		.cfi_def_cfa 8, 0
  61:src/Scheduler.cpp ****     trapPrintString("Scheduler print\n");
 265              		.loc 1 61 5
 266              		.loc 1 61 20 is_stmt 0
 267 013c 17050000 		lla	a0,.LC0
 267      13050500 
 268 0144 97000000 		call	_Z15trapPrintStringPKc@plt
 268      E7800000 
 269              	.LVL16:
  62:src/Scheduler.cpp ****     PCB* curr = schedulerPCBHead;
 270              		.loc 1 62 5 is_stmt 1
 271              		.loc 1 62 10 is_stmt 0
 272 014c 97040000 		ld	s1,.LANCHOR0
 272      83B40400 
 273              	.LVL17:
 274              	.L22:
  63:src/Scheduler.cpp ****     while(curr != 0)
 275              		.loc 1 63 5 is_stmt 1
 276              		.loc 1 63 16
 277 0154 63880402 		beqz	s1,.L20
  64:src/Scheduler.cpp ****     {
  65:src/Scheduler.cpp ****         printInt((uint64)curr, 16);
 278              		.loc 1 65 9
 279              		.loc 1 65 17 is_stmt 0
 280 0158 13060000 		li	a2,0
 281 015c 93050001 		li	a1,16
 282 0160 1B850400 		sext.w	a0,s1
 283 0164 97000000 		call	_Z8printIntiii@plt
 283      E7800000 
GAS LISTING /tmp/ccbobVZB.s 			page 8


 284              	.LVL18:
  66:src/Scheduler.cpp ****         printString("\n");
 285              		.loc 1 66 9 is_stmt 1
 286              		.loc 1 66 20 is_stmt 0
 287 016c 17050000 		lla	a0,.LC1
 287      13050500 
 288 0174 97000000 		call	_Z11printStringPKc@plt
 288      E7800000 
 289              	.LVL19:
  67:src/Scheduler.cpp ****         curr = curr->nextPCB;
 290              		.loc 1 67 9 is_stmt 1
 291              		.loc 1 67 14 is_stmt 0
 292 017c 83B48400 		ld	s1,8(s1)
 293              	.LVL20:
  63:src/Scheduler.cpp ****     {
 294              		.loc 1 63 5
 295 0180 6FF05FFD 		j	.L22
 296              	.L20:
  68:src/Scheduler.cpp ****     }
  69:src/Scheduler.cpp **** }
 297              		.loc 1 69 1
 298 0184 83308101 		ld	ra,24(sp)
 299              		.cfi_restore 1
 300 0188 03340101 		ld	s0,16(sp)
 301              		.cfi_restore 8
 302              		.cfi_def_cfa 2, 32
 303 018c 83348100 		ld	s1,8(sp)
 304              		.cfi_restore 9
 305              	.LVL21:
 306 0190 13010102 		addi	sp,sp,32
 307              		.cfi_def_cfa_offset 0
 308 0194 67800000 		jr	ra
 309              		.cfi_endproc
 310              	.LFE29:
 312              		.globl	_ZN9Scheduler16schedulerPCBTailE
 313              		.globl	_ZN9Scheduler16schedulerPCBHeadE
 314              		.bss
 315              		.align	3
 316              		.set	.LANCHOR0,. + 0
 319              	_ZN9Scheduler16schedulerPCBHeadE:
 320 0000 00000000 		.zero	8
 320      00000000 
 323              	_ZN9Scheduler16schedulerPCBTailE:
 324 0008 00000000 		.zero	8
 324      00000000 
 325              		.text
 326              	.Letext0:
 327              		.file 3 "src/../h/../lib/hw.h"
 328              		.file 4 "src/../h/Scheduler.hpp"
 329              		.file 5 "src/../h/../test/printing.hpp"
 330              		.file 6 "src/../h/MemoryAllocator.hpp"
GAS LISTING /tmp/ccbobVZB.s 			page 9


DEFINED SYMBOLS
                            *ABS*:0000000000000000 Scheduler.cpp
     /tmp/ccbobVZB.s:9      .text:0000000000000000 _ZN9SchedulernwEm
     /tmp/ccbobVZB.s:13     .text:0000000000000000 .L0 
     /tmp/ccbobVZB.s:15     .text:0000000000000000 .L0 
     /tmp/ccbobVZB.s:16     .text:0000000000000004 .L0 
     /tmp/ccbobVZB.s:19     .text:000000000000000c .L0 
     /tmp/ccbobVZB.s:20     .text:000000000000000c .L0 
     /tmp/ccbobVZB.s:22     .text:0000000000000010 .L0 
     /tmp/ccbobVZB.s:24     .text:0000000000000010 .L0 
     /tmp/ccbobVZB.s:25     .text:0000000000000010 .L0 
     /tmp/ccbobVZB.s:28     .text:0000000000000018 .L0 
     /tmp/ccbobVZB.s:29     .text:000000000000001c .L0 
     /tmp/ccbobVZB.s:31     .text:0000000000000020 .L0 
     /tmp/ccbobVZB.s:32     .text:0000000000000020 .L0 
     /tmp/ccbobVZB.s:34     .text:0000000000000024 .L0 
     /tmp/ccbobVZB.s:36     .text:0000000000000028 .L0 
     /tmp/ccbobVZB.s:42     .text:0000000000000028 _ZN9SchedulerdlEPv
     /tmp/ccbobVZB.s:45     .text:0000000000000028 .L0 
     /tmp/ccbobVZB.s:47     .text:0000000000000028 .L0 
     /tmp/ccbobVZB.s:48     .text:000000000000002c .L0 
     /tmp/ccbobVZB.s:51     .text:0000000000000034 .L0 
     /tmp/ccbobVZB.s:52     .text:0000000000000034 .L0 
     /tmp/ccbobVZB.s:54     .text:0000000000000038 .L0 
     /tmp/ccbobVZB.s:56     .text:0000000000000038 .L0 
     /tmp/ccbobVZB.s:57     .text:0000000000000038 .L0 
     /tmp/ccbobVZB.s:60     .text:0000000000000040 .L0 
     /tmp/ccbobVZB.s:61     .text:0000000000000044 .L0 
     /tmp/ccbobVZB.s:63     .text:0000000000000048 .L0 
     /tmp/ccbobVZB.s:64     .text:0000000000000048 .L0 
     /tmp/ccbobVZB.s:66     .text:000000000000004c .L0 
     /tmp/ccbobVZB.s:68     .text:0000000000000050 .L0 
     /tmp/ccbobVZB.s:74     .text:0000000000000050 _ZN9Scheduler7getSizeEv
     /tmp/ccbobVZB.s:77     .text:0000000000000050 .L0 
     /tmp/ccbobVZB.s:78     .text:0000000000000050 .L0 
     /tmp/ccbobVZB.s:79     .text:0000000000000054 .L0 
     /tmp/ccbobVZB.s:81     .text:0000000000000058 .L0 
     /tmp/ccbobVZB.s:83     .text:000000000000005c .L0 
     /tmp/ccbobVZB.s:86     .text:000000000000005c .L0 
     /tmp/ccbobVZB.s:87     .text:000000000000005c .L0 
     /tmp/ccbobVZB.s:88     .text:000000000000005c .L0 
     /tmp/ccbobVZB.s:91     .text:0000000000000064 .L0 
     /tmp/ccbobVZB.s:95     .text:0000000000000068 .L0 
     /tmp/ccbobVZB.s:96     .text:0000000000000068 .L0 
     /tmp/ccbobVZB.s:98     .text:000000000000006c .L0 
     /tmp/ccbobVZB.s:99     .text:000000000000006c .L0 
     /tmp/ccbobVZB.s:102    .text:0000000000000070 .L0 
     /tmp/ccbobVZB.s:103    .text:0000000000000070 .L0 
     /tmp/ccbobVZB.s:106    .text:0000000000000074 .L0 
     /tmp/ccbobVZB.s:109    .text:0000000000000078 .L0 
     /tmp/ccbobVZB.s:110    .text:0000000000000078 .L0 
     /tmp/ccbobVZB.s:113    .text:0000000000000080 .L0 
     /tmp/ccbobVZB.s:114    .text:0000000000000080 .L0 
     /tmp/ccbobVZB.s:116    .text:0000000000000084 .L0 
     /tmp/ccbobVZB.s:118    .text:0000000000000088 .L0 
     /tmp/ccbobVZB.s:124    .text:0000000000000088 _ZN9Scheduler3putEP3PCB
     /tmp/ccbobVZB.s:127    .text:0000000000000088 .L0 
GAS LISTING /tmp/ccbobVZB.s 			page 10


     /tmp/ccbobVZB.s:129    .text:0000000000000088 .L0 
     /tmp/ccbobVZB.s:130    .text:000000000000008c .L0 
     /tmp/ccbobVZB.s:132    .text:0000000000000090 .L0 
     /tmp/ccbobVZB.s:134    .text:0000000000000094 .L0 
     /tmp/ccbobVZB.s:140    .text:0000000000000094 .L0 
     /tmp/ccbobVZB.s:141    .text:0000000000000094 .L0 
     /tmp/ccbobVZB.s:142    .text:0000000000000094 .L0 
     /tmp/ccbobVZB.s:147    .text:0000000000000098 .L0 
     /tmp/ccbobVZB.s:148    .text:0000000000000098 .L0 
     /tmp/ccbobVZB.s:150    .text:000000000000009c .L0 
     /tmp/ccbobVZB.s:151    .text:000000000000009c .L0 
     /tmp/ccbobVZB.s:153    .text:00000000000000a4 .L0 
     /tmp/ccbobVZB.s:155    .text:00000000000000a8 .L0 
     /tmp/ccbobVZB.s:156    .text:00000000000000a8 .L0 
     /tmp/ccbobVZB.s:159    .text:00000000000000b4 .L0 
     /tmp/ccbobVZB.s:161    .text:00000000000000b8 .L0 
     /tmp/ccbobVZB.s:162    .text:00000000000000b8 .L0 
     /tmp/ccbobVZB.s:165    .text:00000000000000bc .L0 
     /tmp/ccbobVZB.s:166    .text:00000000000000c0 .L0 
     /tmp/ccbobVZB.s:167    .text:00000000000000c0 .L0 
     /tmp/ccbobVZB.s:168    .text:00000000000000c0 .L0 
     /tmp/ccbobVZB.s:170    .text:00000000000000c4 .L0 
     /tmp/ccbobVZB.s:173    .text:00000000000000c8 .L0 
     /tmp/ccbobVZB.s:175    .text:00000000000000c8 .L0 
     /tmp/ccbobVZB.s:176    .text:00000000000000c8 .L0 
     /tmp/ccbobVZB.s:179    .text:00000000000000d4 .L0 
     /tmp/ccbobVZB.s:181    .text:00000000000000dc .L0 
     /tmp/ccbobVZB.s:187    .text:00000000000000dc _ZN9Scheduler3getEv
     /tmp/ccbobVZB.s:190    .text:00000000000000dc .L0 
     /tmp/ccbobVZB.s:191    .text:00000000000000dc .L0 
     /tmp/ccbobVZB.s:192    .text:00000000000000e0 .L0 
     /tmp/ccbobVZB.s:194    .text:00000000000000e4 .L0 
     /tmp/ccbobVZB.s:196    .text:00000000000000e8 .L0 
     /tmp/ccbobVZB.s:198    .text:00000000000000e8 .L0 
     /tmp/ccbobVZB.s:199    .text:00000000000000e8 .L0 
     /tmp/ccbobVZB.s:201    .text:00000000000000f0 .L0 
     /tmp/ccbobVZB.s:204    .text:00000000000000f4 .L0 
     /tmp/ccbobVZB.s:205    .text:00000000000000f4 .L0 
     /tmp/ccbobVZB.s:206    .text:00000000000000f4 .L0 
     /tmp/ccbobVZB.s:208    .text:00000000000000f8 .L0 
     /tmp/ccbobVZB.s:210    .text:00000000000000fc .L0 
     /tmp/ccbobVZB.s:211    .text:00000000000000fc .L0 
     /tmp/ccbobVZB.s:214    .text:0000000000000104 .L0 
     /tmp/ccbobVZB.s:215    .text:0000000000000104 .L0 
     /tmp/ccbobVZB.s:219    .text:0000000000000108 .L0 
     /tmp/ccbobVZB.s:220    .text:0000000000000108 .L0 
     /tmp/ccbobVZB.s:221    .text:000000000000010c .L0 
     /tmp/ccbobVZB.s:222    .text:000000000000010c .L0 
     /tmp/ccbobVZB.s:223    .text:000000000000010c .L0 
     /tmp/ccbobVZB.s:225    .text:0000000000000110 .L0 
     /tmp/ccbobVZB.s:229    .text:0000000000000114 .L0 
     /tmp/ccbobVZB.s:231    .text:0000000000000114 .L0 
     /tmp/ccbobVZB.s:232    .text:0000000000000114 .L0 
     /tmp/ccbobVZB.s:235    .text:0000000000000120 .L0 
     /tmp/ccbobVZB.s:237    .text:0000000000000128 .L0 
     /tmp/ccbobVZB.s:251    .text:0000000000000128 _ZN9Scheduler5printEv
     /tmp/ccbobVZB.s:254    .text:0000000000000128 .L0 
GAS LISTING /tmp/ccbobVZB.s 			page 11


     /tmp/ccbobVZB.s:255    .text:0000000000000128 .L0 
     /tmp/ccbobVZB.s:256    .text:000000000000012c .L0 
     /tmp/ccbobVZB.s:260    .text:0000000000000138 .L0 
     /tmp/ccbobVZB.s:261    .text:0000000000000138 .L0 
     /tmp/ccbobVZB.s:262    .text:0000000000000138 .L0 
     /tmp/ccbobVZB.s:264    .text:000000000000013c .L0 
     /tmp/ccbobVZB.s:266    .text:000000000000013c .L0 
     /tmp/ccbobVZB.s:267    .text:000000000000013c .L0 
     /tmp/ccbobVZB.s:271    .text:000000000000014c .L0 
     /tmp/ccbobVZB.s:272    .text:000000000000014c .L0 
     /tmp/ccbobVZB.s:276    .text:0000000000000154 .L0 
     /tmp/ccbobVZB.s:277    .text:0000000000000154 .L0 
     /tmp/ccbobVZB.s:279    .text:0000000000000158 .L0 
     /tmp/ccbobVZB.s:280    .text:0000000000000158 .L0 
     /tmp/ccbobVZB.s:286    .text:000000000000016c .L0 
     /tmp/ccbobVZB.s:287    .text:000000000000016c .L0 
     /tmp/ccbobVZB.s:291    .text:000000000000017c .L0 
     /tmp/ccbobVZB.s:292    .text:000000000000017c .L0 
     /tmp/ccbobVZB.s:295    .text:0000000000000180 .L0 
     /tmp/ccbobVZB.s:298    .text:0000000000000184 .L0 
     /tmp/ccbobVZB.s:299    .text:0000000000000188 .L0 
     /tmp/ccbobVZB.s:301    .text:000000000000018c .L0 
     /tmp/ccbobVZB.s:302    .text:000000000000018c .L0 
     /tmp/ccbobVZB.s:304    .text:0000000000000190 .L0 
     /tmp/ccbobVZB.s:307    .text:0000000000000194 .L0 
     /tmp/ccbobVZB.s:309    .text:0000000000000198 .L0 
     /tmp/ccbobVZB.s:323    .bss:0000000000000008 _ZN9Scheduler16schedulerPCBTailE
     /tmp/ccbobVZB.s:319    .bss:0000000000000000 _ZN9Scheduler16schedulerPCBHeadE
     /tmp/ccbobVZB.s:316    .bss:0000000000000000 .LANCHOR0
     /tmp/ccbobVZB.s:331    .text:0000000000000198 .L0 
     /tmp/ccbobVZB.s:88     .text:000000000000005c .L0 
     /tmp/ccbobVZB.s:151    .text:000000000000009c .L0 
     /tmp/ccbobVZB.s:156    .text:00000000000000a8 .L0 
     /tmp/ccbobVZB.s:176    .text:00000000000000c8 .L0 
     /tmp/ccbobVZB.s:199    .text:00000000000000e8 .L0 
     /tmp/ccbobVZB.s:211    .text:00000000000000fc .L0 
     /tmp/ccbobVZB.s:232    .text:0000000000000114 .L0 
     /tmp/ccbobVZB.s:242    .rodata.str1.8:0000000000000000 .LC0
     /tmp/ccbobVZB.s:267    .text:000000000000013c .L0 
     /tmp/ccbobVZB.s:272    .text:000000000000014c .L0 
     /tmp/ccbobVZB.s:245    .rodata.str1.8:0000000000000018 .LC1
     /tmp/ccbobVZB.s:287    .text:000000000000016c .L0 
     /tmp/ccbobVZB.s:107    .text:0000000000000078 .L6
     /tmp/ccbobVZB.s:93     .text:0000000000000068 .L7
     /tmp/ccbobVZB.s:172    .text:00000000000000c8 .L13
     /tmp/ccbobVZB.s:163    .text:00000000000000bc .L9
     /tmp/ccbobVZB.s:218    .text:0000000000000108 .L14
     /tmp/ccbobVZB.s:228    .text:0000000000000114 .L19
     /tmp/ccbobVZB.s:212    .text:0000000000000104 .L17
     /tmp/ccbobVZB.s:296    .text:0000000000000184 .L20
     /tmp/ccbobVZB.s:274    .text:0000000000000154 .L22
     /tmp/ccbobVZB.s:1288   .debug_abbrev:0000000000000000 .Ldebug_abbrev0
     /tmp/ccbobVZB.s:2317   .debug_str:00000000000000e7 .LASF112
     /tmp/ccbobVZB.s:2385   .debug_str:0000000000000365 .LASF113
     /tmp/ccbobVZB.s:2499   .debug_str:00000000000006e0 .LASF114
     /tmp/ccbobVZB.s:5      .text:0000000000000000 .Ltext0
     /tmp/ccbobVZB.s:326    .text:0000000000000198 .Letext0
GAS LISTING /tmp/ccbobVZB.s 			page 12


     /tmp/ccbobVZB.s:2289   .debug_line:0000000000000000 .Ldebug_line0
     /tmp/ccbobVZB.s:2379   .debug_str:0000000000000339 .LASF0
     /tmp/ccbobVZB.s:2397   .debug_str:00000000000003bb .LASF1
     /tmp/ccbobVZB.s:2449   .debug_str:0000000000000584 .LASF2
     /tmp/ccbobVZB.s:2457   .debug_str:00000000000005b3 .LASF4
     /tmp/ccbobVZB.s:2389   .debug_str:0000000000000384 .LASF3
     /tmp/ccbobVZB.s:2297   .debug_str:000000000000002f .LASF5
     /tmp/ccbobVZB.s:2439   .debug_str:000000000000052f .LASF6
     /tmp/ccbobVZB.s:2433   .debug_str:000000000000050b .LASF7
     /tmp/ccbobVZB.s:2393   .debug_str:00000000000003a3 .LASF8
     /tmp/ccbobVZB.s:2373   .debug_str:0000000000000315 .LASF9
     /tmp/ccbobVZB.s:2375   .debug_str:0000000000000325 .LASF10
     /tmp/ccbobVZB.s:2331   .debug_str:0000000000000203 .LASF11
     /tmp/ccbobVZB.s:2365   .debug_str:00000000000002e6 .LASF12
     /tmp/ccbobVZB.s:2337   .debug_str:0000000000000225 .LASF13
     /tmp/ccbobVZB.s:2329   .debug_str:00000000000001f3 .LASF14
     /tmp/ccbobVZB.s:2483   .debug_str:0000000000000691 .LASF15
     /tmp/ccbobVZB.s:2357   .debug_str:00000000000002a0 .LASF16
     /tmp/ccbobVZB.s:2475   .debug_str:000000000000062c .LASF17
     /tmp/ccbobVZB.s:2489   .debug_str:00000000000006b0 .LASF115
     /tmp/ccbobVZB.s:2325   .debug_str:00000000000001d6 .LASF18
     /tmp/ccbobVZB.s:2469   .debug_str:000000000000060b .LASF19
     /tmp/ccbobVZB.s:2335   .debug_str:000000000000021b .LASF20
     /tmp/ccbobVZB.s:2315   .debug_str:00000000000000de .LASF21
     /tmp/ccbobVZB.s:2437   .debug_str:0000000000000527 .LASF22
     /tmp/ccbobVZB.s:2333   .debug_str:0000000000000212 .LASF23
     /tmp/ccbobVZB.s:2485   .debug_str:000000000000069d .LASF86
     /tmp/ccbobVZB.s:2377   .debug_str:0000000000000333 .LASF24
     /tmp/ccbobVZB.s:2299   .debug_str:0000000000000036 .LASF29
     /tmp/ccbobVZB.s:2503   .debug_str:000000000000070b .LASF116
     /tmp/ccbobVZB.s:2423   .debug_str:00000000000004bd .LASF117
     /tmp/ccbobVZB.s:2395   .debug_str:00000000000003b6 .LASF25
     /tmp/ccbobVZB.s:2531   .debug_str:00000000000007cf .LASF27
     /tmp/ccbobVZB.s:2525   .debug_str:000000000000079f .LASF26
     /tmp/ccbobVZB.s:2495   .debug_str:00000000000006c6 .LASF28
     /tmp/ccbobVZB.s:2351   .debug_str:0000000000000288 .LASF54
     /tmp/ccbobVZB.s:2303   .debug_str:0000000000000059 .LASF56
     /tmp/ccbobVZB.s:2399   .debug_str:00000000000003ce .LASF34
     /tmp/ccbobVZB.s:2427   .debug_str:00000000000004d5 .LASF36
     /tmp/ccbobVZB.s:2491   .debug_str:00000000000006b6 .LASF30
     /tmp/ccbobVZB.s:2461   .debug_str:00000000000005c2 .LASF31
     /tmp/ccbobVZB.s:2401   .debug_str:00000000000003d4 .LASF38
     /tmp/ccbobVZB.s:2403   .debug_str:00000000000003e1 .LASF40
     /tmp/ccbobVZB.s:2533   .debug_str:00000000000007db .LASF32
     /tmp/ccbobVZB.s:2359   .debug_str:00000000000002b6 .LASF33
     /tmp/ccbobVZB.s:2295   .debug_str:000000000000001f .LASF35
     /tmp/ccbobVZB.s:2387   .debug_str:0000000000000377 .LASF37
     /tmp/ccbobVZB.s:2465   .debug_str:00000000000005e4 .LASF39
     /tmp/ccbobVZB.s:2413   .debug_str:0000000000000445 .LASF41
     /tmp/ccbobVZB.s:2455   .debug_str:00000000000005aa .LASF42
     /tmp/ccbobVZB.s:2479   .debug_str:0000000000000662 .LASF43
     /tmp/ccbobVZB.s:2415   .debug_str:0000000000000458 .LASF44
     /tmp/ccbobVZB.s:2291   .debug_str:0000000000000000 .LASF45
     /tmp/ccbobVZB.s:2517   .debug_str:000000000000076b .LASF46
     /tmp/ccbobVZB.s:2431   .debug_str:00000000000004f1 .LASF47
     /tmp/ccbobVZB.s:2473   .debug_str:000000000000061e .LASF48
     /tmp/ccbobVZB.s:2441   .debug_str:0000000000000536 .LASF49
GAS LISTING /tmp/ccbobVZB.s 			page 13


     /tmp/ccbobVZB.s:2349   .debug_str:0000000000000278 .LASF50
     /tmp/ccbobVZB.s:2367   .debug_str:00000000000002f5 .LASF51
     /tmp/ccbobVZB.s:2445   .debug_str:000000000000055f .LASF52
     /tmp/ccbobVZB.s:2521   .debug_str:0000000000000786 .LASF53
     /tmp/ccbobVZB.s:2391   .debug_str:0000000000000396 .LASF60
     /tmp/ccbobVZB.s:2471   .debug_str:0000000000000613 .LASF55
     /tmp/ccbobVZB.s:2529   .debug_str:00000000000007b9 .LASF57
     /tmp/ccbobVZB.s:2487   .debug_str:00000000000006a5 .LASF58
     /tmp/ccbobVZB.s:2345   .debug_str:000000000000025d .LASF59
     /tmp/ccbobVZB.s:2459   .debug_str:00000000000005ba .LASF61
     /tmp/ccbobVZB.s:2381   .debug_str:0000000000000346 .LASF62
     /tmp/ccbobVZB.s:2419   .debug_str:000000000000047d .LASF63
     /tmp/ccbobVZB.s:2341   .debug_str:0000000000000246 .LASF64
     /tmp/ccbobVZB.s:2443   .debug_str:0000000000000542 .LASF65
     /tmp/ccbobVZB.s:2537   .debug_str:00000000000007f3 .LASF66
     /tmp/ccbobVZB.s:2421   .debug_str:000000000000049c .LASF67
     /tmp/ccbobVZB.s:2453   .debug_str:0000000000000597 .LASF68
     /tmp/ccbobVZB.s:2467   .debug_str:00000000000005ed .LASF69
     /tmp/ccbobVZB.s:2509   .debug_str:000000000000073d .LASF70
     /tmp/ccbobVZB.s:2409   .debug_str:0000000000000406 .LASF71
     /tmp/ccbobVZB.s:2505   .debug_str:0000000000000723 .LASF72
     /tmp/ccbobVZB.s:2477   .debug_str:0000000000000642 .LASF73
     /tmp/ccbobVZB.s:2355   .debug_str:0000000000000297 .LASF74
     /tmp/ccbobVZB.s:2383   .debug_str:000000000000035a .LASF75
     /tmp/ccbobVZB.s:2497   .debug_str:00000000000006d6 .LASF76
     /tmp/ccbobVZB.s:2429   .debug_str:00000000000004e5 .LASF77
     /tmp/ccbobVZB.s:2523   .debug_str:0000000000000791 .LASF78
     /tmp/ccbobVZB.s:2307   .debug_str:000000000000008d .LASF80
     /tmp/ccbobVZB.s:2363   .debug_str:00000000000002d1 .LASF79
     /tmp/ccbobVZB.s:2323   .debug_str:00000000000001aa .LASF81
     /tmp/ccbobVZB.s:2515   .debug_str:0000000000000764 .LASF118
     /tmp/ccbobVZB.s:2321   .debug_str:0000000000000199 .LASF119
     /tmp/ccbobVZB.s:2293   .debug_str:000000000000001a .LASF82
     /tmp/ccbobVZB.s:2507   .debug_str:0000000000000738 .LASF83
     /tmp/ccbobVZB.s:2405   .debug_str:00000000000003f9 .LASF84
     /tmp/ccbobVZB.s:2353   .debug_str:0000000000000291 .LASF85
     /tmp/ccbobVZB.s:2501   .debug_str:0000000000000703 .LASF87
     /tmp/ccbobVZB.s:2371   .debug_str:000000000000030b .LASF88
     /tmp/ccbobVZB.s:2301   .debug_str:0000000000000041 .LASF120
     /tmp/ccbobVZB.s:2527   .debug_str:00000000000007a5 .LASF121
     /tmp/ccbobVZB.s:2313   .debug_str:00000000000000cc .LASF89
     /tmp/ccbobVZB.s:2425   .debug_str:00000000000004c2 .LASF90
     /tmp/ccbobVZB.s:2493   .debug_str:00000000000006be .LASF91
     /tmp/ccbobVZB.s:2447   .debug_str:000000000000056c .LASF122
     /tmp/ccbobVZB.s:2319   .debug_str:0000000000000193 .LASF92
     /tmp/ccbobVZB.s:2417   .debug_str:0000000000000467 .LASF93
     /tmp/ccbobVZB.s:2463   .debug_str:00000000000005d3 .LASF94
     /tmp/ccbobVZB.s:2339   .debug_str:0000000000000235 .LASF95
     /tmp/ccbobVZB.s:2407   .debug_str:0000000000000401 .LASF96
     /tmp/ccbobVZB.s:2411   .debug_str:0000000000000424 .LASF97
     /tmp/ccbobVZB.s:2305   .debug_str:000000000000006c .LASF98
     /tmp/ccbobVZB.s:252    .text:0000000000000128 .LFB29
     /tmp/ccbobVZB.s:310    .text:0000000000000198 .LFE29
     /tmp/ccbobVZB.s:2451   .debug_str:0000000000000592 .LASF99
     /tmp/ccbobVZB.s:2203   .debug_loc:0000000000000000 .LLST6
     /tmp/ccbobVZB.s:269    .text:000000000000014c .LVL16
     /tmp/ccbobVZB.s:284    .text:000000000000016c .LVL18
GAS LISTING /tmp/ccbobVZB.s 			page 14


     /tmp/ccbobVZB.s:289    .text:000000000000017c .LVL19
     /tmp/ccbobVZB.s:188    .text:00000000000000dc .LFB28
     /tmp/ccbobVZB.s:238    .text:0000000000000128 .LFE28
     /tmp/ccbobVZB.s:2309   .debug_str:00000000000000b5 .LASF100
     /tmp/ccbobVZB.s:2210   .debug_loc:0000000000000023 .LLST5
     /tmp/ccbobVZB.s:125    .text:0000000000000088 .LFB27
     /tmp/ccbobVZB.s:182    .text:00000000000000dc .LFE27
     /tmp/ccbobVZB.s:137    .text:0000000000000094 .LBB4
     /tmp/ccbobVZB.s:145    .text:0000000000000098 .LBE4
     /tmp/ccbobVZB.s:2221   .debug_loc:0000000000000059 .LLST3
     /tmp/ccbobVZB.s:2229   .debug_loc:000000000000007d .LLST4
     /tmp/ccbobVZB.s:75     .text:0000000000000050 .LFB26
     /tmp/ccbobVZB.s:119    .text:0000000000000088 .LFE26
     /tmp/ccbobVZB.s:2236   .debug_loc:00000000000000a0 .LLST2
     /tmp/ccbobVZB.s:43     .text:0000000000000028 .LFB25
     /tmp/ccbobVZB.s:69     .text:0000000000000050 .LFE25
     /tmp/ccbobVZB.s:2248   .debug_loc:00000000000000d7 .LLST1
     /tmp/ccbobVZB.s:58     .text:0000000000000040 .LVL3
     /tmp/ccbobVZB.s:10     .text:0000000000000000 .LFB24
     /tmp/ccbobVZB.s:37     .text:0000000000000028 .LFE24
     /tmp/ccbobVZB.s:2343   .debug_str:0000000000000258 .LASF101
     /tmp/ccbobVZB.s:2262   .debug_loc:0000000000000110 .LLST0
     /tmp/ccbobVZB.s:26     .text:0000000000000018 .LVL1
     /tmp/ccbobVZB.s:2347   .debug_str:0000000000000273 .LASF123
     /tmp/ccbobVZB.s:2327   .debug_str:00000000000001dc .LASF102
     /tmp/ccbobVZB.s:2311   .debug_str:00000000000000bc .LASF104
     /tmp/ccbobVZB.s:2361   .debug_str:00000000000002c2 .LASF103
     /tmp/ccbobVZB.s:2435   .debug_str:000000000000051e .LASF105
     /tmp/ccbobVZB.s:2481   .debug_str:000000000000067e .LASF106
     /tmp/ccbobVZB.s:2519   .debug_str:000000000000077a .LASF107
     /tmp/ccbobVZB.s:2535   .debug_str:00000000000007e8 .LASF108
     /tmp/ccbobVZB.s:2369   .debug_str:0000000000000305 .LASF109
     /tmp/ccbobVZB.s:2511   .debug_str:0000000000000750 .LASF110
     /tmp/ccbobVZB.s:2513   .debug_str:000000000000075c .LASF111
     /tmp/ccbobVZB.s:273    .text:0000000000000154 .LVL17
     /tmp/ccbobVZB.s:305    .text:0000000000000190 .LVL21
     /tmp/ccbobVZB.s:203    .text:00000000000000f4 .LVL13
     /tmp/ccbobVZB.s:217    .text:0000000000000108 .LVL14
     /tmp/ccbobVZB.s:227    .text:0000000000000114 .LVL15
     /tmp/ccbobVZB.s:136    .text:0000000000000094 .LVL11
     /tmp/ccbobVZB.s:143    .text:0000000000000098 .LVL12
     /tmp/ccbobVZB.s:85     .text:000000000000005c .LVL4
     /tmp/ccbobVZB.s:92     .text:0000000000000068 .LVL6
     /tmp/ccbobVZB.s:111    .text:000000000000007c .LVL9
     /tmp/ccbobVZB.s:46     .text:0000000000000028 .LVL2
     /tmp/ccbobVZB.s:14     .text:0000000000000000 .LVL0
     /tmp/ccbobVZB.s:332    .debug_info:0000000000000000 .Ldebug_info0

UNDEFINED SYMBOLS
_Z7kmallocm
_Z5kfreePv
_Z15trapPrintStringPKc
_Z8printIntiii
_Z11printStringPKc
