GAS LISTING /tmp/cctnN18m.s 			page 1


   1              		.file	"Scheduler.cpp"
   2              		.option pic
   3              		.option norelax
   4              		.text
   5              	.Ltext0:
   6              		.align	2
   7              		.globl	_ZN9SchedulernwEm
   9              	_ZN9SchedulernwEm:
  10              	.LFB24:
  11              		.file 1 "src/Scheduler.cpp"
   1:src/Scheduler.cpp **** //
   2:src/Scheduler.cpp **** // Created by os on 4/27/22.
   3:src/Scheduler.cpp **** //
   4:src/Scheduler.cpp **** 
   5:src/Scheduler.cpp **** #include "../h/Scheduler.h"
   6:src/Scheduler.cpp **** #include "../h/PCB.h"
   7:src/Scheduler.cpp **** 
   8:src/Scheduler.cpp **** //todo
   9:src/Scheduler.cpp **** Scheduler* Scheduler::scheduler = 0;
  10:src/Scheduler.cpp **** 
  11:src/Scheduler.cpp **** void Scheduler::put(PCB *pcb) {
  12:src/Scheduler.cpp ****     pcb->setState(PCB::READY);
  13:src/Scheduler.cpp ****     if(scheduler == 0)
  14:src/Scheduler.cpp ****         scheduler = new Scheduler();
  15:src/Scheduler.cpp ****     scheduler->queuePCB.push(pcb);
  16:src/Scheduler.cpp **** }
  17:src/Scheduler.cpp **** 
  18:src/Scheduler.cpp **** PCB *Scheduler::get() {
  19:src/Scheduler.cpp ****     if(scheduler == 0)
  20:src/Scheduler.cpp ****         scheduler = new Scheduler();
  21:src/Scheduler.cpp ****     PCB* fr = scheduler->queuePCB.front();
  22:src/Scheduler.cpp ****     scheduler->queuePCB.pop();
  23:src/Scheduler.cpp ****     return fr;
  24:src/Scheduler.cpp **** }
  25:src/Scheduler.cpp **** 
  26:src/Scheduler.cpp **** void *Scheduler::operator new(size_t size) {
  12              		.loc 1 26 44
  13              		.cfi_startproc
  14              	.LVL0:
  15 0000 130101FF 		addi	sp,sp,-16
  16              		.cfi_def_cfa_offset 16
  17 0004 23341100 		sd	ra,8(sp)
  18 0008 23308100 		sd	s0,0(sp)
  19              		.cfi_offset 1, -8
  20              		.cfi_offset 8, -16
  21 000c 13040101 		addi	s0,sp,16
  22              		.cfi_def_cfa 8, 0
  27:src/Scheduler.cpp ****     return kmalloc(size);
  23              		.loc 1 27 5
  24              		.loc 1 27 19 is_stmt 0
  25 0010 97000000 		call	_Z7kmallocm@plt
  25      E7800000 
  26              	.LVL1:
  28:src/Scheduler.cpp **** }
  27              		.loc 1 28 1
  28 0018 83308100 		ld	ra,8(sp)
  29              		.cfi_restore 1
GAS LISTING /tmp/cctnN18m.s 			page 2


  30 001c 03340100 		ld	s0,0(sp)
  31              		.cfi_restore 8
  32              		.cfi_def_cfa 2, 16
  33 0020 13010101 		addi	sp,sp,16
  34              		.cfi_def_cfa_offset 0
  35 0024 67800000 		jr	ra
  36              		.cfi_endproc
  37              	.LFE24:
  39              		.align	2
  40              		.globl	_ZN9SchedulerdlEPv
  42              	_ZN9SchedulerdlEPv:
  43              	.LFB25:
  29:src/Scheduler.cpp **** 
  30:src/Scheduler.cpp **** void Scheduler::operator delete(void *p) {
  44              		.loc 1 30 42 is_stmt 1
  45              		.cfi_startproc
  46              	.LVL2:
  47 0028 130101FF 		addi	sp,sp,-16
  48              		.cfi_def_cfa_offset 16
  49 002c 23341100 		sd	ra,8(sp)
  50 0030 23308100 		sd	s0,0(sp)
  51              		.cfi_offset 1, -8
  52              		.cfi_offset 8, -16
  53 0034 13040101 		addi	s0,sp,16
  54              		.cfi_def_cfa 8, 0
  31:src/Scheduler.cpp ****     //todo
  32:src/Scheduler.cpp ****     kfree(p);
  55              		.loc 1 32 5
  56              		.loc 1 32 10 is_stmt 0
  57 0038 97000000 		call	_Z5kfreePv@plt
  57      E7800000 
  58              	.LVL3:
  33:src/Scheduler.cpp **** }
  59              		.loc 1 33 1
  60 0040 83308100 		ld	ra,8(sp)
  61              		.cfi_restore 1
  62 0044 03340100 		ld	s0,0(sp)
  63              		.cfi_restore 8
  64              		.cfi_def_cfa 2, 16
  65 0048 13010101 		addi	sp,sp,16
  66              		.cfi_def_cfa_offset 0
  67 004c 67800000 		jr	ra
  68              		.cfi_endproc
  69              	.LFE25:
  71              		.align	2
  72              		.globl	_ZN9Scheduler3putEP3PCB
  74              	_ZN9Scheduler3putEP3PCB:
  75              	.LFB19:
  11:src/Scheduler.cpp ****     pcb->setState(PCB::READY);
  76              		.loc 1 11 31 is_stmt 1
  77              		.cfi_startproc
  78              		.cfi_personality 0x9b,DW.ref.__gxx_personality_v0
  79              		.cfi_lsda 0x1b,.LLSDA19
  80              	.LVL4:
  81 0050 130101FE 		addi	sp,sp,-32
  82              		.cfi_def_cfa_offset 32
  83 0054 233C1100 		sd	ra,24(sp)
GAS LISTING /tmp/cctnN18m.s 			page 3


  84 0058 23388100 		sd	s0,16(sp)
  85 005c 23349100 		sd	s1,8(sp)
  86 0060 23302101 		sd	s2,0(sp)
  87              		.cfi_offset 1, -8
  88              		.cfi_offset 8, -16
  89              		.cfi_offset 9, -24
  90              		.cfi_offset 18, -32
  91 0064 13040102 		addi	s0,sp,32
  92              		.cfi_def_cfa 8, 0
  93 0068 93040500 		mv	s1,a0
  12:src/Scheduler.cpp ****     if(scheduler == 0)
  94              		.loc 1 12 5
  95              	.LVL5:
  96              	.LBB13:
  97              	.LBB14:
  98              		.file 2 "src/../h/PCB.h"
   1:src/../h/PCB.h **** //
   2:src/../h/PCB.h **** // Created by os on 4/27/22.
   3:src/../h/PCB.h **** //
   4:src/../h/PCB.h **** 
   5:src/../h/PCB.h **** #ifndef PROJECT_BASE_V1_0_PCB_H
   6:src/../h/PCB.h **** #define PROJECT_BASE_V1_0_PCB_H
   7:src/../h/PCB.h **** 
   8:src/../h/PCB.h **** #include "../lib/hw.h"
   9:src/../h/PCB.h **** #include "Scheduler.h"
  10:src/../h/PCB.h **** #include "Riscv.h"
  11:src/../h/PCB.h **** 
  12:src/../h/PCB.h **** class PCB
  13:src/../h/PCB.h **** {
  14:src/../h/PCB.h **** public:
  15:src/../h/PCB.h ****     using Body = void (*)(void*);
  16:src/../h/PCB.h **** 
  17:src/../h/PCB.h ****     PCB(Body body,  void* args, void* stack_space, uint64 timeSlice);
  18:src/../h/PCB.h ****     ~PCB();
  19:src/../h/PCB.h **** 
  20:src/../h/PCB.h ****     void start();
  21:src/../h/PCB.h ****     static void dispatch();
  22:src/../h/PCB.h ****     static void sleep(time_t);
  23:src/../h/PCB.h **** 
  24:src/../h/PCB.h ****     static PCB* running;
  25:src/../h/PCB.h ****     static PCB* exitingPCB;
  26:src/../h/PCB.h **** 
  27:src/../h/PCB.h ****     static uint64 timeSliceCounter;
  28:src/../h/PCB.h ****     uint64 getTimeSlice() { return timeSlice;}
  29:src/../h/PCB.h **** 
  30:src/../h/PCB.h ****     void* operator new(size_t size);
  31:src/../h/PCB.h ****     void operator delete(void *p);
  32:src/../h/PCB.h **** 
  33:src/../h/PCB.h ****     enum State{READY, RUNNING, SUSPENDED, FINISHED, EXITING};
  34:src/../h/PCB.h ****     State getState() {return state;}
  35:src/../h/PCB.h ****     void setState(State s) {state = s;}
  99              		.loc 2 35 29
 100              		.loc 2 35 35 is_stmt 0
 101 006c 23200502 		sw	zero,32(a0)
 102              	.LVL6:
 103              	.LBE14:
 104              	.LBE13:
GAS LISTING /tmp/cctnN18m.s 			page 4


  13:src/Scheduler.cpp ****         scheduler = new Scheduler();
 105              		.loc 1 13 5 is_stmt 1
  13:src/Scheduler.cpp ****         scheduler = new Scheduler();
 106              		.loc 1 13 18 is_stmt 0
 107 0070 97070000 		ld	a5,.LANCHOR0
 107      83B70700 
  13:src/Scheduler.cpp ****         scheduler = new Scheduler();
 108              		.loc 1 13 5
 109 0078 63880702 		beqz	a5,.L11
 110              	.LVL7:
 111              	.L6:
  15:src/Scheduler.cpp **** }
 112              		.loc 1 15 5 is_stmt 1
  15:src/Scheduler.cpp **** }
 113              		.loc 1 15 29 is_stmt 0
 114 007c 93850400 		mv	a1,s1
 115 0080 17050000 		ld	a0,.LANCHOR0
 115      03350500 
 116              	.LEHB0:
 117 0088 97000000 		call	_ZN5Queue4pushEP3PCB@plt
 117      E7800000 
 118              	.LVL8:
  16:src/Scheduler.cpp **** 
 119              		.loc 1 16 1
 120 0090 83308101 		ld	ra,24(sp)
 121              		.cfi_remember_state
 122              		.cfi_restore 1
 123 0094 03340101 		ld	s0,16(sp)
 124              		.cfi_restore 8
 125              		.cfi_def_cfa 2, 32
 126 0098 83348100 		ld	s1,8(sp)
 127              		.cfi_restore 9
 128              	.LVL9:
 129 009c 03390100 		ld	s2,0(sp)
 130              		.cfi_restore 18
 131 00a0 13010102 		addi	sp,sp,32
 132              		.cfi_def_cfa_offset 0
 133 00a4 67800000 		jr	ra
 134              	.LVL10:
 135              	.L11:
 136              		.cfi_restore_state
  14:src/Scheduler.cpp ****     scheduler->queuePCB.push(pcb);
 137              		.loc 1 14 9 is_stmt 1
  14:src/Scheduler.cpp ****     scheduler->queuePCB.push(pcb);
 138              		.loc 1 14 35 is_stmt 0
 139 00a8 13050001 		li	a0,16
 140 00ac 97000000 		call	_ZN9SchedulernwEm
 140      E7800000 
 141              	.LVL11:
 142              	.LEHE0:
 143 00b4 13090500 		mv	s2,a0
 144 00b8 23300500 		sd	zero,0(a0)
 145 00bc 23340500 		sd	zero,8(a0)
 146              	.LVL12:
 147              	.LEHB1:
 148              	.LBB15:
 149              	.LBB16:
GAS LISTING /tmp/cctnN18m.s 			page 5


 150              	.LBB17:
 151              		.file 3 "src/../h/Scheduler.h"
   1:src/../h/Scheduler.h **** //
   2:src/../h/Scheduler.h **** // Created by os on 4/27/22.
   3:src/../h/Scheduler.h **** //
   4:src/../h/Scheduler.h **** 
   5:src/../h/Scheduler.h **** #ifndef PROJECT_BASE_V1_0_SCHEDULER_H
   6:src/../h/Scheduler.h **** #define PROJECT_BASE_V1_0_SCHEDULER_H
   7:src/../h/Scheduler.h **** 
   8:src/../h/Scheduler.h **** #include "../lib/hw.h"
   9:src/../h/Scheduler.h **** #include "MemoryAllocator.h"
  10:src/../h/Scheduler.h **** #include "Queue.h"
  11:src/../h/Scheduler.h **** 
  12:src/../h/Scheduler.h **** class PCB;
  13:src/../h/Scheduler.h **** 
  14:src/../h/Scheduler.h **** class Scheduler
 152              		.loc 3 14 7
 153 00c0 97000000 		call	_ZN5QueueC1Ev@plt
 153      E7800000 
 154              	.LVL13:
 155              	.LEHE1:
 156              	.LBE17:
 157              	.LBE16:
 158              	.LBE15:
  14:src/Scheduler.cpp ****     scheduler->queuePCB.push(pcb);
 159              		.loc 1 14 19
 160 00c8 97070000 		sd	s2,.LANCHOR0,a5
 160      23B02701 
 161 00d0 6FF0DFFA 		j	.L6
 162              	.LVL14:
 163              	.L8:
 164 00d4 93040500 		mv	s1,a0
 165              	.LVL15:
  14:src/Scheduler.cpp ****     scheduler->queuePCB.push(pcb);
 166              		.loc 1 14 35
 167 00d8 13050900 		mv	a0,s2
 168 00dc 97000000 		call	_ZN9SchedulerdlEPv
 168      E7800000 
 169              	.LVL16:
 170 00e4 13850400 		mv	a0,s1
 171              	.LEHB2:
 172 00e8 97000000 		call	_Unwind_Resume@plt
 172      E7800000 
 173              	.LVL17:
 174              	.LEHE2:
 175              		.cfi_endproc
 176              	.LFE19:
 177              		.globl	__gxx_personality_v0
 178              		.section	.gcc_except_table,"a",@progbits
 179              	.LLSDA19:
 180 0000 FF       		.byte	0xff
 181 0001 FF       		.byte	0xff
 182 0002 03       		.byte	0x3
 183 0003 27       		.byte	0x27
 184 0004 00000000 		.4byte	.LEHB0-.LFB19
 185 0008 00000000 		.4byte	.LEHE0-.LEHB0
 186 000c 00000000 		.4byte	0
GAS LISTING /tmp/cctnN18m.s 			page 6


 187 0010 00       		.byte	0
 188 0011 00000000 		.4byte	.LEHB1-.LFB19
 189 0015 00000000 		.4byte	.LEHE1-.LEHB1
 190 0019 00000000 		.4byte	.L8-.LFB19
 191 001d 00       		.byte	0
 192 001e 00000000 		.4byte	.LEHB2-.LFB19
 193 0022 00000000 		.4byte	.LEHE2-.LEHB2
 194 0026 00000000 		.4byte	0
 195 002a 00       		.byte	0
 196              		.text
 198              		.align	2
 199              		.globl	_ZN9Scheduler3getEv
 201              	_ZN9Scheduler3getEv:
 202              	.LFB23:
  18:src/Scheduler.cpp ****     if(scheduler == 0)
 203              		.loc 1 18 23 is_stmt 1
 204              		.cfi_startproc
 205              		.cfi_personality 0x9b,DW.ref.__gxx_personality_v0
 206              		.cfi_lsda 0x1b,.LLSDA23
 207 00f0 130101FE 		addi	sp,sp,-32
 208              		.cfi_def_cfa_offset 32
 209 00f4 233C1100 		sd	ra,24(sp)
 210 00f8 23388100 		sd	s0,16(sp)
 211 00fc 23349100 		sd	s1,8(sp)
 212 0100 23302101 		sd	s2,0(sp)
 213              		.cfi_offset 1, -8
 214              		.cfi_offset 8, -16
 215              		.cfi_offset 9, -24
 216              		.cfi_offset 18, -32
 217 0104 13040102 		addi	s0,sp,32
 218              		.cfi_def_cfa 8, 0
  19:src/Scheduler.cpp ****         scheduler = new Scheduler();
 219              		.loc 1 19 5
  19:src/Scheduler.cpp ****         scheduler = new Scheduler();
 220              		.loc 1 19 18 is_stmt 0
 221 0108 97070000 		ld	a5,.LANCHOR0
 221      83B70700 
  19:src/Scheduler.cpp ****         scheduler = new Scheduler();
 222              		.loc 1 19 5
 223 0110 63820704 		beqz	a5,.L18
 224              	.L13:
  21:src/Scheduler.cpp ****     scheduler->queuePCB.pop();
 225              		.loc 1 21 5 is_stmt 1
  21:src/Scheduler.cpp ****     scheduler->queuePCB.pop();
 226              		.loc 1 21 26 is_stmt 0
 227 0114 17090000 		lla	s2,.LANCHOR0
 227      13090900 
  21:src/Scheduler.cpp ****     scheduler->queuePCB.pop();
 228              		.loc 1 21 40
 229 011c 03350900 		ld	a0,0(s2)
 230              	.LEHB3:
 231 0120 97000000 		call	_ZN5Queue5frontEv@plt
 231      E7800000 
 232              	.LVL18:
 233 0128 93040500 		mv	s1,a0
 234              	.LVL19:
  22:src/Scheduler.cpp ****     return fr;
GAS LISTING /tmp/cctnN18m.s 			page 7


 235              		.loc 1 22 5 is_stmt 1
  22:src/Scheduler.cpp ****     return fr;
 236              		.loc 1 22 28 is_stmt 0
 237 012c 03350900 		ld	a0,0(s2)
 238 0130 97000000 		call	_ZN5Queue3popEv@plt
 238      E7800000 
 239              	.LVL20:
  23:src/Scheduler.cpp **** }
 240              		.loc 1 23 5 is_stmt 1
  24:src/Scheduler.cpp **** 
 241              		.loc 1 24 1 is_stmt 0
 242 0138 13850400 		mv	a0,s1
 243 013c 83308101 		ld	ra,24(sp)
 244              		.cfi_remember_state
 245              		.cfi_restore 1
 246 0140 03340101 		ld	s0,16(sp)
 247              		.cfi_restore 8
 248              		.cfi_def_cfa 2, 32
 249 0144 83348100 		ld	s1,8(sp)
 250              		.cfi_restore 9
 251              	.LVL21:
 252 0148 03390100 		ld	s2,0(sp)
 253              		.cfi_restore 18
 254 014c 13010102 		addi	sp,sp,32
 255              		.cfi_def_cfa_offset 0
 256 0150 67800000 		jr	ra
 257              	.LVL22:
 258              	.L18:
 259              		.cfi_restore_state
  20:src/Scheduler.cpp ****     PCB* fr = scheduler->queuePCB.front();
 260              		.loc 1 20 9 is_stmt 1
  20:src/Scheduler.cpp ****     PCB* fr = scheduler->queuePCB.front();
 261              		.loc 1 20 35 is_stmt 0
 262 0154 13050001 		li	a0,16
 263 0158 97000000 		call	_ZN9SchedulernwEm
 263      E7800000 
 264              	.LVL23:
 265              	.LEHE3:
 266 0160 93040500 		mv	s1,a0
 267 0164 23300500 		sd	zero,0(a0)
 268 0168 23340500 		sd	zero,8(a0)
 269              	.LVL24:
 270              	.LEHB4:
 271              	.LBB18:
 272              	.LBB19:
 273              	.LBB20:
 274              		.loc 3 14 7
 275 016c 97000000 		call	_ZN5QueueC1Ev@plt
 275      E7800000 
 276              	.LVL25:
 277              	.LEHE4:
 278              	.LBE20:
 279              	.LBE19:
 280              	.LBE18:
  20:src/Scheduler.cpp ****     PCB* fr = scheduler->queuePCB.front();
 281              		.loc 1 20 19
 282 0174 97070000 		sd	s1,.LANCHOR0,a5
GAS LISTING /tmp/cctnN18m.s 			page 8


 282      23B09700 
 283 017c 6FF09FF9 		j	.L13
 284              	.LVL26:
 285              	.L15:
 286 0180 13090500 		mv	s2,a0
  20:src/Scheduler.cpp ****     PCB* fr = scheduler->queuePCB.front();
 287              		.loc 1 20 35
 288 0184 13850400 		mv	a0,s1
 289 0188 97000000 		call	_ZN9SchedulerdlEPv
 289      E7800000 
 290              	.LVL27:
 291 0190 13050900 		mv	a0,s2
 292              	.LEHB5:
 293 0194 97000000 		call	_Unwind_Resume@plt
 293      E7800000 
 294              	.LVL28:
 295              	.LEHE5:
 296              		.cfi_endproc
 297              	.LFE23:
 298              		.section	.gcc_except_table
 299              	.LLSDA23:
 300 002b FF       		.byte	0xff
 301 002c FF       		.byte	0xff
 302 002d 03       		.byte	0x3
 303 002e 27       		.byte	0x27
 304 002f 00000000 		.4byte	.LEHB3-.LFB23
 305 0033 00000000 		.4byte	.LEHE3-.LEHB3
 306 0037 00000000 		.4byte	0
 307 003b 00       		.byte	0
 308 003c 00000000 		.4byte	.LEHB4-.LFB23
 309 0040 00000000 		.4byte	.LEHE4-.LEHB4
 310 0044 00000000 		.4byte	.L15-.LFB23
 311 0048 00       		.byte	0
 312 0049 00000000 		.4byte	.LEHB5-.LFB23
 313 004d 00000000 		.4byte	.LEHE5-.LEHB5
 314 0051 00000000 		.4byte	0
 315 0055 00       		.byte	0
 316              		.text
 318              		.align	2
 319              		.globl	_ZN9Scheduler7getSizeEv
 321              	_ZN9Scheduler7getSizeEv:
 322              	.LFB26:
  34:src/Scheduler.cpp **** 
  35:src/Scheduler.cpp **** int Scheduler::getSize() {
 323              		.loc 1 35 26 is_stmt 1
 324              		.cfi_startproc
 325              		.cfi_personality 0x9b,DW.ref.__gxx_personality_v0
 326              		.cfi_lsda 0x1b,.LLSDA26
 327 019c 130101FE 		addi	sp,sp,-32
 328              		.cfi_def_cfa_offset 32
 329 01a0 233C1100 		sd	ra,24(sp)
 330 01a4 23388100 		sd	s0,16(sp)
 331 01a8 23349100 		sd	s1,8(sp)
 332 01ac 23302101 		sd	s2,0(sp)
 333              		.cfi_offset 1, -8
 334              		.cfi_offset 8, -16
 335              		.cfi_offset 9, -24
GAS LISTING /tmp/cctnN18m.s 			page 9


 336              		.cfi_offset 18, -32
 337 01b0 13040102 		addi	s0,sp,32
 338              		.cfi_def_cfa 8, 0
  36:src/Scheduler.cpp ****     if(scheduler == 0)
 339              		.loc 1 36 5
 340              		.loc 1 36 18 is_stmt 0
 341 01b4 97070000 		ld	a5,.LANCHOR0
 341      83B70700 
 342              		.loc 1 36 5
 343 01bc 63860702 		beqz	a5,.L25
 344              	.L20:
  37:src/Scheduler.cpp ****         scheduler = new Scheduler();
  38:src/Scheduler.cpp ****     return scheduler->queuePCB.size();
 345              		.loc 1 38 5 is_stmt 1
 346              		.loc 1 38 36 is_stmt 0
 347 01c0 17050000 		ld	a0,.LANCHOR0
 347      03350500 
 348              	.LEHB6:
 349 01c8 97000000 		call	_ZN5Queue4sizeEv@plt
 349      E7800000 
 350              	.LVL29:
  39:src/Scheduler.cpp **** }
 351              		.loc 1 39 1
 352 01d0 83308101 		ld	ra,24(sp)
 353              		.cfi_remember_state
 354              		.cfi_restore 1
 355 01d4 03340101 		ld	s0,16(sp)
 356              		.cfi_restore 8
 357              		.cfi_def_cfa 2, 32
 358 01d8 83348100 		ld	s1,8(sp)
 359              		.cfi_restore 9
 360 01dc 03390100 		ld	s2,0(sp)
 361              		.cfi_restore 18
 362 01e0 13010102 		addi	sp,sp,32
 363              		.cfi_def_cfa_offset 0
 364 01e4 67800000 		jr	ra
 365              	.L25:
 366              		.cfi_restore_state
  37:src/Scheduler.cpp ****         scheduler = new Scheduler();
 367              		.loc 1 37 9 is_stmt 1
  37:src/Scheduler.cpp ****         scheduler = new Scheduler();
 368              		.loc 1 37 35 is_stmt 0
 369 01e8 13050001 		li	a0,16
 370 01ec 97000000 		call	_ZN9SchedulernwEm
 370      E7800000 
 371              	.LVL30:
 372              	.LEHE6:
 373 01f4 93040500 		mv	s1,a0
 374 01f8 23300500 		sd	zero,0(a0)
 375 01fc 23340500 		sd	zero,8(a0)
 376              	.LVL31:
 377              	.LEHB7:
 378              	.LBB21:
 379              	.LBB22:
 380              	.LBB23:
 381              		.loc 3 14 7
 382 0200 97000000 		call	_ZN5QueueC1Ev@plt
GAS LISTING /tmp/cctnN18m.s 			page 10


 382      E7800000 
 383              	.LVL32:
 384              	.LEHE7:
 385              	.LBE23:
 386              	.LBE22:
 387              	.LBE21:
  37:src/Scheduler.cpp ****         scheduler = new Scheduler();
 388              		.loc 1 37 19
 389 0208 97070000 		sd	s1,.LANCHOR0,a5
 389      23B09700 
 390 0210 6FF01FFB 		j	.L20
 391              	.LVL33:
 392              	.L22:
 393 0214 13090500 		mv	s2,a0
  37:src/Scheduler.cpp ****         scheduler = new Scheduler();
 394              		.loc 1 37 35
 395 0218 13850400 		mv	a0,s1
 396 021c 97000000 		call	_ZN9SchedulerdlEPv
 396      E7800000 
 397              	.LVL34:
 398 0224 13050900 		mv	a0,s2
 399              	.LEHB8:
 400 0228 97000000 		call	_Unwind_Resume@plt
 400      E7800000 
 401              	.LVL35:
 402              	.LEHE8:
 403              		.cfi_endproc
 404              	.LFE26:
 405              		.section	.gcc_except_table
 406              	.LLSDA26:
 407 0056 FF       		.byte	0xff
 408 0057 FF       		.byte	0xff
 409 0058 03       		.byte	0x3
 410 0059 27       		.byte	0x27
 411 005a 00000000 		.4byte	.LEHB6-.LFB26
 412 005e 00000000 		.4byte	.LEHE6-.LEHB6
 413 0062 00000000 		.4byte	0
 414 0066 00       		.byte	0
 415 0067 00000000 		.4byte	.LEHB7-.LFB26
 416 006b 00000000 		.4byte	.LEHE7-.LEHB7
 417 006f 00000000 		.4byte	.L22-.LFB26
 418 0073 00       		.byte	0
 419 0074 00000000 		.4byte	.LEHB8-.LFB26
 420 0078 00000000 		.4byte	.LEHE8-.LEHB8
 421 007c 00000000 		.4byte	0
 422 0080 00       		.byte	0
 423              		.text
 425              		.globl	_ZN9Scheduler9schedulerE
 426              		.bss
 427              		.align	3
 428              		.set	.LANCHOR0,. + 0
 431              	_ZN9Scheduler9schedulerE:
 432 0000 00000000 		.zero	8
 432      00000000 
 433              		.text
 434              	.Letext0:
 435              		.file 4 "src/../h/../lib/hw.h"
GAS LISTING /tmp/cctnN18m.s 			page 11


 436              		.file 5 "src/../h/Queue.h"
 437              		.file 6 "src/../h/MemoryAllocator.h"
 2818              		.align	3
 2821              	DW.ref.__gxx_personality_v0:
 2822 0000 00000000 		.dword	__gxx_personality_v0
 2822      00000000 
 2823              		.ident	"GCC: (Ubuntu 9.3.0-17ubuntu1~20.04) 9.3.0"
 2824              		.section	.note.GNU-stack,"",@progbits
GAS LISTING /tmp/cctnN18m.s 			page 12


DEFINED SYMBOLS
                            *ABS*:0000000000000000 Scheduler.cpp
     /tmp/cctnN18m.s:9      .text:0000000000000000 _ZN9SchedulernwEm
     /tmp/cctnN18m.s:13     .text:0000000000000000 .L0 
     /tmp/cctnN18m.s:15     .text:0000000000000000 .L0 
     /tmp/cctnN18m.s:16     .text:0000000000000004 .L0 
     /tmp/cctnN18m.s:19     .text:000000000000000c .L0 
     /tmp/cctnN18m.s:20     .text:000000000000000c .L0 
     /tmp/cctnN18m.s:22     .text:0000000000000010 .L0 
     /tmp/cctnN18m.s:24     .text:0000000000000010 .L0 
     /tmp/cctnN18m.s:25     .text:0000000000000010 .L0 
     /tmp/cctnN18m.s:28     .text:0000000000000018 .L0 
     /tmp/cctnN18m.s:29     .text:000000000000001c .L0 
     /tmp/cctnN18m.s:31     .text:0000000000000020 .L0 
     /tmp/cctnN18m.s:32     .text:0000000000000020 .L0 
     /tmp/cctnN18m.s:34     .text:0000000000000024 .L0 
     /tmp/cctnN18m.s:36     .text:0000000000000028 .L0 
     /tmp/cctnN18m.s:42     .text:0000000000000028 _ZN9SchedulerdlEPv
     /tmp/cctnN18m.s:45     .text:0000000000000028 .L0 
     /tmp/cctnN18m.s:47     .text:0000000000000028 .L0 
     /tmp/cctnN18m.s:48     .text:000000000000002c .L0 
     /tmp/cctnN18m.s:51     .text:0000000000000034 .L0 
     /tmp/cctnN18m.s:52     .text:0000000000000034 .L0 
     /tmp/cctnN18m.s:54     .text:0000000000000038 .L0 
     /tmp/cctnN18m.s:56     .text:0000000000000038 .L0 
     /tmp/cctnN18m.s:57     .text:0000000000000038 .L0 
     /tmp/cctnN18m.s:60     .text:0000000000000040 .L0 
     /tmp/cctnN18m.s:61     .text:0000000000000044 .L0 
     /tmp/cctnN18m.s:63     .text:0000000000000048 .L0 
     /tmp/cctnN18m.s:64     .text:0000000000000048 .L0 
     /tmp/cctnN18m.s:66     .text:000000000000004c .L0 
     /tmp/cctnN18m.s:68     .text:0000000000000050 .L0 
     /tmp/cctnN18m.s:74     .text:0000000000000050 _ZN9Scheduler3putEP3PCB
     /tmp/cctnN18m.s:77     .text:0000000000000050 .L0 
     /tmp/cctnN18m.s:2821   .data.rel.local.DW.ref.__gxx_personality_v0:0000000000000000 DW.ref.__gxx_personality_v0
     /tmp/cctnN18m.s:81     .text:0000000000000050 .L0 
     /tmp/cctnN18m.s:82     .text:0000000000000054 .L0 
     /tmp/cctnN18m.s:87     .text:0000000000000064 .L0 
     /tmp/cctnN18m.s:88     .text:0000000000000064 .L0 
     /tmp/cctnN18m.s:89     .text:0000000000000064 .L0 
     /tmp/cctnN18m.s:90     .text:0000000000000064 .L0 
     /tmp/cctnN18m.s:92     .text:0000000000000068 .L0 
     /tmp/cctnN18m.s:99     .text:000000000000006c .L0 
     /tmp/cctnN18m.s:100    .text:000000000000006c .L0 
     /tmp/cctnN18m.s:101    .text:000000000000006c .L0 
     /tmp/cctnN18m.s:106    .text:0000000000000070 .L0 
     /tmp/cctnN18m.s:107    .text:0000000000000070 .L0 
     /tmp/cctnN18m.s:109    .text:0000000000000078 .L0 
     /tmp/cctnN18m.s:113    .text:000000000000007c .L0 
     /tmp/cctnN18m.s:114    .text:000000000000007c .L0 
     /tmp/cctnN18m.s:120    .text:0000000000000090 .L0 
     /tmp/cctnN18m.s:121    .text:0000000000000094 .L0 
     /tmp/cctnN18m.s:122    .text:0000000000000094 .L0 
     /tmp/cctnN18m.s:124    .text:0000000000000098 .L0 
     /tmp/cctnN18m.s:125    .text:0000000000000098 .L0 
     /tmp/cctnN18m.s:127    .text:000000000000009c .L0 
     /tmp/cctnN18m.s:130    .text:00000000000000a0 .L0 
GAS LISTING /tmp/cctnN18m.s 			page 13


     /tmp/cctnN18m.s:132    .text:00000000000000a4 .L0 
     /tmp/cctnN18m.s:136    .text:00000000000000a8 .L0 
     /tmp/cctnN18m.s:138    .text:00000000000000a8 .L0 
     /tmp/cctnN18m.s:139    .text:00000000000000a8 .L0 
     /tmp/cctnN18m.s:153    .text:00000000000000c0 .L0 
     /tmp/cctnN18m.s:160    .text:00000000000000c8 .L0 
     /tmp/cctnN18m.s:167    .text:00000000000000d8 .L0 
     /tmp/cctnN18m.s:175    .text:00000000000000f0 .L0 
     /tmp/cctnN18m.s:201    .text:00000000000000f0 _ZN9Scheduler3getEv
     /tmp/cctnN18m.s:204    .text:00000000000000f0 .L0 
     /tmp/cctnN18m.s:207    .text:00000000000000f0 .L0 
     /tmp/cctnN18m.s:208    .text:00000000000000f4 .L0 
     /tmp/cctnN18m.s:213    .text:0000000000000104 .L0 
     /tmp/cctnN18m.s:214    .text:0000000000000104 .L0 
     /tmp/cctnN18m.s:215    .text:0000000000000104 .L0 
     /tmp/cctnN18m.s:216    .text:0000000000000104 .L0 
     /tmp/cctnN18m.s:218    .text:0000000000000108 .L0 
     /tmp/cctnN18m.s:220    .text:0000000000000108 .L0 
     /tmp/cctnN18m.s:221    .text:0000000000000108 .L0 
     /tmp/cctnN18m.s:223    .text:0000000000000110 .L0 
     /tmp/cctnN18m.s:226    .text:0000000000000114 .L0 
     /tmp/cctnN18m.s:227    .text:0000000000000114 .L0 
     /tmp/cctnN18m.s:229    .text:000000000000011c .L0 
     /tmp/cctnN18m.s:236    .text:000000000000012c .L0 
     /tmp/cctnN18m.s:237    .text:000000000000012c .L0 
     /tmp/cctnN18m.s:241    .text:0000000000000138 .L0 
     /tmp/cctnN18m.s:242    .text:0000000000000138 .L0 
     /tmp/cctnN18m.s:244    .text:0000000000000140 .L0 
     /tmp/cctnN18m.s:245    .text:0000000000000140 .L0 
     /tmp/cctnN18m.s:247    .text:0000000000000144 .L0 
     /tmp/cctnN18m.s:248    .text:0000000000000144 .L0 
     /tmp/cctnN18m.s:250    .text:0000000000000148 .L0 
     /tmp/cctnN18m.s:253    .text:000000000000014c .L0 
     /tmp/cctnN18m.s:255    .text:0000000000000150 .L0 
     /tmp/cctnN18m.s:259    .text:0000000000000154 .L0 
     /tmp/cctnN18m.s:261    .text:0000000000000154 .L0 
     /tmp/cctnN18m.s:262    .text:0000000000000154 .L0 
     /tmp/cctnN18m.s:275    .text:000000000000016c .L0 
     /tmp/cctnN18m.s:282    .text:0000000000000174 .L0 
     /tmp/cctnN18m.s:288    .text:0000000000000184 .L0 
     /tmp/cctnN18m.s:296    .text:000000000000019c .L0 
     /tmp/cctnN18m.s:321    .text:000000000000019c _ZN9Scheduler7getSizeEv
     /tmp/cctnN18m.s:324    .text:000000000000019c .L0 
     /tmp/cctnN18m.s:327    .text:000000000000019c .L0 
     /tmp/cctnN18m.s:328    .text:00000000000001a0 .L0 
     /tmp/cctnN18m.s:333    .text:00000000000001b0 .L0 
     /tmp/cctnN18m.s:334    .text:00000000000001b0 .L0 
     /tmp/cctnN18m.s:335    .text:00000000000001b0 .L0 
     /tmp/cctnN18m.s:336    .text:00000000000001b0 .L0 
     /tmp/cctnN18m.s:338    .text:00000000000001b4 .L0 
     /tmp/cctnN18m.s:340    .text:00000000000001b4 .L0 
     /tmp/cctnN18m.s:341    .text:00000000000001b4 .L0 
     /tmp/cctnN18m.s:343    .text:00000000000001bc .L0 
     /tmp/cctnN18m.s:346    .text:00000000000001c0 .L0 
     /tmp/cctnN18m.s:347    .text:00000000000001c0 .L0 
     /tmp/cctnN18m.s:352    .text:00000000000001d0 .L0 
     /tmp/cctnN18m.s:353    .text:00000000000001d4 .L0 
GAS LISTING /tmp/cctnN18m.s 			page 14


     /tmp/cctnN18m.s:354    .text:00000000000001d4 .L0 
     /tmp/cctnN18m.s:356    .text:00000000000001d8 .L0 
     /tmp/cctnN18m.s:357    .text:00000000000001d8 .L0 
     /tmp/cctnN18m.s:359    .text:00000000000001dc .L0 
     /tmp/cctnN18m.s:361    .text:00000000000001e0 .L0 
     /tmp/cctnN18m.s:363    .text:00000000000001e4 .L0 
     /tmp/cctnN18m.s:366    .text:00000000000001e8 .L0 
     /tmp/cctnN18m.s:368    .text:00000000000001e8 .L0 
     /tmp/cctnN18m.s:369    .text:00000000000001e8 .L0 
     /tmp/cctnN18m.s:382    .text:0000000000000200 .L0 
     /tmp/cctnN18m.s:389    .text:0000000000000208 .L0 
     /tmp/cctnN18m.s:395    .text:0000000000000218 .L0 
     /tmp/cctnN18m.s:403    .text:0000000000000230 .L0 
     /tmp/cctnN18m.s:431    .bss:0000000000000000 _ZN9Scheduler9schedulerE
     /tmp/cctnN18m.s:428    .bss:0000000000000000 .LANCHOR0
     /tmp/cctnN18m.s:438    .text:0000000000000230 .L0 
     /tmp/cctnN18m.s:107    .text:0000000000000070 .L0 
     /tmp/cctnN18m.s:115    .text:0000000000000080 .L0 
     /tmp/cctnN18m.s:160    .text:00000000000000c8 .L0 
     /tmp/cctnN18m.s:221    .text:0000000000000108 .L0 
     /tmp/cctnN18m.s:227    .text:0000000000000114 .L0 
     /tmp/cctnN18m.s:282    .text:0000000000000174 .L0 
     /tmp/cctnN18m.s:341    .text:00000000000001b4 .L0 
     /tmp/cctnN18m.s:347    .text:00000000000001c0 .L0 
     /tmp/cctnN18m.s:389    .text:0000000000000208 .L0 
     /tmp/cctnN18m.s:135    .text:00000000000000a8 .L11
     /tmp/cctnN18m.s:111    .text:000000000000007c .L6
     /tmp/cctnN18m.s:258    .text:0000000000000154 .L18
     /tmp/cctnN18m.s:224    .text:0000000000000114 .L13
     /tmp/cctnN18m.s:365    .text:00000000000001e8 .L25
     /tmp/cctnN18m.s:344    .text:00000000000001c0 .L20
     /tmp/cctnN18m.s:116    .text:0000000000000088 .LEHB0
     /tmp/cctnN18m.s:75     .text:0000000000000050 .LFB19
     /tmp/cctnN18m.s:142    .text:00000000000000b4 .LEHE0
     /tmp/cctnN18m.s:147    .text:00000000000000c0 .LEHB1
     /tmp/cctnN18m.s:155    .text:00000000000000c8 .LEHE1
     /tmp/cctnN18m.s:163    .text:00000000000000d4 .L8
     /tmp/cctnN18m.s:171    .text:00000000000000e8 .LEHB2
     /tmp/cctnN18m.s:174    .text:00000000000000f0 .LEHE2
     /tmp/cctnN18m.s:230    .text:0000000000000120 .LEHB3
     /tmp/cctnN18m.s:202    .text:00000000000000f0 .LFB23
     /tmp/cctnN18m.s:265    .text:0000000000000160 .LEHE3
     /tmp/cctnN18m.s:270    .text:000000000000016c .LEHB4
     /tmp/cctnN18m.s:277    .text:0000000000000174 .LEHE4
     /tmp/cctnN18m.s:285    .text:0000000000000180 .L15
     /tmp/cctnN18m.s:292    .text:0000000000000194 .LEHB5
     /tmp/cctnN18m.s:295    .text:000000000000019c .LEHE5
     /tmp/cctnN18m.s:348    .text:00000000000001c8 .LEHB6
     /tmp/cctnN18m.s:322    .text:000000000000019c .LFB26
     /tmp/cctnN18m.s:372    .text:00000000000001f4 .LEHE6
     /tmp/cctnN18m.s:377    .text:0000000000000200 .LEHB7
     /tmp/cctnN18m.s:384    .text:0000000000000208 .LEHE7
     /tmp/cctnN18m.s:392    .text:0000000000000214 .L22
     /tmp/cctnN18m.s:399    .text:0000000000000228 .LEHB8
     /tmp/cctnN18m.s:402    .text:0000000000000230 .LEHE8
     /tmp/cctnN18m.s:1494   .debug_abbrev:0000000000000000 .Ldebug_abbrev0
     /tmp/cctnN18m.s:2709   .debug_str:00000000000002c5 .LASF86
GAS LISTING /tmp/cctnN18m.s 			page 15


     /tmp/cctnN18m.s:2685   .debug_str:000000000000022c .LASF87
     /tmp/cctnN18m.s:2777   .debug_str:0000000000000514 .LASF88
     /tmp/cctnN18m.s:5      .text:0000000000000000 .Ltext0
     /tmp/cctnN18m.s:434    .text:0000000000000230 .Letext0
     /tmp/cctnN18m.s:2605   .debug_line:0000000000000000 .Ldebug_line0
     /tmp/cctnN18m.s:2679   .debug_str:0000000000000205 .LASF0
     /tmp/cctnN18m.s:2697   .debug_str:000000000000027a .LASF1
     /tmp/cctnN18m.s:2737   .debug_str:000000000000042b .LASF2
     /tmp/cctnN18m.s:2741   .debug_str:0000000000000442 .LASF4
     /tmp/cctnN18m.s:2689   .debug_str:000000000000024b .LASF3
     /tmp/cctnN18m.s:2611   .debug_str:0000000000000015 .LASF5
     /tmp/cctnN18m.s:2723   .debug_str:00000000000003bd .LASF6
     /tmp/cctnN18m.s:2719   .debug_str:00000000000003a2 .LASF7
     /tmp/cctnN18m.s:2691   .debug_str:000000000000025d .LASF8
     /tmp/cctnN18m.s:2671   .debug_str:00000000000001c9 .LASF9
     /tmp/cctnN18m.s:2675   .debug_str:00000000000001f1 .LASF10
     /tmp/cctnN18m.s:2639   .debug_str:0000000000000108 .LASF11
     /tmp/cctnN18m.s:2663   .debug_str:00000000000001a5 .LASF12
     /tmp/cctnN18m.s:2645   .debug_str:0000000000000126 .LASF13
     /tmp/cctnN18m.s:2637   .debug_str:00000000000000f8 .LASF14
     /tmp/cctnN18m.s:2759   .debug_str:00000000000004c8 .LASF15
     /tmp/cctnN18m.s:2659   .debug_str:0000000000000183 .LASF16
     /tmp/cctnN18m.s:2755   .debug_str:0000000000000496 .LASF17
     /tmp/cctnN18m.s:2779   .debug_str:0000000000000537 .LASF28
     /tmp/cctnN18m.s:2787   .debug_str:0000000000000563 .LASF20
     /tmp/cctnN18m.s:2693   .debug_str:0000000000000270 .LASF18
     /tmp/cctnN18m.s:2641   .debug_str:0000000000000117 .LASF19
     /tmp/cctnN18m.s:2765   .debug_str:00000000000004e1 .LASF21
     /tmp/cctnN18m.s:2703   .debug_str:00000000000002a0 .LASF22
     /tmp/cctnN18m.s:2799   .debug_str:0000000000000593 .LASF38
     /tmp/cctnN18m.s:2785   .debug_str:000000000000055d .LASF24
     /tmp/cctnN18m.s:2647   .debug_str:0000000000000136 .LASF26
     /tmp/cctnN18m.s:2681   .debug_str:0000000000000212 .LASF23
     /tmp/cctnN18m.s:2749   .debug_str:000000000000046b .LASF29
     /tmp/cctnN18m.s:2695   .debug_str:0000000000000275 .LASF25
     /tmp/cctnN18m.s:2729   .debug_str:00000000000003d7 .LASF27
     /tmp/cctnN18m.s:2657   .debug_str:0000000000000175 .LASF30
     /tmp/cctnN18m.s:2727   .debug_str:00000000000003d0 .LASF44
     /tmp/cctnN18m.s:2623   .debug_str:0000000000000082 .LASF46
     /tmp/cctnN18m.s:2769   .debug_str:00000000000004ec .LASF89
     /tmp/cctnN18m.s:2635   .debug_str:00000000000000f2 .LASF31
     /tmp/cctnN18m.s:2751   .debug_str:0000000000000480 .LASF32
     /tmp/cctnN18m.s:2643   .debug_str:000000000000011c .LASF33
     /tmp/cctnN18m.s:2629   .debug_str:00000000000000ac .LASF34
     /tmp/cctnN18m.s:2721   .debug_str:00000000000003b5 .LASF35
     /tmp/cctnN18m.s:2763   .debug_str:00000000000004d9 .LASF36
     /tmp/cctnN18m.s:2677   .debug_str:00000000000001ff .LASF37
     /tmp/cctnN18m.s:2783   .debug_str:0000000000000545 .LASF39
     /tmp/cctnN18m.s:2713   .debug_str:000000000000037a .LASF90
     /tmp/cctnN18m.s:2791   .debug_str:0000000000000574 .LASF40
     /tmp/cctnN18m.s:2807   .debug_str:00000000000005cc .LASF41
     /tmp/cctnN18m.s:2803   .debug_str:00000000000005b2 .LASF42
     /tmp/cctnN18m.s:2773   .debug_str:00000000000004fa .LASF43
     /tmp/cctnN18m.s:2655   .debug_str:000000000000016c .LASF91
     /tmp/cctnN18m.s:2619   .debug_str:0000000000000047 .LASF92
     /tmp/cctnN18m.s:2699   .debug_str:000000000000028d .LASF45
     /tmp/cctnN18m.s:2717   .debug_str:0000000000000392 .LASF47
GAS LISTING /tmp/cctnN18m.s 			page 16


     /tmp/cctnN18m.s:2771   .debug_str:00000000000004f2 .LASF48
     /tmp/cctnN18m.s:2793   .debug_str:0000000000000579 .LASF49
     /tmp/cctnN18m.s:2745   .debug_str:0000000000000451 .LASF50
     /tmp/cctnN18m.s:2701   .debug_str:0000000000000293 .LASF51
     /tmp/cctnN18m.s:2705   .debug_str:00000000000002a5 .LASF52
     /tmp/cctnN18m.s:2809   .debug_str:00000000000005d8 .LASF53
     /tmp/cctnN18m.s:2661   .debug_str:0000000000000199 .LASF54
     /tmp/cctnN18m.s:2609   .debug_str:0000000000000005 .LASF55
     /tmp/cctnN18m.s:2687   .debug_str:000000000000023e .LASF56
     /tmp/cctnN18m.s:2747   .debug_str:0000000000000462 .LASF57
     /tmp/cctnN18m.s:2711   .debug_str:0000000000000367 .LASF58
     /tmp/cctnN18m.s:2739   .debug_str:0000000000000439 .LASF59
     /tmp/cctnN18m.s:2757   .debug_str:00000000000004ac .LASF60
     /tmp/cctnN18m.s:2753   .debug_str:0000000000000488 .LASF61
     /tmp/cctnN18m.s:2725   .debug_str:00000000000003c4 .LASF62
     /tmp/cctnN18m.s:2653   .debug_str:000000000000015c .LASF63
     /tmp/cctnN18m.s:2775   .debug_str:000000000000050a .LASF64
     /tmp/cctnN18m.s:2651   .debug_str:000000000000014e .LASF65
     /tmp/cctnN18m.s:2621   .debug_str:000000000000005a .LASF67
     /tmp/cctnN18m.s:2683   .debug_str:0000000000000217 .LASF66
     /tmp/cctnN18m.s:2633   .debug_str:00000000000000c6 .LASF68
     /tmp/cctnN18m.s:2797   .debug_str:000000000000058c .LASF93
     /tmp/cctnN18m.s:2631   .debug_str:00000000000000b5 .LASF94
     /tmp/cctnN18m.s:2607   .debug_str:0000000000000000 .LASF69
     /tmp/cctnN18m.s:2761   .debug_str:00000000000004d4 .LASF70
     /tmp/cctnN18m.s:2707   .debug_str:00000000000002bd .LASF71
     /tmp/cctnN18m.s:2649   .debug_str:0000000000000148 .LASF72
     /tmp/cctnN18m.s:2781   .debug_str:000000000000053d .LASF73
     /tmp/cctnN18m.s:2625   .debug_str:0000000000000090 .LASF74
     /tmp/cctnN18m.s:2669   .debug_str:00000000000001bf .LASF75
     /tmp/cctnN18m.s:2615   .debug_str:0000000000000026 .LASF95
     /tmp/cctnN18m.s:2805   .debug_str:00000000000005b8 .LASF96
     /tmp/cctnN18m.s:2627   .debug_str:000000000000009a .LASF76
     /tmp/cctnN18m.s:2715   .debug_str:000000000000037f .LASF77
     /tmp/cctnN18m.s:2743   .debug_str:0000000000000449 .LASF78
     /tmp/cctnN18m.s:2733   .debug_str:0000000000000401 .LASF97
     /tmp/cctnN18m.s:2617   .debug_str:000000000000003e .LASF79
     /tmp/cctnN18m.s:2613   .debug_str:000000000000001c .LASF98
     /tmp/cctnN18m.s:2813   .debug_str:00000000000005f0 .LASF99
     /tmp/cctnN18m.s:2767   .debug_str:00000000000004e7 .LASF80
     /tmp/cctnN18m.s:2731   .debug_str:00000000000003e8 .LASF100
     /tmp/cctnN18m.s:404    .text:0000000000000230 .LFE26
     /tmp/cctnN18m.s:378    .text:0000000000000200 .LBB21
     /tmp/cctnN18m.s:387    .text:0000000000000208 .LBE21
     /tmp/cctnN18m.s:2472   .debug_loc:0000000000000000 .LLST8
     /tmp/cctnN18m.s:383    .text:0000000000000208 .LVL32
     /tmp/cctnN18m.s:350    .text:00000000000001d0 .LVL29
     /tmp/cctnN18m.s:371    .text:00000000000001f4 .LVL30
     /tmp/cctnN18m.s:397    .text:0000000000000224 .LVL34
     /tmp/cctnN18m.s:401    .text:0000000000000230 .LVL35
     /tmp/cctnN18m.s:43     .text:0000000000000028 .LFB25
     /tmp/cctnN18m.s:69     .text:0000000000000050 .LFE25
     /tmp/cctnN18m.s:2483   .debug_loc:0000000000000036 .LLST1
     /tmp/cctnN18m.s:58     .text:0000000000000040 .LVL3
     /tmp/cctnN18m.s:10     .text:0000000000000000 .LFB24
     /tmp/cctnN18m.s:37     .text:0000000000000028 .LFE24
     /tmp/cctnN18m.s:2497   .debug_loc:000000000000006f .LLST0
GAS LISTING /tmp/cctnN18m.s 			page 17


     /tmp/cctnN18m.s:26     .text:0000000000000018 .LVL1
     /tmp/cctnN18m.s:297    .text:000000000000019c .LFE23
     /tmp/cctnN18m.s:2511   .debug_loc:00000000000000a8 .LLST6
     /tmp/cctnN18m.s:271    .text:000000000000016c .LBB18
     /tmp/cctnN18m.s:280    .text:0000000000000174 .LBE18
     /tmp/cctnN18m.s:2522   .debug_loc:00000000000000de .LLST7
     /tmp/cctnN18m.s:276    .text:0000000000000174 .LVL25
     /tmp/cctnN18m.s:232    .text:0000000000000128 .LVL18
     /tmp/cctnN18m.s:239    .text:0000000000000138 .LVL20
     /tmp/cctnN18m.s:264    .text:0000000000000160 .LVL23
     /tmp/cctnN18m.s:290    .text:0000000000000190 .LVL27
     /tmp/cctnN18m.s:294    .text:000000000000019c .LVL28
     /tmp/cctnN18m.s:176    .text:00000000000000f0 .LFE19
     /tmp/cctnN18m.s:2533   .debug_loc:0000000000000114 .LLST2
     /tmp/cctnN18m.s:96     .text:000000000000006c .LBB13
     /tmp/cctnN18m.s:104    .text:0000000000000070 .LBE13
     /tmp/cctnN18m.s:2562   .debug_loc:0000000000000189 .LLST3
     /tmp/cctnN18m.s:2570   .debug_loc:00000000000001ad .LLST4
     /tmp/cctnN18m.s:148    .text:00000000000000c0 .LBB15
     /tmp/cctnN18m.s:158    .text:00000000000000c8 .LBE15
     /tmp/cctnN18m.s:2577   .debug_loc:00000000000001d0 .LLST5
     /tmp/cctnN18m.s:154    .text:00000000000000c8 .LVL13
     /tmp/cctnN18m.s:118    .text:0000000000000090 .LVL8
     /tmp/cctnN18m.s:141    .text:00000000000000b4 .LVL11
     /tmp/cctnN18m.s:169    .text:00000000000000e4 .LVL16
     /tmp/cctnN18m.s:173    .text:00000000000000f0 .LVL17
     /tmp/cctnN18m.s:2665   .debug_str:00000000000001b4 .LASF81
     /tmp/cctnN18m.s:2735   .debug_str:0000000000000419 .LASF101
     /tmp/cctnN18m.s:2801   .debug_str:00000000000005a3 .LASF102
     /tmp/cctnN18m.s:2673   .debug_str:00000000000001d9 .LASF103
     /tmp/cctnN18m.s:2811   .debug_str:00000000000005e5 .LASF82
     /tmp/cctnN18m.s:2667   .debug_str:00000000000001b9 .LASF84
     /tmp/cctnN18m.s:2789   .debug_str:0000000000000568 .LASF83
     /tmp/cctnN18m.s:2795   .debug_str:0000000000000584 .LASF85
     /tmp/cctnN18m.s:376    .text:0000000000000200 .LVL31
     /tmp/cctnN18m.s:391    .text:0000000000000214 .LVL33
     /tmp/cctnN18m.s:46     .text:0000000000000028 .LVL2
     /tmp/cctnN18m.s:14     .text:0000000000000000 .LVL0
     /tmp/cctnN18m.s:234    .text:000000000000012c .LVL19
     /tmp/cctnN18m.s:251    .text:0000000000000148 .LVL21
     /tmp/cctnN18m.s:257    .text:0000000000000154 .LVL22
     /tmp/cctnN18m.s:269    .text:000000000000016c .LVL24
     /tmp/cctnN18m.s:284    .text:0000000000000180 .LVL26
     /tmp/cctnN18m.s:80     .text:0000000000000050 .LVL4
     /tmp/cctnN18m.s:110    .text:000000000000007c .LVL7
     /tmp/cctnN18m.s:128    .text:000000000000009c .LVL9
     /tmp/cctnN18m.s:134    .text:00000000000000a8 .LVL10
     /tmp/cctnN18m.s:165    .text:00000000000000d8 .LVL15
     /tmp/cctnN18m.s:95     .text:000000000000006c .LVL5
     /tmp/cctnN18m.s:102    .text:0000000000000070 .LVL6
     /tmp/cctnN18m.s:146    .text:00000000000000c0 .LVL12
     /tmp/cctnN18m.s:162    .text:00000000000000d4 .LVL14
     /tmp/cctnN18m.s:439    .debug_info:0000000000000000 .Ldebug_info0
     /tmp/cctnN18m.s:179    .gcc_except_table:0000000000000000 .LLSDA19
     /tmp/cctnN18m.s:299    .gcc_except_table:000000000000002b .LLSDA23
     /tmp/cctnN18m.s:406    .gcc_except_table:0000000000000056 .LLSDA26

GAS LISTING /tmp/cctnN18m.s 			page 18


UNDEFINED SYMBOLS
_Z7kmallocm
_Z5kfreePv
_ZN5Queue4pushEP3PCB
_ZN5QueueC1Ev
_Unwind_Resume
__gxx_personality_v0
_ZN5Queue5frontEv
_ZN5Queue3popEv
_ZN5Queue4sizeEv
