GAS LISTING /tmp/ccZbMB9B.s 			page 1


   1              		.file	"Scheduler.cpp"
   2              		.option pic
   3              		.option norelax
   4              		.text
   5              	.Ltext0:
   6              		.align	2
   7              		.globl	_ZN9SchedulernwEm
   9              	_ZN9SchedulernwEm:
  10              	.LFB21:
  11              		.file 1 "src/Scheduler.cpp"
   1:src/Scheduler.cpp **** //
   2:src/Scheduler.cpp **** // Created by os on 4/27/22.
   3:src/Scheduler.cpp **** //
   4:src/Scheduler.cpp **** 
   5:src/Scheduler.cpp **** #include "../h/Scheduler.hpp"
   6:src/Scheduler.cpp **** #include "../h/PCB.hpp"
   7:src/Scheduler.cpp **** 
   8:src/Scheduler.cpp **** PCB* Scheduler::schedulerPCBHead = 0;
   9:src/Scheduler.cpp **** PCB* Scheduler::schedulerPCBTail = 0;
  10:src/Scheduler.cpp **** 
  11:src/Scheduler.cpp **** 
  12:src/Scheduler.cpp **** void *Scheduler::operator new(size_t size)
  13:src/Scheduler.cpp **** {
  12              		.loc 1 13 1
  13              		.cfi_startproc
  14              	.LVL0:
  15 0000 130101FF 		addi	sp,sp,-16
  16              		.cfi_def_cfa_offset 16
  17 0004 23341100 		sd	ra,8(sp)
  18 0008 23308100 		sd	s0,0(sp)
  19              		.cfi_offset 1, -8
  20              		.cfi_offset 8, -16
  21 000c 13040101 		addi	s0,sp,16
  22              		.cfi_def_cfa 8, 0
  14:src/Scheduler.cpp ****     return kmalloc(size);
  23              		.loc 1 14 5
  24              		.loc 1 14 19 is_stmt 0
  25 0010 97000000 		call	_Z7kmallocm@plt
  25      E7800000 
  26              	.LVL1:
  15:src/Scheduler.cpp **** }
  27              		.loc 1 15 1
  28 0018 83308100 		ld	ra,8(sp)
  29              		.cfi_restore 1
  30 001c 03340100 		ld	s0,0(sp)
  31              		.cfi_restore 8
  32              		.cfi_def_cfa 2, 16
  33 0020 13010101 		addi	sp,sp,16
  34              		.cfi_def_cfa_offset 0
  35 0024 67800000 		jr	ra
  36              		.cfi_endproc
  37              	.LFE21:
  39              		.align	2
  40              		.globl	_ZN9SchedulerdlEPv
  42              	_ZN9SchedulerdlEPv:
  43              	.LFB22:
  16:src/Scheduler.cpp **** 
GAS LISTING /tmp/ccZbMB9B.s 			page 2


  17:src/Scheduler.cpp **** void Scheduler::operator delete(void *p)
  18:src/Scheduler.cpp **** {
  44              		.loc 1 18 1 is_stmt 1
  45              		.cfi_startproc
  46              	.LVL2:
  47 0028 130101FF 		addi	sp,sp,-16
  48              		.cfi_def_cfa_offset 16
  49 002c 23341100 		sd	ra,8(sp)
  50 0030 23308100 		sd	s0,0(sp)
  51              		.cfi_offset 1, -8
  52              		.cfi_offset 8, -16
  53 0034 13040101 		addi	s0,sp,16
  54              		.cfi_def_cfa 8, 0
  19:src/Scheduler.cpp ****     kfree(p);
  55              		.loc 1 19 5
  56              		.loc 1 19 10 is_stmt 0
  57 0038 97000000 		call	_Z5kfreePv@plt
  57      E7800000 
  58              	.LVL3:
  20:src/Scheduler.cpp **** }
  59              		.loc 1 20 1
  60 0040 83308100 		ld	ra,8(sp)
  61              		.cfi_restore 1
  62 0044 03340100 		ld	s0,0(sp)
  63              		.cfi_restore 8
  64              		.cfi_def_cfa 2, 16
  65 0048 13010101 		addi	sp,sp,16
  66              		.cfi_def_cfa_offset 0
  67 004c 67800000 		jr	ra
  68              		.cfi_endproc
  69              	.LFE22:
  71              		.align	2
  72              		.globl	_ZN9Scheduler7getSizeEv
  74              	_ZN9Scheduler7getSizeEv:
  75              	.LFB23:
  21:src/Scheduler.cpp **** 
  22:src/Scheduler.cpp **** int Scheduler::getSize()
  23:src/Scheduler.cpp **** {
  76              		.loc 1 23 1 is_stmt 1
  77              		.cfi_startproc
  78 0050 130101FF 		addi	sp,sp,-16
  79              		.cfi_def_cfa_offset 16
  80 0054 23348100 		sd	s0,8(sp)
  81              		.cfi_offset 8, -8
  82 0058 13040101 		addi	s0,sp,16
  83              		.cfi_def_cfa 8, 0
  24:src/Scheduler.cpp ****     uint64 sz = 0;
  84              		.loc 1 24 5
  85              	.LVL4:
  25:src/Scheduler.cpp ****     PCB* curr = schedulerPCBHead;
  86              		.loc 1 25 5
  87              		.loc 1 25 10 is_stmt 0
  88 005c 97070000 		ld	a5,.LANCHOR0
  88      83B70700 
  89              	.LVL5:
  24:src/Scheduler.cpp ****     uint64 sz = 0;
  90              		.loc 1 24 12
GAS LISTING /tmp/ccZbMB9B.s 			page 3


  91 0064 13050000 		li	a0,0
  92              	.LVL6:
  93              	.L7:
  26:src/Scheduler.cpp ****     while(curr != 0)
  94              		.loc 1 26 5 is_stmt 1
  95              		.loc 1 26 16
  96 0068 63880700 		beqz	a5,.L6
  27:src/Scheduler.cpp ****     {
  28:src/Scheduler.cpp ****         sz++;
  97              		.loc 1 28 9
  98              		.loc 1 28 11 is_stmt 0
  99 006c 13051500 		addi	a0,a0,1
 100              	.LVL7:
  29:src/Scheduler.cpp ****         curr = curr->nextPCB;
 101              		.loc 1 29 9 is_stmt 1
 102              		.loc 1 29 14 is_stmt 0
 103 0070 83B78700 		ld	a5,8(a5)
 104              	.LVL8:
  26:src/Scheduler.cpp ****     while(curr != 0)
 105              		.loc 1 26 5
 106 0074 6FF05FFF 		j	.L7
 107              	.L6:
  30:src/Scheduler.cpp ****     }
  31:src/Scheduler.cpp ****     return sz;
 108              		.loc 1 31 5 is_stmt 1
  32:src/Scheduler.cpp **** }
 109              		.loc 1 32 1 is_stmt 0
 110 0078 1B050500 		sext.w	a0,a0
 111              	.LVL9:
 112 007c 03348100 		ld	s0,8(sp)
 113              		.cfi_restore 8
 114              		.cfi_def_cfa 2, 16
 115 0080 13010101 		addi	sp,sp,16
 116              		.cfi_def_cfa_offset 0
 117 0084 67800000 		jr	ra
 118              		.cfi_endproc
 119              	.LFE23:
 121              		.align	2
 122              		.globl	_ZN9Scheduler3putEP3PCB
 124              	_ZN9Scheduler3putEP3PCB:
 125              	.LFB24:
  33:src/Scheduler.cpp **** 
  34:src/Scheduler.cpp **** void Scheduler::put(PCB *pcb)
  35:src/Scheduler.cpp **** {
 126              		.loc 1 35 1 is_stmt 1
 127              		.cfi_startproc
 128              	.LVL10:
 129 0088 130101FF 		addi	sp,sp,-16
 130              		.cfi_def_cfa_offset 16
 131 008c 23348100 		sd	s0,8(sp)
 132              		.cfi_offset 8, -8
 133 0090 13040101 		addi	s0,sp,16
 134              		.cfi_def_cfa 8, 0
  36:src/Scheduler.cpp ****     pcb->setState(PCB::READY);
 135              		.loc 1 36 5
 136              	.LVL11:
 137              	.LBB4:
GAS LISTING /tmp/ccZbMB9B.s 			page 4


 138              	.LBB5:
 139              		.file 2 "src/../h/PCB.hpp"
   1:src/../h/PCB.hpp **** //
   2:src/../h/PCB.hpp **** // Created by os on 4/27/22.
   3:src/../h/PCB.hpp **** //
   4:src/../h/PCB.hpp **** 
   5:src/../h/PCB.hpp **** #ifndef PROJECT_BASE_V1_0_PCB_HPP
   6:src/../h/PCB.hpp **** #define PROJECT_BASE_V1_0_PCB_HPP
   7:src/../h/PCB.hpp **** 
   8:src/../h/PCB.hpp **** #include "../lib/hw.h"
   9:src/../h/PCB.hpp **** #include "Scheduler.hpp"
  10:src/../h/PCB.hpp **** #include "Riscv.hpp"
  11:src/../h/PCB.hpp **** 
  12:src/../h/PCB.hpp **** class PCB
  13:src/../h/PCB.hpp **** {
  14:src/../h/PCB.hpp **** public:
  15:src/../h/PCB.hpp ****     using Body = void (*)(void*);
  16:src/../h/PCB.hpp **** 
  17:src/../h/PCB.hpp ****     PCB(Body body,  void* args, void* stack_space, uint64 timeSlice);
  18:src/../h/PCB.hpp ****     ~PCB();
  19:src/../h/PCB.hpp **** 
  20:src/../h/PCB.hpp ****     void start();
  21:src/../h/PCB.hpp ****     static void dispatch();
  22:src/../h/PCB.hpp ****     static void sleep(time_t);
  23:src/../h/PCB.hpp **** 
  24:src/../h/PCB.hpp ****     static PCB* running;
  25:src/../h/PCB.hpp ****     static PCB* exitingPCB;
  26:src/../h/PCB.hpp **** 
  27:src/../h/PCB.hpp ****     static uint64 timeSliceCounter;
  28:src/../h/PCB.hpp ****     uint64 getTimeSlice() { return timeSlice;}
  29:src/../h/PCB.hpp **** 
  30:src/../h/PCB.hpp ****     void* operator new(size_t size);
  31:src/../h/PCB.hpp ****     void operator delete(void *p);
  32:src/../h/PCB.hpp **** 
  33:src/../h/PCB.hpp ****     enum State{READY, RUNNING, SUSPENDED, FINISHED, EXITING, SLEEPING};
  34:src/../h/PCB.hpp ****     State getState() {return state;}
  35:src/../h/PCB.hpp ****     void setState(State s) {state = s;}
 140              		.loc 2 35 29
 141              		.loc 2 35 35 is_stmt 0
 142 0094 232C0502 		sw	zero,56(a0)
 143              	.LVL12:
 144              	.LBE5:
 145              	.LBE4:
  37:src/Scheduler.cpp ****     pcb->nextPCB = 0;
 146              		.loc 1 37 5 is_stmt 1
 147              		.loc 1 37 18 is_stmt 0
 148 0098 23340500 		sd	zero,8(a0)
  38:src/Scheduler.cpp ****     if(schedulerPCBHead == 0)
 149              		.loc 1 38 5 is_stmt 1
 150              		.loc 1 38 25 is_stmt 0
 151 009c 97070000 		ld	a5,.LANCHOR0
 151      83B70700 
 152              		.loc 1 38 5
 153 00a4 63820702 		beqz	a5,.L13
  39:src/Scheduler.cpp ****         schedulerPCBHead = schedulerPCBTail = pcb;
  40:src/Scheduler.cpp ****     else
  41:src/Scheduler.cpp ****     {
GAS LISTING /tmp/ccZbMB9B.s 			page 5


  42:src/Scheduler.cpp ****         schedulerPCBTail->nextPCB = pcb;
 154              		.loc 1 42 9 is_stmt 1
 155              		.loc 1 42 27 is_stmt 0
 156 00a8 97070000 		lla	a5,.LANCHOR0
 156      93870700 
 157 00b0 03B78700 		ld	a4,8(a5)
 158              		.loc 1 42 35
 159 00b4 2334A700 		sd	a0,8(a4)
  43:src/Scheduler.cpp ****         schedulerPCBTail = pcb;
 160              		.loc 1 43 9 is_stmt 1
 161              		.loc 1 43 26 is_stmt 0
 162 00b8 23B4A700 		sd	a0,8(a5)
 163              	.L9:
  44:src/Scheduler.cpp ****     }
  45:src/Scheduler.cpp **** }
 164              		.loc 1 45 1
 165 00bc 03348100 		ld	s0,8(sp)
 166              		.cfi_remember_state
 167              		.cfi_restore 8
 168              		.cfi_def_cfa 2, 16
 169 00c0 13010101 		addi	sp,sp,16
 170              		.cfi_def_cfa_offset 0
 171 00c4 67800000 		jr	ra
 172              	.L13:
 173              		.cfi_restore_state
  39:src/Scheduler.cpp ****     else
 174              		.loc 1 39 9 is_stmt 1
  39:src/Scheduler.cpp ****     else
 175              		.loc 1 39 45 is_stmt 0
 176 00c8 97070000 		lla	a5,.LANCHOR0
 176      93870700 
 177 00d0 23B4A700 		sd	a0,8(a5)
  39:src/Scheduler.cpp ****     else
 178              		.loc 1 39 26
 179 00d4 23B0A700 		sd	a0,0(a5)
 180 00d8 6FF05FFE 		j	.L9
 181              		.cfi_endproc
 182              	.LFE24:
 184              		.align	2
 185              		.globl	_ZN9Scheduler3getEv
 187              	_ZN9Scheduler3getEv:
 188              	.LFB25:
  46:src/Scheduler.cpp **** 
  47:src/Scheduler.cpp **** PCB *Scheduler::get()
  48:src/Scheduler.cpp **** {
 189              		.loc 1 48 1 is_stmt 1
 190              		.cfi_startproc
 191 00dc 130101FF 		addi	sp,sp,-16
 192              		.cfi_def_cfa_offset 16
 193 00e0 23348100 		sd	s0,8(sp)
 194              		.cfi_offset 8, -8
 195 00e4 13040101 		addi	s0,sp,16
 196              		.cfi_def_cfa 8, 0
  49:src/Scheduler.cpp ****     if(schedulerPCBHead == 0)
 197              		.loc 1 49 5
 198              		.loc 1 49 25 is_stmt 0
 199 00e8 17050000 		ld	a0,.LANCHOR0
GAS LISTING /tmp/ccZbMB9B.s 			page 6


 199      03350500 
 200              		.loc 1 49 5
 201 00f0 630C0500 		beqz	a0,.L14
  50:src/Scheduler.cpp ****         return 0;
  51:src/Scheduler.cpp ****     PCB* retval = schedulerPCBHead;
 202              		.loc 1 51 5 is_stmt 1
 203              	.LVL13:
  52:src/Scheduler.cpp ****     if(schedulerPCBHead->nextPCB == 0)
 204              		.loc 1 52 5
 205              		.loc 1 52 26 is_stmt 0
 206 00f4 83378500 		ld	a5,8(a0)
 207              		.loc 1 52 5
 208 00f8 638E0700 		beqz	a5,.L19
  53:src/Scheduler.cpp ****         schedulerPCBHead = schedulerPCBTail = 0;
  54:src/Scheduler.cpp ****     else
  55:src/Scheduler.cpp ****         schedulerPCBHead = schedulerPCBHead->nextPCB;
 209              		.loc 1 55 9 is_stmt 1
 210              		.loc 1 55 26 is_stmt 0
 211 00fc 17070000 		sd	a5,.LANCHOR0,a4
 211      2330F700 
 212              	.L17:
  56:src/Scheduler.cpp ****     retval->nextPCB = 0;
 213              		.loc 1 56 5 is_stmt 1
 214              		.loc 1 56 21 is_stmt 0
 215 0104 23340500 		sd	zero,8(a0)
  57:src/Scheduler.cpp ****     return retval;
 216              		.loc 1 57 5 is_stmt 1
 217              	.LVL14:
 218              	.L14:
  58:src/Scheduler.cpp **** }
 219              		.loc 1 58 1 is_stmt 0
 220 0108 03348100 		ld	s0,8(sp)
 221              		.cfi_remember_state
 222              		.cfi_restore 8
 223              		.cfi_def_cfa 2, 16
 224 010c 13010101 		addi	sp,sp,16
 225              		.cfi_def_cfa_offset 0
 226 0110 67800000 		jr	ra
 227              	.LVL15:
 228              	.L19:
 229              		.cfi_restore_state
  53:src/Scheduler.cpp ****     else
 230              		.loc 1 53 9 is_stmt 1
  53:src/Scheduler.cpp ****     else
 231              		.loc 1 53 45 is_stmt 0
 232 0114 97070000 		lla	a5,.LANCHOR0
 232      93870700 
 233 011c 23B40700 		sd	zero,8(a5)
  53:src/Scheduler.cpp ****     else
 234              		.loc 1 53 26
 235 0120 23B00700 		sd	zero,0(a5)
 236 0124 6FF01FFE 		j	.L17
 237              		.cfi_endproc
 238              	.LFE25:
 240              		.globl	_ZN9Scheduler16schedulerPCBTailE
 241              		.globl	_ZN9Scheduler16schedulerPCBHeadE
 242              		.bss
GAS LISTING /tmp/ccZbMB9B.s 			page 7


 243              		.align	3
 244              		.set	.LANCHOR0,. + 0
 247              	_ZN9Scheduler16schedulerPCBHeadE:
 248 0000 00000000 		.zero	8
 248      00000000 
 251              	_ZN9Scheduler16schedulerPCBTailE:
 252 0008 00000000 		.zero	8
 252      00000000 
 253              		.text
 254              	.Letext0:
 255              		.file 3 "src/../h/../lib/hw.h"
 256              		.file 4 "src/../h/Queue.hpp"
 257              		.file 5 "src/../h/Scheduler.hpp"
 258              		.file 6 "src/../h/MemoryAllocator.hpp"
GAS LISTING /tmp/ccZbMB9B.s 			page 8


DEFINED SYMBOLS
                            *ABS*:0000000000000000 Scheduler.cpp
     /tmp/ccZbMB9B.s:9      .text:0000000000000000 _ZN9SchedulernwEm
     /tmp/ccZbMB9B.s:13     .text:0000000000000000 .L0 
     /tmp/ccZbMB9B.s:15     .text:0000000000000000 .L0 
     /tmp/ccZbMB9B.s:16     .text:0000000000000004 .L0 
     /tmp/ccZbMB9B.s:19     .text:000000000000000c .L0 
     /tmp/ccZbMB9B.s:20     .text:000000000000000c .L0 
     /tmp/ccZbMB9B.s:22     .text:0000000000000010 .L0 
     /tmp/ccZbMB9B.s:24     .text:0000000000000010 .L0 
     /tmp/ccZbMB9B.s:25     .text:0000000000000010 .L0 
     /tmp/ccZbMB9B.s:28     .text:0000000000000018 .L0 
     /tmp/ccZbMB9B.s:29     .text:000000000000001c .L0 
     /tmp/ccZbMB9B.s:31     .text:0000000000000020 .L0 
     /tmp/ccZbMB9B.s:32     .text:0000000000000020 .L0 
     /tmp/ccZbMB9B.s:34     .text:0000000000000024 .L0 
     /tmp/ccZbMB9B.s:36     .text:0000000000000028 .L0 
     /tmp/ccZbMB9B.s:42     .text:0000000000000028 _ZN9SchedulerdlEPv
     /tmp/ccZbMB9B.s:45     .text:0000000000000028 .L0 
     /tmp/ccZbMB9B.s:47     .text:0000000000000028 .L0 
     /tmp/ccZbMB9B.s:48     .text:000000000000002c .L0 
     /tmp/ccZbMB9B.s:51     .text:0000000000000034 .L0 
     /tmp/ccZbMB9B.s:52     .text:0000000000000034 .L0 
     /tmp/ccZbMB9B.s:54     .text:0000000000000038 .L0 
     /tmp/ccZbMB9B.s:56     .text:0000000000000038 .L0 
     /tmp/ccZbMB9B.s:57     .text:0000000000000038 .L0 
     /tmp/ccZbMB9B.s:60     .text:0000000000000040 .L0 
     /tmp/ccZbMB9B.s:61     .text:0000000000000044 .L0 
     /tmp/ccZbMB9B.s:63     .text:0000000000000048 .L0 
     /tmp/ccZbMB9B.s:64     .text:0000000000000048 .L0 
     /tmp/ccZbMB9B.s:66     .text:000000000000004c .L0 
     /tmp/ccZbMB9B.s:68     .text:0000000000000050 .L0 
     /tmp/ccZbMB9B.s:74     .text:0000000000000050 _ZN9Scheduler7getSizeEv
     /tmp/ccZbMB9B.s:77     .text:0000000000000050 .L0 
     /tmp/ccZbMB9B.s:78     .text:0000000000000050 .L0 
     /tmp/ccZbMB9B.s:79     .text:0000000000000054 .L0 
     /tmp/ccZbMB9B.s:81     .text:0000000000000058 .L0 
     /tmp/ccZbMB9B.s:83     .text:000000000000005c .L0 
     /tmp/ccZbMB9B.s:86     .text:000000000000005c .L0 
     /tmp/ccZbMB9B.s:87     .text:000000000000005c .L0 
     /tmp/ccZbMB9B.s:88     .text:000000000000005c .L0 
     /tmp/ccZbMB9B.s:91     .text:0000000000000064 .L0 
     /tmp/ccZbMB9B.s:95     .text:0000000000000068 .L0 
     /tmp/ccZbMB9B.s:96     .text:0000000000000068 .L0 
     /tmp/ccZbMB9B.s:98     .text:000000000000006c .L0 
     /tmp/ccZbMB9B.s:99     .text:000000000000006c .L0 
     /tmp/ccZbMB9B.s:102    .text:0000000000000070 .L0 
     /tmp/ccZbMB9B.s:103    .text:0000000000000070 .L0 
     /tmp/ccZbMB9B.s:106    .text:0000000000000074 .L0 
     /tmp/ccZbMB9B.s:109    .text:0000000000000078 .L0 
     /tmp/ccZbMB9B.s:110    .text:0000000000000078 .L0 
     /tmp/ccZbMB9B.s:113    .text:0000000000000080 .L0 
     /tmp/ccZbMB9B.s:114    .text:0000000000000080 .L0 
     /tmp/ccZbMB9B.s:116    .text:0000000000000084 .L0 
     /tmp/ccZbMB9B.s:118    .text:0000000000000088 .L0 
     /tmp/ccZbMB9B.s:124    .text:0000000000000088 _ZN9Scheduler3putEP3PCB
     /tmp/ccZbMB9B.s:127    .text:0000000000000088 .L0 
GAS LISTING /tmp/ccZbMB9B.s 			page 9


     /tmp/ccZbMB9B.s:129    .text:0000000000000088 .L0 
     /tmp/ccZbMB9B.s:130    .text:000000000000008c .L0 
     /tmp/ccZbMB9B.s:132    .text:0000000000000090 .L0 
     /tmp/ccZbMB9B.s:134    .text:0000000000000094 .L0 
     /tmp/ccZbMB9B.s:140    .text:0000000000000094 .L0 
     /tmp/ccZbMB9B.s:141    .text:0000000000000094 .L0 
     /tmp/ccZbMB9B.s:142    .text:0000000000000094 .L0 
     /tmp/ccZbMB9B.s:147    .text:0000000000000098 .L0 
     /tmp/ccZbMB9B.s:148    .text:0000000000000098 .L0 
     /tmp/ccZbMB9B.s:150    .text:000000000000009c .L0 
     /tmp/ccZbMB9B.s:151    .text:000000000000009c .L0 
     /tmp/ccZbMB9B.s:153    .text:00000000000000a4 .L0 
     /tmp/ccZbMB9B.s:155    .text:00000000000000a8 .L0 
     /tmp/ccZbMB9B.s:156    .text:00000000000000a8 .L0 
     /tmp/ccZbMB9B.s:159    .text:00000000000000b4 .L0 
     /tmp/ccZbMB9B.s:161    .text:00000000000000b8 .L0 
     /tmp/ccZbMB9B.s:162    .text:00000000000000b8 .L0 
     /tmp/ccZbMB9B.s:165    .text:00000000000000bc .L0 
     /tmp/ccZbMB9B.s:166    .text:00000000000000c0 .L0 
     /tmp/ccZbMB9B.s:167    .text:00000000000000c0 .L0 
     /tmp/ccZbMB9B.s:168    .text:00000000000000c0 .L0 
     /tmp/ccZbMB9B.s:170    .text:00000000000000c4 .L0 
     /tmp/ccZbMB9B.s:173    .text:00000000000000c8 .L0 
     /tmp/ccZbMB9B.s:175    .text:00000000000000c8 .L0 
     /tmp/ccZbMB9B.s:176    .text:00000000000000c8 .L0 
     /tmp/ccZbMB9B.s:179    .text:00000000000000d4 .L0 
     /tmp/ccZbMB9B.s:181    .text:00000000000000dc .L0 
     /tmp/ccZbMB9B.s:187    .text:00000000000000dc _ZN9Scheduler3getEv
     /tmp/ccZbMB9B.s:190    .text:00000000000000dc .L0 
     /tmp/ccZbMB9B.s:191    .text:00000000000000dc .L0 
     /tmp/ccZbMB9B.s:192    .text:00000000000000e0 .L0 
     /tmp/ccZbMB9B.s:194    .text:00000000000000e4 .L0 
     /tmp/ccZbMB9B.s:196    .text:00000000000000e8 .L0 
     /tmp/ccZbMB9B.s:198    .text:00000000000000e8 .L0 
     /tmp/ccZbMB9B.s:199    .text:00000000000000e8 .L0 
     /tmp/ccZbMB9B.s:201    .text:00000000000000f0 .L0 
     /tmp/ccZbMB9B.s:204    .text:00000000000000f4 .L0 
     /tmp/ccZbMB9B.s:205    .text:00000000000000f4 .L0 
     /tmp/ccZbMB9B.s:206    .text:00000000000000f4 .L0 
     /tmp/ccZbMB9B.s:208    .text:00000000000000f8 .L0 
     /tmp/ccZbMB9B.s:210    .text:00000000000000fc .L0 
     /tmp/ccZbMB9B.s:211    .text:00000000000000fc .L0 
     /tmp/ccZbMB9B.s:214    .text:0000000000000104 .L0 
     /tmp/ccZbMB9B.s:215    .text:0000000000000104 .L0 
     /tmp/ccZbMB9B.s:219    .text:0000000000000108 .L0 
     /tmp/ccZbMB9B.s:220    .text:0000000000000108 .L0 
     /tmp/ccZbMB9B.s:221    .text:000000000000010c .L0 
     /tmp/ccZbMB9B.s:222    .text:000000000000010c .L0 
     /tmp/ccZbMB9B.s:223    .text:000000000000010c .L0 
     /tmp/ccZbMB9B.s:225    .text:0000000000000110 .L0 
     /tmp/ccZbMB9B.s:229    .text:0000000000000114 .L0 
     /tmp/ccZbMB9B.s:231    .text:0000000000000114 .L0 
     /tmp/ccZbMB9B.s:232    .text:0000000000000114 .L0 
     /tmp/ccZbMB9B.s:235    .text:0000000000000120 .L0 
     /tmp/ccZbMB9B.s:237    .text:0000000000000128 .L0 
     /tmp/ccZbMB9B.s:251    .bss:0000000000000008 _ZN9Scheduler16schedulerPCBTailE
     /tmp/ccZbMB9B.s:247    .bss:0000000000000000 _ZN9Scheduler16schedulerPCBHeadE
GAS LISTING /tmp/ccZbMB9B.s 			page 10


     /tmp/ccZbMB9B.s:244    .bss:0000000000000000 .LANCHOR0
     /tmp/ccZbMB9B.s:259    .text:0000000000000128 .L0 
     /tmp/ccZbMB9B.s:88     .text:000000000000005c .L0 
     /tmp/ccZbMB9B.s:151    .text:000000000000009c .L0 
     /tmp/ccZbMB9B.s:156    .text:00000000000000a8 .L0 
     /tmp/ccZbMB9B.s:176    .text:00000000000000c8 .L0 
     /tmp/ccZbMB9B.s:199    .text:00000000000000e8 .L0 
     /tmp/ccZbMB9B.s:211    .text:00000000000000fc .L0 
     /tmp/ccZbMB9B.s:232    .text:0000000000000114 .L0 
     /tmp/ccZbMB9B.s:107    .text:0000000000000078 .L6
     /tmp/ccZbMB9B.s:93     .text:0000000000000068 .L7
     /tmp/ccZbMB9B.s:172    .text:00000000000000c8 .L13
     /tmp/ccZbMB9B.s:163    .text:00000000000000bc .L9
     /tmp/ccZbMB9B.s:218    .text:0000000000000108 .L14
     /tmp/ccZbMB9B.s:228    .text:0000000000000114 .L19
     /tmp/ccZbMB9B.s:212    .text:0000000000000104 .L17
     /tmp/ccZbMB9B.s:1201   .debug_abbrev:0000000000000000 .Ldebug_abbrev0
     /tmp/ccZbMB9B.s:2216   .debug_str:00000000000000e6 .LASF105
     /tmp/ccZbMB9B.s:2276   .debug_str:0000000000000312 .LASF106
     /tmp/ccZbMB9B.s:2382   .debug_str:00000000000005be .LASF107
     /tmp/ccZbMB9B.s:5      .text:0000000000000000 .Ltext0
     /tmp/ccZbMB9B.s:254    .text:0000000000000128 .Letext0
     /tmp/ccZbMB9B.s:2188   .debug_line:0000000000000000 .Ldebug_line0
     /tmp/ccZbMB9B.s:2270   .debug_str:00000000000002eb .LASF0
     /tmp/ccZbMB9B.s:2290   .debug_str:000000000000036d .LASF1
     /tmp/ccZbMB9B.s:2334   .debug_str:00000000000004ac .LASF2
     /tmp/ccZbMB9B.s:2340   .debug_str:00000000000004c8 .LASF4
     /tmp/ccZbMB9B.s:2280   .debug_str:0000000000000331 .LASF3
     /tmp/ccZbMB9B.s:2196   .debug_str:000000000000002f .LASF5
     /tmp/ccZbMB9B.s:2324   .debug_str:0000000000000469 .LASF6
     /tmp/ccZbMB9B.s:2320   .debug_str:000000000000044e .LASF7
     /tmp/ccZbMB9B.s:2284   .debug_str:0000000000000350 .LASF8
     /tmp/ccZbMB9B.s:2264   .debug_str:00000000000002c7 .LASF9
     /tmp/ccZbMB9B.s:2266   .debug_str:00000000000002d7 .LASF10
     /tmp/ccZbMB9B.s:2226   .debug_str:00000000000001e5 .LASF11
     /tmp/ccZbMB9B.s:2256   .debug_str:00000000000002a3 .LASF12
     /tmp/ccZbMB9B.s:2234   .debug_str:000000000000020c .LASF13
     /tmp/ccZbMB9B.s:2224   .debug_str:00000000000001d5 .LASF14
     /tmp/ccZbMB9B.s:2362   .debug_str:000000000000056a .LASF15
     /tmp/ccZbMB9B.s:2250   .debug_str:000000000000027a .LASF16
     /tmp/ccZbMB9B.s:2358   .debug_str:0000000000000538 .LASF17
     /tmp/ccZbMB9B.s:2384   .debug_str:00000000000005e1 .LASF28
     /tmp/ccZbMB9B.s:2392   .debug_str:000000000000060d .LASF20
     /tmp/ccZbMB9B.s:2286   .debug_str:0000000000000363 .LASF18
     /tmp/ccZbMB9B.s:2228   .debug_str:00000000000001f4 .LASF19
     /tmp/ccZbMB9B.s:2368   .debug_str:0000000000000583 .LASF21
     /tmp/ccZbMB9B.s:2296   .debug_str:0000000000000393 .LASF22
     /tmp/ccZbMB9B.s:2408   .debug_str:0000000000000657 .LASF39
     /tmp/ccZbMB9B.s:2390   .debug_str:0000000000000607 .LASF24
     /tmp/ccZbMB9B.s:2238   .debug_str:000000000000022d .LASF26
     /tmp/ccZbMB9B.s:2272   .debug_str:00000000000002f8 .LASF23
     /tmp/ccZbMB9B.s:2350   .debug_str:0000000000000502 .LASF29
     /tmp/ccZbMB9B.s:2288   .debug_str:0000000000000368 .LASF25
     /tmp/ccZbMB9B.s:2330   .debug_str:0000000000000483 .LASF27
     /tmp/ccZbMB9B.s:2248   .debug_str:000000000000026c .LASF30
     /tmp/ccZbMB9B.s:2328   .debug_str:000000000000047c .LASF45
     /tmp/ccZbMB9B.s:2208   .debug_str:00000000000000b3 .LASF47
GAS LISTING /tmp/ccZbMB9B.s 			page 11


     /tmp/ccZbMB9B.s:2372   .debug_str:000000000000058e .LASF108
     /tmp/ccZbMB9B.s:2222   .debug_str:00000000000001cf .LASF31
     /tmp/ccZbMB9B.s:2352   .debug_str:0000000000000517 .LASF32
     /tmp/ccZbMB9B.s:2232   .debug_str:0000000000000202 .LASF33
     /tmp/ccZbMB9B.s:2214   .debug_str:00000000000000dd .LASF34
     /tmp/ccZbMB9B.s:2322   .debug_str:0000000000000461 .LASF35
     /tmp/ccZbMB9B.s:2230   .debug_str:00000000000001f9 .LASF36
     /tmp/ccZbMB9B.s:2366   .debug_str:000000000000057b .LASF37
     /tmp/ccZbMB9B.s:2268   .debug_str:00000000000002e5 .LASF38
     /tmp/ccZbMB9B.s:2388   .debug_str:00000000000005ef .LASF40
     /tmp/ccZbMB9B.s:2310   .debug_str:0000000000000400 .LASF109
     /tmp/ccZbMB9B.s:2396   .debug_str:000000000000061e .LASF41
     /tmp/ccZbMB9B.s:2416   .debug_str:0000000000000697 .LASF42
     /tmp/ccZbMB9B.s:2410   .debug_str:0000000000000667 .LASF43
     /tmp/ccZbMB9B.s:2378   .debug_str:00000000000005a4 .LASF44
     /tmp/ccZbMB9B.s:2246   .debug_str:0000000000000263 .LASF70
     /tmp/ccZbMB9B.s:2202   .debug_str:0000000000000057 .LASF72
     /tmp/ccZbMB9B.s:2292   .debug_str:0000000000000380 .LASF46
     /tmp/ccZbMB9B.s:2314   .debug_str:0000000000000418 .LASF48
     /tmp/ccZbMB9B.s:2374   .debug_str:0000000000000594 .LASF49
     /tmp/ccZbMB9B.s:2398   .debug_str:0000000000000623 .LASF50
     /tmp/ccZbMB9B.s:2344   .debug_str:00000000000004d7 .LASF51
     /tmp/ccZbMB9B.s:2294   .debug_str:0000000000000386 .LASF52
     /tmp/ccZbMB9B.s:2298   .debug_str:0000000000000398 .LASF53
     /tmp/ccZbMB9B.s:2418   .debug_str:00000000000006a3 .LASF54
     /tmp/ccZbMB9B.s:2252   .debug_str:0000000000000290 .LASF55
     /tmp/ccZbMB9B.s:2194   .debug_str:000000000000001f .LASF56
     /tmp/ccZbMB9B.s:2278   .debug_str:0000000000000324 .LASF57
     /tmp/ccZbMB9B.s:2348   .debug_str:00000000000004f9 .LASF58
     /tmp/ccZbMB9B.s:2306   .debug_str:00000000000003de .LASF59
     /tmp/ccZbMB9B.s:2338   .debug_str:00000000000004bf .LASF60
     /tmp/ccZbMB9B.s:2360   .debug_str:000000000000054e .LASF61
     /tmp/ccZbMB9B.s:2308   .debug_str:00000000000003f1 .LASF62
     /tmp/ccZbMB9B.s:2190   .debug_str:0000000000000000 .LASF63
     /tmp/ccZbMB9B.s:2404   .debug_str:000000000000063d .LASF64
     /tmp/ccZbMB9B.s:2318   .debug_str:0000000000000434 .LASF65
     /tmp/ccZbMB9B.s:2356   .debug_str:000000000000052a .LASF66
     /tmp/ccZbMB9B.s:2326   .debug_str:0000000000000470 .LASF67
     /tmp/ccZbMB9B.s:2244   .debug_str:0000000000000253 .LASF68
     /tmp/ccZbMB9B.s:2406   .debug_str:000000000000064c .LASF69
     /tmp/ccZbMB9B.s:2282   .debug_str:0000000000000343 .LASF74
     /tmp/ccZbMB9B.s:2354   .debug_str:000000000000051f .LASF71
     /tmp/ccZbMB9B.s:2414   .debug_str:0000000000000681 .LASF73
     /tmp/ccZbMB9B.s:2342   .debug_str:00000000000004cf .LASF75
     /tmp/ccZbMB9B.s:2380   .debug_str:00000000000005b4 .LASF76
     /tmp/ccZbMB9B.s:2316   .debug_str:0000000000000428 .LASF77
     /tmp/ccZbMB9B.s:2242   .debug_str:0000000000000245 .LASF78
     /tmp/ccZbMB9B.s:2206   .debug_str:000000000000008b .LASF80
     /tmp/ccZbMB9B.s:2274   .debug_str:00000000000002fd .LASF79
     /tmp/ccZbMB9B.s:2220   .debug_str:00000000000001a3 .LASF81
     /tmp/ccZbMB9B.s:2402   .debug_str:0000000000000636 .LASF110
     /tmp/ccZbMB9B.s:2218   .debug_str:0000000000000192 .LASF111
     /tmp/ccZbMB9B.s:2192   .debug_str:000000000000001a .LASF82
     /tmp/ccZbMB9B.s:2364   .debug_str:0000000000000576 .LASF83
     /tmp/ccZbMB9B.s:2300   .debug_str:00000000000003b0 .LASF84
     /tmp/ccZbMB9B.s:2240   .debug_str:000000000000023f .LASF85
     /tmp/ccZbMB9B.s:2386   .debug_str:00000000000005e7 .LASF86
GAS LISTING /tmp/ccZbMB9B.s 			page 12


     /tmp/ccZbMB9B.s:2210   .debug_str:00000000000000c1 .LASF87
     /tmp/ccZbMB9B.s:2262   .debug_str:00000000000002bd .LASF88
     /tmp/ccZbMB9B.s:2198   .debug_str:0000000000000036 .LASF112
     /tmp/ccZbMB9B.s:2412   .debug_str:000000000000066d .LASF113
     /tmp/ccZbMB9B.s:2212   .debug_str:00000000000000cb .LASF89
     /tmp/ccZbMB9B.s:2312   .debug_str:0000000000000405 .LASF90
     /tmp/ccZbMB9B.s:2376   .debug_str:000000000000059c .LASF91
     /tmp/ccZbMB9B.s:2332   .debug_str:0000000000000494 .LASF114
     /tmp/ccZbMB9B.s:2346   .debug_str:00000000000004e8 .LASF92
     /tmp/ccZbMB9B.s:2236   .debug_str:000000000000021c .LASF93
     /tmp/ccZbMB9B.s:2200   .debug_str:000000000000004e .LASF94
     /tmp/ccZbMB9B.s:2370   .debug_str:0000000000000589 .LASF95
     /tmp/ccZbMB9B.s:2302   .debug_str:00000000000003b8 .LASF96
     /tmp/ccZbMB9B.s:2304   .debug_str:00000000000003bd .LASF97
     /tmp/ccZbMB9B.s:2204   .debug_str:000000000000006a .LASF98
     /tmp/ccZbMB9B.s:188    .text:00000000000000dc .LFB25
     /tmp/ccZbMB9B.s:238    .text:0000000000000128 .LFE25
     /tmp/ccZbMB9B.s:2254   .debug_str:000000000000029c .LASF99
     /tmp/ccZbMB9B.s:2109   .debug_loc:0000000000000000 .LLST5
     /tmp/ccZbMB9B.s:125    .text:0000000000000088 .LFB24
     /tmp/ccZbMB9B.s:182    .text:00000000000000dc .LFE24
     /tmp/ccZbMB9B.s:137    .text:0000000000000094 .LBB4
     /tmp/ccZbMB9B.s:145    .text:0000000000000098 .LBE4
     /tmp/ccZbMB9B.s:2120   .debug_loc:0000000000000036 .LLST3
     /tmp/ccZbMB9B.s:2128   .debug_loc:000000000000005a .LLST4
     /tmp/ccZbMB9B.s:75     .text:0000000000000050 .LFB23
     /tmp/ccZbMB9B.s:119    .text:0000000000000088 .LFE23
     /tmp/ccZbMB9B.s:2135   .debug_loc:000000000000007d .LLST2
     /tmp/ccZbMB9B.s:2336   .debug_str:00000000000004ba .LASF100
     /tmp/ccZbMB9B.s:43     .text:0000000000000028 .LFB22
     /tmp/ccZbMB9B.s:69     .text:0000000000000050 .LFE22
     /tmp/ccZbMB9B.s:2147   .debug_loc:00000000000000b4 .LLST1
     /tmp/ccZbMB9B.s:58     .text:0000000000000040 .LVL3
     /tmp/ccZbMB9B.s:10     .text:0000000000000000 .LFB21
     /tmp/ccZbMB9B.s:37     .text:0000000000000028 .LFE21
     /tmp/ccZbMB9B.s:2161   .debug_loc:00000000000000ed .LLST0
     /tmp/ccZbMB9B.s:26     .text:0000000000000018 .LVL1
     /tmp/ccZbMB9B.s:2258   .debug_str:00000000000002b2 .LASF115
     /tmp/ccZbMB9B.s:2420   .debug_str:00000000000006b0 .LASF101
     /tmp/ccZbMB9B.s:2260   .debug_str:00000000000002b7 .LASF103
     /tmp/ccZbMB9B.s:2394   .debug_str:0000000000000612 .LASF102
     /tmp/ccZbMB9B.s:2400   .debug_str:000000000000062e .LASF104
     /tmp/ccZbMB9B.s:203    .text:00000000000000f4 .LVL13
     /tmp/ccZbMB9B.s:217    .text:0000000000000108 .LVL14
     /tmp/ccZbMB9B.s:227    .text:0000000000000114 .LVL15
     /tmp/ccZbMB9B.s:136    .text:0000000000000094 .LVL11
     /tmp/ccZbMB9B.s:143    .text:0000000000000098 .LVL12
     /tmp/ccZbMB9B.s:85     .text:000000000000005c .LVL4
     /tmp/ccZbMB9B.s:92     .text:0000000000000068 .LVL6
     /tmp/ccZbMB9B.s:111    .text:000000000000007c .LVL9
     /tmp/ccZbMB9B.s:46     .text:0000000000000028 .LVL2
     /tmp/ccZbMB9B.s:14     .text:0000000000000000 .LVL0
     /tmp/ccZbMB9B.s:260    .debug_info:0000000000000000 .Ldebug_info0

UNDEFINED SYMBOLS
_Z7kmallocm
_Z5kfreePv
GAS LISTING /tmp/ccZbMB9B.s 			page 13


