GAS LISTING /tmp/ccCfq7km.s 			page 1


   1              		.file	"Scheduler.cpp"
   2              		.option pic
   3              		.option norelax
   4              		.text
   5              	.Ltext0:
   6              		.align	2
   7              		.globl	_ZN9SchedulernwEm
   9              	_ZN9SchedulernwEm:
  10              	.LFB21:
  11              		.file 1 "src/Scheduler.cpp"
   1:src/Scheduler.cpp **** //
   2:src/Scheduler.cpp **** // Created by os on 4/27/22.
   3:src/Scheduler.cpp **** //
   4:src/Scheduler.cpp **** 
   5:src/Scheduler.cpp **** #include "../h/Scheduler.hpp"
   6:src/Scheduler.cpp **** #include "../h/PCB.hpp"
   7:src/Scheduler.cpp **** 
   8:src/Scheduler.cpp **** PCB* Scheduler::schedulerPCBHead = 0;
   9:src/Scheduler.cpp **** PCB* Scheduler::schedulerPCBTail = 0;
  10:src/Scheduler.cpp **** 
  11:src/Scheduler.cpp **** 
  12:src/Scheduler.cpp **** void *Scheduler::operator new(size_t size)
  13:src/Scheduler.cpp **** {
  12              		.loc 1 13 1
  13              		.cfi_startproc
  14              	.LVL0:
  15 0000 130101FF 		addi	sp,sp,-16
  16              		.cfi_def_cfa_offset 16
  17 0004 23341100 		sd	ra,8(sp)
  18 0008 23308100 		sd	s0,0(sp)
  19              		.cfi_offset 1, -8
  20              		.cfi_offset 8, -16
  21 000c 13040101 		addi	s0,sp,16
  22              		.cfi_def_cfa 8, 0
  14:src/Scheduler.cpp ****     return kmalloc(size);
  23              		.loc 1 14 5
  24              		.loc 1 14 19 is_stmt 0
  25 0010 97000000 		call	_Z7kmallocm@plt
  25      E7800000 
  26              	.LVL1:
  15:src/Scheduler.cpp **** }
  27              		.loc 1 15 1
  28 0018 83308100 		ld	ra,8(sp)
  29              		.cfi_restore 1
  30 001c 03340100 		ld	s0,0(sp)
  31              		.cfi_restore 8
  32              		.cfi_def_cfa 2, 16
  33 0020 13010101 		addi	sp,sp,16
  34              		.cfi_def_cfa_offset 0
  35 0024 67800000 		jr	ra
  36              		.cfi_endproc
  37              	.LFE21:
  39              		.align	2
  40              		.globl	_ZN9SchedulerdlEPv
  42              	_ZN9SchedulerdlEPv:
  43              	.LFB22:
  16:src/Scheduler.cpp **** 
GAS LISTING /tmp/ccCfq7km.s 			page 2


  17:src/Scheduler.cpp **** void Scheduler::operator delete(void *p)
  18:src/Scheduler.cpp **** {
  44              		.loc 1 18 1 is_stmt 1
  45              		.cfi_startproc
  46              	.LVL2:
  47 0028 130101FF 		addi	sp,sp,-16
  48              		.cfi_def_cfa_offset 16
  49 002c 23341100 		sd	ra,8(sp)
  50 0030 23308100 		sd	s0,0(sp)
  51              		.cfi_offset 1, -8
  52              		.cfi_offset 8, -16
  53 0034 13040101 		addi	s0,sp,16
  54              		.cfi_def_cfa 8, 0
  19:src/Scheduler.cpp ****     kfree(p);
  55              		.loc 1 19 5
  56              		.loc 1 19 10 is_stmt 0
  57 0038 97000000 		call	_Z5kfreePv@plt
  57      E7800000 
  58              	.LVL3:
  20:src/Scheduler.cpp **** }
  59              		.loc 1 20 1
  60 0040 83308100 		ld	ra,8(sp)
  61              		.cfi_restore 1
  62 0044 03340100 		ld	s0,0(sp)
  63              		.cfi_restore 8
  64              		.cfi_def_cfa 2, 16
  65 0048 13010101 		addi	sp,sp,16
  66              		.cfi_def_cfa_offset 0
  67 004c 67800000 		jr	ra
  68              		.cfi_endproc
  69              	.LFE22:
  71              		.align	2
  72              		.globl	_ZN9Scheduler7getSizeEv
  74              	_ZN9Scheduler7getSizeEv:
  75              	.LFB23:
  21:src/Scheduler.cpp **** 
  22:src/Scheduler.cpp **** int Scheduler::getSize()
  23:src/Scheduler.cpp **** {
  76              		.loc 1 23 1 is_stmt 1
  77              		.cfi_startproc
  78 0050 130101FF 		addi	sp,sp,-16
  79              		.cfi_def_cfa_offset 16
  80 0054 23348100 		sd	s0,8(sp)
  81              		.cfi_offset 8, -8
  82 0058 13040101 		addi	s0,sp,16
  83              		.cfi_def_cfa 8, 0
  24:src/Scheduler.cpp ****     uint64 sz = 0;
  84              		.loc 1 24 5
  85              	.LVL4:
  25:src/Scheduler.cpp ****     PCB* curr = schedulerPCBHead;
  86              		.loc 1 25 5
  87              		.loc 1 25 10 is_stmt 0
  88 005c 97070000 		ld	a5,.LANCHOR0
  88      83B70700 
  89              	.LVL5:
  24:src/Scheduler.cpp ****     uint64 sz = 0;
  90              		.loc 1 24 12
GAS LISTING /tmp/ccCfq7km.s 			page 3


  91 0064 13050000 		li	a0,0
  92              	.LVL6:
  93              	.L7:
  26:src/Scheduler.cpp ****     while(curr != 0)
  94              		.loc 1 26 5 is_stmt 1
  95              		.loc 1 26 16
  96 0068 63880700 		beqz	a5,.L6
  27:src/Scheduler.cpp ****     {
  28:src/Scheduler.cpp ****         sz++;
  97              		.loc 1 28 9
  98              		.loc 1 28 11 is_stmt 0
  99 006c 13051500 		addi	a0,a0,1
 100              	.LVL7:
  29:src/Scheduler.cpp ****         curr = curr->nextPCB;
 101              		.loc 1 29 9 is_stmt 1
 102              		.loc 1 29 14 is_stmt 0
 103 0070 83B70700 		ld	a5,0(a5)
 104              	.LVL8:
  26:src/Scheduler.cpp ****     while(curr != 0)
 105              		.loc 1 26 5
 106 0074 6FF05FFF 		j	.L7
 107              	.L6:
  30:src/Scheduler.cpp ****     }
  31:src/Scheduler.cpp ****     return sz;
 108              		.loc 1 31 5 is_stmt 1
  32:src/Scheduler.cpp **** }
 109              		.loc 1 32 1 is_stmt 0
 110 0078 1B050500 		sext.w	a0,a0
 111              	.LVL9:
 112 007c 03348100 		ld	s0,8(sp)
 113              		.cfi_restore 8
 114              		.cfi_def_cfa 2, 16
 115 0080 13010101 		addi	sp,sp,16
 116              		.cfi_def_cfa_offset 0
 117 0084 67800000 		jr	ra
 118              		.cfi_endproc
 119              	.LFE23:
 121              		.align	2
 122              		.globl	_ZN9Scheduler3putEP3PCB
 124              	_ZN9Scheduler3putEP3PCB:
 125              	.LFB24:
  33:src/Scheduler.cpp **** 
  34:src/Scheduler.cpp **** void Scheduler::put(PCB *pcb)
  35:src/Scheduler.cpp **** {
 126              		.loc 1 35 1 is_stmt 1
 127              		.cfi_startproc
 128              	.LVL10:
 129 0088 130101FF 		addi	sp,sp,-16
 130              		.cfi_def_cfa_offset 16
 131 008c 23348100 		sd	s0,8(sp)
 132              		.cfi_offset 8, -8
 133 0090 13040101 		addi	s0,sp,16
 134              		.cfi_def_cfa 8, 0
  36:src/Scheduler.cpp ****     pcb->setState(PCB::READY);
 135              		.loc 1 36 5
 136              	.LVL11:
 137              	.LBB4:
GAS LISTING /tmp/ccCfq7km.s 			page 4


 138              	.LBB5:
 139              		.file 2 "src/../h/PCB.hpp"
   1:src/../h/PCB.hpp **** //
   2:src/../h/PCB.hpp **** // Created by os on 4/27/22.
   3:src/../h/PCB.hpp **** //
   4:src/../h/PCB.hpp **** 
   5:src/../h/PCB.hpp **** #ifndef PROJECT_BASE_V1_0_PCB_HPP
   6:src/../h/PCB.hpp **** #define PROJECT_BASE_V1_0_PCB_HPP
   7:src/../h/PCB.hpp **** 
   8:src/../h/PCB.hpp **** #include "../lib/hw.h"
   9:src/../h/PCB.hpp **** #include "Scheduler.hpp"
  10:src/../h/PCB.hpp **** #include "Riscv.hpp"
  11:src/../h/PCB.hpp **** 
  12:src/../h/PCB.hpp **** class PCB
  13:src/../h/PCB.hpp **** {
  14:src/../h/PCB.hpp **** public:
  15:src/../h/PCB.hpp ****     using Body = void (*)(void*);
  16:src/../h/PCB.hpp **** 
  17:src/../h/PCB.hpp ****     PCB(Body body,  void* args, void* stack_space, uint64 timeSlice);
  18:src/../h/PCB.hpp ****     ~PCB();
  19:src/../h/PCB.hpp **** 
  20:src/../h/PCB.hpp ****     void start();
  21:src/../h/PCB.hpp ****     static void dispatch();
  22:src/../h/PCB.hpp ****     static void sleep(time_t);
  23:src/../h/PCB.hpp **** 
  24:src/../h/PCB.hpp ****     static PCB* running;
  25:src/../h/PCB.hpp ****     static PCB* exitingPCB;
  26:src/../h/PCB.hpp **** 
  27:src/../h/PCB.hpp ****     static uint64 timeSliceCounter;
  28:src/../h/PCB.hpp ****     uint64 getTimeSlice() { return timeSlice;}
  29:src/../h/PCB.hpp **** 
  30:src/../h/PCB.hpp ****     void* operator new(size_t size);
  31:src/../h/PCB.hpp ****     void operator delete(void *p);
  32:src/../h/PCB.hpp **** 
  33:src/../h/PCB.hpp ****     enum State{READY, RUNNING, SUSPENDED, FINISHED, EXITING, SLEEPING};
  34:src/../h/PCB.hpp ****     State getState() {return state;}
  35:src/../h/PCB.hpp ****     void setState(State s) {state = s;}
 140              		.loc 2 35 29
 141              		.loc 2 35 35 is_stmt 0
 142 0094 23280502 		sw	zero,48(a0)
 143              	.LVL12:
 144              	.LBE5:
 145              	.LBE4:
  37:src/Scheduler.cpp ****     pcb->nextPCB = 0;
 146              		.loc 1 37 5 is_stmt 1
 147              		.loc 1 37 18 is_stmt 0
 148 0098 23300500 		sd	zero,0(a0)
  38:src/Scheduler.cpp ****     if(schedulerPCBHead == 0)
 149              		.loc 1 38 5 is_stmt 1
 150              		.loc 1 38 25 is_stmt 0
 151 009c 97070000 		ld	a5,.LANCHOR0
 151      83B70700 
 152              		.loc 1 38 5
 153 00a4 63820702 		beqz	a5,.L13
  39:src/Scheduler.cpp ****         schedulerPCBHead = schedulerPCBTail = pcb;
  40:src/Scheduler.cpp ****     else
  41:src/Scheduler.cpp ****     {
GAS LISTING /tmp/ccCfq7km.s 			page 5


  42:src/Scheduler.cpp ****         schedulerPCBTail->nextPCB = pcb;
 154              		.loc 1 42 9 is_stmt 1
 155              		.loc 1 42 27 is_stmt 0
 156 00a8 97070000 		lla	a5,.LANCHOR0
 156      93870700 
 157 00b0 03B78700 		ld	a4,8(a5)
 158              		.loc 1 42 35
 159 00b4 2330A700 		sd	a0,0(a4)
  43:src/Scheduler.cpp ****         schedulerPCBTail = pcb;
 160              		.loc 1 43 9 is_stmt 1
 161              		.loc 1 43 26 is_stmt 0
 162 00b8 23B4A700 		sd	a0,8(a5)
 163              	.L9:
  44:src/Scheduler.cpp ****     }
  45:src/Scheduler.cpp **** }
 164              		.loc 1 45 1
 165 00bc 03348100 		ld	s0,8(sp)
 166              		.cfi_remember_state
 167              		.cfi_restore 8
 168              		.cfi_def_cfa 2, 16
 169 00c0 13010101 		addi	sp,sp,16
 170              		.cfi_def_cfa_offset 0
 171 00c4 67800000 		jr	ra
 172              	.L13:
 173              		.cfi_restore_state
  39:src/Scheduler.cpp ****     else
 174              		.loc 1 39 9 is_stmt 1
  39:src/Scheduler.cpp ****     else
 175              		.loc 1 39 45 is_stmt 0
 176 00c8 97070000 		lla	a5,.LANCHOR0
 176      93870700 
 177 00d0 23B4A700 		sd	a0,8(a5)
  39:src/Scheduler.cpp ****     else
 178              		.loc 1 39 26
 179 00d4 23B0A700 		sd	a0,0(a5)
 180 00d8 6FF05FFE 		j	.L9
 181              		.cfi_endproc
 182              	.LFE24:
 184              		.align	2
 185              		.globl	_ZN9Scheduler3getEv
 187              	_ZN9Scheduler3getEv:
 188              	.LFB25:
  46:src/Scheduler.cpp **** 
  47:src/Scheduler.cpp **** PCB *Scheduler::get()
  48:src/Scheduler.cpp **** {
 189              		.loc 1 48 1 is_stmt 1
 190              		.cfi_startproc
 191 00dc 130101FF 		addi	sp,sp,-16
 192              		.cfi_def_cfa_offset 16
 193 00e0 23348100 		sd	s0,8(sp)
 194              		.cfi_offset 8, -8
 195 00e4 13040101 		addi	s0,sp,16
 196              		.cfi_def_cfa 8, 0
  49:src/Scheduler.cpp ****     if(schedulerPCBHead == 0)
 197              		.loc 1 49 5
 198              		.loc 1 49 25 is_stmt 0
 199 00e8 17050000 		ld	a0,.LANCHOR0
GAS LISTING /tmp/ccCfq7km.s 			page 6


 199      03350500 
 200              		.loc 1 49 5
 201 00f0 630C0500 		beqz	a0,.L14
  50:src/Scheduler.cpp ****         return 0;
  51:src/Scheduler.cpp ****     PCB* retval = schedulerPCBHead;
 202              		.loc 1 51 5 is_stmt 1
 203              	.LVL13:
  52:src/Scheduler.cpp ****     if(schedulerPCBHead->nextPCB == 0)
 204              		.loc 1 52 5
 205              		.loc 1 52 26 is_stmt 0
 206 00f4 83370500 		ld	a5,0(a0)
 207              		.loc 1 52 5
 208 00f8 638E0700 		beqz	a5,.L19
  53:src/Scheduler.cpp ****         schedulerPCBHead = schedulerPCBTail = 0;
  54:src/Scheduler.cpp ****     else
  55:src/Scheduler.cpp ****         schedulerPCBHead = schedulerPCBHead->nextPCB;
 209              		.loc 1 55 9 is_stmt 1
 210              		.loc 1 55 26 is_stmt 0
 211 00fc 17070000 		sd	a5,.LANCHOR0,a4
 211      2330F700 
 212              	.L17:
  56:src/Scheduler.cpp ****     retval->nextPCB = 0;
 213              		.loc 1 56 5 is_stmt 1
 214              		.loc 1 56 21 is_stmt 0
 215 0104 23300500 		sd	zero,0(a0)
  57:src/Scheduler.cpp ****     return retval;
 216              		.loc 1 57 5 is_stmt 1
 217              	.LVL14:
 218              	.L14:
  58:src/Scheduler.cpp **** }
 219              		.loc 1 58 1 is_stmt 0
 220 0108 03348100 		ld	s0,8(sp)
 221              		.cfi_remember_state
 222              		.cfi_restore 8
 223              		.cfi_def_cfa 2, 16
 224 010c 13010101 		addi	sp,sp,16
 225              		.cfi_def_cfa_offset 0
 226 0110 67800000 		jr	ra
 227              	.LVL15:
 228              	.L19:
 229              		.cfi_restore_state
  53:src/Scheduler.cpp ****     else
 230              		.loc 1 53 9 is_stmt 1
  53:src/Scheduler.cpp ****     else
 231              		.loc 1 53 45 is_stmt 0
 232 0114 97070000 		lla	a5,.LANCHOR0
 232      93870700 
 233 011c 23B40700 		sd	zero,8(a5)
  53:src/Scheduler.cpp ****     else
 234              		.loc 1 53 26
 235 0120 23B00700 		sd	zero,0(a5)
 236 0124 6FF01FFE 		j	.L17
 237              		.cfi_endproc
 238              	.LFE25:
 240              		.globl	_ZN9Scheduler16schedulerPCBTailE
 241              		.globl	_ZN9Scheduler16schedulerPCBHeadE
 242              		.bss
GAS LISTING /tmp/ccCfq7km.s 			page 7


 243              		.align	3
 244              		.set	.LANCHOR0,. + 0
 247              	_ZN9Scheduler16schedulerPCBHeadE:
 248 0000 00000000 		.zero	8
 248      00000000 
 251              	_ZN9Scheduler16schedulerPCBTailE:
 252 0008 00000000 		.zero	8
 252      00000000 
 253              		.text
 254              	.Letext0:
 255              		.file 3 "src/../h/../lib/hw.h"
 256              		.file 4 "src/../h/Queue.hpp"
 257              		.file 5 "src/../h/Scheduler.hpp"
 258              		.file 6 "src/../h/MemoryAllocator.hpp"
GAS LISTING /tmp/ccCfq7km.s 			page 8


DEFINED SYMBOLS
                            *ABS*:0000000000000000 Scheduler.cpp
     /tmp/ccCfq7km.s:9      .text:0000000000000000 _ZN9SchedulernwEm
     /tmp/ccCfq7km.s:13     .text:0000000000000000 .L0 
     /tmp/ccCfq7km.s:15     .text:0000000000000000 .L0 
     /tmp/ccCfq7km.s:16     .text:0000000000000004 .L0 
     /tmp/ccCfq7km.s:19     .text:000000000000000c .L0 
     /tmp/ccCfq7km.s:20     .text:000000000000000c .L0 
     /tmp/ccCfq7km.s:22     .text:0000000000000010 .L0 
     /tmp/ccCfq7km.s:24     .text:0000000000000010 .L0 
     /tmp/ccCfq7km.s:25     .text:0000000000000010 .L0 
     /tmp/ccCfq7km.s:28     .text:0000000000000018 .L0 
     /tmp/ccCfq7km.s:29     .text:000000000000001c .L0 
     /tmp/ccCfq7km.s:31     .text:0000000000000020 .L0 
     /tmp/ccCfq7km.s:32     .text:0000000000000020 .L0 
     /tmp/ccCfq7km.s:34     .text:0000000000000024 .L0 
     /tmp/ccCfq7km.s:36     .text:0000000000000028 .L0 
     /tmp/ccCfq7km.s:42     .text:0000000000000028 _ZN9SchedulerdlEPv
     /tmp/ccCfq7km.s:45     .text:0000000000000028 .L0 
     /tmp/ccCfq7km.s:47     .text:0000000000000028 .L0 
     /tmp/ccCfq7km.s:48     .text:000000000000002c .L0 
     /tmp/ccCfq7km.s:51     .text:0000000000000034 .L0 
     /tmp/ccCfq7km.s:52     .text:0000000000000034 .L0 
     /tmp/ccCfq7km.s:54     .text:0000000000000038 .L0 
     /tmp/ccCfq7km.s:56     .text:0000000000000038 .L0 
     /tmp/ccCfq7km.s:57     .text:0000000000000038 .L0 
     /tmp/ccCfq7km.s:60     .text:0000000000000040 .L0 
     /tmp/ccCfq7km.s:61     .text:0000000000000044 .L0 
     /tmp/ccCfq7km.s:63     .text:0000000000000048 .L0 
     /tmp/ccCfq7km.s:64     .text:0000000000000048 .L0 
     /tmp/ccCfq7km.s:66     .text:000000000000004c .L0 
     /tmp/ccCfq7km.s:68     .text:0000000000000050 .L0 
     /tmp/ccCfq7km.s:74     .text:0000000000000050 _ZN9Scheduler7getSizeEv
     /tmp/ccCfq7km.s:77     .text:0000000000000050 .L0 
     /tmp/ccCfq7km.s:78     .text:0000000000000050 .L0 
     /tmp/ccCfq7km.s:79     .text:0000000000000054 .L0 
     /tmp/ccCfq7km.s:81     .text:0000000000000058 .L0 
     /tmp/ccCfq7km.s:83     .text:000000000000005c .L0 
     /tmp/ccCfq7km.s:86     .text:000000000000005c .L0 
     /tmp/ccCfq7km.s:87     .text:000000000000005c .L0 
     /tmp/ccCfq7km.s:88     .text:000000000000005c .L0 
     /tmp/ccCfq7km.s:91     .text:0000000000000064 .L0 
     /tmp/ccCfq7km.s:95     .text:0000000000000068 .L0 
     /tmp/ccCfq7km.s:96     .text:0000000000000068 .L0 
     /tmp/ccCfq7km.s:98     .text:000000000000006c .L0 
     /tmp/ccCfq7km.s:99     .text:000000000000006c .L0 
     /tmp/ccCfq7km.s:102    .text:0000000000000070 .L0 
     /tmp/ccCfq7km.s:103    .text:0000000000000070 .L0 
     /tmp/ccCfq7km.s:106    .text:0000000000000074 .L0 
     /tmp/ccCfq7km.s:109    .text:0000000000000078 .L0 
     /tmp/ccCfq7km.s:110    .text:0000000000000078 .L0 
     /tmp/ccCfq7km.s:113    .text:0000000000000080 .L0 
     /tmp/ccCfq7km.s:114    .text:0000000000000080 .L0 
     /tmp/ccCfq7km.s:116    .text:0000000000000084 .L0 
     /tmp/ccCfq7km.s:118    .text:0000000000000088 .L0 
     /tmp/ccCfq7km.s:124    .text:0000000000000088 _ZN9Scheduler3putEP3PCB
     /tmp/ccCfq7km.s:127    .text:0000000000000088 .L0 
GAS LISTING /tmp/ccCfq7km.s 			page 9


     /tmp/ccCfq7km.s:129    .text:0000000000000088 .L0 
     /tmp/ccCfq7km.s:130    .text:000000000000008c .L0 
     /tmp/ccCfq7km.s:132    .text:0000000000000090 .L0 
     /tmp/ccCfq7km.s:134    .text:0000000000000094 .L0 
     /tmp/ccCfq7km.s:140    .text:0000000000000094 .L0 
     /tmp/ccCfq7km.s:141    .text:0000000000000094 .L0 
     /tmp/ccCfq7km.s:142    .text:0000000000000094 .L0 
     /tmp/ccCfq7km.s:147    .text:0000000000000098 .L0 
     /tmp/ccCfq7km.s:148    .text:0000000000000098 .L0 
     /tmp/ccCfq7km.s:150    .text:000000000000009c .L0 
     /tmp/ccCfq7km.s:151    .text:000000000000009c .L0 
     /tmp/ccCfq7km.s:153    .text:00000000000000a4 .L0 
     /tmp/ccCfq7km.s:155    .text:00000000000000a8 .L0 
     /tmp/ccCfq7km.s:156    .text:00000000000000a8 .L0 
     /tmp/ccCfq7km.s:159    .text:00000000000000b4 .L0 
     /tmp/ccCfq7km.s:161    .text:00000000000000b8 .L0 
     /tmp/ccCfq7km.s:162    .text:00000000000000b8 .L0 
     /tmp/ccCfq7km.s:165    .text:00000000000000bc .L0 
     /tmp/ccCfq7km.s:166    .text:00000000000000c0 .L0 
     /tmp/ccCfq7km.s:167    .text:00000000000000c0 .L0 
     /tmp/ccCfq7km.s:168    .text:00000000000000c0 .L0 
     /tmp/ccCfq7km.s:170    .text:00000000000000c4 .L0 
     /tmp/ccCfq7km.s:173    .text:00000000000000c8 .L0 
     /tmp/ccCfq7km.s:175    .text:00000000000000c8 .L0 
     /tmp/ccCfq7km.s:176    .text:00000000000000c8 .L0 
     /tmp/ccCfq7km.s:179    .text:00000000000000d4 .L0 
     /tmp/ccCfq7km.s:181    .text:00000000000000dc .L0 
     /tmp/ccCfq7km.s:187    .text:00000000000000dc _ZN9Scheduler3getEv
     /tmp/ccCfq7km.s:190    .text:00000000000000dc .L0 
     /tmp/ccCfq7km.s:191    .text:00000000000000dc .L0 
     /tmp/ccCfq7km.s:192    .text:00000000000000e0 .L0 
     /tmp/ccCfq7km.s:194    .text:00000000000000e4 .L0 
     /tmp/ccCfq7km.s:196    .text:00000000000000e8 .L0 
     /tmp/ccCfq7km.s:198    .text:00000000000000e8 .L0 
     /tmp/ccCfq7km.s:199    .text:00000000000000e8 .L0 
     /tmp/ccCfq7km.s:201    .text:00000000000000f0 .L0 
     /tmp/ccCfq7km.s:204    .text:00000000000000f4 .L0 
     /tmp/ccCfq7km.s:205    .text:00000000000000f4 .L0 
     /tmp/ccCfq7km.s:206    .text:00000000000000f4 .L0 
     /tmp/ccCfq7km.s:208    .text:00000000000000f8 .L0 
     /tmp/ccCfq7km.s:210    .text:00000000000000fc .L0 
     /tmp/ccCfq7km.s:211    .text:00000000000000fc .L0 
     /tmp/ccCfq7km.s:214    .text:0000000000000104 .L0 
     /tmp/ccCfq7km.s:215    .text:0000000000000104 .L0 
     /tmp/ccCfq7km.s:219    .text:0000000000000108 .L0 
     /tmp/ccCfq7km.s:220    .text:0000000000000108 .L0 
     /tmp/ccCfq7km.s:221    .text:000000000000010c .L0 
     /tmp/ccCfq7km.s:222    .text:000000000000010c .L0 
     /tmp/ccCfq7km.s:223    .text:000000000000010c .L0 
     /tmp/ccCfq7km.s:225    .text:0000000000000110 .L0 
     /tmp/ccCfq7km.s:229    .text:0000000000000114 .L0 
     /tmp/ccCfq7km.s:231    .text:0000000000000114 .L0 
     /tmp/ccCfq7km.s:232    .text:0000000000000114 .L0 
     /tmp/ccCfq7km.s:235    .text:0000000000000120 .L0 
     /tmp/ccCfq7km.s:237    .text:0000000000000128 .L0 
     /tmp/ccCfq7km.s:251    .bss:0000000000000008 _ZN9Scheduler16schedulerPCBTailE
     /tmp/ccCfq7km.s:247    .bss:0000000000000000 _ZN9Scheduler16schedulerPCBHeadE
GAS LISTING /tmp/ccCfq7km.s 			page 10


     /tmp/ccCfq7km.s:244    .bss:0000000000000000 .LANCHOR0
     /tmp/ccCfq7km.s:259    .text:0000000000000128 .L0 
     /tmp/ccCfq7km.s:88     .text:000000000000005c .L0 
     /tmp/ccCfq7km.s:151    .text:000000000000009c .L0 
     /tmp/ccCfq7km.s:156    .text:00000000000000a8 .L0 
     /tmp/ccCfq7km.s:176    .text:00000000000000c8 .L0 
     /tmp/ccCfq7km.s:199    .text:00000000000000e8 .L0 
     /tmp/ccCfq7km.s:211    .text:00000000000000fc .L0 
     /tmp/ccCfq7km.s:232    .text:0000000000000114 .L0 
     /tmp/ccCfq7km.s:107    .text:0000000000000078 .L6
     /tmp/ccCfq7km.s:93     .text:0000000000000068 .L7
     /tmp/ccCfq7km.s:172    .text:00000000000000c8 .L13
     /tmp/ccCfq7km.s:163    .text:00000000000000bc .L9
     /tmp/ccCfq7km.s:218    .text:0000000000000108 .L14
     /tmp/ccCfq7km.s:228    .text:0000000000000114 .L19
     /tmp/ccCfq7km.s:212    .text:0000000000000104 .L17
     /tmp/ccCfq7km.s:1182   .debug_abbrev:0000000000000000 .Ldebug_abbrev0
     /tmp/ccCfq7km.s:2197   .debug_str:00000000000000e6 .LASF98
     /tmp/ccCfq7km.s:2257   .debug_str:0000000000000312 .LASF99
     /tmp/ccCfq7km.s:2357   .debug_str:00000000000005a1 .LASF100
     /tmp/ccCfq7km.s:5      .text:0000000000000000 .Ltext0
     /tmp/ccCfq7km.s:254    .text:0000000000000128 .Letext0
     /tmp/ccCfq7km.s:2169   .debug_line:0000000000000000 .Ldebug_line0
     /tmp/ccCfq7km.s:2251   .debug_str:00000000000002eb .LASF0
     /tmp/ccCfq7km.s:2269   .debug_str:0000000000000360 .LASF1
     /tmp/ccCfq7km.s:2311   .debug_str:000000000000049a .LASF2
     /tmp/ccCfq7km.s:2317   .debug_str:00000000000004b6 .LASF4
     /tmp/ccCfq7km.s:2261   .debug_str:0000000000000331 .LASF3
     /tmp/ccCfq7km.s:2177   .debug_str:000000000000002f .LASF5
     /tmp/ccCfq7km.s:2301   .debug_str:0000000000000457 .LASF6
     /tmp/ccCfq7km.s:2297   .debug_str:000000000000043c .LASF7
     /tmp/ccCfq7km.s:2263   .debug_str:0000000000000343 .LASF8
     /tmp/ccCfq7km.s:2245   .debug_str:00000000000002c7 .LASF9
     /tmp/ccCfq7km.s:2247   .debug_str:00000000000002d7 .LASF10
     /tmp/ccCfq7km.s:2207   .debug_str:00000000000001e5 .LASF11
     /tmp/ccCfq7km.s:2237   .debug_str:00000000000002a3 .LASF12
     /tmp/ccCfq7km.s:2215   .debug_str:000000000000020c .LASF13
     /tmp/ccCfq7km.s:2205   .debug_str:00000000000001d5 .LASF14
     /tmp/ccCfq7km.s:2337   .debug_str:000000000000054d .LASF15
     /tmp/ccCfq7km.s:2231   .debug_str:000000000000027a .LASF16
     /tmp/ccCfq7km.s:2333   .debug_str:000000000000051b .LASF17
     /tmp/ccCfq7km.s:2359   .debug_str:00000000000005c4 .LASF28
     /tmp/ccCfq7km.s:2367   .debug_str:00000000000005f0 .LASF20
     /tmp/ccCfq7km.s:2265   .debug_str:0000000000000356 .LASF18
     /tmp/ccCfq7km.s:2209   .debug_str:00000000000001f4 .LASF19
     /tmp/ccCfq7km.s:2343   .debug_str:0000000000000566 .LASF21
     /tmp/ccCfq7km.s:2275   .debug_str:0000000000000386 .LASF22
     /tmp/ccCfq7km.s:2383   .debug_str:000000000000063a .LASF39
     /tmp/ccCfq7km.s:2365   .debug_str:00000000000005ea .LASF24
     /tmp/ccCfq7km.s:2219   .debug_str:000000000000022d .LASF26
     /tmp/ccCfq7km.s:2253   .debug_str:00000000000002f8 .LASF23
     /tmp/ccCfq7km.s:2327   .debug_str:00000000000004f0 .LASF29
     /tmp/ccCfq7km.s:2267   .debug_str:000000000000035b .LASF25
     /tmp/ccCfq7km.s:2307   .debug_str:0000000000000471 .LASF27
     /tmp/ccCfq7km.s:2229   .debug_str:000000000000026c .LASF30
     /tmp/ccCfq7km.s:2305   .debug_str:000000000000046a .LASF45
     /tmp/ccCfq7km.s:2189   .debug_str:00000000000000b3 .LASF47
GAS LISTING /tmp/ccCfq7km.s 			page 11


     /tmp/ccCfq7km.s:2347   .debug_str:0000000000000571 .LASF101
     /tmp/ccCfq7km.s:2203   .debug_str:00000000000001cf .LASF31
     /tmp/ccCfq7km.s:2329   .debug_str:0000000000000505 .LASF32
     /tmp/ccCfq7km.s:2213   .debug_str:0000000000000202 .LASF33
     /tmp/ccCfq7km.s:2195   .debug_str:00000000000000dd .LASF34
     /tmp/ccCfq7km.s:2299   .debug_str:000000000000044f .LASF35
     /tmp/ccCfq7km.s:2211   .debug_str:00000000000001f9 .LASF36
     /tmp/ccCfq7km.s:2341   .debug_str:000000000000055e .LASF37
     /tmp/ccCfq7km.s:2249   .debug_str:00000000000002e5 .LASF38
     /tmp/ccCfq7km.s:2363   .debug_str:00000000000005d2 .LASF40
     /tmp/ccCfq7km.s:2287   .debug_str:00000000000003ee .LASF102
     /tmp/ccCfq7km.s:2371   .debug_str:0000000000000601 .LASF41
     /tmp/ccCfq7km.s:2389   .debug_str:0000000000000664 .LASF42
     /tmp/ccCfq7km.s:2385   .debug_str:000000000000064a .LASF43
     /tmp/ccCfq7km.s:2353   .debug_str:0000000000000587 .LASF44
     /tmp/ccCfq7km.s:2227   .debug_str:0000000000000263 .LASF103
     /tmp/ccCfq7km.s:2183   .debug_str:0000000000000057 .LASF104
     /tmp/ccCfq7km.s:2271   .debug_str:0000000000000373 .LASF46
     /tmp/ccCfq7km.s:2291   .debug_str:0000000000000406 .LASF48
     /tmp/ccCfq7km.s:2349   .debug_str:0000000000000577 .LASF49
     /tmp/ccCfq7km.s:2373   .debug_str:0000000000000606 .LASF50
     /tmp/ccCfq7km.s:2321   .debug_str:00000000000004c5 .LASF51
     /tmp/ccCfq7km.s:2273   .debug_str:0000000000000379 .LASF52
     /tmp/ccCfq7km.s:2277   .debug_str:000000000000038b .LASF53
     /tmp/ccCfq7km.s:2391   .debug_str:0000000000000670 .LASF54
     /tmp/ccCfq7km.s:2233   .debug_str:0000000000000290 .LASF55
     /tmp/ccCfq7km.s:2175   .debug_str:000000000000001f .LASF56
     /tmp/ccCfq7km.s:2259   .debug_str:0000000000000324 .LASF57
     /tmp/ccCfq7km.s:2325   .debug_str:00000000000004e7 .LASF58
     /tmp/ccCfq7km.s:2283   .debug_str:00000000000003cc .LASF59
     /tmp/ccCfq7km.s:2315   .debug_str:00000000000004ad .LASF60
     /tmp/ccCfq7km.s:2335   .debug_str:0000000000000531 .LASF61
     /tmp/ccCfq7km.s:2285   .debug_str:00000000000003df .LASF62
     /tmp/ccCfq7km.s:2171   .debug_str:0000000000000000 .LASF63
     /tmp/ccCfq7km.s:2379   .debug_str:0000000000000620 .LASF64
     /tmp/ccCfq7km.s:2295   .debug_str:0000000000000422 .LASF65
     /tmp/ccCfq7km.s:2331   .debug_str:000000000000050d .LASF66
     /tmp/ccCfq7km.s:2303   .debug_str:000000000000045e .LASF67
     /tmp/ccCfq7km.s:2225   .debug_str:0000000000000253 .LASF68
     /tmp/ccCfq7km.s:2381   .debug_str:000000000000062f .LASF69
     /tmp/ccCfq7km.s:2319   .debug_str:00000000000004bd .LASF105
     /tmp/ccCfq7km.s:2355   .debug_str:0000000000000597 .LASF70
     /tmp/ccCfq7km.s:2293   .debug_str:0000000000000416 .LASF71
     /tmp/ccCfq7km.s:2223   .debug_str:0000000000000245 .LASF72
     /tmp/ccCfq7km.s:2187   .debug_str:000000000000008b .LASF74
     /tmp/ccCfq7km.s:2255   .debug_str:00000000000002fd .LASF73
     /tmp/ccCfq7km.s:2201   .debug_str:00000000000001a3 .LASF75
     /tmp/ccCfq7km.s:2377   .debug_str:0000000000000619 .LASF106
     /tmp/ccCfq7km.s:2199   .debug_str:0000000000000192 .LASF107
     /tmp/ccCfq7km.s:2173   .debug_str:000000000000001a .LASF76
     /tmp/ccCfq7km.s:2339   .debug_str:0000000000000559 .LASF77
     /tmp/ccCfq7km.s:2279   .debug_str:00000000000003a3 .LASF78
     /tmp/ccCfq7km.s:2221   .debug_str:000000000000023f .LASF79
     /tmp/ccCfq7km.s:2361   .debug_str:00000000000005ca .LASF80
     /tmp/ccCfq7km.s:2191   .debug_str:00000000000000c1 .LASF81
     /tmp/ccCfq7km.s:2243   .debug_str:00000000000002bd .LASF82
     /tmp/ccCfq7km.s:2179   .debug_str:0000000000000036 .LASF108
GAS LISTING /tmp/ccCfq7km.s 			page 12


     /tmp/ccCfq7km.s:2387   .debug_str:0000000000000650 .LASF109
     /tmp/ccCfq7km.s:2193   .debug_str:00000000000000cb .LASF83
     /tmp/ccCfq7km.s:2289   .debug_str:00000000000003f3 .LASF84
     /tmp/ccCfq7km.s:2351   .debug_str:000000000000057f .LASF85
     /tmp/ccCfq7km.s:2309   .debug_str:0000000000000482 .LASF110
     /tmp/ccCfq7km.s:2323   .debug_str:00000000000004d6 .LASF86
     /tmp/ccCfq7km.s:2217   .debug_str:000000000000021c .LASF87
     /tmp/ccCfq7km.s:2181   .debug_str:000000000000004e .LASF88
     /tmp/ccCfq7km.s:2345   .debug_str:000000000000056c .LASF89
     /tmp/ccCfq7km.s:2281   .debug_str:00000000000003ab .LASF90
     /tmp/ccCfq7km.s:2185   .debug_str:000000000000006a .LASF91
     /tmp/ccCfq7km.s:188    .text:00000000000000dc .LFB25
     /tmp/ccCfq7km.s:238    .text:0000000000000128 .LFE25
     /tmp/ccCfq7km.s:2235   .debug_str:000000000000029c .LASF92
     /tmp/ccCfq7km.s:2090   .debug_loc:0000000000000000 .LLST5
     /tmp/ccCfq7km.s:125    .text:0000000000000088 .LFB24
     /tmp/ccCfq7km.s:182    .text:00000000000000dc .LFE24
     /tmp/ccCfq7km.s:137    .text:0000000000000094 .LBB4
     /tmp/ccCfq7km.s:145    .text:0000000000000098 .LBE4
     /tmp/ccCfq7km.s:2101   .debug_loc:0000000000000036 .LLST3
     /tmp/ccCfq7km.s:2109   .debug_loc:000000000000005a .LLST4
     /tmp/ccCfq7km.s:75     .text:0000000000000050 .LFB23
     /tmp/ccCfq7km.s:119    .text:0000000000000088 .LFE23
     /tmp/ccCfq7km.s:2116   .debug_loc:000000000000007d .LLST2
     /tmp/ccCfq7km.s:2313   .debug_str:00000000000004a8 .LASF93
     /tmp/ccCfq7km.s:43     .text:0000000000000028 .LFB22
     /tmp/ccCfq7km.s:69     .text:0000000000000050 .LFE22
     /tmp/ccCfq7km.s:2128   .debug_loc:00000000000000b4 .LLST1
     /tmp/ccCfq7km.s:58     .text:0000000000000040 .LVL3
     /tmp/ccCfq7km.s:10     .text:0000000000000000 .LFB21
     /tmp/ccCfq7km.s:37     .text:0000000000000028 .LFE21
     /tmp/ccCfq7km.s:2142   .debug_loc:00000000000000ed .LLST0
     /tmp/ccCfq7km.s:26     .text:0000000000000018 .LVL1
     /tmp/ccCfq7km.s:2239   .debug_str:00000000000002b2 .LASF111
     /tmp/ccCfq7km.s:2393   .debug_str:000000000000067d .LASF94
     /tmp/ccCfq7km.s:2241   .debug_str:00000000000002b7 .LASF96
     /tmp/ccCfq7km.s:2369   .debug_str:00000000000005f5 .LASF95
     /tmp/ccCfq7km.s:2375   .debug_str:0000000000000611 .LASF97
     /tmp/ccCfq7km.s:203    .text:00000000000000f4 .LVL13
     /tmp/ccCfq7km.s:217    .text:0000000000000108 .LVL14
     /tmp/ccCfq7km.s:227    .text:0000000000000114 .LVL15
     /tmp/ccCfq7km.s:136    .text:0000000000000094 .LVL11
     /tmp/ccCfq7km.s:143    .text:0000000000000098 .LVL12
     /tmp/ccCfq7km.s:85     .text:000000000000005c .LVL4
     /tmp/ccCfq7km.s:92     .text:0000000000000068 .LVL6
     /tmp/ccCfq7km.s:111    .text:000000000000007c .LVL9
     /tmp/ccCfq7km.s:46     .text:0000000000000028 .LVL2
     /tmp/ccCfq7km.s:14     .text:0000000000000000 .LVL0
     /tmp/ccCfq7km.s:260    .debug_info:0000000000000000 .Ldebug_info0

UNDEFINED SYMBOLS
_Z7kmallocm
_Z5kfreePv
