GAS LISTING /tmp/cc2fwwyB.s 			page 1


   1              		.file	"Scheduler.cpp"
   2              		.option pic
   3              		.option norelax
   4              		.text
   5              	.Ltext0:
   6              		.align	2
   8              	_Z41__static_initialization_and_destruction_0ii:
   9              	.LFB28:
  10              		.file 1 "src/Scheduler.cpp"
   1:src/Scheduler.cpp **** //
   2:src/Scheduler.cpp **** // Created by os on 4/27/22.
   3:src/Scheduler.cpp **** //
   4:src/Scheduler.cpp **** 
   5:src/Scheduler.cpp **** #include "../h/Scheduler.h"
   6:src/Scheduler.cpp **** #include "../h/PCB.h"
   7:src/Scheduler.cpp **** 
   8:src/Scheduler.cpp **** //todo
   9:src/Scheduler.cpp **** Queue<PCB*>* Scheduler::queuePCB = (Queue<PCB*>*)MemoryAllocator::mem_alloc(sizeof(Queue<PCB*>));
  10:src/Scheduler.cpp **** 
  11:src/Scheduler.cpp **** void Scheduler::put(PCB *pcb) {
  12:src/Scheduler.cpp ****     Scheduler::queuePCB->push(pcb);
  13:src/Scheduler.cpp **** }
  14:src/Scheduler.cpp **** 
  15:src/Scheduler.cpp **** PCB *Scheduler::get() {
  16:src/Scheduler.cpp ****     PCB* fr = queuePCB->front();
  17:src/Scheduler.cpp ****     queuePCB->pop();
  18:src/Scheduler.cpp ****     return fr;
  19:src/Scheduler.cpp **** }...
  11              		.loc 1 19 1
  12              		.cfi_startproc
  13              	.LVL0:
  14 0000 93071000 		li	a5,1
  15 0004 6304F500 		beq	a0,a5,.L7
  16              	.L4:
  17 0008 67800000 		ret
  18              	.L7:
  19              		.loc 1 19 1 is_stmt 0 discriminator 1
  20 000c B7070100 		li	a5,65536
  21 0010 9387F7FF 		addi	a5,a5,-1
  22 0014 E39AF5FE 		bne	a1,a5,.L4
  23              		.loc 1 19 1
  24 0018 130101FF 		addi	sp,sp,-16
  25              		.cfi_def_cfa_offset 16
  26 001c 23341100 		sd	ra,8(sp)
  27 0020 23308100 		sd	s0,0(sp)
  28              		.cfi_offset 1, -8
  29              		.cfi_offset 8, -16
  30 0024 13040101 		addi	s0,sp,16
  31              		.cfi_def_cfa 8, 0
   9:src/Scheduler.cpp **** Queue<PCB*>* Scheduler::queuePCB = (Queue<PCB*>*)MemoryAllocator::mem_alloc(sizeof(Queue<PCB*>));
  32              		.loc 1 9 76
  33 0028 13050001 		li	a0,16
  34              	.LVL1:
  35 002c 97000000 		call	_ZN15MemoryAllocator9mem_allocEm@plt
  35      E7800000 
  36              	.LVL2:
   9:src/Scheduler.cpp **** Queue<PCB*>* Scheduler::queuePCB = (Queue<PCB*>*)MemoryAllocator::mem_alloc(sizeof(Queue<PCB*>));
GAS LISTING /tmp/cc2fwwyB.s 			page 2


  37              		.loc 1 9 14
  38 0034 97070000 		sd	a0,.LANCHOR0,a5
  38      23B0A700 
  39              		.loc 1 19 1
  40 003c 83308100 		ld	ra,8(sp)
  41              		.cfi_restore 1
  42 0040 03340100 		ld	s0,0(sp)
  43              		.cfi_restore 8
  44              		.cfi_def_cfa 2, 16
  45 0044 13010101 		addi	sp,sp,16
  46              		.cfi_def_cfa_offset 0
  47 0048 67800000 		jr	ra
  48              		.cfi_endproc
  49              	.LFE28:
  51              		.section	.text._ZN5QueueIP3PCBE4pushES1_,"axG",@progbits,_ZN5QueueIP3PCBE4pushES1_,comdat
  52              		.align	2
  53              		.weak	_ZN5QueueIP3PCBE4pushES1_
  55              	_ZN5QueueIP3PCBE4pushES1_:
  56              	.LFB25:
  57              		.file 2 "src/../h/Queue.h"
   1:src/../h/Queue.h **** //
   2:src/../h/Queue.h **** // Created by os on 4/27/22.
   3:src/../h/Queue.h **** //
   4:src/../h/Queue.h **** 
   5:src/../h/Queue.h **** #ifndef PROJECT_BASE_V1_0_QUEUE_H
   6:src/../h/Queue.h **** #define PROJECT_BASE_V1_0_QUEUE_H
   7:src/../h/Queue.h **** 
   8:src/../h/Queue.h **** #include "../lib/hw.h"
   9:src/../h/Queue.h **** #include "MemoryAllocator.h"
  10:src/../h/Queue.h **** 
  11:src/../h/Queue.h **** template <typename T>
  12:src/../h/Queue.h **** class Queue
  13:src/../h/Queue.h **** {
  14:src/../h/Queue.h **** private:
  15:src/../h/Queue.h ****     typedef struct Elem
  16:src/../h/Queue.h ****     {
  17:src/../h/Queue.h ****         T data;
  18:src/../h/Queue.h ****         struct Elem* next;
  19:src/../h/Queue.h ****     }Elem;
  20:src/../h/Queue.h ****     Elem* first;
  21:src/../h/Queue.h ****     Elem* last;
  22:src/../h/Queue.h **** public:
  23:src/../h/Queue.h ****     void pop();
  24:src/../h/Queue.h ****     T front();
  25:src/../h/Queue.h ****     void push(T t);
  26:src/../h/Queue.h ****     Queue();
  27:src/../h/Queue.h ****     ~Queue();
  28:src/../h/Queue.h **** };
  29:src/../h/Queue.h **** 
  30:src/../h/Queue.h **** template<typename T>
  31:src/../h/Queue.h **** void Queue<T>::pop() {
  32:src/../h/Queue.h ****     Elem* newFirst = first->next;
  33:src/../h/Queue.h ****     MemoryAllocator::mem_free(first);
  34:src/../h/Queue.h ****     first = newFirst;
  35:src/../h/Queue.h ****     if(first == 0)
  36:src/../h/Queue.h ****         first = last = 0;
  37:src/../h/Queue.h **** }
GAS LISTING /tmp/cc2fwwyB.s 			page 3


  38:src/../h/Queue.h **** 
  39:src/../h/Queue.h **** template<typename T>
  40:src/../h/Queue.h **** void Queue<T>::push(T t) {
  58              		.loc 2 40 6 is_stmt 1
  59              		.cfi_startproc
  60              	.LVL3:
  61 0000 130101FE 		addi	sp,sp,-32
  62              		.cfi_def_cfa_offset 32
  63 0004 233C1100 		sd	ra,24(sp)
  64 0008 23388100 		sd	s0,16(sp)
  65 000c 23349100 		sd	s1,8(sp)
  66              		.cfi_offset 1, -8
  67              		.cfi_offset 8, -16
  68              		.cfi_offset 9, -24
  69 0010 13040102 		addi	s0,sp,32
  70              		.cfi_def_cfa 8, 0
  71 0014 93040500 		mv	s1,a0
  41:src/../h/Queue.h ****     Elem* newElem = (Elem*)MemoryAllocator::mem_alloc(sizeof(Elem));
  72              		.loc 2 41 54 is_stmt 0
  73 0018 13050001 		li	a0,16
  74              	.LVL4:
  75 001c 97000000 		call	_ZN15MemoryAllocator9mem_allocEm@plt
  75      E7800000 
  76              	.LVL5:
  42:src/../h/Queue.h ****     if(first == 0) {
  77              		.loc 2 42 8
  78 0024 83B70400 		ld	a5,0(s1)
  79              		.loc 2 42 5
  80 0028 638C0700 		beqz	a5,.L11
  81              	.L8:
  43:src/../h/Queue.h ****         first = newElem;
  44:src/../h/Queue.h ****         last = 0;
  45:src/../h/Queue.h ****         first->next = last;
  46:src/../h/Queue.h ****     }
  47:src/../h/Queue.h **** }
  82              		.loc 2 47 1
  83 002c 83308101 		ld	ra,24(sp)
  84              		.cfi_remember_state
  85              		.cfi_restore 1
  86 0030 03340101 		ld	s0,16(sp)
  87              		.cfi_restore 8
  88              		.cfi_def_cfa 2, 32
  89 0034 83348100 		ld	s1,8(sp)
  90              		.cfi_restore 9
  91              	.LVL6:
  92 0038 13010102 		addi	sp,sp,32
  93              		.cfi_def_cfa_offset 0
  94 003c 67800000 		jr	ra
  95              	.LVL7:
  96              	.L11:
  97              		.cfi_restore_state
  43:src/../h/Queue.h ****         first = newElem;
  98              		.loc 2 43 9
  99 0040 23B0A400 		sd	a0,0(s1)
  44:src/../h/Queue.h ****         first->next = last;
 100              		.loc 2 44 9
 101 0044 23B40400 		sd	zero,8(s1)
GAS LISTING /tmp/cc2fwwyB.s 			page 4


  45:src/../h/Queue.h ****     }
 102              		.loc 2 45 9
 103 0048 23340500 		sd	zero,8(a0)
 104              		.loc 2 47 1
 105 004c 6FF01FFE 		j	.L8
 106              		.cfi_endproc
 107              	.LFE25:
 109              		.text
 110              		.align	2
 111              		.globl	_ZN9Scheduler3putEP3PCB
 113              	_ZN9Scheduler3putEP3PCB:
 114              	.LFB23:
  11:src/Scheduler.cpp **** void Scheduler::put(PCB *pcb) {
 115              		.loc 1 11 31 is_stmt 1
 116              		.cfi_startproc
 117              	.LVL8:
 118 004c 130101FF 		addi	sp,sp,-16
 119              		.cfi_def_cfa_offset 16
 120 0050 23341100 		sd	ra,8(sp)
 121 0054 23308100 		sd	s0,0(sp)
 122              		.cfi_offset 1, -8
 123              		.cfi_offset 8, -16
 124 0058 13040101 		addi	s0,sp,16
 125              		.cfi_def_cfa 8, 0
 126 005c 93050500 		mv	a1,a0
  12:src/Scheduler.cpp ****     Scheduler::queuePCB->push(pcb);
 127              		.loc 1 12 5
  12:src/Scheduler.cpp ****     Scheduler::queuePCB->push(pcb);
 128              		.loc 1 12 30 is_stmt 0
 129 0060 17050000 		ld	a0,.LANCHOR0
 129      03350500 
 130              	.LVL9:
 131 0068 97000000 		call	_ZN5QueueIP3PCBE4pushES1_
 131      E7800000 
 132              	.LVL10:
  13:src/Scheduler.cpp **** }
 133              		.loc 1 13 1
 134 0070 83308100 		ld	ra,8(sp)
 135              		.cfi_restore 1
 136 0074 03340100 		ld	s0,0(sp)
 137              		.cfi_restore 8
 138              		.cfi_def_cfa 2, 16
 139 0078 13010101 		addi	sp,sp,16
 140              		.cfi_def_cfa_offset 0
 141 007c 67800000 		jr	ra
 142              		.cfi_endproc
 143              	.LFE23:
 145              		.section	.text._ZN5QueueIP3PCBE5frontEv,"axG",@progbits,_ZN5QueueIP3PCBE5frontEv,comdat
 146              		.align	2
 147              		.weak	_ZN5QueueIP3PCBE5frontEv
 149              	_ZN5QueueIP3PCBE5frontEv:
 150              	.LFB26:
  48:src/../h/Queue.h **** 
  49:src/../h/Queue.h **** template<typename T>
  50:src/../h/Queue.h **** T Queue<T>::front() {
 151              		.loc 2 50 3 is_stmt 1
 152              		.cfi_startproc
GAS LISTING /tmp/cc2fwwyB.s 			page 5


 153              	.LVL11:
 154 0000 130101FF 		addi	sp,sp,-16
 155              		.cfi_def_cfa_offset 16
 156 0004 23348100 		sd	s0,8(sp)
 157              		.cfi_offset 8, -8
 158 0008 13040101 		addi	s0,sp,16
 159              		.cfi_def_cfa 8, 0
  51:src/../h/Queue.h ****     if(first == 0)
 160              		.loc 2 51 8 is_stmt 0
 161 000c 03350500 		ld	a0,0(a0)
 162              	.LVL12:
 163              		.loc 2 51 5
 164 0010 63040500 		beqz	a0,.L14
  52:src/../h/Queue.h ****         return 0;
  53:src/../h/Queue.h ****     return first->data;
 165              		.loc 2 53 19
 166 0014 03350500 		ld	a0,0(a0)
 167              	.L14:
  54:src/../h/Queue.h **** }
 168              		.loc 2 54 1
 169 0018 03348100 		ld	s0,8(sp)
 170              		.cfi_restore 8
 171              		.cfi_def_cfa 2, 16
 172 001c 13010101 		addi	sp,sp,16
 173              		.cfi_def_cfa_offset 0
 174 0020 67800000 		jr	ra
 175              		.cfi_endproc
 176              	.LFE26:
 178              		.section	.text._ZN5QueueIP3PCBE3popEv,"axG",@progbits,_ZN5QueueIP3PCBE3popEv,comdat
 179              		.align	2
 180              		.weak	_ZN5QueueIP3PCBE3popEv
 182              	_ZN5QueueIP3PCBE3popEv:
 183              	.LFB27:
  31:src/../h/Queue.h ****     Elem* newFirst = first->next;
 184              		.loc 2 31 6 is_stmt 1
 185              		.cfi_startproc
 186              	.LVL13:
 187 0000 130101FE 		addi	sp,sp,-32
 188              		.cfi_def_cfa_offset 32
 189 0004 233C1100 		sd	ra,24(sp)
 190 0008 23388100 		sd	s0,16(sp)
 191 000c 23349100 		sd	s1,8(sp)
 192 0010 23302101 		sd	s2,0(sp)
 193              		.cfi_offset 1, -8
 194              		.cfi_offset 8, -16
 195              		.cfi_offset 9, -24
 196              		.cfi_offset 18, -32
 197 0014 13040102 		addi	s0,sp,32
 198              		.cfi_def_cfa 8, 0
 199 0018 93040500 		mv	s1,a0
  32:src/../h/Queue.h ****     MemoryAllocator::mem_free(first);
 200              		.loc 2 32 22 is_stmt 0
 201 001c 03350500 		ld	a0,0(a0)
 202              	.LVL14:
  32:src/../h/Queue.h ****     MemoryAllocator::mem_free(first);
 203              		.loc 2 32 11
 204 0020 03398500 		ld	s2,8(a0)
GAS LISTING /tmp/cc2fwwyB.s 			page 6


 205              	.LVL15:
  33:src/../h/Queue.h ****     first = newFirst;
 206              		.loc 2 33 30
 207 0024 97000000 		call	_ZN15MemoryAllocator8mem_freeEPv@plt
 207      E7800000 
 208              	.LVL16:
  34:src/../h/Queue.h ****     if(first == 0)
 209              		.loc 2 34 5
 210 002c 23B02401 		sd	s2,0(s1)
  35:src/../h/Queue.h ****         first = last = 0;
 211              		.loc 2 35 5
 212 0030 630E0900 		beqz	s2,.L20
 213              	.L17:
  37:src/../h/Queue.h **** 
 214              		.loc 2 37 1
 215 0034 83308101 		ld	ra,24(sp)
 216              		.cfi_remember_state
 217              		.cfi_restore 1
 218 0038 03340101 		ld	s0,16(sp)
 219              		.cfi_restore 8
 220              		.cfi_def_cfa 2, 32
 221 003c 83348100 		ld	s1,8(sp)
 222              		.cfi_restore 9
 223              	.LVL17:
 224 0040 03390100 		ld	s2,0(sp)
 225              		.cfi_restore 18
 226              	.LVL18:
 227 0044 13010102 		addi	sp,sp,32
 228              		.cfi_def_cfa_offset 0
 229 0048 67800000 		jr	ra
 230              	.LVL19:
 231              	.L20:
 232              		.cfi_restore_state
  36:src/../h/Queue.h **** }
 233              		.loc 2 36 9
 234 004c 23B40400 		sd	zero,8(s1)
 235 0050 23B00400 		sd	zero,0(s1)
  37:src/../h/Queue.h **** 
 236              		.loc 2 37 1
 237 0054 6FF01FFE 		j	.L17
 238              		.cfi_endproc
 239              	.LFE27:
 241              		.text
 242              		.align	2
 243              		.globl	_ZN9Scheduler3getEv
 245              	_ZN9Scheduler3getEv:
 246              	.LFB24:
  15:src/Scheduler.cpp **** PCB *Scheduler::get() {
 247              		.loc 1 15 23 is_stmt 1
 248              		.cfi_startproc
 249 0080 130101FE 		addi	sp,sp,-32
 250              		.cfi_def_cfa_offset 32
 251 0084 233C1100 		sd	ra,24(sp)
 252 0088 23388100 		sd	s0,16(sp)
 253 008c 23349100 		sd	s1,8(sp)
 254 0090 23302101 		sd	s2,0(sp)
 255              		.cfi_offset 1, -8
GAS LISTING /tmp/cc2fwwyB.s 			page 7


 256              		.cfi_offset 8, -16
 257              		.cfi_offset 9, -24
 258              		.cfi_offset 18, -32
 259 0094 13040102 		addi	s0,sp,32
 260              		.cfi_def_cfa 8, 0
  16:src/Scheduler.cpp ****     PCB* fr = queuePCB->front();
 261              		.loc 1 16 5
  16:src/Scheduler.cpp ****     PCB* fr = queuePCB->front();
 262              		.loc 1 16 30 is_stmt 0
 263 0098 17090000 		ld	s2,.LANCHOR0
 263      03390900 
 264 00a0 13050900 		mv	a0,s2
 265 00a4 97000000 		call	_ZN5QueueIP3PCBE5frontEv
 265      E7800000 
 266              	.LVL20:
 267 00ac 93040500 		mv	s1,a0
 268              	.LVL21:
  17:src/Scheduler.cpp ****     queuePCB->pop();
 269              		.loc 1 17 5 is_stmt 1
  17:src/Scheduler.cpp ****     queuePCB->pop();
 270              		.loc 1 17 18 is_stmt 0
 271 00b0 13050900 		mv	a0,s2
 272 00b4 97000000 		call	_ZN5QueueIP3PCBE3popEv
 272      E7800000 
 273              	.LVL22:
  18:src/Scheduler.cpp ****     return fr;
 274              		.loc 1 18 5 is_stmt 1
 275              		.loc 1 19 1 is_stmt 0
 276 00bc 13850400 		mv	a0,s1
 277 00c0 83308101 		ld	ra,24(sp)
 278              		.cfi_restore 1
 279 00c4 03340101 		ld	s0,16(sp)
 280              		.cfi_restore 8
 281              		.cfi_def_cfa 2, 32
 282 00c8 83348100 		ld	s1,8(sp)
 283              		.cfi_restore 9
 284              	.LVL23:
 285 00cc 03390100 		ld	s2,0(sp)
 286              		.cfi_restore 18
 287 00d0 13010102 		addi	sp,sp,32
 288              		.cfi_def_cfa_offset 0
 289 00d4 67800000 		jr	ra
 290              		.cfi_endproc
 291              	.LFE24:
 293              		.align	2
 295              	_GLOBAL__sub_I__ZN9Scheduler8queuePCBE:
 296              	.LFB29:
 297              		.loc 1 19 1 is_stmt 1
 298              		.cfi_startproc
 299 00d8 130101FF 		addi	sp,sp,-16
 300              		.cfi_def_cfa_offset 16
 301 00dc 23341100 		sd	ra,8(sp)
 302 00e0 23308100 		sd	s0,0(sp)
 303              		.cfi_offset 1, -8
 304              		.cfi_offset 8, -16
 305 00e4 13040101 		addi	s0,sp,16
 306              		.cfi_def_cfa 8, 0
GAS LISTING /tmp/cc2fwwyB.s 			page 8


 307              		.loc 1 19 1 is_stmt 0
 308 00e8 B7050100 		li	a1,65536
 309 00ec 9385F5FF 		addi	a1,a1,-1
 310 00f0 13051000 		li	a0,1
 311 00f4 97000000 		call	_Z41__static_initialization_and_destruction_0ii
 311      E7800000 
 312              	.LVL24:
 313 00fc 83308100 		ld	ra,8(sp)
 314              		.cfi_restore 1
 315 0100 03340100 		ld	s0,0(sp)
 316              		.cfi_restore 8
 317              		.cfi_def_cfa 2, 16
 318 0104 13010101 		addi	sp,sp,16
 319              		.cfi_def_cfa_offset 0
 320 0108 67800000 		jr	ra
 321              		.cfi_endproc
 322              	.LFE29:
 324              		.section	.init_array,"aw"
 325              		.align	3
 326 0000 00000000 		.dword	_GLOBAL__sub_I__ZN9Scheduler8queuePCBE
 326      00000000 
 327              		.globl	_ZN9Scheduler8queuePCBE
 328              		.bss
 329              		.align	3
 330              		.set	.LANCHOR0,. + 0
 333              	_ZN9Scheduler8queuePCBE:
 334 0000 00000000 		.zero	8
 334      00000000 
 335              		.text
 336              	.Letext0:
 337              		.file 3 "src/../h/../lib/hw.h"
 338              		.file 4 "src/../h/MemoryAllocator.h"
 339              		.file 5 "src/../h/Scheduler.h"
 340              		.file 6 "src/../h/PCB.h"
GAS LISTING /tmp/cc2fwwyB.s 			page 9


DEFINED SYMBOLS
                            *ABS*:0000000000000000 Scheduler.cpp
     /tmp/cc2fwwyB.s:8      .text:0000000000000000 _Z41__static_initialization_and_destruction_0ii
     /tmp/cc2fwwyB.s:12     .text:0000000000000000 .L0 
     /tmp/cc2fwwyB.s:14     .text:0000000000000000 .L0 
     /tmp/cc2fwwyB.s:20     .text:000000000000000c .L0 
     /tmp/cc2fwwyB.s:24     .text:0000000000000018 .L0 
     /tmp/cc2fwwyB.s:25     .text:000000000000001c .L0 
     /tmp/cc2fwwyB.s:28     .text:0000000000000024 .L0 
     /tmp/cc2fwwyB.s:29     .text:0000000000000024 .L0 
     /tmp/cc2fwwyB.s:31     .text:0000000000000028 .L0 
     /tmp/cc2fwwyB.s:33     .text:0000000000000028 .L0 
     /tmp/cc2fwwyB.s:38     .text:0000000000000034 .L0 
     /tmp/cc2fwwyB.s:40     .text:000000000000003c .L0 
     /tmp/cc2fwwyB.s:41     .text:0000000000000040 .L0 
     /tmp/cc2fwwyB.s:43     .text:0000000000000044 .L0 
     /tmp/cc2fwwyB.s:44     .text:0000000000000044 .L0 
     /tmp/cc2fwwyB.s:46     .text:0000000000000048 .L0 
     /tmp/cc2fwwyB.s:48     .text:000000000000004c .L0 
     /tmp/cc2fwwyB.s:55     .text._ZN5QueueIP3PCBE4pushES1_:0000000000000000 _ZN5QueueIP3PCBE4pushES1_
     /tmp/cc2fwwyB.s:59     .text._ZN5QueueIP3PCBE4pushES1_:0000000000000000 .L0 
     /tmp/cc2fwwyB.s:61     .text._ZN5QueueIP3PCBE4pushES1_:0000000000000000 .L0 
     /tmp/cc2fwwyB.s:62     .text._ZN5QueueIP3PCBE4pushES1_:0000000000000004 .L0 
     /tmp/cc2fwwyB.s:66     .text._ZN5QueueIP3PCBE4pushES1_:0000000000000010 .L0 
     /tmp/cc2fwwyB.s:67     .text._ZN5QueueIP3PCBE4pushES1_:0000000000000010 .L0 
     /tmp/cc2fwwyB.s:68     .text._ZN5QueueIP3PCBE4pushES1_:0000000000000010 .L0 
     /tmp/cc2fwwyB.s:70     .text._ZN5QueueIP3PCBE4pushES1_:0000000000000014 .L0 
     /tmp/cc2fwwyB.s:73     .text._ZN5QueueIP3PCBE4pushES1_:0000000000000018 .L0 
     /tmp/cc2fwwyB.s:78     .text._ZN5QueueIP3PCBE4pushES1_:0000000000000024 .L0 
     /tmp/cc2fwwyB.s:80     .text._ZN5QueueIP3PCBE4pushES1_:0000000000000028 .L0 
     /tmp/cc2fwwyB.s:83     .text._ZN5QueueIP3PCBE4pushES1_:000000000000002c .L0 
     /tmp/cc2fwwyB.s:84     .text._ZN5QueueIP3PCBE4pushES1_:0000000000000030 .L0 
     /tmp/cc2fwwyB.s:85     .text._ZN5QueueIP3PCBE4pushES1_:0000000000000030 .L0 
     /tmp/cc2fwwyB.s:87     .text._ZN5QueueIP3PCBE4pushES1_:0000000000000034 .L0 
     /tmp/cc2fwwyB.s:88     .text._ZN5QueueIP3PCBE4pushES1_:0000000000000034 .L0 
     /tmp/cc2fwwyB.s:90     .text._ZN5QueueIP3PCBE4pushES1_:0000000000000038 .L0 
     /tmp/cc2fwwyB.s:93     .text._ZN5QueueIP3PCBE4pushES1_:000000000000003c .L0 
     /tmp/cc2fwwyB.s:97     .text._ZN5QueueIP3PCBE4pushES1_:0000000000000040 .L0 
     /tmp/cc2fwwyB.s:99     .text._ZN5QueueIP3PCBE4pushES1_:0000000000000040 .L0 
     /tmp/cc2fwwyB.s:101    .text._ZN5QueueIP3PCBE4pushES1_:0000000000000044 .L0 
     /tmp/cc2fwwyB.s:103    .text._ZN5QueueIP3PCBE4pushES1_:0000000000000048 .L0 
     /tmp/cc2fwwyB.s:105    .text._ZN5QueueIP3PCBE4pushES1_:000000000000004c .L0 
     /tmp/cc2fwwyB.s:106    .text._ZN5QueueIP3PCBE4pushES1_:0000000000000050 .L0 
     /tmp/cc2fwwyB.s:113    .text:000000000000004c _ZN9Scheduler3putEP3PCB
     /tmp/cc2fwwyB.s:116    .text:000000000000004c .L0 
     /tmp/cc2fwwyB.s:118    .text:000000000000004c .L0 
     /tmp/cc2fwwyB.s:119    .text:0000000000000050 .L0 
     /tmp/cc2fwwyB.s:122    .text:0000000000000058 .L0 
     /tmp/cc2fwwyB.s:123    .text:0000000000000058 .L0 
     /tmp/cc2fwwyB.s:125    .text:000000000000005c .L0 
     /tmp/cc2fwwyB.s:128    .text:0000000000000060 .L0 
     /tmp/cc2fwwyB.s:129    .text:0000000000000060 .L0 
     /tmp/cc2fwwyB.s:134    .text:0000000000000070 .L0 
     /tmp/cc2fwwyB.s:135    .text:0000000000000074 .L0 
     /tmp/cc2fwwyB.s:137    .text:0000000000000078 .L0 
     /tmp/cc2fwwyB.s:138    .text:0000000000000078 .L0 
     /tmp/cc2fwwyB.s:140    .text:000000000000007c .L0 
GAS LISTING /tmp/cc2fwwyB.s 			page 10


     /tmp/cc2fwwyB.s:142    .text:0000000000000080 .L0 
     /tmp/cc2fwwyB.s:149    .text._ZN5QueueIP3PCBE5frontEv:0000000000000000 _ZN5QueueIP3PCBE5frontEv
     /tmp/cc2fwwyB.s:152    .text._ZN5QueueIP3PCBE5frontEv:0000000000000000 .L0 
     /tmp/cc2fwwyB.s:154    .text._ZN5QueueIP3PCBE5frontEv:0000000000000000 .L0 
     /tmp/cc2fwwyB.s:155    .text._ZN5QueueIP3PCBE5frontEv:0000000000000004 .L0 
     /tmp/cc2fwwyB.s:157    .text._ZN5QueueIP3PCBE5frontEv:0000000000000008 .L0 
     /tmp/cc2fwwyB.s:159    .text._ZN5QueueIP3PCBE5frontEv:000000000000000c .L0 
     /tmp/cc2fwwyB.s:161    .text._ZN5QueueIP3PCBE5frontEv:000000000000000c .L0 
     /tmp/cc2fwwyB.s:164    .text._ZN5QueueIP3PCBE5frontEv:0000000000000010 .L0 
     /tmp/cc2fwwyB.s:166    .text._ZN5QueueIP3PCBE5frontEv:0000000000000014 .L0 
     /tmp/cc2fwwyB.s:169    .text._ZN5QueueIP3PCBE5frontEv:0000000000000018 .L0 
     /tmp/cc2fwwyB.s:170    .text._ZN5QueueIP3PCBE5frontEv:000000000000001c .L0 
     /tmp/cc2fwwyB.s:171    .text._ZN5QueueIP3PCBE5frontEv:000000000000001c .L0 
     /tmp/cc2fwwyB.s:173    .text._ZN5QueueIP3PCBE5frontEv:0000000000000020 .L0 
     /tmp/cc2fwwyB.s:175    .text._ZN5QueueIP3PCBE5frontEv:0000000000000024 .L0 
     /tmp/cc2fwwyB.s:182    .text._ZN5QueueIP3PCBE3popEv:0000000000000000 _ZN5QueueIP3PCBE3popEv
     /tmp/cc2fwwyB.s:185    .text._ZN5QueueIP3PCBE3popEv:0000000000000000 .L0 
     /tmp/cc2fwwyB.s:187    .text._ZN5QueueIP3PCBE3popEv:0000000000000000 .L0 
     /tmp/cc2fwwyB.s:188    .text._ZN5QueueIP3PCBE3popEv:0000000000000004 .L0 
     /tmp/cc2fwwyB.s:193    .text._ZN5QueueIP3PCBE3popEv:0000000000000014 .L0 
     /tmp/cc2fwwyB.s:194    .text._ZN5QueueIP3PCBE3popEv:0000000000000014 .L0 
     /tmp/cc2fwwyB.s:195    .text._ZN5QueueIP3PCBE3popEv:0000000000000014 .L0 
     /tmp/cc2fwwyB.s:196    .text._ZN5QueueIP3PCBE3popEv:0000000000000014 .L0 
     /tmp/cc2fwwyB.s:198    .text._ZN5QueueIP3PCBE3popEv:0000000000000018 .L0 
     /tmp/cc2fwwyB.s:201    .text._ZN5QueueIP3PCBE3popEv:000000000000001c .L0 
     /tmp/cc2fwwyB.s:204    .text._ZN5QueueIP3PCBE3popEv:0000000000000020 .L0 
     /tmp/cc2fwwyB.s:207    .text._ZN5QueueIP3PCBE3popEv:0000000000000024 .L0 
     /tmp/cc2fwwyB.s:210    .text._ZN5QueueIP3PCBE3popEv:000000000000002c .L0 
     /tmp/cc2fwwyB.s:212    .text._ZN5QueueIP3PCBE3popEv:0000000000000030 .L0 
     /tmp/cc2fwwyB.s:215    .text._ZN5QueueIP3PCBE3popEv:0000000000000034 .L0 
     /tmp/cc2fwwyB.s:216    .text._ZN5QueueIP3PCBE3popEv:0000000000000038 .L0 
     /tmp/cc2fwwyB.s:217    .text._ZN5QueueIP3PCBE3popEv:0000000000000038 .L0 
     /tmp/cc2fwwyB.s:219    .text._ZN5QueueIP3PCBE3popEv:000000000000003c .L0 
     /tmp/cc2fwwyB.s:220    .text._ZN5QueueIP3PCBE3popEv:000000000000003c .L0 
     /tmp/cc2fwwyB.s:222    .text._ZN5QueueIP3PCBE3popEv:0000000000000040 .L0 
     /tmp/cc2fwwyB.s:225    .text._ZN5QueueIP3PCBE3popEv:0000000000000044 .L0 
     /tmp/cc2fwwyB.s:228    .text._ZN5QueueIP3PCBE3popEv:0000000000000048 .L0 
     /tmp/cc2fwwyB.s:232    .text._ZN5QueueIP3PCBE3popEv:000000000000004c .L0 
     /tmp/cc2fwwyB.s:234    .text._ZN5QueueIP3PCBE3popEv:000000000000004c .L0 
     /tmp/cc2fwwyB.s:237    .text._ZN5QueueIP3PCBE3popEv:0000000000000054 .L0 
     /tmp/cc2fwwyB.s:238    .text._ZN5QueueIP3PCBE3popEv:0000000000000058 .L0 
     /tmp/cc2fwwyB.s:245    .text:0000000000000080 _ZN9Scheduler3getEv
     /tmp/cc2fwwyB.s:248    .text:0000000000000080 .L0 
     /tmp/cc2fwwyB.s:249    .text:0000000000000080 .L0 
     /tmp/cc2fwwyB.s:250    .text:0000000000000084 .L0 
     /tmp/cc2fwwyB.s:255    .text:0000000000000094 .L0 
     /tmp/cc2fwwyB.s:256    .text:0000000000000094 .L0 
     /tmp/cc2fwwyB.s:257    .text:0000000000000094 .L0 
     /tmp/cc2fwwyB.s:258    .text:0000000000000094 .L0 
     /tmp/cc2fwwyB.s:260    .text:0000000000000098 .L0 
     /tmp/cc2fwwyB.s:262    .text:0000000000000098 .L0 
     /tmp/cc2fwwyB.s:263    .text:0000000000000098 .L0 
     /tmp/cc2fwwyB.s:270    .text:00000000000000b0 .L0 
     /tmp/cc2fwwyB.s:271    .text:00000000000000b0 .L0 
     /tmp/cc2fwwyB.s:275    .text:00000000000000bc .L0 
     /tmp/cc2fwwyB.s:276    .text:00000000000000bc .L0 
     /tmp/cc2fwwyB.s:278    .text:00000000000000c4 .L0 
GAS LISTING /tmp/cc2fwwyB.s 			page 11


     /tmp/cc2fwwyB.s:280    .text:00000000000000c8 .L0 
     /tmp/cc2fwwyB.s:281    .text:00000000000000c8 .L0 
     /tmp/cc2fwwyB.s:283    .text:00000000000000cc .L0 
     /tmp/cc2fwwyB.s:286    .text:00000000000000d0 .L0 
     /tmp/cc2fwwyB.s:288    .text:00000000000000d4 .L0 
     /tmp/cc2fwwyB.s:290    .text:00000000000000d8 .L0 
     /tmp/cc2fwwyB.s:295    .text:00000000000000d8 _GLOBAL__sub_I__ZN9Scheduler8queuePCBE
     /tmp/cc2fwwyB.s:298    .text:00000000000000d8 .L0 
     /tmp/cc2fwwyB.s:299    .text:00000000000000d8 .L0 
     /tmp/cc2fwwyB.s:300    .text:00000000000000dc .L0 
     /tmp/cc2fwwyB.s:303    .text:00000000000000e4 .L0 
     /tmp/cc2fwwyB.s:304    .text:00000000000000e4 .L0 
     /tmp/cc2fwwyB.s:306    .text:00000000000000e8 .L0 
     /tmp/cc2fwwyB.s:308    .text:00000000000000e8 .L0 
     /tmp/cc2fwwyB.s:314    .text:0000000000000100 .L0 
     /tmp/cc2fwwyB.s:316    .text:0000000000000104 .L0 
     /tmp/cc2fwwyB.s:317    .text:0000000000000104 .L0 
     /tmp/cc2fwwyB.s:319    .text:0000000000000108 .L0 
     /tmp/cc2fwwyB.s:321    .text:000000000000010c .L0 
     /tmp/cc2fwwyB.s:333    .bss:0000000000000000 _ZN9Scheduler8queuePCBE
     /tmp/cc2fwwyB.s:330    .bss:0000000000000000 .LANCHOR0
     /tmp/cc2fwwyB.s:341    .text:000000000000010c .L0 
     /tmp/cc2fwwyB.s:109    .text._ZN5QueueIP3PCBE4pushES1_:0000000000000050 .L0 
     /tmp/cc2fwwyB.s:178    .text._ZN5QueueIP3PCBE5frontEv:0000000000000024 .L0 
     /tmp/cc2fwwyB.s:241    .text._ZN5QueueIP3PCBE3popEv:0000000000000058 .L0 
     /tmp/cc2fwwyB.s:38     .text:0000000000000034 .L0 
     /tmp/cc2fwwyB.s:129    .text:0000000000000060 .L0 
     /tmp/cc2fwwyB.s:263    .text:0000000000000098 .L0 
     /tmp/cc2fwwyB.s:18     .text:000000000000000c .L7
     /tmp/cc2fwwyB.s:16     .text:0000000000000008 .L4
     /tmp/cc2fwwyB.s:96     .text._ZN5QueueIP3PCBE4pushES1_:0000000000000040 .L11
     /tmp/cc2fwwyB.s:81     .text._ZN5QueueIP3PCBE4pushES1_:000000000000002c .L8
     /tmp/cc2fwwyB.s:167    .text._ZN5QueueIP3PCBE5frontEv:0000000000000018 .L14
     /tmp/cc2fwwyB.s:231    .text._ZN5QueueIP3PCBE3popEv:000000000000004c .L20
     /tmp/cc2fwwyB.s:213    .text._ZN5QueueIP3PCBE3popEv:0000000000000034 .L17
     /tmp/cc2fwwyB.s:1302   .debug_abbrev:0000000000000000 .Ldebug_abbrev0
     /tmp/cc2fwwyB.s:2419   .debug_str:00000000000003f2 .LASF95
     /tmp/cc2fwwyB.s:2383   .debug_str:00000000000002d2 .LASF96
     /tmp/cc2fwwyB.s:2481   .debug_str:0000000000000660 .LASF97
     /tmp/cc2fwwyB.s:2289   .debug_ranges:0000000000000000 .Ldebug_ranges0
     /tmp/cc2fwwyB.s:2301   .debug_line:0000000000000000 .Ldebug_line0
     /tmp/cc2fwwyB.s:2379   .debug_str:00000000000002c0 .LASF0
     /tmp/cc2fwwyB.s:2395   .debug_str:0000000000000320 .LASF1
     /tmp/cc2fwwyB.s:2443   .debug_str:0000000000000552 .LASF2
     /tmp/cc2fwwyB.s:2447   .debug_str:0000000000000575 .LASF4
     /tmp/cc2fwwyB.s:2387   .debug_str:00000000000002f1 .LASF3
     /tmp/cc2fwwyB.s:2315   .debug_str:00000000000000a2 .LASF5
     /tmp/cc2fwwyB.s:2433   .debug_str:000000000000050b .LASF6
     /tmp/cc2fwwyB.s:2429   .debug_str:00000000000004e8 .LASF7
     /tmp/cc2fwwyB.s:2389   .debug_str:0000000000000303 .LASF8
     /tmp/cc2fwwyB.s:2367   .debug_str:0000000000000247 .LASF9
     /tmp/cc2fwwyB.s:2369   .debug_str:0000000000000257 .LASF10
     /tmp/cc2fwwyB.s:2339   .debug_str:00000000000001a2 .LASF11
     /tmp/cc2fwwyB.s:2357   .debug_str:0000000000000217 .LASF12
     /tmp/cc2fwwyB.s:2345   .debug_str:00000000000001be .LASF13
     /tmp/cc2fwwyB.s:2337   .debug_str:0000000000000192 .LASF14
     /tmp/cc2fwwyB.s:2457   .debug_str:00000000000005b9 .LASF15
GAS LISTING /tmp/cc2fwwyB.s 			page 12


     /tmp/cc2fwwyB.s:2353   .debug_str:00000000000001f5 .LASF16
     /tmp/cc2fwwyB.s:2453   .debug_str:000000000000059b .LASF17
     /tmp/cc2fwwyB.s:2427   .debug_str:00000000000004d8 .LASF39
     /tmp/cc2fwwyB.s:2333   .debug_str:0000000000000174 .LASF20
     /tmp/cc2fwwyB.s:2393   .debug_str:000000000000031b .LASF18
     /tmp/cc2fwwyB.s:2341   .debug_str:00000000000001b1 .LASF19
     /tmp/cc2fwwyB.s:2441   .debug_str:0000000000000540 .LASF21
     /tmp/cc2fwwyB.s:2363   .debug_str:0000000000000234 .LASF22
     /tmp/cc2fwwyB.s:2397   .debug_str:0000000000000333 .LASF23
     /tmp/cc2fwwyB.s:2401   .debug_str:0000000000000347 .LASF24
     /tmp/cc2fwwyB.s:2361   .debug_str:000000000000022b .LASF25
     /tmp/cc2fwwyB.s:2513   .debug_str:0000000000000727 .LASF26
     /tmp/cc2fwwyB.s:2415   .debug_str:00000000000003c7 .LASF27
     /tmp/cc2fwwyB.s:2317   .debug_str:00000000000000a9 .LASF29
     /tmp/cc2fwwyB.s:2461   .debug_str:00000000000005ce .LASF28
     /tmp/cc2fwwyB.s:2417   .debug_str:00000000000003d1 .LASF30
     /tmp/cc2fwwyB.s:2491   .debug_str:000000000000069c .LASF46
     /tmp/cc2fwwyB.s:2479   .debug_str:000000000000063d .LASF48
     /tmp/cc2fwwyB.s:2437   .debug_str:000000000000051e .LASF33
     /tmp/cc2fwwyB.s:2311   .debug_str:0000000000000054 .LASF35
     /tmp/cc2fwwyB.s:2497   .debug_str:00000000000006c7 .LASF31
     /tmp/cc2fwwyB.s:2309   .debug_str:0000000000000026 .LASF32
     /tmp/cc2fwwyB.s:2465   .debug_str:00000000000005dd .LASF34
     /tmp/cc2fwwyB.s:2375   .debug_str:000000000000028b .LASF36
     /tmp/cc2fwwyB.s:2303   .debug_str:0000000000000000 .LASF37
     /tmp/cc2fwwyB.s:2421   .debug_str:0000000000000494 .LASF38
     /tmp/cc2fwwyB.s:2365   .debug_str:000000000000023d .LASF40
     /tmp/cc2fwwyB.s:2319   .debug_str:00000000000000ca .LASF98
     /tmp/cc2fwwyB.s:2503   .debug_str:00000000000006ef .LASF99
     /tmp/cc2fwwyB.s:2321   .debug_str:00000000000000e2 .LASF41
     /tmp/cc2fwwyB.s:2343   .debug_str:00000000000001b6 .LASF42
     /tmp/cc2fwwyB.s:2377   .debug_str:00000000000002ba .LASF43
     /tmp/cc2fwwyB.s:2493   .debug_str:00000000000006a7 .LASF74
     /tmp/cc2fwwyB.s:2423   .debug_str:00000000000004be .LASF100
     /tmp/cc2fwwyB.s:2501   .debug_str:00000000000006e9 .LASF44
     /tmp/cc2fwwyB.s:2475   .debug_str:0000000000000623 .LASF45
     /tmp/cc2fwwyB.s:2351   .debug_str:00000000000001ec .LASF47
     /tmp/cc2fwwyB.s:2323   .debug_str:00000000000000eb .LASF49
     /tmp/cc2fwwyB.s:2399   .debug_str:0000000000000341 .LASF50
     /tmp/cc2fwwyB.s:2431   .debug_str:00000000000004fb .LASF51
     /tmp/cc2fwwyB.s:2471   .debug_str:0000000000000601 .LASF55
     /tmp/cc2fwwyB.s:2451   .debug_str:000000000000058d .LASF52
     /tmp/cc2fwwyB.s:2435   .debug_str:0000000000000512 .LASF53
     /tmp/cc2fwwyB.s:2349   .debug_str:00000000000001dc .LASF54
     /tmp/cc2fwwyB.s:2449   .debug_str:000000000000057c .LASF56
     /tmp/cc2fwwyB.s:2403   .debug_str:000000000000035a .LASF76
     /tmp/cc2fwwyB.s:2409   .debug_str:0000000000000393 .LASF78
     /tmp/cc2fwwyB.s:2331   .debug_str:0000000000000168 .LASF57
     /tmp/cc2fwwyB.s:2371   .debug_str:0000000000000265 .LASF58
     /tmp/cc2fwwyB.s:2509   .debug_str:0000000000000713 .LASF59
     /tmp/cc2fwwyB.s:2355   .debug_str:000000000000020b .LASF60
     /tmp/cc2fwwyB.s:2307   .debug_str:0000000000000016 .LASF61
     /tmp/cc2fwwyB.s:2385   .debug_str:00000000000002e4 .LASF62
     /tmp/cc2fwwyB.s:2477   .debug_str:0000000000000633 .LASF63
     /tmp/cc2fwwyB.s:2347   .debug_str:00000000000001ce .LASF101
     /tmp/cc2fwwyB.s:2327   .debug_str:0000000000000116 .LASF102
     /tmp/cc2fwwyB.s:2511   .debug_str:0000000000000720 .LASF103
GAS LISTING /tmp/cc2fwwyB.s 			page 13


     /tmp/cc2fwwyB.s:2335   .debug_str:0000000000000181 .LASF104
     /tmp/cc2fwwyB.s:2305   .debug_str:0000000000000011 .LASF64
     /tmp/cc2fwwyB.s:2505   .debug_str:0000000000000703 .LASF65
     /tmp/cc2fwwyB.s:2485   .debug_str:0000000000000689 .LASF66
     /tmp/cc2fwwyB.s:2469   .debug_str:00000000000005f7 .LASF67
     /tmp/cc2fwwyB.s:2459   .debug_str:00000000000005c5 .LASF68
     /tmp/cc2fwwyB.s:2499   .debug_str:00000000000006dd .LASF69
     /tmp/cc2fwwyB.s:2489   .debug_str:0000000000000697 .LASF70
     /tmp/cc2fwwyB.s:2391   .debug_str:0000000000000316 .LASF71
     /tmp/cc2fwwyB.s:2463   .debug_str:00000000000005d7 .LASF72
     /tmp/cc2fwwyB.s:2407   .debug_str:000000000000038e .LASF73
     /tmp/cc2fwwyB.s:2413   .debug_str:00000000000003b0 .LASF75
     /tmp/cc2fwwyB.s:2487   .debug_str:0000000000000691 .LASF77
     /tmp/cc2fwwyB.s:2313   .debug_str:0000000000000089 .LASF79
     /tmp/cc2fwwyB.s:2381   .debug_str:00000000000002cd .LASF80
     /tmp/cc2fwwyB.s:2473   .debug_str:0000000000000609 .LASF81
     /tmp/cc2fwwyB.s:2483   .debug_str:0000000000000683 .LASF82
     /tmp/cc2fwwyB.s:2445   .debug_str:0000000000000560 .LASF83
     /tmp/cc2fwwyB.s:2439   .debug_str:0000000000000539 .LASF84
     /tmp/cc2fwwyB.s:2425   .debug_str:00000000000004c3 .LASF85
     /tmp/cc2fwwyB.s:2467   .debug_str:00000000000005f2 .LASF86
     /tmp/cc2fwwyB.s:2411   .debug_str:00000000000003ab .LASF87
     /tmp/cc2fwwyB.s:2325   .debug_str:00000000000000fe .LASF105
     /tmp/cc2fwwyB.s:2405   .debug_str:0000000000000367 .LASF88
     /tmp/cc2fwwyB.s:296    .text:00000000000000d8 .LFB29
     /tmp/cc2fwwyB.s:322    .text:000000000000010c .LFE29
     /tmp/cc2fwwyB.s:312    .text:00000000000000fc .LVL24
     /tmp/cc2fwwyB.s:2329   .debug_str:000000000000013e .LASF89
     /tmp/cc2fwwyB.s:9      .text:0000000000000000 .LFB28
     /tmp/cc2fwwyB.s:49     .text:000000000000004c .LFE28
     /tmp/cc2fwwyB.s:2373   .debug_str:000000000000027c .LASF90
     /tmp/cc2fwwyB.s:2130   .debug_loc:0000000000000000 .LLST0
     /tmp/cc2fwwyB.s:2507   .debug_str:0000000000000708 .LASF91
     /tmp/cc2fwwyB.s:2144   .debug_loc:0000000000000039 .LLST1
     /tmp/cc2fwwyB.s:36     .text:0000000000000034 .LVL2
     /tmp/cc2fwwyB.s:183    .text._ZN5QueueIP3PCBE3popEv:0000000000000000 .LFB27
     /tmp/cc2fwwyB.s:239    .text._ZN5QueueIP3PCBE3popEv:0000000000000058 .LFE27
     /tmp/cc2fwwyB.s:2359   .debug_str:0000000000000226 .LASF93
     /tmp/cc2fwwyB.s:2158   .debug_loc:0000000000000072 .LLST6
     /tmp/cc2fwwyB.s:2495   .debug_str:00000000000006be .LASF92
     /tmp/cc2fwwyB.s:2180   .debug_loc:00000000000000d1 .LLST7
     /tmp/cc2fwwyB.s:208    .text._ZN5QueueIP3PCBE3popEv:000000000000002c .LVL16
     /tmp/cc2fwwyB.s:150    .text._ZN5QueueIP3PCBE5frontEv:0000000000000000 .LFB26
     /tmp/cc2fwwyB.s:176    .text._ZN5QueueIP3PCBE5frontEv:0000000000000024 .LFE26
     /tmp/cc2fwwyB.s:2191   .debug_loc:0000000000000107 .LLST5
     /tmp/cc2fwwyB.s:56     .text._ZN5QueueIP3PCBE4pushES1_:0000000000000000 .LFB25
     /tmp/cc2fwwyB.s:107    .text._ZN5QueueIP3PCBE4pushES1_:0000000000000050 .LFE25
     /tmp/cc2fwwyB.s:2205   .debug_loc:0000000000000140 .LLST2
     /tmp/cc2fwwyB.s:2227   .debug_loc:000000000000019f .LLST3
     /tmp/cc2fwwyB.s:2455   .debug_str:00000000000005b1 .LASF94
     /tmp/cc2fwwyB.s:76     .text._ZN5QueueIP3PCBE4pushES1_:0000000000000024 .LVL5
     /tmp/cc2fwwyB.s:246    .text:0000000000000080 .LFB24
     /tmp/cc2fwwyB.s:291    .text:00000000000000d8 .LFE24
     /tmp/cc2fwwyB.s:2241   .debug_loc:00000000000001d8 .LLST8
     /tmp/cc2fwwyB.s:266    .text:00000000000000ac .LVL20
     /tmp/cc2fwwyB.s:273    .text:00000000000000bc .LVL22
     /tmp/cc2fwwyB.s:114    .text:000000000000004c .LFB23
GAS LISTING /tmp/cc2fwwyB.s 			page 14


     /tmp/cc2fwwyB.s:143    .text:0000000000000080 .LFE23
     /tmp/cc2fwwyB.s:2252   .debug_loc:000000000000020e .LLST4
     /tmp/cc2fwwyB.s:132    .text:0000000000000070 .LVL10
     /tmp/cc2fwwyB.s:13     .text:0000000000000000 .LVL0
     /tmp/cc2fwwyB.s:34     .text:000000000000002c .LVL1
     /tmp/cc2fwwyB.s:186    .text._ZN5QueueIP3PCBE3popEv:0000000000000000 .LVL13
     /tmp/cc2fwwyB.s:202    .text._ZN5QueueIP3PCBE3popEv:0000000000000020 .LVL14
     /tmp/cc2fwwyB.s:223    .text._ZN5QueueIP3PCBE3popEv:0000000000000040 .LVL17
     /tmp/cc2fwwyB.s:230    .text._ZN5QueueIP3PCBE3popEv:000000000000004c .LVL19
     /tmp/cc2fwwyB.s:205    .text._ZN5QueueIP3PCBE3popEv:0000000000000024 .LVL15
     /tmp/cc2fwwyB.s:226    .text._ZN5QueueIP3PCBE3popEv:0000000000000044 .LVL18
     /tmp/cc2fwwyB.s:153    .text._ZN5QueueIP3PCBE5frontEv:0000000000000000 .LVL11
     /tmp/cc2fwwyB.s:162    .text._ZN5QueueIP3PCBE5frontEv:0000000000000010 .LVL12
     /tmp/cc2fwwyB.s:60     .text._ZN5QueueIP3PCBE4pushES1_:0000000000000000 .LVL3
     /tmp/cc2fwwyB.s:74     .text._ZN5QueueIP3PCBE4pushES1_:000000000000001c .LVL4
     /tmp/cc2fwwyB.s:91     .text._ZN5QueueIP3PCBE4pushES1_:0000000000000038 .LVL6
     /tmp/cc2fwwyB.s:95     .text._ZN5QueueIP3PCBE4pushES1_:0000000000000040 .LVL7
     /tmp/cc2fwwyB.s:268    .text:00000000000000b0 .LVL21
     /tmp/cc2fwwyB.s:284    .text:00000000000000cc .LVL23
     /tmp/cc2fwwyB.s:117    .text:000000000000004c .LVL8
     /tmp/cc2fwwyB.s:130    .text:0000000000000068 .LVL9
     /tmp/cc2fwwyB.s:342    .debug_info:0000000000000000 .Ldebug_info0
     /tmp/cc2fwwyB.s:5      .text:0000000000000000 .Ltext0
     /tmp/cc2fwwyB.s:336    .text:000000000000010c .Letext0

UNDEFINED SYMBOLS
_ZN15MemoryAllocator9mem_allocEm
_ZN15MemoryAllocator8mem_freeEPv
