GAS LISTING /tmp/ccEQR5l7.s 			page 1


   1              		.file	"Scheduler.cpp"
   2              		.option pic
   3              		.option norelax
   4              		.text
   5              	.Ltext0:
   6              		.align	2
   8              	_Z41__static_initialization_and_destruction_0ii:
   9              	.LFB10:
  10              		.file 1 "src/Scheduler.cpp"
   1:src/Scheduler.cpp **** //
   2:src/Scheduler.cpp **** // Created by os on 4/27/22.
   3:src/Scheduler.cpp **** //
   4:src/Scheduler.cpp **** 
   5:src/Scheduler.cpp **** #include "../h/Scheduler.h"
   6:src/Scheduler.cpp **** #include "../h/PCB.h"
   7:src/Scheduler.cpp **** 
   8:src/Scheduler.cpp **** //todo
   9:src/Scheduler.cpp **** Queue<PCB*>* Scheduler::queuePCB = (Queue<PCB*>*)MemoryAllocator::mem_alloc(sizeof(Queue<PCB*>));
  10:src/Scheduler.cpp **** 
  11:src/Scheduler.cpp **** void Scheduler::put(PCB *pcb) {
  12:src/Scheduler.cpp ****     Scheduler::queuePCB->push(pcb);
  13:src/Scheduler.cpp **** }
  14:src/Scheduler.cpp **** 
  15:src/Scheduler.cpp **** PCB *Scheduler::get() {
  16:src/Scheduler.cpp ****     PCB* fr = queuePCB->front();
  17:src/Scheduler.cpp ****     queuePCB->pop();
  18:src/Scheduler.cpp ****     return fr;
  19:src/Scheduler.cpp **** }...
  11              		.loc 1 19 1
  12              		.cfi_startproc
  13              	.LVL0:
  14 0000 93071000 		li	a5,1
  15 0004 6304F500 		beq	a0,a5,.L7
  16              	.L4:
  17 0008 67800000 		ret
  18              	.L7:
  19              		.loc 1 19 1 is_stmt 0 discriminator 1
  20 000c B7070100 		li	a5,65536
  21 0010 9387F7FF 		addi	a5,a5,-1
  22 0014 E39AF5FE 		bne	a1,a5,.L4
  23              		.loc 1 19 1
  24 0018 130101FF 		addi	sp,sp,-16
  25              		.cfi_def_cfa_offset 16
  26 001c 23341100 		sd	ra,8(sp)
  27 0020 23308100 		sd	s0,0(sp)
  28              		.cfi_offset 1, -8
  29              		.cfi_offset 8, -16
  30 0024 13040101 		addi	s0,sp,16
  31              		.cfi_def_cfa 8, 0
   9:src/Scheduler.cpp **** Queue<PCB*>* Scheduler::queuePCB = (Queue<PCB*>*)MemoryAllocator::mem_alloc(sizeof(Queue<PCB*>));
  32              		.loc 1 9 76
  33 0028 13050001 		li	a0,16
  34              	.LVL1:
  35 002c 97000000 		call	_ZN15MemoryAllocator9mem_allocEm@plt
  35      E7800000 
  36              	.LVL2:
   9:src/Scheduler.cpp **** Queue<PCB*>* Scheduler::queuePCB = (Queue<PCB*>*)MemoryAllocator::mem_alloc(sizeof(Queue<PCB*>));
GAS LISTING /tmp/ccEQR5l7.s 			page 2


  37              		.loc 1 9 14
  38 0034 97070000 		sd	a0,.LANCHOR0,a5
  38      23B0A700 
  39              		.loc 1 19 1
  40 003c 83308100 		ld	ra,8(sp)
  41              		.cfi_restore 1
  42 0040 03340100 		ld	s0,0(sp)
  43              		.cfi_restore 8
  44              		.cfi_def_cfa 2, 16
  45 0044 13010101 		addi	sp,sp,16
  46              		.cfi_def_cfa_offset 0
  47 0048 67800000 		jr	ra
  48              		.cfi_endproc
  49              	.LFE10:
  51              		.section	.text._ZN5QueueIP3PCBE4pushES1_,"axG",@progbits,_ZN5QueueIP3PCBE4pushES1_,comdat
  52              		.align	2
  53              		.weak	_ZN5QueueIP3PCBE4pushES1_
  55              	_ZN5QueueIP3PCBE4pushES1_:
  56              	.LFB7:
  57              		.file 2 "src/../h/Queue.h"
   1:src/../h/Queue.h **** //
   2:src/../h/Queue.h **** // Created by os on 4/27/22.
   3:src/../h/Queue.h **** //
   4:src/../h/Queue.h **** 
   5:src/../h/Queue.h **** #ifndef PROJECT_BASE_V1_0_QUEUE_H
   6:src/../h/Queue.h **** #define PROJECT_BASE_V1_0_QUEUE_H
   7:src/../h/Queue.h **** 
   8:src/../h/Queue.h **** #include "../lib/hw.h"
   9:src/../h/Queue.h **** #include "MemoryAllocator.h"
  10:src/../h/Queue.h **** 
  11:src/../h/Queue.h **** template <typename T>
  12:src/../h/Queue.h **** class Queue
  13:src/../h/Queue.h **** {
  14:src/../h/Queue.h **** private:
  15:src/../h/Queue.h ****     typedef struct Elem
  16:src/../h/Queue.h ****     {
  17:src/../h/Queue.h ****         T data;
  18:src/../h/Queue.h ****         struct Elem* next;
  19:src/../h/Queue.h ****     }Elem;
  20:src/../h/Queue.h ****     Elem* first;
  21:src/../h/Queue.h ****     Elem* last;
  22:src/../h/Queue.h **** public:
  23:src/../h/Queue.h ****     void pop();
  24:src/../h/Queue.h ****     T front();
  25:src/../h/Queue.h ****     void push(T t);
  26:src/../h/Queue.h ****     Queue();
  27:src/../h/Queue.h ****     ~Queue();
  28:src/../h/Queue.h **** };
  29:src/../h/Queue.h **** 
  30:src/../h/Queue.h **** template<typename T>
  31:src/../h/Queue.h **** void Queue<T>::pop() {
  32:src/../h/Queue.h ****     Elem* newFirst = first->next;
  33:src/../h/Queue.h ****     MemoryAllocator::mem_free(first);
  34:src/../h/Queue.h ****     first = newFirst;
  35:src/../h/Queue.h ****     if(first == 0)
  36:src/../h/Queue.h ****         first = last = 0;
  37:src/../h/Queue.h **** }
GAS LISTING /tmp/ccEQR5l7.s 			page 3


  38:src/../h/Queue.h **** 
  39:src/../h/Queue.h **** template<typename T>
  40:src/../h/Queue.h **** void Queue<T>::push(T t) {
  58              		.loc 2 40 6 is_stmt 1
  59              		.cfi_startproc
  60              	.LVL3:
  61 0000 130101FE 		addi	sp,sp,-32
  62              		.cfi_def_cfa_offset 32
  63 0004 233C1100 		sd	ra,24(sp)
  64 0008 23388100 		sd	s0,16(sp)
  65 000c 23349100 		sd	s1,8(sp)
  66              		.cfi_offset 1, -8
  67              		.cfi_offset 8, -16
  68              		.cfi_offset 9, -24
  69 0010 13040102 		addi	s0,sp,32
  70              		.cfi_def_cfa 8, 0
  71 0014 93040500 		mv	s1,a0
  41:src/../h/Queue.h ****     Elem* newElem = (Elem*)MemoryAllocator::mem_alloc(sizeof(Elem));
  72              		.loc 2 41 54 is_stmt 0
  73 0018 13050001 		li	a0,16
  74              	.LVL4:
  75 001c 97000000 		call	_ZN15MemoryAllocator9mem_allocEm@plt
  75      E7800000 
  76              	.LVL5:
  42:src/../h/Queue.h ****     if(first == 0) {
  77              		.loc 2 42 8
  78 0024 83B70400 		ld	a5,0(s1)
  79              		.loc 2 42 5
  80 0028 638C0700 		beqz	a5,.L11
  81              	.L8:
  43:src/../h/Queue.h ****         first = newElem;
  44:src/../h/Queue.h ****         last = 0;
  45:src/../h/Queue.h ****         first->next = last;
  46:src/../h/Queue.h ****     }
  47:src/../h/Queue.h **** }
  82              		.loc 2 47 1
  83 002c 83308101 		ld	ra,24(sp)
  84              		.cfi_remember_state
  85              		.cfi_restore 1
  86 0030 03340101 		ld	s0,16(sp)
  87              		.cfi_restore 8
  88              		.cfi_def_cfa 2, 32
  89 0034 83348100 		ld	s1,8(sp)
  90              		.cfi_restore 9
  91              	.LVL6:
  92 0038 13010102 		addi	sp,sp,32
  93              		.cfi_def_cfa_offset 0
  94 003c 67800000 		jr	ra
  95              	.LVL7:
  96              	.L11:
  97              		.cfi_restore_state
  43:src/../h/Queue.h ****         first = newElem;
  98              		.loc 2 43 9
  99 0040 23B0A400 		sd	a0,0(s1)
  44:src/../h/Queue.h ****         first->next = last;
 100              		.loc 2 44 9
 101 0044 23B40400 		sd	zero,8(s1)
GAS LISTING /tmp/ccEQR5l7.s 			page 4


  45:src/../h/Queue.h ****     }
 102              		.loc 2 45 9
 103 0048 23340500 		sd	zero,8(a0)
 104              		.loc 2 47 1
 105 004c 6FF01FFE 		j	.L8
 106              		.cfi_endproc
 107              	.LFE7:
 109              		.text
 110              		.align	2
 111              		.globl	_ZN9Scheduler3putEP3PCB
 113              	_ZN9Scheduler3putEP3PCB:
 114              	.LFB5:
  11:src/Scheduler.cpp **** void Scheduler::put(PCB *pcb) {
 115              		.loc 1 11 31 is_stmt 1
 116              		.cfi_startproc
 117              	.LVL8:
 118 004c 130101FF 		addi	sp,sp,-16
 119              		.cfi_def_cfa_offset 16
 120 0050 23341100 		sd	ra,8(sp)
 121 0054 23308100 		sd	s0,0(sp)
 122              		.cfi_offset 1, -8
 123              		.cfi_offset 8, -16
 124 0058 13040101 		addi	s0,sp,16
 125              		.cfi_def_cfa 8, 0
 126 005c 93050500 		mv	a1,a0
  12:src/Scheduler.cpp ****     Scheduler::queuePCB->push(pcb);
 127              		.loc 1 12 5
  12:src/Scheduler.cpp ****     Scheduler::queuePCB->push(pcb);
 128              		.loc 1 12 30 is_stmt 0
 129 0060 17050000 		ld	a0,.LANCHOR0
 129      03350500 
 130              	.LVL9:
 131 0068 97000000 		call	_ZN5QueueIP3PCBE4pushES1_
 131      E7800000 
 132              	.LVL10:
  13:src/Scheduler.cpp **** }
 133              		.loc 1 13 1
 134 0070 83308100 		ld	ra,8(sp)
 135              		.cfi_restore 1
 136 0074 03340100 		ld	s0,0(sp)
 137              		.cfi_restore 8
 138              		.cfi_def_cfa 2, 16
 139 0078 13010101 		addi	sp,sp,16
 140              		.cfi_def_cfa_offset 0
 141 007c 67800000 		jr	ra
 142              		.cfi_endproc
 143              	.LFE5:
 145              		.section	.text._ZN5QueueIP3PCBE5frontEv,"axG",@progbits,_ZN5QueueIP3PCBE5frontEv,comdat
 146              		.align	2
 147              		.weak	_ZN5QueueIP3PCBE5frontEv
 149              	_ZN5QueueIP3PCBE5frontEv:
 150              	.LFB8:
  48:src/../h/Queue.h **** 
  49:src/../h/Queue.h **** template<typename T>
  50:src/../h/Queue.h **** T Queue<T>::front() {
 151              		.loc 2 50 3 is_stmt 1
 152              		.cfi_startproc
GAS LISTING /tmp/ccEQR5l7.s 			page 5


 153              	.LVL11:
 154 0000 130101FF 		addi	sp,sp,-16
 155              		.cfi_def_cfa_offset 16
 156 0004 23348100 		sd	s0,8(sp)
 157              		.cfi_offset 8, -8
 158 0008 13040101 		addi	s0,sp,16
 159              		.cfi_def_cfa 8, 0
  51:src/../h/Queue.h ****     if(first == 0)
 160              		.loc 2 51 8 is_stmt 0
 161 000c 03350500 		ld	a0,0(a0)
 162              	.LVL12:
 163              		.loc 2 51 5
 164 0010 63040500 		beqz	a0,.L14
  52:src/../h/Queue.h ****         return 0;
  53:src/../h/Queue.h ****     return first->data;
 165              		.loc 2 53 19
 166 0014 03350500 		ld	a0,0(a0)
 167              	.L14:
  54:src/../h/Queue.h **** }
 168              		.loc 2 54 1
 169 0018 03348100 		ld	s0,8(sp)
 170              		.cfi_restore 8
 171              		.cfi_def_cfa 2, 16
 172 001c 13010101 		addi	sp,sp,16
 173              		.cfi_def_cfa_offset 0
 174 0020 67800000 		jr	ra
 175              		.cfi_endproc
 176              	.LFE8:
 178              		.section	.text._ZN5QueueIP3PCBE3popEv,"axG",@progbits,_ZN5QueueIP3PCBE3popEv,comdat
 179              		.align	2
 180              		.weak	_ZN5QueueIP3PCBE3popEv
 182              	_ZN5QueueIP3PCBE3popEv:
 183              	.LFB9:
  31:src/../h/Queue.h ****     Elem* newFirst = first->next;
 184              		.loc 2 31 6 is_stmt 1
 185              		.cfi_startproc
 186              	.LVL13:
 187 0000 130101FE 		addi	sp,sp,-32
 188              		.cfi_def_cfa_offset 32
 189 0004 233C1100 		sd	ra,24(sp)
 190 0008 23388100 		sd	s0,16(sp)
 191 000c 23349100 		sd	s1,8(sp)
 192 0010 23302101 		sd	s2,0(sp)
 193              		.cfi_offset 1, -8
 194              		.cfi_offset 8, -16
 195              		.cfi_offset 9, -24
 196              		.cfi_offset 18, -32
 197 0014 13040102 		addi	s0,sp,32
 198              		.cfi_def_cfa 8, 0
 199 0018 93040500 		mv	s1,a0
  32:src/../h/Queue.h ****     MemoryAllocator::mem_free(first);
 200              		.loc 2 32 22 is_stmt 0
 201 001c 03350500 		ld	a0,0(a0)
 202              	.LVL14:
  32:src/../h/Queue.h ****     MemoryAllocator::mem_free(first);
 203              		.loc 2 32 11
 204 0020 03398500 		ld	s2,8(a0)
GAS LISTING /tmp/ccEQR5l7.s 			page 6


 205              	.LVL15:
  33:src/../h/Queue.h ****     first = newFirst;
 206              		.loc 2 33 30
 207 0024 97000000 		call	_ZN15MemoryAllocator8mem_freeEPv@plt
 207      E7800000 
 208              	.LVL16:
  34:src/../h/Queue.h ****     if(first == 0)
 209              		.loc 2 34 5
 210 002c 23B02401 		sd	s2,0(s1)
  35:src/../h/Queue.h ****         first = last = 0;
 211              		.loc 2 35 5
 212 0030 630E0900 		beqz	s2,.L20
 213              	.L17:
  37:src/../h/Queue.h **** 
 214              		.loc 2 37 1
 215 0034 83308101 		ld	ra,24(sp)
 216              		.cfi_remember_state
 217              		.cfi_restore 1
 218 0038 03340101 		ld	s0,16(sp)
 219              		.cfi_restore 8
 220              		.cfi_def_cfa 2, 32
 221 003c 83348100 		ld	s1,8(sp)
 222              		.cfi_restore 9
 223              	.LVL17:
 224 0040 03390100 		ld	s2,0(sp)
 225              		.cfi_restore 18
 226              	.LVL18:
 227 0044 13010102 		addi	sp,sp,32
 228              		.cfi_def_cfa_offset 0
 229 0048 67800000 		jr	ra
 230              	.LVL19:
 231              	.L20:
 232              		.cfi_restore_state
  36:src/../h/Queue.h **** }
 233              		.loc 2 36 9
 234 004c 23B40400 		sd	zero,8(s1)
 235 0050 23B00400 		sd	zero,0(s1)
  37:src/../h/Queue.h **** 
 236              		.loc 2 37 1
 237 0054 6FF01FFE 		j	.L17
 238              		.cfi_endproc
 239              	.LFE9:
 241              		.text
 242              		.align	2
 243              		.globl	_ZN9Scheduler3getEv
 245              	_ZN9Scheduler3getEv:
 246              	.LFB6:
  15:src/Scheduler.cpp **** PCB *Scheduler::get() {
 247              		.loc 1 15 23 is_stmt 1
 248              		.cfi_startproc
 249 0080 130101FE 		addi	sp,sp,-32
 250              		.cfi_def_cfa_offset 32
 251 0084 233C1100 		sd	ra,24(sp)
 252 0088 23388100 		sd	s0,16(sp)
 253 008c 23349100 		sd	s1,8(sp)
 254 0090 23302101 		sd	s2,0(sp)
 255              		.cfi_offset 1, -8
GAS LISTING /tmp/ccEQR5l7.s 			page 7


 256              		.cfi_offset 8, -16
 257              		.cfi_offset 9, -24
 258              		.cfi_offset 18, -32
 259 0094 13040102 		addi	s0,sp,32
 260              		.cfi_def_cfa 8, 0
  16:src/Scheduler.cpp ****     PCB* fr = queuePCB->front();
 261              		.loc 1 16 5
  16:src/Scheduler.cpp ****     PCB* fr = queuePCB->front();
 262              		.loc 1 16 30 is_stmt 0
 263 0098 17090000 		ld	s2,.LANCHOR0
 263      03390900 
 264 00a0 13050900 		mv	a0,s2
 265 00a4 97000000 		call	_ZN5QueueIP3PCBE5frontEv
 265      E7800000 
 266              	.LVL20:
 267 00ac 93040500 		mv	s1,a0
 268              	.LVL21:
  17:src/Scheduler.cpp ****     queuePCB->pop();
 269              		.loc 1 17 5 is_stmt 1
  17:src/Scheduler.cpp ****     queuePCB->pop();
 270              		.loc 1 17 18 is_stmt 0
 271 00b0 13050900 		mv	a0,s2
 272 00b4 97000000 		call	_ZN5QueueIP3PCBE3popEv
 272      E7800000 
 273              	.LVL22:
  18:src/Scheduler.cpp ****     return fr;
 274              		.loc 1 18 5 is_stmt 1
 275              		.loc 1 19 1 is_stmt 0
 276 00bc 13850400 		mv	a0,s1
 277 00c0 83308101 		ld	ra,24(sp)
 278              		.cfi_restore 1
 279 00c4 03340101 		ld	s0,16(sp)
 280              		.cfi_restore 8
 281              		.cfi_def_cfa 2, 32
 282 00c8 83348100 		ld	s1,8(sp)
 283              		.cfi_restore 9
 284              	.LVL23:
 285 00cc 03390100 		ld	s2,0(sp)
 286              		.cfi_restore 18
 287 00d0 13010102 		addi	sp,sp,32
 288              		.cfi_def_cfa_offset 0
 289 00d4 67800000 		jr	ra
 290              		.cfi_endproc
 291              	.LFE6:
 293              		.align	2
 295              	_GLOBAL__sub_I__ZN9Scheduler8queuePCBE:
 296              	.LFB11:
 297              		.loc 1 19 1 is_stmt 1
 298              		.cfi_startproc
 299 00d8 130101FF 		addi	sp,sp,-16
 300              		.cfi_def_cfa_offset 16
 301 00dc 23341100 		sd	ra,8(sp)
 302 00e0 23308100 		sd	s0,0(sp)
 303              		.cfi_offset 1, -8
 304              		.cfi_offset 8, -16
 305 00e4 13040101 		addi	s0,sp,16
 306              		.cfi_def_cfa 8, 0
GAS LISTING /tmp/ccEQR5l7.s 			page 8


 307              		.loc 1 19 1 is_stmt 0
 308 00e8 B7050100 		li	a1,65536
 309 00ec 9385F5FF 		addi	a1,a1,-1
 310 00f0 13051000 		li	a0,1
 311 00f4 97000000 		call	_Z41__static_initialization_and_destruction_0ii
 311      E7800000 
 312              	.LVL24:
 313 00fc 83308100 		ld	ra,8(sp)
 314              		.cfi_restore 1
 315 0100 03340100 		ld	s0,0(sp)
 316              		.cfi_restore 8
 317              		.cfi_def_cfa 2, 16
 318 0104 13010101 		addi	sp,sp,16
 319              		.cfi_def_cfa_offset 0
 320 0108 67800000 		jr	ra
 321              		.cfi_endproc
 322              	.LFE11:
 324              		.section	.init_array,"aw"
 325              		.align	3
 326 0000 00000000 		.dword	_GLOBAL__sub_I__ZN9Scheduler8queuePCBE
 326      00000000 
 327              		.globl	_ZN9Scheduler8queuePCBE
 328              		.bss
 329              		.align	3
 330              		.set	.LANCHOR0,. + 0
 333              	_ZN9Scheduler8queuePCBE:
 334 0000 00000000 		.zero	8
 334      00000000 
 335              		.text
 336              	.Letext0:
 337              		.file 3 "src/../h/../lib/hw.h"
 338              		.file 4 "src/../h/MemoryAllocator.h"
 339              		.file 5 "src/../h/Scheduler.h"
 340              		.file 6 "src/../h/PCB.h"
GAS LISTING /tmp/ccEQR5l7.s 			page 9


DEFINED SYMBOLS
                            *ABS*:0000000000000000 Scheduler.cpp
     /tmp/ccEQR5l7.s:8      .text:0000000000000000 _Z41__static_initialization_and_destruction_0ii
     /tmp/ccEQR5l7.s:12     .text:0000000000000000 .L0 
     /tmp/ccEQR5l7.s:14     .text:0000000000000000 .L0 
     /tmp/ccEQR5l7.s:20     .text:000000000000000c .L0 
     /tmp/ccEQR5l7.s:24     .text:0000000000000018 .L0 
     /tmp/ccEQR5l7.s:25     .text:000000000000001c .L0 
     /tmp/ccEQR5l7.s:28     .text:0000000000000024 .L0 
     /tmp/ccEQR5l7.s:29     .text:0000000000000024 .L0 
     /tmp/ccEQR5l7.s:31     .text:0000000000000028 .L0 
     /tmp/ccEQR5l7.s:33     .text:0000000000000028 .L0 
     /tmp/ccEQR5l7.s:38     .text:0000000000000034 .L0 
     /tmp/ccEQR5l7.s:40     .text:000000000000003c .L0 
     /tmp/ccEQR5l7.s:41     .text:0000000000000040 .L0 
     /tmp/ccEQR5l7.s:43     .text:0000000000000044 .L0 
     /tmp/ccEQR5l7.s:44     .text:0000000000000044 .L0 
     /tmp/ccEQR5l7.s:46     .text:0000000000000048 .L0 
     /tmp/ccEQR5l7.s:48     .text:000000000000004c .L0 
     /tmp/ccEQR5l7.s:55     .text._ZN5QueueIP3PCBE4pushES1_:0000000000000000 _ZN5QueueIP3PCBE4pushES1_
     /tmp/ccEQR5l7.s:59     .text._ZN5QueueIP3PCBE4pushES1_:0000000000000000 .L0 
     /tmp/ccEQR5l7.s:61     .text._ZN5QueueIP3PCBE4pushES1_:0000000000000000 .L0 
     /tmp/ccEQR5l7.s:62     .text._ZN5QueueIP3PCBE4pushES1_:0000000000000004 .L0 
     /tmp/ccEQR5l7.s:66     .text._ZN5QueueIP3PCBE4pushES1_:0000000000000010 .L0 
     /tmp/ccEQR5l7.s:67     .text._ZN5QueueIP3PCBE4pushES1_:0000000000000010 .L0 
     /tmp/ccEQR5l7.s:68     .text._ZN5QueueIP3PCBE4pushES1_:0000000000000010 .L0 
     /tmp/ccEQR5l7.s:70     .text._ZN5QueueIP3PCBE4pushES1_:0000000000000014 .L0 
     /tmp/ccEQR5l7.s:73     .text._ZN5QueueIP3PCBE4pushES1_:0000000000000018 .L0 
     /tmp/ccEQR5l7.s:78     .text._ZN5QueueIP3PCBE4pushES1_:0000000000000024 .L0 
     /tmp/ccEQR5l7.s:80     .text._ZN5QueueIP3PCBE4pushES1_:0000000000000028 .L0 
     /tmp/ccEQR5l7.s:83     .text._ZN5QueueIP3PCBE4pushES1_:000000000000002c .L0 
     /tmp/ccEQR5l7.s:84     .text._ZN5QueueIP3PCBE4pushES1_:0000000000000030 .L0 
     /tmp/ccEQR5l7.s:85     .text._ZN5QueueIP3PCBE4pushES1_:0000000000000030 .L0 
     /tmp/ccEQR5l7.s:87     .text._ZN5QueueIP3PCBE4pushES1_:0000000000000034 .L0 
     /tmp/ccEQR5l7.s:88     .text._ZN5QueueIP3PCBE4pushES1_:0000000000000034 .L0 
     /tmp/ccEQR5l7.s:90     .text._ZN5QueueIP3PCBE4pushES1_:0000000000000038 .L0 
     /tmp/ccEQR5l7.s:93     .text._ZN5QueueIP3PCBE4pushES1_:000000000000003c .L0 
     /tmp/ccEQR5l7.s:97     .text._ZN5QueueIP3PCBE4pushES1_:0000000000000040 .L0 
     /tmp/ccEQR5l7.s:99     .text._ZN5QueueIP3PCBE4pushES1_:0000000000000040 .L0 
     /tmp/ccEQR5l7.s:101    .text._ZN5QueueIP3PCBE4pushES1_:0000000000000044 .L0 
     /tmp/ccEQR5l7.s:103    .text._ZN5QueueIP3PCBE4pushES1_:0000000000000048 .L0 
     /tmp/ccEQR5l7.s:105    .text._ZN5QueueIP3PCBE4pushES1_:000000000000004c .L0 
     /tmp/ccEQR5l7.s:106    .text._ZN5QueueIP3PCBE4pushES1_:0000000000000050 .L0 
     /tmp/ccEQR5l7.s:113    .text:000000000000004c _ZN9Scheduler3putEP3PCB
     /tmp/ccEQR5l7.s:116    .text:000000000000004c .L0 
     /tmp/ccEQR5l7.s:118    .text:000000000000004c .L0 
     /tmp/ccEQR5l7.s:119    .text:0000000000000050 .L0 
     /tmp/ccEQR5l7.s:122    .text:0000000000000058 .L0 
     /tmp/ccEQR5l7.s:123    .text:0000000000000058 .L0 
     /tmp/ccEQR5l7.s:125    .text:000000000000005c .L0 
     /tmp/ccEQR5l7.s:128    .text:0000000000000060 .L0 
     /tmp/ccEQR5l7.s:129    .text:0000000000000060 .L0 
     /tmp/ccEQR5l7.s:134    .text:0000000000000070 .L0 
     /tmp/ccEQR5l7.s:135    .text:0000000000000074 .L0 
     /tmp/ccEQR5l7.s:137    .text:0000000000000078 .L0 
     /tmp/ccEQR5l7.s:138    .text:0000000000000078 .L0 
     /tmp/ccEQR5l7.s:140    .text:000000000000007c .L0 
GAS LISTING /tmp/ccEQR5l7.s 			page 10


     /tmp/ccEQR5l7.s:142    .text:0000000000000080 .L0 
     /tmp/ccEQR5l7.s:149    .text._ZN5QueueIP3PCBE5frontEv:0000000000000000 _ZN5QueueIP3PCBE5frontEv
     /tmp/ccEQR5l7.s:152    .text._ZN5QueueIP3PCBE5frontEv:0000000000000000 .L0 
     /tmp/ccEQR5l7.s:154    .text._ZN5QueueIP3PCBE5frontEv:0000000000000000 .L0 
     /tmp/ccEQR5l7.s:155    .text._ZN5QueueIP3PCBE5frontEv:0000000000000004 .L0 
     /tmp/ccEQR5l7.s:157    .text._ZN5QueueIP3PCBE5frontEv:0000000000000008 .L0 
     /tmp/ccEQR5l7.s:159    .text._ZN5QueueIP3PCBE5frontEv:000000000000000c .L0 
     /tmp/ccEQR5l7.s:161    .text._ZN5QueueIP3PCBE5frontEv:000000000000000c .L0 
     /tmp/ccEQR5l7.s:164    .text._ZN5QueueIP3PCBE5frontEv:0000000000000010 .L0 
     /tmp/ccEQR5l7.s:166    .text._ZN5QueueIP3PCBE5frontEv:0000000000000014 .L0 
     /tmp/ccEQR5l7.s:169    .text._ZN5QueueIP3PCBE5frontEv:0000000000000018 .L0 
     /tmp/ccEQR5l7.s:170    .text._ZN5QueueIP3PCBE5frontEv:000000000000001c .L0 
     /tmp/ccEQR5l7.s:171    .text._ZN5QueueIP3PCBE5frontEv:000000000000001c .L0 
     /tmp/ccEQR5l7.s:173    .text._ZN5QueueIP3PCBE5frontEv:0000000000000020 .L0 
     /tmp/ccEQR5l7.s:175    .text._ZN5QueueIP3PCBE5frontEv:0000000000000024 .L0 
     /tmp/ccEQR5l7.s:182    .text._ZN5QueueIP3PCBE3popEv:0000000000000000 _ZN5QueueIP3PCBE3popEv
     /tmp/ccEQR5l7.s:185    .text._ZN5QueueIP3PCBE3popEv:0000000000000000 .L0 
     /tmp/ccEQR5l7.s:187    .text._ZN5QueueIP3PCBE3popEv:0000000000000000 .L0 
     /tmp/ccEQR5l7.s:188    .text._ZN5QueueIP3PCBE3popEv:0000000000000004 .L0 
     /tmp/ccEQR5l7.s:193    .text._ZN5QueueIP3PCBE3popEv:0000000000000014 .L0 
     /tmp/ccEQR5l7.s:194    .text._ZN5QueueIP3PCBE3popEv:0000000000000014 .L0 
     /tmp/ccEQR5l7.s:195    .text._ZN5QueueIP3PCBE3popEv:0000000000000014 .L0 
     /tmp/ccEQR5l7.s:196    .text._ZN5QueueIP3PCBE3popEv:0000000000000014 .L0 
     /tmp/ccEQR5l7.s:198    .text._ZN5QueueIP3PCBE3popEv:0000000000000018 .L0 
     /tmp/ccEQR5l7.s:201    .text._ZN5QueueIP3PCBE3popEv:000000000000001c .L0 
     /tmp/ccEQR5l7.s:204    .text._ZN5QueueIP3PCBE3popEv:0000000000000020 .L0 
     /tmp/ccEQR5l7.s:207    .text._ZN5QueueIP3PCBE3popEv:0000000000000024 .L0 
     /tmp/ccEQR5l7.s:210    .text._ZN5QueueIP3PCBE3popEv:000000000000002c .L0 
     /tmp/ccEQR5l7.s:212    .text._ZN5QueueIP3PCBE3popEv:0000000000000030 .L0 
     /tmp/ccEQR5l7.s:215    .text._ZN5QueueIP3PCBE3popEv:0000000000000034 .L0 
     /tmp/ccEQR5l7.s:216    .text._ZN5QueueIP3PCBE3popEv:0000000000000038 .L0 
     /tmp/ccEQR5l7.s:217    .text._ZN5QueueIP3PCBE3popEv:0000000000000038 .L0 
     /tmp/ccEQR5l7.s:219    .text._ZN5QueueIP3PCBE3popEv:000000000000003c .L0 
     /tmp/ccEQR5l7.s:220    .text._ZN5QueueIP3PCBE3popEv:000000000000003c .L0 
     /tmp/ccEQR5l7.s:222    .text._ZN5QueueIP3PCBE3popEv:0000000000000040 .L0 
     /tmp/ccEQR5l7.s:225    .text._ZN5QueueIP3PCBE3popEv:0000000000000044 .L0 
     /tmp/ccEQR5l7.s:228    .text._ZN5QueueIP3PCBE3popEv:0000000000000048 .L0 
     /tmp/ccEQR5l7.s:232    .text._ZN5QueueIP3PCBE3popEv:000000000000004c .L0 
     /tmp/ccEQR5l7.s:234    .text._ZN5QueueIP3PCBE3popEv:000000000000004c .L0 
     /tmp/ccEQR5l7.s:237    .text._ZN5QueueIP3PCBE3popEv:0000000000000054 .L0 
     /tmp/ccEQR5l7.s:238    .text._ZN5QueueIP3PCBE3popEv:0000000000000058 .L0 
     /tmp/ccEQR5l7.s:245    .text:0000000000000080 _ZN9Scheduler3getEv
     /tmp/ccEQR5l7.s:248    .text:0000000000000080 .L0 
     /tmp/ccEQR5l7.s:249    .text:0000000000000080 .L0 
     /tmp/ccEQR5l7.s:250    .text:0000000000000084 .L0 
     /tmp/ccEQR5l7.s:255    .text:0000000000000094 .L0 
     /tmp/ccEQR5l7.s:256    .text:0000000000000094 .L0 
     /tmp/ccEQR5l7.s:257    .text:0000000000000094 .L0 
     /tmp/ccEQR5l7.s:258    .text:0000000000000094 .L0 
     /tmp/ccEQR5l7.s:260    .text:0000000000000098 .L0 
     /tmp/ccEQR5l7.s:262    .text:0000000000000098 .L0 
     /tmp/ccEQR5l7.s:263    .text:0000000000000098 .L0 
     /tmp/ccEQR5l7.s:270    .text:00000000000000b0 .L0 
     /tmp/ccEQR5l7.s:271    .text:00000000000000b0 .L0 
     /tmp/ccEQR5l7.s:275    .text:00000000000000bc .L0 
     /tmp/ccEQR5l7.s:276    .text:00000000000000bc .L0 
     /tmp/ccEQR5l7.s:278    .text:00000000000000c4 .L0 
GAS LISTING /tmp/ccEQR5l7.s 			page 11


     /tmp/ccEQR5l7.s:280    .text:00000000000000c8 .L0 
     /tmp/ccEQR5l7.s:281    .text:00000000000000c8 .L0 
     /tmp/ccEQR5l7.s:283    .text:00000000000000cc .L0 
     /tmp/ccEQR5l7.s:286    .text:00000000000000d0 .L0 
     /tmp/ccEQR5l7.s:288    .text:00000000000000d4 .L0 
     /tmp/ccEQR5l7.s:290    .text:00000000000000d8 .L0 
     /tmp/ccEQR5l7.s:295    .text:00000000000000d8 _GLOBAL__sub_I__ZN9Scheduler8queuePCBE
     /tmp/ccEQR5l7.s:298    .text:00000000000000d8 .L0 
     /tmp/ccEQR5l7.s:299    .text:00000000000000d8 .L0 
     /tmp/ccEQR5l7.s:300    .text:00000000000000dc .L0 
     /tmp/ccEQR5l7.s:303    .text:00000000000000e4 .L0 
     /tmp/ccEQR5l7.s:304    .text:00000000000000e4 .L0 
     /tmp/ccEQR5l7.s:306    .text:00000000000000e8 .L0 
     /tmp/ccEQR5l7.s:308    .text:00000000000000e8 .L0 
     /tmp/ccEQR5l7.s:314    .text:0000000000000100 .L0 
     /tmp/ccEQR5l7.s:316    .text:0000000000000104 .L0 
     /tmp/ccEQR5l7.s:317    .text:0000000000000104 .L0 
     /tmp/ccEQR5l7.s:319    .text:0000000000000108 .L0 
     /tmp/ccEQR5l7.s:321    .text:000000000000010c .L0 
     /tmp/ccEQR5l7.s:333    .bss:0000000000000000 _ZN9Scheduler8queuePCBE
     /tmp/ccEQR5l7.s:330    .bss:0000000000000000 .LANCHOR0
     /tmp/ccEQR5l7.s:341    .text:000000000000010c .L0 
     /tmp/ccEQR5l7.s:109    .text._ZN5QueueIP3PCBE4pushES1_:0000000000000050 .L0 
     /tmp/ccEQR5l7.s:178    .text._ZN5QueueIP3PCBE5frontEv:0000000000000024 .L0 
     /tmp/ccEQR5l7.s:241    .text._ZN5QueueIP3PCBE3popEv:0000000000000058 .L0 
     /tmp/ccEQR5l7.s:38     .text:0000000000000034 .L0 
     /tmp/ccEQR5l7.s:129    .text:0000000000000060 .L0 
     /tmp/ccEQR5l7.s:263    .text:0000000000000098 .L0 
     /tmp/ccEQR5l7.s:18     .text:000000000000000c .L7
     /tmp/ccEQR5l7.s:16     .text:0000000000000008 .L4
     /tmp/ccEQR5l7.s:96     .text._ZN5QueueIP3PCBE4pushES1_:0000000000000040 .L11
     /tmp/ccEQR5l7.s:81     .text._ZN5QueueIP3PCBE4pushES1_:000000000000002c .L8
     /tmp/ccEQR5l7.s:167    .text._ZN5QueueIP3PCBE5frontEv:0000000000000018 .L14
     /tmp/ccEQR5l7.s:231    .text._ZN5QueueIP3PCBE3popEv:000000000000004c .L20
     /tmp/ccEQR5l7.s:213    .text._ZN5QueueIP3PCBE3popEv:0000000000000034 .L17
     /tmp/ccEQR5l7.s:1222   .debug_abbrev:0000000000000000 .Ldebug_abbrev0
     /tmp/ccEQR5l7.s:2248   .debug_str:000000000000016b .LASF83
     /tmp/ccEQR5l7.s:2378   .debug_str:0000000000000632 .LASF84
     /tmp/ccEQR5l7.s:2238   .debug_str:000000000000010a .LASF85
     /tmp/ccEQR5l7.s:2190   .debug_ranges:0000000000000000 .Ldebug_ranges0
     /tmp/ccEQR5l7.s:2202   .debug_line:0000000000000000 .Ldebug_line0
     /tmp/ccEQR5l7.s:2304   .debug_str:00000000000003e2 .LASF0
     /tmp/ccEQR5l7.s:2322   .debug_str:000000000000045a .LASF1
     /tmp/ccEQR5l7.s:2298   .debug_str:00000000000003b9 .LASF2
     /tmp/ccEQR5l7.s:2278   .debug_str:0000000000000336 .LASF4
     /tmp/ccEQR5l7.s:2354   .debug_str:0000000000000578 .LASF3
     /tmp/ccEQR5l7.s:2216   .debug_str:0000000000000061 .LASF5
     /tmp/ccEQR5l7.s:2244   .debug_str:0000000000000151 .LASF6
     /tmp/ccEQR5l7.s:2326   .debug_str:000000000000047a .LASF7
     /tmp/ccEQR5l7.s:2302   .debug_str:00000000000003cf .LASF8
     /tmp/ccEQR5l7.s:2372   .debug_str:000000000000060b .LASF9
     /tmp/ccEQR5l7.s:2264   .debug_str:00000000000002b7 .LASF10
     /tmp/ccEQR5l7.s:2336   .debug_str:00000000000004e0 .LASF11
     /tmp/ccEQR5l7.s:2368   .debug_str:00000000000005e7 .LASF12
     /tmp/ccEQR5l7.s:2222   .debug_str:0000000000000079 .LASF13
     /tmp/ccEQR5l7.s:2206   .debug_str:0000000000000012 .LASF14
     /tmp/ccEQR5l7.s:2232   .debug_str:00000000000000e2 .LASF15
GAS LISTING /tmp/ccEQR5l7.s 			page 12


     /tmp/ccEQR5l7.s:2348   .debug_str:0000000000000532 .LASF16
     /tmp/ccEQR5l7.s:2240   .debug_str:000000000000012d .LASF17
     /tmp/ccEQR5l7.s:2294   .debug_str:000000000000039a .LASF37
     /tmp/ccEQR5l7.s:2324   .debug_str:000000000000046d .LASF20
     /tmp/ccEQR5l7.s:2366   .debug_str:00000000000005e2 .LASF18
     /tmp/ccEQR5l7.s:2388   .debug_str:0000000000000682 .LASF19
     /tmp/ccEQR5l7.s:2204   .debug_str:0000000000000000 .LASF21
     /tmp/ccEQR5l7.s:2382   .debug_str:000000000000064e .LASF22
     /tmp/ccEQR5l7.s:2242   .debug_str:0000000000000143 .LASF23
     /tmp/ccEQR5l7.s:2246   .debug_str:0000000000000158 .LASF24
     /tmp/ccEQR5l7.s:2344   .debug_str:0000000000000506 .LASF25
     /tmp/ccEQR5l7.s:2360   .debug_str:00000000000005ab .LASF26
     /tmp/ccEQR5l7.s:2356   .debug_str:000000000000058a .LASF27
     /tmp/ccEQR5l7.s:2364   .debug_str:00000000000005c1 .LASF29
     /tmp/ccEQR5l7.s:2338   .debug_str:00000000000004ef .LASF28
     /tmp/ccEQR5l7.s:2262   .debug_str:0000000000000296 .LASF30
     /tmp/ccEQR5l7.s:2214   .debug_str:0000000000000056 .LASF46
     /tmp/ccEQR5l7.s:2346   .debug_str:000000000000050f .LASF48
     /tmp/ccEQR5l7.s:2268   .debug_str:00000000000002cb .LASF33
     /tmp/ccEQR5l7.s:2256   .debug_str:0000000000000222 .LASF35
     /tmp/ccEQR5l7.s:2386   .debug_str:000000000000066c .LASF31
     /tmp/ccEQR5l7.s:2258   .debug_str:0000000000000257 .LASF32
     /tmp/ccEQR5l7.s:2384   .debug_str:0000000000000657 .LASF34
     /tmp/ccEQR5l7.s:2312   .debug_str:0000000000000415 .LASF36
     /tmp/ccEQR5l7.s:2286   .debug_str:0000000000000353 .LASF53
     /tmp/ccEQR5l7.s:2330   .debug_str:0000000000000492 .LASF55
     /tmp/ccEQR5l7.s:2332   .debug_str:00000000000004bc .LASF38
     /tmp/ccEQR5l7.s:2290   .debug_str:0000000000000372 .LASF86
     /tmp/ccEQR5l7.s:2274   .debug_str:0000000000000312 .LASF87
     /tmp/ccEQR5l7.s:2374   .debug_str:000000000000061b .LASF39
     /tmp/ccEQR5l7.s:2208   .debug_str:0000000000000022 .LASF40
     /tmp/ccEQR5l7.s:2220   .debug_str:0000000000000073 .LASF41
     /tmp/ccEQR5l7.s:2282   .debug_str:0000000000000346 .LASF42
     /tmp/ccEQR5l7.s:2308   .debug_str:00000000000003f8 .LASF43
     /tmp/ccEQR5l7.s:2236   .debug_str:00000000000000f3 .LASF67
     /tmp/ccEQR5l7.s:2320   .debug_str:0000000000000454 .LASF44
     /tmp/ccEQR5l7.s:2276   .debug_str:0000000000000326 .LASF45
     /tmp/ccEQR5l7.s:2306   .debug_str:00000000000003ef .LASF47
     /tmp/ccEQR5l7.s:2272   .debug_str:00000000000002ff .LASF49
     /tmp/ccEQR5l7.s:2314   .debug_str:0000000000000444 .LASF50
     /tmp/ccEQR5l7.s:2292   .debug_str:000000000000038a .LASF51
     /tmp/ccEQR5l7.s:2252   .debug_str:0000000000000214 .LASF88
     /tmp/ccEQR5l7.s:2288   .debug_str:0000000000000364 .LASF52
     /tmp/ccEQR5l7.s:2376   .debug_str:0000000000000624 .LASF54
     /tmp/ccEQR5l7.s:2230   .debug_str:00000000000000ba .LASF56
     /tmp/ccEQR5l7.s:2350   .debug_str:0000000000000548 .LASF57
     /tmp/ccEQR5l7.s:2228   .debug_str:00000000000000a5 .LASF58
     /tmp/ccEQR5l7.s:2250   .debug_str:000000000000020d .LASF89
     /tmp/ccEQR5l7.s:2260   .debug_str:0000000000000285 .LASF90
     /tmp/ccEQR5l7.s:2284   .debug_str:000000000000034b .LASF59
     /tmp/ccEQR5l7.s:2380   .debug_str:0000000000000644 .LASF60
     /tmp/ccEQR5l7.s:2280   .debug_str:000000000000033d .LASF61
     /tmp/ccEQR5l7.s:2362   .debug_str:00000000000005b5 .LASF62
     /tmp/ccEQR5l7.s:2318   .debug_str:000000000000044f .LASF63
     /tmp/ccEQR5l7.s:2234   .debug_str:00000000000000ee .LASF64
     /tmp/ccEQR5l7.s:2390   .debug_str:0000000000000687 .LASF65
     /tmp/ccEQR5l7.s:2316   .debug_str:000000000000044a .LASF66
GAS LISTING /tmp/ccEQR5l7.s 			page 13


     /tmp/ccEQR5l7.s:2358   .debug_str:0000000000000594 .LASF68
     /tmp/ccEQR5l7.s:2266   .debug_str:00000000000002c5 .LASF91
     /tmp/ccEQR5l7.s:2270   .debug_str:00000000000002e6 .LASF92
     /tmp/ccEQR5l7.s:2328   .debug_str:000000000000048d .LASF69
     /tmp/ccEQR5l7.s:2334   .debug_str:00000000000004c6 .LASF70
     /tmp/ccEQR5l7.s:2254   .debug_str:000000000000021c .LASF71
     /tmp/ccEQR5l7.s:2370   .debug_str:00000000000005f6 .LASF72
     /tmp/ccEQR5l7.s:2226   .debug_str:000000000000009e .LASF73
     /tmp/ccEQR5l7.s:2224   .debug_str:0000000000000089 .LASF74
     /tmp/ccEQR5l7.s:2212   .debug_str:0000000000000051 .LASF75
     /tmp/ccEQR5l7.s:2310   .debug_str:00000000000003fd .LASF93
     /tmp/ccEQR5l7.s:2210   .debug_str:000000000000002a .LASF76
     /tmp/ccEQR5l7.s:296    .text:00000000000000d8 .LFB11
     /tmp/ccEQR5l7.s:322    .text:000000000000010c .LFE11
     /tmp/ccEQR5l7.s:312    .text:00000000000000fc .LVL24
     /tmp/ccEQR5l7.s:2352   .debug_str:000000000000054e .LASF77
     /tmp/ccEQR5l7.s:9      .text:0000000000000000 .LFB10
     /tmp/ccEQR5l7.s:49     .text:000000000000004c .LFE10
     /tmp/ccEQR5l7.s:2296   .debug_str:00000000000003aa .LASF78
     /tmp/ccEQR5l7.s:2031   .debug_loc:0000000000000000 .LLST0
     /tmp/ccEQR5l7.s:2218   .debug_str:0000000000000068 .LASF79
     /tmp/ccEQR5l7.s:2045   .debug_loc:0000000000000039 .LLST1
     /tmp/ccEQR5l7.s:36     .text:0000000000000034 .LVL2
     /tmp/ccEQR5l7.s:183    .text._ZN5QueueIP3PCBE3popEv:0000000000000000 .LFB9
     /tmp/ccEQR5l7.s:239    .text._ZN5QueueIP3PCBE3popEv:0000000000000058 .LFE9
     /tmp/ccEQR5l7.s:2340   .debug_str:00000000000004f8 .LASF81
     /tmp/ccEQR5l7.s:2059   .debug_loc:0000000000000072 .LLST6
     /tmp/ccEQR5l7.s:2342   .debug_str:00000000000004fd .LASF80
     /tmp/ccEQR5l7.s:2081   .debug_loc:00000000000000d1 .LLST7
     /tmp/ccEQR5l7.s:208    .text._ZN5QueueIP3PCBE3popEv:000000000000002c .LVL16
     /tmp/ccEQR5l7.s:150    .text._ZN5QueueIP3PCBE5frontEv:0000000000000000 .LFB8
     /tmp/ccEQR5l7.s:176    .text._ZN5QueueIP3PCBE5frontEv:0000000000000024 .LFE8
     /tmp/ccEQR5l7.s:2092   .debug_loc:0000000000000107 .LLST5
     /tmp/ccEQR5l7.s:56     .text._ZN5QueueIP3PCBE4pushES1_:0000000000000000 .LFB7
     /tmp/ccEQR5l7.s:107    .text._ZN5QueueIP3PCBE4pushES1_:0000000000000050 .LFE7
     /tmp/ccEQR5l7.s:2106   .debug_loc:0000000000000140 .LLST2
     /tmp/ccEQR5l7.s:2128   .debug_loc:000000000000019f .LLST3
     /tmp/ccEQR5l7.s:2300   .debug_str:00000000000003c7 .LASF82
     /tmp/ccEQR5l7.s:76     .text._ZN5QueueIP3PCBE4pushES1_:0000000000000024 .LVL5
     /tmp/ccEQR5l7.s:246    .text:0000000000000080 .LFB6
     /tmp/ccEQR5l7.s:291    .text:00000000000000d8 .LFE6
     /tmp/ccEQR5l7.s:2142   .debug_loc:00000000000001d8 .LLST8
     /tmp/ccEQR5l7.s:266    .text:00000000000000ac .LVL20
     /tmp/ccEQR5l7.s:273    .text:00000000000000bc .LVL22
     /tmp/ccEQR5l7.s:114    .text:000000000000004c .LFB5
     /tmp/ccEQR5l7.s:143    .text:0000000000000080 .LFE5
     /tmp/ccEQR5l7.s:2153   .debug_loc:000000000000020e .LLST4
     /tmp/ccEQR5l7.s:132    .text:0000000000000070 .LVL10
     /tmp/ccEQR5l7.s:13     .text:0000000000000000 .LVL0
     /tmp/ccEQR5l7.s:34     .text:000000000000002c .LVL1
     /tmp/ccEQR5l7.s:186    .text._ZN5QueueIP3PCBE3popEv:0000000000000000 .LVL13
     /tmp/ccEQR5l7.s:202    .text._ZN5QueueIP3PCBE3popEv:0000000000000020 .LVL14
     /tmp/ccEQR5l7.s:223    .text._ZN5QueueIP3PCBE3popEv:0000000000000040 .LVL17
     /tmp/ccEQR5l7.s:230    .text._ZN5QueueIP3PCBE3popEv:000000000000004c .LVL19
     /tmp/ccEQR5l7.s:205    .text._ZN5QueueIP3PCBE3popEv:0000000000000024 .LVL15
     /tmp/ccEQR5l7.s:226    .text._ZN5QueueIP3PCBE3popEv:0000000000000044 .LVL18
     /tmp/ccEQR5l7.s:153    .text._ZN5QueueIP3PCBE5frontEv:0000000000000000 .LVL11
GAS LISTING /tmp/ccEQR5l7.s 			page 14


     /tmp/ccEQR5l7.s:162    .text._ZN5QueueIP3PCBE5frontEv:0000000000000010 .LVL12
     /tmp/ccEQR5l7.s:60     .text._ZN5QueueIP3PCBE4pushES1_:0000000000000000 .LVL3
     /tmp/ccEQR5l7.s:74     .text._ZN5QueueIP3PCBE4pushES1_:000000000000001c .LVL4
     /tmp/ccEQR5l7.s:91     .text._ZN5QueueIP3PCBE4pushES1_:0000000000000038 .LVL6
     /tmp/ccEQR5l7.s:95     .text._ZN5QueueIP3PCBE4pushES1_:0000000000000040 .LVL7
     /tmp/ccEQR5l7.s:268    .text:00000000000000b0 .LVL21
     /tmp/ccEQR5l7.s:284    .text:00000000000000cc .LVL23
     /tmp/ccEQR5l7.s:117    .text:000000000000004c .LVL8
     /tmp/ccEQR5l7.s:130    .text:0000000000000068 .LVL9
     /tmp/ccEQR5l7.s:342    .debug_info:0000000000000000 .Ldebug_info0
     /tmp/ccEQR5l7.s:5      .text:0000000000000000 .Ltext0
     /tmp/ccEQR5l7.s:336    .text:000000000000010c .Letext0

UNDEFINED SYMBOLS
_ZN15MemoryAllocator9mem_allocEm
_ZN15MemoryAllocator8mem_freeEPv
