GAS LISTING /tmp/cc8KtXbN.s 			page 1


   1              		.file	"Scheduler.cpp"
   2              		.option pic
   3              		.option norelax
   4              		.text
   5              	.Ltext0:
   6              		.align	2
   7              		.globl	_ZN9Scheduler4put2EP3PCB
   9              	_ZN9Scheduler4put2EP3PCB:
  10              	.LFB21:
  11              		.file 1 "src/Scheduler.cpp"
   1:src/Scheduler.cpp **** //
   2:src/Scheduler.cpp **** // Created by os on 4/27/22.
   3:src/Scheduler.cpp **** //
   4:src/Scheduler.cpp **** 
   5:src/Scheduler.cpp **** #include "../h/Scheduler.hpp"
   6:src/Scheduler.cpp **** #include "../h/PCB.hpp"
   7:src/Scheduler.cpp **** 
   8:src/Scheduler.cpp **** //todo
   9:src/Scheduler.cpp **** PCB* Scheduler::schedulerPCBHead = 0;
  10:src/Scheduler.cpp **** PCB* Scheduler::schedulerPCBTail = 0;
  11:src/Scheduler.cpp **** 
  12:src/Scheduler.cpp **** //todo
  13:src/Scheduler.cpp **** void Scheduler::put2(PCB *pcb) {
  12              		.loc 1 13 32
  13              		.cfi_startproc
  14              	.LVL0:
  15 0000 130101FF 		addi	sp,sp,-16
  16              		.cfi_def_cfa_offset 16
  17 0004 23348100 		sd	s0,8(sp)
  18              		.cfi_offset 8, -8
  19 0008 13040101 		addi	s0,sp,16
  20              		.cfi_def_cfa 8, 0
  14:src/Scheduler.cpp ****     //pcb->setState(PCB::READY);
  15:src/Scheduler.cpp ****     //if(scheduler == 0)
  16:src/Scheduler.cpp ****     //    scheduler = new Scheduler();
  17:src/Scheduler.cpp ****     //scheduler->queuePCB.push(pcb);
  18:src/Scheduler.cpp **** }
  21              		.loc 1 18 1 is_stmt 0
  22 000c 03348100 		ld	s0,8(sp)
  23              		.cfi_restore 8
  24              		.cfi_def_cfa 2, 16
  25 0010 13010101 		addi	sp,sp,16
  26              		.cfi_def_cfa_offset 0
  27 0014 67800000 		jr	ra
  28              		.cfi_endproc
  29              	.LFE21:
  31              		.align	2
  32              		.globl	_ZN9Scheduler4get2Ev
  34              	_ZN9Scheduler4get2Ev:
  35              	.LFB22:
  19:src/Scheduler.cpp **** 
  20:src/Scheduler.cpp **** //todo
  21:src/Scheduler.cpp **** PCB *Scheduler::get2() {
  36              		.loc 1 21 24 is_stmt 1
  37              		.cfi_startproc
  38 0018 130101FF 		addi	sp,sp,-16
  39              		.cfi_def_cfa_offset 16
GAS LISTING /tmp/cc8KtXbN.s 			page 2


  40 001c 23348100 		sd	s0,8(sp)
  41              		.cfi_offset 8, -8
  42 0020 13040101 		addi	s0,sp,16
  43              		.cfi_def_cfa 8, 0
  22:src/Scheduler.cpp ****     //if(scheduler == 0)
  23:src/Scheduler.cpp ****     //    scheduler = new Scheduler();
  24:src/Scheduler.cpp ****     //PCB* fr = scheduler->queuePCB.front();
  25:src/Scheduler.cpp ****     //scheduler->queuePCB.pop();
  26:src/Scheduler.cpp ****     return 0;
  44              		.loc 1 26 5
  27:src/Scheduler.cpp **** }
  45              		.loc 1 27 1 is_stmt 0
  46 0024 13050000 		li	a0,0
  47 0028 03348100 		ld	s0,8(sp)
  48              		.cfi_restore 8
  49              		.cfi_def_cfa 2, 16
  50 002c 13010101 		addi	sp,sp,16
  51              		.cfi_def_cfa_offset 0
  52 0030 67800000 		jr	ra
  53              		.cfi_endproc
  54              	.LFE22:
  56              		.align	2
  57              		.globl	_ZN9SchedulernwEm
  59              	_ZN9SchedulernwEm:
  60              	.LFB23:
  28:src/Scheduler.cpp **** 
  29:src/Scheduler.cpp **** void *Scheduler::operator new(size_t size) {
  61              		.loc 1 29 44 is_stmt 1
  62              		.cfi_startproc
  63              	.LVL1:
  64 0034 130101FF 		addi	sp,sp,-16
  65              		.cfi_def_cfa_offset 16
  66 0038 23341100 		sd	ra,8(sp)
  67 003c 23308100 		sd	s0,0(sp)
  68              		.cfi_offset 1, -8
  69              		.cfi_offset 8, -16
  70 0040 13040101 		addi	s0,sp,16
  71              		.cfi_def_cfa 8, 0
  30:src/Scheduler.cpp ****     return kmalloc(size);
  72              		.loc 1 30 5
  73              		.loc 1 30 19 is_stmt 0
  74 0044 97000000 		call	_Z7kmallocm@plt
  74      E7800000 
  75              	.LVL2:
  31:src/Scheduler.cpp **** }
  76              		.loc 1 31 1
  77 004c 83308100 		ld	ra,8(sp)
  78              		.cfi_restore 1
  79 0050 03340100 		ld	s0,0(sp)
  80              		.cfi_restore 8
  81              		.cfi_def_cfa 2, 16
  82 0054 13010101 		addi	sp,sp,16
  83              		.cfi_def_cfa_offset 0
  84 0058 67800000 		jr	ra
  85              		.cfi_endproc
  86              	.LFE23:
  88              		.align	2
GAS LISTING /tmp/cc8KtXbN.s 			page 3


  89              		.globl	_ZN9SchedulerdlEPv
  91              	_ZN9SchedulerdlEPv:
  92              	.LFB24:
  32:src/Scheduler.cpp **** 
  33:src/Scheduler.cpp **** void Scheduler::operator delete(void *p) {
  93              		.loc 1 33 42 is_stmt 1
  94              		.cfi_startproc
  95              	.LVL3:
  96 005c 130101FF 		addi	sp,sp,-16
  97              		.cfi_def_cfa_offset 16
  98 0060 23341100 		sd	ra,8(sp)
  99 0064 23308100 		sd	s0,0(sp)
 100              		.cfi_offset 1, -8
 101              		.cfi_offset 8, -16
 102 0068 13040101 		addi	s0,sp,16
 103              		.cfi_def_cfa 8, 0
  34:src/Scheduler.cpp ****     //todo
  35:src/Scheduler.cpp ****     kfree(p);
 104              		.loc 1 35 5
 105              		.loc 1 35 10 is_stmt 0
 106 006c 97000000 		call	_Z5kfreePv@plt
 106      E7800000 
 107              	.LVL4:
  36:src/Scheduler.cpp **** }
 108              		.loc 1 36 1
 109 0074 83308100 		ld	ra,8(sp)
 110              		.cfi_restore 1
 111 0078 03340100 		ld	s0,0(sp)
 112              		.cfi_restore 8
 113              		.cfi_def_cfa 2, 16
 114 007c 13010101 		addi	sp,sp,16
 115              		.cfi_def_cfa_offset 0
 116 0080 67800000 		jr	ra
 117              		.cfi_endproc
 118              	.LFE24:
 120              		.align	2
 121              		.globl	_ZN9Scheduler7getSizeEv
 123              	_ZN9Scheduler7getSizeEv:
 124              	.LFB25:
  37:src/Scheduler.cpp **** 
  38:src/Scheduler.cpp **** int Scheduler::getSize() {
 125              		.loc 1 38 26 is_stmt 1
 126              		.cfi_startproc
 127 0084 130101FF 		addi	sp,sp,-16
 128              		.cfi_def_cfa_offset 16
 129 0088 23348100 		sd	s0,8(sp)
 130              		.cfi_offset 8, -8
 131 008c 13040101 		addi	s0,sp,16
 132              		.cfi_def_cfa 8, 0
  39:src/Scheduler.cpp ****     //todo
  40:src/Scheduler.cpp ****     //if(scheduler == 0)
  41:src/Scheduler.cpp ****     //    scheduler = new Scheduler();
  42:src/Scheduler.cpp ****     //return scheduler->queuePCB.size();
  43:src/Scheduler.cpp ****     return 0;
 133              		.loc 1 43 5
  44:src/Scheduler.cpp **** }
 134              		.loc 1 44 1 is_stmt 0
GAS LISTING /tmp/cc8KtXbN.s 			page 4


 135 0090 13050000 		li	a0,0
 136 0094 03348100 		ld	s0,8(sp)
 137              		.cfi_restore 8
 138              		.cfi_def_cfa 2, 16
 139 0098 13010101 		addi	sp,sp,16
 140              		.cfi_def_cfa_offset 0
 141 009c 67800000 		jr	ra
 142              		.cfi_endproc
 143              	.LFE25:
 145              		.align	2
 146              		.globl	_ZN9Scheduler3putEP3PCB
 148              	_ZN9Scheduler3putEP3PCB:
 149              	.LFB26:
  45:src/Scheduler.cpp **** 
  46:src/Scheduler.cpp **** void Scheduler::put(PCB *pcb) {
 150              		.loc 1 46 31 is_stmt 1
 151              		.cfi_startproc
 152              	.LVL5:
 153 00a0 130101FF 		addi	sp,sp,-16
 154              		.cfi_def_cfa_offset 16
 155 00a4 23348100 		sd	s0,8(sp)
 156              		.cfi_offset 8, -8
 157 00a8 13040101 		addi	s0,sp,16
 158              		.cfi_def_cfa 8, 0
  47:src/Scheduler.cpp ****     pcb->setState(PCB::READY);
 159              		.loc 1 47 5
 160              	.LVL6:
 161              	.LBB4:
 162              	.LBB5:
 163              		.file 2 "src/../h/PCB.hpp"
   1:src/../h/PCB.hpp **** //
   2:src/../h/PCB.hpp **** // Created by os on 4/27/22.
   3:src/../h/PCB.hpp **** //
   4:src/../h/PCB.hpp **** 
   5:src/../h/PCB.hpp **** #ifndef PROJECT_BASE_V1_0_PCB_HPP
   6:src/../h/PCB.hpp **** #define PROJECT_BASE_V1_0_PCB_HPP
   7:src/../h/PCB.hpp **** 
   8:src/../h/PCB.hpp **** #include "../lib/hw.h"
   9:src/../h/PCB.hpp **** #include "Scheduler.hpp"
  10:src/../h/PCB.hpp **** #include "Riscv.hpp"
  11:src/../h/PCB.hpp **** 
  12:src/../h/PCB.hpp **** class PCB
  13:src/../h/PCB.hpp **** {
  14:src/../h/PCB.hpp **** public:
  15:src/../h/PCB.hpp ****     using Body = void (*)(void*);
  16:src/../h/PCB.hpp **** 
  17:src/../h/PCB.hpp ****     PCB(Body body,  void* args, void* stack_space, uint64 timeSlice);
  18:src/../h/PCB.hpp ****     ~PCB();
  19:src/../h/PCB.hpp **** 
  20:src/../h/PCB.hpp ****     void start();
  21:src/../h/PCB.hpp ****     static void dispatch();
  22:src/../h/PCB.hpp ****     static void sleep(time_t);
  23:src/../h/PCB.hpp **** 
  24:src/../h/PCB.hpp ****     static PCB* running;
  25:src/../h/PCB.hpp ****     static PCB* exitingPCB;
  26:src/../h/PCB.hpp **** 
  27:src/../h/PCB.hpp ****     static uint64 timeSliceCounter;
GAS LISTING /tmp/cc8KtXbN.s 			page 5


  28:src/../h/PCB.hpp ****     uint64 getTimeSlice() { return timeSlice;}
  29:src/../h/PCB.hpp **** 
  30:src/../h/PCB.hpp ****     void* operator new(size_t size);
  31:src/../h/PCB.hpp ****     void operator delete(void *p);
  32:src/../h/PCB.hpp **** 
  33:src/../h/PCB.hpp ****     enum State{READY, RUNNING, SUSPENDED, FINISHED, EXITING, SLEEPING};
  34:src/../h/PCB.hpp ****     State getState() {return state;}
  35:src/../h/PCB.hpp ****     void setState(State s) {state = s;}
 164              		.loc 2 35 29
 165              		.loc 2 35 35 is_stmt 0
 166 00ac 23280502 		sw	zero,48(a0)
 167              	.LVL7:
 168              	.LBE5:
 169              	.LBE4:
  48:src/Scheduler.cpp ****     pcb->nextPCB = 0;
 170              		.loc 1 48 5 is_stmt 1
 171              		.loc 1 48 18 is_stmt 0
 172 00b0 23300500 		sd	zero,0(a0)
  49:src/Scheduler.cpp ****     if(schedulerPCBHead == 0)
 173              		.loc 1 49 5 is_stmt 1
 174              		.loc 1 49 25 is_stmt 0
 175 00b4 97070000 		ld	a5,.LANCHOR0
 175      83B70700 
 176              		.loc 1 49 5
 177 00bc 63820702 		beqz	a5,.L15
  50:src/Scheduler.cpp ****     {
  51:src/Scheduler.cpp ****         schedulerPCBHead = schedulerPCBTail = pcb;
  52:src/Scheduler.cpp ****     }
  53:src/Scheduler.cpp ****     else
  54:src/Scheduler.cpp ****     {
  55:src/Scheduler.cpp ****         schedulerPCBTail->nextPCB = pcb;
 178              		.loc 1 55 9 is_stmt 1
 179              		.loc 1 55 27 is_stmt 0
 180 00c0 97070000 		lla	a5,.LANCHOR0
 180      93870700 
 181 00c8 03B78700 		ld	a4,8(a5)
 182              		.loc 1 55 35
 183 00cc 2330A700 		sd	a0,0(a4)
  56:src/Scheduler.cpp ****         schedulerPCBTail = pcb;
 184              		.loc 1 56 9 is_stmt 1
 185              		.loc 1 56 26 is_stmt 0
 186 00d0 23B4A700 		sd	a0,8(a5)
 187              	.L11:
  57:src/Scheduler.cpp ****     }
  58:src/Scheduler.cpp **** }
 188              		.loc 1 58 1
 189 00d4 03348100 		ld	s0,8(sp)
 190              		.cfi_remember_state
 191              		.cfi_restore 8
 192              		.cfi_def_cfa 2, 16
 193 00d8 13010101 		addi	sp,sp,16
 194              		.cfi_def_cfa_offset 0
 195 00dc 67800000 		jr	ra
 196              	.L15:
 197              		.cfi_restore_state
  51:src/Scheduler.cpp ****     }
 198              		.loc 1 51 9 is_stmt 1
GAS LISTING /tmp/cc8KtXbN.s 			page 6


  51:src/Scheduler.cpp ****     }
 199              		.loc 1 51 45 is_stmt 0
 200 00e0 97070000 		lla	a5,.LANCHOR0
 200      93870700 
 201 00e8 23B4A700 		sd	a0,8(a5)
  51:src/Scheduler.cpp ****     }
 202              		.loc 1 51 26
 203 00ec 23B0A700 		sd	a0,0(a5)
 204 00f0 6FF05FFE 		j	.L11
 205              		.cfi_endproc
 206              	.LFE26:
 208              		.align	2
 209              		.globl	_ZN9Scheduler3getEv
 211              	_ZN9Scheduler3getEv:
 212              	.LFB27:
  59:src/Scheduler.cpp **** 
  60:src/Scheduler.cpp **** PCB *Scheduler::get() {
 213              		.loc 1 60 23 is_stmt 1
 214              		.cfi_startproc
 215 00f4 130101FF 		addi	sp,sp,-16
 216              		.cfi_def_cfa_offset 16
 217 00f8 23348100 		sd	s0,8(sp)
 218              		.cfi_offset 8, -8
 219 00fc 13040101 		addi	s0,sp,16
 220              		.cfi_def_cfa 8, 0
  61:src/Scheduler.cpp ****     if(schedulerPCBHead == 0)
 221              		.loc 1 61 5
 222              		.loc 1 61 25 is_stmt 0
 223 0100 17050000 		ld	a0,.LANCHOR0
 223      03350500 
 224              		.loc 1 61 5
 225 0108 630C0500 		beqz	a0,.L16
  62:src/Scheduler.cpp ****         return 0;
  63:src/Scheduler.cpp ****     PCB* retval = schedulerPCBHead;
 226              		.loc 1 63 5 is_stmt 1
 227              	.LVL8:
  64:src/Scheduler.cpp ****     if(schedulerPCBHead->nextPCB == 0)
 228              		.loc 1 64 5
 229              		.loc 1 64 26 is_stmt 0
 230 010c 83370500 		ld	a5,0(a0)
 231              		.loc 1 64 5
 232 0110 638E0700 		beqz	a5,.L21
  65:src/Scheduler.cpp ****     {
  66:src/Scheduler.cpp ****         schedulerPCBHead = schedulerPCBTail = 0;
  67:src/Scheduler.cpp ****     }
  68:src/Scheduler.cpp ****     else
  69:src/Scheduler.cpp ****     {
  70:src/Scheduler.cpp ****         schedulerPCBHead = schedulerPCBHead->nextPCB;
 233              		.loc 1 70 9 is_stmt 1
 234              		.loc 1 70 26 is_stmt 0
 235 0114 17070000 		sd	a5,.LANCHOR0,a4
 235      2330F700 
 236              	.L19:
  71:src/Scheduler.cpp ****     }
  72:src/Scheduler.cpp ****     retval->nextPCB = 0;
 237              		.loc 1 72 5 is_stmt 1
 238              		.loc 1 72 21 is_stmt 0
GAS LISTING /tmp/cc8KtXbN.s 			page 7


 239 011c 23300500 		sd	zero,0(a0)
  73:src/Scheduler.cpp ****     return retval;
 240              		.loc 1 73 5 is_stmt 1
 241              	.LVL9:
 242              	.L16:
  74:src/Scheduler.cpp **** }
 243              		.loc 1 74 1 is_stmt 0
 244 0120 03348100 		ld	s0,8(sp)
 245              		.cfi_remember_state
 246              		.cfi_restore 8
 247              		.cfi_def_cfa 2, 16
 248 0124 13010101 		addi	sp,sp,16
 249              		.cfi_def_cfa_offset 0
 250 0128 67800000 		jr	ra
 251              	.LVL10:
 252              	.L21:
 253              		.cfi_restore_state
  66:src/Scheduler.cpp ****     }
 254              		.loc 1 66 9 is_stmt 1
  66:src/Scheduler.cpp ****     }
 255              		.loc 1 66 45 is_stmt 0
 256 012c 97070000 		lla	a5,.LANCHOR0
 256      93870700 
 257 0134 23B40700 		sd	zero,8(a5)
  66:src/Scheduler.cpp ****     }
 258              		.loc 1 66 26
 259 0138 23B00700 		sd	zero,0(a5)
 260 013c 6FF01FFE 		j	.L19
 261              		.cfi_endproc
 262              	.LFE27:
 264              		.globl	_ZN9Scheduler16schedulerPCBTailE
 265              		.globl	_ZN9Scheduler16schedulerPCBHeadE
 266              		.bss
 267              		.align	3
 268              		.set	.LANCHOR0,. + 0
 271              	_ZN9Scheduler16schedulerPCBHeadE:
 272 0000 00000000 		.zero	8
 272      00000000 
 275              	_ZN9Scheduler16schedulerPCBTailE:
 276 0008 00000000 		.zero	8
 276      00000000 
 277              		.text
 278              	.Letext0:
 279              		.file 3 "src/../h/../lib/hw.h"
 280              		.file 4 "src/../h/Queue.hpp"
 281              		.file 5 "src/../h/Scheduler.hpp"
 282              		.file 6 "src/../h/MemoryAllocator.hpp"
GAS LISTING /tmp/cc8KtXbN.s 			page 8


DEFINED SYMBOLS
                            *ABS*:0000000000000000 Scheduler.cpp
     /tmp/cc8KtXbN.s:9      .text:0000000000000000 _ZN9Scheduler4put2EP3PCB
     /tmp/cc8KtXbN.s:13     .text:0000000000000000 .L0 
     /tmp/cc8KtXbN.s:15     .text:0000000000000000 .L0 
     /tmp/cc8KtXbN.s:16     .text:0000000000000004 .L0 
     /tmp/cc8KtXbN.s:18     .text:0000000000000008 .L0 
     /tmp/cc8KtXbN.s:20     .text:000000000000000c .L0 
     /tmp/cc8KtXbN.s:22     .text:000000000000000c .L0 
     /tmp/cc8KtXbN.s:23     .text:0000000000000010 .L0 
     /tmp/cc8KtXbN.s:24     .text:0000000000000010 .L0 
     /tmp/cc8KtXbN.s:26     .text:0000000000000014 .L0 
     /tmp/cc8KtXbN.s:28     .text:0000000000000018 .L0 
     /tmp/cc8KtXbN.s:34     .text:0000000000000018 _ZN9Scheduler4get2Ev
     /tmp/cc8KtXbN.s:37     .text:0000000000000018 .L0 
     /tmp/cc8KtXbN.s:38     .text:0000000000000018 .L0 
     /tmp/cc8KtXbN.s:39     .text:000000000000001c .L0 
     /tmp/cc8KtXbN.s:41     .text:0000000000000020 .L0 
     /tmp/cc8KtXbN.s:43     .text:0000000000000024 .L0 
     /tmp/cc8KtXbN.s:45     .text:0000000000000024 .L0 
     /tmp/cc8KtXbN.s:46     .text:0000000000000024 .L0 
     /tmp/cc8KtXbN.s:48     .text:000000000000002c .L0 
     /tmp/cc8KtXbN.s:49     .text:000000000000002c .L0 
     /tmp/cc8KtXbN.s:51     .text:0000000000000030 .L0 
     /tmp/cc8KtXbN.s:53     .text:0000000000000034 .L0 
     /tmp/cc8KtXbN.s:59     .text:0000000000000034 _ZN9SchedulernwEm
     /tmp/cc8KtXbN.s:62     .text:0000000000000034 .L0 
     /tmp/cc8KtXbN.s:64     .text:0000000000000034 .L0 
     /tmp/cc8KtXbN.s:65     .text:0000000000000038 .L0 
     /tmp/cc8KtXbN.s:68     .text:0000000000000040 .L0 
     /tmp/cc8KtXbN.s:69     .text:0000000000000040 .L0 
     /tmp/cc8KtXbN.s:71     .text:0000000000000044 .L0 
     /tmp/cc8KtXbN.s:73     .text:0000000000000044 .L0 
     /tmp/cc8KtXbN.s:74     .text:0000000000000044 .L0 
     /tmp/cc8KtXbN.s:77     .text:000000000000004c .L0 
     /tmp/cc8KtXbN.s:78     .text:0000000000000050 .L0 
     /tmp/cc8KtXbN.s:80     .text:0000000000000054 .L0 
     /tmp/cc8KtXbN.s:81     .text:0000000000000054 .L0 
     /tmp/cc8KtXbN.s:83     .text:0000000000000058 .L0 
     /tmp/cc8KtXbN.s:85     .text:000000000000005c .L0 
     /tmp/cc8KtXbN.s:91     .text:000000000000005c _ZN9SchedulerdlEPv
     /tmp/cc8KtXbN.s:94     .text:000000000000005c .L0 
     /tmp/cc8KtXbN.s:96     .text:000000000000005c .L0 
     /tmp/cc8KtXbN.s:97     .text:0000000000000060 .L0 
     /tmp/cc8KtXbN.s:100    .text:0000000000000068 .L0 
     /tmp/cc8KtXbN.s:101    .text:0000000000000068 .L0 
     /tmp/cc8KtXbN.s:103    .text:000000000000006c .L0 
     /tmp/cc8KtXbN.s:105    .text:000000000000006c .L0 
     /tmp/cc8KtXbN.s:106    .text:000000000000006c .L0 
     /tmp/cc8KtXbN.s:109    .text:0000000000000074 .L0 
     /tmp/cc8KtXbN.s:110    .text:0000000000000078 .L0 
     /tmp/cc8KtXbN.s:112    .text:000000000000007c .L0 
     /tmp/cc8KtXbN.s:113    .text:000000000000007c .L0 
     /tmp/cc8KtXbN.s:115    .text:0000000000000080 .L0 
     /tmp/cc8KtXbN.s:117    .text:0000000000000084 .L0 
     /tmp/cc8KtXbN.s:123    .text:0000000000000084 _ZN9Scheduler7getSizeEv
     /tmp/cc8KtXbN.s:126    .text:0000000000000084 .L0 
GAS LISTING /tmp/cc8KtXbN.s 			page 9


     /tmp/cc8KtXbN.s:127    .text:0000000000000084 .L0 
     /tmp/cc8KtXbN.s:128    .text:0000000000000088 .L0 
     /tmp/cc8KtXbN.s:130    .text:000000000000008c .L0 
     /tmp/cc8KtXbN.s:132    .text:0000000000000090 .L0 
     /tmp/cc8KtXbN.s:134    .text:0000000000000090 .L0 
     /tmp/cc8KtXbN.s:135    .text:0000000000000090 .L0 
     /tmp/cc8KtXbN.s:137    .text:0000000000000098 .L0 
     /tmp/cc8KtXbN.s:138    .text:0000000000000098 .L0 
     /tmp/cc8KtXbN.s:140    .text:000000000000009c .L0 
     /tmp/cc8KtXbN.s:142    .text:00000000000000a0 .L0 
     /tmp/cc8KtXbN.s:148    .text:00000000000000a0 _ZN9Scheduler3putEP3PCB
     /tmp/cc8KtXbN.s:151    .text:00000000000000a0 .L0 
     /tmp/cc8KtXbN.s:153    .text:00000000000000a0 .L0 
     /tmp/cc8KtXbN.s:154    .text:00000000000000a4 .L0 
     /tmp/cc8KtXbN.s:156    .text:00000000000000a8 .L0 
     /tmp/cc8KtXbN.s:158    .text:00000000000000ac .L0 
     /tmp/cc8KtXbN.s:164    .text:00000000000000ac .L0 
     /tmp/cc8KtXbN.s:165    .text:00000000000000ac .L0 
     /tmp/cc8KtXbN.s:166    .text:00000000000000ac .L0 
     /tmp/cc8KtXbN.s:171    .text:00000000000000b0 .L0 
     /tmp/cc8KtXbN.s:172    .text:00000000000000b0 .L0 
     /tmp/cc8KtXbN.s:174    .text:00000000000000b4 .L0 
     /tmp/cc8KtXbN.s:175    .text:00000000000000b4 .L0 
     /tmp/cc8KtXbN.s:177    .text:00000000000000bc .L0 
     /tmp/cc8KtXbN.s:179    .text:00000000000000c0 .L0 
     /tmp/cc8KtXbN.s:180    .text:00000000000000c0 .L0 
     /tmp/cc8KtXbN.s:183    .text:00000000000000cc .L0 
     /tmp/cc8KtXbN.s:185    .text:00000000000000d0 .L0 
     /tmp/cc8KtXbN.s:186    .text:00000000000000d0 .L0 
     /tmp/cc8KtXbN.s:189    .text:00000000000000d4 .L0 
     /tmp/cc8KtXbN.s:190    .text:00000000000000d8 .L0 
     /tmp/cc8KtXbN.s:191    .text:00000000000000d8 .L0 
     /tmp/cc8KtXbN.s:192    .text:00000000000000d8 .L0 
     /tmp/cc8KtXbN.s:194    .text:00000000000000dc .L0 
     /tmp/cc8KtXbN.s:197    .text:00000000000000e0 .L0 
     /tmp/cc8KtXbN.s:199    .text:00000000000000e0 .L0 
     /tmp/cc8KtXbN.s:200    .text:00000000000000e0 .L0 
     /tmp/cc8KtXbN.s:203    .text:00000000000000ec .L0 
     /tmp/cc8KtXbN.s:205    .text:00000000000000f4 .L0 
     /tmp/cc8KtXbN.s:211    .text:00000000000000f4 _ZN9Scheduler3getEv
     /tmp/cc8KtXbN.s:214    .text:00000000000000f4 .L0 
     /tmp/cc8KtXbN.s:215    .text:00000000000000f4 .L0 
     /tmp/cc8KtXbN.s:216    .text:00000000000000f8 .L0 
     /tmp/cc8KtXbN.s:218    .text:00000000000000fc .L0 
     /tmp/cc8KtXbN.s:220    .text:0000000000000100 .L0 
     /tmp/cc8KtXbN.s:222    .text:0000000000000100 .L0 
     /tmp/cc8KtXbN.s:223    .text:0000000000000100 .L0 
     /tmp/cc8KtXbN.s:225    .text:0000000000000108 .L0 
     /tmp/cc8KtXbN.s:228    .text:000000000000010c .L0 
     /tmp/cc8KtXbN.s:229    .text:000000000000010c .L0 
     /tmp/cc8KtXbN.s:230    .text:000000000000010c .L0 
     /tmp/cc8KtXbN.s:232    .text:0000000000000110 .L0 
     /tmp/cc8KtXbN.s:234    .text:0000000000000114 .L0 
     /tmp/cc8KtXbN.s:235    .text:0000000000000114 .L0 
     /tmp/cc8KtXbN.s:238    .text:000000000000011c .L0 
     /tmp/cc8KtXbN.s:239    .text:000000000000011c .L0 
     /tmp/cc8KtXbN.s:243    .text:0000000000000120 .L0 
GAS LISTING /tmp/cc8KtXbN.s 			page 10


     /tmp/cc8KtXbN.s:244    .text:0000000000000120 .L0 
     /tmp/cc8KtXbN.s:245    .text:0000000000000124 .L0 
     /tmp/cc8KtXbN.s:246    .text:0000000000000124 .L0 
     /tmp/cc8KtXbN.s:247    .text:0000000000000124 .L0 
     /tmp/cc8KtXbN.s:249    .text:0000000000000128 .L0 
     /tmp/cc8KtXbN.s:253    .text:000000000000012c .L0 
     /tmp/cc8KtXbN.s:255    .text:000000000000012c .L0 
     /tmp/cc8KtXbN.s:256    .text:000000000000012c .L0 
     /tmp/cc8KtXbN.s:259    .text:0000000000000138 .L0 
     /tmp/cc8KtXbN.s:261    .text:0000000000000140 .L0 
     /tmp/cc8KtXbN.s:275    .bss:0000000000000008 _ZN9Scheduler16schedulerPCBTailE
     /tmp/cc8KtXbN.s:271    .bss:0000000000000000 _ZN9Scheduler16schedulerPCBHeadE
     /tmp/cc8KtXbN.s:268    .bss:0000000000000000 .LANCHOR0
     /tmp/cc8KtXbN.s:283    .text:0000000000000140 .L0 
     /tmp/cc8KtXbN.s:175    .text:00000000000000b4 .L0 
     /tmp/cc8KtXbN.s:180    .text:00000000000000c0 .L0 
     /tmp/cc8KtXbN.s:200    .text:00000000000000e0 .L0 
     /tmp/cc8KtXbN.s:223    .text:0000000000000100 .L0 
     /tmp/cc8KtXbN.s:235    .text:0000000000000114 .L0 
     /tmp/cc8KtXbN.s:256    .text:000000000000012c .L0 
     /tmp/cc8KtXbN.s:196    .text:00000000000000e0 .L15
     /tmp/cc8KtXbN.s:187    .text:00000000000000d4 .L11
     /tmp/cc8KtXbN.s:242    .text:0000000000000120 .L16
     /tmp/cc8KtXbN.s:252    .text:000000000000012c .L21
     /tmp/cc8KtXbN.s:236    .text:000000000000011c .L19
     /tmp/cc8KtXbN.s:1242   .debug_abbrev:0000000000000000 .Ldebug_abbrev0
     /tmp/cc8KtXbN.s:2343   .debug_str:0000000000000347 .LASF103
     /tmp/cc8KtXbN.s:2315   .debug_str:0000000000000299 .LASF104
     /tmp/cc8KtXbN.s:2419   .debug_str:00000000000005da .LASF105
     /tmp/cc8KtXbN.s:5      .text:0000000000000000 .Ltext0
     /tmp/cc8KtXbN.s:278    .text:0000000000000140 .Letext0
     /tmp/cc8KtXbN.s:2223   .debug_line:0000000000000000 .Ldebug_line0
     /tmp/cc8KtXbN.s:2309   .debug_str:0000000000000272 .LASF0
     /tmp/cc8KtXbN.s:2329   .debug_str:00000000000002ec .LASF1
     /tmp/cc8KtXbN.s:2375   .debug_str:00000000000004d8 .LASF2
     /tmp/cc8KtXbN.s:2379   .debug_str:00000000000004ef .LASF4
     /tmp/cc8KtXbN.s:2319   .debug_str:00000000000002b8 .LASF3
     /tmp/cc8KtXbN.s:2231   .debug_str:000000000000002f .LASF5
     /tmp/cc8KtXbN.s:2365   .debug_str:0000000000000495 .LASF6
     /tmp/cc8KtXbN.s:2361   .debug_str:000000000000047a .LASF7
     /tmp/cc8KtXbN.s:2323   .debug_str:00000000000002cf .LASF8
     /tmp/cc8KtXbN.s:2303   .debug_str:000000000000024e .LASF9
     /tmp/cc8KtXbN.s:2305   .debug_str:000000000000025e .LASF10
     /tmp/cc8KtXbN.s:2261   .debug_str:0000000000000152 .LASF11
     /tmp/cc8KtXbN.s:2293   .debug_str:0000000000000215 .LASF12
     /tmp/cc8KtXbN.s:2269   .debug_str:0000000000000179 .LASF13
     /tmp/cc8KtXbN.s:2259   .debug_str:0000000000000142 .LASF14
     /tmp/cc8KtXbN.s:2399   .debug_str:0000000000000586 .LASF15
     /tmp/cc8KtXbN.s:2285   .debug_str:00000000000001e7 .LASF16
     /tmp/cc8KtXbN.s:2395   .debug_str:0000000000000554 .LASF17
     /tmp/cc8KtXbN.s:2421   .debug_str:00000000000005fd .LASF28
     /tmp/cc8KtXbN.s:2429   .debug_str:0000000000000629 .LASF20
     /tmp/cc8KtXbN.s:2325   .debug_str:00000000000002e2 .LASF18
     /tmp/cc8KtXbN.s:2263   .debug_str:0000000000000161 .LASF19
     /tmp/cc8KtXbN.s:2405   .debug_str:000000000000059f .LASF21
     /tmp/cc8KtXbN.s:2335   .debug_str:0000000000000312 .LASF22
     /tmp/cc8KtXbN.s:2445   .debug_str:0000000000000673 .LASF39
GAS LISTING /tmp/cc8KtXbN.s 			page 11


     /tmp/cc8KtXbN.s:2427   .debug_str:0000000000000623 .LASF24
     /tmp/cc8KtXbN.s:2273   .debug_str:000000000000019a .LASF26
     /tmp/cc8KtXbN.s:2311   .debug_str:000000000000027f .LASF23
     /tmp/cc8KtXbN.s:2389   .debug_str:0000000000000529 .LASF29
     /tmp/cc8KtXbN.s:2327   .debug_str:00000000000002e7 .LASF25
     /tmp/cc8KtXbN.s:2371   .debug_str:00000000000004af .LASF27
     /tmp/cc8KtXbN.s:2283   .debug_str:00000000000001d9 .LASF30
     /tmp/cc8KtXbN.s:2369   .debug_str:00000000000004a8 .LASF45
     /tmp/cc8KtXbN.s:2243   .debug_str:00000000000000b3 .LASF47
     /tmp/cc8KtXbN.s:2409   .debug_str:00000000000005aa .LASF106
     /tmp/cc8KtXbN.s:2257   .debug_str:000000000000013c .LASF31
     /tmp/cc8KtXbN.s:2391   .debug_str:000000000000053e .LASF32
     /tmp/cc8KtXbN.s:2267   .debug_str:000000000000016f .LASF33
     /tmp/cc8KtXbN.s:2249   .debug_str:00000000000000dd .LASF34
     /tmp/cc8KtXbN.s:2363   .debug_str:000000000000048d .LASF35
     /tmp/cc8KtXbN.s:2265   .debug_str:0000000000000166 .LASF36
     /tmp/cc8KtXbN.s:2403   .debug_str:0000000000000597 .LASF37
     /tmp/cc8KtXbN.s:2307   .debug_str:000000000000026c .LASF38
     /tmp/cc8KtXbN.s:2425   .debug_str:000000000000060b .LASF40
     /tmp/cc8KtXbN.s:2351   .debug_str:000000000000042c .LASF107
     /tmp/cc8KtXbN.s:2433   .debug_str:000000000000063a .LASF41
     /tmp/cc8KtXbN.s:2451   .debug_str:000000000000069d .LASF42
     /tmp/cc8KtXbN.s:2447   .debug_str:0000000000000683 .LASF43
     /tmp/cc8KtXbN.s:2415   .debug_str:00000000000005c0 .LASF44
     /tmp/cc8KtXbN.s:2281   .debug_str:00000000000001d0 .LASF108
     /tmp/cc8KtXbN.s:2237   .debug_str:0000000000000057 .LASF109
     /tmp/cc8KtXbN.s:2331   .debug_str:00000000000002ff .LASF46
     /tmp/cc8KtXbN.s:2355   .debug_str:0000000000000444 .LASF48
     /tmp/cc8KtXbN.s:2411   .debug_str:00000000000005b0 .LASF49
     /tmp/cc8KtXbN.s:2435   .debug_str:000000000000063f .LASF50
     /tmp/cc8KtXbN.s:2383   .debug_str:00000000000004fe .LASF51
     /tmp/cc8KtXbN.s:2333   .debug_str:0000000000000305 .LASF52
     /tmp/cc8KtXbN.s:2337   .debug_str:0000000000000317 .LASF53
     /tmp/cc8KtXbN.s:2453   .debug_str:00000000000006a9 .LASF54
     /tmp/cc8KtXbN.s:2287   .debug_str:00000000000001fd .LASF55
     /tmp/cc8KtXbN.s:2229   .debug_str:000000000000001f .LASF56
     /tmp/cc8KtXbN.s:2317   .debug_str:00000000000002ab .LASF57
     /tmp/cc8KtXbN.s:2387   .debug_str:0000000000000520 .LASF58
     /tmp/cc8KtXbN.s:2347   .debug_str:000000000000040a .LASF59
     /tmp/cc8KtXbN.s:2377   .debug_str:00000000000004e6 .LASF60
     /tmp/cc8KtXbN.s:2397   .debug_str:000000000000056a .LASF61
     /tmp/cc8KtXbN.s:2349   .debug_str:000000000000041d .LASF62
     /tmp/cc8KtXbN.s:2225   .debug_str:0000000000000000 .LASF63
     /tmp/cc8KtXbN.s:2441   .debug_str:0000000000000659 .LASF64
     /tmp/cc8KtXbN.s:2359   .debug_str:0000000000000460 .LASF65
     /tmp/cc8KtXbN.s:2393   .debug_str:0000000000000546 .LASF66
     /tmp/cc8KtXbN.s:2367   .debug_str:000000000000049c .LASF67
     /tmp/cc8KtXbN.s:2279   .debug_str:00000000000001c0 .LASF68
     /tmp/cc8KtXbN.s:2443   .debug_str:0000000000000668 .LASF69
     /tmp/cc8KtXbN.s:2341   .debug_str:0000000000000337 .LASF70
     /tmp/cc8KtXbN.s:2381   .debug_str:00000000000004f6 .LASF110
     /tmp/cc8KtXbN.s:2417   .debug_str:00000000000005d0 .LASF71
     /tmp/cc8KtXbN.s:2357   .debug_str:0000000000000454 .LASF72
     /tmp/cc8KtXbN.s:2277   .debug_str:00000000000001b2 .LASF73
     /tmp/cc8KtXbN.s:2241   .debug_str:000000000000008b .LASF75
     /tmp/cc8KtXbN.s:2313   .debug_str:0000000000000284 .LASF74
     /tmp/cc8KtXbN.s:2255   .debug_str:0000000000000110 .LASF76
GAS LISTING /tmp/cc8KtXbN.s 			page 12


     /tmp/cc8KtXbN.s:2439   .debug_str:0000000000000652 .LASF111
     /tmp/cc8KtXbN.s:2253   .debug_str:00000000000000ff .LASF112
     /tmp/cc8KtXbN.s:2227   .debug_str:000000000000001a .LASF77
     /tmp/cc8KtXbN.s:2401   .debug_str:0000000000000592 .LASF78
     /tmp/cc8KtXbN.s:2339   .debug_str:000000000000032f .LASF79
     /tmp/cc8KtXbN.s:2275   .debug_str:00000000000001ac .LASF80
     /tmp/cc8KtXbN.s:2423   .debug_str:0000000000000603 .LASF81
     /tmp/cc8KtXbN.s:2245   .debug_str:00000000000000c1 .LASF82
     /tmp/cc8KtXbN.s:2301   .debug_str:0000000000000244 .LASF83
     /tmp/cc8KtXbN.s:2233   .debug_str:0000000000000036 .LASF113
     /tmp/cc8KtXbN.s:2449   .debug_str:0000000000000689 .LASF114
     /tmp/cc8KtXbN.s:2321   .debug_str:00000000000002ca .LASF84
     /tmp/cc8KtXbN.s:2251   .debug_str:00000000000000e6 .LASF85
     /tmp/cc8KtXbN.s:2291   .debug_str:0000000000000210 .LASF86
     /tmp/cc8KtXbN.s:2295   .debug_str:0000000000000224 .LASF90
     /tmp/cc8KtXbN.s:2247   .debug_str:00000000000000cb .LASF87
     /tmp/cc8KtXbN.s:2353   .debug_str:0000000000000431 .LASF88
     /tmp/cc8KtXbN.s:2413   .debug_str:00000000000005b8 .LASF89
     /tmp/cc8KtXbN.s:2373   .debug_str:00000000000004c0 .LASF91
     /tmp/cc8KtXbN.s:2385   .debug_str:000000000000050f .LASF92
     /tmp/cc8KtXbN.s:2271   .debug_str:0000000000000189 .LASF93
     /tmp/cc8KtXbN.s:2235   .debug_str:000000000000004e .LASF94
     /tmp/cc8KtXbN.s:2407   .debug_str:00000000000005a5 .LASF95
     /tmp/cc8KtXbN.s:2345   .debug_str:00000000000003e9 .LASF96
     /tmp/cc8KtXbN.s:2239   .debug_str:000000000000006a .LASF97
     /tmp/cc8KtXbN.s:212    .text:00000000000000f4 .LFB27
     /tmp/cc8KtXbN.s:262    .text:0000000000000140 .LFE27
     /tmp/cc8KtXbN.s:2289   .debug_str:0000000000000209 .LASF98
     /tmp/cc8KtXbN.s:2156   .debug_loc:0000000000000000 .LLST4
     /tmp/cc8KtXbN.s:149    .text:00000000000000a0 .LFB26
     /tmp/cc8KtXbN.s:206    .text:00000000000000f4 .LFE26
     /tmp/cc8KtXbN.s:161    .text:00000000000000ac .LBB4
     /tmp/cc8KtXbN.s:169    .text:00000000000000b0 .LBE4
     /tmp/cc8KtXbN.s:2167   .debug_loc:0000000000000036 .LLST2
     /tmp/cc8KtXbN.s:2175   .debug_loc:000000000000005a .LLST3
     /tmp/cc8KtXbN.s:124    .text:0000000000000084 .LFB25
     /tmp/cc8KtXbN.s:143    .text:00000000000000a0 .LFE25
     /tmp/cc8KtXbN.s:92     .text:000000000000005c .LFB24
     /tmp/cc8KtXbN.s:118    .text:0000000000000084 .LFE24
     /tmp/cc8KtXbN.s:2182   .debug_loc:000000000000007d .LLST1
     /tmp/cc8KtXbN.s:107    .text:0000000000000074 .LVL4
     /tmp/cc8KtXbN.s:60     .text:0000000000000034 .LFB23
     /tmp/cc8KtXbN.s:86     .text:000000000000005c .LFE23
     /tmp/cc8KtXbN.s:2196   .debug_loc:00000000000000b6 .LLST0
     /tmp/cc8KtXbN.s:75     .text:000000000000004c .LVL2
     /tmp/cc8KtXbN.s:35     .text:0000000000000018 .LFB22
     /tmp/cc8KtXbN.s:54     .text:0000000000000034 .LFE22
     /tmp/cc8KtXbN.s:10     .text:0000000000000000 .LFB21
     /tmp/cc8KtXbN.s:29     .text:0000000000000018 .LFE21
     /tmp/cc8KtXbN.s:2297   .debug_str:0000000000000239 .LASF115
     /tmp/cc8KtXbN.s:2455   .debug_str:00000000000006b6 .LASF99
     /tmp/cc8KtXbN.s:2299   .debug_str:000000000000023e .LASF101
     /tmp/cc8KtXbN.s:2431   .debug_str:000000000000062e .LASF100
     /tmp/cc8KtXbN.s:2437   .debug_str:000000000000064a .LASF102
     /tmp/cc8KtXbN.s:227    .text:000000000000010c .LVL8
     /tmp/cc8KtXbN.s:241    .text:0000000000000120 .LVL9
     /tmp/cc8KtXbN.s:251    .text:000000000000012c .LVL10
GAS LISTING /tmp/cc8KtXbN.s 			page 13


     /tmp/cc8KtXbN.s:160    .text:00000000000000ac .LVL6
     /tmp/cc8KtXbN.s:167    .text:00000000000000b0 .LVL7
     /tmp/cc8KtXbN.s:95     .text:000000000000005c .LVL3
     /tmp/cc8KtXbN.s:63     .text:0000000000000034 .LVL1
     /tmp/cc8KtXbN.s:284    .debug_info:0000000000000000 .Ldebug_info0

UNDEFINED SYMBOLS
_Z7kmallocm
_Z5kfreePv
