GAS LISTING /tmp/ccvAASak.s 			page 1


   1              		.file	"Scheduler.cpp"
   2              		.option pic
   3              		.option norelax
   4              		.text
   5              	.Ltext0:
   6              		.align	2
   7              		.globl	_ZN9SchedulernwEm
   9              	_ZN9SchedulernwEm:
  10              	.LFB24:
  11              		.file 1 "src/Scheduler.cpp"
   1:src/Scheduler.cpp **** //
   2:src/Scheduler.cpp **** // Created by os on 4/27/22.
   3:src/Scheduler.cpp **** //
   4:src/Scheduler.cpp **** 
   5:src/Scheduler.cpp **** #include "../h/Scheduler.h"
   6:src/Scheduler.cpp **** #include "../h/PCB.h"
   7:src/Scheduler.cpp **** 
   8:src/Scheduler.cpp **** //todo
   9:src/Scheduler.cpp **** Scheduler* Scheduler::scheduler = 0;
  10:src/Scheduler.cpp **** 
  11:src/Scheduler.cpp **** void Scheduler::put(PCB *pcb) {
  12:src/Scheduler.cpp ****     //Scheduler::queuePCB->push(pcb);
  13:src/Scheduler.cpp ****     //Riscv::printInteger(sizeof(Scheduler));
  14:src/Scheduler.cpp ****     //Riscv::printString("needs to put\n");
  15:src/Scheduler.cpp ****     if(scheduler == 0)
  16:src/Scheduler.cpp ****         scheduler = new Scheduler();
  17:src/Scheduler.cpp ****     scheduler->queuePCB.push(pcb);
  18:src/Scheduler.cpp ****     //Riscv::printString("put\n");
  19:src/Scheduler.cpp **** }
  20:src/Scheduler.cpp **** 
  21:src/Scheduler.cpp **** PCB *Scheduler::get() {
  22:src/Scheduler.cpp ****     if(scheduler == 0)
  23:src/Scheduler.cpp ****         scheduler = new Scheduler();
  24:src/Scheduler.cpp ****     PCB* fr = scheduler->queuePCB.front();
  25:src/Scheduler.cpp ****     scheduler->queuePCB.pop();
  26:src/Scheduler.cpp ****     return fr;
  27:src/Scheduler.cpp **** }
  28:src/Scheduler.cpp **** 
  29:src/Scheduler.cpp **** void *Scheduler::operator new(size_t size) {
  12              		.loc 1 29 44
  13              		.cfi_startproc
  14              	.LVL0:
  15 0000 130101FF 		addi	sp,sp,-16
  16              		.cfi_def_cfa_offset 16
  17 0004 23341100 		sd	ra,8(sp)
  18 0008 23308100 		sd	s0,0(sp)
  19              		.cfi_offset 1, -8
  20              		.cfi_offset 8, -16
  21 000c 13040101 		addi	s0,sp,16
  22              		.cfi_def_cfa 8, 0
  30:src/Scheduler.cpp ****     return kmalloc(size);
  23              		.loc 1 30 5
  24              		.loc 1 30 19 is_stmt 0
  25 0010 97000000 		call	_Z7kmallocm@plt
  25      E7800000 
  26              	.LVL1:
  31:src/Scheduler.cpp **** }
GAS LISTING /tmp/ccvAASak.s 			page 2


  27              		.loc 1 31 1
  28 0018 83308100 		ld	ra,8(sp)
  29              		.cfi_restore 1
  30 001c 03340100 		ld	s0,0(sp)
  31              		.cfi_restore 8
  32              		.cfi_def_cfa 2, 16
  33 0020 13010101 		addi	sp,sp,16
  34              		.cfi_def_cfa_offset 0
  35 0024 67800000 		jr	ra
  36              		.cfi_endproc
  37              	.LFE24:
  39              		.align	2
  40              		.globl	_ZN9Scheduler3putEP3PCB
  42              	_ZN9Scheduler3putEP3PCB:
  43              	.LFB19:
  11:src/Scheduler.cpp ****     //Scheduler::queuePCB->push(pcb);
  44              		.loc 1 11 31 is_stmt 1
  45              		.cfi_startproc
  46              	.LVL2:
  47 0028 130101FE 		addi	sp,sp,-32
  48              		.cfi_def_cfa_offset 32
  49 002c 233C1100 		sd	ra,24(sp)
  50 0030 23388100 		sd	s0,16(sp)
  51 0034 23349100 		sd	s1,8(sp)
  52 0038 23302101 		sd	s2,0(sp)
  53              		.cfi_offset 1, -8
  54              		.cfi_offset 8, -16
  55              		.cfi_offset 9, -24
  56              		.cfi_offset 18, -32
  57 003c 13040102 		addi	s0,sp,32
  58              		.cfi_def_cfa 8, 0
  59 0040 93040500 		mv	s1,a0
  15:src/Scheduler.cpp ****         scheduler = new Scheduler();
  60              		.loc 1 15 5
  15:src/Scheduler.cpp ****         scheduler = new Scheduler();
  61              		.loc 1 15 18 is_stmt 0
  62 0044 97070000 		ld	a5,.LANCHOR0
  62      83B70700 
  15:src/Scheduler.cpp ****         scheduler = new Scheduler();
  63              		.loc 1 15 5
  64 004c 63880702 		beqz	a5,.L6
  65              	.LVL3:
  66              	.L4:
  17:src/Scheduler.cpp ****     //Riscv::printString("put\n");
  67              		.loc 1 17 5 is_stmt 1
  17:src/Scheduler.cpp ****     //Riscv::printString("put\n");
  68              		.loc 1 17 29 is_stmt 0
  69 0050 93850400 		mv	a1,s1
  70 0054 17050000 		ld	a0,.LANCHOR0
  70      03350500 
  71 005c 97000000 		call	_ZN5Queue4pushEP3PCB@plt
  71      E7800000 
  72              	.LVL4:
  19:src/Scheduler.cpp **** 
  73              		.loc 1 19 1
  74 0064 83308101 		ld	ra,24(sp)
  75              		.cfi_remember_state
GAS LISTING /tmp/ccvAASak.s 			page 3


  76              		.cfi_restore 1
  77 0068 03340101 		ld	s0,16(sp)
  78              		.cfi_restore 8
  79              		.cfi_def_cfa 2, 32
  80 006c 83348100 		ld	s1,8(sp)
  81              		.cfi_restore 9
  82              	.LVL5:
  83 0070 03390100 		ld	s2,0(sp)
  84              		.cfi_restore 18
  85 0074 13010102 		addi	sp,sp,32
  86              		.cfi_def_cfa_offset 0
  87 0078 67800000 		jr	ra
  88              	.LVL6:
  89              	.L6:
  90              		.cfi_restore_state
  16:src/Scheduler.cpp ****     scheduler->queuePCB.push(pcb);
  91              		.loc 1 16 9 is_stmt 1
  16:src/Scheduler.cpp ****     scheduler->queuePCB.push(pcb);
  92              		.loc 1 16 35 is_stmt 0
  93 007c 13050001 		li	a0,16
  94 0080 97000000 		call	_ZN9SchedulernwEm
  94      E7800000 
  95              	.LVL7:
  96 0088 13090500 		mv	s2,a0
  97 008c 23300500 		sd	zero,0(a0)
  98 0090 23340500 		sd	zero,8(a0)
  99              	.LVL8:
 100              	.LBB11:
 101              	.LBB12:
 102              		.file 2 "src/../h/Scheduler.h"
   1:src/../h/Scheduler.h **** //
   2:src/../h/Scheduler.h **** // Created by os on 4/27/22.
   3:src/../h/Scheduler.h **** //
   4:src/../h/Scheduler.h **** 
   5:src/../h/Scheduler.h **** #ifndef PROJECT_BASE_V1_0_SCHEDULER_H
   6:src/../h/Scheduler.h **** #define PROJECT_BASE_V1_0_SCHEDULER_H
   7:src/../h/Scheduler.h **** 
   8:src/../h/Scheduler.h **** #include "../lib/hw.h"
   9:src/../h/Scheduler.h **** #include "MemoryAllocator.h"
  10:src/../h/Scheduler.h **** #include "Queue.h"
  11:src/../h/Scheduler.h **** 
  12:src/../h/Scheduler.h **** class PCB;
  13:src/../h/Scheduler.h **** 
  14:src/../h/Scheduler.h **** class Scheduler
 103              		.loc 2 14 7
 104 0094 97000000 		call	_ZN5QueueC1Ev@plt
 104      E7800000 
 105              	.LVL9:
 106              	.LBE12:
 107              	.LBE11:
  16:src/Scheduler.cpp ****     scheduler->queuePCB.push(pcb);
 108              		.loc 1 16 19
 109 009c 97070000 		sd	s2,.LANCHOR0,a5
 109      23B02701 
 110 00a4 6FF0DFFA 		j	.L4
 111              		.cfi_endproc
 112              	.LFE19:
GAS LISTING /tmp/ccvAASak.s 			page 4


 114              		.align	2
 115              		.globl	_ZN9Scheduler3getEv
 117              	_ZN9Scheduler3getEv:
 118              	.LFB23:
  21:src/Scheduler.cpp ****     if(scheduler == 0)
 119              		.loc 1 21 23 is_stmt 1
 120              		.cfi_startproc
 121 00a8 130101FE 		addi	sp,sp,-32
 122              		.cfi_def_cfa_offset 32
 123 00ac 233C1100 		sd	ra,24(sp)
 124 00b0 23388100 		sd	s0,16(sp)
 125 00b4 23349100 		sd	s1,8(sp)
 126 00b8 23302101 		sd	s2,0(sp)
 127              		.cfi_offset 1, -8
 128              		.cfi_offset 8, -16
 129              		.cfi_offset 9, -24
 130              		.cfi_offset 18, -32
 131 00bc 13040102 		addi	s0,sp,32
 132              		.cfi_def_cfa 8, 0
  22:src/Scheduler.cpp ****         scheduler = new Scheduler();
 133              		.loc 1 22 5
  22:src/Scheduler.cpp ****         scheduler = new Scheduler();
 134              		.loc 1 22 18 is_stmt 0
 135 00c0 97070000 		ld	a5,.LANCHOR0
 135      83B70700 
  22:src/Scheduler.cpp ****         scheduler = new Scheduler();
 136              		.loc 1 22 5
 137 00c8 63820704 		beqz	a5,.L10
 138              	.L8:
  24:src/Scheduler.cpp ****     scheduler->queuePCB.pop();
 139              		.loc 1 24 5 is_stmt 1
  24:src/Scheduler.cpp ****     scheduler->queuePCB.pop();
 140              		.loc 1 24 26 is_stmt 0
 141 00cc 17090000 		lla	s2,.LANCHOR0
 141      13090900 
  24:src/Scheduler.cpp ****     scheduler->queuePCB.pop();
 142              		.loc 1 24 40
 143 00d4 03350900 		ld	a0,0(s2)
 144 00d8 97000000 		call	_ZN5Queue5frontEv@plt
 144      E7800000 
 145              	.LVL10:
 146 00e0 93040500 		mv	s1,a0
 147              	.LVL11:
  25:src/Scheduler.cpp ****     return fr;
 148              		.loc 1 25 5 is_stmt 1
  25:src/Scheduler.cpp ****     return fr;
 149              		.loc 1 25 28 is_stmt 0
 150 00e4 03350900 		ld	a0,0(s2)
 151 00e8 97000000 		call	_ZN5Queue3popEv@plt
 151      E7800000 
 152              	.LVL12:
  26:src/Scheduler.cpp **** }
 153              		.loc 1 26 5 is_stmt 1
  27:src/Scheduler.cpp **** 
 154              		.loc 1 27 1 is_stmt 0
 155 00f0 13850400 		mv	a0,s1
 156 00f4 83308101 		ld	ra,24(sp)
GAS LISTING /tmp/ccvAASak.s 			page 5


 157              		.cfi_remember_state
 158              		.cfi_restore 1
 159 00f8 03340101 		ld	s0,16(sp)
 160              		.cfi_restore 8
 161              		.cfi_def_cfa 2, 32
 162 00fc 83348100 		ld	s1,8(sp)
 163              		.cfi_restore 9
 164              	.LVL13:
 165 0100 03390100 		ld	s2,0(sp)
 166              		.cfi_restore 18
 167 0104 13010102 		addi	sp,sp,32
 168              		.cfi_def_cfa_offset 0
 169 0108 67800000 		jr	ra
 170              	.LVL14:
 171              	.L10:
 172              		.cfi_restore_state
  23:src/Scheduler.cpp ****     PCB* fr = scheduler->queuePCB.front();
 173              		.loc 1 23 9 is_stmt 1
  23:src/Scheduler.cpp ****     PCB* fr = scheduler->queuePCB.front();
 174              		.loc 1 23 35 is_stmt 0
 175 010c 13050001 		li	a0,16
 176 0110 97000000 		call	_ZN9SchedulernwEm
 176      E7800000 
 177              	.LVL15:
 178 0118 93040500 		mv	s1,a0
 179 011c 23300500 		sd	zero,0(a0)
 180 0120 23340500 		sd	zero,8(a0)
 181              	.LVL16:
 182              	.LBB13:
 183              	.LBB14:
 184              		.loc 2 14 7
 185 0124 97000000 		call	_ZN5QueueC1Ev@plt
 185      E7800000 
 186              	.LVL17:
 187              	.LBE14:
 188              	.LBE13:
  23:src/Scheduler.cpp ****     PCB* fr = scheduler->queuePCB.front();
 189              		.loc 1 23 19
 190 012c 97070000 		sd	s1,.LANCHOR0,a5
 190      23B09700 
 191 0134 6FF09FF9 		j	.L8
 192              		.cfi_endproc
 193              	.LFE23:
 195              		.align	2
 196              		.globl	_ZN9SchedulerdlEPv
 198              	_ZN9SchedulerdlEPv:
 199              	.LFB25:
  32:src/Scheduler.cpp **** 
  33:src/Scheduler.cpp **** void Scheduler::operator delete(void *p) {
 200              		.loc 1 33 42 is_stmt 1
 201              		.cfi_startproc
 202              	.LVL18:
 203 0138 130101FF 		addi	sp,sp,-16
 204              		.cfi_def_cfa_offset 16
 205 013c 23348100 		sd	s0,8(sp)
 206              		.cfi_offset 8, -8
 207 0140 13040101 		addi	s0,sp,16
GAS LISTING /tmp/ccvAASak.s 			page 6


 208              		.cfi_def_cfa 8, 0
  34:src/Scheduler.cpp ****     //kfree(p);
  35:src/Scheduler.cpp **** }
 209              		.loc 1 35 1 is_stmt 0
 210 0144 03348100 		ld	s0,8(sp)
 211              		.cfi_restore 8
 212              		.cfi_def_cfa 2, 16
 213 0148 13010101 		addi	sp,sp,16
 214              		.cfi_def_cfa_offset 0
 215 014c 67800000 		jr	ra
 216              		.cfi_endproc
 217              	.LFE25:
 219              		.align	2
 220              		.globl	_ZN9Scheduler7getSizeEv
 222              	_ZN9Scheduler7getSizeEv:
 223              	.LFB26:
  36:src/Scheduler.cpp **** 
  37:src/Scheduler.cpp **** int Scheduler::getSize() {
 224              		.loc 1 37 26 is_stmt 1
 225              		.cfi_startproc
 226 0150 130101FE 		addi	sp,sp,-32
 227              		.cfi_def_cfa_offset 32
 228 0154 233C1100 		sd	ra,24(sp)
 229 0158 23388100 		sd	s0,16(sp)
 230 015c 23349100 		sd	s1,8(sp)
 231              		.cfi_offset 1, -8
 232              		.cfi_offset 8, -16
 233              		.cfi_offset 9, -24
 234 0160 13040102 		addi	s0,sp,32
 235              		.cfi_def_cfa 8, 0
  38:src/Scheduler.cpp ****     if(scheduler == 0)
 236              		.loc 1 38 5
 237              		.loc 1 38 18 is_stmt 0
 238 0164 97070000 		ld	a5,.LANCHOR0
 238      83B70700 
 239              		.loc 1 38 5
 240 016c 63840702 		beqz	a5,.L16
 241              	.L14:
  39:src/Scheduler.cpp ****         scheduler = new Scheduler();
  40:src/Scheduler.cpp ****     return scheduler->queuePCB.size();
 242              		.loc 1 40 5 is_stmt 1
 243              		.loc 1 40 36 is_stmt 0
 244 0170 17050000 		ld	a0,.LANCHOR0
 244      03350500 
 245 0178 97000000 		call	_ZN5Queue4sizeEv@plt
 245      E7800000 
 246              	.LVL19:
  41:src/Scheduler.cpp **** }
 247              		.loc 1 41 1
 248 0180 83308101 		ld	ra,24(sp)
 249              		.cfi_remember_state
 250              		.cfi_restore 1
 251 0184 03340101 		ld	s0,16(sp)
 252              		.cfi_restore 8
 253              		.cfi_def_cfa 2, 32
 254 0188 83348100 		ld	s1,8(sp)
 255              		.cfi_restore 9
GAS LISTING /tmp/ccvAASak.s 			page 7


 256 018c 13010102 		addi	sp,sp,32
 257              		.cfi_def_cfa_offset 0
 258 0190 67800000 		jr	ra
 259              	.L16:
 260              		.cfi_restore_state
  39:src/Scheduler.cpp ****         scheduler = new Scheduler();
 261              		.loc 1 39 9 is_stmt 1
  39:src/Scheduler.cpp ****         scheduler = new Scheduler();
 262              		.loc 1 39 35 is_stmt 0
 263 0194 13050001 		li	a0,16
 264 0198 97000000 		call	_ZN9SchedulernwEm
 264      E7800000 
 265              	.LVL20:
 266 01a0 93040500 		mv	s1,a0
 267 01a4 23300500 		sd	zero,0(a0)
 268 01a8 23340500 		sd	zero,8(a0)
 269              	.LVL21:
 270              	.LBB15:
 271              	.LBB16:
 272              		.loc 2 14 7
 273 01ac 97000000 		call	_ZN5QueueC1Ev@plt
 273      E7800000 
 274              	.LVL22:
 275              	.LBE16:
 276              	.LBE15:
  39:src/Scheduler.cpp ****         scheduler = new Scheduler();
 277              		.loc 1 39 19
 278 01b4 97070000 		sd	s1,.LANCHOR0,a5
 278      23B09700 
 279 01bc 6FF05FFB 		j	.L14
 280              		.cfi_endproc
 281              	.LFE26:
 283              		.globl	_ZN9Scheduler9schedulerE
 284              		.bss
 285              		.align	3
 286              		.set	.LANCHOR0,. + 0
 289              	_ZN9Scheduler9schedulerE:
 290 0000 00000000 		.zero	8
 290      00000000 
 291              		.text
 292              	.Letext0:
 293              		.file 3 "src/../h/../lib/hw.h"
 294              		.file 4 "src/../h/Queue.h"
 295              		.file 5 "src/../h/PCB.h"
 296              		.file 6 "src/../h/MemoryAllocator.h"
GAS LISTING /tmp/ccvAASak.s 			page 8


DEFINED SYMBOLS
                            *ABS*:0000000000000000 Scheduler.cpp
     /tmp/ccvAASak.s:9      .text:0000000000000000 _ZN9SchedulernwEm
     /tmp/ccvAASak.s:13     .text:0000000000000000 .L0 
     /tmp/ccvAASak.s:15     .text:0000000000000000 .L0 
     /tmp/ccvAASak.s:16     .text:0000000000000004 .L0 
     /tmp/ccvAASak.s:19     .text:000000000000000c .L0 
     /tmp/ccvAASak.s:20     .text:000000000000000c .L0 
     /tmp/ccvAASak.s:22     .text:0000000000000010 .L0 
     /tmp/ccvAASak.s:24     .text:0000000000000010 .L0 
     /tmp/ccvAASak.s:25     .text:0000000000000010 .L0 
     /tmp/ccvAASak.s:28     .text:0000000000000018 .L0 
     /tmp/ccvAASak.s:29     .text:000000000000001c .L0 
     /tmp/ccvAASak.s:31     .text:0000000000000020 .L0 
     /tmp/ccvAASak.s:32     .text:0000000000000020 .L0 
     /tmp/ccvAASak.s:34     .text:0000000000000024 .L0 
     /tmp/ccvAASak.s:36     .text:0000000000000028 .L0 
     /tmp/ccvAASak.s:42     .text:0000000000000028 _ZN9Scheduler3putEP3PCB
     /tmp/ccvAASak.s:45     .text:0000000000000028 .L0 
     /tmp/ccvAASak.s:47     .text:0000000000000028 .L0 
     /tmp/ccvAASak.s:48     .text:000000000000002c .L0 
     /tmp/ccvAASak.s:53     .text:000000000000003c .L0 
     /tmp/ccvAASak.s:54     .text:000000000000003c .L0 
     /tmp/ccvAASak.s:55     .text:000000000000003c .L0 
     /tmp/ccvAASak.s:56     .text:000000000000003c .L0 
     /tmp/ccvAASak.s:58     .text:0000000000000040 .L0 
     /tmp/ccvAASak.s:61     .text:0000000000000044 .L0 
     /tmp/ccvAASak.s:62     .text:0000000000000044 .L0 
     /tmp/ccvAASak.s:64     .text:000000000000004c .L0 
     /tmp/ccvAASak.s:68     .text:0000000000000050 .L0 
     /tmp/ccvAASak.s:69     .text:0000000000000050 .L0 
     /tmp/ccvAASak.s:74     .text:0000000000000064 .L0 
     /tmp/ccvAASak.s:75     .text:0000000000000068 .L0 
     /tmp/ccvAASak.s:76     .text:0000000000000068 .L0 
     /tmp/ccvAASak.s:78     .text:000000000000006c .L0 
     /tmp/ccvAASak.s:79     .text:000000000000006c .L0 
     /tmp/ccvAASak.s:81     .text:0000000000000070 .L0 
     /tmp/ccvAASak.s:84     .text:0000000000000074 .L0 
     /tmp/ccvAASak.s:86     .text:0000000000000078 .L0 
     /tmp/ccvAASak.s:90     .text:000000000000007c .L0 
     /tmp/ccvAASak.s:92     .text:000000000000007c .L0 
     /tmp/ccvAASak.s:93     .text:000000000000007c .L0 
     /tmp/ccvAASak.s:104    .text:0000000000000094 .L0 
     /tmp/ccvAASak.s:109    .text:000000000000009c .L0 
     /tmp/ccvAASak.s:111    .text:00000000000000a8 .L0 
     /tmp/ccvAASak.s:117    .text:00000000000000a8 _ZN9Scheduler3getEv
     /tmp/ccvAASak.s:120    .text:00000000000000a8 .L0 
     /tmp/ccvAASak.s:121    .text:00000000000000a8 .L0 
     /tmp/ccvAASak.s:122    .text:00000000000000ac .L0 
     /tmp/ccvAASak.s:127    .text:00000000000000bc .L0 
     /tmp/ccvAASak.s:128    .text:00000000000000bc .L0 
     /tmp/ccvAASak.s:129    .text:00000000000000bc .L0 
     /tmp/ccvAASak.s:130    .text:00000000000000bc .L0 
     /tmp/ccvAASak.s:132    .text:00000000000000c0 .L0 
     /tmp/ccvAASak.s:134    .text:00000000000000c0 .L0 
     /tmp/ccvAASak.s:135    .text:00000000000000c0 .L0 
     /tmp/ccvAASak.s:137    .text:00000000000000c8 .L0 
GAS LISTING /tmp/ccvAASak.s 			page 9


     /tmp/ccvAASak.s:140    .text:00000000000000cc .L0 
     /tmp/ccvAASak.s:141    .text:00000000000000cc .L0 
     /tmp/ccvAASak.s:143    .text:00000000000000d4 .L0 
     /tmp/ccvAASak.s:149    .text:00000000000000e4 .L0 
     /tmp/ccvAASak.s:150    .text:00000000000000e4 .L0 
     /tmp/ccvAASak.s:154    .text:00000000000000f0 .L0 
     /tmp/ccvAASak.s:155    .text:00000000000000f0 .L0 
     /tmp/ccvAASak.s:157    .text:00000000000000f8 .L0 
     /tmp/ccvAASak.s:158    .text:00000000000000f8 .L0 
     /tmp/ccvAASak.s:160    .text:00000000000000fc .L0 
     /tmp/ccvAASak.s:161    .text:00000000000000fc .L0 
     /tmp/ccvAASak.s:163    .text:0000000000000100 .L0 
     /tmp/ccvAASak.s:166    .text:0000000000000104 .L0 
     /tmp/ccvAASak.s:168    .text:0000000000000108 .L0 
     /tmp/ccvAASak.s:172    .text:000000000000010c .L0 
     /tmp/ccvAASak.s:174    .text:000000000000010c .L0 
     /tmp/ccvAASak.s:175    .text:000000000000010c .L0 
     /tmp/ccvAASak.s:185    .text:0000000000000124 .L0 
     /tmp/ccvAASak.s:190    .text:000000000000012c .L0 
     /tmp/ccvAASak.s:192    .text:0000000000000138 .L0 
     /tmp/ccvAASak.s:198    .text:0000000000000138 _ZN9SchedulerdlEPv
     /tmp/ccvAASak.s:201    .text:0000000000000138 .L0 
     /tmp/ccvAASak.s:203    .text:0000000000000138 .L0 
     /tmp/ccvAASak.s:204    .text:000000000000013c .L0 
     /tmp/ccvAASak.s:206    .text:0000000000000140 .L0 
     /tmp/ccvAASak.s:208    .text:0000000000000144 .L0 
     /tmp/ccvAASak.s:210    .text:0000000000000144 .L0 
     /tmp/ccvAASak.s:211    .text:0000000000000148 .L0 
     /tmp/ccvAASak.s:212    .text:0000000000000148 .L0 
     /tmp/ccvAASak.s:214    .text:000000000000014c .L0 
     /tmp/ccvAASak.s:216    .text:0000000000000150 .L0 
     /tmp/ccvAASak.s:222    .text:0000000000000150 _ZN9Scheduler7getSizeEv
     /tmp/ccvAASak.s:225    .text:0000000000000150 .L0 
     /tmp/ccvAASak.s:226    .text:0000000000000150 .L0 
     /tmp/ccvAASak.s:227    .text:0000000000000154 .L0 
     /tmp/ccvAASak.s:231    .text:0000000000000160 .L0 
     /tmp/ccvAASak.s:232    .text:0000000000000160 .L0 
     /tmp/ccvAASak.s:233    .text:0000000000000160 .L0 
     /tmp/ccvAASak.s:235    .text:0000000000000164 .L0 
     /tmp/ccvAASak.s:237    .text:0000000000000164 .L0 
     /tmp/ccvAASak.s:238    .text:0000000000000164 .L0 
     /tmp/ccvAASak.s:240    .text:000000000000016c .L0 
     /tmp/ccvAASak.s:243    .text:0000000000000170 .L0 
     /tmp/ccvAASak.s:244    .text:0000000000000170 .L0 
     /tmp/ccvAASak.s:248    .text:0000000000000180 .L0 
     /tmp/ccvAASak.s:249    .text:0000000000000184 .L0 
     /tmp/ccvAASak.s:250    .text:0000000000000184 .L0 
     /tmp/ccvAASak.s:252    .text:0000000000000188 .L0 
     /tmp/ccvAASak.s:253    .text:0000000000000188 .L0 
     /tmp/ccvAASak.s:255    .text:000000000000018c .L0 
     /tmp/ccvAASak.s:257    .text:0000000000000190 .L0 
     /tmp/ccvAASak.s:260    .text:0000000000000194 .L0 
     /tmp/ccvAASak.s:262    .text:0000000000000194 .L0 
     /tmp/ccvAASak.s:263    .text:0000000000000194 .L0 
     /tmp/ccvAASak.s:273    .text:00000000000001ac .L0 
     /tmp/ccvAASak.s:278    .text:00000000000001b4 .L0 
     /tmp/ccvAASak.s:280    .text:00000000000001c0 .L0 
GAS LISTING /tmp/ccvAASak.s 			page 10


     /tmp/ccvAASak.s:289    .bss:0000000000000000 _ZN9Scheduler9schedulerE
     /tmp/ccvAASak.s:286    .bss:0000000000000000 .LANCHOR0
     /tmp/ccvAASak.s:297    .text:00000000000001c0 .L0 
     /tmp/ccvAASak.s:62     .text:0000000000000044 .L0 
     /tmp/ccvAASak.s:70     .text:0000000000000054 .L0 
     /tmp/ccvAASak.s:109    .text:000000000000009c .L0 
     /tmp/ccvAASak.s:135    .text:00000000000000c0 .L0 
     /tmp/ccvAASak.s:141    .text:00000000000000cc .L0 
     /tmp/ccvAASak.s:190    .text:000000000000012c .L0 
     /tmp/ccvAASak.s:238    .text:0000000000000164 .L0 
     /tmp/ccvAASak.s:244    .text:0000000000000170 .L0 
     /tmp/ccvAASak.s:278    .text:00000000000001b4 .L0 
     /tmp/ccvAASak.s:89     .text:000000000000007c .L6
     /tmp/ccvAASak.s:66     .text:0000000000000050 .L4
     /tmp/ccvAASak.s:171    .text:000000000000010c .L10
     /tmp/ccvAASak.s:138    .text:00000000000000cc .L8
     /tmp/ccvAASak.s:259    .text:0000000000000194 .L16
     /tmp/ccvAASak.s:241    .text:0000000000000170 .L14
     /tmp/ccvAASak.s:1177   .debug_abbrev:0000000000000000 .Ldebug_abbrev0
     /tmp/ccvAASak.s:2255   .debug_str:0000000000000274 .LASF69
     /tmp/ccvAASak.s:2231   .debug_str:00000000000001de .LASF70
     /tmp/ccvAASak.s:2313   .debug_str:0000000000000486 .LASF71
     /tmp/ccvAASak.s:5      .text:0000000000000000 .Ltext0
     /tmp/ccvAASak.s:292    .text:00000000000001c0 .Letext0
     /tmp/ccvAASak.s:2163   .debug_line:0000000000000000 .Ldebug_line0
     /tmp/ccvAASak.s:2227   .debug_str:00000000000001cc .LASF0
     /tmp/ccvAASak.s:2243   .debug_str:000000000000022c .LASF1
     /tmp/ccvAASak.s:2281   .debug_str:00000000000003cb .LASF2
     /tmp/ccvAASak.s:2283   .debug_str:00000000000003d9 .LASF4
     /tmp/ccvAASak.s:2235   .debug_str:00000000000001fd .LASF3
     /tmp/ccvAASak.s:2169   .debug_str:0000000000000015 .LASF5
     /tmp/ccvAASak.s:2267   .debug_str:000000000000035d .LASF6
     /tmp/ccvAASak.s:2263   .debug_str:000000000000033a .LASF7
     /tmp/ccvAASak.s:2237   .debug_str:000000000000020f .LASF8
     /tmp/ccvAASak.s:2219   .debug_str:0000000000000191 .LASF9
     /tmp/ccvAASak.s:2221   .debug_str:00000000000001a1 .LASF10
     /tmp/ccvAASak.s:2191   .debug_str:00000000000000cf .LASF11
     /tmp/ccvAASak.s:2213   .debug_str:0000000000000173 .LASF12
     /tmp/ccvAASak.s:2197   .debug_str:00000000000000fa .LASF13
     /tmp/ccvAASak.s:2189   .debug_str:00000000000000bf .LASF14
     /tmp/ccvAASak.s:2295   .debug_str:0000000000000432 .LASF15
     /tmp/ccvAASak.s:2209   .debug_str:0000000000000151 .LASF16
     /tmp/ccvAASak.s:2293   .debug_str:000000000000041c .LASF17
     /tmp/ccvAASak.s:2315   .debug_str:00000000000004a9 .LASF28
     /tmp/ccvAASak.s:2323   .debug_str:00000000000004d5 .LASF20
     /tmp/ccvAASak.s:2239   .debug_str:0000000000000222 .LASF18
     /tmp/ccvAASak.s:2193   .debug_str:00000000000000de .LASF19
     /tmp/ccvAASak.s:2301   .debug_str:000000000000044f .LASF21
     /tmp/ccvAASak.s:2249   .debug_str:0000000000000252 .LASF22
     /tmp/ccvAASak.s:2331   .debug_str:00000000000004f5 .LASF33
     /tmp/ccvAASak.s:2321   .debug_str:00000000000004cf .LASF24
     /tmp/ccvAASak.s:2199   .debug_str:000000000000010a .LASF26
     /tmp/ccvAASak.s:2229   .debug_str:00000000000001d9 .LASF23
     /tmp/ccvAASak.s:2289   .debug_str:00000000000003f9 .LASF29
     /tmp/ccvAASak.s:2241   .debug_str:0000000000000227 .LASF25
     /tmp/ccvAASak.s:2273   .debug_str:0000000000000377 .LASF27
     /tmp/ccvAASak.s:2207   .debug_str:0000000000000143 .LASF30
GAS LISTING /tmp/ccvAASak.s 			page 11


     /tmp/ccvAASak.s:2271   .debug_str:0000000000000370 .LASF37
     /tmp/ccvAASak.s:2181   .debug_str:0000000000000082 .LASF39
     /tmp/ccvAASak.s:2299   .debug_str:0000000000000447 .LASF31
     /tmp/ccvAASak.s:2225   .debug_str:00000000000001c6 .LASF32
     /tmp/ccvAASak.s:2319   .debug_str:00000000000004b7 .LASF34
     /tmp/ccvAASak.s:2259   .debug_str:0000000000000322 .LASF72
     /tmp/ccvAASak.s:2333   .debug_str:0000000000000505 .LASF35
     /tmp/ccvAASak.s:2309   .debug_str:000000000000046c .LASF36
     /tmp/ccvAASak.s:2205   .debug_str:000000000000013a .LASF73
     /tmp/ccvAASak.s:2177   .debug_str:0000000000000047 .LASF74
     /tmp/ccvAASak.s:2245   .debug_str:000000000000023f .LASF38
     /tmp/ccvAASak.s:2265   .debug_str:000000000000034d .LASF40
     /tmp/ccvAASak.s:2307   .debug_str:0000000000000464 .LASF44
     /tmp/ccvAASak.s:2291   .debug_str:000000000000040e .LASF41
     /tmp/ccvAASak.s:2269   .debug_str:0000000000000364 .LASF42
     /tmp/ccvAASak.s:2203   .debug_str:000000000000012a .LASF43
     /tmp/ccvAASak.s:2287   .debug_str:00000000000003e8 .LASF45
     /tmp/ccvAASak.s:2247   .debug_str:0000000000000245 .LASF46
     /tmp/ccvAASak.s:2251   .debug_str:0000000000000257 .LASF47
     /tmp/ccvAASak.s:2183   .debug_str:0000000000000090 .LASF48
     /tmp/ccvAASak.s:2223   .debug_str:00000000000001af .LASF49
     /tmp/ccvAASak.s:2257   .debug_str:0000000000000316 .LASF50
     /tmp/ccvAASak.s:2195   .debug_str:00000000000000e3 .LASF51
     /tmp/ccvAASak.s:2339   .debug_str:0000000000000524 .LASF52
     /tmp/ccvAASak.s:2211   .debug_str:0000000000000167 .LASF53
     /tmp/ccvAASak.s:2167   .debug_str:0000000000000005 .LASF54
     /tmp/ccvAASak.s:2233   .debug_str:00000000000001f0 .LASF55
     /tmp/ccvAASak.s:2311   .debug_str:000000000000047c .LASF56
     /tmp/ccvAASak.s:2201   .debug_str:000000000000011c .LASF75
     /tmp/ccvAASak.s:2179   .debug_str:000000000000005a .LASF76
     /tmp/ccvAASak.s:2329   .debug_str:00000000000004ee .LASF77
     /tmp/ccvAASak.s:2187   .debug_str:00000000000000ae .LASF78
     /tmp/ccvAASak.s:2165   .debug_str:0000000000000000 .LASF57
     /tmp/ccvAASak.s:2337   .debug_str:000000000000051f .LASF58
     /tmp/ccvAASak.s:2317   .debug_str:00000000000004af .LASF59
     /tmp/ccvAASak.s:2305   .debug_str:000000000000045a .LASF60
     /tmp/ccvAASak.s:2297   .debug_str:000000000000043e .LASF61
     /tmp/ccvAASak.s:2217   .debug_str:0000000000000187 .LASF62
     /tmp/ccvAASak.s:2173   .debug_str:0000000000000026 .LASF79
     /tmp/ccvAASak.s:2335   .debug_str:000000000000050b .LASF80
     /tmp/ccvAASak.s:2185   .debug_str:000000000000009c .LASF63
     /tmp/ccvAASak.s:2261   .debug_str:0000000000000327 .LASF64
     /tmp/ccvAASak.s:2285   .debug_str:00000000000003e0 .LASF65
     /tmp/ccvAASak.s:2277   .debug_str:00000000000003a1 .LASF81
     /tmp/ccvAASak.s:2175   .debug_str:000000000000003e .LASF66
     /tmp/ccvAASak.s:2171   .debug_str:000000000000001c .LASF82
     /tmp/ccvAASak.s:2341   .debug_str:0000000000000531 .LASF83
     /tmp/ccvAASak.s:2303   .debug_str:0000000000000455 .LASF67
     /tmp/ccvAASak.s:2253   .debug_str:000000000000026f .LASF68
     /tmp/ccvAASak.s:2275   .debug_str:0000000000000388 .LASF84
     /tmp/ccvAASak.s:223    .text:0000000000000150 .LFB26
     /tmp/ccvAASak.s:281    .text:00000000000001c0 .LFE26
     /tmp/ccvAASak.s:270    .text:00000000000001ac .LBB15
     /tmp/ccvAASak.s:276    .text:00000000000001b4 .LBE15
     /tmp/ccvAASak.s:2078   .debug_loc:0000000000000000 .LLST5
     /tmp/ccvAASak.s:274    .text:00000000000001b4 .LVL22
     /tmp/ccvAASak.s:246    .text:0000000000000180 .LVL19
GAS LISTING /tmp/ccvAASak.s 			page 12


     /tmp/ccvAASak.s:265    .text:00000000000001a0 .LVL20
     /tmp/ccvAASak.s:199    .text:0000000000000138 .LFB25
     /tmp/ccvAASak.s:217    .text:0000000000000150 .LFE25
     /tmp/ccvAASak.s:10     .text:0000000000000000 .LFB24
     /tmp/ccvAASak.s:37     .text:0000000000000028 .LFE24
     /tmp/ccvAASak.s:2085   .debug_loc:0000000000000023 .LLST0
     /tmp/ccvAASak.s:26     .text:0000000000000018 .LVL1
     /tmp/ccvAASak.s:118    .text:00000000000000a8 .LFB23
     /tmp/ccvAASak.s:193    .text:0000000000000138 .LFE23
     /tmp/ccvAASak.s:2099   .debug_loc:000000000000005c .LLST3
     /tmp/ccvAASak.s:182    .text:0000000000000124 .LBB13
     /tmp/ccvAASak.s:188    .text:000000000000012c .LBE13
     /tmp/ccvAASak.s:2110   .debug_loc:0000000000000092 .LLST4
     /tmp/ccvAASak.s:186    .text:000000000000012c .LVL17
     /tmp/ccvAASak.s:145    .text:00000000000000e0 .LVL10
     /tmp/ccvAASak.s:152    .text:00000000000000f0 .LVL12
     /tmp/ccvAASak.s:177    .text:0000000000000118 .LVL15
     /tmp/ccvAASak.s:43     .text:0000000000000028 .LFB19
     /tmp/ccvAASak.s:112    .text:00000000000000a8 .LFE19
     /tmp/ccvAASak.s:2117   .debug_loc:00000000000000b5 .LLST1
     /tmp/ccvAASak.s:100    .text:0000000000000094 .LBB11
     /tmp/ccvAASak.s:107    .text:000000000000009c .LBE11
     /tmp/ccvAASak.s:2139   .debug_loc:0000000000000114 .LLST2
     /tmp/ccvAASak.s:105    .text:000000000000009c .LVL9
     /tmp/ccvAASak.s:72     .text:0000000000000064 .LVL4
     /tmp/ccvAASak.s:95     .text:0000000000000088 .LVL7
     /tmp/ccvAASak.s:2215   .debug_str:0000000000000182 .LASF85
     /tmp/ccvAASak.s:2279   .debug_str:00000000000003b9 .LASF86
     /tmp/ccvAASak.s:2325   .debug_str:00000000000004da .LASF87
     /tmp/ccvAASak.s:2327   .debug_str:00000000000004e6 .LASF88
     /tmp/ccvAASak.s:269    .text:00000000000001ac .LVL21
     /tmp/ccvAASak.s:14     .text:0000000000000000 .LVL0
     /tmp/ccvAASak.s:147    .text:00000000000000e4 .LVL11
     /tmp/ccvAASak.s:164    .text:0000000000000100 .LVL13
     /tmp/ccvAASak.s:170    .text:000000000000010c .LVL14
     /tmp/ccvAASak.s:181    .text:0000000000000124 .LVL16
     /tmp/ccvAASak.s:46     .text:0000000000000028 .LVL2
     /tmp/ccvAASak.s:65     .text:0000000000000050 .LVL3
     /tmp/ccvAASak.s:82     .text:0000000000000070 .LVL5
     /tmp/ccvAASak.s:88     .text:000000000000007c .LVL6
     /tmp/ccvAASak.s:99     .text:0000000000000094 .LVL8
     /tmp/ccvAASak.s:298    .debug_info:0000000000000000 .Ldebug_info0

UNDEFINED SYMBOLS
_Z7kmallocm
_ZN5Queue4pushEP3PCB
_ZN5QueueC1Ev
_ZN5Queue5frontEv
_ZN5Queue3popEv
_ZN5Queue4sizeEv
