GAS LISTING /tmp/ccCkQAEX.s 			page 1


   1              		.file	"Scheduler.cpp"
   2              		.option pic
   3              		.option norelax
   4              		.text
   5              	.Ltext0:
   6              		.align	2
   7              		.globl	_ZN9SchedulernwEm
   9              	_ZN9SchedulernwEm:
  10              	.LFB21:
  11              		.file 1 "src/Scheduler.cpp"
   1:src/Scheduler.cpp **** //
   2:src/Scheduler.cpp **** // Created by os on 4/27/22.
   3:src/Scheduler.cpp **** //
   4:src/Scheduler.cpp **** 
   5:src/Scheduler.cpp **** #include "../h/Scheduler.hpp"
   6:src/Scheduler.cpp **** #include "../h/PCB.hpp"
   7:src/Scheduler.cpp **** 
   8:src/Scheduler.cpp **** PCB* Scheduler::schedulerPCBHead = 0;
   9:src/Scheduler.cpp **** PCB* Scheduler::schedulerPCBTail = 0;
  10:src/Scheduler.cpp **** 
  11:src/Scheduler.cpp **** 
  12:src/Scheduler.cpp **** void *Scheduler::operator new(size_t size)
  13:src/Scheduler.cpp **** {
  12              		.loc 1 13 1
  13              		.cfi_startproc
  14              	.LVL0:
  15 0000 130101FF 		addi	sp,sp,-16
  16              		.cfi_def_cfa_offset 16
  17 0004 23341100 		sd	ra,8(sp)
  18 0008 23308100 		sd	s0,0(sp)
  19              		.cfi_offset 1, -8
  20              		.cfi_offset 8, -16
  21 000c 13040101 		addi	s0,sp,16
  22              		.cfi_def_cfa 8, 0
  14:src/Scheduler.cpp ****     return kmalloc(size);
  23              		.loc 1 14 5
  24              		.loc 1 14 19 is_stmt 0
  25 0010 97000000 		call	_Z7kmallocm@plt
  25      E7800000 
  26              	.LVL1:
  15:src/Scheduler.cpp **** }
  27              		.loc 1 15 1
  28 0018 83308100 		ld	ra,8(sp)
  29              		.cfi_restore 1
  30 001c 03340100 		ld	s0,0(sp)
  31              		.cfi_restore 8
  32              		.cfi_def_cfa 2, 16
  33 0020 13010101 		addi	sp,sp,16
  34              		.cfi_def_cfa_offset 0
  35 0024 67800000 		jr	ra
  36              		.cfi_endproc
  37              	.LFE21:
  39              		.align	2
  40              		.globl	_ZN9SchedulerdlEPv
  42              	_ZN9SchedulerdlEPv:
  43              	.LFB22:
  16:src/Scheduler.cpp **** 
GAS LISTING /tmp/ccCkQAEX.s 			page 2


  17:src/Scheduler.cpp **** void Scheduler::operator delete(void *p)
  18:src/Scheduler.cpp **** {
  44              		.loc 1 18 1 is_stmt 1
  45              		.cfi_startproc
  46              	.LVL2:
  47 0028 130101FF 		addi	sp,sp,-16
  48              		.cfi_def_cfa_offset 16
  49 002c 23341100 		sd	ra,8(sp)
  50 0030 23308100 		sd	s0,0(sp)
  51              		.cfi_offset 1, -8
  52              		.cfi_offset 8, -16
  53 0034 13040101 		addi	s0,sp,16
  54              		.cfi_def_cfa 8, 0
  19:src/Scheduler.cpp ****     kfree(p);
  55              		.loc 1 19 5
  56              		.loc 1 19 10 is_stmt 0
  57 0038 97000000 		call	_Z5kfreePv@plt
  57      E7800000 
  58              	.LVL3:
  20:src/Scheduler.cpp **** }
  59              		.loc 1 20 1
  60 0040 83308100 		ld	ra,8(sp)
  61              		.cfi_restore 1
  62 0044 03340100 		ld	s0,0(sp)
  63              		.cfi_restore 8
  64              		.cfi_def_cfa 2, 16
  65 0048 13010101 		addi	sp,sp,16
  66              		.cfi_def_cfa_offset 0
  67 004c 67800000 		jr	ra
  68              		.cfi_endproc
  69              	.LFE22:
  71              		.align	2
  72              		.globl	_ZN9Scheduler7getSizeEv
  74              	_ZN9Scheduler7getSizeEv:
  75              	.LFB23:
  21:src/Scheduler.cpp **** 
  22:src/Scheduler.cpp **** int Scheduler::getSize()
  23:src/Scheduler.cpp **** {
  76              		.loc 1 23 1 is_stmt 1
  77              		.cfi_startproc
  78 0050 130101FF 		addi	sp,sp,-16
  79              		.cfi_def_cfa_offset 16
  80 0054 23348100 		sd	s0,8(sp)
  81              		.cfi_offset 8, -8
  82 0058 13040101 		addi	s0,sp,16
  83              		.cfi_def_cfa 8, 0
  24:src/Scheduler.cpp ****     uint64 sz = 0;
  84              		.loc 1 24 5
  85              	.LVL4:
  25:src/Scheduler.cpp ****     PCB* curr = schedulerPCBHead;
  86              		.loc 1 25 5
  87              		.loc 1 25 10 is_stmt 0
  88 005c 97070000 		ld	a5,.LANCHOR0
  88      83B70700 
  89              	.LVL5:
  24:src/Scheduler.cpp ****     uint64 sz = 0;
  90              		.loc 1 24 12
GAS LISTING /tmp/ccCkQAEX.s 			page 3


  91 0064 13050000 		li	a0,0
  92              	.LVL6:
  93              	.L7:
  26:src/Scheduler.cpp ****     while(curr != 0)
  94              		.loc 1 26 5 is_stmt 1
  95              		.loc 1 26 16
  96 0068 63880700 		beqz	a5,.L6
  27:src/Scheduler.cpp ****     {
  28:src/Scheduler.cpp ****         sz++;
  97              		.loc 1 28 9
  98              		.loc 1 28 11 is_stmt 0
  99 006c 13051500 		addi	a0,a0,1
 100              	.LVL7:
  29:src/Scheduler.cpp ****         curr = curr->nextPCB;
 101              		.loc 1 29 9 is_stmt 1
 102              		.loc 1 29 14 is_stmt 0
 103 0070 83B78700 		ld	a5,8(a5)
 104              	.LVL8:
  26:src/Scheduler.cpp ****     while(curr != 0)
 105              		.loc 1 26 5
 106 0074 6FF05FFF 		j	.L7
 107              	.L6:
  30:src/Scheduler.cpp ****     }
  31:src/Scheduler.cpp ****     return sz;
 108              		.loc 1 31 5 is_stmt 1
  32:src/Scheduler.cpp **** }
 109              		.loc 1 32 1 is_stmt 0
 110 0078 1B050500 		sext.w	a0,a0
 111              	.LVL9:
 112 007c 03348100 		ld	s0,8(sp)
 113              		.cfi_restore 8
 114              		.cfi_def_cfa 2, 16
 115 0080 13010101 		addi	sp,sp,16
 116              		.cfi_def_cfa_offset 0
 117 0084 67800000 		jr	ra
 118              		.cfi_endproc
 119              	.LFE23:
 121              		.align	2
 122              		.globl	_ZN9Scheduler3putEP3PCB
 124              	_ZN9Scheduler3putEP3PCB:
 125              	.LFB24:
  33:src/Scheduler.cpp **** 
  34:src/Scheduler.cpp **** void Scheduler::put(PCB *pcb)
  35:src/Scheduler.cpp **** {
 126              		.loc 1 35 1 is_stmt 1
 127              		.cfi_startproc
 128              	.LVL10:
 129 0088 130101FF 		addi	sp,sp,-16
 130              		.cfi_def_cfa_offset 16
 131 008c 23348100 		sd	s0,8(sp)
 132              		.cfi_offset 8, -8
 133 0090 13040101 		addi	s0,sp,16
 134              		.cfi_def_cfa 8, 0
  36:src/Scheduler.cpp ****     pcb->setState(PCB::READY);
 135              		.loc 1 36 5
 136              	.LVL11:
 137              	.LBB4:
GAS LISTING /tmp/ccCkQAEX.s 			page 4


 138              	.LBB5:
 139              		.file 2 "src/../h/PCB.hpp"
   1:src/../h/PCB.hpp **** //
   2:src/../h/PCB.hpp **** // Created by os on 4/27/22.
   3:src/../h/PCB.hpp **** //
   4:src/../h/PCB.hpp **** 
   5:src/../h/PCB.hpp **** #ifndef PROJECT_BASE_V1_0_PCB_HPP
   6:src/../h/PCB.hpp **** #define PROJECT_BASE_V1_0_PCB_HPP
   7:src/../h/PCB.hpp **** 
   8:src/../h/PCB.hpp **** #include "../lib/hw.h"
   9:src/../h/PCB.hpp **** #include "Scheduler.hpp"
  10:src/../h/PCB.hpp **** #include "Riscv.hpp"
  11:src/../h/PCB.hpp **** 
  12:src/../h/PCB.hpp **** class PCB
  13:src/../h/PCB.hpp **** {
  14:src/../h/PCB.hpp **** public:
  15:src/../h/PCB.hpp ****     using Body = void (*)(void*);
  16:src/../h/PCB.hpp **** 
  17:src/../h/PCB.hpp ****     PCB(Body body,  void* args, void* stack_space, uint64 timeSlice);
  18:src/../h/PCB.hpp ****     ~PCB();
  19:src/../h/PCB.hpp **** 
  20:src/../h/PCB.hpp ****     void start();
  21:src/../h/PCB.hpp ****     static void dispatch();
  22:src/../h/PCB.hpp ****     static void sleep(time_t);
  23:src/../h/PCB.hpp **** 
  24:src/../h/PCB.hpp ****     static PCB* running;
  25:src/../h/PCB.hpp **** 
  26:src/../h/PCB.hpp ****     static uint64 timeSliceCounter;
  27:src/../h/PCB.hpp ****     uint64 getTimeSlice() { return timeSlice;}
  28:src/../h/PCB.hpp **** 
  29:src/../h/PCB.hpp ****     void* operator new(size_t size);
  30:src/../h/PCB.hpp ****     void operator delete(void *p);
  31:src/../h/PCB.hpp **** 
  32:src/../h/PCB.hpp ****     enum State{READY, RUNNING, SUSPENDED, FINISHED, EXITING, SLEEPING};
  33:src/../h/PCB.hpp ****     State getState() {return state;}
  34:src/../h/PCB.hpp ****     void setState(State s) {state = s;}
 140              		.loc 2 34 29
 141              		.loc 2 34 35 is_stmt 0
 142 0094 232C0502 		sw	zero,56(a0)
 143              	.LVL12:
 144              	.LBE5:
 145              	.LBE4:
  37:src/Scheduler.cpp ****     pcb->nextPCB = 0;
 146              		.loc 1 37 5 is_stmt 1
 147              		.loc 1 37 18 is_stmt 0
 148 0098 23340500 		sd	zero,8(a0)
  38:src/Scheduler.cpp ****     if(schedulerPCBHead == 0)
 149              		.loc 1 38 5 is_stmt 1
 150              		.loc 1 38 25 is_stmt 0
 151 009c 97070000 		ld	a5,.LANCHOR0
 151      83B70700 
 152              		.loc 1 38 5
 153 00a4 63820702 		beqz	a5,.L13
  39:src/Scheduler.cpp ****         schedulerPCBHead = schedulerPCBTail = pcb;
  40:src/Scheduler.cpp ****     else
  41:src/Scheduler.cpp ****     {
  42:src/Scheduler.cpp ****         schedulerPCBTail->nextPCB = pcb;
GAS LISTING /tmp/ccCkQAEX.s 			page 5


 154              		.loc 1 42 9 is_stmt 1
 155              		.loc 1 42 27 is_stmt 0
 156 00a8 97070000 		lla	a5,.LANCHOR0
 156      93870700 
 157 00b0 03B78700 		ld	a4,8(a5)
 158              		.loc 1 42 35
 159 00b4 2334A700 		sd	a0,8(a4)
  43:src/Scheduler.cpp ****         schedulerPCBTail = pcb;
 160              		.loc 1 43 9 is_stmt 1
 161              		.loc 1 43 26 is_stmt 0
 162 00b8 23B4A700 		sd	a0,8(a5)
 163              	.L9:
  44:src/Scheduler.cpp ****     }
  45:src/Scheduler.cpp **** }
 164              		.loc 1 45 1
 165 00bc 03348100 		ld	s0,8(sp)
 166              		.cfi_remember_state
 167              		.cfi_restore 8
 168              		.cfi_def_cfa 2, 16
 169 00c0 13010101 		addi	sp,sp,16
 170              		.cfi_def_cfa_offset 0
 171 00c4 67800000 		jr	ra
 172              	.L13:
 173              		.cfi_restore_state
  39:src/Scheduler.cpp ****     else
 174              		.loc 1 39 9 is_stmt 1
  39:src/Scheduler.cpp ****     else
 175              		.loc 1 39 45 is_stmt 0
 176 00c8 97070000 		lla	a5,.LANCHOR0
 176      93870700 
 177 00d0 23B4A700 		sd	a0,8(a5)
  39:src/Scheduler.cpp ****     else
 178              		.loc 1 39 26
 179 00d4 23B0A700 		sd	a0,0(a5)
 180 00d8 6FF05FFE 		j	.L9
 181              		.cfi_endproc
 182              	.LFE24:
 184              		.align	2
 185              		.globl	_ZN9Scheduler3getEv
 187              	_ZN9Scheduler3getEv:
 188              	.LFB25:
  46:src/Scheduler.cpp **** 
  47:src/Scheduler.cpp **** PCB *Scheduler::get()
  48:src/Scheduler.cpp **** {
 189              		.loc 1 48 1 is_stmt 1
 190              		.cfi_startproc
 191 00dc 130101FF 		addi	sp,sp,-16
 192              		.cfi_def_cfa_offset 16
 193 00e0 23348100 		sd	s0,8(sp)
 194              		.cfi_offset 8, -8
 195 00e4 13040101 		addi	s0,sp,16
 196              		.cfi_def_cfa 8, 0
  49:src/Scheduler.cpp ****     if(schedulerPCBHead == 0)
 197              		.loc 1 49 5
 198              		.loc 1 49 25 is_stmt 0
 199 00e8 17050000 		ld	a0,.LANCHOR0
 199      03350500 
GAS LISTING /tmp/ccCkQAEX.s 			page 6


 200              		.loc 1 49 5
 201 00f0 630C0500 		beqz	a0,.L14
  50:src/Scheduler.cpp ****         return 0;
  51:src/Scheduler.cpp ****     PCB* retval = schedulerPCBHead;
 202              		.loc 1 51 5 is_stmt 1
 203              	.LVL13:
  52:src/Scheduler.cpp ****     if(schedulerPCBHead->nextPCB == 0)
 204              		.loc 1 52 5
 205              		.loc 1 52 26 is_stmt 0
 206 00f4 83378500 		ld	a5,8(a0)
 207              		.loc 1 52 5
 208 00f8 638E0700 		beqz	a5,.L19
  53:src/Scheduler.cpp ****         schedulerPCBHead = schedulerPCBTail = 0;
  54:src/Scheduler.cpp ****     else
  55:src/Scheduler.cpp ****         schedulerPCBHead = schedulerPCBHead->nextPCB;
 209              		.loc 1 55 9 is_stmt 1
 210              		.loc 1 55 26 is_stmt 0
 211 00fc 17070000 		sd	a5,.LANCHOR0,a4
 211      2330F700 
 212              	.L17:
  56:src/Scheduler.cpp ****     retval->nextPCB = 0;
 213              		.loc 1 56 5 is_stmt 1
 214              		.loc 1 56 21 is_stmt 0
 215 0104 23340500 		sd	zero,8(a0)
  57:src/Scheduler.cpp ****     return retval;
 216              		.loc 1 57 5 is_stmt 1
 217              	.LVL14:
 218              	.L14:
  58:src/Scheduler.cpp **** }
 219              		.loc 1 58 1 is_stmt 0
 220 0108 03348100 		ld	s0,8(sp)
 221              		.cfi_remember_state
 222              		.cfi_restore 8
 223              		.cfi_def_cfa 2, 16
 224 010c 13010101 		addi	sp,sp,16
 225              		.cfi_def_cfa_offset 0
 226 0110 67800000 		jr	ra
 227              	.LVL15:
 228              	.L19:
 229              		.cfi_restore_state
  53:src/Scheduler.cpp ****     else
 230              		.loc 1 53 9 is_stmt 1
  53:src/Scheduler.cpp ****     else
 231              		.loc 1 53 45 is_stmt 0
 232 0114 97070000 		lla	a5,.LANCHOR0
 232      93870700 
 233 011c 23B40700 		sd	zero,8(a5)
  53:src/Scheduler.cpp ****     else
 234              		.loc 1 53 26
 235 0120 23B00700 		sd	zero,0(a5)
 236 0124 6FF01FFE 		j	.L17
 237              		.cfi_endproc
 238              	.LFE25:
 240              		.section	.rodata.str1.8,"aMS",@progbits,1
 241              		.align	3
 242              	.LC0:
 243 0000 53636865 		.string	"Scheduler print\n"
GAS LISTING /tmp/ccCkQAEX.s 			page 7


 243      64756C65 
 243      72207072 
 243      696E740A 
 243      00
 244              		.text
 245              		.align	2
 246              		.globl	_ZN9Scheduler5printEv
 248              	_ZN9Scheduler5printEv:
 249              	.LFB26:
  59:src/Scheduler.cpp **** 
  60:src/Scheduler.cpp **** void Scheduler::print() {
 250              		.loc 1 60 25 is_stmt 1
 251              		.cfi_startproc
 252 0128 130101FE 		addi	sp,sp,-32
 253              		.cfi_def_cfa_offset 32
 254 012c 233C1100 		sd	ra,24(sp)
 255 0130 23388100 		sd	s0,16(sp)
 256 0134 23349100 		sd	s1,8(sp)
 257              		.cfi_offset 1, -8
 258              		.cfi_offset 8, -16
 259              		.cfi_offset 9, -24
 260 0138 13040102 		addi	s0,sp,32
 261              		.cfi_def_cfa 8, 0
  61:src/Scheduler.cpp ****     Riscv::printString("Scheduler print\n");
 262              		.loc 1 61 5
 263              		.loc 1 61 23 is_stmt 0
 264 013c 17050000 		lla	a0,.LC0
 264      13050500 
 265 0144 97000000 		call	_ZN5Riscv11printStringEPKc@plt
 265      E7800000 
 266              	.LVL16:
  62:src/Scheduler.cpp ****     PCB* curr = schedulerPCBHead;
 267              		.loc 1 62 5 is_stmt 1
 268              		.loc 1 62 10 is_stmt 0
 269 014c 97040000 		ld	s1,.LANCHOR0
 269      83B40400 
 270              	.LVL17:
 271              	.L22:
  63:src/Scheduler.cpp ****     while(curr != 0)
 272              		.loc 1 63 5 is_stmt 1
 273              		.loc 1 63 16
 274 0154 638C0400 		beqz	s1,.L20
  64:src/Scheduler.cpp ****     {
  65:src/Scheduler.cpp ****         Riscv::printInteger((uint64)curr);
 275              		.loc 1 65 9
 276              		.loc 1 65 28 is_stmt 0
 277 0158 13850400 		mv	a0,s1
 278 015c 97000000 		call	_ZN5Riscv12printIntegerEm@plt
 278      E7800000 
 279              	.LVL18:
  66:src/Scheduler.cpp ****         curr = curr->nextPCB;
 280              		.loc 1 66 9 is_stmt 1
 281              		.loc 1 66 14 is_stmt 0
 282 0164 83B48400 		ld	s1,8(s1)
 283              	.LVL19:
  63:src/Scheduler.cpp ****     while(curr != 0)
 284              		.loc 1 63 5
GAS LISTING /tmp/ccCkQAEX.s 			page 8


 285 0168 6FF0DFFE 		j	.L22
 286              	.L20:
  67:src/Scheduler.cpp ****     }
  68:src/Scheduler.cpp **** }
 287              		.loc 1 68 1
 288 016c 83308101 		ld	ra,24(sp)
 289              		.cfi_restore 1
 290 0170 03340101 		ld	s0,16(sp)
 291              		.cfi_restore 8
 292              		.cfi_def_cfa 2, 32
 293 0174 83348100 		ld	s1,8(sp)
 294              		.cfi_restore 9
 295              	.LVL20:
 296 0178 13010102 		addi	sp,sp,32
 297              		.cfi_def_cfa_offset 0
 298 017c 67800000 		jr	ra
 299              		.cfi_endproc
 300              	.LFE26:
 302              		.globl	_ZN9Scheduler16schedulerPCBTailE
 303              		.globl	_ZN9Scheduler16schedulerPCBHeadE
 304              		.bss
 305              		.align	3
 306              		.set	.LANCHOR0,. + 0
 309              	_ZN9Scheduler16schedulerPCBHeadE:
 310 0000 00000000 		.zero	8
 310      00000000 
 313              	_ZN9Scheduler16schedulerPCBTailE:
 314 0008 00000000 		.zero	8
 314      00000000 
 315              		.text
 316              	.Letext0:
 317              		.file 3 "src/../h/../lib/hw.h"
 318              		.file 4 "src/../h/Scheduler.hpp"
 319              		.file 5 "src/../h/Riscv.hpp"
 320              		.file 6 "src/../h/MemoryAllocator.hpp"
GAS LISTING /tmp/ccCkQAEX.s 			page 9


DEFINED SYMBOLS
                            *ABS*:0000000000000000 Scheduler.cpp
     /tmp/ccCkQAEX.s:9      .text:0000000000000000 _ZN9SchedulernwEm
     /tmp/ccCkQAEX.s:13     .text:0000000000000000 .L0 
     /tmp/ccCkQAEX.s:15     .text:0000000000000000 .L0 
     /tmp/ccCkQAEX.s:16     .text:0000000000000004 .L0 
     /tmp/ccCkQAEX.s:19     .text:000000000000000c .L0 
     /tmp/ccCkQAEX.s:20     .text:000000000000000c .L0 
     /tmp/ccCkQAEX.s:22     .text:0000000000000010 .L0 
     /tmp/ccCkQAEX.s:24     .text:0000000000000010 .L0 
     /tmp/ccCkQAEX.s:25     .text:0000000000000010 .L0 
     /tmp/ccCkQAEX.s:28     .text:0000000000000018 .L0 
     /tmp/ccCkQAEX.s:29     .text:000000000000001c .L0 
     /tmp/ccCkQAEX.s:31     .text:0000000000000020 .L0 
     /tmp/ccCkQAEX.s:32     .text:0000000000000020 .L0 
     /tmp/ccCkQAEX.s:34     .text:0000000000000024 .L0 
     /tmp/ccCkQAEX.s:36     .text:0000000000000028 .L0 
     /tmp/ccCkQAEX.s:42     .text:0000000000000028 _ZN9SchedulerdlEPv
     /tmp/ccCkQAEX.s:45     .text:0000000000000028 .L0 
     /tmp/ccCkQAEX.s:47     .text:0000000000000028 .L0 
     /tmp/ccCkQAEX.s:48     .text:000000000000002c .L0 
     /tmp/ccCkQAEX.s:51     .text:0000000000000034 .L0 
     /tmp/ccCkQAEX.s:52     .text:0000000000000034 .L0 
     /tmp/ccCkQAEX.s:54     .text:0000000000000038 .L0 
     /tmp/ccCkQAEX.s:56     .text:0000000000000038 .L0 
     /tmp/ccCkQAEX.s:57     .text:0000000000000038 .L0 
     /tmp/ccCkQAEX.s:60     .text:0000000000000040 .L0 
     /tmp/ccCkQAEX.s:61     .text:0000000000000044 .L0 
     /tmp/ccCkQAEX.s:63     .text:0000000000000048 .L0 
     /tmp/ccCkQAEX.s:64     .text:0000000000000048 .L0 
     /tmp/ccCkQAEX.s:66     .text:000000000000004c .L0 
     /tmp/ccCkQAEX.s:68     .text:0000000000000050 .L0 
     /tmp/ccCkQAEX.s:74     .text:0000000000000050 _ZN9Scheduler7getSizeEv
     /tmp/ccCkQAEX.s:77     .text:0000000000000050 .L0 
     /tmp/ccCkQAEX.s:78     .text:0000000000000050 .L0 
     /tmp/ccCkQAEX.s:79     .text:0000000000000054 .L0 
     /tmp/ccCkQAEX.s:81     .text:0000000000000058 .L0 
     /tmp/ccCkQAEX.s:83     .text:000000000000005c .L0 
     /tmp/ccCkQAEX.s:86     .text:000000000000005c .L0 
     /tmp/ccCkQAEX.s:87     .text:000000000000005c .L0 
     /tmp/ccCkQAEX.s:88     .text:000000000000005c .L0 
     /tmp/ccCkQAEX.s:91     .text:0000000000000064 .L0 
     /tmp/ccCkQAEX.s:95     .text:0000000000000068 .L0 
     /tmp/ccCkQAEX.s:96     .text:0000000000000068 .L0 
     /tmp/ccCkQAEX.s:98     .text:000000000000006c .L0 
     /tmp/ccCkQAEX.s:99     .text:000000000000006c .L0 
     /tmp/ccCkQAEX.s:102    .text:0000000000000070 .L0 
     /tmp/ccCkQAEX.s:103    .text:0000000000000070 .L0 
     /tmp/ccCkQAEX.s:106    .text:0000000000000074 .L0 
     /tmp/ccCkQAEX.s:109    .text:0000000000000078 .L0 
     /tmp/ccCkQAEX.s:110    .text:0000000000000078 .L0 
     /tmp/ccCkQAEX.s:113    .text:0000000000000080 .L0 
     /tmp/ccCkQAEX.s:114    .text:0000000000000080 .L0 
     /tmp/ccCkQAEX.s:116    .text:0000000000000084 .L0 
     /tmp/ccCkQAEX.s:118    .text:0000000000000088 .L0 
     /tmp/ccCkQAEX.s:124    .text:0000000000000088 _ZN9Scheduler3putEP3PCB
     /tmp/ccCkQAEX.s:127    .text:0000000000000088 .L0 
GAS LISTING /tmp/ccCkQAEX.s 			page 10


     /tmp/ccCkQAEX.s:129    .text:0000000000000088 .L0 
     /tmp/ccCkQAEX.s:130    .text:000000000000008c .L0 
     /tmp/ccCkQAEX.s:132    .text:0000000000000090 .L0 
     /tmp/ccCkQAEX.s:134    .text:0000000000000094 .L0 
     /tmp/ccCkQAEX.s:140    .text:0000000000000094 .L0 
     /tmp/ccCkQAEX.s:141    .text:0000000000000094 .L0 
     /tmp/ccCkQAEX.s:142    .text:0000000000000094 .L0 
     /tmp/ccCkQAEX.s:147    .text:0000000000000098 .L0 
     /tmp/ccCkQAEX.s:148    .text:0000000000000098 .L0 
     /tmp/ccCkQAEX.s:150    .text:000000000000009c .L0 
     /tmp/ccCkQAEX.s:151    .text:000000000000009c .L0 
     /tmp/ccCkQAEX.s:153    .text:00000000000000a4 .L0 
     /tmp/ccCkQAEX.s:155    .text:00000000000000a8 .L0 
     /tmp/ccCkQAEX.s:156    .text:00000000000000a8 .L0 
     /tmp/ccCkQAEX.s:159    .text:00000000000000b4 .L0 
     /tmp/ccCkQAEX.s:161    .text:00000000000000b8 .L0 
     /tmp/ccCkQAEX.s:162    .text:00000000000000b8 .L0 
     /tmp/ccCkQAEX.s:165    .text:00000000000000bc .L0 
     /tmp/ccCkQAEX.s:166    .text:00000000000000c0 .L0 
     /tmp/ccCkQAEX.s:167    .text:00000000000000c0 .L0 
     /tmp/ccCkQAEX.s:168    .text:00000000000000c0 .L0 
     /tmp/ccCkQAEX.s:170    .text:00000000000000c4 .L0 
     /tmp/ccCkQAEX.s:173    .text:00000000000000c8 .L0 
     /tmp/ccCkQAEX.s:175    .text:00000000000000c8 .L0 
     /tmp/ccCkQAEX.s:176    .text:00000000000000c8 .L0 
     /tmp/ccCkQAEX.s:179    .text:00000000000000d4 .L0 
     /tmp/ccCkQAEX.s:181    .text:00000000000000dc .L0 
     /tmp/ccCkQAEX.s:187    .text:00000000000000dc _ZN9Scheduler3getEv
     /tmp/ccCkQAEX.s:190    .text:00000000000000dc .L0 
     /tmp/ccCkQAEX.s:191    .text:00000000000000dc .L0 
     /tmp/ccCkQAEX.s:192    .text:00000000000000e0 .L0 
     /tmp/ccCkQAEX.s:194    .text:00000000000000e4 .L0 
     /tmp/ccCkQAEX.s:196    .text:00000000000000e8 .L0 
     /tmp/ccCkQAEX.s:198    .text:00000000000000e8 .L0 
     /tmp/ccCkQAEX.s:199    .text:00000000000000e8 .L0 
     /tmp/ccCkQAEX.s:201    .text:00000000000000f0 .L0 
     /tmp/ccCkQAEX.s:204    .text:00000000000000f4 .L0 
     /tmp/ccCkQAEX.s:205    .text:00000000000000f4 .L0 
     /tmp/ccCkQAEX.s:206    .text:00000000000000f4 .L0 
     /tmp/ccCkQAEX.s:208    .text:00000000000000f8 .L0 
     /tmp/ccCkQAEX.s:210    .text:00000000000000fc .L0 
     /tmp/ccCkQAEX.s:211    .text:00000000000000fc .L0 
     /tmp/ccCkQAEX.s:214    .text:0000000000000104 .L0 
     /tmp/ccCkQAEX.s:215    .text:0000000000000104 .L0 
     /tmp/ccCkQAEX.s:219    .text:0000000000000108 .L0 
     /tmp/ccCkQAEX.s:220    .text:0000000000000108 .L0 
     /tmp/ccCkQAEX.s:221    .text:000000000000010c .L0 
     /tmp/ccCkQAEX.s:222    .text:000000000000010c .L0 
     /tmp/ccCkQAEX.s:223    .text:000000000000010c .L0 
     /tmp/ccCkQAEX.s:225    .text:0000000000000110 .L0 
     /tmp/ccCkQAEX.s:229    .text:0000000000000114 .L0 
     /tmp/ccCkQAEX.s:231    .text:0000000000000114 .L0 
     /tmp/ccCkQAEX.s:232    .text:0000000000000114 .L0 
     /tmp/ccCkQAEX.s:235    .text:0000000000000120 .L0 
     /tmp/ccCkQAEX.s:237    .text:0000000000000128 .L0 
     /tmp/ccCkQAEX.s:248    .text:0000000000000128 _ZN9Scheduler5printEv
     /tmp/ccCkQAEX.s:251    .text:0000000000000128 .L0 
GAS LISTING /tmp/ccCkQAEX.s 			page 11


     /tmp/ccCkQAEX.s:252    .text:0000000000000128 .L0 
     /tmp/ccCkQAEX.s:253    .text:000000000000012c .L0 
     /tmp/ccCkQAEX.s:257    .text:0000000000000138 .L0 
     /tmp/ccCkQAEX.s:258    .text:0000000000000138 .L0 
     /tmp/ccCkQAEX.s:259    .text:0000000000000138 .L0 
     /tmp/ccCkQAEX.s:261    .text:000000000000013c .L0 
     /tmp/ccCkQAEX.s:263    .text:000000000000013c .L0 
     /tmp/ccCkQAEX.s:264    .text:000000000000013c .L0 
     /tmp/ccCkQAEX.s:268    .text:000000000000014c .L0 
     /tmp/ccCkQAEX.s:269    .text:000000000000014c .L0 
     /tmp/ccCkQAEX.s:273    .text:0000000000000154 .L0 
     /tmp/ccCkQAEX.s:274    .text:0000000000000154 .L0 
     /tmp/ccCkQAEX.s:276    .text:0000000000000158 .L0 
     /tmp/ccCkQAEX.s:277    .text:0000000000000158 .L0 
     /tmp/ccCkQAEX.s:281    .text:0000000000000164 .L0 
     /tmp/ccCkQAEX.s:282    .text:0000000000000164 .L0 
     /tmp/ccCkQAEX.s:285    .text:0000000000000168 .L0 
     /tmp/ccCkQAEX.s:288    .text:000000000000016c .L0 
     /tmp/ccCkQAEX.s:289    .text:0000000000000170 .L0 
     /tmp/ccCkQAEX.s:291    .text:0000000000000174 .L0 
     /tmp/ccCkQAEX.s:292    .text:0000000000000174 .L0 
     /tmp/ccCkQAEX.s:294    .text:0000000000000178 .L0 
     /tmp/ccCkQAEX.s:297    .text:000000000000017c .L0 
     /tmp/ccCkQAEX.s:299    .text:0000000000000180 .L0 
     /tmp/ccCkQAEX.s:313    .bss:0000000000000008 _ZN9Scheduler16schedulerPCBTailE
     /tmp/ccCkQAEX.s:309    .bss:0000000000000000 _ZN9Scheduler16schedulerPCBHeadE
     /tmp/ccCkQAEX.s:306    .bss:0000000000000000 .LANCHOR0
     /tmp/ccCkQAEX.s:321    .text:0000000000000180 .L0 
     /tmp/ccCkQAEX.s:88     .text:000000000000005c .L0 
     /tmp/ccCkQAEX.s:151    .text:000000000000009c .L0 
     /tmp/ccCkQAEX.s:156    .text:00000000000000a8 .L0 
     /tmp/ccCkQAEX.s:176    .text:00000000000000c8 .L0 
     /tmp/ccCkQAEX.s:199    .text:00000000000000e8 .L0 
     /tmp/ccCkQAEX.s:211    .text:00000000000000fc .L0 
     /tmp/ccCkQAEX.s:232    .text:0000000000000114 .L0 
     /tmp/ccCkQAEX.s:242    .rodata.str1.8:0000000000000000 .LC0
     /tmp/ccCkQAEX.s:264    .text:000000000000013c .L0 
     /tmp/ccCkQAEX.s:269    .text:000000000000014c .L0 
     /tmp/ccCkQAEX.s:107    .text:0000000000000078 .L6
     /tmp/ccCkQAEX.s:93     .text:0000000000000068 .L7
     /tmp/ccCkQAEX.s:172    .text:00000000000000c8 .L13
     /tmp/ccCkQAEX.s:163    .text:00000000000000bc .L9
     /tmp/ccCkQAEX.s:218    .text:0000000000000108 .L14
     /tmp/ccCkQAEX.s:228    .text:0000000000000114 .L19
     /tmp/ccCkQAEX.s:212    .text:0000000000000104 .L17
     /tmp/ccCkQAEX.s:286    .text:000000000000016c .L20
     /tmp/ccCkQAEX.s:271    .text:0000000000000154 .L22
     /tmp/ccCkQAEX.s:1496   .debug_abbrev:0000000000000000 .Ldebug_abbrev0
     /tmp/ccCkQAEX.s:2558   .debug_str:0000000000000159 .LASF157
     /tmp/ccCkQAEX.s:2646   .debug_str:0000000000000467 .LASF158
     /tmp/ccCkQAEX.s:2800   .debug_str:00000000000008ed .LASF159
     /tmp/ccCkQAEX.s:5      .text:0000000000000000 .Ltext0
     /tmp/ccCkQAEX.s:316    .text:0000000000000180 .Letext0
     /tmp/ccCkQAEX.s:2520   .debug_line:0000000000000000 .Ldebug_line0
     /tmp/ccCkQAEX.s:2638   .debug_str:000000000000042b .LASF0
     /tmp/ccCkQAEX.s:2662   .debug_str:00000000000004f2 .LASF1
     /tmp/ccCkQAEX.s:2738   .debug_str:0000000000000756 .LASF2
GAS LISTING /tmp/ccCkQAEX.s 			page 12


     /tmp/ccCkQAEX.s:2748   .debug_str:0000000000000796 .LASF4
     /tmp/ccCkQAEX.s:2650   .debug_str:0000000000000486 .LASF3
     /tmp/ccCkQAEX.s:2536   .debug_str:0000000000000069 .LASF5
     /tmp/ccCkQAEX.s:2724   .debug_str:00000000000006f2 .LASF6
     /tmp/ccCkQAEX.s:2714   .debug_str:000000000000069f .LASF7
     /tmp/ccCkQAEX.s:2656   .debug_str:00000000000004c7 .LASF8
     /tmp/ccCkQAEX.s:2622   .debug_str:00000000000003aa .LASF9
     /tmp/ccCkQAEX.s:2626   .debug_str:00000000000003d6 .LASF10
     /tmp/ccCkQAEX.s:2572   .debug_str:0000000000000272 .LASF11
     /tmp/ccCkQAEX.s:2612   .debug_str:000000000000037e .LASF12
     /tmp/ccCkQAEX.s:2578   .debug_str:0000000000000294 .LASF13
     /tmp/ccCkQAEX.s:2570   .debug_str:0000000000000262 .LASF14
     /tmp/ccCkQAEX.s:2780   .debug_str:0000000000000885 .LASF15
     /tmp/ccCkQAEX.s:2606   .debug_str:0000000000000355 .LASF16
     /tmp/ccCkQAEX.s:2772   .debug_str:0000000000000834 .LASF17
     /tmp/ccCkQAEX.s:2788   .debug_str:00000000000008a9 .LASF160
     /tmp/ccCkQAEX.s:2566   .debug_str:0000000000000248 .LASF18
     /tmp/ccCkQAEX.s:2766   .debug_str:0000000000000813 .LASF19
     /tmp/ccCkQAEX.s:2576   .debug_str:000000000000028a .LASF20
     /tmp/ccCkQAEX.s:2556   .debug_str:0000000000000150 .LASF21
     /tmp/ccCkQAEX.s:2718   .debug_str:00000000000006c8 .LASF22
     /tmp/ccCkQAEX.s:2574   .debug_str:0000000000000281 .LASF23
     /tmp/ccCkQAEX.s:2782   .debug_str:0000000000000891 .LASF67
     /tmp/ccCkQAEX.s:2632   .debug_str:0000000000000402 .LASF24
     /tmp/ccCkQAEX.s:2804   .debug_str:0000000000000918 .LASF161
     /tmp/ccCkQAEX.s:2704   .debug_str:0000000000000651 .LASF162
     /tmp/ccCkQAEX.s:2660   .debug_str:00000000000004ed .LASF25
     /tmp/ccCkQAEX.s:2844   .debug_str:0000000000000a37 .LASF27
     /tmp/ccCkQAEX.s:2838   .debug_str:0000000000000a07 .LASF26
     /tmp/ccCkQAEX.s:2794   .debug_str:00000000000008bf .LASF28
     /tmp/ccCkQAEX.s:2594   .debug_str:0000000000000310 .LASF51
     /tmp/ccCkQAEX.s:2544   .debug_str:00000000000000b4 .LASF53
     /tmp/ccCkQAEX.s:2664   .debug_str:0000000000000505 .LASF33
     /tmp/ccCkQAEX.s:2708   .debug_str:0000000000000669 .LASF35
     /tmp/ccCkQAEX.s:2790   .debug_str:00000000000008af .LASF29
     /tmp/ccCkQAEX.s:2758   .debug_str:00000000000007cd .LASF30
     /tmp/ccCkQAEX.s:2666   .debug_str:000000000000050b .LASF37
     /tmp/ccCkQAEX.s:2670   .debug_str:0000000000000536 .LASF39
     /tmp/ccCkQAEX.s:2848   .debug_str:0000000000000a5b .LASF31
     /tmp/ccCkQAEX.s:2608   .debug_str:000000000000036b .LASF32
     /tmp/ccCkQAEX.s:2528   .debug_str:000000000000002a .LASF34
     /tmp/ccCkQAEX.s:2648   .debug_str:0000000000000479 .LASF36
     /tmp/ccCkQAEX.s:2762   .debug_str:00000000000007ef .LASF38
     /tmp/ccCkQAEX.s:2688   .debug_str:00000000000005d4 .LASF40
     /tmp/ccCkQAEX.s:2746   .debug_str:000000000000078d .LASF41
     /tmp/ccCkQAEX.s:2776   .debug_str:0000000000000862 .LASF42
     /tmp/ccCkQAEX.s:2690   .debug_str:00000000000005e7 .LASF43
     /tmp/ccCkQAEX.s:2524   .debug_str:000000000000000b .LASF44
     /tmp/ccCkQAEX.s:2830   .debug_str:00000000000009cb .LASF45
     /tmp/ccCkQAEX.s:2712   .debug_str:0000000000000685 .LASF46
     /tmp/ccCkQAEX.s:2770   .debug_str:0000000000000826 .LASF47
     /tmp/ccCkQAEX.s:2726   .debug_str:00000000000006f9 .LASF48
     /tmp/ccCkQAEX.s:2590   .debug_str:00000000000002ee .LASF49
     /tmp/ccCkQAEX.s:2836   .debug_str:00000000000009fc .LASF50
     /tmp/ccCkQAEX.s:2652   .debug_str:0000000000000498 .LASF55
     /tmp/ccCkQAEX.s:2768   .debug_str:000000000000081b .LASF52
     /tmp/ccCkQAEX.s:2842   .debug_str:0000000000000a21 .LASF54
GAS LISTING /tmp/ccCkQAEX.s 			page 13


     /tmp/ccCkQAEX.s:2754   .debug_str:00000000000007b7 .LASF56
     /tmp/ccCkQAEX.s:2798   .debug_str:00000000000008e3 .LASF57
     /tmp/ccCkQAEX.s:2710   .debug_str:0000000000000679 .LASF58
     /tmp/ccCkQAEX.s:2586   .debug_str:00000000000002d9 .LASF59
     /tmp/ccCkQAEX.s:2550   .debug_str:0000000000000103 .LASF61
     /tmp/ccCkQAEX.s:2640   .debug_str:0000000000000438 .LASF60
     /tmp/ccCkQAEX.s:2564   .debug_str:000000000000021c .LASF62
     /tmp/ccCkQAEX.s:2828   .debug_str:00000000000009c4 .LASF163
     /tmp/ccCkQAEX.s:2562   .debug_str:000000000000020b .LASF164
     /tmp/ccCkQAEX.s:2526   .debug_str:0000000000000025 .LASF63
     /tmp/ccCkQAEX.s:2812   .debug_str:0000000000000954 .LASF64
     /tmp/ccCkQAEX.s:2672   .debug_str:000000000000054e .LASF65
     /tmp/ccCkQAEX.s:2596   .debug_str:0000000000000319 .LASF66
     /tmp/ccCkQAEX.s:2802   .debug_str:0000000000000910 .LASF68
     /tmp/ccCkQAEX.s:2620   .debug_str:00000000000003a0 .LASF69
     /tmp/ccCkQAEX.s:2540   .debug_str:000000000000008a .LASF165
     /tmp/ccCkQAEX.s:2840   .debug_str:0000000000000a0d .LASF166
     /tmp/ccCkQAEX.s:2552   .debug_str:000000000000012b .LASF70
     /tmp/ccCkQAEX.s:2706   .debug_str:0000000000000656 .LASF71
     /tmp/ccCkQAEX.s:2792   .debug_str:00000000000008b7 .LASF72
     /tmp/ccCkQAEX.s:2734   .debug_str:0000000000000733 .LASF99
     /tmp/ccCkQAEX.s:2560   .debug_str:0000000000000205 .LASF73
     /tmp/ccCkQAEX.s:2696   .debug_str:000000000000060b .LASF74
     /tmp/ccCkQAEX.s:2760   .debug_str:00000000000007de .LASF75
     /tmp/ccCkQAEX.s:2580   .debug_str:00000000000002a4 .LASF76
     /tmp/ccCkQAEX.s:2820   .debug_str:0000000000000992 .LASF77
     /tmp/ccCkQAEX.s:2634   .debug_str:0000000000000408 .LASF78
     /tmp/ccCkQAEX.s:2774   .debug_str:000000000000084a .LASF79
     /tmp/ccCkQAEX.s:2784   .debug_str:0000000000000899 .LASF80
     /tmp/ccCkQAEX.s:2676   .debug_str:000000000000055b .LASF81
     /tmp/ccCkQAEX.s:2604   .debug_str:000000000000034b .LASF82
     /tmp/ccCkQAEX.s:2716   .debug_str:00000000000006b2 .LASF83
     /tmp/ccCkQAEX.s:2678   .debug_str:0000000000000573 .LASF84
     /tmp/ccCkQAEX.s:2816   .debug_str:000000000000096a .LASF85
     /tmp/ccCkQAEX.s:2814   .debug_str:0000000000000959 .LASF86
     /tmp/ccCkQAEX.s:2668   .debug_str:0000000000000518 .LASF87
     /tmp/ccCkQAEX.s:2534   .debug_str:0000000000000057 .LASF88
     /tmp/ccCkQAEX.s:2582   .debug_str:00000000000002b5 .LASF89
     /tmp/ccCkQAEX.s:2834   .debug_str:00000000000009f0 .LASF90
     /tmp/ccCkQAEX.s:2546   .debug_str:00000000000000c7 .LASF91
     /tmp/ccCkQAEX.s:2722   .debug_str:00000000000006e5 .LASF92
     /tmp/ccCkQAEX.s:2538   .debug_str:0000000000000070 .LASF93
     /tmp/ccCkQAEX.s:2756   .debug_str:00000000000007bf .LASF94
     /tmp/ccCkQAEX.s:2764   .debug_str:00000000000007f8 .LASF95
     /tmp/ccCkQAEX.s:2692   .debug_str:00000000000005f6 .LASF96
     /tmp/ccCkQAEX.s:2824   .debug_str:00000000000009a2 .LASF97
     /tmp/ccCkQAEX.s:2810   .debug_str:000000000000094b .LASF98
     /tmp/ccCkQAEX.s:2532   .debug_str:0000000000000042 .LASF100
     /tmp/ccCkQAEX.s:2854   .debug_str:0000000000000a82 .LASF101
     /tmp/ccCkQAEX.s:2702   .debug_str:000000000000063c .LASF102
     /tmp/ccCkQAEX.s:2728   .debug_str:0000000000000705 .LASF103
     /tmp/ccCkQAEX.s:2730   .debug_str:000000000000070c .LASF104
     /tmp/ccCkQAEX.s:2698   .debug_str:0000000000000621 .LASF105
     /tmp/ccCkQAEX.s:2658   .debug_str:00000000000004da .LASF106
     /tmp/ccCkQAEX.s:2826   .debug_str:00000000000009bc .LASF107
     /tmp/ccCkQAEX.s:2796   .debug_str:00000000000008cf .LASF108
     /tmp/ccCkQAEX.s:2694   .debug_str:0000000000000603 .LASF109
GAS LISTING /tmp/ccCkQAEX.s 			page 14


     /tmp/ccCkQAEX.s:2700   .debug_str:0000000000000628 .LASF110
     /tmp/ccCkQAEX.s:2684   .debug_str:00000000000005ba .LASF111
     /tmp/ccCkQAEX.s:2732   .debug_str:000000000000071f .LASF112
     /tmp/ccCkQAEX.s:2856   .debug_str:0000000000000a8b .LASF113
     /tmp/ccCkQAEX.s:2644   .debug_str:0000000000000453 .LASF114
     /tmp/ccCkQAEX.s:2778   .debug_str:000000000000087e .LASF115
     /tmp/ccCkQAEX.s:2750   .debug_str:000000000000079d .LASF116
     /tmp/ccCkQAEX.s:2752   .debug_str:00000000000007b0 .LASF117
     /tmp/ccCkQAEX.s:2602   .debug_str:0000000000000338 .LASF118
     /tmp/ccCkQAEX.s:2598   .debug_str:000000000000031f .LASF119
     /tmp/ccCkQAEX.s:2542   .debug_str:00000000000000a2 .LASF120
     /tmp/ccCkQAEX.s:2642   .debug_str:000000000000044d .LASF121
     /tmp/ccCkQAEX.s:2592   .debug_str:00000000000002fe .LASF122
     /tmp/ccCkQAEX.s:2522   .debug_str:0000000000000000 .LASF123
     /tmp/ccCkQAEX.s:2744   .debug_str:0000000000000775 .LASF124
     /tmp/ccCkQAEX.s:2736   .debug_str:000000000000074b .LASF125
     /tmp/ccCkQAEX.s:2846   .debug_str:0000000000000a43 .LASF126
     /tmp/ccCkQAEX.s:2822   .debug_str:0000000000000998 .LASF127
     /tmp/ccCkQAEX.s:2832   .debug_str:00000000000009da .LASF128
     /tmp/ccCkQAEX.s:2818   .debug_str:0000000000000988 .LASF129
     /tmp/ccCkQAEX.s:2680   .debug_str:0000000000000583 .LASF130
     /tmp/ccCkQAEX.s:2630   .debug_str:00000000000003f7 .LASF131
     /tmp/ccCkQAEX.s:2636   .debug_str:0000000000000413 .LASF132
     /tmp/ccCkQAEX.s:2808   .debug_str:000000000000093c .LASF133
     /tmp/ccCkQAEX.s:2624   .debug_str:00000000000003ba .LASF134
     /tmp/ccCkQAEX.s:2720   .debug_str:00000000000006d0 .LASF135
     /tmp/ccCkQAEX.s:2654   .debug_str:00000000000004a5 .LASF136
     /tmp/ccCkQAEX.s:2588   .debug_str:00000000000002e7 .LASF137
     /tmp/ccCkQAEX.s:2530   .debug_str:000000000000003a .LASF138
     /tmp/ccCkQAEX.s:2850   .debug_str:0000000000000a68 .LASF139
     /tmp/ccCkQAEX.s:2806   .debug_str:0000000000000930 .LASF140
     /tmp/ccCkQAEX.s:2554   .debug_str:000000000000013d .LASF141
     /tmp/ccCkQAEX.s:2686   .debug_str:00000000000005c2 .LASF142
     /tmp/ccCkQAEX.s:2628   .debug_str:00000000000003e4 .LASF143
     /tmp/ccCkQAEX.s:2600   .debug_str:0000000000000325 .LASF144
     /tmp/ccCkQAEX.s:2568   .debug_str:000000000000024e .LASF145
     /tmp/ccCkQAEX.s:2786   .debug_str:00000000000008a4 .LASF146
     /tmp/ccCkQAEX.s:2674   .debug_str:0000000000000556 .LASF147
     /tmp/ccCkQAEX.s:2682   .debug_str:0000000000000599 .LASF148
     /tmp/ccCkQAEX.s:2548   .debug_str:00000000000000e2 .LASF149
     /tmp/ccCkQAEX.s:249    .text:0000000000000128 .LFB26
     /tmp/ccCkQAEX.s:300    .text:0000000000000180 .LFE26
     /tmp/ccCkQAEX.s:2742   .debug_str:0000000000000770 .LASF150
     /tmp/ccCkQAEX.s:2434   .debug_loc:0000000000000000 .LLST6
     /tmp/ccCkQAEX.s:266    .text:000000000000014c .LVL16
     /tmp/ccCkQAEX.s:279    .text:0000000000000164 .LVL18
     /tmp/ccCkQAEX.s:188    .text:00000000000000dc .LFB25
     /tmp/ccCkQAEX.s:238    .text:0000000000000128 .LFE25
     /tmp/ccCkQAEX.s:2610   .debug_str:0000000000000377 .LASF151
     /tmp/ccCkQAEX.s:2441   .debug_loc:0000000000000023 .LLST5
     /tmp/ccCkQAEX.s:125    .text:0000000000000088 .LFB24
     /tmp/ccCkQAEX.s:182    .text:00000000000000dc .LFE24
     /tmp/ccCkQAEX.s:137    .text:0000000000000094 .LBB4
     /tmp/ccCkQAEX.s:145    .text:0000000000000098 .LBE4
     /tmp/ccCkQAEX.s:2452   .debug_loc:0000000000000059 .LLST3
     /tmp/ccCkQAEX.s:2460   .debug_loc:000000000000007d .LLST4
     /tmp/ccCkQAEX.s:75     .text:0000000000000050 .LFB23
GAS LISTING /tmp/ccCkQAEX.s 			page 15


     /tmp/ccCkQAEX.s:119    .text:0000000000000088 .LFE23
     /tmp/ccCkQAEX.s:2467   .debug_loc:00000000000000a0 .LLST2
     /tmp/ccCkQAEX.s:43     .text:0000000000000028 .LFB22
     /tmp/ccCkQAEX.s:69     .text:0000000000000050 .LFE22
     /tmp/ccCkQAEX.s:2479   .debug_loc:00000000000000d7 .LLST1
     /tmp/ccCkQAEX.s:58     .text:0000000000000040 .LVL3
     /tmp/ccCkQAEX.s:10     .text:0000000000000000 .LFB21
     /tmp/ccCkQAEX.s:37     .text:0000000000000028 .LFE21
     /tmp/ccCkQAEX.s:2584   .debug_str:00000000000002d4 .LASF152
     /tmp/ccCkQAEX.s:2493   .debug_loc:0000000000000110 .LLST0
     /tmp/ccCkQAEX.s:26     .text:0000000000000018 .LVL1
     /tmp/ccCkQAEX.s:2616   .debug_str:0000000000000395 .LASF167
     /tmp/ccCkQAEX.s:2852   .debug_str:0000000000000a77 .LASF153
     /tmp/ccCkQAEX.s:2618   .debug_str:000000000000039a .LASF155
     /tmp/ccCkQAEX.s:2740   .debug_str:0000000000000764 .LASF154
     /tmp/ccCkQAEX.s:2614   .debug_str:000000000000038d .LASF156
     /tmp/ccCkQAEX.s:270    .text:0000000000000154 .LVL17
     /tmp/ccCkQAEX.s:295    .text:0000000000000178 .LVL20
     /tmp/ccCkQAEX.s:203    .text:00000000000000f4 .LVL13
     /tmp/ccCkQAEX.s:217    .text:0000000000000108 .LVL14
     /tmp/ccCkQAEX.s:227    .text:0000000000000114 .LVL15
     /tmp/ccCkQAEX.s:136    .text:0000000000000094 .LVL11
     /tmp/ccCkQAEX.s:143    .text:0000000000000098 .LVL12
     /tmp/ccCkQAEX.s:85     .text:000000000000005c .LVL4
     /tmp/ccCkQAEX.s:92     .text:0000000000000068 .LVL6
     /tmp/ccCkQAEX.s:111    .text:000000000000007c .LVL9
     /tmp/ccCkQAEX.s:46     .text:0000000000000028 .LVL2
     /tmp/ccCkQAEX.s:14     .text:0000000000000000 .LVL0
     /tmp/ccCkQAEX.s:322    .debug_info:0000000000000000 .Ldebug_info0

UNDEFINED SYMBOLS
_Z7kmallocm
_Z5kfreePv
_ZN5Riscv11printStringEPKc
_ZN5Riscv12printIntegerEm
