GAS LISTING /tmp/cccgJUc4.s 			page 1


   1              		.file	"Scheduler.cpp"
   2              		.option pic
   3              		.option norelax
   4              		.text
   5              	.Ltext0:
   6              		.align	2
   7              		.globl	_ZN9SchedulernwEm
   9              	_ZN9SchedulernwEm:
  10              	.LFB24:
  11              		.file 1 "src/Scheduler.cpp"
   1:src/Scheduler.cpp **** //
   2:src/Scheduler.cpp **** // Created by os on 4/27/22.
   3:src/Scheduler.cpp **** //
   4:src/Scheduler.cpp **** 
   5:src/Scheduler.cpp **** #include "../h/Scheduler.hpp"
   6:src/Scheduler.cpp **** #include "../h/PCB.hpp"
   7:src/Scheduler.cpp **** #include "../test/printing.hpp"
   8:src/Scheduler.cpp **** 
   9:src/Scheduler.cpp **** PCB* Scheduler::schedulerPCBHead = 0;
  10:src/Scheduler.cpp **** PCB* Scheduler::schedulerPCBTail = 0;
  11:src/Scheduler.cpp **** 
  12:src/Scheduler.cpp **** void *Scheduler::operator new(size_t size)
  13:src/Scheduler.cpp **** {
  12              		.loc 1 13 1
  13              		.cfi_startproc
  14              	.LVL0:
  15 0000 130101FF 		addi	sp,sp,-16
  16              		.cfi_def_cfa_offset 16
  17 0004 23341100 		sd	ra,8(sp)
  18 0008 23308100 		sd	s0,0(sp)
  19              		.cfi_offset 1, -8
  20              		.cfi_offset 8, -16
  21 000c 13040101 		addi	s0,sp,16
  22              		.cfi_def_cfa 8, 0
  14:src/Scheduler.cpp ****     return kmalloc(size);
  23              		.loc 1 14 5
  24              		.loc 1 14 19 is_stmt 0
  25 0010 97000000 		call	_Z7kmallocm@plt
  25      E7800000 
  26              	.LVL1:
  15:src/Scheduler.cpp **** }
  27              		.loc 1 15 1
  28 0018 83308100 		ld	ra,8(sp)
  29              		.cfi_restore 1
  30 001c 03340100 		ld	s0,0(sp)
  31              		.cfi_restore 8
  32              		.cfi_def_cfa 2, 16
  33 0020 13010101 		addi	sp,sp,16
  34              		.cfi_def_cfa_offset 0
  35 0024 67800000 		jr	ra
  36              		.cfi_endproc
  37              	.LFE24:
  39              		.align	2
  40              		.globl	_ZN9SchedulerdlEPv
  42              	_ZN9SchedulerdlEPv:
  43              	.LFB25:
  16:src/Scheduler.cpp **** 
GAS LISTING /tmp/cccgJUc4.s 			page 2


  17:src/Scheduler.cpp **** void Scheduler::operator delete(void *p)
  18:src/Scheduler.cpp **** {
  44              		.loc 1 18 1 is_stmt 1
  45              		.cfi_startproc
  46              	.LVL2:
  47 0028 130101FF 		addi	sp,sp,-16
  48              		.cfi_def_cfa_offset 16
  49 002c 23341100 		sd	ra,8(sp)
  50 0030 23308100 		sd	s0,0(sp)
  51              		.cfi_offset 1, -8
  52              		.cfi_offset 8, -16
  53 0034 13040101 		addi	s0,sp,16
  54              		.cfi_def_cfa 8, 0
  19:src/Scheduler.cpp ****     kfree(p);
  55              		.loc 1 19 5
  56              		.loc 1 19 10 is_stmt 0
  57 0038 97000000 		call	_Z5kfreePv@plt
  57      E7800000 
  58              	.LVL3:
  20:src/Scheduler.cpp **** }
  59              		.loc 1 20 1
  60 0040 83308100 		ld	ra,8(sp)
  61              		.cfi_restore 1
  62 0044 03340100 		ld	s0,0(sp)
  63              		.cfi_restore 8
  64              		.cfi_def_cfa 2, 16
  65 0048 13010101 		addi	sp,sp,16
  66              		.cfi_def_cfa_offset 0
  67 004c 67800000 		jr	ra
  68              		.cfi_endproc
  69              	.LFE25:
  71              		.align	2
  72              		.globl	_ZN9Scheduler7getSizeEv
  74              	_ZN9Scheduler7getSizeEv:
  75              	.LFB26:
  21:src/Scheduler.cpp **** 
  22:src/Scheduler.cpp **** int Scheduler::getSize()
  23:src/Scheduler.cpp **** {
  76              		.loc 1 23 1 is_stmt 1
  77              		.cfi_startproc
  78 0050 130101FF 		addi	sp,sp,-16
  79              		.cfi_def_cfa_offset 16
  80 0054 23348100 		sd	s0,8(sp)
  81              		.cfi_offset 8, -8
  82 0058 13040101 		addi	s0,sp,16
  83              		.cfi_def_cfa 8, 0
  24:src/Scheduler.cpp ****     uint64 sz = 0;
  84              		.loc 1 24 5
  85              	.LVL4:
  25:src/Scheduler.cpp ****     PCB* curr = schedulerPCBHead;
  86              		.loc 1 25 5
  87              		.loc 1 25 10 is_stmt 0
  88 005c 97070000 		ld	a5,.LANCHOR0
  88      83B70700 
  89              	.LVL5:
  24:src/Scheduler.cpp ****     uint64 sz = 0;
  90              		.loc 1 24 12
GAS LISTING /tmp/cccgJUc4.s 			page 3


  91 0064 13050000 		li	a0,0
  92              	.LVL6:
  93              	.L7:
  26:src/Scheduler.cpp ****     while(curr != 0)
  94              		.loc 1 26 5 is_stmt 1
  95              		.loc 1 26 16
  96 0068 63880700 		beqz	a5,.L6
  27:src/Scheduler.cpp ****     {
  28:src/Scheduler.cpp ****         sz++;
  97              		.loc 1 28 9
  98              		.loc 1 28 11 is_stmt 0
  99 006c 13051500 		addi	a0,a0,1
 100              	.LVL7:
  29:src/Scheduler.cpp ****         curr = curr->nextPCB;
 101              		.loc 1 29 9 is_stmt 1
 102              		.loc 1 29 14 is_stmt 0
 103 0070 83B78700 		ld	a5,8(a5)
 104              	.LVL8:
  26:src/Scheduler.cpp ****     while(curr != 0)
 105              		.loc 1 26 5
 106 0074 6FF05FFF 		j	.L7
 107              	.L6:
  30:src/Scheduler.cpp ****     }
  31:src/Scheduler.cpp ****     return sz;
 108              		.loc 1 31 5 is_stmt 1
  32:src/Scheduler.cpp **** }
 109              		.loc 1 32 1 is_stmt 0
 110 0078 1B050500 		sext.w	a0,a0
 111              	.LVL9:
 112 007c 03348100 		ld	s0,8(sp)
 113              		.cfi_restore 8
 114              		.cfi_def_cfa 2, 16
 115 0080 13010101 		addi	sp,sp,16
 116              		.cfi_def_cfa_offset 0
 117 0084 67800000 		jr	ra
 118              		.cfi_endproc
 119              	.LFE26:
 121              		.align	2
 122              		.globl	_ZN9Scheduler3putEP3PCB
 124              	_ZN9Scheduler3putEP3PCB:
 125              	.LFB27:
  33:src/Scheduler.cpp **** 
  34:src/Scheduler.cpp **** void Scheduler::put(PCB *pcb)
  35:src/Scheduler.cpp **** {
 126              		.loc 1 35 1 is_stmt 1
 127              		.cfi_startproc
 128              	.LVL10:
 129 0088 130101FF 		addi	sp,sp,-16
 130              		.cfi_def_cfa_offset 16
 131 008c 23348100 		sd	s0,8(sp)
 132              		.cfi_offset 8, -8
 133 0090 13040101 		addi	s0,sp,16
 134              		.cfi_def_cfa 8, 0
  36:src/Scheduler.cpp ****     pcb->setState(PCB::READY);
 135              		.loc 1 36 5
 136              	.LVL11:
 137              	.LBB4:
GAS LISTING /tmp/cccgJUc4.s 			page 4


 138              	.LBB5:
 139              		.file 2 "src/../h/PCB.hpp"
   1:src/../h/PCB.hpp **** //
   2:src/../h/PCB.hpp **** // Created by os on 4/27/22.
   3:src/../h/PCB.hpp **** //
   4:src/../h/PCB.hpp **** 
   5:src/../h/PCB.hpp **** #ifndef PROJECT_BASE_V1_0_PCB_HPP
   6:src/../h/PCB.hpp **** #define PROJECT_BASE_V1_0_PCB_HPP
   7:src/../h/PCB.hpp **** 
   8:src/../h/PCB.hpp **** #include "../lib/hw.h"
   9:src/../h/PCB.hpp **** #include "Scheduler.hpp"
  10:src/../h/PCB.hpp **** #include "Riscv.hpp"
  11:src/../h/PCB.hpp **** 
  12:src/../h/PCB.hpp **** class PCB
  13:src/../h/PCB.hpp **** {
  14:src/../h/PCB.hpp **** public:
  15:src/../h/PCB.hpp ****     static uint64 savedRegA4;
  16:src/../h/PCB.hpp **** 
  17:src/../h/PCB.hpp ****     using Body = void (*)(void*);
  18:src/../h/PCB.hpp **** 
  19:src/../h/PCB.hpp ****     PCB(Body body,  void* args, void* stack_space, uint64 timeSlice);
  20:src/../h/PCB.hpp ****     ~PCB();
  21:src/../h/PCB.hpp **** 
  22:src/../h/PCB.hpp ****     void start();
  23:src/../h/PCB.hpp ****     static void dispatch();
  24:src/../h/PCB.hpp ****     static void sleep(time_t);
  25:src/../h/PCB.hpp **** 
  26:src/../h/PCB.hpp ****     static PCB* running;
  27:src/../h/PCB.hpp **** 
  28:src/../h/PCB.hpp ****     static uint64 timeSliceCounter;
  29:src/../h/PCB.hpp ****     uint64 getTimeSlice() { return timeSlice;}
  30:src/../h/PCB.hpp **** 
  31:src/../h/PCB.hpp ****     void* operator new(size_t size);
  32:src/../h/PCB.hpp ****     void operator delete(void *p);
  33:src/../h/PCB.hpp **** 
  34:src/../h/PCB.hpp ****     enum State{READY, RUNNING, SUSPENDED, FINISHED, EXITING, SLEEPING};
  35:src/../h/PCB.hpp ****     State getState() {return state;}
  36:src/../h/PCB.hpp ****     void setState(State s) {state = s;}
 140              		.loc 2 36 29
 141              		.loc 2 36 35 is_stmt 0
 142 0094 232C0502 		sw	zero,56(a0)
 143              	.LVL12:
 144              	.LBE5:
 145              	.LBE4:
  37:src/Scheduler.cpp ****     pcb->nextPCB = 0;
 146              		.loc 1 37 5 is_stmt 1
 147              		.loc 1 37 18 is_stmt 0
 148 0098 23340500 		sd	zero,8(a0)
  38:src/Scheduler.cpp ****     if(schedulerPCBHead == 0)
 149              		.loc 1 38 5 is_stmt 1
 150              		.loc 1 38 25 is_stmt 0
 151 009c 97070000 		ld	a5,.LANCHOR0
 151      83B70700 
 152              		.loc 1 38 5
 153 00a4 63820702 		beqz	a5,.L13
  39:src/Scheduler.cpp ****         schedulerPCBHead = schedulerPCBTail = pcb;
  40:src/Scheduler.cpp ****     else
GAS LISTING /tmp/cccgJUc4.s 			page 5


  41:src/Scheduler.cpp ****     {
  42:src/Scheduler.cpp ****         schedulerPCBTail->nextPCB = pcb;
 154              		.loc 1 42 9 is_stmt 1
 155              		.loc 1 42 27 is_stmt 0
 156 00a8 97070000 		lla	a5,.LANCHOR0
 156      93870700 
 157 00b0 03B78700 		ld	a4,8(a5)
 158              		.loc 1 42 35
 159 00b4 2334A700 		sd	a0,8(a4)
  43:src/Scheduler.cpp ****         schedulerPCBTail = pcb;
 160              		.loc 1 43 9 is_stmt 1
 161              		.loc 1 43 26 is_stmt 0
 162 00b8 23B4A700 		sd	a0,8(a5)
 163              	.L9:
  44:src/Scheduler.cpp ****     }
  45:src/Scheduler.cpp **** }
 164              		.loc 1 45 1
 165 00bc 03348100 		ld	s0,8(sp)
 166              		.cfi_remember_state
 167              		.cfi_restore 8
 168              		.cfi_def_cfa 2, 16
 169 00c0 13010101 		addi	sp,sp,16
 170              		.cfi_def_cfa_offset 0
 171 00c4 67800000 		jr	ra
 172              	.L13:
 173              		.cfi_restore_state
  39:src/Scheduler.cpp ****     else
 174              		.loc 1 39 9 is_stmt 1
  39:src/Scheduler.cpp ****     else
 175              		.loc 1 39 45 is_stmt 0
 176 00c8 97070000 		lla	a5,.LANCHOR0
 176      93870700 
 177 00d0 23B4A700 		sd	a0,8(a5)
  39:src/Scheduler.cpp ****     else
 178              		.loc 1 39 26
 179 00d4 23B0A700 		sd	a0,0(a5)
 180 00d8 6FF05FFE 		j	.L9
 181              		.cfi_endproc
 182              	.LFE27:
 184              		.align	2
 185              		.globl	_ZN9Scheduler3getEv
 187              	_ZN9Scheduler3getEv:
 188              	.LFB28:
  46:src/Scheduler.cpp **** 
  47:src/Scheduler.cpp **** PCB *Scheduler::get()
  48:src/Scheduler.cpp **** {
 189              		.loc 1 48 1 is_stmt 1
 190              		.cfi_startproc
 191 00dc 130101FF 		addi	sp,sp,-16
 192              		.cfi_def_cfa_offset 16
 193 00e0 23348100 		sd	s0,8(sp)
 194              		.cfi_offset 8, -8
 195 00e4 13040101 		addi	s0,sp,16
 196              		.cfi_def_cfa 8, 0
  49:src/Scheduler.cpp ****     if(schedulerPCBHead == 0)
 197              		.loc 1 49 5
 198              		.loc 1 49 25 is_stmt 0
GAS LISTING /tmp/cccgJUc4.s 			page 6


 199 00e8 17050000 		ld	a0,.LANCHOR0
 199      03350500 
 200              		.loc 1 49 5
 201 00f0 630C0500 		beqz	a0,.L14
  50:src/Scheduler.cpp ****         return 0;
  51:src/Scheduler.cpp ****     PCB* retval = schedulerPCBHead;
 202              		.loc 1 51 5 is_stmt 1
 203              	.LVL13:
  52:src/Scheduler.cpp ****     if(schedulerPCBHead->nextPCB == 0)
 204              		.loc 1 52 5
 205              		.loc 1 52 26 is_stmt 0
 206 00f4 83378500 		ld	a5,8(a0)
 207              		.loc 1 52 5
 208 00f8 638E0700 		beqz	a5,.L19
  53:src/Scheduler.cpp ****         schedulerPCBHead = schedulerPCBTail = 0;
  54:src/Scheduler.cpp ****     else
  55:src/Scheduler.cpp ****         schedulerPCBHead = schedulerPCBHead->nextPCB;
 209              		.loc 1 55 9 is_stmt 1
 210              		.loc 1 55 26 is_stmt 0
 211 00fc 17070000 		sd	a5,.LANCHOR0,a4
 211      2330F700 
 212              	.L17:
  56:src/Scheduler.cpp ****     retval->nextPCB = 0;
 213              		.loc 1 56 5 is_stmt 1
 214              		.loc 1 56 21 is_stmt 0
 215 0104 23340500 		sd	zero,8(a0)
  57:src/Scheduler.cpp ****     return retval;
 216              		.loc 1 57 5 is_stmt 1
 217              	.LVL14:
 218              	.L14:
  58:src/Scheduler.cpp **** }
 219              		.loc 1 58 1 is_stmt 0
 220 0108 03348100 		ld	s0,8(sp)
 221              		.cfi_remember_state
 222              		.cfi_restore 8
 223              		.cfi_def_cfa 2, 16
 224 010c 13010101 		addi	sp,sp,16
 225              		.cfi_def_cfa_offset 0
 226 0110 67800000 		jr	ra
 227              	.LVL15:
 228              	.L19:
 229              		.cfi_restore_state
  53:src/Scheduler.cpp ****     else
 230              		.loc 1 53 9 is_stmt 1
  53:src/Scheduler.cpp ****     else
 231              		.loc 1 53 45 is_stmt 0
 232 0114 97070000 		lla	a5,.LANCHOR0
 232      93870700 
 233 011c 23B40700 		sd	zero,8(a5)
  53:src/Scheduler.cpp ****     else
 234              		.loc 1 53 26
 235 0120 23B00700 		sd	zero,0(a5)
 236 0124 6FF01FFE 		j	.L17
 237              		.cfi_endproc
 238              	.LFE28:
 240              		.section	.rodata.str1.8,"aMS",@progbits,1
 241              		.align	3
GAS LISTING /tmp/cccgJUc4.s 			page 7


 242              	.LC0:
 243 0000 53636865 		.string	"Scheduler print\n"
 243      64756C65 
 243      72207072 
 243      696E740A 
 243      00
 244 0011 00000000 		.align	3
 244      000000
 245              	.LC1:
 246 0018 0A00     		.string	"\n"
 247              		.text
 248              		.align	2
 249              		.globl	_ZN9Scheduler5printEv
 251              	_ZN9Scheduler5printEv:
 252              	.LFB29:
  59:src/Scheduler.cpp **** 
  60:src/Scheduler.cpp **** void Scheduler::print() {
 253              		.loc 1 60 25 is_stmt 1
 254              		.cfi_startproc
 255 0128 130101FE 		addi	sp,sp,-32
 256              		.cfi_def_cfa_offset 32
 257 012c 233C1100 		sd	ra,24(sp)
 258 0130 23388100 		sd	s0,16(sp)
 259 0134 23349100 		sd	s1,8(sp)
 260              		.cfi_offset 1, -8
 261              		.cfi_offset 8, -16
 262              		.cfi_offset 9, -24
 263 0138 13040102 		addi	s0,sp,32
 264              		.cfi_def_cfa 8, 0
  61:src/Scheduler.cpp ****     Riscv::printString("Scheduler print\n");
 265              		.loc 1 61 5
 266              		.loc 1 61 23 is_stmt 0
 267 013c 17050000 		lla	a0,.LC0
 267      13050500 
 268 0144 97000000 		call	_ZN5Riscv11printStringEPKc@plt
 268      E7800000 
 269              	.LVL16:
  62:src/Scheduler.cpp ****     PCB* curr = schedulerPCBHead;
 270              		.loc 1 62 5 is_stmt 1
 271              		.loc 1 62 10 is_stmt 0
 272 014c 97040000 		ld	s1,.LANCHOR0
 272      83B40400 
 273              	.LVL17:
 274              	.L22:
  63:src/Scheduler.cpp ****     while(curr != 0)
 275              		.loc 1 63 5 is_stmt 1
 276              		.loc 1 63 16
 277 0154 63880402 		beqz	s1,.L20
  64:src/Scheduler.cpp ****     {
  65:src/Scheduler.cpp ****         printInt((uint64)curr, 16);
 278              		.loc 1 65 9
 279              		.loc 1 65 17 is_stmt 0
 280 0158 13060000 		li	a2,0
 281 015c 93050001 		li	a1,16
 282 0160 1B850400 		sext.w	a0,s1
 283 0164 97000000 		call	_Z8printIntiii@plt
 283      E7800000 
GAS LISTING /tmp/cccgJUc4.s 			page 8


 284              	.LVL18:
  66:src/Scheduler.cpp ****         Riscv::printString("\n");
 285              		.loc 1 66 9 is_stmt 1
 286              		.loc 1 66 27 is_stmt 0
 287 016c 17050000 		lla	a0,.LC1
 287      13050500 
 288 0174 97000000 		call	_ZN5Riscv11printStringEPKc@plt
 288      E7800000 
 289              	.LVL19:
  67:src/Scheduler.cpp ****         curr = curr->nextPCB;
 290              		.loc 1 67 9 is_stmt 1
 291              		.loc 1 67 14 is_stmt 0
 292 017c 83B48400 		ld	s1,8(s1)
 293              	.LVL20:
  63:src/Scheduler.cpp ****     {
 294              		.loc 1 63 5
 295 0180 6FF05FFD 		j	.L22
 296              	.L20:
  68:src/Scheduler.cpp ****     }
  69:src/Scheduler.cpp **** }
 297              		.loc 1 69 1
 298 0184 83308101 		ld	ra,24(sp)
 299              		.cfi_restore 1
 300 0188 03340101 		ld	s0,16(sp)
 301              		.cfi_restore 8
 302              		.cfi_def_cfa 2, 32
 303 018c 83348100 		ld	s1,8(sp)
 304              		.cfi_restore 9
 305              	.LVL21:
 306 0190 13010102 		addi	sp,sp,32
 307              		.cfi_def_cfa_offset 0
 308 0194 67800000 		jr	ra
 309              		.cfi_endproc
 310              	.LFE29:
 312              		.globl	_ZN9Scheduler16schedulerPCBTailE
 313              		.globl	_ZN9Scheduler16schedulerPCBHeadE
 314              		.bss
 315              		.align	3
 316              		.set	.LANCHOR0,. + 0
 319              	_ZN9Scheduler16schedulerPCBHeadE:
 320 0000 00000000 		.zero	8
 320      00000000 
 323              	_ZN9Scheduler16schedulerPCBTailE:
 324 0008 00000000 		.zero	8
 324      00000000 
 325              		.text
 326              	.Letext0:
 327              		.file 3 "src/../h/../lib/hw.h"
 328              		.file 4 "src/../h/Scheduler.hpp"
 329              		.file 5 "src/../h/Riscv.hpp"
 330              		.file 6 "src/../test/printing.hpp"
 331              		.file 7 "src/../h/MemoryAllocator.hpp"
GAS LISTING /tmp/cccgJUc4.s 			page 9


DEFINED SYMBOLS
                            *ABS*:0000000000000000 Scheduler.cpp
     /tmp/cccgJUc4.s:9      .text:0000000000000000 _ZN9SchedulernwEm
     /tmp/cccgJUc4.s:13     .text:0000000000000000 .L0 
     /tmp/cccgJUc4.s:15     .text:0000000000000000 .L0 
     /tmp/cccgJUc4.s:16     .text:0000000000000004 .L0 
     /tmp/cccgJUc4.s:19     .text:000000000000000c .L0 
     /tmp/cccgJUc4.s:20     .text:000000000000000c .L0 
     /tmp/cccgJUc4.s:22     .text:0000000000000010 .L0 
     /tmp/cccgJUc4.s:24     .text:0000000000000010 .L0 
     /tmp/cccgJUc4.s:25     .text:0000000000000010 .L0 
     /tmp/cccgJUc4.s:28     .text:0000000000000018 .L0 
     /tmp/cccgJUc4.s:29     .text:000000000000001c .L0 
     /tmp/cccgJUc4.s:31     .text:0000000000000020 .L0 
     /tmp/cccgJUc4.s:32     .text:0000000000000020 .L0 
     /tmp/cccgJUc4.s:34     .text:0000000000000024 .L0 
     /tmp/cccgJUc4.s:36     .text:0000000000000028 .L0 
     /tmp/cccgJUc4.s:42     .text:0000000000000028 _ZN9SchedulerdlEPv
     /tmp/cccgJUc4.s:45     .text:0000000000000028 .L0 
     /tmp/cccgJUc4.s:47     .text:0000000000000028 .L0 
     /tmp/cccgJUc4.s:48     .text:000000000000002c .L0 
     /tmp/cccgJUc4.s:51     .text:0000000000000034 .L0 
     /tmp/cccgJUc4.s:52     .text:0000000000000034 .L0 
     /tmp/cccgJUc4.s:54     .text:0000000000000038 .L0 
     /tmp/cccgJUc4.s:56     .text:0000000000000038 .L0 
     /tmp/cccgJUc4.s:57     .text:0000000000000038 .L0 
     /tmp/cccgJUc4.s:60     .text:0000000000000040 .L0 
     /tmp/cccgJUc4.s:61     .text:0000000000000044 .L0 
     /tmp/cccgJUc4.s:63     .text:0000000000000048 .L0 
     /tmp/cccgJUc4.s:64     .text:0000000000000048 .L0 
     /tmp/cccgJUc4.s:66     .text:000000000000004c .L0 
     /tmp/cccgJUc4.s:68     .text:0000000000000050 .L0 
     /tmp/cccgJUc4.s:74     .text:0000000000000050 _ZN9Scheduler7getSizeEv
     /tmp/cccgJUc4.s:77     .text:0000000000000050 .L0 
     /tmp/cccgJUc4.s:78     .text:0000000000000050 .L0 
     /tmp/cccgJUc4.s:79     .text:0000000000000054 .L0 
     /tmp/cccgJUc4.s:81     .text:0000000000000058 .L0 
     /tmp/cccgJUc4.s:83     .text:000000000000005c .L0 
     /tmp/cccgJUc4.s:86     .text:000000000000005c .L0 
     /tmp/cccgJUc4.s:87     .text:000000000000005c .L0 
     /tmp/cccgJUc4.s:88     .text:000000000000005c .L0 
     /tmp/cccgJUc4.s:91     .text:0000000000000064 .L0 
     /tmp/cccgJUc4.s:95     .text:0000000000000068 .L0 
     /tmp/cccgJUc4.s:96     .text:0000000000000068 .L0 
     /tmp/cccgJUc4.s:98     .text:000000000000006c .L0 
     /tmp/cccgJUc4.s:99     .text:000000000000006c .L0 
     /tmp/cccgJUc4.s:102    .text:0000000000000070 .L0 
     /tmp/cccgJUc4.s:103    .text:0000000000000070 .L0 
     /tmp/cccgJUc4.s:106    .text:0000000000000074 .L0 
     /tmp/cccgJUc4.s:109    .text:0000000000000078 .L0 
     /tmp/cccgJUc4.s:110    .text:0000000000000078 .L0 
     /tmp/cccgJUc4.s:113    .text:0000000000000080 .L0 
     /tmp/cccgJUc4.s:114    .text:0000000000000080 .L0 
     /tmp/cccgJUc4.s:116    .text:0000000000000084 .L0 
     /tmp/cccgJUc4.s:118    .text:0000000000000088 .L0 
     /tmp/cccgJUc4.s:124    .text:0000000000000088 _ZN9Scheduler3putEP3PCB
     /tmp/cccgJUc4.s:127    .text:0000000000000088 .L0 
GAS LISTING /tmp/cccgJUc4.s 			page 10


     /tmp/cccgJUc4.s:129    .text:0000000000000088 .L0 
     /tmp/cccgJUc4.s:130    .text:000000000000008c .L0 
     /tmp/cccgJUc4.s:132    .text:0000000000000090 .L0 
     /tmp/cccgJUc4.s:134    .text:0000000000000094 .L0 
     /tmp/cccgJUc4.s:140    .text:0000000000000094 .L0 
     /tmp/cccgJUc4.s:141    .text:0000000000000094 .L0 
     /tmp/cccgJUc4.s:142    .text:0000000000000094 .L0 
     /tmp/cccgJUc4.s:147    .text:0000000000000098 .L0 
     /tmp/cccgJUc4.s:148    .text:0000000000000098 .L0 
     /tmp/cccgJUc4.s:150    .text:000000000000009c .L0 
     /tmp/cccgJUc4.s:151    .text:000000000000009c .L0 
     /tmp/cccgJUc4.s:153    .text:00000000000000a4 .L0 
     /tmp/cccgJUc4.s:155    .text:00000000000000a8 .L0 
     /tmp/cccgJUc4.s:156    .text:00000000000000a8 .L0 
     /tmp/cccgJUc4.s:159    .text:00000000000000b4 .L0 
     /tmp/cccgJUc4.s:161    .text:00000000000000b8 .L0 
     /tmp/cccgJUc4.s:162    .text:00000000000000b8 .L0 
     /tmp/cccgJUc4.s:165    .text:00000000000000bc .L0 
     /tmp/cccgJUc4.s:166    .text:00000000000000c0 .L0 
     /tmp/cccgJUc4.s:167    .text:00000000000000c0 .L0 
     /tmp/cccgJUc4.s:168    .text:00000000000000c0 .L0 
     /tmp/cccgJUc4.s:170    .text:00000000000000c4 .L0 
     /tmp/cccgJUc4.s:173    .text:00000000000000c8 .L0 
     /tmp/cccgJUc4.s:175    .text:00000000000000c8 .L0 
     /tmp/cccgJUc4.s:176    .text:00000000000000c8 .L0 
     /tmp/cccgJUc4.s:179    .text:00000000000000d4 .L0 
     /tmp/cccgJUc4.s:181    .text:00000000000000dc .L0 
     /tmp/cccgJUc4.s:187    .text:00000000000000dc _ZN9Scheduler3getEv
     /tmp/cccgJUc4.s:190    .text:00000000000000dc .L0 
     /tmp/cccgJUc4.s:191    .text:00000000000000dc .L0 
     /tmp/cccgJUc4.s:192    .text:00000000000000e0 .L0 
     /tmp/cccgJUc4.s:194    .text:00000000000000e4 .L0 
     /tmp/cccgJUc4.s:196    .text:00000000000000e8 .L0 
     /tmp/cccgJUc4.s:198    .text:00000000000000e8 .L0 
     /tmp/cccgJUc4.s:199    .text:00000000000000e8 .L0 
     /tmp/cccgJUc4.s:201    .text:00000000000000f0 .L0 
     /tmp/cccgJUc4.s:204    .text:00000000000000f4 .L0 
     /tmp/cccgJUc4.s:205    .text:00000000000000f4 .L0 
     /tmp/cccgJUc4.s:206    .text:00000000000000f4 .L0 
     /tmp/cccgJUc4.s:208    .text:00000000000000f8 .L0 
     /tmp/cccgJUc4.s:210    .text:00000000000000fc .L0 
     /tmp/cccgJUc4.s:211    .text:00000000000000fc .L0 
     /tmp/cccgJUc4.s:214    .text:0000000000000104 .L0 
     /tmp/cccgJUc4.s:215    .text:0000000000000104 .L0 
     /tmp/cccgJUc4.s:219    .text:0000000000000108 .L0 
     /tmp/cccgJUc4.s:220    .text:0000000000000108 .L0 
     /tmp/cccgJUc4.s:221    .text:000000000000010c .L0 
     /tmp/cccgJUc4.s:222    .text:000000000000010c .L0 
     /tmp/cccgJUc4.s:223    .text:000000000000010c .L0 
     /tmp/cccgJUc4.s:225    .text:0000000000000110 .L0 
     /tmp/cccgJUc4.s:229    .text:0000000000000114 .L0 
     /tmp/cccgJUc4.s:231    .text:0000000000000114 .L0 
     /tmp/cccgJUc4.s:232    .text:0000000000000114 .L0 
     /tmp/cccgJUc4.s:235    .text:0000000000000120 .L0 
     /tmp/cccgJUc4.s:237    .text:0000000000000128 .L0 
     /tmp/cccgJUc4.s:251    .text:0000000000000128 _ZN9Scheduler5printEv
     /tmp/cccgJUc4.s:254    .text:0000000000000128 .L0 
GAS LISTING /tmp/cccgJUc4.s 			page 11


     /tmp/cccgJUc4.s:255    .text:0000000000000128 .L0 
     /tmp/cccgJUc4.s:256    .text:000000000000012c .L0 
     /tmp/cccgJUc4.s:260    .text:0000000000000138 .L0 
     /tmp/cccgJUc4.s:261    .text:0000000000000138 .L0 
     /tmp/cccgJUc4.s:262    .text:0000000000000138 .L0 
     /tmp/cccgJUc4.s:264    .text:000000000000013c .L0 
     /tmp/cccgJUc4.s:266    .text:000000000000013c .L0 
     /tmp/cccgJUc4.s:267    .text:000000000000013c .L0 
     /tmp/cccgJUc4.s:271    .text:000000000000014c .L0 
     /tmp/cccgJUc4.s:272    .text:000000000000014c .L0 
     /tmp/cccgJUc4.s:276    .text:0000000000000154 .L0 
     /tmp/cccgJUc4.s:277    .text:0000000000000154 .L0 
     /tmp/cccgJUc4.s:279    .text:0000000000000158 .L0 
     /tmp/cccgJUc4.s:280    .text:0000000000000158 .L0 
     /tmp/cccgJUc4.s:286    .text:000000000000016c .L0 
     /tmp/cccgJUc4.s:287    .text:000000000000016c .L0 
     /tmp/cccgJUc4.s:291    .text:000000000000017c .L0 
     /tmp/cccgJUc4.s:292    .text:000000000000017c .L0 
     /tmp/cccgJUc4.s:295    .text:0000000000000180 .L0 
     /tmp/cccgJUc4.s:298    .text:0000000000000184 .L0 
     /tmp/cccgJUc4.s:299    .text:0000000000000188 .L0 
     /tmp/cccgJUc4.s:301    .text:000000000000018c .L0 
     /tmp/cccgJUc4.s:302    .text:000000000000018c .L0 
     /tmp/cccgJUc4.s:304    .text:0000000000000190 .L0 
     /tmp/cccgJUc4.s:307    .text:0000000000000194 .L0 
     /tmp/cccgJUc4.s:309    .text:0000000000000198 .L0 
     /tmp/cccgJUc4.s:323    .bss:0000000000000008 _ZN9Scheduler16schedulerPCBTailE
     /tmp/cccgJUc4.s:319    .bss:0000000000000000 _ZN9Scheduler16schedulerPCBHeadE
     /tmp/cccgJUc4.s:316    .bss:0000000000000000 .LANCHOR0
     /tmp/cccgJUc4.s:332    .text:0000000000000198 .L0 
     /tmp/cccgJUc4.s:88     .text:000000000000005c .L0 
     /tmp/cccgJUc4.s:151    .text:000000000000009c .L0 
     /tmp/cccgJUc4.s:156    .text:00000000000000a8 .L0 
     /tmp/cccgJUc4.s:176    .text:00000000000000c8 .L0 
     /tmp/cccgJUc4.s:199    .text:00000000000000e8 .L0 
     /tmp/cccgJUc4.s:211    .text:00000000000000fc .L0 
     /tmp/cccgJUc4.s:232    .text:0000000000000114 .L0 
     /tmp/cccgJUc4.s:242    .rodata.str1.8:0000000000000000 .LC0
     /tmp/cccgJUc4.s:267    .text:000000000000013c .L0 
     /tmp/cccgJUc4.s:272    .text:000000000000014c .L0 
     /tmp/cccgJUc4.s:245    .rodata.str1.8:0000000000000018 .LC1
     /tmp/cccgJUc4.s:287    .text:000000000000016c .L0 
     /tmp/cccgJUc4.s:107    .text:0000000000000078 .L6
     /tmp/cccgJUc4.s:93     .text:0000000000000068 .L7
     /tmp/cccgJUc4.s:172    .text:00000000000000c8 .L13
     /tmp/cccgJUc4.s:163    .text:00000000000000bc .L9
     /tmp/cccgJUc4.s:218    .text:0000000000000108 .L14
     /tmp/cccgJUc4.s:228    .text:0000000000000114 .L19
     /tmp/cccgJUc4.s:212    .text:0000000000000104 .L17
     /tmp/cccgJUc4.s:296    .text:0000000000000184 .L20
     /tmp/cccgJUc4.s:274    .text:0000000000000154 .L22
     /tmp/cccgJUc4.s:1678   .debug_abbrev:0000000000000000 .Ldebug_abbrev0
     /tmp/cccgJUc4.s:2748   .debug_str:0000000000000193 .LASF190
     /tmp/cccgJUc4.s:2856   .debug_str:000000000000054a .LASF191
     /tmp/cccgJUc4.s:3036   .debug_str:0000000000000afe .LASF192
     /tmp/cccgJUc4.s:5      .text:0000000000000000 .Ltext0
     /tmp/cccgJUc4.s:326    .text:0000000000000198 .Letext0
GAS LISTING /tmp/cccgJUc4.s 			page 12


     /tmp/cccgJUc4.s:2702   .debug_line:0000000000000000 .Ldebug_line0
     /tmp/cccgJUc4.s:2846   .debug_str:00000000000004fa .LASF0
     /tmp/cccgJUc4.s:2874   .debug_str:00000000000005e8 .LASF1
     /tmp/cccgJUc4.s:2968   .debug_str:0000000000000914 .LASF2
     /tmp/cccgJUc4.s:2980   .debug_str:0000000000000969 .LASF4
     /tmp/cccgJUc4.s:2862   .debug_str:000000000000057c .LASF3
     /tmp/cccgJUc4.s:2718   .debug_str:0000000000000069 .LASF5
     /tmp/cccgJUc4.s:2946   .debug_str:0000000000000864 .LASF6
     /tmp/cccgJUc4.s:2936   .debug_str:0000000000000811 .LASF7
     /tmp/cccgJUc4.s:2868   .debug_str:00000000000005bd .LASF8
     /tmp/cccgJUc4.s:2824   .debug_str:000000000000044a .LASF9
     /tmp/cccgJUc4.s:2830   .debug_str:000000000000048d .LASF10
     /tmp/cccgJUc4.s:2766   .debug_str:00000000000002cd .LASF11
     /tmp/cccgJUc4.s:2814   .debug_str:0000000000000413 .LASF12
     /tmp/cccgJUc4.s:2772   .debug_str:00000000000002ef .LASF13
     /tmp/cccgJUc4.s:2764   .debug_str:00000000000002bd .LASF14
     /tmp/cccgJUc4.s:3014   .debug_str:0000000000000a7b .LASF15
     /tmp/cccgJUc4.s:2804   .debug_str:00000000000003d2 .LASF16
     /tmp/cccgJUc4.s:3004   .debug_str:0000000000000a0a .LASF17
     /tmp/cccgJUc4.s:3024   .debug_str:0000000000000aba .LASF193
     /tmp/cccgJUc4.s:2758   .debug_str:0000000000000290 .LASF18
     /tmp/cccgJUc4.s:2998   .debug_str:00000000000009e9 .LASF19
     /tmp/cccgJUc4.s:2770   .debug_str:00000000000002e5 .LASF20
     /tmp/cccgJUc4.s:2746   .debug_str:000000000000018a .LASF21
     /tmp/cccgJUc4.s:2940   .debug_str:000000000000083a .LASF22
     /tmp/cccgJUc4.s:2768   .debug_str:00000000000002dc .LASF23
     /tmp/cccgJUc4.s:3016   .debug_str:0000000000000a87 .LASF84
     /tmp/cccgJUc4.s:2836   .debug_str:00000000000004c0 .LASF24
     /tmp/cccgJUc4.s:2722   .debug_str:000000000000008a .LASF29
     /tmp/cccgJUc4.s:3040   .debug_str:0000000000000b29 .LASF194
     /tmp/cccgJUc4.s:2924   .debug_str:00000000000007b8 .LASF195
     /tmp/cccgJUc4.s:2872   .debug_str:00000000000005e3 .LASF25
     /tmp/cccgJUc4.s:3088   .debug_str:0000000000000ca8 .LASF27
     /tmp/cccgJUc4.s:3082   .debug_str:0000000000000c78 .LASF26
     /tmp/cccgJUc4.s:3030   .debug_str:0000000000000ad0 .LASF28
     /tmp/cccgJUc4.s:2792   .debug_str:0000000000000389 .LASF54
     /tmp/cccgJUc4.s:2730   .debug_str:00000000000000d5 .LASF56
     /tmp/cccgJUc4.s:2876   .debug_str:00000000000005fb .LASF34
     /tmp/cccgJUc4.s:2928   .debug_str:00000000000007d0 .LASF36
     /tmp/cccgJUc4.s:3026   .debug_str:0000000000000ac0 .LASF30
     /tmp/cccgJUc4.s:2990   .debug_str:00000000000009a0 .LASF31
     /tmp/cccgJUc4.s:2878   .debug_str:0000000000000601 .LASF38
     /tmp/cccgJUc4.s:2884   .debug_str:0000000000000638 .LASF40
     /tmp/cccgJUc4.s:3092   .debug_str:0000000000000ccc .LASF32
     /tmp/cccgJUc4.s:2806   .debug_str:00000000000003e8 .LASF33
     /tmp/cccgJUc4.s:2710   .debug_str:000000000000002a .LASF35
     /tmp/cccgJUc4.s:2858   .debug_str:000000000000055c .LASF37
     /tmp/cccgJUc4.s:2994   .debug_str:00000000000009c2 .LASF39
     /tmp/cccgJUc4.s:2904   .debug_str:00000000000006fb .LASF41
     /tmp/cccgJUc4.s:2978   .debug_str:0000000000000960 .LASF42
     /tmp/cccgJUc4.s:3010   .debug_str:0000000000000a58 .LASF43
     /tmp/cccgJUc4.s:2906   .debug_str:000000000000070e .LASF44
     /tmp/cccgJUc4.s:2706   .debug_str:000000000000000b .LASF45
     /tmp/cccgJUc4.s:3070   .debug_str:0000000000000c0a .LASF46
     /tmp/cccgJUc4.s:2934   .debug_str:00000000000007f7 .LASF47
     /tmp/cccgJUc4.s:3002   .debug_str:00000000000009fc .LASF48
     /tmp/cccgJUc4.s:2948   .debug_str:000000000000086b .LASF49
GAS LISTING /tmp/cccgJUc4.s 			page 13


     /tmp/cccgJUc4.s:2788   .debug_str:0000000000000367 .LASF50
     /tmp/cccgJUc4.s:2818   .debug_str:000000000000042a .LASF51
     /tmp/cccgJUc4.s:2962   .debug_str:00000000000008e4 .LASF52
     /tmp/cccgJUc4.s:3076   .debug_str:0000000000000c3b .LASF53
     /tmp/cccgJUc4.s:2864   .debug_str:000000000000058e .LASF60
     /tmp/cccgJUc4.s:3000   .debug_str:00000000000009f1 .LASF55
     /tmp/cccgJUc4.s:3086   .debug_str:0000000000000c92 .LASF57
     /tmp/cccgJUc4.s:3018   .debug_str:0000000000000a8f .LASF58
     /tmp/cccgJUc4.s:2782   .debug_str:0000000000000346 .LASF59
     /tmp/cccgJUc4.s:2986   .debug_str:000000000000098a .LASF61
     /tmp/cccgJUc4.s:2848   .debug_str:0000000000000507 .LASF62
     /tmp/cccgJUc4.s:2914   .debug_str:0000000000000748 .LASF63
     /tmp/cccgJUc4.s:2776   .debug_str:0000000000000310 .LASF64
     /tmp/cccgJUc4.s:2952   .debug_str:000000000000087e .LASF65
     /tmp/cccgJUc4.s:3104   .debug_str:0000000000000d09 .LASF66
     /tmp/cccgJUc4.s:2918   .debug_str:000000000000076e .LASF67
     /tmp/cccgJUc4.s:2976   .debug_str:000000000000094d .LASF68
     /tmp/cccgJUc4.s:2996   .debug_str:00000000000009cb .LASF69
     /tmp/cccgJUc4.s:3050   .debug_str:0000000000000b73 .LASF70
     /tmp/cccgJUc4.s:2896   .debug_str:00000000000006a2 .LASF71
     /tmp/cccgJUc4.s:3042   .debug_str:0000000000000b41 .LASF72
     /tmp/cccgJUc4.s:3008   .debug_str:0000000000000a38 .LASF73
     /tmp/cccgJUc4.s:3034   .debug_str:0000000000000af4 .LASF74
     /tmp/cccgJUc4.s:2930   .debug_str:00000000000007e0 .LASF75
     /tmp/cccgJUc4.s:3080   .debug_str:0000000000000c6a .LASF76
     /tmp/cccgJUc4.s:2736   .debug_str:0000000000000124 .LASF78
     /tmp/cccgJUc4.s:2850   .debug_str:000000000000051b .LASF77
     /tmp/cccgJUc4.s:2756   .debug_str:0000000000000264 .LASF79
     /tmp/cccgJUc4.s:3068   .debug_str:0000000000000c03 .LASF196
     /tmp/cccgJUc4.s:2752   .debug_str:0000000000000245 .LASF197
     /tmp/cccgJUc4.s:2708   .debug_str:0000000000000025 .LASF80
     /tmp/cccgJUc4.s:3048   .debug_str:0000000000000b6e .LASF81
     /tmp/cccgJUc4.s:2886   .debug_str:0000000000000650 .LASF82
     /tmp/cccgJUc4.s:2794   .debug_str:0000000000000392 .LASF83
     /tmp/cccgJUc4.s:3038   .debug_str:0000000000000b21 .LASF85
     /tmp/cccgJUc4.s:2822   .debug_str:0000000000000440 .LASF86
     /tmp/cccgJUc4.s:2724   .debug_str:0000000000000095 .LASF198
     /tmp/cccgJUc4.s:3084   .debug_str:0000000000000c7e .LASF199
     /tmp/cccgJUc4.s:2742   .debug_str:0000000000000165 .LASF87
     /tmp/cccgJUc4.s:2926   .debug_str:00000000000007bd .LASF88
     /tmp/cccgJUc4.s:3028   .debug_str:0000000000000ac8 .LASF89
     /tmp/cccgJUc4.s:2964   .debug_str:00000000000008f1 .LASF120
     /tmp/cccgJUc4.s:2750   .debug_str:000000000000023f .LASF90
     /tmp/cccgJUc4.s:2912   .debug_str:0000000000000732 .LASF91
     /tmp/cccgJUc4.s:2992   .debug_str:00000000000009b1 .LASF92
     /tmp/cccgJUc4.s:2774   .debug_str:00000000000002ff .LASF93
     /tmp/cccgJUc4.s:3060   .debug_str:0000000000000bd1 .LASF94
     /tmp/cccgJUc4.s:2842   .debug_str:00000000000004d7 .LASF95
     /tmp/cccgJUc4.s:3006   .debug_str:0000000000000a20 .LASF96
     /tmp/cccgJUc4.s:2932   .debug_str:00000000000007ec .LASF97
     /tmp/cccgJUc4.s:2892   .debug_str:000000000000067a .LASF98
     /tmp/cccgJUc4.s:2802   .debug_str:00000000000003c8 .LASF99
     /tmp/cccgJUc4.s:2938   .debug_str:0000000000000824 .LASF100
     /tmp/cccgJUc4.s:2894   .debug_str:0000000000000692 .LASF101
     /tmp/cccgJUc4.s:3054   .debug_str:0000000000000b97 .LASF102
     /tmp/cccgJUc4.s:3052   .debug_str:0000000000000b86 .LASF103
     /tmp/cccgJUc4.s:2882   .debug_str:000000000000061a .LASF104
GAS LISTING /tmp/cccgJUc4.s 			page 14


     /tmp/cccgJUc4.s:2798   .debug_str:000000000000039e .LASF105
     /tmp/cccgJUc4.s:3078   .debug_str:0000000000000c46 .LASF106
     /tmp/cccgJUc4.s:2716   .debug_str:0000000000000057 .LASF107
     /tmp/cccgJUc4.s:2778   .debug_str:0000000000000322 .LASF108
     /tmp/cccgJUc4.s:3074   .debug_str:0000000000000c2f .LASF109
     /tmp/cccgJUc4.s:2732   .debug_str:00000000000000e8 .LASF110
     /tmp/cccgJUc4.s:2944   .debug_str:0000000000000857 .LASF111
     /tmp/cccgJUc4.s:2720   .debug_str:0000000000000070 .LASF112
     /tmp/cccgJUc4.s:2740   .debug_str:000000000000015b .LASF113
     /tmp/cccgJUc4.s:2826   .debug_str:000000000000045a .LASF114
     /tmp/cccgJUc4.s:2988   .debug_str:0000000000000992 .LASF115
     /tmp/cccgJUc4.s:2958   .debug_str:00000000000008c2 .LASF116
     /tmp/cccgJUc4.s:2908   .debug_str:000000000000071d .LASF117
     /tmp/cccgJUc4.s:3064   .debug_str:0000000000000be1 .LASF118
     /tmp/cccgJUc4.s:3046   .debug_str:0000000000000b65 .LASF119
     /tmp/cccgJUc4.s:2714   .debug_str:0000000000000042 .LASF121
     /tmp/cccgJUc4.s:3098   .debug_str:0000000000000cf3 .LASF122
     /tmp/cccgJUc4.s:2922   .debug_str:00000000000007a3 .LASF123
     /tmp/cccgJUc4.s:2950   .debug_str:0000000000000877 .LASF124
     /tmp/cccgJUc4.s:2954   .debug_str:000000000000089b .LASF125
     /tmp/cccgJUc4.s:2916   .debug_str:0000000000000767 .LASF126
     /tmp/cccgJUc4.s:2870   .debug_str:00000000000005d0 .LASF127
     /tmp/cccgJUc4.s:3066   .debug_str:0000000000000bfb .LASF128
     /tmp/cccgJUc4.s:3032   .debug_str:0000000000000ae0 .LASF129
     /tmp/cccgJUc4.s:2910   .debug_str:000000000000072a .LASF130
     /tmp/cccgJUc4.s:2920   .debug_str:000000000000078f .LASF131
     /tmp/cccgJUc4.s:2900   .debug_str:00000000000006e1 .LASF132
     /tmp/cccgJUc4.s:2956   .debug_str:00000000000008ae .LASF133
     /tmp/cccgJUc4.s:3100   .debug_str:0000000000000cfc .LASF134
     /tmp/cccgJUc4.s:2854   .debug_str:0000000000000536 .LASF135
     /tmp/cccgJUc4.s:3012   .debug_str:0000000000000a74 .LASF136
     /tmp/cccgJUc4.s:2982   .debug_str:0000000000000970 .LASF137
     /tmp/cccgJUc4.s:2984   .debug_str:0000000000000983 .LASF138
     /tmp/cccgJUc4.s:2800   .debug_str:00000000000003b5 .LASF139
     /tmp/cccgJUc4.s:2796   .debug_str:0000000000000398 .LASF140
     /tmp/cccgJUc4.s:2726   .debug_str:00000000000000ad .LASF141
     /tmp/cccgJUc4.s:2852   .debug_str:0000000000000530 .LASF142
     /tmp/cccgJUc4.s:2790   .debug_str:0000000000000377 .LASF143
     /tmp/cccgJUc4.s:2754   .debug_str:0000000000000256 .LASF144
     /tmp/cccgJUc4.s:3022   .debug_str:0000000000000a9f .LASF145
     /tmp/cccgJUc4.s:2704   .debug_str:0000000000000000 .LASF146
     /tmp/cccgJUc4.s:2974   .debug_str:0000000000000935 .LASF147
     /tmp/cccgJUc4.s:2966   .debug_str:0000000000000909 .LASF148
     /tmp/cccgJUc4.s:3090   .debug_str:0000000000000cb4 .LASF149
     /tmp/cccgJUc4.s:2972   .debug_str:000000000000092e .LASF150
     /tmp/cccgJUc4.s:2762   .debug_str:00000000000002aa .LASF151
     /tmp/cccgJUc4.s:3062   .debug_str:0000000000000bd7 .LASF152
     /tmp/cccgJUc4.s:3072   .debug_str:0000000000000c19 .LASF153
     /tmp/cccgJUc4.s:3056   .debug_str:0000000000000bb5 .LASF154
     /tmp/cccgJUc4.s:2728   .debug_str:00000000000000bf .LASF155
     /tmp/cccgJUc4.s:2786   .debug_str:0000000000000361 .LASF156
     /tmp/cccgJUc4.s:2834   .debug_str:00000000000004ae .LASF157
     /tmp/cccgJUc4.s:2840   .debug_str:00000000000004d1 .LASF158
     /tmp/cccgJUc4.s:3058   .debug_str:0000000000000bbf .LASF159
     /tmp/cccgJUc4.s:2838   .debug_str:00000000000004c6 .LASF160
     /tmp/cccgJUc4.s:2844   .debug_str:00000000000004e2 .LASF161
     /tmp/cccgJUc4.s:3044   .debug_str:0000000000000b56 .LASF162
GAS LISTING /tmp/cccgJUc4.s 			page 15


     /tmp/cccgJUc4.s:2828   .debug_str:0000000000000471 .LASF163
     /tmp/cccgJUc4.s:2942   .debug_str:0000000000000842 .LASF164
     /tmp/cccgJUc4.s:2866   .debug_str:000000000000059b .LASF165
     /tmp/cccgJUc4.s:2738   .debug_str:000000000000014c .LASF166
     /tmp/cccgJUc4.s:2890   .debug_str:000000000000065d .LASF167
     /tmp/cccgJUc4.s:2960   .debug_str:00000000000008dd .LASF168
     /tmp/cccgJUc4.s:2712   .debug_str:000000000000003a .LASF169
     /tmp/cccgJUc4.s:3094   .debug_str:0000000000000cd9 .LASF170
     /tmp/cccgJUc4.s:2880   .debug_str:000000000000060e .LASF171
     /tmp/cccgJUc4.s:2744   .debug_str:0000000000000177 .LASF172
     /tmp/cccgJUc4.s:2902   .debug_str:00000000000006e9 .LASF173
     /tmp/cccgJUc4.s:2832   .debug_str:000000000000049b .LASF174
     /tmp/cccgJUc4.s:2860   .debug_str:0000000000000569 .LASF175
     /tmp/cccgJUc4.s:2760   .debug_str:0000000000000296 .LASF176
     /tmp/cccgJUc4.s:3020   .debug_str:0000000000000a9a .LASF177
     /tmp/cccgJUc4.s:2888   .debug_str:0000000000000658 .LASF178
     /tmp/cccgJUc4.s:2898   .debug_str:00000000000006c0 .LASF179
     /tmp/cccgJUc4.s:2734   .debug_str:0000000000000103 .LASF180
     /tmp/cccgJUc4.s:252    .text:0000000000000128 .LFB29
     /tmp/cccgJUc4.s:310    .text:0000000000000198 .LFE29
     /tmp/cccgJUc4.s:3102   .debug_str:0000000000000d04 .LASF181
     /tmp/cccgJUc4.s:2616   .debug_loc:0000000000000000 .LLST6
     /tmp/cccgJUc4.s:269    .text:000000000000014c .LVL16
     /tmp/cccgJUc4.s:284    .text:000000000000016c .LVL18
     /tmp/cccgJUc4.s:289    .text:000000000000017c .LVL19
     /tmp/cccgJUc4.s:188    .text:00000000000000dc .LFB28
     /tmp/cccgJUc4.s:238    .text:0000000000000128 .LFE28
     /tmp/cccgJUc4.s:2810   .debug_str:0000000000000403 .LASF182
     /tmp/cccgJUc4.s:2623   .debug_loc:0000000000000023 .LLST5
     /tmp/cccgJUc4.s:125    .text:0000000000000088 .LFB27
     /tmp/cccgJUc4.s:182    .text:00000000000000dc .LFE27
     /tmp/cccgJUc4.s:137    .text:0000000000000094 .LBB4
     /tmp/cccgJUc4.s:145    .text:0000000000000098 .LBE4
     /tmp/cccgJUc4.s:2634   .debug_loc:0000000000000059 .LLST3
     /tmp/cccgJUc4.s:2642   .debug_loc:000000000000007d .LLST4
     /tmp/cccgJUc4.s:75     .text:0000000000000050 .LFB26
     /tmp/cccgJUc4.s:119    .text:0000000000000088 .LFE26
     /tmp/cccgJUc4.s:2649   .debug_loc:00000000000000a0 .LLST2
     /tmp/cccgJUc4.s:43     .text:0000000000000028 .LFB25
     /tmp/cccgJUc4.s:69     .text:0000000000000050 .LFE25
     /tmp/cccgJUc4.s:2661   .debug_loc:00000000000000d7 .LLST1
     /tmp/cccgJUc4.s:58     .text:0000000000000040 .LVL3
     /tmp/cccgJUc4.s:10     .text:0000000000000000 .LFB24
     /tmp/cccgJUc4.s:37     .text:0000000000000028 .LFE24
     /tmp/cccgJUc4.s:2780   .debug_str:0000000000000341 .LASF183
     /tmp/cccgJUc4.s:2675   .debug_loc:0000000000000110 .LLST0
     /tmp/cccgJUc4.s:26     .text:0000000000000018 .LVL1
     /tmp/cccgJUc4.s:2784   .debug_str:000000000000035c .LASF200
     /tmp/cccgJUc4.s:2808   .debug_str:00000000000003f4 .LASF184
     /tmp/cccgJUc4.s:2812   .debug_str:000000000000040a .LASF186
     /tmp/cccgJUc4.s:3096   .debug_str:0000000000000ce8 .LASF185
     /tmp/cccgJUc4.s:2820   .debug_str:000000000000043a .LASF187
     /tmp/cccgJUc4.s:2970   .debug_str:0000000000000922 .LASF188
     /tmp/cccgJUc4.s:2816   .debug_str:0000000000000422 .LASF189
     /tmp/cccgJUc4.s:273    .text:0000000000000154 .LVL17
     /tmp/cccgJUc4.s:305    .text:0000000000000190 .LVL21
     /tmp/cccgJUc4.s:203    .text:00000000000000f4 .LVL13
GAS LISTING /tmp/cccgJUc4.s 			page 16


     /tmp/cccgJUc4.s:217    .text:0000000000000108 .LVL14
     /tmp/cccgJUc4.s:227    .text:0000000000000114 .LVL15
     /tmp/cccgJUc4.s:136    .text:0000000000000094 .LVL11
     /tmp/cccgJUc4.s:143    .text:0000000000000098 .LVL12
     /tmp/cccgJUc4.s:85     .text:000000000000005c .LVL4
     /tmp/cccgJUc4.s:92     .text:0000000000000068 .LVL6
     /tmp/cccgJUc4.s:111    .text:000000000000007c .LVL9
     /tmp/cccgJUc4.s:46     .text:0000000000000028 .LVL2
     /tmp/cccgJUc4.s:14     .text:0000000000000000 .LVL0
     /tmp/cccgJUc4.s:333    .debug_info:0000000000000000 .Ldebug_info0

UNDEFINED SYMBOLS
_Z7kmallocm
_Z5kfreePv
_ZN5Riscv11printStringEPKc
_Z8printIntiii
