GAS LISTING /tmp/ccKB0bFV.s 			page 1


   1              		.file	"Scheduler.cpp"
   2              		.option pic
   3              		.option norelax
   4              		.text
   5              	.Ltext0:
   6              		.align	2
   8              	_Z41__static_initialization_and_destruction_0ii:
   9              	.LFB2:
  10              		.file 1 "src/Scheduler.cpp"
   1:src/Scheduler.cpp **** //
   2:src/Scheduler.cpp **** // Created by os on 4/27/22.
   3:src/Scheduler.cpp **** //
   4:src/Scheduler.cpp **** 
   5:src/Scheduler.cpp **** #include "../h/Scheduler.h"
   6:src/Scheduler.cpp **** #include "../h/PCB.h"
   7:src/Scheduler.cpp **** 
   8:src/Scheduler.cpp **** //todo
   9:src/Scheduler.cpp **** Queue<PCB*>* Scheduler::queuePCB = (Queue<PCB*>*)MemoryAllocator::mem_alloc(sizeof(Queue<PCB*>));
  10:src/Scheduler.cpp **** 
  11:src/Scheduler.cpp **** void Scheduler::put(PCB *pcb) {
  12:src/Scheduler.cpp ****     //Scheduler::queuePCB->push(pcb);
  13:src/Scheduler.cpp **** }
  14:src/Scheduler.cpp **** 
  15:src/Scheduler.cpp **** PCB *Scheduler::get() {
  16:src/Scheduler.cpp ****     return 0;
  17:src/Scheduler.cpp **** }
  11              		.loc 1 17 1
  12              		.cfi_startproc
  13              	.LVL0:
  14 0000 93071000 		li	a5,1
  15 0004 6304F500 		beq	a0,a5,.L7
  16              	.L4:
  17 0008 67800000 		ret
  18              	.L7:
  19              		.loc 1 17 1 is_stmt 0 discriminator 1
  20 000c B7070100 		li	a5,65536
  21 0010 9387F7FF 		addi	a5,a5,-1
  22 0014 E39AF5FE 		bne	a1,a5,.L4
  23              		.loc 1 17 1
  24 0018 130101FF 		addi	sp,sp,-16
  25              		.cfi_def_cfa_offset 16
  26 001c 23341100 		sd	ra,8(sp)
  27 0020 23308100 		sd	s0,0(sp)
  28              		.cfi_offset 1, -8
  29              		.cfi_offset 8, -16
  30 0024 13040101 		addi	s0,sp,16
  31              		.cfi_def_cfa 8, 0
   9:src/Scheduler.cpp **** 
  32              		.loc 1 9 76
  33 0028 13050001 		li	a0,16
  34              	.LVL1:
  35 002c 97000000 		call	_ZN15MemoryAllocator9mem_allocEm@plt
  35      E7800000 
  36              	.LVL2:
   9:src/Scheduler.cpp **** 
  37              		.loc 1 9 14
  38 0034 97070000 		sd	a0,.LANCHOR0,a5
GAS LISTING /tmp/ccKB0bFV.s 			page 2


  38      23B0A700 
  39              		.loc 1 17 1
  40 003c 83308100 		ld	ra,8(sp)
  41              		.cfi_restore 1
  42 0040 03340100 		ld	s0,0(sp)
  43              		.cfi_restore 8
  44              		.cfi_def_cfa 2, 16
  45 0044 13010101 		addi	sp,sp,16
  46              		.cfi_def_cfa_offset 0
  47 0048 67800000 		jr	ra
  48              		.cfi_endproc
  49              	.LFE2:
  51              		.align	2
  52              		.globl	_ZN9Scheduler3putEP3PCB
  54              	_ZN9Scheduler3putEP3PCB:
  55              	.LFB0:
  11:src/Scheduler.cpp ****     //Scheduler::queuePCB->push(pcb);
  56              		.loc 1 11 31 is_stmt 1
  57              		.cfi_startproc
  58              	.LVL3:
  59 004c 130101FF 		addi	sp,sp,-16
  60              		.cfi_def_cfa_offset 16
  61 0050 23348100 		sd	s0,8(sp)
  62              		.cfi_offset 8, -8
  63 0054 13040101 		addi	s0,sp,16
  64              		.cfi_def_cfa 8, 0
  13:src/Scheduler.cpp **** 
  65              		.loc 1 13 1 is_stmt 0
  66 0058 03348100 		ld	s0,8(sp)
  67              		.cfi_restore 8
  68              		.cfi_def_cfa 2, 16
  69 005c 13010101 		addi	sp,sp,16
  70              		.cfi_def_cfa_offset 0
  71 0060 67800000 		jr	ra
  72              		.cfi_endproc
  73              	.LFE0:
  75              		.align	2
  76              		.globl	_ZN9Scheduler3getEv
  78              	_ZN9Scheduler3getEv:
  79              	.LFB1:
  15:src/Scheduler.cpp ****     return 0;
  80              		.loc 1 15 23 is_stmt 1
  81              		.cfi_startproc
  82 0064 130101FF 		addi	sp,sp,-16
  83              		.cfi_def_cfa_offset 16
  84 0068 23348100 		sd	s0,8(sp)
  85              		.cfi_offset 8, -8
  86 006c 13040101 		addi	s0,sp,16
  87              		.cfi_def_cfa 8, 0
  16:src/Scheduler.cpp **** }
  88              		.loc 1 16 5
  89              		.loc 1 17 1 is_stmt 0
  90 0070 13050000 		li	a0,0
  91 0074 03348100 		ld	s0,8(sp)
  92              		.cfi_restore 8
  93              		.cfi_def_cfa 2, 16
  94 0078 13010101 		addi	sp,sp,16
GAS LISTING /tmp/ccKB0bFV.s 			page 3


  95              		.cfi_def_cfa_offset 0
  96 007c 67800000 		jr	ra
  97              		.cfi_endproc
  98              	.LFE1:
 100              		.align	2
 102              	_GLOBAL__sub_I__ZN9Scheduler8queuePCBE:
 103              	.LFB3:
 104              		.loc 1 17 1 is_stmt 1
 105              		.cfi_startproc
 106 0080 130101FF 		addi	sp,sp,-16
 107              		.cfi_def_cfa_offset 16
 108 0084 23341100 		sd	ra,8(sp)
 109 0088 23308100 		sd	s0,0(sp)
 110              		.cfi_offset 1, -8
 111              		.cfi_offset 8, -16
 112 008c 13040101 		addi	s0,sp,16
 113              		.cfi_def_cfa 8, 0
 114              		.loc 1 17 1 is_stmt 0
 115 0090 B7050100 		li	a1,65536
 116 0094 9385F5FF 		addi	a1,a1,-1
 117 0098 13051000 		li	a0,1
 118 009c 97000000 		call	_Z41__static_initialization_and_destruction_0ii
 118      E7800000 
 119              	.LVL4:
 120 00a4 83308100 		ld	ra,8(sp)
 121              		.cfi_restore 1
 122 00a8 03340100 		ld	s0,0(sp)
 123              		.cfi_restore 8
 124              		.cfi_def_cfa 2, 16
 125 00ac 13010101 		addi	sp,sp,16
 126              		.cfi_def_cfa_offset 0
 127 00b0 67800000 		jr	ra
 128              		.cfi_endproc
 129              	.LFE3:
 131              		.section	.init_array,"aw"
 132              		.align	3
 133 0000 00000000 		.dword	_GLOBAL__sub_I__ZN9Scheduler8queuePCBE
 133      00000000 
 134              		.globl	_ZN9Scheduler8queuePCBE
 135              		.bss
 136              		.align	3
 137              		.set	.LANCHOR0,. + 0
 140              	_ZN9Scheduler8queuePCBE:
 141 0000 00000000 		.zero	8
 141      00000000 
 142              		.text
 143              	.Letext0:
 144              		.file 2 "src/../h/../lib/hw.h"
 145              		.file 3 "src/../h/MemoryAllocator.h"
 146              		.file 4 "src/../h/Scheduler.h"
 147              		.file 5 "src/../h/PCB.h"
 148              		.file 6 "src/../h/Queue.h"
GAS LISTING /tmp/ccKB0bFV.s 			page 4


DEFINED SYMBOLS
                            *ABS*:0000000000000000 Scheduler.cpp
     /tmp/ccKB0bFV.s:8      .text:0000000000000000 _Z41__static_initialization_and_destruction_0ii
     /tmp/ccKB0bFV.s:12     .text:0000000000000000 .L0 
     /tmp/ccKB0bFV.s:14     .text:0000000000000000 .L0 
     /tmp/ccKB0bFV.s:20     .text:000000000000000c .L0 
     /tmp/ccKB0bFV.s:24     .text:0000000000000018 .L0 
     /tmp/ccKB0bFV.s:25     .text:000000000000001c .L0 
     /tmp/ccKB0bFV.s:28     .text:0000000000000024 .L0 
     /tmp/ccKB0bFV.s:29     .text:0000000000000024 .L0 
     /tmp/ccKB0bFV.s:31     .text:0000000000000028 .L0 
     /tmp/ccKB0bFV.s:33     .text:0000000000000028 .L0 
     /tmp/ccKB0bFV.s:38     .text:0000000000000034 .L0 
     /tmp/ccKB0bFV.s:40     .text:000000000000003c .L0 
     /tmp/ccKB0bFV.s:41     .text:0000000000000040 .L0 
     /tmp/ccKB0bFV.s:43     .text:0000000000000044 .L0 
     /tmp/ccKB0bFV.s:44     .text:0000000000000044 .L0 
     /tmp/ccKB0bFV.s:46     .text:0000000000000048 .L0 
     /tmp/ccKB0bFV.s:48     .text:000000000000004c .L0 
     /tmp/ccKB0bFV.s:54     .text:000000000000004c _ZN9Scheduler3putEP3PCB
     /tmp/ccKB0bFV.s:57     .text:000000000000004c .L0 
     /tmp/ccKB0bFV.s:59     .text:000000000000004c .L0 
     /tmp/ccKB0bFV.s:60     .text:0000000000000050 .L0 
     /tmp/ccKB0bFV.s:62     .text:0000000000000054 .L0 
     /tmp/ccKB0bFV.s:64     .text:0000000000000058 .L0 
     /tmp/ccKB0bFV.s:66     .text:0000000000000058 .L0 
     /tmp/ccKB0bFV.s:67     .text:000000000000005c .L0 
     /tmp/ccKB0bFV.s:68     .text:000000000000005c .L0 
     /tmp/ccKB0bFV.s:70     .text:0000000000000060 .L0 
     /tmp/ccKB0bFV.s:72     .text:0000000000000064 .L0 
     /tmp/ccKB0bFV.s:78     .text:0000000000000064 _ZN9Scheduler3getEv
     /tmp/ccKB0bFV.s:81     .text:0000000000000064 .L0 
     /tmp/ccKB0bFV.s:82     .text:0000000000000064 .L0 
     /tmp/ccKB0bFV.s:83     .text:0000000000000068 .L0 
     /tmp/ccKB0bFV.s:85     .text:000000000000006c .L0 
     /tmp/ccKB0bFV.s:87     .text:0000000000000070 .L0 
     /tmp/ccKB0bFV.s:89     .text:0000000000000070 .L0 
     /tmp/ccKB0bFV.s:90     .text:0000000000000070 .L0 
     /tmp/ccKB0bFV.s:92     .text:0000000000000078 .L0 
     /tmp/ccKB0bFV.s:93     .text:0000000000000078 .L0 
     /tmp/ccKB0bFV.s:95     .text:000000000000007c .L0 
     /tmp/ccKB0bFV.s:97     .text:0000000000000080 .L0 
     /tmp/ccKB0bFV.s:102    .text:0000000000000080 _GLOBAL__sub_I__ZN9Scheduler8queuePCBE
     /tmp/ccKB0bFV.s:105    .text:0000000000000080 .L0 
     /tmp/ccKB0bFV.s:106    .text:0000000000000080 .L0 
     /tmp/ccKB0bFV.s:107    .text:0000000000000084 .L0 
     /tmp/ccKB0bFV.s:110    .text:000000000000008c .L0 
     /tmp/ccKB0bFV.s:111    .text:000000000000008c .L0 
     /tmp/ccKB0bFV.s:113    .text:0000000000000090 .L0 
     /tmp/ccKB0bFV.s:115    .text:0000000000000090 .L0 
     /tmp/ccKB0bFV.s:121    .text:00000000000000a8 .L0 
     /tmp/ccKB0bFV.s:123    .text:00000000000000ac .L0 
     /tmp/ccKB0bFV.s:124    .text:00000000000000ac .L0 
     /tmp/ccKB0bFV.s:126    .text:00000000000000b0 .L0 
     /tmp/ccKB0bFV.s:128    .text:00000000000000b4 .L0 
     /tmp/ccKB0bFV.s:140    .bss:0000000000000000 _ZN9Scheduler8queuePCBE
     /tmp/ccKB0bFV.s:137    .bss:0000000000000000 .LANCHOR0
GAS LISTING /tmp/ccKB0bFV.s 			page 5


     /tmp/ccKB0bFV.s:149    .text:00000000000000b4 .L0 
     /tmp/ccKB0bFV.s:38     .text:0000000000000034 .L0 
     /tmp/ccKB0bFV.s:18     .text:000000000000000c .L7
     /tmp/ccKB0bFV.s:16     .text:0000000000000008 .L4
     /tmp/ccKB0bFV.s:869    .debug_abbrev:0000000000000000 .Ldebug_abbrev0
     /tmp/ccKB0bFV.s:1665   .debug_str:000000000000013e .LASF76
     /tmp/ccKB0bFV.s:1785   .debug_str:00000000000005d3 .LASF77
     /tmp/ccKB0bFV.s:1655   .debug_str:00000000000000dd .LASF78
     /tmp/ccKB0bFV.s:5      .text:0000000000000000 .Ltext0
     /tmp/ccKB0bFV.s:143    .text:00000000000000b4 .Letext0
     /tmp/ccKB0bFV.s:1623   .debug_line:0000000000000000 .Ldebug_line0
     /tmp/ccKB0bFV.s:1717   .debug_str:000000000000039f .LASF0
     /tmp/ccKB0bFV.s:1735   .debug_str:0000000000000417 .LASF1
     /tmp/ccKB0bFV.s:1713   .debug_str:000000000000037e .LASF2
     /tmp/ccKB0bFV.s:1695   .debug_str:0000000000000309 .LASF4
     /tmp/ccKB0bFV.s:1763   .debug_str:0000000000000527 .LASF3
     /tmp/ccKB0bFV.s:1637   .debug_str:0000000000000061 .LASF5
     /tmp/ccKB0bFV.s:1661   .debug_str:0000000000000124 .LASF6
     /tmp/ccKB0bFV.s:1739   .debug_str:0000000000000437 .LASF7
     /tmp/ccKB0bFV.s:1715   .debug_str:000000000000038c .LASF8
     /tmp/ccKB0bFV.s:1781   .debug_str:00000000000005ba .LASF9
     /tmp/ccKB0bFV.s:1681   .debug_str:000000000000028a .LASF10
     /tmp/ccKB0bFV.s:1749   .debug_str:000000000000049d .LASF11
     /tmp/ccKB0bFV.s:1777   .debug_str:0000000000000596 .LASF12
     /tmp/ccKB0bFV.s:1643   .debug_str:0000000000000079 .LASF13
     /tmp/ccKB0bFV.s:1627   .debug_str:0000000000000012 .LASF14
     /tmp/ccKB0bFV.s:1651   .debug_str:00000000000000ba .LASF15
     /tmp/ccKB0bFV.s:1757   .debug_str:00000000000004e1 .LASF16
     /tmp/ccKB0bFV.s:1657   .debug_str:0000000000000100 .LASF17
     /tmp/ccKB0bFV.s:1709   .debug_str:000000000000035f .LASF37
     /tmp/ccKB0bFV.s:1737   .debug_str:000000000000042a .LASF20
     /tmp/ccKB0bFV.s:1775   .debug_str:0000000000000591 .LASF18
     /tmp/ccKB0bFV.s:1795   .debug_str:0000000000000623 .LASF19
     /tmp/ccKB0bFV.s:1625   .debug_str:0000000000000000 .LASF21
     /tmp/ccKB0bFV.s:1789   .debug_str:00000000000005ef .LASF22
     /tmp/ccKB0bFV.s:1659   .debug_str:0000000000000116 .LASF23
     /tmp/ccKB0bFV.s:1663   .debug_str:000000000000012b .LASF24
     /tmp/ccKB0bFV.s:1753   .debug_str:00000000000004b5 .LASF25
     /tmp/ccKB0bFV.s:1769   .debug_str:000000000000055a .LASF26
     /tmp/ccKB0bFV.s:1765   .debug_str:0000000000000539 .LASF27
     /tmp/ccKB0bFV.s:1773   .debug_str:0000000000000570 .LASF29
     /tmp/ccKB0bFV.s:1751   .debug_str:00000000000004ac .LASF28
     /tmp/ccKB0bFV.s:1679   .debug_str:0000000000000269 .LASF30
     /tmp/ccKB0bFV.s:1635   .debug_str:0000000000000056 .LASF46
     /tmp/ccKB0bFV.s:1755   .debug_str:00000000000004be .LASF48
     /tmp/ccKB0bFV.s:1685   .debug_str:000000000000029e .LASF33
     /tmp/ccKB0bFV.s:1673   .debug_str:00000000000001f5 .LASF35
     /tmp/ccKB0bFV.s:1793   .debug_str:000000000000060d .LASF31
     /tmp/ccKB0bFV.s:1675   .debug_str:000000000000022a .LASF32
     /tmp/ccKB0bFV.s:1791   .debug_str:00000000000005f8 .LASF34
     /tmp/ccKB0bFV.s:1725   .debug_str:00000000000003d2 .LASF36
     /tmp/ccKB0bFV.s:1703   .debug_str:0000000000000326 .LASF52
     /tmp/ccKB0bFV.s:1743   .debug_str:000000000000044f .LASF54
     /tmp/ccKB0bFV.s:1745   .debug_str:0000000000000479 .LASF38
     /tmp/ccKB0bFV.s:1705   .debug_str:0000000000000337 .LASF79
     /tmp/ccKB0bFV.s:1691   .debug_str:00000000000002e5 .LASF80
     /tmp/ccKB0bFV.s:1783   .debug_str:00000000000005ca .LASF39
GAS LISTING /tmp/ccKB0bFV.s 			page 6


     /tmp/ccKB0bFV.s:1629   .debug_str:0000000000000022 .LASF40
     /tmp/ccKB0bFV.s:1641   .debug_str:0000000000000073 .LASF41
     /tmp/ccKB0bFV.s:1699   .debug_str:0000000000000319 .LASF42
     /tmp/ccKB0bFV.s:1721   .debug_str:00000000000003b5 .LASF43
     /tmp/ccKB0bFV.s:1653   .debug_str:00000000000000c6 .LASF63
     /tmp/ccKB0bFV.s:1733   .debug_str:0000000000000411 .LASF44
     /tmp/ccKB0bFV.s:1693   .debug_str:00000000000002f9 .LASF45
     /tmp/ccKB0bFV.s:1719   .debug_str:00000000000003ac .LASF47
     /tmp/ccKB0bFV.s:1689   .debug_str:00000000000002d2 .LASF49
     /tmp/ccKB0bFV.s:1727   .debug_str:0000000000000401 .LASF50
     /tmp/ccKB0bFV.s:1707   .debug_str:000000000000034f .LASF51
     /tmp/ccKB0bFV.s:1669   .debug_str:00000000000001e7 .LASF81
     /tmp/ccKB0bFV.s:1759   .debug_str:00000000000004f7 .LASF53
     /tmp/ccKB0bFV.s:1649   .debug_str:00000000000000a5 .LASF55
     /tmp/ccKB0bFV.s:1701   .debug_str:000000000000031e .LASF56
     /tmp/ccKB0bFV.s:1787   .debug_str:00000000000005e5 .LASF57
     /tmp/ccKB0bFV.s:1667   .debug_str:00000000000001e0 .LASF82
     /tmp/ccKB0bFV.s:1677   .debug_str:0000000000000258 .LASF83
     /tmp/ccKB0bFV.s:1697   .debug_str:0000000000000310 .LASF58
     /tmp/ccKB0bFV.s:1771   .debug_str:0000000000000564 .LASF59
     /tmp/ccKB0bFV.s:1731   .debug_str:000000000000040c .LASF60
     /tmp/ccKB0bFV.s:1797   .debug_str:0000000000000628 .LASF61
     /tmp/ccKB0bFV.s:1729   .debug_str:0000000000000407 .LASF62
     /tmp/ccKB0bFV.s:1767   .debug_str:0000000000000543 .LASF64
     /tmp/ccKB0bFV.s:1683   .debug_str:0000000000000298 .LASF84
     /tmp/ccKB0bFV.s:1687   .debug_str:00000000000002b9 .LASF85
     /tmp/ccKB0bFV.s:1741   .debug_str:000000000000044a .LASF65
     /tmp/ccKB0bFV.s:1747   .debug_str:0000000000000483 .LASF66
     /tmp/ccKB0bFV.s:1671   .debug_str:00000000000001ef .LASF67
     /tmp/ccKB0bFV.s:1779   .debug_str:00000000000005a5 .LASF68
     /tmp/ccKB0bFV.s:1647   .debug_str:000000000000009e .LASF69
     /tmp/ccKB0bFV.s:1645   .debug_str:0000000000000089 .LASF70
     /tmp/ccKB0bFV.s:1633   .debug_str:0000000000000051 .LASF71
     /tmp/ccKB0bFV.s:1723   .debug_str:00000000000003ba .LASF86
     /tmp/ccKB0bFV.s:1631   .debug_str:000000000000002a .LASF72
     /tmp/ccKB0bFV.s:103    .text:0000000000000080 .LFB3
     /tmp/ccKB0bFV.s:129    .text:00000000000000b4 .LFE3
     /tmp/ccKB0bFV.s:119    .text:00000000000000a4 .LVL4
     /tmp/ccKB0bFV.s:1761   .debug_str:00000000000004fd .LASF73
     /tmp/ccKB0bFV.s:9      .text:0000000000000000 .LFB2
     /tmp/ccKB0bFV.s:49     .text:000000000000004c .LFE2
     /tmp/ccKB0bFV.s:1711   .debug_str:000000000000036f .LASF74
     /tmp/ccKB0bFV.s:1582   .debug_loc:0000000000000000 .LLST0
     /tmp/ccKB0bFV.s:1639   .debug_str:0000000000000068 .LASF75
     /tmp/ccKB0bFV.s:1596   .debug_loc:0000000000000039 .LLST1
     /tmp/ccKB0bFV.s:36     .text:0000000000000034 .LVL2
     /tmp/ccKB0bFV.s:79     .text:0000000000000064 .LFB1
     /tmp/ccKB0bFV.s:98     .text:0000000000000080 .LFE1
     /tmp/ccKB0bFV.s:55     .text:000000000000004c .LFB0
     /tmp/ccKB0bFV.s:73     .text:0000000000000064 .LFE0
     /tmp/ccKB0bFV.s:13     .text:0000000000000000 .LVL0
     /tmp/ccKB0bFV.s:34     .text:000000000000002c .LVL1
     /tmp/ccKB0bFV.s:150    .debug_info:0000000000000000 .Ldebug_info0

UNDEFINED SYMBOLS
_ZN15MemoryAllocator9mem_allocEm
