GAS LISTING /tmp/ccpzNwy6.s 			page 1


   1              		.file	"Scheduler.cpp"
   2              		.option pic
   3              		.option norelax
   4              		.text
   5              	.Ltext0:
   6              		.align	2
   7              		.globl	_ZN9SchedulernwEm
   9              	_ZN9SchedulernwEm:
  10              	.LFB24:
  11              		.file 1 "src/Scheduler.cpp"
   1:src/Scheduler.cpp **** //
   2:src/Scheduler.cpp **** // Created by os on 4/27/22.
   3:src/Scheduler.cpp **** //
   4:src/Scheduler.cpp **** 
   5:src/Scheduler.cpp **** #include "../h/Scheduler.h"
   6:src/Scheduler.cpp **** #include "../h/PCB.h"
   7:src/Scheduler.cpp **** 
   8:src/Scheduler.cpp **** //todo
   9:src/Scheduler.cpp **** Scheduler* Scheduler::scheduler = 0;
  10:src/Scheduler.cpp **** 
  11:src/Scheduler.cpp **** void Scheduler::put(PCB *pcb) {
  12:src/Scheduler.cpp ****     //Scheduler::queuePCB->push(pcb);
  13:src/Scheduler.cpp ****     //Riscv::printInteger(sizeof(Scheduler));
  14:src/Scheduler.cpp ****     //Riscv::printString("needs to put\n");
  15:src/Scheduler.cpp ****     if(scheduler == 0)
  16:src/Scheduler.cpp ****         scheduler = new Scheduler();
  17:src/Scheduler.cpp ****     scheduler->queuePCB.push(pcb);
  18:src/Scheduler.cpp ****     //Riscv::printString("put\n");
  19:src/Scheduler.cpp **** }
  20:src/Scheduler.cpp **** 
  21:src/Scheduler.cpp **** PCB *Scheduler::get() {
  22:src/Scheduler.cpp ****     if(scheduler == 0)
  23:src/Scheduler.cpp ****         scheduler = new Scheduler();
  24:src/Scheduler.cpp ****     PCB* fr = scheduler->queuePCB.front();
  25:src/Scheduler.cpp ****     scheduler->queuePCB.pop();
  26:src/Scheduler.cpp ****     return fr;
  27:src/Scheduler.cpp **** }
  28:src/Scheduler.cpp **** 
  29:src/Scheduler.cpp **** void *Scheduler::operator new(size_t size) {
  12              		.loc 1 29 44
  13              		.cfi_startproc
  14              	.LVL0:
  15 0000 130101FF 		addi	sp,sp,-16
  16              		.cfi_def_cfa_offset 16
  17 0004 23341100 		sd	ra,8(sp)
  18 0008 23308100 		sd	s0,0(sp)
  19              		.cfi_offset 1, -8
  20              		.cfi_offset 8, -16
  21 000c 13040101 		addi	s0,sp,16
  22              		.cfi_def_cfa 8, 0
  30:src/Scheduler.cpp ****     return kmalloc(size);
  23              		.loc 1 30 5
  24              		.loc 1 30 19 is_stmt 0
  25 0010 97000000 		call	_Z7kmallocm@plt
  25      E7800000 
  26              	.LVL1:
  31:src/Scheduler.cpp **** }
GAS LISTING /tmp/ccpzNwy6.s 			page 2


  27              		.loc 1 31 1
  28 0018 83308100 		ld	ra,8(sp)
  29              		.cfi_restore 1
  30 001c 03340100 		ld	s0,0(sp)
  31              		.cfi_restore 8
  32              		.cfi_def_cfa 2, 16
  33 0020 13010101 		addi	sp,sp,16
  34              		.cfi_def_cfa_offset 0
  35 0024 67800000 		jr	ra
  36              		.cfi_endproc
  37              	.LFE24:
  39              		.align	2
  40              		.globl	_ZN9SchedulerdlEPv
  42              	_ZN9SchedulerdlEPv:
  43              	.LFB25:
  32:src/Scheduler.cpp **** 
  33:src/Scheduler.cpp **** void Scheduler::operator delete(void *p) {
  44              		.loc 1 33 42 is_stmt 1
  45              		.cfi_startproc
  46              	.LVL2:
  47 0028 130101FF 		addi	sp,sp,-16
  48              		.cfi_def_cfa_offset 16
  49 002c 23341100 		sd	ra,8(sp)
  50 0030 23308100 		sd	s0,0(sp)
  51              		.cfi_offset 1, -8
  52              		.cfi_offset 8, -16
  53 0034 13040101 		addi	s0,sp,16
  54              		.cfi_def_cfa 8, 0
  34:src/Scheduler.cpp ****     //todo
  35:src/Scheduler.cpp ****     kfree(p);
  55              		.loc 1 35 5
  56              		.loc 1 35 10 is_stmt 0
  57 0038 97000000 		call	_Z5kfreePv@plt
  57      E7800000 
  58              	.LVL3:
  36:src/Scheduler.cpp **** }
  59              		.loc 1 36 1
  60 0040 83308100 		ld	ra,8(sp)
  61              		.cfi_restore 1
  62 0044 03340100 		ld	s0,0(sp)
  63              		.cfi_restore 8
  64              		.cfi_def_cfa 2, 16
  65 0048 13010101 		addi	sp,sp,16
  66              		.cfi_def_cfa_offset 0
  67 004c 67800000 		jr	ra
  68              		.cfi_endproc
  69              	.LFE25:
  71              		.align	2
  72              		.globl	_ZN9Scheduler3putEP3PCB
  74              	_ZN9Scheduler3putEP3PCB:
  75              	.LFB19:
  11:src/Scheduler.cpp ****     //Scheduler::queuePCB->push(pcb);
  76              		.loc 1 11 31 is_stmt 1
  77              		.cfi_startproc
  78              		.cfi_personality 0x9b,DW.ref.__gxx_personality_v0
  79              		.cfi_lsda 0x1b,.LLSDA19
  80              	.LVL4:
GAS LISTING /tmp/ccpzNwy6.s 			page 3


  81 0050 130101FE 		addi	sp,sp,-32
  82              		.cfi_def_cfa_offset 32
  83 0054 233C1100 		sd	ra,24(sp)
  84 0058 23388100 		sd	s0,16(sp)
  85 005c 23349100 		sd	s1,8(sp)
  86 0060 23302101 		sd	s2,0(sp)
  87              		.cfi_offset 1, -8
  88              		.cfi_offset 8, -16
  89              		.cfi_offset 9, -24
  90              		.cfi_offset 18, -32
  91 0064 13040102 		addi	s0,sp,32
  92              		.cfi_def_cfa 8, 0
  93 0068 93040500 		mv	s1,a0
  15:src/Scheduler.cpp ****         scheduler = new Scheduler();
  94              		.loc 1 15 5
  15:src/Scheduler.cpp ****         scheduler = new Scheduler();
  95              		.loc 1 15 18 is_stmt 0
  96 006c 97070000 		ld	a5,.LANCHOR0
  96      83B70700 
  15:src/Scheduler.cpp ****         scheduler = new Scheduler();
  97              		.loc 1 15 5
  98 0074 63880702 		beqz	a5,.L11
  99              	.LVL5:
 100              	.L6:
  17:src/Scheduler.cpp ****     //Riscv::printString("put\n");
 101              		.loc 1 17 5 is_stmt 1
  17:src/Scheduler.cpp ****     //Riscv::printString("put\n");
 102              		.loc 1 17 29 is_stmt 0
 103 0078 93850400 		mv	a1,s1
 104 007c 17050000 		ld	a0,.LANCHOR0
 104      03350500 
 105              	.LEHB0:
 106 0084 97000000 		call	_ZN5Queue4pushEP3PCB@plt
 106      E7800000 
 107              	.LVL6:
  19:src/Scheduler.cpp **** 
 108              		.loc 1 19 1
 109 008c 83308101 		ld	ra,24(sp)
 110              		.cfi_remember_state
 111              		.cfi_restore 1
 112 0090 03340101 		ld	s0,16(sp)
 113              		.cfi_restore 8
 114              		.cfi_def_cfa 2, 32
 115 0094 83348100 		ld	s1,8(sp)
 116              		.cfi_restore 9
 117              	.LVL7:
 118 0098 03390100 		ld	s2,0(sp)
 119              		.cfi_restore 18
 120 009c 13010102 		addi	sp,sp,32
 121              		.cfi_def_cfa_offset 0
 122 00a0 67800000 		jr	ra
 123              	.LVL8:
 124              	.L11:
 125              		.cfi_restore_state
  16:src/Scheduler.cpp ****     scheduler->queuePCB.push(pcb);
 126              		.loc 1 16 9 is_stmt 1
  16:src/Scheduler.cpp ****     scheduler->queuePCB.push(pcb);
GAS LISTING /tmp/ccpzNwy6.s 			page 4


 127              		.loc 1 16 35 is_stmt 0
 128 00a4 13050001 		li	a0,16
 129 00a8 97000000 		call	_ZN9SchedulernwEm
 129      E7800000 
 130              	.LVL9:
 131              	.LEHE0:
 132 00b0 13090500 		mv	s2,a0
 133 00b4 23300500 		sd	zero,0(a0)
 134 00b8 23340500 		sd	zero,8(a0)
 135              	.LVL10:
 136              	.LEHB1:
 137              	.LBB11:
 138              	.LBB12:
 139              	.LBB13:
 140              		.file 2 "src/../h/Scheduler.h"
   1:src/../h/Scheduler.h **** //
   2:src/../h/Scheduler.h **** // Created by os on 4/27/22.
   3:src/../h/Scheduler.h **** //
   4:src/../h/Scheduler.h **** 
   5:src/../h/Scheduler.h **** #ifndef PROJECT_BASE_V1_0_SCHEDULER_H
   6:src/../h/Scheduler.h **** #define PROJECT_BASE_V1_0_SCHEDULER_H
   7:src/../h/Scheduler.h **** 
   8:src/../h/Scheduler.h **** #include "../lib/hw.h"
   9:src/../h/Scheduler.h **** #include "MemoryAllocator.h"
  10:src/../h/Scheduler.h **** #include "Queue.h"
  11:src/../h/Scheduler.h **** 
  12:src/../h/Scheduler.h **** class PCB;
  13:src/../h/Scheduler.h **** 
  14:src/../h/Scheduler.h **** class Scheduler
 141              		.loc 2 14 7
 142 00bc 97000000 		call	_ZN5QueueC1Ev@plt
 142      E7800000 
 143              	.LVL11:
 144              	.LEHE1:
 145              	.LBE13:
 146              	.LBE12:
 147              	.LBE11:
  16:src/Scheduler.cpp ****     scheduler->queuePCB.push(pcb);
 148              		.loc 1 16 19
 149 00c4 97070000 		sd	s2,.LANCHOR0,a5
 149      23B02701 
 150 00cc 6FF0DFFA 		j	.L6
 151              	.LVL12:
 152              	.L8:
 153 00d0 93040500 		mv	s1,a0
 154              	.LVL13:
  16:src/Scheduler.cpp ****     scheduler->queuePCB.push(pcb);
 155              		.loc 1 16 35
 156 00d4 13050900 		mv	a0,s2
 157 00d8 97000000 		call	_ZN9SchedulerdlEPv
 157      E7800000 
 158              	.LVL14:
 159 00e0 13850400 		mv	a0,s1
 160              	.LEHB2:
 161 00e4 97000000 		call	_Unwind_Resume@plt
 161      E7800000 
 162              	.LVL15:
GAS LISTING /tmp/ccpzNwy6.s 			page 5


 163              	.LEHE2:
 164              		.cfi_endproc
 165              	.LFE19:
 166              		.globl	__gxx_personality_v0
 167              		.section	.gcc_except_table,"a",@progbits
 168              	.LLSDA19:
 169 0000 FF       		.byte	0xff
 170 0001 FF       		.byte	0xff
 171 0002 03       		.byte	0x3
 172 0003 27       		.byte	0x27
 173 0004 00000000 		.4byte	.LEHB0-.LFB19
 174 0008 00000000 		.4byte	.LEHE0-.LEHB0
 175 000c 00000000 		.4byte	0
 176 0010 00       		.byte	0
 177 0011 00000000 		.4byte	.LEHB1-.LFB19
 178 0015 00000000 		.4byte	.LEHE1-.LEHB1
 179 0019 00000000 		.4byte	.L8-.LFB19
 180 001d 00       		.byte	0
 181 001e 00000000 		.4byte	.LEHB2-.LFB19
 182 0022 00000000 		.4byte	.LEHE2-.LEHB2
 183 0026 00000000 		.4byte	0
 184 002a 00       		.byte	0
 185              		.text
 187              		.align	2
 188              		.globl	_ZN9Scheduler3getEv
 190              	_ZN9Scheduler3getEv:
 191              	.LFB23:
  21:src/Scheduler.cpp ****     if(scheduler == 0)
 192              		.loc 1 21 23 is_stmt 1
 193              		.cfi_startproc
 194              		.cfi_personality 0x9b,DW.ref.__gxx_personality_v0
 195              		.cfi_lsda 0x1b,.LLSDA23
 196 00ec 130101FE 		addi	sp,sp,-32
 197              		.cfi_def_cfa_offset 32
 198 00f0 233C1100 		sd	ra,24(sp)
 199 00f4 23388100 		sd	s0,16(sp)
 200 00f8 23349100 		sd	s1,8(sp)
 201 00fc 23302101 		sd	s2,0(sp)
 202              		.cfi_offset 1, -8
 203              		.cfi_offset 8, -16
 204              		.cfi_offset 9, -24
 205              		.cfi_offset 18, -32
 206 0100 13040102 		addi	s0,sp,32
 207              		.cfi_def_cfa 8, 0
  22:src/Scheduler.cpp ****         scheduler = new Scheduler();
 208              		.loc 1 22 5
  22:src/Scheduler.cpp ****         scheduler = new Scheduler();
 209              		.loc 1 22 18 is_stmt 0
 210 0104 97070000 		ld	a5,.LANCHOR0
 210      83B70700 
  22:src/Scheduler.cpp ****         scheduler = new Scheduler();
 211              		.loc 1 22 5
 212 010c 63820704 		beqz	a5,.L18
 213              	.L13:
  24:src/Scheduler.cpp ****     scheduler->queuePCB.pop();
 214              		.loc 1 24 5 is_stmt 1
  24:src/Scheduler.cpp ****     scheduler->queuePCB.pop();
GAS LISTING /tmp/ccpzNwy6.s 			page 6


 215              		.loc 1 24 26 is_stmt 0
 216 0110 17090000 		lla	s2,.LANCHOR0
 216      13090900 
  24:src/Scheduler.cpp ****     scheduler->queuePCB.pop();
 217              		.loc 1 24 40
 218 0118 03350900 		ld	a0,0(s2)
 219              	.LEHB3:
 220 011c 97000000 		call	_ZN5Queue5frontEv@plt
 220      E7800000 
 221              	.LVL16:
 222 0124 93040500 		mv	s1,a0
 223              	.LVL17:
  25:src/Scheduler.cpp ****     return fr;
 224              		.loc 1 25 5 is_stmt 1
  25:src/Scheduler.cpp ****     return fr;
 225              		.loc 1 25 28 is_stmt 0
 226 0128 03350900 		ld	a0,0(s2)
 227 012c 97000000 		call	_ZN5Queue3popEv@plt
 227      E7800000 
 228              	.LVL18:
  26:src/Scheduler.cpp **** }
 229              		.loc 1 26 5 is_stmt 1
  27:src/Scheduler.cpp **** 
 230              		.loc 1 27 1 is_stmt 0
 231 0134 13850400 		mv	a0,s1
 232 0138 83308101 		ld	ra,24(sp)
 233              		.cfi_remember_state
 234              		.cfi_restore 1
 235 013c 03340101 		ld	s0,16(sp)
 236              		.cfi_restore 8
 237              		.cfi_def_cfa 2, 32
 238 0140 83348100 		ld	s1,8(sp)
 239              		.cfi_restore 9
 240              	.LVL19:
 241 0144 03390100 		ld	s2,0(sp)
 242              		.cfi_restore 18
 243 0148 13010102 		addi	sp,sp,32
 244              		.cfi_def_cfa_offset 0
 245 014c 67800000 		jr	ra
 246              	.LVL20:
 247              	.L18:
 248              		.cfi_restore_state
  23:src/Scheduler.cpp ****     PCB* fr = scheduler->queuePCB.front();
 249              		.loc 1 23 9 is_stmt 1
  23:src/Scheduler.cpp ****     PCB* fr = scheduler->queuePCB.front();
 250              		.loc 1 23 35 is_stmt 0
 251 0150 13050001 		li	a0,16
 252 0154 97000000 		call	_ZN9SchedulernwEm
 252      E7800000 
 253              	.LVL21:
 254              	.LEHE3:
 255 015c 93040500 		mv	s1,a0
 256 0160 23300500 		sd	zero,0(a0)
 257 0164 23340500 		sd	zero,8(a0)
 258              	.LVL22:
 259              	.LEHB4:
 260              	.LBB14:
GAS LISTING /tmp/ccpzNwy6.s 			page 7


 261              	.LBB15:
 262              	.LBB16:
 263              		.loc 2 14 7
 264 0168 97000000 		call	_ZN5QueueC1Ev@plt
 264      E7800000 
 265              	.LVL23:
 266              	.LEHE4:
 267              	.LBE16:
 268              	.LBE15:
 269              	.LBE14:
  23:src/Scheduler.cpp ****     PCB* fr = scheduler->queuePCB.front();
 270              		.loc 1 23 19
 271 0170 97070000 		sd	s1,.LANCHOR0,a5
 271      23B09700 
 272 0178 6FF09FF9 		j	.L13
 273              	.LVL24:
 274              	.L15:
 275 017c 13090500 		mv	s2,a0
  23:src/Scheduler.cpp ****     PCB* fr = scheduler->queuePCB.front();
 276              		.loc 1 23 35
 277 0180 13850400 		mv	a0,s1
 278 0184 97000000 		call	_ZN9SchedulerdlEPv
 278      E7800000 
 279              	.LVL25:
 280 018c 13050900 		mv	a0,s2
 281              	.LEHB5:
 282 0190 97000000 		call	_Unwind_Resume@plt
 282      E7800000 
 283              	.LVL26:
 284              	.LEHE5:
 285              		.cfi_endproc
 286              	.LFE23:
 287              		.section	.gcc_except_table
 288              	.LLSDA23:
 289 002b FF       		.byte	0xff
 290 002c FF       		.byte	0xff
 291 002d 03       		.byte	0x3
 292 002e 27       		.byte	0x27
 293 002f 00000000 		.4byte	.LEHB3-.LFB23
 294 0033 00000000 		.4byte	.LEHE3-.LEHB3
 295 0037 00000000 		.4byte	0
 296 003b 00       		.byte	0
 297 003c 00000000 		.4byte	.LEHB4-.LFB23
 298 0040 00000000 		.4byte	.LEHE4-.LEHB4
 299 0044 00000000 		.4byte	.L15-.LFB23
 300 0048 00       		.byte	0
 301 0049 00000000 		.4byte	.LEHB5-.LFB23
 302 004d 00000000 		.4byte	.LEHE5-.LEHB5
 303 0051 00000000 		.4byte	0
 304 0055 00       		.byte	0
 305              		.text
 307              		.align	2
 308              		.globl	_ZN9Scheduler7getSizeEv
 310              	_ZN9Scheduler7getSizeEv:
 311              	.LFB26:
  37:src/Scheduler.cpp **** 
  38:src/Scheduler.cpp **** int Scheduler::getSize() {
GAS LISTING /tmp/ccpzNwy6.s 			page 8


 312              		.loc 1 38 26 is_stmt 1
 313              		.cfi_startproc
 314              		.cfi_personality 0x9b,DW.ref.__gxx_personality_v0
 315              		.cfi_lsda 0x1b,.LLSDA26
 316 0198 130101FE 		addi	sp,sp,-32
 317              		.cfi_def_cfa_offset 32
 318 019c 233C1100 		sd	ra,24(sp)
 319 01a0 23388100 		sd	s0,16(sp)
 320 01a4 23349100 		sd	s1,8(sp)
 321 01a8 23302101 		sd	s2,0(sp)
 322              		.cfi_offset 1, -8
 323              		.cfi_offset 8, -16
 324              		.cfi_offset 9, -24
 325              		.cfi_offset 18, -32
 326 01ac 13040102 		addi	s0,sp,32
 327              		.cfi_def_cfa 8, 0
  39:src/Scheduler.cpp ****     if(scheduler == 0)
 328              		.loc 1 39 5
 329              		.loc 1 39 18 is_stmt 0
 330 01b0 97070000 		ld	a5,.LANCHOR0
 330      83B70700 
 331              		.loc 1 39 5
 332 01b8 63860702 		beqz	a5,.L25
 333              	.L20:
  40:src/Scheduler.cpp ****         scheduler = new Scheduler();
  41:src/Scheduler.cpp ****     return scheduler->queuePCB.size();
 334              		.loc 1 41 5 is_stmt 1
 335              		.loc 1 41 36 is_stmt 0
 336 01bc 17050000 		ld	a0,.LANCHOR0
 336      03350500 
 337              	.LEHB6:
 338 01c4 97000000 		call	_ZN5Queue4sizeEv@plt
 338      E7800000 
 339              	.LVL27:
  42:src/Scheduler.cpp **** }
 340              		.loc 1 42 1
 341 01cc 83308101 		ld	ra,24(sp)
 342              		.cfi_remember_state
 343              		.cfi_restore 1
 344 01d0 03340101 		ld	s0,16(sp)
 345              		.cfi_restore 8
 346              		.cfi_def_cfa 2, 32
 347 01d4 83348100 		ld	s1,8(sp)
 348              		.cfi_restore 9
 349 01d8 03390100 		ld	s2,0(sp)
 350              		.cfi_restore 18
 351 01dc 13010102 		addi	sp,sp,32
 352              		.cfi_def_cfa_offset 0
 353 01e0 67800000 		jr	ra
 354              	.L25:
 355              		.cfi_restore_state
  40:src/Scheduler.cpp ****         scheduler = new Scheduler();
 356              		.loc 1 40 9 is_stmt 1
  40:src/Scheduler.cpp ****         scheduler = new Scheduler();
 357              		.loc 1 40 35 is_stmt 0
 358 01e4 13050001 		li	a0,16
 359 01e8 97000000 		call	_ZN9SchedulernwEm
GAS LISTING /tmp/ccpzNwy6.s 			page 9


 359      E7800000 
 360              	.LVL28:
 361              	.LEHE6:
 362 01f0 93040500 		mv	s1,a0
 363 01f4 23300500 		sd	zero,0(a0)
 364 01f8 23340500 		sd	zero,8(a0)
 365              	.LVL29:
 366              	.LEHB7:
 367              	.LBB17:
 368              	.LBB18:
 369              	.LBB19:
 370              		.loc 2 14 7
 371 01fc 97000000 		call	_ZN5QueueC1Ev@plt
 371      E7800000 
 372              	.LVL30:
 373              	.LEHE7:
 374              	.LBE19:
 375              	.LBE18:
 376              	.LBE17:
  40:src/Scheduler.cpp ****         scheduler = new Scheduler();
 377              		.loc 1 40 19
 378 0204 97070000 		sd	s1,.LANCHOR0,a5
 378      23B09700 
 379 020c 6FF01FFB 		j	.L20
 380              	.LVL31:
 381              	.L22:
 382 0210 13090500 		mv	s2,a0
  40:src/Scheduler.cpp ****         scheduler = new Scheduler();
 383              		.loc 1 40 35
 384 0214 13850400 		mv	a0,s1
 385 0218 97000000 		call	_ZN9SchedulerdlEPv
 385      E7800000 
 386              	.LVL32:
 387 0220 13050900 		mv	a0,s2
 388              	.LEHB8:
 389 0224 97000000 		call	_Unwind_Resume@plt
 389      E7800000 
 390              	.LVL33:
 391              	.LEHE8:
 392              		.cfi_endproc
 393              	.LFE26:
 394              		.section	.gcc_except_table
 395              	.LLSDA26:
 396 0056 FF       		.byte	0xff
 397 0057 FF       		.byte	0xff
 398 0058 03       		.byte	0x3
 399 0059 27       		.byte	0x27
 400 005a 00000000 		.4byte	.LEHB6-.LFB26
 401 005e 00000000 		.4byte	.LEHE6-.LEHB6
 402 0062 00000000 		.4byte	0
 403 0066 00       		.byte	0
 404 0067 00000000 		.4byte	.LEHB7-.LFB26
 405 006b 00000000 		.4byte	.LEHE7-.LEHB7
 406 006f 00000000 		.4byte	.L22-.LFB26
 407 0073 00       		.byte	0
 408 0074 00000000 		.4byte	.LEHB8-.LFB26
 409 0078 00000000 		.4byte	.LEHE8-.LEHB8
GAS LISTING /tmp/ccpzNwy6.s 			page 10


 410 007c 00000000 		.4byte	0
 411 0080 00       		.byte	0
 412              		.text
 414              		.globl	_ZN9Scheduler9schedulerE
 415              		.bss
 416              		.align	3
 417              		.set	.LANCHOR0,. + 0
 420              	_ZN9Scheduler9schedulerE:
 421 0000 00000000 		.zero	8
 421      00000000 
 422              		.text
 423              	.Letext0:
 424              		.file 3 "src/../h/../lib/hw.h"
 425              		.file 4 "src/../h/Queue.h"
 426              		.file 5 "src/../h/PCB.h"
 427              		.file 6 "src/../h/MemoryAllocator.h"
 2658              		.align	3
 2661              	DW.ref.__gxx_personality_v0:
 2662 0000 00000000 		.dword	__gxx_personality_v0
 2662      00000000 
 2663              		.ident	"GCC: (Ubuntu 9.3.0-17ubuntu1~20.04) 9.3.0"
 2664              		.section	.note.GNU-stack,"",@progbits
GAS LISTING /tmp/ccpzNwy6.s 			page 11


DEFINED SYMBOLS
                            *ABS*:0000000000000000 Scheduler.cpp
     /tmp/ccpzNwy6.s:9      .text:0000000000000000 _ZN9SchedulernwEm
     /tmp/ccpzNwy6.s:13     .text:0000000000000000 .L0 
     /tmp/ccpzNwy6.s:15     .text:0000000000000000 .L0 
     /tmp/ccpzNwy6.s:16     .text:0000000000000004 .L0 
     /tmp/ccpzNwy6.s:19     .text:000000000000000c .L0 
     /tmp/ccpzNwy6.s:20     .text:000000000000000c .L0 
     /tmp/ccpzNwy6.s:22     .text:0000000000000010 .L0 
     /tmp/ccpzNwy6.s:24     .text:0000000000000010 .L0 
     /tmp/ccpzNwy6.s:25     .text:0000000000000010 .L0 
     /tmp/ccpzNwy6.s:28     .text:0000000000000018 .L0 
     /tmp/ccpzNwy6.s:29     .text:000000000000001c .L0 
     /tmp/ccpzNwy6.s:31     .text:0000000000000020 .L0 
     /tmp/ccpzNwy6.s:32     .text:0000000000000020 .L0 
     /tmp/ccpzNwy6.s:34     .text:0000000000000024 .L0 
     /tmp/ccpzNwy6.s:36     .text:0000000000000028 .L0 
     /tmp/ccpzNwy6.s:42     .text:0000000000000028 _ZN9SchedulerdlEPv
     /tmp/ccpzNwy6.s:45     .text:0000000000000028 .L0 
     /tmp/ccpzNwy6.s:47     .text:0000000000000028 .L0 
     /tmp/ccpzNwy6.s:48     .text:000000000000002c .L0 
     /tmp/ccpzNwy6.s:51     .text:0000000000000034 .L0 
     /tmp/ccpzNwy6.s:52     .text:0000000000000034 .L0 
     /tmp/ccpzNwy6.s:54     .text:0000000000000038 .L0 
     /tmp/ccpzNwy6.s:56     .text:0000000000000038 .L0 
     /tmp/ccpzNwy6.s:57     .text:0000000000000038 .L0 
     /tmp/ccpzNwy6.s:60     .text:0000000000000040 .L0 
     /tmp/ccpzNwy6.s:61     .text:0000000000000044 .L0 
     /tmp/ccpzNwy6.s:63     .text:0000000000000048 .L0 
     /tmp/ccpzNwy6.s:64     .text:0000000000000048 .L0 
     /tmp/ccpzNwy6.s:66     .text:000000000000004c .L0 
     /tmp/ccpzNwy6.s:68     .text:0000000000000050 .L0 
     /tmp/ccpzNwy6.s:74     .text:0000000000000050 _ZN9Scheduler3putEP3PCB
     /tmp/ccpzNwy6.s:77     .text:0000000000000050 .L0 
     /tmp/ccpzNwy6.s:2661   .data.rel.local.DW.ref.__gxx_personality_v0:0000000000000000 DW.ref.__gxx_personality_v0
     /tmp/ccpzNwy6.s:81     .text:0000000000000050 .L0 
     /tmp/ccpzNwy6.s:82     .text:0000000000000054 .L0 
     /tmp/ccpzNwy6.s:87     .text:0000000000000064 .L0 
     /tmp/ccpzNwy6.s:88     .text:0000000000000064 .L0 
     /tmp/ccpzNwy6.s:89     .text:0000000000000064 .L0 
     /tmp/ccpzNwy6.s:90     .text:0000000000000064 .L0 
     /tmp/ccpzNwy6.s:92     .text:0000000000000068 .L0 
     /tmp/ccpzNwy6.s:95     .text:000000000000006c .L0 
     /tmp/ccpzNwy6.s:96     .text:000000000000006c .L0 
     /tmp/ccpzNwy6.s:98     .text:0000000000000074 .L0 
     /tmp/ccpzNwy6.s:102    .text:0000000000000078 .L0 
     /tmp/ccpzNwy6.s:103    .text:0000000000000078 .L0 
     /tmp/ccpzNwy6.s:109    .text:000000000000008c .L0 
     /tmp/ccpzNwy6.s:110    .text:0000000000000090 .L0 
     /tmp/ccpzNwy6.s:111    .text:0000000000000090 .L0 
     /tmp/ccpzNwy6.s:113    .text:0000000000000094 .L0 
     /tmp/ccpzNwy6.s:114    .text:0000000000000094 .L0 
     /tmp/ccpzNwy6.s:116    .text:0000000000000098 .L0 
     /tmp/ccpzNwy6.s:119    .text:000000000000009c .L0 
     /tmp/ccpzNwy6.s:121    .text:00000000000000a0 .L0 
     /tmp/ccpzNwy6.s:125    .text:00000000000000a4 .L0 
     /tmp/ccpzNwy6.s:127    .text:00000000000000a4 .L0 
GAS LISTING /tmp/ccpzNwy6.s 			page 12


     /tmp/ccpzNwy6.s:128    .text:00000000000000a4 .L0 
     /tmp/ccpzNwy6.s:142    .text:00000000000000bc .L0 
     /tmp/ccpzNwy6.s:149    .text:00000000000000c4 .L0 
     /tmp/ccpzNwy6.s:156    .text:00000000000000d4 .L0 
     /tmp/ccpzNwy6.s:164    .text:00000000000000ec .L0 
     /tmp/ccpzNwy6.s:190    .text:00000000000000ec _ZN9Scheduler3getEv
     /tmp/ccpzNwy6.s:193    .text:00000000000000ec .L0 
     /tmp/ccpzNwy6.s:196    .text:00000000000000ec .L0 
     /tmp/ccpzNwy6.s:197    .text:00000000000000f0 .L0 
     /tmp/ccpzNwy6.s:202    .text:0000000000000100 .L0 
     /tmp/ccpzNwy6.s:203    .text:0000000000000100 .L0 
     /tmp/ccpzNwy6.s:204    .text:0000000000000100 .L0 
     /tmp/ccpzNwy6.s:205    .text:0000000000000100 .L0 
     /tmp/ccpzNwy6.s:207    .text:0000000000000104 .L0 
     /tmp/ccpzNwy6.s:209    .text:0000000000000104 .L0 
     /tmp/ccpzNwy6.s:210    .text:0000000000000104 .L0 
     /tmp/ccpzNwy6.s:212    .text:000000000000010c .L0 
     /tmp/ccpzNwy6.s:215    .text:0000000000000110 .L0 
     /tmp/ccpzNwy6.s:216    .text:0000000000000110 .L0 
     /tmp/ccpzNwy6.s:218    .text:0000000000000118 .L0 
     /tmp/ccpzNwy6.s:225    .text:0000000000000128 .L0 
     /tmp/ccpzNwy6.s:226    .text:0000000000000128 .L0 
     /tmp/ccpzNwy6.s:230    .text:0000000000000134 .L0 
     /tmp/ccpzNwy6.s:231    .text:0000000000000134 .L0 
     /tmp/ccpzNwy6.s:233    .text:000000000000013c .L0 
     /tmp/ccpzNwy6.s:234    .text:000000000000013c .L0 
     /tmp/ccpzNwy6.s:236    .text:0000000000000140 .L0 
     /tmp/ccpzNwy6.s:237    .text:0000000000000140 .L0 
     /tmp/ccpzNwy6.s:239    .text:0000000000000144 .L0 
     /tmp/ccpzNwy6.s:242    .text:0000000000000148 .L0 
     /tmp/ccpzNwy6.s:244    .text:000000000000014c .L0 
     /tmp/ccpzNwy6.s:248    .text:0000000000000150 .L0 
     /tmp/ccpzNwy6.s:250    .text:0000000000000150 .L0 
     /tmp/ccpzNwy6.s:251    .text:0000000000000150 .L0 
     /tmp/ccpzNwy6.s:264    .text:0000000000000168 .L0 
     /tmp/ccpzNwy6.s:271    .text:0000000000000170 .L0 
     /tmp/ccpzNwy6.s:277    .text:0000000000000180 .L0 
     /tmp/ccpzNwy6.s:285    .text:0000000000000198 .L0 
     /tmp/ccpzNwy6.s:310    .text:0000000000000198 _ZN9Scheduler7getSizeEv
     /tmp/ccpzNwy6.s:313    .text:0000000000000198 .L0 
     /tmp/ccpzNwy6.s:316    .text:0000000000000198 .L0 
     /tmp/ccpzNwy6.s:317    .text:000000000000019c .L0 
     /tmp/ccpzNwy6.s:322    .text:00000000000001ac .L0 
     /tmp/ccpzNwy6.s:323    .text:00000000000001ac .L0 
     /tmp/ccpzNwy6.s:324    .text:00000000000001ac .L0 
     /tmp/ccpzNwy6.s:325    .text:00000000000001ac .L0 
     /tmp/ccpzNwy6.s:327    .text:00000000000001b0 .L0 
     /tmp/ccpzNwy6.s:329    .text:00000000000001b0 .L0 
     /tmp/ccpzNwy6.s:330    .text:00000000000001b0 .L0 
     /tmp/ccpzNwy6.s:332    .text:00000000000001b8 .L0 
     /tmp/ccpzNwy6.s:335    .text:00000000000001bc .L0 
     /tmp/ccpzNwy6.s:336    .text:00000000000001bc .L0 
     /tmp/ccpzNwy6.s:341    .text:00000000000001cc .L0 
     /tmp/ccpzNwy6.s:342    .text:00000000000001d0 .L0 
     /tmp/ccpzNwy6.s:343    .text:00000000000001d0 .L0 
     /tmp/ccpzNwy6.s:345    .text:00000000000001d4 .L0 
     /tmp/ccpzNwy6.s:346    .text:00000000000001d4 .L0 
GAS LISTING /tmp/ccpzNwy6.s 			page 13


     /tmp/ccpzNwy6.s:348    .text:00000000000001d8 .L0 
     /tmp/ccpzNwy6.s:350    .text:00000000000001dc .L0 
     /tmp/ccpzNwy6.s:352    .text:00000000000001e0 .L0 
     /tmp/ccpzNwy6.s:355    .text:00000000000001e4 .L0 
     /tmp/ccpzNwy6.s:357    .text:00000000000001e4 .L0 
     /tmp/ccpzNwy6.s:358    .text:00000000000001e4 .L0 
     /tmp/ccpzNwy6.s:371    .text:00000000000001fc .L0 
     /tmp/ccpzNwy6.s:378    .text:0000000000000204 .L0 
     /tmp/ccpzNwy6.s:384    .text:0000000000000214 .L0 
     /tmp/ccpzNwy6.s:392    .text:000000000000022c .L0 
     /tmp/ccpzNwy6.s:420    .bss:0000000000000000 _ZN9Scheduler9schedulerE
     /tmp/ccpzNwy6.s:417    .bss:0000000000000000 .LANCHOR0
     /tmp/ccpzNwy6.s:428    .text:000000000000022c .L0 
     /tmp/ccpzNwy6.s:96     .text:000000000000006c .L0 
     /tmp/ccpzNwy6.s:104    .text:000000000000007c .L0 
     /tmp/ccpzNwy6.s:149    .text:00000000000000c4 .L0 
     /tmp/ccpzNwy6.s:210    .text:0000000000000104 .L0 
     /tmp/ccpzNwy6.s:216    .text:0000000000000110 .L0 
     /tmp/ccpzNwy6.s:271    .text:0000000000000170 .L0 
     /tmp/ccpzNwy6.s:330    .text:00000000000001b0 .L0 
     /tmp/ccpzNwy6.s:336    .text:00000000000001bc .L0 
     /tmp/ccpzNwy6.s:378    .text:0000000000000204 .L0 
     /tmp/ccpzNwy6.s:124    .text:00000000000000a4 .L11
     /tmp/ccpzNwy6.s:100    .text:0000000000000078 .L6
     /tmp/ccpzNwy6.s:247    .text:0000000000000150 .L18
     /tmp/ccpzNwy6.s:213    .text:0000000000000110 .L13
     /tmp/ccpzNwy6.s:354    .text:00000000000001e4 .L25
     /tmp/ccpzNwy6.s:333    .text:00000000000001bc .L20
     /tmp/ccpzNwy6.s:105    .text:0000000000000084 .LEHB0
     /tmp/ccpzNwy6.s:75     .text:0000000000000050 .LFB19
     /tmp/ccpzNwy6.s:131    .text:00000000000000b0 .LEHE0
     /tmp/ccpzNwy6.s:136    .text:00000000000000bc .LEHB1
     /tmp/ccpzNwy6.s:144    .text:00000000000000c4 .LEHE1
     /tmp/ccpzNwy6.s:152    .text:00000000000000d0 .L8
     /tmp/ccpzNwy6.s:160    .text:00000000000000e4 .LEHB2
     /tmp/ccpzNwy6.s:163    .text:00000000000000ec .LEHE2
     /tmp/ccpzNwy6.s:219    .text:000000000000011c .LEHB3
     /tmp/ccpzNwy6.s:191    .text:00000000000000ec .LFB23
     /tmp/ccpzNwy6.s:254    .text:000000000000015c .LEHE3
     /tmp/ccpzNwy6.s:259    .text:0000000000000168 .LEHB4
     /tmp/ccpzNwy6.s:266    .text:0000000000000170 .LEHE4
     /tmp/ccpzNwy6.s:274    .text:000000000000017c .L15
     /tmp/ccpzNwy6.s:281    .text:0000000000000190 .LEHB5
     /tmp/ccpzNwy6.s:284    .text:0000000000000198 .LEHE5
     /tmp/ccpzNwy6.s:337    .text:00000000000001c4 .LEHB6
     /tmp/ccpzNwy6.s:311    .text:0000000000000198 .LFB26
     /tmp/ccpzNwy6.s:361    .text:00000000000001f0 .LEHE6
     /tmp/ccpzNwy6.s:366    .text:00000000000001fc .LEHB7
     /tmp/ccpzNwy6.s:373    .text:0000000000000204 .LEHE7
     /tmp/ccpzNwy6.s:381    .text:0000000000000210 .L22
     /tmp/ccpzNwy6.s:388    .text:0000000000000224 .LEHB8
     /tmp/ccpzNwy6.s:391    .text:000000000000022c .LEHE8
     /tmp/ccpzNwy6.s:1412   .debug_abbrev:0000000000000000 .Ldebug_abbrev0
     /tmp/ccpzNwy6.s:2557   .debug_str:000000000000027c .LASF76
     /tmp/ccpzNwy6.s:2533   .debug_str:00000000000001e1 .LASF77
     /tmp/ccpzNwy6.s:2621   .debug_str:00000000000004be .LASF78
     /tmp/ccpzNwy6.s:5      .text:0000000000000000 .Ltext0
GAS LISTING /tmp/ccpzNwy6.s 			page 14


     /tmp/ccpzNwy6.s:423    .text:000000000000022c .Letext0
     /tmp/ccpzNwy6.s:2459   .debug_line:0000000000000000 .Ldebug_line0
     /tmp/ccpzNwy6.s:2529   .debug_str:00000000000001cf .LASF0
     /tmp/ccpzNwy6.s:2545   .debug_str:000000000000022f .LASF1
     /tmp/ccpzNwy6.s:2583   .debug_str:00000000000003da .LASF2
     /tmp/ccpzNwy6.s:2587   .debug_str:00000000000003f1 .LASF4
     /tmp/ccpzNwy6.s:2537   .debug_str:0000000000000200 .LASF3
     /tmp/ccpzNwy6.s:2465   .debug_str:0000000000000015 .LASF5
     /tmp/ccpzNwy6.s:2569   .debug_str:000000000000036c .LASF6
     /tmp/ccpzNwy6.s:2565   .debug_str:0000000000000349 .LASF7
     /tmp/ccpzNwy6.s:2539   .debug_str:0000000000000212 .LASF8
     /tmp/ccpzNwy6.s:2521   .debug_str:0000000000000193 .LASF9
     /tmp/ccpzNwy6.s:2525   .debug_str:00000000000001bb .LASF10
     /tmp/ccpzNwy6.s:2489   .debug_str:00000000000000d2 .LASF11
     /tmp/ccpzNwy6.s:2513   .debug_str:000000000000016f .LASF12
     /tmp/ccpzNwy6.s:2495   .debug_str:00000000000000f0 .LASF13
     /tmp/ccpzNwy6.s:2487   .debug_str:00000000000000c2 .LASF14
     /tmp/ccpzNwy6.s:2605   .debug_str:0000000000000477 .LASF15
     /tmp/ccpzNwy6.s:2509   .debug_str:000000000000014d .LASF16
     /tmp/ccpzNwy6.s:2601   .debug_str:0000000000000445 .LASF17
     /tmp/ccpzNwy6.s:2623   .debug_str:00000000000004e1 .LASF28
     /tmp/ccpzNwy6.s:2631   .debug_str:000000000000050d .LASF20
     /tmp/ccpzNwy6.s:2541   .debug_str:0000000000000225 .LASF18
     /tmp/ccpzNwy6.s:2491   .debug_str:00000000000000e1 .LASF19
     /tmp/ccpzNwy6.s:2609   .debug_str:000000000000048b .LASF21
     /tmp/ccpzNwy6.s:2551   .debug_str:0000000000000255 .LASF22
     /tmp/ccpzNwy6.s:2639   .debug_str:000000000000052d .LASF37
     /tmp/ccpzNwy6.s:2629   .debug_str:0000000000000507 .LASF24
     /tmp/ccpzNwy6.s:2497   .debug_str:0000000000000100 .LASF26
     /tmp/ccpzNwy6.s:2531   .debug_str:00000000000001dc .LASF23
     /tmp/ccpzNwy6.s:2595   .debug_str:000000000000041a .LASF29
     /tmp/ccpzNwy6.s:2543   .debug_str:000000000000022a .LASF25
     /tmp/ccpzNwy6.s:2575   .debug_str:0000000000000386 .LASF27
     /tmp/ccpzNwy6.s:2507   .debug_str:000000000000013f .LASF30
     /tmp/ccpzNwy6.s:2573   .debug_str:000000000000037f .LASF41
     /tmp/ccpzNwy6.s:2477   .debug_str:0000000000000082 .LASF43
     /tmp/ccpzNwy6.s:2613   .debug_str:0000000000000496 .LASF79
     /tmp/ccpzNwy6.s:2485   .debug_str:00000000000000bc .LASF31
     /tmp/ccpzNwy6.s:2597   .debug_str:000000000000042f .LASF32
     /tmp/ccpzNwy6.s:2493   .debug_str:00000000000000e6 .LASF33
     /tmp/ccpzNwy6.s:2481   .debug_str:00000000000000a2 .LASF34
     /tmp/ccpzNwy6.s:2607   .debug_str:0000000000000483 .LASF35
     /tmp/ccpzNwy6.s:2527   .debug_str:00000000000001c9 .LASF36
     /tmp/ccpzNwy6.s:2627   .debug_str:00000000000004ef .LASF38
     /tmp/ccpzNwy6.s:2561   .debug_str:0000000000000331 .LASF80
     /tmp/ccpzNwy6.s:2643   .debug_str:000000000000054c .LASF39
     /tmp/ccpzNwy6.s:2617   .debug_str:00000000000004a4 .LASF40
     /tmp/ccpzNwy6.s:2505   .debug_str:0000000000000136 .LASF81
     /tmp/ccpzNwy6.s:2473   .debug_str:0000000000000047 .LASF82
     /tmp/ccpzNwy6.s:2547   .debug_str:0000000000000242 .LASF42
     /tmp/ccpzNwy6.s:2567   .debug_str:000000000000035c .LASF44
     /tmp/ccpzNwy6.s:2615   .debug_str:000000000000049c .LASF48
     /tmp/ccpzNwy6.s:2599   .debug_str:0000000000000437 .LASF45
     /tmp/ccpzNwy6.s:2571   .debug_str:0000000000000373 .LASF46
     /tmp/ccpzNwy6.s:2503   .debug_str:0000000000000126 .LASF47
     /tmp/ccpzNwy6.s:2591   .debug_str:0000000000000400 .LASF49
     /tmp/ccpzNwy6.s:2549   .debug_str:0000000000000248 .LASF50
GAS LISTING /tmp/ccpzNwy6.s 			page 15


     /tmp/ccpzNwy6.s:2553   .debug_str:000000000000025a .LASF51
     /tmp/ccpzNwy6.s:2649   .debug_str:000000000000056b .LASF52
     /tmp/ccpzNwy6.s:2511   .debug_str:0000000000000163 .LASF53
     /tmp/ccpzNwy6.s:2463   .debug_str:0000000000000005 .LASF54
     /tmp/ccpzNwy6.s:2535   .debug_str:00000000000001f3 .LASF55
     /tmp/ccpzNwy6.s:2593   .debug_str:0000000000000411 .LASF56
     /tmp/ccpzNwy6.s:2559   .debug_str:000000000000031e .LASF57
     /tmp/ccpzNwy6.s:2585   .debug_str:00000000000003e8 .LASF58
     /tmp/ccpzNwy6.s:2603   .debug_str:000000000000045b .LASF59
     /tmp/ccpzNwy6.s:2619   .debug_str:00000000000004b4 .LASF60
     /tmp/ccpzNwy6.s:2501   .debug_str:0000000000000118 .LASF83
     /tmp/ccpzNwy6.s:2475   .debug_str:000000000000005a .LASF84
     /tmp/ccpzNwy6.s:2637   .debug_str:0000000000000526 .LASF85
     /tmp/ccpzNwy6.s:2483   .debug_str:00000000000000ab .LASF86
     /tmp/ccpzNwy6.s:2461   .debug_str:0000000000000000 .LASF61
     /tmp/ccpzNwy6.s:2647   .debug_str:0000000000000566 .LASF62
     /tmp/ccpzNwy6.s:2499   .debug_str:0000000000000112 .LASF63
     /tmp/ccpzNwy6.s:2625   .debug_str:00000000000004e7 .LASF64
     /tmp/ccpzNwy6.s:2555   .debug_str:0000000000000272 .LASF65
     /tmp/ccpzNwy6.s:2519   .debug_str:0000000000000189 .LASF66
     /tmp/ccpzNwy6.s:2469   .debug_str:0000000000000026 .LASF87
     /tmp/ccpzNwy6.s:2645   .debug_str:0000000000000552 .LASF88
     /tmp/ccpzNwy6.s:2479   .debug_str:0000000000000090 .LASF67
     /tmp/ccpzNwy6.s:2563   .debug_str:0000000000000336 .LASF68
     /tmp/ccpzNwy6.s:2589   .debug_str:00000000000003f8 .LASF69
     /tmp/ccpzNwy6.s:2579   .debug_str:00000000000003b0 .LASF89
     /tmp/ccpzNwy6.s:2471   .debug_str:000000000000003e .LASF70
     /tmp/ccpzNwy6.s:2467   .debug_str:000000000000001c .LASF90
     /tmp/ccpzNwy6.s:2653   .debug_str:0000000000000583 .LASF91
     /tmp/ccpzNwy6.s:2611   .debug_str:0000000000000491 .LASF71
     /tmp/ccpzNwy6.s:2577   .debug_str:0000000000000397 .LASF92
     /tmp/ccpzNwy6.s:393    .text:000000000000022c .LFE26
     /tmp/ccpzNwy6.s:367    .text:00000000000001fc .LBB17
     /tmp/ccpzNwy6.s:376    .text:0000000000000204 .LBE17
     /tmp/ccpzNwy6.s:2341   .debug_loc:0000000000000000 .LLST6
     /tmp/ccpzNwy6.s:372    .text:0000000000000204 .LVL30
     /tmp/ccpzNwy6.s:339    .text:00000000000001cc .LVL27
     /tmp/ccpzNwy6.s:360    .text:00000000000001f0 .LVL28
     /tmp/ccpzNwy6.s:386    .text:0000000000000220 .LVL32
     /tmp/ccpzNwy6.s:390    .text:000000000000022c .LVL33
     /tmp/ccpzNwy6.s:43     .text:0000000000000028 .LFB25
     /tmp/ccpzNwy6.s:69     .text:0000000000000050 .LFE25
     /tmp/ccpzNwy6.s:2352   .debug_loc:0000000000000036 .LLST1
     /tmp/ccpzNwy6.s:58     .text:0000000000000040 .LVL3
     /tmp/ccpzNwy6.s:10     .text:0000000000000000 .LFB24
     /tmp/ccpzNwy6.s:37     .text:0000000000000028 .LFE24
     /tmp/ccpzNwy6.s:2366   .debug_loc:000000000000006f .LLST0
     /tmp/ccpzNwy6.s:26     .text:0000000000000018 .LVL1
     /tmp/ccpzNwy6.s:286    .text:0000000000000198 .LFE23
     /tmp/ccpzNwy6.s:2380   .debug_loc:00000000000000a8 .LLST4
     /tmp/ccpzNwy6.s:260    .text:0000000000000168 .LBB14
     /tmp/ccpzNwy6.s:269    .text:0000000000000170 .LBE14
     /tmp/ccpzNwy6.s:2391   .debug_loc:00000000000000de .LLST5
     /tmp/ccpzNwy6.s:265    .text:0000000000000170 .LVL23
     /tmp/ccpzNwy6.s:221    .text:0000000000000124 .LVL16
     /tmp/ccpzNwy6.s:228    .text:0000000000000134 .LVL18
     /tmp/ccpzNwy6.s:253    .text:000000000000015c .LVL21
GAS LISTING /tmp/ccpzNwy6.s 			page 16


     /tmp/ccpzNwy6.s:279    .text:000000000000018c .LVL25
     /tmp/ccpzNwy6.s:283    .text:0000000000000198 .LVL26
     /tmp/ccpzNwy6.s:165    .text:00000000000000ec .LFE19
     /tmp/ccpzNwy6.s:2402   .debug_loc:0000000000000114 .LLST2
     /tmp/ccpzNwy6.s:137    .text:00000000000000bc .LBB11
     /tmp/ccpzNwy6.s:147    .text:00000000000000c4 .LBE11
     /tmp/ccpzNwy6.s:2431   .debug_loc:0000000000000189 .LLST3
     /tmp/ccpzNwy6.s:143    .text:00000000000000c4 .LVL11
     /tmp/ccpzNwy6.s:107    .text:000000000000008c .LVL6
     /tmp/ccpzNwy6.s:130    .text:00000000000000b0 .LVL9
     /tmp/ccpzNwy6.s:158    .text:00000000000000e0 .LVL14
     /tmp/ccpzNwy6.s:162    .text:00000000000000ec .LVL15
     /tmp/ccpzNwy6.s:2515   .debug_str:000000000000017e .LASF93
     /tmp/ccpzNwy6.s:2581   .debug_str:00000000000003c8 .LASF94
     /tmp/ccpzNwy6.s:2641   .debug_str:000000000000053d .LASF95
     /tmp/ccpzNwy6.s:2523   .debug_str:00000000000001a3 .LASF96
     /tmp/ccpzNwy6.s:2651   .debug_str:0000000000000578 .LASF72
     /tmp/ccpzNwy6.s:2517   .debug_str:0000000000000183 .LASF74
     /tmp/ccpzNwy6.s:2633   .debug_str:0000000000000512 .LASF73
     /tmp/ccpzNwy6.s:2635   .debug_str:000000000000051e .LASF75
     /tmp/ccpzNwy6.s:365    .text:00000000000001fc .LVL29
     /tmp/ccpzNwy6.s:380    .text:0000000000000210 .LVL31
     /tmp/ccpzNwy6.s:46     .text:0000000000000028 .LVL2
     /tmp/ccpzNwy6.s:14     .text:0000000000000000 .LVL0
     /tmp/ccpzNwy6.s:223    .text:0000000000000128 .LVL17
     /tmp/ccpzNwy6.s:240    .text:0000000000000144 .LVL19
     /tmp/ccpzNwy6.s:246    .text:0000000000000150 .LVL20
     /tmp/ccpzNwy6.s:258    .text:0000000000000168 .LVL22
     /tmp/ccpzNwy6.s:273    .text:000000000000017c .LVL24
     /tmp/ccpzNwy6.s:80     .text:0000000000000050 .LVL4
     /tmp/ccpzNwy6.s:99     .text:0000000000000078 .LVL5
     /tmp/ccpzNwy6.s:117    .text:0000000000000098 .LVL7
     /tmp/ccpzNwy6.s:123    .text:00000000000000a4 .LVL8
     /tmp/ccpzNwy6.s:154    .text:00000000000000d4 .LVL13
     /tmp/ccpzNwy6.s:135    .text:00000000000000bc .LVL10
     /tmp/ccpzNwy6.s:151    .text:00000000000000d0 .LVL12
     /tmp/ccpzNwy6.s:429    .debug_info:0000000000000000 .Ldebug_info0
     /tmp/ccpzNwy6.s:168    .gcc_except_table:0000000000000000 .LLSDA19
     /tmp/ccpzNwy6.s:288    .gcc_except_table:000000000000002b .LLSDA23
     /tmp/ccpzNwy6.s:395    .gcc_except_table:0000000000000056 .LLSDA26

UNDEFINED SYMBOLS
_Z7kmallocm
_Z5kfreePv
_ZN5Queue4pushEP3PCB
_ZN5QueueC1Ev
_Unwind_Resume
__gxx_personality_v0
_ZN5Queue5frontEv
_ZN5Queue3popEv
_ZN5Queue4sizeEv
