GAS LISTING /tmp/ccGiKIAI.s 			page 1


   1              		.file	"Scheduler.cpp"
   2              		.option pic
   3              		.option norelax
   4              		.text
   5              	.Ltext0:
   6              		.align	2
   7              		.globl	_ZN9SchedulernwEm
   9              	_ZN9SchedulernwEm:
  10              	.LFB21:
  11              		.file 1 "src/Scheduler.cpp"
   1:src/Scheduler.cpp **** //
   2:src/Scheduler.cpp **** // Created by os on 4/27/22.
   3:src/Scheduler.cpp **** //
   4:src/Scheduler.cpp **** 
   5:src/Scheduler.cpp **** #include "../h/Scheduler.hpp"
   6:src/Scheduler.cpp **** #include "../h/PCB.hpp"
   7:src/Scheduler.cpp **** 
   8:src/Scheduler.cpp **** PCB* Scheduler::schedulerPCBHead = 0;
   9:src/Scheduler.cpp **** PCB* Scheduler::schedulerPCBTail = 0;
  10:src/Scheduler.cpp **** 
  11:src/Scheduler.cpp **** 
  12:src/Scheduler.cpp **** void *Scheduler::operator new(size_t size)
  13:src/Scheduler.cpp **** {
  12              		.loc 1 13 1
  13              		.cfi_startproc
  14              	.LVL0:
  15 0000 130101FF 		addi	sp,sp,-16
  16              		.cfi_def_cfa_offset 16
  17 0004 23341100 		sd	ra,8(sp)
  18 0008 23308100 		sd	s0,0(sp)
  19              		.cfi_offset 1, -8
  20              		.cfi_offset 8, -16
  21 000c 13040101 		addi	s0,sp,16
  22              		.cfi_def_cfa 8, 0
  14:src/Scheduler.cpp ****     return kmalloc(size);
  23              		.loc 1 14 5
  24              		.loc 1 14 19 is_stmt 0
  25 0010 97000000 		call	_Z7kmallocm@plt
  25      E7800000 
  26              	.LVL1:
  15:src/Scheduler.cpp **** }
  27              		.loc 1 15 1
  28 0018 83308100 		ld	ra,8(sp)
  29              		.cfi_restore 1
  30 001c 03340100 		ld	s0,0(sp)
  31              		.cfi_restore 8
  32              		.cfi_def_cfa 2, 16
  33 0020 13010101 		addi	sp,sp,16
  34              		.cfi_def_cfa_offset 0
  35 0024 67800000 		jr	ra
  36              		.cfi_endproc
  37              	.LFE21:
  39              		.align	2
  40              		.globl	_ZN9SchedulerdlEPv
  42              	_ZN9SchedulerdlEPv:
  43              	.LFB22:
  16:src/Scheduler.cpp **** 
GAS LISTING /tmp/ccGiKIAI.s 			page 2


  17:src/Scheduler.cpp **** void Scheduler::operator delete(void *p)
  18:src/Scheduler.cpp **** {
  44              		.loc 1 18 1 is_stmt 1
  45              		.cfi_startproc
  46              	.LVL2:
  47 0028 130101FF 		addi	sp,sp,-16
  48              		.cfi_def_cfa_offset 16
  49 002c 23341100 		sd	ra,8(sp)
  50 0030 23308100 		sd	s0,0(sp)
  51              		.cfi_offset 1, -8
  52              		.cfi_offset 8, -16
  53 0034 13040101 		addi	s0,sp,16
  54              		.cfi_def_cfa 8, 0
  19:src/Scheduler.cpp ****     kfree(p);
  55              		.loc 1 19 5
  56              		.loc 1 19 10 is_stmt 0
  57 0038 97000000 		call	_Z5kfreePv@plt
  57      E7800000 
  58              	.LVL3:
  20:src/Scheduler.cpp **** }
  59              		.loc 1 20 1
  60 0040 83308100 		ld	ra,8(sp)
  61              		.cfi_restore 1
  62 0044 03340100 		ld	s0,0(sp)
  63              		.cfi_restore 8
  64              		.cfi_def_cfa 2, 16
  65 0048 13010101 		addi	sp,sp,16
  66              		.cfi_def_cfa_offset 0
  67 004c 67800000 		jr	ra
  68              		.cfi_endproc
  69              	.LFE22:
  71              		.align	2
  72              		.globl	_ZN9Scheduler7getSizeEv
  74              	_ZN9Scheduler7getSizeEv:
  75              	.LFB23:
  21:src/Scheduler.cpp **** 
  22:src/Scheduler.cpp **** int Scheduler::getSize()
  23:src/Scheduler.cpp **** {
  76              		.loc 1 23 1 is_stmt 1
  77              		.cfi_startproc
  78 0050 130101FF 		addi	sp,sp,-16
  79              		.cfi_def_cfa_offset 16
  80 0054 23348100 		sd	s0,8(sp)
  81              		.cfi_offset 8, -8
  82 0058 13040101 		addi	s0,sp,16
  83              		.cfi_def_cfa 8, 0
  24:src/Scheduler.cpp ****     uint64 sz = 0;
  84              		.loc 1 24 5
  85              	.LVL4:
  25:src/Scheduler.cpp ****     PCB* curr = schedulerPCBHead;
  86              		.loc 1 25 5
  87              		.loc 1 25 10 is_stmt 0
  88 005c 97070000 		ld	a5,.LANCHOR0
  88      83B70700 
  89              	.LVL5:
  24:src/Scheduler.cpp ****     uint64 sz = 0;
  90              		.loc 1 24 12
GAS LISTING /tmp/ccGiKIAI.s 			page 3


  91 0064 13050000 		li	a0,0
  92              	.LVL6:
  93              	.L7:
  26:src/Scheduler.cpp ****     while(curr != 0)
  94              		.loc 1 26 5 is_stmt 1
  95              		.loc 1 26 16
  96 0068 63880700 		beqz	a5,.L6
  27:src/Scheduler.cpp ****     {
  28:src/Scheduler.cpp ****         sz++;
  97              		.loc 1 28 9
  98              		.loc 1 28 11 is_stmt 0
  99 006c 13051500 		addi	a0,a0,1
 100              	.LVL7:
  29:src/Scheduler.cpp ****         curr = curr->nextPCB;
 101              		.loc 1 29 9 is_stmt 1
 102              		.loc 1 29 14 is_stmt 0
 103 0070 83B78700 		ld	a5,8(a5)
 104              	.LVL8:
  26:src/Scheduler.cpp ****     while(curr != 0)
 105              		.loc 1 26 5
 106 0074 6FF05FFF 		j	.L7
 107              	.L6:
  30:src/Scheduler.cpp ****     }
  31:src/Scheduler.cpp ****     return sz;
 108              		.loc 1 31 5 is_stmt 1
  32:src/Scheduler.cpp **** }
 109              		.loc 1 32 1 is_stmt 0
 110 0078 1B050500 		sext.w	a0,a0
 111              	.LVL9:
 112 007c 03348100 		ld	s0,8(sp)
 113              		.cfi_restore 8
 114              		.cfi_def_cfa 2, 16
 115 0080 13010101 		addi	sp,sp,16
 116              		.cfi_def_cfa_offset 0
 117 0084 67800000 		jr	ra
 118              		.cfi_endproc
 119              	.LFE23:
 121              		.align	2
 122              		.globl	_ZN9Scheduler3putEP3PCB
 124              	_ZN9Scheduler3putEP3PCB:
 125              	.LFB24:
  33:src/Scheduler.cpp **** 
  34:src/Scheduler.cpp **** void Scheduler::put(PCB *pcb)
  35:src/Scheduler.cpp **** {
 126              		.loc 1 35 1 is_stmt 1
 127              		.cfi_startproc
 128              	.LVL10:
 129 0088 130101FF 		addi	sp,sp,-16
 130              		.cfi_def_cfa_offset 16
 131 008c 23348100 		sd	s0,8(sp)
 132              		.cfi_offset 8, -8
 133 0090 13040101 		addi	s0,sp,16
 134              		.cfi_def_cfa 8, 0
  36:src/Scheduler.cpp ****     pcb->setState(PCB::READY);
 135              		.loc 1 36 5
 136              	.LVL11:
 137              	.LBB4:
GAS LISTING /tmp/ccGiKIAI.s 			page 4


 138              	.LBB5:
 139              		.file 2 "src/../h/PCB.hpp"
   1:src/../h/PCB.hpp **** //
   2:src/../h/PCB.hpp **** // Created by os on 4/27/22.
   3:src/../h/PCB.hpp **** //
   4:src/../h/PCB.hpp **** 
   5:src/../h/PCB.hpp **** #ifndef PROJECT_BASE_V1_0_PCB_HPP
   6:src/../h/PCB.hpp **** #define PROJECT_BASE_V1_0_PCB_HPP
   7:src/../h/PCB.hpp **** 
   8:src/../h/PCB.hpp **** #include "../lib/hw.h"
   9:src/../h/PCB.hpp **** #include "Scheduler.hpp"
  10:src/../h/PCB.hpp **** #include "Riscv.hpp"
  11:src/../h/PCB.hpp **** 
  12:src/../h/PCB.hpp **** class PCB
  13:src/../h/PCB.hpp **** {
  14:src/../h/PCB.hpp **** public:
  15:src/../h/PCB.hpp ****     using Body = void (*)(void*);
  16:src/../h/PCB.hpp **** 
  17:src/../h/PCB.hpp ****     PCB(Body body,  void* args, void* stack_space, uint64 timeSlice);
  18:src/../h/PCB.hpp ****     ~PCB();
  19:src/../h/PCB.hpp **** 
  20:src/../h/PCB.hpp ****     void start();
  21:src/../h/PCB.hpp ****     static void dispatch();
  22:src/../h/PCB.hpp ****     static void sleep(time_t);
  23:src/../h/PCB.hpp **** 
  24:src/../h/PCB.hpp ****     static PCB* running;
  25:src/../h/PCB.hpp **** 
  26:src/../h/PCB.hpp ****     static uint64 timeSliceCounter;
  27:src/../h/PCB.hpp ****     uint64 getTimeSlice() { return timeSlice;}
  28:src/../h/PCB.hpp **** 
  29:src/../h/PCB.hpp ****     void* operator new(size_t size);
  30:src/../h/PCB.hpp ****     void operator delete(void *p);
  31:src/../h/PCB.hpp **** 
  32:src/../h/PCB.hpp ****     enum State{READY, RUNNING, SUSPENDED, FINISHED, EXITING, SLEEPING};
  33:src/../h/PCB.hpp ****     State getState() {return state;}
  34:src/../h/PCB.hpp ****     void setState(State s) {state = s;}
 140              		.loc 2 34 29
 141              		.loc 2 34 35 is_stmt 0
 142 0094 232C0502 		sw	zero,56(a0)
 143              	.LVL12:
 144              	.LBE5:
 145              	.LBE4:
  37:src/Scheduler.cpp ****     pcb->nextPCB = 0;
 146              		.loc 1 37 5 is_stmt 1
 147              		.loc 1 37 18 is_stmt 0
 148 0098 23340500 		sd	zero,8(a0)
  38:src/Scheduler.cpp ****     if(schedulerPCBHead == 0)
 149              		.loc 1 38 5 is_stmt 1
 150              		.loc 1 38 25 is_stmt 0
 151 009c 97070000 		ld	a5,.LANCHOR0
 151      83B70700 
 152              		.loc 1 38 5
 153 00a4 63820702 		beqz	a5,.L13
  39:src/Scheduler.cpp ****         schedulerPCBHead = schedulerPCBTail = pcb;
  40:src/Scheduler.cpp ****     else
  41:src/Scheduler.cpp ****     {
  42:src/Scheduler.cpp ****         schedulerPCBTail->nextPCB = pcb;
GAS LISTING /tmp/ccGiKIAI.s 			page 5


 154              		.loc 1 42 9 is_stmt 1
 155              		.loc 1 42 27 is_stmt 0
 156 00a8 97070000 		lla	a5,.LANCHOR0
 156      93870700 
 157 00b0 03B78700 		ld	a4,8(a5)
 158              		.loc 1 42 35
 159 00b4 2334A700 		sd	a0,8(a4)
  43:src/Scheduler.cpp ****         schedulerPCBTail = pcb;
 160              		.loc 1 43 9 is_stmt 1
 161              		.loc 1 43 26 is_stmt 0
 162 00b8 23B4A700 		sd	a0,8(a5)
 163              	.L9:
  44:src/Scheduler.cpp ****     }
  45:src/Scheduler.cpp **** }
 164              		.loc 1 45 1
 165 00bc 03348100 		ld	s0,8(sp)
 166              		.cfi_remember_state
 167              		.cfi_restore 8
 168              		.cfi_def_cfa 2, 16
 169 00c0 13010101 		addi	sp,sp,16
 170              		.cfi_def_cfa_offset 0
 171 00c4 67800000 		jr	ra
 172              	.L13:
 173              		.cfi_restore_state
  39:src/Scheduler.cpp ****     else
 174              		.loc 1 39 9 is_stmt 1
  39:src/Scheduler.cpp ****     else
 175              		.loc 1 39 45 is_stmt 0
 176 00c8 97070000 		lla	a5,.LANCHOR0
 176      93870700 
 177 00d0 23B4A700 		sd	a0,8(a5)
  39:src/Scheduler.cpp ****     else
 178              		.loc 1 39 26
 179 00d4 23B0A700 		sd	a0,0(a5)
 180 00d8 6FF05FFE 		j	.L9
 181              		.cfi_endproc
 182              	.LFE24:
 184              		.align	2
 185              		.globl	_ZN9Scheduler3getEv
 187              	_ZN9Scheduler3getEv:
 188              	.LFB25:
  46:src/Scheduler.cpp **** 
  47:src/Scheduler.cpp **** PCB *Scheduler::get()
  48:src/Scheduler.cpp **** {
 189              		.loc 1 48 1 is_stmt 1
 190              		.cfi_startproc
 191 00dc 130101FF 		addi	sp,sp,-16
 192              		.cfi_def_cfa_offset 16
 193 00e0 23348100 		sd	s0,8(sp)
 194              		.cfi_offset 8, -8
 195 00e4 13040101 		addi	s0,sp,16
 196              		.cfi_def_cfa 8, 0
  49:src/Scheduler.cpp ****     if(schedulerPCBHead == 0)
 197              		.loc 1 49 5
 198              		.loc 1 49 25 is_stmt 0
 199 00e8 17050000 		ld	a0,.LANCHOR0
 199      03350500 
GAS LISTING /tmp/ccGiKIAI.s 			page 6


 200              		.loc 1 49 5
 201 00f0 630C0500 		beqz	a0,.L14
  50:src/Scheduler.cpp ****         return 0;
  51:src/Scheduler.cpp ****     PCB* retval = schedulerPCBHead;
 202              		.loc 1 51 5 is_stmt 1
 203              	.LVL13:
  52:src/Scheduler.cpp ****     if(schedulerPCBHead->nextPCB == 0)
 204              		.loc 1 52 5
 205              		.loc 1 52 26 is_stmt 0
 206 00f4 83378500 		ld	a5,8(a0)
 207              		.loc 1 52 5
 208 00f8 638E0700 		beqz	a5,.L19
  53:src/Scheduler.cpp ****         schedulerPCBHead = schedulerPCBTail = 0;
  54:src/Scheduler.cpp ****     else
  55:src/Scheduler.cpp ****         schedulerPCBHead = schedulerPCBHead->nextPCB;
 209              		.loc 1 55 9 is_stmt 1
 210              		.loc 1 55 26 is_stmt 0
 211 00fc 17070000 		sd	a5,.LANCHOR0,a4
 211      2330F700 
 212              	.L17:
  56:src/Scheduler.cpp ****     retval->nextPCB = 0;
 213              		.loc 1 56 5 is_stmt 1
 214              		.loc 1 56 21 is_stmt 0
 215 0104 23340500 		sd	zero,8(a0)
  57:src/Scheduler.cpp ****     return retval;
 216              		.loc 1 57 5 is_stmt 1
 217              	.LVL14:
 218              	.L14:
  58:src/Scheduler.cpp **** }
 219              		.loc 1 58 1 is_stmt 0
 220 0108 03348100 		ld	s0,8(sp)
 221              		.cfi_remember_state
 222              		.cfi_restore 8
 223              		.cfi_def_cfa 2, 16
 224 010c 13010101 		addi	sp,sp,16
 225              		.cfi_def_cfa_offset 0
 226 0110 67800000 		jr	ra
 227              	.LVL15:
 228              	.L19:
 229              		.cfi_restore_state
  53:src/Scheduler.cpp ****     else
 230              		.loc 1 53 9 is_stmt 1
  53:src/Scheduler.cpp ****     else
 231              		.loc 1 53 45 is_stmt 0
 232 0114 97070000 		lla	a5,.LANCHOR0
 232      93870700 
 233 011c 23B40700 		sd	zero,8(a5)
  53:src/Scheduler.cpp ****     else
 234              		.loc 1 53 26
 235 0120 23B00700 		sd	zero,0(a5)
 236 0124 6FF01FFE 		j	.L17
 237              		.cfi_endproc
 238              	.LFE25:
 240              		.section	.rodata.str1.8,"aMS",@progbits,1
 241              		.align	3
 242              	.LC0:
 243 0000 53636865 		.string	"Scheduler print\n"
GAS LISTING /tmp/ccGiKIAI.s 			page 7


 243      64756C65 
 243      72207072 
 243      696E740A 
 243      00
 244              		.text
 245              		.align	2
 246              		.globl	_ZN9Scheduler5printEv
 248              	_ZN9Scheduler5printEv:
 249              	.LFB26:
  59:src/Scheduler.cpp **** 
  60:src/Scheduler.cpp **** void Scheduler::print() {
 250              		.loc 1 60 25 is_stmt 1
 251              		.cfi_startproc
 252 0128 130101FE 		addi	sp,sp,-32
 253              		.cfi_def_cfa_offset 32
 254 012c 233C1100 		sd	ra,24(sp)
 255 0130 23388100 		sd	s0,16(sp)
 256 0134 23349100 		sd	s1,8(sp)
 257              		.cfi_offset 1, -8
 258              		.cfi_offset 8, -16
 259              		.cfi_offset 9, -24
 260 0138 13040102 		addi	s0,sp,32
 261              		.cfi_def_cfa 8, 0
  61:src/Scheduler.cpp ****     Riscv::printString("Scheduler print\n");
 262              		.loc 1 61 5
 263              		.loc 1 61 23 is_stmt 0
 264 013c 17050000 		lla	a0,.LC0
 264      13050500 
 265 0144 97000000 		call	_ZN5Riscv11printStringEPKc@plt
 265      E7800000 
 266              	.LVL16:
  62:src/Scheduler.cpp ****     PCB* curr = schedulerPCBHead;
 267              		.loc 1 62 5 is_stmt 1
 268              		.loc 1 62 10 is_stmt 0
 269 014c 97040000 		ld	s1,.LANCHOR0
 269      83B40400 
 270              	.LVL17:
 271              	.L22:
  63:src/Scheduler.cpp ****     while(curr != 0)
 272              		.loc 1 63 5 is_stmt 1
 273              		.loc 1 63 16
 274 0154 638C0400 		beqz	s1,.L20
  64:src/Scheduler.cpp ****     {
  65:src/Scheduler.cpp ****         Riscv::printInteger((uint64)curr);
 275              		.loc 1 65 9
 276              		.loc 1 65 28 is_stmt 0
 277 0158 13850400 		mv	a0,s1
 278 015c 97000000 		call	_ZN5Riscv12printIntegerEm@plt
 278      E7800000 
 279              	.LVL18:
  66:src/Scheduler.cpp ****         curr = curr->nextPCB;
 280              		.loc 1 66 9 is_stmt 1
 281              		.loc 1 66 14 is_stmt 0
 282 0164 83B48400 		ld	s1,8(s1)
 283              	.LVL19:
  63:src/Scheduler.cpp ****     while(curr != 0)
 284              		.loc 1 63 5
GAS LISTING /tmp/ccGiKIAI.s 			page 8


 285 0168 6FF0DFFE 		j	.L22
 286              	.L20:
  67:src/Scheduler.cpp ****     }
  68:src/Scheduler.cpp **** }
 287              		.loc 1 68 1
 288 016c 83308101 		ld	ra,24(sp)
 289              		.cfi_restore 1
 290 0170 03340101 		ld	s0,16(sp)
 291              		.cfi_restore 8
 292              		.cfi_def_cfa 2, 32
 293 0174 83348100 		ld	s1,8(sp)
 294              		.cfi_restore 9
 295              	.LVL20:
 296 0178 13010102 		addi	sp,sp,32
 297              		.cfi_def_cfa_offset 0
 298 017c 67800000 		jr	ra
 299              		.cfi_endproc
 300              	.LFE26:
 302              		.globl	_ZN9Scheduler16schedulerPCBTailE
 303              		.globl	_ZN9Scheduler16schedulerPCBHeadE
 304              		.bss
 305              		.align	3
 306              		.set	.LANCHOR0,. + 0
 309              	_ZN9Scheduler16schedulerPCBHeadE:
 310 0000 00000000 		.zero	8
 310      00000000 
 313              	_ZN9Scheduler16schedulerPCBTailE:
 314 0008 00000000 		.zero	8
 314      00000000 
 315              		.text
 316              	.Letext0:
 317              		.file 3 "src/../h/../lib/hw.h"
 318              		.file 4 "src/../h/Scheduler.hpp"
 319              		.file 5 "src/../h/Riscv.hpp"
 320              		.file 6 "src/../h/MemoryAllocator.hpp"
GAS LISTING /tmp/ccGiKIAI.s 			page 9


DEFINED SYMBOLS
                            *ABS*:0000000000000000 Scheduler.cpp
     /tmp/ccGiKIAI.s:9      .text:0000000000000000 _ZN9SchedulernwEm
     /tmp/ccGiKIAI.s:13     .text:0000000000000000 .L0 
     /tmp/ccGiKIAI.s:15     .text:0000000000000000 .L0 
     /tmp/ccGiKIAI.s:16     .text:0000000000000004 .L0 
     /tmp/ccGiKIAI.s:19     .text:000000000000000c .L0 
     /tmp/ccGiKIAI.s:20     .text:000000000000000c .L0 
     /tmp/ccGiKIAI.s:22     .text:0000000000000010 .L0 
     /tmp/ccGiKIAI.s:24     .text:0000000000000010 .L0 
     /tmp/ccGiKIAI.s:25     .text:0000000000000010 .L0 
     /tmp/ccGiKIAI.s:28     .text:0000000000000018 .L0 
     /tmp/ccGiKIAI.s:29     .text:000000000000001c .L0 
     /tmp/ccGiKIAI.s:31     .text:0000000000000020 .L0 
     /tmp/ccGiKIAI.s:32     .text:0000000000000020 .L0 
     /tmp/ccGiKIAI.s:34     .text:0000000000000024 .L0 
     /tmp/ccGiKIAI.s:36     .text:0000000000000028 .L0 
     /tmp/ccGiKIAI.s:42     .text:0000000000000028 _ZN9SchedulerdlEPv
     /tmp/ccGiKIAI.s:45     .text:0000000000000028 .L0 
     /tmp/ccGiKIAI.s:47     .text:0000000000000028 .L0 
     /tmp/ccGiKIAI.s:48     .text:000000000000002c .L0 
     /tmp/ccGiKIAI.s:51     .text:0000000000000034 .L0 
     /tmp/ccGiKIAI.s:52     .text:0000000000000034 .L0 
     /tmp/ccGiKIAI.s:54     .text:0000000000000038 .L0 
     /tmp/ccGiKIAI.s:56     .text:0000000000000038 .L0 
     /tmp/ccGiKIAI.s:57     .text:0000000000000038 .L0 
     /tmp/ccGiKIAI.s:60     .text:0000000000000040 .L0 
     /tmp/ccGiKIAI.s:61     .text:0000000000000044 .L0 
     /tmp/ccGiKIAI.s:63     .text:0000000000000048 .L0 
     /tmp/ccGiKIAI.s:64     .text:0000000000000048 .L0 
     /tmp/ccGiKIAI.s:66     .text:000000000000004c .L0 
     /tmp/ccGiKIAI.s:68     .text:0000000000000050 .L0 
     /tmp/ccGiKIAI.s:74     .text:0000000000000050 _ZN9Scheduler7getSizeEv
     /tmp/ccGiKIAI.s:77     .text:0000000000000050 .L0 
     /tmp/ccGiKIAI.s:78     .text:0000000000000050 .L0 
     /tmp/ccGiKIAI.s:79     .text:0000000000000054 .L0 
     /tmp/ccGiKIAI.s:81     .text:0000000000000058 .L0 
     /tmp/ccGiKIAI.s:83     .text:000000000000005c .L0 
     /tmp/ccGiKIAI.s:86     .text:000000000000005c .L0 
     /tmp/ccGiKIAI.s:87     .text:000000000000005c .L0 
     /tmp/ccGiKIAI.s:88     .text:000000000000005c .L0 
     /tmp/ccGiKIAI.s:91     .text:0000000000000064 .L0 
     /tmp/ccGiKIAI.s:95     .text:0000000000000068 .L0 
     /tmp/ccGiKIAI.s:96     .text:0000000000000068 .L0 
     /tmp/ccGiKIAI.s:98     .text:000000000000006c .L0 
     /tmp/ccGiKIAI.s:99     .text:000000000000006c .L0 
     /tmp/ccGiKIAI.s:102    .text:0000000000000070 .L0 
     /tmp/ccGiKIAI.s:103    .text:0000000000000070 .L0 
     /tmp/ccGiKIAI.s:106    .text:0000000000000074 .L0 
     /tmp/ccGiKIAI.s:109    .text:0000000000000078 .L0 
     /tmp/ccGiKIAI.s:110    .text:0000000000000078 .L0 
     /tmp/ccGiKIAI.s:113    .text:0000000000000080 .L0 
     /tmp/ccGiKIAI.s:114    .text:0000000000000080 .L0 
     /tmp/ccGiKIAI.s:116    .text:0000000000000084 .L0 
     /tmp/ccGiKIAI.s:118    .text:0000000000000088 .L0 
     /tmp/ccGiKIAI.s:124    .text:0000000000000088 _ZN9Scheduler3putEP3PCB
     /tmp/ccGiKIAI.s:127    .text:0000000000000088 .L0 
GAS LISTING /tmp/ccGiKIAI.s 			page 10


     /tmp/ccGiKIAI.s:129    .text:0000000000000088 .L0 
     /tmp/ccGiKIAI.s:130    .text:000000000000008c .L0 
     /tmp/ccGiKIAI.s:132    .text:0000000000000090 .L0 
     /tmp/ccGiKIAI.s:134    .text:0000000000000094 .L0 
     /tmp/ccGiKIAI.s:140    .text:0000000000000094 .L0 
     /tmp/ccGiKIAI.s:141    .text:0000000000000094 .L0 
     /tmp/ccGiKIAI.s:142    .text:0000000000000094 .L0 
     /tmp/ccGiKIAI.s:147    .text:0000000000000098 .L0 
     /tmp/ccGiKIAI.s:148    .text:0000000000000098 .L0 
     /tmp/ccGiKIAI.s:150    .text:000000000000009c .L0 
     /tmp/ccGiKIAI.s:151    .text:000000000000009c .L0 
     /tmp/ccGiKIAI.s:153    .text:00000000000000a4 .L0 
     /tmp/ccGiKIAI.s:155    .text:00000000000000a8 .L0 
     /tmp/ccGiKIAI.s:156    .text:00000000000000a8 .L0 
     /tmp/ccGiKIAI.s:159    .text:00000000000000b4 .L0 
     /tmp/ccGiKIAI.s:161    .text:00000000000000b8 .L0 
     /tmp/ccGiKIAI.s:162    .text:00000000000000b8 .L0 
     /tmp/ccGiKIAI.s:165    .text:00000000000000bc .L0 
     /tmp/ccGiKIAI.s:166    .text:00000000000000c0 .L0 
     /tmp/ccGiKIAI.s:167    .text:00000000000000c0 .L0 
     /tmp/ccGiKIAI.s:168    .text:00000000000000c0 .L0 
     /tmp/ccGiKIAI.s:170    .text:00000000000000c4 .L0 
     /tmp/ccGiKIAI.s:173    .text:00000000000000c8 .L0 
     /tmp/ccGiKIAI.s:175    .text:00000000000000c8 .L0 
     /tmp/ccGiKIAI.s:176    .text:00000000000000c8 .L0 
     /tmp/ccGiKIAI.s:179    .text:00000000000000d4 .L0 
     /tmp/ccGiKIAI.s:181    .text:00000000000000dc .L0 
     /tmp/ccGiKIAI.s:187    .text:00000000000000dc _ZN9Scheduler3getEv
     /tmp/ccGiKIAI.s:190    .text:00000000000000dc .L0 
     /tmp/ccGiKIAI.s:191    .text:00000000000000dc .L0 
     /tmp/ccGiKIAI.s:192    .text:00000000000000e0 .L0 
     /tmp/ccGiKIAI.s:194    .text:00000000000000e4 .L0 
     /tmp/ccGiKIAI.s:196    .text:00000000000000e8 .L0 
     /tmp/ccGiKIAI.s:198    .text:00000000000000e8 .L0 
     /tmp/ccGiKIAI.s:199    .text:00000000000000e8 .L0 
     /tmp/ccGiKIAI.s:201    .text:00000000000000f0 .L0 
     /tmp/ccGiKIAI.s:204    .text:00000000000000f4 .L0 
     /tmp/ccGiKIAI.s:205    .text:00000000000000f4 .L0 
     /tmp/ccGiKIAI.s:206    .text:00000000000000f4 .L0 
     /tmp/ccGiKIAI.s:208    .text:00000000000000f8 .L0 
     /tmp/ccGiKIAI.s:210    .text:00000000000000fc .L0 
     /tmp/ccGiKIAI.s:211    .text:00000000000000fc .L0 
     /tmp/ccGiKIAI.s:214    .text:0000000000000104 .L0 
     /tmp/ccGiKIAI.s:215    .text:0000000000000104 .L0 
     /tmp/ccGiKIAI.s:219    .text:0000000000000108 .L0 
     /tmp/ccGiKIAI.s:220    .text:0000000000000108 .L0 
     /tmp/ccGiKIAI.s:221    .text:000000000000010c .L0 
     /tmp/ccGiKIAI.s:222    .text:000000000000010c .L0 
     /tmp/ccGiKIAI.s:223    .text:000000000000010c .L0 
     /tmp/ccGiKIAI.s:225    .text:0000000000000110 .L0 
     /tmp/ccGiKIAI.s:229    .text:0000000000000114 .L0 
     /tmp/ccGiKIAI.s:231    .text:0000000000000114 .L0 
     /tmp/ccGiKIAI.s:232    .text:0000000000000114 .L0 
     /tmp/ccGiKIAI.s:235    .text:0000000000000120 .L0 
     /tmp/ccGiKIAI.s:237    .text:0000000000000128 .L0 
     /tmp/ccGiKIAI.s:248    .text:0000000000000128 _ZN9Scheduler5printEv
     /tmp/ccGiKIAI.s:251    .text:0000000000000128 .L0 
GAS LISTING /tmp/ccGiKIAI.s 			page 11


     /tmp/ccGiKIAI.s:252    .text:0000000000000128 .L0 
     /tmp/ccGiKIAI.s:253    .text:000000000000012c .L0 
     /tmp/ccGiKIAI.s:257    .text:0000000000000138 .L0 
     /tmp/ccGiKIAI.s:258    .text:0000000000000138 .L0 
     /tmp/ccGiKIAI.s:259    .text:0000000000000138 .L0 
     /tmp/ccGiKIAI.s:261    .text:000000000000013c .L0 
     /tmp/ccGiKIAI.s:263    .text:000000000000013c .L0 
     /tmp/ccGiKIAI.s:264    .text:000000000000013c .L0 
     /tmp/ccGiKIAI.s:268    .text:000000000000014c .L0 
     /tmp/ccGiKIAI.s:269    .text:000000000000014c .L0 
     /tmp/ccGiKIAI.s:273    .text:0000000000000154 .L0 
     /tmp/ccGiKIAI.s:274    .text:0000000000000154 .L0 
     /tmp/ccGiKIAI.s:276    .text:0000000000000158 .L0 
     /tmp/ccGiKIAI.s:277    .text:0000000000000158 .L0 
     /tmp/ccGiKIAI.s:281    .text:0000000000000164 .L0 
     /tmp/ccGiKIAI.s:282    .text:0000000000000164 .L0 
     /tmp/ccGiKIAI.s:285    .text:0000000000000168 .L0 
     /tmp/ccGiKIAI.s:288    .text:000000000000016c .L0 
     /tmp/ccGiKIAI.s:289    .text:0000000000000170 .L0 
     /tmp/ccGiKIAI.s:291    .text:0000000000000174 .L0 
     /tmp/ccGiKIAI.s:292    .text:0000000000000174 .L0 
     /tmp/ccGiKIAI.s:294    .text:0000000000000178 .L0 
     /tmp/ccGiKIAI.s:297    .text:000000000000017c .L0 
     /tmp/ccGiKIAI.s:299    .text:0000000000000180 .L0 
     /tmp/ccGiKIAI.s:313    .bss:0000000000000008 _ZN9Scheduler16schedulerPCBTailE
     /tmp/ccGiKIAI.s:309    .bss:0000000000000000 _ZN9Scheduler16schedulerPCBHeadE
     /tmp/ccGiKIAI.s:306    .bss:0000000000000000 .LANCHOR0
     /tmp/ccGiKIAI.s:321    .text:0000000000000180 .L0 
     /tmp/ccGiKIAI.s:88     .text:000000000000005c .L0 
     /tmp/ccGiKIAI.s:151    .text:000000000000009c .L0 
     /tmp/ccGiKIAI.s:156    .text:00000000000000a8 .L0 
     /tmp/ccGiKIAI.s:176    .text:00000000000000c8 .L0 
     /tmp/ccGiKIAI.s:199    .text:00000000000000e8 .L0 
     /tmp/ccGiKIAI.s:211    .text:00000000000000fc .L0 
     /tmp/ccGiKIAI.s:232    .text:0000000000000114 .L0 
     /tmp/ccGiKIAI.s:242    .rodata.str1.8:0000000000000000 .LC0
     /tmp/ccGiKIAI.s:264    .text:000000000000013c .L0 
     /tmp/ccGiKIAI.s:269    .text:000000000000014c .L0 
     /tmp/ccGiKIAI.s:107    .text:0000000000000078 .L6
     /tmp/ccGiKIAI.s:93     .text:0000000000000068 .L7
     /tmp/ccGiKIAI.s:172    .text:00000000000000c8 .L13
     /tmp/ccGiKIAI.s:163    .text:00000000000000bc .L9
     /tmp/ccGiKIAI.s:218    .text:0000000000000108 .L14
     /tmp/ccGiKIAI.s:228    .text:0000000000000114 .L19
     /tmp/ccGiKIAI.s:212    .text:0000000000000104 .L17
     /tmp/ccGiKIAI.s:286    .text:000000000000016c .L20
     /tmp/ccGiKIAI.s:271    .text:0000000000000154 .L22
     /tmp/ccGiKIAI.s:1537   .debug_abbrev:0000000000000000 .Ldebug_abbrev0
     /tmp/ccGiKIAI.s:2599   .debug_str:0000000000000159 .LASF167
     /tmp/ccGiKIAI.s:2691   .debug_str:0000000000000495 .LASF168
     /tmp/ccGiKIAI.s:2857   .debug_str:00000000000009b4 .LASF169
     /tmp/ccGiKIAI.s:5      .text:0000000000000000 .Ltext0
     /tmp/ccGiKIAI.s:316    .text:0000000000000180 .Letext0
     /tmp/ccGiKIAI.s:2561   .debug_line:0000000000000000 .Ldebug_line0
     /tmp/ccGiKIAI.s:2681   .debug_str:0000000000000445 .LASF0
     /tmp/ccGiKIAI.s:2707   .debug_str:0000000000000520 .LASF1
     /tmp/ccGiKIAI.s:2793   .debug_str:0000000000000807 .LASF2
GAS LISTING /tmp/ccGiKIAI.s 			page 12


     /tmp/ccGiKIAI.s:2805   .debug_str:000000000000085a .LASF4
     /tmp/ccGiKIAI.s:2695   .debug_str:00000000000004b4 .LASF3
     /tmp/ccGiKIAI.s:2577   .debug_str:0000000000000069 .LASF5
     /tmp/ccGiKIAI.s:2775   .debug_str:000000000000076b .LASF6
     /tmp/ccGiKIAI.s:2765   .debug_str:0000000000000718 .LASF7
     /tmp/ccGiKIAI.s:2701   .debug_str:00000000000004f5 .LASF8
     /tmp/ccGiKIAI.s:2665   .debug_str:00000000000003c4 .LASF9
     /tmp/ccGiKIAI.s:2669   .debug_str:00000000000003f0 .LASF10
     /tmp/ccGiKIAI.s:2613   .debug_str:0000000000000272 .LASF11
     /tmp/ccGiKIAI.s:2655   .debug_str:0000000000000398 .LASF12
     /tmp/ccGiKIAI.s:2619   .debug_str:0000000000000294 .LASF13
     /tmp/ccGiKIAI.s:2611   .debug_str:0000000000000262 .LASF14
     /tmp/ccGiKIAI.s:2837   .debug_str:000000000000094c .LASF15
     /tmp/ccGiKIAI.s:2649   .debug_str:000000000000036f .LASF16
     /tmp/ccGiKIAI.s:2829   .debug_str:00000000000008fb .LASF17
     /tmp/ccGiKIAI.s:2845   .debug_str:0000000000000970 .LASF170
     /tmp/ccGiKIAI.s:2607   .debug_str:0000000000000248 .LASF18
     /tmp/ccGiKIAI.s:2823   .debug_str:00000000000008da .LASF19
     /tmp/ccGiKIAI.s:2617   .debug_str:000000000000028a .LASF20
     /tmp/ccGiKIAI.s:2597   .debug_str:0000000000000150 .LASF21
     /tmp/ccGiKIAI.s:2769   .debug_str:0000000000000741 .LASF22
     /tmp/ccGiKIAI.s:2615   .debug_str:0000000000000281 .LASF23
     /tmp/ccGiKIAI.s:2839   .debug_str:0000000000000958 .LASF77
     /tmp/ccGiKIAI.s:2675   .debug_str:000000000000041c .LASF24
     /tmp/ccGiKIAI.s:2861   .debug_str:00000000000009df .LASF171
     /tmp/ccGiKIAI.s:2753   .debug_str:00000000000006bf .LASF172
     /tmp/ccGiKIAI.s:2705   .debug_str:000000000000051b .LASF25
     /tmp/ccGiKIAI.s:2903   .debug_str:0000000000000b0c .LASF27
     /tmp/ccGiKIAI.s:2897   .debug_str:0000000000000adc .LASF26
     /tmp/ccGiKIAI.s:2851   .debug_str:0000000000000986 .LASF28
     /tmp/ccGiKIAI.s:2637   .debug_str:000000000000032a .LASF51
     /tmp/ccGiKIAI.s:2585   .debug_str:00000000000000b4 .LASF53
     /tmp/ccGiKIAI.s:2709   .debug_str:0000000000000533 .LASF33
     /tmp/ccGiKIAI.s:2757   .debug_str:00000000000006d7 .LASF35
     /tmp/ccGiKIAI.s:2847   .debug_str:0000000000000976 .LASF29
     /tmp/ccGiKIAI.s:2815   .debug_str:0000000000000891 .LASF30
     /tmp/ccGiKIAI.s:2711   .debug_str:0000000000000539 .LASF37
     /tmp/ccGiKIAI.s:2715   .debug_str:0000000000000564 .LASF39
     /tmp/ccGiKIAI.s:2907   .debug_str:0000000000000b30 .LASF31
     /tmp/ccGiKIAI.s:2651   .debug_str:0000000000000385 .LASF32
     /tmp/ccGiKIAI.s:2569   .debug_str:000000000000002a .LASF34
     /tmp/ccGiKIAI.s:2693   .debug_str:00000000000004a7 .LASF36
     /tmp/ccGiKIAI.s:2819   .debug_str:00000000000008b3 .LASF38
     /tmp/ccGiKIAI.s:2733   .debug_str:0000000000000602 .LASF40
     /tmp/ccGiKIAI.s:2803   .debug_str:0000000000000851 .LASF41
     /tmp/ccGiKIAI.s:2833   .debug_str:0000000000000929 .LASF42
     /tmp/ccGiKIAI.s:2735   .debug_str:0000000000000615 .LASF43
     /tmp/ccGiKIAI.s:2565   .debug_str:000000000000000b .LASF44
     /tmp/ccGiKIAI.s:2887   .debug_str:0000000000000a92 .LASF45
     /tmp/ccGiKIAI.s:2763   .debug_str:00000000000006fe .LASF46
     /tmp/ccGiKIAI.s:2827   .debug_str:00000000000008ed .LASF47
     /tmp/ccGiKIAI.s:2777   .debug_str:0000000000000772 .LASF48
     /tmp/ccGiKIAI.s:2633   .debug_str:0000000000000308 .LASF49
     /tmp/ccGiKIAI.s:2893   .debug_str:0000000000000ac3 .LASF50
     /tmp/ccGiKIAI.s:2697   .debug_str:00000000000004c6 .LASF57
     /tmp/ccGiKIAI.s:2825   .debug_str:00000000000008e2 .LASF52
     /tmp/ccGiKIAI.s:2901   .debug_str:0000000000000af6 .LASF54
GAS LISTING /tmp/ccGiKIAI.s 			page 13


     /tmp/ccGiKIAI.s:2841   .debug_str:0000000000000960 .LASF55
     /tmp/ccGiKIAI.s:2629   .debug_str:00000000000002eb .LASF56
     /tmp/ccGiKIAI.s:2811   .debug_str:000000000000087b .LASF58
     /tmp/ccGiKIAI.s:2683   .debug_str:0000000000000452 .LASF59
     /tmp/ccGiKIAI.s:2743   .debug_str:000000000000064f .LASF60
     /tmp/ccGiKIAI.s:2623   .debug_str:00000000000002b5 .LASF61
     /tmp/ccGiKIAI.s:2781   .debug_str:0000000000000785 .LASF62
     /tmp/ccGiKIAI.s:2917   .debug_str:0000000000000b68 .LASF63
     /tmp/ccGiKIAI.s:2747   .debug_str:0000000000000675 .LASF64
     /tmp/ccGiKIAI.s:2801   .debug_str:000000000000083e .LASF65
     /tmp/ccGiKIAI.s:2821   .debug_str:00000000000008bc .LASF66
     /tmp/ccGiKIAI.s:2855   .debug_str:00000000000009aa .LASF67
     /tmp/ccGiKIAI.s:2759   .debug_str:00000000000006e7 .LASF68
     /tmp/ccGiKIAI.s:2895   .debug_str:0000000000000ace .LASF69
     /tmp/ccGiKIAI.s:2591   .debug_str:0000000000000103 .LASF71
     /tmp/ccGiKIAI.s:2685   .debug_str:0000000000000466 .LASF70
     /tmp/ccGiKIAI.s:2605   .debug_str:000000000000021c .LASF72
     /tmp/ccGiKIAI.s:2885   .debug_str:0000000000000a8b .LASF173
     /tmp/ccGiKIAI.s:2603   .debug_str:000000000000020b .LASF174
     /tmp/ccGiKIAI.s:2567   .debug_str:0000000000000025 .LASF73
     /tmp/ccGiKIAI.s:2869   .debug_str:0000000000000a1b .LASF74
     /tmp/ccGiKIAI.s:2717   .debug_str:000000000000057c .LASF75
     /tmp/ccGiKIAI.s:2639   .debug_str:0000000000000333 .LASF76
     /tmp/ccGiKIAI.s:2859   .debug_str:00000000000009d7 .LASF78
     /tmp/ccGiKIAI.s:2663   .debug_str:00000000000003ba .LASF79
     /tmp/ccGiKIAI.s:2581   .debug_str:000000000000008a .LASF175
     /tmp/ccGiKIAI.s:2899   .debug_str:0000000000000ae2 .LASF176
     /tmp/ccGiKIAI.s:2593   .debug_str:000000000000012b .LASF80
     /tmp/ccGiKIAI.s:2755   .debug_str:00000000000006c4 .LASF81
     /tmp/ccGiKIAI.s:2849   .debug_str:000000000000097e .LASF82
     /tmp/ccGiKIAI.s:2789   .debug_str:00000000000007e4 .LASF109
     /tmp/ccGiKIAI.s:2601   .debug_str:0000000000000205 .LASF83
     /tmp/ccGiKIAI.s:2741   .debug_str:0000000000000639 .LASF84
     /tmp/ccGiKIAI.s:2817   .debug_str:00000000000008a2 .LASF85
     /tmp/ccGiKIAI.s:2621   .debug_str:00000000000002a4 .LASF86
     /tmp/ccGiKIAI.s:2877   .debug_str:0000000000000a59 .LASF87
     /tmp/ccGiKIAI.s:2677   .debug_str:0000000000000422 .LASF88
     /tmp/ccGiKIAI.s:2831   .debug_str:0000000000000911 .LASF89
     /tmp/ccGiKIAI.s:2761   .debug_str:00000000000006f3 .LASF90
     /tmp/ccGiKIAI.s:2721   .debug_str:0000000000000589 .LASF91
     /tmp/ccGiKIAI.s:2647   .debug_str:0000000000000365 .LASF92
     /tmp/ccGiKIAI.s:2767   .debug_str:000000000000072b .LASF93
     /tmp/ccGiKIAI.s:2723   .debug_str:00000000000005a1 .LASF94
     /tmp/ccGiKIAI.s:2873   .debug_str:0000000000000a31 .LASF95
     /tmp/ccGiKIAI.s:2871   .debug_str:0000000000000a20 .LASF96
     /tmp/ccGiKIAI.s:2713   .debug_str:0000000000000546 .LASF97
     /tmp/ccGiKIAI.s:2575   .debug_str:0000000000000057 .LASF98
     /tmp/ccGiKIAI.s:2625   .debug_str:00000000000002c7 .LASF99
     /tmp/ccGiKIAI.s:2891   .debug_str:0000000000000ab7 .LASF100
     /tmp/ccGiKIAI.s:2587   .debug_str:00000000000000c7 .LASF101
     /tmp/ccGiKIAI.s:2773   .debug_str:000000000000075e .LASF102
     /tmp/ccGiKIAI.s:2579   .debug_str:0000000000000070 .LASF103
     /tmp/ccGiKIAI.s:2813   .debug_str:0000000000000883 .LASF104
     /tmp/ccGiKIAI.s:2787   .debug_str:00000000000007c9 .LASF105
     /tmp/ccGiKIAI.s:2737   .debug_str:0000000000000624 .LASF106
     /tmp/ccGiKIAI.s:2881   .debug_str:0000000000000a69 .LASF107
     /tmp/ccGiKIAI.s:2867   .debug_str:0000000000000a12 .LASF108
GAS LISTING /tmp/ccGiKIAI.s 			page 14


     /tmp/ccGiKIAI.s:2573   .debug_str:0000000000000042 .LASF110
     /tmp/ccGiKIAI.s:2913   .debug_str:0000000000000b57 .LASF111
     /tmp/ccGiKIAI.s:2751   .debug_str:00000000000006aa .LASF112
     /tmp/ccGiKIAI.s:2779   .debug_str:000000000000077e .LASF113
     /tmp/ccGiKIAI.s:2783   .debug_str:00000000000007a2 .LASF114
     /tmp/ccGiKIAI.s:2745   .debug_str:000000000000066e .LASF115
     /tmp/ccGiKIAI.s:2703   .debug_str:0000000000000508 .LASF116
     /tmp/ccGiKIAI.s:2883   .debug_str:0000000000000a83 .LASF117
     /tmp/ccGiKIAI.s:2853   .debug_str:0000000000000996 .LASF118
     /tmp/ccGiKIAI.s:2739   .debug_str:0000000000000631 .LASF119
     /tmp/ccGiKIAI.s:2749   .debug_str:0000000000000696 .LASF120
     /tmp/ccGiKIAI.s:2729   .debug_str:00000000000005e8 .LASF121
     /tmp/ccGiKIAI.s:2785   .debug_str:00000000000007b5 .LASF122
     /tmp/ccGiKIAI.s:2915   .debug_str:0000000000000b60 .LASF123
     /tmp/ccGiKIAI.s:2689   .debug_str:0000000000000481 .LASF124
     /tmp/ccGiKIAI.s:2835   .debug_str:0000000000000945 .LASF125
     /tmp/ccGiKIAI.s:2807   .debug_str:0000000000000861 .LASF126
     /tmp/ccGiKIAI.s:2809   .debug_str:0000000000000874 .LASF127
     /tmp/ccGiKIAI.s:2645   .debug_str:0000000000000352 .LASF128
     /tmp/ccGiKIAI.s:2641   .debug_str:0000000000000339 .LASF129
     /tmp/ccGiKIAI.s:2583   .debug_str:00000000000000a2 .LASF130
     /tmp/ccGiKIAI.s:2687   .debug_str:000000000000047b .LASF131
     /tmp/ccGiKIAI.s:2635   .debug_str:0000000000000318 .LASF132
     /tmp/ccGiKIAI.s:2563   .debug_str:0000000000000000 .LASF133
     /tmp/ccGiKIAI.s:2799   .debug_str:0000000000000826 .LASF134
     /tmp/ccGiKIAI.s:2791   .debug_str:00000000000007fc .LASF135
     /tmp/ccGiKIAI.s:2905   .debug_str:0000000000000b18 .LASF136
     /tmp/ccGiKIAI.s:2879   .debug_str:0000000000000a5f .LASF137
     /tmp/ccGiKIAI.s:2889   .debug_str:0000000000000aa1 .LASF138
     /tmp/ccGiKIAI.s:2875   .debug_str:0000000000000a4f .LASF139
     /tmp/ccGiKIAI.s:2725   .debug_str:00000000000005b1 .LASF140
     /tmp/ccGiKIAI.s:2673   .debug_str:0000000000000411 .LASF141
     /tmp/ccGiKIAI.s:2679   .debug_str:000000000000042d .LASF142
     /tmp/ccGiKIAI.s:2865   .debug_str:0000000000000a03 .LASF143
     /tmp/ccGiKIAI.s:2667   .debug_str:00000000000003d4 .LASF144
     /tmp/ccGiKIAI.s:2771   .debug_str:0000000000000749 .LASF145
     /tmp/ccGiKIAI.s:2699   .debug_str:00000000000004d3 .LASF146
     /tmp/ccGiKIAI.s:2631   .debug_str:0000000000000301 .LASF147
     /tmp/ccGiKIAI.s:2571   .debug_str:000000000000003a .LASF148
     /tmp/ccGiKIAI.s:2909   .debug_str:0000000000000b3d .LASF149
     /tmp/ccGiKIAI.s:2863   .debug_str:00000000000009f7 .LASF150
     /tmp/ccGiKIAI.s:2595   .debug_str:000000000000013d .LASF151
     /tmp/ccGiKIAI.s:2731   .debug_str:00000000000005f0 .LASF152
     /tmp/ccGiKIAI.s:2671   .debug_str:00000000000003fe .LASF153
     /tmp/ccGiKIAI.s:2643   .debug_str:000000000000033f .LASF154
     /tmp/ccGiKIAI.s:2609   .debug_str:000000000000024e .LASF155
     /tmp/ccGiKIAI.s:2843   .debug_str:000000000000096b .LASF156
     /tmp/ccGiKIAI.s:2719   .debug_str:0000000000000584 .LASF157
     /tmp/ccGiKIAI.s:2727   .debug_str:00000000000005c7 .LASF158
     /tmp/ccGiKIAI.s:2589   .debug_str:00000000000000e2 .LASF159
     /tmp/ccGiKIAI.s:249    .text:0000000000000128 .LFB26
     /tmp/ccGiKIAI.s:300    .text:0000000000000180 .LFE26
     /tmp/ccGiKIAI.s:2797   .debug_str:0000000000000821 .LASF160
     /tmp/ccGiKIAI.s:2475   .debug_loc:0000000000000000 .LLST6
     /tmp/ccGiKIAI.s:266    .text:000000000000014c .LVL16
     /tmp/ccGiKIAI.s:279    .text:0000000000000164 .LVL18
     /tmp/ccGiKIAI.s:188    .text:00000000000000dc .LFB25
GAS LISTING /tmp/ccGiKIAI.s 			page 15


     /tmp/ccGiKIAI.s:238    .text:0000000000000128 .LFE25
     /tmp/ccGiKIAI.s:2653   .debug_str:0000000000000391 .LASF161
     /tmp/ccGiKIAI.s:2482   .debug_loc:0000000000000023 .LLST5
     /tmp/ccGiKIAI.s:125    .text:0000000000000088 .LFB24
     /tmp/ccGiKIAI.s:182    .text:00000000000000dc .LFE24
     /tmp/ccGiKIAI.s:137    .text:0000000000000094 .LBB4
     /tmp/ccGiKIAI.s:145    .text:0000000000000098 .LBE4
     /tmp/ccGiKIAI.s:2493   .debug_loc:0000000000000059 .LLST3
     /tmp/ccGiKIAI.s:2501   .debug_loc:000000000000007d .LLST4
     /tmp/ccGiKIAI.s:75     .text:0000000000000050 .LFB23
     /tmp/ccGiKIAI.s:119    .text:0000000000000088 .LFE23
     /tmp/ccGiKIAI.s:2508   .debug_loc:00000000000000a0 .LLST2
     /tmp/ccGiKIAI.s:43     .text:0000000000000028 .LFB22
     /tmp/ccGiKIAI.s:69     .text:0000000000000050 .LFE22
     /tmp/ccGiKIAI.s:2520   .debug_loc:00000000000000d7 .LLST1
     /tmp/ccGiKIAI.s:58     .text:0000000000000040 .LVL3
     /tmp/ccGiKIAI.s:10     .text:0000000000000000 .LFB21
     /tmp/ccGiKIAI.s:37     .text:0000000000000028 .LFE21
     /tmp/ccGiKIAI.s:2627   .debug_str:00000000000002e6 .LASF162
     /tmp/ccGiKIAI.s:2534   .debug_loc:0000000000000110 .LLST0
     /tmp/ccGiKIAI.s:26     .text:0000000000000018 .LVL1
     /tmp/ccGiKIAI.s:2659   .debug_str:00000000000003af .LASF177
     /tmp/ccGiKIAI.s:2911   .debug_str:0000000000000b4c .LASF163
     /tmp/ccGiKIAI.s:2661   .debug_str:00000000000003b4 .LASF165
     /tmp/ccGiKIAI.s:2795   .debug_str:0000000000000815 .LASF164
     /tmp/ccGiKIAI.s:2657   .debug_str:00000000000003a7 .LASF166
     /tmp/ccGiKIAI.s:270    .text:0000000000000154 .LVL17
     /tmp/ccGiKIAI.s:295    .text:0000000000000178 .LVL20
     /tmp/ccGiKIAI.s:203    .text:00000000000000f4 .LVL13
     /tmp/ccGiKIAI.s:217    .text:0000000000000108 .LVL14
     /tmp/ccGiKIAI.s:227    .text:0000000000000114 .LVL15
     /tmp/ccGiKIAI.s:136    .text:0000000000000094 .LVL11
     /tmp/ccGiKIAI.s:143    .text:0000000000000098 .LVL12
     /tmp/ccGiKIAI.s:85     .text:000000000000005c .LVL4
     /tmp/ccGiKIAI.s:92     .text:0000000000000068 .LVL6
     /tmp/ccGiKIAI.s:111    .text:000000000000007c .LVL9
     /tmp/ccGiKIAI.s:46     .text:0000000000000028 .LVL2
     /tmp/ccGiKIAI.s:14     .text:0000000000000000 .LVL0
     /tmp/ccGiKIAI.s:322    .debug_info:0000000000000000 .Ldebug_info0

UNDEFINED SYMBOLS
_Z7kmallocm
_Z5kfreePv
_ZN5Riscv11printStringEPKc
_ZN5Riscv12printIntegerEm
