GAS LISTING /tmp/ccKB0bFV.s 			page 1


   1              		.file	"Scheduler.cpp"
   2              		.option pic
   3              		.option norelax
   4              		.text
   5              	.Ltext0:
   6              		.align	2
   8              	_Z41__static_initialization_and_destruction_0ii:
   9              	.LFB2:
  10              		.file 1 "src/Scheduler.cpp"
   1:src/Scheduler.cpp **** //
   2:src/Scheduler.cpp **** // Created by os on 4/27/22.
   3:src/Scheduler.cpp **** //
   4:src/Scheduler.cpp **** 
   5:src/Scheduler.cpp **** #include "../h/Scheduler.h"
   6:src/Scheduler.cpp **** #include "../h/PCB.h"
   7:src/Scheduler.cpp **** 
   8:src/Scheduler.cpp **** //todo
   9:src/Scheduler.cpp **** Queue<PCB*>* Scheduler::queuePCB = (Queue<PCB*>*)MemoryAllocator::mem_alloc(sizeof(Queue<PCB*>));
  10:src/Scheduler.cpp **** 
  11:src/Scheduler.cpp **** void Scheduler::put(PCB *pcb) {
  12:src/Scheduler.cpp ****     //Scheduler::queuePCB->push(pcb);
  13:src/Scheduler.cpp **** }
  14:src/Scheduler.cpp **** 
  15:src/Scheduler.cpp **** PCB *Scheduler::get() {
  16:src/Scheduler.cpp ****     return 0;
  17:src/Scheduler.cpp **** }
  11              		.loc 1 17 1
  12              		.cfi_startproc
  13              	.LVL0:
  14 0000 93071000 		li	a5,1
  15 0004 6304F500 		beq	a0,a5,.L7
  16              	.L4:
  17 0008 67800000 		ret
  18              	.L7:
  19              		.loc 1 17 1 is_stmt 0 discriminator 1
  20 000c B7070100 		li	a5,65536
  21 0010 9387F7FF 		addi	a5,a5,-1
  22 0014 E39AF5FE 		bne	a1,a5,.L4
  23              		.loc 1 17 1
  24 0018 130101FF 		addi	sp,sp,-16
  25              		.cfi_def_cfa_offset 16
  26 001c 23341100 		sd	ra,8(sp)
  27 0020 23308100 		sd	s0,0(sp)
  28              		.cfi_offset 1, -8
  29              		.cfi_offset 8, -16
  30 0024 13040101 		addi	s0,sp,16
  31              		.cfi_def_cfa 8, 0
   9:src/Scheduler.cpp **** 
  32              		.loc 1 9 76
  33 0028 13050001 		li	a0,16
  34              	.LVL1:
  35 002c 97000000 		call	_ZN15MemoryAllocator9mem_allocEm@plt
  35      E7800000 
  36              	.LVL2:
   9:src/Scheduler.cpp **** 
  37              		.loc 1 9 14
  38 0034 97070000 		sd	a0,.LANCHOR0,a5
GAS LISTING /tmp/ccKB0bFV.s 			page 2


  38      23B0A700 
  39              		.loc 1 17 1
  40 003c 83308100 		ld	ra,8(sp)
  41              		.cfi_restore 1
  42 0040 03340100 		ld	s0,0(sp)
  43              		.cfi_restore 8
  44              		.cfi_def_cfa 2, 16
  45 0044 13010101 		addi	sp,sp,16
  46              		.cfi_def_cfa_offset 0
  47 0048 67800000 		jr	ra
  48              		.cfi_endproc
  49              	.LFE2:
  51              		.align	2
  52              		.globl	_ZN9Scheduler3putEP3PCB
  54              	_ZN9Scheduler3putEP3PCB:
  55              	.LFB0:
  11:src/Scheduler.cpp ****     //Scheduler::queuePCB->push(pcb);
  56              		.loc 1 11 31 is_stmt 1
  57              		.cfi_startproc
  58              	.LVL3:
  59 004c 130101FF 		addi	sp,sp,-16
  60              		.cfi_def_cfa_offset 16
  61 0050 23348100 		sd	s0,8(sp)
  62              		.cfi_offset 8, -8
  63 0054 13040101 		addi	s0,sp,16
  64              		.cfi_def_cfa 8, 0
  13:src/Scheduler.cpp **** 
  65              		.loc 1 13 1 is_stmt 0
  66 0058 03348100 		ld	s0,8(sp)
  67              		.cfi_restore 8
  68              		.cfi_def_cfa 2, 16
  69 005c 13010101 		addi	sp,sp,16
  70              		.cfi_def_cfa_offset 0
  71 0060 67800000 		jr	ra
  72              		.cfi_endproc
  73              	.LFE0:
  75              		.align	2
  76              		.globl	_ZN9Scheduler3getEv
  78              	_ZN9Scheduler3getEv:
  79              	.LFB1:
  15:src/Scheduler.cpp ****     return 0;
  80              		.loc 1 15 23 is_stmt 1
  81              		.cfi_startproc
  82 0064 130101FF 		addi	sp,sp,-16
  83              		.cfi_def_cfa_offset 16
  84 0068 23348100 		sd	s0,8(sp)
  85              		.cfi_offset 8, -8
  86 006c 13040101 		addi	s0,sp,16
  87              		.cfi_def_cfa 8, 0
  16:src/Scheduler.cpp **** }
  88              		.loc 1 16 5
  89              		.loc 1 17 1 is_stmt 0
  90 0070 13050000 		li	a0,0
  91 0074 03348100 		ld	s0,8(sp)
  92              		.cfi_restore 8
  93              		.cfi_def_cfa 2, 16
  94 0078 13010101 		addi	sp,sp,16
GAS LISTING /tmp/ccKB0bFV.s 			page 3


  95              		.cfi_def_cfa_offset 0
  96 007c 67800000 		jr	ra
  97              		.cfi_endproc
  98              	.LFE1:
 100              		.align	2
 102              	_GLOBAL__sub_I__ZN9Scheduler8queuePCBE:
 103              	.LFB3:
 104              		.loc 1 17 1 is_stmt 1
 105              		.cfi_startproc
 106 0080 130101FF 		addi	sp,sp,-16
 107              		.cfi_def_cfa_offset 16
 108 0084 23341100 		sd	ra,8(sp)
 109 0088 23308100 		sd	s0,0(sp)
 110              		.cfi_offset 1, -8
 111              		.cfi_offset 8, -16
 112 008c 13040101 		addi	s0,sp,16
 113              		.cfi_def_cfa 8, 0
 114              		.loc 1 17 1 is_stmt 0
 115 0090 B7050100 		li	a1,65536
 116 0094 9385F5FF 		addi	a1,a1,-1
 117 0098 13051000 		li	a0,1
 118 009c 97000000 		call	_Z41__static_initialization_and_destruction_0ii
 118      E7800000 
 119              	.LVL4:
 120 00a4 83308100 		ld	ra,8(sp)
 121              		.cfi_restore 1
 122 00a8 03340100 		ld	s0,0(sp)
 123              		.cfi_restore 8
 124              		.cfi_def_cfa 2, 16
 125 00ac 13010101 		addi	sp,sp,16
 126              		.cfi_def_cfa_offset 0
 127 00b0 67800000 		jr	ra
 128              		.cfi_endproc
 129              	.LFE3:
 131              		.section	.init_array,"aw"
 132              		.align	3
 133 0000 00000000 		.dword	_GLOBAL__sub_I__ZN9Scheduler8queuePCBE
 133      00000000 
 134              		.globl	_ZN9Scheduler8queuePCBE
 135              		.bss
 136              		.align	3
 137              		.set	.LANCHOR0,. + 0
 140              	_ZN9Scheduler8queuePCBE:
 141 0000 00000000 		.zero	8
 141      00000000 
 142              		.text
 143              	.Letext0:
 144              		.file 2 "src/../h/../lib/hw.h"
 145              		.file 3 "src/../h/MemoryAllocator.h"
 146              		.file 4 "src/../h/Scheduler.h"
 147              		.file 5 "src/../h/PCB.h"
 148              		.file 6 "src/../h/Queue.h"
GAS LISTING /tmp/ccKB0bFV.s 			page 4

