GAS LISTING /tmp/ccYyV04g.s 			page 1


   1              		.file	"Scheduler.cpp"
   2              		.option pic
   3              		.option norelax
   4              		.text
   5              	.Ltext0:
   6              		.align	2
   7              		.globl	_ZN9SchedulernwEm
   9              	_ZN9SchedulernwEm:
  10              	.LFB5:
  11              		.file 1 "src/Scheduler.cpp"
   1:src/Scheduler.cpp **** //
   2:src/Scheduler.cpp **** // Created by os on 4/27/22.
   3:src/Scheduler.cpp **** //
   4:src/Scheduler.cpp **** 
   5:src/Scheduler.cpp **** #include "../h/Scheduler.hpp"
   6:src/Scheduler.cpp **** #include "../h/PCB.hpp"
   7:src/Scheduler.cpp **** #include "../test/printing.hpp"
   8:src/Scheduler.cpp **** 
   9:src/Scheduler.cpp **** PCB* Scheduler::schedulerPCBHead = 0;
  10:src/Scheduler.cpp **** PCB* Scheduler::schedulerPCBTail = 0;
  11:src/Scheduler.cpp **** 
  12:src/Scheduler.cpp **** void *Scheduler::operator new(size_t size)
  13:src/Scheduler.cpp **** {
  12              		.loc 1 13 1
  13              		.cfi_startproc
  14              	.LVL0:
  15 0000 130101FF 		addi	sp,sp,-16
  16              		.cfi_def_cfa_offset 16
  17 0004 23341100 		sd	ra,8(sp)
  18 0008 23308100 		sd	s0,0(sp)
  19              		.cfi_offset 1, -8
  20              		.cfi_offset 8, -16
  21 000c 13040101 		addi	s0,sp,16
  22              		.cfi_def_cfa 8, 0
  14:src/Scheduler.cpp ****     return MemoryAllocator::kmalloc(size);
  23              		.loc 1 14 5
  24              		.loc 1 14 36 is_stmt 0
  25 0010 97000000 		call	_ZN15MemoryAllocator7kmallocEm@plt
  25      E7800000 
  26              	.LVL1:
  15:src/Scheduler.cpp **** }
  27              		.loc 1 15 1
  28 0018 83308100 		ld	ra,8(sp)
  29              		.cfi_restore 1
  30 001c 03340100 		ld	s0,0(sp)
  31              		.cfi_restore 8
  32              		.cfi_def_cfa 2, 16
  33 0020 13010101 		addi	sp,sp,16
  34              		.cfi_def_cfa_offset 0
  35 0024 67800000 		jr	ra
  36              		.cfi_endproc
  37              	.LFE5:
  39              		.align	2
  40              		.globl	_ZN9SchedulerdlEPv
  42              	_ZN9SchedulerdlEPv:
  43              	.LFB6:
  16:src/Scheduler.cpp **** 
GAS LISTING /tmp/ccYyV04g.s 			page 2


  17:src/Scheduler.cpp **** void Scheduler::operator delete(void *p)
  18:src/Scheduler.cpp **** {
  44              		.loc 1 18 1 is_stmt 1
  45              		.cfi_startproc
  46              	.LVL2:
  47 0028 130101FF 		addi	sp,sp,-16
  48              		.cfi_def_cfa_offset 16
  49 002c 23341100 		sd	ra,8(sp)
  50 0030 23308100 		sd	s0,0(sp)
  51              		.cfi_offset 1, -8
  52              		.cfi_offset 8, -16
  53 0034 13040101 		addi	s0,sp,16
  54              		.cfi_def_cfa 8, 0
  19:src/Scheduler.cpp ****     MemoryAllocator::kfree(p);
  55              		.loc 1 19 5
  56              		.loc 1 19 27 is_stmt 0
  57 0038 97000000 		call	_ZN15MemoryAllocator5kfreeEPv@plt
  57      E7800000 
  58              	.LVL3:
  20:src/Scheduler.cpp **** }
  59              		.loc 1 20 1
  60 0040 83308100 		ld	ra,8(sp)
  61              		.cfi_restore 1
  62 0044 03340100 		ld	s0,0(sp)
  63              		.cfi_restore 8
  64              		.cfi_def_cfa 2, 16
  65 0048 13010101 		addi	sp,sp,16
  66              		.cfi_def_cfa_offset 0
  67 004c 67800000 		jr	ra
  68              		.cfi_endproc
  69              	.LFE6:
  71              		.align	2
  72              		.globl	_ZN9Scheduler7getSizeEv
  74              	_ZN9Scheduler7getSizeEv:
  75              	.LFB7:
  21:src/Scheduler.cpp **** 
  22:src/Scheduler.cpp **** int Scheduler::getSize()
  23:src/Scheduler.cpp **** {
  76              		.loc 1 23 1 is_stmt 1
  77              		.cfi_startproc
  78 0050 130101FF 		addi	sp,sp,-16
  79              		.cfi_def_cfa_offset 16
  80 0054 23348100 		sd	s0,8(sp)
  81              		.cfi_offset 8, -8
  82 0058 13040101 		addi	s0,sp,16
  83              		.cfi_def_cfa 8, 0
  24:src/Scheduler.cpp ****     uint64 sz = 0;
  84              		.loc 1 24 5
  85              	.LVL4:
  25:src/Scheduler.cpp ****     PCB* curr = schedulerPCBHead;
  86              		.loc 1 25 5
  87              		.loc 1 25 10 is_stmt 0
  88 005c 97070000 		ld	a5,.LANCHOR0
  88      83B70700 
  89              	.LVL5:
  24:src/Scheduler.cpp ****     uint64 sz = 0;
  90              		.loc 1 24 12
GAS LISTING /tmp/ccYyV04g.s 			page 3


  91 0064 13050000 		li	a0,0
  92              	.LVL6:
  93              	.L7:
  26:src/Scheduler.cpp ****     while(curr != 0)
  94              		.loc 1 26 5 is_stmt 1
  95              		.loc 1 26 16
  96 0068 63880700 		beqz	a5,.L6
  27:src/Scheduler.cpp ****     {
  28:src/Scheduler.cpp ****         sz++;
  97              		.loc 1 28 9
  98              		.loc 1 28 11 is_stmt 0
  99 006c 13051500 		addi	a0,a0,1
 100              	.LVL7:
  29:src/Scheduler.cpp ****         curr = curr->nextPCB;
 101              		.loc 1 29 9 is_stmt 1
 102              		.loc 1 29 14 is_stmt 0
 103 0070 83B78700 		ld	a5,8(a5)
 104              	.LVL8:
  26:src/Scheduler.cpp ****     while(curr != 0)
 105              		.loc 1 26 5
 106 0074 6FF05FFF 		j	.L7
 107              	.L6:
  30:src/Scheduler.cpp ****     }
  31:src/Scheduler.cpp ****     return sz;
 108              		.loc 1 31 5 is_stmt 1
  32:src/Scheduler.cpp **** }
 109              		.loc 1 32 1 is_stmt 0
 110 0078 1B050500 		sext.w	a0,a0
 111              	.LVL9:
 112 007c 03348100 		ld	s0,8(sp)
 113              		.cfi_restore 8
 114              		.cfi_def_cfa 2, 16
 115 0080 13010101 		addi	sp,sp,16
 116              		.cfi_def_cfa_offset 0
 117 0084 67800000 		jr	ra
 118              		.cfi_endproc
 119              	.LFE7:
 121              		.align	2
 122              		.globl	_ZN9Scheduler3putEP3PCB
 124              	_ZN9Scheduler3putEP3PCB:
 125              	.LFB8:
  33:src/Scheduler.cpp **** 
  34:src/Scheduler.cpp **** void Scheduler::put(PCB *pcb)
  35:src/Scheduler.cpp **** {
 126              		.loc 1 35 1 is_stmt 1
 127              		.cfi_startproc
 128              	.LVL10:
 129 0088 130101FF 		addi	sp,sp,-16
 130              		.cfi_def_cfa_offset 16
 131 008c 23348100 		sd	s0,8(sp)
 132              		.cfi_offset 8, -8
 133 0090 13040101 		addi	s0,sp,16
 134              		.cfi_def_cfa 8, 0
  36:src/Scheduler.cpp ****     pcb->setState(PCB::READY);
 135              		.loc 1 36 5
 136              	.LVL11:
 137              	.LBB4:
GAS LISTING /tmp/ccYyV04g.s 			page 4


 138              	.LBB5:
 139              		.file 2 "src/../h/PCB.hpp"
   1:src/../h/PCB.hpp **** //
   2:src/../h/PCB.hpp **** // Created by os on 4/27/22.
   3:src/../h/PCB.hpp **** //
   4:src/../h/PCB.hpp **** 
   5:src/../h/PCB.hpp **** #ifndef PROJECT_BASE_V1_0_PCB_HPP
   6:src/../h/PCB.hpp **** #define PROJECT_BASE_V1_0_PCB_HPP
   7:src/../h/PCB.hpp **** 
   8:src/../h/PCB.hpp **** #include "../lib/hw.h"
   9:src/../h/PCB.hpp **** 
  10:src/../h/PCB.hpp **** class PCB
  11:src/../h/PCB.hpp **** {
  12:src/../h/PCB.hpp **** private:
  13:src/../h/PCB.hpp ****     static uint64 savedRegA4;
  14:src/../h/PCB.hpp **** 
  15:src/../h/PCB.hpp ****     using Body = void (*)(void*);
  16:src/../h/PCB.hpp **** 
  17:src/../h/PCB.hpp ****     PCB(Body body,  void* args, void* stack_space, uint64 timeSlice);
  18:src/../h/PCB.hpp ****     ~PCB();
  19:src/../h/PCB.hpp **** 
  20:src/../h/PCB.hpp ****     void start();
  21:src/../h/PCB.hpp ****     static void dispatch();
  22:src/../h/PCB.hpp ****     static void sleep(time_t);
  23:src/../h/PCB.hpp **** 
  24:src/../h/PCB.hpp ****     static PCB* running;
  25:src/../h/PCB.hpp **** 
  26:src/../h/PCB.hpp ****     static uint64 timeSliceCounter;
  27:src/../h/PCB.hpp ****     uint64 getTimeSlice() { return timeSlice;}
  28:src/../h/PCB.hpp **** 
  29:src/../h/PCB.hpp ****     void* operator new(size_t size);
  30:src/../h/PCB.hpp ****     void operator delete(void *p);
  31:src/../h/PCB.hpp **** 
  32:src/../h/PCB.hpp ****     enum State{READY, RUNNING, SUSPENDED, FINISHED, EXITING, SLEEPING};
  33:src/../h/PCB.hpp ****     State getState() {return state;}
  34:src/../h/PCB.hpp ****     void setState(State s) {state = s;}
 140              		.loc 2 34 29
 141              		.loc 2 34 35 is_stmt 0
 142 0094 23200504 		sw	zero,64(a0)
 143              	.LVL12:
 144              	.LBE5:
 145              	.LBE4:
  37:src/Scheduler.cpp ****     pcb->nextPCB = 0;
 146              		.loc 1 37 5 is_stmt 1
 147              		.loc 1 37 18 is_stmt 0
 148 0098 23340500 		sd	zero,8(a0)
  38:src/Scheduler.cpp ****     if(schedulerPCBHead == 0)
 149              		.loc 1 38 5 is_stmt 1
 150              		.loc 1 38 25 is_stmt 0
 151 009c 97070000 		ld	a5,.LANCHOR0
 151      83B70700 
 152              		.loc 1 38 5
 153 00a4 63820702 		beqz	a5,.L13
  39:src/Scheduler.cpp ****         schedulerPCBHead = schedulerPCBTail = pcb;
  40:src/Scheduler.cpp ****     else
  41:src/Scheduler.cpp ****     {
  42:src/Scheduler.cpp ****         schedulerPCBTail->nextPCB = pcb;
GAS LISTING /tmp/ccYyV04g.s 			page 5


 154              		.loc 1 42 9 is_stmt 1
 155              		.loc 1 42 27 is_stmt 0
 156 00a8 97070000 		lla	a5,.LANCHOR0
 156      93870700 
 157 00b0 03B78700 		ld	a4,8(a5)
 158              		.loc 1 42 35
 159 00b4 2334A700 		sd	a0,8(a4)
  43:src/Scheduler.cpp ****         schedulerPCBTail = pcb;
 160              		.loc 1 43 9 is_stmt 1
 161              		.loc 1 43 26 is_stmt 0
 162 00b8 23B4A700 		sd	a0,8(a5)
 163              	.L9:
  44:src/Scheduler.cpp ****     }
  45:src/Scheduler.cpp **** }
 164              		.loc 1 45 1
 165 00bc 03348100 		ld	s0,8(sp)
 166              		.cfi_remember_state
 167              		.cfi_restore 8
 168              		.cfi_def_cfa 2, 16
 169 00c0 13010101 		addi	sp,sp,16
 170              		.cfi_def_cfa_offset 0
 171 00c4 67800000 		jr	ra
 172              	.L13:
 173              		.cfi_restore_state
  39:src/Scheduler.cpp ****     else
 174              		.loc 1 39 9 is_stmt 1
  39:src/Scheduler.cpp ****     else
 175              		.loc 1 39 45 is_stmt 0
 176 00c8 97070000 		lla	a5,.LANCHOR0
 176      93870700 
 177 00d0 23B4A700 		sd	a0,8(a5)
  39:src/Scheduler.cpp ****     else
 178              		.loc 1 39 26
 179 00d4 23B0A700 		sd	a0,0(a5)
 180 00d8 6FF05FFE 		j	.L9
 181              		.cfi_endproc
 182              	.LFE8:
 184              		.align	2
 185              		.globl	_ZN9Scheduler3getEv
 187              	_ZN9Scheduler3getEv:
 188              	.LFB9:
  46:src/Scheduler.cpp **** 
  47:src/Scheduler.cpp **** PCB *Scheduler::get()
  48:src/Scheduler.cpp **** {
 189              		.loc 1 48 1 is_stmt 1
 190              		.cfi_startproc
 191 00dc 130101FF 		addi	sp,sp,-16
 192              		.cfi_def_cfa_offset 16
 193 00e0 23348100 		sd	s0,8(sp)
 194              		.cfi_offset 8, -8
 195 00e4 13040101 		addi	s0,sp,16
 196              		.cfi_def_cfa 8, 0
  49:src/Scheduler.cpp ****     if(schedulerPCBHead == 0)
 197              		.loc 1 49 5
 198              		.loc 1 49 25 is_stmt 0
 199 00e8 17050000 		ld	a0,.LANCHOR0
 199      03350500 
GAS LISTING /tmp/ccYyV04g.s 			page 6


 200              		.loc 1 49 5
 201 00f0 630C0500 		beqz	a0,.L14
  50:src/Scheduler.cpp ****         return 0;
  51:src/Scheduler.cpp ****     PCB* retval = schedulerPCBHead;
 202              		.loc 1 51 5 is_stmt 1
 203              	.LVL13:
  52:src/Scheduler.cpp ****     if(schedulerPCBHead->nextPCB == 0)
 204              		.loc 1 52 5
 205              		.loc 1 52 26 is_stmt 0
 206 00f4 83378500 		ld	a5,8(a0)
 207              		.loc 1 52 5
 208 00f8 638E0700 		beqz	a5,.L19
  53:src/Scheduler.cpp ****         schedulerPCBHead = schedulerPCBTail = 0;
  54:src/Scheduler.cpp ****     else
  55:src/Scheduler.cpp ****         schedulerPCBHead = schedulerPCBHead->nextPCB;
 209              		.loc 1 55 9 is_stmt 1
 210              		.loc 1 55 26 is_stmt 0
 211 00fc 17070000 		sd	a5,.LANCHOR0,a4
 211      2330F700 
 212              	.L17:
  56:src/Scheduler.cpp ****     retval->nextPCB = 0;
 213              		.loc 1 56 5 is_stmt 1
 214              		.loc 1 56 21 is_stmt 0
 215 0104 23340500 		sd	zero,8(a0)
  57:src/Scheduler.cpp ****     return retval;
 216              		.loc 1 57 5 is_stmt 1
 217              	.LVL14:
 218              	.L14:
  58:src/Scheduler.cpp **** }
 219              		.loc 1 58 1 is_stmt 0
 220 0108 03348100 		ld	s0,8(sp)
 221              		.cfi_remember_state
 222              		.cfi_restore 8
 223              		.cfi_def_cfa 2, 16
 224 010c 13010101 		addi	sp,sp,16
 225              		.cfi_def_cfa_offset 0
 226 0110 67800000 		jr	ra
 227              	.LVL15:
 228              	.L19:
 229              		.cfi_restore_state
  53:src/Scheduler.cpp ****     else
 230              		.loc 1 53 9 is_stmt 1
  53:src/Scheduler.cpp ****     else
 231              		.loc 1 53 45 is_stmt 0
 232 0114 97070000 		lla	a5,.LANCHOR0
 232      93870700 
 233 011c 23B40700 		sd	zero,8(a5)
  53:src/Scheduler.cpp ****     else
 234              		.loc 1 53 26
 235 0120 23B00700 		sd	zero,0(a5)
 236 0124 6FF01FFE 		j	.L17
 237              		.cfi_endproc
 238              	.LFE9:
 240              		.section	.rodata.str1.8,"aMS",@progbits,1
 241              		.align	3
 242              	.LC0:
 243 0000 0A00     		.string	"\n"
GAS LISTING /tmp/ccYyV04g.s 			page 7


 244              		.text
 245              		.align	2
 246              		.globl	_ZN9Scheduler5printEv
 248              	_ZN9Scheduler5printEv:
 249              	.LFB10:
  59:src/Scheduler.cpp **** 
  60:src/Scheduler.cpp **** void Scheduler::print()
  61:src/Scheduler.cpp **** {
 250              		.loc 1 61 1 is_stmt 1
 251              		.cfi_startproc
 252 0128 130101FE 		addi	sp,sp,-32
 253              		.cfi_def_cfa_offset 32
 254 012c 233C1100 		sd	ra,24(sp)
 255 0130 23388100 		sd	s0,16(sp)
 256 0134 23349100 		sd	s1,8(sp)
 257              		.cfi_offset 1, -8
 258              		.cfi_offset 8, -16
 259              		.cfi_offset 9, -24
 260 0138 13040102 		addi	s0,sp,32
 261              		.cfi_def_cfa 8, 0
  62:src/Scheduler.cpp ****     //trapPrintString("Scheduler print\n");
  63:src/Scheduler.cpp ****     PCB* curr = schedulerPCBHead;
 262              		.loc 1 63 5
 263              		.loc 1 63 10 is_stmt 0
 264 013c 97040000 		ld	s1,.LANCHOR0
 264      83B40400 
 265              	.LVL16:
 266              	.L22:
  64:src/Scheduler.cpp ****     while(curr != 0)
 267              		.loc 1 64 5 is_stmt 1
 268              		.loc 1 64 16
 269 0144 63880402 		beqz	s1,.L20
  65:src/Scheduler.cpp ****     {
  66:src/Scheduler.cpp ****         printInt((uint64)curr, 16);
 270              		.loc 1 66 9
 271              		.loc 1 66 17 is_stmt 0
 272 0148 13060000 		li	a2,0
 273 014c 93050001 		li	a1,16
 274 0150 1B850400 		sext.w	a0,s1
 275 0154 97000000 		call	_Z8printIntiii@plt
 275      E7800000 
 276              	.LVL17:
  67:src/Scheduler.cpp ****         printString("\n");
 277              		.loc 1 67 9 is_stmt 1
 278              		.loc 1 67 20 is_stmt 0
 279 015c 17050000 		lla	a0,.LC0
 279      13050500 
 280 0164 97000000 		call	_Z11printStringPKc@plt
 280      E7800000 
 281              	.LVL18:
  68:src/Scheduler.cpp ****         curr = curr->nextPCB;
 282              		.loc 1 68 9 is_stmt 1
 283              		.loc 1 68 14 is_stmt 0
 284 016c 83B48400 		ld	s1,8(s1)
 285              	.LVL19:
  64:src/Scheduler.cpp ****     {
 286              		.loc 1 64 5
GAS LISTING /tmp/ccYyV04g.s 			page 8


 287 0170 6FF05FFD 		j	.L22
 288              	.L20:
  69:src/Scheduler.cpp ****     }
  70:src/Scheduler.cpp **** }
 289              		.loc 1 70 1
 290 0174 83308101 		ld	ra,24(sp)
 291              		.cfi_restore 1
 292 0178 03340101 		ld	s0,16(sp)
 293              		.cfi_restore 8
 294              		.cfi_def_cfa 2, 32
 295 017c 83348100 		ld	s1,8(sp)
 296              		.cfi_restore 9
 297              	.LVL20:
 298 0180 13010102 		addi	sp,sp,32
 299              		.cfi_def_cfa_offset 0
 300 0184 67800000 		jr	ra
 301              		.cfi_endproc
 302              	.LFE10:
 304              		.globl	_ZN9Scheduler16schedulerPCBTailE
 305              		.globl	_ZN9Scheduler16schedulerPCBHeadE
 306              		.bss
 307              		.align	3
 308              		.set	.LANCHOR0,. + 0
 311              	_ZN9Scheduler16schedulerPCBHeadE:
 312 0000 00000000 		.zero	8
 312      00000000 
 315              	_ZN9Scheduler16schedulerPCBTailE:
 316 0008 00000000 		.zero	8
 316      00000000 
 317              		.text
 318              	.Letext0:
 319              		.file 3 "src/../h/../lib/hw.h"
 320              		.file 4 "src/../h/MemoryAllocator.hpp"
 321              		.file 5 "src/../h/Scheduler.hpp"
 322              		.file 6 "src/../test/printing.hpp"
GAS LISTING /tmp/ccYyV04g.s 			page 9


DEFINED SYMBOLS
                            *ABS*:0000000000000000 Scheduler.cpp
     /tmp/ccYyV04g.s:9      .text:0000000000000000 _ZN9SchedulernwEm
     /tmp/ccYyV04g.s:13     .text:0000000000000000 .L0 
     /tmp/ccYyV04g.s:15     .text:0000000000000000 .L0 
     /tmp/ccYyV04g.s:16     .text:0000000000000004 .L0 
     /tmp/ccYyV04g.s:19     .text:000000000000000c .L0 
     /tmp/ccYyV04g.s:20     .text:000000000000000c .L0 
     /tmp/ccYyV04g.s:22     .text:0000000000000010 .L0 
     /tmp/ccYyV04g.s:24     .text:0000000000000010 .L0 
     /tmp/ccYyV04g.s:25     .text:0000000000000010 .L0 
     /tmp/ccYyV04g.s:28     .text:0000000000000018 .L0 
     /tmp/ccYyV04g.s:29     .text:000000000000001c .L0 
     /tmp/ccYyV04g.s:31     .text:0000000000000020 .L0 
     /tmp/ccYyV04g.s:32     .text:0000000000000020 .L0 
     /tmp/ccYyV04g.s:34     .text:0000000000000024 .L0 
     /tmp/ccYyV04g.s:36     .text:0000000000000028 .L0 
     /tmp/ccYyV04g.s:42     .text:0000000000000028 _ZN9SchedulerdlEPv
     /tmp/ccYyV04g.s:45     .text:0000000000000028 .L0 
     /tmp/ccYyV04g.s:47     .text:0000000000000028 .L0 
     /tmp/ccYyV04g.s:48     .text:000000000000002c .L0 
     /tmp/ccYyV04g.s:51     .text:0000000000000034 .L0 
     /tmp/ccYyV04g.s:52     .text:0000000000000034 .L0 
     /tmp/ccYyV04g.s:54     .text:0000000000000038 .L0 
     /tmp/ccYyV04g.s:56     .text:0000000000000038 .L0 
     /tmp/ccYyV04g.s:57     .text:0000000000000038 .L0 
     /tmp/ccYyV04g.s:60     .text:0000000000000040 .L0 
     /tmp/ccYyV04g.s:61     .text:0000000000000044 .L0 
     /tmp/ccYyV04g.s:63     .text:0000000000000048 .L0 
     /tmp/ccYyV04g.s:64     .text:0000000000000048 .L0 
     /tmp/ccYyV04g.s:66     .text:000000000000004c .L0 
     /tmp/ccYyV04g.s:68     .text:0000000000000050 .L0 
     /tmp/ccYyV04g.s:74     .text:0000000000000050 _ZN9Scheduler7getSizeEv
     /tmp/ccYyV04g.s:77     .text:0000000000000050 .L0 
     /tmp/ccYyV04g.s:78     .text:0000000000000050 .L0 
     /tmp/ccYyV04g.s:79     .text:0000000000000054 .L0 
     /tmp/ccYyV04g.s:81     .text:0000000000000058 .L0 
     /tmp/ccYyV04g.s:83     .text:000000000000005c .L0 
     /tmp/ccYyV04g.s:86     .text:000000000000005c .L0 
     /tmp/ccYyV04g.s:87     .text:000000000000005c .L0 
     /tmp/ccYyV04g.s:88     .text:000000000000005c .L0 
     /tmp/ccYyV04g.s:91     .text:0000000000000064 .L0 
     /tmp/ccYyV04g.s:95     .text:0000000000000068 .L0 
     /tmp/ccYyV04g.s:96     .text:0000000000000068 .L0 
     /tmp/ccYyV04g.s:98     .text:000000000000006c .L0 
     /tmp/ccYyV04g.s:99     .text:000000000000006c .L0 
     /tmp/ccYyV04g.s:102    .text:0000000000000070 .L0 
     /tmp/ccYyV04g.s:103    .text:0000000000000070 .L0 
     /tmp/ccYyV04g.s:106    .text:0000000000000074 .L0 
     /tmp/ccYyV04g.s:109    .text:0000000000000078 .L0 
     /tmp/ccYyV04g.s:110    .text:0000000000000078 .L0 
     /tmp/ccYyV04g.s:113    .text:0000000000000080 .L0 
     /tmp/ccYyV04g.s:114    .text:0000000000000080 .L0 
     /tmp/ccYyV04g.s:116    .text:0000000000000084 .L0 
     /tmp/ccYyV04g.s:118    .text:0000000000000088 .L0 
     /tmp/ccYyV04g.s:124    .text:0000000000000088 _ZN9Scheduler3putEP3PCB
     /tmp/ccYyV04g.s:127    .text:0000000000000088 .L0 
GAS LISTING /tmp/ccYyV04g.s 			page 10


     /tmp/ccYyV04g.s:129    .text:0000000000000088 .L0 
     /tmp/ccYyV04g.s:130    .text:000000000000008c .L0 
     /tmp/ccYyV04g.s:132    .text:0000000000000090 .L0 
     /tmp/ccYyV04g.s:134    .text:0000000000000094 .L0 
     /tmp/ccYyV04g.s:140    .text:0000000000000094 .L0 
     /tmp/ccYyV04g.s:141    .text:0000000000000094 .L0 
     /tmp/ccYyV04g.s:142    .text:0000000000000094 .L0 
     /tmp/ccYyV04g.s:147    .text:0000000000000098 .L0 
     /tmp/ccYyV04g.s:148    .text:0000000000000098 .L0 
     /tmp/ccYyV04g.s:150    .text:000000000000009c .L0 
     /tmp/ccYyV04g.s:151    .text:000000000000009c .L0 
     /tmp/ccYyV04g.s:153    .text:00000000000000a4 .L0 
     /tmp/ccYyV04g.s:155    .text:00000000000000a8 .L0 
     /tmp/ccYyV04g.s:156    .text:00000000000000a8 .L0 
     /tmp/ccYyV04g.s:159    .text:00000000000000b4 .L0 
     /tmp/ccYyV04g.s:161    .text:00000000000000b8 .L0 
     /tmp/ccYyV04g.s:162    .text:00000000000000b8 .L0 
     /tmp/ccYyV04g.s:165    .text:00000000000000bc .L0 
     /tmp/ccYyV04g.s:166    .text:00000000000000c0 .L0 
     /tmp/ccYyV04g.s:167    .text:00000000000000c0 .L0 
     /tmp/ccYyV04g.s:168    .text:00000000000000c0 .L0 
     /tmp/ccYyV04g.s:170    .text:00000000000000c4 .L0 
     /tmp/ccYyV04g.s:173    .text:00000000000000c8 .L0 
     /tmp/ccYyV04g.s:175    .text:00000000000000c8 .L0 
     /tmp/ccYyV04g.s:176    .text:00000000000000c8 .L0 
     /tmp/ccYyV04g.s:179    .text:00000000000000d4 .L0 
     /tmp/ccYyV04g.s:181    .text:00000000000000dc .L0 
     /tmp/ccYyV04g.s:187    .text:00000000000000dc _ZN9Scheduler3getEv
     /tmp/ccYyV04g.s:190    .text:00000000000000dc .L0 
     /tmp/ccYyV04g.s:191    .text:00000000000000dc .L0 
     /tmp/ccYyV04g.s:192    .text:00000000000000e0 .L0 
     /tmp/ccYyV04g.s:194    .text:00000000000000e4 .L0 
     /tmp/ccYyV04g.s:196    .text:00000000000000e8 .L0 
     /tmp/ccYyV04g.s:198    .text:00000000000000e8 .L0 
     /tmp/ccYyV04g.s:199    .text:00000000000000e8 .L0 
     /tmp/ccYyV04g.s:201    .text:00000000000000f0 .L0 
     /tmp/ccYyV04g.s:204    .text:00000000000000f4 .L0 
     /tmp/ccYyV04g.s:205    .text:00000000000000f4 .L0 
     /tmp/ccYyV04g.s:206    .text:00000000000000f4 .L0 
     /tmp/ccYyV04g.s:208    .text:00000000000000f8 .L0 
     /tmp/ccYyV04g.s:210    .text:00000000000000fc .L0 
     /tmp/ccYyV04g.s:211    .text:00000000000000fc .L0 
     /tmp/ccYyV04g.s:214    .text:0000000000000104 .L0 
     /tmp/ccYyV04g.s:215    .text:0000000000000104 .L0 
     /tmp/ccYyV04g.s:219    .text:0000000000000108 .L0 
     /tmp/ccYyV04g.s:220    .text:0000000000000108 .L0 
     /tmp/ccYyV04g.s:221    .text:000000000000010c .L0 
     /tmp/ccYyV04g.s:222    .text:000000000000010c .L0 
     /tmp/ccYyV04g.s:223    .text:000000000000010c .L0 
     /tmp/ccYyV04g.s:225    .text:0000000000000110 .L0 
     /tmp/ccYyV04g.s:229    .text:0000000000000114 .L0 
     /tmp/ccYyV04g.s:231    .text:0000000000000114 .L0 
     /tmp/ccYyV04g.s:232    .text:0000000000000114 .L0 
     /tmp/ccYyV04g.s:235    .text:0000000000000120 .L0 
     /tmp/ccYyV04g.s:237    .text:0000000000000128 .L0 
     /tmp/ccYyV04g.s:248    .text:0000000000000128 _ZN9Scheduler5printEv
     /tmp/ccYyV04g.s:251    .text:0000000000000128 .L0 
GAS LISTING /tmp/ccYyV04g.s 			page 11


     /tmp/ccYyV04g.s:252    .text:0000000000000128 .L0 
     /tmp/ccYyV04g.s:253    .text:000000000000012c .L0 
     /tmp/ccYyV04g.s:257    .text:0000000000000138 .L0 
     /tmp/ccYyV04g.s:258    .text:0000000000000138 .L0 
     /tmp/ccYyV04g.s:259    .text:0000000000000138 .L0 
     /tmp/ccYyV04g.s:261    .text:000000000000013c .L0 
     /tmp/ccYyV04g.s:263    .text:000000000000013c .L0 
     /tmp/ccYyV04g.s:264    .text:000000000000013c .L0 
     /tmp/ccYyV04g.s:268    .text:0000000000000144 .L0 
     /tmp/ccYyV04g.s:269    .text:0000000000000144 .L0 
     /tmp/ccYyV04g.s:271    .text:0000000000000148 .L0 
     /tmp/ccYyV04g.s:272    .text:0000000000000148 .L0 
     /tmp/ccYyV04g.s:278    .text:000000000000015c .L0 
     /tmp/ccYyV04g.s:279    .text:000000000000015c .L0 
     /tmp/ccYyV04g.s:283    .text:000000000000016c .L0 
     /tmp/ccYyV04g.s:284    .text:000000000000016c .L0 
     /tmp/ccYyV04g.s:287    .text:0000000000000170 .L0 
     /tmp/ccYyV04g.s:290    .text:0000000000000174 .L0 
     /tmp/ccYyV04g.s:291    .text:0000000000000178 .L0 
     /tmp/ccYyV04g.s:293    .text:000000000000017c .L0 
     /tmp/ccYyV04g.s:294    .text:000000000000017c .L0 
     /tmp/ccYyV04g.s:296    .text:0000000000000180 .L0 
     /tmp/ccYyV04g.s:299    .text:0000000000000184 .L0 
     /tmp/ccYyV04g.s:301    .text:0000000000000188 .L0 
     /tmp/ccYyV04g.s:315    .bss:0000000000000008 _ZN9Scheduler16schedulerPCBTailE
     /tmp/ccYyV04g.s:311    .bss:0000000000000000 _ZN9Scheduler16schedulerPCBHeadE
     /tmp/ccYyV04g.s:308    .bss:0000000000000000 .LANCHOR0
     /tmp/ccYyV04g.s:323    .text:0000000000000188 .L0 
     /tmp/ccYyV04g.s:88     .text:000000000000005c .L0 
     /tmp/ccYyV04g.s:151    .text:000000000000009c .L0 
     /tmp/ccYyV04g.s:156    .text:00000000000000a8 .L0 
     /tmp/ccYyV04g.s:176    .text:00000000000000c8 .L0 
     /tmp/ccYyV04g.s:199    .text:00000000000000e8 .L0 
     /tmp/ccYyV04g.s:211    .text:00000000000000fc .L0 
     /tmp/ccYyV04g.s:232    .text:0000000000000114 .L0 
     /tmp/ccYyV04g.s:264    .text:000000000000013c .L0 
     /tmp/ccYyV04g.s:242    .rodata.str1.8:0000000000000000 .LC0
     /tmp/ccYyV04g.s:279    .text:000000000000015c .L0 
     /tmp/ccYyV04g.s:107    .text:0000000000000078 .L6
     /tmp/ccYyV04g.s:93     .text:0000000000000068 .L7
     /tmp/ccYyV04g.s:172    .text:00000000000000c8 .L13
     /tmp/ccYyV04g.s:163    .text:00000000000000bc .L9
     /tmp/ccYyV04g.s:218    .text:0000000000000108 .L14
     /tmp/ccYyV04g.s:228    .text:0000000000000114 .L19
     /tmp/ccYyV04g.s:212    .text:0000000000000104 .L17
     /tmp/ccYyV04g.s:288    .text:0000000000000174 .L20
     /tmp/ccYyV04g.s:266    .text:0000000000000144 .L22
     /tmp/ccYyV04g.s:1399   .debug_abbrev:0000000000000000 .Ldebug_abbrev0
     /tmp/ccYyV04g.s:2351   .debug_str:00000000000000cc .LASF140
     /tmp/ccYyV04g.s:2601   .debug_str:00000000000009df .LASF141
     /tmp/ccYyV04g.s:2381   .debug_str:0000000000000231 .LASF142
     /tmp/ccYyV04g.s:5      .text:0000000000000000 .Ltext0
     /tmp/ccYyV04g.s:318    .text:0000000000000188 .Letext0
     /tmp/ccYyV04g.s:2323   .debug_line:0000000000000000 .Ldebug_line0
     /tmp/ccYyV04g.s:2489   .debug_str:00000000000005eb .LASF0
     /tmp/ccYyV04g.s:2511   .debug_str:000000000000069a .LASF1
     /tmp/ccYyV04g.s:2469   .debug_str:0000000000000545 .LASF2
GAS LISTING /tmp/ccYyV04g.s 			page 12


     /tmp/ccYyV04g.s:2441   .debug_str:0000000000000480 .LASF4
     /tmp/ccYyV04g.s:2557   .debug_str:0000000000000830 .LASF3
     /tmp/ccYyV04g.s:2353   .debug_str:0000000000000190 .LASF5
     /tmp/ccYyV04g.s:2387   .debug_str:0000000000000278 .LASF6
     /tmp/ccYyV04g.s:2515   .debug_str:00000000000006bc .LASF7
     /tmp/ccYyV04g.s:2487   .debug_str:00000000000005d8 .LASF8
     /tmp/ccYyV04g.s:2593   .debug_str:0000000000000981 .LASF9
     /tmp/ccYyV04g.s:2423   .debug_str:00000000000003c9 .LASF10
     /tmp/ccYyV04g.s:2531   .debug_str:0000000000000760 .LASF11
     /tmp/ccYyV04g.s:2581   .debug_str:0000000000000900 .LASF12
     /tmp/ccYyV04g.s:2357   .debug_str:000000000000019f .LASF13
     /tmp/ccYyV04g.s:2329   .debug_str:0000000000000031 .LASF14
     /tmp/ccYyV04g.s:2371   .debug_str:00000000000001f7 .LASF15
     /tmp/ccYyV04g.s:2553   .debug_str:0000000000000804 .LASF16
     /tmp/ccYyV04g.s:2383   .debug_str:0000000000000254 .LASF17
     /tmp/ccYyV04g.s:2465   .debug_str:000000000000052a .LASF48
     /tmp/ccYyV04g.s:2359   .debug_str:00000000000001af .LASF20
     /tmp/ccYyV04g.s:2571   .debug_str:00000000000008af .LASF18
     /tmp/ccYyV04g.s:2619   .debug_str:0000000000000a79 .LASF19
     /tmp/ccYyV04g.s:2605   .debug_str:00000000000009fe .LASF21
     /tmp/ccYyV04g.s:2385   .debug_str:000000000000026a .LASF22
     /tmp/ccYyV04g.s:2391   .debug_str:0000000000000287 .LASF23
     /tmp/ccYyV04g.s:2547   .debug_str:00000000000007b9 .LASF24
     /tmp/ccYyV04g.s:2565   .debug_str:0000000000000877 .LASF25
     /tmp/ccYyV04g.s:2561   .debug_str:0000000000000853 .LASF26
     /tmp/ccYyV04g.s:2569   .debug_str:000000000000088e .LASF28
     /tmp/ccYyV04g.s:2537   .debug_str:0000000000000790 .LASF27
     /tmp/ccYyV04g.s:2421   .debug_str:00000000000003a8 .LASF29
     /tmp/ccYyV04g.s:2349   .debug_str:00000000000000c1 .LASF38
     /tmp/ccYyV04g.s:2549   .debug_str:00000000000007c2 .LASF40
     /tmp/ccYyV04g.s:2427   .debug_str:00000000000003e0 .LASF32
     /tmp/ccYyV04g.s:2411   .debug_str:0000000000000317 .LASF34
     /tmp/ccYyV04g.s:2617   .debug_str:0000000000000a63 .LASF30
     /tmp/ccYyV04g.s:2415   .debug_str:0000000000000355 .LASF31
     /tmp/ccYyV04g.s:2607   .debug_str:0000000000000a07 .LASF33
     /tmp/ccYyV04g.s:2499   .debug_str:000000000000062c .LASF35
     /tmp/ccYyV04g.s:2451   .debug_str:00000000000004af .LASF36
     /tmp/ccYyV04g.s:2525   .debug_str:0000000000000726 .LASF37
     /tmp/ccYyV04g.s:2461   .debug_str:000000000000050d .LASF39
     /tmp/ccYyV04g.s:2591   .debug_str:0000000000000959 .LASF41
     /tmp/ccYyV04g.s:2343   .debug_str:000000000000008b .LASF42
     /tmp/ccYyV04g.s:2429   .debug_str:00000000000003fb .LASF43
     /tmp/ccYyV04g.s:2585   .debug_str:0000000000000930 .LASF44
     /tmp/ccYyV04g.s:2551   .debug_str:00000000000007e5 .LASF45
     /tmp/ccYyV04g.s:2375   .debug_str:0000000000000213 .LASF46
     /tmp/ccYyV04g.s:2327   .debug_str:0000000000000013 .LASF47
     /tmp/ccYyV04g.s:2527   .debug_str:0000000000000750 .LASF49
     /tmp/ccYyV04g.s:2459   .debug_str:00000000000004f5 .LASF143
     /tmp/ccYyV04g.s:2433   .debug_str:0000000000000435 .LASF144
     /tmp/ccYyV04g.s:2603   .debug_str:00000000000009f1 .LASF50
     /tmp/ccYyV04g.s:2579   .debug_str:00000000000008ee .LASF51
     /tmp/ccYyV04g.s:2395   .debug_str:00000000000002a2 .LASF52
     /tmp/ccYyV04g.s:2493   .debug_str:00000000000005fe .LASF53
     /tmp/ccYyV04g.s:2355   .debug_str:0000000000000197 .LASF54
     /tmp/ccYyV04g.s:2403   .debug_str:00000000000002cd .LASF145
     /tmp/ccYyV04g.s:2483   .debug_str:00000000000005b1 .LASF55
     /tmp/ccYyV04g.s:2589   .debug_str:0000000000000943 .LASF56
GAS LISTING /tmp/ccYyV04g.s 			page 13


     /tmp/ccYyV04g.s:2377   .debug_str:0000000000000219 .LASF57
     /tmp/ccYyV04g.s:2339   .debug_str:000000000000006a .LASF58
     /tmp/ccYyV04g.s:2335   .debug_str:000000000000005b .LASF146
     /tmp/ccYyV04g.s:2529   .debug_str:000000000000075a .LASF59
     /tmp/ccYyV04g.s:2517   .debug_str:00000000000006cf .LASF60
     /tmp/ccYyV04g.s:2481   .debug_str:00000000000005a7 .LASF61
     /tmp/ccYyV04g.s:2503   .debug_str:0000000000000661 .LASF62
     /tmp/ccYyV04g.s:2393   .debug_str:000000000000029a .LASF63
     /tmp/ccYyV04g.s:2337   .debug_str:0000000000000061 .LASF64
     /tmp/ccYyV04g.s:2389   .debug_str:000000000000027f .LASF65
     /tmp/ccYyV04g.s:2491   .debug_str:00000000000005f8 .LASF66
     /tmp/ccYyV04g.s:2523   .debug_str:000000000000071b .LASF67
     /tmp/ccYyV04g.s:2597   .debug_str:00000000000009b9 .LASF147
     /tmp/ccYyV04g.s:2545   .debug_str:00000000000007b4 .LASF68
     /tmp/ccYyV04g.s:2543   .debug_str:00000000000007af .LASF69
     /tmp/ccYyV04g.s:2365   .debug_str:00000000000001c9 .LASF70
     /tmp/ccYyV04g.s:2509   .debug_str:0000000000000694 .LASF71
     /tmp/ccYyV04g.s:2435   .debug_str:0000000000000449 .LASF72
     /tmp/ccYyV04g.s:2361   .debug_str:00000000000001bb .LASF73
     /tmp/ccYyV04g.s:2431   .debug_str:0000000000000422 .LASF74
     /tmp/ccYyV04g.s:2501   .debug_str:000000000000065b .LASF75
     /tmp/ccYyV04g.s:2477   .debug_str:000000000000058e .LASF76
     /tmp/ccYyV04g.s:2401   .debug_str:00000000000002c5 .LASF77
     /tmp/ccYyV04g.s:2559   .debug_str:0000000000000842 .LASF78
     /tmp/ccYyV04g.s:2463   .debug_str:000000000000051d .LASF81
     /tmp/ccYyV04g.s:2521   .debug_str:0000000000000703 .LASF83
     /tmp/ccYyV04g.s:2443   .debug_str:0000000000000487 .LASF79
     /tmp/ccYyV04g.s:2369   .debug_str:00000000000001ea .LASF80
     /tmp/ccYyV04g.s:2449   .debug_str:00000000000004a6 .LASF82
     /tmp/ccYyV04g.s:2473   .debug_str:0000000000000570 .LASF84
     /tmp/ccYyV04g.s:2479   .debug_str:000000000000059e .LASF85
     /tmp/ccYyV04g.s:2535   .debug_str:0000000000000774 .LASF86
     /tmp/ccYyV04g.s:2497   .debug_str:000000000000061d .LASF87
     /tmp/ccYyV04g.s:2575   .debug_str:00000000000008ca .LASF88
     /tmp/ccYyV04g.s:2417   .debug_str:0000000000000383 .LASF89
     /tmp/ccYyV04g.s:2563   .debug_str:000000000000085d .LASF90
     /tmp/ccYyV04g.s:2455   .debug_str:00000000000004e1 .LASF91
     /tmp/ccYyV04g.s:2397   .debug_str:00000000000002b2 .LASF92
     /tmp/ccYyV04g.s:2373   .debug_str:0000000000000203 .LASF93
     /tmp/ccYyV04g.s:2341   .debug_str:000000000000007b .LASF94
     /tmp/ccYyV04g.s:2567   .debug_str:0000000000000881 .LASF95
     /tmp/ccYyV04g.s:2445   .debug_str:0000000000000493 .LASF96
     /tmp/ccYyV04g.s:2405   .debug_str:00000000000002e5 .LASF97
     /tmp/ccYyV04g.s:2467   .debug_str:000000000000053a .LASF98
     /tmp/ccYyV04g.s:2573   .debug_str:00000000000008b4 .LASF99
     /tmp/ccYyV04g.s:2475   .debug_str:0000000000000583 .LASF100
     /tmp/ccYyV04g.s:2555   .debug_str:000000000000081a .LASF101
     /tmp/ccYyV04g.s:2331   .debug_str:0000000000000041 .LASF102
     /tmp/ccYyV04g.s:2437   .debug_str:0000000000000459 .LASF103
     /tmp/ccYyV04g.s:2347   .debug_str:00000000000000a2 .LASF104
     /tmp/ccYyV04g.s:2333   .debug_str:0000000000000049 .LASF105
     /tmp/ccYyV04g.s:2471   .debug_str:0000000000000553 .LASF106
     /tmp/ccYyV04g.s:2419   .debug_str:0000000000000392 .LASF107
     /tmp/ccYyV04g.s:2485   .debug_str:00000000000005b7 .LASF108
     /tmp/ccYyV04g.s:2439   .debug_str:000000000000046d .LASF109
     /tmp/ccYyV04g.s:2507   .debug_str:0000000000000676 .LASF110
     /tmp/ccYyV04g.s:2325   .debug_str:0000000000000000 .LASF111
GAS LISTING /tmp/ccYyV04g.s 			page 14


     /tmp/ccYyV04g.s:2611   .debug_str:0000000000000a2f .LASF112
     /tmp/ccYyV04g.s:2367   .debug_str:00000000000001d5 .LASF113
     /tmp/ccYyV04g.s:2409   .debug_str:00000000000002f7 .LASF114
     /tmp/ccYyV04g.s:2425   .debug_str:00000000000003d7 .LASF115
     /tmp/ccYyV04g.s:2587   .debug_str:0000000000000938 .LASF116
     /tmp/ccYyV04g.s:2577   .debug_str:00000000000008e4 .LASF117
     /tmp/ccYyV04g.s:2495   .debug_str:0000000000000611 .LASF118
     /tmp/ccYyV04g.s:2599   .debug_str:00000000000009d1 .LASF119
     /tmp/ccYyV04g.s:2595   .debug_str:0000000000000991 .LASF120
     /tmp/ccYyV04g.s:2621   .debug_str:0000000000000a7e .LASF121
     /tmp/ccYyV04g.s:2519   .debug_str:00000000000006d7 .LASF122
     /tmp/ccYyV04g.s:2399   .debug_str:00000000000002be .LASF123
     /tmp/ccYyV04g.s:2541   .debug_str:000000000000079e .LASF124
     /tmp/ccYyV04g.s:2363   .debug_str:00000000000001c4 .LASF125
     /tmp/ccYyV04g.s:2615   .debug_str:0000000000000a5e .LASF126
     /tmp/ccYyV04g.s:2345   .debug_str:000000000000009a .LASF127
     /tmp/ccYyV04g.s:2457   .debug_str:00000000000004ef .LASF128
     /tmp/ccYyV04g.s:2447   .debug_str:000000000000049e .LASF129
     /tmp/ccYyV04g.s:2613   .debug_str:0000000000000a4d .LASF130
     /tmp/ccYyV04g.s:2407   .debug_str:00000000000002f2 .LASF131
     /tmp/ccYyV04g.s:2583   .debug_str:000000000000090f .LASF132
     /tmp/ccYyV04g.s:2453   .debug_str:00000000000004c0 .LASF133
     /tmp/ccYyV04g.s:249    .text:0000000000000128 .LFB10
     /tmp/ccYyV04g.s:302    .text:0000000000000188 .LFE10
     /tmp/ccYyV04g.s:2533   .debug_str:000000000000076f .LASF134
     /tmp/ccYyV04g.s:2237   .debug_loc:0000000000000000 .LLST6
     /tmp/ccYyV04g.s:276    .text:000000000000015c .LVL17
     /tmp/ccYyV04g.s:281    .text:000000000000016c .LVL18
     /tmp/ccYyV04g.s:188    .text:00000000000000dc .LFB9
     /tmp/ccYyV04g.s:238    .text:0000000000000128 .LFE9
     /tmp/ccYyV04g.s:2379   .debug_str:000000000000022a .LASF135
     /tmp/ccYyV04g.s:2244   .debug_loc:0000000000000023 .LLST5
     /tmp/ccYyV04g.s:125    .text:0000000000000088 .LFB8
     /tmp/ccYyV04g.s:182    .text:00000000000000dc .LFE8
     /tmp/ccYyV04g.s:137    .text:0000000000000094 .LBB4
     /tmp/ccYyV04g.s:145    .text:0000000000000098 .LBE4
     /tmp/ccYyV04g.s:2255   .debug_loc:0000000000000059 .LLST3
     /tmp/ccYyV04g.s:2263   .debug_loc:000000000000007d .LLST4
     /tmp/ccYyV04g.s:75     .text:0000000000000050 .LFB7
     /tmp/ccYyV04g.s:119    .text:0000000000000088 .LFE7
     /tmp/ccYyV04g.s:2270   .debug_loc:00000000000000a0 .LLST2
     /tmp/ccYyV04g.s:43     .text:0000000000000028 .LFB6
     /tmp/ccYyV04g.s:69     .text:0000000000000050 .LFE6
     /tmp/ccYyV04g.s:2282   .debug_loc:00000000000000d7 .LLST1
     /tmp/ccYyV04g.s:58     .text:0000000000000040 .LVL3
     /tmp/ccYyV04g.s:10     .text:0000000000000000 .LFB5
     /tmp/ccYyV04g.s:37     .text:0000000000000028 .LFE5
     /tmp/ccYyV04g.s:2296   .debug_loc:0000000000000110 .LLST0
     /tmp/ccYyV04g.s:26     .text:0000000000000018 .LVL1
     /tmp/ccYyV04g.s:2539   .debug_str:0000000000000799 .LASF148
     /tmp/ccYyV04g.s:2513   .debug_str:00000000000006ad .LASF136
     /tmp/ccYyV04g.s:2413   .debug_str:000000000000034c .LASF138
     /tmp/ccYyV04g.s:2609   .debug_str:0000000000000a1c .LASF137
     /tmp/ccYyV04g.s:2505   .debug_str:000000000000066a .LASF139
     /tmp/ccYyV04g.s:265    .text:0000000000000144 .LVL16
     /tmp/ccYyV04g.s:297    .text:0000000000000180 .LVL20
     /tmp/ccYyV04g.s:203    .text:00000000000000f4 .LVL13
GAS LISTING /tmp/ccYyV04g.s 			page 15


     /tmp/ccYyV04g.s:217    .text:0000000000000108 .LVL14
     /tmp/ccYyV04g.s:227    .text:0000000000000114 .LVL15
     /tmp/ccYyV04g.s:136    .text:0000000000000094 .LVL11
     /tmp/ccYyV04g.s:143    .text:0000000000000098 .LVL12
     /tmp/ccYyV04g.s:85     .text:000000000000005c .LVL4
     /tmp/ccYyV04g.s:92     .text:0000000000000068 .LVL6
     /tmp/ccYyV04g.s:111    .text:000000000000007c .LVL9
     /tmp/ccYyV04g.s:46     .text:0000000000000028 .LVL2
     /tmp/ccYyV04g.s:14     .text:0000000000000000 .LVL0
     /tmp/ccYyV04g.s:324    .debug_info:0000000000000000 .Ldebug_info0

UNDEFINED SYMBOLS
_ZN15MemoryAllocator7kmallocEm
_ZN15MemoryAllocator5kfreeEPv
_Z8printIntiii
_Z11printStringPKc
