GAS LISTING /tmp/cc44vO9c.s 			page 1


   1              		.file	"SleepPCBList.cpp"
   2              		.option pic
   3              		.option norelax
   4              		.text
   5              	.Ltext0:
   6              		.align	2
   7              		.globl	_ZN12SleepPCBList17insertSleepingPCBEv
   9              	_ZN12SleepPCBList17insertSleepingPCBEv:
  10              	.LFB21:
  11              		.file 1 "src/SleepPCBList.cpp"
   1:src/SleepPCBList.cpp **** //
   2:src/SleepPCBList.cpp **** // Created by os on 5/11/22.
   3:src/SleepPCBList.cpp **** //
   4:src/SleepPCBList.cpp **** 
   5:src/SleepPCBList.cpp **** #include "../h/SleepPCBList.hpp"
   6:src/SleepPCBList.cpp **** 
   7:src/SleepPCBList.cpp **** PCB* SleepPCBList::sleepingPCBHead = 0;
   8:src/SleepPCBList.cpp **** 
   9:src/SleepPCBList.cpp **** void SleepPCBList::insertSleepingPCB()
  10:src/SleepPCBList.cpp **** {
  12              		.loc 1 10 1
  13              		.cfi_startproc
  14 0000 130101FF 		addi	sp,sp,-16
  15              		.cfi_def_cfa_offset 16
  16 0004 23348100 		sd	s0,8(sp)
  17              		.cfi_offset 8, -8
  18 0008 13040101 		addi	s0,sp,16
  19              		.cfi_def_cfa 8, 0
  11:src/SleepPCBList.cpp ****     PCB::running->setState(PCB::SLEEPING);
  20              		.loc 1 11 5
  21              		.loc 1 11 27 is_stmt 0
  22 000c 97070000 		la	a5,_ZN3PCB7runningE
  22      83B70700 
  23 0014 83B50700 		ld	a1,0(a5)
  24              	.LVL0:
  25              	.LBB31:
  26              	.LBB32:
  27              		.file 2 "src/../h/PCB.hpp"
   1:src/../h/PCB.hpp **** //
   2:src/../h/PCB.hpp **** // Created by os on 4/27/22.
   3:src/../h/PCB.hpp **** //
   4:src/../h/PCB.hpp **** 
   5:src/../h/PCB.hpp **** #ifndef PROJECT_BASE_V1_0_PCB_HPP
   6:src/../h/PCB.hpp **** #define PROJECT_BASE_V1_0_PCB_HPP
   7:src/../h/PCB.hpp **** 
   8:src/../h/PCB.hpp **** #include "../lib/hw.h"
   9:src/../h/PCB.hpp **** #include "Scheduler.hpp"
  10:src/../h/PCB.hpp **** #include "Riscv.hpp"
  11:src/../h/PCB.hpp **** 
  12:src/../h/PCB.hpp **** class PCB
  13:src/../h/PCB.hpp **** {
  14:src/../h/PCB.hpp **** public:
  15:src/../h/PCB.hpp ****     using Body = void (*)(void*);
  16:src/../h/PCB.hpp **** 
  17:src/../h/PCB.hpp ****     PCB(Body body,  void* args, void* stack_space, uint64 timeSlice);
  18:src/../h/PCB.hpp ****     ~PCB();
  19:src/../h/PCB.hpp **** 
GAS LISTING /tmp/cc44vO9c.s 			page 2


  20:src/../h/PCB.hpp ****     void start();
  21:src/../h/PCB.hpp ****     static void dispatch();
  22:src/../h/PCB.hpp ****     static void sleep(time_t);
  23:src/../h/PCB.hpp **** 
  24:src/../h/PCB.hpp ****     static PCB* running;
  25:src/../h/PCB.hpp ****     static PCB* exitingPCB;
  26:src/../h/PCB.hpp **** 
  27:src/../h/PCB.hpp ****     static uint64 timeSliceCounter;
  28:src/../h/PCB.hpp ****     uint64 getTimeSlice() { return timeSlice;}
  29:src/../h/PCB.hpp **** 
  30:src/../h/PCB.hpp ****     void* operator new(size_t size);
  31:src/../h/PCB.hpp ****     void operator delete(void *p);
  32:src/../h/PCB.hpp **** 
  33:src/../h/PCB.hpp ****     enum State{READY, RUNNING, SUSPENDED, FINISHED, EXITING, SLEEPING};
  34:src/../h/PCB.hpp ****     State getState() {return state;}
  35:src/../h/PCB.hpp ****     void setState(State s) {state = s;}
  28              		.loc 2 35 29 is_stmt 1
  29              		.loc 2 35 35 is_stmt 0
  30 0018 93075000 		li	a5,5
  31 001c 23A8F502 		sw	a5,48(a1)
  32              	.LVL1:
  33              	.LBE32:
  34              	.LBE31:
  12:src/SleepPCBList.cpp ****     //Riscv::printString("Inserting sleeping PCB...\n");
  13:src/SleepPCBList.cpp ****     PCB* prev = 0;
  35              		.loc 1 13 5 is_stmt 1
  14:src/SleepPCBList.cpp ****     PCB* curr = sleepingPCBHead;
  36              		.loc 1 14 5
  37              		.loc 1 14 10 is_stmt 0
  38 0020 97070000 		ld	a5,.LANCHOR0
  38      83B70700 
  39              	.LVL2:
  13:src/SleepPCBList.cpp ****     PCB* curr = sleepingPCBHead;
  40              		.loc 1 13 10
  41 0028 13060000 		li	a2,0
  42              	.LVL3:
  43              	.L4:
  15:src/SleepPCBList.cpp ****     while(curr != 0)
  44              		.loc 1 15 5 is_stmt 1
  45              		.loc 1 15 16
  46 002c 63800702 		beqz	a5,.L2
  16:src/SleepPCBList.cpp ****     {
  17:src/SleepPCBList.cpp ****         if(PCB::running->getTimeToSleep() < curr->getTimeToSleep())
  47              		.loc 1 17 9
  48              	.LVL4:
  49              	.LBB33:
  50              	.LBB34:
  36:src/../h/PCB.hpp ****     void setTimeToSleep(uint64 time) {timeToSleep = time;}
  37:src/../h/PCB.hpp ****     uint64 getTimeToSleep() {return timeToSleep;}
  51              		.loc 2 37 30
  52              		.loc 2 37 37 is_stmt 0
  53 0030 83B60501 		ld	a3,16(a1)
  54              	.LVL5:
  55              	.LBE34:
  56              	.LBE33:
  57              	.LBB35:
  58              	.LBB36:
GAS LISTING /tmp/cc44vO9c.s 			page 3


  59              		.loc 2 37 30 is_stmt 1
  60              		.loc 2 37 37 is_stmt 0
  61 0034 03B70701 		ld	a4,16(a5)
  62              	.LVL6:
  63              	.LBE36:
  64              	.LBE35:
  65              		.loc 1 17 9
  66 0038 63E8E600 		bltu	a3,a4,.L8
  18:src/SleepPCBList.cpp ****         {
  19:src/SleepPCBList.cpp ****             PCB::running->nextPCB = curr;
  20:src/SleepPCBList.cpp ****             break;
  21:src/SleepPCBList.cpp ****         }
  22:src/SleepPCBList.cpp ****         prev = curr;
  67              		.loc 1 22 9 is_stmt 1
  68              	.LVL7:
  23:src/SleepPCBList.cpp ****         curr=curr->nextPCB;
  69              		.loc 1 23 9
  22:src/SleepPCBList.cpp ****         curr=curr->nextPCB;
  70              		.loc 1 22 14 is_stmt 0
  71 003c 13860700 		mv	a2,a5
  72              		.loc 1 23 13
  73 0040 83B70700 		ld	a5,0(a5)
  74              	.LVL8:
  15:src/SleepPCBList.cpp ****     {
  75              		.loc 1 15 5
  76 0044 6FF09FFE 		j	.L4
  77              	.L8:
  19:src/SleepPCBList.cpp ****             break;
  78              		.loc 1 19 13 is_stmt 1
  19:src/SleepPCBList.cpp ****             break;
  79              		.loc 1 19 35 is_stmt 0
  80 0048 23B0F500 		sd	a5,0(a1)
  20:src/SleepPCBList.cpp ****         }
  81              		.loc 1 20 13 is_stmt 1
  82              	.L2:
  24:src/SleepPCBList.cpp ****     }
  25:src/SleepPCBList.cpp **** 
  26:src/SleepPCBList.cpp ****     if(prev == 0)
  83              		.loc 1 26 5
  84 004c 63080602 		beqz	a2,.L9
  27:src/SleepPCBList.cpp ****     {
  28:src/SleepPCBList.cpp ****         sleepingPCBHead = PCB::running;
  29:src/SleepPCBList.cpp ****         if(sleepingPCBHead->nextPCB != 0)
  30:src/SleepPCBList.cpp ****             sleepingPCBHead->nextPCB->setTimeToSleep(sleepingPCBHead->nextPCB->getTimeToSleep() - s
  31:src/SleepPCBList.cpp ****     }
  32:src/SleepPCBList.cpp ****     else
  33:src/SleepPCBList.cpp ****     {
  34:src/SleepPCBList.cpp ****         PCB::running->setTimeToSleep(PCB::running->getTimeToSleep() - prev->getTimeToSleep());
  85              		.loc 1 34 9
  86              		.loc 1 34 37 is_stmt 0
  87 0050 97070000 		la	a5,_ZN3PCB7runningE
  87      83B70700 
  88              	.LVL9:
  89 0058 83B70700 		ld	a5,0(a5)
  90              	.LVL10:
  91              	.LBB37:
  92              	.LBB38:
GAS LISTING /tmp/cc44vO9c.s 			page 4


  93              		.loc 2 37 30 is_stmt 1
  94              		.loc 2 37 37 is_stmt 0
  95 005c 03B70701 		ld	a4,16(a5)
  96              	.LVL11:
  97              	.LBE38:
  98              	.LBE37:
  99              	.LBB39:
 100              	.LBB40:
 101              		.loc 2 37 30 is_stmt 1
 102              		.loc 2 37 37 is_stmt 0
 103 0060 83360601 		ld	a3,16(a2)
 104              	.LVL12:
 105              	.LBE40:
 106              	.LBE39:
 107              		.loc 1 34 37
 108 0064 3307D740 		sub	a4,a4,a3
 109              	.LVL13:
 110              	.LBB41:
 111              	.LBB42:
  36:src/../h/PCB.hpp ****     uint64 getTimeToSleep() {return timeToSleep;}
 112              		.loc 2 36 39 is_stmt 1
  36:src/../h/PCB.hpp ****     uint64 getTimeToSleep() {return timeToSleep;}
 113              		.loc 2 36 51 is_stmt 0
 114 0068 23B8E700 		sd	a4,16(a5)
 115              	.LVL14:
 116              	.LBE42:
 117              	.LBE41:
  35:src/SleepPCBList.cpp ****         prev->nextPCB = PCB::running;
 118              		.loc 1 35 9 is_stmt 1
 119              		.loc 1 35 23 is_stmt 0
 120 006c 2330F600 		sd	a5,0(a2)
 121              	.L1:
  36:src/SleepPCBList.cpp ****     }
  37:src/SleepPCBList.cpp **** }
 122              		.loc 1 37 1
 123 0070 03348100 		ld	s0,8(sp)
 124              		.cfi_remember_state
 125              		.cfi_restore 8
 126              		.cfi_def_cfa 2, 16
 127 0074 13010101 		addi	sp,sp,16
 128              		.cfi_def_cfa_offset 0
 129 0078 67800000 		jr	ra
 130              	.LVL15:
 131              	.L9:
 132              		.cfi_restore_state
  28:src/SleepPCBList.cpp ****         if(sleepingPCBHead->nextPCB != 0)
 133              		.loc 1 28 9 is_stmt 1
  28:src/SleepPCBList.cpp ****         if(sleepingPCBHead->nextPCB != 0)
 134              		.loc 1 28 25 is_stmt 0
 135 007c 97070000 		la	a5,_ZN3PCB7runningE
 135      83B70700 
 136              	.LVL16:
 137 0084 83B70700 		ld	a5,0(a5)
 138 0088 17070000 		sd	a5,.LANCHOR0,a4
 138      2330F700 
  29:src/SleepPCBList.cpp ****             sleepingPCBHead->nextPCB->setTimeToSleep(sleepingPCBHead->nextPCB->getTimeToSleep() - s
 139              		.loc 1 29 9 is_stmt 1
GAS LISTING /tmp/cc44vO9c.s 			page 5


  29:src/SleepPCBList.cpp ****             sleepingPCBHead->nextPCB->setTimeToSleep(sleepingPCBHead->nextPCB->getTimeToSleep() - s
 140              		.loc 1 29 29 is_stmt 0
 141 0090 03B70700 		ld	a4,0(a5)
  29:src/SleepPCBList.cpp ****             sleepingPCBHead->nextPCB->setTimeToSleep(sleepingPCBHead->nextPCB->getTimeToSleep() - s
 142              		.loc 1 29 9
 143 0094 E30E07FC 		beqz	a4,.L1
  30:src/SleepPCBList.cpp ****     }
 144              		.loc 1 30 13 is_stmt 1
 145              	.LVL17:
 146              	.LBB43:
 147              	.LBB44:
 148              		.loc 2 37 30
 149              		.loc 2 37 37 is_stmt 0
 150 0098 83360701 		ld	a3,16(a4)
 151              	.LVL18:
 152              	.LBE44:
 153              	.LBE43:
 154              	.LBB45:
 155              	.LBB46:
 156              		.loc 2 37 30 is_stmt 1
 157              		.loc 2 37 37 is_stmt 0
 158 009c 83B70701 		ld	a5,16(a5)
 159              	.LVL19:
 160              	.LBE46:
 161              	.LBE45:
  30:src/SleepPCBList.cpp ****     }
 162              		.loc 1 30 53
 163 00a0 B387F640 		sub	a5,a3,a5
 164              	.LVL20:
 165              	.LBB47:
 166              	.LBB48:
  36:src/../h/PCB.hpp ****     uint64 getTimeToSleep() {return timeToSleep;}
 167              		.loc 2 36 39 is_stmt 1
  36:src/../h/PCB.hpp ****     uint64 getTimeToSleep() {return timeToSleep;}
 168              		.loc 2 36 51 is_stmt 0
 169 00a4 2338F700 		sd	a5,16(a4)
  36:src/../h/PCB.hpp ****     uint64 getTimeToSleep() {return timeToSleep;}
 170              		.loc 2 36 58
 171 00a8 6FF09FFC 		j	.L1
 172              	.LBE48:
 173              	.LBE47:
 174              		.cfi_endproc
 175              	.LFE21:
 177              		.section	.rodata.str1.8,"aMS",@progbits,1
 178              		.align	3
 179              	.LC0:
 180 0000 4E6F2073 		.string	"No sleeping PCBs...\n"
 180      6C656570 
 180      696E6720 
 180      50434273 
 180      2E2E2E0A 
 181              		.text
 182              		.align	2
 183              		.globl	_ZN12SleepPCBList13tryToWakePCBsEv
 185              	_ZN12SleepPCBList13tryToWakePCBsEv:
 186              	.LFB22:
  38:src/SleepPCBList.cpp **** 
GAS LISTING /tmp/cc44vO9c.s 			page 6


  39:src/SleepPCBList.cpp **** void SleepPCBList::tryToWakePCBs()
  40:src/SleepPCBList.cpp **** {
 187              		.loc 1 40 1 is_stmt 1
 188              		.cfi_startproc
 189 00ac 130101FE 		addi	sp,sp,-32
 190              		.cfi_def_cfa_offset 32
 191 00b0 233C1100 		sd	ra,24(sp)
 192 00b4 23388100 		sd	s0,16(sp)
 193 00b8 23349100 		sd	s1,8(sp)
 194              		.cfi_offset 1, -8
 195              		.cfi_offset 8, -16
 196              		.cfi_offset 9, -24
 197 00bc 13040102 		addi	s0,sp,32
 198              		.cfi_def_cfa 8, 0
  41:src/SleepPCBList.cpp ****     //Riscv::printString("Waking PCBs...\n");
  42:src/SleepPCBList.cpp ****     PCB* curr = sleepingPCBHead;
 199              		.loc 1 42 5
 200              		.loc 1 42 10 is_stmt 0
 201 00c0 17050000 		ld	a0,.LANCHOR0
 201      03350500 
 202              	.LVL21:
  43:src/SleepPCBList.cpp ****     if(curr == 0)
 203              		.loc 1 43 5 is_stmt 1
 204 00c8 63060502 		beqz	a0,.L17
  44:src/SleepPCBList.cpp ****     {
  45:src/SleepPCBList.cpp ****         Riscv::printString("No sleeping PCBs...\n");
  46:src/SleepPCBList.cpp ****         return;
  47:src/SleepPCBList.cpp ****     }
  48:src/SleepPCBList.cpp ****     if(sleepingPCBHead->getTimeToSleep() == 1)
 205              		.loc 1 48 5
 206              	.LVL22:
 207              	.LBB49:
 208              	.LBB50:
 209              	.LBB51:
 210              		.loc 2 37 30
 211              		.loc 2 37 37 is_stmt 0
 212 00cc 83370501 		ld	a5,16(a0)
 213              	.LVL23:
 214              	.LBE51:
 215              	.LBE50:
 216              		.loc 1 48 5
 217 00d0 13071000 		li	a4,1
 218 00d4 6388E704 		beq	a5,a4,.L15
  49:src/SleepPCBList.cpp ****     {
  50:src/SleepPCBList.cpp ****         while(curr != 0 && (curr == sleepingPCBHead || curr->getTimeToSleep() == 0))
  51:src/SleepPCBList.cpp ****         {
  52:src/SleepPCBList.cpp ****             PCB *old = curr;
  53:src/SleepPCBList.cpp ****             curr = curr->nextPCB;
  54:src/SleepPCBList.cpp ****             old->nextPCB = 0;
  55:src/SleepPCBList.cpp ****             Scheduler::put(old);
  56:src/SleepPCBList.cpp ****             sleepingPCBHead = curr;
  57:src/SleepPCBList.cpp ****         }
  58:src/SleepPCBList.cpp ****     }
  59:src/SleepPCBList.cpp ****     else
  60:src/SleepPCBList.cpp ****     {
  61:src/SleepPCBList.cpp ****         sleepingPCBHead->setTimeToSleep(sleepingPCBHead->getTimeToSleep() - 1);
 219              		.loc 1 61 9 is_stmt 1
GAS LISTING /tmp/cc44vO9c.s 			page 7


 220              	.LVL24:
 221              	.LBE49:
 222              		.loc 2 37 30
 223              	.LBB58:
 224              		.loc 1 61 40 is_stmt 0
 225 00d8 9387F7FF 		addi	a5,a5,-1
 226              	.LVL25:
 227              	.LBB52:
 228              	.LBB53:
  36:src/../h/PCB.hpp ****     uint64 getTimeToSleep() {return timeToSleep;}
 229              		.loc 2 36 39 is_stmt 1
  36:src/../h/PCB.hpp ****     uint64 getTimeToSleep() {return timeToSleep;}
 230              		.loc 2 36 51 is_stmt 0
 231 00dc 2338F500 		sd	a5,16(a0)
 232              	.LVL26:
 233              	.L10:
 234              	.LBE53:
 235              	.LBE52:
 236              	.LBE58:
  62:src/SleepPCBList.cpp ****     }
  63:src/SleepPCBList.cpp **** }
 237              		.loc 1 63 1
 238 00e0 83308101 		ld	ra,24(sp)
 239              		.cfi_remember_state
 240              		.cfi_restore 1
 241 00e4 03340101 		ld	s0,16(sp)
 242              		.cfi_restore 8
 243              		.cfi_def_cfa 2, 32
 244 00e8 83348100 		ld	s1,8(sp)
 245              		.cfi_restore 9
 246 00ec 13010102 		addi	sp,sp,32
 247              		.cfi_def_cfa_offset 0
 248 00f0 67800000 		jr	ra
 249              	.LVL27:
 250              	.L17:
 251              		.cfi_restore_state
  45:src/SleepPCBList.cpp ****         return;
 252              		.loc 1 45 9 is_stmt 1
  45:src/SleepPCBList.cpp ****         return;
 253              		.loc 1 45 27 is_stmt 0
 254 00f4 17050000 		lla	a0,.LC0
 254      13050500 
 255              	.LVL28:
 256 00fc 97000000 		call	_ZN5Riscv11printStringEPKc@plt
 256      E7800000 
 257              	.LVL29:
  46:src/SleepPCBList.cpp ****     }
 258              		.loc 1 46 9 is_stmt 1
 259 0104 6FF0DFFD 		j	.L10
 260              	.LVL30:
 261              	.L14:
 262              	.LBB59:
 263              	.LBB54:
 264              	.LBB55:
  52:src/SleepPCBList.cpp ****             curr = curr->nextPCB;
 265              		.loc 1 52 13 discriminator 5
  53:src/SleepPCBList.cpp ****             old->nextPCB = 0;
GAS LISTING /tmp/cc44vO9c.s 			page 8


 266              		.loc 1 53 13 discriminator 5
  53:src/SleepPCBList.cpp ****             old->nextPCB = 0;
 267              		.loc 1 53 18 is_stmt 0 discriminator 5
 268 0108 83340500 		ld	s1,0(a0)
 269              	.LVL31:
  54:src/SleepPCBList.cpp ****             Scheduler::put(old);
 270              		.loc 1 54 13 is_stmt 1 discriminator 5
  54:src/SleepPCBList.cpp ****             Scheduler::put(old);
 271              		.loc 1 54 26 is_stmt 0 discriminator 5
 272 010c 23300500 		sd	zero,0(a0)
  55:src/SleepPCBList.cpp ****             sleepingPCBHead = curr;
 273              		.loc 1 55 13 is_stmt 1 discriminator 5
  55:src/SleepPCBList.cpp ****             sleepingPCBHead = curr;
 274              		.loc 1 55 27 is_stmt 0 discriminator 5
 275 0110 97000000 		call	_ZN9Scheduler3putEP3PCB@plt
 275      E7800000 
 276              	.LVL32:
  56:src/SleepPCBList.cpp ****         }
 277              		.loc 1 56 13 is_stmt 1 discriminator 5
  56:src/SleepPCBList.cpp ****         }
 278              		.loc 1 56 29 is_stmt 0 discriminator 5
 279 0118 97070000 		sd	s1,.LANCHOR0,a5
 279      23B09700 
  53:src/SleepPCBList.cpp ****             old->nextPCB = 0;
 280              		.loc 1 53 18 discriminator 5
 281 0120 13850400 		mv	a0,s1
 282              	.LVL33:
 283              	.L15:
 284              	.LBE55:
  50:src/SleepPCBList.cpp ****         {
 285              		.loc 1 50 9 is_stmt 1
  50:src/SleepPCBList.cpp ****         {
 286              		.loc 1 50 25
 287 0124 E30E05FA 		beqz	a0,.L10
  50:src/SleepPCBList.cpp ****         {
 288              		.loc 1 50 34 is_stmt 0 discriminator 1
 289 0128 97070000 		ld	a5,.LANCHOR0
 289      83B70700 
  50:src/SleepPCBList.cpp ****         {
 290              		.loc 1 50 25 discriminator 1
 291 0130 E38CA7FC 		beq	a5,a0,.L14
 292              	.LVL34:
 293              	.LBB56:
 294              	.LBB57:
 295              		.loc 2 37 30 is_stmt 1
 296              		.loc 2 37 37 is_stmt 0
 297 0134 83370501 		ld	a5,16(a0)
 298              	.LVL35:
 299              	.LBE57:
 300              	.LBE56:
  50:src/SleepPCBList.cpp ****         {
 301              		.loc 1 50 53
 302 0138 E38807FC 		beqz	a5,.L14
 303 013c 6FF05FFA 		j	.L10
 304              	.LBE54:
 305              	.LBE59:
 306              		.cfi_endproc
GAS LISTING /tmp/cc44vO9c.s 			page 9


 307              	.LFE22:
 309              		.globl	_ZN12SleepPCBList15sleepingPCBHeadE
 310              		.bss
 311              		.align	3
 312              		.set	.LANCHOR0,. + 0
 315              	_ZN12SleepPCBList15sleepingPCBHeadE:
 316 0000 00000000 		.zero	8
 316      00000000 
 317              		.text
 318              	.Letext0:
 319              		.file 3 "src/../h/../lib/hw.h"
 320              		.file 4 "src/../h/Queue.hpp"
 321              		.file 5 "src/../h/Scheduler.hpp"
 322              		.file 6 "src/../h/Riscv.hpp"
 323              		.file 7 "src/../h/SleepPCBList.hpp"
GAS LISTING /tmp/cc44vO9c.s 			page 10


DEFINED SYMBOLS
                            *ABS*:0000000000000000 SleepPCBList.cpp
     /tmp/cc44vO9c.s:9      .text:0000000000000000 _ZN12SleepPCBList17insertSleepingPCBEv
     /tmp/cc44vO9c.s:13     .text:0000000000000000 .L0 
     /tmp/cc44vO9c.s:14     .text:0000000000000000 .L0 
     /tmp/cc44vO9c.s:15     .text:0000000000000004 .L0 
     /tmp/cc44vO9c.s:17     .text:0000000000000008 .L0 
     /tmp/cc44vO9c.s:19     .text:000000000000000c .L0 
     /tmp/cc44vO9c.s:21     .text:000000000000000c .L0 
     /tmp/cc44vO9c.s:22     .text:000000000000000c .L0 
     /tmp/cc44vO9c.s:29     .text:0000000000000018 .L0 
     /tmp/cc44vO9c.s:30     .text:0000000000000018 .L0 
     /tmp/cc44vO9c.s:36     .text:0000000000000020 .L0 
     /tmp/cc44vO9c.s:37     .text:0000000000000020 .L0 
     /tmp/cc44vO9c.s:38     .text:0000000000000020 .L0 
     /tmp/cc44vO9c.s:41     .text:0000000000000028 .L0 
     /tmp/cc44vO9c.s:45     .text:000000000000002c .L0 
     /tmp/cc44vO9c.s:46     .text:000000000000002c .L0 
     /tmp/cc44vO9c.s:51     .text:0000000000000030 .L0 
     /tmp/cc44vO9c.s:52     .text:0000000000000030 .L0 
     /tmp/cc44vO9c.s:53     .text:0000000000000030 .L0 
     /tmp/cc44vO9c.s:60     .text:0000000000000034 .L0 
     /tmp/cc44vO9c.s:61     .text:0000000000000034 .L0 
     /tmp/cc44vO9c.s:66     .text:0000000000000038 .L0 
     /tmp/cc44vO9c.s:69     .text:000000000000003c .L0 
     /tmp/cc44vO9c.s:70     .text:000000000000003c .L0 
     /tmp/cc44vO9c.s:71     .text:000000000000003c .L0 
     /tmp/cc44vO9c.s:73     .text:0000000000000040 .L0 
     /tmp/cc44vO9c.s:76     .text:0000000000000044 .L0 
     /tmp/cc44vO9c.s:79     .text:0000000000000048 .L0 
     /tmp/cc44vO9c.s:80     .text:0000000000000048 .L0 
     /tmp/cc44vO9c.s:83     .text:000000000000004c .L0 
     /tmp/cc44vO9c.s:84     .text:000000000000004c .L0 
     /tmp/cc44vO9c.s:86     .text:0000000000000050 .L0 
     /tmp/cc44vO9c.s:87     .text:0000000000000050 .L0 
     /tmp/cc44vO9c.s:94     .text:000000000000005c .L0 
     /tmp/cc44vO9c.s:95     .text:000000000000005c .L0 
     /tmp/cc44vO9c.s:102    .text:0000000000000060 .L0 
     /tmp/cc44vO9c.s:103    .text:0000000000000060 .L0 
     /tmp/cc44vO9c.s:108    .text:0000000000000064 .L0 
     /tmp/cc44vO9c.s:113    .text:0000000000000068 .L0 
     /tmp/cc44vO9c.s:114    .text:0000000000000068 .L0 
     /tmp/cc44vO9c.s:119    .text:000000000000006c .L0 
     /tmp/cc44vO9c.s:120    .text:000000000000006c .L0 
     /tmp/cc44vO9c.s:123    .text:0000000000000070 .L0 
     /tmp/cc44vO9c.s:124    .text:0000000000000074 .L0 
     /tmp/cc44vO9c.s:125    .text:0000000000000074 .L0 
     /tmp/cc44vO9c.s:126    .text:0000000000000074 .L0 
     /tmp/cc44vO9c.s:128    .text:0000000000000078 .L0 
     /tmp/cc44vO9c.s:132    .text:000000000000007c .L0 
     /tmp/cc44vO9c.s:134    .text:000000000000007c .L0 
     /tmp/cc44vO9c.s:135    .text:000000000000007c .L0 
     /tmp/cc44vO9c.s:140    .text:0000000000000090 .L0 
     /tmp/cc44vO9c.s:141    .text:0000000000000090 .L0 
     /tmp/cc44vO9c.s:143    .text:0000000000000094 .L0 
     /tmp/cc44vO9c.s:148    .text:0000000000000098 .L0 
     /tmp/cc44vO9c.s:149    .text:0000000000000098 .L0 
GAS LISTING /tmp/cc44vO9c.s 			page 11


     /tmp/cc44vO9c.s:150    .text:0000000000000098 .L0 
     /tmp/cc44vO9c.s:157    .text:000000000000009c .L0 
     /tmp/cc44vO9c.s:158    .text:000000000000009c .L0 
     /tmp/cc44vO9c.s:163    .text:00000000000000a0 .L0 
     /tmp/cc44vO9c.s:168    .text:00000000000000a4 .L0 
     /tmp/cc44vO9c.s:169    .text:00000000000000a4 .L0 
     /tmp/cc44vO9c.s:171    .text:00000000000000a8 .L0 
     /tmp/cc44vO9c.s:174    .text:00000000000000ac .L0 
     /tmp/cc44vO9c.s:185    .text:00000000000000ac _ZN12SleepPCBList13tryToWakePCBsEv
     /tmp/cc44vO9c.s:188    .text:00000000000000ac .L0 
     /tmp/cc44vO9c.s:189    .text:00000000000000ac .L0 
     /tmp/cc44vO9c.s:190    .text:00000000000000b0 .L0 
     /tmp/cc44vO9c.s:194    .text:00000000000000bc .L0 
     /tmp/cc44vO9c.s:195    .text:00000000000000bc .L0 
     /tmp/cc44vO9c.s:196    .text:00000000000000bc .L0 
     /tmp/cc44vO9c.s:198    .text:00000000000000c0 .L0 
     /tmp/cc44vO9c.s:200    .text:00000000000000c0 .L0 
     /tmp/cc44vO9c.s:201    .text:00000000000000c0 .L0 
     /tmp/cc44vO9c.s:204    .text:00000000000000c8 .L0 
     /tmp/cc44vO9c.s:210    .text:00000000000000cc .L0 
     /tmp/cc44vO9c.s:211    .text:00000000000000cc .L0 
     /tmp/cc44vO9c.s:212    .text:00000000000000cc .L0 
     /tmp/cc44vO9c.s:217    .text:00000000000000d0 .L0 
     /tmp/cc44vO9c.s:222    .text:00000000000000d8 .L0 
     /tmp/cc44vO9c.s:224    .text:00000000000000d8 .L0 
     /tmp/cc44vO9c.s:225    .text:00000000000000d8 .L0 
     /tmp/cc44vO9c.s:230    .text:00000000000000dc .L0 
     /tmp/cc44vO9c.s:231    .text:00000000000000dc .L0 
     /tmp/cc44vO9c.s:238    .text:00000000000000e0 .L0 
     /tmp/cc44vO9c.s:239    .text:00000000000000e4 .L0 
     /tmp/cc44vO9c.s:240    .text:00000000000000e4 .L0 
     /tmp/cc44vO9c.s:242    .text:00000000000000e8 .L0 
     /tmp/cc44vO9c.s:243    .text:00000000000000e8 .L0 
     /tmp/cc44vO9c.s:245    .text:00000000000000ec .L0 
     /tmp/cc44vO9c.s:247    .text:00000000000000f0 .L0 
     /tmp/cc44vO9c.s:251    .text:00000000000000f4 .L0 
     /tmp/cc44vO9c.s:253    .text:00000000000000f4 .L0 
     /tmp/cc44vO9c.s:254    .text:00000000000000f4 .L0 
     /tmp/cc44vO9c.s:259    .text:0000000000000104 .L0 
     /tmp/cc44vO9c.s:266    .text:0000000000000108 .L0 
     /tmp/cc44vO9c.s:267    .text:0000000000000108 .L0 
     /tmp/cc44vO9c.s:268    .text:0000000000000108 .L0 
     /tmp/cc44vO9c.s:271    .text:000000000000010c .L0 
     /tmp/cc44vO9c.s:272    .text:000000000000010c .L0 
     /tmp/cc44vO9c.s:274    .text:0000000000000110 .L0 
     /tmp/cc44vO9c.s:275    .text:0000000000000110 .L0 
     /tmp/cc44vO9c.s:278    .text:0000000000000118 .L0 
     /tmp/cc44vO9c.s:279    .text:0000000000000118 .L0 
     /tmp/cc44vO9c.s:281    .text:0000000000000120 .L0 
     /tmp/cc44vO9c.s:286    .text:0000000000000124 .L0 
     /tmp/cc44vO9c.s:287    .text:0000000000000124 .L0 
     /tmp/cc44vO9c.s:289    .text:0000000000000128 .L0 
     /tmp/cc44vO9c.s:291    .text:0000000000000130 .L0 
     /tmp/cc44vO9c.s:296    .text:0000000000000134 .L0 
     /tmp/cc44vO9c.s:297    .text:0000000000000134 .L0 
     /tmp/cc44vO9c.s:302    .text:0000000000000138 .L0 
     /tmp/cc44vO9c.s:306    .text:0000000000000140 .L0 
GAS LISTING /tmp/cc44vO9c.s 			page 12


     /tmp/cc44vO9c.s:315    .bss:0000000000000000 _ZN12SleepPCBList15sleepingPCBHeadE
     /tmp/cc44vO9c.s:312    .bss:0000000000000000 .LANCHOR0
     /tmp/cc44vO9c.s:324    .text:0000000000000140 .L0 
     /tmp/cc44vO9c.s:22     .text:000000000000000c .L0 
     /tmp/cc44vO9c.s:38     .text:0000000000000020 .L0 
     /tmp/cc44vO9c.s:87     .text:0000000000000050 .L0 
     /tmp/cc44vO9c.s:135    .text:000000000000007c .L0 
     /tmp/cc44vO9c.s:138    .text:0000000000000088 .L0 
     /tmp/cc44vO9c.s:201    .text:00000000000000c0 .L0 
     /tmp/cc44vO9c.s:179    .rodata.str1.8:0000000000000000 .LC0
     /tmp/cc44vO9c.s:254    .text:00000000000000f4 .L0 
     /tmp/cc44vO9c.s:279    .text:0000000000000118 .L0 
     /tmp/cc44vO9c.s:289    .text:0000000000000128 .L0 
     /tmp/cc44vO9c.s:82     .text:000000000000004c .L2
     /tmp/cc44vO9c.s:77     .text:0000000000000048 .L8
     /tmp/cc44vO9c.s:43     .text:000000000000002c .L4
     /tmp/cc44vO9c.s:131    .text:000000000000007c .L9
     /tmp/cc44vO9c.s:121    .text:0000000000000070 .L1
     /tmp/cc44vO9c.s:250    .text:00000000000000f4 .L17
     /tmp/cc44vO9c.s:283    .text:0000000000000124 .L15
     /tmp/cc44vO9c.s:233    .text:00000000000000e0 .L10
     /tmp/cc44vO9c.s:261    .text:0000000000000108 .L14
     /tmp/cc44vO9c.s:1694   .debug_abbrev:0000000000000000 .Ldebug_abbrev0
     /tmp/cc44vO9c.s:2837   .debug_str:000000000000016b .LASF168
     /tmp/cc44vO9c.s:2875   .debug_str:0000000000000334 .LASF169
     /tmp/cc44vO9c.s:3085   .debug_str:0000000000000923 .LASF170
     /tmp/cc44vO9c.s:5      .text:0000000000000000 .Ltext0
     /tmp/cc44vO9c.s:318    .text:0000000000000140 .Letext0
     /tmp/cc44vO9c.s:2793   .debug_line:0000000000000000 .Ldebug_line0
     /tmp/cc44vO9c.s:2917   .debug_str:0000000000000484 .LASF0
     /tmp/cc44vO9c.s:2943   .debug_str:0000000000000548 .LASF1
     /tmp/cc44vO9c.s:3025   .debug_str:00000000000007a6 .LASF2
     /tmp/cc44vO9c.s:3033   .debug_str:00000000000007da .LASF4
     /tmp/cc44vO9c.s:2931   .debug_str:00000000000004e4 .LASF3
     /tmp/cc44vO9c.s:2807   .debug_str:0000000000000057 .LASF5
     /tmp/cc44vO9c.s:3009   .debug_str:000000000000073d .LASF6
     /tmp/cc44vO9c.s:2995   .debug_str:00000000000006d2 .LASF7
     /tmp/cc44vO9c.s:2935   .debug_str:0000000000000518 .LASF8
     /tmp/cc44vO9c.s:2901   .debug_str:00000000000003fc .LASF9
     /tmp/cc44vO9c.s:2905   .debug_str:0000000000000428 .LASF10
     /tmp/cc44vO9c.s:2849   .debug_str:000000000000027e .LASF11
     /tmp/cc44vO9c.s:2895   .debug_str:00000000000003de .LASF12
     /tmp/cc44vO9c.s:2857   .debug_str:00000000000002a5 .LASF13
     /tmp/cc44vO9c.s:2847   .debug_str:000000000000026e .LASF14
     /tmp/cc44vO9c.s:3063   .debug_str:00000000000008bb .LASF15
     /tmp/cc44vO9c.s:2889   .debug_str:0000000000000395 .LASF16
     /tmp/cc44vO9c.s:3057   .debug_str:0000000000000882 .LASF17
     /tmp/cc44vO9c.s:3087   .debug_str:0000000000000946 .LASF28
     /tmp/cc44vO9c.s:3099   .debug_str:000000000000098d .LASF20
     /tmp/cc44vO9c.s:2939   .debug_str:000000000000053e .LASF18
     /tmp/cc44vO9c.s:2851   .debug_str:000000000000028d .LASF19
     /tmp/cc44vO9c.s:3069   .debug_str:00000000000008d4 .LASF21
     /tmp/cc44vO9c.s:2951   .debug_str:0000000000000577 .LASF22
     /tmp/cc44vO9c.s:3131   .debug_str:0000000000000a52 .LASF39
     /tmp/cc44vO9c.s:3097   .debug_str:0000000000000987 .LASF24
     /tmp/cc44vO9c.s:2861   .debug_str:00000000000002c6 .LASF26
     /tmp/cc44vO9c.s:2919   .debug_str:0000000000000491 .LASF23
GAS LISTING /tmp/cc44vO9c.s 			page 13


     /tmp/cc44vO9c.s:3051   .debug_str:0000000000000857 .LASF29
     /tmp/cc44vO9c.s:2941   .debug_str:0000000000000543 .LASF25
     /tmp/cc44vO9c.s:3019   .debug_str:0000000000000772 .LASF27
     /tmp/cc44vO9c.s:2879   .debug_str:0000000000000352 .LASF30
     /tmp/cc44vO9c.s:3015   .debug_str:0000000000000757 .LASF45
     /tmp/cc44vO9c.s:2825   .debug_str:0000000000000117 .LASF47
     /tmp/cc44vO9c.s:3073   .debug_str:00000000000008df .LASF171
     /tmp/cc44vO9c.s:2843   .debug_str:0000000000000254 .LASF31
     /tmp/cc44vO9c.s:3053   .debug_str:000000000000086c .LASF32
     /tmp/cc44vO9c.s:2855   .debug_str:000000000000029b .LASF33
     /tmp/cc44vO9c.s:2833   .debug_str:0000000000000154 .LASF34
     /tmp/cc44vO9c.s:2999   .debug_str:00000000000006fb .LASF35
     /tmp/cc44vO9c.s:2853   .debug_str:0000000000000292 .LASF36
     /tmp/cc44vO9c.s:3067   .debug_str:00000000000008cc .LASF37
     /tmp/cc44vO9c.s:2911   .debug_str:0000000000000454 .LASF38
     /tmp/cc44vO9c.s:3091   .debug_str:0000000000000954 .LASF40
     /tmp/cc44vO9c.s:2983   .debug_str:0000000000000679 .LASF172
     /tmp/cc44vO9c.s:3111   .debug_str:00000000000009d0 .LASF41
     /tmp/cc44vO9c.s:3137   .debug_str:0000000000000a7c .LASF42
     /tmp/cc44vO9c.s:3133   .debug_str:0000000000000a62 .LASF43
     /tmp/cc44vO9c.s:3079   .debug_str:00000000000008f5 .LASF44
     /tmp/cc44vO9c.s:2877   .debug_str:0000000000000349 .LASF90
     /tmp/cc44vO9c.s:2817   .debug_str:00000000000000bc .LASF92
     /tmp/cc44vO9c.s:2947   .debug_str:0000000000000564 .LASF46
     /tmp/cc44vO9c.s:2987   .debug_str:0000000000000691 .LASF48
     /tmp/cc44vO9c.s:3075   .debug_str:00000000000008e5 .LASF49
     /tmp/cc44vO9c.s:3113   .debug_str:00000000000009d5 .LASF50
     /tmp/cc44vO9c.s:3043   .debug_str:0000000000000811 .LASF51
     /tmp/cc44vO9c.s:2949   .debug_str:000000000000056a .LASF52
     /tmp/cc44vO9c.s:2955   .debug_str:000000000000059a .LASF53
     /tmp/cc44vO9c.s:3141   .debug_str:0000000000000aa0 .LASF54
     /tmp/cc44vO9c.s:2891   .debug_str:00000000000003ab .LASF55
     /tmp/cc44vO9c.s:2801   .debug_str:000000000000002a .LASF56
     /tmp/cc44vO9c.s:2929   .debug_str:00000000000004d7 .LASF57
     /tmp/cc44vO9c.s:3047   .debug_str:0000000000000833 .LASF58
     /tmp/cc44vO9c.s:2969   .debug_str:0000000000000612 .LASF59
     /tmp/cc44vO9c.s:3031   .debug_str:00000000000007d1 .LASF60
     /tmp/cc44vO9c.s:3059   .debug_str:0000000000000898 .LASF61
     /tmp/cc44vO9c.s:2971   .debug_str:0000000000000625 .LASF62
     /tmp/cc44vO9c.s:2797   .debug_str:000000000000000b .LASF63
     /tmp/cc44vO9c.s:3123   .debug_str:0000000000000a16 .LASF64
     /tmp/cc44vO9c.s:2993   .debug_str:00000000000006b8 .LASF65
     /tmp/cc44vO9c.s:3055   .debug_str:0000000000000874 .LASF66
     /tmp/cc44vO9c.s:3011   .debug_str:0000000000000744 .LASF67
     /tmp/cc44vO9c.s:2871   .debug_str:0000000000000312 .LASF68
     /tmp/cc44vO9c.s:3129   .debug_str:0000000000000a47 .LASF69
     /tmp/cc44vO9c.s:3039   .debug_str:00000000000007fb .LASF158
     /tmp/cc44vO9c.s:3083   .debug_str:0000000000000919 .LASF70
     /tmp/cc44vO9c.s:2989   .debug_str:00000000000006a1 .LASF71
     /tmp/cc44vO9c.s:2867   .debug_str:00000000000002fd .LASF72
     /tmp/cc44vO9c.s:2823   .debug_str:00000000000000ef .LASF74
     /tmp/cc44vO9c.s:2921   .debug_str:0000000000000496 .LASF73
     /tmp/cc44vO9c.s:2841   .debug_str:0000000000000228 .LASF75
     /tmp/cc44vO9c.s:3121   .debug_str:0000000000000a0f .LASF173
     /tmp/cc44vO9c.s:2839   .debug_str:0000000000000217 .LASF174
     /tmp/cc44vO9c.s:2799   .debug_str:0000000000000025 .LASF76
     /tmp/cc44vO9c.s:3065   .debug_str:00000000000008c7 .LASF77
GAS LISTING /tmp/cc44vO9c.s 			page 14


     /tmp/cc44vO9c.s:2957   .debug_str:00000000000005b2 .LASF78
     /tmp/cc44vO9c.s:2865   .debug_str:00000000000002f7 .LASF79
     /tmp/cc44vO9c.s:3089   .debug_str:000000000000094c .LASF80
     /tmp/cc44vO9c.s:2827   .debug_str:0000000000000125 .LASF81
     /tmp/cc44vO9c.s:2899   .debug_str:00000000000003f2 .LASF82
     /tmp/cc44vO9c.s:2811   .debug_str:0000000000000078 .LASF175
     /tmp/cc44vO9c.s:3135   .debug_str:0000000000000a68 .LASF176
     /tmp/cc44vO9c.s:2829   .debug_str:000000000000012f .LASF83
     /tmp/cc44vO9c.s:2985   .debug_str:000000000000067e .LASF84
     /tmp/cc44vO9c.s:3077   .debug_str:00000000000008ed .LASF85
     /tmp/cc44vO9c.s:3021   .debug_str:0000000000000783 .LASF109
     /tmp/cc44vO9c.s:3045   .debug_str:0000000000000822 .LASF86
     /tmp/cc44vO9c.s:2859   .debug_str:00000000000002b5 .LASF87
     /tmp/cc44vO9c.s:2813   .debug_str:0000000000000090 .LASF88
     /tmp/cc44vO9c.s:3107   .debug_str:00000000000009c0 .LASF89
     /tmp/cc44vO9c.s:2991   .debug_str:00000000000006ad .LASF91
     /tmp/cc44vO9c.s:2959   .debug_str:00000000000005ba .LASF93
     /tmp/cc44vO9c.s:2887   .debug_str:000000000000038b .LASF94
     /tmp/cc44vO9c.s:2997   .debug_str:00000000000006e5 .LASF95
     /tmp/cc44vO9c.s:3101   .debug_str:0000000000000992 .LASF96
     /tmp/cc44vO9c.s:2953   .debug_str:000000000000057c .LASF97
     /tmp/cc44vO9c.s:2927   .debug_str:00000000000004c5 .LASF98
     /tmp/cc44vO9c.s:2863   .debug_str:00000000000002d8 .LASF99
     /tmp/cc44vO9c.s:3127   .debug_str:0000000000000a3b .LASF100
     /tmp/cc44vO9c.s:2819   .debug_str:00000000000000cf .LASF101
     /tmp/cc44vO9c.s:3005   .debug_str:000000000000071d .LASF102
     /tmp/cc44vO9c.s:2809   .debug_str:000000000000005e .LASF103
     /tmp/cc44vO9c.s:3041   .debug_str:0000000000000803 .LASF104
     /tmp/cc44vO9c.s:3049   .debug_str:000000000000083c .LASF105
     /tmp/cc44vO9c.s:2973   .debug_str:0000000000000634 .LASF106
     /tmp/cc44vO9c.s:3115   .debug_str:00000000000009e0 .LASF107
     /tmp/cc44vO9c.s:2945   .debug_str:000000000000055b .LASF108
     /tmp/cc44vO9c.s:2805   .debug_str:0000000000000042 .LASF110
     /tmp/cc44vO9c.s:3147   .debug_str:0000000000000ae0 .LASF111
     /tmp/cc44vO9c.s:2981   .debug_str:0000000000000664 .LASF112
     /tmp/cc44vO9c.s:3013   .debug_str:0000000000000750 .LASF113
     /tmp/cc44vO9c.s:3007   .debug_str:000000000000072a .LASF114
     /tmp/cc44vO9c.s:2977   .debug_str:0000000000000649 .LASF115
     /tmp/cc44vO9c.s:2937   .debug_str:000000000000052b .LASF116
     /tmp/cc44vO9c.s:3117   .debug_str:00000000000009fa .LASF117
     /tmp/cc44vO9c.s:3081   .debug_str:0000000000000905 .LASF118
     /tmp/cc44vO9c.s:2975   .debug_str:0000000000000641 .LASF119
     /tmp/cc44vO9c.s:2979   .debug_str:0000000000000650 .LASF120
     /tmp/cc44vO9c.s:2965   .debug_str:00000000000005f8 .LASF121
     /tmp/cc44vO9c.s:3017   .debug_str:000000000000075e .LASF122
     /tmp/cc44vO9c.s:3149   .debug_str:0000000000000ae9 .LASF123
     /tmp/cc44vO9c.s:2925   .debug_str:00000000000004b1 .LASF124
     /tmp/cc44vO9c.s:3061   .debug_str:00000000000008b4 .LASF125
     /tmp/cc44vO9c.s:3035   .debug_str:00000000000007e1 .LASF126
     /tmp/cc44vO9c.s:3037   .debug_str:00000000000007f4 .LASF127
     /tmp/cc44vO9c.s:2885   .debug_str:0000000000000378 .LASF128
     /tmp/cc44vO9c.s:2881   .debug_str:0000000000000360 .LASF129
     /tmp/cc44vO9c.s:2913   .debug_str:000000000000045a .LASF130
     /tmp/cc44vO9c.s:2923   .debug_str:00000000000004ab .LASF131
     /tmp/cc44vO9c.s:2873   .debug_str:0000000000000322 .LASF132
     /tmp/cc44vO9c.s:2795   .debug_str:0000000000000000 .LASF133
     /tmp/cc44vO9c.s:3029   .debug_str:00000000000007b9 .LASF134
GAS LISTING /tmp/cc44vO9c.s 			page 15


     /tmp/cc44vO9c.s:3023   .debug_str:000000000000079b .LASF135
     /tmp/cc44vO9c.s:3139   .debug_str:0000000000000a88 .LASF136
     /tmp/cc44vO9c.s:3109   .debug_str:00000000000009c6 .LASF137
     /tmp/cc44vO9c.s:3125   .debug_str:0000000000000a25 .LASF138
     /tmp/cc44vO9c.s:3105   .debug_str:00000000000009b6 .LASF139
     /tmp/cc44vO9c.s:2961   .debug_str:00000000000005d2 .LASF140
     /tmp/cc44vO9c.s:2909   .debug_str:0000000000000449 .LASF141
     /tmp/cc44vO9c.s:2915   .debug_str:000000000000046c .LASF142
     /tmp/cc44vO9c.s:3095   .debug_str:0000000000000978 .LASF143
     /tmp/cc44vO9c.s:2903   .debug_str:000000000000040c .LASF144
     /tmp/cc44vO9c.s:3003   .debug_str:0000000000000708 .LASF145
     /tmp/cc44vO9c.s:2933   .debug_str:00000000000004f6 .LASF146
     /tmp/cc44vO9c.s:2869   .debug_str:000000000000030b .LASF147
     /tmp/cc44vO9c.s:2803   .debug_str:000000000000003a .LASF148
     /tmp/cc44vO9c.s:3143   .debug_str:0000000000000aad .LASF149
     /tmp/cc44vO9c.s:3093   .debug_str:000000000000096c .LASF150
     /tmp/cc44vO9c.s:2831   .debug_str:0000000000000141 .LASF151
     /tmp/cc44vO9c.s:2967   .debug_str:0000000000000600 .LASF152
     /tmp/cc44vO9c.s:2907   .debug_str:0000000000000436 .LASF153
     /tmp/cc44vO9c.s:3103   .debug_str:00000000000009a3 .LASF154
     /tmp/cc44vO9c.s:2845   .debug_str:000000000000025a .LASF155
     /tmp/cc44vO9c.s:3071   .debug_str:00000000000008da .LASF156
     /tmp/cc44vO9c.s:3119   .debug_str:0000000000000a02 .LASF157
     /tmp/cc44vO9c.s:2963   .debug_str:00000000000005e8 .LASF159
     /tmp/cc44vO9c.s:2883   .debug_str:0000000000000366 .LASF160
     /tmp/cc44vO9c.s:2893   .debug_str:00000000000003b7 .LASF161
     /tmp/cc44vO9c.s:2835   .debug_str:000000000000015d .LASF162
     /tmp/cc44vO9c.s:2815   .debug_str:0000000000000099 .LASF163
     /tmp/cc44vO9c.s:3145   .debug_str:0000000000000abc .LASF177
     /tmp/cc44vO9c.s:186    .text:00000000000000ac .LFB22
     /tmp/cc44vO9c.s:307    .text:0000000000000140 .LFE22
     /tmp/cc44vO9c.s:3027   .debug_str:00000000000007b4 .LASF164
     /tmp/cc44vO9c.s:2606   .debug_loc:0000000000000000 .LLST12
     /tmp/cc44vO9c.s:264    .text:0000000000000108 .LBB55
     /tmp/cc44vO9c.s:284    .text:0000000000000124 .LBE55
     /tmp/cc44vO9c.s:2634   .debug_loc:000000000000008a .LLST16
     /tmp/cc44vO9c.s:276    .text:0000000000000118 .LVL32
     /tmp/cc44vO9c.s:208    .text:00000000000000cc .LBB50
     /tmp/cc44vO9c.s:215    .text:00000000000000d0 .LBE50
     /tmp/cc44vO9c.s:2641   .debug_loc:00000000000000ad .LLST13
     /tmp/cc44vO9c.s:227    .text:00000000000000dc .LBB52
     /tmp/cc44vO9c.s:235    .text:00000000000000e0 .LBE52
     /tmp/cc44vO9c.s:2648   .debug_loc:00000000000000d0 .LLST14
     /tmp/cc44vO9c.s:2655   .debug_loc:00000000000000f3 .LLST15
     /tmp/cc44vO9c.s:293    .text:0000000000000134 .LBB56
     /tmp/cc44vO9c.s:300    .text:0000000000000138 .LBE56
     /tmp/cc44vO9c.s:2662   .debug_loc:0000000000000116 .LLST17
     /tmp/cc44vO9c.s:257    .text:0000000000000104 .LVL29
     /tmp/cc44vO9c.s:10     .text:0000000000000000 .LFB21
     /tmp/cc44vO9c.s:175    .text:00000000000000ac .LFE21
     /tmp/cc44vO9c.s:2821   .debug_str:00000000000000ea .LASF165
     /tmp/cc44vO9c.s:2669   .debug_loc:0000000000000139 .LLST0
     /tmp/cc44vO9c.s:2689   .debug_loc:0000000000000196 .LLST1
     /tmp/cc44vO9c.s:25     .text:0000000000000018 .LBB31
     /tmp/cc44vO9c.s:34     .text:0000000000000020 .LBE31
     /tmp/cc44vO9c.s:2709   .debug_loc:00000000000001f3 .LLST2
     /tmp/cc44vO9c.s:2717   .debug_loc:0000000000000217 .LLST3
GAS LISTING /tmp/cc44vO9c.s 			page 16


     /tmp/cc44vO9c.s:49     .text:0000000000000030 .LBB33
     /tmp/cc44vO9c.s:56     .text:0000000000000034 .LBE33
     /tmp/cc44vO9c.s:2724   .debug_loc:000000000000023a .LLST4
     /tmp/cc44vO9c.s:57     .text:0000000000000034 .LBB35
     /tmp/cc44vO9c.s:64     .text:0000000000000038 .LBE35
     /tmp/cc44vO9c.s:2731   .debug_loc:000000000000025d .LLST5
     /tmp/cc44vO9c.s:91     .text:000000000000005c .LBB37
     /tmp/cc44vO9c.s:98     .text:0000000000000060 .LBE37
     /tmp/cc44vO9c.s:2738   .debug_loc:0000000000000280 .LLST6
     /tmp/cc44vO9c.s:99     .text:0000000000000060 .LBB39
     /tmp/cc44vO9c.s:106    .text:0000000000000064 .LBE39
     /tmp/cc44vO9c.s:2745   .debug_loc:00000000000002a3 .LLST7
     /tmp/cc44vO9c.s:110    .text:0000000000000068 .LBB41
     /tmp/cc44vO9c.s:117    .text:000000000000006c .LBE41
     /tmp/cc44vO9c.s:2752   .debug_loc:00000000000002c6 .LLST8
     /tmp/cc44vO9c.s:2759   .debug_loc:00000000000002e9 .LLST9
     /tmp/cc44vO9c.s:146    .text:0000000000000098 .LBB43
     /tmp/cc44vO9c.s:153    .text:000000000000009c .LBE43
     /tmp/cc44vO9c.s:2766   .debug_loc:000000000000030c .LLST10
     /tmp/cc44vO9c.s:154    .text:000000000000009c .LBB45
     /tmp/cc44vO9c.s:161    .text:00000000000000a0 .LBE45
     /tmp/cc44vO9c.s:2773   .debug_loc:000000000000032f .LLST11
     /tmp/cc44vO9c.s:165    .text:00000000000000a4 .LBB47
     /tmp/cc44vO9c.s:173    .text:00000000000000ac .LBE47
     /tmp/cc44vO9c.s:2897   .debug_str:00000000000003ed .LASF166
     /tmp/cc44vO9c.s:3001   .debug_str:0000000000000703 .LASF167
     /tmp/cc44vO9c.s:202    .text:00000000000000c8 .LVL21
     /tmp/cc44vO9c.s:232    .text:00000000000000e0 .LVL26
     /tmp/cc44vO9c.s:249    .text:00000000000000f4 .LVL27
     /tmp/cc44vO9c.s:255    .text:00000000000000fc .LVL28
     /tmp/cc44vO9c.s:260    .text:0000000000000108 .LVL30
     /tmp/cc44vO9c.s:269    .text:000000000000010c .LVL31
     /tmp/cc44vO9c.s:282    .text:0000000000000124 .LVL33
     /tmp/cc44vO9c.s:206    .text:00000000000000cc .LVL22
     /tmp/cc44vO9c.s:213    .text:00000000000000d0 .LVL23
     /tmp/cc44vO9c.s:226    .text:00000000000000dc .LVL25
     /tmp/cc44vO9c.s:292    .text:0000000000000134 .LVL34
     /tmp/cc44vO9c.s:298    .text:0000000000000138 .LVL35
     /tmp/cc44vO9c.s:32     .text:0000000000000020 .LVL1
     /tmp/cc44vO9c.s:42     .text:000000000000002c .LVL3
     /tmp/cc44vO9c.s:68     .text:000000000000003c .LVL7
     /tmp/cc44vO9c.s:74     .text:0000000000000044 .LVL8
     /tmp/cc44vO9c.s:39     .text:0000000000000028 .LVL2
     /tmp/cc44vO9c.s:88     .text:0000000000000058 .LVL9
     /tmp/cc44vO9c.s:130    .text:000000000000007c .LVL15
     /tmp/cc44vO9c.s:136    .text:0000000000000084 .LVL16
     /tmp/cc44vO9c.s:24     .text:0000000000000018 .LVL0
     /tmp/cc44vO9c.s:48     .text:0000000000000030 .LVL4
     /tmp/cc44vO9c.s:54     .text:0000000000000034 .LVL5
     /tmp/cc44vO9c.s:62     .text:0000000000000038 .LVL6
     /tmp/cc44vO9c.s:90     .text:000000000000005c .LVL10
     /tmp/cc44vO9c.s:96     .text:0000000000000060 .LVL11
     /tmp/cc44vO9c.s:104    .text:0000000000000064 .LVL12
     /tmp/cc44vO9c.s:109    .text:0000000000000068 .LVL13
     /tmp/cc44vO9c.s:115    .text:000000000000006c .LVL14
     /tmp/cc44vO9c.s:145    .text:0000000000000098 .LVL17
     /tmp/cc44vO9c.s:151    .text:000000000000009c .LVL18
GAS LISTING /tmp/cc44vO9c.s 			page 17


     /tmp/cc44vO9c.s:159    .text:00000000000000a0 .LVL19
     /tmp/cc44vO9c.s:325    .debug_info:0000000000000000 .Ldebug_info0

UNDEFINED SYMBOLS
_ZN3PCB7runningE
_ZN5Riscv11printStringEPKc
_ZN9Scheduler3putEP3PCB
