GAS LISTING /tmp/ccyybGW1.s 			page 1


   1              		.file	"SleepPCBList.cpp"
   2              		.option pic
   3              		.option norelax
   4              		.text
   5              	.Ltext0:
   6              		.section	.rodata.str1.8,"aMS",@progbits,1
   7              		.align	3
   8              	.LC0:
   9 0000 496E7365 		.string	"Inserting sleeping PCB...\n"
   9      7274696E 
   9      6720736C 
   9      65657069 
   9      6E672050 
  10              		.text
  11              		.align	2
  12              		.globl	_ZN12SleepPCBList17insertSleepingPCBEv
  14              	_ZN12SleepPCBList17insertSleepingPCBEv:
  15              	.LFB21:
  16              		.file 1 "src/SleepPCBList.cpp"
   1:src/SleepPCBList.cpp **** //
   2:src/SleepPCBList.cpp **** // Created by os on 5/11/22.
   3:src/SleepPCBList.cpp **** //
   4:src/SleepPCBList.cpp **** 
   5:src/SleepPCBList.cpp **** #include "../h/SleepPCBList.hpp"
   6:src/SleepPCBList.cpp **** 
   7:src/SleepPCBList.cpp **** PCB* SleepPCBList::sleepingPCBHead = 0;
   8:src/SleepPCBList.cpp **** 
   9:src/SleepPCBList.cpp **** void SleepPCBList::insertSleepingPCB()
  10:src/SleepPCBList.cpp **** {
  17              		.loc 1 10 1
  18              		.cfi_startproc
  19 0000 130101FF 		addi	sp,sp,-16
  20              		.cfi_def_cfa_offset 16
  21 0004 23341100 		sd	ra,8(sp)
  22 0008 23308100 		sd	s0,0(sp)
  23              		.cfi_offset 1, -8
  24              		.cfi_offset 8, -16
  25 000c 13040101 		addi	s0,sp,16
  26              		.cfi_def_cfa 8, 0
  11:src/SleepPCBList.cpp ****     Riscv::printString("Inserting sleeping PCB...\n");
  27              		.loc 1 11 5
  28              		.loc 1 11 23 is_stmt 0
  29 0010 17050000 		lla	a0,.LC0
  29      13050500 
  30 0018 97000000 		call	_ZN5Riscv11printStringEPKc@plt
  30      E7800000 
  31              	.LVL0:
  12:src/SleepPCBList.cpp ****     PCB* prev = 0;
  32              		.loc 1 12 5 is_stmt 1
  13:src/SleepPCBList.cpp ****     PCB* curr = sleepingPCBHead;
  33              		.loc 1 13 5
  34              		.loc 1 13 10 is_stmt 0
  35 0020 97070000 		ld	a5,.LANCHOR0
  35      83B70700 
  36              	.LVL1:
  12:src/SleepPCBList.cpp ****     PCB* prev = 0;
  37              		.loc 1 12 10
GAS LISTING /tmp/ccyybGW1.s 			page 2


  38 0028 93050000 		li	a1,0
  39              	.LVL2:
  40              	.L4:
  14:src/SleepPCBList.cpp ****     while(curr != 0)
  41              		.loc 1 14 5 is_stmt 1
  42              		.loc 1 14 16
  43 002c 63860702 		beqz	a5,.L2
  15:src/SleepPCBList.cpp ****     {
  16:src/SleepPCBList.cpp ****         if(PCB::running->getTimeToSleep() < curr->getTimeToSleep())
  44              		.loc 1 16 9
  45              		.loc 1 16 40 is_stmt 0
  46 0030 17070000 		la	a4,_ZN3PCB7runningE
  46      03370700 
  47 0038 03370700 		ld	a4,0(a4)
  48              	.LVL3:
  49              	.LBB29:
  50              	.LBB30:
  51              		.file 2 "src/../h/PCB.hpp"
   1:src/../h/PCB.hpp **** //
   2:src/../h/PCB.hpp **** // Created by os on 4/27/22.
   3:src/../h/PCB.hpp **** //
   4:src/../h/PCB.hpp **** 
   5:src/../h/PCB.hpp **** #ifndef PROJECT_BASE_V1_0_PCB_HPP
   6:src/../h/PCB.hpp **** #define PROJECT_BASE_V1_0_PCB_HPP
   7:src/../h/PCB.hpp **** 
   8:src/../h/PCB.hpp **** #include "../lib/hw.h"
   9:src/../h/PCB.hpp **** #include "Scheduler.hpp"
  10:src/../h/PCB.hpp **** #include "Riscv.hpp"
  11:src/../h/PCB.hpp **** 
  12:src/../h/PCB.hpp **** class PCB
  13:src/../h/PCB.hpp **** {
  14:src/../h/PCB.hpp **** public:
  15:src/../h/PCB.hpp ****     using Body = void (*)(void*);
  16:src/../h/PCB.hpp **** 
  17:src/../h/PCB.hpp ****     PCB(Body body,  void* args, void* stack_space, uint64 timeSlice);
  18:src/../h/PCB.hpp ****     ~PCB();
  19:src/../h/PCB.hpp **** 
  20:src/../h/PCB.hpp ****     void start();
  21:src/../h/PCB.hpp ****     static void dispatch();
  22:src/../h/PCB.hpp ****     static void sleep(time_t);
  23:src/../h/PCB.hpp **** 
  24:src/../h/PCB.hpp ****     static PCB* running;
  25:src/../h/PCB.hpp ****     static PCB* exitingPCB;
  26:src/../h/PCB.hpp **** 
  27:src/../h/PCB.hpp ****     static uint64 timeSliceCounter;
  28:src/../h/PCB.hpp ****     uint64 getTimeSlice() { return timeSlice;}
  29:src/../h/PCB.hpp **** 
  30:src/../h/PCB.hpp ****     void* operator new(size_t size);
  31:src/../h/PCB.hpp ****     void operator delete(void *p);
  32:src/../h/PCB.hpp **** 
  33:src/../h/PCB.hpp ****     enum State{READY, RUNNING, SUSPENDED, FINISHED, EXITING, SLEEPING};
  34:src/../h/PCB.hpp ****     State getState() {return state;}
  35:src/../h/PCB.hpp ****     void setState(State s) {state = s;}
  36:src/../h/PCB.hpp ****     void setTimeToSleep(uint64 time) {timeToSleep = time;}
  37:src/../h/PCB.hpp ****     uint64 getTimeToSleep() {return timeToSleep;}
  52              		.loc 2 37 30 is_stmt 1
  53              		.loc 2 37 37 is_stmt 0
GAS LISTING /tmp/ccyybGW1.s 			page 3


  54 003c 03360701 		ld	a2,16(a4)
  55              	.LVL4:
  56              	.LBE30:
  57              	.LBE29:
  58              	.LBB31:
  59              	.LBB32:
  60              		.loc 2 37 30 is_stmt 1
  61              		.loc 2 37 37 is_stmt 0
  62 0040 83B60701 		ld	a3,16(a5)
  63              	.LVL5:
  64              	.LBE32:
  65              	.LBE31:
  66              		.loc 1 16 9
  67 0044 6368D600 		bltu	a2,a3,.L8
  17:src/SleepPCBList.cpp ****         {
  18:src/SleepPCBList.cpp ****             PCB::running->nextPCB = curr;
  19:src/SleepPCBList.cpp ****             break;
  20:src/SleepPCBList.cpp ****         }
  21:src/SleepPCBList.cpp ****         prev = curr;
  68              		.loc 1 21 9 is_stmt 1
  69              	.LVL6:
  22:src/SleepPCBList.cpp ****         curr=curr->nextPCB;
  70              		.loc 1 22 9
  21:src/SleepPCBList.cpp ****         curr=curr->nextPCB;
  71              		.loc 1 21 14 is_stmt 0
  72 0048 93850700 		mv	a1,a5
  73              		.loc 1 22 13
  74 004c 83B70700 		ld	a5,0(a5)
  75              	.LVL7:
  14:src/SleepPCBList.cpp ****     {
  76              		.loc 1 14 5
  77 0050 6FF0DFFD 		j	.L4
  78              	.L8:
  18:src/SleepPCBList.cpp ****             break;
  79              		.loc 1 18 13 is_stmt 1
  18:src/SleepPCBList.cpp ****             break;
  80              		.loc 1 18 35 is_stmt 0
  81 0054 2330F700 		sd	a5,0(a4)
  19:src/SleepPCBList.cpp ****         }
  82              		.loc 1 19 13 is_stmt 1
  83              	.L2:
  23:src/SleepPCBList.cpp ****     }
  24:src/SleepPCBList.cpp **** 
  25:src/SleepPCBList.cpp ****     if(prev == 0)
  84              		.loc 1 25 5
  85 0058 638A0502 		beqz	a1,.L9
  26:src/SleepPCBList.cpp ****     {
  27:src/SleepPCBList.cpp ****         sleepingPCBHead = PCB::running;
  28:src/SleepPCBList.cpp ****         if(sleepingPCBHead->nextPCB != 0)
  29:src/SleepPCBList.cpp ****             sleepingPCBHead->nextPCB->setTimeToSleep(sleepingPCBHead->nextPCB->getTimeToSleep() - s
  30:src/SleepPCBList.cpp ****     }
  31:src/SleepPCBList.cpp ****     else
  32:src/SleepPCBList.cpp ****     {
  33:src/SleepPCBList.cpp ****         PCB::running->setTimeToSleep(PCB::running->getTimeToSleep() - prev->getTimeToSleep());
  86              		.loc 1 33 9
  87              		.loc 1 33 37 is_stmt 0
  88 005c 97070000 		la	a5,_ZN3PCB7runningE
GAS LISTING /tmp/ccyybGW1.s 			page 4


  88      83B70700 
  89              	.LVL8:
  90 0064 83B70700 		ld	a5,0(a5)
  91              	.LVL9:
  92              	.LBB33:
  93              	.LBB34:
  94              		.loc 2 37 30 is_stmt 1
  95              		.loc 2 37 37 is_stmt 0
  96 0068 03B70701 		ld	a4,16(a5)
  97              	.LVL10:
  98              	.LBE34:
  99              	.LBE33:
 100              	.LBB35:
 101              	.LBB36:
 102              		.loc 2 37 30 is_stmt 1
 103              		.loc 2 37 37 is_stmt 0
 104 006c 83B60501 		ld	a3,16(a1)
 105              	.LVL11:
 106              	.LBE36:
 107              	.LBE35:
 108              		.loc 1 33 37
 109 0070 3307D740 		sub	a4,a4,a3
 110              	.LVL12:
 111              	.LBB37:
 112              	.LBB38:
  36:src/../h/PCB.hpp ****     uint64 getTimeToSleep() {return timeToSleep;}
 113              		.loc 2 36 39 is_stmt 1
  36:src/../h/PCB.hpp ****     uint64 getTimeToSleep() {return timeToSleep;}
 114              		.loc 2 36 51 is_stmt 0
 115 0074 23B8E700 		sd	a4,16(a5)
 116              	.LVL13:
 117              	.LBE38:
 118              	.LBE37:
  34:src/SleepPCBList.cpp ****         prev->nextPCB = PCB::running;
 119              		.loc 1 34 9 is_stmt 1
 120              		.loc 1 34 23 is_stmt 0
 121 0078 23B0F500 		sd	a5,0(a1)
 122              	.L1:
  35:src/SleepPCBList.cpp ****     }
  36:src/SleepPCBList.cpp **** }
 123              		.loc 1 36 1
 124 007c 83308100 		ld	ra,8(sp)
 125              		.cfi_remember_state
 126              		.cfi_restore 1
 127 0080 03340100 		ld	s0,0(sp)
 128              		.cfi_restore 8
 129              		.cfi_def_cfa 2, 16
 130 0084 13010101 		addi	sp,sp,16
 131              		.cfi_def_cfa_offset 0
 132 0088 67800000 		jr	ra
 133              	.LVL14:
 134              	.L9:
 135              		.cfi_restore_state
  27:src/SleepPCBList.cpp ****         if(sleepingPCBHead->nextPCB != 0)
 136              		.loc 1 27 9 is_stmt 1
  27:src/SleepPCBList.cpp ****         if(sleepingPCBHead->nextPCB != 0)
 137              		.loc 1 27 25 is_stmt 0
GAS LISTING /tmp/ccyybGW1.s 			page 5


 138 008c 97070000 		la	a5,_ZN3PCB7runningE
 138      83B70700 
 139              	.LVL15:
 140 0094 83B70700 		ld	a5,0(a5)
 141 0098 17070000 		sd	a5,.LANCHOR0,a4
 141      2330F700 
  28:src/SleepPCBList.cpp ****             sleepingPCBHead->nextPCB->setTimeToSleep(sleepingPCBHead->nextPCB->getTimeToSleep() - s
 142              		.loc 1 28 9 is_stmt 1
  28:src/SleepPCBList.cpp ****             sleepingPCBHead->nextPCB->setTimeToSleep(sleepingPCBHead->nextPCB->getTimeToSleep() - s
 143              		.loc 1 28 29 is_stmt 0
 144 00a0 03B70700 		ld	a4,0(a5)
  28:src/SleepPCBList.cpp ****             sleepingPCBHead->nextPCB->setTimeToSleep(sleepingPCBHead->nextPCB->getTimeToSleep() - s
 145              		.loc 1 28 9
 146 00a4 E30C07FC 		beqz	a4,.L1
  29:src/SleepPCBList.cpp ****     }
 147              		.loc 1 29 13 is_stmt 1
 148              	.LVL16:
 149              	.LBB39:
 150              	.LBB40:
 151              		.loc 2 37 30
 152              		.loc 2 37 37 is_stmt 0
 153 00a8 83360701 		ld	a3,16(a4)
 154              	.LVL17:
 155              	.LBE40:
 156              	.LBE39:
 157              	.LBB41:
 158              	.LBB42:
 159              		.loc 2 37 30 is_stmt 1
 160              		.loc 2 37 37 is_stmt 0
 161 00ac 83B70701 		ld	a5,16(a5)
 162              	.LVL18:
 163              	.LBE42:
 164              	.LBE41:
  29:src/SleepPCBList.cpp ****     }
 165              		.loc 1 29 53
 166 00b0 B387F640 		sub	a5,a3,a5
 167              	.LVL19:
 168              	.LBB43:
 169              	.LBB44:
  36:src/../h/PCB.hpp ****     uint64 getTimeToSleep() {return timeToSleep;}
 170              		.loc 2 36 39 is_stmt 1
  36:src/../h/PCB.hpp ****     uint64 getTimeToSleep() {return timeToSleep;}
 171              		.loc 2 36 51 is_stmt 0
 172 00b4 2338F700 		sd	a5,16(a4)
  36:src/../h/PCB.hpp ****     uint64 getTimeToSleep() {return timeToSleep;}
 173              		.loc 2 36 58
 174 00b8 6FF05FFC 		j	.L1
 175              	.LBE44:
 176              	.LBE43:
 177              		.cfi_endproc
 178              	.LFE21:
 180              		.section	.rodata.str1.8
 181 001b 00000000 		.align	3
 181      00
 182              	.LC1:
 183 0020 57616B69 		.string	"Waking pcbs...\n"
 183      6E672070 
GAS LISTING /tmp/ccyybGW1.s 			page 6


 183      6362732E 
 183      2E2E0A00 
 184              		.align	3
 185              	.LC2:
 186 0030 4E554C4C 		.string	"NULL\n"
 186      0A00
 187              		.text
 188              		.align	2
 189              		.globl	_ZN12SleepPCBList13tryToWakePCBsEv
 191              	_ZN12SleepPCBList13tryToWakePCBsEv:
 192              	.LFB22:
  37:src/SleepPCBList.cpp **** 
  38:src/SleepPCBList.cpp **** void SleepPCBList::tryToWakePCBs()
  39:src/SleepPCBList.cpp **** {
 193              		.loc 1 39 1 is_stmt 1
 194              		.cfi_startproc
 195 00bc 130101FE 		addi	sp,sp,-32
 196              		.cfi_def_cfa_offset 32
 197 00c0 233C1100 		sd	ra,24(sp)
 198 00c4 23388100 		sd	s0,16(sp)
 199 00c8 23349100 		sd	s1,8(sp)
 200              		.cfi_offset 1, -8
 201              		.cfi_offset 8, -16
 202              		.cfi_offset 9, -24
 203 00cc 13040102 		addi	s0,sp,32
 204              		.cfi_def_cfa 8, 0
  40:src/SleepPCBList.cpp ****     Riscv::printString("Waking pcbs...\n");
 205              		.loc 1 40 5
 206              		.loc 1 40 23 is_stmt 0
 207 00d0 17050000 		lla	a0,.LC1
 207      13050500 
 208 00d8 97000000 		call	_ZN5Riscv11printStringEPKc@plt
 208      E7800000 
 209              	.LVL20:
  41:src/SleepPCBList.cpp ****     PCB* curr = sleepingPCBHead;
 210              		.loc 1 41 5 is_stmt 1
 211              		.loc 1 41 10 is_stmt 0
 212 00e0 17050000 		ld	a0,.LANCHOR0
 212      03350500 
 213              	.LVL21:
  42:src/SleepPCBList.cpp ****     if(curr == 0)
 214              		.loc 1 42 5 is_stmt 1
 215 00e8 63060502 		beqz	a0,.L17
  43:src/SleepPCBList.cpp ****     {
  44:src/SleepPCBList.cpp ****         Riscv::printString("NULL\n");
  45:src/SleepPCBList.cpp ****         return;
  46:src/SleepPCBList.cpp ****     }
  47:src/SleepPCBList.cpp ****     if(sleepingPCBHead->getTimeToSleep() == 1)
 216              		.loc 1 47 5
 217              	.LVL22:
 218              	.LBB45:
 219              	.LBB46:
 220              	.LBB47:
 221              		.loc 2 37 30
 222              		.loc 2 37 37 is_stmt 0
 223 00ec 83370501 		ld	a5,16(a0)
 224              	.LVL23:
GAS LISTING /tmp/ccyybGW1.s 			page 7


 225              	.LBE47:
 226              	.LBE46:
 227              		.loc 1 47 5
 228 00f0 13071000 		li	a4,1
 229 00f4 6388E704 		beq	a5,a4,.L15
  48:src/SleepPCBList.cpp ****     {
  49:src/SleepPCBList.cpp ****         while(curr != 0 && (curr == sleepingPCBHead || curr->getTimeToSleep() == 0))
  50:src/SleepPCBList.cpp ****         {
  51:src/SleepPCBList.cpp ****             PCB *old = curr;
  52:src/SleepPCBList.cpp ****             curr = curr->nextPCB;
  53:src/SleepPCBList.cpp ****             old->nextPCB = 0;
  54:src/SleepPCBList.cpp ****             Scheduler::put(old);
  55:src/SleepPCBList.cpp ****             sleepingPCBHead = curr;
  56:src/SleepPCBList.cpp ****         }
  57:src/SleepPCBList.cpp ****     }
  58:src/SleepPCBList.cpp ****     else
  59:src/SleepPCBList.cpp ****     {
  60:src/SleepPCBList.cpp ****         sleepingPCBHead->setTimeToSleep(sleepingPCBHead->getTimeToSleep() - 1);
 230              		.loc 1 60 9 is_stmt 1
 231              	.LVL24:
 232              	.LBE45:
 233              		.loc 2 37 30
 234              	.LBB54:
 235              		.loc 1 60 40 is_stmt 0
 236 00f8 9387F7FF 		addi	a5,a5,-1
 237              	.LVL25:
 238              	.LBB48:
 239              	.LBB49:
  36:src/../h/PCB.hpp ****     uint64 getTimeToSleep() {return timeToSleep;}
 240              		.loc 2 36 39 is_stmt 1
  36:src/../h/PCB.hpp ****     uint64 getTimeToSleep() {return timeToSleep;}
 241              		.loc 2 36 51 is_stmt 0
 242 00fc 2338F500 		sd	a5,16(a0)
 243              	.LVL26:
 244              	.L10:
 245              	.LBE49:
 246              	.LBE48:
 247              	.LBE54:
  61:src/SleepPCBList.cpp ****     }
  62:src/SleepPCBList.cpp **** }
 248              		.loc 1 62 1
 249 0100 83308101 		ld	ra,24(sp)
 250              		.cfi_remember_state
 251              		.cfi_restore 1
 252 0104 03340101 		ld	s0,16(sp)
 253              		.cfi_restore 8
 254              		.cfi_def_cfa 2, 32
 255 0108 83348100 		ld	s1,8(sp)
 256              		.cfi_restore 9
 257 010c 13010102 		addi	sp,sp,32
 258              		.cfi_def_cfa_offset 0
 259 0110 67800000 		jr	ra
 260              	.LVL27:
 261              	.L17:
 262              		.cfi_restore_state
  44:src/SleepPCBList.cpp ****         return;
 263              		.loc 1 44 9 is_stmt 1
GAS LISTING /tmp/ccyybGW1.s 			page 8


  44:src/SleepPCBList.cpp ****         return;
 264              		.loc 1 44 27 is_stmt 0
 265 0114 17050000 		lla	a0,.LC2
 265      13050500 
 266              	.LVL28:
 267 011c 97000000 		call	_ZN5Riscv11printStringEPKc@plt
 267      E7800000 
 268              	.LVL29:
  45:src/SleepPCBList.cpp ****     }
 269              		.loc 1 45 9 is_stmt 1
 270 0124 6FF0DFFD 		j	.L10
 271              	.LVL30:
 272              	.L14:
 273              	.LBB55:
 274              	.LBB50:
 275              	.LBB51:
  51:src/SleepPCBList.cpp ****             curr = curr->nextPCB;
 276              		.loc 1 51 13 discriminator 5
  52:src/SleepPCBList.cpp ****             old->nextPCB = 0;
 277              		.loc 1 52 13 discriminator 5
  52:src/SleepPCBList.cpp ****             old->nextPCB = 0;
 278              		.loc 1 52 18 is_stmt 0 discriminator 5
 279 0128 83340500 		ld	s1,0(a0)
 280              	.LVL31:
  53:src/SleepPCBList.cpp ****             Scheduler::put(old);
 281              		.loc 1 53 13 is_stmt 1 discriminator 5
  53:src/SleepPCBList.cpp ****             Scheduler::put(old);
 282              		.loc 1 53 26 is_stmt 0 discriminator 5
 283 012c 23300500 		sd	zero,0(a0)
  54:src/SleepPCBList.cpp ****             sleepingPCBHead = curr;
 284              		.loc 1 54 13 is_stmt 1 discriminator 5
  54:src/SleepPCBList.cpp ****             sleepingPCBHead = curr;
 285              		.loc 1 54 27 is_stmt 0 discriminator 5
 286 0130 97000000 		call	_ZN9Scheduler3putEP3PCB@plt
 286      E7800000 
 287              	.LVL32:
  55:src/SleepPCBList.cpp ****         }
 288              		.loc 1 55 13 is_stmt 1 discriminator 5
  55:src/SleepPCBList.cpp ****         }
 289              		.loc 1 55 29 is_stmt 0 discriminator 5
 290 0138 97070000 		sd	s1,.LANCHOR0,a5
 290      23B09700 
  52:src/SleepPCBList.cpp ****             old->nextPCB = 0;
 291              		.loc 1 52 18 discriminator 5
 292 0140 13850400 		mv	a0,s1
 293              	.LVL33:
 294              	.L15:
 295              	.LBE51:
  49:src/SleepPCBList.cpp ****         {
 296              		.loc 1 49 9 is_stmt 1
  49:src/SleepPCBList.cpp ****         {
 297              		.loc 1 49 25
 298 0144 E30E05FA 		beqz	a0,.L10
  49:src/SleepPCBList.cpp ****         {
 299              		.loc 1 49 34 is_stmt 0 discriminator 1
 300 0148 97070000 		ld	a5,.LANCHOR0
 300      83B70700 
GAS LISTING /tmp/ccyybGW1.s 			page 9


  49:src/SleepPCBList.cpp ****         {
 301              		.loc 1 49 25 discriminator 1
 302 0150 E38CA7FC 		beq	a5,a0,.L14
 303              	.LVL34:
 304              	.LBB52:
 305              	.LBB53:
 306              		.loc 2 37 30 is_stmt 1
 307              		.loc 2 37 37 is_stmt 0
 308 0154 83370501 		ld	a5,16(a0)
 309              	.LVL35:
 310              	.LBE53:
 311              	.LBE52:
  49:src/SleepPCBList.cpp ****         {
 312              		.loc 1 49 53
 313 0158 E38807FC 		beqz	a5,.L14
 314 015c 6FF05FFA 		j	.L10
 315              	.LBE50:
 316              	.LBE55:
 317              		.cfi_endproc
 318              	.LFE22:
 320              		.globl	_ZN12SleepPCBList15sleepingPCBHeadE
 321              		.bss
 322              		.align	3
 323              		.set	.LANCHOR0,. + 0
 326              	_ZN12SleepPCBList15sleepingPCBHeadE:
 327 0000 00000000 		.zero	8
 327      00000000 
 328              		.text
 329              	.Letext0:
 330              		.file 3 "src/../h/../lib/hw.h"
 331              		.file 4 "src/../h/Queue.hpp"
 332              		.file 5 "src/../h/Scheduler.hpp"
 333              		.file 6 "src/../h/Riscv.hpp"
 334              		.file 7 "src/../h/SleepPCBList.hpp"
GAS LISTING /tmp/ccyybGW1.s 			page 10

