GAS LISTING /tmp/ccOPjE8M.s 			page 1


   1              		.file	"SleepPCBList.cpp"
   2              		.option pic
   3              		.option norelax
   4              		.text
   5              	.Ltext0:
   6              		.align	2
   7              		.globl	_ZN12SleepPCBList17insertSleepingPCBEv
   9              	_ZN12SleepPCBList17insertSleepingPCBEv:
  10              	.LFB24:
  11              		.file 1 "src/SleepPCBList.cpp"
   1:src/SleepPCBList.cpp **** //
   2:src/SleepPCBList.cpp **** // Created by os on 5/11/22.
   3:src/SleepPCBList.cpp **** //
   4:src/SleepPCBList.cpp **** 
   5:src/SleepPCBList.cpp **** #include "../h/SleepPCBList.hpp"
   6:src/SleepPCBList.cpp **** 
   7:src/SleepPCBList.cpp **** PCB* SleepPCBList::sleepingPCBHead = 0;
   8:src/SleepPCBList.cpp **** 
   9:src/SleepPCBList.cpp **** void SleepPCBList::insertSleepingPCB()
  10:src/SleepPCBList.cpp **** {
  12              		.loc 1 10 1
  13              		.cfi_startproc
  14 0000 130101FF 		addi	sp,sp,-16
  15              		.cfi_def_cfa_offset 16
  16 0004 23348100 		sd	s0,8(sp)
  17              		.cfi_offset 8, -8
  18 0008 13040101 		addi	s0,sp,16
  19              		.cfi_def_cfa 8, 0
  11:src/SleepPCBList.cpp ****     PCB::running->setState(PCB::SLEEPING);
  20              		.loc 1 11 5
  21              		.loc 1 11 27 is_stmt 0
  22 000c 97070000 		la	a5,_ZN3PCB7runningE
  22      83B70700 
  23 0014 03B60700 		ld	a2,0(a5)
  24              	.LVL0:
  25              	.LBB11:
  26              	.LBB12:
  27              		.file 2 "src/../h/PCB.hpp"
   1:src/../h/PCB.hpp **** //
   2:src/../h/PCB.hpp **** // Created by os on 4/27/22.
   3:src/../h/PCB.hpp **** //
   4:src/../h/PCB.hpp **** 
   5:src/../h/PCB.hpp **** #ifndef PROJECT_BASE_V1_0_PCB_HPP
   6:src/../h/PCB.hpp **** #define PROJECT_BASE_V1_0_PCB_HPP
   7:src/../h/PCB.hpp **** 
   8:src/../h/PCB.hpp **** #include "../lib/hw.h"
   9:src/../h/PCB.hpp **** #include "Scheduler.hpp"
  10:src/../h/PCB.hpp **** #include "Riscv.hpp"
  11:src/../h/PCB.hpp **** 
  12:src/../h/PCB.hpp **** class PCB
  13:src/../h/PCB.hpp **** {
  14:src/../h/PCB.hpp **** public:
  15:src/../h/PCB.hpp ****     static uint64 savedRegA4;
  16:src/../h/PCB.hpp **** 
  17:src/../h/PCB.hpp ****     using Body = void (*)(void*);
  18:src/../h/PCB.hpp **** 
  19:src/../h/PCB.hpp ****     PCB(Body body,  void* args, void* stack_space, uint64 timeSlice);
GAS LISTING /tmp/ccOPjE8M.s 			page 2


  20:src/../h/PCB.hpp ****     ~PCB();
  21:src/../h/PCB.hpp **** 
  22:src/../h/PCB.hpp ****     void start();
  23:src/../h/PCB.hpp ****     static void dispatch();
  24:src/../h/PCB.hpp ****     static void sleep(time_t);
  25:src/../h/PCB.hpp **** 
  26:src/../h/PCB.hpp ****     static PCB* running;
  27:src/../h/PCB.hpp **** 
  28:src/../h/PCB.hpp ****     static uint64 timeSliceCounter;
  29:src/../h/PCB.hpp ****     uint64 getTimeSlice() { return timeSlice;}
  30:src/../h/PCB.hpp **** 
  31:src/../h/PCB.hpp ****     void* operator new(size_t size);
  32:src/../h/PCB.hpp ****     void operator delete(void *p);
  33:src/../h/PCB.hpp **** 
  34:src/../h/PCB.hpp ****     enum State{READY, RUNNING, SUSPENDED, FINISHED, EXITING, SLEEPING};
  35:src/../h/PCB.hpp ****     State getState() {return state;}
  36:src/../h/PCB.hpp ****     void setState(State s) {state = s;}
  28              		.loc 2 36 29 is_stmt 1
  29              		.loc 2 36 35 is_stmt 0
  30 0018 93075000 		li	a5,5
  31 001c 232CF602 		sw	a5,56(a2)
  32              	.LVL1:
  33              	.LBE12:
  34              	.LBE11:
  12:src/SleepPCBList.cpp ****     //Riscv::printString("Inserting sleeping PCB...\n");
  13:src/SleepPCBList.cpp ****     PCB* prev = 0;
  35              		.loc 1 13 5 is_stmt 1
  14:src/SleepPCBList.cpp ****     PCB* curr = sleepingPCBHead;
  36              		.loc 1 14 5
  37              		.loc 1 14 10 is_stmt 0
  38 0020 97070000 		ld	a5,.LANCHOR0
  38      83B70700 
  39              	.LVL2:
  13:src/SleepPCBList.cpp ****     PCB* curr = sleepingPCBHead;
  40              		.loc 1 13 10
  41 0028 93050000 		li	a1,0
  42              	.LVL3:
  43              	.L4:
  15:src/SleepPCBList.cpp ****     while(curr != 0)
  44              		.loc 1 15 5 is_stmt 1
  45              		.loc 1 15 16
  46 002c 63800702 		beqz	a5,.L2
  16:src/SleepPCBList.cpp ****     {
  17:src/SleepPCBList.cpp ****         if(PCB::running->getTimeToSleep() < curr->getTimeToSleep())
  47              		.loc 1 17 9
  48              	.LVL4:
  49              	.LBB13:
  50              	.LBB14:
  37:src/../h/PCB.hpp ****     void setTimeToSleep(uint64 time) {timeToSleep = time;}
  38:src/../h/PCB.hpp ****     uint64 getTimeToSleep() {return timeToSleep;}
  51              		.loc 2 38 30
  52              		.loc 2 38 37 is_stmt 0
  53 0030 83368601 		ld	a3,24(a2)
  54              	.LVL5:
  55              	.LBE14:
  56              	.LBE13:
  57              	.LBB15:
GAS LISTING /tmp/ccOPjE8M.s 			page 3


  58              	.LBB16:
  59              		.loc 2 38 30 is_stmt 1
  60              		.loc 2 38 37 is_stmt 0
  61 0034 03B78701 		ld	a4,24(a5)
  62              	.LVL6:
  63              	.LBE16:
  64              	.LBE15:
  65              		.loc 1 17 9
  66 0038 63E8E600 		bltu	a3,a4,.L8
  18:src/SleepPCBList.cpp ****         {
  19:src/SleepPCBList.cpp ****             PCB::running->nextPCB = curr;
  20:src/SleepPCBList.cpp ****             break;
  21:src/SleepPCBList.cpp ****         }
  22:src/SleepPCBList.cpp ****         prev = curr;
  67              		.loc 1 22 9 is_stmt 1
  68              	.LVL7:
  23:src/SleepPCBList.cpp ****         curr=curr->nextPCB;
  69              		.loc 1 23 9
  22:src/SleepPCBList.cpp ****         curr=curr->nextPCB;
  70              		.loc 1 22 14 is_stmt 0
  71 003c 93850700 		mv	a1,a5
  72              		.loc 1 23 13
  73 0040 83B78700 		ld	a5,8(a5)
  74              	.LVL8:
  15:src/SleepPCBList.cpp ****     {
  75              		.loc 1 15 5
  76 0044 6FF09FFE 		j	.L4
  77              	.L8:
  19:src/SleepPCBList.cpp ****             break;
  78              		.loc 1 19 13 is_stmt 1
  19:src/SleepPCBList.cpp ****             break;
  79              		.loc 1 19 35 is_stmt 0
  80 0048 2334F600 		sd	a5,8(a2)
  20:src/SleepPCBList.cpp ****         }
  81              		.loc 1 20 13 is_stmt 1
  82              	.L2:
  24:src/SleepPCBList.cpp ****     }
  25:src/SleepPCBList.cpp **** 
  26:src/SleepPCBList.cpp ****     if(prev == 0)
  83              		.loc 1 26 5
  84 004c 638A0500 		beqz	a1,.L9
  27:src/SleepPCBList.cpp ****     {
  28:src/SleepPCBList.cpp ****         sleepingPCBHead = PCB::running;
  29:src/SleepPCBList.cpp ****         //if(sleepingPCBHead->nextPCB != 0)
  30:src/SleepPCBList.cpp ****         //    sleepingPCBHead->nextPCB->setTimeToSleep(sleepingPCBHead->nextPCB->getTimeToSleep() -
  31:src/SleepPCBList.cpp ****     }
  32:src/SleepPCBList.cpp ****     else
  33:src/SleepPCBList.cpp ****     {
  34:src/SleepPCBList.cpp ****         //PCB::running->setTimeToSleep(PCB::running->getTimeToSleep() - prev->getTimeToSleep());
  35:src/SleepPCBList.cpp ****         prev->nextPCB = PCB::running;
  85              		.loc 1 35 9
  86              		.loc 1 35 23 is_stmt 0
  87 0050 23B4C500 		sd	a2,8(a1)
  88              	.LVL9:
  89              	.L1:
  36:src/SleepPCBList.cpp ****     }
  37:src/SleepPCBList.cpp **** }
GAS LISTING /tmp/ccOPjE8M.s 			page 4


  90              		.loc 1 37 1
  91 0054 03348100 		ld	s0,8(sp)
  92              		.cfi_remember_state
  93              		.cfi_restore 8
  94              		.cfi_def_cfa 2, 16
  95 0058 13010101 		addi	sp,sp,16
  96              		.cfi_def_cfa_offset 0
  97 005c 67800000 		jr	ra
  98              	.LVL10:
  99              	.L9:
 100              		.cfi_restore_state
  28:src/SleepPCBList.cpp ****         //if(sleepingPCBHead->nextPCB != 0)
 101              		.loc 1 28 9 is_stmt 1
  28:src/SleepPCBList.cpp ****         //if(sleepingPCBHead->nextPCB != 0)
 102              		.loc 1 28 25 is_stmt 0
 103 0060 97070000 		sd	a2,.LANCHOR0,a5
 103      23B0C700 
 104              	.LVL11:
 105 0068 6FF0DFFE 		j	.L1
 106              		.cfi_endproc
 107              	.LFE24:
 109              		.align	2
 110              		.globl	_ZN12SleepPCBList13tryToWakePCBsEv
 112              	_ZN12SleepPCBList13tryToWakePCBsEv:
 113              	.LFB25:
  38:src/SleepPCBList.cpp **** 
  39:src/SleepPCBList.cpp **** void SleepPCBList::tryToWakePCBs()
  40:src/SleepPCBList.cpp **** {
 114              		.loc 1 40 1 is_stmt 1
 115              		.cfi_startproc
  41:src/SleepPCBList.cpp ****     //Riscv::printString("Waking PCBs...\n");
  42:src/SleepPCBList.cpp ****     PCB* curr = sleepingPCBHead;
 116              		.loc 1 42 5
 117              		.loc 1 42 10 is_stmt 0
 118 006c 17050000 		ld	a0,.LANCHOR0
 118      03350500 
 119              	.LVL12:
  43:src/SleepPCBList.cpp ****     if(curr == 0)
 120              		.loc 1 43 5 is_stmt 1
 121 0074 630E0506 		beqz	a0,.L14
  44:src/SleepPCBList.cpp ****     {
  45:src/SleepPCBList.cpp ****         //Riscv::printString("No sleeping PCBs...\n");
  46:src/SleepPCBList.cpp ****         return;
  47:src/SleepPCBList.cpp ****     }
  48:src/SleepPCBList.cpp ****     while(curr != 0 && Riscv::totalTime >= curr->getTimeToSleep())
 122              		.loc 1 48 5
 123              		.loc 1 48 21
 124 0078 630C0506 		beqz	a0,.L14
 125              	.LVL13:
 126              	.LBB17:
 127              	.LBB18:
 128              		.loc 2 38 30
 129              		.loc 2 38 37 is_stmt 0
 130 007c 83378501 		ld	a5,24(a0)
 131              	.LVL14:
 132              	.LBE18:
 133              	.LBE17:
GAS LISTING /tmp/ccOPjE8M.s 			page 5


 134              		.loc 1 48 41
 135 0080 17070000 		la	a4,_ZN5Riscv9totalTimeE
 135      03370700 
 136 0088 03370700 		ld	a4,0(a4)
 137              		.loc 1 48 21
 138 008c 6362F706 		bltu	a4,a5,.L14
  40:src/SleepPCBList.cpp ****     //Riscv::printString("Waking PCBs...\n");
 139              		.loc 1 40 1
 140 0090 130101FE 		addi	sp,sp,-32
 141              		.cfi_def_cfa_offset 32
 142 0094 233C1100 		sd	ra,24(sp)
 143 0098 23388100 		sd	s0,16(sp)
 144 009c 23349100 		sd	s1,8(sp)
 145              		.cfi_offset 1, -8
 146              		.cfi_offset 8, -16
 147              		.cfi_offset 9, -24
 148 00a0 13040102 		addi	s0,sp,32
 149              		.cfi_def_cfa 8, 0
 150 00a4 6F008001 		j	.L17
 151              	.LVL15:
 152              	.L19:
 153              	.LBB20:
 154              	.LBB19:
 155              		.loc 2 38 30 is_stmt 1
 156              		.loc 2 38 37 is_stmt 0
 157 00a8 83B78401 		ld	a5,24(s1)
 158              	.LVL16:
 159              	.LBE19:
 160              	.LBE20:
 161              		.loc 1 48 41
 162 00ac 17070000 		la	a4,_ZN5Riscv9totalTimeE
 162      03370700 
 163 00b4 03370700 		ld	a4,0(a4)
 164              		.loc 1 48 21
 165 00b8 6362F702 		bltu	a4,a5,.L10
 166              	.LVL17:
 167              	.L17:
 168              	.LBB21:
  49:src/SleepPCBList.cpp ****     {
  50:src/SleepPCBList.cpp ****         PCB *old = curr;
 169              		.loc 1 50 9 is_stmt 1
  51:src/SleepPCBList.cpp ****         curr = curr->nextPCB;
 170              		.loc 1 51 9
 171              		.loc 1 51 14 is_stmt 0
 172 00bc 83348500 		ld	s1,8(a0)
 173              	.LVL18:
  52:src/SleepPCBList.cpp ****         old->nextPCB = 0;
 174              		.loc 1 52 9 is_stmt 1
 175              		.loc 1 52 22 is_stmt 0
 176 00c0 23340500 		sd	zero,8(a0)
  53:src/SleepPCBList.cpp ****         Scheduler::put(old);
 177              		.loc 1 53 9 is_stmt 1
 178              		.loc 1 53 23 is_stmt 0
 179 00c4 97000000 		call	_ZN9Scheduler3putEP3PCB@plt
 179      E7800000 
 180              	.LVL19:
  54:src/SleepPCBList.cpp ****         sleepingPCBHead = curr;
GAS LISTING /tmp/ccOPjE8M.s 			page 6


 181              		.loc 1 54 9 is_stmt 1
 182              		.loc 1 54 25 is_stmt 0
 183 00cc 97070000 		sd	s1,.LANCHOR0,a5
 183      23B09700 
  51:src/SleepPCBList.cpp ****         old->nextPCB = 0;
 184              		.loc 1 51 14
 185 00d4 13850400 		mv	a0,s1
 186              	.LBE21:
  48:src/SleepPCBList.cpp ****     {
 187              		.loc 1 48 5 is_stmt 1
  48:src/SleepPCBList.cpp ****     {
 188              		.loc 1 48 21
 189 00d8 E39804FC 		bnez	s1,.L19
 190              	.L10:
  55:src/SleepPCBList.cpp ****     }
  56:src/SleepPCBList.cpp **** }
 191              		.loc 1 56 1 is_stmt 0
 192 00dc 83308101 		ld	ra,24(sp)
 193              		.cfi_restore 1
 194 00e0 03340101 		ld	s0,16(sp)
 195              		.cfi_restore 8
 196              		.cfi_def_cfa 2, 32
 197 00e4 83348100 		ld	s1,8(sp)
 198              		.cfi_restore 9
 199              	.LVL20:
 200 00e8 13010102 		addi	sp,sp,32
 201              		.cfi_def_cfa_offset 0
 202 00ec 67800000 		jr	ra
 203              	.L14:
 204 00f0 67800000 		ret
 205              		.cfi_endproc
 206              	.LFE25:
 208              		.globl	_ZN12SleepPCBList15sleepingPCBHeadE
 209              		.bss
 210              		.align	3
 211              		.set	.LANCHOR0,. + 0
 214              	_ZN12SleepPCBList15sleepingPCBHeadE:
 215 0000 00000000 		.zero	8
 215      00000000 
 216              		.text
 217              	.Letext0:
 218              		.file 3 "src/../h/../lib/hw.h"
 219              		.file 4 "src/../h/Scheduler.hpp"
 220              		.file 5 "src/../h/SleepPCBList.hpp"
GAS LISTING /tmp/ccOPjE8M.s 			page 7


DEFINED SYMBOLS
                            *ABS*:0000000000000000 SleepPCBList.cpp
     /tmp/ccOPjE8M.s:9      .text:0000000000000000 _ZN12SleepPCBList17insertSleepingPCBEv
     /tmp/ccOPjE8M.s:13     .text:0000000000000000 .L0 
     /tmp/ccOPjE8M.s:14     .text:0000000000000000 .L0 
     /tmp/ccOPjE8M.s:15     .text:0000000000000004 .L0 
     /tmp/ccOPjE8M.s:17     .text:0000000000000008 .L0 
     /tmp/ccOPjE8M.s:19     .text:000000000000000c .L0 
     /tmp/ccOPjE8M.s:21     .text:000000000000000c .L0 
     /tmp/ccOPjE8M.s:22     .text:000000000000000c .L0 
     /tmp/ccOPjE8M.s:29     .text:0000000000000018 .L0 
     /tmp/ccOPjE8M.s:30     .text:0000000000000018 .L0 
     /tmp/ccOPjE8M.s:36     .text:0000000000000020 .L0 
     /tmp/ccOPjE8M.s:37     .text:0000000000000020 .L0 
     /tmp/ccOPjE8M.s:38     .text:0000000000000020 .L0 
     /tmp/ccOPjE8M.s:41     .text:0000000000000028 .L0 
     /tmp/ccOPjE8M.s:45     .text:000000000000002c .L0 
     /tmp/ccOPjE8M.s:46     .text:000000000000002c .L0 
     /tmp/ccOPjE8M.s:51     .text:0000000000000030 .L0 
     /tmp/ccOPjE8M.s:52     .text:0000000000000030 .L0 
     /tmp/ccOPjE8M.s:53     .text:0000000000000030 .L0 
     /tmp/ccOPjE8M.s:60     .text:0000000000000034 .L0 
     /tmp/ccOPjE8M.s:61     .text:0000000000000034 .L0 
     /tmp/ccOPjE8M.s:66     .text:0000000000000038 .L0 
     /tmp/ccOPjE8M.s:69     .text:000000000000003c .L0 
     /tmp/ccOPjE8M.s:70     .text:000000000000003c .L0 
     /tmp/ccOPjE8M.s:71     .text:000000000000003c .L0 
     /tmp/ccOPjE8M.s:73     .text:0000000000000040 .L0 
     /tmp/ccOPjE8M.s:76     .text:0000000000000044 .L0 
     /tmp/ccOPjE8M.s:79     .text:0000000000000048 .L0 
     /tmp/ccOPjE8M.s:80     .text:0000000000000048 .L0 
     /tmp/ccOPjE8M.s:83     .text:000000000000004c .L0 
     /tmp/ccOPjE8M.s:84     .text:000000000000004c .L0 
     /tmp/ccOPjE8M.s:86     .text:0000000000000050 .L0 
     /tmp/ccOPjE8M.s:87     .text:0000000000000050 .L0 
     /tmp/ccOPjE8M.s:91     .text:0000000000000054 .L0 
     /tmp/ccOPjE8M.s:92     .text:0000000000000058 .L0 
     /tmp/ccOPjE8M.s:93     .text:0000000000000058 .L0 
     /tmp/ccOPjE8M.s:94     .text:0000000000000058 .L0 
     /tmp/ccOPjE8M.s:96     .text:000000000000005c .L0 
     /tmp/ccOPjE8M.s:100    .text:0000000000000060 .L0 
     /tmp/ccOPjE8M.s:102    .text:0000000000000060 .L0 
     /tmp/ccOPjE8M.s:103    .text:0000000000000060 .L0 
     /tmp/ccOPjE8M.s:106    .text:000000000000006c .L0 
     /tmp/ccOPjE8M.s:112    .text:000000000000006c _ZN12SleepPCBList13tryToWakePCBsEv
     /tmp/ccOPjE8M.s:115    .text:000000000000006c .L0 
     /tmp/ccOPjE8M.s:116    .text:000000000000006c .L0 
     /tmp/ccOPjE8M.s:117    .text:000000000000006c .L0 
     /tmp/ccOPjE8M.s:118    .text:000000000000006c .L0 
     /tmp/ccOPjE8M.s:121    .text:0000000000000074 .L0 
     /tmp/ccOPjE8M.s:123    .text:0000000000000078 .L0 
     /tmp/ccOPjE8M.s:124    .text:0000000000000078 .L0 
     /tmp/ccOPjE8M.s:129    .text:000000000000007c .L0 
     /tmp/ccOPjE8M.s:130    .text:000000000000007c .L0 
     /tmp/ccOPjE8M.s:135    .text:0000000000000080 .L0 
     /tmp/ccOPjE8M.s:138    .text:000000000000008c .L0 
     /tmp/ccOPjE8M.s:140    .text:0000000000000090 .L0 
GAS LISTING /tmp/ccOPjE8M.s 			page 8


     /tmp/ccOPjE8M.s:141    .text:0000000000000094 .L0 
     /tmp/ccOPjE8M.s:145    .text:00000000000000a0 .L0 
     /tmp/ccOPjE8M.s:146    .text:00000000000000a0 .L0 
     /tmp/ccOPjE8M.s:147    .text:00000000000000a0 .L0 
     /tmp/ccOPjE8M.s:149    .text:00000000000000a4 .L0 
     /tmp/ccOPjE8M.s:156    .text:00000000000000a8 .L0 
     /tmp/ccOPjE8M.s:157    .text:00000000000000a8 .L0 
     /tmp/ccOPjE8M.s:162    .text:00000000000000ac .L0 
     /tmp/ccOPjE8M.s:165    .text:00000000000000b8 .L0 
     /tmp/ccOPjE8M.s:170    .text:00000000000000bc .L0 
     /tmp/ccOPjE8M.s:171    .text:00000000000000bc .L0 
     /tmp/ccOPjE8M.s:172    .text:00000000000000bc .L0 
     /tmp/ccOPjE8M.s:175    .text:00000000000000c0 .L0 
     /tmp/ccOPjE8M.s:176    .text:00000000000000c0 .L0 
     /tmp/ccOPjE8M.s:178    .text:00000000000000c4 .L0 
     /tmp/ccOPjE8M.s:179    .text:00000000000000c4 .L0 
     /tmp/ccOPjE8M.s:182    .text:00000000000000cc .L0 
     /tmp/ccOPjE8M.s:183    .text:00000000000000cc .L0 
     /tmp/ccOPjE8M.s:185    .text:00000000000000d4 .L0 
     /tmp/ccOPjE8M.s:188    .text:00000000000000d8 .L0 
     /tmp/ccOPjE8M.s:189    .text:00000000000000d8 .L0 
     /tmp/ccOPjE8M.s:192    .text:00000000000000dc .L0 
     /tmp/ccOPjE8M.s:193    .text:00000000000000e0 .L0 
     /tmp/ccOPjE8M.s:195    .text:00000000000000e4 .L0 
     /tmp/ccOPjE8M.s:196    .text:00000000000000e4 .L0 
     /tmp/ccOPjE8M.s:198    .text:00000000000000e8 .L0 
     /tmp/ccOPjE8M.s:201    .text:00000000000000ec .L0 
     /tmp/ccOPjE8M.s:205    .text:00000000000000f4 .L0 
     /tmp/ccOPjE8M.s:214    .bss:0000000000000000 _ZN12SleepPCBList15sleepingPCBHeadE
     /tmp/ccOPjE8M.s:211    .bss:0000000000000000 .LANCHOR0
     /tmp/ccOPjE8M.s:221    .text:00000000000000f4 .L0 
     /tmp/ccOPjE8M.s:22     .text:000000000000000c .L0 
     /tmp/ccOPjE8M.s:38     .text:0000000000000020 .L0 
     /tmp/ccOPjE8M.s:103    .text:0000000000000060 .L0 
     /tmp/ccOPjE8M.s:118    .text:000000000000006c .L0 
     /tmp/ccOPjE8M.s:135    .text:0000000000000080 .L0 
     /tmp/ccOPjE8M.s:162    .text:00000000000000ac .L0 
     /tmp/ccOPjE8M.s:183    .text:00000000000000cc .L0 
     /tmp/ccOPjE8M.s:82     .text:000000000000004c .L2
     /tmp/ccOPjE8M.s:77     .text:0000000000000048 .L8
     /tmp/ccOPjE8M.s:43     .text:000000000000002c .L4
     /tmp/ccOPjE8M.s:99     .text:0000000000000060 .L9
     /tmp/ccOPjE8M.s:89     .text:0000000000000054 .L1
     /tmp/ccOPjE8M.s:203    .text:00000000000000f0 .L14
     /tmp/ccOPjE8M.s:167    .text:00000000000000bc .L17
     /tmp/ccOPjE8M.s:190    .text:00000000000000dc .L10
     /tmp/ccOPjE8M.s:152    .text:00000000000000a8 .L19
     /tmp/ccOPjE8M.s:1075   .debug_abbrev:0000000000000000 .Ldebug_abbrev0
     /tmp/ccOPjE8M.s:2075   .debug_str:00000000000000e5 .LASF105
     /tmp/ccOPjE8M.s:2105   .debug_str:000000000000026a .LASF106
     /tmp/ccOPjE8M.s:2249   .debug_str:00000000000006ba .LASF107
     /tmp/ccOPjE8M.s:5      .text:0000000000000000 .Ltext0
     /tmp/ccOPjE8M.s:217    .text:00000000000000f4 .Letext0
     /tmp/ccOPjE8M.s:2047   .debug_line:0000000000000000 .Ldebug_line0
     /tmp/ccOPjE8M.s:2133   .debug_str:0000000000000343 .LASF0
     /tmp/ccOPjE8M.s:2149   .debug_str:00000000000003bd .LASF1
     /tmp/ccOPjE8M.s:2199   .debug_str:000000000000056c .LASF2
GAS LISTING /tmp/ccOPjE8M.s 			page 9


     /tmp/ccOPjE8M.s:2207   .debug_str:000000000000059b .LASF4
     /tmp/ccOPjE8M.s:2141   .debug_str:0000000000000386 .LASF3
     /tmp/ccOPjE8M.s:2055   .debug_str:000000000000002f .LASF5
     /tmp/ccOPjE8M.s:2189   .debug_str:0000000000000517 .LASF6
     /tmp/ccOPjE8M.s:2185   .debug_str:00000000000004fc .LASF7
     /tmp/ccOPjE8M.s:2145   .debug_str:00000000000003a5 .LASF8
     /tmp/ccOPjE8M.s:2125   .debug_str:0000000000000312 .LASF9
     /tmp/ccOPjE8M.s:2129   .debug_str:000000000000032f .LASF10
     /tmp/ccOPjE8M.s:2087   .debug_str:00000000000001ea .LASF11
     /tmp/ccOPjE8M.s:2119   .debug_str:00000000000002e9 .LASF12
     /tmp/ccOPjE8M.s:2093   .debug_str:000000000000020c .LASF13
     /tmp/ccOPjE8M.s:2085   .debug_str:00000000000001da .LASF14
     /tmp/ccOPjE8M.s:2231   .debug_str:0000000000000666 .LASF15
     /tmp/ccOPjE8M.s:2113   .debug_str:00000000000002a0 .LASF16
     /tmp/ccOPjE8M.s:2225   .debug_str:0000000000000614 .LASF17
     /tmp/ccOPjE8M.s:2239   .debug_str:000000000000068a .LASF108
     /tmp/ccOPjE8M.s:2083   .debug_str:00000000000001d4 .LASF18
     /tmp/ccOPjE8M.s:2219   .debug_str:00000000000005f3 .LASF19
     /tmp/ccOPjE8M.s:2091   .debug_str:0000000000000202 .LASF20
     /tmp/ccOPjE8M.s:2071   .debug_str:00000000000000ce .LASF21
     /tmp/ccOPjE8M.s:2187   .debug_str:000000000000050f .LASF22
     /tmp/ccOPjE8M.s:2089   .debug_str:00000000000001f9 .LASF23
     /tmp/ccOPjE8M.s:2233   .debug_str:0000000000000672 .LASF84
     /tmp/ccOPjE8M.s:2131   .debug_str:000000000000033d .LASF24
     /tmp/ccOPjE8M.s:2057   .debug_str:0000000000000036 .LASF29
     /tmp/ccOPjE8M.s:2253   .debug_str:00000000000006e5 .LASF109
     /tmp/ccOPjE8M.s:2175   .debug_str:00000000000004ae .LASF110
     /tmp/ccOPjE8M.s:2147   .debug_str:00000000000003b8 .LASF25
     /tmp/ccOPjE8M.s:2275   .debug_str:0000000000000789 .LASF27
     /tmp/ccOPjE8M.s:2269   .debug_str:0000000000000759 .LASF26
     /tmp/ccOPjE8M.s:2245   .debug_str:00000000000006a0 .LASF28
     /tmp/ccOPjE8M.s:2107   .debug_str:000000000000027f .LASF54
     /tmp/ccOPjE8M.s:2063   .debug_str:000000000000007c .LASF56
     /tmp/ccOPjE8M.s:2151   .debug_str:00000000000003d0 .LASF34
     /tmp/ccOPjE8M.s:2179   .debug_str:00000000000004c6 .LASF36
     /tmp/ccOPjE8M.s:2241   .debug_str:0000000000000690 .LASF30
     /tmp/ccOPjE8M.s:2211   .debug_str:00000000000005aa .LASF31
     /tmp/ccOPjE8M.s:2153   .debug_str:00000000000003d6 .LASF38
     /tmp/ccOPjE8M.s:2155   .debug_str:00000000000003e3 .LASF40
     /tmp/ccOPjE8M.s:2277   .debug_str:0000000000000795 .LASF32
     /tmp/ccOPjE8M.s:2115   .debug_str:00000000000002b6 .LASF33
     /tmp/ccOPjE8M.s:2053   .debug_str:000000000000001f .LASF35
     /tmp/ccOPjE8M.s:2139   .debug_str:0000000000000379 .LASF37
     /tmp/ccOPjE8M.s:2215   .debug_str:00000000000005cc .LASF39
     /tmp/ccOPjE8M.s:2165   .debug_str:0000000000000436 .LASF41
     /tmp/ccOPjE8M.s:2205   .debug_str:0000000000000592 .LASF42
     /tmp/ccOPjE8M.s:2229   .debug_str:000000000000064a .LASF43
     /tmp/ccOPjE8M.s:2167   .debug_str:0000000000000449 .LASF44
     /tmp/ccOPjE8M.s:2049   .debug_str:0000000000000000 .LASF45
     /tmp/ccOPjE8M.s:2263   .debug_str:0000000000000731 .LASF46
     /tmp/ccOPjE8M.s:2183   .debug_str:00000000000004e2 .LASF47
     /tmp/ccOPjE8M.s:2223   .debug_str:0000000000000606 .LASF48
     /tmp/ccOPjE8M.s:2191   .debug_str:000000000000051e .LASF49
     /tmp/ccOPjE8M.s:2103   .debug_str:000000000000025a .LASF50
     /tmp/ccOPjE8M.s:2121   .debug_str:00000000000002f8 .LASF51
     /tmp/ccOPjE8M.s:2195   .debug_str:0000000000000547 .LASF52
     /tmp/ccOPjE8M.s:2265   .debug_str:0000000000000740 .LASF53
GAS LISTING /tmp/ccOPjE8M.s 			page 10


     /tmp/ccOPjE8M.s:2143   .debug_str:0000000000000398 .LASF60
     /tmp/ccOPjE8M.s:2221   .debug_str:00000000000005fb .LASF55
     /tmp/ccOPjE8M.s:2273   .debug_str:0000000000000773 .LASF57
     /tmp/ccOPjE8M.s:2235   .debug_str:000000000000067a .LASF58
     /tmp/ccOPjE8M.s:2099   .debug_str:000000000000023f .LASF59
     /tmp/ccOPjE8M.s:2209   .debug_str:00000000000005a2 .LASF61
     /tmp/ccOPjE8M.s:2135   .debug_str:0000000000000350 .LASF62
     /tmp/ccOPjE8M.s:2171   .debug_str:000000000000046e .LASF63
     /tmp/ccOPjE8M.s:2097   .debug_str:000000000000022d .LASF64
     /tmp/ccOPjE8M.s:2193   .debug_str:000000000000052a .LASF65
     /tmp/ccOPjE8M.s:2281   .debug_str:00000000000007c6 .LASF66
     /tmp/ccOPjE8M.s:2173   .debug_str:000000000000048d .LASF67
     /tmp/ccOPjE8M.s:2203   .debug_str:000000000000057f .LASF68
     /tmp/ccOPjE8M.s:2217   .debug_str:00000000000005d5 .LASF69
     /tmp/ccOPjE8M.s:2259   .debug_str:0000000000000717 .LASF70
     /tmp/ccOPjE8M.s:2161   .debug_str:0000000000000408 .LASF71
     /tmp/ccOPjE8M.s:2255   .debug_str:00000000000006fd .LASF72
     /tmp/ccOPjE8M.s:2227   .debug_str:000000000000062a .LASF73
     /tmp/ccOPjE8M.s:2247   .debug_str:00000000000006b0 .LASF74
     /tmp/ccOPjE8M.s:2181   .debug_str:00000000000004d6 .LASF75
     /tmp/ccOPjE8M.s:2267   .debug_str:000000000000074b .LASF76
     /tmp/ccOPjE8M.s:2067   .debug_str:0000000000000094 .LASF78
     /tmp/ccOPjE8M.s:2137   .debug_str:0000000000000364 .LASF77
     /tmp/ccOPjE8M.s:2081   .debug_str:00000000000001a8 .LASF79
     /tmp/ccOPjE8M.s:2261   .debug_str:000000000000072a .LASF111
     /tmp/ccOPjE8M.s:2079   .debug_str:0000000000000197 .LASF112
     /tmp/ccOPjE8M.s:2051   .debug_str:000000000000001a .LASF80
     /tmp/ccOPjE8M.s:2257   .debug_str:0000000000000712 .LASF81
     /tmp/ccOPjE8M.s:2157   .debug_str:00000000000003fb .LASF82
     /tmp/ccOPjE8M.s:2109   .debug_str:0000000000000288 .LASF83
     /tmp/ccOPjE8M.s:2251   .debug_str:00000000000006dd .LASF85
     /tmp/ccOPjE8M.s:2123   .debug_str:0000000000000308 .LASF86
     /tmp/ccOPjE8M.s:2059   .debug_str:0000000000000041 .LASF113
     /tmp/ccOPjE8M.s:2271   .debug_str:000000000000075f .LASF114
     /tmp/ccOPjE8M.s:2069   .debug_str:00000000000000bc .LASF87
     /tmp/ccOPjE8M.s:2177   .debug_str:00000000000004b3 .LASF88
     /tmp/ccOPjE8M.s:2243   .debug_str:0000000000000698 .LASF89
     /tmp/ccOPjE8M.s:2197   .debug_str:0000000000000554 .LASF115
     /tmp/ccOPjE8M.s:2077   .debug_str:0000000000000191 .LASF90
     /tmp/ccOPjE8M.s:2169   .debug_str:0000000000000458 .LASF91
     /tmp/ccOPjE8M.s:2213   .debug_str:00000000000005bb .LASF92
     /tmp/ccOPjE8M.s:2095   .debug_str:000000000000021c .LASF93
     /tmp/ccOPjE8M.s:2237   .debug_str:0000000000000685 .LASF94
     /tmp/ccOPjE8M.s:2159   .debug_str:0000000000000403 .LASF95
     /tmp/ccOPjE8M.s:2127   .debug_str:0000000000000322 .LASF96
     /tmp/ccOPjE8M.s:2163   .debug_str:0000000000000426 .LASF97
     /tmp/ccOPjE8M.s:2111   .debug_str:000000000000028e .LASF98
     /tmp/ccOPjE8M.s:2117   .debug_str:00000000000002c2 .LASF99
     /tmp/ccOPjE8M.s:2073   .debug_str:00000000000000d7 .LASF100
     /tmp/ccOPjE8M.s:2061   .debug_str:0000000000000059 .LASF101
     /tmp/ccOPjE8M.s:2279   .debug_str:00000000000007a2 .LASF116
     /tmp/ccOPjE8M.s:113    .text:000000000000006c .LFB25
     /tmp/ccOPjE8M.s:206    .text:00000000000000f4 .LFE25
     /tmp/ccOPjE8M.s:2201   .debug_str:000000000000057a .LASF102
     /tmp/ccOPjE8M.s:1916   .debug_loc:0000000000000000 .LLST6
     /tmp/ccOPjE8M.s:168    .text:00000000000000bc .LBB21
     /tmp/ccOPjE8M.s:186    .text:00000000000000d8 .LBE21
GAS LISTING /tmp/ccOPjE8M.s 			page 11


     /tmp/ccOPjE8M.s:1939   .debug_loc:000000000000006f .LLST8
     /tmp/ccOPjE8M.s:180    .text:00000000000000cc .LVL19
     /tmp/ccOPjE8M.s:126    .text:000000000000007c .LBB17
     /tmp/ccOPjE8M.s:2039   .debug_ranges:0000000000000000 .Ldebug_ranges0
     /tmp/ccOPjE8M.s:1946   .debug_loc:0000000000000092 .LLST7
     /tmp/ccOPjE8M.s:10     .text:0000000000000000 .LFB24
     /tmp/ccOPjE8M.s:107    .text:000000000000006c .LFE24
     /tmp/ccOPjE8M.s:2065   .debug_str:000000000000008f .LASF103
     /tmp/ccOPjE8M.s:1957   .debug_loc:00000000000000c8 .LLST0
     /tmp/ccOPjE8M.s:1977   .debug_loc:0000000000000125 .LLST1
     /tmp/ccOPjE8M.s:25     .text:0000000000000018 .LBB11
     /tmp/ccOPjE8M.s:34     .text:0000000000000020 .LBE11
     /tmp/ccOPjE8M.s:1997   .debug_loc:0000000000000182 .LLST2
     /tmp/ccOPjE8M.s:2005   .debug_loc:00000000000001a6 .LLST3
     /tmp/ccOPjE8M.s:49     .text:0000000000000030 .LBB13
     /tmp/ccOPjE8M.s:56     .text:0000000000000034 .LBE13
     /tmp/ccOPjE8M.s:2012   .debug_loc:00000000000001c9 .LLST4
     /tmp/ccOPjE8M.s:57     .text:0000000000000034 .LBB15
     /tmp/ccOPjE8M.s:64     .text:0000000000000038 .LBE15
     /tmp/ccOPjE8M.s:2019   .debug_loc:00000000000001ec .LLST5
     /tmp/ccOPjE8M.s:2101   .debug_str:0000000000000255 .LASF104
     /tmp/ccOPjE8M.s:119    .text:0000000000000074 .LVL12
     /tmp/ccOPjE8M.s:151    .text:00000000000000a8 .LVL15
     /tmp/ccOPjE8M.s:166    .text:00000000000000bc .LVL17
     /tmp/ccOPjE8M.s:173    .text:00000000000000c0 .LVL18
     /tmp/ccOPjE8M.s:199    .text:00000000000000e8 .LVL20
     /tmp/ccOPjE8M.s:125    .text:000000000000007c .LVL13
     /tmp/ccOPjE8M.s:131    .text:0000000000000080 .LVL14
     /tmp/ccOPjE8M.s:158    .text:00000000000000ac .LVL16
     /tmp/ccOPjE8M.s:32     .text:0000000000000020 .LVL1
     /tmp/ccOPjE8M.s:42     .text:000000000000002c .LVL3
     /tmp/ccOPjE8M.s:68     .text:000000000000003c .LVL7
     /tmp/ccOPjE8M.s:74     .text:0000000000000044 .LVL8
     /tmp/ccOPjE8M.s:39     .text:0000000000000028 .LVL2
     /tmp/ccOPjE8M.s:88     .text:0000000000000054 .LVL9
     /tmp/ccOPjE8M.s:98     .text:0000000000000060 .LVL10
     /tmp/ccOPjE8M.s:104    .text:0000000000000068 .LVL11
     /tmp/ccOPjE8M.s:24     .text:0000000000000018 .LVL0
     /tmp/ccOPjE8M.s:48     .text:0000000000000030 .LVL4
     /tmp/ccOPjE8M.s:54     .text:0000000000000034 .LVL5
     /tmp/ccOPjE8M.s:62     .text:0000000000000038 .LVL6
     /tmp/ccOPjE8M.s:222    .debug_info:0000000000000000 .Ldebug_info0
     /tmp/ccOPjE8M.s:133    .text:0000000000000080 .LBE17
     /tmp/ccOPjE8M.s:153    .text:00000000000000a8 .LBB20
     /tmp/ccOPjE8M.s:160    .text:00000000000000ac .LBE20

UNDEFINED SYMBOLS
_ZN3PCB7runningE
_ZN5Riscv9totalTimeE
_ZN9Scheduler3putEP3PCB
