GAS LISTING /tmp/cc7zS4Oe.s 			page 1


   1              		.file	"SleepPCBList.cpp"
   2              		.option pic
   3              		.option norelax
   4              		.text
   5              	.Ltext0:
   6              		.align	2
   7              		.globl	_ZN12SleepPCBList17insertSleepingPCBEv
   9              	_ZN12SleepPCBList17insertSleepingPCBEv:
  10              	.LFB21:
  11              		.file 1 "src/SleepPCBList.cpp"
   1:src/SleepPCBList.cpp **** //
   2:src/SleepPCBList.cpp **** // Created by os on 5/11/22.
   3:src/SleepPCBList.cpp **** //
   4:src/SleepPCBList.cpp **** 
   5:src/SleepPCBList.cpp **** #include "../h/SleepPCBList.hpp"
   6:src/SleepPCBList.cpp **** 
   7:src/SleepPCBList.cpp **** PCB* SleepPCBList::sleepingPCBHead = 0;
   8:src/SleepPCBList.cpp **** 
   9:src/SleepPCBList.cpp **** void SleepPCBList::insertSleepingPCB()
  10:src/SleepPCBList.cpp **** {
  12              		.loc 1 10 1
  13              		.cfi_startproc
  14 0000 130101FF 		addi	sp,sp,-16
  15              		.cfi_def_cfa_offset 16
  16 0004 23348100 		sd	s0,8(sp)
  17              		.cfi_offset 8, -8
  18 0008 13040101 		addi	s0,sp,16
  19              		.cfi_def_cfa 8, 0
  11:src/SleepPCBList.cpp ****     PCB::running->setState(PCB::SLEEPING);
  20              		.loc 1 11 5
  21              		.loc 1 11 27 is_stmt 0
  22 000c 97070000 		la	a5,_ZN3PCB7runningE
  22      83B70700 
  23 0014 83B50700 		ld	a1,0(a5)
  24              	.LVL0:
  25              	.LBB31:
  26              	.LBB32:
  27              		.file 2 "src/../h/PCB.hpp"
   1:src/../h/PCB.hpp **** //
   2:src/../h/PCB.hpp **** // Created by os on 4/27/22.
   3:src/../h/PCB.hpp **** //
   4:src/../h/PCB.hpp **** 
   5:src/../h/PCB.hpp **** #ifndef PROJECT_BASE_V1_0_PCB_HPP
   6:src/../h/PCB.hpp **** #define PROJECT_BASE_V1_0_PCB_HPP
   7:src/../h/PCB.hpp **** 
   8:src/../h/PCB.hpp **** #include "../lib/hw.h"
   9:src/../h/PCB.hpp **** #include "Scheduler.hpp"
  10:src/../h/PCB.hpp **** #include "Riscv.hpp"
  11:src/../h/PCB.hpp **** 
  12:src/../h/PCB.hpp **** class PCB
  13:src/../h/PCB.hpp **** {
  14:src/../h/PCB.hpp **** public:
  15:src/../h/PCB.hpp ****     using Body = void (*)(void*);
  16:src/../h/PCB.hpp **** 
  17:src/../h/PCB.hpp ****     PCB(Body body,  void* args, void* stack_space, uint64 timeSlice);
  18:src/../h/PCB.hpp ****     ~PCB();
  19:src/../h/PCB.hpp **** 
GAS LISTING /tmp/cc7zS4Oe.s 			page 2


  20:src/../h/PCB.hpp ****     void start();
  21:src/../h/PCB.hpp ****     static void dispatch();
  22:src/../h/PCB.hpp ****     static void sleep(time_t);
  23:src/../h/PCB.hpp **** 
  24:src/../h/PCB.hpp ****     static PCB* running;
  25:src/../h/PCB.hpp ****     static PCB* exitingPCB;
  26:src/../h/PCB.hpp **** 
  27:src/../h/PCB.hpp ****     static uint64 timeSliceCounter;
  28:src/../h/PCB.hpp ****     uint64 getTimeSlice() { return timeSlice;}
  29:src/../h/PCB.hpp **** 
  30:src/../h/PCB.hpp ****     void* operator new(size_t size);
  31:src/../h/PCB.hpp ****     void operator delete(void *p);
  32:src/../h/PCB.hpp **** 
  33:src/../h/PCB.hpp ****     enum State{READY, RUNNING, SUSPENDED, FINISHED, EXITING, SLEEPING};
  34:src/../h/PCB.hpp ****     State getState() {return state;}
  35:src/../h/PCB.hpp ****     void setState(State s) {state = s;}
  28              		.loc 2 35 29 is_stmt 1
  29              		.loc 2 35 35 is_stmt 0
  30 0018 93075000 		li	a5,5
  31 001c 23A8F502 		sw	a5,48(a1)
  32              	.LVL1:
  33              	.LBE32:
  34              	.LBE31:
  12:src/SleepPCBList.cpp ****     //Riscv::printString("Inserting sleeping PCB...\n");
  13:src/SleepPCBList.cpp ****     PCB* prev = 0;
  35              		.loc 1 13 5 is_stmt 1
  14:src/SleepPCBList.cpp ****     PCB* curr = sleepingPCBHead;
  36              		.loc 1 14 5
  37              		.loc 1 14 10 is_stmt 0
  38 0020 97070000 		ld	a5,.LANCHOR0
  38      83B70700 
  39              	.LVL2:
  13:src/SleepPCBList.cpp ****     PCB* curr = sleepingPCBHead;
  40              		.loc 1 13 10
  41 0028 13060000 		li	a2,0
  42              	.LVL3:
  43              	.L4:
  15:src/SleepPCBList.cpp ****     while(curr != 0)
  44              		.loc 1 15 5 is_stmt 1
  45              		.loc 1 15 16
  46 002c 63800702 		beqz	a5,.L2
  16:src/SleepPCBList.cpp ****     {
  17:src/SleepPCBList.cpp ****         if(PCB::running->getTimeToSleep() < curr->getTimeToSleep())
  47              		.loc 1 17 9
  48              	.LVL4:
  49              	.LBB33:
  50              	.LBB34:
  36:src/../h/PCB.hpp ****     void setTimeToSleep(uint64 time) {timeToSleep = time;}
  37:src/../h/PCB.hpp ****     uint64 getTimeToSleep() {return timeToSleep;}
  51              		.loc 2 37 30
  52              		.loc 2 37 37 is_stmt 0
  53 0030 83B60501 		ld	a3,16(a1)
  54              	.LVL5:
  55              	.LBE34:
  56              	.LBE33:
  57              	.LBB35:
  58              	.LBB36:
GAS LISTING /tmp/cc7zS4Oe.s 			page 3


  59              		.loc 2 37 30 is_stmt 1
  60              		.loc 2 37 37 is_stmt 0
  61 0034 03B70701 		ld	a4,16(a5)
  62              	.LVL6:
  63              	.LBE36:
  64              	.LBE35:
  65              		.loc 1 17 9
  66 0038 63E8E600 		bltu	a3,a4,.L8
  18:src/SleepPCBList.cpp ****         {
  19:src/SleepPCBList.cpp ****             PCB::running->nextPCB = curr;
  20:src/SleepPCBList.cpp ****             break;
  21:src/SleepPCBList.cpp ****         }
  22:src/SleepPCBList.cpp ****         prev = curr;
  67              		.loc 1 22 9 is_stmt 1
  68              	.LVL7:
  23:src/SleepPCBList.cpp ****         curr=curr->nextPCB;
  69              		.loc 1 23 9
  22:src/SleepPCBList.cpp ****         curr=curr->nextPCB;
  70              		.loc 1 22 14 is_stmt 0
  71 003c 13860700 		mv	a2,a5
  72              		.loc 1 23 13
  73 0040 83B70700 		ld	a5,0(a5)
  74              	.LVL8:
  15:src/SleepPCBList.cpp ****     {
  75              		.loc 1 15 5
  76 0044 6FF09FFE 		j	.L4
  77              	.L8:
  19:src/SleepPCBList.cpp ****             break;
  78              		.loc 1 19 13 is_stmt 1
  19:src/SleepPCBList.cpp ****             break;
  79              		.loc 1 19 35 is_stmt 0
  80 0048 23B0F500 		sd	a5,0(a1)
  20:src/SleepPCBList.cpp ****         }
  81              		.loc 1 20 13 is_stmt 1
  82              	.L2:
  24:src/SleepPCBList.cpp ****     }
  25:src/SleepPCBList.cpp **** 
  26:src/SleepPCBList.cpp ****     if(prev == 0)
  83              		.loc 1 26 5
  84 004c 63080602 		beqz	a2,.L9
  27:src/SleepPCBList.cpp ****     {
  28:src/SleepPCBList.cpp ****         sleepingPCBHead = PCB::running;
  29:src/SleepPCBList.cpp ****         if(sleepingPCBHead->nextPCB != 0)
  30:src/SleepPCBList.cpp ****             sleepingPCBHead->nextPCB->setTimeToSleep(sleepingPCBHead->nextPCB->getTimeToSleep() - s
  31:src/SleepPCBList.cpp ****     }
  32:src/SleepPCBList.cpp ****     else
  33:src/SleepPCBList.cpp ****     {
  34:src/SleepPCBList.cpp ****         PCB::running->setTimeToSleep(PCB::running->getTimeToSleep() - prev->getTimeToSleep());
  85              		.loc 1 34 9
  86              		.loc 1 34 37 is_stmt 0
  87 0050 97070000 		la	a5,_ZN3PCB7runningE
  87      83B70700 
  88              	.LVL9:
  89 0058 83B70700 		ld	a5,0(a5)
  90              	.LVL10:
  91              	.LBB37:
  92              	.LBB38:
GAS LISTING /tmp/cc7zS4Oe.s 			page 4


  93              		.loc 2 37 30 is_stmt 1
  94              		.loc 2 37 37 is_stmt 0
  95 005c 03B70701 		ld	a4,16(a5)
  96              	.LVL11:
  97              	.LBE38:
  98              	.LBE37:
  99              	.LBB39:
 100              	.LBB40:
 101              		.loc 2 37 30 is_stmt 1
 102              		.loc 2 37 37 is_stmt 0
 103 0060 83360601 		ld	a3,16(a2)
 104              	.LVL12:
 105              	.LBE40:
 106              	.LBE39:
 107              		.loc 1 34 37
 108 0064 3307D740 		sub	a4,a4,a3
 109              	.LVL13:
 110              	.LBB41:
 111              	.LBB42:
  36:src/../h/PCB.hpp ****     uint64 getTimeToSleep() {return timeToSleep;}
 112              		.loc 2 36 39 is_stmt 1
  36:src/../h/PCB.hpp ****     uint64 getTimeToSleep() {return timeToSleep;}
 113              		.loc 2 36 51 is_stmt 0
 114 0068 23B8E700 		sd	a4,16(a5)
 115              	.LVL14:
 116              	.LBE42:
 117              	.LBE41:
  35:src/SleepPCBList.cpp ****         prev->nextPCB = PCB::running;
 118              		.loc 1 35 9 is_stmt 1
 119              		.loc 1 35 23 is_stmt 0
 120 006c 2330F600 		sd	a5,0(a2)
 121              	.L1:
  36:src/SleepPCBList.cpp ****     }
  37:src/SleepPCBList.cpp **** }
 122              		.loc 1 37 1
 123 0070 03348100 		ld	s0,8(sp)
 124              		.cfi_remember_state
 125              		.cfi_restore 8
 126              		.cfi_def_cfa 2, 16
 127 0074 13010101 		addi	sp,sp,16
 128              		.cfi_def_cfa_offset 0
 129 0078 67800000 		jr	ra
 130              	.LVL15:
 131              	.L9:
 132              		.cfi_restore_state
  28:src/SleepPCBList.cpp ****         if(sleepingPCBHead->nextPCB != 0)
 133              		.loc 1 28 9 is_stmt 1
  28:src/SleepPCBList.cpp ****         if(sleepingPCBHead->nextPCB != 0)
 134              		.loc 1 28 25 is_stmt 0
 135 007c 97070000 		la	a5,_ZN3PCB7runningE
 135      83B70700 
 136              	.LVL16:
 137 0084 83B70700 		ld	a5,0(a5)
 138 0088 17070000 		sd	a5,.LANCHOR0,a4
 138      2330F700 
  29:src/SleepPCBList.cpp ****             sleepingPCBHead->nextPCB->setTimeToSleep(sleepingPCBHead->nextPCB->getTimeToSleep() - s
 139              		.loc 1 29 9 is_stmt 1
GAS LISTING /tmp/cc7zS4Oe.s 			page 5


  29:src/SleepPCBList.cpp ****             sleepingPCBHead->nextPCB->setTimeToSleep(sleepingPCBHead->nextPCB->getTimeToSleep() - s
 140              		.loc 1 29 29 is_stmt 0
 141 0090 03B70700 		ld	a4,0(a5)
  29:src/SleepPCBList.cpp ****             sleepingPCBHead->nextPCB->setTimeToSleep(sleepingPCBHead->nextPCB->getTimeToSleep() - s
 142              		.loc 1 29 9
 143 0094 E30E07FC 		beqz	a4,.L1
  30:src/SleepPCBList.cpp ****     }
 144              		.loc 1 30 13 is_stmt 1
 145              	.LVL17:
 146              	.LBB43:
 147              	.LBB44:
 148              		.loc 2 37 30
 149              		.loc 2 37 37 is_stmt 0
 150 0098 83360701 		ld	a3,16(a4)
 151              	.LVL18:
 152              	.LBE44:
 153              	.LBE43:
 154              	.LBB45:
 155              	.LBB46:
 156              		.loc 2 37 30 is_stmt 1
 157              		.loc 2 37 37 is_stmt 0
 158 009c 83B70701 		ld	a5,16(a5)
 159              	.LVL19:
 160              	.LBE46:
 161              	.LBE45:
  30:src/SleepPCBList.cpp ****     }
 162              		.loc 1 30 53
 163 00a0 B387F640 		sub	a5,a3,a5
 164              	.LVL20:
 165              	.LBB47:
 166              	.LBB48:
  36:src/../h/PCB.hpp ****     uint64 getTimeToSleep() {return timeToSleep;}
 167              		.loc 2 36 39 is_stmt 1
  36:src/../h/PCB.hpp ****     uint64 getTimeToSleep() {return timeToSleep;}
 168              		.loc 2 36 51 is_stmt 0
 169 00a4 2338F700 		sd	a5,16(a4)
  36:src/../h/PCB.hpp ****     uint64 getTimeToSleep() {return timeToSleep;}
 170              		.loc 2 36 58
 171 00a8 6FF09FFC 		j	.L1
 172              	.LBE48:
 173              	.LBE47:
 174              		.cfi_endproc
 175              	.LFE21:
 177              		.align	2
 178              		.globl	_ZN12SleepPCBList13tryToWakePCBsEv
 180              	_ZN12SleepPCBList13tryToWakePCBsEv:
 181              	.LFB22:
  38:src/SleepPCBList.cpp **** 
  39:src/SleepPCBList.cpp **** void SleepPCBList::tryToWakePCBs()
  40:src/SleepPCBList.cpp **** {
 182              		.loc 1 40 1 is_stmt 1
 183              		.cfi_startproc
  41:src/SleepPCBList.cpp ****     //Riscv::printString("Waking pcbs...\n");
  42:src/SleepPCBList.cpp ****     PCB* curr = sleepingPCBHead;
 184              		.loc 1 42 5
 185              		.loc 1 42 10 is_stmt 0
 186 00ac 17050000 		ld	a0,.LANCHOR0
GAS LISTING /tmp/cc7zS4Oe.s 			page 6


 186      03350500 
 187              	.LVL21:
  43:src/SleepPCBList.cpp ****     if(curr == 0)
 188              		.loc 1 43 5 is_stmt 1
 189 00b4 63080508 		beqz	a0,.L16
  44:src/SleepPCBList.cpp ****     {
  45:src/SleepPCBList.cpp ****         //Riscv::printString("NULL\n");
  46:src/SleepPCBList.cpp ****         return;
  47:src/SleepPCBList.cpp ****     }
  48:src/SleepPCBList.cpp ****     if(sleepingPCBHead->getTimeToSleep() == 1)
 190              		.loc 1 48 5
 191              	.LVL22:
 192              	.LBB49:
 193              	.LBB50:
 194              	.LBB51:
 195              		.loc 2 37 30
 196              		.loc 2 37 37 is_stmt 0
 197 00b8 83370501 		ld	a5,16(a0)
 198              	.LVL23:
 199              	.LBE51:
 200              	.LBE50:
 201              		.loc 1 48 5
 202 00bc 13071000 		li	a4,1
 203 00c0 6388E700 		beq	a5,a4,.L21
  49:src/SleepPCBList.cpp ****     {
  50:src/SleepPCBList.cpp ****         while(curr != 0 && (curr == sleepingPCBHead || curr->getTimeToSleep() == 0))
  51:src/SleepPCBList.cpp ****         {
  52:src/SleepPCBList.cpp ****             PCB *old = curr;
  53:src/SleepPCBList.cpp ****             curr = curr->nextPCB;
  54:src/SleepPCBList.cpp ****             old->nextPCB = 0;
  55:src/SleepPCBList.cpp ****             Scheduler::put(old);
  56:src/SleepPCBList.cpp ****             sleepingPCBHead = curr;
  57:src/SleepPCBList.cpp ****         }
  58:src/SleepPCBList.cpp ****     }
  59:src/SleepPCBList.cpp ****     else
  60:src/SleepPCBList.cpp ****     {
  61:src/SleepPCBList.cpp ****         sleepingPCBHead->setTimeToSleep(sleepingPCBHead->getTimeToSleep() - 1);
 204              		.loc 1 61 9 is_stmt 1
 205              	.LVL24:
 206              	.LBE49:
 207              		.loc 2 37 30
 208              	.LBB61:
 209              		.loc 1 61 40 is_stmt 0
 210 00c4 9387F7FF 		addi	a5,a5,-1
 211              	.LVL25:
 212              	.LBB52:
 213              	.LBB53:
  36:src/../h/PCB.hpp ****     uint64 getTimeToSleep() {return timeToSleep;}
 214              		.loc 2 36 39 is_stmt 1
  36:src/../h/PCB.hpp ****     uint64 getTimeToSleep() {return timeToSleep;}
 215              		.loc 2 36 51 is_stmt 0
 216 00c8 2338F500 		sd	a5,16(a0)
 217              	.LVL26:
  36:src/../h/PCB.hpp ****     uint64 getTimeToSleep() {return timeToSleep;}
 218              		.loc 2 36 58
 219 00cc 67800000 		ret
 220              	.L21:
GAS LISTING /tmp/cc7zS4Oe.s 			page 7


 221              	.LBE53:
 222              	.LBE52:
 223              	.LBB54:
  50:src/SleepPCBList.cpp ****         {
 224              		.loc 1 50 9 is_stmt 1
  50:src/SleepPCBList.cpp ****         {
 225              		.loc 1 50 25
 226 00d0 630A0506 		beqz	a0,.L16
  50:src/SleepPCBList.cpp ****         {
 227              		.loc 1 50 34 is_stmt 0
 228 00d4 97070000 		ld	a5,.LANCHOR0
 228      83B70700 
  50:src/SleepPCBList.cpp ****         {
 229              		.loc 1 50 25
 230 00dc 6386A700 		beq	a5,a0,.L20
 231              	.LVL27:
 232              	.LBB55:
 233              	.LBB56:
 234              		.loc 2 37 30 is_stmt 1
 235              		.loc 2 37 37 is_stmt 0
 236 00e0 83370501 		ld	a5,16(a0)
 237              	.LVL28:
 238              	.LBE56:
 239              	.LBE55:
  50:src/SleepPCBList.cpp ****         {
 240              		.loc 1 50 53
 241 00e4 63900706 		bnez	a5,.L16
 242              	.L20:
 243              	.LBE54:
 244              	.LBE61:
  40:src/SleepPCBList.cpp ****     //Riscv::printString("Waking pcbs...\n");
 245              		.loc 1 40 1
 246 00e8 130101FE 		addi	sp,sp,-32
 247              		.cfi_def_cfa_offset 32
 248 00ec 233C1100 		sd	ra,24(sp)
 249 00f0 23388100 		sd	s0,16(sp)
 250 00f4 23349100 		sd	s1,8(sp)
 251              		.cfi_offset 1, -8
 252              		.cfi_offset 8, -16
 253              		.cfi_offset 9, -24
 254 00f8 13040102 		addi	s0,sp,32
 255              		.cfi_def_cfa 8, 0
 256              	.L13:
 257              	.LBB62:
 258              	.LBB60:
 259              	.LBB58:
  52:src/SleepPCBList.cpp ****             curr = curr->nextPCB;
 260              		.loc 1 52 13 is_stmt 1 discriminator 5
 261              	.LVL29:
  53:src/SleepPCBList.cpp ****             old->nextPCB = 0;
 262              		.loc 1 53 13 discriminator 5
  53:src/SleepPCBList.cpp ****             old->nextPCB = 0;
 263              		.loc 1 53 18 is_stmt 0 discriminator 5
 264 00fc 83340500 		ld	s1,0(a0)
 265              	.LVL30:
  54:src/SleepPCBList.cpp ****             Scheduler::put(old);
 266              		.loc 1 54 13 is_stmt 1 discriminator 5
GAS LISTING /tmp/cc7zS4Oe.s 			page 8


  54:src/SleepPCBList.cpp ****             Scheduler::put(old);
 267              		.loc 1 54 26 is_stmt 0 discriminator 5
 268 0100 23300500 		sd	zero,0(a0)
  55:src/SleepPCBList.cpp ****             sleepingPCBHead = curr;
 269              		.loc 1 55 13 is_stmt 1 discriminator 5
  55:src/SleepPCBList.cpp ****             sleepingPCBHead = curr;
 270              		.loc 1 55 27 is_stmt 0 discriminator 5
 271 0104 97000000 		call	_ZN9Scheduler3putEP3PCB@plt
 271      E7800000 
 272              	.LVL31:
  56:src/SleepPCBList.cpp ****         }
 273              		.loc 1 56 13 is_stmt 1 discriminator 5
  56:src/SleepPCBList.cpp ****         }
 274              		.loc 1 56 29 is_stmt 0 discriminator 5
 275 010c 97070000 		sd	s1,.LANCHOR0,a5
 275      23B09700 
  53:src/SleepPCBList.cpp ****             old->nextPCB = 0;
 276              		.loc 1 53 18 discriminator 5
 277 0114 13850400 		mv	a0,s1
 278              	.LBE58:
  50:src/SleepPCBList.cpp ****         {
 279              		.loc 1 50 9 is_stmt 1 discriminator 5
  50:src/SleepPCBList.cpp ****         {
 280              		.loc 1 50 25 discriminator 5
 281 0118 638C0400 		beqz	s1,.L10
  50:src/SleepPCBList.cpp ****         {
 282              		.loc 1 50 34 is_stmt 0 discriminator 1
 283 011c 97070000 		ld	a5,.LANCHOR0
 283      83B70700 
  50:src/SleepPCBList.cpp ****         {
 284              		.loc 1 50 25 discriminator 1
 285 0124 E38C97FC 		beq	a5,s1,.L13
 286              	.LVL32:
 287              	.LBB59:
 288              	.LBB57:
 289              		.loc 2 37 30 is_stmt 1
 290              		.loc 2 37 37 is_stmt 0
 291 0128 83B70401 		ld	a5,16(s1)
 292              	.LVL33:
 293              	.LBE57:
 294              	.LBE59:
  50:src/SleepPCBList.cpp ****         {
 295              		.loc 1 50 53
 296 012c E38807FC 		beqz	a5,.L13
 297              	.L10:
 298              	.LBE60:
 299              	.LBE62:
  62:src/SleepPCBList.cpp ****     }
  63:src/SleepPCBList.cpp **** }
 300              		.loc 1 63 1
 301 0130 83308101 		ld	ra,24(sp)
 302              		.cfi_restore 1
 303 0134 03340101 		ld	s0,16(sp)
 304              		.cfi_restore 8
 305              		.cfi_def_cfa 2, 32
 306 0138 83348100 		ld	s1,8(sp)
 307              		.cfi_restore 9
GAS LISTING /tmp/cc7zS4Oe.s 			page 9


 308              	.LVL34:
 309 013c 13010102 		addi	sp,sp,32
 310              		.cfi_def_cfa_offset 0
 311 0140 67800000 		jr	ra
 312              	.L16:
 313 0144 67800000 		ret
 314              		.cfi_endproc
 315              	.LFE22:
 317              		.globl	_ZN12SleepPCBList15sleepingPCBHeadE
 318              		.bss
 319              		.align	3
 320              		.set	.LANCHOR0,. + 0
 323              	_ZN12SleepPCBList15sleepingPCBHeadE:
 324 0000 00000000 		.zero	8
 324      00000000 
 325              		.text
 326              	.Letext0:
 327              		.file 3 "src/../h/../lib/hw.h"
 328              		.file 4 "src/../h/Queue.hpp"
 329              		.file 5 "src/../h/Scheduler.hpp"
 330              		.file 6 "src/../h/SleepPCBList.hpp"
GAS LISTING /tmp/cc7zS4Oe.s 			page 10


DEFINED SYMBOLS
                            *ABS*:0000000000000000 SleepPCBList.cpp
     /tmp/cc7zS4Oe.s:9      .text:0000000000000000 _ZN12SleepPCBList17insertSleepingPCBEv
     /tmp/cc7zS4Oe.s:13     .text:0000000000000000 .L0 
     /tmp/cc7zS4Oe.s:14     .text:0000000000000000 .L0 
     /tmp/cc7zS4Oe.s:15     .text:0000000000000004 .L0 
     /tmp/cc7zS4Oe.s:17     .text:0000000000000008 .L0 
     /tmp/cc7zS4Oe.s:19     .text:000000000000000c .L0 
     /tmp/cc7zS4Oe.s:21     .text:000000000000000c .L0 
     /tmp/cc7zS4Oe.s:22     .text:000000000000000c .L0 
     /tmp/cc7zS4Oe.s:29     .text:0000000000000018 .L0 
     /tmp/cc7zS4Oe.s:30     .text:0000000000000018 .L0 
     /tmp/cc7zS4Oe.s:36     .text:0000000000000020 .L0 
     /tmp/cc7zS4Oe.s:37     .text:0000000000000020 .L0 
     /tmp/cc7zS4Oe.s:38     .text:0000000000000020 .L0 
     /tmp/cc7zS4Oe.s:41     .text:0000000000000028 .L0 
     /tmp/cc7zS4Oe.s:45     .text:000000000000002c .L0 
     /tmp/cc7zS4Oe.s:46     .text:000000000000002c .L0 
     /tmp/cc7zS4Oe.s:51     .text:0000000000000030 .L0 
     /tmp/cc7zS4Oe.s:52     .text:0000000000000030 .L0 
     /tmp/cc7zS4Oe.s:53     .text:0000000000000030 .L0 
     /tmp/cc7zS4Oe.s:60     .text:0000000000000034 .L0 
     /tmp/cc7zS4Oe.s:61     .text:0000000000000034 .L0 
     /tmp/cc7zS4Oe.s:66     .text:0000000000000038 .L0 
     /tmp/cc7zS4Oe.s:69     .text:000000000000003c .L0 
     /tmp/cc7zS4Oe.s:70     .text:000000000000003c .L0 
     /tmp/cc7zS4Oe.s:71     .text:000000000000003c .L0 
     /tmp/cc7zS4Oe.s:73     .text:0000000000000040 .L0 
     /tmp/cc7zS4Oe.s:76     .text:0000000000000044 .L0 
     /tmp/cc7zS4Oe.s:79     .text:0000000000000048 .L0 
     /tmp/cc7zS4Oe.s:80     .text:0000000000000048 .L0 
     /tmp/cc7zS4Oe.s:83     .text:000000000000004c .L0 
     /tmp/cc7zS4Oe.s:84     .text:000000000000004c .L0 
     /tmp/cc7zS4Oe.s:86     .text:0000000000000050 .L0 
     /tmp/cc7zS4Oe.s:87     .text:0000000000000050 .L0 
     /tmp/cc7zS4Oe.s:94     .text:000000000000005c .L0 
     /tmp/cc7zS4Oe.s:95     .text:000000000000005c .L0 
     /tmp/cc7zS4Oe.s:102    .text:0000000000000060 .L0 
     /tmp/cc7zS4Oe.s:103    .text:0000000000000060 .L0 
     /tmp/cc7zS4Oe.s:108    .text:0000000000000064 .L0 
     /tmp/cc7zS4Oe.s:113    .text:0000000000000068 .L0 
     /tmp/cc7zS4Oe.s:114    .text:0000000000000068 .L0 
     /tmp/cc7zS4Oe.s:119    .text:000000000000006c .L0 
     /tmp/cc7zS4Oe.s:120    .text:000000000000006c .L0 
     /tmp/cc7zS4Oe.s:123    .text:0000000000000070 .L0 
     /tmp/cc7zS4Oe.s:124    .text:0000000000000074 .L0 
     /tmp/cc7zS4Oe.s:125    .text:0000000000000074 .L0 
     /tmp/cc7zS4Oe.s:126    .text:0000000000000074 .L0 
     /tmp/cc7zS4Oe.s:128    .text:0000000000000078 .L0 
     /tmp/cc7zS4Oe.s:132    .text:000000000000007c .L0 
     /tmp/cc7zS4Oe.s:134    .text:000000000000007c .L0 
     /tmp/cc7zS4Oe.s:135    .text:000000000000007c .L0 
     /tmp/cc7zS4Oe.s:140    .text:0000000000000090 .L0 
     /tmp/cc7zS4Oe.s:141    .text:0000000000000090 .L0 
     /tmp/cc7zS4Oe.s:143    .text:0000000000000094 .L0 
     /tmp/cc7zS4Oe.s:148    .text:0000000000000098 .L0 
     /tmp/cc7zS4Oe.s:149    .text:0000000000000098 .L0 
GAS LISTING /tmp/cc7zS4Oe.s 			page 11


     /tmp/cc7zS4Oe.s:150    .text:0000000000000098 .L0 
     /tmp/cc7zS4Oe.s:157    .text:000000000000009c .L0 
     /tmp/cc7zS4Oe.s:158    .text:000000000000009c .L0 
     /tmp/cc7zS4Oe.s:163    .text:00000000000000a0 .L0 
     /tmp/cc7zS4Oe.s:168    .text:00000000000000a4 .L0 
     /tmp/cc7zS4Oe.s:169    .text:00000000000000a4 .L0 
     /tmp/cc7zS4Oe.s:171    .text:00000000000000a8 .L0 
     /tmp/cc7zS4Oe.s:174    .text:00000000000000ac .L0 
     /tmp/cc7zS4Oe.s:180    .text:00000000000000ac _ZN12SleepPCBList13tryToWakePCBsEv
     /tmp/cc7zS4Oe.s:183    .text:00000000000000ac .L0 
     /tmp/cc7zS4Oe.s:184    .text:00000000000000ac .L0 
     /tmp/cc7zS4Oe.s:185    .text:00000000000000ac .L0 
     /tmp/cc7zS4Oe.s:186    .text:00000000000000ac .L0 
     /tmp/cc7zS4Oe.s:189    .text:00000000000000b4 .L0 
     /tmp/cc7zS4Oe.s:195    .text:00000000000000b8 .L0 
     /tmp/cc7zS4Oe.s:196    .text:00000000000000b8 .L0 
     /tmp/cc7zS4Oe.s:197    .text:00000000000000b8 .L0 
     /tmp/cc7zS4Oe.s:202    .text:00000000000000bc .L0 
     /tmp/cc7zS4Oe.s:207    .text:00000000000000c4 .L0 
     /tmp/cc7zS4Oe.s:209    .text:00000000000000c4 .L0 
     /tmp/cc7zS4Oe.s:210    .text:00000000000000c4 .L0 
     /tmp/cc7zS4Oe.s:215    .text:00000000000000c8 .L0 
     /tmp/cc7zS4Oe.s:216    .text:00000000000000c8 .L0 
     /tmp/cc7zS4Oe.s:219    .text:00000000000000cc .L0 
     /tmp/cc7zS4Oe.s:225    .text:00000000000000d0 .L0 
     /tmp/cc7zS4Oe.s:226    .text:00000000000000d0 .L0 
     /tmp/cc7zS4Oe.s:228    .text:00000000000000d4 .L0 
     /tmp/cc7zS4Oe.s:230    .text:00000000000000dc .L0 
     /tmp/cc7zS4Oe.s:235    .text:00000000000000e0 .L0 
     /tmp/cc7zS4Oe.s:236    .text:00000000000000e0 .L0 
     /tmp/cc7zS4Oe.s:241    .text:00000000000000e4 .L0 
     /tmp/cc7zS4Oe.s:246    .text:00000000000000e8 .L0 
     /tmp/cc7zS4Oe.s:247    .text:00000000000000ec .L0 
     /tmp/cc7zS4Oe.s:251    .text:00000000000000f8 .L0 
     /tmp/cc7zS4Oe.s:252    .text:00000000000000f8 .L0 
     /tmp/cc7zS4Oe.s:253    .text:00000000000000f8 .L0 
     /tmp/cc7zS4Oe.s:255    .text:00000000000000fc .L0 
     /tmp/cc7zS4Oe.s:262    .text:00000000000000fc .L0 
     /tmp/cc7zS4Oe.s:263    .text:00000000000000fc .L0 
     /tmp/cc7zS4Oe.s:264    .text:00000000000000fc .L0 
     /tmp/cc7zS4Oe.s:267    .text:0000000000000100 .L0 
     /tmp/cc7zS4Oe.s:268    .text:0000000000000100 .L0 
     /tmp/cc7zS4Oe.s:270    .text:0000000000000104 .L0 
     /tmp/cc7zS4Oe.s:271    .text:0000000000000104 .L0 
     /tmp/cc7zS4Oe.s:274    .text:000000000000010c .L0 
     /tmp/cc7zS4Oe.s:275    .text:000000000000010c .L0 
     /tmp/cc7zS4Oe.s:277    .text:0000000000000114 .L0 
     /tmp/cc7zS4Oe.s:280    .text:0000000000000118 .L0 
     /tmp/cc7zS4Oe.s:281    .text:0000000000000118 .L0 
     /tmp/cc7zS4Oe.s:283    .text:000000000000011c .L0 
     /tmp/cc7zS4Oe.s:285    .text:0000000000000124 .L0 
     /tmp/cc7zS4Oe.s:290    .text:0000000000000128 .L0 
     /tmp/cc7zS4Oe.s:291    .text:0000000000000128 .L0 
     /tmp/cc7zS4Oe.s:296    .text:000000000000012c .L0 
     /tmp/cc7zS4Oe.s:301    .text:0000000000000130 .L0 
     /tmp/cc7zS4Oe.s:302    .text:0000000000000134 .L0 
     /tmp/cc7zS4Oe.s:304    .text:0000000000000138 .L0 
GAS LISTING /tmp/cc7zS4Oe.s 			page 12


     /tmp/cc7zS4Oe.s:305    .text:0000000000000138 .L0 
     /tmp/cc7zS4Oe.s:307    .text:000000000000013c .L0 
     /tmp/cc7zS4Oe.s:310    .text:0000000000000140 .L0 
     /tmp/cc7zS4Oe.s:314    .text:0000000000000148 .L0 
     /tmp/cc7zS4Oe.s:323    .bss:0000000000000000 _ZN12SleepPCBList15sleepingPCBHeadE
     /tmp/cc7zS4Oe.s:320    .bss:0000000000000000 .LANCHOR0
     /tmp/cc7zS4Oe.s:331    .text:0000000000000148 .L0 
     /tmp/cc7zS4Oe.s:22     .text:000000000000000c .L0 
     /tmp/cc7zS4Oe.s:38     .text:0000000000000020 .L0 
     /tmp/cc7zS4Oe.s:87     .text:0000000000000050 .L0 
     /tmp/cc7zS4Oe.s:135    .text:000000000000007c .L0 
     /tmp/cc7zS4Oe.s:138    .text:0000000000000088 .L0 
     /tmp/cc7zS4Oe.s:186    .text:00000000000000ac .L0 
     /tmp/cc7zS4Oe.s:228    .text:00000000000000d4 .L0 
     /tmp/cc7zS4Oe.s:275    .text:000000000000010c .L0 
     /tmp/cc7zS4Oe.s:283    .text:000000000000011c .L0 
     /tmp/cc7zS4Oe.s:82     .text:000000000000004c .L2
     /tmp/cc7zS4Oe.s:77     .text:0000000000000048 .L8
     /tmp/cc7zS4Oe.s:43     .text:000000000000002c .L4
     /tmp/cc7zS4Oe.s:131    .text:000000000000007c .L9
     /tmp/cc7zS4Oe.s:121    .text:0000000000000070 .L1
     /tmp/cc7zS4Oe.s:312    .text:0000000000000144 .L16
     /tmp/cc7zS4Oe.s:220    .text:00000000000000d0 .L21
     /tmp/cc7zS4Oe.s:242    .text:00000000000000e8 .L20
     /tmp/cc7zS4Oe.s:297    .text:0000000000000130 .L10
     /tmp/cc7zS4Oe.s:256    .text:00000000000000fc .L13
     /tmp/cc7zS4Oe.s:1418   .debug_abbrev:0000000000000000 .Ldebug_abbrev0
     /tmp/cc7zS4Oe.s:2618   .debug_str:0000000000000389 .LASF111
     /tmp/cc7zS4Oe.s:2554   .debug_str:00000000000001d6 .LASF112
     /tmp/cc7zS4Oe.s:2698   .debug_str:000000000000061e .LASF113
     /tmp/cc7zS4Oe.s:5      .text:0000000000000000 .Ltext0
     /tmp/cc7zS4Oe.s:326    .text:0000000000000148 .Letext0
     /tmp/cc7zS4Oe.s:2492   .debug_line:0000000000000000 .Ldebug_line0
     /tmp/cc7zS4Oe.s:2586   .debug_str:00000000000002c6 .LASF0
     /tmp/cc7zS4Oe.s:2604   .debug_str:000000000000032e .LASF1
     /tmp/cc7zS4Oe.s:2652   .debug_str:0000000000000517 .LASF2
     /tmp/cc7zS4Oe.s:2658   .debug_str:0000000000000533 .LASF4
     /tmp/cc7zS4Oe.s:2594   .debug_str:00000000000002fa .LASF3
     /tmp/cc7zS4Oe.s:2500   .debug_str:000000000000002f .LASF5
     /tmp/cc7zS4Oe.s:2642   .debug_str:00000000000004d4 .LASF6
     /tmp/cc7zS4Oe.s:2636   .debug_str:00000000000004b4 .LASF7
     /tmp/cc7zS4Oe.s:2598   .debug_str:0000000000000311 .LASF8
     /tmp/cc7zS4Oe.s:2578   .debug_str:0000000000000295 .LASF9
     /tmp/cc7zS4Oe.s:2582   .debug_str:00000000000002b2 .LASF10
     /tmp/cc7zS4Oe.s:2534   .debug_str:0000000000000158 .LASF11
     /tmp/cc7zS4Oe.s:2570   .debug_str:0000000000000262 .LASF12
     /tmp/cc7zS4Oe.s:2542   .debug_str:000000000000017f .LASF13
     /tmp/cc7zS4Oe.s:2532   .debug_str:0000000000000148 .LASF14
     /tmp/cc7zS4Oe.s:2678   .debug_str:00000000000005ca .LASF15
     /tmp/cc7zS4Oe.s:2562   .debug_str:0000000000000214 .LASF16
     /tmp/cc7zS4Oe.s:2674   .debug_str:0000000000000598 .LASF17
     /tmp/cc7zS4Oe.s:2700   .debug_str:0000000000000641 .LASF28
     /tmp/cc7zS4Oe.s:2710   .debug_str:0000000000000686 .LASF20
     /tmp/cc7zS4Oe.s:2600   .debug_str:0000000000000324 .LASF18
     /tmp/cc7zS4Oe.s:2536   .debug_str:0000000000000167 .LASF19
     /tmp/cc7zS4Oe.s:2684   .debug_str:00000000000005e3 .LASF21
     /tmp/cc7zS4Oe.s:2610   .debug_str:0000000000000354 .LASF22
GAS LISTING /tmp/cc7zS4Oe.s 			page 13


     /tmp/cc7zS4Oe.s:2724   .debug_str:00000000000006d9 .LASF39
     /tmp/cc7zS4Oe.s:2708   .debug_str:0000000000000680 .LASF24
     /tmp/cc7zS4Oe.s:2546   .debug_str:00000000000001a0 .LASF26
     /tmp/cc7zS4Oe.s:2588   .debug_str:00000000000002d3 .LASF23
     /tmp/cc7zS4Oe.s:2668   .debug_str:000000000000056d .LASF29
     /tmp/cc7zS4Oe.s:2602   .debug_str:0000000000000329 .LASF25
     /tmp/cc7zS4Oe.s:2648   .debug_str:00000000000004ee .LASF27
     /tmp/cc7zS4Oe.s:2558   .debug_str:00000000000001f4 .LASF30
     /tmp/cc7zS4Oe.s:2646   .debug_str:00000000000004e7 .LASF45
     /tmp/cc7zS4Oe.s:2516   .debug_str:00000000000000c4 .LASF47
     /tmp/cc7zS4Oe.s:2688   .debug_str:00000000000005ee .LASF114
     /tmp/cc7zS4Oe.s:2530   .debug_str:0000000000000142 .LASF31
     /tmp/cc7zS4Oe.s:2670   .debug_str:0000000000000582 .LASF32
     /tmp/cc7zS4Oe.s:2540   .debug_str:0000000000000175 .LASF33
     /tmp/cc7zS4Oe.s:2522   .debug_str:00000000000000ee .LASF34
     /tmp/cc7zS4Oe.s:2638   .debug_str:00000000000004c7 .LASF35
     /tmp/cc7zS4Oe.s:2538   .debug_str:000000000000016c .LASF36
     /tmp/cc7zS4Oe.s:2682   .debug_str:00000000000005db .LASF37
     /tmp/cc7zS4Oe.s:2584   .debug_str:00000000000002c0 .LASF38
     /tmp/cc7zS4Oe.s:2706   .debug_str:0000000000000668 .LASF40
     /tmp/cc7zS4Oe.s:2626   .debug_str:0000000000000466 .LASF115
     /tmp/cc7zS4Oe.s:2714   .debug_str:00000000000006a8 .LASF41
     /tmp/cc7zS4Oe.s:2730   .debug_str:0000000000000703 .LASF42
     /tmp/cc7zS4Oe.s:2726   .debug_str:00000000000006e9 .LASF43
     /tmp/cc7zS4Oe.s:2694   .debug_str:0000000000000604 .LASF44
     /tmp/cc7zS4Oe.s:2556   .debug_str:00000000000001eb .LASF71
     /tmp/cc7zS4Oe.s:2510   .debug_str:0000000000000084 .LASF73
     /tmp/cc7zS4Oe.s:2606   .debug_str:0000000000000341 .LASF46
     /tmp/cc7zS4Oe.s:2630   .debug_str:000000000000047e .LASF48
     /tmp/cc7zS4Oe.s:2690   .debug_str:00000000000005f4 .LASF49
     /tmp/cc7zS4Oe.s:2716   .debug_str:00000000000006ad .LASF50
     /tmp/cc7zS4Oe.s:2662   .debug_str:0000000000000542 .LASF51
     /tmp/cc7zS4Oe.s:2608   .debug_str:0000000000000347 .LASF52
     /tmp/cc7zS4Oe.s:2612   .debug_str:0000000000000359 .LASF53
     /tmp/cc7zS4Oe.s:2732   .debug_str:000000000000070f .LASF54
     /tmp/cc7zS4Oe.s:2564   .debug_str:000000000000022a .LASF55
     /tmp/cc7zS4Oe.s:2498   .debug_str:000000000000001f .LASF56
     /tmp/cc7zS4Oe.s:2592   .debug_str:00000000000002ed .LASF57
     /tmp/cc7zS4Oe.s:2666   .debug_str:0000000000000564 .LASF58
     /tmp/cc7zS4Oe.s:2620   .debug_str:000000000000042b .LASF59
     /tmp/cc7zS4Oe.s:2656   .debug_str:000000000000052a .LASF60
     /tmp/cc7zS4Oe.s:2676   .debug_str:00000000000005ae .LASF61
     /tmp/cc7zS4Oe.s:2622   .debug_str:000000000000043e .LASF62
     /tmp/cc7zS4Oe.s:2494   .debug_str:0000000000000000 .LASF63
     /tmp/cc7zS4Oe.s:2720   .debug_str:00000000000006bf .LASF64
     /tmp/cc7zS4Oe.s:2634   .debug_str:000000000000049a .LASF65
     /tmp/cc7zS4Oe.s:2672   .debug_str:000000000000058a .LASF66
     /tmp/cc7zS4Oe.s:2644   .debug_str:00000000000004db .LASF67
     /tmp/cc7zS4Oe.s:2552   .debug_str:00000000000001c6 .LASF68
     /tmp/cc7zS4Oe.s:2722   .debug_str:00000000000006ce .LASF69
     /tmp/cc7zS4Oe.s:2616   .debug_str:0000000000000379 .LASF70
     /tmp/cc7zS4Oe.s:2560   .debug_str:0000000000000202 .LASF72
     /tmp/cc7zS4Oe.s:2712   .debug_str:000000000000068b .LASF74
     /tmp/cc7zS4Oe.s:2524   .debug_str:00000000000000f7 .LASF75
     /tmp/cc7zS4Oe.s:2702   .debug_str:0000000000000647 .LASF76
     /tmp/cc7zS4Oe.s:2660   .debug_str:000000000000053a .LASF101
     /tmp/cc7zS4Oe.s:2696   .debug_str:0000000000000614 .LASF77
GAS LISTING /tmp/cc7zS4Oe.s 			page 14


     /tmp/cc7zS4Oe.s:2632   .debug_str:000000000000048e .LASF78
     /tmp/cc7zS4Oe.s:2550   .debug_str:00000000000001b8 .LASF79
     /tmp/cc7zS4Oe.s:2514   .debug_str:000000000000009c .LASF81
     /tmp/cc7zS4Oe.s:2590   .debug_str:00000000000002d8 .LASF80
     /tmp/cc7zS4Oe.s:2528   .debug_str:0000000000000116 .LASF82
     /tmp/cc7zS4Oe.s:2718   .debug_str:00000000000006b8 .LASF116
     /tmp/cc7zS4Oe.s:2526   .debug_str:0000000000000105 .LASF117
     /tmp/cc7zS4Oe.s:2496   .debug_str:000000000000001a .LASF83
     /tmp/cc7zS4Oe.s:2680   .debug_str:00000000000005d6 .LASF84
     /tmp/cc7zS4Oe.s:2614   .debug_str:0000000000000371 .LASF85
     /tmp/cc7zS4Oe.s:2548   .debug_str:00000000000001b2 .LASF86
     /tmp/cc7zS4Oe.s:2704   .debug_str:0000000000000660 .LASF87
     /tmp/cc7zS4Oe.s:2518   .debug_str:00000000000000d2 .LASF88
     /tmp/cc7zS4Oe.s:2576   .debug_str:000000000000028b .LASF89
     /tmp/cc7zS4Oe.s:2504   .debug_str:0000000000000040 .LASF118
     /tmp/cc7zS4Oe.s:2728   .debug_str:00000000000006ef .LASF119
     /tmp/cc7zS4Oe.s:2596   .debug_str:000000000000030c .LASF90
     /tmp/cc7zS4Oe.s:2624   .debug_str:000000000000044d .LASF91
     /tmp/cc7zS4Oe.s:2568   .debug_str:000000000000025d .LASF92
     /tmp/cc7zS4Oe.s:2572   .debug_str:0000000000000271 .LASF96
     /tmp/cc7zS4Oe.s:2520   .debug_str:00000000000000dc .LASF93
     /tmp/cc7zS4Oe.s:2628   .debug_str:000000000000046b .LASF94
     /tmp/cc7zS4Oe.s:2692   .debug_str:00000000000005fc .LASF95
     /tmp/cc7zS4Oe.s:2650   .debug_str:00000000000004ff .LASF97
     /tmp/cc7zS4Oe.s:2664   .debug_str:0000000000000553 .LASF98
     /tmp/cc7zS4Oe.s:2544   .debug_str:000000000000018f .LASF99
     /tmp/cc7zS4Oe.s:2506   .debug_str:0000000000000058 .LASF100
     /tmp/cc7zS4Oe.s:2502   .debug_str:0000000000000036 .LASF102
     /tmp/cc7zS4Oe.s:2686   .debug_str:00000000000005e9 .LASF103
     /tmp/cc7zS4Oe.s:2580   .debug_str:00000000000002a5 .LASF104
     /tmp/cc7zS4Oe.s:2566   .debug_str:0000000000000236 .LASF105
     /tmp/cc7zS4Oe.s:2508   .debug_str:0000000000000061 .LASF106
     /tmp/cc7zS4Oe.s:2734   .debug_str:000000000000071c .LASF120
     /tmp/cc7zS4Oe.s:181    .text:00000000000000ac .LFB22
     /tmp/cc7zS4Oe.s:315    .text:0000000000000148 .LFE22
     /tmp/cc7zS4Oe.s:2654   .debug_str:0000000000000525 .LASF107
     /tmp/cc7zS4Oe.s:2306   .debug_loc:0000000000000000 .LLST12
     /tmp/cc7zS4Oe.s:259    .text:00000000000000fc .LBB58
     /tmp/cc7zS4Oe.s:278    .text:0000000000000118 .LBE58
     /tmp/cc7zS4Oe.s:2321   .debug_loc:0000000000000049 .LLST17
     /tmp/cc7zS4Oe.s:272    .text:000000000000010c .LVL31
     /tmp/cc7zS4Oe.s:193    .text:00000000000000b8 .LBB50
     /tmp/cc7zS4Oe.s:200    .text:00000000000000bc .LBE50
     /tmp/cc7zS4Oe.s:2328   .debug_loc:000000000000006c .LLST13
     /tmp/cc7zS4Oe.s:212    .text:00000000000000c8 .LBB52
     /tmp/cc7zS4Oe.s:222    .text:00000000000000d0 .LBE52
     /tmp/cc7zS4Oe.s:2335   .debug_loc:000000000000008f .LLST14
     /tmp/cc7zS4Oe.s:2342   .debug_loc:00000000000000b2 .LLST15
     /tmp/cc7zS4Oe.s:232    .text:00000000000000e0 .LBB55
     /tmp/cc7zS4Oe.s:2484   .debug_ranges:0000000000000000 .Ldebug_ranges0
     /tmp/cc7zS4Oe.s:2349   .debug_loc:00000000000000d5 .LLST16
     /tmp/cc7zS4Oe.s:10     .text:0000000000000000 .LFB21
     /tmp/cc7zS4Oe.s:175    .text:00000000000000ac .LFE21
     /tmp/cc7zS4Oe.s:2512   .debug_str:0000000000000097 .LASF108
     /tmp/cc7zS4Oe.s:2360   .debug_loc:000000000000010b .LLST0
     /tmp/cc7zS4Oe.s:2380   .debug_loc:0000000000000168 .LLST1
     /tmp/cc7zS4Oe.s:25     .text:0000000000000018 .LBB31
GAS LISTING /tmp/cc7zS4Oe.s 			page 15


     /tmp/cc7zS4Oe.s:34     .text:0000000000000020 .LBE31
     /tmp/cc7zS4Oe.s:2400   .debug_loc:00000000000001c5 .LLST2
     /tmp/cc7zS4Oe.s:2408   .debug_loc:00000000000001e9 .LLST3
     /tmp/cc7zS4Oe.s:49     .text:0000000000000030 .LBB33
     /tmp/cc7zS4Oe.s:56     .text:0000000000000034 .LBE33
     /tmp/cc7zS4Oe.s:2415   .debug_loc:000000000000020c .LLST4
     /tmp/cc7zS4Oe.s:57     .text:0000000000000034 .LBB35
     /tmp/cc7zS4Oe.s:64     .text:0000000000000038 .LBE35
     /tmp/cc7zS4Oe.s:2422   .debug_loc:000000000000022f .LLST5
     /tmp/cc7zS4Oe.s:91     .text:000000000000005c .LBB37
     /tmp/cc7zS4Oe.s:98     .text:0000000000000060 .LBE37
     /tmp/cc7zS4Oe.s:2429   .debug_loc:0000000000000252 .LLST6
     /tmp/cc7zS4Oe.s:99     .text:0000000000000060 .LBB39
     /tmp/cc7zS4Oe.s:106    .text:0000000000000064 .LBE39
     /tmp/cc7zS4Oe.s:2436   .debug_loc:0000000000000275 .LLST7
     /tmp/cc7zS4Oe.s:110    .text:0000000000000068 .LBB41
     /tmp/cc7zS4Oe.s:117    .text:000000000000006c .LBE41
     /tmp/cc7zS4Oe.s:2443   .debug_loc:0000000000000298 .LLST8
     /tmp/cc7zS4Oe.s:2450   .debug_loc:00000000000002bb .LLST9
     /tmp/cc7zS4Oe.s:146    .text:0000000000000098 .LBB43
     /tmp/cc7zS4Oe.s:153    .text:000000000000009c .LBE43
     /tmp/cc7zS4Oe.s:2457   .debug_loc:00000000000002de .LLST10
     /tmp/cc7zS4Oe.s:154    .text:000000000000009c .LBB45
     /tmp/cc7zS4Oe.s:161    .text:00000000000000a0 .LBE45
     /tmp/cc7zS4Oe.s:2464   .debug_loc:0000000000000301 .LLST11
     /tmp/cc7zS4Oe.s:165    .text:00000000000000a4 .LBB47
     /tmp/cc7zS4Oe.s:173    .text:00000000000000ac .LBE47
     /tmp/cc7zS4Oe.s:2574   .debug_str:0000000000000286 .LASF109
     /tmp/cc7zS4Oe.s:2640   .debug_str:00000000000004cf .LASF110
     /tmp/cc7zS4Oe.s:187    .text:00000000000000b4 .LVL21
     /tmp/cc7zS4Oe.s:265    .text:0000000000000100 .LVL30
     /tmp/cc7zS4Oe.s:308    .text:000000000000013c .LVL34
     /tmp/cc7zS4Oe.s:261    .text:00000000000000fc .LVL29
     /tmp/cc7zS4Oe.s:191    .text:00000000000000b8 .LVL22
     /tmp/cc7zS4Oe.s:198    .text:00000000000000bc .LVL23
     /tmp/cc7zS4Oe.s:211    .text:00000000000000c8 .LVL25
     /tmp/cc7zS4Oe.s:217    .text:00000000000000cc .LVL26
     /tmp/cc7zS4Oe.s:231    .text:00000000000000e0 .LVL27
     /tmp/cc7zS4Oe.s:237    .text:00000000000000e4 .LVL28
     /tmp/cc7zS4Oe.s:286    .text:0000000000000128 .LVL32
     /tmp/cc7zS4Oe.s:292    .text:000000000000012c .LVL33
     /tmp/cc7zS4Oe.s:32     .text:0000000000000020 .LVL1
     /tmp/cc7zS4Oe.s:42     .text:000000000000002c .LVL3
     /tmp/cc7zS4Oe.s:68     .text:000000000000003c .LVL7
     /tmp/cc7zS4Oe.s:74     .text:0000000000000044 .LVL8
     /tmp/cc7zS4Oe.s:39     .text:0000000000000028 .LVL2
     /tmp/cc7zS4Oe.s:88     .text:0000000000000058 .LVL9
     /tmp/cc7zS4Oe.s:130    .text:000000000000007c .LVL15
     /tmp/cc7zS4Oe.s:136    .text:0000000000000084 .LVL16
     /tmp/cc7zS4Oe.s:24     .text:0000000000000018 .LVL0
     /tmp/cc7zS4Oe.s:48     .text:0000000000000030 .LVL4
     /tmp/cc7zS4Oe.s:54     .text:0000000000000034 .LVL5
     /tmp/cc7zS4Oe.s:62     .text:0000000000000038 .LVL6
     /tmp/cc7zS4Oe.s:90     .text:000000000000005c .LVL10
     /tmp/cc7zS4Oe.s:96     .text:0000000000000060 .LVL11
     /tmp/cc7zS4Oe.s:104    .text:0000000000000064 .LVL12
     /tmp/cc7zS4Oe.s:109    .text:0000000000000068 .LVL13
GAS LISTING /tmp/cc7zS4Oe.s 			page 16


     /tmp/cc7zS4Oe.s:115    .text:000000000000006c .LVL14
     /tmp/cc7zS4Oe.s:145    .text:0000000000000098 .LVL17
     /tmp/cc7zS4Oe.s:151    .text:000000000000009c .LVL18
     /tmp/cc7zS4Oe.s:159    .text:00000000000000a0 .LVL19
     /tmp/cc7zS4Oe.s:332    .debug_info:0000000000000000 .Ldebug_info0
     /tmp/cc7zS4Oe.s:239    .text:00000000000000e4 .LBE55
     /tmp/cc7zS4Oe.s:287    .text:0000000000000128 .LBB59
     /tmp/cc7zS4Oe.s:294    .text:000000000000012c .LBE59

UNDEFINED SYMBOLS
_ZN3PCB7runningE
_ZN9Scheduler3putEP3PCB
