GAS LISTING /tmp/ccJwkTSq.s 			page 1


   1              		.file	"SleepPCBList.cpp"
   2              		.option pic
   3              		.option norelax
   4              		.text
   5              	.Ltext0:
   6              		.align	2
   7              		.globl	_ZN12SleepPCBList17insertSleepingPCBEv
   9              	_ZN12SleepPCBList17insertSleepingPCBEv:
  10              	.LFB24:
  11              		.file 1 "src/SleepPCBList.cpp"
   1:src/SleepPCBList.cpp **** //
   2:src/SleepPCBList.cpp **** // Created by os on 5/11/22.
   3:src/SleepPCBList.cpp **** //
   4:src/SleepPCBList.cpp **** 
   5:src/SleepPCBList.cpp **** #include "../h/SleepPCBList.hpp"
   6:src/SleepPCBList.cpp **** 
   7:src/SleepPCBList.cpp **** PCB* SleepPCBList::sleepingPCBHead = 0;
   8:src/SleepPCBList.cpp **** 
   9:src/SleepPCBList.cpp **** void SleepPCBList::insertSleepingPCB()
  10:src/SleepPCBList.cpp **** {
  12              		.loc 1 10 1
  13              		.cfi_startproc
  14 0000 130101FF 		addi	sp,sp,-16
  15              		.cfi_def_cfa_offset 16
  16 0004 23348100 		sd	s0,8(sp)
  17              		.cfi_offset 8, -8
  18 0008 13040101 		addi	s0,sp,16
  19              		.cfi_def_cfa 8, 0
  11:src/SleepPCBList.cpp ****     PCB::running->setState(PCB::SLEEPING);
  20              		.loc 1 11 5
  21              		.loc 1 11 27 is_stmt 0
  22 000c 97070000 		la	a5,_ZN3PCB7runningE
  22      83B70700 
  23 0014 03B60700 		ld	a2,0(a5)
  24              	.LVL0:
  25              	.LBB11:
  26              	.LBB12:
  27              		.file 2 "src/../h/PCB.hpp"
   1:src/../h/PCB.hpp **** //
   2:src/../h/PCB.hpp **** // Created by os on 4/27/22.
   3:src/../h/PCB.hpp **** //
   4:src/../h/PCB.hpp **** 
   5:src/../h/PCB.hpp **** #ifndef PROJECT_BASE_V1_0_PCB_HPP
   6:src/../h/PCB.hpp **** #define PROJECT_BASE_V1_0_PCB_HPP
   7:src/../h/PCB.hpp **** 
   8:src/../h/PCB.hpp **** #include "../lib/hw.h"
   9:src/../h/PCB.hpp **** #include "Scheduler.hpp"
  10:src/../h/PCB.hpp **** #include "Riscv.hpp"
  11:src/../h/PCB.hpp **** 
  12:src/../h/PCB.hpp **** class PCB
  13:src/../h/PCB.hpp **** {
  14:src/../h/PCB.hpp **** public:
  15:src/../h/PCB.hpp ****     static uint64 savedRegA4;
  16:src/../h/PCB.hpp **** 
  17:src/../h/PCB.hpp ****     using Body = void (*)(void*);
  18:src/../h/PCB.hpp **** 
  19:src/../h/PCB.hpp ****     PCB(Body body,  void* args, void* stack_space, uint64 timeSlice);
GAS LISTING /tmp/ccJwkTSq.s 			page 2


  20:src/../h/PCB.hpp ****     ~PCB();
  21:src/../h/PCB.hpp **** 
  22:src/../h/PCB.hpp ****     void start();
  23:src/../h/PCB.hpp ****     static void dispatch();
  24:src/../h/PCB.hpp ****     static void sleep(time_t);
  25:src/../h/PCB.hpp **** 
  26:src/../h/PCB.hpp ****     static PCB* running;
  27:src/../h/PCB.hpp **** 
  28:src/../h/PCB.hpp ****     static uint64 timeSliceCounter;
  29:src/../h/PCB.hpp ****     uint64 getTimeSlice() { return timeSlice;}
  30:src/../h/PCB.hpp **** 
  31:src/../h/PCB.hpp ****     void* operator new(size_t size);
  32:src/../h/PCB.hpp ****     void operator delete(void *p);
  33:src/../h/PCB.hpp **** 
  34:src/../h/PCB.hpp ****     enum State{READY, RUNNING, SUSPENDED, FINISHED, EXITING, SLEEPING};
  35:src/../h/PCB.hpp ****     State getState() {return state;}
  36:src/../h/PCB.hpp ****     void setState(State s) {state = s;}
  28              		.loc 2 36 29 is_stmt 1
  29              		.loc 2 36 35 is_stmt 0
  30 0018 93075000 		li	a5,5
  31 001c 2320F604 		sw	a5,64(a2)
  32              	.LVL1:
  33              	.LBE12:
  34              	.LBE11:
  12:src/SleepPCBList.cpp ****     //trapPrintString("Inserting sleeping PCB...\n");
  13:src/SleepPCBList.cpp ****     PCB* prev = 0;
  35              		.loc 1 13 5 is_stmt 1
  14:src/SleepPCBList.cpp ****     PCB* curr = sleepingPCBHead;
  36              		.loc 1 14 5
  37              		.loc 1 14 10 is_stmt 0
  38 0020 97070000 		ld	a5,.LANCHOR0
  38      83B70700 
  39              	.LVL2:
  13:src/SleepPCBList.cpp ****     PCB* curr = sleepingPCBHead;
  40              		.loc 1 13 10
  41 0028 93050000 		li	a1,0
  42              	.LVL3:
  43              	.L4:
  15:src/SleepPCBList.cpp ****     while(curr != 0)
  44              		.loc 1 15 5 is_stmt 1
  45              		.loc 1 15 16
  46 002c 63800702 		beqz	a5,.L2
  16:src/SleepPCBList.cpp ****     {
  17:src/SleepPCBList.cpp ****         if(PCB::running->getTimeToSleep() < curr->getTimeToSleep())
  47              		.loc 1 17 9
  48              	.LVL4:
  49              	.LBB13:
  50              	.LBB14:
  37:src/../h/PCB.hpp ****     void setTimeToSleep(uint64 time) {timeToSleep = time;}
  38:src/../h/PCB.hpp ****     uint64 getTimeToSleep() {return timeToSleep;}
  51              		.loc 2 38 30
  52              		.loc 2 38 37 is_stmt 0
  53 0030 83360602 		ld	a3,32(a2)
  54              	.LVL5:
  55              	.LBE14:
  56              	.LBE13:
  57              	.LBB15:
GAS LISTING /tmp/ccJwkTSq.s 			page 3


  58              	.LBB16:
  59              		.loc 2 38 30 is_stmt 1
  60              		.loc 2 38 37 is_stmt 0
  61 0034 03B70702 		ld	a4,32(a5)
  62              	.LVL6:
  63              	.LBE16:
  64              	.LBE15:
  65              		.loc 1 17 9
  66 0038 63E8E600 		bltu	a3,a4,.L8
  18:src/SleepPCBList.cpp ****         {
  19:src/SleepPCBList.cpp ****             PCB::running->nextPCB = curr;
  20:src/SleepPCBList.cpp ****             break;
  21:src/SleepPCBList.cpp ****         }
  22:src/SleepPCBList.cpp ****         prev = curr;
  67              		.loc 1 22 9 is_stmt 1
  68              	.LVL7:
  23:src/SleepPCBList.cpp ****         curr=curr->nextPCB;
  69              		.loc 1 23 9
  22:src/SleepPCBList.cpp ****         curr=curr->nextPCB;
  70              		.loc 1 22 14 is_stmt 0
  71 003c 93850700 		mv	a1,a5
  72              		.loc 1 23 13
  73 0040 83B78700 		ld	a5,8(a5)
  74              	.LVL8:
  15:src/SleepPCBList.cpp ****     {
  75              		.loc 1 15 5
  76 0044 6FF09FFE 		j	.L4
  77              	.L8:
  19:src/SleepPCBList.cpp ****             break;
  78              		.loc 1 19 13 is_stmt 1
  19:src/SleepPCBList.cpp ****             break;
  79              		.loc 1 19 35 is_stmt 0
  80 0048 2334F600 		sd	a5,8(a2)
  20:src/SleepPCBList.cpp ****         }
  81              		.loc 1 20 13 is_stmt 1
  82              	.L2:
  24:src/SleepPCBList.cpp ****     }
  25:src/SleepPCBList.cpp **** 
  26:src/SleepPCBList.cpp ****     if(prev == 0)
  83              		.loc 1 26 5
  84 004c 638A0500 		beqz	a1,.L9
  27:src/SleepPCBList.cpp ****         sleepingPCBHead = PCB::running;
  28:src/SleepPCBList.cpp ****     else
  29:src/SleepPCBList.cpp ****         prev->nextPCB = PCB::running;
  85              		.loc 1 29 9
  86              		.loc 1 29 23 is_stmt 0
  87 0050 23B4C500 		sd	a2,8(a1)
  88              	.LVL9:
  89              	.L1:
  30:src/SleepPCBList.cpp **** }
  90              		.loc 1 30 1
  91 0054 03348100 		ld	s0,8(sp)
  92              		.cfi_remember_state
  93              		.cfi_restore 8
  94              		.cfi_def_cfa 2, 16
  95 0058 13010101 		addi	sp,sp,16
  96              		.cfi_def_cfa_offset 0
GAS LISTING /tmp/ccJwkTSq.s 			page 4


  97 005c 67800000 		jr	ra
  98              	.LVL10:
  99              	.L9:
 100              		.cfi_restore_state
  27:src/SleepPCBList.cpp ****         sleepingPCBHead = PCB::running;
 101              		.loc 1 27 9 is_stmt 1
  27:src/SleepPCBList.cpp ****         sleepingPCBHead = PCB::running;
 102              		.loc 1 27 25 is_stmt 0
 103 0060 97070000 		sd	a2,.LANCHOR0,a5
 103      23B0C700 
 104              	.LVL11:
 105 0068 6FF0DFFE 		j	.L1
 106              		.cfi_endproc
 107              	.LFE24:
 109              		.align	2
 110              		.globl	_ZN12SleepPCBList13tryToWakePCBsEv
 112              	_ZN12SleepPCBList13tryToWakePCBsEv:
 113              	.LFB25:
  31:src/SleepPCBList.cpp **** 
  32:src/SleepPCBList.cpp **** void SleepPCBList::tryToWakePCBs()
  33:src/SleepPCBList.cpp **** {
 114              		.loc 1 33 1 is_stmt 1
 115              		.cfi_startproc
  34:src/SleepPCBList.cpp ****     //trapPrintString("Waking PCBs...\n");
  35:src/SleepPCBList.cpp ****     PCB* curr = sleepingPCBHead;
 116              		.loc 1 35 5
 117              		.loc 1 35 10 is_stmt 0
 118 006c 17050000 		ld	a0,.LANCHOR0
 118      03350500 
 119              	.LVL12:
  36:src/SleepPCBList.cpp ****     if(curr == 0)
 120              		.loc 1 36 5 is_stmt 1
 121 0074 630E0506 		beqz	a0,.L14
  37:src/SleepPCBList.cpp ****     {
  38:src/SleepPCBList.cpp ****         //trapPrintString("No sleeping PCBs...\n");
  39:src/SleepPCBList.cpp ****         return;
  40:src/SleepPCBList.cpp ****     }
  41:src/SleepPCBList.cpp ****     while(curr != 0 && Riscv::totalTime >= curr->getTimeToSleep())
 122              		.loc 1 41 5
 123              		.loc 1 41 21
 124 0078 630C0506 		beqz	a0,.L14
 125              	.LVL13:
 126              	.LBB17:
 127              	.LBB18:
 128              		.loc 2 38 30
 129              		.loc 2 38 37 is_stmt 0
 130 007c 83370502 		ld	a5,32(a0)
 131              	.LVL14:
 132              	.LBE18:
 133              	.LBE17:
 134              		.loc 1 41 41
 135 0080 17070000 		la	a4,_ZN5Riscv9totalTimeE
 135      03370700 
 136 0088 03370700 		ld	a4,0(a4)
 137              		.loc 1 41 21
 138 008c 6362F706 		bltu	a4,a5,.L14
  33:src/SleepPCBList.cpp ****     //trapPrintString("Waking PCBs...\n");
GAS LISTING /tmp/ccJwkTSq.s 			page 5


 139              		.loc 1 33 1
 140 0090 130101FE 		addi	sp,sp,-32
 141              		.cfi_def_cfa_offset 32
 142 0094 233C1100 		sd	ra,24(sp)
 143 0098 23388100 		sd	s0,16(sp)
 144 009c 23349100 		sd	s1,8(sp)
 145              		.cfi_offset 1, -8
 146              		.cfi_offset 8, -16
 147              		.cfi_offset 9, -24
 148 00a0 13040102 		addi	s0,sp,32
 149              		.cfi_def_cfa 8, 0
 150 00a4 6F008001 		j	.L17
 151              	.LVL15:
 152              	.L19:
 153              	.LBB20:
 154              	.LBB19:
 155              		.loc 2 38 30 is_stmt 1
 156              		.loc 2 38 37 is_stmt 0
 157 00a8 83B70402 		ld	a5,32(s1)
 158              	.LVL16:
 159              	.LBE19:
 160              	.LBE20:
 161              		.loc 1 41 41
 162 00ac 17070000 		la	a4,_ZN5Riscv9totalTimeE
 162      03370700 
 163 00b4 03370700 		ld	a4,0(a4)
 164              		.loc 1 41 21
 165 00b8 6362F702 		bltu	a4,a5,.L10
 166              	.LVL17:
 167              	.L17:
 168              	.LBB21:
  42:src/SleepPCBList.cpp ****     {
  43:src/SleepPCBList.cpp ****         PCB *old = curr;
 169              		.loc 1 43 9 is_stmt 1
  44:src/SleepPCBList.cpp ****         curr = curr->nextPCB;
 170              		.loc 1 44 9
 171              		.loc 1 44 14 is_stmt 0
 172 00bc 83348500 		ld	s1,8(a0)
 173              	.LVL18:
  45:src/SleepPCBList.cpp ****         old->nextPCB = 0;
 174              		.loc 1 45 9 is_stmt 1
 175              		.loc 1 45 22 is_stmt 0
 176 00c0 23340500 		sd	zero,8(a0)
  46:src/SleepPCBList.cpp ****         Scheduler::put(old);
 177              		.loc 1 46 9 is_stmt 1
 178              		.loc 1 46 23 is_stmt 0
 179 00c4 97000000 		call	_ZN9Scheduler3putEP3PCB@plt
 179      E7800000 
 180              	.LVL19:
  47:src/SleepPCBList.cpp ****         sleepingPCBHead = curr;
 181              		.loc 1 47 9 is_stmt 1
 182              		.loc 1 47 25 is_stmt 0
 183 00cc 97070000 		sd	s1,.LANCHOR0,a5
 183      23B09700 
  44:src/SleepPCBList.cpp ****         old->nextPCB = 0;
 184              		.loc 1 44 14
 185 00d4 13850400 		mv	a0,s1
GAS LISTING /tmp/ccJwkTSq.s 			page 6


 186              	.LBE21:
  41:src/SleepPCBList.cpp ****     {
 187              		.loc 1 41 5 is_stmt 1
  41:src/SleepPCBList.cpp ****     {
 188              		.loc 1 41 21
 189 00d8 E39804FC 		bnez	s1,.L19
 190              	.L10:
  48:src/SleepPCBList.cpp ****     }
  49:src/SleepPCBList.cpp **** }
 191              		.loc 1 49 1 is_stmt 0
 192 00dc 83308101 		ld	ra,24(sp)
 193              		.cfi_restore 1
 194 00e0 03340101 		ld	s0,16(sp)
 195              		.cfi_restore 8
 196              		.cfi_def_cfa 2, 32
 197 00e4 83348100 		ld	s1,8(sp)
 198              		.cfi_restore 9
 199              	.LVL20:
 200 00e8 13010102 		addi	sp,sp,32
 201              		.cfi_def_cfa_offset 0
 202 00ec 67800000 		jr	ra
 203              	.L14:
 204 00f0 67800000 		ret
 205              		.cfi_endproc
 206              	.LFE25:
 208              		.globl	_ZN12SleepPCBList15sleepingPCBHeadE
 209              		.bss
 210              		.align	3
 211              		.set	.LANCHOR0,. + 0
 214              	_ZN12SleepPCBList15sleepingPCBHeadE:
 215 0000 00000000 		.zero	8
 215      00000000 
 216              		.text
 217              	.Letext0:
 218              		.file 3 "src/../h/../lib/hw.h"
 219              		.file 4 "src/../h/Scheduler.hpp"
 220              		.file 5 "src/../h/SleepPCBList.hpp"
GAS LISTING /tmp/ccJwkTSq.s 			page 7


DEFINED SYMBOLS
                            *ABS*:0000000000000000 SleepPCBList.cpp
     /tmp/ccJwkTSq.s:9      .text:0000000000000000 _ZN12SleepPCBList17insertSleepingPCBEv
     /tmp/ccJwkTSq.s:13     .text:0000000000000000 .L0 
     /tmp/ccJwkTSq.s:14     .text:0000000000000000 .L0 
     /tmp/ccJwkTSq.s:15     .text:0000000000000004 .L0 
     /tmp/ccJwkTSq.s:17     .text:0000000000000008 .L0 
     /tmp/ccJwkTSq.s:19     .text:000000000000000c .L0 
     /tmp/ccJwkTSq.s:21     .text:000000000000000c .L0 
     /tmp/ccJwkTSq.s:22     .text:000000000000000c .L0 
     /tmp/ccJwkTSq.s:29     .text:0000000000000018 .L0 
     /tmp/ccJwkTSq.s:30     .text:0000000000000018 .L0 
     /tmp/ccJwkTSq.s:36     .text:0000000000000020 .L0 
     /tmp/ccJwkTSq.s:37     .text:0000000000000020 .L0 
     /tmp/ccJwkTSq.s:38     .text:0000000000000020 .L0 
     /tmp/ccJwkTSq.s:41     .text:0000000000000028 .L0 
     /tmp/ccJwkTSq.s:45     .text:000000000000002c .L0 
     /tmp/ccJwkTSq.s:46     .text:000000000000002c .L0 
     /tmp/ccJwkTSq.s:51     .text:0000000000000030 .L0 
     /tmp/ccJwkTSq.s:52     .text:0000000000000030 .L0 
     /tmp/ccJwkTSq.s:53     .text:0000000000000030 .L0 
     /tmp/ccJwkTSq.s:60     .text:0000000000000034 .L0 
     /tmp/ccJwkTSq.s:61     .text:0000000000000034 .L0 
     /tmp/ccJwkTSq.s:66     .text:0000000000000038 .L0 
     /tmp/ccJwkTSq.s:69     .text:000000000000003c .L0 
     /tmp/ccJwkTSq.s:70     .text:000000000000003c .L0 
     /tmp/ccJwkTSq.s:71     .text:000000000000003c .L0 
     /tmp/ccJwkTSq.s:73     .text:0000000000000040 .L0 
     /tmp/ccJwkTSq.s:76     .text:0000000000000044 .L0 
     /tmp/ccJwkTSq.s:79     .text:0000000000000048 .L0 
     /tmp/ccJwkTSq.s:80     .text:0000000000000048 .L0 
     /tmp/ccJwkTSq.s:83     .text:000000000000004c .L0 
     /tmp/ccJwkTSq.s:84     .text:000000000000004c .L0 
     /tmp/ccJwkTSq.s:86     .text:0000000000000050 .L0 
     /tmp/ccJwkTSq.s:87     .text:0000000000000050 .L0 
     /tmp/ccJwkTSq.s:91     .text:0000000000000054 .L0 
     /tmp/ccJwkTSq.s:92     .text:0000000000000058 .L0 
     /tmp/ccJwkTSq.s:93     .text:0000000000000058 .L0 
     /tmp/ccJwkTSq.s:94     .text:0000000000000058 .L0 
     /tmp/ccJwkTSq.s:96     .text:000000000000005c .L0 
     /tmp/ccJwkTSq.s:100    .text:0000000000000060 .L0 
     /tmp/ccJwkTSq.s:102    .text:0000000000000060 .L0 
     /tmp/ccJwkTSq.s:103    .text:0000000000000060 .L0 
     /tmp/ccJwkTSq.s:106    .text:000000000000006c .L0 
     /tmp/ccJwkTSq.s:112    .text:000000000000006c _ZN12SleepPCBList13tryToWakePCBsEv
     /tmp/ccJwkTSq.s:115    .text:000000000000006c .L0 
     /tmp/ccJwkTSq.s:116    .text:000000000000006c .L0 
     /tmp/ccJwkTSq.s:117    .text:000000000000006c .L0 
     /tmp/ccJwkTSq.s:118    .text:000000000000006c .L0 
     /tmp/ccJwkTSq.s:121    .text:0000000000000074 .L0 
     /tmp/ccJwkTSq.s:123    .text:0000000000000078 .L0 
     /tmp/ccJwkTSq.s:124    .text:0000000000000078 .L0 
     /tmp/ccJwkTSq.s:129    .text:000000000000007c .L0 
     /tmp/ccJwkTSq.s:130    .text:000000000000007c .L0 
     /tmp/ccJwkTSq.s:135    .text:0000000000000080 .L0 
     /tmp/ccJwkTSq.s:138    .text:000000000000008c .L0 
     /tmp/ccJwkTSq.s:140    .text:0000000000000090 .L0 
GAS LISTING /tmp/ccJwkTSq.s 			page 8


     /tmp/ccJwkTSq.s:141    .text:0000000000000094 .L0 
     /tmp/ccJwkTSq.s:145    .text:00000000000000a0 .L0 
     /tmp/ccJwkTSq.s:146    .text:00000000000000a0 .L0 
     /tmp/ccJwkTSq.s:147    .text:00000000000000a0 .L0 
     /tmp/ccJwkTSq.s:149    .text:00000000000000a4 .L0 
     /tmp/ccJwkTSq.s:156    .text:00000000000000a8 .L0 
     /tmp/ccJwkTSq.s:157    .text:00000000000000a8 .L0 
     /tmp/ccJwkTSq.s:162    .text:00000000000000ac .L0 
     /tmp/ccJwkTSq.s:165    .text:00000000000000b8 .L0 
     /tmp/ccJwkTSq.s:170    .text:00000000000000bc .L0 
     /tmp/ccJwkTSq.s:171    .text:00000000000000bc .L0 
     /tmp/ccJwkTSq.s:172    .text:00000000000000bc .L0 
     /tmp/ccJwkTSq.s:175    .text:00000000000000c0 .L0 
     /tmp/ccJwkTSq.s:176    .text:00000000000000c0 .L0 
     /tmp/ccJwkTSq.s:178    .text:00000000000000c4 .L0 
     /tmp/ccJwkTSq.s:179    .text:00000000000000c4 .L0 
     /tmp/ccJwkTSq.s:182    .text:00000000000000cc .L0 
     /tmp/ccJwkTSq.s:183    .text:00000000000000cc .L0 
     /tmp/ccJwkTSq.s:185    .text:00000000000000d4 .L0 
     /tmp/ccJwkTSq.s:188    .text:00000000000000d8 .L0 
     /tmp/ccJwkTSq.s:189    .text:00000000000000d8 .L0 
     /tmp/ccJwkTSq.s:192    .text:00000000000000dc .L0 
     /tmp/ccJwkTSq.s:193    .text:00000000000000e0 .L0 
     /tmp/ccJwkTSq.s:195    .text:00000000000000e4 .L0 
     /tmp/ccJwkTSq.s:196    .text:00000000000000e4 .L0 
     /tmp/ccJwkTSq.s:198    .text:00000000000000e8 .L0 
     /tmp/ccJwkTSq.s:201    .text:00000000000000ec .L0 
     /tmp/ccJwkTSq.s:205    .text:00000000000000f4 .L0 
     /tmp/ccJwkTSq.s:214    .bss:0000000000000000 _ZN12SleepPCBList15sleepingPCBHeadE
     /tmp/ccJwkTSq.s:211    .bss:0000000000000000 .LANCHOR0
     /tmp/ccJwkTSq.s:221    .text:00000000000000f4 .L0 
     /tmp/ccJwkTSq.s:22     .text:000000000000000c .L0 
     /tmp/ccJwkTSq.s:38     .text:0000000000000020 .L0 
     /tmp/ccJwkTSq.s:103    .text:0000000000000060 .L0 
     /tmp/ccJwkTSq.s:118    .text:000000000000006c .L0 
     /tmp/ccJwkTSq.s:135    .text:0000000000000080 .L0 
     /tmp/ccJwkTSq.s:162    .text:00000000000000ac .L0 
     /tmp/ccJwkTSq.s:183    .text:00000000000000cc .L0 
     /tmp/ccJwkTSq.s:82     .text:000000000000004c .L2
     /tmp/ccJwkTSq.s:77     .text:0000000000000048 .L8
     /tmp/ccJwkTSq.s:43     .text:000000000000002c .L4
     /tmp/ccJwkTSq.s:99     .text:0000000000000060 .L9
     /tmp/ccJwkTSq.s:89     .text:0000000000000054 .L1
     /tmp/ccJwkTSq.s:203    .text:00000000000000f0 .L14
     /tmp/ccJwkTSq.s:167    .text:00000000000000bc .L17
     /tmp/ccJwkTSq.s:190    .text:00000000000000dc .L10
     /tmp/ccJwkTSq.s:152    .text:00000000000000a8 .L19
     /tmp/ccJwkTSq.s:1086   .debug_abbrev:0000000000000000 .Ldebug_abbrev0
     /tmp/ccJwkTSq.s:2086   .debug_str:00000000000000e5 .LASF106
     /tmp/ccJwkTSq.s:2116   .debug_str:000000000000026a .LASF107
     /tmp/ccJwkTSq.s:2262   .debug_str:00000000000006c9 .LASF108
     /tmp/ccJwkTSq.s:5      .text:0000000000000000 .Ltext0
     /tmp/ccJwkTSq.s:217    .text:00000000000000f4 .Letext0
     /tmp/ccJwkTSq.s:2058   .debug_line:0000000000000000 .Ldebug_line0
     /tmp/ccJwkTSq.s:2148   .debug_str:0000000000000361 .LASF0
     /tmp/ccJwkTSq.s:2164   .debug_str:00000000000003d1 .LASF1
     /tmp/ccJwkTSq.s:2214   .debug_str:0000000000000580 .LASF2
GAS LISTING /tmp/ccJwkTSq.s 			page 9


     /tmp/ccJwkTSq.s:2222   .debug_str:00000000000005af .LASF4
     /tmp/ccJwkTSq.s:2156   .debug_str:000000000000039a .LASF3
     /tmp/ccJwkTSq.s:2066   .debug_str:000000000000002f .LASF5
     /tmp/ccJwkTSq.s:2204   .debug_str:000000000000052b .LASF6
     /tmp/ccJwkTSq.s:2200   .debug_str:0000000000000510 .LASF7
     /tmp/ccJwkTSq.s:2160   .debug_str:00000000000003b9 .LASF8
     /tmp/ccJwkTSq.s:2140   .debug_str:0000000000000330 .LASF9
     /tmp/ccJwkTSq.s:2144   .debug_str:000000000000034d .LASF10
     /tmp/ccJwkTSq.s:2098   .debug_str:00000000000001ea .LASF11
     /tmp/ccJwkTSq.s:2134   .debug_str:0000000000000307 .LASF12
     /tmp/ccJwkTSq.s:2104   .debug_str:000000000000020c .LASF13
     /tmp/ccJwkTSq.s:2096   .debug_str:00000000000001da .LASF14
     /tmp/ccJwkTSq.s:2246   .debug_str:000000000000067a .LASF15
     /tmp/ccJwkTSq.s:2126   .debug_str:00000000000002a9 .LASF16
     /tmp/ccJwkTSq.s:2240   .debug_str:0000000000000628 .LASF17
     /tmp/ccJwkTSq.s:2252   .debug_str:0000000000000699 .LASF109
     /tmp/ccJwkTSq.s:2094   .debug_str:00000000000001d4 .LASF18
     /tmp/ccJwkTSq.s:2234   .debug_str:0000000000000607 .LASF19
     /tmp/ccJwkTSq.s:2102   .debug_str:0000000000000202 .LASF20
     /tmp/ccJwkTSq.s:2082   .debug_str:00000000000000ce .LASF21
     /tmp/ccJwkTSq.s:2202   .debug_str:0000000000000523 .LASF22
     /tmp/ccJwkTSq.s:2100   .debug_str:00000000000001f9 .LASF23
     /tmp/ccJwkTSq.s:2248   .debug_str:0000000000000686 .LASF86
     /tmp/ccJwkTSq.s:2146   .debug_str:000000000000035b .LASF24
     /tmp/ccJwkTSq.s:2068   .debug_str:0000000000000036 .LASF29
     /tmp/ccJwkTSq.s:2266   .debug_str:00000000000006f4 .LASF110
     /tmp/ccJwkTSq.s:2190   .debug_str:00000000000004c2 .LASF111
     /tmp/ccJwkTSq.s:2162   .debug_str:00000000000003cc .LASF25
     /tmp/ccJwkTSq.s:2288   .debug_str:0000000000000798 .LASF27
     /tmp/ccJwkTSq.s:2282   .debug_str:0000000000000768 .LASF26
     /tmp/ccJwkTSq.s:2258   .debug_str:00000000000006af .LASF28
     /tmp/ccJwkTSq.s:2118   .debug_str:000000000000027f .LASF54
     /tmp/ccJwkTSq.s:2074   .debug_str:000000000000007c .LASF56
     /tmp/ccJwkTSq.s:2166   .debug_str:00000000000003e4 .LASF34
     /tmp/ccJwkTSq.s:2194   .debug_str:00000000000004da .LASF36
     /tmp/ccJwkTSq.s:2254   .debug_str:000000000000069f .LASF30
     /tmp/ccJwkTSq.s:2226   .debug_str:00000000000005be .LASF31
     /tmp/ccJwkTSq.s:2168   .debug_str:00000000000003ea .LASF38
     /tmp/ccJwkTSq.s:2170   .debug_str:00000000000003f7 .LASF40
     /tmp/ccJwkTSq.s:2290   .debug_str:00000000000007a4 .LASF32
     /tmp/ccJwkTSq.s:2128   .debug_str:00000000000002bf .LASF33
     /tmp/ccJwkTSq.s:2064   .debug_str:000000000000001f .LASF35
     /tmp/ccJwkTSq.s:2154   .debug_str:000000000000038d .LASF37
     /tmp/ccJwkTSq.s:2230   .debug_str:00000000000005e0 .LASF39
     /tmp/ccJwkTSq.s:2180   .debug_str:000000000000044a .LASF41
     /tmp/ccJwkTSq.s:2220   .debug_str:00000000000005a6 .LASF42
     /tmp/ccJwkTSq.s:2244   .debug_str:000000000000065e .LASF43
     /tmp/ccJwkTSq.s:2182   .debug_str:000000000000045d .LASF44
     /tmp/ccJwkTSq.s:2060   .debug_str:0000000000000000 .LASF45
     /tmp/ccJwkTSq.s:2276   .debug_str:0000000000000740 .LASF46
     /tmp/ccJwkTSq.s:2198   .debug_str:00000000000004f6 .LASF47
     /tmp/ccJwkTSq.s:2238   .debug_str:000000000000061a .LASF48
     /tmp/ccJwkTSq.s:2206   .debug_str:0000000000000532 .LASF49
     /tmp/ccJwkTSq.s:2114   .debug_str:000000000000025a .LASF50
     /tmp/ccJwkTSq.s:2136   .debug_str:0000000000000316 .LASF51
     /tmp/ccJwkTSq.s:2210   .debug_str:000000000000055b .LASF52
     /tmp/ccJwkTSq.s:2278   .debug_str:000000000000074f .LASF53
GAS LISTING /tmp/ccJwkTSq.s 			page 10


     /tmp/ccJwkTSq.s:2158   .debug_str:00000000000003ac .LASF60
     /tmp/ccJwkTSq.s:2236   .debug_str:000000000000060f .LASF55
     /tmp/ccJwkTSq.s:2286   .debug_str:0000000000000782 .LASF57
     /tmp/ccJwkTSq.s:2250   .debug_str:000000000000068e .LASF58
     /tmp/ccJwkTSq.s:2110   .debug_str:000000000000023f .LASF59
     /tmp/ccJwkTSq.s:2224   .debug_str:00000000000005b6 .LASF61
     /tmp/ccJwkTSq.s:2150   .debug_str:000000000000036e .LASF62
     /tmp/ccJwkTSq.s:2186   .debug_str:0000000000000482 .LASF63
     /tmp/ccJwkTSq.s:2108   .debug_str:000000000000022d .LASF64
     /tmp/ccJwkTSq.s:2208   .debug_str:000000000000053e .LASF65
     /tmp/ccJwkTSq.s:2294   .debug_str:00000000000007d5 .LASF66
     /tmp/ccJwkTSq.s:2188   .debug_str:00000000000004a1 .LASF67
     /tmp/ccJwkTSq.s:2218   .debug_str:0000000000000593 .LASF68
     /tmp/ccJwkTSq.s:2232   .debug_str:00000000000005e9 .LASF69
     /tmp/ccJwkTSq.s:2272   .debug_str:0000000000000726 .LASF70
     /tmp/ccJwkTSq.s:2176   .debug_str:000000000000041c .LASF71
     /tmp/ccJwkTSq.s:2268   .debug_str:000000000000070c .LASF72
     /tmp/ccJwkTSq.s:2242   .debug_str:000000000000063e .LASF73
     /tmp/ccJwkTSq.s:2122   .debug_str:000000000000028e .LASF74
     /tmp/ccJwkTSq.s:2152   .debug_str:0000000000000382 .LASF75
     /tmp/ccJwkTSq.s:2260   .debug_str:00000000000006bf .LASF76
     /tmp/ccJwkTSq.s:2196   .debug_str:00000000000004ea .LASF77
     /tmp/ccJwkTSq.s:2280   .debug_str:000000000000075a .LASF78
     /tmp/ccJwkTSq.s:2078   .debug_str:0000000000000094 .LASF80
     /tmp/ccJwkTSq.s:2130   .debug_str:00000000000002cb .LASF79
     /tmp/ccJwkTSq.s:2092   .debug_str:00000000000001a8 .LASF81
     /tmp/ccJwkTSq.s:2274   .debug_str:0000000000000739 .LASF112
     /tmp/ccJwkTSq.s:2090   .debug_str:0000000000000197 .LASF113
     /tmp/ccJwkTSq.s:2062   .debug_str:000000000000001a .LASF82
     /tmp/ccJwkTSq.s:2270   .debug_str:0000000000000721 .LASF83
     /tmp/ccJwkTSq.s:2172   .debug_str:000000000000040f .LASF84
     /tmp/ccJwkTSq.s:2120   .debug_str:0000000000000288 .LASF85
     /tmp/ccJwkTSq.s:2264   .debug_str:00000000000006ec .LASF87
     /tmp/ccJwkTSq.s:2138   .debug_str:0000000000000326 .LASF88
     /tmp/ccJwkTSq.s:2070   .debug_str:0000000000000041 .LASF114
     /tmp/ccJwkTSq.s:2284   .debug_str:000000000000076e .LASF115
     /tmp/ccJwkTSq.s:2080   .debug_str:00000000000000bc .LASF89
     /tmp/ccJwkTSq.s:2192   .debug_str:00000000000004c7 .LASF90
     /tmp/ccJwkTSq.s:2256   .debug_str:00000000000006a7 .LASF91
     /tmp/ccJwkTSq.s:2212   .debug_str:0000000000000568 .LASF116
     /tmp/ccJwkTSq.s:2088   .debug_str:0000000000000191 .LASF92
     /tmp/ccJwkTSq.s:2184   .debug_str:000000000000046c .LASF93
     /tmp/ccJwkTSq.s:2228   .debug_str:00000000000005cf .LASF94
     /tmp/ccJwkTSq.s:2106   .debug_str:000000000000021c .LASF95
     /tmp/ccJwkTSq.s:2174   .debug_str:0000000000000417 .LASF96
     /tmp/ccJwkTSq.s:2142   .debug_str:0000000000000340 .LASF97
     /tmp/ccJwkTSq.s:2178   .debug_str:000000000000043a .LASF98
     /tmp/ccJwkTSq.s:2124   .debug_str:0000000000000297 .LASF99
     /tmp/ccJwkTSq.s:2132   .debug_str:00000000000002e0 .LASF100
     /tmp/ccJwkTSq.s:2084   .debug_str:00000000000000d7 .LASF101
     /tmp/ccJwkTSq.s:2072   .debug_str:0000000000000059 .LASF102
     /tmp/ccJwkTSq.s:2292   .debug_str:00000000000007b1 .LASF117
     /tmp/ccJwkTSq.s:113    .text:000000000000006c .LFB25
     /tmp/ccJwkTSq.s:206    .text:00000000000000f4 .LFE25
     /tmp/ccJwkTSq.s:2216   .debug_str:000000000000058e .LASF103
     /tmp/ccJwkTSq.s:1927   .debug_loc:0000000000000000 .LLST6
     /tmp/ccJwkTSq.s:168    .text:00000000000000bc .LBB21
GAS LISTING /tmp/ccJwkTSq.s 			page 11


     /tmp/ccJwkTSq.s:186    .text:00000000000000d8 .LBE21
     /tmp/ccJwkTSq.s:1950   .debug_loc:000000000000006f .LLST8
     /tmp/ccJwkTSq.s:180    .text:00000000000000cc .LVL19
     /tmp/ccJwkTSq.s:126    .text:000000000000007c .LBB17
     /tmp/ccJwkTSq.s:2050   .debug_ranges:0000000000000000 .Ldebug_ranges0
     /tmp/ccJwkTSq.s:1957   .debug_loc:0000000000000092 .LLST7
     /tmp/ccJwkTSq.s:10     .text:0000000000000000 .LFB24
     /tmp/ccJwkTSq.s:107    .text:000000000000006c .LFE24
     /tmp/ccJwkTSq.s:2076   .debug_str:000000000000008f .LASF104
     /tmp/ccJwkTSq.s:1968   .debug_loc:00000000000000c8 .LLST0
     /tmp/ccJwkTSq.s:1988   .debug_loc:0000000000000125 .LLST1
     /tmp/ccJwkTSq.s:25     .text:0000000000000018 .LBB11
     /tmp/ccJwkTSq.s:34     .text:0000000000000020 .LBE11
     /tmp/ccJwkTSq.s:2008   .debug_loc:0000000000000182 .LLST2
     /tmp/ccJwkTSq.s:2016   .debug_loc:00000000000001a6 .LLST3
     /tmp/ccJwkTSq.s:49     .text:0000000000000030 .LBB13
     /tmp/ccJwkTSq.s:56     .text:0000000000000034 .LBE13
     /tmp/ccJwkTSq.s:2023   .debug_loc:00000000000001c9 .LLST4
     /tmp/ccJwkTSq.s:57     .text:0000000000000034 .LBB15
     /tmp/ccJwkTSq.s:64     .text:0000000000000038 .LBE15
     /tmp/ccJwkTSq.s:2030   .debug_loc:00000000000001ec .LLST5
     /tmp/ccJwkTSq.s:2112   .debug_str:0000000000000255 .LASF105
     /tmp/ccJwkTSq.s:119    .text:0000000000000074 .LVL12
     /tmp/ccJwkTSq.s:151    .text:00000000000000a8 .LVL15
     /tmp/ccJwkTSq.s:166    .text:00000000000000bc .LVL17
     /tmp/ccJwkTSq.s:173    .text:00000000000000c0 .LVL18
     /tmp/ccJwkTSq.s:199    .text:00000000000000e8 .LVL20
     /tmp/ccJwkTSq.s:125    .text:000000000000007c .LVL13
     /tmp/ccJwkTSq.s:131    .text:0000000000000080 .LVL14
     /tmp/ccJwkTSq.s:158    .text:00000000000000ac .LVL16
     /tmp/ccJwkTSq.s:32     .text:0000000000000020 .LVL1
     /tmp/ccJwkTSq.s:42     .text:000000000000002c .LVL3
     /tmp/ccJwkTSq.s:68     .text:000000000000003c .LVL7
     /tmp/ccJwkTSq.s:74     .text:0000000000000044 .LVL8
     /tmp/ccJwkTSq.s:39     .text:0000000000000028 .LVL2
     /tmp/ccJwkTSq.s:88     .text:0000000000000054 .LVL9
     /tmp/ccJwkTSq.s:98     .text:0000000000000060 .LVL10
     /tmp/ccJwkTSq.s:104    .text:0000000000000068 .LVL11
     /tmp/ccJwkTSq.s:24     .text:0000000000000018 .LVL0
     /tmp/ccJwkTSq.s:48     .text:0000000000000030 .LVL4
     /tmp/ccJwkTSq.s:54     .text:0000000000000034 .LVL5
     /tmp/ccJwkTSq.s:62     .text:0000000000000038 .LVL6
     /tmp/ccJwkTSq.s:222    .debug_info:0000000000000000 .Ldebug_info0
     /tmp/ccJwkTSq.s:133    .text:0000000000000080 .LBE17
     /tmp/ccJwkTSq.s:153    .text:00000000000000a8 .LBB20
     /tmp/ccJwkTSq.s:160    .text:00000000000000ac .LBE20

UNDEFINED SYMBOLS
_ZN3PCB7runningE
_ZN5Riscv9totalTimeE
_ZN9Scheduler3putEP3PCB
