GAS LISTING /tmp/ccELXfBD.s 			page 1


   1              		.file	"SleepPCBList.cpp"
   2              		.option pic
   3              		.option norelax
   4              		.text
   5              	.Ltext0:
   6              		.align	2
   7              		.globl	_ZN12SleepPCBList17insertSleepingPCBEv
   9              	_ZN12SleepPCBList17insertSleepingPCBEv:
  10              	.LFB25:
  11              		.file 1 "src/SleepPCBList.cpp"
   1:src/SleepPCBList.cpp **** //
   2:src/SleepPCBList.cpp **** // Created by os on 5/11/22.
   3:src/SleepPCBList.cpp **** //
   4:src/SleepPCBList.cpp **** 
   5:src/SleepPCBList.cpp **** #include "../h/SleepPCBList.hpp"
   6:src/SleepPCBList.cpp **** #include "../h/Scheduler.hpp"
   7:src/SleepPCBList.cpp **** #include "../h/Riscv.hpp"
   8:src/SleepPCBList.cpp **** 
   9:src/SleepPCBList.cpp **** PCB* SleepPCBList::sleepingPCBHead = 0;
  10:src/SleepPCBList.cpp **** 
  11:src/SleepPCBList.cpp **** void SleepPCBList::insertSleepingPCB()
  12:src/SleepPCBList.cpp **** {
  12              		.loc 1 12 1
  13              		.cfi_startproc
  14 0000 130101FF 		addi	sp,sp,-16
  15              		.cfi_def_cfa_offset 16
  16 0004 23348100 		sd	s0,8(sp)
  17              		.cfi_offset 8, -8
  18 0008 13040101 		addi	s0,sp,16
  19              		.cfi_def_cfa 8, 0
  13:src/SleepPCBList.cpp ****     PCB::running->setState(PCB::SLEEPING);
  20              		.loc 1 13 5
  21              		.loc 1 13 27 is_stmt 0
  22 000c 97070000 		la	a5,_ZN3PCB7runningE
  22      83B70700 
  23 0014 03B60700 		ld	a2,0(a5)
  24              	.LVL0:
  25              	.LBB11:
  26              	.LBB12:
  27              		.file 2 "src/../h/PCB.hpp"
   1:src/../h/PCB.hpp **** //
   2:src/../h/PCB.hpp **** // Created by os on 4/27/22.
   3:src/../h/PCB.hpp **** //
   4:src/../h/PCB.hpp **** 
   5:src/../h/PCB.hpp **** #ifndef PROJECT_BASE_V1_0_PCB_HPP
   6:src/../h/PCB.hpp **** #define PROJECT_BASE_V1_0_PCB_HPP
   7:src/../h/PCB.hpp **** 
   8:src/../h/PCB.hpp **** #include "../lib/hw.h"
   9:src/../h/PCB.hpp **** 
  10:src/../h/PCB.hpp **** class PCB
  11:src/../h/PCB.hpp **** {
  12:src/../h/PCB.hpp **** private:
  13:src/../h/PCB.hpp ****     static uint64 savedRegA4;
  14:src/../h/PCB.hpp **** 
  15:src/../h/PCB.hpp ****     using Body = void (*)(void*);
  16:src/../h/PCB.hpp **** 
  17:src/../h/PCB.hpp ****     PCB(Body body,  void* args, void* stack_space, uint64 timeSlice);
GAS LISTING /tmp/ccELXfBD.s 			page 2


  18:src/../h/PCB.hpp ****     ~PCB();
  19:src/../h/PCB.hpp **** 
  20:src/../h/PCB.hpp ****     void start();
  21:src/../h/PCB.hpp ****     static void dispatch();
  22:src/../h/PCB.hpp ****     static void sleep(time_t);
  23:src/../h/PCB.hpp **** 
  24:src/../h/PCB.hpp ****     static PCB* running;
  25:src/../h/PCB.hpp **** 
  26:src/../h/PCB.hpp ****     static uint64 timeSliceCounter;
  27:src/../h/PCB.hpp ****     uint64 getTimeSlice() { return timeSlice;}
  28:src/../h/PCB.hpp **** 
  29:src/../h/PCB.hpp ****     void* operator new(size_t size);
  30:src/../h/PCB.hpp ****     void operator delete(void *p);
  31:src/../h/PCB.hpp **** 
  32:src/../h/PCB.hpp ****     enum State{READY, RUNNING, SUSPENDED, FINISHED, EXITING, SLEEPING};
  33:src/../h/PCB.hpp ****     State getState() {return state;}
  34:src/../h/PCB.hpp ****     void setState(State s) {state = s;}
  28              		.loc 2 34 29 is_stmt 1
  29              		.loc 2 34 35 is_stmt 0
  30 0018 93075000 		li	a5,5
  31 001c 2320F604 		sw	a5,64(a2)
  32              	.LVL1:
  33              	.LBE12:
  34              	.LBE11:
  14:src/SleepPCBList.cpp ****     //trapPrintString("Inserting sleeping PCB...\n");
  15:src/SleepPCBList.cpp ****     PCB* prev = 0;
  35              		.loc 1 15 5 is_stmt 1
  16:src/SleepPCBList.cpp ****     PCB* curr = sleepingPCBHead;
  36              		.loc 1 16 5
  37              		.loc 1 16 10 is_stmt 0
  38 0020 97070000 		ld	a5,.LANCHOR0
  38      83B70700 
  39              	.LVL2:
  15:src/SleepPCBList.cpp ****     PCB* curr = sleepingPCBHead;
  40              		.loc 1 15 10
  41 0028 93050000 		li	a1,0
  42              	.LVL3:
  43              	.L4:
  17:src/SleepPCBList.cpp ****     while(curr != 0)
  44              		.loc 1 17 5 is_stmt 1
  45              		.loc 1 17 16
  46 002c 63800702 		beqz	a5,.L2
  18:src/SleepPCBList.cpp ****     {
  19:src/SleepPCBList.cpp ****         if(PCB::running->getTimeToSleep() < curr->getTimeToSleep())
  47              		.loc 1 19 9
  48              	.LVL4:
  49              	.LBB13:
  50              	.LBB14:
  35:src/../h/PCB.hpp ****     void setTimeToSleep(uint64 time) {timeToSleep = time;}
  36:src/../h/PCB.hpp ****     uint64 getTimeToSleep() {return timeToSleep;}
  51              		.loc 2 36 30
  52              		.loc 2 36 37 is_stmt 0
  53 0030 83360602 		ld	a3,32(a2)
  54              	.LVL5:
  55              	.LBE14:
  56              	.LBE13:
  57              	.LBB15:
GAS LISTING /tmp/ccELXfBD.s 			page 3


  58              	.LBB16:
  59              		.loc 2 36 30 is_stmt 1
  60              		.loc 2 36 37 is_stmt 0
  61 0034 03B70702 		ld	a4,32(a5)
  62              	.LVL6:
  63              	.LBE16:
  64              	.LBE15:
  65              		.loc 1 19 9
  66 0038 63E8E600 		bltu	a3,a4,.L8
  20:src/SleepPCBList.cpp ****         {
  21:src/SleepPCBList.cpp ****             PCB::running->nextPCB = curr;
  22:src/SleepPCBList.cpp ****             break;
  23:src/SleepPCBList.cpp ****         }
  24:src/SleepPCBList.cpp ****         prev = curr;
  67              		.loc 1 24 9 is_stmt 1
  68              	.LVL7:
  25:src/SleepPCBList.cpp ****         curr=curr->nextPCB;
  69              		.loc 1 25 9
  24:src/SleepPCBList.cpp ****         curr=curr->nextPCB;
  70              		.loc 1 24 14 is_stmt 0
  71 003c 93850700 		mv	a1,a5
  72              		.loc 1 25 13
  73 0040 83B78700 		ld	a5,8(a5)
  74              	.LVL8:
  17:src/SleepPCBList.cpp ****     {
  75              		.loc 1 17 5
  76 0044 6FF09FFE 		j	.L4
  77              	.L8:
  21:src/SleepPCBList.cpp ****             break;
  78              		.loc 1 21 13 is_stmt 1
  21:src/SleepPCBList.cpp ****             break;
  79              		.loc 1 21 35 is_stmt 0
  80 0048 2334F600 		sd	a5,8(a2)
  22:src/SleepPCBList.cpp ****         }
  81              		.loc 1 22 13 is_stmt 1
  82              	.L2:
  26:src/SleepPCBList.cpp ****     }
  27:src/SleepPCBList.cpp **** 
  28:src/SleepPCBList.cpp ****     if(prev == 0)
  83              		.loc 1 28 5
  84 004c 638A0500 		beqz	a1,.L9
  29:src/SleepPCBList.cpp ****         sleepingPCBHead = PCB::running;
  30:src/SleepPCBList.cpp ****     else
  31:src/SleepPCBList.cpp ****         prev->nextPCB = PCB::running;
  85              		.loc 1 31 9
  86              		.loc 1 31 23 is_stmt 0
  87 0050 23B4C500 		sd	a2,8(a1)
  88              	.LVL9:
  89              	.L1:
  32:src/SleepPCBList.cpp **** }
  90              		.loc 1 32 1
  91 0054 03348100 		ld	s0,8(sp)
  92              		.cfi_remember_state
  93              		.cfi_restore 8
  94              		.cfi_def_cfa 2, 16
  95 0058 13010101 		addi	sp,sp,16
  96              		.cfi_def_cfa_offset 0
GAS LISTING /tmp/ccELXfBD.s 			page 4


  97 005c 67800000 		jr	ra
  98              	.LVL10:
  99              	.L9:
 100              		.cfi_restore_state
  29:src/SleepPCBList.cpp ****         sleepingPCBHead = PCB::running;
 101              		.loc 1 29 9 is_stmt 1
  29:src/SleepPCBList.cpp ****         sleepingPCBHead = PCB::running;
 102              		.loc 1 29 25 is_stmt 0
 103 0060 97070000 		sd	a2,.LANCHOR0,a5
 103      23B0C700 
 104              	.LVL11:
 105 0068 6FF0DFFE 		j	.L1
 106              		.cfi_endproc
 107              	.LFE25:
 109              		.align	2
 110              		.globl	_ZN12SleepPCBList13tryToWakePCBsEv
 112              	_ZN12SleepPCBList13tryToWakePCBsEv:
 113              	.LFB26:
  33:src/SleepPCBList.cpp **** 
  34:src/SleepPCBList.cpp **** void SleepPCBList::tryToWakePCBs()
  35:src/SleepPCBList.cpp **** {
 114              		.loc 1 35 1 is_stmt 1
 115              		.cfi_startproc
  36:src/SleepPCBList.cpp ****     //trapPrintString("Waking PCBs...\n");
  37:src/SleepPCBList.cpp ****     PCB* curr = sleepingPCBHead;
 116              		.loc 1 37 5
 117              		.loc 1 37 10 is_stmt 0
 118 006c 17050000 		ld	a0,.LANCHOR0
 118      03350500 
 119              	.LVL12:
  38:src/SleepPCBList.cpp ****     if(curr == 0)
 120              		.loc 1 38 5 is_stmt 1
 121 0074 630E0506 		beqz	a0,.L14
  39:src/SleepPCBList.cpp ****     {
  40:src/SleepPCBList.cpp ****         //trapPrintString("No sleeping PCBs...\n");
  41:src/SleepPCBList.cpp ****         return;
  42:src/SleepPCBList.cpp ****     }
  43:src/SleepPCBList.cpp ****     while(curr != 0 && Riscv::totalTime >= curr->getTimeToSleep())
 122              		.loc 1 43 5
 123              		.loc 1 43 21
 124 0078 630C0506 		beqz	a0,.L14
 125              	.LVL13:
 126              	.LBB17:
 127              	.LBB18:
 128              		.loc 2 36 30
 129              		.loc 2 36 37 is_stmt 0
 130 007c 83370502 		ld	a5,32(a0)
 131              	.LVL14:
 132              	.LBE18:
 133              	.LBE17:
 134              		.loc 1 43 41
 135 0080 17070000 		la	a4,_ZN5Riscv9totalTimeE
 135      03370700 
 136 0088 03370700 		ld	a4,0(a4)
 137              		.loc 1 43 21
 138 008c 6362F706 		bltu	a4,a5,.L14
  35:src/SleepPCBList.cpp ****     //trapPrintString("Waking PCBs...\n");
GAS LISTING /tmp/ccELXfBD.s 			page 5


 139              		.loc 1 35 1
 140 0090 130101FE 		addi	sp,sp,-32
 141              		.cfi_def_cfa_offset 32
 142 0094 233C1100 		sd	ra,24(sp)
 143 0098 23388100 		sd	s0,16(sp)
 144 009c 23349100 		sd	s1,8(sp)
 145              		.cfi_offset 1, -8
 146              		.cfi_offset 8, -16
 147              		.cfi_offset 9, -24
 148 00a0 13040102 		addi	s0,sp,32
 149              		.cfi_def_cfa 8, 0
 150 00a4 6F008001 		j	.L17
 151              	.LVL15:
 152              	.L19:
 153              	.LBB20:
 154              	.LBB19:
 155              		.loc 2 36 30 is_stmt 1
 156              		.loc 2 36 37 is_stmt 0
 157 00a8 83B70402 		ld	a5,32(s1)
 158              	.LVL16:
 159              	.LBE19:
 160              	.LBE20:
 161              		.loc 1 43 41
 162 00ac 17070000 		la	a4,_ZN5Riscv9totalTimeE
 162      03370700 
 163 00b4 03370700 		ld	a4,0(a4)
 164              		.loc 1 43 21
 165 00b8 6362F702 		bltu	a4,a5,.L10
 166              	.LVL17:
 167              	.L17:
 168              	.LBB21:
  44:src/SleepPCBList.cpp ****     {
  45:src/SleepPCBList.cpp ****         PCB *old = curr;
 169              		.loc 1 45 9 is_stmt 1
  46:src/SleepPCBList.cpp ****         curr = curr->nextPCB;
 170              		.loc 1 46 9
 171              		.loc 1 46 14 is_stmt 0
 172 00bc 83348500 		ld	s1,8(a0)
 173              	.LVL18:
  47:src/SleepPCBList.cpp ****         old->nextPCB = 0;
 174              		.loc 1 47 9 is_stmt 1
 175              		.loc 1 47 22 is_stmt 0
 176 00c0 23340500 		sd	zero,8(a0)
  48:src/SleepPCBList.cpp ****         Scheduler::put(old);
 177              		.loc 1 48 9 is_stmt 1
 178              		.loc 1 48 23 is_stmt 0
 179 00c4 97000000 		call	_ZN9Scheduler3putEP3PCB@plt
 179      E7800000 
 180              	.LVL19:
  49:src/SleepPCBList.cpp ****         sleepingPCBHead = curr;
 181              		.loc 1 49 9 is_stmt 1
 182              		.loc 1 49 25 is_stmt 0
 183 00cc 97070000 		sd	s1,.LANCHOR0,a5
 183      23B09700 
  46:src/SleepPCBList.cpp ****         old->nextPCB = 0;
 184              		.loc 1 46 14
 185 00d4 13850400 		mv	a0,s1
GAS LISTING /tmp/ccELXfBD.s 			page 6


 186              	.LBE21:
  43:src/SleepPCBList.cpp ****     {
 187              		.loc 1 43 5 is_stmt 1
  43:src/SleepPCBList.cpp ****     {
 188              		.loc 1 43 21
 189 00d8 E39804FC 		bnez	s1,.L19
 190              	.L10:
  50:src/SleepPCBList.cpp ****     }
  51:src/SleepPCBList.cpp **** }
 191              		.loc 1 51 1 is_stmt 0
 192 00dc 83308101 		ld	ra,24(sp)
 193              		.cfi_restore 1
 194 00e0 03340101 		ld	s0,16(sp)
 195              		.cfi_restore 8
 196              		.cfi_def_cfa 2, 32
 197 00e4 83348100 		ld	s1,8(sp)
 198              		.cfi_restore 9
 199              	.LVL20:
 200 00e8 13010102 		addi	sp,sp,32
 201              		.cfi_def_cfa_offset 0
 202 00ec 67800000 		jr	ra
 203              	.L14:
 204 00f0 67800000 		ret
 205              		.cfi_endproc
 206              	.LFE26:
 208              		.globl	_ZN12SleepPCBList15sleepingPCBHeadE
 209              		.bss
 210              		.align	3
 211              		.set	.LANCHOR0,. + 0
 214              	_ZN12SleepPCBList15sleepingPCBHeadE:
 215 0000 00000000 		.zero	8
 215      00000000 
 216              		.text
 217              	.Letext0:
 218              		.file 3 "src/../h/../lib/hw.h"
 219              		.file 4 "src/../h/SleepPCBList.hpp"
 220              		.file 5 "src/../h/Scheduler.hpp"
GAS LISTING /tmp/ccELXfBD.s 			page 7


DEFINED SYMBOLS
                            *ABS*:0000000000000000 SleepPCBList.cpp
     /tmp/ccELXfBD.s:9      .text:0000000000000000 _ZN12SleepPCBList17insertSleepingPCBEv
     /tmp/ccELXfBD.s:13     .text:0000000000000000 .L0 
     /tmp/ccELXfBD.s:14     .text:0000000000000000 .L0 
     /tmp/ccELXfBD.s:15     .text:0000000000000004 .L0 
     /tmp/ccELXfBD.s:17     .text:0000000000000008 .L0 
     /tmp/ccELXfBD.s:19     .text:000000000000000c .L0 
     /tmp/ccELXfBD.s:21     .text:000000000000000c .L0 
     /tmp/ccELXfBD.s:22     .text:000000000000000c .L0 
     /tmp/ccELXfBD.s:29     .text:0000000000000018 .L0 
     /tmp/ccELXfBD.s:30     .text:0000000000000018 .L0 
     /tmp/ccELXfBD.s:36     .text:0000000000000020 .L0 
     /tmp/ccELXfBD.s:37     .text:0000000000000020 .L0 
     /tmp/ccELXfBD.s:38     .text:0000000000000020 .L0 
     /tmp/ccELXfBD.s:41     .text:0000000000000028 .L0 
     /tmp/ccELXfBD.s:45     .text:000000000000002c .L0 
     /tmp/ccELXfBD.s:46     .text:000000000000002c .L0 
     /tmp/ccELXfBD.s:51     .text:0000000000000030 .L0 
     /tmp/ccELXfBD.s:52     .text:0000000000000030 .L0 
     /tmp/ccELXfBD.s:53     .text:0000000000000030 .L0 
     /tmp/ccELXfBD.s:60     .text:0000000000000034 .L0 
     /tmp/ccELXfBD.s:61     .text:0000000000000034 .L0 
     /tmp/ccELXfBD.s:66     .text:0000000000000038 .L0 
     /tmp/ccELXfBD.s:69     .text:000000000000003c .L0 
     /tmp/ccELXfBD.s:70     .text:000000000000003c .L0 
     /tmp/ccELXfBD.s:71     .text:000000000000003c .L0 
     /tmp/ccELXfBD.s:73     .text:0000000000000040 .L0 
     /tmp/ccELXfBD.s:76     .text:0000000000000044 .L0 
     /tmp/ccELXfBD.s:79     .text:0000000000000048 .L0 
     /tmp/ccELXfBD.s:80     .text:0000000000000048 .L0 
     /tmp/ccELXfBD.s:83     .text:000000000000004c .L0 
     /tmp/ccELXfBD.s:84     .text:000000000000004c .L0 
     /tmp/ccELXfBD.s:86     .text:0000000000000050 .L0 
     /tmp/ccELXfBD.s:87     .text:0000000000000050 .L0 
     /tmp/ccELXfBD.s:91     .text:0000000000000054 .L0 
     /tmp/ccELXfBD.s:92     .text:0000000000000058 .L0 
     /tmp/ccELXfBD.s:93     .text:0000000000000058 .L0 
     /tmp/ccELXfBD.s:94     .text:0000000000000058 .L0 
     /tmp/ccELXfBD.s:96     .text:000000000000005c .L0 
     /tmp/ccELXfBD.s:100    .text:0000000000000060 .L0 
     /tmp/ccELXfBD.s:102    .text:0000000000000060 .L0 
     /tmp/ccELXfBD.s:103    .text:0000000000000060 .L0 
     /tmp/ccELXfBD.s:106    .text:000000000000006c .L0 
     /tmp/ccELXfBD.s:112    .text:000000000000006c _ZN12SleepPCBList13tryToWakePCBsEv
     /tmp/ccELXfBD.s:115    .text:000000000000006c .L0 
     /tmp/ccELXfBD.s:116    .text:000000000000006c .L0 
     /tmp/ccELXfBD.s:117    .text:000000000000006c .L0 
     /tmp/ccELXfBD.s:118    .text:000000000000006c .L0 
     /tmp/ccELXfBD.s:121    .text:0000000000000074 .L0 
     /tmp/ccELXfBD.s:123    .text:0000000000000078 .L0 
     /tmp/ccELXfBD.s:124    .text:0000000000000078 .L0 
     /tmp/ccELXfBD.s:129    .text:000000000000007c .L0 
     /tmp/ccELXfBD.s:130    .text:000000000000007c .L0 
     /tmp/ccELXfBD.s:135    .text:0000000000000080 .L0 
     /tmp/ccELXfBD.s:138    .text:000000000000008c .L0 
     /tmp/ccELXfBD.s:140    .text:0000000000000090 .L0 
GAS LISTING /tmp/ccELXfBD.s 			page 8


     /tmp/ccELXfBD.s:141    .text:0000000000000094 .L0 
     /tmp/ccELXfBD.s:145    .text:00000000000000a0 .L0 
     /tmp/ccELXfBD.s:146    .text:00000000000000a0 .L0 
     /tmp/ccELXfBD.s:147    .text:00000000000000a0 .L0 
     /tmp/ccELXfBD.s:149    .text:00000000000000a4 .L0 
     /tmp/ccELXfBD.s:156    .text:00000000000000a8 .L0 
     /tmp/ccELXfBD.s:157    .text:00000000000000a8 .L0 
     /tmp/ccELXfBD.s:162    .text:00000000000000ac .L0 
     /tmp/ccELXfBD.s:165    .text:00000000000000b8 .L0 
     /tmp/ccELXfBD.s:170    .text:00000000000000bc .L0 
     /tmp/ccELXfBD.s:171    .text:00000000000000bc .L0 
     /tmp/ccELXfBD.s:172    .text:00000000000000bc .L0 
     /tmp/ccELXfBD.s:175    .text:00000000000000c0 .L0 
     /tmp/ccELXfBD.s:176    .text:00000000000000c0 .L0 
     /tmp/ccELXfBD.s:178    .text:00000000000000c4 .L0 
     /tmp/ccELXfBD.s:179    .text:00000000000000c4 .L0 
     /tmp/ccELXfBD.s:182    .text:00000000000000cc .L0 
     /tmp/ccELXfBD.s:183    .text:00000000000000cc .L0 
     /tmp/ccELXfBD.s:185    .text:00000000000000d4 .L0 
     /tmp/ccELXfBD.s:188    .text:00000000000000d8 .L0 
     /tmp/ccELXfBD.s:189    .text:00000000000000d8 .L0 
     /tmp/ccELXfBD.s:192    .text:00000000000000dc .L0 
     /tmp/ccELXfBD.s:193    .text:00000000000000e0 .L0 
     /tmp/ccELXfBD.s:195    .text:00000000000000e4 .L0 
     /tmp/ccELXfBD.s:196    .text:00000000000000e4 .L0 
     /tmp/ccELXfBD.s:198    .text:00000000000000e8 .L0 
     /tmp/ccELXfBD.s:201    .text:00000000000000ec .L0 
     /tmp/ccELXfBD.s:205    .text:00000000000000f4 .L0 
     /tmp/ccELXfBD.s:214    .bss:0000000000000000 _ZN12SleepPCBList15sleepingPCBHeadE
     /tmp/ccELXfBD.s:211    .bss:0000000000000000 .LANCHOR0
     /tmp/ccELXfBD.s:221    .text:00000000000000f4 .L0 
     /tmp/ccELXfBD.s:22     .text:000000000000000c .L0 
     /tmp/ccELXfBD.s:38     .text:0000000000000020 .L0 
     /tmp/ccELXfBD.s:103    .text:0000000000000060 .L0 
     /tmp/ccELXfBD.s:118    .text:000000000000006c .L0 
     /tmp/ccELXfBD.s:135    .text:0000000000000080 .L0 
     /tmp/ccELXfBD.s:162    .text:00000000000000ac .L0 
     /tmp/ccELXfBD.s:183    .text:00000000000000cc .L0 
     /tmp/ccELXfBD.s:82     .text:000000000000004c .L2
     /tmp/ccELXfBD.s:77     .text:0000000000000048 .L8
     /tmp/ccELXfBD.s:43     .text:000000000000002c .L4
     /tmp/ccELXfBD.s:99     .text:0000000000000060 .L9
     /tmp/ccELXfBD.s:89     .text:0000000000000054 .L1
     /tmp/ccELXfBD.s:203    .text:00000000000000f0 .L14
     /tmp/ccELXfBD.s:167    .text:00000000000000bc .L17
     /tmp/ccELXfBD.s:190    .text:00000000000000dc .L10
     /tmp/ccELXfBD.s:152    .text:00000000000000a8 .L19
     /tmp/ccELXfBD.s:1056   .debug_abbrev:0000000000000000 .Ldebug_abbrev0
     /tmp/ccELXfBD.s:2097   .debug_str:00000000000005e1 .LASF111
     /tmp/ccELXfBD.s:1965   .debug_str:00000000000001c9 .LASF112
     /tmp/ccELXfBD.s:2117   .debug_str:00000000000006fa .LASF113
     /tmp/ccELXfBD.s:5      .text:0000000000000000 .Ltext0
     /tmp/ccELXfBD.s:217    .text:00000000000000f4 .Letext0
     /tmp/ccELXfBD.s:1909   .debug_line:0000000000000000 .Ldebug_line0
     /tmp/ccELXfBD.s:1997   .debug_str:00000000000002c0 .LASF0
     /tmp/ccELXfBD.s:2013   .debug_str:0000000000000330 .LASF1
     /tmp/ccELXfBD.s:2065   .debug_str:00000000000004e7 .LASF2
GAS LISTING /tmp/ccELXfBD.s 			page 9


     /tmp/ccELXfBD.s:2073   .debug_str:0000000000000516 .LASF4
     /tmp/ccELXfBD.s:2005   .debug_str:00000000000002f9 .LASF3
     /tmp/ccELXfBD.s:1917   .debug_str:000000000000002f .LASF5
     /tmp/ccELXfBD.s:2055   .debug_str:0000000000000492 .LASF6
     /tmp/ccELXfBD.s:2051   .debug_str:0000000000000477 .LASF7
     /tmp/ccELXfBD.s:2009   .debug_str:0000000000000318 .LASF8
     /tmp/ccELXfBD.s:1989   .debug_str:000000000000028f .LASF9
     /tmp/ccELXfBD.s:1993   .debug_str:00000000000002ac .LASF10
     /tmp/ccELXfBD.s:1947   .debug_str:0000000000000149 .LASF11
     /tmp/ccELXfBD.s:1983   .debug_str:0000000000000266 .LASF12
     /tmp/ccELXfBD.s:1953   .debug_str:000000000000016b .LASF13
     /tmp/ccELXfBD.s:1945   .debug_str:0000000000000139 .LASF14
     /tmp/ccELXfBD.s:2099   .debug_str:00000000000006a5 .LASF15
     /tmp/ccELXfBD.s:1975   .debug_str:0000000000000208 .LASF16
     /tmp/ccELXfBD.s:2091   .debug_str:000000000000058f .LASF17
     /tmp/ccELXfBD.s:2107   .debug_str:00000000000006ca .LASF114
     /tmp/ccELXfBD.s:2105   .debug_str:00000000000006c4 .LASF18
     /tmp/ccELXfBD.s:2085   .debug_str:000000000000056e .LASF19
     /tmp/ccELXfBD.s:1951   .debug_str:0000000000000161 .LASF20
     /tmp/ccELXfBD.s:1935   .debug_str:00000000000000df .LASF21
     /tmp/ccELXfBD.s:2053   .debug_str:000000000000048a .LASF22
     /tmp/ccELXfBD.s:1949   .debug_str:0000000000000158 .LASF23
     /tmp/ccELXfBD.s:2101   .debug_str:00000000000006b1 .LASF90
     /tmp/ccELXfBD.s:1995   .debug_str:00000000000002ba .LASF24
     /tmp/ccELXfBD.s:1919   .debug_str:0000000000000036 .LASF30
     /tmp/ccELXfBD.s:2121   .debug_str:0000000000000725 .LASF115
     /tmp/ccELXfBD.s:2041   .debug_str:0000000000000429 .LASF25
     /tmp/ccELXfBD.s:2011   .debug_str:000000000000032b .LASF26
     /tmp/ccELXfBD.s:2143   .debug_str:00000000000007c9 .LASF28
     /tmp/ccELXfBD.s:2137   .debug_str:0000000000000799 .LASF27
     /tmp/ccELXfBD.s:2113   .debug_str:00000000000006e0 .LASF29
     /tmp/ccELXfBD.s:1967   .debug_str:00000000000001de .LASF56
     /tmp/ccELXfBD.s:1925   .debug_str:000000000000007c .LASF58
     /tmp/ccELXfBD.s:2015   .debug_str:0000000000000343 .LASF35
     /tmp/ccELXfBD.s:2045   .debug_str:0000000000000441 .LASF37
     /tmp/ccELXfBD.s:2109   .debug_str:00000000000006d0 .LASF31
     /tmp/ccELXfBD.s:2077   .debug_str:0000000000000525 .LASF32
     /tmp/ccELXfBD.s:2017   .debug_str:0000000000000349 .LASF39
     /tmp/ccELXfBD.s:2019   .debug_str:0000000000000356 .LASF41
     /tmp/ccELXfBD.s:2145   .debug_str:00000000000007d5 .LASF33
     /tmp/ccELXfBD.s:1977   .debug_str:000000000000021e .LASF34
     /tmp/ccELXfBD.s:1915   .debug_str:000000000000001f .LASF36
     /tmp/ccELXfBD.s:2003   .debug_str:00000000000002ec .LASF38
     /tmp/ccELXfBD.s:2081   .debug_str:0000000000000547 .LASF40
     /tmp/ccELXfBD.s:2031   .debug_str:00000000000003b1 .LASF42
     /tmp/ccELXfBD.s:2071   .debug_str:000000000000050d .LASF43
     /tmp/ccELXfBD.s:2095   .debug_str:00000000000005c5 .LASF44
     /tmp/ccELXfBD.s:2033   .debug_str:00000000000003c4 .LASF45
     /tmp/ccELXfBD.s:1911   .debug_str:0000000000000000 .LASF46
     /tmp/ccELXfBD.s:2131   .debug_str:0000000000000771 .LASF47
     /tmp/ccELXfBD.s:2049   .debug_str:000000000000045d .LASF48
     /tmp/ccELXfBD.s:2089   .debug_str:0000000000000581 .LASF49
     /tmp/ccELXfBD.s:2057   .debug_str:0000000000000499 .LASF50
     /tmp/ccELXfBD.s:1963   .debug_str:00000000000001b9 .LASF51
     /tmp/ccELXfBD.s:1985   .debug_str:0000000000000275 .LASF52
     /tmp/ccELXfBD.s:2061   .debug_str:00000000000004c2 .LASF53
     /tmp/ccELXfBD.s:2133   .debug_str:0000000000000780 .LASF54
GAS LISTING /tmp/ccELXfBD.s 			page 10


     /tmp/ccELXfBD.s:2007   .debug_str:000000000000030b .LASF55
     /tmp/ccELXfBD.s:2087   .debug_str:0000000000000576 .LASF57
     /tmp/ccELXfBD.s:2141   .debug_str:00000000000007b3 .LASF59
     /tmp/ccELXfBD.s:2103   .debug_str:00000000000006b9 .LASF60
     /tmp/ccELXfBD.s:1959   .debug_str:000000000000019e .LASF61
     /tmp/ccELXfBD.s:2075   .debug_str:000000000000051d .LASF62
     /tmp/ccELXfBD.s:1999   .debug_str:00000000000002cd .LASF63
     /tmp/ccELXfBD.s:2037   .debug_str:00000000000003e9 .LASF64
     /tmp/ccELXfBD.s:1957   .debug_str:000000000000018c .LASF65
     /tmp/ccELXfBD.s:2059   .debug_str:00000000000004a5 .LASF66
     /tmp/ccELXfBD.s:2149   .debug_str:0000000000000806 .LASF67
     /tmp/ccELXfBD.s:2039   .debug_str:0000000000000408 .LASF68
     /tmp/ccELXfBD.s:2069   .debug_str:00000000000004fa .LASF69
     /tmp/ccELXfBD.s:2083   .debug_str:0000000000000550 .LASF70
     /tmp/ccELXfBD.s:2127   .debug_str:0000000000000757 .LASF71
     /tmp/ccELXfBD.s:2025   .debug_str:000000000000037b .LASF72
     /tmp/ccELXfBD.s:2123   .debug_str:000000000000073d .LASF73
     /tmp/ccELXfBD.s:2093   .debug_str:00000000000005a5 .LASF74
     /tmp/ccELXfBD.s:1971   .debug_str:00000000000001ed .LASF75
     /tmp/ccELXfBD.s:2001   .debug_str:00000000000002e1 .LASF76
     /tmp/ccELXfBD.s:2027   .debug_str:0000000000000399 .LASF77
     /tmp/ccELXfBD.s:2115   .debug_str:00000000000006f0 .LASF78
     /tmp/ccELXfBD.s:2047   .debug_str:0000000000000451 .LASF79
     /tmp/ccELXfBD.s:2135   .debug_str:000000000000078b .LASF80
     /tmp/ccELXfBD.s:1929   .debug_str:0000000000000094 .LASF81
     /tmp/ccELXfBD.s:1979   .debug_str:000000000000022a .LASF82
     /tmp/ccELXfBD.s:1943   .debug_str:000000000000010d .LASF83
     /tmp/ccELXfBD.s:2129   .debug_str:000000000000076a .LASF84
     /tmp/ccELXfBD.s:1941   .debug_str:00000000000000fc .LASF85
     /tmp/ccELXfBD.s:1913   .debug_str:000000000000001a .LASF86
     /tmp/ccELXfBD.s:2125   .debug_str:0000000000000752 .LASF87
     /tmp/ccELXfBD.s:2021   .debug_str:000000000000036e .LASF88
     /tmp/ccELXfBD.s:1969   .debug_str:00000000000001e7 .LASF89
     /tmp/ccELXfBD.s:2119   .debug_str:000000000000071d .LASF91
     /tmp/ccELXfBD.s:1931   .debug_str:00000000000000bc .LASF92
     /tmp/ccELXfBD.s:2023   .debug_str:0000000000000376 .LASF93
     /tmp/ccELXfBD.s:1991   .debug_str:000000000000029f .LASF94
     /tmp/ccELXfBD.s:2029   .debug_str:00000000000003a1 .LASF95
     /tmp/ccELXfBD.s:1973   .debug_str:00000000000001f6 .LASF96
     /tmp/ccELXfBD.s:1981   .debug_str:000000000000023f .LASF97
     /tmp/ccELXfBD.s:1937   .debug_str:00000000000000e8 .LASF98
     /tmp/ccELXfBD.s:1923   .debug_str:0000000000000059 .LASF99
     /tmp/ccELXfBD.s:1987   .debug_str:0000000000000285 .LASF100
     /tmp/ccELXfBD.s:1921   .debug_str:0000000000000041 .LASF116
     /tmp/ccELXfBD.s:2139   .debug_str:000000000000079f .LASF117
     /tmp/ccELXfBD.s:1933   .debug_str:00000000000000cd .LASF101
     /tmp/ccELXfBD.s:2043   .debug_str:000000000000042e .LASF102
     /tmp/ccELXfBD.s:2111   .debug_str:00000000000006d8 .LASF103
     /tmp/ccELXfBD.s:2063   .debug_str:00000000000004cf .LASF118
     /tmp/ccELXfBD.s:1939   .debug_str:00000000000000f6 .LASF104
     /tmp/ccELXfBD.s:2035   .debug_str:00000000000003d3 .LASF105
     /tmp/ccELXfBD.s:2079   .debug_str:0000000000000536 .LASF106
     /tmp/ccELXfBD.s:1955   .debug_str:000000000000017b .LASF107
     /tmp/ccELXfBD.s:2147   .debug_str:00000000000007e2 .LASF119
     /tmp/ccELXfBD.s:113    .text:000000000000006c .LFB26
     /tmp/ccELXfBD.s:206    .text:00000000000000f4 .LFE26
     /tmp/ccELXfBD.s:2067   .debug_str:00000000000004f5 .LASF108
GAS LISTING /tmp/ccELXfBD.s 			page 11


     /tmp/ccELXfBD.s:1778   .debug_loc:0000000000000000 .LLST6
     /tmp/ccELXfBD.s:168    .text:00000000000000bc .LBB21
     /tmp/ccELXfBD.s:186    .text:00000000000000d8 .LBE21
     /tmp/ccELXfBD.s:1801   .debug_loc:000000000000006f .LLST8
     /tmp/ccELXfBD.s:180    .text:00000000000000cc .LVL19
     /tmp/ccELXfBD.s:126    .text:000000000000007c .LBB17
     /tmp/ccELXfBD.s:1901   .debug_ranges:0000000000000000 .Ldebug_ranges0
     /tmp/ccELXfBD.s:1808   .debug_loc:0000000000000092 .LLST7
     /tmp/ccELXfBD.s:10     .text:0000000000000000 .LFB25
     /tmp/ccELXfBD.s:107    .text:000000000000006c .LFE25
     /tmp/ccELXfBD.s:1927   .debug_str:000000000000008f .LASF109
     /tmp/ccELXfBD.s:1819   .debug_loc:00000000000000c8 .LLST0
     /tmp/ccELXfBD.s:1839   .debug_loc:0000000000000125 .LLST1
     /tmp/ccELXfBD.s:25     .text:0000000000000018 .LBB11
     /tmp/ccELXfBD.s:34     .text:0000000000000020 .LBE11
     /tmp/ccELXfBD.s:1859   .debug_loc:0000000000000182 .LLST2
     /tmp/ccELXfBD.s:1867   .debug_loc:00000000000001a6 .LLST3
     /tmp/ccELXfBD.s:49     .text:0000000000000030 .LBB13
     /tmp/ccELXfBD.s:56     .text:0000000000000034 .LBE13
     /tmp/ccELXfBD.s:1874   .debug_loc:00000000000001c9 .LLST4
     /tmp/ccELXfBD.s:57     .text:0000000000000034 .LBB15
     /tmp/ccELXfBD.s:64     .text:0000000000000038 .LBE15
     /tmp/ccELXfBD.s:1881   .debug_loc:00000000000001ec .LLST5
     /tmp/ccELXfBD.s:1961   .debug_str:00000000000001b4 .LASF110
     /tmp/ccELXfBD.s:119    .text:0000000000000074 .LVL12
     /tmp/ccELXfBD.s:151    .text:00000000000000a8 .LVL15
     /tmp/ccELXfBD.s:166    .text:00000000000000bc .LVL17
     /tmp/ccELXfBD.s:173    .text:00000000000000c0 .LVL18
     /tmp/ccELXfBD.s:199    .text:00000000000000e8 .LVL20
     /tmp/ccELXfBD.s:125    .text:000000000000007c .LVL13
     /tmp/ccELXfBD.s:131    .text:0000000000000080 .LVL14
     /tmp/ccELXfBD.s:158    .text:00000000000000ac .LVL16
     /tmp/ccELXfBD.s:32     .text:0000000000000020 .LVL1
     /tmp/ccELXfBD.s:42     .text:000000000000002c .LVL3
     /tmp/ccELXfBD.s:68     .text:000000000000003c .LVL7
     /tmp/ccELXfBD.s:74     .text:0000000000000044 .LVL8
     /tmp/ccELXfBD.s:39     .text:0000000000000028 .LVL2
     /tmp/ccELXfBD.s:88     .text:0000000000000054 .LVL9
     /tmp/ccELXfBD.s:98     .text:0000000000000060 .LVL10
     /tmp/ccELXfBD.s:104    .text:0000000000000068 .LVL11
     /tmp/ccELXfBD.s:24     .text:0000000000000018 .LVL0
     /tmp/ccELXfBD.s:48     .text:0000000000000030 .LVL4
     /tmp/ccELXfBD.s:54     .text:0000000000000034 .LVL5
     /tmp/ccELXfBD.s:62     .text:0000000000000038 .LVL6
     /tmp/ccELXfBD.s:222    .debug_info:0000000000000000 .Ldebug_info0
     /tmp/ccELXfBD.s:133    .text:0000000000000080 .LBE17
     /tmp/ccELXfBD.s:153    .text:00000000000000a8 .LBB20
     /tmp/ccELXfBD.s:160    .text:00000000000000ac .LBE20

UNDEFINED SYMBOLS
_ZN3PCB7runningE
_ZN5Riscv9totalTimeE
_ZN9Scheduler3putEP3PCB
