GAS LISTING /tmp/cclNG34r.s 			page 1


   1              		.file	"syscall_cpp.cpp"
   2              		.option pic
   3              		.option norelax
   4              		.text
   5              	.Ltext0:
   6              		.align	2
   7              		.globl	_Znwm
   9              	_Znwm:
  10              	.LFB0:
  11              		.file 1 "src/syscall_cpp.cpp"
   1:src/syscall_cpp.cpp **** //
   2:src/syscall_cpp.cpp **** // Created by os on 4/8/22.
   3:src/syscall_cpp.cpp **** //
   4:src/syscall_cpp.cpp **** 
   5:src/syscall_cpp.cpp **** #include "../h/syscall_cpp.h"
   6:src/syscall_cpp.cpp **** #include "../h/syscall_c.h"
   7:src/syscall_cpp.cpp **** 
   8:src/syscall_cpp.cpp **** //general
   9:src/syscall_cpp.cpp **** void * operator new(size_t size)
  10:src/syscall_cpp.cpp **** {
  12              		.loc 1 10 1
  13              		.cfi_startproc
  14              	.LVL0:
  15 0000 130101FF 		addi	sp,sp,-16
  16              		.cfi_def_cfa_offset 16
  17 0004 23341100 		sd	ra,8(sp)
  18 0008 23308100 		sd	s0,0(sp)
  19              		.cfi_offset 1, -8
  20              		.cfi_offset 8, -16
  21 000c 13040101 		addi	s0,sp,16
  22              		.cfi_def_cfa 8, 0
  11:src/syscall_cpp.cpp ****     return mem_alloc(size);
  23              		.loc 1 11 5
  24              		.loc 1 11 21 is_stmt 0
  25 0010 97000000 		call	mem_alloc@plt
  25      E7800000 
  26              	.LVL1:
  12:src/syscall_cpp.cpp **** }
  27              		.loc 1 12 1
  28 0018 83308100 		ld	ra,8(sp)
  29              		.cfi_restore 1
  30 001c 03340100 		ld	s0,0(sp)
  31              		.cfi_restore 8
  32              		.cfi_def_cfa 2, 16
  33 0020 13010101 		addi	sp,sp,16
  34              		.cfi_def_cfa_offset 0
  35 0024 67800000 		jr	ra
  36              		.cfi_endproc
  37              	.LFE0:
  39              		.align	2
  40              		.globl	_ZdlPv
  42              	_ZdlPv:
  43              	.LFB1:
  13:src/syscall_cpp.cpp **** 
  14:src/syscall_cpp.cpp **** void operator delete(void * p)
  15:src/syscall_cpp.cpp **** {
  44              		.loc 1 15 1 is_stmt 1
GAS LISTING /tmp/cclNG34r.s 			page 2


  45              		.cfi_startproc
  46              	.LVL2:
  47 0028 130101FF 		addi	sp,sp,-16
  48              		.cfi_def_cfa_offset 16
  49 002c 23341100 		sd	ra,8(sp)
  50 0030 23308100 		sd	s0,0(sp)
  51              		.cfi_offset 1, -8
  52              		.cfi_offset 8, -16
  53 0034 13040101 		addi	s0,sp,16
  54              		.cfi_def_cfa 8, 0
  16:src/syscall_cpp.cpp ****    mem_free(p);
  55              		.loc 1 16 4
  56              		.loc 1 16 12 is_stmt 0
  57 0038 97000000 		call	mem_free@plt
  57      E7800000 
  58              	.LVL3:
  17:src/syscall_cpp.cpp **** }
  59              		.loc 1 17 1
  60 0040 83308100 		ld	ra,8(sp)
  61              		.cfi_restore 1
  62 0044 03340100 		ld	s0,0(sp)
  63              		.cfi_restore 8
  64              		.cfi_def_cfa 2, 16
  65 0048 13010101 		addi	sp,sp,16
  66              		.cfi_def_cfa_offset 0
  67 004c 67800000 		jr	ra
  68              		.cfi_endproc
  69              	.LFE1:
  71              		.align	2
  72              		.globl	_ZN15MemoryAllocatorC2Ev
  74              	_ZN15MemoryAllocatorC2Ev:
  75              	.LFB3:
  18:src/syscall_cpp.cpp **** 
  19:src/syscall_cpp.cpp **** //MemoryAllocator.h
  20:src/syscall_cpp.cpp **** 
  21:src/syscall_cpp.cpp **** MemoryAllocator* MemoryAllocator::memoryAllocator = 0;
  22:src/syscall_cpp.cpp **** 
  23:src/syscall_cpp.cpp **** MemoryAllocator::MemoryAllocator() {
  76              		.loc 1 23 1 is_stmt 1
  77              		.cfi_startproc
  78              	.LVL4:
  79 0050 130101FF 		addi	sp,sp,-16
  80              		.cfi_def_cfa_offset 16
  81 0054 23348100 		sd	s0,8(sp)
  82              		.cfi_offset 8, -8
  83 0058 13040101 		addi	s0,sp,16
  84              		.cfi_def_cfa 8, 0
  24:src/syscall_cpp.cpp **** 
  25:src/syscall_cpp.cpp **** }
  85              		.loc 1 25 1 is_stmt 0
  86 005c 03348100 		ld	s0,8(sp)
  87              		.cfi_restore 8
  88              		.cfi_def_cfa 2, 16
  89 0060 13010101 		addi	sp,sp,16
  90              		.cfi_def_cfa_offset 0
  91 0064 67800000 		jr	ra
  92              		.cfi_endproc
GAS LISTING /tmp/cclNG34r.s 			page 3


  93              	.LFE3:
  95              		.globl	_ZN15MemoryAllocatorC1Ev
  96              		.set	_ZN15MemoryAllocatorC1Ev,_ZN15MemoryAllocatorC2Ev
  97              		.align	2
  98              		.globl	_ZN15MemoryAllocator9mem_allocEm
 100              	_ZN15MemoryAllocator9mem_allocEm:
 101              	.LFB5:
  26:src/syscall_cpp.cpp **** 
  27:src/syscall_cpp.cpp **** void *MemoryAllocator::mem_alloc(size_t size) {
 102              		.loc 1 27 47 is_stmt 1
 103              		.cfi_startproc
 104              	.LVL5:
 105 0068 130101FF 		addi	sp,sp,-16
 106              		.cfi_def_cfa_offset 16
 107 006c 23341100 		sd	ra,8(sp)
 108 0070 23308100 		sd	s0,0(sp)
 109              		.cfi_offset 1, -8
 110              		.cfi_offset 8, -16
 111 0074 13040101 		addi	s0,sp,16
 112              		.cfi_def_cfa 8, 0
  28:src/syscall_cpp.cpp ****     //todo
  29:src/syscall_cpp.cpp ****     //sta ovde treba kao parametar
  30:src/syscall_cpp.cpp ****     //svuda pogledaj to
  31:src/syscall_cpp.cpp ****     return ::mem_alloc(sizeof(MemoryAllocator));
 113              		.loc 1 31 5
 114              		.loc 1 31 23 is_stmt 0
 115 0078 13051000 		li	a0,1
 116              	.LVL6:
 117 007c 97000000 		call	mem_alloc@plt
 117      E7800000 
 118              	.LVL7:
  32:src/syscall_cpp.cpp **** }
 119              		.loc 1 32 1
 120 0084 83308100 		ld	ra,8(sp)
 121              		.cfi_restore 1
 122 0088 03340100 		ld	s0,0(sp)
 123              		.cfi_restore 8
 124              		.cfi_def_cfa 2, 16
 125 008c 13010101 		addi	sp,sp,16
 126              		.cfi_def_cfa_offset 0
 127 0090 67800000 		jr	ra
 128              		.cfi_endproc
 129              	.LFE5:
 131              		.align	2
 132              		.globl	_ZN15MemoryAllocator8mem_freeEPv
 134              	_ZN15MemoryAllocator8mem_freeEPv:
 135              	.LFB6:
  33:src/syscall_cpp.cpp **** 
  34:src/syscall_cpp.cpp **** int MemoryAllocator::mem_free(void * addr) {
 136              		.loc 1 34 44 is_stmt 1
 137              		.cfi_startproc
 138              	.LVL8:
 139 0094 130101FF 		addi	sp,sp,-16
 140              		.cfi_def_cfa_offset 16
 141 0098 23341100 		sd	ra,8(sp)
 142 009c 23308100 		sd	s0,0(sp)
 143              		.cfi_offset 1, -8
GAS LISTING /tmp/cclNG34r.s 			page 4


 144              		.cfi_offset 8, -16
 145 00a0 13040101 		addi	s0,sp,16
 146              		.cfi_def_cfa 8, 0
  35:src/syscall_cpp.cpp ****     return ::mem_free(addr);
 147              		.loc 1 35 5
 148              		.loc 1 35 22 is_stmt 0
 149 00a4 13850500 		mv	a0,a1
 150              	.LVL9:
 151 00a8 97000000 		call	mem_free@plt
 151      E7800000 
 152              	.LVL10:
  36:src/syscall_cpp.cpp **** }
 153              		.loc 1 36 1
 154 00b0 83308100 		ld	ra,8(sp)
 155              		.cfi_restore 1
 156 00b4 03340100 		ld	s0,0(sp)
 157              		.cfi_restore 8
 158              		.cfi_def_cfa 2, 16
 159 00b8 13010101 		addi	sp,sp,16
 160              		.cfi_def_cfa_offset 0
 161 00bc 67800000 		jr	ra
 162              		.cfi_endproc
 163              	.LFE6:
 165              		.align	2
 166              		.globl	_ZN15MemoryAllocatorD2Ev
 168              	_ZN15MemoryAllocatorD2Ev:
 169              	.LFB9:
  37:src/syscall_cpp.cpp **** 
  38:src/syscall_cpp.cpp **** MemoryAllocator* MemoryAllocator::getMemoryAllocator() {
  39:src/syscall_cpp.cpp **** 
  40:src/syscall_cpp.cpp ****     if(memoryAllocator == 0) {
  41:src/syscall_cpp.cpp ****         //todo
  42:src/syscall_cpp.cpp ****         //preklopi new za memoryAllocator
  43:src/syscall_cpp.cpp ****         //proveri da li ovo radi
  44:src/syscall_cpp.cpp ****         memoryAllocator = new MemoryAllocator();
  45:src/syscall_cpp.cpp ****     }
  46:src/syscall_cpp.cpp ****     return memoryAllocator;
  47:src/syscall_cpp.cpp **** }
  48:src/syscall_cpp.cpp **** 
  49:src/syscall_cpp.cpp **** MemoryAllocator::~MemoryAllocator() {
 170              		.loc 1 49 1 is_stmt 1
 171              		.cfi_startproc
 172              	.LVL11:
 173 00c0 130101FF 		addi	sp,sp,-16
 174              		.cfi_def_cfa_offset 16
 175 00c4 23348100 		sd	s0,8(sp)
 176              		.cfi_offset 8, -8
 177 00c8 13040101 		addi	s0,sp,16
 178              		.cfi_def_cfa 8, 0
  50:src/syscall_cpp.cpp **** 
  51:src/syscall_cpp.cpp **** }
 179              		.loc 1 51 1 is_stmt 0
 180 00cc 03348100 		ld	s0,8(sp)
 181              		.cfi_restore 8
 182              		.cfi_def_cfa 2, 16
 183 00d0 13010101 		addi	sp,sp,16
 184              		.cfi_def_cfa_offset 0
GAS LISTING /tmp/cclNG34r.s 			page 5


 185 00d4 67800000 		jr	ra
 186              		.cfi_endproc
 187              	.LFE9:
 189              		.globl	_ZN15MemoryAllocatorD1Ev
 190              		.set	_ZN15MemoryAllocatorD1Ev,_ZN15MemoryAllocatorD2Ev
 191              		.align	2
 192              		.globl	_ZN15MemoryAllocatornwEm
 194              	_ZN15MemoryAllocatornwEm:
 195              	.LFB11:
  52:src/syscall_cpp.cpp **** 
  53:src/syscall_cpp.cpp **** void *MemoryAllocator::operator new(size_t size) {
 196              		.loc 1 53 50 is_stmt 1
 197              		.cfi_startproc
 198              	.LVL12:
 199 00d8 130101FF 		addi	sp,sp,-16
 200              		.cfi_def_cfa_offset 16
 201 00dc 23341100 		sd	ra,8(sp)
 202 00e0 23308100 		sd	s0,0(sp)
 203              		.cfi_offset 1, -8
 204              		.cfi_offset 8, -16
 205 00e4 13040101 		addi	s0,sp,16
 206              		.cfi_def_cfa 8, 0
  54:src/syscall_cpp.cpp ****     return ::operator new(size);
 207              		.loc 1 54 5
 208              		.loc 1 54 26 is_stmt 0
 209 00e8 97000000 		call	_Znwm
 209      E7800000 
 210              	.LVL13:
  55:src/syscall_cpp.cpp **** }
 211              		.loc 1 55 1
 212 00f0 83308100 		ld	ra,8(sp)
 213              		.cfi_restore 1
 214 00f4 03340100 		ld	s0,0(sp)
 215              		.cfi_restore 8
 216              		.cfi_def_cfa 2, 16
 217 00f8 13010101 		addi	sp,sp,16
 218              		.cfi_def_cfa_offset 0
 219 00fc 67800000 		jr	ra
 220              		.cfi_endproc
 221              	.LFE11:
 223              		.align	2
 224              		.globl	_ZN15MemoryAllocator18getMemoryAllocatorEv
 226              	_ZN15MemoryAllocator18getMemoryAllocatorEv:
 227              	.LFB7:
  38:src/syscall_cpp.cpp **** 
 228              		.loc 1 38 56 is_stmt 1
 229              		.cfi_startproc
  40:src/syscall_cpp.cpp ****         //todo
 230              		.loc 1 40 5
  40:src/syscall_cpp.cpp ****         //todo
 231              		.loc 1 40 24 is_stmt 0
 232 0100 97070000 		ld	a5,.LANCHOR0
 232      83B70700 
  40:src/syscall_cpp.cpp ****         //todo
 233              		.loc 1 40 5
 234 0108 63880700 		beqz	a5,.L21
  46:src/syscall_cpp.cpp **** }
GAS LISTING /tmp/cclNG34r.s 			page 6


 235              		.loc 1 46 5 is_stmt 1
  47:src/syscall_cpp.cpp **** 
 236              		.loc 1 47 1 is_stmt 0
 237 010c 17050000 		ld	a0,.LANCHOR0
 237      03350500 
 238 0114 67800000 		ret
 239              	.L21:
  38:src/syscall_cpp.cpp **** 
 240              		.loc 1 38 56
 241 0118 130101FF 		addi	sp,sp,-16
 242              		.cfi_def_cfa_offset 16
 243 011c 23341100 		sd	ra,8(sp)
 244 0120 23308100 		sd	s0,0(sp)
 245              		.cfi_offset 1, -8
 246              		.cfi_offset 8, -16
 247 0124 13040101 		addi	s0,sp,16
 248              		.cfi_def_cfa 8, 0
  44:src/syscall_cpp.cpp ****     }
 249              		.loc 1 44 9 is_stmt 1
  44:src/syscall_cpp.cpp ****     }
 250              		.loc 1 44 47 is_stmt 0
 251 0128 13051000 		li	a0,1
 252 012c 97000000 		call	_ZN15MemoryAllocatornwEm
 252      E7800000 
 253              	.LVL14:
  44:src/syscall_cpp.cpp ****     }
 254              		.loc 1 44 25
 255 0134 97070000 		sd	a0,.LANCHOR0,a5
 255      23B0A700 
  46:src/syscall_cpp.cpp **** }
 256              		.loc 1 46 5 is_stmt 1
  47:src/syscall_cpp.cpp **** 
 257              		.loc 1 47 1 is_stmt 0
 258 013c 17050000 		ld	a0,.LANCHOR0
 258      03350500 
 259 0144 83308100 		ld	ra,8(sp)
 260              		.cfi_restore 1
 261 0148 03340100 		ld	s0,0(sp)
 262              		.cfi_restore 8
 263              		.cfi_def_cfa 2, 16
 264 014c 13010101 		addi	sp,sp,16
 265              		.cfi_def_cfa_offset 0
 266 0150 67800000 		jr	ra
 267              		.cfi_endproc
 268              	.LFE7:
 270              		.align	2
 271              		.globl	_ZN15MemoryAllocatordlEPv
 273              	_ZN15MemoryAllocatordlEPv:
 274              	.LFB12:
  56:src/syscall_cpp.cpp **** 
  57:src/syscall_cpp.cpp **** void MemoryAllocator::operator delete(void *p) {
 275              		.loc 1 57 48 is_stmt 1
 276              		.cfi_startproc
 277              	.LVL15:
 278 0154 130101FF 		addi	sp,sp,-16
 279              		.cfi_def_cfa_offset 16
 280 0158 23341100 		sd	ra,8(sp)
GAS LISTING /tmp/cclNG34r.s 			page 7


 281 015c 23308100 		sd	s0,0(sp)
 282              		.cfi_offset 1, -8
 283              		.cfi_offset 8, -16
 284 0160 13040101 		addi	s0,sp,16
 285              		.cfi_def_cfa 8, 0
  58:src/syscall_cpp.cpp ****     ::operator delete(p);
 286              		.loc 1 58 5
 287              		.loc 1 58 22 is_stmt 0
 288 0164 97000000 		call	_ZdlPv
 288      E7800000 
 289              	.LVL16:
  59:src/syscall_cpp.cpp **** }
 290              		.loc 1 59 1
 291 016c 83308100 		ld	ra,8(sp)
 292              		.cfi_restore 1
 293 0170 03340100 		ld	s0,0(sp)
 294              		.cfi_restore 8
 295              		.cfi_def_cfa 2, 16
 296 0174 13010101 		addi	sp,sp,16
 297              		.cfi_def_cfa_offset 0
 298 0178 67800000 		jr	ra
 299              		.cfi_endproc
 300              	.LFE12:
 302              		.align	2
 303              		.globl	_ZN9SchedulernwEm
 305              	_ZN9SchedulernwEm:
 306              	.LFB29:
  60:src/syscall_cpp.cpp **** 
  61:src/syscall_cpp.cpp **** 
  62:src/syscall_cpp.cpp **** //Queue.h
  63:src/syscall_cpp.cpp **** template<typename T>
  64:src/syscall_cpp.cpp **** void Queue<T>::pop() {
  65:src/syscall_cpp.cpp ****     Elem* newFirst = first->next;
  66:src/syscall_cpp.cpp ****     MemoryAllocator::getMemoryAllocator()->mem_free(first);
  67:src/syscall_cpp.cpp ****     first = newFirst;
  68:src/syscall_cpp.cpp ****     if(first == 0)
  69:src/syscall_cpp.cpp ****         first = last = 0;
  70:src/syscall_cpp.cpp **** }
  71:src/syscall_cpp.cpp **** 
  72:src/syscall_cpp.cpp **** template<typename T>
  73:src/syscall_cpp.cpp **** void Queue<T>::push(T t) {
  74:src/syscall_cpp.cpp ****     Elem* newElem = (Elem*)MemoryAllocator::getMemoryAllocator()->mem_alloc(sizeof(Elem));
  75:src/syscall_cpp.cpp ****     if(first == 0) {
  76:src/syscall_cpp.cpp ****         first = newElem;
  77:src/syscall_cpp.cpp ****         last = 0;
  78:src/syscall_cpp.cpp ****         first->next = last;
  79:src/syscall_cpp.cpp ****     }
  80:src/syscall_cpp.cpp **** }
  81:src/syscall_cpp.cpp **** 
  82:src/syscall_cpp.cpp **** template<typename T>
  83:src/syscall_cpp.cpp **** T Queue<T>::front() {
  84:src/syscall_cpp.cpp ****    if(first == 0)
  85:src/syscall_cpp.cpp ****        return 0;
  86:src/syscall_cpp.cpp ****    return first->data;
  87:src/syscall_cpp.cpp **** }
  88:src/syscall_cpp.cpp **** 
  89:src/syscall_cpp.cpp **** template<typename T>
GAS LISTING /tmp/cclNG34r.s 			page 8


  90:src/syscall_cpp.cpp **** Queue<T>::Queue() {
  91:src/syscall_cpp.cpp ****     first = last = 0;
  92:src/syscall_cpp.cpp **** }
  93:src/syscall_cpp.cpp **** 
  94:src/syscall_cpp.cpp **** template<typename T>
  95:src/syscall_cpp.cpp **** Queue<T>::~Queue() {
  96:src/syscall_cpp.cpp ****     Elem* curr = first;
  97:src/syscall_cpp.cpp ****     while(curr != 0)
  98:src/syscall_cpp.cpp ****     {
  99:src/syscall_cpp.cpp ****         Elem* old = curr;
 100:src/syscall_cpp.cpp ****         curr = curr->next;
 101:src/syscall_cpp.cpp ****         MemoryAllocator::getMemoryAllocator()->mem_free(old);
 102:src/syscall_cpp.cpp ****     }
 103:src/syscall_cpp.cpp **** }
 104:src/syscall_cpp.cpp **** 
 105:src/syscall_cpp.cpp **** template<typename T>
 106:src/syscall_cpp.cpp **** void *Queue<T>::operator new(size_t size) {
 107:src/syscall_cpp.cpp ****     //todo
 108:src/syscall_cpp.cpp ****     //da li ovde treba size ili sizeof(Queue<T>)
 109:src/syscall_cpp.cpp ****     return ::operator new(sizeof(Queue<T>));
 110:src/syscall_cpp.cpp **** }
 111:src/syscall_cpp.cpp **** 
 112:src/syscall_cpp.cpp **** template<typename T>
 113:src/syscall_cpp.cpp **** void Queue<T>::operator delete(void *p) {
 114:src/syscall_cpp.cpp ****     ::operator delete(p);
 115:src/syscall_cpp.cpp **** }
 116:src/syscall_cpp.cpp **** 
 117:src/syscall_cpp.cpp **** //Scheduler.h
 118:src/syscall_cpp.cpp **** 
 119:src/syscall_cpp.cpp **** Scheduler* Scheduler::scheduler = 0;
 120:src/syscall_cpp.cpp **** 
 121:src/syscall_cpp.cpp **** Scheduler *Scheduler::getScheduler() {
 122:src/syscall_cpp.cpp ****     if(scheduler == 0)
 123:src/syscall_cpp.cpp ****     {
 124:src/syscall_cpp.cpp ****         //todo
 125:src/syscall_cpp.cpp ****         //preklopi new za Scheduler
 126:src/syscall_cpp.cpp ****         scheduler = new Scheduler();
 127:src/syscall_cpp.cpp ****     }
 128:src/syscall_cpp.cpp **** 
 129:src/syscall_cpp.cpp ****     return scheduler;
 130:src/syscall_cpp.cpp **** }
 131:src/syscall_cpp.cpp **** 
 132:src/syscall_cpp.cpp **** void Scheduler::put(PCB *pcb) {
 133:src/syscall_cpp.cpp ****     queuePCB->push(pcb);
 134:src/syscall_cpp.cpp **** }
 135:src/syscall_cpp.cpp **** 
 136:src/syscall_cpp.cpp **** PCB *Scheduler::get() {
 137:src/syscall_cpp.cpp ****     PCB* t =  queuePCB->front();
 138:src/syscall_cpp.cpp ****     queuePCB->pop();
 139:src/syscall_cpp.cpp ****     return t;
 140:src/syscall_cpp.cpp **** }
 141:src/syscall_cpp.cpp **** 
 142:src/syscall_cpp.cpp **** Scheduler::~Scheduler() {
 143:src/syscall_cpp.cpp ****     //todo
 144:src/syscall_cpp.cpp ****     //preklopi delete za queue
 145:src/syscall_cpp.cpp ****     delete queuePCB;
 146:src/syscall_cpp.cpp ****     //MemoryAllocator::getMemoryAllocator()->mem_free(queueThreads);
GAS LISTING /tmp/cclNG34r.s 			page 9


 147:src/syscall_cpp.cpp **** }
 148:src/syscall_cpp.cpp **** 
 149:src/syscall_cpp.cpp **** Scheduler::Scheduler() {
 150:src/syscall_cpp.cpp ****     //todo
 151:src/syscall_cpp.cpp ****     //da li radi konstruktor
 152:src/syscall_cpp.cpp ****     queuePCB= new Queue<PCB*>();
 153:src/syscall_cpp.cpp **** }
 154:src/syscall_cpp.cpp **** 
 155:src/syscall_cpp.cpp **** void *Scheduler::operator new(size_t size) {
 307              		.loc 1 155 44 is_stmt 1
 308              		.cfi_startproc
 309              	.LVL17:
 310 017c 130101FF 		addi	sp,sp,-16
 311              		.cfi_def_cfa_offset 16
 312 0180 23341100 		sd	ra,8(sp)
 313 0184 23308100 		sd	s0,0(sp)
 314              		.cfi_offset 1, -8
 315              		.cfi_offset 8, -16
 316 0188 13040101 		addi	s0,sp,16
 317              		.cfi_def_cfa 8, 0
 156:src/syscall_cpp.cpp ****     return ::operator new(sizeof(Scheduler));
 318              		.loc 1 156 5
 319              		.loc 1 156 26 is_stmt 0
 320 018c 13058000 		li	a0,8
 321              	.LVL18:
 322 0190 97000000 		call	_Znwm
 322      E7800000 
 323              	.LVL19:
 157:src/syscall_cpp.cpp **** }
 324              		.loc 1 157 1
 325 0198 83308100 		ld	ra,8(sp)
 326              		.cfi_restore 1
 327 019c 03340100 		ld	s0,0(sp)
 328              		.cfi_restore 8
 329              		.cfi_def_cfa 2, 16
 330 01a0 13010101 		addi	sp,sp,16
 331              		.cfi_def_cfa_offset 0
 332 01a4 67800000 		jr	ra
 333              		.cfi_endproc
 334              	.LFE29:
 336              		.align	2
 337              		.globl	_ZN9SchedulerdlEPv
 339              	_ZN9SchedulerdlEPv:
 340              	.LFB30:
 158:src/syscall_cpp.cpp **** 
 159:src/syscall_cpp.cpp **** void Scheduler::operator delete(void *p) {
 341              		.loc 1 159 42 is_stmt 1
 342              		.cfi_startproc
 343              	.LVL20:
 344 01a8 130101FF 		addi	sp,sp,-16
 345              		.cfi_def_cfa_offset 16
 346 01ac 23341100 		sd	ra,8(sp)
 347 01b0 23308100 		sd	s0,0(sp)
 348              		.cfi_offset 1, -8
 349              		.cfi_offset 8, -16
 350 01b4 13040101 		addi	s0,sp,16
 351              		.cfi_def_cfa 8, 0
GAS LISTING /tmp/cclNG34r.s 			page 10


 160:src/syscall_cpp.cpp ****     ::operator delete(p);
 352              		.loc 1 160 5
 353              		.loc 1 160 22 is_stmt 0
 354 01b8 97000000 		call	_ZdlPv
 354      E7800000 
 355              	.LVL21:
 161:src/syscall_cpp.cpp **** }
 356              		.loc 1 161 1
 357 01c0 83308100 		ld	ra,8(sp)
 358              		.cfi_restore 1
 359 01c4 03340100 		ld	s0,0(sp)
 360              		.cfi_restore 8
 361              		.cfi_def_cfa 2, 16
 362 01c8 13010101 		addi	sp,sp,16
 363              		.cfi_def_cfa_offset 0
 364 01cc 67800000 		jr	ra
 365              		.cfi_endproc
 366              	.LFE30:
 368              		.align	2
 369              		.globl	_ZN6ThreadC2EPFvPvES0_
 371              	_ZN6ThreadC2EPFvPvES0_:
 372              	.LFB32:
 162:src/syscall_cpp.cpp **** 
 163:src/syscall_cpp.cpp **** //Thread.h
 164:src/syscall_cpp.cpp **** 
 165:src/syscall_cpp.cpp **** //todo
 166:src/syscall_cpp.cpp **** //kreiranje pocetnog konteksta niti
 167:src/syscall_cpp.cpp **** 
 168:src/syscall_cpp.cpp **** Thread::Thread(void (*body)(void *), void *arg) {
 373              		.loc 1 168 1 is_stmt 1
 374              		.cfi_startproc
 375              	.LVL22:
 376 01d0 130101FF 		addi	sp,sp,-16
 377              		.cfi_def_cfa_offset 16
 378 01d4 23348100 		sd	s0,8(sp)
 379              		.cfi_offset 8, -8
 380 01d8 13040101 		addi	s0,sp,16
 381              		.cfi_def_cfa 8, 0
 382              	.LBB2:
 169:src/syscall_cpp.cpp ****     f = body;
 383              		.loc 1 169 5
 384              		.loc 1 169 7 is_stmt 0
 385 01dc 2330B500 		sd	a1,0(a0)
 170:src/syscall_cpp.cpp ****     args = arg;
 386              		.loc 1 170 5 is_stmt 1
 387              		.loc 1 170 10 is_stmt 0
 388 01e0 2334C500 		sd	a2,8(a0)
 389              	.LBE2:
 171:src/syscall_cpp.cpp **** }
 390              		.loc 1 171 1
 391 01e4 03348100 		ld	s0,8(sp)
 392              		.cfi_restore 8
 393              		.cfi_def_cfa 2, 16
 394 01e8 13010101 		addi	sp,sp,16
 395              		.cfi_def_cfa_offset 0
 396 01ec 67800000 		jr	ra
 397              		.cfi_endproc
GAS LISTING /tmp/cclNG34r.s 			page 11


 398              	.LFE32:
 400              		.globl	_ZN6ThreadC1EPFvPvES0_
 401              		.set	_ZN6ThreadC1EPFvPvES0_,_ZN6ThreadC2EPFvPvES0_
 402              		.align	2
 403              		.globl	_ZN6Thread8dispatchEv
 405              	_ZN6Thread8dispatchEv:
 406              	.LFB35:
 172:src/syscall_cpp.cpp **** 
 173:src/syscall_cpp.cpp **** //Thread::~Thread() {
 174:src/syscall_cpp.cpp **** //
 175:src/syscall_cpp.cpp **** //}
 176:src/syscall_cpp.cpp **** 
 177:src/syscall_cpp.cpp **** void Thread::start() {
 178:src/syscall_cpp.cpp ****     threadPCB->start();
 179:src/syscall_cpp.cpp **** }
 180:src/syscall_cpp.cpp **** 
 181:src/syscall_cpp.cpp **** void Thread::dispatch() {
 407              		.loc 1 181 25 is_stmt 1
 408              		.cfi_startproc
 409 01f0 130101FF 		addi	sp,sp,-16
 410              		.cfi_def_cfa_offset 16
 411 01f4 23348100 		sd	s0,8(sp)
 412              		.cfi_offset 8, -8
 413 01f8 13040101 		addi	s0,sp,16
 414              		.cfi_def_cfa 8, 0
 182:src/syscall_cpp.cpp **** 
 183:src/syscall_cpp.cpp **** }
 415              		.loc 1 183 1 is_stmt 0
 416 01fc 03348100 		ld	s0,8(sp)
 417              		.cfi_restore 8
 418              		.cfi_def_cfa 2, 16
 419 0200 13010101 		addi	sp,sp,16
 420              		.cfi_def_cfa_offset 0
 421 0204 67800000 		jr	ra
 422              		.cfi_endproc
 423              	.LFE35:
 425              		.align	2
 426              		.globl	_ZN6Thread5sleepEm
 428              	_ZN6Thread5sleepEm:
 429              	.LFB36:
 184:src/syscall_cpp.cpp **** 
 185:src/syscall_cpp.cpp **** void Thread::sleep(time_t time) {
 430              		.loc 1 185 33 is_stmt 1
 431              		.cfi_startproc
 432              	.LVL23:
 433 0208 130101FF 		addi	sp,sp,-16
 434              		.cfi_def_cfa_offset 16
 435 020c 23348100 		sd	s0,8(sp)
 436              		.cfi_offset 8, -8
 437 0210 13040101 		addi	s0,sp,16
 438              		.cfi_def_cfa 8, 0
 186:src/syscall_cpp.cpp **** 
 187:src/syscall_cpp.cpp **** }
 439              		.loc 1 187 1 is_stmt 0
 440 0214 03348100 		ld	s0,8(sp)
 441              		.cfi_restore 8
 442              		.cfi_def_cfa 2, 16
GAS LISTING /tmp/cclNG34r.s 			page 12


 443 0218 13010101 		addi	sp,sp,16
 444              		.cfi_def_cfa_offset 0
 445 021c 67800000 		jr	ra
 446              		.cfi_endproc
 447              	.LFE36:
 449              		.align	2
 450              		.globl	_ZN6ThreadC2Ev
 452              	_ZN6ThreadC2Ev:
 453              	.LFB38:
 188:src/syscall_cpp.cpp **** 
 189:src/syscall_cpp.cpp **** Thread::Thread() {
 454              		.loc 1 189 1 is_stmt 1
 455              		.cfi_startproc
 456              	.LVL24:
 457 0220 130101FF 		addi	sp,sp,-16
 458              		.cfi_def_cfa_offset 16
 459 0224 23348100 		sd	s0,8(sp)
 460              		.cfi_offset 8, -8
 461 0228 13040101 		addi	s0,sp,16
 462              		.cfi_def_cfa 8, 0
 190:src/syscall_cpp.cpp **** 
 191:src/syscall_cpp.cpp **** }
 463              		.loc 1 191 1 is_stmt 0
 464 022c 03348100 		ld	s0,8(sp)
 465              		.cfi_restore 8
 466              		.cfi_def_cfa 2, 16
 467 0230 13010101 		addi	sp,sp,16
 468              		.cfi_def_cfa_offset 0
 469 0234 67800000 		jr	ra
 470              		.cfi_endproc
 471              	.LFE38:
 473              		.globl	_ZN6ThreadC1Ev
 474              		.set	_ZN6ThreadC1Ev,_ZN6ThreadC2Ev
 475              		.align	2
 476              		.globl	_ZN6ThreaddlEPv
 478              	_ZN6ThreaddlEPv:
 479              	.LFB40:
 192:src/syscall_cpp.cpp **** 
 193:src/syscall_cpp.cpp **** /*
 194:src/syscall_cpp.cpp **** void *Thread::operator new(size_t size) {
 195:src/syscall_cpp.cpp **** 
 196:src/syscall_cpp.cpp ****     //todo
 197:src/syscall_cpp.cpp ****     //koji su ovde parametri poziva
 198:src/syscall_cpp.cpp ****     thread_create(0, 0, 0);
 199:src/syscall_cpp.cpp **** 
 200:src/syscall_cpp.cpp **** }*/
 201:src/syscall_cpp.cpp **** 
 202:src/syscall_cpp.cpp **** void Thread::operator delete(void *p) {
 480              		.loc 1 202 39 is_stmt 1
 481              		.cfi_startproc
 482              	.LVL25:
 483 0238 130101FF 		addi	sp,sp,-16
 484              		.cfi_def_cfa_offset 16
 485 023c 23341100 		sd	ra,8(sp)
 486 0240 23308100 		sd	s0,0(sp)
 487              		.cfi_offset 1, -8
 488              		.cfi_offset 8, -16
GAS LISTING /tmp/cclNG34r.s 			page 13


 489 0244 13040101 		addi	s0,sp,16
 490              		.cfi_def_cfa 8, 0
 203:src/syscall_cpp.cpp ****     ::operator delete(p);
 491              		.loc 1 203 5
 492              		.loc 1 203 22 is_stmt 0
 493 0248 97000000 		call	_ZdlPv
 493      E7800000 
 494              	.LVL26:
 204:src/syscall_cpp.cpp **** }
 495              		.loc 1 204 1
 496 0250 83308100 		ld	ra,8(sp)
 497              		.cfi_restore 1
 498 0254 03340100 		ld	s0,0(sp)
 499              		.cfi_restore 8
 500              		.cfi_def_cfa 2, 16
 501 0258 13010101 		addi	sp,sp,16
 502              		.cfi_def_cfa_offset 0
 503 025c 67800000 		jr	ra
 504              		.cfi_endproc
 505              	.LFE40:
 507              		.align	2
 508              		.globl	_ZN3PCBC2EPFvPvES0_mm
 510              	_ZN3PCBC2EPFvPvES0_mm:
 511              	.LFB42:
 205:src/syscall_cpp.cpp **** 
 206:src/syscall_cpp.cpp **** /*void *Thread::operator new(size_t size, void (*f)(void *) f, void *args) {
 207:src/syscall_cpp.cpp **** 
 208:src/syscall_cpp.cpp **** }*/
 209:src/syscall_cpp.cpp **** 
 210:src/syscall_cpp.cpp **** //void Thread::run() {
 211:src/syscall_cpp.cpp **** //
 212:src/syscall_cpp.cpp **** //}
 213:src/syscall_cpp.cpp **** 
 214:src/syscall_cpp.cpp **** //PCB.h
 215:src/syscall_cpp.cpp **** 
 216:src/syscall_cpp.cpp **** PCB::PCB(void (*body)(void*), void* arg , size_t stackSize, size_t timeSlice) {
 512              		.loc 1 216 1 is_stmt 1
 513              		.cfi_startproc
 514              	.LVL27:
 515 0260 130101FD 		addi	sp,sp,-48
 516              		.cfi_def_cfa_offset 48
 517 0264 23341102 		sd	ra,40(sp)
 518 0268 23308102 		sd	s0,32(sp)
 519 026c 233C9100 		sd	s1,24(sp)
 520 0270 23382101 		sd	s2,16(sp)
 521 0274 23343101 		sd	s3,8(sp)
 522 0278 23304101 		sd	s4,0(sp)
 523              		.cfi_offset 1, -8
 524              		.cfi_offset 8, -16
 525              		.cfi_offset 9, -24
 526              		.cfi_offset 18, -32
 527              		.cfi_offset 19, -40
 528              		.cfi_offset 20, -48
 529 027c 13040103 		addi	s0,sp,48
 530              		.cfi_def_cfa 8, 0
 531 0280 93040500 		mv	s1,a0
 532 0284 93890500 		mv	s3,a1
GAS LISTING /tmp/cclNG34r.s 			page 14


 533 0288 130A0600 		mv	s4,a2
 534              	.LBB3:
 217:src/syscall_cpp.cpp ****     //todo
 218:src/syscall_cpp.cpp ****     //pocetni kontekst niti
 219:src/syscall_cpp.cpp ****     this->stackSize = stackSize;
 535              		.loc 1 219 5
 536              		.loc 1 219 21 is_stmt 0
 537 028c 2338D500 		sd	a3,16(a0)
 220:src/syscall_cpp.cpp ****     this->timeSlice = timeSlice;
 538              		.loc 1 220 5 is_stmt 1
 539              		.loc 1 220 21 is_stmt 0
 540 0290 233CE500 		sd	a4,24(a0)
 221:src/syscall_cpp.cpp ****     this->pcbThread = new Thread(body, arg);
 541              		.loc 1 221 5 is_stmt 1
 542              		.loc 1 221 43 is_stmt 0
 543 0294 13058002 		li	a0,40
 544              	.LVL28:
 545 0298 97000000 		call	_Znwm
 545      E7800000 
 546              	.LVL29:
 547 02a0 13090500 		mv	s2,a0
 548 02a4 13060A00 		mv	a2,s4
 549 02a8 93850900 		mv	a1,s3
 550 02ac 97000000 		call	_ZN6ThreadC1EPFvPvES0_
 550      E7800000 
 551              	.LVL30:
 552              		.loc 1 221 21
 553 02b4 23B02401 		sd	s2,0(s1)
 222:src/syscall_cpp.cpp ****     this->state = CREATED;
 554              		.loc 1 222 5 is_stmt 1
 555              		.loc 1 222 17 is_stmt 0
 556 02b8 23A00402 		sw	zero,32(s1)
 557              	.LBE3:
 223:src/syscall_cpp.cpp **** }
 558              		.loc 1 223 1
 559 02bc 83308102 		ld	ra,40(sp)
 560              		.cfi_restore 1
 561 02c0 03340102 		ld	s0,32(sp)
 562              		.cfi_restore 8
 563              		.cfi_def_cfa 2, 48
 564 02c4 83348101 		ld	s1,24(sp)
 565              		.cfi_restore 9
 566              	.LVL31:
 567 02c8 03390101 		ld	s2,16(sp)
 568              		.cfi_restore 18
 569 02cc 83398100 		ld	s3,8(sp)
 570              		.cfi_restore 19
 571              	.LVL32:
 572 02d0 033A0100 		ld	s4,0(sp)
 573              		.cfi_restore 20
 574              	.LVL33:
 575 02d4 13010103 		addi	sp,sp,48
 576              		.cfi_def_cfa_offset 0
 577 02d8 67800000 		jr	ra
 578              		.cfi_endproc
 579              	.LFE42:
 581              		.globl	_ZN3PCBC1EPFvPvES0_mm
GAS LISTING /tmp/cclNG34r.s 			page 15


 582              		.set	_ZN3PCBC1EPFvPvES0_mm,_ZN3PCBC2EPFvPvES0_mm
 583              		.align	2
 584              		.globl	_ZN3PCBD2Ev
 586              	_ZN3PCBD2Ev:
 587              	.LFB45:
 224:src/syscall_cpp.cpp **** 
 225:src/syscall_cpp.cpp **** PCB::~PCB() {
 588              		.loc 1 225 1 is_stmt 1
 589              		.cfi_startproc
 590              	.LVL34:
 591 02dc 130101FF 		addi	sp,sp,-16
 592              		.cfi_def_cfa_offset 16
 593 02e0 23348100 		sd	s0,8(sp)
 594              		.cfi_offset 8, -8
 595 02e4 13040101 		addi	s0,sp,16
 596              		.cfi_def_cfa 8, 0
 226:src/syscall_cpp.cpp **** 
 227:src/syscall_cpp.cpp **** }
 597              		.loc 1 227 1 is_stmt 0
 598 02e8 03348100 		ld	s0,8(sp)
 599              		.cfi_restore 8
 600              		.cfi_def_cfa 2, 16
 601 02ec 13010101 		addi	sp,sp,16
 602              		.cfi_def_cfa_offset 0
 603 02f0 67800000 		jr	ra
 604              		.cfi_endproc
 605              	.LFE45:
 607              		.globl	_ZN3PCBD1Ev
 608              		.set	_ZN3PCBD1Ev,_ZN3PCBD2Ev
 609              		.align	2
 610              		.globl	_ZN3PCB6runnerEPv
 612              	_ZN3PCB6runnerEPv:
 613              	.LFB48:
 228:src/syscall_cpp.cpp **** 
 229:src/syscall_cpp.cpp **** void PCB::start()
 230:src/syscall_cpp.cpp **** {
 231:src/syscall_cpp.cpp ****     Scheduler::getScheduler()->put(this);
 232:src/syscall_cpp.cpp **** }
 233:src/syscall_cpp.cpp **** 
 234:src/syscall_cpp.cpp **** //todo
 235:src/syscall_cpp.cpp **** void PCB::runner(void* p) {
 614              		.loc 1 235 27 is_stmt 1
 615              		.cfi_startproc
 616              	.LVL35:
 617 02f4 130101FF 		addi	sp,sp,-16
 618              		.cfi_def_cfa_offset 16
 619 02f8 23348100 		sd	s0,8(sp)
 620              		.cfi_offset 8, -8
 621 02fc 13040101 		addi	s0,sp,16
 622              		.cfi_def_cfa 8, 0
 236:src/syscall_cpp.cpp ****     //pcbThread->run();
 237:src/syscall_cpp.cpp **** }
 623              		.loc 1 237 1 is_stmt 0
 624 0300 03348100 		ld	s0,8(sp)
 625              		.cfi_restore 8
 626              		.cfi_def_cfa 2, 16
 627 0304 13010101 		addi	sp,sp,16
GAS LISTING /tmp/cclNG34r.s 			page 16


 628              		.cfi_def_cfa_offset 0
 629 0308 67800000 		jr	ra
 630              		.cfi_endproc
 631              	.LFE48:
 633              		.align	2
 634              		.globl	_ZN3PCBnwEm
 636              	_ZN3PCBnwEm:
 637              	.LFB49:
 238:src/syscall_cpp.cpp **** 
 239:src/syscall_cpp.cpp **** void *PCB::operator new(size_t size) {
 638              		.loc 1 239 38 is_stmt 1
 639              		.cfi_startproc
 640              	.LVL36:
 641 030c 130101FF 		addi	sp,sp,-16
 642              		.cfi_def_cfa_offset 16
 643 0310 23341100 		sd	ra,8(sp)
 644 0314 23308100 		sd	s0,0(sp)
 645              		.cfi_offset 1, -8
 646              		.cfi_offset 8, -16
 647 0318 13040101 		addi	s0,sp,16
 648              		.cfi_def_cfa 8, 0
 240:src/syscall_cpp.cpp ****     return ::operator new(sizeof(PCB));
 649              		.loc 1 240 5
 650              		.loc 1 240 26 is_stmt 0
 651 031c 13058002 		li	a0,40
 652              	.LVL37:
 653 0320 97000000 		call	_Znwm
 653      E7800000 
 654              	.LVL38:
 241:src/syscall_cpp.cpp **** }
 655              		.loc 1 241 1
 656 0328 83308100 		ld	ra,8(sp)
 657              		.cfi_restore 1
 658 032c 03340100 		ld	s0,0(sp)
 659              		.cfi_restore 8
 660              		.cfi_def_cfa 2, 16
 661 0330 13010101 		addi	sp,sp,16
 662              		.cfi_def_cfa_offset 0
 663 0334 67800000 		jr	ra
 664              		.cfi_endproc
 665              	.LFE49:
 667              		.align	2
 668              		.globl	_ZN3PCBdlEPv
 670              	_ZN3PCBdlEPv:
 671              	.LFB50:
 242:src/syscall_cpp.cpp **** 
 243:src/syscall_cpp.cpp **** void PCB::operator delete(void *p) {
 672              		.loc 1 243 36 is_stmt 1
 673              		.cfi_startproc
 674              	.LVL39:
 675 0338 130101FF 		addi	sp,sp,-16
 676              		.cfi_def_cfa_offset 16
 677 033c 23348100 		sd	s0,8(sp)
 678              		.cfi_offset 8, -8
 679 0340 13040101 		addi	s0,sp,16
 680              		.cfi_def_cfa 8, 0
 244:src/syscall_cpp.cpp **** 
GAS LISTING /tmp/cclNG34r.s 			page 17


 245:src/syscall_cpp.cpp **** }
 681              		.loc 1 245 1 is_stmt 0
 682 0344 03348100 		ld	s0,8(sp)
 683              		.cfi_restore 8
 684              		.cfi_def_cfa 2, 16
 685 0348 13010101 		addi	sp,sp,16
 686              		.cfi_def_cfa_offset 0
 687 034c 67800000 		jr	ra
 688              		.cfi_endproc
 689              	.LFE50:
 691              		.align	2
 692              		.globl	_ZN6System10initSystemEv
 694              	_ZN6System10initSystemEv:
 695              	.LFB51:
 246:src/syscall_cpp.cpp **** 
 247:src/syscall_cpp.cpp **** //System.h
 248:src/syscall_cpp.cpp **** 
 249:src/syscall_cpp.cpp **** PCB* System::runningPCB = 0;
 250:src/syscall_cpp.cpp **** 
 251:src/syscall_cpp.cpp **** //todo
 252:src/syscall_cpp.cpp **** extern "C" void interruptvec();
 253:src/syscall_cpp.cpp **** void System::initSystem() {
 696              		.loc 1 253 27 is_stmt 1
 697              		.cfi_startproc
 698 0350 130101FF 		addi	sp,sp,-16
 699              		.cfi_def_cfa_offset 16
 700 0354 23348100 		sd	s0,8(sp)
 701              		.cfi_offset 8, -8
 702 0358 13040101 		addi	s0,sp,16
 703              		.cfi_def_cfa 8, 0
 254:src/syscall_cpp.cpp ****     __asm__ volatile("csrw stvec, %0" : : [vector]"r"(&interruptvec));
 704              		.loc 1 254 5
 705              		.loc 1 254 70 is_stmt 0
 706 035c 97070000 		la	a5,interruptvec
 706      83B70700 
 707              	#APP
 708              	# 254 "src/syscall_cpp.cpp" 1
 255              	}
 709              		csrw stvec, a5
 710              	# 0 "" 2
 711              		.loc 1 255 1
 712              	#NO_APP
 713 0368 03348100 		ld	s0,8(sp)
 714              		.cfi_restore 8
 715              		.cfi_def_cfa 2, 16
 716 036c 13010101 		addi	sp,sp,16
 717              		.cfi_def_cfa_offset 0
 718 0370 67800000 		jr	ra
 719              		.cfi_endproc
 720              	.LFE51:
 722              		.align	2
 723              		.globl	_ZN6SystemC2Ev
 725              	_ZN6SystemC2Ev:
 726              	.LFB53:
 256:src/syscall_cpp.cpp **** 
 257:src/syscall_cpp.cpp **** System::System() {
 727              		.loc 1 257 1 is_stmt 1
GAS LISTING /tmp/cclNG34r.s 			page 18


 728              		.cfi_startproc
 729              	.LVL40:
 730 0374 130101FF 		addi	sp,sp,-16
 731              		.cfi_def_cfa_offset 16
 732 0378 23348100 		sd	s0,8(sp)
 733              		.cfi_offset 8, -8
 734 037c 13040101 		addi	s0,sp,16
 735              		.cfi_def_cfa 8, 0
 258:src/syscall_cpp.cpp **** 
 259:src/syscall_cpp.cpp **** }
 736              		.loc 1 259 1 is_stmt 0
 737 0380 03348100 		ld	s0,8(sp)
 738              		.cfi_restore 8
 739              		.cfi_def_cfa 2, 16
 740 0384 13010101 		addi	sp,sp,16
 741              		.cfi_def_cfa_offset 0
 742 0388 67800000 		jr	ra
 743              		.cfi_endproc
 744              	.LFE53:
 746              		.globl	_ZN6SystemC1Ev
 747              		.set	_ZN6SystemC1Ev,_ZN6SystemC2Ev
 748              		.section	.text._ZN5QueueIP3PCBE4pushES1_,"axG",@progbits,_ZN5QueueIP3PCBE4pushES1_,comdat
 749              		.align	2
 750              		.weak	_ZN5QueueIP3PCBE4pushES1_
 752              	_ZN5QueueIP3PCBE4pushES1_:
 753              	.LFB55:
  73:src/syscall_cpp.cpp ****     Elem* newElem = (Elem*)MemoryAllocator::getMemoryAllocator()->mem_alloc(sizeof(Elem));
 754              		.loc 1 73 6 is_stmt 1
 755              		.cfi_startproc
 756              	.LVL41:
 757 0000 130101FE 		addi	sp,sp,-32
 758              		.cfi_def_cfa_offset 32
 759 0004 233C1100 		sd	ra,24(sp)
 760 0008 23388100 		sd	s0,16(sp)
 761 000c 23349100 		sd	s1,8(sp)
 762              		.cfi_offset 1, -8
 763              		.cfi_offset 8, -16
 764              		.cfi_offset 9, -24
 765 0010 13040102 		addi	s0,sp,32
 766              		.cfi_def_cfa 8, 0
 767 0014 93040500 		mv	s1,a0
  74:src/syscall_cpp.cpp ****     if(first == 0) {
 768              		.loc 1 74 76 is_stmt 0
 769 0018 97000000 		call	_ZN15MemoryAllocator18getMemoryAllocatorEv
 769      E7800000 
 770              	.LVL42:
 771 0020 93050001 		li	a1,16
 772 0024 97000000 		call	_ZN15MemoryAllocator9mem_allocEm
 772      E7800000 
 773              	.LVL43:
  75:src/syscall_cpp.cpp ****         first = newElem;
 774              		.loc 1 75 8
 775 002c 83B70400 		ld	a5,0(s1)
  75:src/syscall_cpp.cpp ****         first = newElem;
 776              		.loc 1 75 5
 777 0030 638C0700 		beqz	a5,.L55
 778              	.L52:
GAS LISTING /tmp/cclNG34r.s 			page 19


  80:src/syscall_cpp.cpp **** 
 779              		.loc 1 80 1
 780 0034 83308101 		ld	ra,24(sp)
 781              		.cfi_remember_state
 782              		.cfi_restore 1
 783 0038 03340101 		ld	s0,16(sp)
 784              		.cfi_restore 8
 785              		.cfi_def_cfa 2, 32
 786 003c 83348100 		ld	s1,8(sp)
 787              		.cfi_restore 9
 788              	.LVL44:
 789 0040 13010102 		addi	sp,sp,32
 790              		.cfi_def_cfa_offset 0
 791 0044 67800000 		jr	ra
 792              	.LVL45:
 793              	.L55:
 794              		.cfi_restore_state
  76:src/syscall_cpp.cpp ****         last = 0;
 795              		.loc 1 76 9
 796 0048 23B0A400 		sd	a0,0(s1)
  77:src/syscall_cpp.cpp ****         first->next = last;
 797              		.loc 1 77 9
 798 004c 23B40400 		sd	zero,8(s1)
  78:src/syscall_cpp.cpp ****     }
 799              		.loc 1 78 9
 800 0050 23340500 		sd	zero,8(a0)
  80:src/syscall_cpp.cpp **** 
 801              		.loc 1 80 1
 802 0054 6FF01FFE 		j	.L52
 803              		.cfi_endproc
 804              	.LFE55:
 806              		.text
 807              		.align	2
 808              		.globl	_ZN9Scheduler3putEP3PCB
 810              	_ZN9Scheduler3putEP3PCB:
 811              	.LFB21:
 132:src/syscall_cpp.cpp ****     queuePCB->push(pcb);
 812              		.loc 1 132 31 is_stmt 1
 813              		.cfi_startproc
 814              	.LVL46:
 815 038c 130101FF 		addi	sp,sp,-16
 816              		.cfi_def_cfa_offset 16
 817 0390 23341100 		sd	ra,8(sp)
 818 0394 23308100 		sd	s0,0(sp)
 819              		.cfi_offset 1, -8
 820              		.cfi_offset 8, -16
 821 0398 13040101 		addi	s0,sp,16
 822              		.cfi_def_cfa 8, 0
 133:src/syscall_cpp.cpp **** }
 823              		.loc 1 133 5
 133:src/syscall_cpp.cpp **** }
 824              		.loc 1 133 19 is_stmt 0
 825 039c 03350500 		ld	a0,0(a0)
 826              	.LVL47:
 827 03a0 97000000 		call	_ZN5QueueIP3PCBE4pushES1_
 827      E7800000 
 828              	.LVL48:
GAS LISTING /tmp/cclNG34r.s 			page 20


 134:src/syscall_cpp.cpp **** 
 829              		.loc 1 134 1
 830 03a8 83308100 		ld	ra,8(sp)
 831              		.cfi_restore 1
 832 03ac 03340100 		ld	s0,0(sp)
 833              		.cfi_restore 8
 834              		.cfi_def_cfa 2, 16
 835 03b0 13010101 		addi	sp,sp,16
 836              		.cfi_def_cfa_offset 0
 837 03b4 67800000 		jr	ra
 838              		.cfi_endproc
 839              	.LFE21:
 841              		.section	.text._ZN5QueueIP3PCBE5frontEv,"axG",@progbits,_ZN5QueueIP3PCBE5frontEv,comdat
 842              		.align	2
 843              		.weak	_ZN5QueueIP3PCBE5frontEv
 845              	_ZN5QueueIP3PCBE5frontEv:
 846              	.LFB56:
  83:src/syscall_cpp.cpp ****    if(first == 0)
 847              		.loc 1 83 3 is_stmt 1
 848              		.cfi_startproc
 849              	.LVL49:
 850 0000 130101FF 		addi	sp,sp,-16
 851              		.cfi_def_cfa_offset 16
 852 0004 23348100 		sd	s0,8(sp)
 853              		.cfi_offset 8, -8
 854 0008 13040101 		addi	s0,sp,16
 855              		.cfi_def_cfa 8, 0
  84:src/syscall_cpp.cpp ****        return 0;
 856              		.loc 1 84 7 is_stmt 0
 857 000c 03350500 		ld	a0,0(a0)
 858              	.LVL50:
  84:src/syscall_cpp.cpp ****        return 0;
 859              		.loc 1 84 4
 860 0010 63040500 		beqz	a0,.L58
  86:src/syscall_cpp.cpp **** }
 861              		.loc 1 86 18
 862 0014 03350500 		ld	a0,0(a0)
 863              	.L58:
  87:src/syscall_cpp.cpp **** 
 864              		.loc 1 87 1
 865 0018 03348100 		ld	s0,8(sp)
 866              		.cfi_restore 8
 867              		.cfi_def_cfa 2, 16
 868 001c 13010101 		addi	sp,sp,16
 869              		.cfi_def_cfa_offset 0
 870 0020 67800000 		jr	ra
 871              		.cfi_endproc
 872              	.LFE56:
 874              		.section	.text._ZN5QueueIP3PCBE3popEv,"axG",@progbits,_ZN5QueueIP3PCBE3popEv,comdat
 875              		.align	2
 876              		.weak	_ZN5QueueIP3PCBE3popEv
 878              	_ZN5QueueIP3PCBE3popEv:
 879              	.LFB57:
  64:src/syscall_cpp.cpp ****     Elem* newFirst = first->next;
 880              		.loc 1 64 6 is_stmt 1
 881              		.cfi_startproc
 882              	.LVL51:
GAS LISTING /tmp/cclNG34r.s 			page 21


 883 0000 130101FE 		addi	sp,sp,-32
 884              		.cfi_def_cfa_offset 32
 885 0004 233C1100 		sd	ra,24(sp)
 886 0008 23388100 		sd	s0,16(sp)
 887 000c 23349100 		sd	s1,8(sp)
 888 0010 23302101 		sd	s2,0(sp)
 889              		.cfi_offset 1, -8
 890              		.cfi_offset 8, -16
 891              		.cfi_offset 9, -24
 892              		.cfi_offset 18, -32
 893 0014 13040102 		addi	s0,sp,32
 894              		.cfi_def_cfa 8, 0
 895 0018 93040500 		mv	s1,a0
  65:src/syscall_cpp.cpp ****     MemoryAllocator::getMemoryAllocator()->mem_free(first);
 896              		.loc 1 65 22 is_stmt 0
 897 001c 83370500 		ld	a5,0(a0)
  65:src/syscall_cpp.cpp ****     MemoryAllocator::getMemoryAllocator()->mem_free(first);
 898              		.loc 1 65 11
 899 0020 03B98700 		ld	s2,8(a5)
 900              	.LVL52:
  66:src/syscall_cpp.cpp ****     first = newFirst;
 901              		.loc 1 66 5
 902 0024 97000000 		call	_ZN15MemoryAllocator18getMemoryAllocatorEv
 902      E7800000 
 903              	.LVL53:
 904 002c 83B50400 		ld	a1,0(s1)
 905 0030 97000000 		call	_ZN15MemoryAllocator8mem_freeEPv
 905      E7800000 
 906              	.LVL54:
  67:src/syscall_cpp.cpp ****     if(first == 0)
 907              		.loc 1 67 5
 908 0038 23B02401 		sd	s2,0(s1)
  68:src/syscall_cpp.cpp ****         first = last = 0;
 909              		.loc 1 68 5
 910 003c 630E0900 		beqz	s2,.L64
 911              	.L61:
  70:src/syscall_cpp.cpp **** 
 912              		.loc 1 70 1
 913 0040 83308101 		ld	ra,24(sp)
 914              		.cfi_remember_state
 915              		.cfi_restore 1
 916 0044 03340101 		ld	s0,16(sp)
 917              		.cfi_restore 8
 918              		.cfi_def_cfa 2, 32
 919 0048 83348100 		ld	s1,8(sp)
 920              		.cfi_restore 9
 921              	.LVL55:
 922 004c 03390100 		ld	s2,0(sp)
 923              		.cfi_restore 18
 924              	.LVL56:
 925 0050 13010102 		addi	sp,sp,32
 926              		.cfi_def_cfa_offset 0
 927 0054 67800000 		jr	ra
 928              	.LVL57:
 929              	.L64:
 930              		.cfi_restore_state
  69:src/syscall_cpp.cpp **** }
GAS LISTING /tmp/cclNG34r.s 			page 22


 931              		.loc 1 69 9
 932 0058 23B40400 		sd	zero,8(s1)
 933 005c 23B00400 		sd	zero,0(s1)
  70:src/syscall_cpp.cpp **** 
 934              		.loc 1 70 1
 935 0060 6FF01FFE 		j	.L61
 936              		.cfi_endproc
 937              	.LFE57:
 939              		.text
 940              		.align	2
 941              		.globl	_ZN9Scheduler3getEv
 943              	_ZN9Scheduler3getEv:
 944              	.LFB22:
 136:src/syscall_cpp.cpp ****     PCB* t =  queuePCB->front();
 945              		.loc 1 136 23 is_stmt 1
 946              		.cfi_startproc
 947              	.LVL58:
 948 03b8 130101FE 		addi	sp,sp,-32
 949              		.cfi_def_cfa_offset 32
 950 03bc 233C1100 		sd	ra,24(sp)
 951 03c0 23388100 		sd	s0,16(sp)
 952 03c4 23349100 		sd	s1,8(sp)
 953 03c8 23302101 		sd	s2,0(sp)
 954              		.cfi_offset 1, -8
 955              		.cfi_offset 8, -16
 956              		.cfi_offset 9, -24
 957              		.cfi_offset 18, -32
 958 03cc 13040102 		addi	s0,sp,32
 959              		.cfi_def_cfa 8, 0
 137:src/syscall_cpp.cpp ****     queuePCB->pop();
 960              		.loc 1 137 5
 137:src/syscall_cpp.cpp ****     queuePCB->pop();
 961              		.loc 1 137 15 is_stmt 0
 962 03d0 03390500 		ld	s2,0(a0)
 137:src/syscall_cpp.cpp ****     queuePCB->pop();
 963              		.loc 1 137 30
 964 03d4 13050900 		mv	a0,s2
 965              	.LVL59:
 966 03d8 97000000 		call	_ZN5QueueIP3PCBE5frontEv
 966      E7800000 
 967              	.LVL60:
 968 03e0 93040500 		mv	s1,a0
 969              	.LVL61:
 138:src/syscall_cpp.cpp ****     return t;
 970              		.loc 1 138 5 is_stmt 1
 138:src/syscall_cpp.cpp ****     return t;
 971              		.loc 1 138 18 is_stmt 0
 972 03e4 13050900 		mv	a0,s2
 973 03e8 97000000 		call	_ZN5QueueIP3PCBE3popEv
 973      E7800000 
 974              	.LVL62:
 139:src/syscall_cpp.cpp **** }
 975              		.loc 1 139 5 is_stmt 1
 140:src/syscall_cpp.cpp **** 
 976              		.loc 1 140 1 is_stmt 0
 977 03f0 13850400 		mv	a0,s1
 978 03f4 83308101 		ld	ra,24(sp)
GAS LISTING /tmp/cclNG34r.s 			page 23


 979              		.cfi_restore 1
 980 03f8 03340101 		ld	s0,16(sp)
 981              		.cfi_restore 8
 982              		.cfi_def_cfa 2, 32
 983 03fc 83348100 		ld	s1,8(sp)
 984              		.cfi_restore 9
 985              	.LVL63:
 986 0400 03390100 		ld	s2,0(sp)
 987              		.cfi_restore 18
 988 0404 13010102 		addi	sp,sp,32
 989              		.cfi_def_cfa_offset 0
 990 0408 67800000 		jr	ra
 991              		.cfi_endproc
 992              	.LFE22:
 994              		.section	.text._ZN5QueueIP3PCBEdlEPv,"axG",@progbits,_ZN5QueueIP3PCBEdlEPv,comdat
 995              		.align	2
 996              		.weak	_ZN5QueueIP3PCBEdlEPv
 998              	_ZN5QueueIP3PCBEdlEPv:
 999              	.LFB58:
 113:src/syscall_cpp.cpp ****     ::operator delete(p);
 1000              		.loc 1 113 6 is_stmt 1
 1001              		.cfi_startproc
 1002              	.LVL64:
 1003 0000 130101FF 		addi	sp,sp,-16
 1004              		.cfi_def_cfa_offset 16
 1005 0004 23341100 		sd	ra,8(sp)
 1006 0008 23308100 		sd	s0,0(sp)
 1007              		.cfi_offset 1, -8
 1008              		.cfi_offset 8, -16
 1009 000c 13040101 		addi	s0,sp,16
 1010              		.cfi_def_cfa 8, 0
 114:src/syscall_cpp.cpp **** }
 1011              		.loc 1 114 22 is_stmt 0
 1012 0010 97000000 		call	_ZdlPv
 1012      E7800000 
 1013              	.LVL65:
 115:src/syscall_cpp.cpp **** 
 1014              		.loc 1 115 1
 1015 0018 83308100 		ld	ra,8(sp)
 1016              		.cfi_restore 1
 1017 001c 03340100 		ld	s0,0(sp)
 1018              		.cfi_restore 8
 1019              		.cfi_def_cfa 2, 16
 1020 0020 13010101 		addi	sp,sp,16
 1021              		.cfi_def_cfa_offset 0
 1022 0024 67800000 		jr	ra
 1023              		.cfi_endproc
 1024              	.LFE58:
 1026              		.section	.text._ZN5QueueIP3PCBED2Ev,"axG",@progbits,_ZN5QueueIP3PCBED5Ev,comdat
 1027              		.align	2
 1028              		.weak	_ZN5QueueIP3PCBED2Ev
 1030              	_ZN5QueueIP3PCBED2Ev:
 1031              	.LFB60:
  95:src/syscall_cpp.cpp ****     Elem* curr = first;
 1032              		.loc 1 95 1 is_stmt 1
 1033              		.cfi_startproc
 1034              		.cfi_personality 0x9b,DW.ref.__gxx_personality_v0
GAS LISTING /tmp/cclNG34r.s 			page 24


 1035              		.cfi_lsda 0x1b,.LLSDA60
 1036              	.LVL66:
 1037 0000 130101FE 		addi	sp,sp,-32
 1038              		.cfi_def_cfa_offset 32
 1039 0004 233C1100 		sd	ra,24(sp)
 1040 0008 23388100 		sd	s0,16(sp)
 1041 000c 23349100 		sd	s1,8(sp)
 1042 0010 23302101 		sd	s2,0(sp)
 1043              		.cfi_offset 1, -8
 1044              		.cfi_offset 8, -16
 1045              		.cfi_offset 9, -24
 1046              		.cfi_offset 18, -32
 1047 0014 13040102 		addi	s0,sp,32
 1048              		.cfi_def_cfa 8, 0
 1049              	.LBB4:
  96:src/syscall_cpp.cpp ****     while(curr != 0)
 1050              		.loc 1 96 11 is_stmt 0
 1051 0018 83340500 		ld	s1,0(a0)
 1052              	.LVL67:
 1053              	.L71:
  97:src/syscall_cpp.cpp ****     {
 1054              		.loc 1 97 16 is_stmt 1
 1055 001c 63820402 		beqz	s1,.L69
 1056              	.LVL68:
 1057              	.LBB5:
 100:src/syscall_cpp.cpp ****         MemoryAllocator::getMemoryAllocator()->mem_free(old);
 1058              		.loc 1 100 9 is_stmt 0
 1059 0020 03B98400 		ld	s2,8(s1)
 1060              	.LVL69:
 101:src/syscall_cpp.cpp ****     }
 1061              		.loc 1 101 9
 1062 0024 97000000 		call	_ZN15MemoryAllocator18getMemoryAllocatorEv
 1062      E7800000 
 1063              	.LVL70:
 1064 002c 93850400 		mv	a1,s1
 1065 0030 97000000 		call	_ZN15MemoryAllocator8mem_freeEPv
 1065      E7800000 
 1066              	.LVL71:
 100:src/syscall_cpp.cpp ****         MemoryAllocator::getMemoryAllocator()->mem_free(old);
 1067              		.loc 1 100 9
 1068 0038 93040900 		mv	s1,s2
 1069              	.LVL72:
 1070              	.LBE5:
  97:src/syscall_cpp.cpp ****     {
 1071              		.loc 1 97 5
 1072 003c 6FF01FFE 		j	.L71
 1073              	.LVL73:
 1074              	.L69:
 1075              	.LBE4:
 103:src/syscall_cpp.cpp **** 
 1076              		.loc 1 103 1
 1077 0040 83308101 		ld	ra,24(sp)
 1078              		.cfi_restore 1
 1079 0044 03340101 		ld	s0,16(sp)
 1080              		.cfi_restore 8
 1081              		.cfi_def_cfa 2, 32
 1082 0048 83348100 		ld	s1,8(sp)
GAS LISTING /tmp/cclNG34r.s 			page 25


 1083              		.cfi_restore 9
 1084              	.LVL74:
 1085 004c 03390100 		ld	s2,0(sp)
 1086              		.cfi_restore 18
 1087 0050 13010102 		addi	sp,sp,32
 1088              		.cfi_def_cfa_offset 0
 1089 0054 67800000 		jr	ra
 1090              		.cfi_endproc
 1091              	.LFE60:
 1092              		.globl	__gxx_personality_v0
 1093              		.section	.gcc_except_table._ZN5QueueIP3PCBED2Ev,"aG",@progbits,_ZN5QueueIP3PCBED5Ev,comdat
 1094              	.LLSDA60:
 1095 0000 FF       		.byte	0xff
 1096 0001 FF       		.byte	0xff
 1097 0002 03       		.byte	0x3
 1098 0003 00       		.byte	0
 1099              		.section	.text._ZN5QueueIP3PCBED2Ev,"axG",@progbits,_ZN5QueueIP3PCBED5Ev,comdat
 1101              		.weak	_ZN5QueueIP3PCBED1Ev
 1102              		.set	_ZN5QueueIP3PCBED1Ev,_ZN5QueueIP3PCBED2Ev
 1103              		.text
 1104              		.align	2
 1105              		.globl	_ZN9SchedulerD2Ev
 1107              	_ZN9SchedulerD2Ev:
 1108              	.LFB24:
 142:src/syscall_cpp.cpp ****     //todo
 1109              		.loc 1 142 1 is_stmt 1
 1110              		.cfi_startproc
 1111              		.cfi_personality 0x9b,DW.ref.__gxx_personality_v0
 1112              		.cfi_lsda 0x1b,.LLSDA24
 1113              	.LVL75:
 1114 040c 130101FE 		addi	sp,sp,-32
 1115              		.cfi_def_cfa_offset 32
 1116 0410 233C1100 		sd	ra,24(sp)
 1117 0414 23388100 		sd	s0,16(sp)
 1118 0418 23349100 		sd	s1,8(sp)
 1119              		.cfi_offset 1, -8
 1120              		.cfi_offset 8, -16
 1121              		.cfi_offset 9, -24
 1122 041c 13040102 		addi	s0,sp,32
 1123              		.cfi_def_cfa 8, 0
 1124              	.LBB6:
 145:src/syscall_cpp.cpp ****     //MemoryAllocator::getMemoryAllocator()->mem_free(queueThreads);
 1125              		.loc 1 145 5
 145:src/syscall_cpp.cpp ****     //MemoryAllocator::getMemoryAllocator()->mem_free(queueThreads);
 1126              		.loc 1 145 12 is_stmt 0
 1127 0420 83340500 		ld	s1,0(a0)
 145:src/syscall_cpp.cpp ****     //MemoryAllocator::getMemoryAllocator()->mem_free(queueThreads);
 1128              		.loc 1 145 20
 1129 0424 638E0400 		beqz	s1,.L73
 145:src/syscall_cpp.cpp ****     //MemoryAllocator::getMemoryAllocator()->mem_free(queueThreads);
 1130              		.loc 1 145 12 discriminator 1
 1131 0428 13850400 		mv	a0,s1
 1132              	.LVL76:
 1133 042c 97000000 		call	_ZN5QueueIP3PCBED1Ev
 1133      E7800000 
 1134              	.LVL77:
 1135 0434 13850400 		mv	a0,s1
GAS LISTING /tmp/cclNG34r.s 			page 26


 1136 0438 97000000 		call	_ZN5QueueIP3PCBEdlEPv
 1136      E7800000 
 1137              	.LVL78:
 1138              	.L73:
 1139              	.LBE6:
 147:src/syscall_cpp.cpp **** 
 1140              		.loc 1 147 1
 1141 0440 83308101 		ld	ra,24(sp)
 1142              		.cfi_restore 1
 1143 0444 03340101 		ld	s0,16(sp)
 1144              		.cfi_restore 8
 1145              		.cfi_def_cfa 2, 32
 1146 0448 83348100 		ld	s1,8(sp)
 1147              		.cfi_restore 9
 1148 044c 13010102 		addi	sp,sp,32
 1149              		.cfi_def_cfa_offset 0
 1150 0450 67800000 		jr	ra
 1151              		.cfi_endproc
 1152              	.LFE24:
 1153              		.section	.gcc_except_table,"a",@progbits
 1154              	.LLSDA24:
 1155 0000 FF       		.byte	0xff
 1156 0001 FF       		.byte	0xff
 1157 0002 03       		.byte	0x3
 1158 0003 00       		.byte	0
 1159              		.text
 1161              		.globl	_ZN9SchedulerD1Ev
 1162              		.set	_ZN9SchedulerD1Ev,_ZN9SchedulerD2Ev
 1163              		.section	.text._ZN5QueueIP3PCBEnwEm,"axG",@progbits,_ZN5QueueIP3PCBEnwEm,comdat
 1164              		.align	2
 1165              		.weak	_ZN5QueueIP3PCBEnwEm
 1167              	_ZN5QueueIP3PCBEnwEm:
 1168              	.LFB62:
 106:src/syscall_cpp.cpp ****     //todo
 1169              		.loc 1 106 7 is_stmt 1
 1170              		.cfi_startproc
 1171              	.LVL79:
 1172 0000 130101FF 		addi	sp,sp,-16
 1173              		.cfi_def_cfa_offset 16
 1174 0004 23341100 		sd	ra,8(sp)
 1175 0008 23308100 		sd	s0,0(sp)
 1176              		.cfi_offset 1, -8
 1177              		.cfi_offset 8, -16
 1178 000c 13040101 		addi	s0,sp,16
 1179              		.cfi_def_cfa 8, 0
 109:src/syscall_cpp.cpp **** }
 1180              		.loc 1 109 26 is_stmt 0
 1181 0010 13050001 		li	a0,16
 1182              	.LVL80:
 1183 0014 97000000 		call	_Znwm
 1183      E7800000 
 1184              	.LVL81:
 110:src/syscall_cpp.cpp **** 
 1185              		.loc 1 110 1
 1186 001c 83308100 		ld	ra,8(sp)
 1187              		.cfi_restore 1
 1188 0020 03340100 		ld	s0,0(sp)
GAS LISTING /tmp/cclNG34r.s 			page 27


 1189              		.cfi_restore 8
 1190              		.cfi_def_cfa 2, 16
 1191 0024 13010101 		addi	sp,sp,16
 1192              		.cfi_def_cfa_offset 0
 1193 0028 67800000 		jr	ra
 1194              		.cfi_endproc
 1195              	.LFE62:
 1197              		.section	.text._ZN5QueueIP3PCBEC2Ev,"axG",@progbits,_ZN5QueueIP3PCBEC5Ev,comdat
 1198              		.align	2
 1199              		.weak	_ZN5QueueIP3PCBEC2Ev
 1201              	_ZN5QueueIP3PCBEC2Ev:
 1202              	.LFB64:
  90:src/syscall_cpp.cpp ****     first = last = 0;
 1203              		.loc 1 90 1 is_stmt 1
 1204              		.cfi_startproc
 1205              	.LVL82:
 1206 0000 130101FF 		addi	sp,sp,-16
 1207              		.cfi_def_cfa_offset 16
 1208 0004 23348100 		sd	s0,8(sp)
 1209              		.cfi_offset 8, -8
 1210 0008 13040101 		addi	s0,sp,16
 1211              		.cfi_def_cfa 8, 0
 1212              	.LBB7:
  91:src/syscall_cpp.cpp **** }
 1213              		.loc 1 91 5 is_stmt 0
 1214 000c 23340500 		sd	zero,8(a0)
 1215 0010 23300500 		sd	zero,0(a0)
 1216              	.LBE7:
  92:src/syscall_cpp.cpp **** 
 1217              		.loc 1 92 1
 1218 0014 03348100 		ld	s0,8(sp)
 1219              		.cfi_restore 8
 1220              		.cfi_def_cfa 2, 16
 1221 0018 13010101 		addi	sp,sp,16
 1222              		.cfi_def_cfa_offset 0
 1223 001c 67800000 		jr	ra
 1224              		.cfi_endproc
 1225              	.LFE64:
 1227              		.weak	_ZN5QueueIP3PCBEC1Ev
 1228              		.set	_ZN5QueueIP3PCBEC1Ev,_ZN5QueueIP3PCBEC2Ev
 1229              		.text
 1230              		.align	2
 1231              		.globl	_ZN9SchedulerC2Ev
 1233              	_ZN9SchedulerC2Ev:
 1234              	.LFB27:
 149:src/syscall_cpp.cpp ****     //todo
 1235              		.loc 1 149 1 is_stmt 1
 1236              		.cfi_startproc
 1237              	.LVL83:
 1238 0454 130101FE 		addi	sp,sp,-32
 1239              		.cfi_def_cfa_offset 32
 1240 0458 233C1100 		sd	ra,24(sp)
 1241 045c 23388100 		sd	s0,16(sp)
 1242 0460 23349100 		sd	s1,8(sp)
 1243 0464 23302101 		sd	s2,0(sp)
 1244              		.cfi_offset 1, -8
 1245              		.cfi_offset 8, -16
GAS LISTING /tmp/cclNG34r.s 			page 28


 1246              		.cfi_offset 9, -24
 1247              		.cfi_offset 18, -32
 1248 0468 13040102 		addi	s0,sp,32
 1249              		.cfi_def_cfa 8, 0
 1250 046c 93040500 		mv	s1,a0
 1251              	.LBB8:
 152:src/syscall_cpp.cpp **** }
 1252              		.loc 1 152 5
 152:src/syscall_cpp.cpp **** }
 1253              		.loc 1 152 31 is_stmt 0
 1254 0470 13050001 		li	a0,16
 1255              	.LVL84:
 1256 0474 97000000 		call	_ZN5QueueIP3PCBEnwEm
 1256      E7800000 
 1257              	.LVL85:
 1258 047c 13090500 		mv	s2,a0
 1259 0480 97000000 		call	_ZN5QueueIP3PCBEC1Ev
 1259      E7800000 
 1260              	.LVL86:
 152:src/syscall_cpp.cpp **** }
 1261              		.loc 1 152 13
 1262 0488 23B02401 		sd	s2,0(s1)
 1263              	.LBE8:
 153:src/syscall_cpp.cpp **** 
 1264              		.loc 1 153 1
 1265 048c 83308101 		ld	ra,24(sp)
 1266              		.cfi_restore 1
 1267 0490 03340101 		ld	s0,16(sp)
 1268              		.cfi_restore 8
 1269              		.cfi_def_cfa 2, 32
 1270 0494 83348100 		ld	s1,8(sp)
 1271              		.cfi_restore 9
 1272              	.LVL87:
 1273 0498 03390100 		ld	s2,0(sp)
 1274              		.cfi_restore 18
 1275 049c 13010102 		addi	sp,sp,32
 1276              		.cfi_def_cfa_offset 0
 1277 04a0 67800000 		jr	ra
 1278              		.cfi_endproc
 1279              	.LFE27:
 1281              		.globl	_ZN9SchedulerC1Ev
 1282              		.set	_ZN9SchedulerC1Ev,_ZN9SchedulerC2Ev
 1283              		.align	2
 1284              		.globl	_ZN9Scheduler12getSchedulerEv
 1286              	_ZN9Scheduler12getSchedulerEv:
 1287              	.LFB20:
 121:src/syscall_cpp.cpp ****     if(scheduler == 0)
 1288              		.loc 1 121 38 is_stmt 1
 1289              		.cfi_startproc
 1290              		.cfi_personality 0x9b,DW.ref.__gxx_personality_v0
 1291              		.cfi_lsda 0x1b,.LLSDA20
 122:src/syscall_cpp.cpp ****     {
 1292              		.loc 1 122 5
 122:src/syscall_cpp.cpp ****     {
 1293              		.loc 1 122 18 is_stmt 0
 1294 04a4 97070000 		ld	a5,.LANCHOR0+8
 1294      83B70700 
GAS LISTING /tmp/cclNG34r.s 			page 29


 122:src/syscall_cpp.cpp ****     {
 1295              		.loc 1 122 5
 1296 04ac 63880700 		beqz	a5,.L91
 129:src/syscall_cpp.cpp **** }
 1297              		.loc 1 129 5 is_stmt 1
 129:src/syscall_cpp.cpp **** }
 1298              		.loc 1 129 12 is_stmt 0
 1299 04b0 17050000 		ld	a0,.LANCHOR0+8
 1299      03350500 
 130:src/syscall_cpp.cpp **** 
 1300              		.loc 1 130 1
 1301 04b8 67800000 		ret
 1302              	.L91:
 121:src/syscall_cpp.cpp ****     if(scheduler == 0)
 1303              		.loc 1 121 38
 1304 04bc 130101FE 		addi	sp,sp,-32
 1305              		.cfi_def_cfa_offset 32
 1306 04c0 233C1100 		sd	ra,24(sp)
 1307 04c4 23388100 		sd	s0,16(sp)
 1308 04c8 23349100 		sd	s1,8(sp)
 1309 04cc 23302101 		sd	s2,0(sp)
 1310              		.cfi_offset 1, -8
 1311              		.cfi_offset 8, -16
 1312              		.cfi_offset 9, -24
 1313              		.cfi_offset 18, -32
 1314 04d0 13040102 		addi	s0,sp,32
 1315              		.cfi_def_cfa 8, 0
 126:src/syscall_cpp.cpp ****     }
 1316              		.loc 1 126 9 is_stmt 1
 126:src/syscall_cpp.cpp ****     }
 1317              		.loc 1 126 35 is_stmt 0
 1318 04d4 13058000 		li	a0,8
 1319              	.LEHB0:
 1320 04d8 97000000 		call	_ZN9SchedulernwEm
 1320      E7800000 
 1321              	.LVL88:
 1322              	.LEHE0:
 1323 04e0 93040500 		mv	s1,a0
 1324              	.LEHB1:
 1325 04e4 97000000 		call	_ZN9SchedulerC1Ev
 1325      E7800000 
 1326              	.LVL89:
 1327              	.LEHE1:
 126:src/syscall_cpp.cpp ****     }
 1328              		.loc 1 126 19
 1329 04ec 97070000 		sd	s1,.LANCHOR0+8,a5
 1329      23B09700 
 129:src/syscall_cpp.cpp **** }
 1330              		.loc 1 129 5 is_stmt 1
 129:src/syscall_cpp.cpp **** }
 1331              		.loc 1 129 12 is_stmt 0
 1332 04f4 17050000 		ld	a0,.LANCHOR0+8
 1332      03350500 
 130:src/syscall_cpp.cpp **** 
 1333              		.loc 1 130 1
 1334 04fc 83308101 		ld	ra,24(sp)
 1335              		.cfi_remember_state
GAS LISTING /tmp/cclNG34r.s 			page 30


 1336              		.cfi_restore 1
 1337 0500 03340101 		ld	s0,16(sp)
 1338              		.cfi_restore 8
 1339              		.cfi_def_cfa 2, 32
 1340 0504 83348100 		ld	s1,8(sp)
 1341              		.cfi_restore 9
 1342 0508 03390100 		ld	s2,0(sp)
 1343              		.cfi_restore 18
 1344 050c 13010102 		addi	sp,sp,32
 1345              		.cfi_def_cfa_offset 0
 1346 0510 67800000 		jr	ra
 1347              	.L85:
 1348              		.cfi_restore_state
 1349 0514 13090500 		mv	s2,a0
 126:src/syscall_cpp.cpp ****     }
 1350              		.loc 1 126 35
 1351 0518 13850400 		mv	a0,s1
 1352 051c 97000000 		call	_ZN9SchedulerdlEPv
 1352      E7800000 
 1353              	.LVL90:
 1354 0524 13050900 		mv	a0,s2
 1355              	.LEHB2:
 1356 0528 97000000 		call	_Unwind_Resume@plt
 1356      E7800000 
 1357              	.LVL91:
 1358              	.LEHE2:
 1359              		.cfi_endproc
 1360              	.LFE20:
 1361              		.section	.gcc_except_table
 1362              	.LLSDA20:
 1363 0004 FF       		.byte	0xff
 1364 0005 FF       		.byte	0xff
 1365 0006 03       		.byte	0x3
 1366 0007 27       		.byte	0x27
 1367 0008 00000000 		.4byte	.LEHB0-.LFB20
 1368 000c 00000000 		.4byte	.LEHE0-.LEHB0
 1369 0010 00000000 		.4byte	0
 1370 0014 00       		.byte	0
 1371 0015 00000000 		.4byte	.LEHB1-.LFB20
 1372 0019 00000000 		.4byte	.LEHE1-.LEHB1
 1373 001d 00000000 		.4byte	.L85-.LFB20
 1374 0021 00       		.byte	0
 1375 0022 00000000 		.4byte	.LEHB2-.LFB20
 1376 0026 00000000 		.4byte	.LEHE2-.LEHB2
 1377 002a 00000000 		.4byte	0
 1378 002e 00       		.byte	0
 1379              		.text
 1381              		.align	2
 1382              		.globl	_ZN3PCB5startEv
 1384              	_ZN3PCB5startEv:
 1385              	.LFB47:
 230:src/syscall_cpp.cpp ****     Scheduler::getScheduler()->put(this);
 1386              		.loc 1 230 1 is_stmt 1
 1387              		.cfi_startproc
 1388              	.LVL92:
 1389 0530 130101FE 		addi	sp,sp,-32
 1390              		.cfi_def_cfa_offset 32
GAS LISTING /tmp/cclNG34r.s 			page 31


 1391 0534 233C1100 		sd	ra,24(sp)
 1392 0538 23388100 		sd	s0,16(sp)
 1393 053c 23349100 		sd	s1,8(sp)
 1394              		.cfi_offset 1, -8
 1395              		.cfi_offset 8, -16
 1396              		.cfi_offset 9, -24
 1397 0540 13040102 		addi	s0,sp,32
 1398              		.cfi_def_cfa 8, 0
 1399 0544 93040500 		mv	s1,a0
 231:src/syscall_cpp.cpp **** }
 1400              		.loc 1 231 5
 231:src/syscall_cpp.cpp **** }
 1401              		.loc 1 231 35 is_stmt 0
 1402 0548 97000000 		call	_ZN9Scheduler12getSchedulerEv
 1402      E7800000 
 1403              	.LVL93:
 1404 0550 93850400 		mv	a1,s1
 1405 0554 97000000 		call	_ZN9Scheduler3putEP3PCB
 1405      E7800000 
 1406              	.LVL94:
 232:src/syscall_cpp.cpp **** 
 1407              		.loc 1 232 1
 1408 055c 83308101 		ld	ra,24(sp)
 1409              		.cfi_restore 1
 1410 0560 03340101 		ld	s0,16(sp)
 1411              		.cfi_restore 8
 1412              		.cfi_def_cfa 2, 32
 1413 0564 83348100 		ld	s1,8(sp)
 1414              		.cfi_restore 9
 1415              	.LVL95:
 1416 0568 13010102 		addi	sp,sp,32
 1417              		.cfi_def_cfa_offset 0
 1418 056c 67800000 		jr	ra
 1419              		.cfi_endproc
 1420              	.LFE47:
 1422              		.align	2
 1423              		.globl	_ZN6Thread5startEv
 1425              	_ZN6Thread5startEv:
 1426              	.LFB34:
 177:src/syscall_cpp.cpp ****     threadPCB->start();
 1427              		.loc 1 177 22 is_stmt 1
 1428              		.cfi_startproc
 1429              	.LVL96:
 1430 0570 130101FF 		addi	sp,sp,-16
 1431              		.cfi_def_cfa_offset 16
 1432 0574 23341100 		sd	ra,8(sp)
 1433 0578 23308100 		sd	s0,0(sp)
 1434              		.cfi_offset 1, -8
 1435              		.cfi_offset 8, -16
 1436 057c 13040101 		addi	s0,sp,16
 1437              		.cfi_def_cfa 8, 0
 178:src/syscall_cpp.cpp **** }
 1438              		.loc 1 178 5
 178:src/syscall_cpp.cpp **** }
 1439              		.loc 1 178 21 is_stmt 0
 1440 0580 03350502 		ld	a0,32(a0)
 1441              	.LVL97:
GAS LISTING /tmp/cclNG34r.s 			page 32


 1442 0584 97000000 		call	_ZN3PCB5startEv
 1442      E7800000 
 1443              	.LVL98:
 179:src/syscall_cpp.cpp **** 
 1444              		.loc 1 179 1
 1445 058c 83308100 		ld	ra,8(sp)
 1446              		.cfi_restore 1
 1447 0590 03340100 		ld	s0,0(sp)
 1448              		.cfi_restore 8
 1449              		.cfi_def_cfa 2, 16
 1450 0594 13010101 		addi	sp,sp,16
 1451              		.cfi_def_cfa_offset 0
 1452 0598 67800000 		jr	ra
 1453              		.cfi_endproc
 1454              	.LFE34:
 1456              		.globl	_ZN6System10runningPCBE
 1457              		.globl	_ZN9Scheduler9schedulerE
 1458              		.globl	_ZN15MemoryAllocator15memoryAllocatorE
 1459              		.bss
 1460              		.align	3
 1461              		.set	.LANCHOR0,. + 0
 1464              	_ZN15MemoryAllocator15memoryAllocatorE:
 1465 0000 00000000 		.zero	8
 1465      00000000 
 1468              	_ZN9Scheduler9schedulerE:
 1469 0008 00000000 		.zero	8
 1469      00000000 
 1472              	_ZN6System10runningPCBE:
 1473 0010 00000000 		.zero	8
 1473      00000000 
 1474              		.text
 1475              	.Letext0:
 1476              		.file 2 "src/../h/../lib/hw.h"
 1477              		.file 3 "src/../h/syscall_cpp.h"
 1478              		.file 4 "src/../h/syscall_c.h"
 5625              		.align	3
 5628              	DW.ref.__gxx_personality_v0:
 5629 0000 00000000 		.dword	__gxx_personality_v0
 5629      00000000 
 5630              		.ident	"GCC: (Ubuntu 9.3.0-17ubuntu1~20.04) 9.3.0"
 5631              		.section	.note.GNU-stack,"",@progbits
GAS LISTING /tmp/cclNG34r.s 			page 33


DEFINED SYMBOLS
                            *ABS*:0000000000000000 syscall_cpp.cpp
     /tmp/cclNG34r.s:9      .text:0000000000000000 _Znwm
     /tmp/cclNG34r.s:13     .text:0000000000000000 .L0 
     /tmp/cclNG34r.s:15     .text:0000000000000000 .L0 
     /tmp/cclNG34r.s:16     .text:0000000000000004 .L0 
     /tmp/cclNG34r.s:19     .text:000000000000000c .L0 
     /tmp/cclNG34r.s:20     .text:000000000000000c .L0 
     /tmp/cclNG34r.s:22     .text:0000000000000010 .L0 
     /tmp/cclNG34r.s:24     .text:0000000000000010 .L0 
     /tmp/cclNG34r.s:25     .text:0000000000000010 .L0 
     /tmp/cclNG34r.s:28     .text:0000000000000018 .L0 
     /tmp/cclNG34r.s:29     .text:000000000000001c .L0 
     /tmp/cclNG34r.s:31     .text:0000000000000020 .L0 
     /tmp/cclNG34r.s:32     .text:0000000000000020 .L0 
     /tmp/cclNG34r.s:34     .text:0000000000000024 .L0 
     /tmp/cclNG34r.s:36     .text:0000000000000028 .L0 
     /tmp/cclNG34r.s:42     .text:0000000000000028 _ZdlPv
     /tmp/cclNG34r.s:45     .text:0000000000000028 .L0 
     /tmp/cclNG34r.s:47     .text:0000000000000028 .L0 
     /tmp/cclNG34r.s:48     .text:000000000000002c .L0 
     /tmp/cclNG34r.s:51     .text:0000000000000034 .L0 
     /tmp/cclNG34r.s:52     .text:0000000000000034 .L0 
     /tmp/cclNG34r.s:54     .text:0000000000000038 .L0 
     /tmp/cclNG34r.s:56     .text:0000000000000038 .L0 
     /tmp/cclNG34r.s:57     .text:0000000000000038 .L0 
     /tmp/cclNG34r.s:60     .text:0000000000000040 .L0 
     /tmp/cclNG34r.s:61     .text:0000000000000044 .L0 
     /tmp/cclNG34r.s:63     .text:0000000000000048 .L0 
     /tmp/cclNG34r.s:64     .text:0000000000000048 .L0 
     /tmp/cclNG34r.s:66     .text:000000000000004c .L0 
     /tmp/cclNG34r.s:68     .text:0000000000000050 .L0 
     /tmp/cclNG34r.s:74     .text:0000000000000050 _ZN15MemoryAllocatorC2Ev
     /tmp/cclNG34r.s:77     .text:0000000000000050 .L0 
     /tmp/cclNG34r.s:79     .text:0000000000000050 .L0 
     /tmp/cclNG34r.s:80     .text:0000000000000054 .L0 
     /tmp/cclNG34r.s:82     .text:0000000000000058 .L0 
     /tmp/cclNG34r.s:84     .text:000000000000005c .L0 
     /tmp/cclNG34r.s:86     .text:000000000000005c .L0 
     /tmp/cclNG34r.s:87     .text:0000000000000060 .L0 
     /tmp/cclNG34r.s:88     .text:0000000000000060 .L0 
     /tmp/cclNG34r.s:90     .text:0000000000000064 .L0 
     /tmp/cclNG34r.s:92     .text:0000000000000068 .L0 
     /tmp/cclNG34r.s:74     .text:0000000000000050 _ZN15MemoryAllocatorC1Ev
     /tmp/cclNG34r.s:100    .text:0000000000000068 _ZN15MemoryAllocator9mem_allocEm
     /tmp/cclNG34r.s:103    .text:0000000000000068 .L0 
     /tmp/cclNG34r.s:105    .text:0000000000000068 .L0 
     /tmp/cclNG34r.s:106    .text:000000000000006c .L0 
     /tmp/cclNG34r.s:109    .text:0000000000000074 .L0 
     /tmp/cclNG34r.s:110    .text:0000000000000074 .L0 
     /tmp/cclNG34r.s:112    .text:0000000000000078 .L0 
     /tmp/cclNG34r.s:114    .text:0000000000000078 .L0 
     /tmp/cclNG34r.s:115    .text:0000000000000078 .L0 
     /tmp/cclNG34r.s:120    .text:0000000000000084 .L0 
     /tmp/cclNG34r.s:121    .text:0000000000000088 .L0 
     /tmp/cclNG34r.s:123    .text:000000000000008c .L0 
     /tmp/cclNG34r.s:124    .text:000000000000008c .L0 
GAS LISTING /tmp/cclNG34r.s 			page 34


     /tmp/cclNG34r.s:126    .text:0000000000000090 .L0 
     /tmp/cclNG34r.s:128    .text:0000000000000094 .L0 
     /tmp/cclNG34r.s:134    .text:0000000000000094 _ZN15MemoryAllocator8mem_freeEPv
     /tmp/cclNG34r.s:137    .text:0000000000000094 .L0 
     /tmp/cclNG34r.s:139    .text:0000000000000094 .L0 
     /tmp/cclNG34r.s:140    .text:0000000000000098 .L0 
     /tmp/cclNG34r.s:143    .text:00000000000000a0 .L0 
     /tmp/cclNG34r.s:144    .text:00000000000000a0 .L0 
     /tmp/cclNG34r.s:146    .text:00000000000000a4 .L0 
     /tmp/cclNG34r.s:148    .text:00000000000000a4 .L0 
     /tmp/cclNG34r.s:149    .text:00000000000000a4 .L0 
     /tmp/cclNG34r.s:154    .text:00000000000000b0 .L0 
     /tmp/cclNG34r.s:155    .text:00000000000000b4 .L0 
     /tmp/cclNG34r.s:157    .text:00000000000000b8 .L0 
     /tmp/cclNG34r.s:158    .text:00000000000000b8 .L0 
     /tmp/cclNG34r.s:160    .text:00000000000000bc .L0 
     /tmp/cclNG34r.s:162    .text:00000000000000c0 .L0 
     /tmp/cclNG34r.s:168    .text:00000000000000c0 _ZN15MemoryAllocatorD2Ev
     /tmp/cclNG34r.s:171    .text:00000000000000c0 .L0 
     /tmp/cclNG34r.s:173    .text:00000000000000c0 .L0 
     /tmp/cclNG34r.s:174    .text:00000000000000c4 .L0 
     /tmp/cclNG34r.s:176    .text:00000000000000c8 .L0 
     /tmp/cclNG34r.s:178    .text:00000000000000cc .L0 
     /tmp/cclNG34r.s:180    .text:00000000000000cc .L0 
     /tmp/cclNG34r.s:181    .text:00000000000000d0 .L0 
     /tmp/cclNG34r.s:182    .text:00000000000000d0 .L0 
     /tmp/cclNG34r.s:184    .text:00000000000000d4 .L0 
     /tmp/cclNG34r.s:186    .text:00000000000000d8 .L0 
     /tmp/cclNG34r.s:168    .text:00000000000000c0 _ZN15MemoryAllocatorD1Ev
     /tmp/cclNG34r.s:194    .text:00000000000000d8 _ZN15MemoryAllocatornwEm
     /tmp/cclNG34r.s:197    .text:00000000000000d8 .L0 
     /tmp/cclNG34r.s:199    .text:00000000000000d8 .L0 
     /tmp/cclNG34r.s:200    .text:00000000000000dc .L0 
     /tmp/cclNG34r.s:203    .text:00000000000000e4 .L0 
     /tmp/cclNG34r.s:204    .text:00000000000000e4 .L0 
     /tmp/cclNG34r.s:206    .text:00000000000000e8 .L0 
     /tmp/cclNG34r.s:208    .text:00000000000000e8 .L0 
     /tmp/cclNG34r.s:209    .text:00000000000000e8 .L0 
     /tmp/cclNG34r.s:212    .text:00000000000000f0 .L0 
     /tmp/cclNG34r.s:213    .text:00000000000000f4 .L0 
     /tmp/cclNG34r.s:215    .text:00000000000000f8 .L0 
     /tmp/cclNG34r.s:216    .text:00000000000000f8 .L0 
     /tmp/cclNG34r.s:218    .text:00000000000000fc .L0 
     /tmp/cclNG34r.s:220    .text:0000000000000100 .L0 
     /tmp/cclNG34r.s:226    .text:0000000000000100 _ZN15MemoryAllocator18getMemoryAllocatorEv
     /tmp/cclNG34r.s:229    .text:0000000000000100 .L0 
     /tmp/cclNG34r.s:230    .text:0000000000000100 .L0 
     /tmp/cclNG34r.s:231    .text:0000000000000100 .L0 
     /tmp/cclNG34r.s:232    .text:0000000000000100 .L0 
     /tmp/cclNG34r.s:234    .text:0000000000000108 .L0 
     /tmp/cclNG34r.s:236    .text:000000000000010c .L0 
     /tmp/cclNG34r.s:237    .text:000000000000010c .L0 
     /tmp/cclNG34r.s:241    .text:0000000000000118 .L0 
     /tmp/cclNG34r.s:242    .text:000000000000011c .L0 
     /tmp/cclNG34r.s:245    .text:0000000000000124 .L0 
     /tmp/cclNG34r.s:246    .text:0000000000000124 .L0 
     /tmp/cclNG34r.s:248    .text:0000000000000128 .L0 
GAS LISTING /tmp/cclNG34r.s 			page 35


     /tmp/cclNG34r.s:250    .text:0000000000000128 .L0 
     /tmp/cclNG34r.s:251    .text:0000000000000128 .L0 
     /tmp/cclNG34r.s:255    .text:0000000000000134 .L0 
     /tmp/cclNG34r.s:257    .text:000000000000013c .L0 
     /tmp/cclNG34r.s:258    .text:000000000000013c .L0 
     /tmp/cclNG34r.s:260    .text:0000000000000148 .L0 
     /tmp/cclNG34r.s:262    .text:000000000000014c .L0 
     /tmp/cclNG34r.s:263    .text:000000000000014c .L0 
     /tmp/cclNG34r.s:265    .text:0000000000000150 .L0 
     /tmp/cclNG34r.s:267    .text:0000000000000154 .L0 
     /tmp/cclNG34r.s:273    .text:0000000000000154 _ZN15MemoryAllocatordlEPv
     /tmp/cclNG34r.s:276    .text:0000000000000154 .L0 
     /tmp/cclNG34r.s:278    .text:0000000000000154 .L0 
     /tmp/cclNG34r.s:279    .text:0000000000000158 .L0 
     /tmp/cclNG34r.s:282    .text:0000000000000160 .L0 
     /tmp/cclNG34r.s:283    .text:0000000000000160 .L0 
     /tmp/cclNG34r.s:285    .text:0000000000000164 .L0 
     /tmp/cclNG34r.s:287    .text:0000000000000164 .L0 
     /tmp/cclNG34r.s:288    .text:0000000000000164 .L0 
     /tmp/cclNG34r.s:291    .text:000000000000016c .L0 
     /tmp/cclNG34r.s:292    .text:0000000000000170 .L0 
     /tmp/cclNG34r.s:294    .text:0000000000000174 .L0 
     /tmp/cclNG34r.s:295    .text:0000000000000174 .L0 
     /tmp/cclNG34r.s:297    .text:0000000000000178 .L0 
     /tmp/cclNG34r.s:299    .text:000000000000017c .L0 
     /tmp/cclNG34r.s:305    .text:000000000000017c _ZN9SchedulernwEm
     /tmp/cclNG34r.s:308    .text:000000000000017c .L0 
     /tmp/cclNG34r.s:310    .text:000000000000017c .L0 
     /tmp/cclNG34r.s:311    .text:0000000000000180 .L0 
     /tmp/cclNG34r.s:314    .text:0000000000000188 .L0 
     /tmp/cclNG34r.s:315    .text:0000000000000188 .L0 
     /tmp/cclNG34r.s:317    .text:000000000000018c .L0 
     /tmp/cclNG34r.s:319    .text:000000000000018c .L0 
     /tmp/cclNG34r.s:320    .text:000000000000018c .L0 
     /tmp/cclNG34r.s:325    .text:0000000000000198 .L0 
     /tmp/cclNG34r.s:326    .text:000000000000019c .L0 
     /tmp/cclNG34r.s:328    .text:00000000000001a0 .L0 
     /tmp/cclNG34r.s:329    .text:00000000000001a0 .L0 
     /tmp/cclNG34r.s:331    .text:00000000000001a4 .L0 
     /tmp/cclNG34r.s:333    .text:00000000000001a8 .L0 
     /tmp/cclNG34r.s:339    .text:00000000000001a8 _ZN9SchedulerdlEPv
     /tmp/cclNG34r.s:342    .text:00000000000001a8 .L0 
     /tmp/cclNG34r.s:344    .text:00000000000001a8 .L0 
     /tmp/cclNG34r.s:345    .text:00000000000001ac .L0 
     /tmp/cclNG34r.s:348    .text:00000000000001b4 .L0 
     /tmp/cclNG34r.s:349    .text:00000000000001b4 .L0 
     /tmp/cclNG34r.s:351    .text:00000000000001b8 .L0 
     /tmp/cclNG34r.s:353    .text:00000000000001b8 .L0 
     /tmp/cclNG34r.s:354    .text:00000000000001b8 .L0 
     /tmp/cclNG34r.s:357    .text:00000000000001c0 .L0 
     /tmp/cclNG34r.s:358    .text:00000000000001c4 .L0 
     /tmp/cclNG34r.s:360    .text:00000000000001c8 .L0 
     /tmp/cclNG34r.s:361    .text:00000000000001c8 .L0 
     /tmp/cclNG34r.s:363    .text:00000000000001cc .L0 
     /tmp/cclNG34r.s:365    .text:00000000000001d0 .L0 
     /tmp/cclNG34r.s:371    .text:00000000000001d0 _ZN6ThreadC2EPFvPvES0_
     /tmp/cclNG34r.s:374    .text:00000000000001d0 .L0 
GAS LISTING /tmp/cclNG34r.s 			page 36


     /tmp/cclNG34r.s:376    .text:00000000000001d0 .L0 
     /tmp/cclNG34r.s:377    .text:00000000000001d4 .L0 
     /tmp/cclNG34r.s:379    .text:00000000000001d8 .L0 
     /tmp/cclNG34r.s:381    .text:00000000000001dc .L0 
     /tmp/cclNG34r.s:384    .text:00000000000001dc .L0 
     /tmp/cclNG34r.s:385    .text:00000000000001dc .L0 
     /tmp/cclNG34r.s:387    .text:00000000000001e0 .L0 
     /tmp/cclNG34r.s:388    .text:00000000000001e0 .L0 
     /tmp/cclNG34r.s:391    .text:00000000000001e4 .L0 
     /tmp/cclNG34r.s:392    .text:00000000000001e8 .L0 
     /tmp/cclNG34r.s:393    .text:00000000000001e8 .L0 
     /tmp/cclNG34r.s:395    .text:00000000000001ec .L0 
     /tmp/cclNG34r.s:397    .text:00000000000001f0 .L0 
     /tmp/cclNG34r.s:371    .text:00000000000001d0 _ZN6ThreadC1EPFvPvES0_
     /tmp/cclNG34r.s:405    .text:00000000000001f0 _ZN6Thread8dispatchEv
     /tmp/cclNG34r.s:408    .text:00000000000001f0 .L0 
     /tmp/cclNG34r.s:409    .text:00000000000001f0 .L0 
     /tmp/cclNG34r.s:410    .text:00000000000001f4 .L0 
     /tmp/cclNG34r.s:412    .text:00000000000001f8 .L0 
     /tmp/cclNG34r.s:414    .text:00000000000001fc .L0 
     /tmp/cclNG34r.s:416    .text:00000000000001fc .L0 
     /tmp/cclNG34r.s:417    .text:0000000000000200 .L0 
     /tmp/cclNG34r.s:418    .text:0000000000000200 .L0 
     /tmp/cclNG34r.s:420    .text:0000000000000204 .L0 
     /tmp/cclNG34r.s:422    .text:0000000000000208 .L0 
     /tmp/cclNG34r.s:428    .text:0000000000000208 _ZN6Thread5sleepEm
     /tmp/cclNG34r.s:431    .text:0000000000000208 .L0 
     /tmp/cclNG34r.s:433    .text:0000000000000208 .L0 
     /tmp/cclNG34r.s:434    .text:000000000000020c .L0 
     /tmp/cclNG34r.s:436    .text:0000000000000210 .L0 
     /tmp/cclNG34r.s:438    .text:0000000000000214 .L0 
     /tmp/cclNG34r.s:440    .text:0000000000000214 .L0 
     /tmp/cclNG34r.s:441    .text:0000000000000218 .L0 
     /tmp/cclNG34r.s:442    .text:0000000000000218 .L0 
     /tmp/cclNG34r.s:444    .text:000000000000021c .L0 
     /tmp/cclNG34r.s:446    .text:0000000000000220 .L0 
     /tmp/cclNG34r.s:452    .text:0000000000000220 _ZN6ThreadC2Ev
     /tmp/cclNG34r.s:455    .text:0000000000000220 .L0 
     /tmp/cclNG34r.s:457    .text:0000000000000220 .L0 
     /tmp/cclNG34r.s:458    .text:0000000000000224 .L0 
     /tmp/cclNG34r.s:460    .text:0000000000000228 .L0 
     /tmp/cclNG34r.s:462    .text:000000000000022c .L0 
     /tmp/cclNG34r.s:464    .text:000000000000022c .L0 
     /tmp/cclNG34r.s:465    .text:0000000000000230 .L0 
     /tmp/cclNG34r.s:466    .text:0000000000000230 .L0 
     /tmp/cclNG34r.s:468    .text:0000000000000234 .L0 
     /tmp/cclNG34r.s:470    .text:0000000000000238 .L0 
     /tmp/cclNG34r.s:452    .text:0000000000000220 _ZN6ThreadC1Ev
     /tmp/cclNG34r.s:478    .text:0000000000000238 _ZN6ThreaddlEPv
     /tmp/cclNG34r.s:481    .text:0000000000000238 .L0 
     /tmp/cclNG34r.s:483    .text:0000000000000238 .L0 
     /tmp/cclNG34r.s:484    .text:000000000000023c .L0 
     /tmp/cclNG34r.s:487    .text:0000000000000244 .L0 
     /tmp/cclNG34r.s:488    .text:0000000000000244 .L0 
     /tmp/cclNG34r.s:490    .text:0000000000000248 .L0 
     /tmp/cclNG34r.s:492    .text:0000000000000248 .L0 
     /tmp/cclNG34r.s:493    .text:0000000000000248 .L0 
GAS LISTING /tmp/cclNG34r.s 			page 37


     /tmp/cclNG34r.s:496    .text:0000000000000250 .L0 
     /tmp/cclNG34r.s:497    .text:0000000000000254 .L0 
     /tmp/cclNG34r.s:499    .text:0000000000000258 .L0 
     /tmp/cclNG34r.s:500    .text:0000000000000258 .L0 
     /tmp/cclNG34r.s:502    .text:000000000000025c .L0 
     /tmp/cclNG34r.s:504    .text:0000000000000260 .L0 
     /tmp/cclNG34r.s:510    .text:0000000000000260 _ZN3PCBC2EPFvPvES0_mm
     /tmp/cclNG34r.s:513    .text:0000000000000260 .L0 
     /tmp/cclNG34r.s:515    .text:0000000000000260 .L0 
     /tmp/cclNG34r.s:516    .text:0000000000000264 .L0 
     /tmp/cclNG34r.s:523    .text:000000000000027c .L0 
     /tmp/cclNG34r.s:524    .text:000000000000027c .L0 
     /tmp/cclNG34r.s:525    .text:000000000000027c .L0 
     /tmp/cclNG34r.s:526    .text:000000000000027c .L0 
     /tmp/cclNG34r.s:527    .text:000000000000027c .L0 
     /tmp/cclNG34r.s:528    .text:000000000000027c .L0 
     /tmp/cclNG34r.s:530    .text:0000000000000280 .L0 
     /tmp/cclNG34r.s:536    .text:000000000000028c .L0 
     /tmp/cclNG34r.s:537    .text:000000000000028c .L0 
     /tmp/cclNG34r.s:539    .text:0000000000000290 .L0 
     /tmp/cclNG34r.s:540    .text:0000000000000290 .L0 
     /tmp/cclNG34r.s:542    .text:0000000000000294 .L0 
     /tmp/cclNG34r.s:543    .text:0000000000000294 .L0 
     /tmp/cclNG34r.s:553    .text:00000000000002b4 .L0 
     /tmp/cclNG34r.s:555    .text:00000000000002b8 .L0 
     /tmp/cclNG34r.s:556    .text:00000000000002b8 .L0 
     /tmp/cclNG34r.s:559    .text:00000000000002bc .L0 
     /tmp/cclNG34r.s:560    .text:00000000000002c0 .L0 
     /tmp/cclNG34r.s:562    .text:00000000000002c4 .L0 
     /tmp/cclNG34r.s:563    .text:00000000000002c4 .L0 
     /tmp/cclNG34r.s:565    .text:00000000000002c8 .L0 
     /tmp/cclNG34r.s:568    .text:00000000000002cc .L0 
     /tmp/cclNG34r.s:570    .text:00000000000002d0 .L0 
     /tmp/cclNG34r.s:573    .text:00000000000002d4 .L0 
     /tmp/cclNG34r.s:576    .text:00000000000002d8 .L0 
     /tmp/cclNG34r.s:578    .text:00000000000002dc .L0 
     /tmp/cclNG34r.s:510    .text:0000000000000260 _ZN3PCBC1EPFvPvES0_mm
     /tmp/cclNG34r.s:586    .text:00000000000002dc _ZN3PCBD2Ev
     /tmp/cclNG34r.s:589    .text:00000000000002dc .L0 
     /tmp/cclNG34r.s:591    .text:00000000000002dc .L0 
     /tmp/cclNG34r.s:592    .text:00000000000002e0 .L0 
     /tmp/cclNG34r.s:594    .text:00000000000002e4 .L0 
     /tmp/cclNG34r.s:596    .text:00000000000002e8 .L0 
     /tmp/cclNG34r.s:598    .text:00000000000002e8 .L0 
     /tmp/cclNG34r.s:599    .text:00000000000002ec .L0 
     /tmp/cclNG34r.s:600    .text:00000000000002ec .L0 
     /tmp/cclNG34r.s:602    .text:00000000000002f0 .L0 
     /tmp/cclNG34r.s:604    .text:00000000000002f4 .L0 
     /tmp/cclNG34r.s:586    .text:00000000000002dc _ZN3PCBD1Ev
     /tmp/cclNG34r.s:612    .text:00000000000002f4 _ZN3PCB6runnerEPv
     /tmp/cclNG34r.s:615    .text:00000000000002f4 .L0 
     /tmp/cclNG34r.s:617    .text:00000000000002f4 .L0 
     /tmp/cclNG34r.s:618    .text:00000000000002f8 .L0 
     /tmp/cclNG34r.s:620    .text:00000000000002fc .L0 
     /tmp/cclNG34r.s:622    .text:0000000000000300 .L0 
     /tmp/cclNG34r.s:624    .text:0000000000000300 .L0 
     /tmp/cclNG34r.s:625    .text:0000000000000304 .L0 
GAS LISTING /tmp/cclNG34r.s 			page 38


     /tmp/cclNG34r.s:626    .text:0000000000000304 .L0 
     /tmp/cclNG34r.s:628    .text:0000000000000308 .L0 
     /tmp/cclNG34r.s:630    .text:000000000000030c .L0 
     /tmp/cclNG34r.s:636    .text:000000000000030c _ZN3PCBnwEm
     /tmp/cclNG34r.s:639    .text:000000000000030c .L0 
     /tmp/cclNG34r.s:641    .text:000000000000030c .L0 
     /tmp/cclNG34r.s:642    .text:0000000000000310 .L0 
     /tmp/cclNG34r.s:645    .text:0000000000000318 .L0 
     /tmp/cclNG34r.s:646    .text:0000000000000318 .L0 
     /tmp/cclNG34r.s:648    .text:000000000000031c .L0 
     /tmp/cclNG34r.s:650    .text:000000000000031c .L0 
     /tmp/cclNG34r.s:651    .text:000000000000031c .L0 
     /tmp/cclNG34r.s:656    .text:0000000000000328 .L0 
     /tmp/cclNG34r.s:657    .text:000000000000032c .L0 
     /tmp/cclNG34r.s:659    .text:0000000000000330 .L0 
     /tmp/cclNG34r.s:660    .text:0000000000000330 .L0 
     /tmp/cclNG34r.s:662    .text:0000000000000334 .L0 
     /tmp/cclNG34r.s:664    .text:0000000000000338 .L0 
     /tmp/cclNG34r.s:670    .text:0000000000000338 _ZN3PCBdlEPv
     /tmp/cclNG34r.s:673    .text:0000000000000338 .L0 
     /tmp/cclNG34r.s:675    .text:0000000000000338 .L0 
     /tmp/cclNG34r.s:676    .text:000000000000033c .L0 
     /tmp/cclNG34r.s:678    .text:0000000000000340 .L0 
     /tmp/cclNG34r.s:680    .text:0000000000000344 .L0 
     /tmp/cclNG34r.s:682    .text:0000000000000344 .L0 
     /tmp/cclNG34r.s:683    .text:0000000000000348 .L0 
     /tmp/cclNG34r.s:684    .text:0000000000000348 .L0 
     /tmp/cclNG34r.s:686    .text:000000000000034c .L0 
     /tmp/cclNG34r.s:688    .text:0000000000000350 .L0 
     /tmp/cclNG34r.s:694    .text:0000000000000350 _ZN6System10initSystemEv
     /tmp/cclNG34r.s:697    .text:0000000000000350 .L0 
     /tmp/cclNG34r.s:698    .text:0000000000000350 .L0 
     /tmp/cclNG34r.s:699    .text:0000000000000354 .L0 
     /tmp/cclNG34r.s:701    .text:0000000000000358 .L0 
     /tmp/cclNG34r.s:703    .text:000000000000035c .L0 
     /tmp/cclNG34r.s:705    .text:000000000000035c .L0 
     /tmp/cclNG34r.s:706    .text:000000000000035c .L0 
     /tmp/cclNG34r.s:713    .text:0000000000000368 .L0 
     /tmp/cclNG34r.s:714    .text:000000000000036c .L0 
     /tmp/cclNG34r.s:715    .text:000000000000036c .L0 
     /tmp/cclNG34r.s:717    .text:0000000000000370 .L0 
     /tmp/cclNG34r.s:719    .text:0000000000000374 .L0 
     /tmp/cclNG34r.s:725    .text:0000000000000374 _ZN6SystemC2Ev
     /tmp/cclNG34r.s:728    .text:0000000000000374 .L0 
     /tmp/cclNG34r.s:730    .text:0000000000000374 .L0 
     /tmp/cclNG34r.s:731    .text:0000000000000378 .L0 
     /tmp/cclNG34r.s:733    .text:000000000000037c .L0 
     /tmp/cclNG34r.s:735    .text:0000000000000380 .L0 
     /tmp/cclNG34r.s:737    .text:0000000000000380 .L0 
     /tmp/cclNG34r.s:738    .text:0000000000000384 .L0 
     /tmp/cclNG34r.s:739    .text:0000000000000384 .L0 
     /tmp/cclNG34r.s:741    .text:0000000000000388 .L0 
     /tmp/cclNG34r.s:743    .text:000000000000038c .L0 
     /tmp/cclNG34r.s:725    .text:0000000000000374 _ZN6SystemC1Ev
     /tmp/cclNG34r.s:752    .text._ZN5QueueIP3PCBE4pushES1_:0000000000000000 _ZN5QueueIP3PCBE4pushES1_
     /tmp/cclNG34r.s:755    .text._ZN5QueueIP3PCBE4pushES1_:0000000000000000 .L0 
     /tmp/cclNG34r.s:757    .text._ZN5QueueIP3PCBE4pushES1_:0000000000000000 .L0 
GAS LISTING /tmp/cclNG34r.s 			page 39


     /tmp/cclNG34r.s:758    .text._ZN5QueueIP3PCBE4pushES1_:0000000000000004 .L0 
     /tmp/cclNG34r.s:762    .text._ZN5QueueIP3PCBE4pushES1_:0000000000000010 .L0 
     /tmp/cclNG34r.s:763    .text._ZN5QueueIP3PCBE4pushES1_:0000000000000010 .L0 
     /tmp/cclNG34r.s:764    .text._ZN5QueueIP3PCBE4pushES1_:0000000000000010 .L0 
     /tmp/cclNG34r.s:766    .text._ZN5QueueIP3PCBE4pushES1_:0000000000000014 .L0 
     /tmp/cclNG34r.s:769    .text._ZN5QueueIP3PCBE4pushES1_:0000000000000018 .L0 
     /tmp/cclNG34r.s:775    .text._ZN5QueueIP3PCBE4pushES1_:000000000000002c .L0 
     /tmp/cclNG34r.s:777    .text._ZN5QueueIP3PCBE4pushES1_:0000000000000030 .L0 
     /tmp/cclNG34r.s:780    .text._ZN5QueueIP3PCBE4pushES1_:0000000000000034 .L0 
     /tmp/cclNG34r.s:781    .text._ZN5QueueIP3PCBE4pushES1_:0000000000000038 .L0 
     /tmp/cclNG34r.s:782    .text._ZN5QueueIP3PCBE4pushES1_:0000000000000038 .L0 
     /tmp/cclNG34r.s:784    .text._ZN5QueueIP3PCBE4pushES1_:000000000000003c .L0 
     /tmp/cclNG34r.s:785    .text._ZN5QueueIP3PCBE4pushES1_:000000000000003c .L0 
     /tmp/cclNG34r.s:787    .text._ZN5QueueIP3PCBE4pushES1_:0000000000000040 .L0 
     /tmp/cclNG34r.s:790    .text._ZN5QueueIP3PCBE4pushES1_:0000000000000044 .L0 
     /tmp/cclNG34r.s:794    .text._ZN5QueueIP3PCBE4pushES1_:0000000000000048 .L0 
     /tmp/cclNG34r.s:796    .text._ZN5QueueIP3PCBE4pushES1_:0000000000000048 .L0 
     /tmp/cclNG34r.s:798    .text._ZN5QueueIP3PCBE4pushES1_:000000000000004c .L0 
     /tmp/cclNG34r.s:800    .text._ZN5QueueIP3PCBE4pushES1_:0000000000000050 .L0 
     /tmp/cclNG34r.s:802    .text._ZN5QueueIP3PCBE4pushES1_:0000000000000054 .L0 
     /tmp/cclNG34r.s:803    .text._ZN5QueueIP3PCBE4pushES1_:0000000000000058 .L0 
     /tmp/cclNG34r.s:810    .text:000000000000038c _ZN9Scheduler3putEP3PCB
     /tmp/cclNG34r.s:813    .text:000000000000038c .L0 
     /tmp/cclNG34r.s:815    .text:000000000000038c .L0 
     /tmp/cclNG34r.s:816    .text:0000000000000390 .L0 
     /tmp/cclNG34r.s:819    .text:0000000000000398 .L0 
     /tmp/cclNG34r.s:820    .text:0000000000000398 .L0 
     /tmp/cclNG34r.s:822    .text:000000000000039c .L0 
     /tmp/cclNG34r.s:824    .text:000000000000039c .L0 
     /tmp/cclNG34r.s:825    .text:000000000000039c .L0 
     /tmp/cclNG34r.s:830    .text:00000000000003a8 .L0 
     /tmp/cclNG34r.s:831    .text:00000000000003ac .L0 
     /tmp/cclNG34r.s:833    .text:00000000000003b0 .L0 
     /tmp/cclNG34r.s:834    .text:00000000000003b0 .L0 
     /tmp/cclNG34r.s:836    .text:00000000000003b4 .L0 
     /tmp/cclNG34r.s:838    .text:00000000000003b8 .L0 
     /tmp/cclNG34r.s:845    .text._ZN5QueueIP3PCBE5frontEv:0000000000000000 _ZN5QueueIP3PCBE5frontEv
     /tmp/cclNG34r.s:848    .text._ZN5QueueIP3PCBE5frontEv:0000000000000000 .L0 
     /tmp/cclNG34r.s:850    .text._ZN5QueueIP3PCBE5frontEv:0000000000000000 .L0 
     /tmp/cclNG34r.s:851    .text._ZN5QueueIP3PCBE5frontEv:0000000000000004 .L0 
     /tmp/cclNG34r.s:853    .text._ZN5QueueIP3PCBE5frontEv:0000000000000008 .L0 
     /tmp/cclNG34r.s:855    .text._ZN5QueueIP3PCBE5frontEv:000000000000000c .L0 
     /tmp/cclNG34r.s:857    .text._ZN5QueueIP3PCBE5frontEv:000000000000000c .L0 
     /tmp/cclNG34r.s:860    .text._ZN5QueueIP3PCBE5frontEv:0000000000000010 .L0 
     /tmp/cclNG34r.s:862    .text._ZN5QueueIP3PCBE5frontEv:0000000000000014 .L0 
     /tmp/cclNG34r.s:865    .text._ZN5QueueIP3PCBE5frontEv:0000000000000018 .L0 
     /tmp/cclNG34r.s:866    .text._ZN5QueueIP3PCBE5frontEv:000000000000001c .L0 
     /tmp/cclNG34r.s:867    .text._ZN5QueueIP3PCBE5frontEv:000000000000001c .L0 
     /tmp/cclNG34r.s:869    .text._ZN5QueueIP3PCBE5frontEv:0000000000000020 .L0 
     /tmp/cclNG34r.s:871    .text._ZN5QueueIP3PCBE5frontEv:0000000000000024 .L0 
     /tmp/cclNG34r.s:878    .text._ZN5QueueIP3PCBE3popEv:0000000000000000 _ZN5QueueIP3PCBE3popEv
     /tmp/cclNG34r.s:881    .text._ZN5QueueIP3PCBE3popEv:0000000000000000 .L0 
     /tmp/cclNG34r.s:883    .text._ZN5QueueIP3PCBE3popEv:0000000000000000 .L0 
     /tmp/cclNG34r.s:884    .text._ZN5QueueIP3PCBE3popEv:0000000000000004 .L0 
     /tmp/cclNG34r.s:889    .text._ZN5QueueIP3PCBE3popEv:0000000000000014 .L0 
     /tmp/cclNG34r.s:890    .text._ZN5QueueIP3PCBE3popEv:0000000000000014 .L0 
     /tmp/cclNG34r.s:891    .text._ZN5QueueIP3PCBE3popEv:0000000000000014 .L0 
GAS LISTING /tmp/cclNG34r.s 			page 40


     /tmp/cclNG34r.s:892    .text._ZN5QueueIP3PCBE3popEv:0000000000000014 .L0 
     /tmp/cclNG34r.s:894    .text._ZN5QueueIP3PCBE3popEv:0000000000000018 .L0 
     /tmp/cclNG34r.s:897    .text._ZN5QueueIP3PCBE3popEv:000000000000001c .L0 
     /tmp/cclNG34r.s:899    .text._ZN5QueueIP3PCBE3popEv:0000000000000020 .L0 
     /tmp/cclNG34r.s:902    .text._ZN5QueueIP3PCBE3popEv:0000000000000024 .L0 
     /tmp/cclNG34r.s:908    .text._ZN5QueueIP3PCBE3popEv:0000000000000038 .L0 
     /tmp/cclNG34r.s:910    .text._ZN5QueueIP3PCBE3popEv:000000000000003c .L0 
     /tmp/cclNG34r.s:913    .text._ZN5QueueIP3PCBE3popEv:0000000000000040 .L0 
     /tmp/cclNG34r.s:914    .text._ZN5QueueIP3PCBE3popEv:0000000000000044 .L0 
     /tmp/cclNG34r.s:915    .text._ZN5QueueIP3PCBE3popEv:0000000000000044 .L0 
     /tmp/cclNG34r.s:917    .text._ZN5QueueIP3PCBE3popEv:0000000000000048 .L0 
     /tmp/cclNG34r.s:918    .text._ZN5QueueIP3PCBE3popEv:0000000000000048 .L0 
     /tmp/cclNG34r.s:920    .text._ZN5QueueIP3PCBE3popEv:000000000000004c .L0 
     /tmp/cclNG34r.s:923    .text._ZN5QueueIP3PCBE3popEv:0000000000000050 .L0 
     /tmp/cclNG34r.s:926    .text._ZN5QueueIP3PCBE3popEv:0000000000000054 .L0 
     /tmp/cclNG34r.s:930    .text._ZN5QueueIP3PCBE3popEv:0000000000000058 .L0 
     /tmp/cclNG34r.s:932    .text._ZN5QueueIP3PCBE3popEv:0000000000000058 .L0 
     /tmp/cclNG34r.s:935    .text._ZN5QueueIP3PCBE3popEv:0000000000000060 .L0 
     /tmp/cclNG34r.s:936    .text._ZN5QueueIP3PCBE3popEv:0000000000000064 .L0 
     /tmp/cclNG34r.s:943    .text:00000000000003b8 _ZN9Scheduler3getEv
     /tmp/cclNG34r.s:946    .text:00000000000003b8 .L0 
     /tmp/cclNG34r.s:948    .text:00000000000003b8 .L0 
     /tmp/cclNG34r.s:949    .text:00000000000003bc .L0 
     /tmp/cclNG34r.s:954    .text:00000000000003cc .L0 
     /tmp/cclNG34r.s:955    .text:00000000000003cc .L0 
     /tmp/cclNG34r.s:956    .text:00000000000003cc .L0 
     /tmp/cclNG34r.s:957    .text:00000000000003cc .L0 
     /tmp/cclNG34r.s:959    .text:00000000000003d0 .L0 
     /tmp/cclNG34r.s:961    .text:00000000000003d0 .L0 
     /tmp/cclNG34r.s:962    .text:00000000000003d0 .L0 
     /tmp/cclNG34r.s:964    .text:00000000000003d4 .L0 
     /tmp/cclNG34r.s:971    .text:00000000000003e4 .L0 
     /tmp/cclNG34r.s:972    .text:00000000000003e4 .L0 
     /tmp/cclNG34r.s:976    .text:00000000000003f0 .L0 
     /tmp/cclNG34r.s:977    .text:00000000000003f0 .L0 
     /tmp/cclNG34r.s:979    .text:00000000000003f8 .L0 
     /tmp/cclNG34r.s:981    .text:00000000000003fc .L0 
     /tmp/cclNG34r.s:982    .text:00000000000003fc .L0 
     /tmp/cclNG34r.s:984    .text:0000000000000400 .L0 
     /tmp/cclNG34r.s:987    .text:0000000000000404 .L0 
     /tmp/cclNG34r.s:989    .text:0000000000000408 .L0 
     /tmp/cclNG34r.s:991    .text:000000000000040c .L0 
     /tmp/cclNG34r.s:998    .text._ZN5QueueIP3PCBEdlEPv:0000000000000000 _ZN5QueueIP3PCBEdlEPv
     /tmp/cclNG34r.s:1001   .text._ZN5QueueIP3PCBEdlEPv:0000000000000000 .L0 
     /tmp/cclNG34r.s:1003   .text._ZN5QueueIP3PCBEdlEPv:0000000000000000 .L0 
     /tmp/cclNG34r.s:1004   .text._ZN5QueueIP3PCBEdlEPv:0000000000000004 .L0 
     /tmp/cclNG34r.s:1007   .text._ZN5QueueIP3PCBEdlEPv:000000000000000c .L0 
     /tmp/cclNG34r.s:1008   .text._ZN5QueueIP3PCBEdlEPv:000000000000000c .L0 
     /tmp/cclNG34r.s:1010   .text._ZN5QueueIP3PCBEdlEPv:0000000000000010 .L0 
     /tmp/cclNG34r.s:1012   .text._ZN5QueueIP3PCBEdlEPv:0000000000000010 .L0 
     /tmp/cclNG34r.s:1015   .text._ZN5QueueIP3PCBEdlEPv:0000000000000018 .L0 
     /tmp/cclNG34r.s:1016   .text._ZN5QueueIP3PCBEdlEPv:000000000000001c .L0 
     /tmp/cclNG34r.s:1018   .text._ZN5QueueIP3PCBEdlEPv:0000000000000020 .L0 
     /tmp/cclNG34r.s:1019   .text._ZN5QueueIP3PCBEdlEPv:0000000000000020 .L0 
     /tmp/cclNG34r.s:1021   .text._ZN5QueueIP3PCBEdlEPv:0000000000000024 .L0 
     /tmp/cclNG34r.s:1023   .text._ZN5QueueIP3PCBEdlEPv:0000000000000028 .L0 
     /tmp/cclNG34r.s:1030   .text._ZN5QueueIP3PCBED2Ev:0000000000000000 _ZN5QueueIP3PCBED2Ev
GAS LISTING /tmp/cclNG34r.s 			page 41


     /tmp/cclNG34r.s:1033   .text._ZN5QueueIP3PCBED2Ev:0000000000000000 .L0 
     /tmp/cclNG34r.s:5628   .data.rel.local.DW.ref.__gxx_personality_v0:0000000000000000 DW.ref.__gxx_personality_v0
     /tmp/cclNG34r.s:1037   .text._ZN5QueueIP3PCBED2Ev:0000000000000000 .L0 
     /tmp/cclNG34r.s:1038   .text._ZN5QueueIP3PCBED2Ev:0000000000000004 .L0 
     /tmp/cclNG34r.s:1043   .text._ZN5QueueIP3PCBED2Ev:0000000000000014 .L0 
     /tmp/cclNG34r.s:1044   .text._ZN5QueueIP3PCBED2Ev:0000000000000014 .L0 
     /tmp/cclNG34r.s:1045   .text._ZN5QueueIP3PCBED2Ev:0000000000000014 .L0 
     /tmp/cclNG34r.s:1046   .text._ZN5QueueIP3PCBED2Ev:0000000000000014 .L0 
     /tmp/cclNG34r.s:1048   .text._ZN5QueueIP3PCBED2Ev:0000000000000018 .L0 
     /tmp/cclNG34r.s:1051   .text._ZN5QueueIP3PCBED2Ev:0000000000000018 .L0 
     /tmp/cclNG34r.s:1055   .text._ZN5QueueIP3PCBED2Ev:000000000000001c .L0 
     /tmp/cclNG34r.s:1059   .text._ZN5QueueIP3PCBED2Ev:0000000000000020 .L0 
     /tmp/cclNG34r.s:1062   .text._ZN5QueueIP3PCBED2Ev:0000000000000024 .L0 
     /tmp/cclNG34r.s:1068   .text._ZN5QueueIP3PCBED2Ev:0000000000000038 .L0 
     /tmp/cclNG34r.s:1072   .text._ZN5QueueIP3PCBED2Ev:000000000000003c .L0 
     /tmp/cclNG34r.s:1077   .text._ZN5QueueIP3PCBED2Ev:0000000000000040 .L0 
     /tmp/cclNG34r.s:1078   .text._ZN5QueueIP3PCBED2Ev:0000000000000044 .L0 
     /tmp/cclNG34r.s:1080   .text._ZN5QueueIP3PCBED2Ev:0000000000000048 .L0 
     /tmp/cclNG34r.s:1081   .text._ZN5QueueIP3PCBED2Ev:0000000000000048 .L0 
     /tmp/cclNG34r.s:1083   .text._ZN5QueueIP3PCBED2Ev:000000000000004c .L0 
     /tmp/cclNG34r.s:1086   .text._ZN5QueueIP3PCBED2Ev:0000000000000050 .L0 
     /tmp/cclNG34r.s:1088   .text._ZN5QueueIP3PCBED2Ev:0000000000000054 .L0 
     /tmp/cclNG34r.s:1090   .text._ZN5QueueIP3PCBED2Ev:0000000000000058 .L0 
     /tmp/cclNG34r.s:1030   .text._ZN5QueueIP3PCBED2Ev:0000000000000000 _ZN5QueueIP3PCBED1Ev
     /tmp/cclNG34r.s:1107   .text:000000000000040c _ZN9SchedulerD2Ev
     /tmp/cclNG34r.s:1110   .text:000000000000040c .L0 
     /tmp/cclNG34r.s:1114   .text:000000000000040c .L0 
     /tmp/cclNG34r.s:1115   .text:0000000000000410 .L0 
     /tmp/cclNG34r.s:1119   .text:000000000000041c .L0 
     /tmp/cclNG34r.s:1120   .text:000000000000041c .L0 
     /tmp/cclNG34r.s:1121   .text:000000000000041c .L0 
     /tmp/cclNG34r.s:1123   .text:0000000000000420 .L0 
     /tmp/cclNG34r.s:1126   .text:0000000000000420 .L0 
     /tmp/cclNG34r.s:1127   .text:0000000000000420 .L0 
     /tmp/cclNG34r.s:1129   .text:0000000000000424 .L0 
     /tmp/cclNG34r.s:1131   .text:0000000000000428 .L0 
     /tmp/cclNG34r.s:1141   .text:0000000000000440 .L0 
     /tmp/cclNG34r.s:1142   .text:0000000000000444 .L0 
     /tmp/cclNG34r.s:1144   .text:0000000000000448 .L0 
     /tmp/cclNG34r.s:1145   .text:0000000000000448 .L0 
     /tmp/cclNG34r.s:1147   .text:000000000000044c .L0 
     /tmp/cclNG34r.s:1149   .text:0000000000000450 .L0 
     /tmp/cclNG34r.s:1151   .text:0000000000000454 .L0 
     /tmp/cclNG34r.s:1107   .text:000000000000040c _ZN9SchedulerD1Ev
     /tmp/cclNG34r.s:1167   .text._ZN5QueueIP3PCBEnwEm:0000000000000000 _ZN5QueueIP3PCBEnwEm
     /tmp/cclNG34r.s:1170   .text._ZN5QueueIP3PCBEnwEm:0000000000000000 .L0 
     /tmp/cclNG34r.s:1172   .text._ZN5QueueIP3PCBEnwEm:0000000000000000 .L0 
     /tmp/cclNG34r.s:1173   .text._ZN5QueueIP3PCBEnwEm:0000000000000004 .L0 
     /tmp/cclNG34r.s:1176   .text._ZN5QueueIP3PCBEnwEm:000000000000000c .L0 
     /tmp/cclNG34r.s:1177   .text._ZN5QueueIP3PCBEnwEm:000000000000000c .L0 
     /tmp/cclNG34r.s:1179   .text._ZN5QueueIP3PCBEnwEm:0000000000000010 .L0 
     /tmp/cclNG34r.s:1181   .text._ZN5QueueIP3PCBEnwEm:0000000000000010 .L0 
     /tmp/cclNG34r.s:1186   .text._ZN5QueueIP3PCBEnwEm:000000000000001c .L0 
     /tmp/cclNG34r.s:1187   .text._ZN5QueueIP3PCBEnwEm:0000000000000020 .L0 
     /tmp/cclNG34r.s:1189   .text._ZN5QueueIP3PCBEnwEm:0000000000000024 .L0 
     /tmp/cclNG34r.s:1190   .text._ZN5QueueIP3PCBEnwEm:0000000000000024 .L0 
     /tmp/cclNG34r.s:1192   .text._ZN5QueueIP3PCBEnwEm:0000000000000028 .L0 
GAS LISTING /tmp/cclNG34r.s 			page 42


     /tmp/cclNG34r.s:1194   .text._ZN5QueueIP3PCBEnwEm:000000000000002c .L0 
     /tmp/cclNG34r.s:1201   .text._ZN5QueueIP3PCBEC2Ev:0000000000000000 _ZN5QueueIP3PCBEC2Ev
     /tmp/cclNG34r.s:1204   .text._ZN5QueueIP3PCBEC2Ev:0000000000000000 .L0 
     /tmp/cclNG34r.s:1206   .text._ZN5QueueIP3PCBEC2Ev:0000000000000000 .L0 
     /tmp/cclNG34r.s:1207   .text._ZN5QueueIP3PCBEC2Ev:0000000000000004 .L0 
     /tmp/cclNG34r.s:1209   .text._ZN5QueueIP3PCBEC2Ev:0000000000000008 .L0 
     /tmp/cclNG34r.s:1211   .text._ZN5QueueIP3PCBEC2Ev:000000000000000c .L0 
     /tmp/cclNG34r.s:1214   .text._ZN5QueueIP3PCBEC2Ev:000000000000000c .L0 
     /tmp/cclNG34r.s:1218   .text._ZN5QueueIP3PCBEC2Ev:0000000000000014 .L0 
     /tmp/cclNG34r.s:1219   .text._ZN5QueueIP3PCBEC2Ev:0000000000000018 .L0 
     /tmp/cclNG34r.s:1220   .text._ZN5QueueIP3PCBEC2Ev:0000000000000018 .L0 
     /tmp/cclNG34r.s:1222   .text._ZN5QueueIP3PCBEC2Ev:000000000000001c .L0 
     /tmp/cclNG34r.s:1224   .text._ZN5QueueIP3PCBEC2Ev:0000000000000020 .L0 
     /tmp/cclNG34r.s:1201   .text._ZN5QueueIP3PCBEC2Ev:0000000000000000 _ZN5QueueIP3PCBEC1Ev
     /tmp/cclNG34r.s:1233   .text:0000000000000454 _ZN9SchedulerC2Ev
     /tmp/cclNG34r.s:1236   .text:0000000000000454 .L0 
     /tmp/cclNG34r.s:1238   .text:0000000000000454 .L0 
     /tmp/cclNG34r.s:1239   .text:0000000000000458 .L0 
     /tmp/cclNG34r.s:1244   .text:0000000000000468 .L0 
     /tmp/cclNG34r.s:1245   .text:0000000000000468 .L0 
     /tmp/cclNG34r.s:1246   .text:0000000000000468 .L0 
     /tmp/cclNG34r.s:1247   .text:0000000000000468 .L0 
     /tmp/cclNG34r.s:1249   .text:000000000000046c .L0 
     /tmp/cclNG34r.s:1253   .text:0000000000000470 .L0 
     /tmp/cclNG34r.s:1254   .text:0000000000000470 .L0 
     /tmp/cclNG34r.s:1262   .text:0000000000000488 .L0 
     /tmp/cclNG34r.s:1265   .text:000000000000048c .L0 
     /tmp/cclNG34r.s:1266   .text:0000000000000490 .L0 
     /tmp/cclNG34r.s:1268   .text:0000000000000494 .L0 
     /tmp/cclNG34r.s:1269   .text:0000000000000494 .L0 
     /tmp/cclNG34r.s:1271   .text:0000000000000498 .L0 
     /tmp/cclNG34r.s:1274   .text:000000000000049c .L0 
     /tmp/cclNG34r.s:1276   .text:00000000000004a0 .L0 
     /tmp/cclNG34r.s:1278   .text:00000000000004a4 .L0 
     /tmp/cclNG34r.s:1233   .text:0000000000000454 _ZN9SchedulerC1Ev
     /tmp/cclNG34r.s:1286   .text:00000000000004a4 _ZN9Scheduler12getSchedulerEv
     /tmp/cclNG34r.s:1289   .text:00000000000004a4 .L0 
     /tmp/cclNG34r.s:1292   .text:00000000000004a4 .L0 
     /tmp/cclNG34r.s:1293   .text:00000000000004a4 .L0 
     /tmp/cclNG34r.s:1294   .text:00000000000004a4 .L0 
     /tmp/cclNG34r.s:1296   .text:00000000000004ac .L0 
     /tmp/cclNG34r.s:1298   .text:00000000000004b0 .L0 
     /tmp/cclNG34r.s:1299   .text:00000000000004b0 .L0 
     /tmp/cclNG34r.s:1301   .text:00000000000004b8 .L0 
     /tmp/cclNG34r.s:1304   .text:00000000000004bc .L0 
     /tmp/cclNG34r.s:1305   .text:00000000000004c0 .L0 
     /tmp/cclNG34r.s:1310   .text:00000000000004d0 .L0 
     /tmp/cclNG34r.s:1311   .text:00000000000004d0 .L0 
     /tmp/cclNG34r.s:1312   .text:00000000000004d0 .L0 
     /tmp/cclNG34r.s:1313   .text:00000000000004d0 .L0 
     /tmp/cclNG34r.s:1315   .text:00000000000004d4 .L0 
     /tmp/cclNG34r.s:1317   .text:00000000000004d4 .L0 
     /tmp/cclNG34r.s:1318   .text:00000000000004d4 .L0 
     /tmp/cclNG34r.s:1329   .text:00000000000004ec .L0 
     /tmp/cclNG34r.s:1331   .text:00000000000004f4 .L0 
     /tmp/cclNG34r.s:1332   .text:00000000000004f4 .L0 
     /tmp/cclNG34r.s:1334   .text:00000000000004fc .L0 
GAS LISTING /tmp/cclNG34r.s 			page 43


     /tmp/cclNG34r.s:1335   .text:0000000000000500 .L0 
     /tmp/cclNG34r.s:1336   .text:0000000000000500 .L0 
     /tmp/cclNG34r.s:1338   .text:0000000000000504 .L0 
     /tmp/cclNG34r.s:1339   .text:0000000000000504 .L0 
     /tmp/cclNG34r.s:1341   .text:0000000000000508 .L0 
     /tmp/cclNG34r.s:1343   .text:000000000000050c .L0 
     /tmp/cclNG34r.s:1345   .text:0000000000000510 .L0 
     /tmp/cclNG34r.s:1348   .text:0000000000000514 .L0 
     /tmp/cclNG34r.s:1351   .text:0000000000000518 .L0 
     /tmp/cclNG34r.s:1359   .text:0000000000000530 .L0 
     /tmp/cclNG34r.s:1384   .text:0000000000000530 _ZN3PCB5startEv
     /tmp/cclNG34r.s:1387   .text:0000000000000530 .L0 
     /tmp/cclNG34r.s:1389   .text:0000000000000530 .L0 
     /tmp/cclNG34r.s:1390   .text:0000000000000534 .L0 
     /tmp/cclNG34r.s:1394   .text:0000000000000540 .L0 
     /tmp/cclNG34r.s:1395   .text:0000000000000540 .L0 
     /tmp/cclNG34r.s:1396   .text:0000000000000540 .L0 
     /tmp/cclNG34r.s:1398   .text:0000000000000544 .L0 
     /tmp/cclNG34r.s:1401   .text:0000000000000548 .L0 
     /tmp/cclNG34r.s:1402   .text:0000000000000548 .L0 
     /tmp/cclNG34r.s:1408   .text:000000000000055c .L0 
     /tmp/cclNG34r.s:1409   .text:0000000000000560 .L0 
     /tmp/cclNG34r.s:1411   .text:0000000000000564 .L0 
     /tmp/cclNG34r.s:1412   .text:0000000000000564 .L0 
     /tmp/cclNG34r.s:1414   .text:0000000000000568 .L0 
     /tmp/cclNG34r.s:1417   .text:000000000000056c .L0 
     /tmp/cclNG34r.s:1419   .text:0000000000000570 .L0 
     /tmp/cclNG34r.s:1425   .text:0000000000000570 _ZN6Thread5startEv
     /tmp/cclNG34r.s:1428   .text:0000000000000570 .L0 
     /tmp/cclNG34r.s:1430   .text:0000000000000570 .L0 
     /tmp/cclNG34r.s:1431   .text:0000000000000574 .L0 
     /tmp/cclNG34r.s:1434   .text:000000000000057c .L0 
     /tmp/cclNG34r.s:1435   .text:000000000000057c .L0 
     /tmp/cclNG34r.s:1437   .text:0000000000000580 .L0 
     /tmp/cclNG34r.s:1439   .text:0000000000000580 .L0 
     /tmp/cclNG34r.s:1440   .text:0000000000000580 .L0 
     /tmp/cclNG34r.s:1445   .text:000000000000058c .L0 
     /tmp/cclNG34r.s:1446   .text:0000000000000590 .L0 
     /tmp/cclNG34r.s:1448   .text:0000000000000594 .L0 
     /tmp/cclNG34r.s:1449   .text:0000000000000594 .L0 
     /tmp/cclNG34r.s:1451   .text:0000000000000598 .L0 
     /tmp/cclNG34r.s:1453   .text:000000000000059c .L0 
     /tmp/cclNG34r.s:1472   .bss:0000000000000010 _ZN6System10runningPCBE
     /tmp/cclNG34r.s:1468   .bss:0000000000000008 _ZN9Scheduler9schedulerE
     /tmp/cclNG34r.s:1464   .bss:0000000000000000 _ZN15MemoryAllocator15memoryAllocatorE
     /tmp/cclNG34r.s:1461   .bss:0000000000000000 .LANCHOR0
     /tmp/cclNG34r.s:1479   .text:000000000000059c .L0 
     /tmp/cclNG34r.s:806    .text._ZN5QueueIP3PCBE4pushES1_:0000000000000058 .L0 
     /tmp/cclNG34r.s:874    .text._ZN5QueueIP3PCBE5frontEv:0000000000000024 .L0 
     /tmp/cclNG34r.s:939    .text._ZN5QueueIP3PCBE3popEv:0000000000000064 .L0 
     /tmp/cclNG34r.s:1026   .text._ZN5QueueIP3PCBEdlEPv:0000000000000028 .L0 
     /tmp/cclNG34r.s:1103   .text._ZN5QueueIP3PCBED2Ev:0000000000000058 .L0 
     /tmp/cclNG34r.s:1197   .text._ZN5QueueIP3PCBEnwEm:000000000000002c .L0 
     /tmp/cclNG34r.s:1229   .text._ZN5QueueIP3PCBEC2Ev:0000000000000020 .L0 
     /tmp/cclNG34r.s:232    .text:0000000000000100 .L0 
     /tmp/cclNG34r.s:237    .text:000000000000010c .L0 
     /tmp/cclNG34r.s:255    .text:0000000000000134 .L0 
GAS LISTING /tmp/cclNG34r.s 			page 44


     /tmp/cclNG34r.s:258    .text:000000000000013c .L0 
     /tmp/cclNG34r.s:706    .text:000000000000035c .L0 
     /tmp/cclNG34r.s:1294   .text:00000000000004a4 .L0 
     /tmp/cclNG34r.s:1299   .text:00000000000004b0 .L0 
     /tmp/cclNG34r.s:1329   .text:00000000000004ec .L0 
     /tmp/cclNG34r.s:1332   .text:00000000000004f4 .L0 
     /tmp/cclNG34r.s:239    .text:0000000000000118 .L21
     /tmp/cclNG34r.s:1138   .text:0000000000000440 .L73
     /tmp/cclNG34r.s:1302   .text:00000000000004bc .L91
     /tmp/cclNG34r.s:793    .text._ZN5QueueIP3PCBE4pushES1_:0000000000000048 .L55
     /tmp/cclNG34r.s:778    .text._ZN5QueueIP3PCBE4pushES1_:0000000000000034 .L52
     /tmp/cclNG34r.s:863    .text._ZN5QueueIP3PCBE5frontEv:0000000000000018 .L58
     /tmp/cclNG34r.s:929    .text._ZN5QueueIP3PCBE3popEv:0000000000000058 .L64
     /tmp/cclNG34r.s:911    .text._ZN5QueueIP3PCBE3popEv:0000000000000040 .L61
     /tmp/cclNG34r.s:1074   .text._ZN5QueueIP3PCBED2Ev:0000000000000040 .L69
     /tmp/cclNG34r.s:1053   .text._ZN5QueueIP3PCBED2Ev:000000000000001c .L71
     /tmp/cclNG34r.s:1319   .text:00000000000004d8 .LEHB0
     /tmp/cclNG34r.s:1287   .text:00000000000004a4 .LFB20
     /tmp/cclNG34r.s:1322   .text:00000000000004e0 .LEHE0
     /tmp/cclNG34r.s:1324   .text:00000000000004e4 .LEHB1
     /tmp/cclNG34r.s:1327   .text:00000000000004ec .LEHE1
     /tmp/cclNG34r.s:1347   .text:0000000000000514 .L85
     /tmp/cclNG34r.s:1355   .text:0000000000000528 .LEHB2
     /tmp/cclNG34r.s:1358   .text:0000000000000530 .LEHE2
     /tmp/cclNG34r.s:3528   .debug_abbrev:0000000000000000 .Ldebug_abbrev0
     /tmp/cclNG34r.s:5408   .debug_str:0000000000000186 .LASF122
     /tmp/cclNG34r.s:5542   .debug_str:00000000000005bb .LASF123
     /tmp/cclNG34r.s:5400   .debug_str:0000000000000141 .LASF124
     /tmp/cclNG34r.s:5338   .debug_ranges:0000000000000000 .Ldebug_ranges0
     /tmp/cclNG34r.s:5358   .debug_line:0000000000000000 .Ldebug_line0
     /tmp/cclNG34r.s:5486   .debug_str:0000000000000448 .LASF0
     /tmp/cclNG34r.s:5504   .debug_str:00000000000004b6 .LASF1
     /tmp/cclNG34r.s:5466   .debug_str:00000000000003c2 .LASF2
     /tmp/cclNG34r.s:5450   .debug_str:0000000000000372 .LASF4
     /tmp/cclNG34r.s:5548   .debug_str:0000000000000610 .LASF3
     /tmp/cclNG34r.s:5374   .debug_str:000000000000007a .LASF5
     /tmp/cclNG34r.s:5406   .debug_str:000000000000017f .LASF6
     /tmp/cclNG34r.s:5506   .debug_str:00000000000004c9 .LASF7
     /tmp/cclNG34r.s:5484   .debug_str:0000000000000435 .LASF8
     /tmp/cclNG34r.s:5584   .debug_str:000000000000071f .LASF9
     /tmp/cclNG34r.s:5432   .debug_str:00000000000002dc .LASF10
     /tmp/cclNG34r.s:5522   .debug_str:000000000000054c .LASF11
     /tmp/cclNG34r.s:5576   .debug_str:00000000000006e5 .LASF12
     /tmp/cclNG34r.s:5378   .debug_str:0000000000000087 .LASF13
     /tmp/cclNG34r.s:5362   .debug_str:0000000000000015 .LASF14
     /tmp/cclNG34r.s:5392   .debug_str:00000000000000e8 .LASF15
     /tmp/cclNG34r.s:5544   .debug_str:00000000000005cf .LASF16
     /tmp/cclNG34r.s:5402   .debug_str:0000000000000164 .LASF17
     /tmp/cclNG34r.s:5462   .debug_str:00000000000003ab .LASF18
     /tmp/cclNG34r.s:5386   .debug_str:00000000000000b8 .LASF38
     /tmp/cclNG34r.s:5570   .debug_str:00000000000006b2 .LASF20
     /tmp/cclNG34r.s:5600   .debug_str:00000000000007a1 .LASF22
     /tmp/cclNG34r.s:5458   .debug_str:000000000000038c .LASF24
     /tmp/cclNG34r.s:5556   .debug_str:0000000000000656 .LASF19
     /tmp/cclNG34r.s:5520   .debug_str:0000000000000532 .LASF21
     /tmp/cclNG34r.s:5540   .debug_str:00000000000005a8 .LASF29
     /tmp/cclNG34r.s:5546   .debug_str:00000000000005e5 .LASF31
GAS LISTING /tmp/cclNG34r.s 			page 45


     /tmp/cclNG34r.s:5390   .debug_str:00000000000000d7 .LASF23
     /tmp/cclNG34r.s:5602   .debug_str:00000000000007ae .LASF25
     /tmp/cclNG34r.s:5550   .debug_str:0000000000000622 .LASF33
     /tmp/cclNG34r.s:5564   .debug_str:0000000000000682 .LASF70
     /tmp/cclNG34r.s:5528   .debug_str:000000000000057c .LASF26
     /tmp/cclNG34r.s:5430   .debug_str:00000000000002bb .LASF27
     /tmp/cclNG34r.s:5516   .debug_str:000000000000050e .LASF28
     /tmp/cclNG34r.s:5398   .debug_str:0000000000000134 .LASF30
     /tmp/cclNG34r.s:5448   .debug_str:0000000000000354 .LASF32
     /tmp/cclNG34r.s:5418   .debug_str:0000000000000258 .LASF53
     /tmp/cclNG34r.s:5444   .debug_str:0000000000000330 .LASF125
     /tmp/cclNG34r.s:5538   .debug_str:000000000000059d .LASF34
     /tmp/cclNG34r.s:5592   .debug_str:0000000000000760 .LASF35
     /tmp/cclNG34r.s:5574   .debug_str:00000000000006d3 .LASF36
     /tmp/cclNG34r.s:5492   .debug_str:0000000000000477 .LASF37
     /tmp/cclNG34r.s:5568   .debug_str:00000000000006a8 .LASF39
     /tmp/cclNG34r.s:5366   .debug_str:0000000000000034 .LASF40
     /tmp/cclNG34r.s:5588   .debug_str:000000000000073e .LASF47
     /tmp/cclNG34r.s:5436   .debug_str:00000000000002f0 .LASF126
     /tmp/cclNG34r.s:5572   .debug_str:00000000000006cb .LASF41
     /tmp/cclNG34r.s:5560   .debug_str:0000000000000672 .LASF42
     /tmp/cclNG34r.s:5514   .debug_str:0000000000000506 .LASF43
     /tmp/cclNG34r.s:5452   .debug_str:0000000000000379 .LASF44
     /tmp/cclNG34r.s:5498   .debug_str:0000000000000499 .LASF45
     /tmp/cclNG34r.s:5420   .debug_str:0000000000000270 .LASF46
     /tmp/cclNG34r.s:5562   .debug_str:0000000000000678 .LASF48
     /tmp/cclNG34r.s:5376   .debug_str:0000000000000081 .LASF49
     /tmp/cclNG34r.s:5598   .debug_str:0000000000000797 .LASF50
     /tmp/cclNG34r.s:5496   .debug_str:000000000000048f .LASF51
     /tmp/cclNG34r.s:5370   .debug_str:000000000000005e .LASF52
     /tmp/cclNG34r.s:5478   .debug_str:0000000000000408 .LASF54
     /tmp/cclNG34r.s:5534   .debug_str:0000000000000593 .LASF55
     /tmp/cclNG34r.s:5480   .debug_str:000000000000041e .LASF56
     /tmp/cclNG34r.s:5414   .debug_str:000000000000024c .LASF57
     /tmp/cclNG34r.s:5440   .debug_str:000000000000030f .LASF58
     /tmp/cclNG34r.s:5502   .debug_str:00000000000004b0 .LASF59
     /tmp/cclNG34r.s:5446   .debug_str:0000000000000344 .LASF60
     /tmp/cclNG34r.s:5508   .debug_str:00000000000004dc .LASF61
     /tmp/cclNG34r.s:5612   .debug_str:00000000000007f7 .LASF127
     /tmp/cclNG34r.s:5558   .debug_str:0000000000000666 .LASF62
     /tmp/cclNG34r.s:5404   .debug_str:000000000000017a .LASF63
     /tmp/cclNG34r.s:5536   .debug_str:0000000000000598 .LASF64
     /tmp/cclNG34r.s:5616   .debug_str:000000000000080d .LASF65
     /tmp/cclNG34r.s:5620   .debug_str:0000000000000827 .LASF66
     /tmp/cclNG34r.s:5494   .debug_str:000000000000048a .LASF67
     /tmp/cclNG34r.s:5554   .debug_str:000000000000063f .LASF68
     /tmp/cclNG34r.s:5434   .debug_str:00000000000002ea .LASF69
     /tmp/cclNG34r.s:5438   .debug_str:00000000000002f6 .LASF71
     /tmp/cclNG34r.s:5416   .debug_str:0000000000000253 .LASF72
     /tmp/cclNG34r.s:5518   .debug_str:0000000000000518 .LASF73
     /tmp/cclNG34r.s:5422   .debug_str:0000000000000275 .LASF74
     /tmp/cclNG34r.s:5580   .debug_str:00000000000006fb .LASF75
     /tmp/cclNG34r.s:5382   .debug_str:00000000000000ac .LASF76
     /tmp/cclNG34r.s:5380   .debug_str:0000000000000097 .LASF77
     /tmp/cclNG34r.s:5360   .debug_str:0000000000000000 .LASF78
     /tmp/cclNG34r.s:5372   .debug_str:0000000000000064 .LASF79
     /tmp/cclNG34r.s:5578   .debug_str:00000000000006f4 .LASF80
GAS LISTING /tmp/cclNG34r.s 			page 46


     /tmp/cclNG34r.s:5526   .debug_str:0000000000000565 .LASF81
     /tmp/cclNG34r.s:5428   .debug_str:00000000000002a8 .LASF82
     /tmp/cclNG34r.s:5488   .debug_str:0000000000000455 .LASF92
     /tmp/cclNG34r.s:5424   .debug_str:000000000000027b .LASF94
     /tmp/cclNG34r.s:5454   .debug_str:0000000000000381 .LASF83
     /tmp/cclNG34r.s:5552   .debug_str:000000000000062c .LASF84
     /tmp/cclNG34r.s:5500   .debug_str:00000000000004a2 .LASF96
     /tmp/cclNG34r.s:5594   .debug_str:0000000000000772 .LASF85
     /tmp/cclNG34r.s:5582   .debug_str:0000000000000710 .LASF86
     /tmp/cclNG34r.s:5456   .debug_str:0000000000000387 .LASF87
     /tmp/cclNG34r.s:5614   .debug_str:0000000000000804 .LASF88
     /tmp/cclNG34r.s:5472   .debug_str:00000000000003eb .LASF89
     /tmp/cclNG34r.s:5606   .debug_str:00000000000007d9 .LASF90
     /tmp/cclNG34r.s:5388   .debug_str:00000000000000c8 .LASF91
     /tmp/cclNG34r.s:5474   .debug_str:00000000000003f5 .LASF93
     /tmp/cclNG34r.s:5510   .debug_str:00000000000004e8 .LASF95
     /tmp/cclNG34r.s:5482   .debug_str:000000000000042a .LASF97
     /tmp/cclNG34r.s:5396   .debug_str:000000000000010d .LASF98
     /tmp/cclNG34r.s:5394   .debug_str:00000000000000f4 .LASF99
     /tmp/cclNG34r.s:5368   .debug_str:0000000000000046 .LASF100
     /tmp/cclNG34r.s:5530   .debug_str:0000000000000585 .LASF101
     /tmp/cclNG34r.s:5618   .debug_str:0000000000000812 .LASF104
     /tmp/cclNG34r.s:1202   .text._ZN5QueueIP3PCBEC2Ev:0000000000000000 .LFB64
     /tmp/cclNG34r.s:1225   .text._ZN5QueueIP3PCBEC2Ev:0000000000000020 .LFE64
     /tmp/cclNG34r.s:1168   .text._ZN5QueueIP3PCBEnwEm:0000000000000000 .LFB62
     /tmp/cclNG34r.s:1195   .text._ZN5QueueIP3PCBEnwEm:000000000000002c .LFE62
     /tmp/cclNG34r.s:5566   .debug_str:00000000000006a3 .LASF106
     /tmp/cclNG34r.s:4797   .debug_loc:0000000000000000 .LLST31
     /tmp/cclNG34r.s:1184   .text._ZN5QueueIP3PCBEnwEm:000000000000001c .LVL81
     /tmp/cclNG34r.s:5524   .debug_str:000000000000055b .LASF102
     /tmp/cclNG34r.s:5512   .debug_str:0000000000000501 .LASF103
     /tmp/cclNG34r.s:5596   .debug_str:0000000000000782 .LASF105
     /tmp/cclNG34r.s:1031   .text._ZN5QueueIP3PCBED2Ev:0000000000000000 .LFB60
     /tmp/cclNG34r.s:1091   .text._ZN5QueueIP3PCBED2Ev:0000000000000058 .LFE60
     /tmp/cclNG34r.s:4811   .debug_loc:0000000000000039 .LLST27
     /tmp/cclNG34r.s:1063   .text._ZN5QueueIP3PCBED2Ev:000000000000002c .LVL70
     /tmp/cclNG34r.s:1066   .text._ZN5QueueIP3PCBED2Ev:0000000000000038 .LVL71
     /tmp/cclNG34r.s:1049   .text._ZN5QueueIP3PCBED2Ev:0000000000000018 .LBB4
     /tmp/cclNG34r.s:1075   .text._ZN5QueueIP3PCBED2Ev:0000000000000040 .LBE4
     /tmp/cclNG34r.s:4825   .debug_loc:0000000000000072 .LLST28
     /tmp/cclNG34r.s:1057   .text._ZN5QueueIP3PCBED2Ev:0000000000000020 .LBB5
     /tmp/cclNG34r.s:1070   .text._ZN5QueueIP3PCBED2Ev:000000000000003c .LBE5
     /tmp/cclNG34r.s:4840   .debug_loc:00000000000000bb .LLST29
     /tmp/cclNG34r.s:999    .text._ZN5QueueIP3PCBEdlEPv:0000000000000000 .LFB58
     /tmp/cclNG34r.s:1024   .text._ZN5QueueIP3PCBEdlEPv:0000000000000028 .LFE58
     /tmp/cclNG34r.s:4847   .debug_loc:00000000000000de .LLST26
     /tmp/cclNG34r.s:1013   .text._ZN5QueueIP3PCBEdlEPv:0000000000000018 .LVL65
     /tmp/cclNG34r.s:879    .text._ZN5QueueIP3PCBE3popEv:0000000000000000 .LFB57
     /tmp/cclNG34r.s:937    .text._ZN5QueueIP3PCBE3popEv:0000000000000064 .LFE57
     /tmp/cclNG34r.s:4861   .debug_loc:0000000000000117 .LLST22
     /tmp/cclNG34r.s:5532   .debug_str:000000000000058a .LASF107
     /tmp/cclNG34r.s:4883   .debug_loc:0000000000000176 .LLST23
     /tmp/cclNG34r.s:903    .text._ZN5QueueIP3PCBE3popEv:000000000000002c .LVL53
     /tmp/cclNG34r.s:906    .text._ZN5QueueIP3PCBE3popEv:0000000000000038 .LVL54
     /tmp/cclNG34r.s:846    .text._ZN5QueueIP3PCBE5frontEv:0000000000000000 .LFB56
     /tmp/cclNG34r.s:872    .text._ZN5QueueIP3PCBE5frontEv:0000000000000024 .LFE56
     /tmp/cclNG34r.s:4894   .debug_loc:00000000000001ac .LLST21
GAS LISTING /tmp/cclNG34r.s 			page 47


     /tmp/cclNG34r.s:753    .text._ZN5QueueIP3PCBE4pushES1_:0000000000000000 .LFB55
     /tmp/cclNG34r.s:804    .text._ZN5QueueIP3PCBE4pushES1_:0000000000000058 .LFE55
     /tmp/cclNG34r.s:4908   .debug_loc:00000000000001e5 .LLST17
     /tmp/cclNG34r.s:4930   .debug_loc:0000000000000244 .LLST18
     /tmp/cclNG34r.s:5476   .debug_str:0000000000000400 .LASF108
     /tmp/cclNG34r.s:770    .text._ZN5QueueIP3PCBE4pushES1_:0000000000000020 .LVL42
     /tmp/cclNG34r.s:773    .text._ZN5QueueIP3PCBE4pushES1_:000000000000002c .LVL43
     /tmp/cclNG34r.s:5364   .debug_str:0000000000000025 .LASF109
     /tmp/cclNG34r.s:726    .text:0000000000000374 .LFB53
     /tmp/cclNG34r.s:744    .text:000000000000038c .LFE53
     /tmp/cclNG34r.s:695    .text:0000000000000350 .LFB51
     /tmp/cclNG34r.s:720    .text:0000000000000374 .LFE51
     /tmp/cclNG34r.s:671    .text:0000000000000338 .LFB50
     /tmp/cclNG34r.s:689    .text:0000000000000350 .LFE50
     /tmp/cclNG34r.s:637    .text:000000000000030c .LFB49
     /tmp/cclNG34r.s:665    .text:0000000000000338 .LFE49
     /tmp/cclNG34r.s:4944   .debug_loc:000000000000027d .LLST16
     /tmp/cclNG34r.s:654    .text:0000000000000328 .LVL38
     /tmp/cclNG34r.s:613    .text:00000000000002f4 .LFB48
     /tmp/cclNG34r.s:631    .text:000000000000030c .LFE48
     /tmp/cclNG34r.s:1385   .text:0000000000000530 .LFB47
     /tmp/cclNG34r.s:1420   .text:0000000000000570 .LFE47
     /tmp/cclNG34r.s:4958   .debug_loc:00000000000002b6 .LLST33
     /tmp/cclNG34r.s:1403   .text:0000000000000550 .LVL93
     /tmp/cclNG34r.s:1406   .text:000000000000055c .LVL94
     /tmp/cclNG34r.s:5410   .debug_str:0000000000000228 .LASF110
     /tmp/cclNG34r.s:587    .text:00000000000002dc .LFB45
     /tmp/cclNG34r.s:605    .text:00000000000002f4 .LFE45
     /tmp/cclNG34r.s:5384   .debug_str:00000000000000b3 .LASF111
     /tmp/cclNG34r.s:5468   .debug_str:00000000000003d0 .LASF112
     /tmp/cclNG34r.s:511    .text:0000000000000260 .LFB42
     /tmp/cclNG34r.s:579    .text:00000000000002dc .LFE42
     /tmp/cclNG34r.s:4976   .debug_loc:0000000000000302 .LLST11
     /tmp/cclNG34r.s:4994   .debug_loc:000000000000034e .LLST12
     /tmp/cclNG34r.s:5012   .debug_loc:000000000000039a .LLST13
     /tmp/cclNG34r.s:5030   .debug_loc:00000000000003e6 .LLST14
     /tmp/cclNG34r.s:5044   .debug_loc:000000000000041f .LLST15
     /tmp/cclNG34r.s:546    .text:00000000000002a0 .LVL29
     /tmp/cclNG34r.s:551    .text:00000000000002b4 .LVL30
     /tmp/cclNG34r.s:479    .text:0000000000000238 .LFB40
     /tmp/cclNG34r.s:505    .text:0000000000000260 .LFE40
     /tmp/cclNG34r.s:5058   .debug_loc:0000000000000458 .LLST10
     /tmp/cclNG34r.s:494    .text:0000000000000250 .LVL26
     /tmp/cclNG34r.s:5586   .debug_str:000000000000072f .LASF113
     /tmp/cclNG34r.s:453    .text:0000000000000220 .LFB38
     /tmp/cclNG34r.s:471    .text:0000000000000238 .LFE38
     /tmp/cclNG34r.s:429    .text:0000000000000208 .LFB36
     /tmp/cclNG34r.s:447    .text:0000000000000220 .LFE36
     /tmp/cclNG34r.s:5470   .debug_str:00000000000003e6 .LASF114
     /tmp/cclNG34r.s:406    .text:00000000000001f0 .LFB35
     /tmp/cclNG34r.s:423    .text:0000000000000208 .LFE35
     /tmp/cclNG34r.s:1426   .text:0000000000000570 .LFB34
     /tmp/cclNG34r.s:1454   .text:000000000000059c .LFE34
     /tmp/cclNG34r.s:5072   .debug_loc:0000000000000491 .LLST34
     /tmp/cclNG34r.s:1443   .text:000000000000058c .LVL98
     /tmp/cclNG34r.s:5426   .debug_str:0000000000000291 .LASF115
     /tmp/cclNG34r.s:372    .text:00000000000001d0 .LFB32
GAS LISTING /tmp/cclNG34r.s 			page 48


     /tmp/cclNG34r.s:398    .text:00000000000001f0 .LFE32
     /tmp/cclNG34r.s:340    .text:00000000000001a8 .LFB30
     /tmp/cclNG34r.s:366    .text:00000000000001d0 .LFE30
     /tmp/cclNG34r.s:5086   .debug_loc:00000000000004ca .LLST9
     /tmp/cclNG34r.s:355    .text:00000000000001c0 .LVL21
     /tmp/cclNG34r.s:306    .text:000000000000017c .LFB29
     /tmp/cclNG34r.s:334    .text:00000000000001a8 .LFE29
     /tmp/cclNG34r.s:5100   .debug_loc:0000000000000503 .LLST8
     /tmp/cclNG34r.s:323    .text:0000000000000198 .LVL19
     /tmp/cclNG34r.s:5604   .debug_str:00000000000007c7 .LASF116
     /tmp/cclNG34r.s:1234   .text:0000000000000454 .LFB27
     /tmp/cclNG34r.s:1279   .text:00000000000004a4 .LFE27
     /tmp/cclNG34r.s:5114   .debug_loc:000000000000053c .LLST32
     /tmp/cclNG34r.s:1257   .text:000000000000047c .LVL85
     /tmp/cclNG34r.s:1260   .text:0000000000000488 .LVL86
     /tmp/cclNG34r.s:5608   .debug_str:00000000000007e0 .LASF117
     /tmp/cclNG34r.s:1108   .text:000000000000040c .LFB24
     /tmp/cclNG34r.s:1152   .text:0000000000000454 .LFE24
     /tmp/cclNG34r.s:5132   .debug_loc:0000000000000588 .LLST30
     /tmp/cclNG34r.s:1134   .text:0000000000000434 .LVL77
     /tmp/cclNG34r.s:1137   .text:0000000000000440 .LVL78
     /tmp/cclNG34r.s:944    .text:00000000000003b8 .LFB22
     /tmp/cclNG34r.s:992    .text:000000000000040c .LFE22
     /tmp/cclNG34r.s:5146   .debug_loc:00000000000005c1 .LLST24
     /tmp/cclNG34r.s:5160   .debug_loc:00000000000005fa .LLST25
     /tmp/cclNG34r.s:967    .text:00000000000003e0 .LVL60
     /tmp/cclNG34r.s:974    .text:00000000000003f0 .LVL62
     /tmp/cclNG34r.s:811    .text:000000000000038c .LFB21
     /tmp/cclNG34r.s:839    .text:00000000000003b8 .LFE21
     /tmp/cclNG34r.s:5171   .debug_loc:0000000000000630 .LLST19
     /tmp/cclNG34r.s:5185   .debug_loc:0000000000000669 .LLST20
     /tmp/cclNG34r.s:828    .text:00000000000003a8 .LVL48
     /tmp/cclNG34r.s:1360   .text:0000000000000530 .LFE20
     /tmp/cclNG34r.s:1321   .text:00000000000004e0 .LVL88
     /tmp/cclNG34r.s:1326   .text:00000000000004ec .LVL89
     /tmp/cclNG34r.s:1353   .text:0000000000000524 .LVL90
     /tmp/cclNG34r.s:1357   .text:0000000000000530 .LVL91
     /tmp/cclNG34r.s:274    .text:0000000000000154 .LFB12
     /tmp/cclNG34r.s:300    .text:000000000000017c .LFE12
     /tmp/cclNG34r.s:5199   .debug_loc:00000000000006a2 .LLST7
     /tmp/cclNG34r.s:289    .text:000000000000016c .LVL16
     /tmp/cclNG34r.s:195    .text:00000000000000d8 .LFB11
     /tmp/cclNG34r.s:221    .text:0000000000000100 .LFE11
     /tmp/cclNG34r.s:5213   .debug_loc:00000000000006db .LLST6
     /tmp/cclNG34r.s:210    .text:00000000000000f0 .LVL13
     /tmp/cclNG34r.s:5490   .debug_str:000000000000045e .LASF118
     /tmp/cclNG34r.s:169    .text:00000000000000c0 .LFB9
     /tmp/cclNG34r.s:187    .text:00000000000000d8 .LFE9
     /tmp/cclNG34r.s:227    .text:0000000000000100 .LFB7
     /tmp/cclNG34r.s:268    .text:0000000000000154 .LFE7
     /tmp/cclNG34r.s:253    .text:0000000000000134 .LVL14
     /tmp/cclNG34r.s:135    .text:0000000000000094 .LFB6
     /tmp/cclNG34r.s:163    .text:00000000000000c0 .LFE6
     /tmp/cclNG34r.s:5227   .debug_loc:0000000000000714 .LLST4
     /tmp/cclNG34r.s:5610   .debug_str:00000000000007f2 .LASF119
     /tmp/cclNG34r.s:5241   .debug_loc:000000000000074d .LLST5
     /tmp/cclNG34r.s:152    .text:00000000000000b0 .LVL10
GAS LISTING /tmp/cclNG34r.s 			page 49


     /tmp/cclNG34r.s:101    .text:0000000000000068 .LFB5
     /tmp/cclNG34r.s:129    .text:0000000000000094 .LFE5
     /tmp/cclNG34r.s:5255   .debug_loc:0000000000000786 .LLST2
     /tmp/cclNG34r.s:5269   .debug_loc:00000000000007bf .LLST3
     /tmp/cclNG34r.s:118    .text:0000000000000084 .LVL7
     /tmp/cclNG34r.s:5590   .debug_str:0000000000000747 .LASF120
     /tmp/cclNG34r.s:75     .text:0000000000000050 .LFB3
     /tmp/cclNG34r.s:93     .text:0000000000000068 .LFE3
     /tmp/cclNG34r.s:5464   .debug_str:00000000000003bb .LASF121
     /tmp/cclNG34r.s:43     .text:0000000000000028 .LFB1
     /tmp/cclNG34r.s:69     .text:0000000000000050 .LFE1
     /tmp/cclNG34r.s:5283   .debug_loc:00000000000007f8 .LLST1
     /tmp/cclNG34r.s:58     .text:0000000000000040 .LVL3
     /tmp/cclNG34r.s:5460   .debug_str:00000000000003a5 .LASF128
     /tmp/cclNG34r.s:10     .text:0000000000000000 .LFB0
     /tmp/cclNG34r.s:37     .text:0000000000000028 .LFE0
     /tmp/cclNG34r.s:5297   .debug_loc:0000000000000831 .LLST0
     /tmp/cclNG34r.s:26     .text:0000000000000018 .LVL1
     /tmp/cclNG34r.s:5442   .debug_str:0000000000000321 .LASF129
     /tmp/cclNG34r.s:5412   .debug_str:0000000000000234 .LASF130
     /tmp/cclNG34r.s:1171   .text._ZN5QueueIP3PCBEnwEm:0000000000000000 .LVL79
     /tmp/cclNG34r.s:1182   .text._ZN5QueueIP3PCBEnwEm:0000000000000014 .LVL80
     /tmp/cclNG34r.s:1036   .text._ZN5QueueIP3PCBED2Ev:0000000000000000 .LVL66
     /tmp/cclNG34r.s:1052   .text._ZN5QueueIP3PCBED2Ev:000000000000001c .LVL67
     /tmp/cclNG34r.s:1060   .text._ZN5QueueIP3PCBED2Ev:0000000000000024 .LVL69
     /tmp/cclNG34r.s:1073   .text._ZN5QueueIP3PCBED2Ev:0000000000000040 .LVL73
     /tmp/cclNG34r.s:1084   .text._ZN5QueueIP3PCBED2Ev:000000000000004c .LVL74
     /tmp/cclNG34r.s:1056   .text._ZN5QueueIP3PCBED2Ev:0000000000000020 .LVL68
     /tmp/cclNG34r.s:1069   .text._ZN5QueueIP3PCBED2Ev:000000000000003c .LVL72
     /tmp/cclNG34r.s:1002   .text._ZN5QueueIP3PCBEdlEPv:0000000000000000 .LVL64
     /tmp/cclNG34r.s:882    .text._ZN5QueueIP3PCBE3popEv:0000000000000000 .LVL51
     /tmp/cclNG34r.s:921    .text._ZN5QueueIP3PCBE3popEv:000000000000004c .LVL55
     /tmp/cclNG34r.s:928    .text._ZN5QueueIP3PCBE3popEv:0000000000000058 .LVL57
     /tmp/cclNG34r.s:900    .text._ZN5QueueIP3PCBE3popEv:0000000000000024 .LVL52
     /tmp/cclNG34r.s:924    .text._ZN5QueueIP3PCBE3popEv:0000000000000050 .LVL56
     /tmp/cclNG34r.s:849    .text._ZN5QueueIP3PCBE5frontEv:0000000000000000 .LVL49
     /tmp/cclNG34r.s:858    .text._ZN5QueueIP3PCBE5frontEv:0000000000000010 .LVL50
     /tmp/cclNG34r.s:756    .text._ZN5QueueIP3PCBE4pushES1_:0000000000000000 .LVL41
     /tmp/cclNG34r.s:788    .text._ZN5QueueIP3PCBE4pushES1_:0000000000000040 .LVL44
     /tmp/cclNG34r.s:792    .text._ZN5QueueIP3PCBE4pushES1_:0000000000000048 .LVL45
     /tmp/cclNG34r.s:640    .text:000000000000030c .LVL36
     /tmp/cclNG34r.s:652    .text:0000000000000320 .LVL37
     /tmp/cclNG34r.s:1388   .text:0000000000000530 .LVL92
     /tmp/cclNG34r.s:1415   .text:0000000000000568 .LVL95
     /tmp/cclNG34r.s:514    .text:0000000000000260 .LVL27
     /tmp/cclNG34r.s:544    .text:0000000000000298 .LVL28
     /tmp/cclNG34r.s:566    .text:00000000000002c8 .LVL31
     /tmp/cclNG34r.s:571    .text:00000000000002d0 .LVL32
     /tmp/cclNG34r.s:574    .text:00000000000002d4 .LVL33
     /tmp/cclNG34r.s:482    .text:0000000000000238 .LVL25
     /tmp/cclNG34r.s:1429   .text:0000000000000570 .LVL96
     /tmp/cclNG34r.s:1441   .text:0000000000000584 .LVL97
     /tmp/cclNG34r.s:343    .text:00000000000001a8 .LVL20
     /tmp/cclNG34r.s:309    .text:000000000000017c .LVL17
     /tmp/cclNG34r.s:321    .text:0000000000000190 .LVL18
     /tmp/cclNG34r.s:1237   .text:0000000000000454 .LVL83
     /tmp/cclNG34r.s:1255   .text:0000000000000474 .LVL84
GAS LISTING /tmp/cclNG34r.s 			page 50


     /tmp/cclNG34r.s:1272   .text:0000000000000498 .LVL87
     /tmp/cclNG34r.s:1113   .text:000000000000040c .LVL75
     /tmp/cclNG34r.s:1132   .text:000000000000042c .LVL76
     /tmp/cclNG34r.s:947    .text:00000000000003b8 .LVL58
     /tmp/cclNG34r.s:965    .text:00000000000003d8 .LVL59
     /tmp/cclNG34r.s:969    .text:00000000000003e4 .LVL61
     /tmp/cclNG34r.s:985    .text:0000000000000400 .LVL63
     /tmp/cclNG34r.s:814    .text:000000000000038c .LVL46
     /tmp/cclNG34r.s:826    .text:00000000000003a0 .LVL47
     /tmp/cclNG34r.s:277    .text:0000000000000154 .LVL15
     /tmp/cclNG34r.s:198    .text:00000000000000d8 .LVL12
     /tmp/cclNG34r.s:138    .text:0000000000000094 .LVL8
     /tmp/cclNG34r.s:150    .text:00000000000000a8 .LVL9
     /tmp/cclNG34r.s:104    .text:0000000000000068 .LVL5
     /tmp/cclNG34r.s:116    .text:000000000000007c .LVL6
     /tmp/cclNG34r.s:46     .text:0000000000000028 .LVL2
     /tmp/cclNG34r.s:14     .text:0000000000000000 .LVL0
     /tmp/cclNG34r.s:1480   .debug_info:0000000000000000 .Ldebug_info0
     /tmp/cclNG34r.s:5      .text:0000000000000000 .Ltext0
     /tmp/cclNG34r.s:1475   .text:000000000000059c .Letext0
     /tmp/cclNG34r.s:1094   .gcc_except_table._ZN5QueueIP3PCBED2Ev:0000000000000000 .LLSDA60
     /tmp/cclNG34r.s:1154   .gcc_except_table:0000000000000000 .LLSDA24
     /tmp/cclNG34r.s:1362   .gcc_except_table:0000000000000004 .LLSDA20
                           .group:0000000000000000 _ZN5QueueIP3PCBED5Ev
                           .group:0000000000000000 _ZN5QueueIP3PCBEC5Ev

UNDEFINED SYMBOLS
mem_alloc
mem_free
interruptvec
__gxx_personality_v0
_Unwind_Resume
