GAS LISTING /tmp/cc5Tg6si.s 			page 1


   1              		.file	"syscall_c.c"
   2              		.option nopic
   3              		.option norelax
   4              		.text
   5              	.Ltext0:
   6              		.cfi_sections	.debug_frame
   7              		.align	2
   8              		.globl	mem_alloc
  10              	mem_alloc:
  11              	.LFB0:
  12              		.file 1 "src/syscall_c.c"
   1:src/syscall_c.c **** //
   2:src/syscall_c.c **** // Created by os on 4/9/22.
   3:src/syscall_c.c **** //
   4:src/syscall_c.c **** 
   5:src/syscall_c.c **** #include "../h/syscall_c.h"
   6:src/syscall_c.c **** 
   7:src/syscall_c.c **** #ifdef __cplusplus
   8:src/syscall_c.c **** extern "C"
   9:src/syscall_c.c **** #endif
  10:src/syscall_c.c **** void* mem_alloc(size_t size)
  11:src/syscall_c.c **** {
  13              		.loc 1 11 1
  14              		.cfi_startproc
  15              	.LVL0:
  16 0000 130101FF 		addi	sp,sp,-16
  17              		.cfi_def_cfa_offset 16
  18 0004 23348100 		sd	s0,8(sp)
  19              		.cfi_offset 8, -8
  20 0008 13040101 		addi	s0,sp,16
  21              		.cfi_def_cfa 8, 0
  12:src/syscall_c.c ****     //prepare for system call
  13:src/syscall_c.c ****     uint64 numBlocks = (size + MEM_BLOCK_SIZE - 1) / MEM_BLOCK_SIZE;
  22              		.loc 1 13 5
  23              		.loc 1 13 47 is_stmt 0
  24 000c 1305F503 		addi	a0,a0,63
  25              	.LVL1:
  26              		.loc 1 13 12
  27 0010 13556500 		srli	a0,a0,6
  28              	.LVL2:
  14:src/syscall_c.c ****     __asm__ volatile("mv a1, %0" :  : "r"(numBlocks));
  29              		.loc 1 14 5 is_stmt 1
  30              	#APP
  31              	# 14 "src/syscall_c.c" 1
  15              	    __asm__ volatile("li a0, 1");
  32              		mv a1, a0
  33              	# 0 "" 2
  34              		.loc 1 15 5
  35              	# 15 "src/syscall_c.c" 1
  16              	
  17:src/syscall_c.c ****     __asm__ volatile("ecall"); // system call
  36              		li a0, 1
  37              	# 0 "" 2
  38              		.loc 1 17 5
  39              	# 17 "src/syscall_c.c" 1
  18              	
  19:src/syscall_c.c ****     //get the address
GAS LISTING /tmp/cc5Tg6si.s 			page 2


  20:src/syscall_c.c ****     uint64 allocatedAddr = 0x01;
  40              		ecall
  41              	# 0 "" 2
  42              		.loc 1 20 5
  43              	.LVL3:
  21:src/syscall_c.c ****     __asm__ volatile("mv %0, a0" : "=r"(allocatedAddr));
  44              		.loc 1 21 5
  45              	# 21 "src/syscall_c.c" 1
  22              	
  46              		mv a0, a0
  47              	# 0 "" 2
  48              	.LVL4:
  23:src/syscall_c.c ****     return (void*)allocatedAddr;
  49              		.loc 1 23 5
  24:src/syscall_c.c **** }
  50              		.loc 1 24 1 is_stmt 0
  51              	#NO_APP
  52 0024 03348100 		ld	s0,8(sp)
  53              		.cfi_restore 8
  54              		.cfi_def_cfa 2, 16
  55 0028 13010101 		addi	sp,sp,16
  56              		.cfi_def_cfa_offset 0
  57 002c 67800000 		jr	ra
  58              		.cfi_endproc
  59              	.LFE0:
  61              		.align	2
  62              		.globl	mem_free
  64              	mem_free:
  65              	.LFB1:
  25:src/syscall_c.c **** 
  26:src/syscall_c.c **** #ifdef __cplusplus
  27:src/syscall_c.c **** extern "C"
  28:src/syscall_c.c **** #endif
  29:src/syscall_c.c **** int mem_free(void* p)
  30:src/syscall_c.c **** {
  66              		.loc 1 30 1 is_stmt 1
  67              		.cfi_startproc
  68              	.LVL5:
  69 0030 130101FF 		addi	sp,sp,-16
  70              		.cfi_def_cfa_offset 16
  71 0034 23348100 		sd	s0,8(sp)
  72              		.cfi_offset 8, -8
  73 0038 13040101 		addi	s0,sp,16
  74              		.cfi_def_cfa 8, 0
  31:src/syscall_c.c ****     //prepare for system call
  32:src/syscall_c.c ****     uint64 addrFree = (uint64)p;
  75              		.loc 1 32 5
  76              	.LVL6:
  33:src/syscall_c.c ****     __asm__ volatile("mv a1, %0" :  : "r"(addrFree));
  77              		.loc 1 33 5
  78              	#APP
  79              	# 33 "src/syscall_c.c" 1
  34              	    __asm__ volatile("li a0, 2");
  80              		mv a1, a0
  81              	# 0 "" 2
  82              		.loc 1 34 5
  83              	# 34 "src/syscall_c.c" 1
GAS LISTING /tmp/cc5Tg6si.s 			page 3


  35              	
  36:src/syscall_c.c ****     __asm__ volatile("ecall"); // system call
  84              		li a0, 2
  85              	# 0 "" 2
  86              		.loc 1 36 5
  87              	# 36 "src/syscall_c.c" 1
  37              	
  38:src/syscall_c.c ****     //get the result of system call
  39:src/syscall_c.c ****     uint64 result;
  88              		ecall
  89              	# 0 "" 2
  90              		.loc 1 39 5
  40:src/syscall_c.c ****     __asm__ volatile("mv %0, a0" : "=r"(result));
  91              		.loc 1 40 5
  92              	# 40 "src/syscall_c.c" 1
  41              	
  93              		mv a0, a0
  94              	# 0 "" 2
  95              	.LVL7:
  42:src/syscall_c.c ****     return result;
  96              		.loc 1 42 5
  43:src/syscall_c.c **** }
  97              		.loc 1 43 1 is_stmt 0
  98              	#NO_APP
  99 004c 1B050500 		sext.w	a0,a0
 100              	.LVL8:
 101 0050 03348100 		ld	s0,8(sp)
 102              		.cfi_restore 8
 103              		.cfi_def_cfa 2, 16
 104 0054 13010101 		addi	sp,sp,16
 105              		.cfi_def_cfa_offset 0
 106 0058 67800000 		jr	ra
 107              		.cfi_endproc
 108              	.LFE1:
 110              		.align	2
 111              		.globl	thread_create
 113              	thread_create:
 114              	.LFB2:
  44:src/syscall_c.c **** 
  45:src/syscall_c.c **** #ifdef __cplusplus
  46:src/syscall_c.c **** extern "C"
  47:src/syscall_c.c **** #endif
  48:src/syscall_c.c **** int thread_create(thread_t* handle, void (*start_routine)(void*), void* args)
  49:src/syscall_c.c **** {
 115              		.loc 1 49 1 is_stmt 1
 116              		.cfi_startproc
 117              	.LVL9:
 118 005c 130101FD 		addi	sp,sp,-48
 119              		.cfi_def_cfa_offset 48
 120 0060 23341102 		sd	ra,40(sp)
 121 0064 23308102 		sd	s0,32(sp)
 122 0068 233C9100 		sd	s1,24(sp)
 123 006c 23382101 		sd	s2,16(sp)
 124 0070 23343101 		sd	s3,8(sp)
 125              		.cfi_offset 1, -8
 126              		.cfi_offset 8, -16
 127              		.cfi_offset 9, -24
GAS LISTING /tmp/cc5Tg6si.s 			page 4


 128              		.cfi_offset 18, -32
 129              		.cfi_offset 19, -40
 130 0074 13040103 		addi	s0,sp,48
 131              		.cfi_def_cfa 8, 0
 132 0078 93040500 		mv	s1,a0
 133 007c 13890500 		mv	s2,a1
 134 0080 93090600 		mv	s3,a2
  50:src/syscall_c.c ****     uint64 handleLocal = (uint64)handle;
 135              		.loc 1 50 5
 136              	.LVL10:
  51:src/syscall_c.c ****     uint64 startRLocal = (uint64)start_routine;
 137              		.loc 1 51 5
  52:src/syscall_c.c ****     uint64 argsLocal = (uint64)args;
 138              		.loc 1 52 5
  53:src/syscall_c.c ****     uint64 opLocal = 0x11;
 139              		.loc 1 53 5
  54:src/syscall_c.c **** 
  55:src/syscall_c.c ****     void * stack_space = mem_alloc(DEFAULT_STACK_SIZE);
 140              		.loc 1 55 5
 141              		.loc 1 55 26 is_stmt 0
 142 0084 37150000 		li	a0,4096
 143              	.LVL11:
 144 0088 97000000 		call	mem_alloc
 144      E7800000 
 145              	.LVL12:
  56:src/syscall_c.c ****     uint64 stackPointerLocal = (uint64)stack_space;
 146              		.loc 1 56 5 is_stmt 1
  57:src/syscall_c.c ****     //todo
  58:src/syscall_c.c ****     //handle this error
  59:src/syscall_c.c ****     if(stack_space == 0)
 147              		.loc 1 59 5
 148              		.loc 1 59 7 is_stmt 0
 149 0090 63020504 		beqz	a0,.L7
  60:src/syscall_c.c ****         return -1;
  61:src/syscall_c.c **** 
  62:src/syscall_c.c ****     //initialize registers
  63:src/syscall_c.c ****     __asm__ volatile("mv a4, %0" :  : "r"((uint64)stackPointerLocal));
 150              		.loc 1 63 5 is_stmt 1
 151              	#APP
 152              	# 63 "src/syscall_c.c" 1
  64              	    __asm__ volatile("mv a3, %0" :  : "r"((uint64)argsLocal));
 153              		mv a4, a0
 154              	# 0 "" 2
 155              		.loc 1 64 5
 156              	# 64 "src/syscall_c.c" 1
  65              	    __asm__ volatile("mv a2, %0" :  : "r"((uint64)startRLocal));
 157              		mv a3, s3
 158              	# 0 "" 2
 159              		.loc 1 65 5
 160              	# 65 "src/syscall_c.c" 1
  66              	    __asm__ volatile("mv a1, %0" :  : "r"((uint64)handleLocal));
 161              		mv a2, s2
 162              	# 0 "" 2
 163              		.loc 1 66 5
 164              	# 66 "src/syscall_c.c" 1
  67              	    __asm__ volatile("mv a0, %0" :  : "r"((uint64)opLocal));
 165              		mv a1, s1
GAS LISTING /tmp/cc5Tg6si.s 			page 5


 166              	# 0 "" 2
 167              		.loc 1 67 5
 168              	#NO_APP
 169 00a4 93071001 		li	a5,17
 170              	#APP
 171              	# 67 "src/syscall_c.c" 1
  68              	
  69:src/syscall_c.c **** 
  70:src/syscall_c.c ****     __asm__ volatile("ecall");
 172              		mv a0, a5
 173              	# 0 "" 2
 174              		.loc 1 70 5
 175              	# 70 "src/syscall_c.c" 1
  71              	
  72:src/syscall_c.c ****     //get the result
  73:src/syscall_c.c ****     uint64 result;
 176              		ecall
 177              	# 0 "" 2
 178              		.loc 1 73 5
  74:src/syscall_c.c ****     __asm__ volatile("mv %0, a0" : "=r"(result));
 179              		.loc 1 74 5
 180              	# 74 "src/syscall_c.c" 1
  75              	
 181              		mv a0, a0
 182              	# 0 "" 2
 183              	.LVL13:
  76:src/syscall_c.c ****     return result;
 184              		.loc 1 76 5
 185              		.loc 1 76 12 is_stmt 0
 186              	#NO_APP
 187 00b4 1B050500 		sext.w	a0,a0
 188              	.LVL14:
 189              	.L6:
  77:src/syscall_c.c **** }
 190              		.loc 1 77 1
 191 00b8 83308102 		ld	ra,40(sp)
 192              		.cfi_remember_state
 193              		.cfi_restore 1
 194 00bc 03340102 		ld	s0,32(sp)
 195              		.cfi_restore 8
 196              		.cfi_def_cfa 2, 48
 197 00c0 83348101 		ld	s1,24(sp)
 198              		.cfi_restore 9
 199              	.LVL15:
 200 00c4 03390101 		ld	s2,16(sp)
 201              		.cfi_restore 18
 202              	.LVL16:
 203 00c8 83398100 		ld	s3,8(sp)
 204              		.cfi_restore 19
 205              	.LVL17:
 206 00cc 13010103 		addi	sp,sp,48
 207              		.cfi_def_cfa_offset 0
 208 00d0 67800000 		jr	ra
 209              	.LVL18:
 210              	.L7:
 211              		.cfi_restore_state
  60:src/syscall_c.c **** 
GAS LISTING /tmp/cc5Tg6si.s 			page 6


 212              		.loc 1 60 16
 213 00d4 1305F0FF 		li	a0,-1
 214              	.LVL19:
 215 00d8 6FF01FFE 		j	.L6
 216              		.cfi_endproc
 217              	.LFE2:
 219              		.align	2
 220              		.globl	thread_dispatch
 222              	thread_dispatch:
 223              	.LFB3:
  78:src/syscall_c.c **** 
  79:src/syscall_c.c **** #ifdef __cplusplus
  80:src/syscall_c.c **** extern "C"
  81:src/syscall_c.c **** #endif
  82:src/syscall_c.c **** void thread_dispatch()
  83:src/syscall_c.c **** {
 224              		.loc 1 83 1 is_stmt 1
 225              		.cfi_startproc
 226 00dc 130101FF 		addi	sp,sp,-16
 227              		.cfi_def_cfa_offset 16
 228 00e0 23348100 		sd	s0,8(sp)
 229              		.cfi_offset 8, -8
 230 00e4 13040101 		addi	s0,sp,16
 231              		.cfi_def_cfa 8, 0
  84:src/syscall_c.c ****     __asm__ volatile("li a0, 0x13");
 232              		.loc 1 84 5
 233              	#APP
 234              	# 84 "src/syscall_c.c" 1
  85              	    __asm__ volatile("ecall");
 235              		li a0, 0x13
 236              	# 0 "" 2
 237              		.loc 1 85 5
 238              	# 85 "src/syscall_c.c" 1
  86              	}
 239              		ecall
 240              	# 0 "" 2
 241              		.loc 1 86 1 is_stmt 0
 242              	#NO_APP
 243 00f0 03348100 		ld	s0,8(sp)
 244              		.cfi_restore 8
 245              		.cfi_def_cfa 2, 16
 246 00f4 13010101 		addi	sp,sp,16
 247              		.cfi_def_cfa_offset 0
 248 00f8 67800000 		jr	ra
 249              		.cfi_endproc
 250              	.LFE3:
 252              		.align	2
 253              		.globl	thread_exit
 255              	thread_exit:
 256              	.LFB4:
  87:src/syscall_c.c **** 
  88:src/syscall_c.c **** #ifdef __cplusplus
  89:src/syscall_c.c **** extern "C"
  90:src/syscall_c.c **** #endif
  91:src/syscall_c.c **** int thread_exit()
  92:src/syscall_c.c **** {
 257              		.loc 1 92 1 is_stmt 1
GAS LISTING /tmp/cc5Tg6si.s 			page 7


 258              		.cfi_startproc
 259 00fc 130101FF 		addi	sp,sp,-16
 260              		.cfi_def_cfa_offset 16
 261 0100 23348100 		sd	s0,8(sp)
 262              		.cfi_offset 8, -8
 263 0104 13040101 		addi	s0,sp,16
 264              		.cfi_def_cfa 8, 0
  93:src/syscall_c.c ****     __asm__ volatile("li a0, 0x12");
 265              		.loc 1 93 5
 266              	#APP
 267              	# 93 "src/syscall_c.c" 1
  94              	
  95:src/syscall_c.c ****     __asm__ volatile("ecall");
 268              		li a0, 0x12
 269              	# 0 "" 2
 270              		.loc 1 95 5
 271              	# 95 "src/syscall_c.c" 1
  96              	
  97:src/syscall_c.c ****     uint64 result;
 272              		ecall
 273              	# 0 "" 2
 274              		.loc 1 97 5
  98:src/syscall_c.c ****     __asm__ volatile("mv %0, a0" : "=r"(result));
 275              		.loc 1 98 5
 276              	# 98 "src/syscall_c.c" 1
  99              	    return result;
 277              		mv a0, a0
 278              	# 0 "" 2
 279              	.LVL20:
 280              		.loc 1 99 5
 100:src/syscall_c.c **** }
 281              		.loc 1 100 1 is_stmt 0
 282              	#NO_APP
 283 0114 1B050500 		sext.w	a0,a0
 284              	.LVL21:
 285 0118 03348100 		ld	s0,8(sp)
 286              		.cfi_restore 8
 287              		.cfi_def_cfa 2, 16
 288 011c 13010101 		addi	sp,sp,16
 289              		.cfi_def_cfa_offset 0
 290 0120 67800000 		jr	ra
 291              		.cfi_endproc
 292              	.LFE4:
 294              		.align	2
 295              		.globl	sem_open
 297              	sem_open:
 298              	.LFB5:
 101:src/syscall_c.c **** 
 102:src/syscall_c.c **** typedef void* sem_t;
 103:src/syscall_c.c **** int sem_open(sem_t* handle, unsigned int x)
 104:src/syscall_c.c **** {
 299              		.loc 1 104 1 is_stmt 1
 300              		.cfi_startproc
 301              	.LVL22:
 302 0124 130101FF 		addi	sp,sp,-16
 303              		.cfi_def_cfa_offset 16
 304 0128 23348100 		sd	s0,8(sp)
GAS LISTING /tmp/cc5Tg6si.s 			page 8


 305              		.cfi_offset 8, -8
 306 012c 13040101 		addi	s0,sp,16
 307              		.cfi_def_cfa 8, 0
 105:src/syscall_c.c ****     __asm__ volatile("mv a2, %0" :  : "r"((uint64)x));
 308              		.loc 1 105 5
 309              		.loc 1 105 43 is_stmt 0
 310 0130 93950502 		slli	a1,a1,32
 311              	.LVL23:
 312 0134 93D50502 		srli	a1,a1,32
 313              		.loc 1 105 5
 314              	#APP
 315              	# 105 "src/syscall_c.c" 1
 106              	    __asm__ volatile("mv a1, %0" :  : "r"((uint64)handle));
 316              		mv a2, a1
 317              	# 0 "" 2
 318              		.loc 1 106 5 is_stmt 1
 319              	# 106 "src/syscall_c.c" 1
 107              	    __asm__ volatile("li a0, 0x21");
 320              		mv a1, a0
 321              	# 0 "" 2
 322              		.loc 1 107 5
 323              	# 107 "src/syscall_c.c" 1
 108              	
 109:src/syscall_c.c ****     __asm__ volatile("ecall");
 324              		li a0, 0x21
 325              	# 0 "" 2
 326              		.loc 1 109 5
 327              	# 109 "src/syscall_c.c" 1
 110              	
 111:src/syscall_c.c ****     uint64 result;
 328              		ecall
 329              	# 0 "" 2
 330              		.loc 1 111 5
 112:src/syscall_c.c ****     __asm__ volatile("mv %0, a0" : "=r"(result));
 331              		.loc 1 112 5
 332              	# 112 "src/syscall_c.c" 1
 113              	    return result;
 333              		mv a0, a0
 334              	# 0 "" 2
 335              	.LVL24:
 336              		.loc 1 113 5
 114:src/syscall_c.c **** }
 337              		.loc 1 114 1 is_stmt 0
 338              	#NO_APP
 339 014c 1B050500 		sext.w	a0,a0
 340              	.LVL25:
 341 0150 03348100 		ld	s0,8(sp)
 342              		.cfi_restore 8
 343              		.cfi_def_cfa 2, 16
 344 0154 13010101 		addi	sp,sp,16
 345              		.cfi_def_cfa_offset 0
 346 0158 67800000 		jr	ra
 347              		.cfi_endproc
 348              	.LFE5:
 350              		.align	2
 351              		.globl	sem_close
 353              	sem_close:
GAS LISTING /tmp/cc5Tg6si.s 			page 9


 354              	.LFB6:
 115:src/syscall_c.c **** 
 116:src/syscall_c.c **** 
 117:src/syscall_c.c **** int sem_close(sem_t handle)
 118:src/syscall_c.c **** {
 355              		.loc 1 118 1 is_stmt 1
 356              		.cfi_startproc
 357              	.LVL26:
 358 015c 130101FF 		addi	sp,sp,-16
 359              		.cfi_def_cfa_offset 16
 360 0160 23348100 		sd	s0,8(sp)
 361              		.cfi_offset 8, -8
 362 0164 13040101 		addi	s0,sp,16
 363              		.cfi_def_cfa 8, 0
 119:src/syscall_c.c ****     __asm__ volatile("mv a1, %0" :  : "r"((uint64)handle));
 364              		.loc 1 119 5
 365              	#APP
 366              	# 119 "src/syscall_c.c" 1
 120              	    __asm__ volatile("li a0, 0x22");
 367              		mv a1, a0
 368              	# 0 "" 2
 369              		.loc 1 120 5
 370              	# 120 "src/syscall_c.c" 1
 121              	
 122:src/syscall_c.c ****     __asm__ volatile("ecall");
 371              		li a0, 0x22
 372              	# 0 "" 2
 373              		.loc 1 122 5
 374              	# 122 "src/syscall_c.c" 1
 123              	
 124:src/syscall_c.c ****     uint64 result;
 375              		ecall
 376              	# 0 "" 2
 377              		.loc 1 124 5
 125:src/syscall_c.c ****     __asm__ volatile("mv %0, a0" : "=r"(result));
 378              		.loc 1 125 5
 379              	# 125 "src/syscall_c.c" 1
 126              	    return result;
 380              		mv a0, a0
 381              	# 0 "" 2
 382              	.LVL27:
 383              		.loc 1 126 5
 127:src/syscall_c.c **** }
 384              		.loc 1 127 1 is_stmt 0
 385              	#NO_APP
 386 0178 1B050500 		sext.w	a0,a0
 387              	.LVL28:
 388 017c 03348100 		ld	s0,8(sp)
 389              		.cfi_restore 8
 390              		.cfi_def_cfa 2, 16
 391 0180 13010101 		addi	sp,sp,16
 392              		.cfi_def_cfa_offset 0
 393 0184 67800000 		jr	ra
 394              		.cfi_endproc
 395              	.LFE6:
 397              		.align	2
 398              		.globl	sem_wait
GAS LISTING /tmp/cc5Tg6si.s 			page 10


 400              	sem_wait:
 401              	.LFB7:
 128:src/syscall_c.c **** 
 129:src/syscall_c.c **** int sem_wait(sem_t id)
 130:src/syscall_c.c **** {
 402              		.loc 1 130 1 is_stmt 1
 403              		.cfi_startproc
 404              	.LVL29:
 405 0188 130101FF 		addi	sp,sp,-16
 406              		.cfi_def_cfa_offset 16
 407 018c 23348100 		sd	s0,8(sp)
 408              		.cfi_offset 8, -8
 409 0190 13040101 		addi	s0,sp,16
 410              		.cfi_def_cfa 8, 0
 131:src/syscall_c.c ****     __asm__ volatile("mv a1, %0" :  : "r"((uint64)id));
 411              		.loc 1 131 5
 412              	#APP
 413              	# 131 "src/syscall_c.c" 1
 132              	    __asm__ volatile("li a0, 0x23");
 414              		mv a1, a0
 415              	# 0 "" 2
 416              		.loc 1 132 5
 417              	# 132 "src/syscall_c.c" 1
 133              	
 134:src/syscall_c.c ****     __asm__ volatile("ecall");
 418              		li a0, 0x23
 419              	# 0 "" 2
 420              		.loc 1 134 5
 421              	# 134 "src/syscall_c.c" 1
 135              	
 136:src/syscall_c.c ****     uint64 result;
 422              		ecall
 423              	# 0 "" 2
 424              		.loc 1 136 5
 137:src/syscall_c.c ****     __asm__ volatile("mv %0, a0" : "=r"(result));
 425              		.loc 1 137 5
 426              	# 137 "src/syscall_c.c" 1
 138              	    return result;
 427              		mv a0, a0
 428              	# 0 "" 2
 429              	.LVL30:
 430              		.loc 1 138 5
 139:src/syscall_c.c **** }
 431              		.loc 1 139 1 is_stmt 0
 432              	#NO_APP
 433 01a4 1B050500 		sext.w	a0,a0
 434              	.LVL31:
 435 01a8 03348100 		ld	s0,8(sp)
 436              		.cfi_restore 8
 437              		.cfi_def_cfa 2, 16
 438 01ac 13010101 		addi	sp,sp,16
 439              		.cfi_def_cfa_offset 0
 440 01b0 67800000 		jr	ra
 441              		.cfi_endproc
 442              	.LFE7:
 444              		.align	2
 445              		.globl	sem_signal
GAS LISTING /tmp/cc5Tg6si.s 			page 11


 447              	sem_signal:
 448              	.LFB8:
 140:src/syscall_c.c **** 
 141:src/syscall_c.c **** int sem_signal(sem_t id)
 142:src/syscall_c.c **** {
 449              		.loc 1 142 1 is_stmt 1
 450              		.cfi_startproc
 451              	.LVL32:
 452 01b4 130101FF 		addi	sp,sp,-16
 453              		.cfi_def_cfa_offset 16
 454 01b8 23348100 		sd	s0,8(sp)
 455              		.cfi_offset 8, -8
 456 01bc 13040101 		addi	s0,sp,16
 457              		.cfi_def_cfa 8, 0
 143:src/syscall_c.c ****     __asm__ volatile("mv a1, %0" :  : "r"((uint64)id));
 458              		.loc 1 143 5
 459              	#APP
 460              	# 143 "src/syscall_c.c" 1
 144              	    __asm__ volatile("li a0, 0x24");
 461              		mv a1, a0
 462              	# 0 "" 2
 463              		.loc 1 144 5
 464              	# 144 "src/syscall_c.c" 1
 145              	
 146:src/syscall_c.c ****     __asm__ volatile("ecall");
 465              		li a0, 0x24
 466              	# 0 "" 2
 467              		.loc 1 146 5
 468              	# 146 "src/syscall_c.c" 1
 147              	
 148:src/syscall_c.c ****     uint64 result;
 469              		ecall
 470              	# 0 "" 2
 471              		.loc 1 148 5
 149:src/syscall_c.c ****     __asm__ volatile("mv %0, a0" : "=r"(result));
 472              		.loc 1 149 5
 473              	# 149 "src/syscall_c.c" 1
 150              	    return result;
 474              		mv a0, a0
 475              	# 0 "" 2
 476              	.LVL33:
 477              		.loc 1 150 5
 151:src/syscall_c.c **** }
 478              		.loc 1 151 1 is_stmt 0
 479              	#NO_APP
 480 01d0 1B050500 		sext.w	a0,a0
 481              	.LVL34:
 482 01d4 03348100 		ld	s0,8(sp)
 483              		.cfi_restore 8
 484              		.cfi_def_cfa 2, 16
 485 01d8 13010101 		addi	sp,sp,16
 486              		.cfi_def_cfa_offset 0
 487 01dc 67800000 		jr	ra
 488              		.cfi_endproc
 489              	.LFE8:
 491              		.align	2
 492              		.globl	time_sleep
GAS LISTING /tmp/cc5Tg6si.s 			page 12


 494              	time_sleep:
 495              	.LFB9:
 152:src/syscall_c.c **** 
 153:src/syscall_c.c **** int time_sleep(uint64 time)
 154:src/syscall_c.c **** {
 496              		.loc 1 154 1 is_stmt 1
 497              		.cfi_startproc
 498              	.LVL35:
 499 01e0 130101FF 		addi	sp,sp,-16
 500              		.cfi_def_cfa_offset 16
 501 01e4 23348100 		sd	s0,8(sp)
 502              		.cfi_offset 8, -8
 503 01e8 13040101 		addi	s0,sp,16
 504              		.cfi_def_cfa 8, 0
 155:src/syscall_c.c ****     __asm__ volatile("mv a1, %0" :  : "r"((uint64)time));
 505              		.loc 1 155 5
 506              	#APP
 507              	# 155 "src/syscall_c.c" 1
 156              	    __asm__ volatile("li a0, 0x31");
 508              		mv a1, a0
 509              	# 0 "" 2
 510              		.loc 1 156 5
 511              	# 156 "src/syscall_c.c" 1
 157              	
 158:src/syscall_c.c ****     __asm__ volatile("ecall");
 512              		li a0, 0x31
 513              	# 0 "" 2
 514              		.loc 1 158 5
 515              	# 158 "src/syscall_c.c" 1
 159              	
 160:src/syscall_c.c ****     uint64 result;
 516              		ecall
 517              	# 0 "" 2
 518              		.loc 1 160 5
 161:src/syscall_c.c ****     __asm__ volatile("mv %0, a0" : "=r"(result));
 519              		.loc 1 161 5
 520              	# 161 "src/syscall_c.c" 1
 162              	    return result;
 521              		mv a0, a0
 522              	# 0 "" 2
 523              	.LVL36:
 524              		.loc 1 162 5
 163:src/syscall_c.c **** }...
 525              		.loc 1 163 1 is_stmt 0
 526              	#NO_APP
 527 01fc 1B050500 		sext.w	a0,a0
 528              	.LVL37:
 529 0200 03348100 		ld	s0,8(sp)
 530              		.cfi_restore 8
 531              		.cfi_def_cfa 2, 16
 532 0204 13010101 		addi	sp,sp,16
 533              		.cfi_def_cfa_offset 0
 534 0208 67800000 		jr	ra
 535              		.cfi_endproc
 536              	.LFE9:
 538              	.Letext0:
 539              		.file 2 "src/../h/../lib/hw.h"
GAS LISTING /tmp/cc5Tg6si.s 			page 13


 540              		.file 3 "src/../h/syscall_c.h"
GAS LISTING /tmp/cc5Tg6si.s 			page 14


DEFINED SYMBOLS
                            *ABS*:0000000000000000 syscall_c.c
     /tmp/cc5Tg6si.s:10     .text:0000000000000000 mem_alloc
     /tmp/cc5Tg6si.s:14     .text:0000000000000000 .L0 
     /tmp/cc5Tg6si.s:16     .text:0000000000000000 .L0 
     /tmp/cc5Tg6si.s:17     .text:0000000000000004 .L0 
     /tmp/cc5Tg6si.s:19     .text:0000000000000008 .L0 
     /tmp/cc5Tg6si.s:21     .text:000000000000000c .L0 
     /tmp/cc5Tg6si.s:23     .text:000000000000000c .L0 
     /tmp/cc5Tg6si.s:24     .text:000000000000000c .L0 
     /tmp/cc5Tg6si.s:27     .text:0000000000000010 .L0 
     src/syscall_c.c:14     .text:0000000000000014 .L0 
     src/syscall_c.c:15     .text:0000000000000018 .L0 
     src/syscall_c.c:17     .text:000000000000001c .L0 
     /tmp/cc5Tg6si.s:44     .text:0000000000000020 .L0 
     src/syscall_c.c:21     .text:0000000000000020 .L0 
     /tmp/cc5Tg6si.s:50     .text:0000000000000024 .L0 
     /tmp/cc5Tg6si.s:52     .text:0000000000000024 .L0 
     /tmp/cc5Tg6si.s:53     .text:0000000000000028 .L0 
     /tmp/cc5Tg6si.s:54     .text:0000000000000028 .L0 
     /tmp/cc5Tg6si.s:56     .text:000000000000002c .L0 
     /tmp/cc5Tg6si.s:58     .text:0000000000000030 .L0 
     /tmp/cc5Tg6si.s:64     .text:0000000000000030 mem_free
     /tmp/cc5Tg6si.s:67     .text:0000000000000030 .L0 
     /tmp/cc5Tg6si.s:69     .text:0000000000000030 .L0 
     /tmp/cc5Tg6si.s:70     .text:0000000000000034 .L0 
     /tmp/cc5Tg6si.s:72     .text:0000000000000038 .L0 
     /tmp/cc5Tg6si.s:74     .text:000000000000003c .L0 
     /tmp/cc5Tg6si.s:77     .text:000000000000003c .L0 
     src/syscall_c.c:33     .text:000000000000003c .L0 
     src/syscall_c.c:34     .text:0000000000000040 .L0 
     src/syscall_c.c:36     .text:0000000000000044 .L0 
     /tmp/cc5Tg6si.s:91     .text:0000000000000048 .L0 
     src/syscall_c.c:40     .text:0000000000000048 .L0 
     /tmp/cc5Tg6si.s:97     .text:000000000000004c .L0 
     /tmp/cc5Tg6si.s:99     .text:000000000000004c .L0 
     /tmp/cc5Tg6si.s:102    .text:0000000000000054 .L0 
     /tmp/cc5Tg6si.s:103    .text:0000000000000054 .L0 
     /tmp/cc5Tg6si.s:105    .text:0000000000000058 .L0 
     /tmp/cc5Tg6si.s:107    .text:000000000000005c .L0 
     /tmp/cc5Tg6si.s:113    .text:000000000000005c thread_create
     /tmp/cc5Tg6si.s:116    .text:000000000000005c .L0 
     /tmp/cc5Tg6si.s:118    .text:000000000000005c .L0 
     /tmp/cc5Tg6si.s:119    .text:0000000000000060 .L0 
     /tmp/cc5Tg6si.s:125    .text:0000000000000074 .L0 
     /tmp/cc5Tg6si.s:126    .text:0000000000000074 .L0 
     /tmp/cc5Tg6si.s:127    .text:0000000000000074 .L0 
     /tmp/cc5Tg6si.s:128    .text:0000000000000074 .L0 
     /tmp/cc5Tg6si.s:129    .text:0000000000000074 .L0 
     /tmp/cc5Tg6si.s:131    .text:0000000000000078 .L0 
     /tmp/cc5Tg6si.s:137    .text:0000000000000084 .L0 
     /tmp/cc5Tg6si.s:138    .text:0000000000000084 .L0 
     /tmp/cc5Tg6si.s:139    .text:0000000000000084 .L0 
     /tmp/cc5Tg6si.s:140    .text:0000000000000084 .L0 
     /tmp/cc5Tg6si.s:141    .text:0000000000000084 .L0 
     /tmp/cc5Tg6si.s:142    .text:0000000000000084 .L0 
     /tmp/cc5Tg6si.s:147    .text:0000000000000090 .L0 
GAS LISTING /tmp/cc5Tg6si.s 			page 15


     /tmp/cc5Tg6si.s:148    .text:0000000000000090 .L0 
     /tmp/cc5Tg6si.s:149    .text:0000000000000090 .L0 
     src/syscall_c.c:63     .text:0000000000000094 .L0 
     src/syscall_c.c:64     .text:0000000000000098 .L0 
     src/syscall_c.c:65     .text:000000000000009c .L0 
     src/syscall_c.c:66     .text:00000000000000a0 .L0 
     /tmp/cc5Tg6si.s:169    .text:00000000000000a4 .L0 
     src/syscall_c.c:70     .text:00000000000000ac .L0 
     /tmp/cc5Tg6si.s:179    .text:00000000000000b0 .L0 
     src/syscall_c.c:74     .text:00000000000000b0 .L0 
     /tmp/cc5Tg6si.s:185    .text:00000000000000b4 .L0 
     /tmp/cc5Tg6si.s:187    .text:00000000000000b4 .L0 
     /tmp/cc5Tg6si.s:191    .text:00000000000000b8 .L0 
     /tmp/cc5Tg6si.s:192    .text:00000000000000bc .L0 
     /tmp/cc5Tg6si.s:193    .text:00000000000000bc .L0 
     /tmp/cc5Tg6si.s:195    .text:00000000000000c0 .L0 
     /tmp/cc5Tg6si.s:196    .text:00000000000000c0 .L0 
     /tmp/cc5Tg6si.s:198    .text:00000000000000c4 .L0 
     /tmp/cc5Tg6si.s:201    .text:00000000000000c8 .L0 
     /tmp/cc5Tg6si.s:204    .text:00000000000000cc .L0 
     /tmp/cc5Tg6si.s:207    .text:00000000000000d0 .L0 
     /tmp/cc5Tg6si.s:211    .text:00000000000000d4 .L0 
     /tmp/cc5Tg6si.s:213    .text:00000000000000d4 .L0 
     /tmp/cc5Tg6si.s:216    .text:00000000000000dc .L0 
     /tmp/cc5Tg6si.s:222    .text:00000000000000dc thread_dispatch
     /tmp/cc5Tg6si.s:225    .text:00000000000000dc .L0 
     /tmp/cc5Tg6si.s:226    .text:00000000000000dc .L0 
     /tmp/cc5Tg6si.s:227    .text:00000000000000e0 .L0 
     /tmp/cc5Tg6si.s:229    .text:00000000000000e4 .L0 
     /tmp/cc5Tg6si.s:231    .text:00000000000000e8 .L0 
     src/syscall_c.c:84     .text:00000000000000e8 .L0 
     src/syscall_c.c:85     .text:00000000000000ec .L0 
     /tmp/cc5Tg6si.s:243    .text:00000000000000f0 .L0 
     /tmp/cc5Tg6si.s:244    .text:00000000000000f4 .L0 
     /tmp/cc5Tg6si.s:245    .text:00000000000000f4 .L0 
     /tmp/cc5Tg6si.s:247    .text:00000000000000f8 .L0 
     /tmp/cc5Tg6si.s:249    .text:00000000000000fc .L0 
     /tmp/cc5Tg6si.s:255    .text:00000000000000fc thread_exit
     /tmp/cc5Tg6si.s:258    .text:00000000000000fc .L0 
     /tmp/cc5Tg6si.s:259    .text:00000000000000fc .L0 
     /tmp/cc5Tg6si.s:260    .text:0000000000000100 .L0 
     /tmp/cc5Tg6si.s:262    .text:0000000000000104 .L0 
     /tmp/cc5Tg6si.s:264    .text:0000000000000108 .L0 
     src/syscall_c.c:93     .text:0000000000000108 .L0 
     src/syscall_c.c:95     .text:000000000000010c .L0 
     /tmp/cc5Tg6si.s:275    .text:0000000000000110 .L0 
     src/syscall_c.c:98     .text:0000000000000110 .L0 
     /tmp/cc5Tg6si.s:281    .text:0000000000000114 .L0 
     /tmp/cc5Tg6si.s:283    .text:0000000000000114 .L0 
     /tmp/cc5Tg6si.s:286    .text:000000000000011c .L0 
     /tmp/cc5Tg6si.s:287    .text:000000000000011c .L0 
     /tmp/cc5Tg6si.s:289    .text:0000000000000120 .L0 
     /tmp/cc5Tg6si.s:291    .text:0000000000000124 .L0 
     /tmp/cc5Tg6si.s:297    .text:0000000000000124 sem_open
     /tmp/cc5Tg6si.s:300    .text:0000000000000124 .L0 
     /tmp/cc5Tg6si.s:302    .text:0000000000000124 .L0 
     /tmp/cc5Tg6si.s:303    .text:0000000000000128 .L0 
GAS LISTING /tmp/cc5Tg6si.s 			page 16


     /tmp/cc5Tg6si.s:305    .text:000000000000012c .L0 
     /tmp/cc5Tg6si.s:307    .text:0000000000000130 .L0 
     /tmp/cc5Tg6si.s:309    .text:0000000000000130 .L0 
     /tmp/cc5Tg6si.s:310    .text:0000000000000130 .L0 
     src/syscall_c.c:105    .text:0000000000000138 .L0 
     src/syscall_c.c:106    .text:000000000000013c .L0 
     src/syscall_c.c:107    .text:0000000000000140 .L0 
     src/syscall_c.c:109    .text:0000000000000144 .L0 
     /tmp/cc5Tg6si.s:331    .text:0000000000000148 .L0 
     src/syscall_c.c:112    .text:0000000000000148 .L0 
     /tmp/cc5Tg6si.s:337    .text:000000000000014c .L0 
     /tmp/cc5Tg6si.s:339    .text:000000000000014c .L0 
     /tmp/cc5Tg6si.s:342    .text:0000000000000154 .L0 
     /tmp/cc5Tg6si.s:343    .text:0000000000000154 .L0 
     /tmp/cc5Tg6si.s:345    .text:0000000000000158 .L0 
     /tmp/cc5Tg6si.s:347    .text:000000000000015c .L0 
     /tmp/cc5Tg6si.s:353    .text:000000000000015c sem_close
     /tmp/cc5Tg6si.s:356    .text:000000000000015c .L0 
     /tmp/cc5Tg6si.s:358    .text:000000000000015c .L0 
     /tmp/cc5Tg6si.s:359    .text:0000000000000160 .L0 
     /tmp/cc5Tg6si.s:361    .text:0000000000000164 .L0 
     /tmp/cc5Tg6si.s:363    .text:0000000000000168 .L0 
     src/syscall_c.c:119    .text:0000000000000168 .L0 
     src/syscall_c.c:120    .text:000000000000016c .L0 
     src/syscall_c.c:122    .text:0000000000000170 .L0 
     /tmp/cc5Tg6si.s:378    .text:0000000000000174 .L0 
     src/syscall_c.c:125    .text:0000000000000174 .L0 
     /tmp/cc5Tg6si.s:384    .text:0000000000000178 .L0 
     /tmp/cc5Tg6si.s:386    .text:0000000000000178 .L0 
     /tmp/cc5Tg6si.s:389    .text:0000000000000180 .L0 
     /tmp/cc5Tg6si.s:390    .text:0000000000000180 .L0 
     /tmp/cc5Tg6si.s:392    .text:0000000000000184 .L0 
     /tmp/cc5Tg6si.s:394    .text:0000000000000188 .L0 
     /tmp/cc5Tg6si.s:400    .text:0000000000000188 sem_wait
     /tmp/cc5Tg6si.s:403    .text:0000000000000188 .L0 
     /tmp/cc5Tg6si.s:405    .text:0000000000000188 .L0 
     /tmp/cc5Tg6si.s:406    .text:000000000000018c .L0 
     /tmp/cc5Tg6si.s:408    .text:0000000000000190 .L0 
     /tmp/cc5Tg6si.s:410    .text:0000000000000194 .L0 
     src/syscall_c.c:131    .text:0000000000000194 .L0 
     src/syscall_c.c:132    .text:0000000000000198 .L0 
     src/syscall_c.c:134    .text:000000000000019c .L0 
     /tmp/cc5Tg6si.s:425    .text:00000000000001a0 .L0 
     src/syscall_c.c:137    .text:00000000000001a0 .L0 
     /tmp/cc5Tg6si.s:431    .text:00000000000001a4 .L0 
     /tmp/cc5Tg6si.s:433    .text:00000000000001a4 .L0 
     /tmp/cc5Tg6si.s:436    .text:00000000000001ac .L0 
     /tmp/cc5Tg6si.s:437    .text:00000000000001ac .L0 
     /tmp/cc5Tg6si.s:439    .text:00000000000001b0 .L0 
     /tmp/cc5Tg6si.s:441    .text:00000000000001b4 .L0 
     /tmp/cc5Tg6si.s:447    .text:00000000000001b4 sem_signal
     /tmp/cc5Tg6si.s:450    .text:00000000000001b4 .L0 
     /tmp/cc5Tg6si.s:452    .text:00000000000001b4 .L0 
     /tmp/cc5Tg6si.s:453    .text:00000000000001b8 .L0 
     /tmp/cc5Tg6si.s:455    .text:00000000000001bc .L0 
     /tmp/cc5Tg6si.s:457    .text:00000000000001c0 .L0 
     src/syscall_c.c:143    .text:00000000000001c0 .L0 
GAS LISTING /tmp/cc5Tg6si.s 			page 17


     src/syscall_c.c:144    .text:00000000000001c4 .L0 
     src/syscall_c.c:146    .text:00000000000001c8 .L0 
     /tmp/cc5Tg6si.s:472    .text:00000000000001cc .L0 
     src/syscall_c.c:149    .text:00000000000001cc .L0 
     /tmp/cc5Tg6si.s:478    .text:00000000000001d0 .L0 
     /tmp/cc5Tg6si.s:480    .text:00000000000001d0 .L0 
     /tmp/cc5Tg6si.s:483    .text:00000000000001d8 .L0 
     /tmp/cc5Tg6si.s:484    .text:00000000000001d8 .L0 
     /tmp/cc5Tg6si.s:486    .text:00000000000001dc .L0 
     /tmp/cc5Tg6si.s:488    .text:00000000000001e0 .L0 
     /tmp/cc5Tg6si.s:494    .text:00000000000001e0 time_sleep
     /tmp/cc5Tg6si.s:497    .text:00000000000001e0 .L0 
     /tmp/cc5Tg6si.s:499    .text:00000000000001e0 .L0 
     /tmp/cc5Tg6si.s:500    .text:00000000000001e4 .L0 
     /tmp/cc5Tg6si.s:502    .text:00000000000001e8 .L0 
     /tmp/cc5Tg6si.s:504    .text:00000000000001ec .L0 
     src/syscall_c.c:155    .text:00000000000001ec .L0 
     src/syscall_c.c:156    .text:00000000000001f0 .L0 
     src/syscall_c.c:158    .text:00000000000001f4 .L0 
     /tmp/cc5Tg6si.s:519    .text:00000000000001f8 .L0 
     src/syscall_c.c:161    .text:00000000000001f8 .L0 
     /tmp/cc5Tg6si.s:525    .text:00000000000001fc .L0 
     /tmp/cc5Tg6si.s:527    .text:00000000000001fc .L0 
     /tmp/cc5Tg6si.s:530    .text:0000000000000204 .L0 
     /tmp/cc5Tg6si.s:531    .text:0000000000000204 .L0 
     /tmp/cc5Tg6si.s:533    .text:0000000000000208 .L0 
     /tmp/cc5Tg6si.s:535    .text:000000000000020c .L0 
     /tmp/cc5Tg6si.s:541    .text:000000000000020c .L0 
                     .debug_frame:0000000000000000 .L0 
     /tmp/cc5Tg6si.s:210    .text:00000000000000d4 .L7
     /tmp/cc5Tg6si.s:189    .text:00000000000000b8 .L6
     /tmp/cc5Tg6si.s:1018   .debug_abbrev:0000000000000000 .Ldebug_abbrev0
     /tmp/cc5Tg6si.s:1759   .debug_str:000000000000006d .LASF42
     /tmp/cc5Tg6si.s:1761   .debug_str:000000000000010b .LASF43
     /tmp/cc5Tg6si.s:1809   .debug_str:000000000000023e .LASF44
     /tmp/cc5Tg6si.s:5      .text:0000000000000000 .Ltext0
     /tmp/cc5Tg6si.s:538    .text:000000000000020c .Letext0
     /tmp/cc5Tg6si.s:1739   .debug_line:0000000000000000 .Ldebug_line0
     /tmp/cc5Tg6si.s:1791   .debug_str:00000000000001d2 .LASF0
     /tmp/cc5Tg6si.s:1775   .debug_str:0000000000000170 .LASF1
     /tmp/cc5Tg6si.s:1767   .debug_str:000000000000013c .LASF2
     /tmp/cc5Tg6si.s:1753   .debug_str:0000000000000042 .LASF4
     /tmp/cc5Tg6si.s:1771   .debug_str:0000000000000154 .LASF3
     /tmp/cc5Tg6si.s:1745   .debug_str:000000000000001f .LASF5
     /tmp/cc5Tg6si.s:1741   .debug_str:0000000000000000 .LASF6
     /tmp/cc5Tg6si.s:1815   .debug_str:000000000000027b .LASF7
     /tmp/cc5Tg6si.s:1797   .debug_str:00000000000001f1 .LASF8
     /tmp/cc5Tg6si.s:1751   .debug_str:0000000000000034 .LASF9
     /tmp/cc5Tg6si.s:1833   .debug_str:00000000000002dc .LASF10
     /tmp/cc5Tg6si.s:1763   .debug_str:000000000000011b .LASF11
     /tmp/cc5Tg6si.s:1823   .debug_str:00000000000002a5 .LASF12
     /tmp/cc5Tg6si.s:1805   .debug_str:0000000000000225 .LASF13
     /tmp/cc5Tg6si.s:1779   .debug_str:0000000000000191 .LASF14
     /tmp/cc5Tg6si.s:1757   .debug_str:0000000000000057 .LASF15
     /tmp/cc5Tg6si.s:1801   .debug_str:0000000000000206 .LASF16
     /tmp/cc5Tg6si.s:1803   .debug_str:000000000000021c .LASF17
     /tmp/cc5Tg6si.s:1749   .debug_str:000000000000002e .LASF18
GAS LISTING /tmp/cc5Tg6si.s 			page 18


     /tmp/cc5Tg6si.s:1793   .debug_str:00000000000001df .LASF20
     /tmp/cc5Tg6si.s:495    .text:00000000000001e0 .LFB9
     /tmp/cc5Tg6si.s:536    .text:000000000000020c .LFE9
     /tmp/cc5Tg6si.s:1799   .debug_str:0000000000000201 .LASF22
     /tmp/cc5Tg6si.s:1365   .debug_loc:0000000000000000 .LLST24
     /tmp/cc5Tg6si.s:1795   .debug_str:00000000000001ea .LASF19
     /tmp/cc5Tg6si.s:1379   .debug_loc:0000000000000039 .LLST25
     /tmp/cc5Tg6si.s:1783   .debug_str:00000000000001a4 .LASF21
     /tmp/cc5Tg6si.s:448    .text:00000000000001b4 .LFB8
     /tmp/cc5Tg6si.s:489    .text:00000000000001e0 .LFE8
     /tmp/cc5Tg6si.s:1386   .debug_loc:000000000000005c .LLST22
     /tmp/cc5Tg6si.s:1400   .debug_loc:0000000000000095 .LLST23
     /tmp/cc5Tg6si.s:1789   .debug_str:00000000000001c9 .LASF23
     /tmp/cc5Tg6si.s:401    .text:0000000000000188 .LFB7
     /tmp/cc5Tg6si.s:442    .text:00000000000001b4 .LFE7
     /tmp/cc5Tg6si.s:1407   .debug_loc:00000000000000b8 .LLST20
     /tmp/cc5Tg6si.s:1421   .debug_loc:00000000000000f1 .LLST21
     /tmp/cc5Tg6si.s:1769   .debug_str:000000000000014a .LASF24
     /tmp/cc5Tg6si.s:354    .text:000000000000015c .LFB6
     /tmp/cc5Tg6si.s:395    .text:0000000000000188 .LFE6
     /tmp/cc5Tg6si.s:1781   .debug_str:000000000000019d .LASF25
     /tmp/cc5Tg6si.s:1428   .debug_loc:0000000000000114 .LLST18
     /tmp/cc5Tg6si.s:1442   .debug_loc:000000000000014d .LLST19
     /tmp/cc5Tg6si.s:1819   .debug_str:0000000000000293 .LASF26
     /tmp/cc5Tg6si.s:298    .text:0000000000000124 .LFB5
     /tmp/cc5Tg6si.s:348    .text:000000000000015c .LFE5
     /tmp/cc5Tg6si.s:1449   .debug_loc:0000000000000170 .LLST15
     /tmp/cc5Tg6si.s:1463   .debug_loc:00000000000001a9 .LLST16
     /tmp/cc5Tg6si.s:1477   .debug_loc:00000000000001e2 .LLST17
     /tmp/cc5Tg6si.s:1825   .debug_str:00000000000002b5 .LASF37
     /tmp/cc5Tg6si.s:256    .text:00000000000000fc .LFB4
     /tmp/cc5Tg6si.s:292    .text:0000000000000124 .LFE4
     /tmp/cc5Tg6si.s:1484   .debug_loc:0000000000000205 .LLST14
     /tmp/cc5Tg6si.s:1811   .debug_str:0000000000000261 .LASF45
     /tmp/cc5Tg6si.s:223    .text:00000000000000dc .LFB3
     /tmp/cc5Tg6si.s:250    .text:00000000000000fc .LFE3
     /tmp/cc5Tg6si.s:1777   .debug_str:0000000000000183 .LASF27
     /tmp/cc5Tg6si.s:114    .text:000000000000005c .LFB2
     /tmp/cc5Tg6si.s:217    .text:00000000000000dc .LFE2
     /tmp/cc5Tg6si.s:1491   .debug_loc:0000000000000228 .LLST6
     /tmp/cc5Tg6si.s:1787   .debug_str:00000000000001bb .LASF28
     /tmp/cc5Tg6si.s:1513   .debug_loc:0000000000000287 .LLST7
     /tmp/cc5Tg6si.s:1817   .debug_str:000000000000028e .LASF29
     /tmp/cc5Tg6si.s:1535   .debug_loc:00000000000002e6 .LLST8
     /tmp/cc5Tg6si.s:1829   .debug_str:00000000000002cb .LASF30
     /tmp/cc5Tg6si.s:1557   .debug_loc:0000000000000345 .LLST9
     /tmp/cc5Tg6si.s:1785   .debug_str:00000000000001af .LASF31
     /tmp/cc5Tg6si.s:1579   .debug_loc:00000000000003a4 .LLST10
     /tmp/cc5Tg6si.s:1813   .debug_str:0000000000000271 .LASF32
     /tmp/cc5Tg6si.s:1601   .debug_loc:0000000000000403 .LLST11
     /tmp/cc5Tg6si.s:1747   .debug_str:0000000000000026 .LASF33
     /tmp/cc5Tg6si.s:1743   .debug_str:0000000000000013 .LASF46
     /tmp/cc5Tg6si.s:1765   .debug_str:000000000000012a .LASF34
     /tmp/cc5Tg6si.s:1623   .debug_loc:0000000000000462 .LLST12
     /tmp/cc5Tg6si.s:1634   .debug_loc:0000000000000498 .LLST13
     /tmp/cc5Tg6si.s:145    .text:0000000000000090 .LVL12
     /tmp/cc5Tg6si.s:1807   .debug_str:0000000000000235 .LASF35
GAS LISTING /tmp/cc5Tg6si.s 			page 19


     /tmp/cc5Tg6si.s:65     .text:0000000000000030 .LFB1
     /tmp/cc5Tg6si.s:108    .text:000000000000005c .LFE1
     /tmp/cc5Tg6si.s:1641   .debug_loc:00000000000004bb .LLST3
     /tmp/cc5Tg6si.s:1821   .debug_str:000000000000029c .LASF36
     /tmp/cc5Tg6si.s:1655   .debug_loc:00000000000004f4 .LLST4
     /tmp/cc5Tg6si.s:1669   .debug_loc:000000000000052d .LLST5
     /tmp/cc5Tg6si.s:1827   .debug_str:00000000000002c1 .LASF38
     /tmp/cc5Tg6si.s:11     .text:0000000000000000 .LFB0
     /tmp/cc5Tg6si.s:59     .text:0000000000000030 .LFE0
     /tmp/cc5Tg6si.s:1831   .debug_str:00000000000002d7 .LASF39
     /tmp/cc5Tg6si.s:1676   .debug_loc:0000000000000550 .LLST0
     /tmp/cc5Tg6si.s:1773   .debug_str:0000000000000166 .LASF40
     /tmp/cc5Tg6si.s:1696   .debug_loc:000000000000059e .LLST1
     /tmp/cc5Tg6si.s:1755   .debug_str:0000000000000049 .LASF41
     /tmp/cc5Tg6si.s:1714   .debug_loc:00000000000005db .LLST2
     /tmp/cc5Tg6si.s:498    .text:00000000000001e0 .LVL35
     /tmp/cc5Tg6si.s:523    .text:00000000000001fc .LVL36
     /tmp/cc5Tg6si.s:528    .text:0000000000000200 .LVL37
     /tmp/cc5Tg6si.s:451    .text:00000000000001b4 .LVL32
     /tmp/cc5Tg6si.s:476    .text:00000000000001d0 .LVL33
     /tmp/cc5Tg6si.s:481    .text:00000000000001d4 .LVL34
     /tmp/cc5Tg6si.s:404    .text:0000000000000188 .LVL29
     /tmp/cc5Tg6si.s:429    .text:00000000000001a4 .LVL30
     /tmp/cc5Tg6si.s:434    .text:00000000000001a8 .LVL31
     /tmp/cc5Tg6si.s:357    .text:000000000000015c .LVL26
     /tmp/cc5Tg6si.s:382    .text:0000000000000178 .LVL27
     /tmp/cc5Tg6si.s:387    .text:000000000000017c .LVL28
     /tmp/cc5Tg6si.s:301    .text:0000000000000124 .LVL22
     /tmp/cc5Tg6si.s:335    .text:000000000000014c .LVL24
     /tmp/cc5Tg6si.s:311    .text:0000000000000134 .LVL23
     /tmp/cc5Tg6si.s:340    .text:0000000000000150 .LVL25
     /tmp/cc5Tg6si.s:279    .text:0000000000000114 .LVL20
     /tmp/cc5Tg6si.s:284    .text:0000000000000118 .LVL21
     /tmp/cc5Tg6si.s:117    .text:000000000000005c .LVL9
     /tmp/cc5Tg6si.s:143    .text:0000000000000088 .LVL11
     /tmp/cc5Tg6si.s:199    .text:00000000000000c4 .LVL15
     /tmp/cc5Tg6si.s:209    .text:00000000000000d4 .LVL18
     /tmp/cc5Tg6si.s:202    .text:00000000000000c8 .LVL16
     /tmp/cc5Tg6si.s:205    .text:00000000000000cc .LVL17
     /tmp/cc5Tg6si.s:136    .text:0000000000000084 .LVL10
     /tmp/cc5Tg6si.s:183    .text:00000000000000b4 .LVL13
     /tmp/cc5Tg6si.s:214    .text:00000000000000d8 .LVL19
     /tmp/cc5Tg6si.s:188    .text:00000000000000b8 .LVL14
     /tmp/cc5Tg6si.s:68     .text:0000000000000030 .LVL5
     /tmp/cc5Tg6si.s:95     .text:000000000000004c .LVL7
     /tmp/cc5Tg6si.s:76     .text:000000000000003c .LVL6
     /tmp/cc5Tg6si.s:100    .text:0000000000000050 .LVL8
     /tmp/cc5Tg6si.s:15     .text:0000000000000000 .LVL0
     /tmp/cc5Tg6si.s:25     .text:0000000000000010 .LVL1
     /tmp/cc5Tg6si.s:28     .text:0000000000000014 .LVL2
     /tmp/cc5Tg6si.s:48     .text:0000000000000024 .LVL4
     /tmp/cc5Tg6si.s:43     .text:0000000000000020 .LVL3
     /tmp/cc5Tg6si.s:542    .debug_info:0000000000000000 .Ldebug_info0

NO UNDEFINED SYMBOLS
