GAS LISTING /tmp/cckswH7V.s 			page 1


   1              		.file	"syscall_c.c"
   2              		.option nopic
   3              		.option norelax
   4              		.text
   5              	.Ltext0:
   6              		.cfi_sections	.debug_frame
   7              		.align	2
   8              		.globl	mem_alloc
  10              	mem_alloc:
  11              	.LFB0:
  12              		.file 1 "src/syscall_c.c"
   1:src/syscall_c.c **** //
   2:src/syscall_c.c **** // Created by os on 4/9/22.
   3:src/syscall_c.c **** //
   4:src/syscall_c.c **** 
   5:src/syscall_c.c **** #include "../h/syscall_c.h"
   6:src/syscall_c.c **** 
   7:src/syscall_c.c **** #ifdef __cplusplus
   8:src/syscall_c.c **** extern "C"
   9:src/syscall_c.c **** #endif
  10:src/syscall_c.c **** void* mem_alloc(size_t size)
  11:src/syscall_c.c **** {
  13              		.loc 1 11 1
  14              		.cfi_startproc
  15              	.LVL0:
  16 0000 130101FF 		addi	sp,sp,-16
  17              		.cfi_def_cfa_offset 16
  18 0004 23348100 		sd	s0,8(sp)
  19              		.cfi_offset 8, -8
  20 0008 13040101 		addi	s0,sp,16
  21              		.cfi_def_cfa 8, 0
  12:src/syscall_c.c ****     //prepare for system call
  13:src/syscall_c.c ****     uint64 numBlocks = (size + MEM_BLOCK_SIZE - 1) / MEM_BLOCK_SIZE;
  22              		.loc 1 13 5
  23              		.loc 1 13 47 is_stmt 0
  24 000c 1305F503 		addi	a0,a0,63
  25              	.LVL1:
  26              		.loc 1 13 12
  27 0010 13556500 		srli	a0,a0,6
  28              	.LVL2:
  14:src/syscall_c.c ****     __asm__ volatile("mv a1, %0" :  : "r"(numBlocks));
  29              		.loc 1 14 5 is_stmt 1
  30              	#APP
  31              	# 14 "src/syscall_c.c" 1
  15              	    __asm__ volatile("li a0, 1");
  32              		mv a1, a0
  33              	# 0 "" 2
  34              		.loc 1 15 5
  35              	# 15 "src/syscall_c.c" 1
  16              	
  17:src/syscall_c.c ****     __asm__ volatile("ecall"); // system call
  36              		li a0, 1
  37              	# 0 "" 2
  38              		.loc 1 17 5
  39              	# 17 "src/syscall_c.c" 1
  18              	
  19:src/syscall_c.c ****     //get the address
GAS LISTING /tmp/cckswH7V.s 			page 2


  20:src/syscall_c.c ****     uint64 allocatedAddr = 0x01;
  40              		ecall
  41              	# 0 "" 2
  42              		.loc 1 20 5
  43              	.LVL3:
  21:src/syscall_c.c ****     __asm__ volatile("mv %0, a0" : "=r"(allocatedAddr));
  44              		.loc 1 21 5
  45              	# 21 "src/syscall_c.c" 1
  22              	
  46              		mv a0, a0
  47              	# 0 "" 2
  48              	.LVL4:
  23:src/syscall_c.c ****     return (void*)allocatedAddr;
  49              		.loc 1 23 5
  24:src/syscall_c.c **** }
  50              		.loc 1 24 1 is_stmt 0
  51              	#NO_APP
  52 0024 03348100 		ld	s0,8(sp)
  53              		.cfi_restore 8
  54              		.cfi_def_cfa 2, 16
  55 0028 13010101 		addi	sp,sp,16
  56              		.cfi_def_cfa_offset 0
  57 002c 67800000 		jr	ra
  58              		.cfi_endproc
  59              	.LFE0:
  61              		.align	2
  62              		.globl	mem_free
  64              	mem_free:
  65              	.LFB1:
  25:src/syscall_c.c **** 
  26:src/syscall_c.c **** #ifdef __cplusplus
  27:src/syscall_c.c **** extern "C"
  28:src/syscall_c.c **** #endif
  29:src/syscall_c.c **** int mem_free(void* p)
  30:src/syscall_c.c **** {
  66              		.loc 1 30 1 is_stmt 1
  67              		.cfi_startproc
  68              	.LVL5:
  69 0030 130101FF 		addi	sp,sp,-16
  70              		.cfi_def_cfa_offset 16
  71 0034 23348100 		sd	s0,8(sp)
  72              		.cfi_offset 8, -8
  73 0038 13040101 		addi	s0,sp,16
  74              		.cfi_def_cfa 8, 0
  31:src/syscall_c.c ****     //prepare for system call
  32:src/syscall_c.c ****     uint64 addrFree = (uint64)p;
  75              		.loc 1 32 5
  76              	.LVL6:
  33:src/syscall_c.c ****     __asm__ volatile("mv a1, %0" :  : "r"(addrFree));
  77              		.loc 1 33 5
  78              	#APP
  79              	# 33 "src/syscall_c.c" 1
  34              	    __asm__ volatile("li a0, 2");
  80              		mv a1, a0
  81              	# 0 "" 2
  82              		.loc 1 34 5
  83              	# 34 "src/syscall_c.c" 1
GAS LISTING /tmp/cckswH7V.s 			page 3


  35              	
  36:src/syscall_c.c ****     __asm__ volatile("ecall"); // system call
  84              		li a0, 2
  85              	# 0 "" 2
  86              		.loc 1 36 5
  87              	# 36 "src/syscall_c.c" 1
  37              	
  38:src/syscall_c.c ****     //get the result of system call
  39:src/syscall_c.c ****     uint64 result;
  88              		ecall
  89              	# 0 "" 2
  90              		.loc 1 39 5
  40:src/syscall_c.c ****     __asm__ volatile("mv %0, a0" : "=r"(result));
  91              		.loc 1 40 5
  92              	# 40 "src/syscall_c.c" 1
  41              	
  93              		mv a0, a0
  94              	# 0 "" 2
  95              	.LVL7:
  42:src/syscall_c.c ****     return result;
  96              		.loc 1 42 5
  43:src/syscall_c.c **** }
  97              		.loc 1 43 1 is_stmt 0
  98              	#NO_APP
  99 004c 1B050500 		sext.w	a0,a0
 100              	.LVL8:
 101 0050 03348100 		ld	s0,8(sp)
 102              		.cfi_restore 8
 103              		.cfi_def_cfa 2, 16
 104 0054 13010101 		addi	sp,sp,16
 105              		.cfi_def_cfa_offset 0
 106 0058 67800000 		jr	ra
 107              		.cfi_endproc
 108              	.LFE1:
 110              		.align	2
 111              		.globl	thread_create
 113              	thread_create:
 114              	.LFB2:
  44:src/syscall_c.c **** 
  45:src/syscall_c.c **** #ifdef __cplusplus
  46:src/syscall_c.c **** extern "C"
  47:src/syscall_c.c **** #endif
  48:src/syscall_c.c **** int thread_create(thread_t* handle, void (*start_routine)(void*), void* args)
  49:src/syscall_c.c **** {
 115              		.loc 1 49 1 is_stmt 1
 116              		.cfi_startproc
 117              	.LVL9:
 118 005c 130101FD 		addi	sp,sp,-48
 119              		.cfi_def_cfa_offset 48
 120 0060 23341102 		sd	ra,40(sp)
 121 0064 23308102 		sd	s0,32(sp)
 122 0068 233C9100 		sd	s1,24(sp)
 123 006c 23382101 		sd	s2,16(sp)
 124 0070 23343101 		sd	s3,8(sp)
 125              		.cfi_offset 1, -8
 126              		.cfi_offset 8, -16
 127              		.cfi_offset 9, -24
GAS LISTING /tmp/cckswH7V.s 			page 4


 128              		.cfi_offset 18, -32
 129              		.cfi_offset 19, -40
 130 0074 13040103 		addi	s0,sp,48
 131              		.cfi_def_cfa 8, 0
 132 0078 93040500 		mv	s1,a0
 133 007c 13890500 		mv	s2,a1
 134 0080 93090600 		mv	s3,a2
  50:src/syscall_c.c ****     uint64 handleLocal = (uint64)handle;
 135              		.loc 1 50 5
 136              	.LVL10:
  51:src/syscall_c.c ****     uint64 startRLocal = (uint64)start_routine;
 137              		.loc 1 51 5
  52:src/syscall_c.c ****     uint64 argsLocal = (uint64)args;
 138              		.loc 1 52 5
  53:src/syscall_c.c ****     uint64 opLocal = 0x11;
 139              		.loc 1 53 5
  54:src/syscall_c.c **** 
  55:src/syscall_c.c ****     void * stack_space = mem_alloc(DEFAULT_STACK_SIZE);
 140              		.loc 1 55 5
 141              		.loc 1 55 26 is_stmt 0
 142 0084 37150000 		li	a0,4096
 143              	.LVL11:
 144 0088 97000000 		call	mem_alloc
 144      E7800000 
 145              	.LVL12:
  56:src/syscall_c.c ****     uint64 stackPointerLocal = (uint64)stack_space;
 146              		.loc 1 56 5 is_stmt 1
  57:src/syscall_c.c ****     //todo
  58:src/syscall_c.c ****     //handle this error
  59:src/syscall_c.c ****     if(stack_space == 0)
 147              		.loc 1 59 5
 148              		.loc 1 59 7 is_stmt 0
 149 0090 63020504 		beqz	a0,.L7
  60:src/syscall_c.c ****         return -1;
  61:src/syscall_c.c **** 
  62:src/syscall_c.c ****     //initialize registers
  63:src/syscall_c.c **** 
  64:src/syscall_c.c ****     __asm__ volatile("mv a4, %0" :  : "r"((uint64)stackPointerLocal));
 150              		.loc 1 64 5 is_stmt 1
 151              	#APP
 152              	# 64 "src/syscall_c.c" 1
  65              	    __asm__ volatile("mv a3, %0" :  : "r"((uint64)argsLocal));
 153              		mv a4, a0
 154              	# 0 "" 2
 155              		.loc 1 65 5
 156              	# 65 "src/syscall_c.c" 1
  66              	    __asm__ volatile("mv a2, %0" :  : "r"((uint64)startRLocal));
 157              		mv a3, s3
 158              	# 0 "" 2
 159              		.loc 1 66 5
 160              	# 66 "src/syscall_c.c" 1
  67              	    __asm__ volatile("mv a1, %0" :  : "r"((uint64)handleLocal));
 161              		mv a2, s2
 162              	# 0 "" 2
 163              		.loc 1 67 5
 164              	# 67 "src/syscall_c.c" 1
  68              	    __asm__ volatile("mv a0, %0" :  : "r"((uint64)opLocal));
GAS LISTING /tmp/cckswH7V.s 			page 5


 165              		mv a1, s1
 166              	# 0 "" 2
 167              		.loc 1 68 5
 168              	#NO_APP
 169 00a4 93071001 		li	a5,17
 170              	#APP
 171              	# 68 "src/syscall_c.c" 1
  69              	
  70:src/syscall_c.c **** 
  71:src/syscall_c.c ****     __asm__ volatile("ecall");
 172              		mv a0, a5
 173              	# 0 "" 2
 174              		.loc 1 71 5
 175              	# 71 "src/syscall_c.c" 1
  72              	
  73:src/syscall_c.c ****     uint64 result;
 176              		ecall
 177              	# 0 "" 2
 178              		.loc 1 73 5
  74:src/syscall_c.c ****     __asm__ volatile("mv %0, a0" : "=r"(result));
 179              		.loc 1 74 5
 180              	# 74 "src/syscall_c.c" 1
  75              	
 181              		mv a0, a0
 182              	# 0 "" 2
 183              	.LVL13:
  76:src/syscall_c.c ****     return result;
 184              		.loc 1 76 5
 185              		.loc 1 76 12 is_stmt 0
 186              	#NO_APP
 187 00b4 1B050500 		sext.w	a0,a0
 188              	.LVL14:
 189              	.L6:
  77:src/syscall_c.c **** }
 190              		.loc 1 77 1
 191 00b8 83308102 		ld	ra,40(sp)
 192              		.cfi_remember_state
 193              		.cfi_restore 1
 194 00bc 03340102 		ld	s0,32(sp)
 195              		.cfi_restore 8
 196              		.cfi_def_cfa 2, 48
 197 00c0 83348101 		ld	s1,24(sp)
 198              		.cfi_restore 9
 199              	.LVL15:
 200 00c4 03390101 		ld	s2,16(sp)
 201              		.cfi_restore 18
 202              	.LVL16:
 203 00c8 83398100 		ld	s3,8(sp)
 204              		.cfi_restore 19
 205              	.LVL17:
 206 00cc 13010103 		addi	sp,sp,48
 207              		.cfi_def_cfa_offset 0
 208 00d0 67800000 		jr	ra
 209              	.LVL18:
 210              	.L7:
 211              		.cfi_restore_state
  60:src/syscall_c.c **** 
GAS LISTING /tmp/cckswH7V.s 			page 6


 212              		.loc 1 60 16
 213 00d4 1305F0FF 		li	a0,-1
 214              	.LVL19:
 215 00d8 6FF01FFE 		j	.L6
 216              		.cfi_endproc
 217              	.LFE2:
 219              		.align	2
 220              		.globl	thread_dispatch
 222              	thread_dispatch:
 223              	.LFB3:
  78:src/syscall_c.c **** 
  79:src/syscall_c.c **** #ifdef __cplusplus
  80:src/syscall_c.c **** extern "C"
  81:src/syscall_c.c **** #endif
  82:src/syscall_c.c **** void thread_dispatch(){
 224              		.loc 1 82 23 is_stmt 1
 225              		.cfi_startproc
 226 00dc 130101FF 		addi	sp,sp,-16
 227              		.cfi_def_cfa_offset 16
 228 00e0 23348100 		sd	s0,8(sp)
 229              		.cfi_offset 8, -8
 230 00e4 13040101 		addi	s0,sp,16
 231              		.cfi_def_cfa 8, 0
  83:src/syscall_c.c ****     __asm__ volatile("li a0, 0x13");
 232              		.loc 1 83 5
 233              	#APP
 234              	# 83 "src/syscall_c.c" 1
  84              	    __asm__ volatile("ecall");
 235              		li a0, 0x13
 236              	# 0 "" 2
 237              		.loc 1 84 5
 238              	# 84 "src/syscall_c.c" 1
  85              	}
 239              		ecall
 240              	# 0 "" 2
 241              		.loc 1 85 1 is_stmt 0
 242              	#NO_APP
 243 00f0 03348100 		ld	s0,8(sp)
 244              		.cfi_restore 8
 245              		.cfi_def_cfa 2, 16
 246 00f4 13010101 		addi	sp,sp,16
 247              		.cfi_def_cfa_offset 0
 248 00f8 67800000 		jr	ra
 249              		.cfi_endproc
 250              	.LFE3:
 252              		.align	2
 253              		.globl	thread_exit
 255              	thread_exit:
 256              	.LFB4:
  86:src/syscall_c.c **** 
  87:src/syscall_c.c **** #ifdef __cplusplus
  88:src/syscall_c.c **** extern "C"
  89:src/syscall_c.c **** #endif
  90:src/syscall_c.c **** int thread_exit()
  91:src/syscall_c.c **** {
 257              		.loc 1 91 1 is_stmt 1
 258              		.cfi_startproc
GAS LISTING /tmp/cckswH7V.s 			page 7


 259 00fc 130101FF 		addi	sp,sp,-16
 260              		.cfi_def_cfa_offset 16
 261 0100 23348100 		sd	s0,8(sp)
 262              		.cfi_offset 8, -8
 263 0104 13040101 		addi	s0,sp,16
 264              		.cfi_def_cfa 8, 0
  92:src/syscall_c.c ****     __asm__ volatile("li a0, 0x13");
 265              		.loc 1 92 5
 266              	#APP
 267              	# 92 "src/syscall_c.c" 1
  93              	
  94:src/syscall_c.c ****     __asm__ volatile("ecall");
 268              		li a0, 0x13
 269              	# 0 "" 2
 270              		.loc 1 94 5
 271              	# 94 "src/syscall_c.c" 1
  95              	
  96:src/syscall_c.c ****     //returning the result
  97:src/syscall_c.c ****     uint64 result;
 272              		ecall
 273              	# 0 "" 2
 274              		.loc 1 97 5
  98:src/syscall_c.c ****     __asm__ volatile("mv %0, a0" : "=r"(result));
 275              		.loc 1 98 5
 276              	# 98 "src/syscall_c.c" 1
  99              	
 277              		mv a0, a0
 278              	# 0 "" 2
 279              	.LVL20:
 100:src/syscall_c.c ****     return result;
 280              		.loc 1 100 5
 101:src/syscall_c.c **** }
 281              		.loc 1 101 1 is_stmt 0
 282              	#NO_APP
 283 0114 1B050500 		sext.w	a0,a0
 284              	.LVL21:
 285 0118 03348100 		ld	s0,8(sp)
 286              		.cfi_restore 8
 287              		.cfi_def_cfa 2, 16
 288 011c 13010101 		addi	sp,sp,16
 289              		.cfi_def_cfa_offset 0
 290 0120 67800000 		jr	ra
 291              		.cfi_endproc
 292              	.LFE4:
 294              	.Letext0:
 295              		.file 2 "src/../h/../lib/hw.h"
 296              		.file 3 "src/../h/syscall_c.h"
GAS LISTING /tmp/cckswH7V.s 			page 8


DEFINED SYMBOLS
                            *ABS*:0000000000000000 syscall_c.c
     /tmp/cckswH7V.s:10     .text:0000000000000000 mem_alloc
     /tmp/cckswH7V.s:14     .text:0000000000000000 .L0 
     /tmp/cckswH7V.s:16     .text:0000000000000000 .L0 
     /tmp/cckswH7V.s:17     .text:0000000000000004 .L0 
     /tmp/cckswH7V.s:19     .text:0000000000000008 .L0 
     /tmp/cckswH7V.s:21     .text:000000000000000c .L0 
     /tmp/cckswH7V.s:23     .text:000000000000000c .L0 
     /tmp/cckswH7V.s:24     .text:000000000000000c .L0 
     /tmp/cckswH7V.s:27     .text:0000000000000010 .L0 
     src/syscall_c.c:14     .text:0000000000000014 .L0 
     src/syscall_c.c:15     .text:0000000000000018 .L0 
     src/syscall_c.c:17     .text:000000000000001c .L0 
     /tmp/cckswH7V.s:44     .text:0000000000000020 .L0 
     src/syscall_c.c:21     .text:0000000000000020 .L0 
     /tmp/cckswH7V.s:50     .text:0000000000000024 .L0 
     /tmp/cckswH7V.s:52     .text:0000000000000024 .L0 
     /tmp/cckswH7V.s:53     .text:0000000000000028 .L0 
     /tmp/cckswH7V.s:54     .text:0000000000000028 .L0 
     /tmp/cckswH7V.s:56     .text:000000000000002c .L0 
     /tmp/cckswH7V.s:58     .text:0000000000000030 .L0 
     /tmp/cckswH7V.s:64     .text:0000000000000030 mem_free
     /tmp/cckswH7V.s:67     .text:0000000000000030 .L0 
     /tmp/cckswH7V.s:69     .text:0000000000000030 .L0 
     /tmp/cckswH7V.s:70     .text:0000000000000034 .L0 
     /tmp/cckswH7V.s:72     .text:0000000000000038 .L0 
     /tmp/cckswH7V.s:74     .text:000000000000003c .L0 
     /tmp/cckswH7V.s:77     .text:000000000000003c .L0 
     src/syscall_c.c:33     .text:000000000000003c .L0 
     src/syscall_c.c:34     .text:0000000000000040 .L0 
     src/syscall_c.c:36     .text:0000000000000044 .L0 
     /tmp/cckswH7V.s:91     .text:0000000000000048 .L0 
     src/syscall_c.c:40     .text:0000000000000048 .L0 
     /tmp/cckswH7V.s:97     .text:000000000000004c .L0 
     /tmp/cckswH7V.s:99     .text:000000000000004c .L0 
     /tmp/cckswH7V.s:102    .text:0000000000000054 .L0 
     /tmp/cckswH7V.s:103    .text:0000000000000054 .L0 
     /tmp/cckswH7V.s:105    .text:0000000000000058 .L0 
     /tmp/cckswH7V.s:107    .text:000000000000005c .L0 
     /tmp/cckswH7V.s:113    .text:000000000000005c thread_create
     /tmp/cckswH7V.s:116    .text:000000000000005c .L0 
     /tmp/cckswH7V.s:118    .text:000000000000005c .L0 
     /tmp/cckswH7V.s:119    .text:0000000000000060 .L0 
     /tmp/cckswH7V.s:125    .text:0000000000000074 .L0 
     /tmp/cckswH7V.s:126    .text:0000000000000074 .L0 
     /tmp/cckswH7V.s:127    .text:0000000000000074 .L0 
     /tmp/cckswH7V.s:128    .text:0000000000000074 .L0 
     /tmp/cckswH7V.s:129    .text:0000000000000074 .L0 
     /tmp/cckswH7V.s:131    .text:0000000000000078 .L0 
     /tmp/cckswH7V.s:137    .text:0000000000000084 .L0 
     /tmp/cckswH7V.s:138    .text:0000000000000084 .L0 
     /tmp/cckswH7V.s:139    .text:0000000000000084 .L0 
     /tmp/cckswH7V.s:140    .text:0000000000000084 .L0 
     /tmp/cckswH7V.s:141    .text:0000000000000084 .L0 
     /tmp/cckswH7V.s:142    .text:0000000000000084 .L0 
     /tmp/cckswH7V.s:147    .text:0000000000000090 .L0 
GAS LISTING /tmp/cckswH7V.s 			page 9


     /tmp/cckswH7V.s:148    .text:0000000000000090 .L0 
     /tmp/cckswH7V.s:149    .text:0000000000000090 .L0 
     src/syscall_c.c:64     .text:0000000000000094 .L0 
     src/syscall_c.c:65     .text:0000000000000098 .L0 
     src/syscall_c.c:66     .text:000000000000009c .L0 
     src/syscall_c.c:67     .text:00000000000000a0 .L0 
     /tmp/cckswH7V.s:169    .text:00000000000000a4 .L0 
     src/syscall_c.c:71     .text:00000000000000ac .L0 
     /tmp/cckswH7V.s:179    .text:00000000000000b0 .L0 
     src/syscall_c.c:74     .text:00000000000000b0 .L0 
     /tmp/cckswH7V.s:185    .text:00000000000000b4 .L0 
     /tmp/cckswH7V.s:187    .text:00000000000000b4 .L0 
     /tmp/cckswH7V.s:191    .text:00000000000000b8 .L0 
     /tmp/cckswH7V.s:192    .text:00000000000000bc .L0 
     /tmp/cckswH7V.s:193    .text:00000000000000bc .L0 
     /tmp/cckswH7V.s:195    .text:00000000000000c0 .L0 
     /tmp/cckswH7V.s:196    .text:00000000000000c0 .L0 
     /tmp/cckswH7V.s:198    .text:00000000000000c4 .L0 
     /tmp/cckswH7V.s:201    .text:00000000000000c8 .L0 
     /tmp/cckswH7V.s:204    .text:00000000000000cc .L0 
     /tmp/cckswH7V.s:207    .text:00000000000000d0 .L0 
     /tmp/cckswH7V.s:211    .text:00000000000000d4 .L0 
     /tmp/cckswH7V.s:213    .text:00000000000000d4 .L0 
     /tmp/cckswH7V.s:216    .text:00000000000000dc .L0 
     /tmp/cckswH7V.s:222    .text:00000000000000dc thread_dispatch
     /tmp/cckswH7V.s:225    .text:00000000000000dc .L0 
     /tmp/cckswH7V.s:226    .text:00000000000000dc .L0 
     /tmp/cckswH7V.s:227    .text:00000000000000e0 .L0 
     /tmp/cckswH7V.s:229    .text:00000000000000e4 .L0 
     /tmp/cckswH7V.s:231    .text:00000000000000e8 .L0 
     src/syscall_c.c:83     .text:00000000000000e8 .L0 
     src/syscall_c.c:84     .text:00000000000000ec .L0 
     /tmp/cckswH7V.s:243    .text:00000000000000f0 .L0 
     /tmp/cckswH7V.s:244    .text:00000000000000f4 .L0 
     /tmp/cckswH7V.s:245    .text:00000000000000f4 .L0 
     /tmp/cckswH7V.s:247    .text:00000000000000f8 .L0 
     /tmp/cckswH7V.s:249    .text:00000000000000fc .L0 
     /tmp/cckswH7V.s:255    .text:00000000000000fc thread_exit
     /tmp/cckswH7V.s:258    .text:00000000000000fc .L0 
     /tmp/cckswH7V.s:259    .text:00000000000000fc .L0 
     /tmp/cckswH7V.s:260    .text:0000000000000100 .L0 
     /tmp/cckswH7V.s:262    .text:0000000000000104 .L0 
     /tmp/cckswH7V.s:264    .text:0000000000000108 .L0 
     src/syscall_c.c:92     .text:0000000000000108 .L0 
     src/syscall_c.c:94     .text:000000000000010c .L0 
     /tmp/cckswH7V.s:275    .text:0000000000000110 .L0 
     src/syscall_c.c:98     .text:0000000000000110 .L0 
     /tmp/cckswH7V.s:281    .text:0000000000000114 .L0 
     /tmp/cckswH7V.s:283    .text:0000000000000114 .L0 
     /tmp/cckswH7V.s:286    .text:000000000000011c .L0 
     /tmp/cckswH7V.s:287    .text:000000000000011c .L0 
     /tmp/cckswH7V.s:289    .text:0000000000000120 .L0 
     /tmp/cckswH7V.s:291    .text:0000000000000124 .L0 
     /tmp/cckswH7V.s:297    .text:0000000000000124 .L0 
                     .debug_frame:0000000000000000 .L0 
     /tmp/cckswH7V.s:210    .text:00000000000000d4 .L7
     /tmp/cckswH7V.s:189    .text:00000000000000b8 .L6
GAS LISTING /tmp/cckswH7V.s 			page 10


     /tmp/cckswH7V.s:628    .debug_abbrev:0000000000000000 .Ldebug_abbrev0
     /tmp/cckswH7V.s:1244   .debug_str:0000000000000053 .LASF35
     /tmp/cckswH7V.s:1246   .debug_str:00000000000000f1 .LASF36
     /tmp/cckswH7V.s:1288   .debug_str:000000000000020a .LASF37
     /tmp/cckswH7V.s:5      .text:0000000000000000 .Ltext0
     /tmp/cckswH7V.s:294    .text:0000000000000124 .Letext0
     /tmp/cckswH7V.s:1230   .debug_line:0000000000000000 .Ldebug_line0
     /tmp/cckswH7V.s:1272   .debug_str:00000000000001a2 .LASF0
     /tmp/cckswH7V.s:1258   .debug_str:000000000000014c .LASF1
     /tmp/cckswH7V.s:1252   .debug_str:0000000000000122 .LASF2
     /tmp/cckswH7V.s:1238   .debug_str:0000000000000028 .LASF4
     /tmp/cckswH7V.s:1254   .debug_str:0000000000000130 .LASF3
     /tmp/cckswH7V.s:1234   .debug_str:0000000000000013 .LASF5
     /tmp/cckswH7V.s:1232   .debug_str:0000000000000000 .LASF6
     /tmp/cckswH7V.s:1294   .debug_str:0000000000000247 .LASF7
     /tmp/cckswH7V.s:1278   .debug_str:00000000000001c2 .LASF8
     /tmp/cckswH7V.s:1236   .debug_str:000000000000001a .LASF9
     /tmp/cckswH7V.s:1310   .debug_str:000000000000029f .LASF10
     /tmp/cckswH7V.s:1248   .debug_str:0000000000000101 .LASF11
     /tmp/cckswH7V.s:1302   .debug_str:0000000000000274 .LASF12
     /tmp/cckswH7V.s:1284   .debug_str:00000000000001f1 .LASF13
     /tmp/cckswH7V.s:1262   .debug_str:000000000000016d .LASF14
     /tmp/cckswH7V.s:1242   .debug_str:000000000000003d .LASF15
     /tmp/cckswH7V.s:1280   .debug_str:00000000000001d2 .LASF16
     /tmp/cckswH7V.s:1282   .debug_str:00000000000001e8 .LASF17
     /tmp/cckswH7V.s:1296   .debug_str:000000000000025a .LASF30
     /tmp/cckswH7V.s:256    .text:00000000000000fc .LFB4
     /tmp/cckswH7V.s:292    .text:0000000000000124 .LFE4
     /tmp/cckswH7V.s:1276   .debug_str:00000000000001bb .LASF18
     /tmp/cckswH7V.s:975    .debug_loc:0000000000000000 .LLST14
     /tmp/cckswH7V.s:1290   .debug_str:000000000000022d .LASF38
     /tmp/cckswH7V.s:223    .text:00000000000000dc .LFB3
     /tmp/cckswH7V.s:250    .text:00000000000000fc .LFE3
     /tmp/cckswH7V.s:1260   .debug_str:000000000000015f .LASF27
     /tmp/cckswH7V.s:114    .text:000000000000005c .LFB2
     /tmp/cckswH7V.s:217    .text:00000000000000dc .LFE2
     /tmp/cckswH7V.s:1264   .debug_str:0000000000000179 .LASF19
     /tmp/cckswH7V.s:982    .debug_loc:0000000000000023 .LLST6
     /tmp/cckswH7V.s:1268   .debug_str:000000000000018c .LASF20
     /tmp/cckswH7V.s:1004   .debug_loc:0000000000000082 .LLST7
     /tmp/cckswH7V.s:1298   .debug_str:0000000000000266 .LASF21
     /tmp/cckswH7V.s:1026   .debug_loc:00000000000000e1 .LLST8
     /tmp/cckswH7V.s:1306   .debug_str:000000000000028e .LASF22
     /tmp/cckswH7V.s:1048   .debug_loc:0000000000000140 .LLST9
     /tmp/cckswH7V.s:1266   .debug_str:0000000000000180 .LASF23
     /tmp/cckswH7V.s:1070   .debug_loc:000000000000019f .LLST10
     /tmp/cckswH7V.s:1292   .debug_str:000000000000023d .LASF24
     /tmp/cckswH7V.s:1092   .debug_loc:00000000000001fe .LLST11
     /tmp/cckswH7V.s:1270   .debug_str:000000000000019a .LASF25
     /tmp/cckswH7V.s:1274   .debug_str:00000000000001af .LASF39
     /tmp/cckswH7V.s:1250   .debug_str:0000000000000110 .LASF26
     /tmp/cckswH7V.s:1114   .debug_loc:000000000000025d .LLST12
     /tmp/cckswH7V.s:1125   .debug_loc:0000000000000293 .LLST13
     /tmp/cckswH7V.s:145    .text:0000000000000090 .LVL12
     /tmp/cckswH7V.s:1286   .debug_str:0000000000000201 .LASF28
     /tmp/cckswH7V.s:65     .text:0000000000000030 .LFB1
     /tmp/cckswH7V.s:108    .text:000000000000005c .LFE1
GAS LISTING /tmp/cckswH7V.s 			page 11


     /tmp/cckswH7V.s:1132   .debug_loc:00000000000002b6 .LLST3
     /tmp/cckswH7V.s:1300   .debug_str:000000000000026b .LASF29
     /tmp/cckswH7V.s:1146   .debug_loc:00000000000002ef .LLST4
     /tmp/cckswH7V.s:1160   .debug_loc:0000000000000328 .LLST5
     /tmp/cckswH7V.s:1304   .debug_str:0000000000000284 .LASF31
     /tmp/cckswH7V.s:11     .text:0000000000000000 .LFB0
     /tmp/cckswH7V.s:59     .text:0000000000000030 .LFE0
     /tmp/cckswH7V.s:1308   .debug_str:000000000000029a .LASF32
     /tmp/cckswH7V.s:1167   .debug_loc:000000000000034b .LLST0
     /tmp/cckswH7V.s:1256   .debug_str:0000000000000142 .LASF33
     /tmp/cckswH7V.s:1187   .debug_loc:0000000000000399 .LLST1
     /tmp/cckswH7V.s:1240   .debug_str:000000000000002f .LASF34
     /tmp/cckswH7V.s:1205   .debug_loc:00000000000003d6 .LLST2
     /tmp/cckswH7V.s:279    .text:0000000000000114 .LVL20
     /tmp/cckswH7V.s:284    .text:0000000000000118 .LVL21
     /tmp/cckswH7V.s:117    .text:000000000000005c .LVL9
     /tmp/cckswH7V.s:143    .text:0000000000000088 .LVL11
     /tmp/cckswH7V.s:199    .text:00000000000000c4 .LVL15
     /tmp/cckswH7V.s:209    .text:00000000000000d4 .LVL18
     /tmp/cckswH7V.s:202    .text:00000000000000c8 .LVL16
     /tmp/cckswH7V.s:205    .text:00000000000000cc .LVL17
     /tmp/cckswH7V.s:136    .text:0000000000000084 .LVL10
     /tmp/cckswH7V.s:183    .text:00000000000000b4 .LVL13
     /tmp/cckswH7V.s:214    .text:00000000000000d8 .LVL19
     /tmp/cckswH7V.s:188    .text:00000000000000b8 .LVL14
     /tmp/cckswH7V.s:68     .text:0000000000000030 .LVL5
     /tmp/cckswH7V.s:95     .text:000000000000004c .LVL7
     /tmp/cckswH7V.s:76     .text:000000000000003c .LVL6
     /tmp/cckswH7V.s:100    .text:0000000000000050 .LVL8
     /tmp/cckswH7V.s:15     .text:0000000000000000 .LVL0
     /tmp/cckswH7V.s:25     .text:0000000000000010 .LVL1
     /tmp/cckswH7V.s:28     .text:0000000000000014 .LVL2
     /tmp/cckswH7V.s:48     .text:0000000000000024 .LVL4
     /tmp/cckswH7V.s:43     .text:0000000000000020 .LVL3
     /tmp/cckswH7V.s:298    .debug_info:0000000000000000 .Ldebug_info0

NO UNDEFINED SYMBOLS
