GAS LISTING /tmp/ccBUxOaQ.s 			page 1


   1              		.file	"syscall_cpp.cpp"
   2              		.option pic
   3              		.option norelax
   4              		.text
   5              	.Ltext0:
   6              		.section	.text._ZN6Thread3runEv,"axG",@progbits,_ZN6Thread3runEv,comdat
   7              		.align	2
   8              		.weak	_ZN6Thread3runEv
  10              	_ZN6Thread3runEv:
  11              	.LFB25:
  12              		.file 1 "src/../h/syscall_cpp.hpp"
   1:src/../h/syscall_cpp.hpp **** //
   2:src/../h/syscall_cpp.hpp **** // Created by os on 4/8/22.
   3:src/../h/syscall_cpp.hpp **** //
   4:src/../h/syscall_cpp.hpp **** 
   5:src/../h/syscall_cpp.hpp **** #ifndef PROJECT_BASE_V1_0_SYSCALL_CPP_HPP
   6:src/../h/syscall_cpp.hpp **** #define PROJECT_BASE_V1_0_SYSCALL_CPP_HPP
   7:src/../h/syscall_cpp.hpp **** 
   8:src/../h/syscall_cpp.hpp **** #include "syscall_c.h"
   9:src/../h/syscall_cpp.hpp **** #include "PCB.hpp"
  10:src/../h/syscall_cpp.hpp **** #include "KSemaphore.hpp"
  11:src/../h/syscall_cpp.hpp **** 
  12:src/../h/syscall_cpp.hpp **** void * operator new(size_t size);
  13:src/../h/syscall_cpp.hpp **** 
  14:src/../h/syscall_cpp.hpp **** void operator delete(void * p);
  15:src/../h/syscall_cpp.hpp **** 
  16:src/../h/syscall_cpp.hpp **** class Thread
  17:src/../h/syscall_cpp.hpp **** {
  18:src/../h/syscall_cpp.hpp **** public:
  19:src/../h/syscall_cpp.hpp ****     Thread(void (*body)(void*), void* args);
  20:src/../h/syscall_cpp.hpp **** 
  21:src/../h/syscall_cpp.hpp ****     virtual ~Thread();
  22:src/../h/syscall_cpp.hpp **** 
  23:src/../h/syscall_cpp.hpp ****     int start();
  24:src/../h/syscall_cpp.hpp **** 
  25:src/../h/syscall_cpp.hpp ****     static void dispatch();
  26:src/../h/syscall_cpp.hpp **** 
  27:src/../h/syscall_cpp.hpp ****     static void sleep(time_t);
  28:src/../h/syscall_cpp.hpp **** 
  29:src/../h/syscall_cpp.hpp **** protected:
  30:src/../h/syscall_cpp.hpp ****     Thread();
  31:src/../h/syscall_cpp.hpp **** 
  32:src/../h/syscall_cpp.hpp ****     virtual void run() {}
  13              		.loc 1 32 18
  14              		.cfi_startproc
  15              	.LVL0:
  16 0000 130101FF 		addi	sp,sp,-16
  17              		.cfi_def_cfa_offset 16
  18 0004 23348100 		sd	s0,8(sp)
  19              		.cfi_offset 8, -8
  20 0008 13040101 		addi	s0,sp,16
  21              		.cfi_def_cfa 8, 0
  22              		.loc 1 32 25 is_stmt 0
  23 000c 03348100 		ld	s0,8(sp)
  24              		.cfi_restore 8
  25              		.cfi_def_cfa 2, 16
  26 0010 13010101 		addi	sp,sp,16
GAS LISTING /tmp/ccBUxOaQ.s 			page 2


  27              		.cfi_def_cfa_offset 0
  28 0014 67800000 		jr	ra
  29              		.cfi_endproc
  30              	.LFE25:
  32              		.section	.text._ZN14PeriodicThread18periodicActivationEv,"axG",@progbits,_ZN14PeriodicThread18peri
  33              		.align	2
  34              		.weak	_ZN14PeriodicThread18periodicActivationEv
  36              	_ZN14PeriodicThread18periodicActivationEv:
  37              	.LFB26:
  33:src/../h/syscall_cpp.hpp **** private:
  34:src/../h/syscall_cpp.hpp ****     thread_t myHandle;
  35:src/../h/syscall_cpp.hpp ****     static void runner(void* t);
  36:src/../h/syscall_cpp.hpp **** };
  37:src/../h/syscall_cpp.hpp **** 
  38:src/../h/syscall_cpp.hpp **** class Semaphore
  39:src/../h/syscall_cpp.hpp **** {
  40:src/../h/syscall_cpp.hpp **** public:
  41:src/../h/syscall_cpp.hpp ****     Semaphore(unsigned init = 1);
  42:src/../h/syscall_cpp.hpp **** 
  43:src/../h/syscall_cpp.hpp ****     virtual ~Semaphore();
  44:src/../h/syscall_cpp.hpp **** 
  45:src/../h/syscall_cpp.hpp ****     int wait();
  46:src/../h/syscall_cpp.hpp ****     int signal();
  47:src/../h/syscall_cpp.hpp **** 
  48:src/../h/syscall_cpp.hpp **** private:
  49:src/../h/syscall_cpp.hpp ****     sem_t myHandle;
  50:src/../h/syscall_cpp.hpp **** };
  51:src/../h/syscall_cpp.hpp **** 
  52:src/../h/syscall_cpp.hpp **** class Console
  53:src/../h/syscall_cpp.hpp **** {
  54:src/../h/syscall_cpp.hpp **** public:
  55:src/../h/syscall_cpp.hpp ****     static char getc();
  56:src/../h/syscall_cpp.hpp ****     static void putc(char);
  57:src/../h/syscall_cpp.hpp **** };
  58:src/../h/syscall_cpp.hpp **** 
  59:src/../h/syscall_cpp.hpp **** class PeriodicThread : public Thread
  60:src/../h/syscall_cpp.hpp **** {
  61:src/../h/syscall_cpp.hpp **** protected:
  62:src/../h/syscall_cpp.hpp ****     PeriodicThread(time_t period);
  63:src/../h/syscall_cpp.hpp ****     virtual void periodicActivation() {};
  38              		.loc 1 63 18 is_stmt 1
  39              		.cfi_startproc
  40              	.LVL1:
  41 0000 130101FF 		addi	sp,sp,-16
  42              		.cfi_def_cfa_offset 16
  43 0004 23348100 		sd	s0,8(sp)
  44              		.cfi_offset 8, -8
  45 0008 13040101 		addi	s0,sp,16
  46              		.cfi_def_cfa 8, 0
  47              		.loc 1 63 40 is_stmt 0
  48 000c 03348100 		ld	s0,8(sp)
  49              		.cfi_restore 8
  50              		.cfi_def_cfa 2, 16
  51 0010 13010101 		addi	sp,sp,16
  52              		.cfi_def_cfa_offset 0
  53 0014 67800000 		jr	ra
  54              		.cfi_endproc
GAS LISTING /tmp/ccBUxOaQ.s 			page 3


  55              	.LFE26:
  57              		.text
  58              		.align	2
  59              		.globl	_ZN6Thread6runnerEPv
  61              	_ZN6Thread6runnerEPv:
  62              	.LFB41:
  63              		.file 2 "src/syscall_cpp.cpp"
   1:src/syscall_cpp.cpp **** //
   2:src/syscall_cpp.cpp **** // Created by os on 4/8/22.
   3:src/syscall_cpp.cpp **** //
   4:src/syscall_cpp.cpp **** 
   5:src/syscall_cpp.cpp **** #include "../h/syscall_cpp.hpp"
   6:src/syscall_cpp.cpp **** 
   7:src/syscall_cpp.cpp **** struct ArgsPeriodic
   8:src/syscall_cpp.cpp **** {
   9:src/syscall_cpp.cpp ****     void* pt;
  10:src/syscall_cpp.cpp ****     uint64 time;
  11:src/syscall_cpp.cpp ****     ArgsPeriodic(void *p, uint64 t) : pt(p), time(t){}
  12:src/syscall_cpp.cpp **** };
  13:src/syscall_cpp.cpp **** 
  14:src/syscall_cpp.cpp **** //general
  15:src/syscall_cpp.cpp **** void * operator new(size_t size)
  16:src/syscall_cpp.cpp **** {
  17:src/syscall_cpp.cpp ****     return mem_alloc(size);
  18:src/syscall_cpp.cpp **** }
  19:src/syscall_cpp.cpp **** 
  20:src/syscall_cpp.cpp **** void operator delete(void * p)
  21:src/syscall_cpp.cpp **** {
  22:src/syscall_cpp.cpp ****     mem_free(p);
  23:src/syscall_cpp.cpp **** }
  24:src/syscall_cpp.cpp **** 
  25:src/syscall_cpp.cpp **** //Thread
  26:src/syscall_cpp.cpp **** 
  27:src/syscall_cpp.cpp **** int Thread::start()
  28:src/syscall_cpp.cpp **** {
  29:src/syscall_cpp.cpp ****     if(myHandle != 0)
  30:src/syscall_cpp.cpp ****     {
  31:src/syscall_cpp.cpp ****         return thread_start(myHandle);
  32:src/syscall_cpp.cpp ****     }
  33:src/syscall_cpp.cpp ****     else
  34:src/syscall_cpp.cpp ****     {
  35:src/syscall_cpp.cpp ****         //todo
  36:src/syscall_cpp.cpp ****         return -1;
  37:src/syscall_cpp.cpp ****     }
  38:src/syscall_cpp.cpp **** 
  39:src/syscall_cpp.cpp **** }
  40:src/syscall_cpp.cpp **** 
  41:src/syscall_cpp.cpp **** void Thread::dispatch() {
  42:src/syscall_cpp.cpp ****     thread_dispatch();
  43:src/syscall_cpp.cpp **** }
  44:src/syscall_cpp.cpp **** 
  45:src/syscall_cpp.cpp **** void Thread::sleep(time_t time)
  46:src/syscall_cpp.cpp **** {
  47:src/syscall_cpp.cpp ****     time_sleep(time);
  48:src/syscall_cpp.cpp **** }
  49:src/syscall_cpp.cpp **** 
  50:src/syscall_cpp.cpp **** Thread::Thread(void (*body)(void *), void *args)
GAS LISTING /tmp/ccBUxOaQ.s 			page 4


  51:src/syscall_cpp.cpp **** {
  52:src/syscall_cpp.cpp ****     thread_make_pcb(&myHandle, body, args);
  53:src/syscall_cpp.cpp **** }
  54:src/syscall_cpp.cpp **** 
  55:src/syscall_cpp.cpp **** Thread::Thread()
  56:src/syscall_cpp.cpp **** {
  57:src/syscall_cpp.cpp ****     thread_make_pcb(&myHandle, &Thread::runner, (void*)this);
  58:src/syscall_cpp.cpp **** }
  59:src/syscall_cpp.cpp **** 
  60:src/syscall_cpp.cpp **** void Thread::runner(void *t)
  61:src/syscall_cpp.cpp **** {
  64              		.loc 2 61 1 is_stmt 1
  65              		.cfi_startproc
  66              	.LVL2:
  67 0000 130101FF 		addi	sp,sp,-16
  68              		.cfi_def_cfa_offset 16
  69 0004 23341100 		sd	ra,8(sp)
  70 0008 23308100 		sd	s0,0(sp)
  71              		.cfi_offset 1, -8
  72              		.cfi_offset 8, -16
  73 000c 13040101 		addi	s0,sp,16
  74              		.cfi_def_cfa 8, 0
  62:src/syscall_cpp.cpp ****     Thread* thr = (Thread*)t;
  75              		.loc 2 62 5
  76              	.LVL3:
  63:src/syscall_cpp.cpp ****     thr->run();
  77              		.loc 2 63 5
  78              		.loc 2 63 14 is_stmt 0
  79 0010 83370500 		ld	a5,0(a0)
  80 0014 83B70701 		ld	a5,16(a5)
  81              		.loc 2 63 13
  82 0018 E7800700 		jalr	a5
  83              	.LVL4:
  64:src/syscall_cpp.cpp **** }
  84              		.loc 2 64 1
  85 001c 83308100 		ld	ra,8(sp)
  86              		.cfi_restore 1
  87 0020 03340100 		ld	s0,0(sp)
  88              		.cfi_restore 8
  89              		.cfi_def_cfa 2, 16
  90 0024 13010101 		addi	sp,sp,16
  91              		.cfi_def_cfa_offset 0
  92 0028 67800000 		jr	ra
  93              		.cfi_endproc
  94              	.LFE41:
  96              		.align	2
  97              		.globl	_ZN6ThreadD2Ev
  99              	_ZN6ThreadD2Ev:
 100              	.LFB43:
  65:src/syscall_cpp.cpp **** 
  66:src/syscall_cpp.cpp **** Thread::~Thread()
 101              		.loc 2 66 1 is_stmt 1
 102              		.cfi_startproc
 103              		.cfi_personality 0x9b,DW.ref.__gxx_personality_v0
 104              		.cfi_lsda 0x1b,.LLSDA43
 105              	.LVL5:
 106 002c 130101FF 		addi	sp,sp,-16
GAS LISTING /tmp/ccBUxOaQ.s 			page 5


 107              		.cfi_def_cfa_offset 16
 108 0030 23341100 		sd	ra,8(sp)
 109 0034 23308100 		sd	s0,0(sp)
 110              		.cfi_offset 1, -8
 111              		.cfi_offset 8, -16
 112 0038 13040101 		addi	s0,sp,16
 113              		.cfi_def_cfa 8, 0
 114              	.LBB9:
 115              		.loc 2 66 17 is_stmt 0
 116 003c 97070000 		lla	a5,_ZTV6Thread+16
 116      93870700 
 117 0044 2330F500 		sd	a5,0(a0)
  67:src/syscall_cpp.cpp **** {
  68:src/syscall_cpp.cpp ****     mem_free(myHandle);
 118              		.loc 2 68 5 is_stmt 1
 119              		.loc 2 68 13 is_stmt 0
 120 0048 03358500 		ld	a0,8(a0)
 121              	.LVL6:
 122 004c 97000000 		call	mem_free@plt
 122      E7800000 
 123              	.LVL7:
 124              	.LBE9:
  69:src/syscall_cpp.cpp **** }
 125              		.loc 2 69 1
 126 0054 83308100 		ld	ra,8(sp)
 127              		.cfi_restore 1
 128 0058 03340100 		ld	s0,0(sp)
 129              		.cfi_restore 8
 130              		.cfi_def_cfa 2, 16
 131 005c 13010101 		addi	sp,sp,16
 132              		.cfi_def_cfa_offset 0
 133 0060 67800000 		jr	ra
 134              		.cfi_endproc
 135              	.LFE43:
 136              		.globl	__gxx_personality_v0
 137              		.section	.gcc_except_table,"a",@progbits
 138              	.LLSDA43:
 139 0000 FF       		.byte	0xff
 140 0001 FF       		.byte	0xff
 141 0002 03       		.byte	0x3
 142 0003 00       		.byte	0
 143              		.text
 145              		.globl	_ZN6ThreadD1Ev
 146              		.set	_ZN6ThreadD1Ev,_ZN6ThreadD2Ev
 147              		.section	.text._ZN14PeriodicThreadD2Ev,"axG",@progbits,_ZN14PeriodicThreadD5Ev,comdat
 148              		.align	2
 149              		.weak	_ZN14PeriodicThreadD2Ev
 151              	_ZN14PeriodicThreadD2Ev:
 152              	.LFB62:
  59:src/../h/syscall_cpp.hpp **** {
 153              		.loc 1 59 7 is_stmt 1
 154              		.cfi_startproc
 155              	.LVL8:
 156 0000 130101FF 		addi	sp,sp,-16
 157              		.cfi_def_cfa_offset 16
 158 0004 23341100 		sd	ra,8(sp)
 159 0008 23308100 		sd	s0,0(sp)
GAS LISTING /tmp/ccBUxOaQ.s 			page 6


 160              		.cfi_offset 1, -8
 161              		.cfi_offset 8, -16
 162 000c 13040101 		addi	s0,sp,16
 163              		.cfi_def_cfa 8, 0
 164              	.LBB10:
  59:src/../h/syscall_cpp.hpp **** {
 165              		.loc 1 59 7 is_stmt 0
 166 0010 97070000 		lla	a5,_ZTV14PeriodicThread+16
 166      93870700 
 167 0018 2330F500 		sd	a5,0(a0)
 168 001c 97000000 		call	_ZN6ThreadD2Ev
 168      E7800000 
 169              	.LVL9:
 170              	.LBE10:
 171 0024 83308100 		ld	ra,8(sp)
 172              		.cfi_restore 1
 173 0028 03340100 		ld	s0,0(sp)
 174              		.cfi_restore 8
 175              		.cfi_def_cfa 2, 16
 176 002c 13010101 		addi	sp,sp,16
 177              		.cfi_def_cfa_offset 0
 178 0030 67800000 		jr	ra
 179              		.cfi_endproc
 180              	.LFE62:
 182              		.weak	_ZN14PeriodicThreadD1Ev
 183              		.set	_ZN14PeriodicThreadD1Ev,_ZN14PeriodicThreadD2Ev
 184              		.text
 185              		.align	2
 186              		.globl	_ZN9SemaphoreD2Ev
 188              	_ZN9SemaphoreD2Ev:
 189              	.LFB52:
  70:src/syscall_cpp.cpp **** 
  71:src/syscall_cpp.cpp **** //Semaphore
  72:src/syscall_cpp.cpp **** 
  73:src/syscall_cpp.cpp **** int Semaphore::wait()
  74:src/syscall_cpp.cpp **** {
  75:src/syscall_cpp.cpp ****     if(myHandle == 0)
  76:src/syscall_cpp.cpp ****         return -1;
  77:src/syscall_cpp.cpp ****     return sem_wait(myHandle);
  78:src/syscall_cpp.cpp **** }
  79:src/syscall_cpp.cpp **** 
  80:src/syscall_cpp.cpp **** Semaphore::Semaphore(unsigned int init)
  81:src/syscall_cpp.cpp **** {
  82:src/syscall_cpp.cpp ****     int retval = sem_open(&myHandle, init);
  83:src/syscall_cpp.cpp ****     if(retval != 0)
  84:src/syscall_cpp.cpp ****     {
  85:src/syscall_cpp.cpp ****         //todo
  86:src/syscall_cpp.cpp ****         //what then
  87:src/syscall_cpp.cpp ****         myHandle = 0;
  88:src/syscall_cpp.cpp ****     }
  89:src/syscall_cpp.cpp **** }
  90:src/syscall_cpp.cpp **** 
  91:src/syscall_cpp.cpp **** int Semaphore::signal()
  92:src/syscall_cpp.cpp **** {
  93:src/syscall_cpp.cpp ****     if(myHandle == 0)
  94:src/syscall_cpp.cpp ****         return -1;
  95:src/syscall_cpp.cpp ****     return sem_signal(myHandle);
GAS LISTING /tmp/ccBUxOaQ.s 			page 7


  96:src/syscall_cpp.cpp **** }
  97:src/syscall_cpp.cpp **** 
  98:src/syscall_cpp.cpp **** Semaphore::~Semaphore() {
 190              		.loc 2 98 1 is_stmt 1
 191              		.cfi_startproc
 192              		.cfi_personality 0x9b,DW.ref.__gxx_personality_v0
 193              		.cfi_lsda 0x1b,.LLSDA52
 194              	.LVL10:
 195 0064 130101FF 		addi	sp,sp,-16
 196              		.cfi_def_cfa_offset 16
 197 0068 23341100 		sd	ra,8(sp)
 198 006c 23308100 		sd	s0,0(sp)
 199              		.cfi_offset 1, -8
 200              		.cfi_offset 8, -16
 201 0070 13040101 		addi	s0,sp,16
 202              		.cfi_def_cfa 8, 0
 203              	.LBB11:
 204              		.loc 2 98 23 is_stmt 0
 205 0074 97070000 		lla	a5,_ZTV9Semaphore+16
 205      93870700 
 206 007c 2330F500 		sd	a5,0(a0)
  99:src/syscall_cpp.cpp ****     mem_free(myHandle);
 207              		.loc 2 99 5 is_stmt 1
 208              		.loc 2 99 13 is_stmt 0
 209 0080 03358500 		ld	a0,8(a0)
 210              	.LVL11:
 211 0084 97000000 		call	mem_free@plt
 211      E7800000 
 212              	.LVL12:
 213              	.LBE11:
 100:src/syscall_cpp.cpp **** }
 214              		.loc 2 100 1
 215 008c 83308100 		ld	ra,8(sp)
 216              		.cfi_restore 1
 217 0090 03340100 		ld	s0,0(sp)
 218              		.cfi_restore 8
 219              		.cfi_def_cfa 2, 16
 220 0094 13010101 		addi	sp,sp,16
 221              		.cfi_def_cfa_offset 0
 222 0098 67800000 		jr	ra
 223              		.cfi_endproc
 224              	.LFE52:
 225              		.section	.gcc_except_table
 226              	.LLSDA52:
 227 0004 FF       		.byte	0xff
 228 0005 FF       		.byte	0xff
 229 0006 03       		.byte	0x3
 230 0007 00       		.byte	0
 231              		.text
 233              		.globl	_ZN9SemaphoreD1Ev
 234              		.set	_ZN9SemaphoreD1Ev,_ZN9SemaphoreD2Ev
 235              		.align	2
 236              		.globl	_Znwm
 238              	_Znwm:
 239              	.LFB30:
  16:src/syscall_cpp.cpp ****     return mem_alloc(size);
 240              		.loc 2 16 1 is_stmt 1
GAS LISTING /tmp/ccBUxOaQ.s 			page 8


 241              		.cfi_startproc
 242              	.LVL13:
 243 009c 130101FF 		addi	sp,sp,-16
 244              		.cfi_def_cfa_offset 16
 245 00a0 23341100 		sd	ra,8(sp)
 246 00a4 23308100 		sd	s0,0(sp)
 247              		.cfi_offset 1, -8
 248              		.cfi_offset 8, -16
 249 00a8 13040101 		addi	s0,sp,16
 250              		.cfi_def_cfa 8, 0
  17:src/syscall_cpp.cpp **** }
 251              		.loc 2 17 5
  17:src/syscall_cpp.cpp **** }
 252              		.loc 2 17 21 is_stmt 0
 253 00ac 97000000 		call	mem_alloc@plt
 253      E7800000 
 254              	.LVL14:
  18:src/syscall_cpp.cpp **** 
 255              		.loc 2 18 1
 256 00b4 83308100 		ld	ra,8(sp)
 257              		.cfi_restore 1
 258 00b8 03340100 		ld	s0,0(sp)
 259              		.cfi_restore 8
 260              		.cfi_def_cfa 2, 16
 261 00bc 13010101 		addi	sp,sp,16
 262              		.cfi_def_cfa_offset 0
 263 00c0 67800000 		jr	ra
 264              		.cfi_endproc
 265              	.LFE30:
 267              		.align	2
 268              		.globl	_ZdlPv
 270              	_ZdlPv:
 271              	.LFB31:
  21:src/syscall_cpp.cpp ****     mem_free(p);
 272              		.loc 2 21 1 is_stmt 1
 273              		.cfi_startproc
 274              	.LVL15:
 275 00c4 130101FF 		addi	sp,sp,-16
 276              		.cfi_def_cfa_offset 16
 277 00c8 23341100 		sd	ra,8(sp)
 278 00cc 23308100 		sd	s0,0(sp)
 279              		.cfi_offset 1, -8
 280              		.cfi_offset 8, -16
 281 00d0 13040101 		addi	s0,sp,16
 282              		.cfi_def_cfa 8, 0
  22:src/syscall_cpp.cpp **** }
 283              		.loc 2 22 5
  22:src/syscall_cpp.cpp **** }
 284              		.loc 2 22 13 is_stmt 0
 285 00d4 97000000 		call	mem_free@plt
 285      E7800000 
 286              	.LVL16:
  23:src/syscall_cpp.cpp **** 
 287              		.loc 2 23 1
 288 00dc 83308100 		ld	ra,8(sp)
 289              		.cfi_restore 1
 290 00e0 03340100 		ld	s0,0(sp)
GAS LISTING /tmp/ccBUxOaQ.s 			page 9


 291              		.cfi_restore 8
 292              		.cfi_def_cfa 2, 16
 293 00e4 13010101 		addi	sp,sp,16
 294              		.cfi_def_cfa_offset 0
 295 00e8 67800000 		jr	ra
 296              		.cfi_endproc
 297              	.LFE31:
 299              		.align	2
 300              		.globl	_ZN6ThreadD0Ev
 302              	_ZN6ThreadD0Ev:
 303              	.LFB45:
  66:src/syscall_cpp.cpp **** {
 304              		.loc 2 66 1 is_stmt 1
 305              		.cfi_startproc
 306              	.LVL17:
 307 00ec 130101FE 		addi	sp,sp,-32
 308              		.cfi_def_cfa_offset 32
 309 00f0 233C1100 		sd	ra,24(sp)
 310 00f4 23388100 		sd	s0,16(sp)
 311 00f8 23349100 		sd	s1,8(sp)
 312              		.cfi_offset 1, -8
 313              		.cfi_offset 8, -16
 314              		.cfi_offset 9, -24
 315 00fc 13040102 		addi	s0,sp,32
 316              		.cfi_def_cfa 8, 0
 317 0100 93040500 		mv	s1,a0
  69:src/syscall_cpp.cpp **** 
 318              		.loc 2 69 1 is_stmt 0
 319 0104 97000000 		call	_ZN6ThreadD1Ev
 319      E7800000 
 320              	.LVL18:
 321 010c 13850400 		mv	a0,s1
 322 0110 97000000 		call	_ZdlPv
 322      E7800000 
 323              	.LVL19:
 324 0118 83308101 		ld	ra,24(sp)
 325              		.cfi_restore 1
 326 011c 03340101 		ld	s0,16(sp)
 327              		.cfi_restore 8
 328              		.cfi_def_cfa 2, 32
 329 0120 83348100 		ld	s1,8(sp)
 330              		.cfi_restore 9
 331              	.LVL20:
 332 0124 13010102 		addi	sp,sp,32
 333              		.cfi_def_cfa_offset 0
 334 0128 67800000 		jr	ra
 335              		.cfi_endproc
 336              	.LFE45:
 338              		.align	2
 339              		.globl	_ZN9SemaphoreD0Ev
 341              	_ZN9SemaphoreD0Ev:
 342              	.LFB54:
  98:src/syscall_cpp.cpp ****     mem_free(myHandle);
 343              		.loc 2 98 1 is_stmt 1
 344              		.cfi_startproc
 345              	.LVL21:
 346 012c 130101FE 		addi	sp,sp,-32
GAS LISTING /tmp/ccBUxOaQ.s 			page 10


 347              		.cfi_def_cfa_offset 32
 348 0130 233C1100 		sd	ra,24(sp)
 349 0134 23388100 		sd	s0,16(sp)
 350 0138 23349100 		sd	s1,8(sp)
 351              		.cfi_offset 1, -8
 352              		.cfi_offset 8, -16
 353              		.cfi_offset 9, -24
 354 013c 13040102 		addi	s0,sp,32
 355              		.cfi_def_cfa 8, 0
 356 0140 93040500 		mv	s1,a0
 357              		.loc 2 100 1 is_stmt 0
 358 0144 97000000 		call	_ZN9SemaphoreD1Ev
 358      E7800000 
 359              	.LVL22:
 360 014c 13850400 		mv	a0,s1
 361 0150 97000000 		call	_ZdlPv
 361      E7800000 
 362              	.LVL23:
 363 0158 83308101 		ld	ra,24(sp)
 364              		.cfi_restore 1
 365 015c 03340101 		ld	s0,16(sp)
 366              		.cfi_restore 8
 367              		.cfi_def_cfa 2, 32
 368 0160 83348100 		ld	s1,8(sp)
 369              		.cfi_restore 9
 370              	.LVL24:
 371 0164 13010102 		addi	sp,sp,32
 372              		.cfi_def_cfa_offset 0
 373 0168 67800000 		jr	ra
 374              		.cfi_endproc
 375              	.LFE54:
 377              		.section	.text._ZN14PeriodicThreadD0Ev,"axG",@progbits,_ZN14PeriodicThreadD5Ev,comdat
 378              		.align	2
 379              		.weak	_ZN14PeriodicThreadD0Ev
 381              	_ZN14PeriodicThreadD0Ev:
 382              	.LFB64:
  59:src/../h/syscall_cpp.hpp **** {
 383              		.loc 1 59 7 is_stmt 1
 384              		.cfi_startproc
 385              	.LVL25:
 386 0000 130101FE 		addi	sp,sp,-32
 387              		.cfi_def_cfa_offset 32
 388 0004 233C1100 		sd	ra,24(sp)
 389 0008 23388100 		sd	s0,16(sp)
 390 000c 23349100 		sd	s1,8(sp)
 391              		.cfi_offset 1, -8
 392              		.cfi_offset 8, -16
 393              		.cfi_offset 9, -24
 394 0010 13040102 		addi	s0,sp,32
 395              		.cfi_def_cfa 8, 0
 396 0014 93040500 		mv	s1,a0
 397              	.LVL26:
 398              	.LBB12:
 399              	.LBB13:
  59:src/../h/syscall_cpp.hpp **** {
 400              		.loc 1 59 7 is_stmt 0
 401 0018 97070000 		lla	a5,_ZTV14PeriodicThread+16
GAS LISTING /tmp/ccBUxOaQ.s 			page 11


 401      93870700 
 402 0020 2330F500 		sd	a5,0(a0)
 403 0024 97000000 		call	_ZN6ThreadD2Ev
 403      E7800000 
 404              	.LVL27:
 405              	.LBE13:
 406              	.LBE12:
 407 002c 13850400 		mv	a0,s1
 408 0030 97000000 		call	_ZdlPv
 408      E7800000 
 409              	.LVL28:
 410 0038 83308101 		ld	ra,24(sp)
 411              		.cfi_restore 1
 412 003c 03340101 		ld	s0,16(sp)
 413              		.cfi_restore 8
 414              		.cfi_def_cfa 2, 32
 415 0040 83348100 		ld	s1,8(sp)
 416              		.cfi_restore 9
 417              	.LVL29:
 418 0044 13010102 		addi	sp,sp,32
 419              		.cfi_def_cfa_offset 0
 420 0048 67800000 		jr	ra
 421              		.cfi_endproc
 422              	.LFE64:
 424              		.text
 425              		.align	2
 426              		.globl	_ZN6Thread5startEv
 428              	_ZN6Thread5startEv:
 429              	.LFB32:
  28:src/syscall_cpp.cpp ****     if(myHandle != 0)
 430              		.loc 2 28 1 is_stmt 1
 431              		.cfi_startproc
 432              	.LVL30:
  29:src/syscall_cpp.cpp ****     {
 433              		.loc 2 29 5
  29:src/syscall_cpp.cpp ****     {
 434              		.loc 2 29 8 is_stmt 0
 435 016c 03358500 		ld	a0,8(a0)
 436              	.LVL31:
  29:src/syscall_cpp.cpp ****     {
 437              		.loc 2 29 5
 438 0170 63060502 		beqz	a0,.L25
  28:src/syscall_cpp.cpp ****     if(myHandle != 0)
 439              		.loc 2 28 1
 440 0174 130101FF 		addi	sp,sp,-16
 441              		.cfi_def_cfa_offset 16
 442 0178 23341100 		sd	ra,8(sp)
 443 017c 23308100 		sd	s0,0(sp)
 444              		.cfi_offset 1, -8
 445              		.cfi_offset 8, -16
 446 0180 13040101 		addi	s0,sp,16
 447              		.cfi_def_cfa 8, 0
  31:src/syscall_cpp.cpp ****     }
 448              		.loc 2 31 9 is_stmt 1
  31:src/syscall_cpp.cpp ****     }
 449              		.loc 2 31 28 is_stmt 0
 450 0184 97000000 		call	thread_start@plt
GAS LISTING /tmp/ccBUxOaQ.s 			page 12


 450      E7800000 
 451              	.LVL32:
  39:src/syscall_cpp.cpp **** 
 452              		.loc 2 39 1
 453 018c 83308100 		ld	ra,8(sp)
 454              		.cfi_restore 1
 455 0190 03340100 		ld	s0,0(sp)
 456              		.cfi_restore 8
 457              		.cfi_def_cfa 2, 16
 458 0194 13010101 		addi	sp,sp,16
 459              		.cfi_def_cfa_offset 0
 460 0198 67800000 		jr	ra
 461              	.L25:
  36:src/syscall_cpp.cpp ****     }
 462              		.loc 2 36 17
 463 019c 1305F0FF 		li	a0,-1
  39:src/syscall_cpp.cpp **** 
 464              		.loc 2 39 1
 465 01a0 67800000 		ret
 466              		.cfi_endproc
 467              	.LFE32:
 469              		.align	2
 470              		.globl	_ZN6Thread8dispatchEv
 472              	_ZN6Thread8dispatchEv:
 473              	.LFB33:
  41:src/syscall_cpp.cpp ****     thread_dispatch();
 474              		.loc 2 41 25 is_stmt 1
 475              		.cfi_startproc
 476 01a4 130101FF 		addi	sp,sp,-16
 477              		.cfi_def_cfa_offset 16
 478 01a8 23341100 		sd	ra,8(sp)
 479 01ac 23308100 		sd	s0,0(sp)
 480              		.cfi_offset 1, -8
 481              		.cfi_offset 8, -16
 482 01b0 13040101 		addi	s0,sp,16
 483              		.cfi_def_cfa 8, 0
  42:src/syscall_cpp.cpp **** }
 484              		.loc 2 42 5
  42:src/syscall_cpp.cpp **** }
 485              		.loc 2 42 20 is_stmt 0
 486 01b4 97000000 		call	thread_dispatch@plt
 486      E7800000 
 487              	.LVL33:
  43:src/syscall_cpp.cpp **** 
 488              		.loc 2 43 1
 489 01bc 83308100 		ld	ra,8(sp)
 490              		.cfi_restore 1
 491 01c0 03340100 		ld	s0,0(sp)
 492              		.cfi_restore 8
 493              		.cfi_def_cfa 2, 16
 494 01c4 13010101 		addi	sp,sp,16
 495              		.cfi_def_cfa_offset 0
 496 01c8 67800000 		jr	ra
 497              		.cfi_endproc
 498              	.LFE33:
 500              		.align	2
 501              		.globl	_ZN6Thread5sleepEm
GAS LISTING /tmp/ccBUxOaQ.s 			page 13


 503              	_ZN6Thread5sleepEm:
 504              	.LFB34:
  46:src/syscall_cpp.cpp ****     time_sleep(time);
 505              		.loc 2 46 1 is_stmt 1
 506              		.cfi_startproc
 507              	.LVL34:
 508 01cc 130101FF 		addi	sp,sp,-16
 509              		.cfi_def_cfa_offset 16
 510 01d0 23341100 		sd	ra,8(sp)
 511 01d4 23308100 		sd	s0,0(sp)
 512              		.cfi_offset 1, -8
 513              		.cfi_offset 8, -16
 514 01d8 13040101 		addi	s0,sp,16
 515              		.cfi_def_cfa 8, 0
  47:src/syscall_cpp.cpp **** }
 516              		.loc 2 47 5
  47:src/syscall_cpp.cpp **** }
 517              		.loc 2 47 15 is_stmt 0
 518 01dc 97000000 		call	time_sleep@plt
 518      E7800000 
 519              	.LVL35:
  48:src/syscall_cpp.cpp **** 
 520              		.loc 2 48 1
 521 01e4 83308100 		ld	ra,8(sp)
 522              		.cfi_restore 1
 523 01e8 03340100 		ld	s0,0(sp)
 524              		.cfi_restore 8
 525              		.cfi_def_cfa 2, 16
 526 01ec 13010101 		addi	sp,sp,16
 527              		.cfi_def_cfa_offset 0
 528 01f0 67800000 		jr	ra
 529              		.cfi_endproc
 530              	.LFE34:
 532              		.align	2
 533              		.globl	_ZN14PeriodicThread6runnerEPv
 535              	_ZN14PeriodicThread6runnerEPv:
 536              	.LFB60:
 101:src/syscall_cpp.cpp **** 
 102:src/syscall_cpp.cpp **** //Console
 103:src/syscall_cpp.cpp **** 
 104:src/syscall_cpp.cpp **** char Console::getc()
 105:src/syscall_cpp.cpp **** {
 106:src/syscall_cpp.cpp ****     return 0;
 107:src/syscall_cpp.cpp **** }
 108:src/syscall_cpp.cpp **** 
 109:src/syscall_cpp.cpp **** void Console::putc(char)
 110:src/syscall_cpp.cpp **** {
 111:src/syscall_cpp.cpp **** 
 112:src/syscall_cpp.cpp **** }
 113:src/syscall_cpp.cpp **** 
 114:src/syscall_cpp.cpp **** //PeriodicThread
 115:src/syscall_cpp.cpp **** 
 116:src/syscall_cpp.cpp **** PeriodicThread::PeriodicThread(time_t period) : Thread(&PeriodicThread::runner, new ArgsPeriodic((v
 117:src/syscall_cpp.cpp **** {
 118:src/syscall_cpp.cpp **** 
 119:src/syscall_cpp.cpp **** }
 120:src/syscall_cpp.cpp **** 
GAS LISTING /tmp/ccBUxOaQ.s 			page 14


 121:src/syscall_cpp.cpp **** void PeriodicThread::runner(void* arg)
 122:src/syscall_cpp.cpp **** {
 537              		.loc 2 122 1 is_stmt 1
 538              		.cfi_startproc
 539              	.LVL36:
 540 01f4 130101FE 		addi	sp,sp,-32
 541              		.cfi_def_cfa_offset 32
 542 01f8 233C1100 		sd	ra,24(sp)
 543 01fc 23388100 		sd	s0,16(sp)
 544 0200 23349100 		sd	s1,8(sp)
 545 0204 23302101 		sd	s2,0(sp)
 546              		.cfi_offset 1, -8
 547              		.cfi_offset 8, -16
 548              		.cfi_offset 9, -24
 549              		.cfi_offset 18, -32
 550 0208 13040102 		addi	s0,sp,32
 551              		.cfi_def_cfa 8, 0
 123:src/syscall_cpp.cpp ****     PeriodicThread *pThread =(PeriodicThread*) ((ArgsPeriodic*)arg)->pt;
 552              		.loc 2 123 5
 553              		.loc 2 123 21 is_stmt 0
 554 020c 83340500 		ld	s1,0(a0)
 555              	.LVL37:
 124:src/syscall_cpp.cpp ****     uint64 time = ((ArgsPeriodic*)arg)->time;
 556              		.loc 2 124 5 is_stmt 1
 557              		.loc 2 124 12 is_stmt 0
 558 0210 03398500 		ld	s2,8(a0)
 559              	.LVL38:
 560              	.L35:
 125:src/syscall_cpp.cpp **** 
 126:src/syscall_cpp.cpp ****     while(true)
 561              		.loc 2 126 5 is_stmt 1 discriminator 1
 127:src/syscall_cpp.cpp ****     {
 128:src/syscall_cpp.cpp ****         pThread->periodicActivation();
 562              		.loc 2 128 9 discriminator 1
 563              		.loc 2 128 37 is_stmt 0 discriminator 1
 564 0214 83B70400 		ld	a5,0(s1)
 565 0218 83B78701 		ld	a5,24(a5)
 566              		.loc 2 128 36 discriminator 1
 567 021c 13850400 		mv	a0,s1
 568 0220 E7800700 		jalr	a5
 569              	.LVL39:
 129:src/syscall_cpp.cpp ****         Thread::sleep(time);
 570              		.loc 2 129 9 is_stmt 1 discriminator 1
 571              		.loc 2 129 22 is_stmt 0 discriminator 1
 572 0224 13050900 		mv	a0,s2
 573 0228 97000000 		call	_ZN6Thread5sleepEm
 573      E7800000 
 574              	.LVL40:
 126:src/syscall_cpp.cpp ****     {
 575              		.loc 2 126 5 is_stmt 1 discriminator 1
 576 0230 6FF05FFE 		j	.L35
 577              		.cfi_endproc
 578              	.LFE60:
 580              		.align	2
 581              		.globl	_ZN6ThreadC2EPFvPvES0_
 583              	_ZN6ThreadC2EPFvPvES0_:
 584              	.LFB36:
GAS LISTING /tmp/ccBUxOaQ.s 			page 15


  50:src/syscall_cpp.cpp **** {
 585              		.loc 2 50 1
 586              		.cfi_startproc
 587              	.LVL41:
 588 0234 130101FF 		addi	sp,sp,-16
 589              		.cfi_def_cfa_offset 16
 590 0238 23341100 		sd	ra,8(sp)
 591 023c 23308100 		sd	s0,0(sp)
 592              		.cfi_offset 1, -8
 593              		.cfi_offset 8, -16
 594 0240 13040101 		addi	s0,sp,16
 595              		.cfi_def_cfa 8, 0
 596              	.LBB14:
  50:src/syscall_cpp.cpp **** {
 597              		.loc 2 50 48 is_stmt 0
 598 0244 97070000 		lla	a5,_ZTV6Thread+16
 598      93870700 
 599 024c 2330F500 		sd	a5,0(a0)
  52:src/syscall_cpp.cpp **** }
 600              		.loc 2 52 5 is_stmt 1
  52:src/syscall_cpp.cpp **** }
 601              		.loc 2 52 20 is_stmt 0
 602 0250 13058500 		addi	a0,a0,8
 603              	.LVL42:
 604 0254 97000000 		call	thread_make_pcb@plt
 604      E7800000 
 605              	.LVL43:
 606              	.LBE14:
  53:src/syscall_cpp.cpp **** 
 607              		.loc 2 53 1
 608 025c 83308100 		ld	ra,8(sp)
 609              		.cfi_restore 1
 610 0260 03340100 		ld	s0,0(sp)
 611              		.cfi_restore 8
 612              		.cfi_def_cfa 2, 16
 613 0264 13010101 		addi	sp,sp,16
 614              		.cfi_def_cfa_offset 0
 615 0268 67800000 		jr	ra
 616              		.cfi_endproc
 617              	.LFE36:
 619              		.globl	_ZN6ThreadC1EPFvPvES0_
 620              		.set	_ZN6ThreadC1EPFvPvES0_,_ZN6ThreadC2EPFvPvES0_
 621              		.align	2
 622              		.globl	_ZN6ThreadC2Ev
 624              	_ZN6ThreadC2Ev:
 625              	.LFB39:
  55:src/syscall_cpp.cpp **** {
 626              		.loc 2 55 1 is_stmt 1
 627              		.cfi_startproc
 628              	.LVL44:
 629 026c 130101FF 		addi	sp,sp,-16
 630              		.cfi_def_cfa_offset 16
 631 0270 23341100 		sd	ra,8(sp)
 632 0274 23308100 		sd	s0,0(sp)
 633              		.cfi_offset 1, -8
 634              		.cfi_offset 8, -16
 635 0278 13040101 		addi	s0,sp,16
GAS LISTING /tmp/ccBUxOaQ.s 			page 16


 636              		.cfi_def_cfa 8, 0
 637              	.LBB15:
  55:src/syscall_cpp.cpp **** {
 638              		.loc 2 55 16 is_stmt 0
 639 027c 97070000 		lla	a5,_ZTV6Thread+16
 639      93870700 
 640 0284 2330F500 		sd	a5,0(a0)
  57:src/syscall_cpp.cpp **** }
 641              		.loc 2 57 5 is_stmt 1
  57:src/syscall_cpp.cpp **** }
 642              		.loc 2 57 20 is_stmt 0
 643 0288 13060500 		mv	a2,a0
 644 028c 97050000 		lla	a1,_ZN6Thread6runnerEPv
 644      93850500 
 645 0294 13058500 		addi	a0,a0,8
 646              	.LVL45:
 647 0298 97000000 		call	thread_make_pcb@plt
 647      E7800000 
 648              	.LVL46:
 649              	.LBE15:
  58:src/syscall_cpp.cpp **** 
 650              		.loc 2 58 1
 651 02a0 83308100 		ld	ra,8(sp)
 652              		.cfi_restore 1
 653 02a4 03340100 		ld	s0,0(sp)
 654              		.cfi_restore 8
 655              		.cfi_def_cfa 2, 16
 656 02a8 13010101 		addi	sp,sp,16
 657              		.cfi_def_cfa_offset 0
 658 02ac 67800000 		jr	ra
 659              		.cfi_endproc
 660              	.LFE39:
 662              		.globl	_ZN6ThreadC1Ev
 663              		.set	_ZN6ThreadC1Ev,_ZN6ThreadC2Ev
 664              		.align	2
 665              		.globl	_ZN9Semaphore4waitEv
 667              	_ZN9Semaphore4waitEv:
 668              	.LFB46:
  74:src/syscall_cpp.cpp ****     if(myHandle == 0)
 669              		.loc 2 74 1 is_stmt 1
 670              		.cfi_startproc
 671              	.LVL47:
  75:src/syscall_cpp.cpp ****         return -1;
 672              		.loc 2 75 5
  75:src/syscall_cpp.cpp ****         return -1;
 673              		.loc 2 75 8 is_stmt 0
 674 02b0 03358500 		ld	a0,8(a0)
 675              	.LVL48:
  75:src/syscall_cpp.cpp ****         return -1;
 676              		.loc 2 75 5
 677 02b4 63060502 		beqz	a0,.L43
  74:src/syscall_cpp.cpp ****     if(myHandle == 0)
 678              		.loc 2 74 1
 679 02b8 130101FF 		addi	sp,sp,-16
 680              		.cfi_def_cfa_offset 16
 681 02bc 23341100 		sd	ra,8(sp)
 682 02c0 23308100 		sd	s0,0(sp)
GAS LISTING /tmp/ccBUxOaQ.s 			page 17


 683              		.cfi_offset 1, -8
 684              		.cfi_offset 8, -16
 685 02c4 13040101 		addi	s0,sp,16
 686              		.cfi_def_cfa 8, 0
  77:src/syscall_cpp.cpp **** }
 687              		.loc 2 77 5 is_stmt 1
  77:src/syscall_cpp.cpp **** }
 688              		.loc 2 77 20 is_stmt 0
 689 02c8 97000000 		call	sem_wait@plt
 689      E7800000 
 690              	.LVL49:
  78:src/syscall_cpp.cpp **** 
 691              		.loc 2 78 1
 692 02d0 83308100 		ld	ra,8(sp)
 693              		.cfi_restore 1
 694 02d4 03340100 		ld	s0,0(sp)
 695              		.cfi_restore 8
 696              		.cfi_def_cfa 2, 16
 697 02d8 13010101 		addi	sp,sp,16
 698              		.cfi_def_cfa_offset 0
 699 02dc 67800000 		jr	ra
 700              	.L43:
  76:src/syscall_cpp.cpp ****     return sem_wait(myHandle);
 701              		.loc 2 76 17
 702 02e0 1305F0FF 		li	a0,-1
  78:src/syscall_cpp.cpp **** 
 703              		.loc 2 78 1
 704 02e4 67800000 		ret
 705              		.cfi_endproc
 706              	.LFE46:
 708              		.align	2
 709              		.globl	_ZN9SemaphoreC2Ej
 711              	_ZN9SemaphoreC2Ej:
 712              	.LFB48:
  80:src/syscall_cpp.cpp **** {
 713              		.loc 2 80 1 is_stmt 1
 714              		.cfi_startproc
 715              	.LVL50:
 716 02e8 130101FE 		addi	sp,sp,-32
 717              		.cfi_def_cfa_offset 32
 718 02ec 233C1100 		sd	ra,24(sp)
 719 02f0 23388100 		sd	s0,16(sp)
 720 02f4 23349100 		sd	s1,8(sp)
 721              		.cfi_offset 1, -8
 722              		.cfi_offset 8, -16
 723              		.cfi_offset 9, -24
 724 02f8 13040102 		addi	s0,sp,32
 725              		.cfi_def_cfa 8, 0
 726 02fc 93040500 		mv	s1,a0
 727              	.LBB16:
  80:src/syscall_cpp.cpp **** {
 728              		.loc 2 80 39 is_stmt 0
 729 0300 97070000 		lla	a5,_ZTV9Semaphore+16
 729      93870700 
 730 0308 2330F500 		sd	a5,0(a0)
 731              	.LBB17:
  82:src/syscall_cpp.cpp ****     if(retval != 0)
GAS LISTING /tmp/ccBUxOaQ.s 			page 18


 732              		.loc 2 82 5 is_stmt 1
  82:src/syscall_cpp.cpp ****     if(retval != 0)
 733              		.loc 2 82 26 is_stmt 0
 734 030c 13058500 		addi	a0,a0,8
 735              	.LVL51:
 736 0310 97000000 		call	sem_open@plt
 736      E7800000 
 737              	.LVL52:
  83:src/syscall_cpp.cpp ****     {
 738              		.loc 2 83 5 is_stmt 1
 739 0318 63040500 		beqz	a0,.L48
  87:src/syscall_cpp.cpp ****     }
 740              		.loc 2 87 9
  87:src/syscall_cpp.cpp ****     }
 741              		.loc 2 87 18 is_stmt 0
 742 031c 23B40400 		sd	zero,8(s1)
 743              	.L48:
 744              	.LBE17:
 745              	.LBE16:
  89:src/syscall_cpp.cpp **** 
 746              		.loc 2 89 1
 747 0320 83308101 		ld	ra,24(sp)
 748              		.cfi_restore 1
 749 0324 03340101 		ld	s0,16(sp)
 750              		.cfi_restore 8
 751              		.cfi_def_cfa 2, 32
 752 0328 83348100 		ld	s1,8(sp)
 753              		.cfi_restore 9
 754              	.LVL53:
 755 032c 13010102 		addi	sp,sp,32
 756              		.cfi_def_cfa_offset 0
 757 0330 67800000 		jr	ra
 758              		.cfi_endproc
 759              	.LFE48:
 761              		.globl	_ZN9SemaphoreC1Ej
 762              		.set	_ZN9SemaphoreC1Ej,_ZN9SemaphoreC2Ej
 763              		.align	2
 764              		.globl	_ZN9Semaphore6signalEv
 766              	_ZN9Semaphore6signalEv:
 767              	.LFB50:
  92:src/syscall_cpp.cpp ****     if(myHandle == 0)
 768              		.loc 2 92 1 is_stmt 1
 769              		.cfi_startproc
 770              	.LVL54:
  93:src/syscall_cpp.cpp ****         return -1;
 771              		.loc 2 93 5
  93:src/syscall_cpp.cpp ****         return -1;
 772              		.loc 2 93 8 is_stmt 0
 773 0334 03358500 		ld	a0,8(a0)
 774              	.LVL55:
  93:src/syscall_cpp.cpp ****         return -1;
 775              		.loc 2 93 5
 776 0338 63060502 		beqz	a0,.L53
  92:src/syscall_cpp.cpp ****     if(myHandle == 0)
 777              		.loc 2 92 1
 778 033c 130101FF 		addi	sp,sp,-16
 779              		.cfi_def_cfa_offset 16
GAS LISTING /tmp/ccBUxOaQ.s 			page 19


 780 0340 23341100 		sd	ra,8(sp)
 781 0344 23308100 		sd	s0,0(sp)
 782              		.cfi_offset 1, -8
 783              		.cfi_offset 8, -16
 784 0348 13040101 		addi	s0,sp,16
 785              		.cfi_def_cfa 8, 0
  95:src/syscall_cpp.cpp **** }
 786              		.loc 2 95 5 is_stmt 1
  95:src/syscall_cpp.cpp **** }
 787              		.loc 2 95 22 is_stmt 0
 788 034c 97000000 		call	sem_signal@plt
 788      E7800000 
 789              	.LVL56:
  96:src/syscall_cpp.cpp **** 
 790              		.loc 2 96 1
 791 0354 83308100 		ld	ra,8(sp)
 792              		.cfi_restore 1
 793 0358 03340100 		ld	s0,0(sp)
 794              		.cfi_restore 8
 795              		.cfi_def_cfa 2, 16
 796 035c 13010101 		addi	sp,sp,16
 797              		.cfi_def_cfa_offset 0
 798 0360 67800000 		jr	ra
 799              	.L53:
  94:src/syscall_cpp.cpp ****     return sem_signal(myHandle);
 800              		.loc 2 94 17
 801 0364 1305F0FF 		li	a0,-1
  96:src/syscall_cpp.cpp **** 
 802              		.loc 2 96 1
 803 0368 67800000 		ret
 804              		.cfi_endproc
 805              	.LFE50:
 807              		.align	2
 808              		.globl	_ZN7Console4getcEv
 810              	_ZN7Console4getcEv:
 811              	.LFB55:
 105:src/syscall_cpp.cpp ****     return 0;
 812              		.loc 2 105 1 is_stmt 1
 813              		.cfi_startproc
 814 036c 130101FF 		addi	sp,sp,-16
 815              		.cfi_def_cfa_offset 16
 816 0370 23348100 		sd	s0,8(sp)
 817              		.cfi_offset 8, -8
 818 0374 13040101 		addi	s0,sp,16
 819              		.cfi_def_cfa 8, 0
 106:src/syscall_cpp.cpp **** }
 820              		.loc 2 106 5
 107:src/syscall_cpp.cpp **** 
 821              		.loc 2 107 1 is_stmt 0
 822 0378 13050000 		li	a0,0
 823 037c 03348100 		ld	s0,8(sp)
 824              		.cfi_restore 8
 825              		.cfi_def_cfa 2, 16
 826 0380 13010101 		addi	sp,sp,16
 827              		.cfi_def_cfa_offset 0
 828 0384 67800000 		jr	ra
 829              		.cfi_endproc
GAS LISTING /tmp/ccBUxOaQ.s 			page 20


 830              	.LFE55:
 832              		.align	2
 833              		.globl	_ZN7Console4putcEc
 835              	_ZN7Console4putcEc:
 836              	.LFB56:
 110:src/syscall_cpp.cpp **** 
 837              		.loc 2 110 1 is_stmt 1
 838              		.cfi_startproc
 839 0388 130101FF 		addi	sp,sp,-16
 840              		.cfi_def_cfa_offset 16
 841 038c 23348100 		sd	s0,8(sp)
 842              		.cfi_offset 8, -8
 843 0390 13040101 		addi	s0,sp,16
 844              		.cfi_def_cfa 8, 0
 112:src/syscall_cpp.cpp **** 
 845              		.loc 2 112 1 is_stmt 0
 846 0394 03348100 		ld	s0,8(sp)
 847              		.cfi_restore 8
 848              		.cfi_def_cfa 2, 16
 849 0398 13010101 		addi	sp,sp,16
 850              		.cfi_def_cfa_offset 0
 851 039c 67800000 		jr	ra
 852              		.cfi_endproc
 853              	.LFE56:
 855              		.align	2
 856              		.globl	_ZN14PeriodicThreadC2Em
 858              	_ZN14PeriodicThreadC2Em:
 859              	.LFB58:
 116:src/syscall_cpp.cpp **** {
 860              		.loc 2 116 1 is_stmt 1
 861              		.cfi_startproc
 862              	.LVL57:
 863 03a0 130101FE 		addi	sp,sp,-32
 864              		.cfi_def_cfa_offset 32
 865 03a4 233C1100 		sd	ra,24(sp)
 866 03a8 23388100 		sd	s0,16(sp)
 867 03ac 23349100 		sd	s1,8(sp)
 868 03b0 23302101 		sd	s2,0(sp)
 869              		.cfi_offset 1, -8
 870              		.cfi_offset 8, -16
 871              		.cfi_offset 9, -24
 872              		.cfi_offset 18, -32
 873 03b4 13040102 		addi	s0,sp,32
 874              		.cfi_def_cfa 8, 0
 875 03b8 93040500 		mv	s1,a0
 876 03bc 13890500 		mv	s2,a1
 877              	.LBB18:
 116:src/syscall_cpp.cpp **** {
 878              		.loc 2 116 117 is_stmt 0
 879 03c0 13050001 		li	a0,16
 880              	.LVL58:
 881 03c4 97000000 		call	_Znwm
 881      E7800000 
 882              	.LVL59:
 883 03cc 13060500 		mv	a2,a0
 884              	.LVL60:
 885              	.LBB19:
GAS LISTING /tmp/ccBUxOaQ.s 			page 21


 886              	.LBB20:
  11:src/syscall_cpp.cpp **** };
 887              		.loc 2 11 52
 888 03d0 23309500 		sd	s1,0(a0)
 889 03d4 23342501 		sd	s2,8(a0)
 890              	.LVL61:
 891              	.LBE20:
 892              	.LBE19:
 116:src/syscall_cpp.cpp **** {
 893              		.loc 2 116 118
 894 03d8 97050000 		lla	a1,_ZN14PeriodicThread6runnerEPv
 894      93850500 
 895 03e0 13850400 		mv	a0,s1
 896 03e4 97000000 		call	_ZN6ThreadC2EPFvPvES0_
 896      E7800000 
 897              	.LVL62:
 898 03ec 97070000 		lla	a5,_ZTV14PeriodicThread+16
 898      93870700 
 899 03f4 23B0F400 		sd	a5,0(s1)
 900              	.LBE18:
 119:src/syscall_cpp.cpp **** 
 901              		.loc 2 119 1
 902 03f8 83308101 		ld	ra,24(sp)
 903              		.cfi_restore 1
 904 03fc 03340101 		ld	s0,16(sp)
 905              		.cfi_restore 8
 906              		.cfi_def_cfa 2, 32
 907 0400 83348100 		ld	s1,8(sp)
 908              		.cfi_restore 9
 909              	.LVL63:
 910 0404 03390100 		ld	s2,0(sp)
 911              		.cfi_restore 18
 912              	.LVL64:
 913 0408 13010102 		addi	sp,sp,32
 914              		.cfi_def_cfa_offset 0
 915 040c 67800000 		jr	ra
 916              		.cfi_endproc
 917              	.LFE58:
 919              		.globl	_ZN14PeriodicThreadC1Em
 920              		.set	_ZN14PeriodicThreadC1Em,_ZN14PeriodicThreadC2Em
 921              		.weak	_ZTV14PeriodicThread
 922              		.section	.data.rel.ro.local._ZTV14PeriodicThread,"awG",@progbits,_ZTV14PeriodicThread,comdat
 923              		.align	3
 926              	_ZTV14PeriodicThread:
 927 0000 00000000 		.dword	0
 927      00000000 
 928 0008 00000000 		.dword	0
 928      00000000 
 929 0010 00000000 		.dword	_ZN14PeriodicThreadD1Ev
 929      00000000 
 930 0018 00000000 		.dword	_ZN14PeriodicThreadD0Ev
 930      00000000 
 931 0020 00000000 		.dword	_ZN6Thread3runEv
 931      00000000 
 932 0028 00000000 		.dword	_ZN14PeriodicThread18periodicActivationEv
 932      00000000 
 933              		.weak	_ZTV6Thread
GAS LISTING /tmp/ccBUxOaQ.s 			page 22


 934              		.section	.data.rel.ro.local._ZTV6Thread,"awG",@progbits,_ZTV6Thread,comdat
 935              		.align	3
 938              	_ZTV6Thread:
 939 0000 00000000 		.dword	0
 939      00000000 
 940 0008 00000000 		.dword	0
 940      00000000 
 941 0010 00000000 		.dword	_ZN6ThreadD1Ev
 941      00000000 
 942 0018 00000000 		.dword	_ZN6ThreadD0Ev
 942      00000000 
 943 0020 00000000 		.dword	_ZN6Thread3runEv
 943      00000000 
 944              		.weak	_ZTV9Semaphore
 945              		.section	.data.rel.ro.local._ZTV9Semaphore,"awG",@progbits,_ZTV9Semaphore,comdat
 946              		.align	3
 949              	_ZTV9Semaphore:
 950 0000 00000000 		.dword	0
 950      00000000 
 951 0008 00000000 		.dword	0
 951      00000000 
 952 0010 00000000 		.dword	_ZN9SemaphoreD1Ev
 952      00000000 
 953 0018 00000000 		.dword	_ZN9SemaphoreD0Ev
 953      00000000 
 954              		.text
 955              	.Letext0:
 956              		.file 3 "src/../h/../lib/hw.h"
 957              		.file 4 "src/../h/syscall_c.h"
 4173              		.align	3
 4176              	DW.ref.__gxx_personality_v0:
 4177 0000 00000000 		.dword	__gxx_personality_v0
 4177      00000000 
 4178              		.ident	"GCC: (Ubuntu 9.3.0-17ubuntu1~20.04) 9.3.0"
 4179              		.section	.note.GNU-stack,"",@progbits
GAS LISTING /tmp/ccBUxOaQ.s 			page 23


DEFINED SYMBOLS
                            *ABS*:0000000000000000 syscall_cpp.cpp
     /tmp/ccBUxOaQ.s:10     .text._ZN6Thread3runEv:0000000000000000 _ZN6Thread3runEv
     /tmp/ccBUxOaQ.s:14     .text._ZN6Thread3runEv:0000000000000000 .L0 
     /tmp/ccBUxOaQ.s:16     .text._ZN6Thread3runEv:0000000000000000 .L0 
     /tmp/ccBUxOaQ.s:17     .text._ZN6Thread3runEv:0000000000000004 .L0 
     /tmp/ccBUxOaQ.s:19     .text._ZN6Thread3runEv:0000000000000008 .L0 
     /tmp/ccBUxOaQ.s:21     .text._ZN6Thread3runEv:000000000000000c .L0 
     /tmp/ccBUxOaQ.s:23     .text._ZN6Thread3runEv:000000000000000c .L0 
     /tmp/ccBUxOaQ.s:24     .text._ZN6Thread3runEv:0000000000000010 .L0 
     /tmp/ccBUxOaQ.s:25     .text._ZN6Thread3runEv:0000000000000010 .L0 
     /tmp/ccBUxOaQ.s:27     .text._ZN6Thread3runEv:0000000000000014 .L0 
     /tmp/ccBUxOaQ.s:29     .text._ZN6Thread3runEv:0000000000000018 .L0 
     /tmp/ccBUxOaQ.s:36     .text._ZN14PeriodicThread18periodicActivationEv:0000000000000000 _ZN14PeriodicThread18periodicActivationEv
     /tmp/ccBUxOaQ.s:39     .text._ZN14PeriodicThread18periodicActivationEv:0000000000000000 .L0 
     /tmp/ccBUxOaQ.s:41     .text._ZN14PeriodicThread18periodicActivationEv:0000000000000000 .L0 
     /tmp/ccBUxOaQ.s:42     .text._ZN14PeriodicThread18periodicActivationEv:0000000000000004 .L0 
     /tmp/ccBUxOaQ.s:44     .text._ZN14PeriodicThread18periodicActivationEv:0000000000000008 .L0 
     /tmp/ccBUxOaQ.s:46     .text._ZN14PeriodicThread18periodicActivationEv:000000000000000c .L0 
     /tmp/ccBUxOaQ.s:48     .text._ZN14PeriodicThread18periodicActivationEv:000000000000000c .L0 
     /tmp/ccBUxOaQ.s:49     .text._ZN14PeriodicThread18periodicActivationEv:0000000000000010 .L0 
     /tmp/ccBUxOaQ.s:50     .text._ZN14PeriodicThread18periodicActivationEv:0000000000000010 .L0 
     /tmp/ccBUxOaQ.s:52     .text._ZN14PeriodicThread18periodicActivationEv:0000000000000014 .L0 
     /tmp/ccBUxOaQ.s:54     .text._ZN14PeriodicThread18periodicActivationEv:0000000000000018 .L0 
     /tmp/ccBUxOaQ.s:61     .text:0000000000000000 _ZN6Thread6runnerEPv
     /tmp/ccBUxOaQ.s:65     .text:0000000000000000 .L0 
     /tmp/ccBUxOaQ.s:67     .text:0000000000000000 .L0 
     /tmp/ccBUxOaQ.s:68     .text:0000000000000004 .L0 
     /tmp/ccBUxOaQ.s:71     .text:000000000000000c .L0 
     /tmp/ccBUxOaQ.s:72     .text:000000000000000c .L0 
     /tmp/ccBUxOaQ.s:74     .text:0000000000000010 .L0 
     /tmp/ccBUxOaQ.s:77     .text:0000000000000010 .L0 
     /tmp/ccBUxOaQ.s:78     .text:0000000000000010 .L0 
     /tmp/ccBUxOaQ.s:79     .text:0000000000000010 .L0 
     /tmp/ccBUxOaQ.s:82     .text:0000000000000018 .L0 
     /tmp/ccBUxOaQ.s:85     .text:000000000000001c .L0 
     /tmp/ccBUxOaQ.s:86     .text:0000000000000020 .L0 
     /tmp/ccBUxOaQ.s:88     .text:0000000000000024 .L0 
     /tmp/ccBUxOaQ.s:89     .text:0000000000000024 .L0 
     /tmp/ccBUxOaQ.s:91     .text:0000000000000028 .L0 
     /tmp/ccBUxOaQ.s:93     .text:000000000000002c .L0 
     /tmp/ccBUxOaQ.s:99     .text:000000000000002c _ZN6ThreadD2Ev
     /tmp/ccBUxOaQ.s:102    .text:000000000000002c .L0 
     /tmp/ccBUxOaQ.s:4176   .data.rel.local.DW.ref.__gxx_personality_v0:0000000000000000 DW.ref.__gxx_personality_v0
     /tmp/ccBUxOaQ.s:106    .text:000000000000002c .L0 
     /tmp/ccBUxOaQ.s:107    .text:0000000000000030 .L0 
     /tmp/ccBUxOaQ.s:110    .text:0000000000000038 .L0 
     /tmp/ccBUxOaQ.s:111    .text:0000000000000038 .L0 
     /tmp/ccBUxOaQ.s:113    .text:000000000000003c .L0 
     /tmp/ccBUxOaQ.s:938    .data.rel.ro.local._ZTV6Thread:0000000000000000 _ZTV6Thread
     /tmp/ccBUxOaQ.s:116    .text:000000000000003c .L0 
     /tmp/ccBUxOaQ.s:119    .text:0000000000000048 .L0 
     /tmp/ccBUxOaQ.s:120    .text:0000000000000048 .L0 
     /tmp/ccBUxOaQ.s:126    .text:0000000000000054 .L0 
     /tmp/ccBUxOaQ.s:127    .text:0000000000000058 .L0 
     /tmp/ccBUxOaQ.s:129    .text:000000000000005c .L0 
     /tmp/ccBUxOaQ.s:130    .text:000000000000005c .L0 
GAS LISTING /tmp/ccBUxOaQ.s 			page 24


     /tmp/ccBUxOaQ.s:132    .text:0000000000000060 .L0 
     /tmp/ccBUxOaQ.s:134    .text:0000000000000064 .L0 
     /tmp/ccBUxOaQ.s:99     .text:000000000000002c _ZN6ThreadD1Ev
     /tmp/ccBUxOaQ.s:151    .text._ZN14PeriodicThreadD2Ev:0000000000000000 _ZN14PeriodicThreadD2Ev
     /tmp/ccBUxOaQ.s:154    .text._ZN14PeriodicThreadD2Ev:0000000000000000 .L0 
     /tmp/ccBUxOaQ.s:156    .text._ZN14PeriodicThreadD2Ev:0000000000000000 .L0 
     /tmp/ccBUxOaQ.s:157    .text._ZN14PeriodicThreadD2Ev:0000000000000004 .L0 
     /tmp/ccBUxOaQ.s:160    .text._ZN14PeriodicThreadD2Ev:000000000000000c .L0 
     /tmp/ccBUxOaQ.s:161    .text._ZN14PeriodicThreadD2Ev:000000000000000c .L0 
     /tmp/ccBUxOaQ.s:163    .text._ZN14PeriodicThreadD2Ev:0000000000000010 .L0 
     /tmp/ccBUxOaQ.s:926    .data.rel.ro.local._ZTV14PeriodicThread:0000000000000000 _ZTV14PeriodicThread
     /tmp/ccBUxOaQ.s:166    .text._ZN14PeriodicThreadD2Ev:0000000000000010 .L0 
     /tmp/ccBUxOaQ.s:172    .text._ZN14PeriodicThreadD2Ev:0000000000000028 .L0 
     /tmp/ccBUxOaQ.s:174    .text._ZN14PeriodicThreadD2Ev:000000000000002c .L0 
     /tmp/ccBUxOaQ.s:175    .text._ZN14PeriodicThreadD2Ev:000000000000002c .L0 
     /tmp/ccBUxOaQ.s:177    .text._ZN14PeriodicThreadD2Ev:0000000000000030 .L0 
     /tmp/ccBUxOaQ.s:179    .text._ZN14PeriodicThreadD2Ev:0000000000000034 .L0 
     /tmp/ccBUxOaQ.s:151    .text._ZN14PeriodicThreadD2Ev:0000000000000000 _ZN14PeriodicThreadD1Ev
     /tmp/ccBUxOaQ.s:188    .text:0000000000000064 _ZN9SemaphoreD2Ev
     /tmp/ccBUxOaQ.s:191    .text:0000000000000064 .L0 
     /tmp/ccBUxOaQ.s:195    .text:0000000000000064 .L0 
     /tmp/ccBUxOaQ.s:196    .text:0000000000000068 .L0 
     /tmp/ccBUxOaQ.s:199    .text:0000000000000070 .L0 
     /tmp/ccBUxOaQ.s:200    .text:0000000000000070 .L0 
     /tmp/ccBUxOaQ.s:202    .text:0000000000000074 .L0 
     /tmp/ccBUxOaQ.s:949    .data.rel.ro.local._ZTV9Semaphore:0000000000000000 _ZTV9Semaphore
     /tmp/ccBUxOaQ.s:205    .text:0000000000000074 .L0 
     /tmp/ccBUxOaQ.s:208    .text:0000000000000080 .L0 
     /tmp/ccBUxOaQ.s:209    .text:0000000000000080 .L0 
     /tmp/ccBUxOaQ.s:215    .text:000000000000008c .L0 
     /tmp/ccBUxOaQ.s:216    .text:0000000000000090 .L0 
     /tmp/ccBUxOaQ.s:218    .text:0000000000000094 .L0 
     /tmp/ccBUxOaQ.s:219    .text:0000000000000094 .L0 
     /tmp/ccBUxOaQ.s:221    .text:0000000000000098 .L0 
     /tmp/ccBUxOaQ.s:223    .text:000000000000009c .L0 
     /tmp/ccBUxOaQ.s:188    .text:0000000000000064 _ZN9SemaphoreD1Ev
     /tmp/ccBUxOaQ.s:238    .text:000000000000009c _Znwm
     /tmp/ccBUxOaQ.s:241    .text:000000000000009c .L0 
     /tmp/ccBUxOaQ.s:243    .text:000000000000009c .L0 
     /tmp/ccBUxOaQ.s:244    .text:00000000000000a0 .L0 
     /tmp/ccBUxOaQ.s:247    .text:00000000000000a8 .L0 
     /tmp/ccBUxOaQ.s:248    .text:00000000000000a8 .L0 
     /tmp/ccBUxOaQ.s:250    .text:00000000000000ac .L0 
     /tmp/ccBUxOaQ.s:252    .text:00000000000000ac .L0 
     /tmp/ccBUxOaQ.s:253    .text:00000000000000ac .L0 
     /tmp/ccBUxOaQ.s:256    .text:00000000000000b4 .L0 
     /tmp/ccBUxOaQ.s:257    .text:00000000000000b8 .L0 
     /tmp/ccBUxOaQ.s:259    .text:00000000000000bc .L0 
     /tmp/ccBUxOaQ.s:260    .text:00000000000000bc .L0 
     /tmp/ccBUxOaQ.s:262    .text:00000000000000c0 .L0 
     /tmp/ccBUxOaQ.s:264    .text:00000000000000c4 .L0 
     /tmp/ccBUxOaQ.s:270    .text:00000000000000c4 _ZdlPv
     /tmp/ccBUxOaQ.s:273    .text:00000000000000c4 .L0 
     /tmp/ccBUxOaQ.s:275    .text:00000000000000c4 .L0 
     /tmp/ccBUxOaQ.s:276    .text:00000000000000c8 .L0 
     /tmp/ccBUxOaQ.s:279    .text:00000000000000d0 .L0 
     /tmp/ccBUxOaQ.s:280    .text:00000000000000d0 .L0 
GAS LISTING /tmp/ccBUxOaQ.s 			page 25


     /tmp/ccBUxOaQ.s:282    .text:00000000000000d4 .L0 
     /tmp/ccBUxOaQ.s:284    .text:00000000000000d4 .L0 
     /tmp/ccBUxOaQ.s:285    .text:00000000000000d4 .L0 
     /tmp/ccBUxOaQ.s:288    .text:00000000000000dc .L0 
     /tmp/ccBUxOaQ.s:289    .text:00000000000000e0 .L0 
     /tmp/ccBUxOaQ.s:291    .text:00000000000000e4 .L0 
     /tmp/ccBUxOaQ.s:292    .text:00000000000000e4 .L0 
     /tmp/ccBUxOaQ.s:294    .text:00000000000000e8 .L0 
     /tmp/ccBUxOaQ.s:296    .text:00000000000000ec .L0 
     /tmp/ccBUxOaQ.s:302    .text:00000000000000ec _ZN6ThreadD0Ev
     /tmp/ccBUxOaQ.s:305    .text:00000000000000ec .L0 
     /tmp/ccBUxOaQ.s:307    .text:00000000000000ec .L0 
     /tmp/ccBUxOaQ.s:308    .text:00000000000000f0 .L0 
     /tmp/ccBUxOaQ.s:312    .text:00000000000000fc .L0 
     /tmp/ccBUxOaQ.s:313    .text:00000000000000fc .L0 
     /tmp/ccBUxOaQ.s:314    .text:00000000000000fc .L0 
     /tmp/ccBUxOaQ.s:316    .text:0000000000000100 .L0 
     /tmp/ccBUxOaQ.s:319    .text:0000000000000104 .L0 
     /tmp/ccBUxOaQ.s:325    .text:000000000000011c .L0 
     /tmp/ccBUxOaQ.s:327    .text:0000000000000120 .L0 
     /tmp/ccBUxOaQ.s:328    .text:0000000000000120 .L0 
     /tmp/ccBUxOaQ.s:330    .text:0000000000000124 .L0 
     /tmp/ccBUxOaQ.s:333    .text:0000000000000128 .L0 
     /tmp/ccBUxOaQ.s:335    .text:000000000000012c .L0 
     /tmp/ccBUxOaQ.s:341    .text:000000000000012c _ZN9SemaphoreD0Ev
     /tmp/ccBUxOaQ.s:344    .text:000000000000012c .L0 
     /tmp/ccBUxOaQ.s:346    .text:000000000000012c .L0 
     /tmp/ccBUxOaQ.s:347    .text:0000000000000130 .L0 
     /tmp/ccBUxOaQ.s:351    .text:000000000000013c .L0 
     /tmp/ccBUxOaQ.s:352    .text:000000000000013c .L0 
     /tmp/ccBUxOaQ.s:353    .text:000000000000013c .L0 
     /tmp/ccBUxOaQ.s:355    .text:0000000000000140 .L0 
     /tmp/ccBUxOaQ.s:358    .text:0000000000000144 .L0 
     /tmp/ccBUxOaQ.s:364    .text:000000000000015c .L0 
     /tmp/ccBUxOaQ.s:366    .text:0000000000000160 .L0 
     /tmp/ccBUxOaQ.s:367    .text:0000000000000160 .L0 
     /tmp/ccBUxOaQ.s:369    .text:0000000000000164 .L0 
     /tmp/ccBUxOaQ.s:372    .text:0000000000000168 .L0 
     /tmp/ccBUxOaQ.s:374    .text:000000000000016c .L0 
     /tmp/ccBUxOaQ.s:381    .text._ZN14PeriodicThreadD0Ev:0000000000000000 _ZN14PeriodicThreadD0Ev
     /tmp/ccBUxOaQ.s:384    .text._ZN14PeriodicThreadD0Ev:0000000000000000 .L0 
     /tmp/ccBUxOaQ.s:386    .text._ZN14PeriodicThreadD0Ev:0000000000000000 .L0 
     /tmp/ccBUxOaQ.s:387    .text._ZN14PeriodicThreadD0Ev:0000000000000004 .L0 
     /tmp/ccBUxOaQ.s:391    .text._ZN14PeriodicThreadD0Ev:0000000000000010 .L0 
     /tmp/ccBUxOaQ.s:392    .text._ZN14PeriodicThreadD0Ev:0000000000000010 .L0 
     /tmp/ccBUxOaQ.s:393    .text._ZN14PeriodicThreadD0Ev:0000000000000010 .L0 
     /tmp/ccBUxOaQ.s:395    .text._ZN14PeriodicThreadD0Ev:0000000000000014 .L0 
     /tmp/ccBUxOaQ.s:401    .text._ZN14PeriodicThreadD0Ev:0000000000000018 .L0 
     /tmp/ccBUxOaQ.s:411    .text._ZN14PeriodicThreadD0Ev:000000000000003c .L0 
     /tmp/ccBUxOaQ.s:413    .text._ZN14PeriodicThreadD0Ev:0000000000000040 .L0 
     /tmp/ccBUxOaQ.s:414    .text._ZN14PeriodicThreadD0Ev:0000000000000040 .L0 
     /tmp/ccBUxOaQ.s:416    .text._ZN14PeriodicThreadD0Ev:0000000000000044 .L0 
     /tmp/ccBUxOaQ.s:419    .text._ZN14PeriodicThreadD0Ev:0000000000000048 .L0 
     /tmp/ccBUxOaQ.s:421    .text._ZN14PeriodicThreadD0Ev:000000000000004c .L0 
     /tmp/ccBUxOaQ.s:428    .text:000000000000016c _ZN6Thread5startEv
     /tmp/ccBUxOaQ.s:431    .text:000000000000016c .L0 
     /tmp/ccBUxOaQ.s:433    .text:000000000000016c .L0 
GAS LISTING /tmp/ccBUxOaQ.s 			page 26


     /tmp/ccBUxOaQ.s:434    .text:000000000000016c .L0 
     /tmp/ccBUxOaQ.s:435    .text:000000000000016c .L0 
     /tmp/ccBUxOaQ.s:438    .text:0000000000000170 .L0 
     /tmp/ccBUxOaQ.s:440    .text:0000000000000174 .L0 
     /tmp/ccBUxOaQ.s:441    .text:0000000000000178 .L0 
     /tmp/ccBUxOaQ.s:444    .text:0000000000000180 .L0 
     /tmp/ccBUxOaQ.s:445    .text:0000000000000180 .L0 
     /tmp/ccBUxOaQ.s:447    .text:0000000000000184 .L0 
     /tmp/ccBUxOaQ.s:449    .text:0000000000000184 .L0 
     /tmp/ccBUxOaQ.s:450    .text:0000000000000184 .L0 
     /tmp/ccBUxOaQ.s:453    .text:000000000000018c .L0 
     /tmp/ccBUxOaQ.s:454    .text:0000000000000190 .L0 
     /tmp/ccBUxOaQ.s:456    .text:0000000000000194 .L0 
     /tmp/ccBUxOaQ.s:457    .text:0000000000000194 .L0 
     /tmp/ccBUxOaQ.s:459    .text:0000000000000198 .L0 
     /tmp/ccBUxOaQ.s:463    .text:000000000000019c .L0 
     /tmp/ccBUxOaQ.s:465    .text:00000000000001a0 .L0 
     /tmp/ccBUxOaQ.s:466    .text:00000000000001a4 .L0 
     /tmp/ccBUxOaQ.s:472    .text:00000000000001a4 _ZN6Thread8dispatchEv
     /tmp/ccBUxOaQ.s:475    .text:00000000000001a4 .L0 
     /tmp/ccBUxOaQ.s:476    .text:00000000000001a4 .L0 
     /tmp/ccBUxOaQ.s:477    .text:00000000000001a8 .L0 
     /tmp/ccBUxOaQ.s:480    .text:00000000000001b0 .L0 
     /tmp/ccBUxOaQ.s:481    .text:00000000000001b0 .L0 
     /tmp/ccBUxOaQ.s:483    .text:00000000000001b4 .L0 
     /tmp/ccBUxOaQ.s:485    .text:00000000000001b4 .L0 
     /tmp/ccBUxOaQ.s:486    .text:00000000000001b4 .L0 
     /tmp/ccBUxOaQ.s:489    .text:00000000000001bc .L0 
     /tmp/ccBUxOaQ.s:490    .text:00000000000001c0 .L0 
     /tmp/ccBUxOaQ.s:492    .text:00000000000001c4 .L0 
     /tmp/ccBUxOaQ.s:493    .text:00000000000001c4 .L0 
     /tmp/ccBUxOaQ.s:495    .text:00000000000001c8 .L0 
     /tmp/ccBUxOaQ.s:497    .text:00000000000001cc .L0 
     /tmp/ccBUxOaQ.s:503    .text:00000000000001cc _ZN6Thread5sleepEm
     /tmp/ccBUxOaQ.s:506    .text:00000000000001cc .L0 
     /tmp/ccBUxOaQ.s:508    .text:00000000000001cc .L0 
     /tmp/ccBUxOaQ.s:509    .text:00000000000001d0 .L0 
     /tmp/ccBUxOaQ.s:512    .text:00000000000001d8 .L0 
     /tmp/ccBUxOaQ.s:513    .text:00000000000001d8 .L0 
     /tmp/ccBUxOaQ.s:515    .text:00000000000001dc .L0 
     /tmp/ccBUxOaQ.s:517    .text:00000000000001dc .L0 
     /tmp/ccBUxOaQ.s:518    .text:00000000000001dc .L0 
     /tmp/ccBUxOaQ.s:521    .text:00000000000001e4 .L0 
     /tmp/ccBUxOaQ.s:522    .text:00000000000001e8 .L0 
     /tmp/ccBUxOaQ.s:524    .text:00000000000001ec .L0 
     /tmp/ccBUxOaQ.s:525    .text:00000000000001ec .L0 
     /tmp/ccBUxOaQ.s:527    .text:00000000000001f0 .L0 
     /tmp/ccBUxOaQ.s:529    .text:00000000000001f4 .L0 
     /tmp/ccBUxOaQ.s:535    .text:00000000000001f4 _ZN14PeriodicThread6runnerEPv
     /tmp/ccBUxOaQ.s:538    .text:00000000000001f4 .L0 
     /tmp/ccBUxOaQ.s:540    .text:00000000000001f4 .L0 
     /tmp/ccBUxOaQ.s:541    .text:00000000000001f8 .L0 
     /tmp/ccBUxOaQ.s:546    .text:0000000000000208 .L0 
     /tmp/ccBUxOaQ.s:547    .text:0000000000000208 .L0 
     /tmp/ccBUxOaQ.s:548    .text:0000000000000208 .L0 
     /tmp/ccBUxOaQ.s:549    .text:0000000000000208 .L0 
     /tmp/ccBUxOaQ.s:551    .text:000000000000020c .L0 
GAS LISTING /tmp/ccBUxOaQ.s 			page 27


     /tmp/ccBUxOaQ.s:553    .text:000000000000020c .L0 
     /tmp/ccBUxOaQ.s:554    .text:000000000000020c .L0 
     /tmp/ccBUxOaQ.s:557    .text:0000000000000210 .L0 
     /tmp/ccBUxOaQ.s:558    .text:0000000000000210 .L0 
     /tmp/ccBUxOaQ.s:562    .text:0000000000000214 .L0 
     /tmp/ccBUxOaQ.s:563    .text:0000000000000214 .L0 
     /tmp/ccBUxOaQ.s:564    .text:0000000000000214 .L0 
     /tmp/ccBUxOaQ.s:567    .text:000000000000021c .L0 
     /tmp/ccBUxOaQ.s:571    .text:0000000000000224 .L0 
     /tmp/ccBUxOaQ.s:572    .text:0000000000000224 .L0 
     /tmp/ccBUxOaQ.s:576    .text:0000000000000230 .L0 
     /tmp/ccBUxOaQ.s:577    .text:0000000000000234 .L0 
     /tmp/ccBUxOaQ.s:583    .text:0000000000000234 _ZN6ThreadC2EPFvPvES0_
     /tmp/ccBUxOaQ.s:586    .text:0000000000000234 .L0 
     /tmp/ccBUxOaQ.s:588    .text:0000000000000234 .L0 
     /tmp/ccBUxOaQ.s:589    .text:0000000000000238 .L0 
     /tmp/ccBUxOaQ.s:592    .text:0000000000000240 .L0 
     /tmp/ccBUxOaQ.s:593    .text:0000000000000240 .L0 
     /tmp/ccBUxOaQ.s:595    .text:0000000000000244 .L0 
     /tmp/ccBUxOaQ.s:598    .text:0000000000000244 .L0 
     /tmp/ccBUxOaQ.s:601    .text:0000000000000250 .L0 
     /tmp/ccBUxOaQ.s:602    .text:0000000000000250 .L0 
     /tmp/ccBUxOaQ.s:608    .text:000000000000025c .L0 
     /tmp/ccBUxOaQ.s:609    .text:0000000000000260 .L0 
     /tmp/ccBUxOaQ.s:611    .text:0000000000000264 .L0 
     /tmp/ccBUxOaQ.s:612    .text:0000000000000264 .L0 
     /tmp/ccBUxOaQ.s:614    .text:0000000000000268 .L0 
     /tmp/ccBUxOaQ.s:616    .text:000000000000026c .L0 
     /tmp/ccBUxOaQ.s:583    .text:0000000000000234 _ZN6ThreadC1EPFvPvES0_
     /tmp/ccBUxOaQ.s:624    .text:000000000000026c _ZN6ThreadC2Ev
     /tmp/ccBUxOaQ.s:627    .text:000000000000026c .L0 
     /tmp/ccBUxOaQ.s:629    .text:000000000000026c .L0 
     /tmp/ccBUxOaQ.s:630    .text:0000000000000270 .L0 
     /tmp/ccBUxOaQ.s:633    .text:0000000000000278 .L0 
     /tmp/ccBUxOaQ.s:634    .text:0000000000000278 .L0 
     /tmp/ccBUxOaQ.s:636    .text:000000000000027c .L0 
     /tmp/ccBUxOaQ.s:639    .text:000000000000027c .L0 
     /tmp/ccBUxOaQ.s:642    .text:0000000000000288 .L0 
     /tmp/ccBUxOaQ.s:643    .text:0000000000000288 .L0 
     /tmp/ccBUxOaQ.s:651    .text:00000000000002a0 .L0 
     /tmp/ccBUxOaQ.s:652    .text:00000000000002a4 .L0 
     /tmp/ccBUxOaQ.s:654    .text:00000000000002a8 .L0 
     /tmp/ccBUxOaQ.s:655    .text:00000000000002a8 .L0 
     /tmp/ccBUxOaQ.s:657    .text:00000000000002ac .L0 
     /tmp/ccBUxOaQ.s:659    .text:00000000000002b0 .L0 
     /tmp/ccBUxOaQ.s:624    .text:000000000000026c _ZN6ThreadC1Ev
     /tmp/ccBUxOaQ.s:667    .text:00000000000002b0 _ZN9Semaphore4waitEv
     /tmp/ccBUxOaQ.s:670    .text:00000000000002b0 .L0 
     /tmp/ccBUxOaQ.s:672    .text:00000000000002b0 .L0 
     /tmp/ccBUxOaQ.s:673    .text:00000000000002b0 .L0 
     /tmp/ccBUxOaQ.s:674    .text:00000000000002b0 .L0 
     /tmp/ccBUxOaQ.s:677    .text:00000000000002b4 .L0 
     /tmp/ccBUxOaQ.s:679    .text:00000000000002b8 .L0 
     /tmp/ccBUxOaQ.s:680    .text:00000000000002bc .L0 
     /tmp/ccBUxOaQ.s:683    .text:00000000000002c4 .L0 
     /tmp/ccBUxOaQ.s:684    .text:00000000000002c4 .L0 
     /tmp/ccBUxOaQ.s:686    .text:00000000000002c8 .L0 
GAS LISTING /tmp/ccBUxOaQ.s 			page 28


     /tmp/ccBUxOaQ.s:688    .text:00000000000002c8 .L0 
     /tmp/ccBUxOaQ.s:689    .text:00000000000002c8 .L0 
     /tmp/ccBUxOaQ.s:692    .text:00000000000002d0 .L0 
     /tmp/ccBUxOaQ.s:693    .text:00000000000002d4 .L0 
     /tmp/ccBUxOaQ.s:695    .text:00000000000002d8 .L0 
     /tmp/ccBUxOaQ.s:696    .text:00000000000002d8 .L0 
     /tmp/ccBUxOaQ.s:698    .text:00000000000002dc .L0 
     /tmp/ccBUxOaQ.s:702    .text:00000000000002e0 .L0 
     /tmp/ccBUxOaQ.s:704    .text:00000000000002e4 .L0 
     /tmp/ccBUxOaQ.s:705    .text:00000000000002e8 .L0 
     /tmp/ccBUxOaQ.s:711    .text:00000000000002e8 _ZN9SemaphoreC2Ej
     /tmp/ccBUxOaQ.s:714    .text:00000000000002e8 .L0 
     /tmp/ccBUxOaQ.s:716    .text:00000000000002e8 .L0 
     /tmp/ccBUxOaQ.s:717    .text:00000000000002ec .L0 
     /tmp/ccBUxOaQ.s:721    .text:00000000000002f8 .L0 
     /tmp/ccBUxOaQ.s:722    .text:00000000000002f8 .L0 
     /tmp/ccBUxOaQ.s:723    .text:00000000000002f8 .L0 
     /tmp/ccBUxOaQ.s:725    .text:00000000000002fc .L0 
     /tmp/ccBUxOaQ.s:729    .text:0000000000000300 .L0 
     /tmp/ccBUxOaQ.s:733    .text:000000000000030c .L0 
     /tmp/ccBUxOaQ.s:734    .text:000000000000030c .L0 
     /tmp/ccBUxOaQ.s:739    .text:0000000000000318 .L0 
     /tmp/ccBUxOaQ.s:741    .text:000000000000031c .L0 
     /tmp/ccBUxOaQ.s:742    .text:000000000000031c .L0 
     /tmp/ccBUxOaQ.s:747    .text:0000000000000320 .L0 
     /tmp/ccBUxOaQ.s:748    .text:0000000000000324 .L0 
     /tmp/ccBUxOaQ.s:750    .text:0000000000000328 .L0 
     /tmp/ccBUxOaQ.s:751    .text:0000000000000328 .L0 
     /tmp/ccBUxOaQ.s:753    .text:000000000000032c .L0 
     /tmp/ccBUxOaQ.s:756    .text:0000000000000330 .L0 
     /tmp/ccBUxOaQ.s:758    .text:0000000000000334 .L0 
     /tmp/ccBUxOaQ.s:711    .text:00000000000002e8 _ZN9SemaphoreC1Ej
     /tmp/ccBUxOaQ.s:766    .text:0000000000000334 _ZN9Semaphore6signalEv
     /tmp/ccBUxOaQ.s:769    .text:0000000000000334 .L0 
     /tmp/ccBUxOaQ.s:771    .text:0000000000000334 .L0 
     /tmp/ccBUxOaQ.s:772    .text:0000000000000334 .L0 
     /tmp/ccBUxOaQ.s:773    .text:0000000000000334 .L0 
     /tmp/ccBUxOaQ.s:776    .text:0000000000000338 .L0 
     /tmp/ccBUxOaQ.s:778    .text:000000000000033c .L0 
     /tmp/ccBUxOaQ.s:779    .text:0000000000000340 .L0 
     /tmp/ccBUxOaQ.s:782    .text:0000000000000348 .L0 
     /tmp/ccBUxOaQ.s:783    .text:0000000000000348 .L0 
     /tmp/ccBUxOaQ.s:785    .text:000000000000034c .L0 
     /tmp/ccBUxOaQ.s:787    .text:000000000000034c .L0 
     /tmp/ccBUxOaQ.s:788    .text:000000000000034c .L0 
     /tmp/ccBUxOaQ.s:791    .text:0000000000000354 .L0 
     /tmp/ccBUxOaQ.s:792    .text:0000000000000358 .L0 
     /tmp/ccBUxOaQ.s:794    .text:000000000000035c .L0 
     /tmp/ccBUxOaQ.s:795    .text:000000000000035c .L0 
     /tmp/ccBUxOaQ.s:797    .text:0000000000000360 .L0 
     /tmp/ccBUxOaQ.s:801    .text:0000000000000364 .L0 
     /tmp/ccBUxOaQ.s:803    .text:0000000000000368 .L0 
     /tmp/ccBUxOaQ.s:804    .text:000000000000036c .L0 
     /tmp/ccBUxOaQ.s:810    .text:000000000000036c _ZN7Console4getcEv
     /tmp/ccBUxOaQ.s:813    .text:000000000000036c .L0 
     /tmp/ccBUxOaQ.s:814    .text:000000000000036c .L0 
     /tmp/ccBUxOaQ.s:815    .text:0000000000000370 .L0 
GAS LISTING /tmp/ccBUxOaQ.s 			page 29


     /tmp/ccBUxOaQ.s:817    .text:0000000000000374 .L0 
     /tmp/ccBUxOaQ.s:819    .text:0000000000000378 .L0 
     /tmp/ccBUxOaQ.s:821    .text:0000000000000378 .L0 
     /tmp/ccBUxOaQ.s:822    .text:0000000000000378 .L0 
     /tmp/ccBUxOaQ.s:824    .text:0000000000000380 .L0 
     /tmp/ccBUxOaQ.s:825    .text:0000000000000380 .L0 
     /tmp/ccBUxOaQ.s:827    .text:0000000000000384 .L0 
     /tmp/ccBUxOaQ.s:829    .text:0000000000000388 .L0 
     /tmp/ccBUxOaQ.s:835    .text:0000000000000388 _ZN7Console4putcEc
     /tmp/ccBUxOaQ.s:838    .text:0000000000000388 .L0 
     /tmp/ccBUxOaQ.s:839    .text:0000000000000388 .L0 
     /tmp/ccBUxOaQ.s:840    .text:000000000000038c .L0 
     /tmp/ccBUxOaQ.s:842    .text:0000000000000390 .L0 
     /tmp/ccBUxOaQ.s:844    .text:0000000000000394 .L0 
     /tmp/ccBUxOaQ.s:846    .text:0000000000000394 .L0 
     /tmp/ccBUxOaQ.s:847    .text:0000000000000398 .L0 
     /tmp/ccBUxOaQ.s:848    .text:0000000000000398 .L0 
     /tmp/ccBUxOaQ.s:850    .text:000000000000039c .L0 
     /tmp/ccBUxOaQ.s:852    .text:00000000000003a0 .L0 
     /tmp/ccBUxOaQ.s:858    .text:00000000000003a0 _ZN14PeriodicThreadC2Em
     /tmp/ccBUxOaQ.s:861    .text:00000000000003a0 .L0 
     /tmp/ccBUxOaQ.s:863    .text:00000000000003a0 .L0 
     /tmp/ccBUxOaQ.s:864    .text:00000000000003a4 .L0 
     /tmp/ccBUxOaQ.s:869    .text:00000000000003b4 .L0 
     /tmp/ccBUxOaQ.s:870    .text:00000000000003b4 .L0 
     /tmp/ccBUxOaQ.s:871    .text:00000000000003b4 .L0 
     /tmp/ccBUxOaQ.s:872    .text:00000000000003b4 .L0 
     /tmp/ccBUxOaQ.s:874    .text:00000000000003b8 .L0 
     /tmp/ccBUxOaQ.s:879    .text:00000000000003c0 .L0 
     /tmp/ccBUxOaQ.s:888    .text:00000000000003d0 .L0 
     /tmp/ccBUxOaQ.s:894    .text:00000000000003d8 .L0 
     /tmp/ccBUxOaQ.s:902    .text:00000000000003f8 .L0 
     /tmp/ccBUxOaQ.s:903    .text:00000000000003fc .L0 
     /tmp/ccBUxOaQ.s:905    .text:0000000000000400 .L0 
     /tmp/ccBUxOaQ.s:906    .text:0000000000000400 .L0 
     /tmp/ccBUxOaQ.s:908    .text:0000000000000404 .L0 
     /tmp/ccBUxOaQ.s:911    .text:0000000000000408 .L0 
     /tmp/ccBUxOaQ.s:914    .text:000000000000040c .L0 
     /tmp/ccBUxOaQ.s:916    .text:0000000000000410 .L0 
     /tmp/ccBUxOaQ.s:858    .text:00000000000003a0 _ZN14PeriodicThreadC1Em
     /tmp/ccBUxOaQ.s:32     .text._ZN6Thread3runEv:0000000000000018 .L0 
     /tmp/ccBUxOaQ.s:57     .text._ZN14PeriodicThread18periodicActivationEv:0000000000000018 .L0 
     /tmp/ccBUxOaQ.s:958    .text:0000000000000410 .L0 
     /tmp/ccBUxOaQ.s:184    .text._ZN14PeriodicThreadD2Ev:0000000000000034 .L0 
     /tmp/ccBUxOaQ.s:424    .text._ZN14PeriodicThreadD0Ev:000000000000004c .L0 
     /tmp/ccBUxOaQ.s:116    .text:000000000000003c .L0 
     /tmp/ccBUxOaQ.s:205    .text:0000000000000074 .L0 
     /tmp/ccBUxOaQ.s:598    .text:0000000000000244 .L0 
     /tmp/ccBUxOaQ.s:639    .text:000000000000027c .L0 
     /tmp/ccBUxOaQ.s:644    .text:000000000000028c .L0 
     /tmp/ccBUxOaQ.s:729    .text:0000000000000300 .L0 
     /tmp/ccBUxOaQ.s:894    .text:00000000000003d8 .L0 
     /tmp/ccBUxOaQ.s:898    .text:00000000000003ec .L0 
     /tmp/ccBUxOaQ.s:461    .text:000000000000019c .L25
     /tmp/ccBUxOaQ.s:560    .text:0000000000000214 .L35
     /tmp/ccBUxOaQ.s:700    .text:00000000000002e0 .L43
     /tmp/ccBUxOaQ.s:743    .text:0000000000000320 .L48
GAS LISTING /tmp/ccBUxOaQ.s 			page 30


     /tmp/ccBUxOaQ.s:799    .text:0000000000000364 .L53
     /tmp/ccBUxOaQ.s:166    .text._ZN14PeriodicThreadD2Ev:0000000000000010 .L0 
     /tmp/ccBUxOaQ.s:401    .text._ZN14PeriodicThreadD0Ev:0000000000000018 .L0 
     /tmp/ccBUxOaQ.s:2373   .debug_abbrev:0000000000000000 .Ldebug_abbrev0
     /tmp/ccBUxOaQ.s:3986   .debug_str:00000000000000b0 .LASF87
     /tmp/ccBUxOaQ.s:4056   .debug_str:0000000000000350 .LASF88
     /tmp/ccBUxOaQ.s:4142   .debug_str:00000000000005a1 .LASF89
     /tmp/ccBUxOaQ.s:3948   .debug_ranges:0000000000000000 .Ldebug_ranges0
     /tmp/ccBUxOaQ.s:3962   .debug_line:0000000000000000 .Ldebug_line0
     /tmp/ccBUxOaQ.s:4044   .debug_str:00000000000002f0 .LASF0
     /tmp/ccBUxOaQ.s:4068   .debug_str:00000000000003b3 .LASF1
     /tmp/ccBUxOaQ.s:4110   .debug_str:00000000000004ba .LASF2
     /tmp/ccBUxOaQ.s:4114   .debug_str:00000000000004d7 .LASF4
     /tmp/ccBUxOaQ.s:4058   .debug_str:0000000000000364 .LASF3
     /tmp/ccBUxOaQ.s:3974   .debug_str:000000000000005c .LASF5
     /tmp/ccBUxOaQ.s:4096   .debug_str:000000000000045b .LASF6
     /tmp/ccBUxOaQ.s:4090   .debug_str:0000000000000436 .LASF7
     /tmp/ccBUxOaQ.s:4064   .debug_str:000000000000039b .LASF8
     /tmp/ccBUxOaQ.s:4030   .debug_str:0000000000000285 .LASF9
     /tmp/ccBUxOaQ.s:4036   .debug_str:00000000000002c0 .LASF10
     /tmp/ccBUxOaQ.s:3990   .debug_str:000000000000016c .LASF11
     /tmp/ccBUxOaQ.s:4026   .debug_str:0000000000000271 .LASF12
     /tmp/ccBUxOaQ.s:4000   .debug_str:00000000000001c3 .LASF13
     /tmp/ccBUxOaQ.s:3988   .debug_str:000000000000015c .LASF14
     /tmp/ccBUxOaQ.s:4124   .debug_str:0000000000000526 .LASF15
     /tmp/ccBUxOaQ.s:4014   .debug_str:000000000000021a .LASF16
     /tmp/ccBUxOaQ.s:4120   .debug_str:00000000000004f8 .LASF17
     /tmp/ccBUxOaQ.s:4136   .debug_str:000000000000056e .LASF18
     /tmp/ccBUxOaQ.s:4154   .debug_str:000000000000061b .LASF19
     /tmp/ccBUxOaQ.s:4076   .debug_str:00000000000003ed .LASF20
     /tmp/ccBUxOaQ.s:4078   .debug_str:00000000000003f2 .LASF90
     /tmp/ccBUxOaQ.s:4046   .debug_str:00000000000002fd .LASF91
     /tmp/ccBUxOaQ.s:4004   .debug_str:00000000000001de .LASF92
     /tmp/ccBUxOaQ.s:4080   .debug_str:00000000000003fa .LASF23
     /tmp/ccBUxOaQ.s:4010   .debug_str:00000000000001ff .LASF25
     /tmp/ccBUxOaQ.s:4130   .debug_str:0000000000000542 .LASF21
     /tmp/ccBUxOaQ.s:4062   .debug_str:000000000000038e .LASF24
     /tmp/ccBUxOaQ.s:4094   .debug_str:0000000000000456 .LASF22
     /tmp/ccBUxOaQ.s:4050   .debug_str:000000000000030b .LASF26
     /tmp/ccBUxOaQ.s:4148   .debug_str:00000000000005f9 .LASF27
     /tmp/ccBUxOaQ.s:4134   .debug_str:0000000000000559 .LASF34
     /tmp/ccBUxOaQ.s:4160   .debug_str:000000000000062c .LASF36
     /tmp/ccBUxOaQ.s:4132   .debug_str:0000000000000547 .LASF38
     /tmp/ccBUxOaQ.s:4100   .debug_str:0000000000000471 .LASF40
     /tmp/ccBUxOaQ.s:4116   .debug_str:00000000000004de .LASF42
     /tmp/ccBUxOaQ.s:4008   .debug_str:00000000000001fa .LASF28
     /tmp/ccBUxOaQ.s:3994   .debug_str:000000000000018d .LASF30
     /tmp/ccBUxOaQ.s:4126   .debug_str:0000000000000532 .LASF29
     /tmp/ccBUxOaQ.s:3976   .debug_str:0000000000000063 .LASF31
     /tmp/ccBUxOaQ.s:4048   .debug_str:0000000000000302 .LASF32
     /tmp/ccBUxOaQ.s:4042   .debug_str:00000000000002e0 .LASF93
     /tmp/ccBUxOaQ.s:4040   .debug_str:00000000000002d9 .LASF33
     /tmp/ccBUxOaQ.s:3998   .debug_str:00000000000001b1 .LASF35
     /tmp/ccBUxOaQ.s:4106   .debug_str:0000000000000495 .LASF37
     /tmp/ccBUxOaQ.s:4166   .debug_str:0000000000000652 .LASF39
     /tmp/ccBUxOaQ.s:4118   .debug_str:00000000000004f0 .LASF41
     /tmp/ccBUxOaQ.s:4022   .debug_str:000000000000025c .LASF43
GAS LISTING /tmp/ccBUxOaQ.s 			page 31


     /tmp/ccBUxOaQ.s:4156   .debug_str:0000000000000621 .LASF44
     /tmp/ccBUxOaQ.s:3970   .debug_str:000000000000003f .LASF45
     /tmp/ccBUxOaQ.s:4006   .debug_str:00000000000001f1 .LASF94
     /tmp/ccBUxOaQ.s:4088   .debug_str:0000000000000420 .LASF95
     /tmp/ccBUxOaQ.s:4070   .debug_str:00000000000003c6 .LASF54
     /tmp/ccBUxOaQ.s:4138   .debug_str:0000000000000577 .LASF96
     /tmp/ccBUxOaQ.s:4052   .debug_str:0000000000000323 .LASF46
     /tmp/ccBUxOaQ.s:4150   .debug_str:0000000000000603 .LASF97
     /tmp/ccBUxOaQ.s:4152   .debug_str:0000000000000614 .LASF52
     /tmp/ccBUxOaQ.s:4018   .debug_str:0000000000000240 .LASF98
     /tmp/ccBUxOaQ.s:3996   .debug_str:00000000000001a2 .LASF47
     /tmp/ccBUxOaQ.s:4144   .debug_str:00000000000005c4 .LASF48
     /tmp/ccBUxOaQ.s:4146   .debug_str:00000000000005de .LASF49
     /tmp/ccBUxOaQ.s:4060   .debug_str:0000000000000376 .LASF50
     /tmp/ccBUxOaQ.s:4034   .debug_str:00000000000002ad .LASF51
     /tmp/ccBUxOaQ.s:3964   .debug_str:0000000000000000 .LASF99
     /tmp/ccBUxOaQ.s:4054   .debug_str:0000000000000332 .LASF53
     /tmp/ccBUxOaQ.s:4084   .debug_str:0000000000000409 .LASF55
     /tmp/ccBUxOaQ.s:4032   .debug_str:0000000000000295 .LASF100
     /tmp/ccBUxOaQ.s:4028   .debug_str:0000000000000280 .LASF56
     /tmp/ccBUxOaQ.s:3972   .debug_str:0000000000000052 .LASF57
     /tmp/ccBUxOaQ.s:4168   .debug_str:0000000000000669 .LASF58
     /tmp/ccBUxOaQ.s:382    .text._ZN14PeriodicThreadD0Ev:0000000000000000 .LFB64
     /tmp/ccBUxOaQ.s:422    .text._ZN14PeriodicThreadD0Ev:000000000000004c .LFE64
     /tmp/ccBUxOaQ.s:3539   .debug_loc:0000000000000000 .LLST9
     /tmp/ccBUxOaQ.s:398    .text._ZN14PeriodicThreadD0Ev:0000000000000018 .LBB12
     /tmp/ccBUxOaQ.s:406    .text._ZN14PeriodicThreadD0Ev:000000000000002c .LBE12
     /tmp/ccBUxOaQ.s:3557   .debug_loc:000000000000004c .LLST10
     /tmp/ccBUxOaQ.s:404    .text._ZN14PeriodicThreadD0Ev:000000000000002c .LVL27
     /tmp/ccBUxOaQ.s:409    .text._ZN14PeriodicThreadD0Ev:0000000000000038 .LVL28
     /tmp/ccBUxOaQ.s:4108   .debug_str:00000000000004a2 .LASF59
     /tmp/ccBUxOaQ.s:152    .text._ZN14PeriodicThreadD2Ev:0000000000000000 .LFB62
     /tmp/ccBUxOaQ.s:180    .text._ZN14PeriodicThreadD2Ev:0000000000000034 .LFE62
     /tmp/ccBUxOaQ.s:3568   .debug_loc:0000000000000082 .LLST3
     /tmp/ccBUxOaQ.s:169    .text._ZN14PeriodicThreadD2Ev:0000000000000024 .LVL9
     /tmp/ccBUxOaQ.s:536    .text:00000000000001f4 .LFB60
     /tmp/ccBUxOaQ.s:578    .text:0000000000000234 .LFE60
     /tmp/ccBUxOaQ.s:3582   .debug_loc:00000000000000bb .LLST13
     /tmp/ccBUxOaQ.s:4012   .debug_str:0000000000000212 .LASF60
     /tmp/ccBUxOaQ.s:569    .text:0000000000000224 .LVL39
     /tmp/ccBUxOaQ.s:574    .text:0000000000000230 .LVL40
     /tmp/ccBUxOaQ.s:3982   .debug_str:0000000000000091 .LASF64
     /tmp/ccBUxOaQ.s:4122   .debug_str:000000000000050e .LASF61
     /tmp/ccBUxOaQ.s:859    .text:00000000000003a0 .LFB58
     /tmp/ccBUxOaQ.s:917    .text:0000000000000410 .LFE58
     /tmp/ccBUxOaQ.s:3596   .debug_loc:00000000000000f4 .LLST22
     /tmp/ccBUxOaQ.s:3614   .debug_loc:0000000000000140 .LLST23
     /tmp/ccBUxOaQ.s:885    .text:00000000000003d0 .LBB19
     /tmp/ccBUxOaQ.s:892    .text:00000000000003d8 .LBE19
     /tmp/ccBUxOaQ.s:3632   .debug_loc:000000000000018c .LLST24
     /tmp/ccBUxOaQ.s:3639   .debug_loc:00000000000001af .LLST25
     /tmp/ccBUxOaQ.s:3646   .debug_loc:00000000000001d2 .LLST26
     /tmp/ccBUxOaQ.s:882    .text:00000000000003cc .LVL59
     /tmp/ccBUxOaQ.s:897    .text:00000000000003ec .LVL62
     /tmp/ccBUxOaQ.s:836    .text:0000000000000388 .LFB56
     /tmp/ccBUxOaQ.s:853    .text:00000000000003a0 .LFE56
     /tmp/ccBUxOaQ.s:811    .text:000000000000036c .LFB55
GAS LISTING /tmp/ccBUxOaQ.s 			page 32


     /tmp/ccBUxOaQ.s:830    .text:0000000000000388 .LFE55
     /tmp/ccBUxOaQ.s:4072   .debug_str:00000000000003cc .LASF62
     /tmp/ccBUxOaQ.s:342    .text:000000000000012c .LFB54
     /tmp/ccBUxOaQ.s:375    .text:000000000000016c .LFE54
     /tmp/ccBUxOaQ.s:3653   .debug_loc:00000000000001f5 .LLST8
     /tmp/ccBUxOaQ.s:359    .text:000000000000014c .LVL22
     /tmp/ccBUxOaQ.s:362    .text:0000000000000158 .LVL23
     /tmp/ccBUxOaQ.s:3978   .debug_str:000000000000007a .LASF63
     /tmp/ccBUxOaQ.s:189    .text:0000000000000064 .LFB52
     /tmp/ccBUxOaQ.s:224    .text:000000000000009c .LFE52
     /tmp/ccBUxOaQ.s:3671   .debug_loc:0000000000000241 .LLST4
     /tmp/ccBUxOaQ.s:212    .text:000000000000008c .LVL12
     /tmp/ccBUxOaQ.s:767    .text:0000000000000334 .LFB50
     /tmp/ccBUxOaQ.s:805    .text:000000000000036c .LFE50
     /tmp/ccBUxOaQ.s:3685   .debug_loc:000000000000027a .LLST21
     /tmp/ccBUxOaQ.s:789    .text:0000000000000354 .LVL56
     /tmp/ccBUxOaQ.s:3980   .debug_str:000000000000008c .LASF65
     /tmp/ccBUxOaQ.s:4020   .debug_str:0000000000000255 .LASF101
     /tmp/ccBUxOaQ.s:3992   .debug_str:000000000000017b .LASF66
     /tmp/ccBUxOaQ.s:712    .text:00000000000002e8 .LFB48
     /tmp/ccBUxOaQ.s:759    .text:0000000000000334 .LFE48
     /tmp/ccBUxOaQ.s:3699   .debug_loc:00000000000002b3 .LLST19
     /tmp/ccBUxOaQ.s:3717   .debug_loc:00000000000002ff .LLST20
     /tmp/ccBUxOaQ.s:737    .text:0000000000000318 .LVL52
     /tmp/ccBUxOaQ.s:731    .text:000000000000030c .LBB17
     /tmp/ccBUxOaQ.s:744    .text:0000000000000320 .LBE17
     /tmp/ccBUxOaQ.s:668    .text:00000000000002b0 .LFB46
     /tmp/ccBUxOaQ.s:706    .text:00000000000002e8 .LFE46
     /tmp/ccBUxOaQ.s:3731   .debug_loc:0000000000000338 .LLST18
     /tmp/ccBUxOaQ.s:690    .text:00000000000002d0 .LVL49
     /tmp/ccBUxOaQ.s:4074   .debug_str:00000000000003de .LASF67
     /tmp/ccBUxOaQ.s:303    .text:00000000000000ec .LFB45
     /tmp/ccBUxOaQ.s:336    .text:000000000000012c .LFE45
     /tmp/ccBUxOaQ.s:3745   .debug_loc:0000000000000371 .LLST7
     /tmp/ccBUxOaQ.s:320    .text:000000000000010c .LVL18
     /tmp/ccBUxOaQ.s:323    .text:0000000000000118 .LVL19
     /tmp/ccBUxOaQ.s:4098   .debug_str:0000000000000462 .LASF68
     /tmp/ccBUxOaQ.s:100    .text:000000000000002c .LFB43
     /tmp/ccBUxOaQ.s:135    .text:0000000000000064 .LFE43
     /tmp/ccBUxOaQ.s:3763   .debug_loc:00000000000003bd .LLST2
     /tmp/ccBUxOaQ.s:123    .text:0000000000000054 .LVL7
     /tmp/ccBUxOaQ.s:62     .text:0000000000000000 .LFB41
     /tmp/ccBUxOaQ.s:94     .text:000000000000002c .LFE41
     /tmp/ccBUxOaQ.s:3777   .debug_loc:00000000000003f6 .LLST0
     /tmp/ccBUxOaQ.s:3791   .debug_loc:000000000000042f .LLST1
     /tmp/ccBUxOaQ.s:83     .text:000000000000001c .LVL4
     /tmp/ccBUxOaQ.s:4112   .debug_str:00000000000004c8 .LASF69
     /tmp/ccBUxOaQ.s:625    .text:000000000000026c .LFB39
     /tmp/ccBUxOaQ.s:660    .text:00000000000002b0 .LFE39
     /tmp/ccBUxOaQ.s:3805   .debug_loc:0000000000000468 .LLST17
     /tmp/ccBUxOaQ.s:648    .text:00000000000002a0 .LVL46
     /tmp/ccBUxOaQ.s:3966   .debug_str:000000000000002a .LASF70
     /tmp/ccBUxOaQ.s:4158   .debug_str:0000000000000627 .LASF71
     /tmp/ccBUxOaQ.s:4140   .debug_str:000000000000058a .LASF72
     /tmp/ccBUxOaQ.s:584    .text:0000000000000234 .LFB36
     /tmp/ccBUxOaQ.s:617    .text:000000000000026c .LFE36
     /tmp/ccBUxOaQ.s:3823   .debug_loc:00000000000004b4 .LLST14
GAS LISTING /tmp/ccBUxOaQ.s 			page 33


     /tmp/ccBUxOaQ.s:3843   .debug_loc:0000000000000502 .LLST15
     /tmp/ccBUxOaQ.s:3857   .debug_loc:000000000000053b .LLST16
     /tmp/ccBUxOaQ.s:605    .text:000000000000025c .LVL43
     /tmp/ccBUxOaQ.s:504    .text:00000000000001cc .LFB34
     /tmp/ccBUxOaQ.s:530    .text:00000000000001f4 .LFE34
     /tmp/ccBUxOaQ.s:3871   .debug_loc:0000000000000574 .LLST12
     /tmp/ccBUxOaQ.s:519    .text:00000000000001e4 .LVL35
     /tmp/ccBUxOaQ.s:473    .text:00000000000001a4 .LFB33
     /tmp/ccBUxOaQ.s:498    .text:00000000000001cc .LFE33
     /tmp/ccBUxOaQ.s:487    .text:00000000000001bc .LVL33
     /tmp/ccBUxOaQ.s:429    .text:000000000000016c .LFB32
     /tmp/ccBUxOaQ.s:467    .text:00000000000001a4 .LFE32
     /tmp/ccBUxOaQ.s:3885   .debug_loc:00000000000005ad .LLST11
     /tmp/ccBUxOaQ.s:451    .text:000000000000018c .LVL32
     /tmp/ccBUxOaQ.s:3968   .debug_str:000000000000002f .LASF73
     /tmp/ccBUxOaQ.s:4086   .debug_str:0000000000000419 .LASF74
     /tmp/ccBUxOaQ.s:271    .text:00000000000000c4 .LFB31
     /tmp/ccBUxOaQ.s:297    .text:00000000000000ec .LFE31
     /tmp/ccBUxOaQ.s:3899   .debug_loc:00000000000005e6 .LLST6
     /tmp/ccBUxOaQ.s:286    .text:00000000000000dc .LVL16
     /tmp/ccBUxOaQ.s:4162   .debug_str:000000000000063c .LASF75
     /tmp/ccBUxOaQ.s:4024   .debug_str:000000000000026b .LASF76
     /tmp/ccBUxOaQ.s:239    .text:000000000000009c .LFB30
     /tmp/ccBUxOaQ.s:265    .text:00000000000000c4 .LFE30
     /tmp/ccBUxOaQ.s:4066   .debug_str:00000000000003ae .LASF77
     /tmp/ccBUxOaQ.s:3913   .debug_loc:000000000000061f .LLST5
     /tmp/ccBUxOaQ.s:254    .text:00000000000000b4 .LVL14
     /tmp/ccBUxOaQ.s:3984   .debug_str:0000000000000098 .LASF102
     /tmp/ccBUxOaQ.s:37     .text._ZN14PeriodicThread18periodicActivationEv:0000000000000000 .LFB26
     /tmp/ccBUxOaQ.s:55     .text._ZN14PeriodicThread18periodicActivationEv:0000000000000018 .LFE26
     /tmp/ccBUxOaQ.s:11     .text._ZN6Thread3runEv:0000000000000000 .LFB25
     /tmp/ccBUxOaQ.s:30     .text._ZN6Thread3runEv:0000000000000018 .LFE25
     /tmp/ccBUxOaQ.s:4128   .debug_str:0000000000000539 .LASF78
     /tmp/ccBUxOaQ.s:4038   .debug_str:00000000000002ce .LASF79
     /tmp/ccBUxOaQ.s:4104   .debug_str:000000000000048c .LASF80
     /tmp/ccBUxOaQ.s:4164   .debug_str:0000000000000649 .LASF81
     /tmp/ccBUxOaQ.s:4016   .debug_str:0000000000000230 .LASF82
     /tmp/ccBUxOaQ.s:4002   .debug_str:00000000000001d3 .LASF83
     /tmp/ccBUxOaQ.s:4102   .debug_str:000000000000047c .LASF84
     /tmp/ccBUxOaQ.s:4092   .debug_str:0000000000000449 .LASF85
     /tmp/ccBUxOaQ.s:4082   .debug_str:00000000000003ff .LASF86
     /tmp/ccBUxOaQ.s:385    .text._ZN14PeriodicThreadD0Ev:0000000000000000 .LVL25
     /tmp/ccBUxOaQ.s:417    .text._ZN14PeriodicThreadD0Ev:0000000000000044 .LVL29
     /tmp/ccBUxOaQ.s:397    .text._ZN14PeriodicThreadD0Ev:0000000000000018 .LVL26
     /tmp/ccBUxOaQ.s:155    .text._ZN14PeriodicThreadD2Ev:0000000000000000 .LVL8
     /tmp/ccBUxOaQ.s:539    .text:00000000000001f4 .LVL36
     /tmp/ccBUxOaQ.s:559    .text:0000000000000214 .LVL38
     /tmp/ccBUxOaQ.s:862    .text:00000000000003a0 .LVL57
     /tmp/ccBUxOaQ.s:880    .text:00000000000003c4 .LVL58
     /tmp/ccBUxOaQ.s:909    .text:0000000000000404 .LVL63
     /tmp/ccBUxOaQ.s:912    .text:0000000000000408 .LVL64
     /tmp/ccBUxOaQ.s:884    .text:00000000000003d0 .LVL60
     /tmp/ccBUxOaQ.s:890    .text:00000000000003d8 .LVL61
     /tmp/ccBUxOaQ.s:345    .text:000000000000012c .LVL21
     /tmp/ccBUxOaQ.s:370    .text:0000000000000164 .LVL24
     /tmp/ccBUxOaQ.s:194    .text:0000000000000064 .LVL10
     /tmp/ccBUxOaQ.s:210    .text:0000000000000084 .LVL11
GAS LISTING /tmp/ccBUxOaQ.s 			page 34


     /tmp/ccBUxOaQ.s:770    .text:0000000000000334 .LVL54
     /tmp/ccBUxOaQ.s:774    .text:0000000000000338 .LVL55
     /tmp/ccBUxOaQ.s:715    .text:00000000000002e8 .LVL50
     /tmp/ccBUxOaQ.s:735    .text:0000000000000310 .LVL51
     /tmp/ccBUxOaQ.s:754    .text:000000000000032c .LVL53
     /tmp/ccBUxOaQ.s:671    .text:00000000000002b0 .LVL47
     /tmp/ccBUxOaQ.s:675    .text:00000000000002b4 .LVL48
     /tmp/ccBUxOaQ.s:306    .text:00000000000000ec .LVL17
     /tmp/ccBUxOaQ.s:331    .text:0000000000000124 .LVL20
     /tmp/ccBUxOaQ.s:105    .text:000000000000002c .LVL5
     /tmp/ccBUxOaQ.s:121    .text:000000000000004c .LVL6
     /tmp/ccBUxOaQ.s:66     .text:0000000000000000 .LVL2
     /tmp/ccBUxOaQ.s:76     .text:0000000000000010 .LVL3
     /tmp/ccBUxOaQ.s:628    .text:000000000000026c .LVL44
     /tmp/ccBUxOaQ.s:646    .text:0000000000000298 .LVL45
     /tmp/ccBUxOaQ.s:587    .text:0000000000000234 .LVL41
     /tmp/ccBUxOaQ.s:603    .text:0000000000000254 .LVL42
     /tmp/ccBUxOaQ.s:507    .text:00000000000001cc .LVL34
     /tmp/ccBUxOaQ.s:432    .text:000000000000016c .LVL30
     /tmp/ccBUxOaQ.s:436    .text:0000000000000170 .LVL31
     /tmp/ccBUxOaQ.s:274    .text:00000000000000c4 .LVL15
     /tmp/ccBUxOaQ.s:242    .text:000000000000009c .LVL13
     /tmp/ccBUxOaQ.s:959    .debug_info:0000000000000000 .Ldebug_info0
     /tmp/ccBUxOaQ.s:5      .text:0000000000000000 .Ltext0
     /tmp/ccBUxOaQ.s:955    .text:0000000000000410 .Letext0
     /tmp/ccBUxOaQ.s:138    .gcc_except_table:0000000000000000 .LLSDA43
     /tmp/ccBUxOaQ.s:226    .gcc_except_table:0000000000000004 .LLSDA52
                           .group:0000000000000000 _ZN14PeriodicThreadD5Ev

UNDEFINED SYMBOLS
mem_free
__gxx_personality_v0
mem_alloc
thread_start
thread_dispatch
time_sleep
thread_make_pcb
sem_wait
sem_open
sem_signal
