GAS LISTING /tmp/ccO0h9FZ.s 			page 1


   1              		.file	"syscall_cpp.cpp"
   2              		.option pic
   3              		.option norelax
   4              		.text
   5              	.Ltext0:
   6              		.align	2
   7              		.globl	_Znwm
   9              	_Znwm:
  10              	.LFB21:
  11              		.file 1 "src/syscall_cpp.cpp"
   1:src/syscall_cpp.cpp **** //
   2:src/syscall_cpp.cpp **** // Created by os on 4/8/22.
   3:src/syscall_cpp.cpp **** //
   4:src/syscall_cpp.cpp **** 
   5:src/syscall_cpp.cpp **** #include "../h/syscall_cpp.hpp"
   6:src/syscall_cpp.cpp **** 
   7:src/syscall_cpp.cpp **** //general
   8:src/syscall_cpp.cpp **** void * operator new(size_t size)
   9:src/syscall_cpp.cpp **** {
  12              		.loc 1 9 1
  13              		.cfi_startproc
  14              	.LVL0:
  15 0000 130101FF 		addi	sp,sp,-16
  16              		.cfi_def_cfa_offset 16
  17 0004 23341100 		sd	ra,8(sp)
  18 0008 23308100 		sd	s0,0(sp)
  19              		.cfi_offset 1, -8
  20              		.cfi_offset 8, -16
  21 000c 13040101 		addi	s0,sp,16
  22              		.cfi_def_cfa 8, 0
  10:src/syscall_cpp.cpp ****     return mem_alloc(size);
  23              		.loc 1 10 5
  24              		.loc 1 10 21 is_stmt 0
  25 0010 97000000 		call	mem_alloc@plt
  25      E7800000 
  26              	.LVL1:
  11:src/syscall_cpp.cpp **** }
  27              		.loc 1 11 1
  28 0018 83308100 		ld	ra,8(sp)
  29              		.cfi_restore 1
  30 001c 03340100 		ld	s0,0(sp)
  31              		.cfi_restore 8
  32              		.cfi_def_cfa 2, 16
  33 0020 13010101 		addi	sp,sp,16
  34              		.cfi_def_cfa_offset 0
  35 0024 67800000 		jr	ra
  36              		.cfi_endproc
  37              	.LFE21:
  39              		.align	2
  40              		.globl	_ZdlPv
  42              	_ZdlPv:
  43              	.LFB22:
  12:src/syscall_cpp.cpp **** 
  13:src/syscall_cpp.cpp **** void operator delete(void * p)
  14:src/syscall_cpp.cpp **** {
  44              		.loc 1 14 1 is_stmt 1
  45              		.cfi_startproc
GAS LISTING /tmp/ccO0h9FZ.s 			page 2


  46              	.LVL2:
  47 0028 130101FF 		addi	sp,sp,-16
  48              		.cfi_def_cfa_offset 16
  49 002c 23341100 		sd	ra,8(sp)
  50 0030 23308100 		sd	s0,0(sp)
  51              		.cfi_offset 1, -8
  52              		.cfi_offset 8, -16
  53 0034 13040101 		addi	s0,sp,16
  54              		.cfi_def_cfa 8, 0
  15:src/syscall_cpp.cpp ****    mem_free(p);
  55              		.loc 1 15 4
  56              		.loc 1 15 12 is_stmt 0
  57 0038 97000000 		call	mem_free@plt
  57      E7800000 
  58              	.LVL3:
  16:src/syscall_cpp.cpp **** }
  59              		.loc 1 16 1
  60 0040 83308100 		ld	ra,8(sp)
  61              		.cfi_restore 1
  62 0044 03340100 		ld	s0,0(sp)
  63              		.cfi_restore 8
  64              		.cfi_def_cfa 2, 16
  65 0048 13010101 		addi	sp,sp,16
  66              		.cfi_def_cfa_offset 0
  67 004c 67800000 		jr	ra
  68              		.cfi_endproc
  69              	.LFE22:
  71              		.align	2
  72              		.globl	_ZN6Thread5startEv
  74              	_ZN6Thread5startEv:
  75              	.LFB23:
  17:src/syscall_cpp.cpp **** 
  18:src/syscall_cpp.cpp **** //Thread
  19:src/syscall_cpp.cpp **** 
  20:src/syscall_cpp.cpp **** //todo
  21:src/syscall_cpp.cpp **** //diskusija u os1 proj sheet-u
  22:src/syscall_cpp.cpp **** void Thread::start()
  23:src/syscall_cpp.cpp **** {
  76              		.loc 1 23 1 is_stmt 1
  77              		.cfi_startproc
  78              	.LVL4:
  24:src/syscall_cpp.cpp ****     if(myHandle == 0)
  79              		.loc 1 24 5
  80              	.LBB2:
  81              		.loc 1 24 8 is_stmt 0
  82 0050 83370500 		ld	a5,0(a0)
  83              		.loc 1 24 5
  84 0054 63840700 		beqz	a5,.L11
  85 0058 67800000 		ret
  86              	.L11:
  87              	.LBE2:
  23:src/syscall_cpp.cpp ****     if(myHandle == 0)
  88              		.loc 1 23 1
  89 005c 130101FF 		addi	sp,sp,-16
  90              		.cfi_def_cfa_offset 16
  91 0060 23341100 		sd	ra,8(sp)
  92 0064 23308100 		sd	s0,0(sp)
GAS LISTING /tmp/ccO0h9FZ.s 			page 3


  93              		.cfi_offset 1, -8
  94              		.cfi_offset 8, -16
  95 0068 13040101 		addi	s0,sp,16
  96              		.cfi_def_cfa 8, 0
  97              	.LBB4:
  98              	.LBB3:
  25:src/syscall_cpp.cpp ****     {
  26:src/syscall_cpp.cpp ****         int retval = thread_create((void**)&myHandle, f, args);
  99              		.loc 1 26 9 is_stmt 1
 100              		.loc 1 26 35 is_stmt 0
 101 006c 03360501 		ld	a2,16(a0)
 102 0070 83358500 		ld	a1,8(a0)
 103 0074 97000000 		call	thread_create@plt
 103      E7800000 
 104              	.LVL5:
  27:src/syscall_cpp.cpp ****         if(retval != 0)
 105              		.loc 1 27 9 is_stmt 1
 106              	.LBE3:
 107              	.LBE4:
  28:src/syscall_cpp.cpp ****         {
  29:src/syscall_cpp.cpp ****             //todo
  30:src/syscall_cpp.cpp ****             //what then
  31:src/syscall_cpp.cpp ****         }
  32:src/syscall_cpp.cpp ****     }
  33:src/syscall_cpp.cpp ****     else
  34:src/syscall_cpp.cpp ****     {
  35:src/syscall_cpp.cpp ****         //todo
  36:src/syscall_cpp.cpp ****         //what
  37:src/syscall_cpp.cpp ****     }
  38:src/syscall_cpp.cpp **** 
  39:src/syscall_cpp.cpp **** }
 108              		.loc 1 39 1 is_stmt 0
 109 007c 83308100 		ld	ra,8(sp)
 110              		.cfi_restore 1
 111 0080 03340100 		ld	s0,0(sp)
 112              		.cfi_restore 8
 113              		.cfi_def_cfa 2, 16
 114 0084 13010101 		addi	sp,sp,16
 115              		.cfi_def_cfa_offset 0
 116 0088 67800000 		jr	ra
 117              		.cfi_endproc
 118              	.LFE23:
 120              		.align	2
 121              		.globl	_ZN6Thread8dispatchEv
 123              	_ZN6Thread8dispatchEv:
 124              	.LFB24:
  40:src/syscall_cpp.cpp **** 
  41:src/syscall_cpp.cpp **** void Thread::dispatch() {
 125              		.loc 1 41 25 is_stmt 1
 126              		.cfi_startproc
 127 008c 130101FF 		addi	sp,sp,-16
 128              		.cfi_def_cfa_offset 16
 129 0090 23341100 		sd	ra,8(sp)
 130 0094 23308100 		sd	s0,0(sp)
 131              		.cfi_offset 1, -8
 132              		.cfi_offset 8, -16
 133 0098 13040101 		addi	s0,sp,16
GAS LISTING /tmp/ccO0h9FZ.s 			page 4


 134              		.cfi_def_cfa 8, 0
  42:src/syscall_cpp.cpp ****     thread_dispatch();
 135              		.loc 1 42 5
 136              		.loc 1 42 20 is_stmt 0
 137 009c 97000000 		call	thread_dispatch@plt
 137      E7800000 
 138              	.LVL6:
  43:src/syscall_cpp.cpp **** }
 139              		.loc 1 43 1
 140 00a4 83308100 		ld	ra,8(sp)
 141              		.cfi_restore 1
 142 00a8 03340100 		ld	s0,0(sp)
 143              		.cfi_restore 8
 144              		.cfi_def_cfa 2, 16
 145 00ac 13010101 		addi	sp,sp,16
 146              		.cfi_def_cfa_offset 0
 147 00b0 67800000 		jr	ra
 148              		.cfi_endproc
 149              	.LFE24:
 151              		.align	2
 152              		.globl	_ZN6Thread5sleepEm
 154              	_ZN6Thread5sleepEm:
 155              	.LFB25:
  44:src/syscall_cpp.cpp **** 
  45:src/syscall_cpp.cpp **** void Thread::sleep(time_t time) {
 156              		.loc 1 45 33 is_stmt 1
 157              		.cfi_startproc
 158              	.LVL7:
 159 00b4 130101FF 		addi	sp,sp,-16
 160              		.cfi_def_cfa_offset 16
 161 00b8 23341100 		sd	ra,8(sp)
 162 00bc 23308100 		sd	s0,0(sp)
 163              		.cfi_offset 1, -8
 164              		.cfi_offset 8, -16
 165 00c0 13040101 		addi	s0,sp,16
 166              		.cfi_def_cfa 8, 0
  46:src/syscall_cpp.cpp ****     time_sleep(time);
 167              		.loc 1 46 5
 168              		.loc 1 46 15 is_stmt 0
 169 00c4 97000000 		call	time_sleep@plt
 169      E7800000 
 170              	.LVL8:
  47:src/syscall_cpp.cpp **** }
 171              		.loc 1 47 1
 172 00cc 83308100 		ld	ra,8(sp)
 173              		.cfi_restore 1
 174 00d0 03340100 		ld	s0,0(sp)
 175              		.cfi_restore 8
 176              		.cfi_def_cfa 2, 16
 177 00d4 13010101 		addi	sp,sp,16
 178              		.cfi_def_cfa_offset 0
 179 00d8 67800000 		jr	ra
 180              		.cfi_endproc
 181              	.LFE25:
 183              		.align	2
 184              		.globl	_ZN6ThreadC2EPFvPvES0_
 186              	_ZN6ThreadC2EPFvPvES0_:
GAS LISTING /tmp/ccO0h9FZ.s 			page 5


 187              	.LFB27:
  48:src/syscall_cpp.cpp **** 
  49:src/syscall_cpp.cpp **** Thread::Thread(void (*body)(void *), void *args) {
 188              		.loc 1 49 1 is_stmt 1
 189              		.cfi_startproc
 190              	.LVL9:
 191 00dc 130101FF 		addi	sp,sp,-16
 192              		.cfi_def_cfa_offset 16
 193 00e0 23348100 		sd	s0,8(sp)
 194              		.cfi_offset 8, -8
 195 00e4 13040101 		addi	s0,sp,16
 196              		.cfi_def_cfa 8, 0
 197              	.LBB5:
  50:src/syscall_cpp.cpp ****     myHandle = 0;
 198              		.loc 1 50 5
 199              		.loc 1 50 14 is_stmt 0
 200 00e8 23300500 		sd	zero,0(a0)
  51:src/syscall_cpp.cpp ****     f = body;
 201              		.loc 1 51 5 is_stmt 1
 202              		.loc 1 51 7 is_stmt 0
 203 00ec 2334B500 		sd	a1,8(a0)
  52:src/syscall_cpp.cpp ****     this->args = args;
 204              		.loc 1 52 5 is_stmt 1
 205              		.loc 1 52 16 is_stmt 0
 206 00f0 2338C500 		sd	a2,16(a0)
 207              	.LBE5:
  53:src/syscall_cpp.cpp **** }
 208              		.loc 1 53 1
 209 00f4 03348100 		ld	s0,8(sp)
 210              		.cfi_restore 8
 211              		.cfi_def_cfa 2, 16
 212 00f8 13010101 		addi	sp,sp,16
 213              		.cfi_def_cfa_offset 0
 214 00fc 67800000 		jr	ra
 215              		.cfi_endproc
 216              	.LFE27:
 218              		.globl	_ZN6ThreadC1EPFvPvES0_
 219              		.set	_ZN6ThreadC1EPFvPvES0_,_ZN6ThreadC2EPFvPvES0_
 220              		.align	2
 221              		.globl	_ZN6ThreadC2Ev
 223              	_ZN6ThreadC2Ev:
 224              	.LFB30:
  54:src/syscall_cpp.cpp **** 
  55:src/syscall_cpp.cpp **** Thread::Thread()
 225              		.loc 1 55 1 is_stmt 1
 226              		.cfi_startproc
 227              	.LVL10:
 228 0100 130101FF 		addi	sp,sp,-16
 229              		.cfi_def_cfa_offset 16
 230 0104 23348100 		sd	s0,8(sp)
 231              		.cfi_offset 8, -8
 232 0108 13040101 		addi	s0,sp,16
 233              		.cfi_def_cfa 8, 0
 234              	.LBB6:
  56:src/syscall_cpp.cpp **** {
  57:src/syscall_cpp.cpp ****     myHandle = 0;
 235              		.loc 1 57 5
GAS LISTING /tmp/ccO0h9FZ.s 			page 6


 236              		.loc 1 57 14 is_stmt 0
 237 010c 23300500 		sd	zero,0(a0)
  58:src/syscall_cpp.cpp **** 
  59:src/syscall_cpp.cpp ****     args = (void*)this;
 238              		.loc 1 59 5 is_stmt 1
 239              		.loc 1 59 10 is_stmt 0
 240 0110 2338A500 		sd	a0,16(a0)
 241              	.LBE6:
  60:src/syscall_cpp.cpp **** }
 242              		.loc 1 60 1
 243 0114 03348100 		ld	s0,8(sp)
 244              		.cfi_restore 8
 245              		.cfi_def_cfa 2, 16
 246 0118 13010101 		addi	sp,sp,16
 247              		.cfi_def_cfa_offset 0
 248 011c 67800000 		jr	ra
 249              		.cfi_endproc
 250              	.LFE30:
 252              		.globl	_ZN6ThreadC1Ev
 253              		.set	_ZN6ThreadC1Ev,_ZN6ThreadC2Ev
 254              		.align	2
 255              		.globl	_ZN6Thread6runnerEPS_
 257              	_ZN6Thread6runnerEPS_:
 258              	.LFB32:
  61:src/syscall_cpp.cpp **** 
  62:src/syscall_cpp.cpp **** void Thread::runner(Thread *t) {
 259              		.loc 1 62 32 is_stmt 1
 260              		.cfi_startproc
 261              	.LVL11:
 262 0120 130101FF 		addi	sp,sp,-16
 263              		.cfi_def_cfa_offset 16
 264 0124 23341100 		sd	ra,8(sp)
 265 0128 23308100 		sd	s0,0(sp)
 266              		.cfi_offset 1, -8
 267              		.cfi_offset 8, -16
 268 012c 13040101 		addi	s0,sp,16
 269              		.cfi_def_cfa 8, 0
  63:src/syscall_cpp.cpp ****     Riscv::popSppSpie();
 270              		.loc 1 63 5
 271              		.loc 1 63 22 is_stmt 0
 272 0130 97000000 		call	_ZN5Riscv10popSppSpieEv@plt
 272      E7800000 
 273              	.LVL12:
  64:src/syscall_cpp.cpp ****     //t->run();
  65:src/syscall_cpp.cpp ****     //todo
  66:src/syscall_cpp.cpp ****     //sta ovde treba da se uradi, mozda thread_exit()
  67:src/syscall_cpp.cpp ****     thread_dispatch();
 274              		.loc 1 67 5 is_stmt 1
 275              		.loc 1 67 20 is_stmt 0
 276 0138 97000000 		call	thread_dispatch@plt
 276      E7800000 
 277              	.LVL13:
  68:src/syscall_cpp.cpp **** }
 278              		.loc 1 68 1
 279 0140 83308100 		ld	ra,8(sp)
 280              		.cfi_restore 1
 281 0144 03340100 		ld	s0,0(sp)
GAS LISTING /tmp/ccO0h9FZ.s 			page 7


 282              		.cfi_restore 8
 283              		.cfi_def_cfa 2, 16
 284 0148 13010101 		addi	sp,sp,16
 285              		.cfi_def_cfa_offset 0
 286 014c 67800000 		jr	ra
 287              		.cfi_endproc
 288              	.LFE32:
 290              		.align	2
 291              		.globl	_ZN9Semaphore4waitEv
 293              	_ZN9Semaphore4waitEv:
 294              	.LFB33:
  69:src/syscall_cpp.cpp **** 
  70:src/syscall_cpp.cpp **** //Semaphore
  71:src/syscall_cpp.cpp **** 
  72:src/syscall_cpp.cpp **** void Semaphore::wait() {
 295              		.loc 1 72 24 is_stmt 1
 296              		.cfi_startproc
 297              	.LVL14:
 298 0150 130101FF 		addi	sp,sp,-16
 299              		.cfi_def_cfa_offset 16
 300 0154 23341100 		sd	ra,8(sp)
 301 0158 23308100 		sd	s0,0(sp)
 302              		.cfi_offset 1, -8
 303              		.cfi_offset 8, -16
 304 015c 13040101 		addi	s0,sp,16
 305              		.cfi_def_cfa 8, 0
  73:src/syscall_cpp.cpp ****     int retval = sem_wait((void*)myHandle);
 306              		.loc 1 73 5
 307              		.loc 1 73 26 is_stmt 0
 308 0160 03350500 		ld	a0,0(a0)
 309              	.LVL15:
 310 0164 97000000 		call	sem_wait@plt
 310      E7800000 
 311              	.LVL16:
  74:src/syscall_cpp.cpp ****     if(retval != 0)
 312              		.loc 1 74 5 is_stmt 1
  75:src/syscall_cpp.cpp ****     {
  76:src/syscall_cpp.cpp ****         //todo
  77:src/syscall_cpp.cpp ****         //what then
  78:src/syscall_cpp.cpp ****     }
  79:src/syscall_cpp.cpp **** }
 313              		.loc 1 79 1 is_stmt 0
 314 016c 83308100 		ld	ra,8(sp)
 315              		.cfi_restore 1
 316 0170 03340100 		ld	s0,0(sp)
 317              		.cfi_restore 8
 318              		.cfi_def_cfa 2, 16
 319 0174 13010101 		addi	sp,sp,16
 320              		.cfi_def_cfa_offset 0
 321 0178 67800000 		jr	ra
 322              		.cfi_endproc
 323              	.LFE33:
 325              		.align	2
 326              		.globl	_ZN9SemaphoreC2Ej
 328              	_ZN9SemaphoreC2Ej:
 329              	.LFB35:
  80:src/syscall_cpp.cpp **** 
GAS LISTING /tmp/ccO0h9FZ.s 			page 8


  81:src/syscall_cpp.cpp **** Semaphore::Semaphore(unsigned int init) {
 330              		.loc 1 81 1 is_stmt 1
 331              		.cfi_startproc
 332              	.LVL17:
 333 017c 130101FF 		addi	sp,sp,-16
 334              		.cfi_def_cfa_offset 16
 335 0180 23341100 		sd	ra,8(sp)
 336 0184 23308100 		sd	s0,0(sp)
 337              		.cfi_offset 1, -8
 338              		.cfi_offset 8, -16
 339 0188 13040101 		addi	s0,sp,16
 340              		.cfi_def_cfa 8, 0
 341              	.LBB7:
  82:src/syscall_cpp.cpp ****     int retval = sem_open((void**)&myHandle, init);
 342              		.loc 1 82 5
 343              		.loc 1 82 26 is_stmt 0
 344 018c 97000000 		call	sem_open@plt
 344      E7800000 
 345              	.LVL18:
  83:src/syscall_cpp.cpp ****     if(retval != 0)
 346              		.loc 1 83 5 is_stmt 1
 347              	.LBE7:
  84:src/syscall_cpp.cpp ****     {
  85:src/syscall_cpp.cpp ****         //todo
  86:src/syscall_cpp.cpp ****         //what then
  87:src/syscall_cpp.cpp ****     }
  88:src/syscall_cpp.cpp **** }
 348              		.loc 1 88 1 is_stmt 0
 349 0194 83308100 		ld	ra,8(sp)
 350              		.cfi_restore 1
 351 0198 03340100 		ld	s0,0(sp)
 352              		.cfi_restore 8
 353              		.cfi_def_cfa 2, 16
 354 019c 13010101 		addi	sp,sp,16
 355              		.cfi_def_cfa_offset 0
 356 01a0 67800000 		jr	ra
 357              		.cfi_endproc
 358              	.LFE35:
 360              		.globl	_ZN9SemaphoreC1Ej
 361              		.set	_ZN9SemaphoreC1Ej,_ZN9SemaphoreC2Ej
 362              		.align	2
 363              		.globl	_ZN9Semaphore6signalEv
 365              	_ZN9Semaphore6signalEv:
 366              	.LFB37:
  89:src/syscall_cpp.cpp **** 
  90:src/syscall_cpp.cpp **** void Semaphore::signal() {
 367              		.loc 1 90 26 is_stmt 1
 368              		.cfi_startproc
 369              	.LVL19:
 370 01a4 130101FF 		addi	sp,sp,-16
 371              		.cfi_def_cfa_offset 16
 372 01a8 23341100 		sd	ra,8(sp)
 373 01ac 23308100 		sd	s0,0(sp)
 374              		.cfi_offset 1, -8
 375              		.cfi_offset 8, -16
 376 01b0 13040101 		addi	s0,sp,16
 377              		.cfi_def_cfa 8, 0
GAS LISTING /tmp/ccO0h9FZ.s 			page 9


  91:src/syscall_cpp.cpp ****     int retval = sem_signal((void*)myHandle);
 378              		.loc 1 91 5
 379              		.loc 1 91 28 is_stmt 0
 380 01b4 03350500 		ld	a0,0(a0)
 381              	.LVL20:
 382 01b8 97000000 		call	sem_signal@plt
 382      E7800000 
 383              	.LVL21:
  92:src/syscall_cpp.cpp ****     if(retval != 0)
 384              		.loc 1 92 5 is_stmt 1
  93:src/syscall_cpp.cpp ****     {
  94:src/syscall_cpp.cpp ****         //todo
  95:src/syscall_cpp.cpp ****         //what then
  96:src/syscall_cpp.cpp ****     }
  97:src/syscall_cpp.cpp **** 
  98:src/syscall_cpp.cpp **** }
 385              		.loc 1 98 1 is_stmt 0
 386 01c0 83308100 		ld	ra,8(sp)
 387              		.cfi_restore 1
 388 01c4 03340100 		ld	s0,0(sp)
 389              		.cfi_restore 8
 390              		.cfi_def_cfa 2, 16
 391 01c8 13010101 		addi	sp,sp,16
 392              		.cfi_def_cfa_offset 0
 393 01cc 67800000 		jr	ra
 394              		.cfi_endproc
 395              	.LFE37:
 397              	.Letext0:
 398              		.file 2 "src/../h/../lib/hw.h"
 399              		.file 3 "src/../h/PCB.hpp"
 400              		.file 4 "src/../h/Riscv.hpp"
 401              		.file 5 "src/../h/KSemaphore.hpp"
 402              		.file 6 "src/../h/syscall_cpp.hpp"
 403              		.file 7 "src/../h/syscall_c.h"
GAS LISTING /tmp/ccO0h9FZ.s 			page 10


DEFINED SYMBOLS
                            *ABS*:0000000000000000 syscall_cpp.cpp
     /tmp/ccO0h9FZ.s:9      .text:0000000000000000 _Znwm
     /tmp/ccO0h9FZ.s:13     .text:0000000000000000 .L0 
     /tmp/ccO0h9FZ.s:15     .text:0000000000000000 .L0 
     /tmp/ccO0h9FZ.s:16     .text:0000000000000004 .L0 
     /tmp/ccO0h9FZ.s:19     .text:000000000000000c .L0 
     /tmp/ccO0h9FZ.s:20     .text:000000000000000c .L0 
     /tmp/ccO0h9FZ.s:22     .text:0000000000000010 .L0 
     /tmp/ccO0h9FZ.s:24     .text:0000000000000010 .L0 
     /tmp/ccO0h9FZ.s:25     .text:0000000000000010 .L0 
     /tmp/ccO0h9FZ.s:28     .text:0000000000000018 .L0 
     /tmp/ccO0h9FZ.s:29     .text:000000000000001c .L0 
     /tmp/ccO0h9FZ.s:31     .text:0000000000000020 .L0 
     /tmp/ccO0h9FZ.s:32     .text:0000000000000020 .L0 
     /tmp/ccO0h9FZ.s:34     .text:0000000000000024 .L0 
     /tmp/ccO0h9FZ.s:36     .text:0000000000000028 .L0 
     /tmp/ccO0h9FZ.s:42     .text:0000000000000028 _ZdlPv
     /tmp/ccO0h9FZ.s:45     .text:0000000000000028 .L0 
     /tmp/ccO0h9FZ.s:47     .text:0000000000000028 .L0 
     /tmp/ccO0h9FZ.s:48     .text:000000000000002c .L0 
     /tmp/ccO0h9FZ.s:51     .text:0000000000000034 .L0 
     /tmp/ccO0h9FZ.s:52     .text:0000000000000034 .L0 
     /tmp/ccO0h9FZ.s:54     .text:0000000000000038 .L0 
     /tmp/ccO0h9FZ.s:56     .text:0000000000000038 .L0 
     /tmp/ccO0h9FZ.s:57     .text:0000000000000038 .L0 
     /tmp/ccO0h9FZ.s:60     .text:0000000000000040 .L0 
     /tmp/ccO0h9FZ.s:61     .text:0000000000000044 .L0 
     /tmp/ccO0h9FZ.s:63     .text:0000000000000048 .L0 
     /tmp/ccO0h9FZ.s:64     .text:0000000000000048 .L0 
     /tmp/ccO0h9FZ.s:66     .text:000000000000004c .L0 
     /tmp/ccO0h9FZ.s:68     .text:0000000000000050 .L0 
     /tmp/ccO0h9FZ.s:74     .text:0000000000000050 _ZN6Thread5startEv
     /tmp/ccO0h9FZ.s:77     .text:0000000000000050 .L0 
     /tmp/ccO0h9FZ.s:79     .text:0000000000000050 .L0 
     /tmp/ccO0h9FZ.s:81     .text:0000000000000050 .L0 
     /tmp/ccO0h9FZ.s:82     .text:0000000000000050 .L0 
     /tmp/ccO0h9FZ.s:84     .text:0000000000000054 .L0 
     /tmp/ccO0h9FZ.s:89     .text:000000000000005c .L0 
     /tmp/ccO0h9FZ.s:90     .text:0000000000000060 .L0 
     /tmp/ccO0h9FZ.s:93     .text:0000000000000068 .L0 
     /tmp/ccO0h9FZ.s:94     .text:0000000000000068 .L0 
     /tmp/ccO0h9FZ.s:96     .text:000000000000006c .L0 
     /tmp/ccO0h9FZ.s:100    .text:000000000000006c .L0 
     /tmp/ccO0h9FZ.s:101    .text:000000000000006c .L0 
     /tmp/ccO0h9FZ.s:108    .text:000000000000007c .L0 
     /tmp/ccO0h9FZ.s:109    .text:000000000000007c .L0 
     /tmp/ccO0h9FZ.s:110    .text:0000000000000080 .L0 
     /tmp/ccO0h9FZ.s:112    .text:0000000000000084 .L0 
     /tmp/ccO0h9FZ.s:113    .text:0000000000000084 .L0 
     /tmp/ccO0h9FZ.s:115    .text:0000000000000088 .L0 
     /tmp/ccO0h9FZ.s:117    .text:000000000000008c .L0 
     /tmp/ccO0h9FZ.s:123    .text:000000000000008c _ZN6Thread8dispatchEv
     /tmp/ccO0h9FZ.s:126    .text:000000000000008c .L0 
     /tmp/ccO0h9FZ.s:127    .text:000000000000008c .L0 
     /tmp/ccO0h9FZ.s:128    .text:0000000000000090 .L0 
     /tmp/ccO0h9FZ.s:131    .text:0000000000000098 .L0 
GAS LISTING /tmp/ccO0h9FZ.s 			page 11


     /tmp/ccO0h9FZ.s:132    .text:0000000000000098 .L0 
     /tmp/ccO0h9FZ.s:134    .text:000000000000009c .L0 
     /tmp/ccO0h9FZ.s:136    .text:000000000000009c .L0 
     /tmp/ccO0h9FZ.s:137    .text:000000000000009c .L0 
     /tmp/ccO0h9FZ.s:140    .text:00000000000000a4 .L0 
     /tmp/ccO0h9FZ.s:141    .text:00000000000000a8 .L0 
     /tmp/ccO0h9FZ.s:143    .text:00000000000000ac .L0 
     /tmp/ccO0h9FZ.s:144    .text:00000000000000ac .L0 
     /tmp/ccO0h9FZ.s:146    .text:00000000000000b0 .L0 
     /tmp/ccO0h9FZ.s:148    .text:00000000000000b4 .L0 
     /tmp/ccO0h9FZ.s:154    .text:00000000000000b4 _ZN6Thread5sleepEm
     /tmp/ccO0h9FZ.s:157    .text:00000000000000b4 .L0 
     /tmp/ccO0h9FZ.s:159    .text:00000000000000b4 .L0 
     /tmp/ccO0h9FZ.s:160    .text:00000000000000b8 .L0 
     /tmp/ccO0h9FZ.s:163    .text:00000000000000c0 .L0 
     /tmp/ccO0h9FZ.s:164    .text:00000000000000c0 .L0 
     /tmp/ccO0h9FZ.s:166    .text:00000000000000c4 .L0 
     /tmp/ccO0h9FZ.s:168    .text:00000000000000c4 .L0 
     /tmp/ccO0h9FZ.s:169    .text:00000000000000c4 .L0 
     /tmp/ccO0h9FZ.s:172    .text:00000000000000cc .L0 
     /tmp/ccO0h9FZ.s:173    .text:00000000000000d0 .L0 
     /tmp/ccO0h9FZ.s:175    .text:00000000000000d4 .L0 
     /tmp/ccO0h9FZ.s:176    .text:00000000000000d4 .L0 
     /tmp/ccO0h9FZ.s:178    .text:00000000000000d8 .L0 
     /tmp/ccO0h9FZ.s:180    .text:00000000000000dc .L0 
     /tmp/ccO0h9FZ.s:186    .text:00000000000000dc _ZN6ThreadC2EPFvPvES0_
     /tmp/ccO0h9FZ.s:189    .text:00000000000000dc .L0 
     /tmp/ccO0h9FZ.s:191    .text:00000000000000dc .L0 
     /tmp/ccO0h9FZ.s:192    .text:00000000000000e0 .L0 
     /tmp/ccO0h9FZ.s:194    .text:00000000000000e4 .L0 
     /tmp/ccO0h9FZ.s:196    .text:00000000000000e8 .L0 
     /tmp/ccO0h9FZ.s:199    .text:00000000000000e8 .L0 
     /tmp/ccO0h9FZ.s:200    .text:00000000000000e8 .L0 
     /tmp/ccO0h9FZ.s:202    .text:00000000000000ec .L0 
     /tmp/ccO0h9FZ.s:203    .text:00000000000000ec .L0 
     /tmp/ccO0h9FZ.s:205    .text:00000000000000f0 .L0 
     /tmp/ccO0h9FZ.s:206    .text:00000000000000f0 .L0 
     /tmp/ccO0h9FZ.s:209    .text:00000000000000f4 .L0 
     /tmp/ccO0h9FZ.s:210    .text:00000000000000f8 .L0 
     /tmp/ccO0h9FZ.s:211    .text:00000000000000f8 .L0 
     /tmp/ccO0h9FZ.s:213    .text:00000000000000fc .L0 
     /tmp/ccO0h9FZ.s:215    .text:0000000000000100 .L0 
     /tmp/ccO0h9FZ.s:186    .text:00000000000000dc _ZN6ThreadC1EPFvPvES0_
     /tmp/ccO0h9FZ.s:223    .text:0000000000000100 _ZN6ThreadC2Ev
     /tmp/ccO0h9FZ.s:226    .text:0000000000000100 .L0 
     /tmp/ccO0h9FZ.s:228    .text:0000000000000100 .L0 
     /tmp/ccO0h9FZ.s:229    .text:0000000000000104 .L0 
     /tmp/ccO0h9FZ.s:231    .text:0000000000000108 .L0 
     /tmp/ccO0h9FZ.s:233    .text:000000000000010c .L0 
     /tmp/ccO0h9FZ.s:236    .text:000000000000010c .L0 
     /tmp/ccO0h9FZ.s:237    .text:000000000000010c .L0 
     /tmp/ccO0h9FZ.s:239    .text:0000000000000110 .L0 
     /tmp/ccO0h9FZ.s:240    .text:0000000000000110 .L0 
     /tmp/ccO0h9FZ.s:243    .text:0000000000000114 .L0 
     /tmp/ccO0h9FZ.s:244    .text:0000000000000118 .L0 
     /tmp/ccO0h9FZ.s:245    .text:0000000000000118 .L0 
     /tmp/ccO0h9FZ.s:247    .text:000000000000011c .L0 
GAS LISTING /tmp/ccO0h9FZ.s 			page 12


     /tmp/ccO0h9FZ.s:249    .text:0000000000000120 .L0 
     /tmp/ccO0h9FZ.s:223    .text:0000000000000100 _ZN6ThreadC1Ev
     /tmp/ccO0h9FZ.s:257    .text:0000000000000120 _ZN6Thread6runnerEPS_
     /tmp/ccO0h9FZ.s:260    .text:0000000000000120 .L0 
     /tmp/ccO0h9FZ.s:262    .text:0000000000000120 .L0 
     /tmp/ccO0h9FZ.s:263    .text:0000000000000124 .L0 
     /tmp/ccO0h9FZ.s:266    .text:000000000000012c .L0 
     /tmp/ccO0h9FZ.s:267    .text:000000000000012c .L0 
     /tmp/ccO0h9FZ.s:269    .text:0000000000000130 .L0 
     /tmp/ccO0h9FZ.s:271    .text:0000000000000130 .L0 
     /tmp/ccO0h9FZ.s:272    .text:0000000000000130 .L0 
     /tmp/ccO0h9FZ.s:275    .text:0000000000000138 .L0 
     /tmp/ccO0h9FZ.s:276    .text:0000000000000138 .L0 
     /tmp/ccO0h9FZ.s:279    .text:0000000000000140 .L0 
     /tmp/ccO0h9FZ.s:280    .text:0000000000000144 .L0 
     /tmp/ccO0h9FZ.s:282    .text:0000000000000148 .L0 
     /tmp/ccO0h9FZ.s:283    .text:0000000000000148 .L0 
     /tmp/ccO0h9FZ.s:285    .text:000000000000014c .L0 
     /tmp/ccO0h9FZ.s:287    .text:0000000000000150 .L0 
     /tmp/ccO0h9FZ.s:293    .text:0000000000000150 _ZN9Semaphore4waitEv
     /tmp/ccO0h9FZ.s:296    .text:0000000000000150 .L0 
     /tmp/ccO0h9FZ.s:298    .text:0000000000000150 .L0 
     /tmp/ccO0h9FZ.s:299    .text:0000000000000154 .L0 
     /tmp/ccO0h9FZ.s:302    .text:000000000000015c .L0 
     /tmp/ccO0h9FZ.s:303    .text:000000000000015c .L0 
     /tmp/ccO0h9FZ.s:305    .text:0000000000000160 .L0 
     /tmp/ccO0h9FZ.s:307    .text:0000000000000160 .L0 
     /tmp/ccO0h9FZ.s:308    .text:0000000000000160 .L0 
     /tmp/ccO0h9FZ.s:313    .text:000000000000016c .L0 
     /tmp/ccO0h9FZ.s:314    .text:000000000000016c .L0 
     /tmp/ccO0h9FZ.s:315    .text:0000000000000170 .L0 
     /tmp/ccO0h9FZ.s:317    .text:0000000000000174 .L0 
     /tmp/ccO0h9FZ.s:318    .text:0000000000000174 .L0 
     /tmp/ccO0h9FZ.s:320    .text:0000000000000178 .L0 
     /tmp/ccO0h9FZ.s:322    .text:000000000000017c .L0 
     /tmp/ccO0h9FZ.s:328    .text:000000000000017c _ZN9SemaphoreC2Ej
     /tmp/ccO0h9FZ.s:331    .text:000000000000017c .L0 
     /tmp/ccO0h9FZ.s:333    .text:000000000000017c .L0 
     /tmp/ccO0h9FZ.s:334    .text:0000000000000180 .L0 
     /tmp/ccO0h9FZ.s:337    .text:0000000000000188 .L0 
     /tmp/ccO0h9FZ.s:338    .text:0000000000000188 .L0 
     /tmp/ccO0h9FZ.s:340    .text:000000000000018c .L0 
     /tmp/ccO0h9FZ.s:343    .text:000000000000018c .L0 
     /tmp/ccO0h9FZ.s:344    .text:000000000000018c .L0 
     /tmp/ccO0h9FZ.s:348    .text:0000000000000194 .L0 
     /tmp/ccO0h9FZ.s:349    .text:0000000000000194 .L0 
     /tmp/ccO0h9FZ.s:350    .text:0000000000000198 .L0 
     /tmp/ccO0h9FZ.s:352    .text:000000000000019c .L0 
     /tmp/ccO0h9FZ.s:353    .text:000000000000019c .L0 
     /tmp/ccO0h9FZ.s:355    .text:00000000000001a0 .L0 
     /tmp/ccO0h9FZ.s:357    .text:00000000000001a4 .L0 
     /tmp/ccO0h9FZ.s:328    .text:000000000000017c _ZN9SemaphoreC1Ej
     /tmp/ccO0h9FZ.s:365    .text:00000000000001a4 _ZN9Semaphore6signalEv
     /tmp/ccO0h9FZ.s:368    .text:00000000000001a4 .L0 
     /tmp/ccO0h9FZ.s:370    .text:00000000000001a4 .L0 
     /tmp/ccO0h9FZ.s:371    .text:00000000000001a8 .L0 
     /tmp/ccO0h9FZ.s:374    .text:00000000000001b0 .L0 
GAS LISTING /tmp/ccO0h9FZ.s 			page 13


     /tmp/ccO0h9FZ.s:375    .text:00000000000001b0 .L0 
     /tmp/ccO0h9FZ.s:377    .text:00000000000001b4 .L0 
     /tmp/ccO0h9FZ.s:379    .text:00000000000001b4 .L0 
     /tmp/ccO0h9FZ.s:380    .text:00000000000001b4 .L0 
     /tmp/ccO0h9FZ.s:385    .text:00000000000001c0 .L0 
     /tmp/ccO0h9FZ.s:386    .text:00000000000001c0 .L0 
     /tmp/ccO0h9FZ.s:387    .text:00000000000001c4 .L0 
     /tmp/ccO0h9FZ.s:389    .text:00000000000001c8 .L0 
     /tmp/ccO0h9FZ.s:390    .text:00000000000001c8 .L0 
     /tmp/ccO0h9FZ.s:392    .text:00000000000001cc .L0 
     /tmp/ccO0h9FZ.s:394    .text:00000000000001d0 .L0 
     /tmp/ccO0h9FZ.s:404    .text:00000000000001d0 .L0 
     /tmp/ccO0h9FZ.s:86     .text:000000000000005c .L11
     /tmp/ccO0h9FZ.s:2025   .debug_abbrev:0000000000000000 .Ldebug_abbrev0
     /tmp/ccO0h9FZ.s:3368   .debug_str:0000000000000591 .LASF188
     /tmp/ccO0h9FZ.s:3326   .debug_str:000000000000040b .LASF189
     /tmp/ccO0h9FZ.s:3518   .debug_str:0000000000000a77 .LASF190
     /tmp/ccO0h9FZ.s:5      .text:0000000000000000 .Ltext0
     /tmp/ccO0h9FZ.s:397    .text:00000000000001d0 .Letext0
     /tmp/ccO0h9FZ.s:3182   .debug_line:0000000000000000 .Ldebug_line0
     /tmp/ccO0h9FZ.s:3312   .debug_str:00000000000003a7 .LASF0
     /tmp/ccO0h9FZ.s:3340   .debug_str:00000000000004a2 .LASF1
     /tmp/ccO0h9FZ.s:3438   .debug_str:000000000000080c .LASF2
     /tmp/ccO0h9FZ.s:3452   .debug_str:0000000000000884 .LASF4
     /tmp/ccO0h9FZ.s:3328   .debug_str:000000000000041f .LASF3
     /tmp/ccO0h9FZ.s:3202   .debug_str:0000000000000078 .LASF5
     /tmp/ccO0h9FZ.s:3414   .debug_str:000000000000076d .LASF6
     /tmp/ccO0h9FZ.s:3402   .debug_str:0000000000000715 .LASF7
     /tmp/ccO0h9FZ.s:3332   .debug_str:0000000000000453 .LASF8
     /tmp/ccO0h9FZ.s:3284   .debug_str:00000000000002d5 .LASF9
     /tmp/ccO0h9FZ.s:3290   .debug_str:0000000000000315 .LASF10
     /tmp/ccO0h9FZ.s:3232   .debug_str:0000000000000190 .LASF11
     /tmp/ccO0h9FZ.s:3280   .debug_str:00000000000002c1 .LASF12
     /tmp/ccO0h9FZ.s:3244   .debug_str:00000000000001d7 .LASF13
     /tmp/ccO0h9FZ.s:3230   .debug_str:0000000000000180 .LASF14
     /tmp/ccO0h9FZ.s:3488   .debug_str:00000000000009ac .LASF15
     /tmp/ccO0h9FZ.s:3270   .debug_str:0000000000000279 .LASF16
     /tmp/ccO0h9FZ.s:3478   .debug_str:000000000000094f .LASF17
     /tmp/ccO0h9FZ.s:3502   .debug_str:00000000000009fc .LASF191
     /tmp/ccO0h9FZ.s:3226   .debug_str:0000000000000166 .LASF18
     /tmp/ccO0h9FZ.s:3470   .debug_str:0000000000000913 .LASF19
     /tmp/ccO0h9FZ.s:3240   .debug_str:00000000000001c3 .LASF20
     /tmp/ccO0h9FZ.s:3220   .debug_str:0000000000000120 .LASF21
     /tmp/ccO0h9FZ.s:3406   .debug_str:000000000000073e .LASF22
     /tmp/ccO0h9FZ.s:3238   .debug_str:00000000000001ba .LASF23
     /tmp/ccO0h9FZ.s:3494   .debug_str:00000000000009d2 .LASF62
     /tmp/ccO0h9FZ.s:3300   .debug_str:0000000000000353 .LASF24
     /tmp/ccO0h9FZ.s:3522   .debug_str:0000000000000aa2 .LASF192
     /tmp/ccO0h9FZ.s:3392   .debug_str:00000000000006c4 .LASF193
     /tmp/ccO0h9FZ.s:3338   .debug_str:000000000000049d .LASF25
     /tmp/ccO0h9FZ.s:3564   .debug_str:0000000000000bb1 .LASF27
     /tmp/ccO0h9FZ.s:3562   .debug_str:0000000000000bab .LASF26
     /tmp/ccO0h9FZ.s:3508   .debug_str:0000000000000a1d .LASF28
     /tmp/ccO0h9FZ.s:3258   .debug_str:0000000000000242 .LASF66
     /tmp/ccO0h9FZ.s:3206   .debug_str:0000000000000099 .LASF68
     /tmp/ccO0h9FZ.s:3344   .debug_str:00000000000004be .LASF34
     /tmp/ccO0h9FZ.s:3396   .debug_str:00000000000006df .LASF36
GAS LISTING /tmp/ccO0h9FZ.s 			page 14


     /tmp/ccO0h9FZ.s:3504   .debug_str:0000000000000a02 .LASF29
     /tmp/ccO0h9FZ.s:3546   .debug_str:0000000000000b3b .LASF30
     /tmp/ccO0h9FZ.s:3464   .debug_str:00000000000008de .LASF31
     /tmp/ccO0h9FZ.s:3348   .debug_str:00000000000004d7 .LASF38
     /tmp/ccO0h9FZ.s:3354   .debug_str:000000000000050b .LASF40
     /tmp/ccO0h9FZ.s:3570   .debug_str:0000000000000be5 .LASF32
     /tmp/ccO0h9FZ.s:3274   .debug_str:00000000000002a8 .LASF33
     /tmp/ccO0h9FZ.s:3194   .debug_str:0000000000000043 .LASF35
     /tmp/ccO0h9FZ.s:3324   .debug_str:00000000000003fe .LASF37
     /tmp/ccO0h9FZ.s:3466   .debug_str:00000000000008ef .LASF39
     /tmp/ccO0h9FZ.s:3374   .debug_str:000000000000064d .LASF41
     /tmp/ccO0h9FZ.s:3446   .debug_str:000000000000084a .LASF42
     /tmp/ccO0h9FZ.s:3482   .debug_str:000000000000097b .LASF43
     /tmp/ccO0h9FZ.s:3376   .debug_str:0000000000000660 .LASF44
     /tmp/ccO0h9FZ.s:3190   .debug_str:0000000000000024 .LASF45
     /tmp/ccO0h9FZ.s:3554   .debug_str:0000000000000b6f .LASF46
     /tmp/ccO0h9FZ.s:3400   .debug_str:00000000000006fb .LASF47
     /tmp/ccO0h9FZ.s:3476   .debug_str:0000000000000941 .LASF48
     /tmp/ccO0h9FZ.s:3418   .debug_str:000000000000078b .LASF49
     /tmp/ccO0h9FZ.s:3254   .debug_str:0000000000000220 .LASF50
     /tmp/ccO0h9FZ.s:3560   .debug_str:0000000000000ba0 .LASF51
     /tmp/ccO0h9FZ.s:3460   .debug_str:00000000000008c8 .LASF140
     /tmp/ccO0h9FZ.s:3514   .debug_str:0000000000000a58 .LASF52
     /tmp/ccO0h9FZ.s:3398   .debug_str:00000000000006ef .LASF53
     /tmp/ccO0h9FZ.s:3250   .debug_str:000000000000020b .LASF54
     /tmp/ccO0h9FZ.s:3210   .debug_str:00000000000000c7 .LASF56
     /tmp/ccO0h9FZ.s:3314   .debug_str:00000000000003b4 .LASF55
     /tmp/ccO0h9FZ.s:3224   .debug_str:000000000000013a .LASF57
     /tmp/ccO0h9FZ.s:3552   .debug_str:0000000000000b68 .LASF194
     /tmp/ccO0h9FZ.s:3222   .debug_str:0000000000000129 .LASF195
     /tmp/ccO0h9FZ.s:3192   .debug_str:000000000000003e .LASF58
     /tmp/ccO0h9FZ.s:3530   .debug_str:0000000000000ade .LASF59
     /tmp/ccO0h9FZ.s:3358   .debug_str:000000000000053d .LASF60
     /tmp/ccO0h9FZ.s:3262   .debug_str:0000000000000250 .LASF61
     /tmp/ccO0h9FZ.s:3520   .debug_str:0000000000000a9a .LASF63
     /tmp/ccO0h9FZ.s:3214   .debug_str:00000000000000f4 .LASF64
     /tmp/ccO0h9FZ.s:3542   .debug_str:0000000000000b2b .LASF65
     /tmp/ccO0h9FZ.s:3496   .debug_str:00000000000009da .LASF67
     /tmp/ccO0h9FZ.s:3362   .debug_str:0000000000000559 .LASF69
     /tmp/ccO0h9FZ.s:3268   .debug_str:000000000000026f .LASF70
     /tmp/ccO0h9FZ.s:3404   .debug_str:0000000000000728 .LASF71
     /tmp/ccO0h9FZ.s:3534   .debug_str:0000000000000aed .LASF72
     /tmp/ccO0h9FZ.s:3352   .debug_str:00000000000004ed .LASF73
     /tmp/ccO0h9FZ.s:3322   .debug_str:00000000000003ec .LASF74
     /tmp/ccO0h9FZ.s:3246   .debug_str:00000000000001e7 .LASF75
     /tmp/ccO0h9FZ.s:3558   .debug_str:0000000000000b94 .LASF76
     /tmp/ccO0h9FZ.s:3208   .debug_str:00000000000000ac .LASF77
     /tmp/ccO0h9FZ.s:3412   .debug_str:0000000000000760 .LASF78
     /tmp/ccO0h9FZ.s:3204   .debug_str:000000000000007f .LASF79
     /tmp/ccO0h9FZ.s:3462   .debug_str:00000000000008d0 .LASF80
     /tmp/ccO0h9FZ.s:3468   .debug_str:00000000000008f8 .LASF81
     /tmp/ccO0h9FZ.s:3378   .debug_str:000000000000066f .LASF82
     /tmp/ccO0h9FZ.s:3548   .debug_str:0000000000000b46 .LASF83
     /tmp/ccO0h9FZ.s:3528   .debug_str:0000000000000ad5 .LASF86
     /tmp/ccO0h9FZ.s:3200   .debug_str:0000000000000063 .LASF88
     /tmp/ccO0h9FZ.s:3434   .debug_str:00000000000007f8 .LASF84
     /tmp/ccO0h9FZ.s:3388   .debug_str:00000000000006a8 .LASF85
GAS LISTING /tmp/ccO0h9FZ.s 			page 15


     /tmp/ccO0h9FZ.s:3420   .debug_str:0000000000000797 .LASF87
     /tmp/ccO0h9FZ.s:3422   .debug_str:000000000000079e .LASF89
     /tmp/ccO0h9FZ.s:3384   .debug_str:000000000000068d .LASF90
     /tmp/ccO0h9FZ.s:3334   .debug_str:0000000000000466 .LASF91
     /tmp/ccO0h9FZ.s:3550   .debug_str:0000000000000b60 .LASF92
     /tmp/ccO0h9FZ.s:3510   .debug_str:0000000000000a2d .LASF93
     /tmp/ccO0h9FZ.s:3382   .debug_str:0000000000000685 .LASF94
     /tmp/ccO0h9FZ.s:3386   .debug_str:0000000000000694 .LASF95
     /tmp/ccO0h9FZ.s:3370   .debug_str:0000000000000633 .LASF96
     /tmp/ccO0h9FZ.s:3424   .debug_str:00000000000007b1 .LASF97
     /tmp/ccO0h9FZ.s:3574   .debug_str:0000000000000c0a .LASF98
     /tmp/ccO0h9FZ.s:3318   .debug_str:00000000000003cf .LASF99
     /tmp/ccO0h9FZ.s:3484   .debug_str:0000000000000997 .LASF100
     /tmp/ccO0h9FZ.s:3456   .debug_str:00000000000008ae .LASF101
     /tmp/ccO0h9FZ.s:3458   .debug_str:00000000000008c1 .LASF102
     /tmp/ccO0h9FZ.s:3266   .debug_str:000000000000025c .LASF103
     /tmp/ccO0h9FZ.s:3264   .debug_str:0000000000000256 .LASF104
     /tmp/ccO0h9FZ.s:3304   .debug_str:000000000000036e .LASF105
     /tmp/ccO0h9FZ.s:3316   .debug_str:00000000000003c9 .LASF106
     /tmp/ccO0h9FZ.s:3256   .debug_str:0000000000000230 .LASF107
     /tmp/ccO0h9FZ.s:3184   .debug_str:0000000000000000 .LASF108
     /tmp/ccO0h9FZ.s:3442   .debug_str:0000000000000826 .LASF109
     /tmp/ccO0h9FZ.s:3436   .debug_str:0000000000000801 .LASF110
     /tmp/ccO0h9FZ.s:3566   .debug_str:0000000000000bbd .LASF111
     /tmp/ccO0h9FZ.s:3544   .debug_str:0000000000000b31 .LASF112
     /tmp/ccO0h9FZ.s:3556   .debug_str:0000000000000b7e .LASF113
     /tmp/ccO0h9FZ.s:3540   .debug_str:0000000000000b21 .LASF114
     /tmp/ccO0h9FZ.s:3364   .debug_str:0000000000000571 .LASF115
     /tmp/ccO0h9FZ.s:3298   .debug_str:0000000000000348 .LASF116
     /tmp/ccO0h9FZ.s:3308   .debug_str:0000000000000389 .LASF117
     /tmp/ccO0h9FZ.s:3526   .debug_str:0000000000000ac6 .LASF118
     /tmp/ccO0h9FZ.s:3288   .debug_str:00000000000002f9 .LASF119
     /tmp/ccO0h9FZ.s:3410   .debug_str:000000000000074b .LASF120
     /tmp/ccO0h9FZ.s:3330   .debug_str:0000000000000431 .LASF121
     /tmp/ccO0h9FZ.s:3252   .debug_str:0000000000000219 .LASF122
     /tmp/ccO0h9FZ.s:3198   .debug_str:000000000000005b .LASF123
     /tmp/ccO0h9FZ.s:3216   .debug_str:00000000000000fe .LASF124
     /tmp/ccO0h9FZ.s:3524   .debug_str:0000000000000aba .LASF125
     /tmp/ccO0h9FZ.s:3218   .debug_str:000000000000010d .LASF126
     /tmp/ccO0h9FZ.s:3372   .debug_str:000000000000063b .LASF127
     /tmp/ccO0h9FZ.s:3292   .debug_str:0000000000000323 .LASF128
     /tmp/ccO0h9FZ.s:3538   .debug_str:0000000000000b0e .LASF129
     /tmp/ccO0h9FZ.s:3228   .debug_str:000000000000016c .LASF130
     /tmp/ccO0h9FZ.s:3498   .debug_str:00000000000009e5 .LASF131
     /tmp/ccO0h9FZ.s:3428   .debug_str:00000000000007d9 .LASF132
     /tmp/ccO0h9FZ.s:3286   .debug_str:00000000000002e5 .LASF133
     /tmp/ccO0h9FZ.s:3440   .debug_str:000000000000081a .LASF134
     /tmp/ccO0h9FZ.s:3426   .debug_str:00000000000007c5 .LASF135
     /tmp/ccO0h9FZ.s:3260   .debug_str:000000000000024b .LASF136
     /tmp/ccO0h9FZ.s:3472   .debug_str:000000000000091b .LASF137
     /tmp/ccO0h9FZ.s:3492   .debug_str:00000000000009cb .LASF138
     /tmp/ccO0h9FZ.s:3272   .debug_str:000000000000028f .LASF139
     /tmp/ccO0h9FZ.s:3188   .debug_str:0000000000000018 .LASF141
     /tmp/ccO0h9FZ.s:3444   .debug_str:000000000000083e .LASF142
     /tmp/ccO0h9FZ.s:3360   .debug_str:0000000000000545 .LASF143
     /tmp/ccO0h9FZ.s:3302   .debug_str:0000000000000359 .LASF144
     /tmp/ccO0h9FZ.s:3234   .debug_str:000000000000019f .LASF145
GAS LISTING /tmp/ccO0h9FZ.s 			page 16


     /tmp/ccO0h9FZ.s:3242   .debug_str:00000000000001cd .LASF146
     /tmp/ccO0h9FZ.s:3380   .debug_str:000000000000067c .LASF147
     /tmp/ccO0h9FZ.s:3450   .debug_str:0000000000000879 .LASF148
     /tmp/ccO0h9FZ.s:3342   .debug_str:00000000000004b5 .LASF149
     /tmp/ccO0h9FZ.s:3310   .debug_str:00000000000003a1 .LASF150
     /tmp/ccO0h9FZ.s:3572   .debug_str:0000000000000bf2 .LASF151
     /tmp/ccO0h9FZ.s:3196   .debug_str:0000000000000053 .LASF152
     /tmp/ccO0h9FZ.s:3356   .debug_str:0000000000000523 .LASF153
     /tmp/ccO0h9FZ.s:3568   .debug_str:0000000000000bd5 .LASF154
     /tmp/ccO0h9FZ.s:3454   .debug_str:000000000000088b .LASF155
     /tmp/ccO0h9FZ.s:3490   .debug_str:00000000000009b8 .LASF156
     /tmp/ccO0h9FZ.s:3448   .debug_str:0000000000000853 .LASF157
     /tmp/ccO0h9FZ.s:3186   .debug_str:000000000000000b .LASF158
     /tmp/ccO0h9FZ.s:3336   .debug_str:0000000000000479 .LASF159
     /tmp/ccO0h9FZ.s:3296   .debug_str:0000000000000341 .LASF160
     /tmp/ccO0h9FZ.s:3578   .debug_str:0000000000000c21 .LASF161
     /tmp/ccO0h9FZ.s:3346   .debug_str:00000000000004c4 .LASF162
     /tmp/ccO0h9FZ.s:3394   .debug_str:00000000000006c9 .LASF163
     /tmp/ccO0h9FZ.s:3506   .debug_str:0000000000000a0a .LASF164
     /tmp/ccO0h9FZ.s:3320   .debug_str:00000000000003e3 .LASF165
     /tmp/ccO0h9FZ.s:3576   .debug_str:0000000000000c12 .LASF166
     /tmp/ccO0h9FZ.s:3480   .debug_str:0000000000000965 .LASF196
     /tmp/ccO0h9FZ.s:3532   .debug_str:0000000000000ae3 .LASF167
     /tmp/ccO0h9FZ.s:3500   .debug_str:00000000000009ea .LASF168
     /tmp/ccO0h9FZ.s:3516   .debug_str:0000000000000a62 .LASF169
     /tmp/ccO0h9FZ.s:3416   .debug_str:0000000000000774 .LASF170
     /tmp/ccO0h9FZ.s:366    .text:00000000000001a4 .LFB37
     /tmp/ccO0h9FZ.s:395    .text:00000000000001d0 .LFE37
     /tmp/ccO0h9FZ.s:3282   .debug_str:00000000000002d0 .LASF172
     /tmp/ccO0h9FZ.s:3043   .debug_loc:0000000000000000 .LLST8
     /tmp/ccO0h9FZ.s:3276   .debug_str:00000000000002b4 .LASF171
     /tmp/ccO0h9FZ.s:383    .text:00000000000001c0 .LVL21
     /tmp/ccO0h9FZ.s:3212   .debug_str:00000000000000ef .LASF175
     /tmp/ccO0h9FZ.s:3236   .debug_str:00000000000001a8 .LASF173
     /tmp/ccO0h9FZ.s:329    .text:000000000000017c .LFB35
     /tmp/ccO0h9FZ.s:358    .text:00000000000001a4 .LFE35
     /tmp/ccO0h9FZ.s:3057   .debug_loc:0000000000000039 .LLST6
     /tmp/ccO0h9FZ.s:3071   .debug_loc:0000000000000072 .LLST7
     /tmp/ccO0h9FZ.s:345    .text:0000000000000194 .LVL18
     /tmp/ccO0h9FZ.s:341    .text:000000000000018c .LBB7
     /tmp/ccO0h9FZ.s:347    .text:0000000000000194 .LBE7
     /tmp/ccO0h9FZ.s:294    .text:0000000000000150 .LFB33
     /tmp/ccO0h9FZ.s:323    .text:000000000000017c .LFE33
     /tmp/ccO0h9FZ.s:3085   .debug_loc:00000000000000ab .LLST5
     /tmp/ccO0h9FZ.s:311    .text:000000000000016c .LVL16
     /tmp/ccO0h9FZ.s:258    .text:0000000000000120 .LFB32
     /tmp/ccO0h9FZ.s:288    .text:0000000000000150 .LFE32
     /tmp/ccO0h9FZ.s:3099   .debug_loc:00000000000000e4 .LLST4
     /tmp/ccO0h9FZ.s:273    .text:0000000000000138 .LVL12
     /tmp/ccO0h9FZ.s:277    .text:0000000000000140 .LVL13
     /tmp/ccO0h9FZ.s:3474   .debug_str:0000000000000932 .LASF174
     /tmp/ccO0h9FZ.s:224    .text:0000000000000100 .LFB30
     /tmp/ccO0h9FZ.s:250    .text:0000000000000120 .LFE30
     /tmp/ccO0h9FZ.s:3512   .debug_str:0000000000000a41 .LASF176
     /tmp/ccO0h9FZ.s:187    .text:00000000000000dc .LFB27
     /tmp/ccO0h9FZ.s:216    .text:0000000000000100 .LFE27
     /tmp/ccO0h9FZ.s:155    .text:00000000000000b4 .LFB25
GAS LISTING /tmp/ccO0h9FZ.s 			page 17


     /tmp/ccO0h9FZ.s:181    .text:00000000000000dc .LFE25
     /tmp/ccO0h9FZ.s:3408   .debug_str:0000000000000746 .LASF177
     /tmp/ccO0h9FZ.s:3113   .debug_loc:000000000000011d .LLST3
     /tmp/ccO0h9FZ.s:170    .text:00000000000000cc .LVL8
     /tmp/ccO0h9FZ.s:124    .text:000000000000008c .LFB24
     /tmp/ccO0h9FZ.s:149    .text:00000000000000b4 .LFE24
     /tmp/ccO0h9FZ.s:138    .text:00000000000000a4 .LVL6
     /tmp/ccO0h9FZ.s:75     .text:0000000000000050 .LFB23
     /tmp/ccO0h9FZ.s:118    .text:000000000000008c .LFE23
     /tmp/ccO0h9FZ.s:3127   .debug_loc:0000000000000156 .LLST2
     /tmp/ccO0h9FZ.s:98     .text:000000000000006c .LBB3
     /tmp/ccO0h9FZ.s:106    .text:000000000000007c .LBE3
     /tmp/ccO0h9FZ.s:104    .text:000000000000007c .LVL5
     /tmp/ccO0h9FZ.s:3390   .debug_str:00000000000006bd .LASF178
     /tmp/ccO0h9FZ.s:43     .text:0000000000000028 .LFB22
     /tmp/ccO0h9FZ.s:69     .text:0000000000000050 .LFE22
     /tmp/ccO0h9FZ.s:3141   .debug_loc:000000000000018f .LLST1
     /tmp/ccO0h9FZ.s:58     .text:0000000000000040 .LVL3
     /tmp/ccO0h9FZ.s:3278   .debug_str:00000000000002bb .LASF197
     /tmp/ccO0h9FZ.s:10     .text:0000000000000000 .LFB21
     /tmp/ccO0h9FZ.s:37     .text:0000000000000028 .LFE21
     /tmp/ccO0h9FZ.s:3248   .debug_str:0000000000000206 .LASF179
     /tmp/ccO0h9FZ.s:3155   .debug_loc:00000000000001c8 .LLST0
     /tmp/ccO0h9FZ.s:26     .text:0000000000000018 .LVL1
     /tmp/ccO0h9FZ.s:3294   .debug_str:0000000000000336 .LASF180
     /tmp/ccO0h9FZ.s:3430   .debug_str:00000000000007e4 .LASF181
     /tmp/ccO0h9FZ.s:3350   .debug_str:00000000000004e4 .LASF182
     /tmp/ccO0h9FZ.s:3536   .debug_str:0000000000000afe .LASF183
     /tmp/ccO0h9FZ.s:3432   .debug_str:00000000000007ed .LASF184
     /tmp/ccO0h9FZ.s:3486   .debug_str:000000000000099e .LASF185
     /tmp/ccO0h9FZ.s:3306   .debug_str:0000000000000380 .LASF186
     /tmp/ccO0h9FZ.s:3366   .debug_str:0000000000000587 .LASF187
     /tmp/ccO0h9FZ.s:369    .text:00000000000001a4 .LVL19
     /tmp/ccO0h9FZ.s:381    .text:00000000000001b8 .LVL20
     /tmp/ccO0h9FZ.s:332    .text:000000000000017c .LVL17
     /tmp/ccO0h9FZ.s:297    .text:0000000000000150 .LVL14
     /tmp/ccO0h9FZ.s:309    .text:0000000000000164 .LVL15
     /tmp/ccO0h9FZ.s:261    .text:0000000000000120 .LVL11
     /tmp/ccO0h9FZ.s:158    .text:00000000000000b4 .LVL7
     /tmp/ccO0h9FZ.s:78     .text:0000000000000050 .LVL4
     /tmp/ccO0h9FZ.s:46     .text:0000000000000028 .LVL2
     /tmp/ccO0h9FZ.s:14     .text:0000000000000000 .LVL0
     /tmp/ccO0h9FZ.s:405    .debug_info:0000000000000000 .Ldebug_info0

UNDEFINED SYMBOLS
mem_alloc
mem_free
thread_create
thread_dispatch
time_sleep
_ZN5Riscv10popSppSpieEv
sem_wait
sem_open
sem_signal
