GAS LISTING /tmp/cctDSJtx.s 			page 1


   1              		.file	"syscall_cpp.cpp"
   2              		.option pic
   3              		.option norelax
   4              		.text
   5              	.Ltext0:
   6              		.align	2
   7              		.globl	_Znwm
   9              	_Znwm:
  10              	.LFB23:
  11              		.file 1 "src/syscall_cpp.cpp"
   1:src/syscall_cpp.cpp **** //
   2:src/syscall_cpp.cpp **** // Created by os on 4/8/22.
   3:src/syscall_cpp.cpp **** //
   4:src/syscall_cpp.cpp **** 
   5:src/syscall_cpp.cpp **** #include "../h/syscall_cpp.h"
   6:src/syscall_cpp.cpp **** 
   7:src/syscall_cpp.cpp **** //general
   8:src/syscall_cpp.cpp **** void * operator new(size_t size)
   9:src/syscall_cpp.cpp **** {
  12              		.loc 1 9 1
  13              		.cfi_startproc
  14              	.LVL0:
  15 0000 130101FF 		addi	sp,sp,-16
  16              		.cfi_def_cfa_offset 16
  17 0004 23341100 		sd	ra,8(sp)
  18 0008 23308100 		sd	s0,0(sp)
  19              		.cfi_offset 1, -8
  20              		.cfi_offset 8, -16
  21 000c 13040101 		addi	s0,sp,16
  22              		.cfi_def_cfa 8, 0
  10:src/syscall_cpp.cpp ****     return mem_alloc(size);
  23              		.loc 1 10 5
  24              		.loc 1 10 21 is_stmt 0
  25 0010 97000000 		call	mem_alloc@plt
  25      E7800000 
  26              	.LVL1:
  11:src/syscall_cpp.cpp **** }
  27              		.loc 1 11 1
  28 0018 83308100 		ld	ra,8(sp)
  29              		.cfi_restore 1
  30 001c 03340100 		ld	s0,0(sp)
  31              		.cfi_restore 8
  32              		.cfi_def_cfa 2, 16
  33 0020 13010101 		addi	sp,sp,16
  34              		.cfi_def_cfa_offset 0
  35 0024 67800000 		jr	ra
  36              		.cfi_endproc
  37              	.LFE23:
  39              		.align	2
  40              		.globl	_ZdlPv
  42              	_ZdlPv:
  43              	.LFB24:
  12:src/syscall_cpp.cpp **** 
  13:src/syscall_cpp.cpp **** void operator delete(void * p)
  14:src/syscall_cpp.cpp **** {
  44              		.loc 1 14 1 is_stmt 1
  45              		.cfi_startproc
GAS LISTING /tmp/cctDSJtx.s 			page 2


  46              	.LVL2:
  47 0028 130101FF 		addi	sp,sp,-16
  48              		.cfi_def_cfa_offset 16
  49 002c 23341100 		sd	ra,8(sp)
  50 0030 23308100 		sd	s0,0(sp)
  51              		.cfi_offset 1, -8
  52              		.cfi_offset 8, -16
  53 0034 13040101 		addi	s0,sp,16
  54              		.cfi_def_cfa 8, 0
  15:src/syscall_cpp.cpp ****    mem_free(p);
  55              		.loc 1 15 4
  56              		.loc 1 15 12 is_stmt 0
  57 0038 97000000 		call	mem_free@plt
  57      E7800000 
  58              	.LVL3:
  16:src/syscall_cpp.cpp **** }
  59              		.loc 1 16 1
  60 0040 83308100 		ld	ra,8(sp)
  61              		.cfi_restore 1
  62 0044 03340100 		ld	s0,0(sp)
  63              		.cfi_restore 8
  64              		.cfi_def_cfa 2, 16
  65 0048 13010101 		addi	sp,sp,16
  66              		.cfi_def_cfa_offset 0
  67 004c 67800000 		jr	ra
  68              		.cfi_endproc
  69              	.LFE24:
  71              		.align	2
  72              		.globl	_ZN6Thread5startEv
  74              	_ZN6Thread5startEv:
  75              	.LFB25:
  17:src/syscall_cpp.cpp **** 
  18:src/syscall_cpp.cpp **** //Thread
  19:src/syscall_cpp.cpp **** 
  20:src/syscall_cpp.cpp **** //todo
  21:src/syscall_cpp.cpp **** //diskusija u os1 proj sheet-u
  22:src/syscall_cpp.cpp **** void Thread::start() {
  76              		.loc 1 22 22 is_stmt 1
  77              		.cfi_startproc
  78              	.LVL4:
  79 0050 130101FF 		addi	sp,sp,-16
  80              		.cfi_def_cfa_offset 16
  81 0054 23348100 		sd	s0,8(sp)
  82              		.cfi_offset 8, -8
  83 0058 13040101 		addi	s0,sp,16
  84              		.cfi_def_cfa 8, 0
  23:src/syscall_cpp.cpp ****     //myHandle->start();
  24:src/syscall_cpp.cpp **** }
  85              		.loc 1 24 1 is_stmt 0
  86 005c 03348100 		ld	s0,8(sp)
  87              		.cfi_restore 8
  88              		.cfi_def_cfa 2, 16
  89 0060 13010101 		addi	sp,sp,16
  90              		.cfi_def_cfa_offset 0
  91 0064 67800000 		jr	ra
  92              		.cfi_endproc
  93              	.LFE25:
GAS LISTING /tmp/cctDSJtx.s 			page 3


  95              		.align	2
  96              		.globl	_ZN6Thread8dispatchEv
  98              	_ZN6Thread8dispatchEv:
  99              	.LFB26:
  25:src/syscall_cpp.cpp **** 
  26:src/syscall_cpp.cpp **** void Thread::dispatch() {
 100              		.loc 1 26 25 is_stmt 1
 101              		.cfi_startproc
 102 0068 130101FF 		addi	sp,sp,-16
 103              		.cfi_def_cfa_offset 16
 104 006c 23348100 		sd	s0,8(sp)
 105              		.cfi_offset 8, -8
 106 0070 13040101 		addi	s0,sp,16
 107              		.cfi_def_cfa 8, 0
  27:src/syscall_cpp.cpp ****     //PCB::dispatch();
  28:src/syscall_cpp.cpp **** }
 108              		.loc 1 28 1 is_stmt 0
 109 0074 03348100 		ld	s0,8(sp)
 110              		.cfi_restore 8
 111              		.cfi_def_cfa 2, 16
 112 0078 13010101 		addi	sp,sp,16
 113              		.cfi_def_cfa_offset 0
 114 007c 67800000 		jr	ra
 115              		.cfi_endproc
 116              	.LFE26:
 118              		.align	2
 119              		.globl	_ZN6Thread5sleepEm
 121              	_ZN6Thread5sleepEm:
 122              	.LFB27:
  29:src/syscall_cpp.cpp **** 
  30:src/syscall_cpp.cpp **** void Thread::sleep(time_t time) {
 123              		.loc 1 30 33 is_stmt 1
 124              		.cfi_startproc
 125              	.LVL5:
 126 0080 130101FF 		addi	sp,sp,-16
 127              		.cfi_def_cfa_offset 16
 128 0084 23341100 		sd	ra,8(sp)
 129 0088 23308100 		sd	s0,0(sp)
 130              		.cfi_offset 1, -8
 131              		.cfi_offset 8, -16
 132 008c 13040101 		addi	s0,sp,16
 133              		.cfi_def_cfa 8, 0
  31:src/syscall_cpp.cpp ****     PCB::sleep(time);
 134              		.loc 1 31 5
 135              		.loc 1 31 15 is_stmt 0
 136 0090 97000000 		call	_ZN3PCB5sleepEm@plt
 136      E7800000 
 137              	.LVL6:
  32:src/syscall_cpp.cpp **** }
 138              		.loc 1 32 1
 139 0098 83308100 		ld	ra,8(sp)
 140              		.cfi_restore 1
 141 009c 03340100 		ld	s0,0(sp)
 142              		.cfi_restore 8
 143              		.cfi_def_cfa 2, 16
 144 00a0 13010101 		addi	sp,sp,16
 145              		.cfi_def_cfa_offset 0
GAS LISTING /tmp/cctDSJtx.s 			page 4


 146 00a4 67800000 		jr	ra
 147              		.cfi_endproc
 148              	.LFE27:
 150              	.Letext0:
 151              		.file 2 "src/../h/../lib/hw.h"
 152              		.file 3 "src/../h/PCB.h"
 153              		.file 4 "src/../h/syscall_cpp.h"
 154              		.file 5 "src/../h/syscall_c.h"
GAS LISTING /tmp/cctDSJtx.s 			page 5


DEFINED SYMBOLS
                            *ABS*:0000000000000000 syscall_cpp.cpp
     /tmp/cctDSJtx.s:9      .text:0000000000000000 _Znwm
     /tmp/cctDSJtx.s:13     .text:0000000000000000 .L0 
     /tmp/cctDSJtx.s:15     .text:0000000000000000 .L0 
     /tmp/cctDSJtx.s:16     .text:0000000000000004 .L0 
     /tmp/cctDSJtx.s:19     .text:000000000000000c .L0 
     /tmp/cctDSJtx.s:20     .text:000000000000000c .L0 
     /tmp/cctDSJtx.s:22     .text:0000000000000010 .L0 
     /tmp/cctDSJtx.s:24     .text:0000000000000010 .L0 
     /tmp/cctDSJtx.s:25     .text:0000000000000010 .L0 
     /tmp/cctDSJtx.s:28     .text:0000000000000018 .L0 
     /tmp/cctDSJtx.s:29     .text:000000000000001c .L0 
     /tmp/cctDSJtx.s:31     .text:0000000000000020 .L0 
     /tmp/cctDSJtx.s:32     .text:0000000000000020 .L0 
     /tmp/cctDSJtx.s:34     .text:0000000000000024 .L0 
     /tmp/cctDSJtx.s:36     .text:0000000000000028 .L0 
     /tmp/cctDSJtx.s:42     .text:0000000000000028 _ZdlPv
     /tmp/cctDSJtx.s:45     .text:0000000000000028 .L0 
     /tmp/cctDSJtx.s:47     .text:0000000000000028 .L0 
     /tmp/cctDSJtx.s:48     .text:000000000000002c .L0 
     /tmp/cctDSJtx.s:51     .text:0000000000000034 .L0 
     /tmp/cctDSJtx.s:52     .text:0000000000000034 .L0 
     /tmp/cctDSJtx.s:54     .text:0000000000000038 .L0 
     /tmp/cctDSJtx.s:56     .text:0000000000000038 .L0 
     /tmp/cctDSJtx.s:57     .text:0000000000000038 .L0 
     /tmp/cctDSJtx.s:60     .text:0000000000000040 .L0 
     /tmp/cctDSJtx.s:61     .text:0000000000000044 .L0 
     /tmp/cctDSJtx.s:63     .text:0000000000000048 .L0 
     /tmp/cctDSJtx.s:64     .text:0000000000000048 .L0 
     /tmp/cctDSJtx.s:66     .text:000000000000004c .L0 
     /tmp/cctDSJtx.s:68     .text:0000000000000050 .L0 
     /tmp/cctDSJtx.s:74     .text:0000000000000050 _ZN6Thread5startEv
     /tmp/cctDSJtx.s:77     .text:0000000000000050 .L0 
     /tmp/cctDSJtx.s:79     .text:0000000000000050 .L0 
     /tmp/cctDSJtx.s:80     .text:0000000000000054 .L0 
     /tmp/cctDSJtx.s:82     .text:0000000000000058 .L0 
     /tmp/cctDSJtx.s:84     .text:000000000000005c .L0 
     /tmp/cctDSJtx.s:86     .text:000000000000005c .L0 
     /tmp/cctDSJtx.s:87     .text:0000000000000060 .L0 
     /tmp/cctDSJtx.s:88     .text:0000000000000060 .L0 
     /tmp/cctDSJtx.s:90     .text:0000000000000064 .L0 
     /tmp/cctDSJtx.s:92     .text:0000000000000068 .L0 
     /tmp/cctDSJtx.s:98     .text:0000000000000068 _ZN6Thread8dispatchEv
     /tmp/cctDSJtx.s:101    .text:0000000000000068 .L0 
     /tmp/cctDSJtx.s:102    .text:0000000000000068 .L0 
     /tmp/cctDSJtx.s:103    .text:000000000000006c .L0 
     /tmp/cctDSJtx.s:105    .text:0000000000000070 .L0 
     /tmp/cctDSJtx.s:107    .text:0000000000000074 .L0 
     /tmp/cctDSJtx.s:109    .text:0000000000000074 .L0 
     /tmp/cctDSJtx.s:110    .text:0000000000000078 .L0 
     /tmp/cctDSJtx.s:111    .text:0000000000000078 .L0 
     /tmp/cctDSJtx.s:113    .text:000000000000007c .L0 
     /tmp/cctDSJtx.s:115    .text:0000000000000080 .L0 
     /tmp/cctDSJtx.s:121    .text:0000000000000080 _ZN6Thread5sleepEm
     /tmp/cctDSJtx.s:124    .text:0000000000000080 .L0 
     /tmp/cctDSJtx.s:126    .text:0000000000000080 .L0 
GAS LISTING /tmp/cctDSJtx.s 			page 6


     /tmp/cctDSJtx.s:127    .text:0000000000000084 .L0 
     /tmp/cctDSJtx.s:130    .text:000000000000008c .L0 
     /tmp/cctDSJtx.s:131    .text:000000000000008c .L0 
     /tmp/cctDSJtx.s:133    .text:0000000000000090 .L0 
     /tmp/cctDSJtx.s:135    .text:0000000000000090 .L0 
     /tmp/cctDSJtx.s:136    .text:0000000000000090 .L0 
     /tmp/cctDSJtx.s:139    .text:0000000000000098 .L0 
     /tmp/cctDSJtx.s:140    .text:000000000000009c .L0 
     /tmp/cctDSJtx.s:142    .text:00000000000000a0 .L0 
     /tmp/cctDSJtx.s:143    .text:00000000000000a0 .L0 
     /tmp/cctDSJtx.s:145    .text:00000000000000a4 .L0 
     /tmp/cctDSJtx.s:147    .text:00000000000000a8 .L0 
     /tmp/cctDSJtx.s:155    .text:00000000000000a8 .L0 
     /tmp/cctDSJtx.s:765    .debug_abbrev:0000000000000000 .Ldebug_abbrev0
     /tmp/cctDSJtx.s:1553   .debug_str:00000000000000e7 .LASF59
     /tmp/cctDSJtx.s:1631   .debug_str:0000000000000356 .LASF60
     /tmp/cctDSJtx.s:1547   .debug_str:00000000000000a7 .LASF61
     /tmp/cctDSJtx.s:5      .text:0000000000000000 .Ltext0
     /tmp/cctDSJtx.s:150    .text:00000000000000a8 .Letext0
     /tmp/cctDSJtx.s:1525   .debug_line:0000000000000000 .Ldebug_line0
     /tmp/cctDSJtx.s:1601   .debug_str:00000000000002a7 .LASF0
     /tmp/cctDSJtx.s:1611   .debug_str:00000000000002ce .LASF1
     /tmp/cctDSJtx.s:1595   .debug_str:000000000000027a .LASF2
     /tmp/cctDSJtx.s:1577   .debug_str:0000000000000225 .LASF4
     /tmp/cctDSJtx.s:1635   .debug_str:0000000000000380 .LASF3
     /tmp/cctDSJtx.s:1533   .debug_str:000000000000002f .LASF5
     /tmp/cctDSJtx.s:1551   .debug_str:00000000000000e0 .LASF6
     /tmp/cctDSJtx.s:1613   .debug_str:00000000000002e1 .LASF7
     /tmp/cctDSJtx.s:1599   .debug_str:0000000000000294 .LASF8
     /tmp/cctDSJtx.s:1653   .debug_str:00000000000003ef .LASF9
     /tmp/cctDSJtx.s:1569   .debug_str:00000000000001e1 .LASF10
     /tmp/cctDSJtx.s:1621   .debug_str:000000000000031d .LASF11
     /tmp/cctDSJtx.s:1649   .debug_str:00000000000003d9 .LASF12
     /tmp/cctDSJtx.s:1537   .debug_str:000000000000003c .LASF13
     /tmp/cctDSJtx.s:1527   .debug_str:0000000000000000 .LASF14
     /tmp/cctDSJtx.s:1541   .debug_str:0000000000000074 .LASF15
     /tmp/cctDSJtx.s:1633   .debug_str:000000000000036a .LASF16
     /tmp/cctDSJtx.s:1549   .debug_str:00000000000000ca .LASF17
     /tmp/cctDSJtx.s:1529   .debug_str:0000000000000010 .LASF37
     /tmp/cctDSJtx.s:1535   .debug_str:0000000000000036 .LASF18
     /tmp/cctDSJtx.s:1543   .debug_str:0000000000000080 .LASF62
     /tmp/cctDSJtx.s:1629   .debug_str:0000000000000351 .LASF63
     /tmp/cctDSJtx.s:1609   .debug_str:00000000000002c8 .LASF19
     /tmp/cctDSJtx.s:1575   .debug_str:0000000000000215 .LASF26
     /tmp/cctDSJtx.s:1603   .debug_str:00000000000002b4 .LASF46
     /tmp/cctDSJtx.s:1573   .debug_str:0000000000000202 .LASF47
     /tmp/cctDSJtx.s:1607   .debug_str:00000000000002c2 .LASF30
     /tmp/cctDSJtx.s:1587   .debug_str:0000000000000250 .LASF32
     /tmp/cctDSJtx.s:1559   .debug_str:000000000000019c .LASF23
     /tmp/cctDSJtx.s:1585   .debug_str:0000000000000242 .LASF20
     /tmp/cctDSJtx.s:1555   .debug_str:0000000000000189 .LASF21
     /tmp/cctDSJtx.s:1545   .debug_str:0000000000000097 .LASF22
     /tmp/cctDSJtx.s:1637   .debug_str:0000000000000392 .LASF24
     /tmp/cctDSJtx.s:1591   .debug_str:0000000000000266 .LASF52
     /tmp/cctDSJtx.s:1619   .debug_str:0000000000000305 .LASF53
     /tmp/cctDSJtx.s:1597   .debug_str:0000000000000288 .LASF25
     /tmp/cctDSJtx.s:1531   .debug_str:0000000000000018 .LASF27
GAS LISTING /tmp/cctDSJtx.s 			page 7


     /tmp/cctDSJtx.s:1661   .debug_str:000000000000041c .LASF28
     /tmp/cctDSJtx.s:1615   .debug_str:00000000000002f4 .LASF29
     /tmp/cctDSJtx.s:1641   .debug_str:00000000000003ad .LASF31
     /tmp/cctDSJtx.s:1643   .debug_str:00000000000003bd .LASF33
     /tmp/cctDSJtx.s:1647   .debug_str:00000000000003cf .LASF34
     /tmp/cctDSJtx.s:1657   .debug_str:0000000000000404 .LASF64
     /tmp/cctDSJtx.s:1539   .debug_str:000000000000004c .LASF65
     /tmp/cctDSJtx.s:1557   .debug_str:0000000000000195 .LASF66
     /tmp/cctDSJtx.s:1663   .debug_str:0000000000000429 .LASF67
     /tmp/cctDSJtx.s:1581   .debug_str:0000000000000235 .LASF35
     /tmp/cctDSJtx.s:1605   .debug_str:00000000000002bd .LASF36
     /tmp/cctDSJtx.s:1583   .debug_str:000000000000023a .LASF38
     /tmp/cctDSJtx.s:1659   .debug_str:0000000000000412 .LASF39
     /tmp/cctDSJtx.s:1579   .debug_str:000000000000022c .LASF40
     /tmp/cctDSJtx.s:1617   .debug_str:0000000000000300 .LASF41
     /tmp/cctDSJtx.s:1561   .debug_str:00000000000001a4 .LASF42
     /tmp/cctDSJtx.s:1651   .debug_str:00000000000003e8 .LASF43
     /tmp/cctDSJtx.s:1623   .debug_str:000000000000032c .LASF44
     /tmp/cctDSJtx.s:1565   .debug_str:00000000000001bf .LASF45
     /tmp/cctDSJtx.s:1563   .debug_str:00000000000001a9 .LASF48
     /tmp/cctDSJtx.s:1571   .debug_str:00000000000001ef .LASF49
     /tmp/cctDSJtx.s:1567   .debug_str:00000000000001d2 .LASF50
     /tmp/cctDSJtx.s:1665   .debug_str:000000000000043a .LASF51
     /tmp/cctDSJtx.s:122    .text:0000000000000080 .LFB27
     /tmp/cctDSJtx.s:148    .text:00000000000000a8 .LFE27
     /tmp/cctDSJtx.s:1655   .debug_str:00000000000003ff .LASF55
     /tmp/cctDSJtx.s:1470   .debug_loc:0000000000000000 .LLST2
     /tmp/cctDSJtx.s:137    .text:0000000000000098 .LVL6
     /tmp/cctDSJtx.s:99     .text:0000000000000068 .LFB26
     /tmp/cctDSJtx.s:116    .text:0000000000000080 .LFE26
     /tmp/cctDSJtx.s:75     .text:0000000000000050 .LFB25
     /tmp/cctDSJtx.s:93     .text:0000000000000068 .LFE25
     /tmp/cctDSJtx.s:1627   .debug_str:000000000000034c .LASF68
     /tmp/cctDSJtx.s:1593   .debug_str:0000000000000273 .LASF54
     /tmp/cctDSJtx.s:43     .text:0000000000000028 .LFB24
     /tmp/cctDSJtx.s:69     .text:0000000000000050 .LFE24
     /tmp/cctDSJtx.s:1484   .debug_loc:0000000000000039 .LLST1
     /tmp/cctDSJtx.s:58     .text:0000000000000040 .LVL3
     /tmp/cctDSJtx.s:1589   .debug_str:0000000000000260 .LASF69
     /tmp/cctDSJtx.s:10     .text:0000000000000000 .LFB23
     /tmp/cctDSJtx.s:37     .text:0000000000000028 .LFE23
     /tmp/cctDSJtx.s:1645   .debug_str:00000000000003ca .LASF56
     /tmp/cctDSJtx.s:1498   .debug_loc:0000000000000072 .LLST0
     /tmp/cctDSJtx.s:26     .text:0000000000000018 .LVL1
     /tmp/cctDSJtx.s:1625   .debug_str:0000000000000343 .LASF57
     /tmp/cctDSJtx.s:1639   .debug_str:00000000000003a3 .LASF58
     /tmp/cctDSJtx.s:125    .text:0000000000000080 .LVL5
     /tmp/cctDSJtx.s:46     .text:0000000000000028 .LVL2
     /tmp/cctDSJtx.s:14     .text:0000000000000000 .LVL0
     /tmp/cctDSJtx.s:156    .debug_info:0000000000000000 .Ldebug_info0

UNDEFINED SYMBOLS
mem_alloc
mem_free
_ZN3PCB5sleepEm
