GAS LISTING /tmp/ccrfekkw.s 			page 1


   1              		.file	"syscall_cpp.cpp"
   2              		.option pic
   3              		.option norelax
   4              		.text
   5              	.Ltext0:
   6              		.align	2
   7              		.globl	_Znwm
   9              	_Znwm:
  10              	.LFB19:
  11              		.file 1 "src/syscall_cpp.cpp"
   1:src/syscall_cpp.cpp **** //
   2:src/syscall_cpp.cpp **** // Created by os on 4/8/22.
   3:src/syscall_cpp.cpp **** //
   4:src/syscall_cpp.cpp **** 
   5:src/syscall_cpp.cpp **** #include "../h/syscall_cpp.h"
   6:src/syscall_cpp.cpp **** 
   7:src/syscall_cpp.cpp **** //general
   8:src/syscall_cpp.cpp **** void * operator new(size_t size)
   9:src/syscall_cpp.cpp **** {
  12              		.loc 1 9 1
  13              		.cfi_startproc
  14              	.LVL0:
  15 0000 130101FF 		addi	sp,sp,-16
  16              		.cfi_def_cfa_offset 16
  17 0004 23341100 		sd	ra,8(sp)
  18 0008 23308100 		sd	s0,0(sp)
  19              		.cfi_offset 1, -8
  20              		.cfi_offset 8, -16
  21 000c 13040101 		addi	s0,sp,16
  22              		.cfi_def_cfa 8, 0
  10:src/syscall_cpp.cpp ****     return mem_alloc(size);
  23              		.loc 1 10 5
  24              		.loc 1 10 21 is_stmt 0
  25 0010 97000000 		call	mem_alloc@plt
  25      E7800000 
  26              	.LVL1:
  11:src/syscall_cpp.cpp **** }
  27              		.loc 1 11 1
  28 0018 83308100 		ld	ra,8(sp)
  29              		.cfi_restore 1
  30 001c 03340100 		ld	s0,0(sp)
  31              		.cfi_restore 8
  32              		.cfi_def_cfa 2, 16
  33 0020 13010101 		addi	sp,sp,16
  34              		.cfi_def_cfa_offset 0
  35 0024 67800000 		jr	ra
  36              		.cfi_endproc
  37              	.LFE19:
  39              		.align	2
  40              		.globl	_ZdlPv
  42              	_ZdlPv:
  43              	.LFB20:
  12:src/syscall_cpp.cpp **** 
  13:src/syscall_cpp.cpp **** void operator delete(void * p)
  14:src/syscall_cpp.cpp **** {
  44              		.loc 1 14 1 is_stmt 1
  45              		.cfi_startproc
GAS LISTING /tmp/ccrfekkw.s 			page 2


  46              	.LVL2:
  47 0028 130101FF 		addi	sp,sp,-16
  48              		.cfi_def_cfa_offset 16
  49 002c 23341100 		sd	ra,8(sp)
  50 0030 23308100 		sd	s0,0(sp)
  51              		.cfi_offset 1, -8
  52              		.cfi_offset 8, -16
  53 0034 13040101 		addi	s0,sp,16
  54              		.cfi_def_cfa 8, 0
  15:src/syscall_cpp.cpp ****    mem_free(p);
  55              		.loc 1 15 4
  56              		.loc 1 15 12 is_stmt 0
  57 0038 97000000 		call	mem_free@plt
  57      E7800000 
  58              	.LVL3:
  16:src/syscall_cpp.cpp **** }
  59              		.loc 1 16 1
  60 0040 83308100 		ld	ra,8(sp)
  61              		.cfi_restore 1
  62 0044 03340100 		ld	s0,0(sp)
  63              		.cfi_restore 8
  64              		.cfi_def_cfa 2, 16
  65 0048 13010101 		addi	sp,sp,16
  66              		.cfi_def_cfa_offset 0
  67 004c 67800000 		jr	ra
  68              		.cfi_endproc
  69              	.LFE20:
  71              		.align	2
  72              		.globl	_ZN6Thread5startEv
  74              	_ZN6Thread5startEv:
  75              	.LFB21:
  17:src/syscall_cpp.cpp **** 
  18:src/syscall_cpp.cpp **** //Thread
  19:src/syscall_cpp.cpp **** 
  20:src/syscall_cpp.cpp **** //todo
  21:src/syscall_cpp.cpp **** //diskusija u os1 proj sheet-u
  22:src/syscall_cpp.cpp **** void Thread::start() {
  76              		.loc 1 22 22 is_stmt 1
  77              		.cfi_startproc
  78              	.LVL4:
  79 0050 130101FF 		addi	sp,sp,-16
  80              		.cfi_def_cfa_offset 16
  81 0054 23348100 		sd	s0,8(sp)
  82              		.cfi_offset 8, -8
  83 0058 13040101 		addi	s0,sp,16
  84              		.cfi_def_cfa 8, 0
  23:src/syscall_cpp.cpp **** 
  24:src/syscall_cpp.cpp **** }
  85              		.loc 1 24 1 is_stmt 0
  86 005c 03348100 		ld	s0,8(sp)
  87              		.cfi_restore 8
  88              		.cfi_def_cfa 2, 16
  89 0060 13010101 		addi	sp,sp,16
  90              		.cfi_def_cfa_offset 0
  91 0064 67800000 		jr	ra
  92              		.cfi_endproc
  93              	.LFE21:
GAS LISTING /tmp/ccrfekkw.s 			page 3


  95              		.align	2
  96              		.globl	_ZN6Thread8dispatchEv
  98              	_ZN6Thread8dispatchEv:
  99              	.LFB22:
  25:src/syscall_cpp.cpp **** 
  26:src/syscall_cpp.cpp **** void Thread::dispatch() {
 100              		.loc 1 26 25 is_stmt 1
 101              		.cfi_startproc
 102 0068 130101FF 		addi	sp,sp,-16
 103              		.cfi_def_cfa_offset 16
 104 006c 23341100 		sd	ra,8(sp)
 105 0070 23308100 		sd	s0,0(sp)
 106              		.cfi_offset 1, -8
 107              		.cfi_offset 8, -16
 108 0074 13040101 		addi	s0,sp,16
 109              		.cfi_def_cfa 8, 0
  27:src/syscall_cpp.cpp ****     thread_dispatch();
 110              		.loc 1 27 5
 111              		.loc 1 27 20 is_stmt 0
 112 0078 97000000 		call	thread_dispatch@plt
 112      E7800000 
 113              	.LVL5:
  28:src/syscall_cpp.cpp **** }
 114              		.loc 1 28 1
 115 0080 83308100 		ld	ra,8(sp)
 116              		.cfi_restore 1
 117 0084 03340100 		ld	s0,0(sp)
 118              		.cfi_restore 8
 119              		.cfi_def_cfa 2, 16
 120 0088 13010101 		addi	sp,sp,16
 121              		.cfi_def_cfa_offset 0
 122 008c 67800000 		jr	ra
 123              		.cfi_endproc
 124              	.LFE22:
 126              		.align	2
 127              		.globl	_ZN6Thread5sleepEm
 129              	_ZN6Thread5sleepEm:
 130              	.LFB23:
  29:src/syscall_cpp.cpp **** 
  30:src/syscall_cpp.cpp **** void Thread::sleep(time_t time) {
 131              		.loc 1 30 33 is_stmt 1
 132              		.cfi_startproc
 133              	.LVL6:
 134 0090 130101FF 		addi	sp,sp,-16
 135              		.cfi_def_cfa_offset 16
 136 0094 23341100 		sd	ra,8(sp)
 137 0098 23308100 		sd	s0,0(sp)
 138              		.cfi_offset 1, -8
 139              		.cfi_offset 8, -16
 140 009c 13040101 		addi	s0,sp,16
 141              		.cfi_def_cfa 8, 0
  31:src/syscall_cpp.cpp ****     PCB::sleep(time);
 142              		.loc 1 31 5
 143              		.loc 1 31 15 is_stmt 0
 144 00a0 97000000 		call	_ZN3PCB5sleepEm@plt
 144      E7800000 
 145              	.LVL7:
GAS LISTING /tmp/ccrfekkw.s 			page 4


  32:src/syscall_cpp.cpp **** }
 146              		.loc 1 32 1
 147 00a8 83308100 		ld	ra,8(sp)
 148              		.cfi_restore 1
 149 00ac 03340100 		ld	s0,0(sp)
 150              		.cfi_restore 8
 151              		.cfi_def_cfa 2, 16
 152 00b0 13010101 		addi	sp,sp,16
 153              		.cfi_def_cfa_offset 0
 154 00b4 67800000 		jr	ra
 155              		.cfi_endproc
 156              	.LFE23:
 158              		.align	2
 159              		.globl	_ZN6ThreadC2EPFvPvES0_
 161              	_ZN6ThreadC2EPFvPvES0_:
 162              	.LFB25:
  33:src/syscall_cpp.cpp **** 
  34:src/syscall_cpp.cpp **** Thread::Thread(void (*body)(void *), void *args) {
 163              		.loc 1 34 1 is_stmt 1
 164              		.cfi_startproc
 165              	.LVL8:
 166 00b8 130101FF 		addi	sp,sp,-16
 167              		.cfi_def_cfa_offset 16
 168 00bc 23341100 		sd	ra,8(sp)
 169 00c0 23308100 		sd	s0,0(sp)
 170              		.cfi_offset 1, -8
 171              		.cfi_offset 8, -16
 172 00c4 13040101 		addi	s0,sp,16
 173              		.cfi_def_cfa 8, 0
 174              	.LBB2:
  35:src/syscall_cpp.cpp ****     int retval = thread_create((void**)&myHandle, body, args);
 175              		.loc 1 35 5
 176              		.loc 1 35 31 is_stmt 0
 177 00c8 97000000 		call	thread_create@plt
 177      E7800000 
 178              	.LVL9:
  36:src/syscall_cpp.cpp ****     if(retval != 0)
 179              		.loc 1 36 5 is_stmt 1
 180              	.LBE2:
  37:src/syscall_cpp.cpp ****     {
  38:src/syscall_cpp.cpp ****         //todo
  39:src/syscall_cpp.cpp ****         //what then
  40:src/syscall_cpp.cpp ****     }
  41:src/syscall_cpp.cpp **** }
 181              		.loc 1 41 1 is_stmt 0
 182 00d0 83308100 		ld	ra,8(sp)
 183              		.cfi_restore 1
 184 00d4 03340100 		ld	s0,0(sp)
 185              		.cfi_restore 8
 186              		.cfi_def_cfa 2, 16
 187 00d8 13010101 		addi	sp,sp,16
 188              		.cfi_def_cfa_offset 0
 189 00dc 67800000 		jr	ra
 190              		.cfi_endproc
 191              	.LFE25:
 193              		.globl	_ZN6ThreadC1EPFvPvES0_
 194              		.set	_ZN6ThreadC1EPFvPvES0_,_ZN6ThreadC2EPFvPvES0_
GAS LISTING /tmp/ccrfekkw.s 			page 5


 195              		.align	2
 196              		.globl	_ZN6ThreadC2Ev
 198              	_ZN6ThreadC2Ev:
 199              	.LFB28:
  42:src/syscall_cpp.cpp **** 
  43:src/syscall_cpp.cpp **** Thread::Thread() {
 200              		.loc 1 43 1 is_stmt 1
 201              		.cfi_startproc
 202              	.LVL10:
 203 00e0 130101FF 		addi	sp,sp,-16
 204              		.cfi_def_cfa_offset 16
 205 00e4 23348100 		sd	s0,8(sp)
 206              		.cfi_offset 8, -8
 207 00e8 13040101 		addi	s0,sp,16
 208              		.cfi_def_cfa 8, 0
  44:src/syscall_cpp.cpp **** 
  45:src/syscall_cpp.cpp **** }
 209              		.loc 1 45 1 is_stmt 0
 210 00ec 03348100 		ld	s0,8(sp)
 211              		.cfi_restore 8
 212              		.cfi_def_cfa 2, 16
 213 00f0 13010101 		addi	sp,sp,16
 214              		.cfi_def_cfa_offset 0
 215 00f4 67800000 		jr	ra
 216              		.cfi_endproc
 217              	.LFE28:
 219              		.globl	_ZN6ThreadC1Ev
 220              		.set	_ZN6ThreadC1Ev,_ZN6ThreadC2Ev
 221              		.align	2
 222              		.globl	_ZN9Semaphore4waitEv
 224              	_ZN9Semaphore4waitEv:
 225              	.LFB30:
  46:src/syscall_cpp.cpp **** 
  47:src/syscall_cpp.cpp **** void Semaphore::wait() {
 226              		.loc 1 47 24 is_stmt 1
 227              		.cfi_startproc
 228              	.LVL11:
 229 00f8 130101FF 		addi	sp,sp,-16
 230              		.cfi_def_cfa_offset 16
 231 00fc 23348100 		sd	s0,8(sp)
 232              		.cfi_offset 8, -8
 233 0100 13040101 		addi	s0,sp,16
 234              		.cfi_def_cfa 8, 0
  48:src/syscall_cpp.cpp **** 
  49:src/syscall_cpp.cpp **** }
 235              		.loc 1 49 1 is_stmt 0
 236 0104 03348100 		ld	s0,8(sp)
 237              		.cfi_restore 8
 238              		.cfi_def_cfa 2, 16
 239 0108 13010101 		addi	sp,sp,16
 240              		.cfi_def_cfa_offset 0
 241 010c 67800000 		jr	ra
 242              		.cfi_endproc
 243              	.LFE30:
 245              	.Letext0:
 246              		.file 2 "src/../h/../lib/hw.h"
 247              		.file 3 "src/../h/PCB.h"
GAS LISTING /tmp/ccrfekkw.s 			page 6


 248              		.file 4 "src/../h/syscall_cpp.h"
 249              		.file 5 "src/../h/syscall_c.h"
GAS LISTING /tmp/ccrfekkw.s 			page 7


DEFINED SYMBOLS
                            *ABS*:0000000000000000 syscall_cpp.cpp
     /tmp/ccrfekkw.s:9      .text:0000000000000000 _Znwm
     /tmp/ccrfekkw.s:13     .text:0000000000000000 .L0 
     /tmp/ccrfekkw.s:15     .text:0000000000000000 .L0 
     /tmp/ccrfekkw.s:16     .text:0000000000000004 .L0 
     /tmp/ccrfekkw.s:19     .text:000000000000000c .L0 
     /tmp/ccrfekkw.s:20     .text:000000000000000c .L0 
     /tmp/ccrfekkw.s:22     .text:0000000000000010 .L0 
     /tmp/ccrfekkw.s:24     .text:0000000000000010 .L0 
     /tmp/ccrfekkw.s:25     .text:0000000000000010 .L0 
     /tmp/ccrfekkw.s:28     .text:0000000000000018 .L0 
     /tmp/ccrfekkw.s:29     .text:000000000000001c .L0 
     /tmp/ccrfekkw.s:31     .text:0000000000000020 .L0 
     /tmp/ccrfekkw.s:32     .text:0000000000000020 .L0 
     /tmp/ccrfekkw.s:34     .text:0000000000000024 .L0 
     /tmp/ccrfekkw.s:36     .text:0000000000000028 .L0 
     /tmp/ccrfekkw.s:42     .text:0000000000000028 _ZdlPv
     /tmp/ccrfekkw.s:45     .text:0000000000000028 .L0 
     /tmp/ccrfekkw.s:47     .text:0000000000000028 .L0 
     /tmp/ccrfekkw.s:48     .text:000000000000002c .L0 
     /tmp/ccrfekkw.s:51     .text:0000000000000034 .L0 
     /tmp/ccrfekkw.s:52     .text:0000000000000034 .L0 
     /tmp/ccrfekkw.s:54     .text:0000000000000038 .L0 
     /tmp/ccrfekkw.s:56     .text:0000000000000038 .L0 
     /tmp/ccrfekkw.s:57     .text:0000000000000038 .L0 
     /tmp/ccrfekkw.s:60     .text:0000000000000040 .L0 
     /tmp/ccrfekkw.s:61     .text:0000000000000044 .L0 
     /tmp/ccrfekkw.s:63     .text:0000000000000048 .L0 
     /tmp/ccrfekkw.s:64     .text:0000000000000048 .L0 
     /tmp/ccrfekkw.s:66     .text:000000000000004c .L0 
     /tmp/ccrfekkw.s:68     .text:0000000000000050 .L0 
     /tmp/ccrfekkw.s:74     .text:0000000000000050 _ZN6Thread5startEv
     /tmp/ccrfekkw.s:77     .text:0000000000000050 .L0 
     /tmp/ccrfekkw.s:79     .text:0000000000000050 .L0 
     /tmp/ccrfekkw.s:80     .text:0000000000000054 .L0 
     /tmp/ccrfekkw.s:82     .text:0000000000000058 .L0 
     /tmp/ccrfekkw.s:84     .text:000000000000005c .L0 
     /tmp/ccrfekkw.s:86     .text:000000000000005c .L0 
     /tmp/ccrfekkw.s:87     .text:0000000000000060 .L0 
     /tmp/ccrfekkw.s:88     .text:0000000000000060 .L0 
     /tmp/ccrfekkw.s:90     .text:0000000000000064 .L0 
     /tmp/ccrfekkw.s:92     .text:0000000000000068 .L0 
     /tmp/ccrfekkw.s:98     .text:0000000000000068 _ZN6Thread8dispatchEv
     /tmp/ccrfekkw.s:101    .text:0000000000000068 .L0 
     /tmp/ccrfekkw.s:102    .text:0000000000000068 .L0 
     /tmp/ccrfekkw.s:103    .text:000000000000006c .L0 
     /tmp/ccrfekkw.s:106    .text:0000000000000074 .L0 
     /tmp/ccrfekkw.s:107    .text:0000000000000074 .L0 
     /tmp/ccrfekkw.s:109    .text:0000000000000078 .L0 
     /tmp/ccrfekkw.s:111    .text:0000000000000078 .L0 
     /tmp/ccrfekkw.s:112    .text:0000000000000078 .L0 
     /tmp/ccrfekkw.s:115    .text:0000000000000080 .L0 
     /tmp/ccrfekkw.s:116    .text:0000000000000084 .L0 
     /tmp/ccrfekkw.s:118    .text:0000000000000088 .L0 
     /tmp/ccrfekkw.s:119    .text:0000000000000088 .L0 
     /tmp/ccrfekkw.s:121    .text:000000000000008c .L0 
GAS LISTING /tmp/ccrfekkw.s 			page 8


     /tmp/ccrfekkw.s:123    .text:0000000000000090 .L0 
     /tmp/ccrfekkw.s:129    .text:0000000000000090 _ZN6Thread5sleepEm
     /tmp/ccrfekkw.s:132    .text:0000000000000090 .L0 
     /tmp/ccrfekkw.s:134    .text:0000000000000090 .L0 
     /tmp/ccrfekkw.s:135    .text:0000000000000094 .L0 
     /tmp/ccrfekkw.s:138    .text:000000000000009c .L0 
     /tmp/ccrfekkw.s:139    .text:000000000000009c .L0 
     /tmp/ccrfekkw.s:141    .text:00000000000000a0 .L0 
     /tmp/ccrfekkw.s:143    .text:00000000000000a0 .L0 
     /tmp/ccrfekkw.s:144    .text:00000000000000a0 .L0 
     /tmp/ccrfekkw.s:147    .text:00000000000000a8 .L0 
     /tmp/ccrfekkw.s:148    .text:00000000000000ac .L0 
     /tmp/ccrfekkw.s:150    .text:00000000000000b0 .L0 
     /tmp/ccrfekkw.s:151    .text:00000000000000b0 .L0 
     /tmp/ccrfekkw.s:153    .text:00000000000000b4 .L0 
     /tmp/ccrfekkw.s:155    .text:00000000000000b8 .L0 
     /tmp/ccrfekkw.s:161    .text:00000000000000b8 _ZN6ThreadC2EPFvPvES0_
     /tmp/ccrfekkw.s:164    .text:00000000000000b8 .L0 
     /tmp/ccrfekkw.s:166    .text:00000000000000b8 .L0 
     /tmp/ccrfekkw.s:167    .text:00000000000000bc .L0 
     /tmp/ccrfekkw.s:170    .text:00000000000000c4 .L0 
     /tmp/ccrfekkw.s:171    .text:00000000000000c4 .L0 
     /tmp/ccrfekkw.s:173    .text:00000000000000c8 .L0 
     /tmp/ccrfekkw.s:176    .text:00000000000000c8 .L0 
     /tmp/ccrfekkw.s:177    .text:00000000000000c8 .L0 
     /tmp/ccrfekkw.s:181    .text:00000000000000d0 .L0 
     /tmp/ccrfekkw.s:182    .text:00000000000000d0 .L0 
     /tmp/ccrfekkw.s:183    .text:00000000000000d4 .L0 
     /tmp/ccrfekkw.s:185    .text:00000000000000d8 .L0 
     /tmp/ccrfekkw.s:186    .text:00000000000000d8 .L0 
     /tmp/ccrfekkw.s:188    .text:00000000000000dc .L0 
     /tmp/ccrfekkw.s:190    .text:00000000000000e0 .L0 
     /tmp/ccrfekkw.s:161    .text:00000000000000b8 _ZN6ThreadC1EPFvPvES0_
     /tmp/ccrfekkw.s:198    .text:00000000000000e0 _ZN6ThreadC2Ev
     /tmp/ccrfekkw.s:201    .text:00000000000000e0 .L0 
     /tmp/ccrfekkw.s:203    .text:00000000000000e0 .L0 
     /tmp/ccrfekkw.s:204    .text:00000000000000e4 .L0 
     /tmp/ccrfekkw.s:206    .text:00000000000000e8 .L0 
     /tmp/ccrfekkw.s:208    .text:00000000000000ec .L0 
     /tmp/ccrfekkw.s:210    .text:00000000000000ec .L0 
     /tmp/ccrfekkw.s:211    .text:00000000000000f0 .L0 
     /tmp/ccrfekkw.s:212    .text:00000000000000f0 .L0 
     /tmp/ccrfekkw.s:214    .text:00000000000000f4 .L0 
     /tmp/ccrfekkw.s:216    .text:00000000000000f8 .L0 
     /tmp/ccrfekkw.s:198    .text:00000000000000e0 _ZN6ThreadC1Ev
     /tmp/ccrfekkw.s:224    .text:00000000000000f8 _ZN9Semaphore4waitEv
     /tmp/ccrfekkw.s:227    .text:00000000000000f8 .L0 
     /tmp/ccrfekkw.s:229    .text:00000000000000f8 .L0 
     /tmp/ccrfekkw.s:230    .text:00000000000000fc .L0 
     /tmp/ccrfekkw.s:232    .text:0000000000000100 .L0 
     /tmp/ccrfekkw.s:234    .text:0000000000000104 .L0 
     /tmp/ccrfekkw.s:236    .text:0000000000000104 .L0 
     /tmp/ccrfekkw.s:237    .text:0000000000000108 .L0 
     /tmp/ccrfekkw.s:238    .text:0000000000000108 .L0 
     /tmp/ccrfekkw.s:240    .text:000000000000010c .L0 
     /tmp/ccrfekkw.s:242    .text:0000000000000110 .L0 
     /tmp/ccrfekkw.s:250    .text:0000000000000110 .L0 
GAS LISTING /tmp/ccrfekkw.s 			page 9


     /tmp/ccrfekkw.s:1059   .debug_abbrev:0000000000000000 .Ldebug_abbrev0
     /tmp/ccrfekkw.s:2193   .debug_str:0000000000000234 .LASF70
     /tmp/ccrfekkw.s:2173   .debug_str:00000000000001a4 .LASF71
     /tmp/ccrfekkw.s:2255   .debug_str:000000000000045e .LASF72
     /tmp/ccrfekkw.s:5      .text:0000000000000000 .Ltext0
     /tmp/ccrfekkw.s:245    .text:0000000000000110 .Letext0
     /tmp/ccrfekkw.s:2105   .debug_line:0000000000000000 .Ldebug_line0
     /tmp/ccrfekkw.s:2167   .debug_str:0000000000000181 .LASF0
     /tmp/ccrfekkw.s:2181   .debug_str:00000000000001e2 .LASF1
     /tmp/ccrfekkw.s:2215   .debug_str:0000000000000356 .LASF2
     /tmp/ccrfekkw.s:2219   .debug_str:000000000000036d .LASF4
     /tmp/ccrfekkw.s:2175   .debug_str:00000000000001b8 .LASF3
     /tmp/ccrfekkw.s:2113   .debug_str:0000000000000028 .LASF5
     /tmp/ccrfekkw.s:2209   .debug_str:0000000000000333 .LASF6
     /tmp/ccrfekkw.s:2203   .debug_str:000000000000030b .LASF7
     /tmp/ccrfekkw.s:2177   .debug_str:00000000000001ca .LASF8
     /tmp/ccrfekkw.s:2157   .debug_str:000000000000014d .LASF9
     /tmp/ccrfekkw.s:2159   .debug_str:000000000000015d .LASF10
     /tmp/ccrfekkw.s:2127   .debug_str:000000000000009a .LASF11
     /tmp/ccrfekkw.s:2153   .debug_str:0000000000000139 .LASF12
     /tmp/ccrfekkw.s:2133   .debug_str:00000000000000c8 .LASF13
     /tmp/ccrfekkw.s:2125   .debug_str:000000000000008a .LASF14
     /tmp/ccrfekkw.s:2237   .debug_str:00000000000003f3 .LASF15
     /tmp/ccrfekkw.s:2145   .debug_str:000000000000010a .LASF16
     /tmp/ccrfekkw.s:2231   .debug_str:00000000000003b3 .LASF17
     /tmp/ccrfekkw.s:2243   .debug_str:000000000000040c .LASF73
     /tmp/ccrfekkw.s:2123   .debug_str:0000000000000084 .LASF18
     /tmp/ccrfekkw.s:2225   .debug_str:000000000000038e .LASF19
     /tmp/ccrfekkw.s:2131   .debug_str:00000000000000be .LASF20
     /tmp/ccrfekkw.s:2119   .debug_str:000000000000006a .LASF21
     /tmp/ccrfekkw.s:2239   .debug_str:00000000000003ff .LASF46
     /tmp/ccrfekkw.s:2163   .debug_str:0000000000000172 .LASF22
     /tmp/ccrfekkw.s:2259   .debug_str:0000000000000489 .LASF74
     /tmp/ccrfekkw.s:2199   .debug_str:00000000000002f0 .LASF75
     /tmp/ccrfekkw.s:2265   .debug_str:00000000000004b2 .LASF23
     /tmp/ccrfekkw.s:2249   .debug_str:000000000000042d .LASF30
     /tmp/ccrfekkw.s:2139   .debug_str:00000000000000f6 .LASF53
     /tmp/ccrfekkw.s:2115   .debug_str:000000000000002f .LASF54
     /tmp/ccrfekkw.s:2183   .debug_str:00000000000001f5 .LASF32
     /tmp/ccrfekkw.s:2205   .debug_str:000000000000031e .LASF34
     /tmp/ccrfekkw.s:2245   .debug_str:0000000000000412 .LASF27
     /tmp/ccrfekkw.s:2229   .debug_str:00000000000003a5 .LASF24
     /tmp/ccrfekkw.s:2211   .debug_str:000000000000033a .LASF25
     /tmp/ccrfekkw.s:2137   .debug_str:00000000000000e6 .LASF26
     /tmp/ccrfekkw.s:2221   .debug_str:0000000000000374 .LASF28
     /tmp/ccrfekkw.s:2185   .debug_str:00000000000001fb .LASF36
     /tmp/ccrfekkw.s:2187   .debug_str:0000000000000208 .LASF38
     /tmp/ccrfekkw.s:2269   .debug_str:00000000000004bd .LASF29
     /tmp/ccrfekkw.s:2147   .debug_str:0000000000000120 .LASF31
     /tmp/ccrfekkw.s:2109   .debug_str:0000000000000005 .LASF33
     /tmp/ccrfekkw.s:2171   .debug_str:0000000000000197 .LASF35
     /tmp/ccrfekkw.s:2223   .debug_str:0000000000000385 .LASF37
     /tmp/ccrfekkw.s:2195   .debug_str:00000000000002d6 .LASF39
     /tmp/ccrfekkw.s:2217   .debug_str:0000000000000364 .LASF40
     /tmp/ccrfekkw.s:2233   .debug_str:00000000000003c9 .LASF41
     /tmp/ccrfekkw.s:2253   .debug_str:0000000000000454 .LASF42
     /tmp/ccrfekkw.s:2135   .debug_str:00000000000000d8 .LASF76
GAS LISTING /tmp/ccrfekkw.s 			page 10


     /tmp/ccrfekkw.s:2117   .debug_str:0000000000000042 .LASF77
     /tmp/ccrfekkw.s:2263   .debug_str:00000000000004ab .LASF78
     /tmp/ccrfekkw.s:2121   .debug_str:0000000000000073 .LASF79
     /tmp/ccrfekkw.s:2107   .debug_str:0000000000000000 .LASF43
     /tmp/ccrfekkw.s:2267   .debug_str:00000000000004b8 .LASF44
     /tmp/ccrfekkw.s:2143   .debug_str:0000000000000104 .LASF45
     /tmp/ccrfekkw.s:2257   .debug_str:0000000000000481 .LASF47
     /tmp/ccrfekkw.s:2189   .debug_str:0000000000000220 .LASF48
     /tmp/ccrfekkw.s:2241   .debug_str:0000000000000407 .LASF49
     /tmp/ccrfekkw.s:2161   .debug_str:000000000000016b .LASF50
     /tmp/ccrfekkw.s:2273   .debug_str:00000000000004d9 .LASF51
     /tmp/ccrfekkw.s:2111   .debug_str:0000000000000015 .LASF52
     /tmp/ccrfekkw.s:2201   .debug_str:00000000000002f5 .LASF55
     /tmp/ccrfekkw.s:2247   .debug_str:000000000000041a .LASF56
     /tmp/ccrfekkw.s:2169   .debug_str:000000000000018e .LASF80
     /tmp/ccrfekkw.s:2271   .debug_str:00000000000004ca .LASF57
     /tmp/ccrfekkw.s:2261   .debug_str:00000000000004a1 .LASF81
     /tmp/ccrfekkw.s:2141   .debug_str:00000000000000ff .LASF58
     /tmp/ccrfekkw.s:2129   .debug_str:00000000000000a9 .LASF59
     /tmp/ccrfekkw.s:225    .text:00000000000000f8 .LFB30
     /tmp/ccrfekkw.s:243    .text:0000000000000110 .LFE30
     /tmp/ccrfekkw.s:2155   .debug_str:0000000000000148 .LASF60
     /tmp/ccrfekkw.s:2227   .debug_str:0000000000000396 .LASF61
     /tmp/ccrfekkw.s:199    .text:00000000000000e0 .LFB28
     /tmp/ccrfekkw.s:217    .text:00000000000000f8 .LFE28
     /tmp/ccrfekkw.s:2149   .debug_str:000000000000012c .LASF82
     /tmp/ccrfekkw.s:2251   .debug_str:000000000000043d .LASF62
     /tmp/ccrfekkw.s:162    .text:00000000000000b8 .LFB25
     /tmp/ccrfekkw.s:191    .text:00000000000000e0 .LFE25
     /tmp/ccrfekkw.s:2008   .debug_loc:0000000000000000 .LLST3
     /tmp/ccrfekkw.s:2022   .debug_loc:0000000000000039 .LLST4
     /tmp/ccrfekkw.s:2036   .debug_loc:0000000000000072 .LLST5
     /tmp/ccrfekkw.s:178    .text:00000000000000d0 .LVL9
     /tmp/ccrfekkw.s:174    .text:00000000000000c8 .LBB2
     /tmp/ccrfekkw.s:180    .text:00000000000000d0 .LBE2
     /tmp/ccrfekkw.s:130    .text:0000000000000090 .LFB23
     /tmp/ccrfekkw.s:156    .text:00000000000000b8 .LFE23
     /tmp/ccrfekkw.s:2207   .debug_str:000000000000032e .LASF64
     /tmp/ccrfekkw.s:2050   .debug_loc:00000000000000ab .LLST2
     /tmp/ccrfekkw.s:145    .text:00000000000000a8 .LVL7
     /tmp/ccrfekkw.s:99     .text:0000000000000068 .LFB22
     /tmp/ccrfekkw.s:124    .text:0000000000000090 .LFE22
     /tmp/ccrfekkw.s:113    .text:0000000000000080 .LVL5
     /tmp/ccrfekkw.s:75     .text:0000000000000050 .LFB21
     /tmp/ccrfekkw.s:93     .text:0000000000000068 .LFE21
     /tmp/ccrfekkw.s:2197   .debug_str:00000000000002e9 .LASF63
     /tmp/ccrfekkw.s:43     .text:0000000000000028 .LFB20
     /tmp/ccrfekkw.s:69     .text:0000000000000050 .LFE20
     /tmp/ccrfekkw.s:2064   .debug_loc:00000000000000e4 .LLST1
     /tmp/ccrfekkw.s:58     .text:0000000000000040 .LVL3
     /tmp/ccrfekkw.s:2151   .debug_str:0000000000000133 .LASF83
     /tmp/ccrfekkw.s:10     .text:0000000000000000 .LFB19
     /tmp/ccrfekkw.s:37     .text:0000000000000028 .LFE19
     /tmp/ccrfekkw.s:2179   .debug_str:00000000000001dd .LASF65
     /tmp/ccrfekkw.s:2078   .debug_loc:000000000000011d .LLST0
     /tmp/ccrfekkw.s:26     .text:0000000000000018 .LVL1
     /tmp/ccrfekkw.s:2235   .debug_str:00000000000003e5 .LASF66
GAS LISTING /tmp/ccrfekkw.s 			page 11


     /tmp/ccrfekkw.s:2213   .debug_str:0000000000000346 .LASF67
     /tmp/ccrfekkw.s:2165   .debug_str:0000000000000178 .LASF68
     /tmp/ccrfekkw.s:2191   .debug_str:000000000000022a .LASF69
     /tmp/ccrfekkw.s:165    .text:00000000000000b8 .LVL8
     /tmp/ccrfekkw.s:133    .text:0000000000000090 .LVL6
     /tmp/ccrfekkw.s:46     .text:0000000000000028 .LVL2
     /tmp/ccrfekkw.s:14     .text:0000000000000000 .LVL0
     /tmp/ccrfekkw.s:251    .debug_info:0000000000000000 .Ldebug_info0

UNDEFINED SYMBOLS
mem_alloc
mem_free
thread_dispatch
_ZN3PCB5sleepEm
thread_create
