GAS LISTING /tmp/ccly251A.s 			page 1


   1              		.file	"syscall_cpp.cpp"
   2              		.option pic
   3              		.option norelax
   4              		.text
   5              	.Ltext0:
   6              		.align	2
   7              		.globl	_Znwm
   9              	_Znwm:
  10              	.LFB19:
  11              		.file 1 "src/syscall_cpp.cpp"
   1:src/syscall_cpp.cpp **** //
   2:src/syscall_cpp.cpp **** // Created by os on 4/8/22.
   3:src/syscall_cpp.cpp **** //
   4:src/syscall_cpp.cpp **** 
   5:src/syscall_cpp.cpp **** #include "../h/syscall_cpp.h"
   6:src/syscall_cpp.cpp **** 
   7:src/syscall_cpp.cpp **** //general
   8:src/syscall_cpp.cpp **** void * operator new(size_t size)
   9:src/syscall_cpp.cpp **** {
  12              		.loc 1 9 1
  13              		.cfi_startproc
  14              	.LVL0:
  15 0000 130101FF 		addi	sp,sp,-16
  16              		.cfi_def_cfa_offset 16
  17 0004 23341100 		sd	ra,8(sp)
  18 0008 23308100 		sd	s0,0(sp)
  19              		.cfi_offset 1, -8
  20              		.cfi_offset 8, -16
  21 000c 13040101 		addi	s0,sp,16
  22              		.cfi_def_cfa 8, 0
  10:src/syscall_cpp.cpp ****     return mem_alloc(size);
  23              		.loc 1 10 5
  24              		.loc 1 10 21 is_stmt 0
  25 0010 97000000 		call	mem_alloc@plt
  25      E7800000 
  26              	.LVL1:
  11:src/syscall_cpp.cpp **** }
  27              		.loc 1 11 1
  28 0018 83308100 		ld	ra,8(sp)
  29              		.cfi_restore 1
  30 001c 03340100 		ld	s0,0(sp)
  31              		.cfi_restore 8
  32              		.cfi_def_cfa 2, 16
  33 0020 13010101 		addi	sp,sp,16
  34              		.cfi_def_cfa_offset 0
  35 0024 67800000 		jr	ra
  36              		.cfi_endproc
  37              	.LFE19:
  39              		.align	2
  40              		.globl	_ZdlPv
  42              	_ZdlPv:
  43              	.LFB20:
  12:src/syscall_cpp.cpp **** 
  13:src/syscall_cpp.cpp **** void operator delete(void * p)
  14:src/syscall_cpp.cpp **** {
  44              		.loc 1 14 1 is_stmt 1
  45              		.cfi_startproc
GAS LISTING /tmp/ccly251A.s 			page 2


  46              	.LVL2:
  47 0028 130101FF 		addi	sp,sp,-16
  48              		.cfi_def_cfa_offset 16
  49 002c 23341100 		sd	ra,8(sp)
  50 0030 23308100 		sd	s0,0(sp)
  51              		.cfi_offset 1, -8
  52              		.cfi_offset 8, -16
  53 0034 13040101 		addi	s0,sp,16
  54              		.cfi_def_cfa 8, 0
  15:src/syscall_cpp.cpp ****    mem_free(p);
  55              		.loc 1 15 4
  56              		.loc 1 15 12 is_stmt 0
  57 0038 97000000 		call	mem_free@plt
  57      E7800000 
  58              	.LVL3:
  16:src/syscall_cpp.cpp **** }
  59              		.loc 1 16 1
  60 0040 83308100 		ld	ra,8(sp)
  61              		.cfi_restore 1
  62 0044 03340100 		ld	s0,0(sp)
  63              		.cfi_restore 8
  64              		.cfi_def_cfa 2, 16
  65 0048 13010101 		addi	sp,sp,16
  66              		.cfi_def_cfa_offset 0
  67 004c 67800000 		jr	ra
  68              		.cfi_endproc
  69              	.LFE20:
  71              		.align	2
  72              		.globl	_ZN6Thread5startEv
  74              	_ZN6Thread5startEv:
  75              	.LFB21:
  17:src/syscall_cpp.cpp **** 
  18:src/syscall_cpp.cpp **** //Thread
  19:src/syscall_cpp.cpp **** 
  20:src/syscall_cpp.cpp **** //todo
  21:src/syscall_cpp.cpp **** //diskusija u os1 proj sheet-u
  22:src/syscall_cpp.cpp **** void Thread::start() {
  76              		.loc 1 22 22 is_stmt 1
  77              		.cfi_startproc
  78              	.LVL4:
  79 0050 130101FF 		addi	sp,sp,-16
  80              		.cfi_def_cfa_offset 16
  81 0054 23348100 		sd	s0,8(sp)
  82              		.cfi_offset 8, -8
  83 0058 13040101 		addi	s0,sp,16
  84              		.cfi_def_cfa 8, 0
  23:src/syscall_cpp.cpp **** 
  24:src/syscall_cpp.cpp **** }
  85              		.loc 1 24 1 is_stmt 0
  86 005c 03348100 		ld	s0,8(sp)
  87              		.cfi_restore 8
  88              		.cfi_def_cfa 2, 16
  89 0060 13010101 		addi	sp,sp,16
  90              		.cfi_def_cfa_offset 0
  91 0064 67800000 		jr	ra
  92              		.cfi_endproc
  93              	.LFE21:
GAS LISTING /tmp/ccly251A.s 			page 3


  95              		.align	2
  96              		.globl	_ZN6Thread8dispatchEv
  98              	_ZN6Thread8dispatchEv:
  99              	.LFB22:
  25:src/syscall_cpp.cpp **** 
  26:src/syscall_cpp.cpp **** void Thread::dispatch() {
 100              		.loc 1 26 25 is_stmt 1
 101              		.cfi_startproc
 102 0068 130101FF 		addi	sp,sp,-16
 103              		.cfi_def_cfa_offset 16
 104 006c 23341100 		sd	ra,8(sp)
 105 0070 23308100 		sd	s0,0(sp)
 106              		.cfi_offset 1, -8
 107              		.cfi_offset 8, -16
 108 0074 13040101 		addi	s0,sp,16
 109              		.cfi_def_cfa 8, 0
  27:src/syscall_cpp.cpp ****     thread_dispatch();
 110              		.loc 1 27 5
 111              		.loc 1 27 20 is_stmt 0
 112 0078 97000000 		call	thread_dispatch@plt
 112      E7800000 
 113              	.LVL5:
  28:src/syscall_cpp.cpp **** }
 114              		.loc 1 28 1
 115 0080 83308100 		ld	ra,8(sp)
 116              		.cfi_restore 1
 117 0084 03340100 		ld	s0,0(sp)
 118              		.cfi_restore 8
 119              		.cfi_def_cfa 2, 16
 120 0088 13010101 		addi	sp,sp,16
 121              		.cfi_def_cfa_offset 0
 122 008c 67800000 		jr	ra
 123              		.cfi_endproc
 124              	.LFE22:
 126              		.align	2
 127              		.globl	_ZN6Thread5sleepEm
 129              	_ZN6Thread5sleepEm:
 130              	.LFB23:
  29:src/syscall_cpp.cpp **** 
  30:src/syscall_cpp.cpp **** void Thread::sleep(time_t time) {
 131              		.loc 1 30 33 is_stmt 1
 132              		.cfi_startproc
 133              	.LVL6:
 134 0090 130101FF 		addi	sp,sp,-16
 135              		.cfi_def_cfa_offset 16
 136 0094 23348100 		sd	s0,8(sp)
 137              		.cfi_offset 8, -8
 138 0098 13040101 		addi	s0,sp,16
 139              		.cfi_def_cfa 8, 0
  31:src/syscall_cpp.cpp ****     //PCB::sleep(time);
  32:src/syscall_cpp.cpp **** }
 140              		.loc 1 32 1 is_stmt 0
 141 009c 03348100 		ld	s0,8(sp)
 142              		.cfi_restore 8
 143              		.cfi_def_cfa 2, 16
 144 00a0 13010101 		addi	sp,sp,16
 145              		.cfi_def_cfa_offset 0
GAS LISTING /tmp/ccly251A.s 			page 4


 146 00a4 67800000 		jr	ra
 147              		.cfi_endproc
 148              	.LFE23:
 150              		.align	2
 151              		.globl	_ZN6ThreadC2EPFvPvES0_
 153              	_ZN6ThreadC2EPFvPvES0_:
 154              	.LFB25:
  33:src/syscall_cpp.cpp **** 
  34:src/syscall_cpp.cpp **** Thread::Thread(void (*body)(void *), void *args) {
 155              		.loc 1 34 1 is_stmt 1
 156              		.cfi_startproc
 157              	.LVL7:
 158 00a8 130101FF 		addi	sp,sp,-16
 159              		.cfi_def_cfa_offset 16
 160 00ac 23341100 		sd	ra,8(sp)
 161 00b0 23308100 		sd	s0,0(sp)
 162              		.cfi_offset 1, -8
 163              		.cfi_offset 8, -16
 164 00b4 13040101 		addi	s0,sp,16
 165              		.cfi_def_cfa 8, 0
 166              	.LBB2:
  35:src/syscall_cpp.cpp ****     int retval = thread_create((void**)&myHandle, body, args);
 167              		.loc 1 35 5
 168              		.loc 1 35 31 is_stmt 0
 169 00b8 97000000 		call	thread_create@plt
 169      E7800000 
 170              	.LVL8:
  36:src/syscall_cpp.cpp ****     if(retval != 0)
 171              		.loc 1 36 5 is_stmt 1
 172              	.LBE2:
  37:src/syscall_cpp.cpp ****     {
  38:src/syscall_cpp.cpp ****         //todo
  39:src/syscall_cpp.cpp ****         //what then
  40:src/syscall_cpp.cpp ****     }
  41:src/syscall_cpp.cpp **** }
 173              		.loc 1 41 1 is_stmt 0
 174 00c0 83308100 		ld	ra,8(sp)
 175              		.cfi_restore 1
 176 00c4 03340100 		ld	s0,0(sp)
 177              		.cfi_restore 8
 178              		.cfi_def_cfa 2, 16
 179 00c8 13010101 		addi	sp,sp,16
 180              		.cfi_def_cfa_offset 0
 181 00cc 67800000 		jr	ra
 182              		.cfi_endproc
 183              	.LFE25:
 185              		.globl	_ZN6ThreadC1EPFvPvES0_
 186              		.set	_ZN6ThreadC1EPFvPvES0_,_ZN6ThreadC2EPFvPvES0_
 187              		.align	2
 188              		.globl	_ZN6ThreadC2Ev
 190              	_ZN6ThreadC2Ev:
 191              	.LFB28:
  42:src/syscall_cpp.cpp **** 
  43:src/syscall_cpp.cpp **** Thread::Thread() {
 192              		.loc 1 43 1 is_stmt 1
 193              		.cfi_startproc
 194              	.LVL9:
GAS LISTING /tmp/ccly251A.s 			page 5


 195 00d0 130101FF 		addi	sp,sp,-16
 196              		.cfi_def_cfa_offset 16
 197 00d4 23348100 		sd	s0,8(sp)
 198              		.cfi_offset 8, -8
 199 00d8 13040101 		addi	s0,sp,16
 200              		.cfi_def_cfa 8, 0
  44:src/syscall_cpp.cpp **** 
  45:src/syscall_cpp.cpp **** }
 201              		.loc 1 45 1 is_stmt 0
 202 00dc 03348100 		ld	s0,8(sp)
 203              		.cfi_restore 8
 204              		.cfi_def_cfa 2, 16
 205 00e0 13010101 		addi	sp,sp,16
 206              		.cfi_def_cfa_offset 0
 207 00e4 67800000 		jr	ra
 208              		.cfi_endproc
 209              	.LFE28:
 211              		.globl	_ZN6ThreadC1Ev
 212              		.set	_ZN6ThreadC1Ev,_ZN6ThreadC2Ev
 213              		.align	2
 214              		.globl	_ZN9Semaphore4waitEv
 216              	_ZN9Semaphore4waitEv:
 217              	.LFB30:
  46:src/syscall_cpp.cpp **** 
  47:src/syscall_cpp.cpp **** //Semaphore
  48:src/syscall_cpp.cpp **** 
  49:src/syscall_cpp.cpp **** void Semaphore::wait() {
 218              		.loc 1 49 24 is_stmt 1
 219              		.cfi_startproc
 220              	.LVL10:
 221 00e8 130101FF 		addi	sp,sp,-16
 222              		.cfi_def_cfa_offset 16
 223 00ec 23341100 		sd	ra,8(sp)
 224 00f0 23308100 		sd	s0,0(sp)
 225              		.cfi_offset 1, -8
 226              		.cfi_offset 8, -16
 227 00f4 13040101 		addi	s0,sp,16
 228              		.cfi_def_cfa 8, 0
  50:src/syscall_cpp.cpp ****     int retval = sem_wait((void*)myHandle);
 229              		.loc 1 50 5
 230              		.loc 1 50 26 is_stmt 0
 231 00f8 03350500 		ld	a0,0(a0)
 232              	.LVL11:
 233 00fc 97000000 		call	sem_wait@plt
 233      E7800000 
 234              	.LVL12:
  51:src/syscall_cpp.cpp ****     if(retval != 0)
 235              		.loc 1 51 5 is_stmt 1
  52:src/syscall_cpp.cpp ****     {
  53:src/syscall_cpp.cpp ****         //todo
  54:src/syscall_cpp.cpp ****         //what then
  55:src/syscall_cpp.cpp ****     }
  56:src/syscall_cpp.cpp **** }
 236              		.loc 1 56 1 is_stmt 0
 237 0104 83308100 		ld	ra,8(sp)
 238              		.cfi_restore 1
 239 0108 03340100 		ld	s0,0(sp)
GAS LISTING /tmp/ccly251A.s 			page 6


 240              		.cfi_restore 8
 241              		.cfi_def_cfa 2, 16
 242 010c 13010101 		addi	sp,sp,16
 243              		.cfi_def_cfa_offset 0
 244 0110 67800000 		jr	ra
 245              		.cfi_endproc
 246              	.LFE30:
 248              		.align	2
 249              		.globl	_ZN9SemaphoreC2Ej
 251              	_ZN9SemaphoreC2Ej:
 252              	.LFB32:
  57:src/syscall_cpp.cpp **** 
  58:src/syscall_cpp.cpp **** Semaphore::Semaphore(unsigned int init) {
 253              		.loc 1 58 1 is_stmt 1
 254              		.cfi_startproc
 255              	.LVL13:
 256 0114 130101FF 		addi	sp,sp,-16
 257              		.cfi_def_cfa_offset 16
 258 0118 23341100 		sd	ra,8(sp)
 259 011c 23308100 		sd	s0,0(sp)
 260              		.cfi_offset 1, -8
 261              		.cfi_offset 8, -16
 262 0120 13040101 		addi	s0,sp,16
 263              		.cfi_def_cfa 8, 0
 264              	.LBB3:
  59:src/syscall_cpp.cpp ****     int retval = sem_open((void**)&myHandle, init);
 265              		.loc 1 59 5
 266              		.loc 1 59 26 is_stmt 0
 267 0124 97000000 		call	sem_open@plt
 267      E7800000 
 268              	.LVL14:
  60:src/syscall_cpp.cpp ****     if(retval != 0)
 269              		.loc 1 60 5 is_stmt 1
 270              	.LBE3:
  61:src/syscall_cpp.cpp ****     {
  62:src/syscall_cpp.cpp ****         //todo
  63:src/syscall_cpp.cpp ****         //what then
  64:src/syscall_cpp.cpp ****     }
  65:src/syscall_cpp.cpp **** }
 271              		.loc 1 65 1 is_stmt 0
 272 012c 83308100 		ld	ra,8(sp)
 273              		.cfi_restore 1
 274 0130 03340100 		ld	s0,0(sp)
 275              		.cfi_restore 8
 276              		.cfi_def_cfa 2, 16
 277 0134 13010101 		addi	sp,sp,16
 278              		.cfi_def_cfa_offset 0
 279 0138 67800000 		jr	ra
 280              		.cfi_endproc
 281              	.LFE32:
 283              		.globl	_ZN9SemaphoreC1Ej
 284              		.set	_ZN9SemaphoreC1Ej,_ZN9SemaphoreC2Ej
 285              		.align	2
 286              		.globl	_ZN9Semaphore6signalEv
 288              	_ZN9Semaphore6signalEv:
 289              	.LFB34:
  66:src/syscall_cpp.cpp **** 
GAS LISTING /tmp/ccly251A.s 			page 7


  67:src/syscall_cpp.cpp **** void Semaphore::signal() {
 290              		.loc 1 67 26 is_stmt 1
 291              		.cfi_startproc
 292              	.LVL15:
 293 013c 130101FF 		addi	sp,sp,-16
 294              		.cfi_def_cfa_offset 16
 295 0140 23341100 		sd	ra,8(sp)
 296 0144 23308100 		sd	s0,0(sp)
 297              		.cfi_offset 1, -8
 298              		.cfi_offset 8, -16
 299 0148 13040101 		addi	s0,sp,16
 300              		.cfi_def_cfa 8, 0
  68:src/syscall_cpp.cpp ****     int retval = sem_signal((void*)myHandle);
 301              		.loc 1 68 5
 302              		.loc 1 68 28 is_stmt 0
 303 014c 03350500 		ld	a0,0(a0)
 304              	.LVL16:
 305 0150 97000000 		call	sem_signal@plt
 305      E7800000 
 306              	.LVL17:
  69:src/syscall_cpp.cpp ****     if(retval != 0)
 307              		.loc 1 69 5 is_stmt 1
  70:src/syscall_cpp.cpp ****     {
  71:src/syscall_cpp.cpp ****         //todo
  72:src/syscall_cpp.cpp ****         //what then
  73:src/syscall_cpp.cpp ****     }
  74:src/syscall_cpp.cpp **** 
  75:src/syscall_cpp.cpp **** }
 308              		.loc 1 75 1 is_stmt 0
 309 0158 83308100 		ld	ra,8(sp)
 310              		.cfi_restore 1
 311 015c 03340100 		ld	s0,0(sp)
 312              		.cfi_restore 8
 313              		.cfi_def_cfa 2, 16
 314 0160 13010101 		addi	sp,sp,16
 315              		.cfi_def_cfa_offset 0
 316 0164 67800000 		jr	ra
 317              		.cfi_endproc
 318              	.LFE34:
 320              	.Letext0:
 321              		.file 2 "src/../h/../lib/hw.h"
 322              		.file 3 "src/../h/Queue.h"
 323              		.file 4 "src/../h/PCB.h"
 324              		.file 5 "src/../h/KSemaphore.h"
 325              		.file 6 "src/../h/syscall_cpp.h"
 326              		.file 7 "src/../h/syscall_c.h"
GAS LISTING /tmp/ccly251A.s 			page 8


DEFINED SYMBOLS
                            *ABS*:0000000000000000 syscall_cpp.cpp
     /tmp/ccly251A.s:9      .text:0000000000000000 _Znwm
     /tmp/ccly251A.s:13     .text:0000000000000000 .L0 
     /tmp/ccly251A.s:15     .text:0000000000000000 .L0 
     /tmp/ccly251A.s:16     .text:0000000000000004 .L0 
     /tmp/ccly251A.s:19     .text:000000000000000c .L0 
     /tmp/ccly251A.s:20     .text:000000000000000c .L0 
     /tmp/ccly251A.s:22     .text:0000000000000010 .L0 
     /tmp/ccly251A.s:24     .text:0000000000000010 .L0 
     /tmp/ccly251A.s:25     .text:0000000000000010 .L0 
     /tmp/ccly251A.s:28     .text:0000000000000018 .L0 
     /tmp/ccly251A.s:29     .text:000000000000001c .L0 
     /tmp/ccly251A.s:31     .text:0000000000000020 .L0 
     /tmp/ccly251A.s:32     .text:0000000000000020 .L0 
     /tmp/ccly251A.s:34     .text:0000000000000024 .L0 
     /tmp/ccly251A.s:36     .text:0000000000000028 .L0 
     /tmp/ccly251A.s:42     .text:0000000000000028 _ZdlPv
     /tmp/ccly251A.s:45     .text:0000000000000028 .L0 
     /tmp/ccly251A.s:47     .text:0000000000000028 .L0 
     /tmp/ccly251A.s:48     .text:000000000000002c .L0 
     /tmp/ccly251A.s:51     .text:0000000000000034 .L0 
     /tmp/ccly251A.s:52     .text:0000000000000034 .L0 
     /tmp/ccly251A.s:54     .text:0000000000000038 .L0 
     /tmp/ccly251A.s:56     .text:0000000000000038 .L0 
     /tmp/ccly251A.s:57     .text:0000000000000038 .L0 
     /tmp/ccly251A.s:60     .text:0000000000000040 .L0 
     /tmp/ccly251A.s:61     .text:0000000000000044 .L0 
     /tmp/ccly251A.s:63     .text:0000000000000048 .L0 
     /tmp/ccly251A.s:64     .text:0000000000000048 .L0 
     /tmp/ccly251A.s:66     .text:000000000000004c .L0 
     /tmp/ccly251A.s:68     .text:0000000000000050 .L0 
     /tmp/ccly251A.s:74     .text:0000000000000050 _ZN6Thread5startEv
     /tmp/ccly251A.s:77     .text:0000000000000050 .L0 
     /tmp/ccly251A.s:79     .text:0000000000000050 .L0 
     /tmp/ccly251A.s:80     .text:0000000000000054 .L0 
     /tmp/ccly251A.s:82     .text:0000000000000058 .L0 
     /tmp/ccly251A.s:84     .text:000000000000005c .L0 
     /tmp/ccly251A.s:86     .text:000000000000005c .L0 
     /tmp/ccly251A.s:87     .text:0000000000000060 .L0 
     /tmp/ccly251A.s:88     .text:0000000000000060 .L0 
     /tmp/ccly251A.s:90     .text:0000000000000064 .L0 
     /tmp/ccly251A.s:92     .text:0000000000000068 .L0 
     /tmp/ccly251A.s:98     .text:0000000000000068 _ZN6Thread8dispatchEv
     /tmp/ccly251A.s:101    .text:0000000000000068 .L0 
     /tmp/ccly251A.s:102    .text:0000000000000068 .L0 
     /tmp/ccly251A.s:103    .text:000000000000006c .L0 
     /tmp/ccly251A.s:106    .text:0000000000000074 .L0 
     /tmp/ccly251A.s:107    .text:0000000000000074 .L0 
     /tmp/ccly251A.s:109    .text:0000000000000078 .L0 
     /tmp/ccly251A.s:111    .text:0000000000000078 .L0 
     /tmp/ccly251A.s:112    .text:0000000000000078 .L0 
     /tmp/ccly251A.s:115    .text:0000000000000080 .L0 
     /tmp/ccly251A.s:116    .text:0000000000000084 .L0 
     /tmp/ccly251A.s:118    .text:0000000000000088 .L0 
     /tmp/ccly251A.s:119    .text:0000000000000088 .L0 
     /tmp/ccly251A.s:121    .text:000000000000008c .L0 
GAS LISTING /tmp/ccly251A.s 			page 9


     /tmp/ccly251A.s:123    .text:0000000000000090 .L0 
     /tmp/ccly251A.s:129    .text:0000000000000090 _ZN6Thread5sleepEm
     /tmp/ccly251A.s:132    .text:0000000000000090 .L0 
     /tmp/ccly251A.s:134    .text:0000000000000090 .L0 
     /tmp/ccly251A.s:135    .text:0000000000000094 .L0 
     /tmp/ccly251A.s:137    .text:0000000000000098 .L0 
     /tmp/ccly251A.s:139    .text:000000000000009c .L0 
     /tmp/ccly251A.s:141    .text:000000000000009c .L0 
     /tmp/ccly251A.s:142    .text:00000000000000a0 .L0 
     /tmp/ccly251A.s:143    .text:00000000000000a0 .L0 
     /tmp/ccly251A.s:145    .text:00000000000000a4 .L0 
     /tmp/ccly251A.s:147    .text:00000000000000a8 .L0 
     /tmp/ccly251A.s:153    .text:00000000000000a8 _ZN6ThreadC2EPFvPvES0_
     /tmp/ccly251A.s:156    .text:00000000000000a8 .L0 
     /tmp/ccly251A.s:158    .text:00000000000000a8 .L0 
     /tmp/ccly251A.s:159    .text:00000000000000ac .L0 
     /tmp/ccly251A.s:162    .text:00000000000000b4 .L0 
     /tmp/ccly251A.s:163    .text:00000000000000b4 .L0 
     /tmp/ccly251A.s:165    .text:00000000000000b8 .L0 
     /tmp/ccly251A.s:168    .text:00000000000000b8 .L0 
     /tmp/ccly251A.s:169    .text:00000000000000b8 .L0 
     /tmp/ccly251A.s:173    .text:00000000000000c0 .L0 
     /tmp/ccly251A.s:174    .text:00000000000000c0 .L0 
     /tmp/ccly251A.s:175    .text:00000000000000c4 .L0 
     /tmp/ccly251A.s:177    .text:00000000000000c8 .L0 
     /tmp/ccly251A.s:178    .text:00000000000000c8 .L0 
     /tmp/ccly251A.s:180    .text:00000000000000cc .L0 
     /tmp/ccly251A.s:182    .text:00000000000000d0 .L0 
     /tmp/ccly251A.s:153    .text:00000000000000a8 _ZN6ThreadC1EPFvPvES0_
     /tmp/ccly251A.s:190    .text:00000000000000d0 _ZN6ThreadC2Ev
     /tmp/ccly251A.s:193    .text:00000000000000d0 .L0 
     /tmp/ccly251A.s:195    .text:00000000000000d0 .L0 
     /tmp/ccly251A.s:196    .text:00000000000000d4 .L0 
     /tmp/ccly251A.s:198    .text:00000000000000d8 .L0 
     /tmp/ccly251A.s:200    .text:00000000000000dc .L0 
     /tmp/ccly251A.s:202    .text:00000000000000dc .L0 
     /tmp/ccly251A.s:203    .text:00000000000000e0 .L0 
     /tmp/ccly251A.s:204    .text:00000000000000e0 .L0 
     /tmp/ccly251A.s:206    .text:00000000000000e4 .L0 
     /tmp/ccly251A.s:208    .text:00000000000000e8 .L0 
     /tmp/ccly251A.s:190    .text:00000000000000d0 _ZN6ThreadC1Ev
     /tmp/ccly251A.s:216    .text:00000000000000e8 _ZN9Semaphore4waitEv
     /tmp/ccly251A.s:219    .text:00000000000000e8 .L0 
     /tmp/ccly251A.s:221    .text:00000000000000e8 .L0 
     /tmp/ccly251A.s:222    .text:00000000000000ec .L0 
     /tmp/ccly251A.s:225    .text:00000000000000f4 .L0 
     /tmp/ccly251A.s:226    .text:00000000000000f4 .L0 
     /tmp/ccly251A.s:228    .text:00000000000000f8 .L0 
     /tmp/ccly251A.s:230    .text:00000000000000f8 .L0 
     /tmp/ccly251A.s:231    .text:00000000000000f8 .L0 
     /tmp/ccly251A.s:236    .text:0000000000000104 .L0 
     /tmp/ccly251A.s:237    .text:0000000000000104 .L0 
     /tmp/ccly251A.s:238    .text:0000000000000108 .L0 
     /tmp/ccly251A.s:240    .text:000000000000010c .L0 
     /tmp/ccly251A.s:241    .text:000000000000010c .L0 
     /tmp/ccly251A.s:243    .text:0000000000000110 .L0 
     /tmp/ccly251A.s:245    .text:0000000000000114 .L0 
GAS LISTING /tmp/ccly251A.s 			page 10


     /tmp/ccly251A.s:251    .text:0000000000000114 _ZN9SemaphoreC2Ej
     /tmp/ccly251A.s:254    .text:0000000000000114 .L0 
     /tmp/ccly251A.s:256    .text:0000000000000114 .L0 
     /tmp/ccly251A.s:257    .text:0000000000000118 .L0 
     /tmp/ccly251A.s:260    .text:0000000000000120 .L0 
     /tmp/ccly251A.s:261    .text:0000000000000120 .L0 
     /tmp/ccly251A.s:263    .text:0000000000000124 .L0 
     /tmp/ccly251A.s:266    .text:0000000000000124 .L0 
     /tmp/ccly251A.s:267    .text:0000000000000124 .L0 
     /tmp/ccly251A.s:271    .text:000000000000012c .L0 
     /tmp/ccly251A.s:272    .text:000000000000012c .L0 
     /tmp/ccly251A.s:273    .text:0000000000000130 .L0 
     /tmp/ccly251A.s:275    .text:0000000000000134 .L0 
     /tmp/ccly251A.s:276    .text:0000000000000134 .L0 
     /tmp/ccly251A.s:278    .text:0000000000000138 .L0 
     /tmp/ccly251A.s:280    .text:000000000000013c .L0 
     /tmp/ccly251A.s:251    .text:0000000000000114 _ZN9SemaphoreC1Ej
     /tmp/ccly251A.s:288    .text:000000000000013c _ZN9Semaphore6signalEv
     /tmp/ccly251A.s:291    .text:000000000000013c .L0 
     /tmp/ccly251A.s:293    .text:000000000000013c .L0 
     /tmp/ccly251A.s:294    .text:0000000000000140 .L0 
     /tmp/ccly251A.s:297    .text:0000000000000148 .L0 
     /tmp/ccly251A.s:298    .text:0000000000000148 .L0 
     /tmp/ccly251A.s:300    .text:000000000000014c .L0 
     /tmp/ccly251A.s:302    .text:000000000000014c .L0 
     /tmp/ccly251A.s:303    .text:000000000000014c .L0 
     /tmp/ccly251A.s:308    .text:0000000000000158 .L0 
     /tmp/ccly251A.s:309    .text:0000000000000158 .L0 
     /tmp/ccly251A.s:310    .text:000000000000015c .L0 
     /tmp/ccly251A.s:312    .text:0000000000000160 .L0 
     /tmp/ccly251A.s:313    .text:0000000000000160 .L0 
     /tmp/ccly251A.s:315    .text:0000000000000164 .L0 
     /tmp/ccly251A.s:317    .text:0000000000000168 .L0 
     /tmp/ccly251A.s:327    .text:0000000000000168 .L0 
     /tmp/ccly251A.s:1599   .debug_abbrev:0000000000000000 .Ldebug_abbrev0
     /tmp/ccly251A.s:2844   .debug_str:000000000000036d .LASF122
     /tmp/ccly251A.s:2814   .debug_str:00000000000002a9 .LASF123
     /tmp/ccly251A.s:2934   .debug_str:0000000000000644 .LASF124
     /tmp/ccly251A.s:5      .text:0000000000000000 .Ltext0
     /tmp/ccly251A.s:320    .text:0000000000000168 .Letext0
     /tmp/ccly251A.s:2710   .debug_line:0000000000000000 .Ldebug_line0
     /tmp/ccly251A.s:2804   .debug_str:000000000000026c .LASF0
     /tmp/ccly251A.s:2824   .debug_str:00000000000002ec .LASF1
     /tmp/ccly251A.s:2878   .debug_str:00000000000004d5 .LASF2
     /tmp/ccly251A.s:2886   .debug_str:0000000000000503 .LASF4
     /tmp/ccly251A.s:2816   .debug_str:00000000000002bd .LASF3
     /tmp/ccly251A.s:2720   .debug_str:0000000000000030 .LASF5
     /tmp/ccly251A.s:2866   .debug_str:0000000000000496 .LASF6
     /tmp/ccly251A.s:2860   .debug_str:0000000000000476 .LASF7
     /tmp/ccly251A.s:2818   .debug_str:00000000000002cf .LASF8
     /tmp/ccly251A.s:2788   .debug_str:0000000000000213 .LASF9
     /tmp/ccly251A.s:2792   .debug_str:0000000000000237 .LASF10
     /tmp/ccly251A.s:2744   .debug_str:0000000000000102 .LASF11
     /tmp/ccly251A.s:2784   .debug_str:00000000000001ff .LASF12
     /tmp/ccly251A.s:2758   .debug_str:000000000000015a .LASF13
     /tmp/ccly251A.s:2742   .debug_str:00000000000000f2 .LASF14
     /tmp/ccly251A.s:2908   .debug_str:00000000000005b5 .LASF15
GAS LISTING /tmp/ccly251A.s 			page 11


     /tmp/ccly251A.s:2776   .debug_str:00000000000001d0 .LASF16
     /tmp/ccly251A.s:2902   .debug_str:0000000000000575 .LASF17
     /tmp/ccly251A.s:2936   .debug_str:0000000000000667 .LASF28
     /tmp/ccly251A.s:2946   .debug_str:00000000000006a0 .LASF20
     /tmp/ccly251A.s:2820   .debug_str:00000000000002e2 .LASF18
     /tmp/ccly251A.s:2746   .debug_str:0000000000000111 .LASF19
     /tmp/ccly251A.s:2916   .debug_str:00000000000005d5 .LASF21
     /tmp/ccly251A.s:2834   .debug_str:0000000000000324 .LASF22
     /tmp/ccly251A.s:2958   .debug_str:00000000000006d6 .LASF38
     /tmp/ccly251A.s:2944   .debug_str:000000000000069a .LASF24
     /tmp/ccly251A.s:2760   .debug_str:000000000000016a .LASF26
     /tmp/ccly251A.s:2806   .debug_str:0000000000000279 .LASF23
     /tmp/ccly251A.s:2892   .debug_str:0000000000000524 .LASF29
     /tmp/ccly251A.s:2822   .debug_str:00000000000002e7 .LASF25
     /tmp/ccly251A.s:2872   .debug_str:00000000000004b0 .LASF27
     /tmp/ccly251A.s:2772   .debug_str:00000000000001ae .LASF30
     /tmp/ccly251A.s:2870   .debug_str:00000000000004a9 .LASF44
     /tmp/ccly251A.s:2730   .debug_str:000000000000008e .LASF46
     /tmp/ccly251A.s:2922   .debug_str:00000000000005f2 .LASF125
     /tmp/ccly251A.s:2740   .debug_str:00000000000000ec .LASF31
     /tmp/ccly251A.s:2894   .debug_str:0000000000000539 .LASF32
     /tmp/ccly251A.s:2754   .debug_str:0000000000000146 .LASF33
     /tmp/ccly251A.s:2734   .debug_str:00000000000000a6 .LASF34
     /tmp/ccly251A.s:2862   .debug_str:0000000000000489 .LASF35
     /tmp/ccly251A.s:2914   .debug_str:00000000000005cd .LASF36
     /tmp/ccly251A.s:2798   .debug_str:0000000000000257 .LASF37
     /tmp/ccly251A.s:2940   .debug_str:0000000000000675 .LASF39
     /tmp/ccly251A.s:2854   .debug_str:000000000000044b .LASF126
     /tmp/ccly251A.s:2952   .debug_str:00000000000006bf .LASF40
     /tmp/ccly251A.s:2962   .debug_str:00000000000006ec .LASF41
     /tmp/ccly251A.s:2960   .debug_str:00000000000006e6 .LASF42
     /tmp/ccly251A.s:2928   .debug_str:0000000000000613 .LASF43
     /tmp/ccly251A.s:2768   .debug_str:00000000000001a0 .LASF97
     /tmp/ccly251A.s:2724   .debug_str:000000000000004e .LASF98
     /tmp/ccly251A.s:2828   .debug_str:0000000000000308 .LASF45
     /tmp/ccly251A.s:2858   .debug_str:0000000000000466 .LASF47
     /tmp/ccly251A.s:2924   .debug_str:00000000000005f8 .LASF48
     /tmp/ccly251A.s:2954   .debug_str:00000000000006c4 .LASF49
     /tmp/ccly251A.s:2888   .debug_str:000000000000050a .LASF50
     /tmp/ccly251A.s:2830   .debug_str:000000000000030e .LASF51
     /tmp/ccly251A.s:2836   .debug_str:0000000000000329 .LASF52
     /tmp/ccly251A.s:2964   .debug_str:00000000000006f8 .LASF53
     /tmp/ccly251A.s:2778   .debug_str:00000000000001e6 .LASF54
     /tmp/ccly251A.s:2714   .debug_str:0000000000000005 .LASF55
     /tmp/ccly251A.s:2812   .debug_str:000000000000029c .LASF56
     /tmp/ccly251A.s:2890   .debug_str:000000000000051b .LASF57
     /tmp/ccly251A.s:2846   .debug_str:000000000000040f .LASF58
     /tmp/ccly251A.s:2882   .debug_str:00000000000004ef .LASF59
     /tmp/ccly251A.s:2904   .debug_str:000000000000058b .LASF60
     /tmp/ccly251A.s:2900   .debug_str:0000000000000567 .LASF61
     /tmp/ccly251A.s:2868   .debug_str:000000000000049d .LASF62
     /tmp/ccly251A.s:2766   .debug_str:0000000000000190 .LASF63
     /tmp/ccly251A.s:2932   .debug_str:000000000000063a .LASF64
     /tmp/ccly251A.s:2764   .debug_str:0000000000000182 .LASF65
     /tmp/ccly251A.s:2726   .debug_str:0000000000000061 .LASF67
     /tmp/ccly251A.s:2808   .debug_str:000000000000027e .LASF66
     /tmp/ccly251A.s:2738   .debug_str:00000000000000c0 .LASF68
GAS LISTING /tmp/ccly251A.s 			page 12


     /tmp/ccly251A.s:2956   .debug_str:00000000000006cf .LASF127
     /tmp/ccly251A.s:2736   .debug_str:00000000000000af .LASF128
     /tmp/ccly251A.s:2712   .debug_str:0000000000000000 .LASF69
     /tmp/ccly251A.s:2912   .debug_str:00000000000005c8 .LASF70
     /tmp/ccly251A.s:2840   .debug_str:000000000000035b .LASF71
     /tmp/ccly251A.s:2762   .debug_str:000000000000017c .LASF72
     /tmp/ccly251A.s:2938   .debug_str:000000000000066d .LASF73
     /tmp/ccly251A.s:2732   .debug_str:000000000000009c .LASF74
     /tmp/ccly251A.s:2918   .debug_str:00000000000005db .LASF75
     /tmp/ccly251A.s:2874   .debug_str:00000000000004c1 .LASF76
     /tmp/ccly251A.s:2790   .debug_str:0000000000000223 .LASF77
     /tmp/ccly251A.s:2770   .debug_str:00000000000001a9 .LASF78
     /tmp/ccly251A.s:2896   .debug_str:0000000000000541 .LASF79
     /tmp/ccly251A.s:2910   .debug_str:00000000000005c1 .LASF80
     /tmp/ccly251A.s:2850   .debug_str:000000000000042b .LASF81
     /tmp/ccly251A.s:2880   .debug_str:00000000000004e3 .LASF82
     /tmp/ccly251A.s:2774   .debug_str:00000000000001bc .LASF83
     /tmp/ccly251A.s:2748   .debug_str:0000000000000116 .LASF84
     /tmp/ccly251A.s:2756   .debug_str:0000000000000150 .LASF85
     /tmp/ccly251A.s:2848   .debug_str:0000000000000422 .LASF86
     /tmp/ccly251A.s:2884   .debug_str:00000000000004f8 .LASF87
     /tmp/ccly251A.s:2826   .debug_str:00000000000002ff .LASF88
     /tmp/ccly251A.s:2942   .debug_str:000000000000068d .LASF89
     /tmp/ccly251A.s:2802   .debug_str:0000000000000266 .LASF90
     /tmp/ccly251A.s:2966   .debug_str:0000000000000705 .LASF91
     /tmp/ccly251A.s:2716   .debug_str:0000000000000015 .LASF92
     /tmp/ccly251A.s:2838   .debug_str:0000000000000341 .LASF93
     /tmp/ccly251A.s:2796   .debug_str:0000000000000250 .LASF94
     /tmp/ccly251A.s:2970   .debug_str:000000000000072c .LASF95
     /tmp/ccly251A.s:2718   .debug_str:000000000000001d .LASF96
     /tmp/ccly251A.s:2856   .debug_str:0000000000000450 .LASF99
     /tmp/ccly251A.s:2926   .debug_str:0000000000000600 .LASF100
     /tmp/ccly251A.s:2810   .debug_str:0000000000000293 .LASF106
     /tmp/ccly251A.s:2968   .debug_str:000000000000071d .LASF101
     /tmp/ccly251A.s:2948   .debug_str:00000000000006a5 .LASF102
     /tmp/ccly251A.s:2920   .debug_str:00000000000005e0 .LASF103
     /tmp/ccly251A.s:2752   .debug_str:0000000000000131 .LASF104
     /tmp/ccly251A.s:2722   .debug_str:0000000000000037 .LASF105
     /tmp/ccly251A.s:289    .text:000000000000013c .LFB34
     /tmp/ccly251A.s:318    .text:0000000000000168 .LFE34
     /tmp/ccly251A.s:2786   .debug_str:000000000000020e .LASF108
     /tmp/ccly251A.s:2571   .debug_loc:0000000000000000 .LLST8
     /tmp/ccly251A.s:2780   .debug_str:00000000000001f2 .LASF107
     /tmp/ccly251A.s:306    .text:0000000000000158 .LVL17
     /tmp/ccly251A.s:2728   .debug_str:0000000000000089 .LASF111
     /tmp/ccly251A.s:2750   .debug_str:000000000000011f .LASF109
     /tmp/ccly251A.s:252    .text:0000000000000114 .LFB32
     /tmp/ccly251A.s:281    .text:000000000000013c .LFE32
     /tmp/ccly251A.s:2585   .debug_loc:0000000000000039 .LLST6
     /tmp/ccly251A.s:2599   .debug_loc:0000000000000072 .LLST7
     /tmp/ccly251A.s:268    .text:000000000000012c .LVL14
     /tmp/ccly251A.s:264    .text:0000000000000124 .LBB3
     /tmp/ccly251A.s:270    .text:000000000000012c .LBE3
     /tmp/ccly251A.s:217    .text:00000000000000e8 .LFB30
     /tmp/ccly251A.s:246    .text:0000000000000114 .LFE30
     /tmp/ccly251A.s:2613   .debug_loc:00000000000000ab .LLST5
     /tmp/ccly251A.s:234    .text:0000000000000104 .LVL12
GAS LISTING /tmp/ccly251A.s 			page 13


     /tmp/ccly251A.s:2898   .debug_str:0000000000000558 .LASF110
     /tmp/ccly251A.s:191    .text:00000000000000d0 .LFB28
     /tmp/ccly251A.s:209    .text:00000000000000e8 .LFE28
     /tmp/ccly251A.s:2930   .debug_str:0000000000000623 .LASF112
     /tmp/ccly251A.s:154    .text:00000000000000a8 .LFB25
     /tmp/ccly251A.s:183    .text:00000000000000d0 .LFE25
     /tmp/ccly251A.s:2627   .debug_loc:00000000000000e4 .LLST2
     /tmp/ccly251A.s:2641   .debug_loc:000000000000011d .LLST3
     /tmp/ccly251A.s:2655   .debug_loc:0000000000000156 .LLST4
     /tmp/ccly251A.s:170    .text:00000000000000c0 .LVL8
     /tmp/ccly251A.s:166    .text:00000000000000b8 .LBB2
     /tmp/ccly251A.s:172    .text:00000000000000c0 .LBE2
     /tmp/ccly251A.s:130    .text:0000000000000090 .LFB23
     /tmp/ccly251A.s:148    .text:00000000000000a8 .LFE23
     /tmp/ccly251A.s:2864   .debug_str:0000000000000491 .LASF114
     /tmp/ccly251A.s:99     .text:0000000000000068 .LFB22
     /tmp/ccly251A.s:124    .text:0000000000000090 .LFE22
     /tmp/ccly251A.s:113    .text:0000000000000080 .LVL5
     /tmp/ccly251A.s:75     .text:0000000000000050 .LFB21
     /tmp/ccly251A.s:93     .text:0000000000000068 .LFE21
     /tmp/ccly251A.s:2852   .debug_str:0000000000000444 .LASF113
     /tmp/ccly251A.s:43     .text:0000000000000028 .LFB20
     /tmp/ccly251A.s:69     .text:0000000000000050 .LFE20
     /tmp/ccly251A.s:2669   .debug_loc:000000000000018f .LLST1
     /tmp/ccly251A.s:58     .text:0000000000000040 .LVL3
     /tmp/ccly251A.s:2782   .debug_str:00000000000001f9 .LASF129
     /tmp/ccly251A.s:10     .text:0000000000000000 .LFB19
     /tmp/ccly251A.s:37     .text:0000000000000028 .LFE19
     /tmp/ccly251A.s:2683   .debug_loc:00000000000001c8 .LLST0
     /tmp/ccly251A.s:26     .text:0000000000000018 .LVL1
     /tmp/ccly251A.s:2794   .debug_str:0000000000000245 .LASF115
     /tmp/ccly251A.s:2876   .debug_str:00000000000004cc .LASF116
     /tmp/ccly251A.s:2832   .debug_str:000000000000031b .LASF117
     /tmp/ccly251A.s:2906   .debug_str:00000000000005a7 .LASF118
     /tmp/ccly251A.s:2950   .debug_str:00000000000006af .LASF119
     /tmp/ccly251A.s:2800   .debug_str:000000000000025d .LASF120
     /tmp/ccly251A.s:2842   .debug_str:0000000000000363 .LASF121
     /tmp/ccly251A.s:292    .text:000000000000013c .LVL15
     /tmp/ccly251A.s:304    .text:0000000000000150 .LVL16
     /tmp/ccly251A.s:255    .text:0000000000000114 .LVL13
     /tmp/ccly251A.s:220    .text:00000000000000e8 .LVL10
     /tmp/ccly251A.s:232    .text:00000000000000fc .LVL11
     /tmp/ccly251A.s:157    .text:00000000000000a8 .LVL7
     /tmp/ccly251A.s:46     .text:0000000000000028 .LVL2
     /tmp/ccly251A.s:14     .text:0000000000000000 .LVL0
     /tmp/ccly251A.s:328    .debug_info:0000000000000000 .Ldebug_info0

UNDEFINED SYMBOLS
mem_alloc
mem_free
thread_dispatch
thread_create
sem_wait
sem_open
sem_signal
