GAS LISTING /tmp/ccblwomZ.s 			page 1


   1              		.file	"syscall_cpp.cpp"
   2              		.option pic
   3              		.option norelax
   4              		.text
   5              	.Ltext0:
   6              		.align	2
   7              		.globl	_Znwm
   9              	_Znwm:
  10              	.LFB19:
  11              		.file 1 "src/syscall_cpp.cpp"
   1:src/syscall_cpp.cpp **** //
   2:src/syscall_cpp.cpp **** // Created by os on 4/8/22.
   3:src/syscall_cpp.cpp **** //
   4:src/syscall_cpp.cpp **** 
   5:src/syscall_cpp.cpp **** #include "../h/syscall_cpp.h"
   6:src/syscall_cpp.cpp **** 
   7:src/syscall_cpp.cpp **** //general
   8:src/syscall_cpp.cpp **** void * operator new(size_t size)
   9:src/syscall_cpp.cpp **** {
  12              		.loc 1 9 1
  13              		.cfi_startproc
  14              	.LVL0:
  15 0000 130101FF 		addi	sp,sp,-16
  16              		.cfi_def_cfa_offset 16
  17 0004 23341100 		sd	ra,8(sp)
  18 0008 23308100 		sd	s0,0(sp)
  19              		.cfi_offset 1, -8
  20              		.cfi_offset 8, -16
  21 000c 13040101 		addi	s0,sp,16
  22              		.cfi_def_cfa 8, 0
  10:src/syscall_cpp.cpp ****     return mem_alloc(size);
  23              		.loc 1 10 5
  24              		.loc 1 10 21 is_stmt 0
  25 0010 97000000 		call	mem_alloc@plt
  25      E7800000 
  26              	.LVL1:
  11:src/syscall_cpp.cpp **** }
  27              		.loc 1 11 1
  28 0018 83308100 		ld	ra,8(sp)
  29              		.cfi_restore 1
  30 001c 03340100 		ld	s0,0(sp)
  31              		.cfi_restore 8
  32              		.cfi_def_cfa 2, 16
  33 0020 13010101 		addi	sp,sp,16
  34              		.cfi_def_cfa_offset 0
  35 0024 67800000 		jr	ra
  36              		.cfi_endproc
  37              	.LFE19:
  39              		.align	2
  40              		.globl	_ZdlPv
  42              	_ZdlPv:
  43              	.LFB20:
  12:src/syscall_cpp.cpp **** 
  13:src/syscall_cpp.cpp **** void operator delete(void * p)
  14:src/syscall_cpp.cpp **** {
  44              		.loc 1 14 1 is_stmt 1
  45              		.cfi_startproc
GAS LISTING /tmp/ccblwomZ.s 			page 2


  46              	.LVL2:
  47 0028 130101FF 		addi	sp,sp,-16
  48              		.cfi_def_cfa_offset 16
  49 002c 23341100 		sd	ra,8(sp)
  50 0030 23308100 		sd	s0,0(sp)
  51              		.cfi_offset 1, -8
  52              		.cfi_offset 8, -16
  53 0034 13040101 		addi	s0,sp,16
  54              		.cfi_def_cfa 8, 0
  15:src/syscall_cpp.cpp ****    mem_free(p);
  55              		.loc 1 15 4
  56              		.loc 1 15 12 is_stmt 0
  57 0038 97000000 		call	mem_free@plt
  57      E7800000 
  58              	.LVL3:
  16:src/syscall_cpp.cpp **** }
  59              		.loc 1 16 1
  60 0040 83308100 		ld	ra,8(sp)
  61              		.cfi_restore 1
  62 0044 03340100 		ld	s0,0(sp)
  63              		.cfi_restore 8
  64              		.cfi_def_cfa 2, 16
  65 0048 13010101 		addi	sp,sp,16
  66              		.cfi_def_cfa_offset 0
  67 004c 67800000 		jr	ra
  68              		.cfi_endproc
  69              	.LFE20:
  71              		.align	2
  72              		.globl	_ZN6Thread5startEv
  74              	_ZN6Thread5startEv:
  75              	.LFB21:
  17:src/syscall_cpp.cpp **** 
  18:src/syscall_cpp.cpp **** //Thread
  19:src/syscall_cpp.cpp **** 
  20:src/syscall_cpp.cpp **** //todo
  21:src/syscall_cpp.cpp **** //diskusija u os1 proj sheet-u
  22:src/syscall_cpp.cpp **** void Thread::start() {
  76              		.loc 1 22 22 is_stmt 1
  77              		.cfi_startproc
  78              	.LVL4:
  79 0050 130101FF 		addi	sp,sp,-16
  80              		.cfi_def_cfa_offset 16
  81 0054 23348100 		sd	s0,8(sp)
  82              		.cfi_offset 8, -8
  83 0058 13040101 		addi	s0,sp,16
  84              		.cfi_def_cfa 8, 0
  23:src/syscall_cpp.cpp ****     //int retval = thread_create(&myHandle, )
  24:src/syscall_cpp.cpp **** }
  85              		.loc 1 24 1 is_stmt 0
  86 005c 03348100 		ld	s0,8(sp)
  87              		.cfi_restore 8
  88              		.cfi_def_cfa 2, 16
  89 0060 13010101 		addi	sp,sp,16
  90              		.cfi_def_cfa_offset 0
  91 0064 67800000 		jr	ra
  92              		.cfi_endproc
  93              	.LFE21:
GAS LISTING /tmp/ccblwomZ.s 			page 3


  95              		.align	2
  96              		.globl	_ZN6Thread8dispatchEv
  98              	_ZN6Thread8dispatchEv:
  99              	.LFB22:
  25:src/syscall_cpp.cpp **** 
  26:src/syscall_cpp.cpp **** void Thread::dispatch() {
 100              		.loc 1 26 25 is_stmt 1
 101              		.cfi_startproc
 102 0068 130101FF 		addi	sp,sp,-16
 103              		.cfi_def_cfa_offset 16
 104 006c 23341100 		sd	ra,8(sp)
 105 0070 23308100 		sd	s0,0(sp)
 106              		.cfi_offset 1, -8
 107              		.cfi_offset 8, -16
 108 0074 13040101 		addi	s0,sp,16
 109              		.cfi_def_cfa 8, 0
  27:src/syscall_cpp.cpp ****     thread_dispatch();
 110              		.loc 1 27 5
 111              		.loc 1 27 20 is_stmt 0
 112 0078 97000000 		call	thread_dispatch@plt
 112      E7800000 
 113              	.LVL5:
  28:src/syscall_cpp.cpp **** }
 114              		.loc 1 28 1
 115 0080 83308100 		ld	ra,8(sp)
 116              		.cfi_restore 1
 117 0084 03340100 		ld	s0,0(sp)
 118              		.cfi_restore 8
 119              		.cfi_def_cfa 2, 16
 120 0088 13010101 		addi	sp,sp,16
 121              		.cfi_def_cfa_offset 0
 122 008c 67800000 		jr	ra
 123              		.cfi_endproc
 124              	.LFE22:
 126              		.align	2
 127              		.globl	_ZN6Thread5sleepEm
 129              	_ZN6Thread5sleepEm:
 130              	.LFB23:
  29:src/syscall_cpp.cpp **** 
  30:src/syscall_cpp.cpp **** void Thread::sleep(time_t time) {
 131              		.loc 1 30 33 is_stmt 1
 132              		.cfi_startproc
 133              	.LVL6:
 134 0090 130101FF 		addi	sp,sp,-16
 135              		.cfi_def_cfa_offset 16
 136 0094 23341100 		sd	ra,8(sp)
 137 0098 23308100 		sd	s0,0(sp)
 138              		.cfi_offset 1, -8
 139              		.cfi_offset 8, -16
 140 009c 13040101 		addi	s0,sp,16
 141              		.cfi_def_cfa 8, 0
  31:src/syscall_cpp.cpp ****     PCB::sleep(time);
 142              		.loc 1 31 5
 143              		.loc 1 31 15 is_stmt 0
 144 00a0 97000000 		call	_ZN3PCB5sleepEm@plt
 144      E7800000 
 145              	.LVL7:
GAS LISTING /tmp/ccblwomZ.s 			page 4


  32:src/syscall_cpp.cpp **** }
 146              		.loc 1 32 1
 147 00a8 83308100 		ld	ra,8(sp)
 148              		.cfi_restore 1
 149 00ac 03340100 		ld	s0,0(sp)
 150              		.cfi_restore 8
 151              		.cfi_def_cfa 2, 16
 152 00b0 13010101 		addi	sp,sp,16
 153              		.cfi_def_cfa_offset 0
 154 00b4 67800000 		jr	ra
 155              		.cfi_endproc
 156              	.LFE23:
 158              		.align	2
 159              		.globl	_ZN6ThreadC2EPFvPvES0_
 161              	_ZN6ThreadC2EPFvPvES0_:
 162              	.LFB25:
  33:src/syscall_cpp.cpp **** 
  34:src/syscall_cpp.cpp **** Thread::Thread(void (*body)(void *), void *args) {
 163              		.loc 1 34 1 is_stmt 1
 164              		.cfi_startproc
 165              	.LVL8:
 166 00b8 130101FF 		addi	sp,sp,-16
 167              		.cfi_def_cfa_offset 16
 168 00bc 23341100 		sd	ra,8(sp)
 169 00c0 23308100 		sd	s0,0(sp)
 170              		.cfi_offset 1, -8
 171              		.cfi_offset 8, -16
 172 00c4 13040101 		addi	s0,sp,16
 173              		.cfi_def_cfa 8, 0
 174              	.LBB2:
  35:src/syscall_cpp.cpp ****     int retval = thread_create((void**)&myHandle, body, args);
 175              		.loc 1 35 5
 176              		.loc 1 35 31 is_stmt 0
 177 00c8 97000000 		call	thread_create@plt
 177      E7800000 
 178              	.LVL9:
  36:src/syscall_cpp.cpp ****     if(retval != 0)
 179              		.loc 1 36 5 is_stmt 1
 180              	.LBE2:
  37:src/syscall_cpp.cpp ****     {
  38:src/syscall_cpp.cpp ****         //todo
  39:src/syscall_cpp.cpp ****         //what then
  40:src/syscall_cpp.cpp ****     }
  41:src/syscall_cpp.cpp **** }
 181              		.loc 1 41 1 is_stmt 0
 182 00d0 83308100 		ld	ra,8(sp)
 183              		.cfi_restore 1
 184 00d4 03340100 		ld	s0,0(sp)
 185              		.cfi_restore 8
 186              		.cfi_def_cfa 2, 16
 187 00d8 13010101 		addi	sp,sp,16
 188              		.cfi_def_cfa_offset 0
 189 00dc 67800000 		jr	ra
 190              		.cfi_endproc
 191              	.LFE25:
 193              		.globl	_ZN6ThreadC1EPFvPvES0_
 194              		.set	_ZN6ThreadC1EPFvPvES0_,_ZN6ThreadC2EPFvPvES0_
GAS LISTING /tmp/ccblwomZ.s 			page 5


 195              		.align	2
 196              		.globl	_ZN6ThreadC2Ev
 198              	_ZN6ThreadC2Ev:
 199              	.LFB28:
  42:src/syscall_cpp.cpp **** 
  43:src/syscall_cpp.cpp **** Thread::Thread() {
 200              		.loc 1 43 1 is_stmt 1
 201              		.cfi_startproc
 202              	.LVL10:
 203 00e0 130101FF 		addi	sp,sp,-16
 204              		.cfi_def_cfa_offset 16
 205 00e4 23348100 		sd	s0,8(sp)
 206              		.cfi_offset 8, -8
 207 00e8 13040101 		addi	s0,sp,16
 208              		.cfi_def_cfa 8, 0
  44:src/syscall_cpp.cpp **** 
  45:src/syscall_cpp.cpp **** }
 209              		.loc 1 45 1 is_stmt 0
 210 00ec 03348100 		ld	s0,8(sp)
 211              		.cfi_restore 8
 212              		.cfi_def_cfa 2, 16
 213 00f0 13010101 		addi	sp,sp,16
 214              		.cfi_def_cfa_offset 0
 215 00f4 67800000 		jr	ra
 216              		.cfi_endproc
 217              	.LFE28:
 219              		.globl	_ZN6ThreadC1Ev
 220              		.set	_ZN6ThreadC1Ev,_ZN6ThreadC2Ev
 221              	.Letext0:
 222              		.file 2 "src/../h/../lib/hw.h"
 223              		.file 3 "src/../h/PCB.h"
 224              		.file 4 "src/../h/syscall_cpp.h"
 225              		.file 5 "src/../h/syscall_c.h"
GAS LISTING /tmp/ccblwomZ.s 			page 6


DEFINED SYMBOLS
                            *ABS*:0000000000000000 syscall_cpp.cpp
     /tmp/ccblwomZ.s:9      .text:0000000000000000 _Znwm
     /tmp/ccblwomZ.s:13     .text:0000000000000000 .L0 
     /tmp/ccblwomZ.s:15     .text:0000000000000000 .L0 
     /tmp/ccblwomZ.s:16     .text:0000000000000004 .L0 
     /tmp/ccblwomZ.s:19     .text:000000000000000c .L0 
     /tmp/ccblwomZ.s:20     .text:000000000000000c .L0 
     /tmp/ccblwomZ.s:22     .text:0000000000000010 .L0 
     /tmp/ccblwomZ.s:24     .text:0000000000000010 .L0 
     /tmp/ccblwomZ.s:25     .text:0000000000000010 .L0 
     /tmp/ccblwomZ.s:28     .text:0000000000000018 .L0 
     /tmp/ccblwomZ.s:29     .text:000000000000001c .L0 
     /tmp/ccblwomZ.s:31     .text:0000000000000020 .L0 
     /tmp/ccblwomZ.s:32     .text:0000000000000020 .L0 
     /tmp/ccblwomZ.s:34     .text:0000000000000024 .L0 
     /tmp/ccblwomZ.s:36     .text:0000000000000028 .L0 
     /tmp/ccblwomZ.s:42     .text:0000000000000028 _ZdlPv
     /tmp/ccblwomZ.s:45     .text:0000000000000028 .L0 
     /tmp/ccblwomZ.s:47     .text:0000000000000028 .L0 
     /tmp/ccblwomZ.s:48     .text:000000000000002c .L0 
     /tmp/ccblwomZ.s:51     .text:0000000000000034 .L0 
     /tmp/ccblwomZ.s:52     .text:0000000000000034 .L0 
     /tmp/ccblwomZ.s:54     .text:0000000000000038 .L0 
     /tmp/ccblwomZ.s:56     .text:0000000000000038 .L0 
     /tmp/ccblwomZ.s:57     .text:0000000000000038 .L0 
     /tmp/ccblwomZ.s:60     .text:0000000000000040 .L0 
     /tmp/ccblwomZ.s:61     .text:0000000000000044 .L0 
     /tmp/ccblwomZ.s:63     .text:0000000000000048 .L0 
     /tmp/ccblwomZ.s:64     .text:0000000000000048 .L0 
     /tmp/ccblwomZ.s:66     .text:000000000000004c .L0 
     /tmp/ccblwomZ.s:68     .text:0000000000000050 .L0 
     /tmp/ccblwomZ.s:74     .text:0000000000000050 _ZN6Thread5startEv
     /tmp/ccblwomZ.s:77     .text:0000000000000050 .L0 
     /tmp/ccblwomZ.s:79     .text:0000000000000050 .L0 
     /tmp/ccblwomZ.s:80     .text:0000000000000054 .L0 
     /tmp/ccblwomZ.s:82     .text:0000000000000058 .L0 
     /tmp/ccblwomZ.s:84     .text:000000000000005c .L0 
     /tmp/ccblwomZ.s:86     .text:000000000000005c .L0 
     /tmp/ccblwomZ.s:87     .text:0000000000000060 .L0 
     /tmp/ccblwomZ.s:88     .text:0000000000000060 .L0 
     /tmp/ccblwomZ.s:90     .text:0000000000000064 .L0 
     /tmp/ccblwomZ.s:92     .text:0000000000000068 .L0 
     /tmp/ccblwomZ.s:98     .text:0000000000000068 _ZN6Thread8dispatchEv
     /tmp/ccblwomZ.s:101    .text:0000000000000068 .L0 
     /tmp/ccblwomZ.s:102    .text:0000000000000068 .L0 
     /tmp/ccblwomZ.s:103    .text:000000000000006c .L0 
     /tmp/ccblwomZ.s:106    .text:0000000000000074 .L0 
     /tmp/ccblwomZ.s:107    .text:0000000000000074 .L0 
     /tmp/ccblwomZ.s:109    .text:0000000000000078 .L0 
     /tmp/ccblwomZ.s:111    .text:0000000000000078 .L0 
     /tmp/ccblwomZ.s:112    .text:0000000000000078 .L0 
     /tmp/ccblwomZ.s:115    .text:0000000000000080 .L0 
     /tmp/ccblwomZ.s:116    .text:0000000000000084 .L0 
     /tmp/ccblwomZ.s:118    .text:0000000000000088 .L0 
     /tmp/ccblwomZ.s:119    .text:0000000000000088 .L0 
     /tmp/ccblwomZ.s:121    .text:000000000000008c .L0 
GAS LISTING /tmp/ccblwomZ.s 			page 7


     /tmp/ccblwomZ.s:123    .text:0000000000000090 .L0 
     /tmp/ccblwomZ.s:129    .text:0000000000000090 _ZN6Thread5sleepEm
     /tmp/ccblwomZ.s:132    .text:0000000000000090 .L0 
     /tmp/ccblwomZ.s:134    .text:0000000000000090 .L0 
     /tmp/ccblwomZ.s:135    .text:0000000000000094 .L0 
     /tmp/ccblwomZ.s:138    .text:000000000000009c .L0 
     /tmp/ccblwomZ.s:139    .text:000000000000009c .L0 
     /tmp/ccblwomZ.s:141    .text:00000000000000a0 .L0 
     /tmp/ccblwomZ.s:143    .text:00000000000000a0 .L0 
     /tmp/ccblwomZ.s:144    .text:00000000000000a0 .L0 
     /tmp/ccblwomZ.s:147    .text:00000000000000a8 .L0 
     /tmp/ccblwomZ.s:148    .text:00000000000000ac .L0 
     /tmp/ccblwomZ.s:150    .text:00000000000000b0 .L0 
     /tmp/ccblwomZ.s:151    .text:00000000000000b0 .L0 
     /tmp/ccblwomZ.s:153    .text:00000000000000b4 .L0 
     /tmp/ccblwomZ.s:155    .text:00000000000000b8 .L0 
     /tmp/ccblwomZ.s:161    .text:00000000000000b8 _ZN6ThreadC2EPFvPvES0_
     /tmp/ccblwomZ.s:164    .text:00000000000000b8 .L0 
     /tmp/ccblwomZ.s:166    .text:00000000000000b8 .L0 
     /tmp/ccblwomZ.s:167    .text:00000000000000bc .L0 
     /tmp/ccblwomZ.s:170    .text:00000000000000c4 .L0 
     /tmp/ccblwomZ.s:171    .text:00000000000000c4 .L0 
     /tmp/ccblwomZ.s:173    .text:00000000000000c8 .L0 
     /tmp/ccblwomZ.s:176    .text:00000000000000c8 .L0 
     /tmp/ccblwomZ.s:177    .text:00000000000000c8 .L0 
     /tmp/ccblwomZ.s:181    .text:00000000000000d0 .L0 
     /tmp/ccblwomZ.s:182    .text:00000000000000d0 .L0 
     /tmp/ccblwomZ.s:183    .text:00000000000000d4 .L0 
     /tmp/ccblwomZ.s:185    .text:00000000000000d8 .L0 
     /tmp/ccblwomZ.s:186    .text:00000000000000d8 .L0 
     /tmp/ccblwomZ.s:188    .text:00000000000000dc .L0 
     /tmp/ccblwomZ.s:190    .text:00000000000000e0 .L0 
     /tmp/ccblwomZ.s:161    .text:00000000000000b8 _ZN6ThreadC1EPFvPvES0_
     /tmp/ccblwomZ.s:198    .text:00000000000000e0 _ZN6ThreadC2Ev
     /tmp/ccblwomZ.s:201    .text:00000000000000e0 .L0 
     /tmp/ccblwomZ.s:203    .text:00000000000000e0 .L0 
     /tmp/ccblwomZ.s:204    .text:00000000000000e4 .L0 
     /tmp/ccblwomZ.s:206    .text:00000000000000e8 .L0 
     /tmp/ccblwomZ.s:208    .text:00000000000000ec .L0 
     /tmp/ccblwomZ.s:210    .text:00000000000000ec .L0 
     /tmp/ccblwomZ.s:211    .text:00000000000000f0 .L0 
     /tmp/ccblwomZ.s:212    .text:00000000000000f0 .L0 
     /tmp/ccblwomZ.s:214    .text:00000000000000f4 .L0 
     /tmp/ccblwomZ.s:216    .text:00000000000000f8 .L0 
     /tmp/ccblwomZ.s:198    .text:00000000000000e0 _ZN6ThreadC1Ev
     /tmp/ccblwomZ.s:226    .text:00000000000000f8 .L0 
     /tmp/ccblwomZ.s:981    .debug_abbrev:0000000000000000 .Ldebug_abbrev0
     /tmp/ccblwomZ.s:2026   .debug_str:0000000000000230 .LASF65
     /tmp/ccblwomZ.s:2006   .debug_str:00000000000001a5 .LASF66
     /tmp/ccblwomZ.s:2082   .debug_str:000000000000042a .LASF67
     /tmp/ccblwomZ.s:5      .text:0000000000000000 .Ltext0
     /tmp/ccblwomZ.s:221    .text:00000000000000f8 .Letext0
     /tmp/ccblwomZ.s:1944   .debug_line:0000000000000000 .Ldebug_line0
     /tmp/ccblwomZ.s:2000   .debug_str:0000000000000182 .LASF0
     /tmp/ccblwomZ.s:2014   .debug_str:00000000000001e3 .LASF1
     /tmp/ccblwomZ.s:2048   .debug_str:000000000000034b .LASF2
     /tmp/ccblwomZ.s:2050   .debug_str:0000000000000359 .LASF4
GAS LISTING /tmp/ccblwomZ.s 			page 8


     /tmp/ccblwomZ.s:2008   .debug_str:00000000000001b9 .LASF3
     /tmp/ccblwomZ.s:1952   .debug_str:0000000000000028 .LASF5
     /tmp/ccblwomZ.s:2042   .debug_str:0000000000000328 .LASF6
     /tmp/ccblwomZ.s:2036   .debug_str:0000000000000300 .LASF7
     /tmp/ccblwomZ.s:2010   .debug_str:00000000000001cb .LASF8
     /tmp/ccblwomZ.s:1988   .debug_str:0000000000000137 .LASF9
     /tmp/ccblwomZ.s:1990   .debug_str:0000000000000147 .LASF10
     /tmp/ccblwomZ.s:1964   .debug_str:0000000000000097 .LASF11
     /tmp/ccblwomZ.s:1984   .debug_str:0000000000000123 .LASF12
     /tmp/ccblwomZ.s:1968   .debug_str:00000000000000bd .LASF13
     /tmp/ccblwomZ.s:1962   .debug_str:0000000000000087 .LASF14
     /tmp/ccblwomZ.s:2062   .debug_str:00000000000003b2 .LASF15
     /tmp/ccblwomZ.s:1976   .debug_str:00000000000000f4 .LASF16
     /tmp/ccblwomZ.s:2058   .debug_str:000000000000038e .LASF17
     /tmp/ccblwomZ.s:2066   .debug_str:00000000000003c7 .LASF41
     /tmp/ccblwomZ.s:1996   .debug_str:0000000000000173 .LASF18
     /tmp/ccblwomZ.s:2086   .debug_str:0000000000000455 .LASF68
     /tmp/ccblwomZ.s:2032   .debug_str:00000000000002e5 .LASF69
     /tmp/ccblwomZ.s:2090   .debug_str:0000000000000473 .LASF19
     /tmp/ccblwomZ.s:2076   .debug_str:00000000000003f9 .LASF26
     /tmp/ccblwomZ.s:1974   .debug_str:00000000000000eb .LASF50
     /tmp/ccblwomZ.s:1954   .debug_str:000000000000002f .LASF51
     /tmp/ccblwomZ.s:2016   .debug_str:00000000000001f6 .LASF34
     /tmp/ccblwomZ.s:2038   .debug_str:0000000000000313 .LASF36
     /tmp/ccblwomZ.s:2072   .debug_str:00000000000003de .LASF23
     /tmp/ccblwomZ.s:2056   .debug_str:0000000000000380 .LASF20
     /tmp/ccblwomZ.s:2044   .debug_str:000000000000032f .LASF21
     /tmp/ccblwomZ.s:1972   .debug_str:00000000000000db .LASF22
     /tmp/ccblwomZ.s:2052   .debug_str:0000000000000360 .LASF24
     /tmp/ccblwomZ.s:2018   .debug_str:00000000000001fc .LASF28
     /tmp/ccblwomZ.s:2020   .debug_str:0000000000000209 .LASF30
     /tmp/ccblwomZ.s:1958   .debug_str:000000000000006a .LASF25
     /tmp/ccblwomZ.s:1992   .debug_str:0000000000000155 .LASF27
     /tmp/ccblwomZ.s:2028   .debug_str:00000000000002d2 .LASF29
     /tmp/ccblwomZ.s:1966   .debug_str:00000000000000a6 .LASF31
     /tmp/ccblwomZ.s:2094   .debug_str:000000000000047e .LASF32
     /tmp/ccblwomZ.s:1978   .debug_str:000000000000010a .LASF33
     /tmp/ccblwomZ.s:1948   .debug_str:0000000000000005 .LASF35
     /tmp/ccblwomZ.s:2004   .debug_str:0000000000000198 .LASF37
     /tmp/ccblwomZ.s:2080   .debug_str:0000000000000420 .LASF38
     /tmp/ccblwomZ.s:1970   .debug_str:00000000000000cd .LASF70
     /tmp/ccblwomZ.s:1956   .debug_str:0000000000000042 .LASF71
     /tmp/ccblwomZ.s:2088   .debug_str:000000000000046c .LASF72
     /tmp/ccblwomZ.s:1960   .debug_str:0000000000000076 .LASF73
     /tmp/ccblwomZ.s:1946   .debug_str:0000000000000000 .LASF39
     /tmp/ccblwomZ.s:2092   .debug_str:0000000000000479 .LASF40
     /tmp/ccblwomZ.s:2084   .debug_str:000000000000044d .LASF42
     /tmp/ccblwomZ.s:2070   .debug_str:00000000000003d4 .LASF43
     /tmp/ccblwomZ.s:2064   .debug_str:00000000000003be .LASF44
     /tmp/ccblwomZ.s:2068   .debug_str:00000000000003cf .LASF45
     /tmp/ccblwomZ.s:2022   .debug_str:0000000000000221 .LASF46
     /tmp/ccblwomZ.s:1994   .debug_str:000000000000016c .LASF47
     /tmp/ccblwomZ.s:2098   .debug_str:000000000000049a .LASF48
     /tmp/ccblwomZ.s:1950   .debug_str:0000000000000015 .LASF49
     /tmp/ccblwomZ.s:2034   .debug_str:00000000000002ea .LASF52
     /tmp/ccblwomZ.s:2074   .debug_str:00000000000003e6 .LASF53
     /tmp/ccblwomZ.s:2002   .debug_str:000000000000018f .LASF74
GAS LISTING /tmp/ccblwomZ.s 			page 9


     /tmp/ccblwomZ.s:2096   .debug_str:000000000000048b .LASF54
     /tmp/ccblwomZ.s:1986   .debug_str:0000000000000132 .LASF55
     /tmp/ccblwomZ.s:2054   .debug_str:0000000000000371 .LASF56
     /tmp/ccblwomZ.s:199    .text:00000000000000e0 .LFB28
     /tmp/ccblwomZ.s:217    .text:00000000000000f8 .LFE28
     /tmp/ccblwomZ.s:1980   .debug_str:0000000000000116 .LASF75
     /tmp/ccblwomZ.s:2078   .debug_str:0000000000000409 .LASF57
     /tmp/ccblwomZ.s:162    .text:00000000000000b8 .LFB25
     /tmp/ccblwomZ.s:191    .text:00000000000000e0 .LFE25
     /tmp/ccblwomZ.s:1847   .debug_loc:0000000000000000 .LLST3
     /tmp/ccblwomZ.s:1861   .debug_loc:0000000000000039 .LLST4
     /tmp/ccblwomZ.s:1875   .debug_loc:0000000000000072 .LLST5
     /tmp/ccblwomZ.s:178    .text:00000000000000d0 .LVL9
     /tmp/ccblwomZ.s:174    .text:00000000000000c8 .LBB2
     /tmp/ccblwomZ.s:180    .text:00000000000000d0 .LBE2
     /tmp/ccblwomZ.s:130    .text:0000000000000090 .LFB23
     /tmp/ccblwomZ.s:156    .text:00000000000000b8 .LFE23
     /tmp/ccblwomZ.s:2040   .debug_str:0000000000000323 .LASF59
     /tmp/ccblwomZ.s:1889   .debug_loc:00000000000000ab .LLST2
     /tmp/ccblwomZ.s:145    .text:00000000000000a8 .LVL7
     /tmp/ccblwomZ.s:99     .text:0000000000000068 .LFB22
     /tmp/ccblwomZ.s:124    .text:0000000000000090 .LFE22
     /tmp/ccblwomZ.s:113    .text:0000000000000080 .LVL5
     /tmp/ccblwomZ.s:75     .text:0000000000000050 .LFB21
     /tmp/ccblwomZ.s:93     .text:0000000000000068 .LFE21
     /tmp/ccblwomZ.s:2030   .debug_str:00000000000002de .LASF58
     /tmp/ccblwomZ.s:43     .text:0000000000000028 .LFB20
     /tmp/ccblwomZ.s:69     .text:0000000000000050 .LFE20
     /tmp/ccblwomZ.s:1903   .debug_loc:00000000000000e4 .LLST1
     /tmp/ccblwomZ.s:58     .text:0000000000000040 .LVL3
     /tmp/ccblwomZ.s:1982   .debug_str:000000000000011d .LASF76
     /tmp/ccblwomZ.s:10     .text:0000000000000000 .LFB19
     /tmp/ccblwomZ.s:37     .text:0000000000000028 .LFE19
     /tmp/ccblwomZ.s:2012   .debug_str:00000000000001de .LASF60
     /tmp/ccblwomZ.s:1917   .debug_loc:000000000000011d .LLST0
     /tmp/ccblwomZ.s:26     .text:0000000000000018 .LVL1
     /tmp/ccblwomZ.s:2060   .debug_str:00000000000003a4 .LASF61
     /tmp/ccblwomZ.s:2046   .debug_str:000000000000033b .LASF62
     /tmp/ccblwomZ.s:1998   .debug_str:0000000000000179 .LASF63
     /tmp/ccblwomZ.s:2024   .debug_str:0000000000000226 .LASF64
     /tmp/ccblwomZ.s:165    .text:00000000000000b8 .LVL8
     /tmp/ccblwomZ.s:133    .text:0000000000000090 .LVL6
     /tmp/ccblwomZ.s:46     .text:0000000000000028 .LVL2
     /tmp/ccblwomZ.s:14     .text:0000000000000000 .LVL0
     /tmp/ccblwomZ.s:227    .debug_info:0000000000000000 .Ldebug_info0

UNDEFINED SYMBOLS
mem_alloc
mem_free
thread_dispatch
_ZN3PCB5sleepEm
thread_create
