GAS LISTING /tmp/ccdDHUUy.s 			page 1


   1              		.file	"syscall_c.c"
   2              		.option nopic
   3              		.option norelax
   4              		.text
   5              	.Ltext0:
   6              		.cfi_sections	.debug_frame
   7              		.align	2
   8              		.globl	mem_alloc
  10              	mem_alloc:
  11              	.LFB0:
  12              		.file 1 "src/syscall_c.c"
   1:src/syscall_c.c **** //
   2:src/syscall_c.c **** // Created by os on 4/9/22.
   3:src/syscall_c.c **** //
   4:src/syscall_c.c **** 
   5:src/syscall_c.c **** #include "../h/syscall_c.h"
   6:src/syscall_c.c **** 
   7:src/syscall_c.c **** #ifdef __cplusplus
   8:src/syscall_c.c **** extern "C"
   9:src/syscall_c.c **** #endif
  10:src/syscall_c.c **** void* mem_alloc(size_t size)
  11:src/syscall_c.c **** {
  13              		.loc 1 11 1
  14              		.cfi_startproc
  15              	.LVL0:
  16 0000 130101FF 		addi	sp,sp,-16
  17              		.cfi_def_cfa_offset 16
  18 0004 23348100 		sd	s0,8(sp)
  19              		.cfi_offset 8, -8
  20 0008 13040101 		addi	s0,sp,16
  21              		.cfi_def_cfa 8, 0
  12:src/syscall_c.c ****     //prepare for system call
  13:src/syscall_c.c ****     uint64 numBlocks = (size + MEM_BLOCK_SIZE - 1) / MEM_BLOCK_SIZE;
  22              		.loc 1 13 5
  23              		.loc 1 13 47 is_stmt 0
  24 000c 1305F503 		addi	a0,a0,63
  25              	.LVL1:
  26              		.loc 1 13 12
  27 0010 13556500 		srli	a0,a0,6
  28              	.LVL2:
  14:src/syscall_c.c ****     __asm__ volatile("mv a1, %0" :  : "r"(numBlocks));
  29              		.loc 1 14 5 is_stmt 1
  30              	#APP
  31              	# 14 "src/syscall_c.c" 1
  15              	    __asm__ volatile("li a0, 1");
  32              		mv a1, a0
  33              	# 0 "" 2
  34              		.loc 1 15 5
  35              	# 15 "src/syscall_c.c" 1
  16              	
  17:src/syscall_c.c ****     __asm__ volatile("ecall"); // system call
  36              		li a0, 1
  37              	# 0 "" 2
  38              		.loc 1 17 5
  39              	# 17 "src/syscall_c.c" 1
  18              	
  19:src/syscall_c.c ****     //get the address
GAS LISTING /tmp/ccdDHUUy.s 			page 2


  20:src/syscall_c.c ****     uint64 allocatedAddr = 0x01;
  40              		ecall
  41              	# 0 "" 2
  42              		.loc 1 20 5
  43              	.LVL3:
  21:src/syscall_c.c ****     __asm__ volatile("mv %0, a0" : "=r"(allocatedAddr));
  44              		.loc 1 21 5
  45              	# 21 "src/syscall_c.c" 1
  22              	
  46              		mv a0, a0
  47              	# 0 "" 2
  48              	.LVL4:
  23:src/syscall_c.c ****     return (void*)allocatedAddr;
  49              		.loc 1 23 5
  24:src/syscall_c.c **** }
  50              		.loc 1 24 1 is_stmt 0
  51              	#NO_APP
  52 0024 03348100 		ld	s0,8(sp)
  53              		.cfi_restore 8
  54              		.cfi_def_cfa 2, 16
  55 0028 13010101 		addi	sp,sp,16
  56              		.cfi_def_cfa_offset 0
  57 002c 67800000 		jr	ra
  58              		.cfi_endproc
  59              	.LFE0:
  61              		.align	2
  62              		.globl	mem_free
  64              	mem_free:
  65              	.LFB1:
  25:src/syscall_c.c **** 
  26:src/syscall_c.c **** #ifdef __cplusplus
  27:src/syscall_c.c **** extern "C"
  28:src/syscall_c.c **** #endif
  29:src/syscall_c.c **** int mem_free(void* p)
  30:src/syscall_c.c **** {
  66              		.loc 1 30 1 is_stmt 1
  67              		.cfi_startproc
  68              	.LVL5:
  69 0030 130101FF 		addi	sp,sp,-16
  70              		.cfi_def_cfa_offset 16
  71 0034 23348100 		sd	s0,8(sp)
  72              		.cfi_offset 8, -8
  73 0038 13040101 		addi	s0,sp,16
  74              		.cfi_def_cfa 8, 0
  31:src/syscall_c.c ****     //prepare for system call
  32:src/syscall_c.c ****     uint64 addrFree = (uint64)p;
  75              		.loc 1 32 5
  76              	.LVL6:
  33:src/syscall_c.c ****     __asm__ volatile("mv a1, %0" :  : "r"(addrFree));
  77              		.loc 1 33 5
  78              	#APP
  79              	# 33 "src/syscall_c.c" 1
  34              	    __asm__ volatile("li a0, 2");
  80              		mv a1, a0
  81              	# 0 "" 2
  82              		.loc 1 34 5
  83              	# 34 "src/syscall_c.c" 1
GAS LISTING /tmp/ccdDHUUy.s 			page 3


  35              	
  36:src/syscall_c.c ****     __asm__ volatile("ecall"); // system call
  84              		li a0, 2
  85              	# 0 "" 2
  86              		.loc 1 36 5
  87              	# 36 "src/syscall_c.c" 1
  37              	
  38:src/syscall_c.c ****     //get the result of system call
  39:src/syscall_c.c ****     uint64 result;
  88              		ecall
  89              	# 0 "" 2
  90              		.loc 1 39 5
  40:src/syscall_c.c ****     __asm__ volatile("mv %0, a0" : "=r"(result));
  91              		.loc 1 40 5
  92              	# 40 "src/syscall_c.c" 1
  41              	
  93              		mv a0, a0
  94              	# 0 "" 2
  95              	.LVL7:
  42:src/syscall_c.c ****     return result;
  96              		.loc 1 42 5
  43:src/syscall_c.c **** }
  97              		.loc 1 43 1 is_stmt 0
  98              	#NO_APP
  99 004c 1B050500 		sext.w	a0,a0
 100              	.LVL8:
 101 0050 03348100 		ld	s0,8(sp)
 102              		.cfi_restore 8
 103              		.cfi_def_cfa 2, 16
 104 0054 13010101 		addi	sp,sp,16
 105              		.cfi_def_cfa_offset 0
 106 0058 67800000 		jr	ra
 107              		.cfi_endproc
 108              	.LFE1:
 110              		.align	2
 111              		.globl	thread_create
 113              	thread_create:
 114              	.LFB2:
  44:src/syscall_c.c **** 
  45:src/syscall_c.c **** #ifdef __cplusplus
  46:src/syscall_c.c **** extern "C"
  47:src/syscall_c.c **** #endif
  48:src/syscall_c.c **** int thread_create(thread_t* handle, void (*start_routine)(void*), void* args)
  49:src/syscall_c.c **** {
 115              		.loc 1 49 1 is_stmt 1
 116              		.cfi_startproc
 117              	.LVL9:
 118 005c 130101FD 		addi	sp,sp,-48
 119              		.cfi_def_cfa_offset 48
 120 0060 23341102 		sd	ra,40(sp)
 121 0064 23308102 		sd	s0,32(sp)
 122 0068 233C9100 		sd	s1,24(sp)
 123 006c 23382101 		sd	s2,16(sp)
 124 0070 23343101 		sd	s3,8(sp)
 125              		.cfi_offset 1, -8
 126              		.cfi_offset 8, -16
 127              		.cfi_offset 9, -24
GAS LISTING /tmp/ccdDHUUy.s 			page 4


 128              		.cfi_offset 18, -32
 129              		.cfi_offset 19, -40
 130 0074 13040103 		addi	s0,sp,48
 131              		.cfi_def_cfa 8, 0
 132 0078 93040500 		mv	s1,a0
 133 007c 13890500 		mv	s2,a1
 134 0080 93090600 		mv	s3,a2
  50:src/syscall_c.c ****     uint64 handleLocal = (uint64)handle;
 135              		.loc 1 50 5
 136              	.LVL10:
  51:src/syscall_c.c ****     uint64 startRLocal = (uint64)start_routine;
 137              		.loc 1 51 5
  52:src/syscall_c.c ****     uint64 argsLocal = (uint64)args;
 138              		.loc 1 52 5
  53:src/syscall_c.c ****     uint64 opLocal = 0x11;
 139              		.loc 1 53 5
  54:src/syscall_c.c **** 
  55:src/syscall_c.c ****     void * stack_space = mem_alloc(DEFAULT_STACK_SIZE);
 140              		.loc 1 55 5
 141              		.loc 1 55 26 is_stmt 0
 142 0084 37150000 		li	a0,4096
 143              	.LVL11:
 144 0088 97000000 		call	mem_alloc
 144      E7800000 
 145              	.LVL12:
  56:src/syscall_c.c ****     uint64 stackPointerLocal = (uint64)stack_space;
 146              		.loc 1 56 5 is_stmt 1
  57:src/syscall_c.c ****     //todo
  58:src/syscall_c.c ****     //handle this error
  59:src/syscall_c.c ****     if(stack_space == 0)
 147              		.loc 1 59 5
 148              		.loc 1 59 7 is_stmt 0
 149 0090 63020504 		beqz	a0,.L7
  60:src/syscall_c.c ****         return -1;
  61:src/syscall_c.c **** 
  62:src/syscall_c.c ****     //initialize registers
  63:src/syscall_c.c **** 
  64:src/syscall_c.c ****     __asm__ volatile("mv a4, %0" :  : "r"((uint64)stackPointerLocal));
 150              		.loc 1 64 5 is_stmt 1
 151              	#APP
 152              	# 64 "src/syscall_c.c" 1
  65              	    __asm__ volatile("mv a3, %0" :  : "r"((uint64)argsLocal));
 153              		mv a4, a0
 154              	# 0 "" 2
 155              		.loc 1 65 5
 156              	# 65 "src/syscall_c.c" 1
  66              	    __asm__ volatile("mv a2, %0" :  : "r"((uint64)startRLocal));
 157              		mv a3, s3
 158              	# 0 "" 2
 159              		.loc 1 66 5
 160              	# 66 "src/syscall_c.c" 1
  67              	    __asm__ volatile("mv a1, %0" :  : "r"((uint64)handleLocal));
 161              		mv a2, s2
 162              	# 0 "" 2
 163              		.loc 1 67 5
 164              	# 67 "src/syscall_c.c" 1
  68              	    __asm__ volatile("mv a0, %0" :  : "r"((uint64)opLocal));
GAS LISTING /tmp/ccdDHUUy.s 			page 5


 165              		mv a1, s1
 166              	# 0 "" 2
 167              		.loc 1 68 5
 168              	#NO_APP
 169 00a4 93071001 		li	a5,17
 170              	#APP
 171              	# 68 "src/syscall_c.c" 1
  69              	
  70:src/syscall_c.c **** 
  71:src/syscall_c.c ****     __asm__ volatile("ecall");
 172              		mv a0, a5
 173              	# 0 "" 2
 174              		.loc 1 71 5
 175              	# 71 "src/syscall_c.c" 1
  72              	
  73:src/syscall_c.c ****     uint64 result;
 176              		ecall
 177              	# 0 "" 2
 178              		.loc 1 73 5
  74:src/syscall_c.c ****     __asm__ volatile("mv %0, a0" : "=r"(result));
 179              		.loc 1 74 5
 180              	# 74 "src/syscall_c.c" 1
  75              	
 181              		mv a0, a0
 182              	# 0 "" 2
 183              	.LVL13:
  76:src/syscall_c.c ****     return result;
 184              		.loc 1 76 5
 185              		.loc 1 76 12 is_stmt 0
 186              	#NO_APP
 187 00b4 1B050500 		sext.w	a0,a0
 188              	.LVL14:
 189              	.L6:
  77:src/syscall_c.c **** }
 190              		.loc 1 77 1
 191 00b8 83308102 		ld	ra,40(sp)
 192              		.cfi_remember_state
 193              		.cfi_restore 1
 194 00bc 03340102 		ld	s0,32(sp)
 195              		.cfi_restore 8
 196              		.cfi_def_cfa 2, 48
 197 00c0 83348101 		ld	s1,24(sp)
 198              		.cfi_restore 9
 199              	.LVL15:
 200 00c4 03390101 		ld	s2,16(sp)
 201              		.cfi_restore 18
 202              	.LVL16:
 203 00c8 83398100 		ld	s3,8(sp)
 204              		.cfi_restore 19
 205              	.LVL17:
 206 00cc 13010103 		addi	sp,sp,48
 207              		.cfi_def_cfa_offset 0
 208 00d0 67800000 		jr	ra
 209              	.LVL18:
 210              	.L7:
 211              		.cfi_restore_state
  60:src/syscall_c.c **** 
GAS LISTING /tmp/ccdDHUUy.s 			page 6


 212              		.loc 1 60 16
 213 00d4 1305F0FF 		li	a0,-1
 214              	.LVL19:
 215 00d8 6FF01FFE 		j	.L6
 216              		.cfi_endproc
 217              	.LFE2:
 219              		.align	2
 220              		.globl	thread_dispatch
 222              	thread_dispatch:
 223              	.LFB3:
  78:src/syscall_c.c **** 
  79:src/syscall_c.c **** #ifdef __cplusplus
  80:src/syscall_c.c **** extern "C"
  81:src/syscall_c.c **** #endif
  82:src/syscall_c.c **** void thread_dispatch(){
 224              		.loc 1 82 23 is_stmt 1
 225              		.cfi_startproc
 226 00dc 130101FF 		addi	sp,sp,-16
 227              		.cfi_def_cfa_offset 16
 228 00e0 23348100 		sd	s0,8(sp)
 229              		.cfi_offset 8, -8
 230 00e4 13040101 		addi	s0,sp,16
 231              		.cfi_def_cfa 8, 0
  83:src/syscall_c.c ****     __asm__ volatile("li a0, 0x13");
 232              		.loc 1 83 5
 233              	#APP
 234              	# 83 "src/syscall_c.c" 1
  84              	    __asm__ volatile("ecall");
 235              		li a0, 0x13
 236              	# 0 "" 2
 237              		.loc 1 84 5
 238              	# 84 "src/syscall_c.c" 1
  85              	}
 239              		ecall
 240              	# 0 "" 2
 241              		.loc 1 85 1 is_stmt 0
 242              	#NO_APP
 243 00f0 03348100 		ld	s0,8(sp)
 244              		.cfi_restore 8
 245              		.cfi_def_cfa 2, 16
 246 00f4 13010101 		addi	sp,sp,16
 247              		.cfi_def_cfa_offset 0
 248 00f8 67800000 		jr	ra
 249              		.cfi_endproc
 250              	.LFE3:
 252              		.align	2
 253              		.globl	thread_exit
 255              	thread_exit:
 256              	.LFB4:
  86:src/syscall_c.c **** 
  87:src/syscall_c.c **** #ifdef __cplusplus
  88:src/syscall_c.c **** extern "C"
  89:src/syscall_c.c **** #endif
  90:src/syscall_c.c **** int thread_exit()
  91:src/syscall_c.c **** {
 257              		.loc 1 91 1 is_stmt 1
 258              		.cfi_startproc
GAS LISTING /tmp/ccdDHUUy.s 			page 7


 259 00fc 130101FF 		addi	sp,sp,-16
 260              		.cfi_def_cfa_offset 16
 261 0100 23348100 		sd	s0,8(sp)
 262              		.cfi_offset 8, -8
 263 0104 13040101 		addi	s0,sp,16
 264              		.cfi_def_cfa 8, 0
  92:src/syscall_c.c ****     __asm__ volatile("li a0, 0x13");
 265              		.loc 1 92 5
 266              	#APP
 267              	# 92 "src/syscall_c.c" 1
  93              	
  94:src/syscall_c.c ****     __asm__ volatile("ecall");
 268              		li a0, 0x13
 269              	# 0 "" 2
 270              		.loc 1 94 5
 271              	# 94 "src/syscall_c.c" 1
  95              	
  96:src/syscall_c.c ****     uint64 result;
 272              		ecall
 273              	# 0 "" 2
 274              		.loc 1 96 5
  97:src/syscall_c.c ****     __asm__ volatile("mv %0, a0" : "=r"(result));
 275              		.loc 1 97 5
 276              	# 97 "src/syscall_c.c" 1
  98              	
 277              		mv a0, a0
 278              	# 0 "" 2
 279              	.LVL20:
  99:src/syscall_c.c ****     return result;
 280              		.loc 1 99 5
 100:src/syscall_c.c **** }
 281              		.loc 1 100 1 is_stmt 0
 282              	#NO_APP
 283 0114 1B050500 		sext.w	a0,a0
 284              	.LVL21:
 285 0118 03348100 		ld	s0,8(sp)
 286              		.cfi_restore 8
 287              		.cfi_def_cfa 2, 16
 288 011c 13010101 		addi	sp,sp,16
 289              		.cfi_def_cfa_offset 0
 290 0120 67800000 		jr	ra
 291              		.cfi_endproc
 292              	.LFE4:
 294              		.align	2
 295              		.globl	sem_open
 297              	sem_open:
 298              	.LFB5:
 101:src/syscall_c.c **** 
 102:src/syscall_c.c **** typedef void* sem_t;
 103:src/syscall_c.c **** int sem_open(sem_t* handle, unsigned int x)
 104:src/syscall_c.c **** {
 299              		.loc 1 104 1 is_stmt 1
 300              		.cfi_startproc
 301              	.LVL22:
 302 0124 130101FF 		addi	sp,sp,-16
 303              		.cfi_def_cfa_offset 16
 304 0128 23348100 		sd	s0,8(sp)
GAS LISTING /tmp/ccdDHUUy.s 			page 8


 305              		.cfi_offset 8, -8
 306 012c 13040101 		addi	s0,sp,16
 307              		.cfi_def_cfa 8, 0
 105:src/syscall_c.c ****     __asm__ volatile("mv a2, %0" :  : "r"((uint64)x));
 308              		.loc 1 105 5
 309              		.loc 1 105 43 is_stmt 0
 310 0130 93950502 		slli	a1,a1,32
 311              	.LVL23:
 312 0134 93D50502 		srli	a1,a1,32
 313              		.loc 1 105 5
 314              	#APP
 315              	# 105 "src/syscall_c.c" 1
 106              	    __asm__ volatile("mv a1, %0" :  : "r"((uint64)handle));
 316              		mv a2, a1
 317              	# 0 "" 2
 318              		.loc 1 106 5 is_stmt 1
 319              	# 106 "src/syscall_c.c" 1
 107              	    __asm__ volatile("li a0, 0x21");
 320              		mv a1, a0
 321              	# 0 "" 2
 322              		.loc 1 107 5
 323              	# 107 "src/syscall_c.c" 1
 108              	
 109:src/syscall_c.c ****     __asm__ volatile("ecall");
 324              		li a0, 0x21
 325              	# 0 "" 2
 326              		.loc 1 109 5
 327              	# 109 "src/syscall_c.c" 1
 110              	
 111:src/syscall_c.c ****     uint64 result;
 328              		ecall
 329              	# 0 "" 2
 330              		.loc 1 111 5
 112:src/syscall_c.c ****     __asm__ volatile("mv %0, a0" : "=r"(result));
 331              		.loc 1 112 5
 332              	# 112 "src/syscall_c.c" 1
 113              	
 333              		mv a0, a0
 334              	# 0 "" 2
 335              	.LVL24:
 114:src/syscall_c.c ****     return result;
 336              		.loc 1 114 5
 115:src/syscall_c.c **** }
 337              		.loc 1 115 1 is_stmt 0
 338              	#NO_APP
 339 014c 1B050500 		sext.w	a0,a0
 340              	.LVL25:
 341 0150 03348100 		ld	s0,8(sp)
 342              		.cfi_restore 8
 343              		.cfi_def_cfa 2, 16
 344 0154 13010101 		addi	sp,sp,16
 345              		.cfi_def_cfa_offset 0
 346 0158 67800000 		jr	ra
 347              		.cfi_endproc
 348              	.LFE5:
 350              		.align	2
 351              		.globl	sem_close
GAS LISTING /tmp/ccdDHUUy.s 			page 9


 353              	sem_close:
 354              	.LFB6:
 116:src/syscall_c.c **** 
 117:src/syscall_c.c **** 
 118:src/syscall_c.c **** int sem_close(sem_t handle)
 119:src/syscall_c.c **** {
 355              		.loc 1 119 1 is_stmt 1
 356              		.cfi_startproc
 357              	.LVL26:
 358 015c 130101FF 		addi	sp,sp,-16
 359              		.cfi_def_cfa_offset 16
 360 0160 23348100 		sd	s0,8(sp)
 361              		.cfi_offset 8, -8
 362 0164 13040101 		addi	s0,sp,16
 363              		.cfi_def_cfa 8, 0
 120:src/syscall_c.c ****     __asm__ volatile("mv a1, %0" :  : "r"((uint64)handle));
 364              		.loc 1 120 5
 365              	#APP
 366              	# 120 "src/syscall_c.c" 1
 121              	    __asm__ volatile("li a0, 0x22");
 367              		mv a1, a0
 368              	# 0 "" 2
 369              		.loc 1 121 5
 370              	# 121 "src/syscall_c.c" 1
 122              	
 123:src/syscall_c.c ****     __asm__ volatile("ecall");
 371              		li a0, 0x22
 372              	# 0 "" 2
 373              		.loc 1 123 5
 374              	# 123 "src/syscall_c.c" 1
 124              	
 125:src/syscall_c.c ****     uint64 result;
 375              		ecall
 376              	# 0 "" 2
 377              		.loc 1 125 5
 126:src/syscall_c.c ****     __asm__ volatile("mv %0, a0" : "=r"(result));
 378              		.loc 1 126 5
 379              	# 126 "src/syscall_c.c" 1
 127              	
 380              		mv a0, a0
 381              	# 0 "" 2
 382              	.LVL27:
 128:src/syscall_c.c ****     return result;
 383              		.loc 1 128 5
 129:src/syscall_c.c **** }
 384              		.loc 1 129 1 is_stmt 0
 385              	#NO_APP
 386 0178 1B050500 		sext.w	a0,a0
 387              	.LVL28:
 388 017c 03348100 		ld	s0,8(sp)
 389              		.cfi_restore 8
 390              		.cfi_def_cfa 2, 16
 391 0180 13010101 		addi	sp,sp,16
 392              		.cfi_def_cfa_offset 0
 393 0184 67800000 		jr	ra
 394              		.cfi_endproc
 395              	.LFE6:
GAS LISTING /tmp/ccdDHUUy.s 			page 10


 397              		.align	2
 398              		.globl	sem_wait
 400              	sem_wait:
 401              	.LFB7:
 130:src/syscall_c.c **** 
 131:src/syscall_c.c **** int sem_wait(sem_t id)
 132:src/syscall_c.c **** {
 402              		.loc 1 132 1 is_stmt 1
 403              		.cfi_startproc
 404              	.LVL29:
 405 0188 130101FF 		addi	sp,sp,-16
 406              		.cfi_def_cfa_offset 16
 407 018c 23348100 		sd	s0,8(sp)
 408              		.cfi_offset 8, -8
 409 0190 13040101 		addi	s0,sp,16
 410              		.cfi_def_cfa 8, 0
 133:src/syscall_c.c ****     __asm__ volatile("mv a1, %0" :  : "r"((uint64)id));
 411              		.loc 1 133 5
 412              	#APP
 413              	# 133 "src/syscall_c.c" 1
 134              	    __asm__ volatile("li a0, 0x23");
 414              		mv a1, a0
 415              	# 0 "" 2
 416              		.loc 1 134 5
 417              	# 134 "src/syscall_c.c" 1
 135              	
 136:src/syscall_c.c ****     __asm__ volatile("ecall");
 418              		li a0, 0x23
 419              	# 0 "" 2
 420              		.loc 1 136 5
 421              	# 136 "src/syscall_c.c" 1
 137              	
 138:src/syscall_c.c ****     uint64 result;
 422              		ecall
 423              	# 0 "" 2
 424              		.loc 1 138 5
 139:src/syscall_c.c ****     __asm__ volatile("mv %0, a0" : "=r"(result));
 425              		.loc 1 139 5
 426              	# 139 "src/syscall_c.c" 1
 140              	
 427              		mv a0, a0
 428              	# 0 "" 2
 429              	.LVL30:
 141:src/syscall_c.c ****     return result;
 430              		.loc 1 141 5
 142:src/syscall_c.c **** }
 431              		.loc 1 142 1 is_stmt 0
 432              	#NO_APP
 433 01a4 1B050500 		sext.w	a0,a0
 434              	.LVL31:
 435 01a8 03348100 		ld	s0,8(sp)
 436              		.cfi_restore 8
 437              		.cfi_def_cfa 2, 16
 438 01ac 13010101 		addi	sp,sp,16
 439              		.cfi_def_cfa_offset 0
 440 01b0 67800000 		jr	ra
 441              		.cfi_endproc
GAS LISTING /tmp/ccdDHUUy.s 			page 11


 442              	.LFE7:
 444              		.align	2
 445              		.globl	sem_signal
 447              	sem_signal:
 448              	.LFB8:
 143:src/syscall_c.c **** 
 144:src/syscall_c.c **** int sem_signal(sem_t id)
 145:src/syscall_c.c **** {
 449              		.loc 1 145 1 is_stmt 1
 450              		.cfi_startproc
 451              	.LVL32:
 452 01b4 130101FF 		addi	sp,sp,-16
 453              		.cfi_def_cfa_offset 16
 454 01b8 23348100 		sd	s0,8(sp)
 455              		.cfi_offset 8, -8
 456 01bc 13040101 		addi	s0,sp,16
 457              		.cfi_def_cfa 8, 0
 146:src/syscall_c.c ****     __asm__ volatile("mv a1, %0" :  : "r"((uint64)id));
 458              		.loc 1 146 5
 459              	#APP
 460              	# 146 "src/syscall_c.c" 1
 147              	    __asm__ volatile("li a0, 0x24");
 461              		mv a1, a0
 462              	# 0 "" 2
 463              		.loc 1 147 5
 464              	# 147 "src/syscall_c.c" 1
 148              	
 149:src/syscall_c.c ****     __asm__ volatile("ecall");
 465              		li a0, 0x24
 466              	# 0 "" 2
 467              		.loc 1 149 5
 468              	# 149 "src/syscall_c.c" 1
 150              	
 151:src/syscall_c.c ****     uint64 result;
 469              		ecall
 470              	# 0 "" 2
 471              		.loc 1 151 5
 152:src/syscall_c.c ****     __asm__ volatile("mv %0, a0" : "=r"(result));
 472              		.loc 1 152 5
 473              	# 152 "src/syscall_c.c" 1
 153              	
 474              		mv a0, a0
 475              	# 0 "" 2
 476              	.LVL33:
 154:src/syscall_c.c ****     return result;
 477              		.loc 1 154 5
 155:src/syscall_c.c **** }
 478              		.loc 1 155 1 is_stmt 0
 479              	#NO_APP
 480 01d0 1B050500 		sext.w	a0,a0
 481              	.LVL34:
 482 01d4 03348100 		ld	s0,8(sp)
 483              		.cfi_restore 8
 484              		.cfi_def_cfa 2, 16
 485 01d8 13010101 		addi	sp,sp,16
 486              		.cfi_def_cfa_offset 0
 487 01dc 67800000 		jr	ra
GAS LISTING /tmp/ccdDHUUy.s 			page 12


 488              		.cfi_endproc
 489              	.LFE8:
 491              	.Letext0:
 492              		.file 2 "src/../h/../lib/hw.h"
 493              		.file 3 "src/../h/syscall_c.h"
GAS LISTING /tmp/ccdDHUUy.s 			page 13


DEFINED SYMBOLS
                            *ABS*:0000000000000000 syscall_c.c
     /tmp/ccdDHUUy.s:10     .text:0000000000000000 mem_alloc
     /tmp/ccdDHUUy.s:14     .text:0000000000000000 .L0 
     /tmp/ccdDHUUy.s:16     .text:0000000000000000 .L0 
     /tmp/ccdDHUUy.s:17     .text:0000000000000004 .L0 
     /tmp/ccdDHUUy.s:19     .text:0000000000000008 .L0 
     /tmp/ccdDHUUy.s:21     .text:000000000000000c .L0 
     /tmp/ccdDHUUy.s:23     .text:000000000000000c .L0 
     /tmp/ccdDHUUy.s:24     .text:000000000000000c .L0 
     /tmp/ccdDHUUy.s:27     .text:0000000000000010 .L0 
     src/syscall_c.c:14     .text:0000000000000014 .L0 
     src/syscall_c.c:15     .text:0000000000000018 .L0 
     src/syscall_c.c:17     .text:000000000000001c .L0 
     /tmp/ccdDHUUy.s:44     .text:0000000000000020 .L0 
     src/syscall_c.c:21     .text:0000000000000020 .L0 
     /tmp/ccdDHUUy.s:50     .text:0000000000000024 .L0 
     /tmp/ccdDHUUy.s:52     .text:0000000000000024 .L0 
     /tmp/ccdDHUUy.s:53     .text:0000000000000028 .L0 
     /tmp/ccdDHUUy.s:54     .text:0000000000000028 .L0 
     /tmp/ccdDHUUy.s:56     .text:000000000000002c .L0 
     /tmp/ccdDHUUy.s:58     .text:0000000000000030 .L0 
     /tmp/ccdDHUUy.s:64     .text:0000000000000030 mem_free
     /tmp/ccdDHUUy.s:67     .text:0000000000000030 .L0 
     /tmp/ccdDHUUy.s:69     .text:0000000000000030 .L0 
     /tmp/ccdDHUUy.s:70     .text:0000000000000034 .L0 
     /tmp/ccdDHUUy.s:72     .text:0000000000000038 .L0 
     /tmp/ccdDHUUy.s:74     .text:000000000000003c .L0 
     /tmp/ccdDHUUy.s:77     .text:000000000000003c .L0 
     src/syscall_c.c:33     .text:000000000000003c .L0 
     src/syscall_c.c:34     .text:0000000000000040 .L0 
     src/syscall_c.c:36     .text:0000000000000044 .L0 
     /tmp/ccdDHUUy.s:91     .text:0000000000000048 .L0 
     src/syscall_c.c:40     .text:0000000000000048 .L0 
     /tmp/ccdDHUUy.s:97     .text:000000000000004c .L0 
     /tmp/ccdDHUUy.s:99     .text:000000000000004c .L0 
     /tmp/ccdDHUUy.s:102    .text:0000000000000054 .L0 
     /tmp/ccdDHUUy.s:103    .text:0000000000000054 .L0 
     /tmp/ccdDHUUy.s:105    .text:0000000000000058 .L0 
     /tmp/ccdDHUUy.s:107    .text:000000000000005c .L0 
     /tmp/ccdDHUUy.s:113    .text:000000000000005c thread_create
     /tmp/ccdDHUUy.s:116    .text:000000000000005c .L0 
     /tmp/ccdDHUUy.s:118    .text:000000000000005c .L0 
     /tmp/ccdDHUUy.s:119    .text:0000000000000060 .L0 
     /tmp/ccdDHUUy.s:125    .text:0000000000000074 .L0 
     /tmp/ccdDHUUy.s:126    .text:0000000000000074 .L0 
     /tmp/ccdDHUUy.s:127    .text:0000000000000074 .L0 
     /tmp/ccdDHUUy.s:128    .text:0000000000000074 .L0 
     /tmp/ccdDHUUy.s:129    .text:0000000000000074 .L0 
     /tmp/ccdDHUUy.s:131    .text:0000000000000078 .L0 
     /tmp/ccdDHUUy.s:137    .text:0000000000000084 .L0 
     /tmp/ccdDHUUy.s:138    .text:0000000000000084 .L0 
     /tmp/ccdDHUUy.s:139    .text:0000000000000084 .L0 
     /tmp/ccdDHUUy.s:140    .text:0000000000000084 .L0 
     /tmp/ccdDHUUy.s:141    .text:0000000000000084 .L0 
     /tmp/ccdDHUUy.s:142    .text:0000000000000084 .L0 
     /tmp/ccdDHUUy.s:147    .text:0000000000000090 .L0 
GAS LISTING /tmp/ccdDHUUy.s 			page 14


     /tmp/ccdDHUUy.s:148    .text:0000000000000090 .L0 
     /tmp/ccdDHUUy.s:149    .text:0000000000000090 .L0 
     src/syscall_c.c:64     .text:0000000000000094 .L0 
     src/syscall_c.c:65     .text:0000000000000098 .L0 
     src/syscall_c.c:66     .text:000000000000009c .L0 
     src/syscall_c.c:67     .text:00000000000000a0 .L0 
     /tmp/ccdDHUUy.s:169    .text:00000000000000a4 .L0 
     src/syscall_c.c:71     .text:00000000000000ac .L0 
     /tmp/ccdDHUUy.s:179    .text:00000000000000b0 .L0 
     src/syscall_c.c:74     .text:00000000000000b0 .L0 
     /tmp/ccdDHUUy.s:185    .text:00000000000000b4 .L0 
     /tmp/ccdDHUUy.s:187    .text:00000000000000b4 .L0 
     /tmp/ccdDHUUy.s:191    .text:00000000000000b8 .L0 
     /tmp/ccdDHUUy.s:192    .text:00000000000000bc .L0 
     /tmp/ccdDHUUy.s:193    .text:00000000000000bc .L0 
     /tmp/ccdDHUUy.s:195    .text:00000000000000c0 .L0 
     /tmp/ccdDHUUy.s:196    .text:00000000000000c0 .L0 
     /tmp/ccdDHUUy.s:198    .text:00000000000000c4 .L0 
     /tmp/ccdDHUUy.s:201    .text:00000000000000c8 .L0 
     /tmp/ccdDHUUy.s:204    .text:00000000000000cc .L0 
     /tmp/ccdDHUUy.s:207    .text:00000000000000d0 .L0 
     /tmp/ccdDHUUy.s:211    .text:00000000000000d4 .L0 
     /tmp/ccdDHUUy.s:213    .text:00000000000000d4 .L0 
     /tmp/ccdDHUUy.s:216    .text:00000000000000dc .L0 
     /tmp/ccdDHUUy.s:222    .text:00000000000000dc thread_dispatch
     /tmp/ccdDHUUy.s:225    .text:00000000000000dc .L0 
     /tmp/ccdDHUUy.s:226    .text:00000000000000dc .L0 
     /tmp/ccdDHUUy.s:227    .text:00000000000000e0 .L0 
     /tmp/ccdDHUUy.s:229    .text:00000000000000e4 .L0 
     /tmp/ccdDHUUy.s:231    .text:00000000000000e8 .L0 
     src/syscall_c.c:83     .text:00000000000000e8 .L0 
     src/syscall_c.c:84     .text:00000000000000ec .L0 
     /tmp/ccdDHUUy.s:243    .text:00000000000000f0 .L0 
     /tmp/ccdDHUUy.s:244    .text:00000000000000f4 .L0 
     /tmp/ccdDHUUy.s:245    .text:00000000000000f4 .L0 
     /tmp/ccdDHUUy.s:247    .text:00000000000000f8 .L0 
     /tmp/ccdDHUUy.s:249    .text:00000000000000fc .L0 
     /tmp/ccdDHUUy.s:255    .text:00000000000000fc thread_exit
     /tmp/ccdDHUUy.s:258    .text:00000000000000fc .L0 
     /tmp/ccdDHUUy.s:259    .text:00000000000000fc .L0 
     /tmp/ccdDHUUy.s:260    .text:0000000000000100 .L0 
     /tmp/ccdDHUUy.s:262    .text:0000000000000104 .L0 
     /tmp/ccdDHUUy.s:264    .text:0000000000000108 .L0 
     src/syscall_c.c:92     .text:0000000000000108 .L0 
     src/syscall_c.c:94     .text:000000000000010c .L0 
     /tmp/ccdDHUUy.s:275    .text:0000000000000110 .L0 
     src/syscall_c.c:97     .text:0000000000000110 .L0 
     /tmp/ccdDHUUy.s:281    .text:0000000000000114 .L0 
     /tmp/ccdDHUUy.s:283    .text:0000000000000114 .L0 
     /tmp/ccdDHUUy.s:286    .text:000000000000011c .L0 
     /tmp/ccdDHUUy.s:287    .text:000000000000011c .L0 
     /tmp/ccdDHUUy.s:289    .text:0000000000000120 .L0 
     /tmp/ccdDHUUy.s:291    .text:0000000000000124 .L0 
     /tmp/ccdDHUUy.s:297    .text:0000000000000124 sem_open
     /tmp/ccdDHUUy.s:300    .text:0000000000000124 .L0 
     /tmp/ccdDHUUy.s:302    .text:0000000000000124 .L0 
     /tmp/ccdDHUUy.s:303    .text:0000000000000128 .L0 
GAS LISTING /tmp/ccdDHUUy.s 			page 15


     /tmp/ccdDHUUy.s:305    .text:000000000000012c .L0 
     /tmp/ccdDHUUy.s:307    .text:0000000000000130 .L0 
     /tmp/ccdDHUUy.s:309    .text:0000000000000130 .L0 
     /tmp/ccdDHUUy.s:310    .text:0000000000000130 .L0 
     src/syscall_c.c:105    .text:0000000000000138 .L0 
     src/syscall_c.c:106    .text:000000000000013c .L0 
     src/syscall_c.c:107    .text:0000000000000140 .L0 
     src/syscall_c.c:109    .text:0000000000000144 .L0 
     /tmp/ccdDHUUy.s:331    .text:0000000000000148 .L0 
     src/syscall_c.c:112    .text:0000000000000148 .L0 
     /tmp/ccdDHUUy.s:337    .text:000000000000014c .L0 
     /tmp/ccdDHUUy.s:339    .text:000000000000014c .L0 
     /tmp/ccdDHUUy.s:342    .text:0000000000000154 .L0 
     /tmp/ccdDHUUy.s:343    .text:0000000000000154 .L0 
     /tmp/ccdDHUUy.s:345    .text:0000000000000158 .L0 
     /tmp/ccdDHUUy.s:347    .text:000000000000015c .L0 
     /tmp/ccdDHUUy.s:353    .text:000000000000015c sem_close
     /tmp/ccdDHUUy.s:356    .text:000000000000015c .L0 
     /tmp/ccdDHUUy.s:358    .text:000000000000015c .L0 
     /tmp/ccdDHUUy.s:359    .text:0000000000000160 .L0 
     /tmp/ccdDHUUy.s:361    .text:0000000000000164 .L0 
     /tmp/ccdDHUUy.s:363    .text:0000000000000168 .L0 
     src/syscall_c.c:120    .text:0000000000000168 .L0 
     src/syscall_c.c:121    .text:000000000000016c .L0 
     src/syscall_c.c:123    .text:0000000000000170 .L0 
     /tmp/ccdDHUUy.s:378    .text:0000000000000174 .L0 
     src/syscall_c.c:126    .text:0000000000000174 .L0 
     /tmp/ccdDHUUy.s:384    .text:0000000000000178 .L0 
     /tmp/ccdDHUUy.s:386    .text:0000000000000178 .L0 
     /tmp/ccdDHUUy.s:389    .text:0000000000000180 .L0 
     /tmp/ccdDHUUy.s:390    .text:0000000000000180 .L0 
     /tmp/ccdDHUUy.s:392    .text:0000000000000184 .L0 
     /tmp/ccdDHUUy.s:394    .text:0000000000000188 .L0 
     /tmp/ccdDHUUy.s:400    .text:0000000000000188 sem_wait
     /tmp/ccdDHUUy.s:403    .text:0000000000000188 .L0 
     /tmp/ccdDHUUy.s:405    .text:0000000000000188 .L0 
     /tmp/ccdDHUUy.s:406    .text:000000000000018c .L0 
     /tmp/ccdDHUUy.s:408    .text:0000000000000190 .L0 
     /tmp/ccdDHUUy.s:410    .text:0000000000000194 .L0 
     src/syscall_c.c:133    .text:0000000000000194 .L0 
     src/syscall_c.c:134    .text:0000000000000198 .L0 
     src/syscall_c.c:136    .text:000000000000019c .L0 
     /tmp/ccdDHUUy.s:425    .text:00000000000001a0 .L0 
     src/syscall_c.c:139    .text:00000000000001a0 .L0 
     /tmp/ccdDHUUy.s:431    .text:00000000000001a4 .L0 
     /tmp/ccdDHUUy.s:433    .text:00000000000001a4 .L0 
     /tmp/ccdDHUUy.s:436    .text:00000000000001ac .L0 
     /tmp/ccdDHUUy.s:437    .text:00000000000001ac .L0 
     /tmp/ccdDHUUy.s:439    .text:00000000000001b0 .L0 
     /tmp/ccdDHUUy.s:441    .text:00000000000001b4 .L0 
     /tmp/ccdDHUUy.s:447    .text:00000000000001b4 sem_signal
     /tmp/ccdDHUUy.s:450    .text:00000000000001b4 .L0 
     /tmp/ccdDHUUy.s:452    .text:00000000000001b4 .L0 
     /tmp/ccdDHUUy.s:453    .text:00000000000001b8 .L0 
     /tmp/ccdDHUUy.s:455    .text:00000000000001bc .L0 
     /tmp/ccdDHUUy.s:457    .text:00000000000001c0 .L0 
     src/syscall_c.c:146    .text:00000000000001c0 .L0 
GAS LISTING /tmp/ccdDHUUy.s 			page 16


     src/syscall_c.c:147    .text:00000000000001c4 .L0 
     src/syscall_c.c:149    .text:00000000000001c8 .L0 
     /tmp/ccdDHUUy.s:472    .text:00000000000001cc .L0 
     src/syscall_c.c:152    .text:00000000000001cc .L0 
     /tmp/ccdDHUUy.s:478    .text:00000000000001d0 .L0 
     /tmp/ccdDHUUy.s:480    .text:00000000000001d0 .L0 
     /tmp/ccdDHUUy.s:483    .text:00000000000001d8 .L0 
     /tmp/ccdDHUUy.s:484    .text:00000000000001d8 .L0 
     /tmp/ccdDHUUy.s:486    .text:00000000000001dc .L0 
     /tmp/ccdDHUUy.s:488    .text:00000000000001e0 .L0 
     /tmp/ccdDHUUy.s:494    .text:00000000000001e0 .L0 
                     .debug_frame:0000000000000000 .L0 
     /tmp/ccdDHUUy.s:210    .text:00000000000000d4 .L7
     /tmp/ccdDHUUy.s:189    .text:00000000000000b8 .L6
     /tmp/ccdDHUUy.s:945    .debug_abbrev:0000000000000000 .Ldebug_abbrev0
     /tmp/ccdDHUUy.s:1663   .debug_str:0000000000000061 .LASF40
     /tmp/ccdDHUUy.s:1665   .debug_str:00000000000000ff .LASF41
     /tmp/ccdDHUUy.s:1711   .debug_str:000000000000022e .LASF42
     /tmp/ccdDHUUy.s:5      .text:0000000000000000 .Ltext0
     /tmp/ccdDHUUy.s:491    .text:00000000000001e0 .Letext0
     /tmp/ccdDHUUy.s:1645   .debug_line:0000000000000000 .Ldebug_line0
     /tmp/ccdDHUUy.s:1695   .debug_str:00000000000001c6 .LASF0
     /tmp/ccdDHUUy.s:1679   .debug_str:0000000000000164 .LASF1
     /tmp/ccdDHUUy.s:1671   .debug_str:0000000000000130 .LASF2
     /tmp/ccdDHUUy.s:1657   .debug_str:0000000000000036 .LASF4
     /tmp/ccdDHUUy.s:1675   .debug_str:0000000000000148 .LASF3
     /tmp/ccdDHUUy.s:1649   .debug_str:0000000000000013 .LASF5
     /tmp/ccdDHUUy.s:1647   .debug_str:0000000000000000 .LASF6
     /tmp/ccdDHUUy.s:1717   .debug_str:000000000000026b .LASF7
     /tmp/ccdDHUUy.s:1701   .debug_str:00000000000001e6 .LASF8
     /tmp/ccdDHUUy.s:1655   .debug_str:0000000000000028 .LASF9
     /tmp/ccdDHUUy.s:1735   .debug_str:00000000000002cc .LASF10
     /tmp/ccdDHUUy.s:1667   .debug_str:000000000000010f .LASF11
     /tmp/ccdDHUUy.s:1725   .debug_str:0000000000000295 .LASF12
     /tmp/ccdDHUUy.s:1707   .debug_str:0000000000000215 .LASF13
     /tmp/ccdDHUUy.s:1683   .debug_str:0000000000000185 .LASF14
     /tmp/ccdDHUUy.s:1661   .debug_str:000000000000004b .LASF15
     /tmp/ccdDHUUy.s:1703   .debug_str:00000000000001f6 .LASF16
     /tmp/ccdDHUUy.s:1705   .debug_str:000000000000020c .LASF17
     /tmp/ccdDHUUy.s:1653   .debug_str:0000000000000022 .LASF18
     /tmp/ccdDHUUy.s:1687   .debug_str:0000000000000198 .LASF20
     /tmp/ccdDHUUy.s:448    .text:00000000000001b4 .LFB8
     /tmp/ccdDHUUy.s:489    .text:00000000000001e0 .LFE8
     /tmp/ccdDHUUy.s:1292   .debug_loc:0000000000000000 .LLST22
     /tmp/ccdDHUUy.s:1699   .debug_str:00000000000001df .LASF19
     /tmp/ccdDHUUy.s:1306   .debug_loc:0000000000000039 .LLST23
     /tmp/ccdDHUUy.s:1693   .debug_str:00000000000001bd .LASF21
     /tmp/ccdDHUUy.s:401    .text:0000000000000188 .LFB7
     /tmp/ccdDHUUy.s:442    .text:00000000000001b4 .LFE7
     /tmp/ccdDHUUy.s:1313   .debug_loc:000000000000005c .LLST20
     /tmp/ccdDHUUy.s:1327   .debug_loc:0000000000000095 .LLST21
     /tmp/ccdDHUUy.s:1673   .debug_str:000000000000013e .LASF22
     /tmp/ccdDHUUy.s:354    .text:000000000000015c .LFB6
     /tmp/ccdDHUUy.s:395    .text:0000000000000188 .LFE6
     /tmp/ccdDHUUy.s:1685   .debug_str:0000000000000191 .LASF23
     /tmp/ccdDHUUy.s:1334   .debug_loc:00000000000000b8 .LLST18
     /tmp/ccdDHUUy.s:1348   .debug_loc:00000000000000f1 .LLST19
GAS LISTING /tmp/ccdDHUUy.s 			page 17


     /tmp/ccdDHUUy.s:1721   .debug_str:0000000000000283 .LASF24
     /tmp/ccdDHUUy.s:298    .text:0000000000000124 .LFB5
     /tmp/ccdDHUUy.s:348    .text:000000000000015c .LFE5
     /tmp/ccdDHUUy.s:1355   .debug_loc:0000000000000114 .LLST15
     /tmp/ccdDHUUy.s:1369   .debug_loc:000000000000014d .LLST16
     /tmp/ccdDHUUy.s:1383   .debug_loc:0000000000000186 .LLST17
     /tmp/ccdDHUUy.s:1727   .debug_str:00000000000002a5 .LASF35
     /tmp/ccdDHUUy.s:256    .text:00000000000000fc .LFB4
     /tmp/ccdDHUUy.s:292    .text:0000000000000124 .LFE4
     /tmp/ccdDHUUy.s:1390   .debug_loc:00000000000001a9 .LLST14
     /tmp/ccdDHUUy.s:1713   .debug_str:0000000000000251 .LASF43
     /tmp/ccdDHUUy.s:223    .text:00000000000000dc .LFB3
     /tmp/ccdDHUUy.s:250    .text:00000000000000fc .LFE3
     /tmp/ccdDHUUy.s:1681   .debug_str:0000000000000177 .LASF25
     /tmp/ccdDHUUy.s:114    .text:000000000000005c .LFB2
     /tmp/ccdDHUUy.s:217    .text:00000000000000dc .LFE2
     /tmp/ccdDHUUy.s:1397   .debug_loc:00000000000001cc .LLST6
     /tmp/ccdDHUUy.s:1691   .debug_str:00000000000001af .LASF26
     /tmp/ccdDHUUy.s:1419   .debug_loc:000000000000022b .LLST7
     /tmp/ccdDHUUy.s:1719   .debug_str:000000000000027e .LASF27
     /tmp/ccdDHUUy.s:1441   .debug_loc:000000000000028a .LLST8
     /tmp/ccdDHUUy.s:1731   .debug_str:00000000000002bb .LASF28
     /tmp/ccdDHUUy.s:1463   .debug_loc:00000000000002e9 .LLST9
     /tmp/ccdDHUUy.s:1689   .debug_str:00000000000001a3 .LASF29
     /tmp/ccdDHUUy.s:1485   .debug_loc:0000000000000348 .LLST10
     /tmp/ccdDHUUy.s:1715   .debug_str:0000000000000261 .LASF30
     /tmp/ccdDHUUy.s:1507   .debug_loc:00000000000003a7 .LLST11
     /tmp/ccdDHUUy.s:1651   .debug_str:000000000000001a .LASF31
     /tmp/ccdDHUUy.s:1697   .debug_str:00000000000001d3 .LASF44
     /tmp/ccdDHUUy.s:1669   .debug_str:000000000000011e .LASF32
     /tmp/ccdDHUUy.s:1529   .debug_loc:0000000000000406 .LLST12
     /tmp/ccdDHUUy.s:1540   .debug_loc:000000000000043c .LLST13
     /tmp/ccdDHUUy.s:145    .text:0000000000000090 .LVL12
     /tmp/ccdDHUUy.s:1709   .debug_str:0000000000000225 .LASF33
     /tmp/ccdDHUUy.s:65     .text:0000000000000030 .LFB1
     /tmp/ccdDHUUy.s:108    .text:000000000000005c .LFE1
     /tmp/ccdDHUUy.s:1547   .debug_loc:000000000000045f .LLST3
     /tmp/ccdDHUUy.s:1723   .debug_str:000000000000028c .LASF34
     /tmp/ccdDHUUy.s:1561   .debug_loc:0000000000000498 .LLST4
     /tmp/ccdDHUUy.s:1575   .debug_loc:00000000000004d1 .LLST5
     /tmp/ccdDHUUy.s:1729   .debug_str:00000000000002b1 .LASF36
     /tmp/ccdDHUUy.s:11     .text:0000000000000000 .LFB0
     /tmp/ccdDHUUy.s:59     .text:0000000000000030 .LFE0
     /tmp/ccdDHUUy.s:1733   .debug_str:00000000000002c7 .LASF37
     /tmp/ccdDHUUy.s:1582   .debug_loc:00000000000004f4 .LLST0
     /tmp/ccdDHUUy.s:1677   .debug_str:000000000000015a .LASF38
     /tmp/ccdDHUUy.s:1602   .debug_loc:0000000000000542 .LLST1
     /tmp/ccdDHUUy.s:1659   .debug_str:000000000000003d .LASF39
     /tmp/ccdDHUUy.s:1620   .debug_loc:000000000000057f .LLST2
     /tmp/ccdDHUUy.s:451    .text:00000000000001b4 .LVL32
     /tmp/ccdDHUUy.s:476    .text:00000000000001d0 .LVL33
     /tmp/ccdDHUUy.s:481    .text:00000000000001d4 .LVL34
     /tmp/ccdDHUUy.s:404    .text:0000000000000188 .LVL29
     /tmp/ccdDHUUy.s:429    .text:00000000000001a4 .LVL30
     /tmp/ccdDHUUy.s:434    .text:00000000000001a8 .LVL31
     /tmp/ccdDHUUy.s:357    .text:000000000000015c .LVL26
     /tmp/ccdDHUUy.s:382    .text:0000000000000178 .LVL27
GAS LISTING /tmp/ccdDHUUy.s 			page 18


     /tmp/ccdDHUUy.s:387    .text:000000000000017c .LVL28
     /tmp/ccdDHUUy.s:301    .text:0000000000000124 .LVL22
     /tmp/ccdDHUUy.s:335    .text:000000000000014c .LVL24
     /tmp/ccdDHUUy.s:311    .text:0000000000000134 .LVL23
     /tmp/ccdDHUUy.s:340    .text:0000000000000150 .LVL25
     /tmp/ccdDHUUy.s:279    .text:0000000000000114 .LVL20
     /tmp/ccdDHUUy.s:284    .text:0000000000000118 .LVL21
     /tmp/ccdDHUUy.s:117    .text:000000000000005c .LVL9
     /tmp/ccdDHUUy.s:143    .text:0000000000000088 .LVL11
     /tmp/ccdDHUUy.s:199    .text:00000000000000c4 .LVL15
     /tmp/ccdDHUUy.s:209    .text:00000000000000d4 .LVL18
     /tmp/ccdDHUUy.s:202    .text:00000000000000c8 .LVL16
     /tmp/ccdDHUUy.s:205    .text:00000000000000cc .LVL17
     /tmp/ccdDHUUy.s:136    .text:0000000000000084 .LVL10
     /tmp/ccdDHUUy.s:183    .text:00000000000000b4 .LVL13
     /tmp/ccdDHUUy.s:214    .text:00000000000000d8 .LVL19
     /tmp/ccdDHUUy.s:188    .text:00000000000000b8 .LVL14
     /tmp/ccdDHUUy.s:68     .text:0000000000000030 .LVL5
     /tmp/ccdDHUUy.s:95     .text:000000000000004c .LVL7
     /tmp/ccdDHUUy.s:76     .text:000000000000003c .LVL6
     /tmp/ccdDHUUy.s:100    .text:0000000000000050 .LVL8
     /tmp/ccdDHUUy.s:15     .text:0000000000000000 .LVL0
     /tmp/ccdDHUUy.s:25     .text:0000000000000010 .LVL1
     /tmp/ccdDHUUy.s:28     .text:0000000000000014 .LVL2
     /tmp/ccdDHUUy.s:48     .text:0000000000000024 .LVL4
     /tmp/ccdDHUUy.s:43     .text:0000000000000020 .LVL3
     /tmp/ccdDHUUy.s:495    .debug_info:0000000000000000 .Ldebug_info0

NO UNDEFINED SYMBOLS
