GAS LISTING /tmp/cc4kf2Vx.s 			page 1


   1              		.file	"syscall_cpp.cpp"
   2              		.option pic
   3              		.option norelax
   4              		.text
   5              	.Ltext0:
   6              		.align	2
   7              		.globl	_Znwm
   9              	_Znwm:
  10              	.LFB0:
  11              		.file 1 "src/syscall_cpp.cpp"
   1:src/syscall_cpp.cpp **** //
   2:src/syscall_cpp.cpp **** // Created by os on 4/8/22.
   3:src/syscall_cpp.cpp **** //
   4:src/syscall_cpp.cpp **** 
   5:src/syscall_cpp.cpp **** #include "../h/syscall_cpp.h"
   6:src/syscall_cpp.cpp **** #include "../h/syscall_c.h"
   7:src/syscall_cpp.cpp **** 
   8:src/syscall_cpp.cpp **** //general
   9:src/syscall_cpp.cpp **** void * operator new(size_t size)
  10:src/syscall_cpp.cpp **** {
  12              		.loc 1 10 1
  13              		.cfi_startproc
  14              	.LVL0:
  15 0000 130101FF 		addi	sp,sp,-16
  16              		.cfi_def_cfa_offset 16
  17 0004 23341100 		sd	ra,8(sp)
  18 0008 23308100 		sd	s0,0(sp)
  19              		.cfi_offset 1, -8
  20              		.cfi_offset 8, -16
  21 000c 13040101 		addi	s0,sp,16
  22              		.cfi_def_cfa 8, 0
  11:src/syscall_cpp.cpp ****     return mem_alloc(size);
  23              		.loc 1 11 5
  24              		.loc 1 11 21 is_stmt 0
  25 0010 97000000 		call	mem_alloc@plt
  25      E7800000 
  26              	.LVL1:
  12:src/syscall_cpp.cpp **** }
  27              		.loc 1 12 1
  28 0018 83308100 		ld	ra,8(sp)
  29              		.cfi_restore 1
  30 001c 03340100 		ld	s0,0(sp)
  31              		.cfi_restore 8
  32              		.cfi_def_cfa 2, 16
  33 0020 13010101 		addi	sp,sp,16
  34              		.cfi_def_cfa_offset 0
  35 0024 67800000 		jr	ra
  36              		.cfi_endproc
  37              	.LFE0:
  39              		.align	2
  40              		.globl	_ZdlPv
  42              	_ZdlPv:
  43              	.LFB1:
  13:src/syscall_cpp.cpp **** 
  14:src/syscall_cpp.cpp **** void operator delete(void * p)
  15:src/syscall_cpp.cpp **** {
  44              		.loc 1 15 1 is_stmt 1
GAS LISTING /tmp/cc4kf2Vx.s 			page 2


  45              		.cfi_startproc
  46              	.LVL2:
  47 0028 130101FF 		addi	sp,sp,-16
  48              		.cfi_def_cfa_offset 16
  49 002c 23341100 		sd	ra,8(sp)
  50 0030 23308100 		sd	s0,0(sp)
  51              		.cfi_offset 1, -8
  52              		.cfi_offset 8, -16
  53 0034 13040101 		addi	s0,sp,16
  54              		.cfi_def_cfa 8, 0
  16:src/syscall_cpp.cpp ****    mem_free(p);
  55              		.loc 1 16 4
  56              		.loc 1 16 12 is_stmt 0
  57 0038 97000000 		call	mem_free@plt
  57      E7800000 
  58              	.LVL3:
  17:src/syscall_cpp.cpp **** }
  59              		.loc 1 17 1
  60 0040 83308100 		ld	ra,8(sp)
  61              		.cfi_restore 1
  62 0044 03340100 		ld	s0,0(sp)
  63              		.cfi_restore 8
  64              		.cfi_def_cfa 2, 16
  65 0048 13010101 		addi	sp,sp,16
  66              		.cfi_def_cfa_offset 0
  67 004c 67800000 		jr	ra
  68              		.cfi_endproc
  69              	.LFE1:
  71              		.align	2
  72              		.globl	_ZN15MemoryAllocatorC2Ev
  74              	_ZN15MemoryAllocatorC2Ev:
  75              	.LFB3:
  18:src/syscall_cpp.cpp **** 
  19:src/syscall_cpp.cpp **** //MemoryAllocator.h
  20:src/syscall_cpp.cpp **** 
  21:src/syscall_cpp.cpp **** MemoryAllocator* MemoryAllocator::memoryAllocator = 0;
  22:src/syscall_cpp.cpp **** 
  23:src/syscall_cpp.cpp **** MemoryAllocator::MemoryAllocator() {
  76              		.loc 1 23 1 is_stmt 1
  77              		.cfi_startproc
  78              	.LVL4:
  79 0050 130101FF 		addi	sp,sp,-16
  80              		.cfi_def_cfa_offset 16
  81 0054 23348100 		sd	s0,8(sp)
  82              		.cfi_offset 8, -8
  83 0058 13040101 		addi	s0,sp,16
  84              		.cfi_def_cfa 8, 0
  24:src/syscall_cpp.cpp **** 
  25:src/syscall_cpp.cpp **** }
  85              		.loc 1 25 1 is_stmt 0
  86 005c 03348100 		ld	s0,8(sp)
  87              		.cfi_restore 8
  88              		.cfi_def_cfa 2, 16
  89 0060 13010101 		addi	sp,sp,16
  90              		.cfi_def_cfa_offset 0
  91 0064 67800000 		jr	ra
  92              		.cfi_endproc
GAS LISTING /tmp/cc4kf2Vx.s 			page 3


  93              	.LFE3:
  95              		.globl	_ZN15MemoryAllocatorC1Ev
  96              		.set	_ZN15MemoryAllocatorC1Ev,_ZN15MemoryAllocatorC2Ev
  97              		.align	2
  98              		.globl	_ZN15MemoryAllocator9mem_allocEm
 100              	_ZN15MemoryAllocator9mem_allocEm:
 101              	.LFB5:
  26:src/syscall_cpp.cpp **** 
  27:src/syscall_cpp.cpp **** void *MemoryAllocator::mem_alloc(size_t size) {
 102              		.loc 1 27 47 is_stmt 1
 103              		.cfi_startproc
 104              	.LVL5:
 105 0068 130101FF 		addi	sp,sp,-16
 106              		.cfi_def_cfa_offset 16
 107 006c 23341100 		sd	ra,8(sp)
 108 0070 23308100 		sd	s0,0(sp)
 109              		.cfi_offset 1, -8
 110              		.cfi_offset 8, -16
 111 0074 13040101 		addi	s0,sp,16
 112              		.cfi_def_cfa 8, 0
  28:src/syscall_cpp.cpp ****     //todo
  29:src/syscall_cpp.cpp ****     //sta ovde treba kao parametar
  30:src/syscall_cpp.cpp ****     //svuda pogledaj to
  31:src/syscall_cpp.cpp ****     return ::mem_alloc(sizeof(MemoryAllocator));
 113              		.loc 1 31 5
 114              		.loc 1 31 23 is_stmt 0
 115 0078 13051000 		li	a0,1
 116              	.LVL6:
 117 007c 97000000 		call	mem_alloc@plt
 117      E7800000 
 118              	.LVL7:
  32:src/syscall_cpp.cpp **** }
 119              		.loc 1 32 1
 120 0084 83308100 		ld	ra,8(sp)
 121              		.cfi_restore 1
 122 0088 03340100 		ld	s0,0(sp)
 123              		.cfi_restore 8
 124              		.cfi_def_cfa 2, 16
 125 008c 13010101 		addi	sp,sp,16
 126              		.cfi_def_cfa_offset 0
 127 0090 67800000 		jr	ra
 128              		.cfi_endproc
 129              	.LFE5:
 131              		.align	2
 132              		.globl	_ZN15MemoryAllocator8mem_freeEPv
 134              	_ZN15MemoryAllocator8mem_freeEPv:
 135              	.LFB6:
  33:src/syscall_cpp.cpp **** 
  34:src/syscall_cpp.cpp **** int MemoryAllocator::mem_free(void * addr) {
 136              		.loc 1 34 44 is_stmt 1
 137              		.cfi_startproc
 138              	.LVL8:
 139 0094 130101FF 		addi	sp,sp,-16
 140              		.cfi_def_cfa_offset 16
 141 0098 23341100 		sd	ra,8(sp)
 142 009c 23308100 		sd	s0,0(sp)
 143              		.cfi_offset 1, -8
GAS LISTING /tmp/cc4kf2Vx.s 			page 4


 144              		.cfi_offset 8, -16
 145 00a0 13040101 		addi	s0,sp,16
 146              		.cfi_def_cfa 8, 0
  35:src/syscall_cpp.cpp ****     return ::mem_free(addr);
 147              		.loc 1 35 5
 148              		.loc 1 35 22 is_stmt 0
 149 00a4 13850500 		mv	a0,a1
 150              	.LVL9:
 151 00a8 97000000 		call	mem_free@plt
 151      E7800000 
 152              	.LVL10:
  36:src/syscall_cpp.cpp **** }
 153              		.loc 1 36 1
 154 00b0 83308100 		ld	ra,8(sp)
 155              		.cfi_restore 1
 156 00b4 03340100 		ld	s0,0(sp)
 157              		.cfi_restore 8
 158              		.cfi_def_cfa 2, 16
 159 00b8 13010101 		addi	sp,sp,16
 160              		.cfi_def_cfa_offset 0
 161 00bc 67800000 		jr	ra
 162              		.cfi_endproc
 163              	.LFE6:
 165              		.align	2
 166              		.globl	_ZN15MemoryAllocatorD2Ev
 168              	_ZN15MemoryAllocatorD2Ev:
 169              	.LFB9:
  37:src/syscall_cpp.cpp **** 
  38:src/syscall_cpp.cpp **** MemoryAllocator* MemoryAllocator::getMemoryAllocator() {
  39:src/syscall_cpp.cpp **** 
  40:src/syscall_cpp.cpp ****     if(memoryAllocator == 0) {
  41:src/syscall_cpp.cpp ****         //todo
  42:src/syscall_cpp.cpp ****         //preklopi new za memoryAllocator
  43:src/syscall_cpp.cpp ****         //proveri da li ovo radi
  44:src/syscall_cpp.cpp ****         memoryAllocator = new MemoryAllocator();
  45:src/syscall_cpp.cpp ****     }
  46:src/syscall_cpp.cpp ****     return memoryAllocator;
  47:src/syscall_cpp.cpp **** }
  48:src/syscall_cpp.cpp **** 
  49:src/syscall_cpp.cpp **** MemoryAllocator::~MemoryAllocator() {
 170              		.loc 1 49 1 is_stmt 1
 171              		.cfi_startproc
 172              	.LVL11:
 173 00c0 130101FF 		addi	sp,sp,-16
 174              		.cfi_def_cfa_offset 16
 175 00c4 23348100 		sd	s0,8(sp)
 176              		.cfi_offset 8, -8
 177 00c8 13040101 		addi	s0,sp,16
 178              		.cfi_def_cfa 8, 0
  50:src/syscall_cpp.cpp **** 
  51:src/syscall_cpp.cpp **** }
 179              		.loc 1 51 1 is_stmt 0
 180 00cc 03348100 		ld	s0,8(sp)
 181              		.cfi_restore 8
 182              		.cfi_def_cfa 2, 16
 183 00d0 13010101 		addi	sp,sp,16
 184              		.cfi_def_cfa_offset 0
GAS LISTING /tmp/cc4kf2Vx.s 			page 5


 185 00d4 67800000 		jr	ra
 186              		.cfi_endproc
 187              	.LFE9:
 189              		.globl	_ZN15MemoryAllocatorD1Ev
 190              		.set	_ZN15MemoryAllocatorD1Ev,_ZN15MemoryAllocatorD2Ev
 191              		.align	2
 192              		.globl	_ZN15MemoryAllocatornwEm
 194              	_ZN15MemoryAllocatornwEm:
 195              	.LFB11:
  52:src/syscall_cpp.cpp **** 
  53:src/syscall_cpp.cpp **** void *MemoryAllocator::operator new(size_t size) {
 196              		.loc 1 53 50 is_stmt 1
 197              		.cfi_startproc
 198              	.LVL12:
 199 00d8 130101FF 		addi	sp,sp,-16
 200              		.cfi_def_cfa_offset 16
 201 00dc 23341100 		sd	ra,8(sp)
 202 00e0 23308100 		sd	s0,0(sp)
 203              		.cfi_offset 1, -8
 204              		.cfi_offset 8, -16
 205 00e4 13040101 		addi	s0,sp,16
 206              		.cfi_def_cfa 8, 0
  54:src/syscall_cpp.cpp ****     return ::operator new(size);
 207              		.loc 1 54 5
 208              		.loc 1 54 26 is_stmt 0
 209 00e8 97000000 		call	_Znwm
 209      E7800000 
 210              	.LVL13:
  55:src/syscall_cpp.cpp **** }
 211              		.loc 1 55 1
 212 00f0 83308100 		ld	ra,8(sp)
 213              		.cfi_restore 1
 214 00f4 03340100 		ld	s0,0(sp)
 215              		.cfi_restore 8
 216              		.cfi_def_cfa 2, 16
 217 00f8 13010101 		addi	sp,sp,16
 218              		.cfi_def_cfa_offset 0
 219 00fc 67800000 		jr	ra
 220              		.cfi_endproc
 221              	.LFE11:
 223              		.align	2
 224              		.globl	_ZN15MemoryAllocator18getMemoryAllocatorEv
 226              	_ZN15MemoryAllocator18getMemoryAllocatorEv:
 227              	.LFB7:
  38:src/syscall_cpp.cpp **** 
 228              		.loc 1 38 56 is_stmt 1
 229              		.cfi_startproc
  40:src/syscall_cpp.cpp ****         //todo
 230              		.loc 1 40 5
  40:src/syscall_cpp.cpp ****         //todo
 231              		.loc 1 40 24 is_stmt 0
 232 0100 97070000 		ld	a5,.LANCHOR0
 232      83B70700 
  40:src/syscall_cpp.cpp ****         //todo
 233              		.loc 1 40 5
 234 0108 63880700 		beqz	a5,.L21
  46:src/syscall_cpp.cpp **** }
GAS LISTING /tmp/cc4kf2Vx.s 			page 6


 235              		.loc 1 46 5 is_stmt 1
  47:src/syscall_cpp.cpp **** 
 236              		.loc 1 47 1 is_stmt 0
 237 010c 17050000 		ld	a0,.LANCHOR0
 237      03350500 
 238 0114 67800000 		ret
 239              	.L21:
  38:src/syscall_cpp.cpp **** 
 240              		.loc 1 38 56
 241 0118 130101FF 		addi	sp,sp,-16
 242              		.cfi_def_cfa_offset 16
 243 011c 23341100 		sd	ra,8(sp)
 244 0120 23308100 		sd	s0,0(sp)
 245              		.cfi_offset 1, -8
 246              		.cfi_offset 8, -16
 247 0124 13040101 		addi	s0,sp,16
 248              		.cfi_def_cfa 8, 0
  44:src/syscall_cpp.cpp ****     }
 249              		.loc 1 44 9 is_stmt 1
  44:src/syscall_cpp.cpp ****     }
 250              		.loc 1 44 47 is_stmt 0
 251 0128 13051000 		li	a0,1
 252 012c 97000000 		call	_ZN15MemoryAllocatornwEm
 252      E7800000 
 253              	.LVL14:
  44:src/syscall_cpp.cpp ****     }
 254              		.loc 1 44 25
 255 0134 97070000 		sd	a0,.LANCHOR0,a5
 255      23B0A700 
  46:src/syscall_cpp.cpp **** }
 256              		.loc 1 46 5 is_stmt 1
  47:src/syscall_cpp.cpp **** 
 257              		.loc 1 47 1 is_stmt 0
 258 013c 17050000 		ld	a0,.LANCHOR0
 258      03350500 
 259 0144 83308100 		ld	ra,8(sp)
 260              		.cfi_restore 1
 261 0148 03340100 		ld	s0,0(sp)
 262              		.cfi_restore 8
 263              		.cfi_def_cfa 2, 16
 264 014c 13010101 		addi	sp,sp,16
 265              		.cfi_def_cfa_offset 0
 266 0150 67800000 		jr	ra
 267              		.cfi_endproc
 268              	.LFE7:
 270              		.align	2
 271              		.globl	_ZN15MemoryAllocatordlEPv
 273              	_ZN15MemoryAllocatordlEPv:
 274              	.LFB12:
  56:src/syscall_cpp.cpp **** 
  57:src/syscall_cpp.cpp **** void MemoryAllocator::operator delete(void *p) {
 275              		.loc 1 57 48 is_stmt 1
 276              		.cfi_startproc
 277              	.LVL15:
 278 0154 130101FF 		addi	sp,sp,-16
 279              		.cfi_def_cfa_offset 16
 280 0158 23341100 		sd	ra,8(sp)
GAS LISTING /tmp/cc4kf2Vx.s 			page 7


 281 015c 23308100 		sd	s0,0(sp)
 282              		.cfi_offset 1, -8
 283              		.cfi_offset 8, -16
 284 0160 13040101 		addi	s0,sp,16
 285              		.cfi_def_cfa 8, 0
  58:src/syscall_cpp.cpp ****     ::operator delete(p);
 286              		.loc 1 58 5
 287              		.loc 1 58 22 is_stmt 0
 288 0164 97000000 		call	_ZdlPv
 288      E7800000 
 289              	.LVL16:
  59:src/syscall_cpp.cpp **** }
 290              		.loc 1 59 1
 291 016c 83308100 		ld	ra,8(sp)
 292              		.cfi_restore 1
 293 0170 03340100 		ld	s0,0(sp)
 294              		.cfi_restore 8
 295              		.cfi_def_cfa 2, 16
 296 0174 13010101 		addi	sp,sp,16
 297              		.cfi_def_cfa_offset 0
 298 0178 67800000 		jr	ra
 299              		.cfi_endproc
 300              	.LFE12:
 302              		.align	2
 303              		.globl	_ZN9Scheduler12getSchedulerEv
 305              	_ZN9Scheduler12getSchedulerEv:
 306              	.LFB20:
  60:src/syscall_cpp.cpp **** 
  61:src/syscall_cpp.cpp **** 
  62:src/syscall_cpp.cpp **** //Queue.h
  63:src/syscall_cpp.cpp **** template<typename T>
  64:src/syscall_cpp.cpp **** void Queue<T>::pop() {
  65:src/syscall_cpp.cpp ****     Elem* newFirst = first->next;
  66:src/syscall_cpp.cpp ****     MemoryAllocator::getMemoryAllocator()->mem_free(first);
  67:src/syscall_cpp.cpp ****     first = newFirst;
  68:src/syscall_cpp.cpp ****     if(first == 0)
  69:src/syscall_cpp.cpp ****         first = last = 0;
  70:src/syscall_cpp.cpp **** }
  71:src/syscall_cpp.cpp **** 
  72:src/syscall_cpp.cpp **** template<typename T>
  73:src/syscall_cpp.cpp **** void Queue<T>::push(T t) {
  74:src/syscall_cpp.cpp ****     Elem* newElem = (Elem*)MemoryAllocator::getMemoryAllocator()->mem_alloc(sizeof(Elem));
  75:src/syscall_cpp.cpp ****     if(first == 0) {
  76:src/syscall_cpp.cpp ****         first = newElem;
  77:src/syscall_cpp.cpp ****         last = 0;
  78:src/syscall_cpp.cpp ****         first->next = last;
  79:src/syscall_cpp.cpp ****     }
  80:src/syscall_cpp.cpp **** }
  81:src/syscall_cpp.cpp **** 
  82:src/syscall_cpp.cpp **** template<typename T>
  83:src/syscall_cpp.cpp **** T Queue<T>::front() {
  84:src/syscall_cpp.cpp ****    if(first == 0)
  85:src/syscall_cpp.cpp ****        return 0;
  86:src/syscall_cpp.cpp ****    return first->data;
  87:src/syscall_cpp.cpp **** }
  88:src/syscall_cpp.cpp **** 
  89:src/syscall_cpp.cpp **** template<typename T>
GAS LISTING /tmp/cc4kf2Vx.s 			page 8


  90:src/syscall_cpp.cpp **** Queue<T>::Queue() {
  91:src/syscall_cpp.cpp ****     first = last = 0;
  92:src/syscall_cpp.cpp **** }
  93:src/syscall_cpp.cpp **** 
  94:src/syscall_cpp.cpp **** template<typename T>
  95:src/syscall_cpp.cpp **** Queue<T>::~Queue() {
  96:src/syscall_cpp.cpp ****     Elem* curr = first;
  97:src/syscall_cpp.cpp ****     while(curr != 0)
  98:src/syscall_cpp.cpp ****     {
  99:src/syscall_cpp.cpp ****         Elem* old = curr;
 100:src/syscall_cpp.cpp ****         curr = curr->next;
 101:src/syscall_cpp.cpp ****         MemoryAllocator::getMemoryAllocator()->mem_free(old);
 102:src/syscall_cpp.cpp ****     }
 103:src/syscall_cpp.cpp **** }
 104:src/syscall_cpp.cpp **** 
 105:src/syscall_cpp.cpp **** template<typename T>
 106:src/syscall_cpp.cpp **** void *Queue<T>::operator new(size_t size) {
 107:src/syscall_cpp.cpp ****     //da li ovde treba size ili sizeof(Queue<T>)
 108:src/syscall_cpp.cpp ****     return ::operator new(sizeof(Queue<T>));
 109:src/syscall_cpp.cpp **** }
 110:src/syscall_cpp.cpp **** 
 111:src/syscall_cpp.cpp **** template<typename T>
 112:src/syscall_cpp.cpp **** void Queue<T>::operator delete(void *p) {
 113:src/syscall_cpp.cpp ****     ::operator delete(p);
 114:src/syscall_cpp.cpp **** }
 115:src/syscall_cpp.cpp **** 
 116:src/syscall_cpp.cpp **** //Scheduler.h
 117:src/syscall_cpp.cpp **** 
 118:src/syscall_cpp.cpp **** Scheduler* Scheduler::scheduler = 0;
 119:src/syscall_cpp.cpp **** 
 120:src/syscall_cpp.cpp **** Scheduler *Scheduler::getScheduler() {
 307              		.loc 1 120 38 is_stmt 1
 308              		.cfi_startproc
 121:src/syscall_cpp.cpp ****     if(scheduler == 0)
 309              		.loc 1 121 5
 310              		.loc 1 121 18 is_stmt 0
 311 017c 97070000 		ld	a5,.LANCHOR0+8
 311      83B70700 
 312              		.loc 1 121 5
 313 0184 63880700 		beqz	a5,.L30
 122:src/syscall_cpp.cpp ****     {
 123:src/syscall_cpp.cpp ****         //todo
 124:src/syscall_cpp.cpp ****         //preklopi new za Scheduler
 125:src/syscall_cpp.cpp ****         scheduler = (Scheduler*)MemoryAllocator::getMemoryAllocator()->mem_alloc(sizeof(Scheduler))
 126:src/syscall_cpp.cpp ****     }
 127:src/syscall_cpp.cpp **** 
 128:src/syscall_cpp.cpp ****     return scheduler;
 314              		.loc 1 128 5 is_stmt 1
 129:src/syscall_cpp.cpp **** }
 315              		.loc 1 129 1 is_stmt 0
 316 0188 17050000 		ld	a0,.LANCHOR0+8
 316      03350500 
 317 0190 67800000 		ret
 318              	.L30:
 120:src/syscall_cpp.cpp ****     if(scheduler == 0)
 319              		.loc 1 120 38
 320 0194 130101FF 		addi	sp,sp,-16
GAS LISTING /tmp/cc4kf2Vx.s 			page 9


 321              		.cfi_def_cfa_offset 16
 322 0198 23341100 		sd	ra,8(sp)
 323 019c 23308100 		sd	s0,0(sp)
 324              		.cfi_offset 1, -8
 325              		.cfi_offset 8, -16
 326 01a0 13040101 		addi	s0,sp,16
 327              		.cfi_def_cfa 8, 0
 125:src/syscall_cpp.cpp ****     }
 328              		.loc 1 125 9 is_stmt 1
 125:src/syscall_cpp.cpp ****     }
 329              		.loc 1 125 81 is_stmt 0
 330 01a4 97000000 		call	_ZN15MemoryAllocator18getMemoryAllocatorEv
 330      E7800000 
 331              	.LVL17:
 332 01ac 93058000 		li	a1,8
 333 01b0 97000000 		call	_ZN15MemoryAllocator9mem_allocEm
 333      E7800000 
 334              	.LVL18:
 125:src/syscall_cpp.cpp ****     }
 335              		.loc 1 125 19
 336 01b8 97070000 		sd	a0,.LANCHOR0+8,a5
 336      23B0A700 
 128:src/syscall_cpp.cpp **** }
 337              		.loc 1 128 5 is_stmt 1
 338              		.loc 1 129 1 is_stmt 0
 339 01c0 17050000 		ld	a0,.LANCHOR0+8
 339      03350500 
 340 01c8 83308100 		ld	ra,8(sp)
 341              		.cfi_restore 1
 342 01cc 03340100 		ld	s0,0(sp)
 343              		.cfi_restore 8
 344              		.cfi_def_cfa 2, 16
 345 01d0 13010101 		addi	sp,sp,16
 346              		.cfi_def_cfa_offset 0
 347 01d4 67800000 		jr	ra
 348              		.cfi_endproc
 349              	.LFE20:
 351              		.align	2
 352              		.globl	_ZN9SchedulerC2Ev
 354              	_ZN9SchedulerC2Ev:
 355              	.LFB27:
 130:src/syscall_cpp.cpp **** 
 131:src/syscall_cpp.cpp **** void Scheduler::put(Thread *thread) {
 132:src/syscall_cpp.cpp ****     queueThreads->push(thread);
 133:src/syscall_cpp.cpp **** }
 134:src/syscall_cpp.cpp **** 
 135:src/syscall_cpp.cpp **** Thread *Scheduler::get() {
 136:src/syscall_cpp.cpp ****     Thread* t =  queueThreads->front();
 137:src/syscall_cpp.cpp ****     queueThreads->pop();
 138:src/syscall_cpp.cpp ****     return t;
 139:src/syscall_cpp.cpp **** }
 140:src/syscall_cpp.cpp **** 
 141:src/syscall_cpp.cpp **** Scheduler::~Scheduler() {
 142:src/syscall_cpp.cpp ****     //todo
 143:src/syscall_cpp.cpp ****     //preklopi delete za queue
 144:src/syscall_cpp.cpp ****     delete queueThreads;
 145:src/syscall_cpp.cpp ****     //MemoryAllocator::getMemoryAllocator()->mem_free(queueThreads);
GAS LISTING /tmp/cc4kf2Vx.s 			page 10


 146:src/syscall_cpp.cpp **** }
 147:src/syscall_cpp.cpp **** 
 148:src/syscall_cpp.cpp **** Scheduler::Scheduler() {
 356              		.loc 1 148 1 is_stmt 1
 357              		.cfi_startproc
 358              	.LVL19:
 359 01d8 130101FE 		addi	sp,sp,-32
 360              		.cfi_def_cfa_offset 32
 361 01dc 233C1100 		sd	ra,24(sp)
 362 01e0 23388100 		sd	s0,16(sp)
 363 01e4 23349100 		sd	s1,8(sp)
 364              		.cfi_offset 1, -8
 365              		.cfi_offset 8, -16
 366              		.cfi_offset 9, -24
 367 01e8 13040102 		addi	s0,sp,32
 368              		.cfi_def_cfa 8, 0
 369 01ec 93040500 		mv	s1,a0
 370              	.LBB2:
 149:src/syscall_cpp.cpp ****     queueThreads = (Queue<Thread*>*)MemoryAllocator::getMemoryAllocator()->mem_alloc(sizeof(Queue<T
 371              		.loc 1 149 5
 372              		.loc 1 149 85 is_stmt 0
 373 01f0 97000000 		call	_ZN15MemoryAllocator18getMemoryAllocatorEv
 373      E7800000 
 374              	.LVL20:
 375 01f8 93050001 		li	a1,16
 376 01fc 97000000 		call	_ZN15MemoryAllocator9mem_allocEm
 376      E7800000 
 377              	.LVL21:
 378              		.loc 1 149 18
 379 0204 23B0A400 		sd	a0,0(s1)
 380              	.LBE2:
 150:src/syscall_cpp.cpp **** }
 381              		.loc 1 150 1
 382 0208 83308101 		ld	ra,24(sp)
 383              		.cfi_restore 1
 384 020c 03340101 		ld	s0,16(sp)
 385              		.cfi_restore 8
 386              		.cfi_def_cfa 2, 32
 387 0210 83348100 		ld	s1,8(sp)
 388              		.cfi_restore 9
 389              	.LVL22:
 390 0214 13010102 		addi	sp,sp,32
 391              		.cfi_def_cfa_offset 0
 392 0218 67800000 		jr	ra
 393              		.cfi_endproc
 394              	.LFE27:
 396              		.globl	_ZN9SchedulerC1Ev
 397              		.set	_ZN9SchedulerC1Ev,_ZN9SchedulerC2Ev
 398              		.align	2
 399              		.globl	_ZN9SchedulernwEm
 401              	_ZN9SchedulernwEm:
 402              	.LFB29:
 151:src/syscall_cpp.cpp **** 
 152:src/syscall_cpp.cpp **** void *Scheduler::operator new(size_t size) {
 403              		.loc 1 152 44 is_stmt 1
 404              		.cfi_startproc
 405              	.LVL23:
GAS LISTING /tmp/cc4kf2Vx.s 			page 11


 406 021c 130101FF 		addi	sp,sp,-16
 407              		.cfi_def_cfa_offset 16
 408 0220 23341100 		sd	ra,8(sp)
 409 0224 23308100 		sd	s0,0(sp)
 410              		.cfi_offset 1, -8
 411              		.cfi_offset 8, -16
 412 0228 13040101 		addi	s0,sp,16
 413              		.cfi_def_cfa 8, 0
 153:src/syscall_cpp.cpp ****     return ::operator new(sizeof(Scheduler));
 414              		.loc 1 153 5
 415              		.loc 1 153 26 is_stmt 0
 416 022c 13058000 		li	a0,8
 417              	.LVL24:
 418 0230 97000000 		call	_Znwm
 418      E7800000 
 419              	.LVL25:
 154:src/syscall_cpp.cpp **** }
 420              		.loc 1 154 1
 421 0238 83308100 		ld	ra,8(sp)
 422              		.cfi_restore 1
 423 023c 03340100 		ld	s0,0(sp)
 424              		.cfi_restore 8
 425              		.cfi_def_cfa 2, 16
 426 0240 13010101 		addi	sp,sp,16
 427              		.cfi_def_cfa_offset 0
 428 0244 67800000 		jr	ra
 429              		.cfi_endproc
 430              	.LFE29:
 432              		.align	2
 433              		.globl	_ZN9SchedulerdlEPv
 435              	_ZN9SchedulerdlEPv:
 436              	.LFB30:
 155:src/syscall_cpp.cpp **** 
 156:src/syscall_cpp.cpp **** void Scheduler::operator delete(void *p) {
 437              		.loc 1 156 42 is_stmt 1
 438              		.cfi_startproc
 439              	.LVL26:
 440 0248 130101FF 		addi	sp,sp,-16
 441              		.cfi_def_cfa_offset 16
 442 024c 23341100 		sd	ra,8(sp)
 443 0250 23308100 		sd	s0,0(sp)
 444              		.cfi_offset 1, -8
 445              		.cfi_offset 8, -16
 446 0254 13040101 		addi	s0,sp,16
 447              		.cfi_def_cfa 8, 0
 157:src/syscall_cpp.cpp ****     ::operator delete(p);
 448              		.loc 1 157 5
 449              		.loc 1 157 22 is_stmt 0
 450 0258 97000000 		call	_ZdlPv
 450      E7800000 
 451              	.LVL27:
 158:src/syscall_cpp.cpp **** }
 452              		.loc 1 158 1
 453 0260 83308100 		ld	ra,8(sp)
 454              		.cfi_restore 1
 455 0264 03340100 		ld	s0,0(sp)
 456              		.cfi_restore 8
GAS LISTING /tmp/cc4kf2Vx.s 			page 12


 457              		.cfi_def_cfa 2, 16
 458 0268 13010101 		addi	sp,sp,16
 459              		.cfi_def_cfa_offset 0
 460 026c 67800000 		jr	ra
 461              		.cfi_endproc
 462              	.LFE30:
 464              		.align	2
 465              		.globl	_ZN6ThreadC2EPFvPvES0_
 467              	_ZN6ThreadC2EPFvPvES0_:
 468              	.LFB32:
 159:src/syscall_cpp.cpp **** 
 160:src/syscall_cpp.cpp **** //Thread.h
 161:src/syscall_cpp.cpp **** 
 162:src/syscall_cpp.cpp **** //todo
 163:src/syscall_cpp.cpp **** //kreiranje pocetnog konteksta niti
 164:src/syscall_cpp.cpp **** 
 165:src/syscall_cpp.cpp **** Thread::Thread(void (*body)(void *), void *arg) {
 469              		.loc 1 165 1 is_stmt 1
 470              		.cfi_startproc
 471              	.LVL28:
 472 0270 130101FF 		addi	sp,sp,-16
 473              		.cfi_def_cfa_offset 16
 474 0274 23348100 		sd	s0,8(sp)
 475              		.cfi_offset 8, -8
 476 0278 13040101 		addi	s0,sp,16
 477              		.cfi_def_cfa 8, 0
 478              	.LBB3:
 166:src/syscall_cpp.cpp ****     f = body;
 479              		.loc 1 166 5
 480              		.loc 1 166 7 is_stmt 0
 481 027c 2330B500 		sd	a1,0(a0)
 167:src/syscall_cpp.cpp ****     args = arg;
 482              		.loc 1 167 5 is_stmt 1
 483              		.loc 1 167 10 is_stmt 0
 484 0280 2334C500 		sd	a2,8(a0)
 485              	.LBE3:
 168:src/syscall_cpp.cpp **** }
 486              		.loc 1 168 1
 487 0284 03348100 		ld	s0,8(sp)
 488              		.cfi_restore 8
 489              		.cfi_def_cfa 2, 16
 490 0288 13010101 		addi	sp,sp,16
 491              		.cfi_def_cfa_offset 0
 492 028c 67800000 		jr	ra
 493              		.cfi_endproc
 494              	.LFE32:
 496              		.globl	_ZN6ThreadC1EPFvPvES0_
 497              		.set	_ZN6ThreadC1EPFvPvES0_,_ZN6ThreadC2EPFvPvES0_
 498              		.align	2
 499              		.globl	_ZN6Thread8dispatchEv
 501              	_ZN6Thread8dispatchEv:
 502              	.LFB35:
 169:src/syscall_cpp.cpp **** 
 170:src/syscall_cpp.cpp **** //Thread::~Thread() {
 171:src/syscall_cpp.cpp **** //
 172:src/syscall_cpp.cpp **** //}
 173:src/syscall_cpp.cpp **** 
GAS LISTING /tmp/cc4kf2Vx.s 			page 13


 174:src/syscall_cpp.cpp **** void Thread::start() {
 175:src/syscall_cpp.cpp ****     Scheduler::getScheduler()->put(this);
 176:src/syscall_cpp.cpp **** }
 177:src/syscall_cpp.cpp **** 
 178:src/syscall_cpp.cpp **** void Thread::dispatch() {
 503              		.loc 1 178 25 is_stmt 1
 504              		.cfi_startproc
 505 0290 130101FF 		addi	sp,sp,-16
 506              		.cfi_def_cfa_offset 16
 507 0294 23348100 		sd	s0,8(sp)
 508              		.cfi_offset 8, -8
 509 0298 13040101 		addi	s0,sp,16
 510              		.cfi_def_cfa 8, 0
 179:src/syscall_cpp.cpp **** 
 180:src/syscall_cpp.cpp **** }
 511              		.loc 1 180 1 is_stmt 0
 512 029c 03348100 		ld	s0,8(sp)
 513              		.cfi_restore 8
 514              		.cfi_def_cfa 2, 16
 515 02a0 13010101 		addi	sp,sp,16
 516              		.cfi_def_cfa_offset 0
 517 02a4 67800000 		jr	ra
 518              		.cfi_endproc
 519              	.LFE35:
 521              		.align	2
 522              		.globl	_ZN6Thread5sleepEm
 524              	_ZN6Thread5sleepEm:
 525              	.LFB36:
 181:src/syscall_cpp.cpp **** 
 182:src/syscall_cpp.cpp **** void Thread::sleep(time_t time) {
 526              		.loc 1 182 33 is_stmt 1
 527              		.cfi_startproc
 528              	.LVL29:
 529 02a8 130101FF 		addi	sp,sp,-16
 530              		.cfi_def_cfa_offset 16
 531 02ac 23348100 		sd	s0,8(sp)
 532              		.cfi_offset 8, -8
 533 02b0 13040101 		addi	s0,sp,16
 534              		.cfi_def_cfa 8, 0
 183:src/syscall_cpp.cpp **** 
 184:src/syscall_cpp.cpp **** }
 535              		.loc 1 184 1 is_stmt 0
 536 02b4 03348100 		ld	s0,8(sp)
 537              		.cfi_restore 8
 538              		.cfi_def_cfa 2, 16
 539 02b8 13010101 		addi	sp,sp,16
 540              		.cfi_def_cfa_offset 0
 541 02bc 67800000 		jr	ra
 542              		.cfi_endproc
 543              	.LFE36:
 545              		.align	2
 546              		.globl	_ZN6ThreadC2Ev
 548              	_ZN6ThreadC2Ev:
 549              	.LFB38:
 185:src/syscall_cpp.cpp **** 
 186:src/syscall_cpp.cpp **** Thread::Thread() {
 550              		.loc 1 186 1 is_stmt 1
GAS LISTING /tmp/cc4kf2Vx.s 			page 14


 551              		.cfi_startproc
 552              	.LVL30:
 553 02c0 130101FF 		addi	sp,sp,-16
 554              		.cfi_def_cfa_offset 16
 555 02c4 23348100 		sd	s0,8(sp)
 556              		.cfi_offset 8, -8
 557 02c8 13040101 		addi	s0,sp,16
 558              		.cfi_def_cfa 8, 0
 187:src/syscall_cpp.cpp **** 
 188:src/syscall_cpp.cpp **** }
 559              		.loc 1 188 1 is_stmt 0
 560 02cc 03348100 		ld	s0,8(sp)
 561              		.cfi_restore 8
 562              		.cfi_def_cfa 2, 16
 563 02d0 13010101 		addi	sp,sp,16
 564              		.cfi_def_cfa_offset 0
 565 02d4 67800000 		jr	ra
 566              		.cfi_endproc
 567              	.LFE38:
 569              		.globl	_ZN6ThreadC1Ev
 570              		.set	_ZN6ThreadC1Ev,_ZN6ThreadC2Ev
 571              		.align	2
 572              		.globl	_ZN3PCBC2EPFvPvES0_mm
 574              	_ZN3PCBC2EPFvPvES0_mm:
 575              	.LFB41:
 189:src/syscall_cpp.cpp **** 
 190:src/syscall_cpp.cpp **** //void Thread::run() {
 191:src/syscall_cpp.cpp **** //
 192:src/syscall_cpp.cpp **** //}
 193:src/syscall_cpp.cpp **** 
 194:src/syscall_cpp.cpp **** //PCB.h
 195:src/syscall_cpp.cpp **** 
 196:src/syscall_cpp.cpp **** PCB::PCB(void (*body)(void*), void* arg, size_t stackSize, size_t timeSlice) {
 576              		.loc 1 196 1 is_stmt 1
 577              		.cfi_startproc
 578              	.LVL31:
 579 02d8 130101FD 		addi	sp,sp,-48
 580              		.cfi_def_cfa_offset 48
 581 02dc 23341102 		sd	ra,40(sp)
 582 02e0 23308102 		sd	s0,32(sp)
 583 02e4 233C9100 		sd	s1,24(sp)
 584 02e8 23382101 		sd	s2,16(sp)
 585 02ec 23343101 		sd	s3,8(sp)
 586 02f0 23304101 		sd	s4,0(sp)
 587              		.cfi_offset 1, -8
 588              		.cfi_offset 8, -16
 589              		.cfi_offset 9, -24
 590              		.cfi_offset 18, -32
 591              		.cfi_offset 19, -40
 592              		.cfi_offset 20, -48
 593 02f4 13040103 		addi	s0,sp,48
 594              		.cfi_def_cfa 8, 0
 595 02f8 93040500 		mv	s1,a0
 596 02fc 93890500 		mv	s3,a1
 597 0300 130A0600 		mv	s4,a2
 598              	.LBB4:
 197:src/syscall_cpp.cpp ****     this->stackSize = stackSize;
GAS LISTING /tmp/cc4kf2Vx.s 			page 15


 599              		.loc 1 197 5
 600              		.loc 1 197 21 is_stmt 0
 601 0304 2338D500 		sd	a3,16(a0)
 198:src/syscall_cpp.cpp ****     this->timeSlice = timeSlice;
 602              		.loc 1 198 5 is_stmt 1
 603              		.loc 1 198 21 is_stmt 0
 604 0308 233CE500 		sd	a4,24(a0)
 199:src/syscall_cpp.cpp ****     this->pcbThread = new Thread(body, arg);
 605              		.loc 1 199 5 is_stmt 1
 606              		.loc 1 199 43 is_stmt 0
 607 030c 13050002 		li	a0,32
 608              	.LVL32:
 609 0310 97000000 		call	_Znwm
 609      E7800000 
 610              	.LVL33:
 611 0318 13090500 		mv	s2,a0
 612 031c 13060A00 		mv	a2,s4
 613 0320 93850900 		mv	a1,s3
 614 0324 97000000 		call	_ZN6ThreadC1EPFvPvES0_
 614      E7800000 
 615              	.LVL34:
 616              		.loc 1 199 21
 617 032c 23B02401 		sd	s2,0(s1)
 200:src/syscall_cpp.cpp ****     this->state = CREATED;
 618              		.loc 1 200 5 is_stmt 1
 619              		.loc 1 200 17 is_stmt 0
 620 0330 23A00402 		sw	zero,32(s1)
 621              	.LBE4:
 201:src/syscall_cpp.cpp **** }
 622              		.loc 1 201 1
 623 0334 83308102 		ld	ra,40(sp)
 624              		.cfi_restore 1
 625 0338 03340102 		ld	s0,32(sp)
 626              		.cfi_restore 8
 627              		.cfi_def_cfa 2, 48
 628 033c 83348101 		ld	s1,24(sp)
 629              		.cfi_restore 9
 630              	.LVL35:
 631 0340 03390101 		ld	s2,16(sp)
 632              		.cfi_restore 18
 633 0344 83398100 		ld	s3,8(sp)
 634              		.cfi_restore 19
 635              	.LVL36:
 636 0348 033A0100 		ld	s4,0(sp)
 637              		.cfi_restore 20
 638              	.LVL37:
 639 034c 13010103 		addi	sp,sp,48
 640              		.cfi_def_cfa_offset 0
 641 0350 67800000 		jr	ra
 642              		.cfi_endproc
 643              	.LFE41:
 645              		.globl	_ZN3PCBC1EPFvPvES0_mm
 646              		.set	_ZN3PCBC1EPFvPvES0_mm,_ZN3PCBC2EPFvPvES0_mm
 647              		.align	2
 648              		.globl	_ZN3PCBD2Ev
 650              	_ZN3PCBD2Ev:
 651              	.LFB44:
GAS LISTING /tmp/cc4kf2Vx.s 			page 16


 202:src/syscall_cpp.cpp **** 
 203:src/syscall_cpp.cpp **** PCB::~PCB() {
 652              		.loc 1 203 1 is_stmt 1
 653              		.cfi_startproc
 654              	.LVL38:
 655 0354 130101FF 		addi	sp,sp,-16
 656              		.cfi_def_cfa_offset 16
 657 0358 23348100 		sd	s0,8(sp)
 658              		.cfi_offset 8, -8
 659 035c 13040101 		addi	s0,sp,16
 660              		.cfi_def_cfa 8, 0
 204:src/syscall_cpp.cpp **** 
 205:src/syscall_cpp.cpp **** }
 661              		.loc 1 205 1 is_stmt 0
 662 0360 03348100 		ld	s0,8(sp)
 663              		.cfi_restore 8
 664              		.cfi_def_cfa 2, 16
 665 0364 13010101 		addi	sp,sp,16
 666              		.cfi_def_cfa_offset 0
 667 0368 67800000 		jr	ra
 668              		.cfi_endproc
 669              	.LFE44:
 671              		.globl	_ZN3PCBD1Ev
 672              		.set	_ZN3PCBD1Ev,_ZN3PCBD2Ev
 673              		.section	.text._ZN5QueueIP6ThreadE4pushES1_,"axG",@progbits,_ZN5QueueIP6ThreadE4pushES1_,comdat
 674              		.align	2
 675              		.weak	_ZN5QueueIP6ThreadE4pushES1_
 677              	_ZN5QueueIP6ThreadE4pushES1_:
 678              	.LFB46:
  73:src/syscall_cpp.cpp ****     Elem* newElem = (Elem*)MemoryAllocator::getMemoryAllocator()->mem_alloc(sizeof(Elem));
 679              		.loc 1 73 6 is_stmt 1
 680              		.cfi_startproc
 681              	.LVL39:
 682 0000 130101FE 		addi	sp,sp,-32
 683              		.cfi_def_cfa_offset 32
 684 0004 233C1100 		sd	ra,24(sp)
 685 0008 23388100 		sd	s0,16(sp)
 686 000c 23349100 		sd	s1,8(sp)
 687              		.cfi_offset 1, -8
 688              		.cfi_offset 8, -16
 689              		.cfi_offset 9, -24
 690 0010 13040102 		addi	s0,sp,32
 691              		.cfi_def_cfa 8, 0
 692 0014 93040500 		mv	s1,a0
  74:src/syscall_cpp.cpp ****     if(first == 0) {
 693              		.loc 1 74 76 is_stmt 0
 694 0018 97000000 		call	_ZN15MemoryAllocator18getMemoryAllocatorEv
 694      E7800000 
 695              	.LVL40:
 696 0020 93050001 		li	a1,16
 697 0024 97000000 		call	_ZN15MemoryAllocator9mem_allocEm
 697      E7800000 
 698              	.LVL41:
  75:src/syscall_cpp.cpp ****         first = newElem;
 699              		.loc 1 75 8
 700 002c 83B70400 		ld	a5,0(s1)
  75:src/syscall_cpp.cpp ****         first = newElem;
GAS LISTING /tmp/cc4kf2Vx.s 			page 17


 701              		.loc 1 75 5
 702 0030 638C0700 		beqz	a5,.L52
 703              	.L49:
  80:src/syscall_cpp.cpp **** 
 704              		.loc 1 80 1
 705 0034 83308101 		ld	ra,24(sp)
 706              		.cfi_remember_state
 707              		.cfi_restore 1
 708 0038 03340101 		ld	s0,16(sp)
 709              		.cfi_restore 8
 710              		.cfi_def_cfa 2, 32
 711 003c 83348100 		ld	s1,8(sp)
 712              		.cfi_restore 9
 713              	.LVL42:
 714 0040 13010102 		addi	sp,sp,32
 715              		.cfi_def_cfa_offset 0
 716 0044 67800000 		jr	ra
 717              	.LVL43:
 718              	.L52:
 719              		.cfi_restore_state
  76:src/syscall_cpp.cpp ****         last = 0;
 720              		.loc 1 76 9
 721 0048 23B0A400 		sd	a0,0(s1)
  77:src/syscall_cpp.cpp ****         first->next = last;
 722              		.loc 1 77 9
 723 004c 23B40400 		sd	zero,8(s1)
  78:src/syscall_cpp.cpp ****     }
 724              		.loc 1 78 9
 725 0050 23340500 		sd	zero,8(a0)
  80:src/syscall_cpp.cpp **** 
 726              		.loc 1 80 1
 727 0054 6FF01FFE 		j	.L49
 728              		.cfi_endproc
 729              	.LFE46:
 731              		.text
 732              		.align	2
 733              		.globl	_ZN9Scheduler3putEP6Thread
 735              	_ZN9Scheduler3putEP6Thread:
 736              	.LFB21:
 131:src/syscall_cpp.cpp ****     queueThreads->push(thread);
 737              		.loc 1 131 37 is_stmt 1
 738              		.cfi_startproc
 739              	.LVL44:
 740 036c 130101FF 		addi	sp,sp,-16
 741              		.cfi_def_cfa_offset 16
 742 0370 23341100 		sd	ra,8(sp)
 743 0374 23308100 		sd	s0,0(sp)
 744              		.cfi_offset 1, -8
 745              		.cfi_offset 8, -16
 746 0378 13040101 		addi	s0,sp,16
 747              		.cfi_def_cfa 8, 0
 132:src/syscall_cpp.cpp **** }
 748              		.loc 1 132 5
 132:src/syscall_cpp.cpp **** }
 749              		.loc 1 132 23 is_stmt 0
 750 037c 03350500 		ld	a0,0(a0)
 751              	.LVL45:
GAS LISTING /tmp/cc4kf2Vx.s 			page 18


 752 0380 97000000 		call	_ZN5QueueIP6ThreadE4pushES1_
 752      E7800000 
 753              	.LVL46:
 133:src/syscall_cpp.cpp **** 
 754              		.loc 1 133 1
 755 0388 83308100 		ld	ra,8(sp)
 756              		.cfi_restore 1
 757 038c 03340100 		ld	s0,0(sp)
 758              		.cfi_restore 8
 759              		.cfi_def_cfa 2, 16
 760 0390 13010101 		addi	sp,sp,16
 761              		.cfi_def_cfa_offset 0
 762 0394 67800000 		jr	ra
 763              		.cfi_endproc
 764              	.LFE21:
 766              		.align	2
 767              		.globl	_ZN6Thread5startEv
 769              	_ZN6Thread5startEv:
 770              	.LFB34:
 174:src/syscall_cpp.cpp ****     Scheduler::getScheduler()->put(this);
 771              		.loc 1 174 22 is_stmt 1
 772              		.cfi_startproc
 773              	.LVL47:
 774 0398 130101FE 		addi	sp,sp,-32
 775              		.cfi_def_cfa_offset 32
 776 039c 233C1100 		sd	ra,24(sp)
 777 03a0 23388100 		sd	s0,16(sp)
 778 03a4 23349100 		sd	s1,8(sp)
 779              		.cfi_offset 1, -8
 780              		.cfi_offset 8, -16
 781              		.cfi_offset 9, -24
 782 03a8 13040102 		addi	s0,sp,32
 783              		.cfi_def_cfa 8, 0
 784 03ac 93040500 		mv	s1,a0
 175:src/syscall_cpp.cpp **** }
 785              		.loc 1 175 5
 175:src/syscall_cpp.cpp **** }
 786              		.loc 1 175 35 is_stmt 0
 787 03b0 97000000 		call	_ZN9Scheduler12getSchedulerEv
 787      E7800000 
 788              	.LVL48:
 789 03b8 93850400 		mv	a1,s1
 790 03bc 97000000 		call	_ZN9Scheduler3putEP6Thread
 790      E7800000 
 791              	.LVL49:
 176:src/syscall_cpp.cpp **** 
 792              		.loc 1 176 1
 793 03c4 83308101 		ld	ra,24(sp)
 794              		.cfi_restore 1
 795 03c8 03340101 		ld	s0,16(sp)
 796              		.cfi_restore 8
 797              		.cfi_def_cfa 2, 32
 798 03cc 83348100 		ld	s1,8(sp)
 799              		.cfi_restore 9
 800              	.LVL50:
 801 03d0 13010102 		addi	sp,sp,32
 802              		.cfi_def_cfa_offset 0
GAS LISTING /tmp/cc4kf2Vx.s 			page 19


 803 03d4 67800000 		jr	ra
 804              		.cfi_endproc
 805              	.LFE34:
 807              		.section	.text._ZN5QueueIP6ThreadE5frontEv,"axG",@progbits,_ZN5QueueIP6ThreadE5frontEv,comdat
 808              		.align	2
 809              		.weak	_ZN5QueueIP6ThreadE5frontEv
 811              	_ZN5QueueIP6ThreadE5frontEv:
 812              	.LFB47:
  83:src/syscall_cpp.cpp ****    if(first == 0)
 813              		.loc 1 83 3 is_stmt 1
 814              		.cfi_startproc
 815              	.LVL51:
 816 0000 130101FF 		addi	sp,sp,-16
 817              		.cfi_def_cfa_offset 16
 818 0004 23348100 		sd	s0,8(sp)
 819              		.cfi_offset 8, -8
 820 0008 13040101 		addi	s0,sp,16
 821              		.cfi_def_cfa 8, 0
  84:src/syscall_cpp.cpp ****        return 0;
 822              		.loc 1 84 7 is_stmt 0
 823 000c 03350500 		ld	a0,0(a0)
 824              	.LVL52:
  84:src/syscall_cpp.cpp ****        return 0;
 825              		.loc 1 84 4
 826 0010 63040500 		beqz	a0,.L57
  86:src/syscall_cpp.cpp **** }
 827              		.loc 1 86 18
 828 0014 03350500 		ld	a0,0(a0)
 829              	.L57:
  87:src/syscall_cpp.cpp **** 
 830              		.loc 1 87 1
 831 0018 03348100 		ld	s0,8(sp)
 832              		.cfi_restore 8
 833              		.cfi_def_cfa 2, 16
 834 001c 13010101 		addi	sp,sp,16
 835              		.cfi_def_cfa_offset 0
 836 0020 67800000 		jr	ra
 837              		.cfi_endproc
 838              	.LFE47:
 840              		.section	.text._ZN5QueueIP6ThreadE3popEv,"axG",@progbits,_ZN5QueueIP6ThreadE3popEv,comdat
 841              		.align	2
 842              		.weak	_ZN5QueueIP6ThreadE3popEv
 844              	_ZN5QueueIP6ThreadE3popEv:
 845              	.LFB48:
  64:src/syscall_cpp.cpp ****     Elem* newFirst = first->next;
 846              		.loc 1 64 6 is_stmt 1
 847              		.cfi_startproc
 848              	.LVL53:
 849 0000 130101FE 		addi	sp,sp,-32
 850              		.cfi_def_cfa_offset 32
 851 0004 233C1100 		sd	ra,24(sp)
 852 0008 23388100 		sd	s0,16(sp)
 853 000c 23349100 		sd	s1,8(sp)
 854 0010 23302101 		sd	s2,0(sp)
 855              		.cfi_offset 1, -8
 856              		.cfi_offset 8, -16
 857              		.cfi_offset 9, -24
GAS LISTING /tmp/cc4kf2Vx.s 			page 20


 858              		.cfi_offset 18, -32
 859 0014 13040102 		addi	s0,sp,32
 860              		.cfi_def_cfa 8, 0
 861 0018 93040500 		mv	s1,a0
  65:src/syscall_cpp.cpp ****     MemoryAllocator::getMemoryAllocator()->mem_free(first);
 862              		.loc 1 65 22 is_stmt 0
 863 001c 83370500 		ld	a5,0(a0)
  65:src/syscall_cpp.cpp ****     MemoryAllocator::getMemoryAllocator()->mem_free(first);
 864              		.loc 1 65 11
 865 0020 03B98700 		ld	s2,8(a5)
 866              	.LVL54:
  66:src/syscall_cpp.cpp ****     first = newFirst;
 867              		.loc 1 66 5
 868 0024 97000000 		call	_ZN15MemoryAllocator18getMemoryAllocatorEv
 868      E7800000 
 869              	.LVL55:
 870 002c 83B50400 		ld	a1,0(s1)
 871 0030 97000000 		call	_ZN15MemoryAllocator8mem_freeEPv
 871      E7800000 
 872              	.LVL56:
  67:src/syscall_cpp.cpp ****     if(first == 0)
 873              		.loc 1 67 5
 874 0038 23B02401 		sd	s2,0(s1)
  68:src/syscall_cpp.cpp ****         first = last = 0;
 875              		.loc 1 68 5
 876 003c 630E0900 		beqz	s2,.L63
 877              	.L60:
  70:src/syscall_cpp.cpp **** 
 878              		.loc 1 70 1
 879 0040 83308101 		ld	ra,24(sp)
 880              		.cfi_remember_state
 881              		.cfi_restore 1
 882 0044 03340101 		ld	s0,16(sp)
 883              		.cfi_restore 8
 884              		.cfi_def_cfa 2, 32
 885 0048 83348100 		ld	s1,8(sp)
 886              		.cfi_restore 9
 887              	.LVL57:
 888 004c 03390100 		ld	s2,0(sp)
 889              		.cfi_restore 18
 890              	.LVL58:
 891 0050 13010102 		addi	sp,sp,32
 892              		.cfi_def_cfa_offset 0
 893 0054 67800000 		jr	ra
 894              	.LVL59:
 895              	.L63:
 896              		.cfi_restore_state
  69:src/syscall_cpp.cpp **** }
 897              		.loc 1 69 9
 898 0058 23B40400 		sd	zero,8(s1)
 899 005c 23B00400 		sd	zero,0(s1)
  70:src/syscall_cpp.cpp **** 
 900              		.loc 1 70 1
 901 0060 6FF01FFE 		j	.L60
 902              		.cfi_endproc
 903              	.LFE48:
 905              		.text
GAS LISTING /tmp/cc4kf2Vx.s 			page 21


 906              		.align	2
 907              		.globl	_ZN9Scheduler3getEv
 909              	_ZN9Scheduler3getEv:
 910              	.LFB22:
 135:src/syscall_cpp.cpp ****     Thread* t =  queueThreads->front();
 911              		.loc 1 135 26 is_stmt 1
 912              		.cfi_startproc
 913              	.LVL60:
 914 03d8 130101FE 		addi	sp,sp,-32
 915              		.cfi_def_cfa_offset 32
 916 03dc 233C1100 		sd	ra,24(sp)
 917 03e0 23388100 		sd	s0,16(sp)
 918 03e4 23349100 		sd	s1,8(sp)
 919 03e8 23302101 		sd	s2,0(sp)
 920              		.cfi_offset 1, -8
 921              		.cfi_offset 8, -16
 922              		.cfi_offset 9, -24
 923              		.cfi_offset 18, -32
 924 03ec 13040102 		addi	s0,sp,32
 925              		.cfi_def_cfa 8, 0
 136:src/syscall_cpp.cpp ****     queueThreads->pop();
 926              		.loc 1 136 5
 136:src/syscall_cpp.cpp ****     queueThreads->pop();
 927              		.loc 1 136 18 is_stmt 0
 928 03f0 03390500 		ld	s2,0(a0)
 136:src/syscall_cpp.cpp ****     queueThreads->pop();
 929              		.loc 1 136 37
 930 03f4 13050900 		mv	a0,s2
 931              	.LVL61:
 932 03f8 97000000 		call	_ZN5QueueIP6ThreadE5frontEv
 932      E7800000 
 933              	.LVL62:
 934 0400 93040500 		mv	s1,a0
 935              	.LVL63:
 137:src/syscall_cpp.cpp ****     return t;
 936              		.loc 1 137 5 is_stmt 1
 137:src/syscall_cpp.cpp ****     return t;
 937              		.loc 1 137 22 is_stmt 0
 938 0404 13050900 		mv	a0,s2
 939 0408 97000000 		call	_ZN5QueueIP6ThreadE3popEv
 939      E7800000 
 940              	.LVL64:
 138:src/syscall_cpp.cpp **** }
 941              		.loc 1 138 5 is_stmt 1
 139:src/syscall_cpp.cpp **** 
 942              		.loc 1 139 1 is_stmt 0
 943 0410 13850400 		mv	a0,s1
 944 0414 83308101 		ld	ra,24(sp)
 945              		.cfi_restore 1
 946 0418 03340101 		ld	s0,16(sp)
 947              		.cfi_restore 8
 948              		.cfi_def_cfa 2, 32
 949 041c 83348100 		ld	s1,8(sp)
 950              		.cfi_restore 9
 951              	.LVL65:
 952 0420 03390100 		ld	s2,0(sp)
 953              		.cfi_restore 18
GAS LISTING /tmp/cc4kf2Vx.s 			page 22


 954 0424 13010102 		addi	sp,sp,32
 955              		.cfi_def_cfa_offset 0
 956 0428 67800000 		jr	ra
 957              		.cfi_endproc
 958              	.LFE22:
 960              		.section	.text._ZN5QueueIP6ThreadEdlEPv,"axG",@progbits,_ZN5QueueIP6ThreadEdlEPv,comdat
 961              		.align	2
 962              		.weak	_ZN5QueueIP6ThreadEdlEPv
 964              	_ZN5QueueIP6ThreadEdlEPv:
 965              	.LFB49:
 112:src/syscall_cpp.cpp ****     ::operator delete(p);
 966              		.loc 1 112 6 is_stmt 1
 967              		.cfi_startproc
 968              	.LVL66:
 969 0000 130101FF 		addi	sp,sp,-16
 970              		.cfi_def_cfa_offset 16
 971 0004 23341100 		sd	ra,8(sp)
 972 0008 23308100 		sd	s0,0(sp)
 973              		.cfi_offset 1, -8
 974              		.cfi_offset 8, -16
 975 000c 13040101 		addi	s0,sp,16
 976              		.cfi_def_cfa 8, 0
 113:src/syscall_cpp.cpp **** }
 977              		.loc 1 113 22 is_stmt 0
 978 0010 97000000 		call	_ZdlPv
 978      E7800000 
 979              	.LVL67:
 114:src/syscall_cpp.cpp **** 
 980              		.loc 1 114 1
 981 0018 83308100 		ld	ra,8(sp)
 982              		.cfi_restore 1
 983 001c 03340100 		ld	s0,0(sp)
 984              		.cfi_restore 8
 985              		.cfi_def_cfa 2, 16
 986 0020 13010101 		addi	sp,sp,16
 987              		.cfi_def_cfa_offset 0
 988 0024 67800000 		jr	ra
 989              		.cfi_endproc
 990              	.LFE49:
 992              		.section	.text._ZN5QueueIP6ThreadED2Ev,"axG",@progbits,_ZN5QueueIP6ThreadED5Ev,comdat
 993              		.align	2
 994              		.weak	_ZN5QueueIP6ThreadED2Ev
 996              	_ZN5QueueIP6ThreadED2Ev:
 997              	.LFB51:
  95:src/syscall_cpp.cpp ****     Elem* curr = first;
 998              		.loc 1 95 1 is_stmt 1
 999              		.cfi_startproc
 1000              		.cfi_personality 0x9b,DW.ref.__gxx_personality_v0
 1001              		.cfi_lsda 0x1b,.LLSDA51
 1002              	.LVL68:
 1003 0000 130101FE 		addi	sp,sp,-32
 1004              		.cfi_def_cfa_offset 32
 1005 0004 233C1100 		sd	ra,24(sp)
 1006 0008 23388100 		sd	s0,16(sp)
 1007 000c 23349100 		sd	s1,8(sp)
 1008 0010 23302101 		sd	s2,0(sp)
 1009              		.cfi_offset 1, -8
GAS LISTING /tmp/cc4kf2Vx.s 			page 23


 1010              		.cfi_offset 8, -16
 1011              		.cfi_offset 9, -24
 1012              		.cfi_offset 18, -32
 1013 0014 13040102 		addi	s0,sp,32
 1014              		.cfi_def_cfa 8, 0
 1015              	.LBB5:
  96:src/syscall_cpp.cpp ****     while(curr != 0)
 1016              		.loc 1 96 11 is_stmt 0
 1017 0018 83340500 		ld	s1,0(a0)
 1018              	.LVL69:
 1019              	.L70:
  97:src/syscall_cpp.cpp ****     {
 1020              		.loc 1 97 16 is_stmt 1
 1021 001c 63820402 		beqz	s1,.L68
 1022              	.LVL70:
 1023              	.LBB6:
 100:src/syscall_cpp.cpp ****         MemoryAllocator::getMemoryAllocator()->mem_free(old);
 1024              		.loc 1 100 9 is_stmt 0
 1025 0020 03B98400 		ld	s2,8(s1)
 1026              	.LVL71:
 101:src/syscall_cpp.cpp ****     }
 1027              		.loc 1 101 9
 1028 0024 97000000 		call	_ZN15MemoryAllocator18getMemoryAllocatorEv
 1028      E7800000 
 1029              	.LVL72:
 1030 002c 93850400 		mv	a1,s1
 1031 0030 97000000 		call	_ZN15MemoryAllocator8mem_freeEPv
 1031      E7800000 
 1032              	.LVL73:
 100:src/syscall_cpp.cpp ****         MemoryAllocator::getMemoryAllocator()->mem_free(old);
 1033              		.loc 1 100 9
 1034 0038 93040900 		mv	s1,s2
 1035              	.LVL74:
 1036              	.LBE6:
  97:src/syscall_cpp.cpp ****     {
 1037              		.loc 1 97 5
 1038 003c 6FF01FFE 		j	.L70
 1039              	.LVL75:
 1040              	.L68:
 1041              	.LBE5:
 103:src/syscall_cpp.cpp **** 
 1042              		.loc 1 103 1
 1043 0040 83308101 		ld	ra,24(sp)
 1044              		.cfi_restore 1
 1045 0044 03340101 		ld	s0,16(sp)
 1046              		.cfi_restore 8
 1047              		.cfi_def_cfa 2, 32
 1048 0048 83348100 		ld	s1,8(sp)
 1049              		.cfi_restore 9
 1050              	.LVL76:
 1051 004c 03390100 		ld	s2,0(sp)
 1052              		.cfi_restore 18
 1053 0050 13010102 		addi	sp,sp,32
 1054              		.cfi_def_cfa_offset 0
 1055 0054 67800000 		jr	ra
 1056              		.cfi_endproc
 1057              	.LFE51:
GAS LISTING /tmp/cc4kf2Vx.s 			page 24


 1058              		.globl	__gxx_personality_v0
 1059              		.section	.gcc_except_table._ZN5QueueIP6ThreadED2Ev,"aG",@progbits,_ZN5QueueIP6ThreadED5Ev,comdat
 1060              	.LLSDA51:
 1061 0000 FF       		.byte	0xff
 1062 0001 FF       		.byte	0xff
 1063 0002 03       		.byte	0x3
 1064 0003 00       		.byte	0
 1065              		.section	.text._ZN5QueueIP6ThreadED2Ev,"axG",@progbits,_ZN5QueueIP6ThreadED5Ev,comdat
 1067              		.weak	_ZN5QueueIP6ThreadED1Ev
 1068              		.set	_ZN5QueueIP6ThreadED1Ev,_ZN5QueueIP6ThreadED2Ev
 1069              		.text
 1070              		.align	2
 1071              		.globl	_ZN9SchedulerD2Ev
 1073              	_ZN9SchedulerD2Ev:
 1074              	.LFB24:
 141:src/syscall_cpp.cpp ****     //todo
 1075              		.loc 1 141 1 is_stmt 1
 1076              		.cfi_startproc
 1077              		.cfi_personality 0x9b,DW.ref.__gxx_personality_v0
 1078              		.cfi_lsda 0x1b,.LLSDA24
 1079              	.LVL77:
 1080 042c 130101FE 		addi	sp,sp,-32
 1081              		.cfi_def_cfa_offset 32
 1082 0430 233C1100 		sd	ra,24(sp)
 1083 0434 23388100 		sd	s0,16(sp)
 1084 0438 23349100 		sd	s1,8(sp)
 1085              		.cfi_offset 1, -8
 1086              		.cfi_offset 8, -16
 1087              		.cfi_offset 9, -24
 1088 043c 13040102 		addi	s0,sp,32
 1089              		.cfi_def_cfa 8, 0
 1090              	.LBB7:
 144:src/syscall_cpp.cpp ****     //MemoryAllocator::getMemoryAllocator()->mem_free(queueThreads);
 1091              		.loc 1 144 5
 144:src/syscall_cpp.cpp ****     //MemoryAllocator::getMemoryAllocator()->mem_free(queueThreads);
 1092              		.loc 1 144 12 is_stmt 0
 1093 0440 83340500 		ld	s1,0(a0)
 144:src/syscall_cpp.cpp ****     //MemoryAllocator::getMemoryAllocator()->mem_free(queueThreads);
 1094              		.loc 1 144 24
 1095 0444 638E0400 		beqz	s1,.L72
 144:src/syscall_cpp.cpp ****     //MemoryAllocator::getMemoryAllocator()->mem_free(queueThreads);
 1096              		.loc 1 144 12 discriminator 1
 1097 0448 13850400 		mv	a0,s1
 1098              	.LVL78:
 1099 044c 97000000 		call	_ZN5QueueIP6ThreadED1Ev
 1099      E7800000 
 1100              	.LVL79:
 1101 0454 13850400 		mv	a0,s1
 1102 0458 97000000 		call	_ZN5QueueIP6ThreadEdlEPv
 1102      E7800000 
 1103              	.LVL80:
 1104              	.L72:
 1105              	.LBE7:
 146:src/syscall_cpp.cpp **** 
 1106              		.loc 1 146 1
 1107 0460 83308101 		ld	ra,24(sp)
 1108              		.cfi_restore 1
GAS LISTING /tmp/cc4kf2Vx.s 			page 25


 1109 0464 03340101 		ld	s0,16(sp)
 1110              		.cfi_restore 8
 1111              		.cfi_def_cfa 2, 32
 1112 0468 83348100 		ld	s1,8(sp)
 1113              		.cfi_restore 9
 1114 046c 13010102 		addi	sp,sp,32
 1115              		.cfi_def_cfa_offset 0
 1116 0470 67800000 		jr	ra
 1117              		.cfi_endproc
 1118              	.LFE24:
 1119              		.section	.gcc_except_table,"a",@progbits
 1120              	.LLSDA24:
 1121 0000 FF       		.byte	0xff
 1122 0001 FF       		.byte	0xff
 1123 0002 03       		.byte	0x3
 1124 0003 00       		.byte	0
 1125              		.text
 1127              		.globl	_ZN9SchedulerD1Ev
 1128              		.set	_ZN9SchedulerD1Ev,_ZN9SchedulerD2Ev
 1129              		.globl	_ZN9Scheduler9schedulerE
 1130              		.globl	_ZN15MemoryAllocator15memoryAllocatorE
 1131              		.bss
 1132              		.align	3
 1133              		.set	.LANCHOR0,. + 0
 1136              	_ZN15MemoryAllocator15memoryAllocatorE:
 1137 0000 00000000 		.zero	8
 1137      00000000 
 1140              	_ZN9Scheduler9schedulerE:
 1141 0008 00000000 		.zero	8
 1141      00000000 
 1142              		.text
 1143              	.Letext0:
 1144              		.file 2 "src/../h/../lib/hw.h"
 1145              		.file 3 "src/../h/syscall_cpp.h"
 1146              		.file 4 "src/../h/syscall_c.h"
 4826              		.align	3
 4829              	DW.ref.__gxx_personality_v0:
 4830 0000 00000000 		.dword	__gxx_personality_v0
 4830      00000000 
 4831              		.ident	"GCC: (Ubuntu 9.3.0-17ubuntu1~20.04) 9.3.0"
 4832              		.section	.note.GNU-stack,"",@progbits
GAS LISTING /tmp/cc4kf2Vx.s 			page 26


DEFINED SYMBOLS
                            *ABS*:0000000000000000 syscall_cpp.cpp
     /tmp/cc4kf2Vx.s:9      .text:0000000000000000 _Znwm
     /tmp/cc4kf2Vx.s:13     .text:0000000000000000 .L0 
     /tmp/cc4kf2Vx.s:15     .text:0000000000000000 .L0 
     /tmp/cc4kf2Vx.s:16     .text:0000000000000004 .L0 
     /tmp/cc4kf2Vx.s:19     .text:000000000000000c .L0 
     /tmp/cc4kf2Vx.s:20     .text:000000000000000c .L0 
     /tmp/cc4kf2Vx.s:22     .text:0000000000000010 .L0 
     /tmp/cc4kf2Vx.s:24     .text:0000000000000010 .L0 
     /tmp/cc4kf2Vx.s:25     .text:0000000000000010 .L0 
     /tmp/cc4kf2Vx.s:28     .text:0000000000000018 .L0 
     /tmp/cc4kf2Vx.s:29     .text:000000000000001c .L0 
     /tmp/cc4kf2Vx.s:31     .text:0000000000000020 .L0 
     /tmp/cc4kf2Vx.s:32     .text:0000000000000020 .L0 
     /tmp/cc4kf2Vx.s:34     .text:0000000000000024 .L0 
     /tmp/cc4kf2Vx.s:36     .text:0000000000000028 .L0 
     /tmp/cc4kf2Vx.s:42     .text:0000000000000028 _ZdlPv
     /tmp/cc4kf2Vx.s:45     .text:0000000000000028 .L0 
     /tmp/cc4kf2Vx.s:47     .text:0000000000000028 .L0 
     /tmp/cc4kf2Vx.s:48     .text:000000000000002c .L0 
     /tmp/cc4kf2Vx.s:51     .text:0000000000000034 .L0 
     /tmp/cc4kf2Vx.s:52     .text:0000000000000034 .L0 
     /tmp/cc4kf2Vx.s:54     .text:0000000000000038 .L0 
     /tmp/cc4kf2Vx.s:56     .text:0000000000000038 .L0 
     /tmp/cc4kf2Vx.s:57     .text:0000000000000038 .L0 
     /tmp/cc4kf2Vx.s:60     .text:0000000000000040 .L0 
     /tmp/cc4kf2Vx.s:61     .text:0000000000000044 .L0 
     /tmp/cc4kf2Vx.s:63     .text:0000000000000048 .L0 
     /tmp/cc4kf2Vx.s:64     .text:0000000000000048 .L0 
     /tmp/cc4kf2Vx.s:66     .text:000000000000004c .L0 
     /tmp/cc4kf2Vx.s:68     .text:0000000000000050 .L0 
     /tmp/cc4kf2Vx.s:74     .text:0000000000000050 _ZN15MemoryAllocatorC2Ev
     /tmp/cc4kf2Vx.s:77     .text:0000000000000050 .L0 
     /tmp/cc4kf2Vx.s:79     .text:0000000000000050 .L0 
     /tmp/cc4kf2Vx.s:80     .text:0000000000000054 .L0 
     /tmp/cc4kf2Vx.s:82     .text:0000000000000058 .L0 
     /tmp/cc4kf2Vx.s:84     .text:000000000000005c .L0 
     /tmp/cc4kf2Vx.s:86     .text:000000000000005c .L0 
     /tmp/cc4kf2Vx.s:87     .text:0000000000000060 .L0 
     /tmp/cc4kf2Vx.s:88     .text:0000000000000060 .L0 
     /tmp/cc4kf2Vx.s:90     .text:0000000000000064 .L0 
     /tmp/cc4kf2Vx.s:92     .text:0000000000000068 .L0 
     /tmp/cc4kf2Vx.s:74     .text:0000000000000050 _ZN15MemoryAllocatorC1Ev
     /tmp/cc4kf2Vx.s:100    .text:0000000000000068 _ZN15MemoryAllocator9mem_allocEm
     /tmp/cc4kf2Vx.s:103    .text:0000000000000068 .L0 
     /tmp/cc4kf2Vx.s:105    .text:0000000000000068 .L0 
     /tmp/cc4kf2Vx.s:106    .text:000000000000006c .L0 
     /tmp/cc4kf2Vx.s:109    .text:0000000000000074 .L0 
     /tmp/cc4kf2Vx.s:110    .text:0000000000000074 .L0 
     /tmp/cc4kf2Vx.s:112    .text:0000000000000078 .L0 
     /tmp/cc4kf2Vx.s:114    .text:0000000000000078 .L0 
     /tmp/cc4kf2Vx.s:115    .text:0000000000000078 .L0 
     /tmp/cc4kf2Vx.s:120    .text:0000000000000084 .L0 
     /tmp/cc4kf2Vx.s:121    .text:0000000000000088 .L0 
     /tmp/cc4kf2Vx.s:123    .text:000000000000008c .L0 
     /tmp/cc4kf2Vx.s:124    .text:000000000000008c .L0 
GAS LISTING /tmp/cc4kf2Vx.s 			page 27


     /tmp/cc4kf2Vx.s:126    .text:0000000000000090 .L0 
     /tmp/cc4kf2Vx.s:128    .text:0000000000000094 .L0 
     /tmp/cc4kf2Vx.s:134    .text:0000000000000094 _ZN15MemoryAllocator8mem_freeEPv
     /tmp/cc4kf2Vx.s:137    .text:0000000000000094 .L0 
     /tmp/cc4kf2Vx.s:139    .text:0000000000000094 .L0 
     /tmp/cc4kf2Vx.s:140    .text:0000000000000098 .L0 
     /tmp/cc4kf2Vx.s:143    .text:00000000000000a0 .L0 
     /tmp/cc4kf2Vx.s:144    .text:00000000000000a0 .L0 
     /tmp/cc4kf2Vx.s:146    .text:00000000000000a4 .L0 
     /tmp/cc4kf2Vx.s:148    .text:00000000000000a4 .L0 
     /tmp/cc4kf2Vx.s:149    .text:00000000000000a4 .L0 
     /tmp/cc4kf2Vx.s:154    .text:00000000000000b0 .L0 
     /tmp/cc4kf2Vx.s:155    .text:00000000000000b4 .L0 
     /tmp/cc4kf2Vx.s:157    .text:00000000000000b8 .L0 
     /tmp/cc4kf2Vx.s:158    .text:00000000000000b8 .L0 
     /tmp/cc4kf2Vx.s:160    .text:00000000000000bc .L0 
     /tmp/cc4kf2Vx.s:162    .text:00000000000000c0 .L0 
     /tmp/cc4kf2Vx.s:168    .text:00000000000000c0 _ZN15MemoryAllocatorD2Ev
     /tmp/cc4kf2Vx.s:171    .text:00000000000000c0 .L0 
     /tmp/cc4kf2Vx.s:173    .text:00000000000000c0 .L0 
     /tmp/cc4kf2Vx.s:174    .text:00000000000000c4 .L0 
     /tmp/cc4kf2Vx.s:176    .text:00000000000000c8 .L0 
     /tmp/cc4kf2Vx.s:178    .text:00000000000000cc .L0 
     /tmp/cc4kf2Vx.s:180    .text:00000000000000cc .L0 
     /tmp/cc4kf2Vx.s:181    .text:00000000000000d0 .L0 
     /tmp/cc4kf2Vx.s:182    .text:00000000000000d0 .L0 
     /tmp/cc4kf2Vx.s:184    .text:00000000000000d4 .L0 
     /tmp/cc4kf2Vx.s:186    .text:00000000000000d8 .L0 
     /tmp/cc4kf2Vx.s:168    .text:00000000000000c0 _ZN15MemoryAllocatorD1Ev
     /tmp/cc4kf2Vx.s:194    .text:00000000000000d8 _ZN15MemoryAllocatornwEm
     /tmp/cc4kf2Vx.s:197    .text:00000000000000d8 .L0 
     /tmp/cc4kf2Vx.s:199    .text:00000000000000d8 .L0 
     /tmp/cc4kf2Vx.s:200    .text:00000000000000dc .L0 
     /tmp/cc4kf2Vx.s:203    .text:00000000000000e4 .L0 
     /tmp/cc4kf2Vx.s:204    .text:00000000000000e4 .L0 
     /tmp/cc4kf2Vx.s:206    .text:00000000000000e8 .L0 
     /tmp/cc4kf2Vx.s:208    .text:00000000000000e8 .L0 
     /tmp/cc4kf2Vx.s:209    .text:00000000000000e8 .L0 
     /tmp/cc4kf2Vx.s:212    .text:00000000000000f0 .L0 
     /tmp/cc4kf2Vx.s:213    .text:00000000000000f4 .L0 
     /tmp/cc4kf2Vx.s:215    .text:00000000000000f8 .L0 
     /tmp/cc4kf2Vx.s:216    .text:00000000000000f8 .L0 
     /tmp/cc4kf2Vx.s:218    .text:00000000000000fc .L0 
     /tmp/cc4kf2Vx.s:220    .text:0000000000000100 .L0 
     /tmp/cc4kf2Vx.s:226    .text:0000000000000100 _ZN15MemoryAllocator18getMemoryAllocatorEv
     /tmp/cc4kf2Vx.s:229    .text:0000000000000100 .L0 
     /tmp/cc4kf2Vx.s:230    .text:0000000000000100 .L0 
     /tmp/cc4kf2Vx.s:231    .text:0000000000000100 .L0 
     /tmp/cc4kf2Vx.s:232    .text:0000000000000100 .L0 
     /tmp/cc4kf2Vx.s:234    .text:0000000000000108 .L0 
     /tmp/cc4kf2Vx.s:236    .text:000000000000010c .L0 
     /tmp/cc4kf2Vx.s:237    .text:000000000000010c .L0 
     /tmp/cc4kf2Vx.s:241    .text:0000000000000118 .L0 
     /tmp/cc4kf2Vx.s:242    .text:000000000000011c .L0 
     /tmp/cc4kf2Vx.s:245    .text:0000000000000124 .L0 
     /tmp/cc4kf2Vx.s:246    .text:0000000000000124 .L0 
     /tmp/cc4kf2Vx.s:248    .text:0000000000000128 .L0 
GAS LISTING /tmp/cc4kf2Vx.s 			page 28


     /tmp/cc4kf2Vx.s:250    .text:0000000000000128 .L0 
     /tmp/cc4kf2Vx.s:251    .text:0000000000000128 .L0 
     /tmp/cc4kf2Vx.s:255    .text:0000000000000134 .L0 
     /tmp/cc4kf2Vx.s:257    .text:000000000000013c .L0 
     /tmp/cc4kf2Vx.s:258    .text:000000000000013c .L0 
     /tmp/cc4kf2Vx.s:260    .text:0000000000000148 .L0 
     /tmp/cc4kf2Vx.s:262    .text:000000000000014c .L0 
     /tmp/cc4kf2Vx.s:263    .text:000000000000014c .L0 
     /tmp/cc4kf2Vx.s:265    .text:0000000000000150 .L0 
     /tmp/cc4kf2Vx.s:267    .text:0000000000000154 .L0 
     /tmp/cc4kf2Vx.s:273    .text:0000000000000154 _ZN15MemoryAllocatordlEPv
     /tmp/cc4kf2Vx.s:276    .text:0000000000000154 .L0 
     /tmp/cc4kf2Vx.s:278    .text:0000000000000154 .L0 
     /tmp/cc4kf2Vx.s:279    .text:0000000000000158 .L0 
     /tmp/cc4kf2Vx.s:282    .text:0000000000000160 .L0 
     /tmp/cc4kf2Vx.s:283    .text:0000000000000160 .L0 
     /tmp/cc4kf2Vx.s:285    .text:0000000000000164 .L0 
     /tmp/cc4kf2Vx.s:287    .text:0000000000000164 .L0 
     /tmp/cc4kf2Vx.s:288    .text:0000000000000164 .L0 
     /tmp/cc4kf2Vx.s:291    .text:000000000000016c .L0 
     /tmp/cc4kf2Vx.s:292    .text:0000000000000170 .L0 
     /tmp/cc4kf2Vx.s:294    .text:0000000000000174 .L0 
     /tmp/cc4kf2Vx.s:295    .text:0000000000000174 .L0 
     /tmp/cc4kf2Vx.s:297    .text:0000000000000178 .L0 
     /tmp/cc4kf2Vx.s:299    .text:000000000000017c .L0 
     /tmp/cc4kf2Vx.s:305    .text:000000000000017c _ZN9Scheduler12getSchedulerEv
     /tmp/cc4kf2Vx.s:308    .text:000000000000017c .L0 
     /tmp/cc4kf2Vx.s:309    .text:000000000000017c .L0 
     /tmp/cc4kf2Vx.s:310    .text:000000000000017c .L0 
     /tmp/cc4kf2Vx.s:311    .text:000000000000017c .L0 
     /tmp/cc4kf2Vx.s:313    .text:0000000000000184 .L0 
     /tmp/cc4kf2Vx.s:315    .text:0000000000000188 .L0 
     /tmp/cc4kf2Vx.s:316    .text:0000000000000188 .L0 
     /tmp/cc4kf2Vx.s:320    .text:0000000000000194 .L0 
     /tmp/cc4kf2Vx.s:321    .text:0000000000000198 .L0 
     /tmp/cc4kf2Vx.s:324    .text:00000000000001a0 .L0 
     /tmp/cc4kf2Vx.s:325    .text:00000000000001a0 .L0 
     /tmp/cc4kf2Vx.s:327    .text:00000000000001a4 .L0 
     /tmp/cc4kf2Vx.s:329    .text:00000000000001a4 .L0 
     /tmp/cc4kf2Vx.s:330    .text:00000000000001a4 .L0 
     /tmp/cc4kf2Vx.s:336    .text:00000000000001b8 .L0 
     /tmp/cc4kf2Vx.s:338    .text:00000000000001c0 .L0 
     /tmp/cc4kf2Vx.s:339    .text:00000000000001c0 .L0 
     /tmp/cc4kf2Vx.s:341    .text:00000000000001cc .L0 
     /tmp/cc4kf2Vx.s:343    .text:00000000000001d0 .L0 
     /tmp/cc4kf2Vx.s:344    .text:00000000000001d0 .L0 
     /tmp/cc4kf2Vx.s:346    .text:00000000000001d4 .L0 
     /tmp/cc4kf2Vx.s:348    .text:00000000000001d8 .L0 
     /tmp/cc4kf2Vx.s:354    .text:00000000000001d8 _ZN9SchedulerC2Ev
     /tmp/cc4kf2Vx.s:357    .text:00000000000001d8 .L0 
     /tmp/cc4kf2Vx.s:359    .text:00000000000001d8 .L0 
     /tmp/cc4kf2Vx.s:360    .text:00000000000001dc .L0 
     /tmp/cc4kf2Vx.s:364    .text:00000000000001e8 .L0 
     /tmp/cc4kf2Vx.s:365    .text:00000000000001e8 .L0 
     /tmp/cc4kf2Vx.s:366    .text:00000000000001e8 .L0 
     /tmp/cc4kf2Vx.s:368    .text:00000000000001ec .L0 
     /tmp/cc4kf2Vx.s:372    .text:00000000000001f0 .L0 
GAS LISTING /tmp/cc4kf2Vx.s 			page 29


     /tmp/cc4kf2Vx.s:373    .text:00000000000001f0 .L0 
     /tmp/cc4kf2Vx.s:379    .text:0000000000000204 .L0 
     /tmp/cc4kf2Vx.s:382    .text:0000000000000208 .L0 
     /tmp/cc4kf2Vx.s:383    .text:000000000000020c .L0 
     /tmp/cc4kf2Vx.s:385    .text:0000000000000210 .L0 
     /tmp/cc4kf2Vx.s:386    .text:0000000000000210 .L0 
     /tmp/cc4kf2Vx.s:388    .text:0000000000000214 .L0 
     /tmp/cc4kf2Vx.s:391    .text:0000000000000218 .L0 
     /tmp/cc4kf2Vx.s:393    .text:000000000000021c .L0 
     /tmp/cc4kf2Vx.s:354    .text:00000000000001d8 _ZN9SchedulerC1Ev
     /tmp/cc4kf2Vx.s:401    .text:000000000000021c _ZN9SchedulernwEm
     /tmp/cc4kf2Vx.s:404    .text:000000000000021c .L0 
     /tmp/cc4kf2Vx.s:406    .text:000000000000021c .L0 
     /tmp/cc4kf2Vx.s:407    .text:0000000000000220 .L0 
     /tmp/cc4kf2Vx.s:410    .text:0000000000000228 .L0 
     /tmp/cc4kf2Vx.s:411    .text:0000000000000228 .L0 
     /tmp/cc4kf2Vx.s:413    .text:000000000000022c .L0 
     /tmp/cc4kf2Vx.s:415    .text:000000000000022c .L0 
     /tmp/cc4kf2Vx.s:416    .text:000000000000022c .L0 
     /tmp/cc4kf2Vx.s:421    .text:0000000000000238 .L0 
     /tmp/cc4kf2Vx.s:422    .text:000000000000023c .L0 
     /tmp/cc4kf2Vx.s:424    .text:0000000000000240 .L0 
     /tmp/cc4kf2Vx.s:425    .text:0000000000000240 .L0 
     /tmp/cc4kf2Vx.s:427    .text:0000000000000244 .L0 
     /tmp/cc4kf2Vx.s:429    .text:0000000000000248 .L0 
     /tmp/cc4kf2Vx.s:435    .text:0000000000000248 _ZN9SchedulerdlEPv
     /tmp/cc4kf2Vx.s:438    .text:0000000000000248 .L0 
     /tmp/cc4kf2Vx.s:440    .text:0000000000000248 .L0 
     /tmp/cc4kf2Vx.s:441    .text:000000000000024c .L0 
     /tmp/cc4kf2Vx.s:444    .text:0000000000000254 .L0 
     /tmp/cc4kf2Vx.s:445    .text:0000000000000254 .L0 
     /tmp/cc4kf2Vx.s:447    .text:0000000000000258 .L0 
     /tmp/cc4kf2Vx.s:449    .text:0000000000000258 .L0 
     /tmp/cc4kf2Vx.s:450    .text:0000000000000258 .L0 
     /tmp/cc4kf2Vx.s:453    .text:0000000000000260 .L0 
     /tmp/cc4kf2Vx.s:454    .text:0000000000000264 .L0 
     /tmp/cc4kf2Vx.s:456    .text:0000000000000268 .L0 
     /tmp/cc4kf2Vx.s:457    .text:0000000000000268 .L0 
     /tmp/cc4kf2Vx.s:459    .text:000000000000026c .L0 
     /tmp/cc4kf2Vx.s:461    .text:0000000000000270 .L0 
     /tmp/cc4kf2Vx.s:467    .text:0000000000000270 _ZN6ThreadC2EPFvPvES0_
     /tmp/cc4kf2Vx.s:470    .text:0000000000000270 .L0 
     /tmp/cc4kf2Vx.s:472    .text:0000000000000270 .L0 
     /tmp/cc4kf2Vx.s:473    .text:0000000000000274 .L0 
     /tmp/cc4kf2Vx.s:475    .text:0000000000000278 .L0 
     /tmp/cc4kf2Vx.s:477    .text:000000000000027c .L0 
     /tmp/cc4kf2Vx.s:480    .text:000000000000027c .L0 
     /tmp/cc4kf2Vx.s:481    .text:000000000000027c .L0 
     /tmp/cc4kf2Vx.s:483    .text:0000000000000280 .L0 
     /tmp/cc4kf2Vx.s:484    .text:0000000000000280 .L0 
     /tmp/cc4kf2Vx.s:487    .text:0000000000000284 .L0 
     /tmp/cc4kf2Vx.s:488    .text:0000000000000288 .L0 
     /tmp/cc4kf2Vx.s:489    .text:0000000000000288 .L0 
     /tmp/cc4kf2Vx.s:491    .text:000000000000028c .L0 
     /tmp/cc4kf2Vx.s:493    .text:0000000000000290 .L0 
     /tmp/cc4kf2Vx.s:467    .text:0000000000000270 _ZN6ThreadC1EPFvPvES0_
     /tmp/cc4kf2Vx.s:501    .text:0000000000000290 _ZN6Thread8dispatchEv
GAS LISTING /tmp/cc4kf2Vx.s 			page 30


     /tmp/cc4kf2Vx.s:504    .text:0000000000000290 .L0 
     /tmp/cc4kf2Vx.s:505    .text:0000000000000290 .L0 
     /tmp/cc4kf2Vx.s:506    .text:0000000000000294 .L0 
     /tmp/cc4kf2Vx.s:508    .text:0000000000000298 .L0 
     /tmp/cc4kf2Vx.s:510    .text:000000000000029c .L0 
     /tmp/cc4kf2Vx.s:512    .text:000000000000029c .L0 
     /tmp/cc4kf2Vx.s:513    .text:00000000000002a0 .L0 
     /tmp/cc4kf2Vx.s:514    .text:00000000000002a0 .L0 
     /tmp/cc4kf2Vx.s:516    .text:00000000000002a4 .L0 
     /tmp/cc4kf2Vx.s:518    .text:00000000000002a8 .L0 
     /tmp/cc4kf2Vx.s:524    .text:00000000000002a8 _ZN6Thread5sleepEm
     /tmp/cc4kf2Vx.s:527    .text:00000000000002a8 .L0 
     /tmp/cc4kf2Vx.s:529    .text:00000000000002a8 .L0 
     /tmp/cc4kf2Vx.s:530    .text:00000000000002ac .L0 
     /tmp/cc4kf2Vx.s:532    .text:00000000000002b0 .L0 
     /tmp/cc4kf2Vx.s:534    .text:00000000000002b4 .L0 
     /tmp/cc4kf2Vx.s:536    .text:00000000000002b4 .L0 
     /tmp/cc4kf2Vx.s:537    .text:00000000000002b8 .L0 
     /tmp/cc4kf2Vx.s:538    .text:00000000000002b8 .L0 
     /tmp/cc4kf2Vx.s:540    .text:00000000000002bc .L0 
     /tmp/cc4kf2Vx.s:542    .text:00000000000002c0 .L0 
     /tmp/cc4kf2Vx.s:548    .text:00000000000002c0 _ZN6ThreadC2Ev
     /tmp/cc4kf2Vx.s:551    .text:00000000000002c0 .L0 
     /tmp/cc4kf2Vx.s:553    .text:00000000000002c0 .L0 
     /tmp/cc4kf2Vx.s:554    .text:00000000000002c4 .L0 
     /tmp/cc4kf2Vx.s:556    .text:00000000000002c8 .L0 
     /tmp/cc4kf2Vx.s:558    .text:00000000000002cc .L0 
     /tmp/cc4kf2Vx.s:560    .text:00000000000002cc .L0 
     /tmp/cc4kf2Vx.s:561    .text:00000000000002d0 .L0 
     /tmp/cc4kf2Vx.s:562    .text:00000000000002d0 .L0 
     /tmp/cc4kf2Vx.s:564    .text:00000000000002d4 .L0 
     /tmp/cc4kf2Vx.s:566    .text:00000000000002d8 .L0 
     /tmp/cc4kf2Vx.s:548    .text:00000000000002c0 _ZN6ThreadC1Ev
     /tmp/cc4kf2Vx.s:574    .text:00000000000002d8 _ZN3PCBC2EPFvPvES0_mm
     /tmp/cc4kf2Vx.s:577    .text:00000000000002d8 .L0 
     /tmp/cc4kf2Vx.s:579    .text:00000000000002d8 .L0 
     /tmp/cc4kf2Vx.s:580    .text:00000000000002dc .L0 
     /tmp/cc4kf2Vx.s:587    .text:00000000000002f4 .L0 
     /tmp/cc4kf2Vx.s:588    .text:00000000000002f4 .L0 
     /tmp/cc4kf2Vx.s:589    .text:00000000000002f4 .L0 
     /tmp/cc4kf2Vx.s:590    .text:00000000000002f4 .L0 
     /tmp/cc4kf2Vx.s:591    .text:00000000000002f4 .L0 
     /tmp/cc4kf2Vx.s:592    .text:00000000000002f4 .L0 
     /tmp/cc4kf2Vx.s:594    .text:00000000000002f8 .L0 
     /tmp/cc4kf2Vx.s:600    .text:0000000000000304 .L0 
     /tmp/cc4kf2Vx.s:601    .text:0000000000000304 .L0 
     /tmp/cc4kf2Vx.s:603    .text:0000000000000308 .L0 
     /tmp/cc4kf2Vx.s:604    .text:0000000000000308 .L0 
     /tmp/cc4kf2Vx.s:606    .text:000000000000030c .L0 
     /tmp/cc4kf2Vx.s:607    .text:000000000000030c .L0 
     /tmp/cc4kf2Vx.s:617    .text:000000000000032c .L0 
     /tmp/cc4kf2Vx.s:619    .text:0000000000000330 .L0 
     /tmp/cc4kf2Vx.s:620    .text:0000000000000330 .L0 
     /tmp/cc4kf2Vx.s:623    .text:0000000000000334 .L0 
     /tmp/cc4kf2Vx.s:624    .text:0000000000000338 .L0 
     /tmp/cc4kf2Vx.s:626    .text:000000000000033c .L0 
     /tmp/cc4kf2Vx.s:627    .text:000000000000033c .L0 
GAS LISTING /tmp/cc4kf2Vx.s 			page 31


     /tmp/cc4kf2Vx.s:629    .text:0000000000000340 .L0 
     /tmp/cc4kf2Vx.s:632    .text:0000000000000344 .L0 
     /tmp/cc4kf2Vx.s:634    .text:0000000000000348 .L0 
     /tmp/cc4kf2Vx.s:637    .text:000000000000034c .L0 
     /tmp/cc4kf2Vx.s:640    .text:0000000000000350 .L0 
     /tmp/cc4kf2Vx.s:642    .text:0000000000000354 .L0 
     /tmp/cc4kf2Vx.s:574    .text:00000000000002d8 _ZN3PCBC1EPFvPvES0_mm
     /tmp/cc4kf2Vx.s:650    .text:0000000000000354 _ZN3PCBD2Ev
     /tmp/cc4kf2Vx.s:653    .text:0000000000000354 .L0 
     /tmp/cc4kf2Vx.s:655    .text:0000000000000354 .L0 
     /tmp/cc4kf2Vx.s:656    .text:0000000000000358 .L0 
     /tmp/cc4kf2Vx.s:658    .text:000000000000035c .L0 
     /tmp/cc4kf2Vx.s:660    .text:0000000000000360 .L0 
     /tmp/cc4kf2Vx.s:662    .text:0000000000000360 .L0 
     /tmp/cc4kf2Vx.s:663    .text:0000000000000364 .L0 
     /tmp/cc4kf2Vx.s:664    .text:0000000000000364 .L0 
     /tmp/cc4kf2Vx.s:666    .text:0000000000000368 .L0 
     /tmp/cc4kf2Vx.s:668    .text:000000000000036c .L0 
     /tmp/cc4kf2Vx.s:650    .text:0000000000000354 _ZN3PCBD1Ev
     /tmp/cc4kf2Vx.s:677    .text._ZN5QueueIP6ThreadE4pushES1_:0000000000000000 _ZN5QueueIP6ThreadE4pushES1_
     /tmp/cc4kf2Vx.s:680    .text._ZN5QueueIP6ThreadE4pushES1_:0000000000000000 .L0 
     /tmp/cc4kf2Vx.s:682    .text._ZN5QueueIP6ThreadE4pushES1_:0000000000000000 .L0 
     /tmp/cc4kf2Vx.s:683    .text._ZN5QueueIP6ThreadE4pushES1_:0000000000000004 .L0 
     /tmp/cc4kf2Vx.s:687    .text._ZN5QueueIP6ThreadE4pushES1_:0000000000000010 .L0 
     /tmp/cc4kf2Vx.s:688    .text._ZN5QueueIP6ThreadE4pushES1_:0000000000000010 .L0 
     /tmp/cc4kf2Vx.s:689    .text._ZN5QueueIP6ThreadE4pushES1_:0000000000000010 .L0 
     /tmp/cc4kf2Vx.s:691    .text._ZN5QueueIP6ThreadE4pushES1_:0000000000000014 .L0 
     /tmp/cc4kf2Vx.s:694    .text._ZN5QueueIP6ThreadE4pushES1_:0000000000000018 .L0 
     /tmp/cc4kf2Vx.s:700    .text._ZN5QueueIP6ThreadE4pushES1_:000000000000002c .L0 
     /tmp/cc4kf2Vx.s:702    .text._ZN5QueueIP6ThreadE4pushES1_:0000000000000030 .L0 
     /tmp/cc4kf2Vx.s:705    .text._ZN5QueueIP6ThreadE4pushES1_:0000000000000034 .L0 
     /tmp/cc4kf2Vx.s:706    .text._ZN5QueueIP6ThreadE4pushES1_:0000000000000038 .L0 
     /tmp/cc4kf2Vx.s:707    .text._ZN5QueueIP6ThreadE4pushES1_:0000000000000038 .L0 
     /tmp/cc4kf2Vx.s:709    .text._ZN5QueueIP6ThreadE4pushES1_:000000000000003c .L0 
     /tmp/cc4kf2Vx.s:710    .text._ZN5QueueIP6ThreadE4pushES1_:000000000000003c .L0 
     /tmp/cc4kf2Vx.s:712    .text._ZN5QueueIP6ThreadE4pushES1_:0000000000000040 .L0 
     /tmp/cc4kf2Vx.s:715    .text._ZN5QueueIP6ThreadE4pushES1_:0000000000000044 .L0 
     /tmp/cc4kf2Vx.s:719    .text._ZN5QueueIP6ThreadE4pushES1_:0000000000000048 .L0 
     /tmp/cc4kf2Vx.s:721    .text._ZN5QueueIP6ThreadE4pushES1_:0000000000000048 .L0 
     /tmp/cc4kf2Vx.s:723    .text._ZN5QueueIP6ThreadE4pushES1_:000000000000004c .L0 
     /tmp/cc4kf2Vx.s:725    .text._ZN5QueueIP6ThreadE4pushES1_:0000000000000050 .L0 
     /tmp/cc4kf2Vx.s:727    .text._ZN5QueueIP6ThreadE4pushES1_:0000000000000054 .L0 
     /tmp/cc4kf2Vx.s:728    .text._ZN5QueueIP6ThreadE4pushES1_:0000000000000058 .L0 
     /tmp/cc4kf2Vx.s:735    .text:000000000000036c _ZN9Scheduler3putEP6Thread
     /tmp/cc4kf2Vx.s:738    .text:000000000000036c .L0 
     /tmp/cc4kf2Vx.s:740    .text:000000000000036c .L0 
     /tmp/cc4kf2Vx.s:741    .text:0000000000000370 .L0 
     /tmp/cc4kf2Vx.s:744    .text:0000000000000378 .L0 
     /tmp/cc4kf2Vx.s:745    .text:0000000000000378 .L0 
     /tmp/cc4kf2Vx.s:747    .text:000000000000037c .L0 
     /tmp/cc4kf2Vx.s:749    .text:000000000000037c .L0 
     /tmp/cc4kf2Vx.s:750    .text:000000000000037c .L0 
     /tmp/cc4kf2Vx.s:755    .text:0000000000000388 .L0 
     /tmp/cc4kf2Vx.s:756    .text:000000000000038c .L0 
     /tmp/cc4kf2Vx.s:758    .text:0000000000000390 .L0 
     /tmp/cc4kf2Vx.s:759    .text:0000000000000390 .L0 
     /tmp/cc4kf2Vx.s:761    .text:0000000000000394 .L0 
GAS LISTING /tmp/cc4kf2Vx.s 			page 32


     /tmp/cc4kf2Vx.s:763    .text:0000000000000398 .L0 
     /tmp/cc4kf2Vx.s:769    .text:0000000000000398 _ZN6Thread5startEv
     /tmp/cc4kf2Vx.s:772    .text:0000000000000398 .L0 
     /tmp/cc4kf2Vx.s:774    .text:0000000000000398 .L0 
     /tmp/cc4kf2Vx.s:775    .text:000000000000039c .L0 
     /tmp/cc4kf2Vx.s:779    .text:00000000000003a8 .L0 
     /tmp/cc4kf2Vx.s:780    .text:00000000000003a8 .L0 
     /tmp/cc4kf2Vx.s:781    .text:00000000000003a8 .L0 
     /tmp/cc4kf2Vx.s:783    .text:00000000000003ac .L0 
     /tmp/cc4kf2Vx.s:786    .text:00000000000003b0 .L0 
     /tmp/cc4kf2Vx.s:787    .text:00000000000003b0 .L0 
     /tmp/cc4kf2Vx.s:793    .text:00000000000003c4 .L0 
     /tmp/cc4kf2Vx.s:794    .text:00000000000003c8 .L0 
     /tmp/cc4kf2Vx.s:796    .text:00000000000003cc .L0 
     /tmp/cc4kf2Vx.s:797    .text:00000000000003cc .L0 
     /tmp/cc4kf2Vx.s:799    .text:00000000000003d0 .L0 
     /tmp/cc4kf2Vx.s:802    .text:00000000000003d4 .L0 
     /tmp/cc4kf2Vx.s:804    .text:00000000000003d8 .L0 
     /tmp/cc4kf2Vx.s:811    .text._ZN5QueueIP6ThreadE5frontEv:0000000000000000 _ZN5QueueIP6ThreadE5frontEv
     /tmp/cc4kf2Vx.s:814    .text._ZN5QueueIP6ThreadE5frontEv:0000000000000000 .L0 
     /tmp/cc4kf2Vx.s:816    .text._ZN5QueueIP6ThreadE5frontEv:0000000000000000 .L0 
     /tmp/cc4kf2Vx.s:817    .text._ZN5QueueIP6ThreadE5frontEv:0000000000000004 .L0 
     /tmp/cc4kf2Vx.s:819    .text._ZN5QueueIP6ThreadE5frontEv:0000000000000008 .L0 
     /tmp/cc4kf2Vx.s:821    .text._ZN5QueueIP6ThreadE5frontEv:000000000000000c .L0 
     /tmp/cc4kf2Vx.s:823    .text._ZN5QueueIP6ThreadE5frontEv:000000000000000c .L0 
     /tmp/cc4kf2Vx.s:826    .text._ZN5QueueIP6ThreadE5frontEv:0000000000000010 .L0 
     /tmp/cc4kf2Vx.s:828    .text._ZN5QueueIP6ThreadE5frontEv:0000000000000014 .L0 
     /tmp/cc4kf2Vx.s:831    .text._ZN5QueueIP6ThreadE5frontEv:0000000000000018 .L0 
     /tmp/cc4kf2Vx.s:832    .text._ZN5QueueIP6ThreadE5frontEv:000000000000001c .L0 
     /tmp/cc4kf2Vx.s:833    .text._ZN5QueueIP6ThreadE5frontEv:000000000000001c .L0 
     /tmp/cc4kf2Vx.s:835    .text._ZN5QueueIP6ThreadE5frontEv:0000000000000020 .L0 
     /tmp/cc4kf2Vx.s:837    .text._ZN5QueueIP6ThreadE5frontEv:0000000000000024 .L0 
     /tmp/cc4kf2Vx.s:844    .text._ZN5QueueIP6ThreadE3popEv:0000000000000000 _ZN5QueueIP6ThreadE3popEv
     /tmp/cc4kf2Vx.s:847    .text._ZN5QueueIP6ThreadE3popEv:0000000000000000 .L0 
     /tmp/cc4kf2Vx.s:849    .text._ZN5QueueIP6ThreadE3popEv:0000000000000000 .L0 
     /tmp/cc4kf2Vx.s:850    .text._ZN5QueueIP6ThreadE3popEv:0000000000000004 .L0 
     /tmp/cc4kf2Vx.s:855    .text._ZN5QueueIP6ThreadE3popEv:0000000000000014 .L0 
     /tmp/cc4kf2Vx.s:856    .text._ZN5QueueIP6ThreadE3popEv:0000000000000014 .L0 
     /tmp/cc4kf2Vx.s:857    .text._ZN5QueueIP6ThreadE3popEv:0000000000000014 .L0 
     /tmp/cc4kf2Vx.s:858    .text._ZN5QueueIP6ThreadE3popEv:0000000000000014 .L0 
     /tmp/cc4kf2Vx.s:860    .text._ZN5QueueIP6ThreadE3popEv:0000000000000018 .L0 
     /tmp/cc4kf2Vx.s:863    .text._ZN5QueueIP6ThreadE3popEv:000000000000001c .L0 
     /tmp/cc4kf2Vx.s:865    .text._ZN5QueueIP6ThreadE3popEv:0000000000000020 .L0 
     /tmp/cc4kf2Vx.s:868    .text._ZN5QueueIP6ThreadE3popEv:0000000000000024 .L0 
     /tmp/cc4kf2Vx.s:874    .text._ZN5QueueIP6ThreadE3popEv:0000000000000038 .L0 
     /tmp/cc4kf2Vx.s:876    .text._ZN5QueueIP6ThreadE3popEv:000000000000003c .L0 
     /tmp/cc4kf2Vx.s:879    .text._ZN5QueueIP6ThreadE3popEv:0000000000000040 .L0 
     /tmp/cc4kf2Vx.s:880    .text._ZN5QueueIP6ThreadE3popEv:0000000000000044 .L0 
     /tmp/cc4kf2Vx.s:881    .text._ZN5QueueIP6ThreadE3popEv:0000000000000044 .L0 
     /tmp/cc4kf2Vx.s:883    .text._ZN5QueueIP6ThreadE3popEv:0000000000000048 .L0 
     /tmp/cc4kf2Vx.s:884    .text._ZN5QueueIP6ThreadE3popEv:0000000000000048 .L0 
     /tmp/cc4kf2Vx.s:886    .text._ZN5QueueIP6ThreadE3popEv:000000000000004c .L0 
     /tmp/cc4kf2Vx.s:889    .text._ZN5QueueIP6ThreadE3popEv:0000000000000050 .L0 
     /tmp/cc4kf2Vx.s:892    .text._ZN5QueueIP6ThreadE3popEv:0000000000000054 .L0 
     /tmp/cc4kf2Vx.s:896    .text._ZN5QueueIP6ThreadE3popEv:0000000000000058 .L0 
     /tmp/cc4kf2Vx.s:898    .text._ZN5QueueIP6ThreadE3popEv:0000000000000058 .L0 
     /tmp/cc4kf2Vx.s:901    .text._ZN5QueueIP6ThreadE3popEv:0000000000000060 .L0 
GAS LISTING /tmp/cc4kf2Vx.s 			page 33


     /tmp/cc4kf2Vx.s:902    .text._ZN5QueueIP6ThreadE3popEv:0000000000000064 .L0 
     /tmp/cc4kf2Vx.s:909    .text:00000000000003d8 _ZN9Scheduler3getEv
     /tmp/cc4kf2Vx.s:912    .text:00000000000003d8 .L0 
     /tmp/cc4kf2Vx.s:914    .text:00000000000003d8 .L0 
     /tmp/cc4kf2Vx.s:915    .text:00000000000003dc .L0 
     /tmp/cc4kf2Vx.s:920    .text:00000000000003ec .L0 
     /tmp/cc4kf2Vx.s:921    .text:00000000000003ec .L0 
     /tmp/cc4kf2Vx.s:922    .text:00000000000003ec .L0 
     /tmp/cc4kf2Vx.s:923    .text:00000000000003ec .L0 
     /tmp/cc4kf2Vx.s:925    .text:00000000000003f0 .L0 
     /tmp/cc4kf2Vx.s:927    .text:00000000000003f0 .L0 
     /tmp/cc4kf2Vx.s:928    .text:00000000000003f0 .L0 
     /tmp/cc4kf2Vx.s:930    .text:00000000000003f4 .L0 
     /tmp/cc4kf2Vx.s:937    .text:0000000000000404 .L0 
     /tmp/cc4kf2Vx.s:938    .text:0000000000000404 .L0 
     /tmp/cc4kf2Vx.s:942    .text:0000000000000410 .L0 
     /tmp/cc4kf2Vx.s:943    .text:0000000000000410 .L0 
     /tmp/cc4kf2Vx.s:945    .text:0000000000000418 .L0 
     /tmp/cc4kf2Vx.s:947    .text:000000000000041c .L0 
     /tmp/cc4kf2Vx.s:948    .text:000000000000041c .L0 
     /tmp/cc4kf2Vx.s:950    .text:0000000000000420 .L0 
     /tmp/cc4kf2Vx.s:953    .text:0000000000000424 .L0 
     /tmp/cc4kf2Vx.s:955    .text:0000000000000428 .L0 
     /tmp/cc4kf2Vx.s:957    .text:000000000000042c .L0 
     /tmp/cc4kf2Vx.s:964    .text._ZN5QueueIP6ThreadEdlEPv:0000000000000000 _ZN5QueueIP6ThreadEdlEPv
     /tmp/cc4kf2Vx.s:967    .text._ZN5QueueIP6ThreadEdlEPv:0000000000000000 .L0 
     /tmp/cc4kf2Vx.s:969    .text._ZN5QueueIP6ThreadEdlEPv:0000000000000000 .L0 
     /tmp/cc4kf2Vx.s:970    .text._ZN5QueueIP6ThreadEdlEPv:0000000000000004 .L0 
     /tmp/cc4kf2Vx.s:973    .text._ZN5QueueIP6ThreadEdlEPv:000000000000000c .L0 
     /tmp/cc4kf2Vx.s:974    .text._ZN5QueueIP6ThreadEdlEPv:000000000000000c .L0 
     /tmp/cc4kf2Vx.s:976    .text._ZN5QueueIP6ThreadEdlEPv:0000000000000010 .L0 
     /tmp/cc4kf2Vx.s:978    .text._ZN5QueueIP6ThreadEdlEPv:0000000000000010 .L0 
     /tmp/cc4kf2Vx.s:981    .text._ZN5QueueIP6ThreadEdlEPv:0000000000000018 .L0 
     /tmp/cc4kf2Vx.s:982    .text._ZN5QueueIP6ThreadEdlEPv:000000000000001c .L0 
     /tmp/cc4kf2Vx.s:984    .text._ZN5QueueIP6ThreadEdlEPv:0000000000000020 .L0 
     /tmp/cc4kf2Vx.s:985    .text._ZN5QueueIP6ThreadEdlEPv:0000000000000020 .L0 
     /tmp/cc4kf2Vx.s:987    .text._ZN5QueueIP6ThreadEdlEPv:0000000000000024 .L0 
     /tmp/cc4kf2Vx.s:989    .text._ZN5QueueIP6ThreadEdlEPv:0000000000000028 .L0 
     /tmp/cc4kf2Vx.s:996    .text._ZN5QueueIP6ThreadED2Ev:0000000000000000 _ZN5QueueIP6ThreadED2Ev
     /tmp/cc4kf2Vx.s:999    .text._ZN5QueueIP6ThreadED2Ev:0000000000000000 .L0 
     /tmp/cc4kf2Vx.s:4829   .data.rel.local.DW.ref.__gxx_personality_v0:0000000000000000 DW.ref.__gxx_personality_v0
     /tmp/cc4kf2Vx.s:1003   .text._ZN5QueueIP6ThreadED2Ev:0000000000000000 .L0 
     /tmp/cc4kf2Vx.s:1004   .text._ZN5QueueIP6ThreadED2Ev:0000000000000004 .L0 
     /tmp/cc4kf2Vx.s:1009   .text._ZN5QueueIP6ThreadED2Ev:0000000000000014 .L0 
     /tmp/cc4kf2Vx.s:1010   .text._ZN5QueueIP6ThreadED2Ev:0000000000000014 .L0 
     /tmp/cc4kf2Vx.s:1011   .text._ZN5QueueIP6ThreadED2Ev:0000000000000014 .L0 
     /tmp/cc4kf2Vx.s:1012   .text._ZN5QueueIP6ThreadED2Ev:0000000000000014 .L0 
     /tmp/cc4kf2Vx.s:1014   .text._ZN5QueueIP6ThreadED2Ev:0000000000000018 .L0 
     /tmp/cc4kf2Vx.s:1017   .text._ZN5QueueIP6ThreadED2Ev:0000000000000018 .L0 
     /tmp/cc4kf2Vx.s:1021   .text._ZN5QueueIP6ThreadED2Ev:000000000000001c .L0 
     /tmp/cc4kf2Vx.s:1025   .text._ZN5QueueIP6ThreadED2Ev:0000000000000020 .L0 
     /tmp/cc4kf2Vx.s:1028   .text._ZN5QueueIP6ThreadED2Ev:0000000000000024 .L0 
     /tmp/cc4kf2Vx.s:1034   .text._ZN5QueueIP6ThreadED2Ev:0000000000000038 .L0 
     /tmp/cc4kf2Vx.s:1038   .text._ZN5QueueIP6ThreadED2Ev:000000000000003c .L0 
     /tmp/cc4kf2Vx.s:1043   .text._ZN5QueueIP6ThreadED2Ev:0000000000000040 .L0 
     /tmp/cc4kf2Vx.s:1044   .text._ZN5QueueIP6ThreadED2Ev:0000000000000044 .L0 
     /tmp/cc4kf2Vx.s:1046   .text._ZN5QueueIP6ThreadED2Ev:0000000000000048 .L0 
GAS LISTING /tmp/cc4kf2Vx.s 			page 34


     /tmp/cc4kf2Vx.s:1047   .text._ZN5QueueIP6ThreadED2Ev:0000000000000048 .L0 
     /tmp/cc4kf2Vx.s:1049   .text._ZN5QueueIP6ThreadED2Ev:000000000000004c .L0 
     /tmp/cc4kf2Vx.s:1052   .text._ZN5QueueIP6ThreadED2Ev:0000000000000050 .L0 
     /tmp/cc4kf2Vx.s:1054   .text._ZN5QueueIP6ThreadED2Ev:0000000000000054 .L0 
     /tmp/cc4kf2Vx.s:1056   .text._ZN5QueueIP6ThreadED2Ev:0000000000000058 .L0 
     /tmp/cc4kf2Vx.s:996    .text._ZN5QueueIP6ThreadED2Ev:0000000000000000 _ZN5QueueIP6ThreadED1Ev
     /tmp/cc4kf2Vx.s:1073   .text:000000000000042c _ZN9SchedulerD2Ev
     /tmp/cc4kf2Vx.s:1076   .text:000000000000042c .L0 
     /tmp/cc4kf2Vx.s:1080   .text:000000000000042c .L0 
     /tmp/cc4kf2Vx.s:1081   .text:0000000000000430 .L0 
     /tmp/cc4kf2Vx.s:1085   .text:000000000000043c .L0 
     /tmp/cc4kf2Vx.s:1086   .text:000000000000043c .L0 
     /tmp/cc4kf2Vx.s:1087   .text:000000000000043c .L0 
     /tmp/cc4kf2Vx.s:1089   .text:0000000000000440 .L0 
     /tmp/cc4kf2Vx.s:1092   .text:0000000000000440 .L0 
     /tmp/cc4kf2Vx.s:1093   .text:0000000000000440 .L0 
     /tmp/cc4kf2Vx.s:1095   .text:0000000000000444 .L0 
     /tmp/cc4kf2Vx.s:1097   .text:0000000000000448 .L0 
     /tmp/cc4kf2Vx.s:1107   .text:0000000000000460 .L0 
     /tmp/cc4kf2Vx.s:1108   .text:0000000000000464 .L0 
     /tmp/cc4kf2Vx.s:1110   .text:0000000000000468 .L0 
     /tmp/cc4kf2Vx.s:1111   .text:0000000000000468 .L0 
     /tmp/cc4kf2Vx.s:1113   .text:000000000000046c .L0 
     /tmp/cc4kf2Vx.s:1115   .text:0000000000000470 .L0 
     /tmp/cc4kf2Vx.s:1117   .text:0000000000000474 .L0 
     /tmp/cc4kf2Vx.s:1073   .text:000000000000042c _ZN9SchedulerD1Ev
     /tmp/cc4kf2Vx.s:1140   .bss:0000000000000008 _ZN9Scheduler9schedulerE
     /tmp/cc4kf2Vx.s:1136   .bss:0000000000000000 _ZN15MemoryAllocator15memoryAllocatorE
     /tmp/cc4kf2Vx.s:1133   .bss:0000000000000000 .LANCHOR0
     /tmp/cc4kf2Vx.s:1147   .text:0000000000000474 .L0 
     /tmp/cc4kf2Vx.s:731    .text._ZN5QueueIP6ThreadE4pushES1_:0000000000000058 .L0 
     /tmp/cc4kf2Vx.s:840    .text._ZN5QueueIP6ThreadE5frontEv:0000000000000024 .L0 
     /tmp/cc4kf2Vx.s:905    .text._ZN5QueueIP6ThreadE3popEv:0000000000000064 .L0 
     /tmp/cc4kf2Vx.s:992    .text._ZN5QueueIP6ThreadEdlEPv:0000000000000028 .L0 
     /tmp/cc4kf2Vx.s:1069   .text._ZN5QueueIP6ThreadED2Ev:0000000000000058 .L0 
     /tmp/cc4kf2Vx.s:232    .text:0000000000000100 .L0 
     /tmp/cc4kf2Vx.s:237    .text:000000000000010c .L0 
     /tmp/cc4kf2Vx.s:255    .text:0000000000000134 .L0 
     /tmp/cc4kf2Vx.s:258    .text:000000000000013c .L0 
     /tmp/cc4kf2Vx.s:311    .text:000000000000017c .L0 
     /tmp/cc4kf2Vx.s:316    .text:0000000000000188 .L0 
     /tmp/cc4kf2Vx.s:336    .text:00000000000001b8 .L0 
     /tmp/cc4kf2Vx.s:339    .text:00000000000001c0 .L0 
     /tmp/cc4kf2Vx.s:239    .text:0000000000000118 .L21
     /tmp/cc4kf2Vx.s:318    .text:0000000000000194 .L30
     /tmp/cc4kf2Vx.s:1104   .text:0000000000000460 .L72
     /tmp/cc4kf2Vx.s:718    .text._ZN5QueueIP6ThreadE4pushES1_:0000000000000048 .L52
     /tmp/cc4kf2Vx.s:703    .text._ZN5QueueIP6ThreadE4pushES1_:0000000000000034 .L49
     /tmp/cc4kf2Vx.s:829    .text._ZN5QueueIP6ThreadE5frontEv:0000000000000018 .L57
     /tmp/cc4kf2Vx.s:895    .text._ZN5QueueIP6ThreadE3popEv:0000000000000058 .L63
     /tmp/cc4kf2Vx.s:877    .text._ZN5QueueIP6ThreadE3popEv:0000000000000040 .L60
     /tmp/cc4kf2Vx.s:1040   .text._ZN5QueueIP6ThreadED2Ev:0000000000000040 .L68
     /tmp/cc4kf2Vx.s:1019   .text._ZN5QueueIP6ThreadED2Ev:000000000000001c .L70
     /tmp/cc4kf2Vx.s:2866   .debug_abbrev:0000000000000000 .Ldebug_abbrev0
     /tmp/cc4kf2Vx.s:4633   .debug_str:0000000000000168 .LASF108
     /tmp/cc4kf2Vx.s:4755   .debug_str:000000000000055c .LASF109
     /tmp/cc4kf2Vx.s:4625   .debug_str:0000000000000123 .LASF110
GAS LISTING /tmp/cc4kf2Vx.s 			page 35


     /tmp/cc4kf2Vx.s:4571   .debug_ranges:0000000000000000 .Ldebug_ranges0
     /tmp/cc4kf2Vx.s:4587   .debug_line:0000000000000000 .Ldebug_line0
     /tmp/cc4kf2Vx.s:4701   .debug_str:000000000000040a .LASF0
     /tmp/cc4kf2Vx.s:4721   .debug_str:0000000000000477 .LASF1
     /tmp/cc4kf2Vx.s:4679   .debug_str:0000000000000358 .LASF2
     /tmp/cc4kf2Vx.s:4665   .debug_str:00000000000002f6 .LASF4
     /tmp/cc4kf2Vx.s:4761   .debug_str:00000000000005b1 .LASF3
     /tmp/cc4kf2Vx.s:4601   .debug_str:0000000000000053 .LASF5
     /tmp/cc4kf2Vx.s:4631   .debug_str:0000000000000161 .LASF6
     /tmp/cc4kf2Vx.s:4723   .debug_str:000000000000048a .LASF7
     /tmp/cc4kf2Vx.s:4699   .debug_str:00000000000003f7 .LASF8
     /tmp/cc4kf2Vx.s:4793   .debug_str:0000000000000699 .LASF9
     /tmp/cc4kf2Vx.s:4653   .debug_str:000000000000028d .LASF10
     /tmp/cc4kf2Vx.s:4735   .debug_str:00000000000004d9 .LASF11
     /tmp/cc4kf2Vx.s:4783   .debug_str:000000000000065f .LASF12
     /tmp/cc4kf2Vx.s:4605   .debug_str:0000000000000060 .LASF13
     /tmp/cc4kf2Vx.s:4589   .debug_str:0000000000000000 .LASF14
     /tmp/cc4kf2Vx.s:4615   .debug_str:00000000000000b2 .LASF15
     /tmp/cc4kf2Vx.s:4757   .debug_str:0000000000000570 .LASF16
     /tmp/cc4kf2Vx.s:4627   .debug_str:0000000000000146 .LASF17
     /tmp/cc4kf2Vx.s:4675   .debug_str:0000000000000341 .LASF18
     /tmp/cc4kf2Vx.s:4609   .debug_str:0000000000000077 .LASF37
     /tmp/cc4kf2Vx.s:4777   .debug_str:000000000000062c .LASF20
     /tmp/cc4kf2Vx.s:4803   .debug_str:00000000000006ed .LASF19
     /tmp/cc4kf2Vx.s:4671   .debug_str:0000000000000322 .LASF21
     /tmp/cc4kf2Vx.s:4765   .debug_str:00000000000005cd .LASF35
     /tmp/cc4kf2Vx.s:4733   .debug_str:00000000000004bf .LASF111
     /tmp/cc4kf2Vx.s:4753   .debug_str:0000000000000549 .LASF27
     /tmp/cc4kf2Vx.s:4759   .debug_str:0000000000000586 .LASF29
     /tmp/cc4kf2Vx.s:4613   .debug_str:00000000000000a1 .LASF22
     /tmp/cc4kf2Vx.s:4805   .debug_str:00000000000006fa .LASF24
     /tmp/cc4kf2Vx.s:4763   .debug_str:00000000000005c3 .LASF31
     /tmp/cc4kf2Vx.s:4771   .debug_str:00000000000005fc .LASF59
     /tmp/cc4kf2Vx.s:4741   .debug_str:0000000000000509 .LASF23
     /tmp/cc4kf2Vx.s:4651   .debug_str:000000000000026c .LASF25
     /tmp/cc4kf2Vx.s:4731   .debug_str:00000000000004b5 .LASF26
     /tmp/cc4kf2Vx.s:4623   .debug_str:0000000000000116 .LASF28
     /tmp/cc4kf2Vx.s:4663   .debug_str:00000000000002d8 .LASF30
     /tmp/cc4kf2Vx.s:4697   .debug_str:00000000000003dc .LASF56
     /tmp/cc4kf2Vx.s:4659   .debug_str:00000000000002b4 .LASF112
     /tmp/cc4kf2Vx.s:4751   .debug_str:000000000000053e .LASF32
     /tmp/cc4kf2Vx.s:4799   .debug_str:00000000000006d1 .LASF33
     /tmp/cc4kf2Vx.s:4781   .debug_str:000000000000064d .LASF34
     /tmp/cc4kf2Vx.s:4707   .debug_str:0000000000000439 .LASF36
     /tmp/cc4kf2Vx.s:4775   .debug_str:0000000000000622 .LASF38
     /tmp/cc4kf2Vx.s:4595   .debug_str:0000000000000031 .LASF39
     /tmp/cc4kf2Vx.s:4639   .debug_str:0000000000000214 .LASF47
     /tmp/cc4kf2Vx.s:4789   .debug_str:0000000000000683 .LASF40
     /tmp/cc4kf2Vx.s:4739   .debug_str:00000000000004f2 .LASF41
     /tmp/cc4kf2Vx.s:4719   .debug_str:0000000000000471 .LASF42
     /tmp/cc4kf2Vx.s:4649   .debug_str:0000000000000259 .LASF43
     /tmp/cc4kf2Vx.s:4703   .debug_str:0000000000000417 .LASF113
     /tmp/cc4kf2Vx.s:4645   .debug_str:000000000000022c .LASF114
     /tmp/cc4kf2Vx.s:4713   .debug_str:0000000000000458 .LASF44
     /tmp/cc4kf2Vx.s:4655   .debug_str:000000000000029b .LASF45
     /tmp/cc4kf2Vx.s:4717   .debug_str:0000000000000463 .LASF84
     /tmp/cc4kf2Vx.s:4791   .debug_str:000000000000068a .LASF46
GAS LISTING /tmp/cc4kf2Vx.s 			page 36


     /tmp/cc4kf2Vx.s:4709   .debug_str:000000000000044c .LASF48
     /tmp/cc4kf2Vx.s:4817   .debug_str:0000000000000759 .LASF49
     /tmp/cc4kf2Vx.s:4785   .debug_str:000000000000066e .LASF50
     /tmp/cc4kf2Vx.s:4629   .debug_str:000000000000015c .LASF51
     /tmp/cc4kf2Vx.s:4749   .debug_str:0000000000000539 .LASF52
     /tmp/cc4kf2Vx.s:4819   .debug_str:0000000000000762 .LASF53
     /tmp/cc4kf2Vx.s:4821   .debug_str:0000000000000767 .LASF54
     /tmp/cc4kf2Vx.s:4715   .debug_str:000000000000045e .LASF55
     /tmp/cc4kf2Vx.s:4611   .debug_str:0000000000000087 .LASF57
     /tmp/cc4kf2Vx.s:4787   .debug_str:000000000000067d .LASF58
     /tmp/cc4kf2Vx.s:4689   .debug_str:0000000000000396 .LASF60
     /tmp/cc4kf2Vx.s:4637   .debug_str:000000000000020f .LASF61
     /tmp/cc4kf2Vx.s:4669   .debug_str:0000000000000305 .LASF62
     /tmp/cc4kf2Vx.s:4643   .debug_str:0000000000000226 .LASF63
     /tmp/cc4kf2Vx.s:4743   .debug_str:0000000000000512 .LASF64
     /tmp/cc4kf2Vx.s:4607   .debug_str:0000000000000070 .LASF65
     /tmp/cc4kf2Vx.s:4811   .debug_str:000000000000072a .LASF66
     /tmp/cc4kf2Vx.s:4593   .debug_str:0000000000000019 .LASF67
     /tmp/cc4kf2Vx.s:4769   .debug_str:00000000000005e3 .LASF68
     /tmp/cc4kf2Vx.s:4657   .debug_str:00000000000002ae .LASF115
     /tmp/cc4kf2Vx.s:4779   .debug_str:0000000000000645 .LASF69
     /tmp/cc4kf2Vx.s:4767   .debug_str:00000000000005dd .LASF70
     /tmp/cc4kf2Vx.s:4729   .debug_str:00000000000004ad .LASF71
     /tmp/cc4kf2Vx.s:4667   .debug_str:00000000000002fd .LASF72
     /tmp/cc4kf2Vx.s:4685   .debug_str:0000000000000381 .LASF73
     /tmp/cc4kf2Vx.s:4641   .debug_str:0000000000000221 .LASF74
     /tmp/cc4kf2Vx.s:4745   .debug_str:000000000000052a .LASF75
     /tmp/cc4kf2Vx.s:4603   .debug_str:000000000000005a .LASF76
     /tmp/cc4kf2Vx.s:4801   .debug_str:00000000000006e3 .LASF77
     /tmp/cc4kf2Vx.s:4597   .debug_str:0000000000000043 .LASF78
     /tmp/cc4kf2Vx.s:4599   .debug_str:000000000000004d .LASF79
     /tmp/cc4kf2Vx.s:4693   .debug_str:00000000000003ba .LASF80
     /tmp/cc4kf2Vx.s:4747   .debug_str:0000000000000534 .LASF81
     /tmp/cc4kf2Vx.s:4695   .debug_str:00000000000003d0 .LASF82
     /tmp/cc4kf2Vx.s:4661   .debug_str:00000000000002c8 .LASF83
     /tmp/cc4kf2Vx.s:4725   .debug_str:000000000000049d .LASF85
     /tmp/cc4kf2Vx.s:4619   .debug_str:00000000000000d7 .LASF86
     /tmp/cc4kf2Vx.s:4617   .debug_str:00000000000000be .LASF87
     /tmp/cc4kf2Vx.s:4809   .debug_str:0000000000000725 .LASF88
     /tmp/cc4kf2Vx.s:4737   .debug_str:00000000000004e8 .LASF89
     /tmp/cc4kf2Vx.s:4727   .debug_str:00000000000004a8 .LASF90
     /tmp/cc4kf2Vx.s:4621   .debug_str:00000000000000fe .LASF93
     /tmp/cc4kf2Vx.s:997    .text._ZN5QueueIP6ThreadED2Ev:0000000000000000 .LFB51
     /tmp/cc4kf2Vx.s:1057   .text._ZN5QueueIP6ThreadED2Ev:0000000000000058 .LFE51
     /tmp/cc4kf2Vx.s:4090   .debug_loc:0000000000000000 .LLST27
     /tmp/cc4kf2Vx.s:1029   .text._ZN5QueueIP6ThreadED2Ev:000000000000002c .LVL72
     /tmp/cc4kf2Vx.s:1032   .text._ZN5QueueIP6ThreadED2Ev:0000000000000038 .LVL73
     /tmp/cc4kf2Vx.s:1015   .text._ZN5QueueIP6ThreadED2Ev:0000000000000018 .LBB5
     /tmp/cc4kf2Vx.s:1041   .text._ZN5QueueIP6ThreadED2Ev:0000000000000040 .LBE5
     /tmp/cc4kf2Vx.s:4104   .debug_loc:0000000000000039 .LLST28
     /tmp/cc4kf2Vx.s:1023   .text._ZN5QueueIP6ThreadED2Ev:0000000000000020 .LBB6
     /tmp/cc4kf2Vx.s:1036   .text._ZN5QueueIP6ThreadED2Ev:000000000000003c .LBE6
     /tmp/cc4kf2Vx.s:4119   .debug_loc:0000000000000082 .LLST29
     /tmp/cc4kf2Vx.s:965    .text._ZN5QueueIP6ThreadEdlEPv:0000000000000000 .LFB49
     /tmp/cc4kf2Vx.s:990    .text._ZN5QueueIP6ThreadEdlEPv:0000000000000028 .LFE49
     /tmp/cc4kf2Vx.s:4126   .debug_loc:00000000000000a5 .LLST26
     /tmp/cc4kf2Vx.s:979    .text._ZN5QueueIP6ThreadEdlEPv:0000000000000018 .LVL67
GAS LISTING /tmp/cc4kf2Vx.s 			page 37


     /tmp/cc4kf2Vx.s:845    .text._ZN5QueueIP6ThreadE3popEv:0000000000000000 .LFB48
     /tmp/cc4kf2Vx.s:903    .text._ZN5QueueIP6ThreadE3popEv:0000000000000064 .LFE48
     /tmp/cc4kf2Vx.s:4140   .debug_loc:00000000000000de .LLST22
     /tmp/cc4kf2Vx.s:4591   .debug_str:0000000000000010 .LASF91
     /tmp/cc4kf2Vx.s:4162   .debug_loc:000000000000013d .LLST23
     /tmp/cc4kf2Vx.s:869    .text._ZN5QueueIP6ThreadE3popEv:000000000000002c .LVL55
     /tmp/cc4kf2Vx.s:872    .text._ZN5QueueIP6ThreadE3popEv:0000000000000038 .LVL56
     /tmp/cc4kf2Vx.s:812    .text._ZN5QueueIP6ThreadE5frontEv:0000000000000000 .LFB47
     /tmp/cc4kf2Vx.s:838    .text._ZN5QueueIP6ThreadE5frontEv:0000000000000024 .LFE47
     /tmp/cc4kf2Vx.s:4173   .debug_loc:0000000000000173 .LLST21
     /tmp/cc4kf2Vx.s:678    .text._ZN5QueueIP6ThreadE4pushES1_:0000000000000000 .LFB46
     /tmp/cc4kf2Vx.s:729    .text._ZN5QueueIP6ThreadE4pushES1_:0000000000000058 .LFE46
     /tmp/cc4kf2Vx.s:4187   .debug_loc:00000000000001ac .LLST16
     /tmp/cc4kf2Vx.s:4209   .debug_loc:000000000000020b .LLST17
     /tmp/cc4kf2Vx.s:4691   .debug_str:00000000000003b2 .LASF92
     /tmp/cc4kf2Vx.s:695    .text._ZN5QueueIP6ThreadE4pushES1_:0000000000000020 .LVL40
     /tmp/cc4kf2Vx.s:698    .text._ZN5QueueIP6ThreadE4pushES1_:000000000000002c .LVL41
     /tmp/cc4kf2Vx.s:4687   .debug_str:000000000000038a .LASF94
     /tmp/cc4kf2Vx.s:651    .text:0000000000000354 .LFB44
     /tmp/cc4kf2Vx.s:669    .text:000000000000036c .LFE44
     /tmp/cc4kf2Vx.s:4635   .debug_str:000000000000020a .LASF95
     /tmp/cc4kf2Vx.s:4681   .debug_str:0000000000000366 .LASF96
     /tmp/cc4kf2Vx.s:575    .text:00000000000002d8 .LFB41
     /tmp/cc4kf2Vx.s:643    .text:0000000000000354 .LFE41
     /tmp/cc4kf2Vx.s:4223   .debug_loc:0000000000000244 .LLST11
     /tmp/cc4kf2Vx.s:4241   .debug_loc:0000000000000290 .LLST12
     /tmp/cc4kf2Vx.s:4259   .debug_loc:00000000000002dc .LLST13
     /tmp/cc4kf2Vx.s:4277   .debug_loc:0000000000000328 .LLST14
     /tmp/cc4kf2Vx.s:4291   .debug_loc:0000000000000361 .LLST15
     /tmp/cc4kf2Vx.s:610    .text:0000000000000318 .LVL33
     /tmp/cc4kf2Vx.s:615    .text:000000000000032c .LVL34
     /tmp/cc4kf2Vx.s:4795   .debug_str:00000000000006a9 .LASF97
     /tmp/cc4kf2Vx.s:549    .text:00000000000002c0 .LFB38
     /tmp/cc4kf2Vx.s:567    .text:00000000000002d8 .LFE38
     /tmp/cc4kf2Vx.s:525    .text:00000000000002a8 .LFB36
     /tmp/cc4kf2Vx.s:543    .text:00000000000002c0 .LFE36
     /tmp/cc4kf2Vx.s:4683   .debug_str:000000000000037c .LASF98
     /tmp/cc4kf2Vx.s:502    .text:0000000000000290 .LFB35
     /tmp/cc4kf2Vx.s:519    .text:00000000000002a8 .LFE35
     /tmp/cc4kf2Vx.s:770    .text:0000000000000398 .LFB34
     /tmp/cc4kf2Vx.s:805    .text:00000000000003d8 .LFE34
     /tmp/cc4kf2Vx.s:4305   .debug_loc:000000000000039a .LLST20
     /tmp/cc4kf2Vx.s:788    .text:00000000000003b8 .LVL48
     /tmp/cc4kf2Vx.s:791    .text:00000000000003c4 .LVL49
     /tmp/cc4kf2Vx.s:4647   .debug_str:0000000000000242 .LASF99
     /tmp/cc4kf2Vx.s:468    .text:0000000000000270 .LFB32
     /tmp/cc4kf2Vx.s:494    .text:0000000000000290 .LFE32
     /tmp/cc4kf2Vx.s:436    .text:0000000000000248 .LFB30
     /tmp/cc4kf2Vx.s:462    .text:0000000000000270 .LFE30
     /tmp/cc4kf2Vx.s:4323   .debug_loc:00000000000003e6 .LLST10
     /tmp/cc4kf2Vx.s:451    .text:0000000000000260 .LVL27
     /tmp/cc4kf2Vx.s:402    .text:000000000000021c .LFB29
     /tmp/cc4kf2Vx.s:430    .text:0000000000000248 .LFE29
     /tmp/cc4kf2Vx.s:4773   .debug_str:000000000000061d .LASF100
     /tmp/cc4kf2Vx.s:4337   .debug_loc:000000000000041f .LLST9
     /tmp/cc4kf2Vx.s:419    .text:0000000000000238 .LVL25
     /tmp/cc4kf2Vx.s:4807   .debug_str:0000000000000713 .LASF101
GAS LISTING /tmp/cc4kf2Vx.s 			page 38


     /tmp/cc4kf2Vx.s:355    .text:00000000000001d8 .LFB27
     /tmp/cc4kf2Vx.s:394    .text:000000000000021c .LFE27
     /tmp/cc4kf2Vx.s:4351   .debug_loc:0000000000000458 .LLST8
     /tmp/cc4kf2Vx.s:374    .text:00000000000001f8 .LVL20
     /tmp/cc4kf2Vx.s:377    .text:0000000000000204 .LVL21
     /tmp/cc4kf2Vx.s:4813   .debug_str:0000000000000742 .LASF102
     /tmp/cc4kf2Vx.s:1074   .text:000000000000042c .LFB24
     /tmp/cc4kf2Vx.s:1118   .text:0000000000000474 .LFE24
     /tmp/cc4kf2Vx.s:4369   .debug_loc:00000000000004a4 .LLST30
     /tmp/cc4kf2Vx.s:1100   .text:0000000000000454 .LVL79
     /tmp/cc4kf2Vx.s:1103   .text:0000000000000460 .LVL80
     /tmp/cc4kf2Vx.s:910    .text:00000000000003d8 .LFB22
     /tmp/cc4kf2Vx.s:958    .text:000000000000042c .LFE22
     /tmp/cc4kf2Vx.s:4383   .debug_loc:00000000000004dd .LLST24
     /tmp/cc4kf2Vx.s:4397   .debug_loc:0000000000000516 .LLST25
     /tmp/cc4kf2Vx.s:933    .text:0000000000000400 .LVL62
     /tmp/cc4kf2Vx.s:940    .text:0000000000000410 .LVL64
     /tmp/cc4kf2Vx.s:736    .text:000000000000036c .LFB21
     /tmp/cc4kf2Vx.s:764    .text:0000000000000398 .LFE21
     /tmp/cc4kf2Vx.s:4408   .debug_loc:000000000000054c .LLST18
     /tmp/cc4kf2Vx.s:4711   .debug_str:0000000000000451 .LASF103
     /tmp/cc4kf2Vx.s:4422   .debug_loc:0000000000000585 .LLST19
     /tmp/cc4kf2Vx.s:753    .text:0000000000000388 .LVL46
     /tmp/cc4kf2Vx.s:306    .text:000000000000017c .LFB20
     /tmp/cc4kf2Vx.s:349    .text:00000000000001d8 .LFE20
     /tmp/cc4kf2Vx.s:331    .text:00000000000001ac .LVL17
     /tmp/cc4kf2Vx.s:334    .text:00000000000001b8 .LVL18
     /tmp/cc4kf2Vx.s:274    .text:0000000000000154 .LFB12
     /tmp/cc4kf2Vx.s:300    .text:000000000000017c .LFE12
     /tmp/cc4kf2Vx.s:4436   .debug_loc:00000000000005be .LLST7
     /tmp/cc4kf2Vx.s:289    .text:000000000000016c .LVL16
     /tmp/cc4kf2Vx.s:195    .text:00000000000000d8 .LFB11
     /tmp/cc4kf2Vx.s:221    .text:0000000000000100 .LFE11
     /tmp/cc4kf2Vx.s:4450   .debug_loc:00000000000005f7 .LLST6
     /tmp/cc4kf2Vx.s:210    .text:00000000000000f0 .LVL13
     /tmp/cc4kf2Vx.s:4705   .debug_str:0000000000000420 .LASF104
     /tmp/cc4kf2Vx.s:169    .text:00000000000000c0 .LFB9
     /tmp/cc4kf2Vx.s:187    .text:00000000000000d8 .LFE9
     /tmp/cc4kf2Vx.s:227    .text:0000000000000100 .LFB7
     /tmp/cc4kf2Vx.s:268    .text:0000000000000154 .LFE7
     /tmp/cc4kf2Vx.s:253    .text:0000000000000134 .LVL14
     /tmp/cc4kf2Vx.s:135    .text:0000000000000094 .LFB6
     /tmp/cc4kf2Vx.s:163    .text:00000000000000c0 .LFE6
     /tmp/cc4kf2Vx.s:4464   .debug_loc:0000000000000630 .LLST4
     /tmp/cc4kf2Vx.s:4815   .debug_str:0000000000000754 .LASF105
     /tmp/cc4kf2Vx.s:4478   .debug_loc:0000000000000669 .LLST5
     /tmp/cc4kf2Vx.s:152    .text:00000000000000b0 .LVL10
     /tmp/cc4kf2Vx.s:101    .text:0000000000000068 .LFB5
     /tmp/cc4kf2Vx.s:129    .text:0000000000000094 .LFE5
     /tmp/cc4kf2Vx.s:4492   .debug_loc:00000000000006a2 .LLST2
     /tmp/cc4kf2Vx.s:4506   .debug_loc:00000000000006db .LLST3
     /tmp/cc4kf2Vx.s:118    .text:0000000000000084 .LVL7
     /tmp/cc4kf2Vx.s:4797   .debug_str:00000000000006b8 .LASF106
     /tmp/cc4kf2Vx.s:75     .text:0000000000000050 .LFB3
     /tmp/cc4kf2Vx.s:93     .text:0000000000000068 .LFE3
     /tmp/cc4kf2Vx.s:4677   .debug_str:0000000000000351 .LASF107
     /tmp/cc4kf2Vx.s:43     .text:0000000000000028 .LFB1
GAS LISTING /tmp/cc4kf2Vx.s 			page 39


     /tmp/cc4kf2Vx.s:69     .text:0000000000000050 .LFE1
     /tmp/cc4kf2Vx.s:4520   .debug_loc:0000000000000714 .LLST1
     /tmp/cc4kf2Vx.s:58     .text:0000000000000040 .LVL3
     /tmp/cc4kf2Vx.s:4673   .debug_str:000000000000033b .LASF116
     /tmp/cc4kf2Vx.s:10     .text:0000000000000000 .LFB0
     /tmp/cc4kf2Vx.s:37     .text:0000000000000028 .LFE0
     /tmp/cc4kf2Vx.s:4534   .debug_loc:000000000000074d .LLST0
     /tmp/cc4kf2Vx.s:26     .text:0000000000000018 .LVL1
     /tmp/cc4kf2Vx.s:1002   .text._ZN5QueueIP6ThreadED2Ev:0000000000000000 .LVL68
     /tmp/cc4kf2Vx.s:1018   .text._ZN5QueueIP6ThreadED2Ev:000000000000001c .LVL69
     /tmp/cc4kf2Vx.s:1026   .text._ZN5QueueIP6ThreadED2Ev:0000000000000024 .LVL71
     /tmp/cc4kf2Vx.s:1039   .text._ZN5QueueIP6ThreadED2Ev:0000000000000040 .LVL75
     /tmp/cc4kf2Vx.s:1050   .text._ZN5QueueIP6ThreadED2Ev:000000000000004c .LVL76
     /tmp/cc4kf2Vx.s:1022   .text._ZN5QueueIP6ThreadED2Ev:0000000000000020 .LVL70
     /tmp/cc4kf2Vx.s:1035   .text._ZN5QueueIP6ThreadED2Ev:000000000000003c .LVL74
     /tmp/cc4kf2Vx.s:968    .text._ZN5QueueIP6ThreadEdlEPv:0000000000000000 .LVL66
     /tmp/cc4kf2Vx.s:848    .text._ZN5QueueIP6ThreadE3popEv:0000000000000000 .LVL53
     /tmp/cc4kf2Vx.s:887    .text._ZN5QueueIP6ThreadE3popEv:000000000000004c .LVL57
     /tmp/cc4kf2Vx.s:894    .text._ZN5QueueIP6ThreadE3popEv:0000000000000058 .LVL59
     /tmp/cc4kf2Vx.s:866    .text._ZN5QueueIP6ThreadE3popEv:0000000000000024 .LVL54
     /tmp/cc4kf2Vx.s:890    .text._ZN5QueueIP6ThreadE3popEv:0000000000000050 .LVL58
     /tmp/cc4kf2Vx.s:815    .text._ZN5QueueIP6ThreadE5frontEv:0000000000000000 .LVL51
     /tmp/cc4kf2Vx.s:824    .text._ZN5QueueIP6ThreadE5frontEv:0000000000000010 .LVL52
     /tmp/cc4kf2Vx.s:681    .text._ZN5QueueIP6ThreadE4pushES1_:0000000000000000 .LVL39
     /tmp/cc4kf2Vx.s:713    .text._ZN5QueueIP6ThreadE4pushES1_:0000000000000040 .LVL42
     /tmp/cc4kf2Vx.s:717    .text._ZN5QueueIP6ThreadE4pushES1_:0000000000000048 .LVL43
     /tmp/cc4kf2Vx.s:578    .text:00000000000002d8 .LVL31
     /tmp/cc4kf2Vx.s:608    .text:0000000000000310 .LVL32
     /tmp/cc4kf2Vx.s:630    .text:0000000000000340 .LVL35
     /tmp/cc4kf2Vx.s:635    .text:0000000000000348 .LVL36
     /tmp/cc4kf2Vx.s:638    .text:000000000000034c .LVL37
     /tmp/cc4kf2Vx.s:773    .text:0000000000000398 .LVL47
     /tmp/cc4kf2Vx.s:800    .text:00000000000003d0 .LVL50
     /tmp/cc4kf2Vx.s:439    .text:0000000000000248 .LVL26
     /tmp/cc4kf2Vx.s:405    .text:000000000000021c .LVL23
     /tmp/cc4kf2Vx.s:417    .text:0000000000000230 .LVL24
     /tmp/cc4kf2Vx.s:358    .text:00000000000001d8 .LVL19
     /tmp/cc4kf2Vx.s:389    .text:0000000000000214 .LVL22
     /tmp/cc4kf2Vx.s:1079   .text:000000000000042c .LVL77
     /tmp/cc4kf2Vx.s:1098   .text:000000000000044c .LVL78
     /tmp/cc4kf2Vx.s:913    .text:00000000000003d8 .LVL60
     /tmp/cc4kf2Vx.s:931    .text:00000000000003f8 .LVL61
     /tmp/cc4kf2Vx.s:935    .text:0000000000000404 .LVL63
     /tmp/cc4kf2Vx.s:951    .text:0000000000000420 .LVL65
     /tmp/cc4kf2Vx.s:739    .text:000000000000036c .LVL44
     /tmp/cc4kf2Vx.s:751    .text:0000000000000380 .LVL45
     /tmp/cc4kf2Vx.s:277    .text:0000000000000154 .LVL15
     /tmp/cc4kf2Vx.s:198    .text:00000000000000d8 .LVL12
     /tmp/cc4kf2Vx.s:138    .text:0000000000000094 .LVL8
     /tmp/cc4kf2Vx.s:150    .text:00000000000000a8 .LVL9
     /tmp/cc4kf2Vx.s:104    .text:0000000000000068 .LVL5
     /tmp/cc4kf2Vx.s:116    .text:000000000000007c .LVL6
     /tmp/cc4kf2Vx.s:46     .text:0000000000000028 .LVL2
     /tmp/cc4kf2Vx.s:14     .text:0000000000000000 .LVL0
     /tmp/cc4kf2Vx.s:1148   .debug_info:0000000000000000 .Ldebug_info0
     /tmp/cc4kf2Vx.s:5      .text:0000000000000000 .Ltext0
     /tmp/cc4kf2Vx.s:1143   .text:0000000000000474 .Letext0
GAS LISTING /tmp/cc4kf2Vx.s 			page 40


     /tmp/cc4kf2Vx.s:1060   .gcc_except_table._ZN5QueueIP6ThreadED2Ev:0000000000000000 .LLSDA51
     /tmp/cc4kf2Vx.s:1120   .gcc_except_table:0000000000000000 .LLSDA24
                           .group:0000000000000000 _ZN5QueueIP6ThreadED5Ev

UNDEFINED SYMBOLS
mem_alloc
mem_free
__gxx_personality_v0
