GAS LISTING /tmp/ccmEqAUU.s 			page 1


   1              		.file	"syscall_cpp.cpp"
   2              		.option pic
   3              		.option norelax
   4              		.text
   5              	.Ltext0:
   6              		.align	2
   7              		.globl	_Znwm
   9              	_Znwm:
  10              	.LFB5:
  11              		.file 1 "src/syscall_cpp.cpp"
   1:src/syscall_cpp.cpp **** //
   2:src/syscall_cpp.cpp **** // Created by os on 4/8/22.
   3:src/syscall_cpp.cpp **** //
   4:src/syscall_cpp.cpp **** 
   5:src/syscall_cpp.cpp **** #include "../h/syscall_cpp.h"
   6:src/syscall_cpp.cpp **** 
   7:src/syscall_cpp.cpp **** //general
   8:src/syscall_cpp.cpp **** void * operator new(size_t size)
   9:src/syscall_cpp.cpp **** {
  12              		.loc 1 9 1
  13              		.cfi_startproc
  14              	.LVL0:
  15 0000 130101FF 		addi	sp,sp,-16
  16              		.cfi_def_cfa_offset 16
  17 0004 23341100 		sd	ra,8(sp)
  18 0008 23308100 		sd	s0,0(sp)
  19              		.cfi_offset 1, -8
  20              		.cfi_offset 8, -16
  21 000c 13040101 		addi	s0,sp,16
  22              		.cfi_def_cfa 8, 0
  10:src/syscall_cpp.cpp ****     return mem_alloc(size);
  23              		.loc 1 10 5
  24              		.loc 1 10 21 is_stmt 0
  25 0010 97000000 		call	mem_alloc@plt
  25      E7800000 
  26              	.LVL1:
  11:src/syscall_cpp.cpp **** }
  27              		.loc 1 11 1
  28 0018 83308100 		ld	ra,8(sp)
  29              		.cfi_restore 1
  30 001c 03340100 		ld	s0,0(sp)
  31              		.cfi_restore 8
  32              		.cfi_def_cfa 2, 16
  33 0020 13010101 		addi	sp,sp,16
  34              		.cfi_def_cfa_offset 0
  35 0024 67800000 		jr	ra
  36              		.cfi_endproc
  37              	.LFE5:
  39              		.align	2
  40              		.globl	_ZdlPv
  42              	_ZdlPv:
  43              	.LFB6:
  12:src/syscall_cpp.cpp **** 
  13:src/syscall_cpp.cpp **** void operator delete(void * p)
  14:src/syscall_cpp.cpp **** {
  44              		.loc 1 14 1 is_stmt 1
  45              		.cfi_startproc
GAS LISTING /tmp/ccmEqAUU.s 			page 2


  46              	.LVL2:
  47 0028 130101FF 		addi	sp,sp,-16
  48              		.cfi_def_cfa_offset 16
  49 002c 23341100 		sd	ra,8(sp)
  50 0030 23308100 		sd	s0,0(sp)
  51              		.cfi_offset 1, -8
  52              		.cfi_offset 8, -16
  53 0034 13040101 		addi	s0,sp,16
  54              		.cfi_def_cfa 8, 0
  15:src/syscall_cpp.cpp ****    mem_free(p);
  55              		.loc 1 15 4
  56              		.loc 1 15 12 is_stmt 0
  57 0038 97000000 		call	mem_free@plt
  57      E7800000 
  58              	.LVL3:
  16:src/syscall_cpp.cpp **** }
  59              		.loc 1 16 1
  60 0040 83308100 		ld	ra,8(sp)
  61              		.cfi_restore 1
  62 0044 03340100 		ld	s0,0(sp)
  63              		.cfi_restore 8
  64              		.cfi_def_cfa 2, 16
  65 0048 13010101 		addi	sp,sp,16
  66              		.cfi_def_cfa_offset 0
  67 004c 67800000 		jr	ra
  68              		.cfi_endproc
  69              	.LFE6:
  71              		.align	2
  72              		.globl	_ZN6Thread5startEv
  74              	_ZN6Thread5startEv:
  75              	.LFB7:
  17:src/syscall_cpp.cpp **** 
  18:src/syscall_cpp.cpp **** //Thread
  19:src/syscall_cpp.cpp **** 
  20:src/syscall_cpp.cpp **** void Thread::start() {
  76              		.loc 1 20 22 is_stmt 1
  77              		.cfi_startproc
  78              	.LVL4:
  79 0050 130101FF 		addi	sp,sp,-16
  80              		.cfi_def_cfa_offset 16
  81 0054 23341100 		sd	ra,8(sp)
  82 0058 23308100 		sd	s0,0(sp)
  83              		.cfi_offset 1, -8
  84              		.cfi_offset 8, -16
  85 005c 13040101 		addi	s0,sp,16
  86              		.cfi_def_cfa 8, 0
  21:src/syscall_cpp.cpp ****     myHandle->start();
  87              		.loc 1 21 5
  88              		.loc 1 21 20 is_stmt 0
  89 0060 03350500 		ld	a0,0(a0)
  90              	.LVL5:
  91 0064 97000000 		call	_ZN3PCB5startEv@plt
  91      E7800000 
  92              	.LVL6:
  22:src/syscall_cpp.cpp **** }
  93              		.loc 1 22 1
  94 006c 83308100 		ld	ra,8(sp)
GAS LISTING /tmp/ccmEqAUU.s 			page 3


  95              		.cfi_restore 1
  96 0070 03340100 		ld	s0,0(sp)
  97              		.cfi_restore 8
  98              		.cfi_def_cfa 2, 16
  99 0074 13010101 		addi	sp,sp,16
 100              		.cfi_def_cfa_offset 0
 101 0078 67800000 		jr	ra
 102              		.cfi_endproc
 103              	.LFE7:
 105              		.align	2
 106              		.globl	_ZN6Thread8dispatchEv
 108              	_ZN6Thread8dispatchEv:
 109              	.LFB8:
  23:src/syscall_cpp.cpp **** 
  24:src/syscall_cpp.cpp **** void Thread::dispatch() {
 110              		.loc 1 24 25 is_stmt 1
 111              		.cfi_startproc
 112 007c 130101FF 		addi	sp,sp,-16
 113              		.cfi_def_cfa_offset 16
 114 0080 23348100 		sd	s0,8(sp)
 115              		.cfi_offset 8, -8
 116 0084 13040101 		addi	s0,sp,16
 117              		.cfi_def_cfa 8, 0
  25:src/syscall_cpp.cpp ****     //PCB::dispatch();
  26:src/syscall_cpp.cpp **** }
 118              		.loc 1 26 1 is_stmt 0
 119 0088 03348100 		ld	s0,8(sp)
 120              		.cfi_restore 8
 121              		.cfi_def_cfa 2, 16
 122 008c 13010101 		addi	sp,sp,16
 123              		.cfi_def_cfa_offset 0
 124 0090 67800000 		jr	ra
 125              		.cfi_endproc
 126              	.LFE8:
 128              		.align	2
 129              		.globl	_ZN6Thread5sleepEm
 131              	_ZN6Thread5sleepEm:
 132              	.LFB9:
  27:src/syscall_cpp.cpp **** 
  28:src/syscall_cpp.cpp **** void Thread::sleep(time_t time) {
 133              		.loc 1 28 33 is_stmt 1
 134              		.cfi_startproc
 135              	.LVL7:
 136 0094 130101FF 		addi	sp,sp,-16
 137              		.cfi_def_cfa_offset 16
 138 0098 23341100 		sd	ra,8(sp)
 139 009c 23308100 		sd	s0,0(sp)
 140              		.cfi_offset 1, -8
 141              		.cfi_offset 8, -16
 142 00a0 13040101 		addi	s0,sp,16
 143              		.cfi_def_cfa 8, 0
  29:src/syscall_cpp.cpp ****     PCB::sleep(time);
 144              		.loc 1 29 5
 145              		.loc 1 29 15 is_stmt 0
 146 00a4 97000000 		call	_ZN3PCB5sleepEm@plt
 146      E7800000 
 147              	.LVL8:
GAS LISTING /tmp/ccmEqAUU.s 			page 4


  30:src/syscall_cpp.cpp **** }
 148              		.loc 1 30 1
 149 00ac 83308100 		ld	ra,8(sp)
 150              		.cfi_restore 1
 151 00b0 03340100 		ld	s0,0(sp)
 152              		.cfi_restore 8
 153              		.cfi_def_cfa 2, 16
 154 00b4 13010101 		addi	sp,sp,16
 155              		.cfi_def_cfa_offset 0
 156 00b8 67800000 		jr	ra
 157              		.cfi_endproc
 158              	.LFE9:
 160              	.Letext0:
 161              		.file 2 "src/../h/../lib/hw.h"
 162              		.file 3 "src/../h/PCB.h"
 163              		.file 4 "src/../h/syscall_cpp.h"
 164              		.file 5 "src/../h/syscall_c.h"
GAS LISTING /tmp/ccmEqAUU.s 			page 5


DEFINED SYMBOLS
                            *ABS*:0000000000000000 syscall_cpp.cpp
     /tmp/ccmEqAUU.s:9      .text:0000000000000000 _Znwm
     /tmp/ccmEqAUU.s:13     .text:0000000000000000 .L0 
     /tmp/ccmEqAUU.s:15     .text:0000000000000000 .L0 
     /tmp/ccmEqAUU.s:16     .text:0000000000000004 .L0 
     /tmp/ccmEqAUU.s:19     .text:000000000000000c .L0 
     /tmp/ccmEqAUU.s:20     .text:000000000000000c .L0 
     /tmp/ccmEqAUU.s:22     .text:0000000000000010 .L0 
     /tmp/ccmEqAUU.s:24     .text:0000000000000010 .L0 
     /tmp/ccmEqAUU.s:25     .text:0000000000000010 .L0 
     /tmp/ccmEqAUU.s:28     .text:0000000000000018 .L0 
     /tmp/ccmEqAUU.s:29     .text:000000000000001c .L0 
     /tmp/ccmEqAUU.s:31     .text:0000000000000020 .L0 
     /tmp/ccmEqAUU.s:32     .text:0000000000000020 .L0 
     /tmp/ccmEqAUU.s:34     .text:0000000000000024 .L0 
     /tmp/ccmEqAUU.s:36     .text:0000000000000028 .L0 
     /tmp/ccmEqAUU.s:42     .text:0000000000000028 _ZdlPv
     /tmp/ccmEqAUU.s:45     .text:0000000000000028 .L0 
     /tmp/ccmEqAUU.s:47     .text:0000000000000028 .L0 
     /tmp/ccmEqAUU.s:48     .text:000000000000002c .L0 
     /tmp/ccmEqAUU.s:51     .text:0000000000000034 .L0 
     /tmp/ccmEqAUU.s:52     .text:0000000000000034 .L0 
     /tmp/ccmEqAUU.s:54     .text:0000000000000038 .L0 
     /tmp/ccmEqAUU.s:56     .text:0000000000000038 .L0 
     /tmp/ccmEqAUU.s:57     .text:0000000000000038 .L0 
     /tmp/ccmEqAUU.s:60     .text:0000000000000040 .L0 
     /tmp/ccmEqAUU.s:61     .text:0000000000000044 .L0 
     /tmp/ccmEqAUU.s:63     .text:0000000000000048 .L0 
     /tmp/ccmEqAUU.s:64     .text:0000000000000048 .L0 
     /tmp/ccmEqAUU.s:66     .text:000000000000004c .L0 
     /tmp/ccmEqAUU.s:68     .text:0000000000000050 .L0 
     /tmp/ccmEqAUU.s:74     .text:0000000000000050 _ZN6Thread5startEv
     /tmp/ccmEqAUU.s:77     .text:0000000000000050 .L0 
     /tmp/ccmEqAUU.s:79     .text:0000000000000050 .L0 
     /tmp/ccmEqAUU.s:80     .text:0000000000000054 .L0 
     /tmp/ccmEqAUU.s:83     .text:000000000000005c .L0 
     /tmp/ccmEqAUU.s:84     .text:000000000000005c .L0 
     /tmp/ccmEqAUU.s:86     .text:0000000000000060 .L0 
     /tmp/ccmEqAUU.s:88     .text:0000000000000060 .L0 
     /tmp/ccmEqAUU.s:89     .text:0000000000000060 .L0 
     /tmp/ccmEqAUU.s:94     .text:000000000000006c .L0 
     /tmp/ccmEqAUU.s:95     .text:0000000000000070 .L0 
     /tmp/ccmEqAUU.s:97     .text:0000000000000074 .L0 
     /tmp/ccmEqAUU.s:98     .text:0000000000000074 .L0 
     /tmp/ccmEqAUU.s:100    .text:0000000000000078 .L0 
     /tmp/ccmEqAUU.s:102    .text:000000000000007c .L0 
     /tmp/ccmEqAUU.s:108    .text:000000000000007c _ZN6Thread8dispatchEv
     /tmp/ccmEqAUU.s:111    .text:000000000000007c .L0 
     /tmp/ccmEqAUU.s:112    .text:000000000000007c .L0 
     /tmp/ccmEqAUU.s:113    .text:0000000000000080 .L0 
     /tmp/ccmEqAUU.s:115    .text:0000000000000084 .L0 
     /tmp/ccmEqAUU.s:117    .text:0000000000000088 .L0 
     /tmp/ccmEqAUU.s:119    .text:0000000000000088 .L0 
     /tmp/ccmEqAUU.s:120    .text:000000000000008c .L0 
     /tmp/ccmEqAUU.s:121    .text:000000000000008c .L0 
     /tmp/ccmEqAUU.s:123    .text:0000000000000090 .L0 
GAS LISTING /tmp/ccmEqAUU.s 			page 6


     /tmp/ccmEqAUU.s:125    .text:0000000000000094 .L0 
     /tmp/ccmEqAUU.s:131    .text:0000000000000094 _ZN6Thread5sleepEm
     /tmp/ccmEqAUU.s:134    .text:0000000000000094 .L0 
     /tmp/ccmEqAUU.s:136    .text:0000000000000094 .L0 
     /tmp/ccmEqAUU.s:137    .text:0000000000000098 .L0 
     /tmp/ccmEqAUU.s:140    .text:00000000000000a0 .L0 
     /tmp/ccmEqAUU.s:141    .text:00000000000000a0 .L0 
     /tmp/ccmEqAUU.s:143    .text:00000000000000a4 .L0 
     /tmp/ccmEqAUU.s:145    .text:00000000000000a4 .L0 
     /tmp/ccmEqAUU.s:146    .text:00000000000000a4 .L0 
     /tmp/ccmEqAUU.s:149    .text:00000000000000ac .L0 
     /tmp/ccmEqAUU.s:150    .text:00000000000000b0 .L0 
     /tmp/ccmEqAUU.s:152    .text:00000000000000b4 .L0 
     /tmp/ccmEqAUU.s:153    .text:00000000000000b4 .L0 
     /tmp/ccmEqAUU.s:155    .text:00000000000000b8 .L0 
     /tmp/ccmEqAUU.s:157    .text:00000000000000bc .L0 
     /tmp/ccmEqAUU.s:165    .text:00000000000000bc .L0 
     /tmp/ccmEqAUU.s:700    .debug_abbrev:0000000000000000 .Ldebug_abbrev0
     /tmp/ccmEqAUU.s:1438   .debug_str:00000000000000c0 .LASF47
     /tmp/ccmEqAUU.s:1504   .debug_str:00000000000002ec .LASF48
     /tmp/ccmEqAUU.s:1432   .debug_str:0000000000000080 .LASF49
     /tmp/ccmEqAUU.s:5      .text:0000000000000000 .Ltext0
     /tmp/ccmEqAUU.s:160    .text:00000000000000bc .Letext0
     /tmp/ccmEqAUU.s:1414   .debug_line:0000000000000000 .Ldebug_line0
     /tmp/ccmEqAUU.s:1482   .debug_str:000000000000026b .LASF0
     /tmp/ccmEqAUU.s:1492   .debug_str:0000000000000292 .LASF1
     /tmp/ccmEqAUU.s:1478   .debug_str:000000000000024a .LASF2
     /tmp/ccmEqAUU.s:1462   .debug_str:0000000000000202 .LASF4
     /tmp/ccmEqAUU.s:1510   .debug_str:000000000000031c .LASF3
     /tmp/ccmEqAUU.s:1420   .debug_str:0000000000000018 .LASF5
     /tmp/ccmEqAUU.s:1436   .debug_str:00000000000000b9 .LASF6
     /tmp/ccmEqAUU.s:1494   .debug_str:00000000000002a5 .LASF7
     /tmp/ccmEqAUU.s:1480   .debug_str:0000000000000258 .LASF8
     /tmp/ccmEqAUU.s:1522   .debug_str:0000000000000368 .LASF9
     /tmp/ccmEqAUU.s:1454   .debug_str:00000000000001be .LASF10
     /tmp/ccmEqAUU.s:1496   .debug_str:00000000000002b8 .LASF11
     /tmp/ccmEqAUU.s:1518   .debug_str:0000000000000352 .LASF12
     /tmp/ccmEqAUU.s:1424   .debug_str:0000000000000025 .LASF13
     /tmp/ccmEqAUU.s:1416   .debug_str:0000000000000000 .LASF14
     /tmp/ccmEqAUU.s:1428   .debug_str:000000000000005d .LASF15
     /tmp/ccmEqAUU.s:1508   .debug_str:0000000000000306 .LASF16
     /tmp/ccmEqAUU.s:1434   .debug_str:00000000000000a3 .LASF17
     /tmp/ccmEqAUU.s:1418   .debug_str:0000000000000010 .LASF26
     /tmp/ccmEqAUU.s:1422   .debug_str:000000000000001f .LASF18
     /tmp/ccmEqAUU.s:1466   .debug_str:0000000000000212 .LASF19
     /tmp/ccmEqAUU.s:1486   .debug_str:0000000000000281 .LASF20
     /tmp/ccmEqAUU.s:1430   .debug_str:0000000000000069 .LASF50
     /tmp/ccmEqAUU.s:1490   .debug_str:000000000000028c .LASF21
     /tmp/ccmEqAUU.s:1460   .debug_str:00000000000001f2 .LASF32
     /tmp/ccmEqAUU.s:1484   .debug_str:0000000000000278 .LASF35
     /tmp/ccmEqAUU.s:1458   .debug_str:00000000000001df .LASF36
     /tmp/ccmEqAUU.s:1488   .debug_str:0000000000000286 .LASF38
     /tmp/ccmEqAUU.s:1472   .debug_str:000000000000022d .LASF39
     /tmp/ccmEqAUU.s:1444   .debug_str:0000000000000179 .LASF51
     /tmp/ccmEqAUU.s:1470   .debug_str:000000000000021f .LASF52
     /tmp/ccmEqAUU.s:1526   .debug_str:000000000000037d .LASF22
     /tmp/ccmEqAUU.s:1426   .debug_str:0000000000000035 .LASF24
GAS LISTING /tmp/ccmEqAUU.s 			page 7


     /tmp/ccmEqAUU.s:1506   .debug_str:0000000000000300 .LASF23
     /tmp/ccmEqAUU.s:1514   .debug_str:0000000000000338 .LASF25
     /tmp/ccmEqAUU.s:1442   .debug_str:0000000000000172 .LASF53
     /tmp/ccmEqAUU.s:1532   .debug_str:00000000000003a2 .LASF54
     /tmp/ccmEqAUU.s:1468   .debug_str:0000000000000217 .LASF27
     /tmp/ccmEqAUU.s:1528   .debug_str:000000000000038b .LASF28
     /tmp/ccmEqAUU.s:1464   .debug_str:0000000000000209 .LASF29
     /tmp/ccmEqAUU.s:1446   .debug_str:0000000000000181 .LASF30
     /tmp/ccmEqAUU.s:1520   .debug_str:0000000000000361 .LASF31
     /tmp/ccmEqAUU.s:1498   .debug_str:00000000000002c7 .LASF33
     /tmp/ccmEqAUU.s:1450   .debug_str:000000000000019c .LASF34
     /tmp/ccmEqAUU.s:1448   .debug_str:0000000000000186 .LASF37
     /tmp/ccmEqAUU.s:1456   .debug_str:00000000000001cc .LASF40
     /tmp/ccmEqAUU.s:1452   .debug_str:00000000000001af .LASF41
     /tmp/ccmEqAUU.s:1534   .debug_str:00000000000003b3 .LASF42
     /tmp/ccmEqAUU.s:132    .text:0000000000000094 .LFB9
     /tmp/ccmEqAUU.s:158    .text:00000000000000bc .LFE9
     /tmp/ccmEqAUU.s:1524   .debug_str:0000000000000378 .LASF43
     /tmp/ccmEqAUU.s:1345   .debug_loc:0000000000000000 .LLST3
     /tmp/ccmEqAUU.s:147    .text:00000000000000ac .LVL8
     /tmp/ccmEqAUU.s:109    .text:000000000000007c .LFB8
     /tmp/ccmEqAUU.s:126    .text:0000000000000094 .LFE8
     /tmp/ccmEqAUU.s:75     .text:0000000000000050 .LFB7
     /tmp/ccmEqAUU.s:103    .text:000000000000007c .LFE7
     /tmp/ccmEqAUU.s:1502   .debug_str:00000000000002e7 .LASF55
     /tmp/ccmEqAUU.s:1359   .debug_loc:0000000000000039 .LLST2
     /tmp/ccmEqAUU.s:92     .text:000000000000006c .LVL6
     /tmp/ccmEqAUU.s:1440   .debug_str:0000000000000162 .LASF56
     /tmp/ccmEqAUU.s:1476   .debug_str:0000000000000243 .LASF57
     /tmp/ccmEqAUU.s:43     .text:0000000000000028 .LFB6
     /tmp/ccmEqAUU.s:69     .text:0000000000000050 .LFE6
     /tmp/ccmEqAUU.s:1373   .debug_loc:0000000000000072 .LLST1
     /tmp/ccmEqAUU.s:58     .text:0000000000000040 .LVL3
     /tmp/ccmEqAUU.s:1530   .debug_str:0000000000000395 .LASF58
     /tmp/ccmEqAUU.s:1474   .debug_str:000000000000023d .LASF59
     /tmp/ccmEqAUU.s:10     .text:0000000000000000 .LFB5
     /tmp/ccmEqAUU.s:37     .text:0000000000000028 .LFE5
     /tmp/ccmEqAUU.s:1516   .debug_str:000000000000034d .LASF44
     /tmp/ccmEqAUU.s:1387   .debug_loc:00000000000000ab .LLST0
     /tmp/ccmEqAUU.s:26     .text:0000000000000018 .LVL1
     /tmp/ccmEqAUU.s:1500   .debug_str:00000000000002de .LASF45
     /tmp/ccmEqAUU.s:1512   .debug_str:000000000000032e .LASF46
     /tmp/ccmEqAUU.s:135    .text:0000000000000094 .LVL7
     /tmp/ccmEqAUU.s:78     .text:0000000000000050 .LVL4
     /tmp/ccmEqAUU.s:90     .text:0000000000000064 .LVL5
     /tmp/ccmEqAUU.s:46     .text:0000000000000028 .LVL2
     /tmp/ccmEqAUU.s:14     .text:0000000000000000 .LVL0
     /tmp/ccmEqAUU.s:166    .debug_info:0000000000000000 .Ldebug_info0

UNDEFINED SYMBOLS
mem_alloc
mem_free
_ZN3PCB5startEv
_ZN3PCB5sleepEm
