GAS LISTING /tmp/cc4gmEAF.s 			page 1


   1              		.file	"syscall_cpp.cpp"
   2              		.option pic
   3              		.option norelax
   4              		.text
   5              	.Ltext0:
   6              		.align	2
   7              		.globl	_Znwm
   9              	_Znwm:
  10              	.LFB22:
  11              		.file 1 "src/syscall_cpp.cpp"
   1:src/syscall_cpp.cpp **** //
   2:src/syscall_cpp.cpp **** // Created by os on 4/8/22.
   3:src/syscall_cpp.cpp **** //
   4:src/syscall_cpp.cpp **** 
   5:src/syscall_cpp.cpp **** #include "../h/syscall_cpp.h"
   6:src/syscall_cpp.cpp **** 
   7:src/syscall_cpp.cpp **** //general
   8:src/syscall_cpp.cpp **** void * operator new(size_t size)
   9:src/syscall_cpp.cpp **** {
  12              		.loc 1 9 1
  13              		.cfi_startproc
  14              	.LVL0:
  15 0000 130101FF 		addi	sp,sp,-16
  16              		.cfi_def_cfa_offset 16
  17 0004 23341100 		sd	ra,8(sp)
  18 0008 23308100 		sd	s0,0(sp)
  19              		.cfi_offset 1, -8
  20              		.cfi_offset 8, -16
  21 000c 13040101 		addi	s0,sp,16
  22              		.cfi_def_cfa 8, 0
  10:src/syscall_cpp.cpp ****     return mem_alloc(size);
  23              		.loc 1 10 5
  24              		.loc 1 10 21 is_stmt 0
  25 0010 97000000 		call	mem_alloc@plt
  25      E7800000 
  26              	.LVL1:
  11:src/syscall_cpp.cpp **** }
  27              		.loc 1 11 1
  28 0018 83308100 		ld	ra,8(sp)
  29              		.cfi_restore 1
  30 001c 03340100 		ld	s0,0(sp)
  31              		.cfi_restore 8
  32              		.cfi_def_cfa 2, 16
  33 0020 13010101 		addi	sp,sp,16
  34              		.cfi_def_cfa_offset 0
  35 0024 67800000 		jr	ra
  36              		.cfi_endproc
  37              	.LFE22:
  39              		.align	2
  40              		.globl	_ZdlPv
  42              	_ZdlPv:
  43              	.LFB23:
  12:src/syscall_cpp.cpp **** 
  13:src/syscall_cpp.cpp **** void operator delete(void * p)
  14:src/syscall_cpp.cpp **** {
  44              		.loc 1 14 1 is_stmt 1
  45              		.cfi_startproc
GAS LISTING /tmp/cc4gmEAF.s 			page 2


  46              	.LVL2:
  47 0028 130101FF 		addi	sp,sp,-16
  48              		.cfi_def_cfa_offset 16
  49 002c 23341100 		sd	ra,8(sp)
  50 0030 23308100 		sd	s0,0(sp)
  51              		.cfi_offset 1, -8
  52              		.cfi_offset 8, -16
  53 0034 13040101 		addi	s0,sp,16
  54              		.cfi_def_cfa 8, 0
  15:src/syscall_cpp.cpp ****    mem_free(p);
  55              		.loc 1 15 4
  56              		.loc 1 15 12 is_stmt 0
  57 0038 97000000 		call	mem_free@plt
  57      E7800000 
  58              	.LVL3:
  16:src/syscall_cpp.cpp **** }
  59              		.loc 1 16 1
  60 0040 83308100 		ld	ra,8(sp)
  61              		.cfi_restore 1
  62 0044 03340100 		ld	s0,0(sp)
  63              		.cfi_restore 8
  64              		.cfi_def_cfa 2, 16
  65 0048 13010101 		addi	sp,sp,16
  66              		.cfi_def_cfa_offset 0
  67 004c 67800000 		jr	ra
  68              		.cfi_endproc
  69              	.LFE23:
  71              		.align	2
  72              		.globl	_ZN6Thread5startEv
  74              	_ZN6Thread5startEv:
  75              	.LFB24:
  17:src/syscall_cpp.cpp **** 
  18:src/syscall_cpp.cpp **** //Thread
  19:src/syscall_cpp.cpp **** 
  20:src/syscall_cpp.cpp **** void Thread::start() {
  76              		.loc 1 20 22 is_stmt 1
  77              		.cfi_startproc
  78              	.LVL4:
  79 0050 130101FF 		addi	sp,sp,-16
  80              		.cfi_def_cfa_offset 16
  81 0054 23341100 		sd	ra,8(sp)
  82 0058 23308100 		sd	s0,0(sp)
  83              		.cfi_offset 1, -8
  84              		.cfi_offset 8, -16
  85 005c 13040101 		addi	s0,sp,16
  86              		.cfi_def_cfa 8, 0
  21:src/syscall_cpp.cpp ****     myHandle->start();
  87              		.loc 1 21 5
  88              		.loc 1 21 20 is_stmt 0
  89 0060 03350500 		ld	a0,0(a0)
  90              	.LVL5:
  91 0064 97000000 		call	_ZN3PCB5startEv@plt
  91      E7800000 
  92              	.LVL6:
  22:src/syscall_cpp.cpp **** }
  93              		.loc 1 22 1
  94 006c 83308100 		ld	ra,8(sp)
GAS LISTING /tmp/cc4gmEAF.s 			page 3


  95              		.cfi_restore 1
  96 0070 03340100 		ld	s0,0(sp)
  97              		.cfi_restore 8
  98              		.cfi_def_cfa 2, 16
  99 0074 13010101 		addi	sp,sp,16
 100              		.cfi_def_cfa_offset 0
 101 0078 67800000 		jr	ra
 102              		.cfi_endproc
 103              	.LFE24:
 105              		.align	2
 106              		.globl	_ZN6Thread8dispatchEv
 108              	_ZN6Thread8dispatchEv:
 109              	.LFB25:
  23:src/syscall_cpp.cpp **** 
  24:src/syscall_cpp.cpp **** void Thread::dispatch() {
 110              		.loc 1 24 25 is_stmt 1
 111              		.cfi_startproc
 112 007c 130101FF 		addi	sp,sp,-16
 113              		.cfi_def_cfa_offset 16
 114 0080 23348100 		sd	s0,8(sp)
 115              		.cfi_offset 8, -8
 116 0084 13040101 		addi	s0,sp,16
 117              		.cfi_def_cfa 8, 0
  25:src/syscall_cpp.cpp ****     //PCB::dispatch();
  26:src/syscall_cpp.cpp **** }
 118              		.loc 1 26 1 is_stmt 0
 119 0088 03348100 		ld	s0,8(sp)
 120              		.cfi_restore 8
 121              		.cfi_def_cfa 2, 16
 122 008c 13010101 		addi	sp,sp,16
 123              		.cfi_def_cfa_offset 0
 124 0090 67800000 		jr	ra
 125              		.cfi_endproc
 126              	.LFE25:
 128              		.align	2
 129              		.globl	_ZN6Thread5sleepEm
 131              	_ZN6Thread5sleepEm:
 132              	.LFB26:
  27:src/syscall_cpp.cpp **** 
  28:src/syscall_cpp.cpp **** void Thread::sleep(time_t time) {
 133              		.loc 1 28 33 is_stmt 1
 134              		.cfi_startproc
 135              	.LVL7:
 136 0094 130101FF 		addi	sp,sp,-16
 137              		.cfi_def_cfa_offset 16
 138 0098 23341100 		sd	ra,8(sp)
 139 009c 23308100 		sd	s0,0(sp)
 140              		.cfi_offset 1, -8
 141              		.cfi_offset 8, -16
 142 00a0 13040101 		addi	s0,sp,16
 143              		.cfi_def_cfa 8, 0
  29:src/syscall_cpp.cpp ****     PCB::sleep(time);
 144              		.loc 1 29 5
 145              		.loc 1 29 15 is_stmt 0
 146 00a4 97000000 		call	_ZN3PCB5sleepEm@plt
 146      E7800000 
 147              	.LVL8:
GAS LISTING /tmp/cc4gmEAF.s 			page 4


  30:src/syscall_cpp.cpp **** }
 148              		.loc 1 30 1
 149 00ac 83308100 		ld	ra,8(sp)
 150              		.cfi_restore 1
 151 00b0 03340100 		ld	s0,0(sp)
 152              		.cfi_restore 8
 153              		.cfi_def_cfa 2, 16
 154 00b4 13010101 		addi	sp,sp,16
 155              		.cfi_def_cfa_offset 0
 156 00b8 67800000 		jr	ra
 157              		.cfi_endproc
 158              	.LFE26:
 160              	.Letext0:
 161              		.file 2 "src/../h/../lib/hw.h"
 162              		.file 3 "src/../h/PCB.h"
 163              		.file 4 "src/../h/syscall_cpp.h"
 164              		.file 5 "src/../h/syscall_c.h"
GAS LISTING /tmp/cc4gmEAF.s 			page 5


DEFINED SYMBOLS
                            *ABS*:0000000000000000 syscall_cpp.cpp
     /tmp/cc4gmEAF.s:9      .text:0000000000000000 _Znwm
     /tmp/cc4gmEAF.s:13     .text:0000000000000000 .L0 
     /tmp/cc4gmEAF.s:15     .text:0000000000000000 .L0 
     /tmp/cc4gmEAF.s:16     .text:0000000000000004 .L0 
     /tmp/cc4gmEAF.s:19     .text:000000000000000c .L0 
     /tmp/cc4gmEAF.s:20     .text:000000000000000c .L0 
     /tmp/cc4gmEAF.s:22     .text:0000000000000010 .L0 
     /tmp/cc4gmEAF.s:24     .text:0000000000000010 .L0 
     /tmp/cc4gmEAF.s:25     .text:0000000000000010 .L0 
     /tmp/cc4gmEAF.s:28     .text:0000000000000018 .L0 
     /tmp/cc4gmEAF.s:29     .text:000000000000001c .L0 
     /tmp/cc4gmEAF.s:31     .text:0000000000000020 .L0 
     /tmp/cc4gmEAF.s:32     .text:0000000000000020 .L0 
     /tmp/cc4gmEAF.s:34     .text:0000000000000024 .L0 
     /tmp/cc4gmEAF.s:36     .text:0000000000000028 .L0 
     /tmp/cc4gmEAF.s:42     .text:0000000000000028 _ZdlPv
     /tmp/cc4gmEAF.s:45     .text:0000000000000028 .L0 
     /tmp/cc4gmEAF.s:47     .text:0000000000000028 .L0 
     /tmp/cc4gmEAF.s:48     .text:000000000000002c .L0 
     /tmp/cc4gmEAF.s:51     .text:0000000000000034 .L0 
     /tmp/cc4gmEAF.s:52     .text:0000000000000034 .L0 
     /tmp/cc4gmEAF.s:54     .text:0000000000000038 .L0 
     /tmp/cc4gmEAF.s:56     .text:0000000000000038 .L0 
     /tmp/cc4gmEAF.s:57     .text:0000000000000038 .L0 
     /tmp/cc4gmEAF.s:60     .text:0000000000000040 .L0 
     /tmp/cc4gmEAF.s:61     .text:0000000000000044 .L0 
     /tmp/cc4gmEAF.s:63     .text:0000000000000048 .L0 
     /tmp/cc4gmEAF.s:64     .text:0000000000000048 .L0 
     /tmp/cc4gmEAF.s:66     .text:000000000000004c .L0 
     /tmp/cc4gmEAF.s:68     .text:0000000000000050 .L0 
     /tmp/cc4gmEAF.s:74     .text:0000000000000050 _ZN6Thread5startEv
     /tmp/cc4gmEAF.s:77     .text:0000000000000050 .L0 
     /tmp/cc4gmEAF.s:79     .text:0000000000000050 .L0 
     /tmp/cc4gmEAF.s:80     .text:0000000000000054 .L0 
     /tmp/cc4gmEAF.s:83     .text:000000000000005c .L0 
     /tmp/cc4gmEAF.s:84     .text:000000000000005c .L0 
     /tmp/cc4gmEAF.s:86     .text:0000000000000060 .L0 
     /tmp/cc4gmEAF.s:88     .text:0000000000000060 .L0 
     /tmp/cc4gmEAF.s:89     .text:0000000000000060 .L0 
     /tmp/cc4gmEAF.s:94     .text:000000000000006c .L0 
     /tmp/cc4gmEAF.s:95     .text:0000000000000070 .L0 
     /tmp/cc4gmEAF.s:97     .text:0000000000000074 .L0 
     /tmp/cc4gmEAF.s:98     .text:0000000000000074 .L0 
     /tmp/cc4gmEAF.s:100    .text:0000000000000078 .L0 
     /tmp/cc4gmEAF.s:102    .text:000000000000007c .L0 
     /tmp/cc4gmEAF.s:108    .text:000000000000007c _ZN6Thread8dispatchEv
     /tmp/cc4gmEAF.s:111    .text:000000000000007c .L0 
     /tmp/cc4gmEAF.s:112    .text:000000000000007c .L0 
     /tmp/cc4gmEAF.s:113    .text:0000000000000080 .L0 
     /tmp/cc4gmEAF.s:115    .text:0000000000000084 .L0 
     /tmp/cc4gmEAF.s:117    .text:0000000000000088 .L0 
     /tmp/cc4gmEAF.s:119    .text:0000000000000088 .L0 
     /tmp/cc4gmEAF.s:120    .text:000000000000008c .L0 
     /tmp/cc4gmEAF.s:121    .text:000000000000008c .L0 
     /tmp/cc4gmEAF.s:123    .text:0000000000000090 .L0 
GAS LISTING /tmp/cc4gmEAF.s 			page 6


     /tmp/cc4gmEAF.s:125    .text:0000000000000094 .L0 
     /tmp/cc4gmEAF.s:131    .text:0000000000000094 _ZN6Thread5sleepEm
     /tmp/cc4gmEAF.s:134    .text:0000000000000094 .L0 
     /tmp/cc4gmEAF.s:136    .text:0000000000000094 .L0 
     /tmp/cc4gmEAF.s:137    .text:0000000000000098 .L0 
     /tmp/cc4gmEAF.s:140    .text:00000000000000a0 .L0 
     /tmp/cc4gmEAF.s:141    .text:00000000000000a0 .L0 
     /tmp/cc4gmEAF.s:143    .text:00000000000000a4 .L0 
     /tmp/cc4gmEAF.s:145    .text:00000000000000a4 .L0 
     /tmp/cc4gmEAF.s:146    .text:00000000000000a4 .L0 
     /tmp/cc4gmEAF.s:149    .text:00000000000000ac .L0 
     /tmp/cc4gmEAF.s:150    .text:00000000000000b0 .L0 
     /tmp/cc4gmEAF.s:152    .text:00000000000000b4 .L0 
     /tmp/cc4gmEAF.s:153    .text:00000000000000b4 .L0 
     /tmp/cc4gmEAF.s:155    .text:00000000000000b8 .L0 
     /tmp/cc4gmEAF.s:157    .text:00000000000000bc .L0 
     /tmp/cc4gmEAF.s:165    .text:00000000000000bc .L0 
     /tmp/cc4gmEAF.s:736    .debug_abbrev:0000000000000000 .Ldebug_abbrev0
     /tmp/cc4gmEAF.s:1520   .debug_str:00000000000000d0 .LASF53
     /tmp/cc4gmEAF.s:1592   .debug_str:0000000000000322 .LASF54
     /tmp/cc4gmEAF.s:1514   .debug_str:0000000000000090 .LASF55
     /tmp/cc4gmEAF.s:5      .text:0000000000000000 .Ltext0
     /tmp/cc4gmEAF.s:160    .text:00000000000000bc .Letext0
     /tmp/cc4gmEAF.s:1494   .debug_line:0000000000000000 .Ldebug_line0
     /tmp/cc4gmEAF.s:1566   .debug_str:0000000000000284 .LASF0
     /tmp/cc4gmEAF.s:1576   .debug_str:00000000000002ab .LASF1
     /tmp/cc4gmEAF.s:1562   .debug_str:0000000000000263 .LASF2
     /tmp/cc4gmEAF.s:1544   .debug_str:000000000000020e .LASF4
     /tmp/cc4gmEAF.s:1596   .debug_str:000000000000034c .LASF3
     /tmp/cc4gmEAF.s:1500   .debug_str:0000000000000018 .LASF5
     /tmp/cc4gmEAF.s:1518   .debug_str:00000000000000c9 .LASF6
     /tmp/cc4gmEAF.s:1578   .debug_str:00000000000002be .LASF7
     /tmp/cc4gmEAF.s:1564   .debug_str:0000000000000271 .LASF8
     /tmp/cc4gmEAF.s:1612   .debug_str:00000000000003ae .LASF9
     /tmp/cc4gmEAF.s:1536   .debug_str:00000000000001ca .LASF10
     /tmp/cc4gmEAF.s:1582   .debug_str:00000000000002e9 .LASF11
     /tmp/cc4gmEAF.s:1608   .debug_str:0000000000000398 .LASF12
     /tmp/cc4gmEAF.s:1504   .debug_str:0000000000000025 .LASF13
     /tmp/cc4gmEAF.s:1496   .debug_str:0000000000000000 .LASF14
     /tmp/cc4gmEAF.s:1508   .debug_str:000000000000005d .LASF15
     /tmp/cc4gmEAF.s:1594   .debug_str:0000000000000336 .LASF16
     /tmp/cc4gmEAF.s:1516   .debug_str:00000000000000b3 .LASF17
     /tmp/cc4gmEAF.s:1498   .debug_str:0000000000000010 .LASF28
     /tmp/cc4gmEAF.s:1502   .debug_str:000000000000001f .LASF18
     /tmp/cc4gmEAF.s:1510   .debug_str:0000000000000069 .LASF56
     /tmp/cc4gmEAF.s:1590   .debug_str:000000000000031d .LASF57
     /tmp/cc4gmEAF.s:1574   .debug_str:00000000000002a5 .LASF19
     /tmp/cc4gmEAF.s:1542   .debug_str:00000000000001fe .LASF34
     /tmp/cc4gmEAF.s:1568   .debug_str:0000000000000291 .LASF37
     /tmp/cc4gmEAF.s:1540   .debug_str:00000000000001eb .LASF38
     /tmp/cc4gmEAF.s:1572   .debug_str:000000000000029f .LASF40
     /tmp/cc4gmEAF.s:1554   .debug_str:0000000000000239 .LASF41
     /tmp/cc4gmEAF.s:1526   .debug_str:0000000000000185 .LASF23
     /tmp/cc4gmEAF.s:1552   .debug_str:000000000000022b .LASF20
     /tmp/cc4gmEAF.s:1522   .debug_str:0000000000000172 .LASF21
     /tmp/cc4gmEAF.s:1512   .debug_str:0000000000000080 .LASF22
     /tmp/cc4gmEAF.s:1598   .debug_str:000000000000035e .LASF24
GAS LISTING /tmp/cc4gmEAF.s 			page 7


     /tmp/cc4gmEAF.s:1558   .debug_str:000000000000024f .LASF45
     /tmp/cc4gmEAF.s:1580   .debug_str:00000000000002d1 .LASF47
     /tmp/cc4gmEAF.s:1606   .debug_str:000000000000038e .LASF25
     /tmp/cc4gmEAF.s:1616   .debug_str:00000000000003c3 .LASF58
     /tmp/cc4gmEAF.s:1506   .debug_str:0000000000000035 .LASF59
     /tmp/cc4gmEAF.s:1524   .debug_str:000000000000017e .LASF60
     /tmp/cc4gmEAF.s:1622   .debug_str:00000000000003e8 .LASF61
     /tmp/cc4gmEAF.s:1548   .debug_str:000000000000021e .LASF26
     /tmp/cc4gmEAF.s:1570   .debug_str:000000000000029a .LASF27
     /tmp/cc4gmEAF.s:1550   .debug_str:0000000000000223 .LASF29
     /tmp/cc4gmEAF.s:1618   .debug_str:00000000000003d1 .LASF30
     /tmp/cc4gmEAF.s:1546   .debug_str:0000000000000215 .LASF31
     /tmp/cc4gmEAF.s:1528   .debug_str:000000000000018d .LASF32
     /tmp/cc4gmEAF.s:1610   .debug_str:00000000000003a7 .LASF33
     /tmp/cc4gmEAF.s:1584   .debug_str:00000000000002f8 .LASF35
     /tmp/cc4gmEAF.s:1532   .debug_str:00000000000001a8 .LASF36
     /tmp/cc4gmEAF.s:1530   .debug_str:0000000000000192 .LASF39
     /tmp/cc4gmEAF.s:1538   .debug_str:00000000000001d8 .LASF42
     /tmp/cc4gmEAF.s:1534   .debug_str:00000000000001bb .LASF43
     /tmp/cc4gmEAF.s:1624   .debug_str:00000000000003f9 .LASF44
     /tmp/cc4gmEAF.s:132    .text:0000000000000094 .LFB26
     /tmp/cc4gmEAF.s:158    .text:00000000000000bc .LFE26
     /tmp/cc4gmEAF.s:1614   .debug_str:00000000000003be .LASF49
     /tmp/cc4gmEAF.s:1425   .debug_loc:0000000000000000 .LLST3
     /tmp/cc4gmEAF.s:147    .text:00000000000000ac .LVL8
     /tmp/cc4gmEAF.s:109    .text:000000000000007c .LFB25
     /tmp/cc4gmEAF.s:126    .text:0000000000000094 .LFE25
     /tmp/cc4gmEAF.s:75     .text:0000000000000050 .LFB24
     /tmp/cc4gmEAF.s:103    .text:000000000000007c .LFE24
     /tmp/cc4gmEAF.s:1588   .debug_str:0000000000000318 .LASF62
     /tmp/cc4gmEAF.s:1439   .debug_loc:0000000000000039 .LLST2
     /tmp/cc4gmEAF.s:92     .text:000000000000006c .LVL6
     /tmp/cc4gmEAF.s:1602   .debug_str:0000000000000379 .LASF46
     /tmp/cc4gmEAF.s:1560   .debug_str:000000000000025c .LASF48
     /tmp/cc4gmEAF.s:43     .text:0000000000000028 .LFB23
     /tmp/cc4gmEAF.s:69     .text:0000000000000050 .LFE23
     /tmp/cc4gmEAF.s:1453   .debug_loc:0000000000000072 .LLST1
     /tmp/cc4gmEAF.s:58     .text:0000000000000040 .LVL3
     /tmp/cc4gmEAF.s:1620   .debug_str:00000000000003db .LASF63
     /tmp/cc4gmEAF.s:1556   .debug_str:0000000000000249 .LASF64
     /tmp/cc4gmEAF.s:10     .text:0000000000000000 .LFB22
     /tmp/cc4gmEAF.s:37     .text:0000000000000028 .LFE22
     /tmp/cc4gmEAF.s:1604   .debug_str:0000000000000389 .LASF50
     /tmp/cc4gmEAF.s:1467   .debug_loc:00000000000000ab .LLST0
     /tmp/cc4gmEAF.s:26     .text:0000000000000018 .LVL1
     /tmp/cc4gmEAF.s:1586   .debug_str:000000000000030f .LASF51
     /tmp/cc4gmEAF.s:1600   .debug_str:000000000000036f .LASF52
     /tmp/cc4gmEAF.s:135    .text:0000000000000094 .LVL7
     /tmp/cc4gmEAF.s:78     .text:0000000000000050 .LVL4
     /tmp/cc4gmEAF.s:90     .text:0000000000000064 .LVL5
     /tmp/cc4gmEAF.s:46     .text:0000000000000028 .LVL2
     /tmp/cc4gmEAF.s:14     .text:0000000000000000 .LVL0
     /tmp/cc4gmEAF.s:166    .debug_info:0000000000000000 .Ldebug_info0

UNDEFINED SYMBOLS
mem_alloc
mem_free
GAS LISTING /tmp/cc4gmEAF.s 			page 8


_ZN3PCB5startEv
_ZN3PCB5sleepEm
