GAS LISTING /tmp/ccLtJF81.s 			page 1


   1              		.file	"syscall_cpp.cpp"
   2              		.option pic
   3              		.option norelax
   4              		.text
   5              	.Ltext0:
   6              		.align	2
   7              		.globl	_Znwm
   9              	_Znwm:
  10              	.LFB21:
  11              		.file 1 "src/syscall_cpp.cpp"
   1:src/syscall_cpp.cpp **** //
   2:src/syscall_cpp.cpp **** // Created by os on 4/8/22.
   3:src/syscall_cpp.cpp **** //
   4:src/syscall_cpp.cpp **** 
   5:src/syscall_cpp.cpp **** #include "../h/syscall_cpp.hpp"
   6:src/syscall_cpp.cpp **** 
   7:src/syscall_cpp.cpp **** //general
   8:src/syscall_cpp.cpp **** void * operator new(size_t size)
   9:src/syscall_cpp.cpp **** {
  12              		.loc 1 9 1
  13              		.cfi_startproc
  14              	.LVL0:
  15 0000 130101FF 		addi	sp,sp,-16
  16              		.cfi_def_cfa_offset 16
  17 0004 23341100 		sd	ra,8(sp)
  18 0008 23308100 		sd	s0,0(sp)
  19              		.cfi_offset 1, -8
  20              		.cfi_offset 8, -16
  21 000c 13040101 		addi	s0,sp,16
  22              		.cfi_def_cfa 8, 0
  10:src/syscall_cpp.cpp ****     return mem_alloc(size);
  23              		.loc 1 10 5
  24              		.loc 1 10 21 is_stmt 0
  25 0010 97000000 		call	mem_alloc@plt
  25      E7800000 
  26              	.LVL1:
  11:src/syscall_cpp.cpp **** }
  27              		.loc 1 11 1
  28 0018 83308100 		ld	ra,8(sp)
  29              		.cfi_restore 1
  30 001c 03340100 		ld	s0,0(sp)
  31              		.cfi_restore 8
  32              		.cfi_def_cfa 2, 16
  33 0020 13010101 		addi	sp,sp,16
  34              		.cfi_def_cfa_offset 0
  35 0024 67800000 		jr	ra
  36              		.cfi_endproc
  37              	.LFE21:
  39              		.align	2
  40              		.globl	_ZdlPv
  42              	_ZdlPv:
  43              	.LFB22:
  12:src/syscall_cpp.cpp **** 
  13:src/syscall_cpp.cpp **** void operator delete(void * p)
  14:src/syscall_cpp.cpp **** {
  44              		.loc 1 14 1 is_stmt 1
  45              		.cfi_startproc
GAS LISTING /tmp/ccLtJF81.s 			page 2


  46              	.LVL2:
  47 0028 130101FF 		addi	sp,sp,-16
  48              		.cfi_def_cfa_offset 16
  49 002c 23341100 		sd	ra,8(sp)
  50 0030 23308100 		sd	s0,0(sp)
  51              		.cfi_offset 1, -8
  52              		.cfi_offset 8, -16
  53 0034 13040101 		addi	s0,sp,16
  54              		.cfi_def_cfa 8, 0
  15:src/syscall_cpp.cpp ****    mem_free(p);
  55              		.loc 1 15 4
  56              		.loc 1 15 12 is_stmt 0
  57 0038 97000000 		call	mem_free@plt
  57      E7800000 
  58              	.LVL3:
  16:src/syscall_cpp.cpp **** }
  59              		.loc 1 16 1
  60 0040 83308100 		ld	ra,8(sp)
  61              		.cfi_restore 1
  62 0044 03340100 		ld	s0,0(sp)
  63              		.cfi_restore 8
  64              		.cfi_def_cfa 2, 16
  65 0048 13010101 		addi	sp,sp,16
  66              		.cfi_def_cfa_offset 0
  67 004c 67800000 		jr	ra
  68              		.cfi_endproc
  69              	.LFE22:
  71              		.align	2
  72              		.globl	_ZN6Thread5startEv
  74              	_ZN6Thread5startEv:
  75              	.LFB23:
  17:src/syscall_cpp.cpp **** 
  18:src/syscall_cpp.cpp **** //Thread
  19:src/syscall_cpp.cpp **** 
  20:src/syscall_cpp.cpp **** //todo
  21:src/syscall_cpp.cpp **** //diskusija u os1 proj sheet-u
  22:src/syscall_cpp.cpp **** void Thread::start() {
  76              		.loc 1 22 22 is_stmt 1
  77              		.cfi_startproc
  78              	.LVL4:
  23:src/syscall_cpp.cpp ****     if(myHandle == 0)
  79              		.loc 1 23 5
  80              	.LBB2:
  81              		.loc 1 23 8 is_stmt 0
  82 0050 83370500 		ld	a5,0(a0)
  83              		.loc 1 23 5
  84 0054 63840700 		beqz	a5,.L11
  85 0058 67800000 		ret
  86              	.L11:
  87              	.LBE2:
  22:src/syscall_cpp.cpp ****     if(myHandle == 0)
  88              		.loc 1 22 22
  89 005c 130101FF 		addi	sp,sp,-16
  90              		.cfi_def_cfa_offset 16
  91 0060 23341100 		sd	ra,8(sp)
  92 0064 23308100 		sd	s0,0(sp)
  93              		.cfi_offset 1, -8
GAS LISTING /tmp/ccLtJF81.s 			page 3


  94              		.cfi_offset 8, -16
  95 0068 13040101 		addi	s0,sp,16
  96              		.cfi_def_cfa 8, 0
  97              	.LBB4:
  98              	.LBB3:
  24:src/syscall_cpp.cpp ****     {
  25:src/syscall_cpp.cpp ****         int retval = thread_create((void**)&myHandle, f, args);
  99              		.loc 1 25 9 is_stmt 1
 100              		.loc 1 25 35 is_stmt 0
 101 006c 03360501 		ld	a2,16(a0)
 102 0070 83358500 		ld	a1,8(a0)
 103 0074 97000000 		call	thread_create@plt
 103      E7800000 
 104              	.LVL5:
  26:src/syscall_cpp.cpp ****         if(retval != 0)
 105              		.loc 1 26 9 is_stmt 1
 106              	.LBE3:
 107              	.LBE4:
  27:src/syscall_cpp.cpp ****         {
  28:src/syscall_cpp.cpp ****         //todo
  29:src/syscall_cpp.cpp ****         //what then
  30:src/syscall_cpp.cpp ****         }
  31:src/syscall_cpp.cpp ****     }
  32:src/syscall_cpp.cpp **** }
 108              		.loc 1 32 1 is_stmt 0
 109 007c 83308100 		ld	ra,8(sp)
 110              		.cfi_restore 1
 111 0080 03340100 		ld	s0,0(sp)
 112              		.cfi_restore 8
 113              		.cfi_def_cfa 2, 16
 114 0084 13010101 		addi	sp,sp,16
 115              		.cfi_def_cfa_offset 0
 116 0088 67800000 		jr	ra
 117              		.cfi_endproc
 118              	.LFE23:
 120              		.align	2
 121              		.globl	_ZN6Thread8dispatchEv
 123              	_ZN6Thread8dispatchEv:
 124              	.LFB24:
  33:src/syscall_cpp.cpp **** 
  34:src/syscall_cpp.cpp **** void Thread::dispatch() {
 125              		.loc 1 34 25 is_stmt 1
 126              		.cfi_startproc
 127 008c 130101FF 		addi	sp,sp,-16
 128              		.cfi_def_cfa_offset 16
 129 0090 23341100 		sd	ra,8(sp)
 130 0094 23308100 		sd	s0,0(sp)
 131              		.cfi_offset 1, -8
 132              		.cfi_offset 8, -16
 133 0098 13040101 		addi	s0,sp,16
 134              		.cfi_def_cfa 8, 0
  35:src/syscall_cpp.cpp ****     thread_dispatch();
 135              		.loc 1 35 5
 136              		.loc 1 35 20 is_stmt 0
 137 009c 97000000 		call	thread_dispatch@plt
 137      E7800000 
 138              	.LVL6:
GAS LISTING /tmp/ccLtJF81.s 			page 4


  36:src/syscall_cpp.cpp **** }
 139              		.loc 1 36 1
 140 00a4 83308100 		ld	ra,8(sp)
 141              		.cfi_restore 1
 142 00a8 03340100 		ld	s0,0(sp)
 143              		.cfi_restore 8
 144              		.cfi_def_cfa 2, 16
 145 00ac 13010101 		addi	sp,sp,16
 146              		.cfi_def_cfa_offset 0
 147 00b0 67800000 		jr	ra
 148              		.cfi_endproc
 149              	.LFE24:
 151              		.align	2
 152              		.globl	_ZN6Thread5sleepEm
 154              	_ZN6Thread5sleepEm:
 155              	.LFB25:
  37:src/syscall_cpp.cpp **** 
  38:src/syscall_cpp.cpp **** void Thread::sleep(time_t time) {
 156              		.loc 1 38 33 is_stmt 1
 157              		.cfi_startproc
 158              	.LVL7:
 159 00b4 130101FF 		addi	sp,sp,-16
 160              		.cfi_def_cfa_offset 16
 161 00b8 23348100 		sd	s0,8(sp)
 162              		.cfi_offset 8, -8
 163 00bc 13040101 		addi	s0,sp,16
 164              		.cfi_def_cfa 8, 0
  39:src/syscall_cpp.cpp ****     //PCB::sleep(time);
  40:src/syscall_cpp.cpp **** }
 165              		.loc 1 40 1 is_stmt 0
 166 00c0 03348100 		ld	s0,8(sp)
 167              		.cfi_restore 8
 168              		.cfi_def_cfa 2, 16
 169 00c4 13010101 		addi	sp,sp,16
 170              		.cfi_def_cfa_offset 0
 171 00c8 67800000 		jr	ra
 172              		.cfi_endproc
 173              	.LFE25:
 175              		.align	2
 176              		.globl	_ZN6ThreadC2EPFvPvES0_
 178              	_ZN6ThreadC2EPFvPvES0_:
 179              	.LFB27:
  41:src/syscall_cpp.cpp **** 
  42:src/syscall_cpp.cpp **** Thread::Thread(void (*body)(void *), void *args) {
 180              		.loc 1 42 1 is_stmt 1
 181              		.cfi_startproc
 182              	.LVL8:
 183 00cc 130101FF 		addi	sp,sp,-16
 184              		.cfi_def_cfa_offset 16
 185 00d0 23348100 		sd	s0,8(sp)
 186              		.cfi_offset 8, -8
 187 00d4 13040101 		addi	s0,sp,16
 188              		.cfi_def_cfa 8, 0
 189              	.LBB5:
  43:src/syscall_cpp.cpp ****     myHandle = 0;
 190              		.loc 1 43 5
 191              		.loc 1 43 14 is_stmt 0
GAS LISTING /tmp/ccLtJF81.s 			page 5


 192 00d8 23300500 		sd	zero,0(a0)
  44:src/syscall_cpp.cpp ****     f = body;
 193              		.loc 1 44 5 is_stmt 1
 194              		.loc 1 44 7 is_stmt 0
 195 00dc 2334B500 		sd	a1,8(a0)
  45:src/syscall_cpp.cpp ****     this->args = args;
 196              		.loc 1 45 5 is_stmt 1
 197              		.loc 1 45 16 is_stmt 0
 198 00e0 2338C500 		sd	a2,16(a0)
 199              	.LBE5:
  46:src/syscall_cpp.cpp ****     //int retval = thread_create((void**)&myHandle, body, args);
  47:src/syscall_cpp.cpp ****     //if(retval != 0)
  48:src/syscall_cpp.cpp ****     //{
  49:src/syscall_cpp.cpp ****         //todo
  50:src/syscall_cpp.cpp ****         //what then
  51:src/syscall_cpp.cpp ****     //}
  52:src/syscall_cpp.cpp **** }
 200              		.loc 1 52 1
 201 00e4 03348100 		ld	s0,8(sp)
 202              		.cfi_restore 8
 203              		.cfi_def_cfa 2, 16
 204 00e8 13010101 		addi	sp,sp,16
 205              		.cfi_def_cfa_offset 0
 206 00ec 67800000 		jr	ra
 207              		.cfi_endproc
 208              	.LFE27:
 210              		.globl	_ZN6ThreadC1EPFvPvES0_
 211              		.set	_ZN6ThreadC1EPFvPvES0_,_ZN6ThreadC2EPFvPvES0_
 212              		.align	2
 213              		.globl	_ZN6ThreadC2Ev
 215              	_ZN6ThreadC2Ev:
 216              	.LFB30:
  53:src/syscall_cpp.cpp **** 
  54:src/syscall_cpp.cpp **** Thread::Thread() {
 217              		.loc 1 54 1 is_stmt 1
 218              		.cfi_startproc
 219              	.LVL9:
 220 00f0 130101FF 		addi	sp,sp,-16
 221              		.cfi_def_cfa_offset 16
 222 00f4 23348100 		sd	s0,8(sp)
 223              		.cfi_offset 8, -8
 224 00f8 13040101 		addi	s0,sp,16
 225              		.cfi_def_cfa 8, 0
  55:src/syscall_cpp.cpp **** 
  56:src/syscall_cpp.cpp **** }
 226              		.loc 1 56 1 is_stmt 0
 227 00fc 03348100 		ld	s0,8(sp)
 228              		.cfi_restore 8
 229              		.cfi_def_cfa 2, 16
 230 0100 13010101 		addi	sp,sp,16
 231              		.cfi_def_cfa_offset 0
 232 0104 67800000 		jr	ra
 233              		.cfi_endproc
 234              	.LFE30:
 236              		.globl	_ZN6ThreadC1Ev
 237              		.set	_ZN6ThreadC1Ev,_ZN6ThreadC2Ev
 238              		.align	2
GAS LISTING /tmp/ccLtJF81.s 			page 6


 239              		.globl	_ZN9Semaphore4waitEv
 241              	_ZN9Semaphore4waitEv:
 242              	.LFB32:
  57:src/syscall_cpp.cpp **** 
  58:src/syscall_cpp.cpp **** //Semaphore
  59:src/syscall_cpp.cpp **** 
  60:src/syscall_cpp.cpp **** void Semaphore::wait() {
 243              		.loc 1 60 24 is_stmt 1
 244              		.cfi_startproc
 245              	.LVL10:
 246 0108 130101FF 		addi	sp,sp,-16
 247              		.cfi_def_cfa_offset 16
 248 010c 23341100 		sd	ra,8(sp)
 249 0110 23308100 		sd	s0,0(sp)
 250              		.cfi_offset 1, -8
 251              		.cfi_offset 8, -16
 252 0114 13040101 		addi	s0,sp,16
 253              		.cfi_def_cfa 8, 0
  61:src/syscall_cpp.cpp ****     int retval = sem_wait((void*)myHandle);
 254              		.loc 1 61 5
 255              		.loc 1 61 26 is_stmt 0
 256 0118 03350500 		ld	a0,0(a0)
 257              	.LVL11:
 258 011c 97000000 		call	sem_wait@plt
 258      E7800000 
 259              	.LVL12:
  62:src/syscall_cpp.cpp ****     if(retval != 0)
 260              		.loc 1 62 5 is_stmt 1
  63:src/syscall_cpp.cpp ****     {
  64:src/syscall_cpp.cpp ****         //todo
  65:src/syscall_cpp.cpp ****         //what then
  66:src/syscall_cpp.cpp ****     }
  67:src/syscall_cpp.cpp **** }
 261              		.loc 1 67 1 is_stmt 0
 262 0124 83308100 		ld	ra,8(sp)
 263              		.cfi_restore 1
 264 0128 03340100 		ld	s0,0(sp)
 265              		.cfi_restore 8
 266              		.cfi_def_cfa 2, 16
 267 012c 13010101 		addi	sp,sp,16
 268              		.cfi_def_cfa_offset 0
 269 0130 67800000 		jr	ra
 270              		.cfi_endproc
 271              	.LFE32:
 273              		.align	2
 274              		.globl	_ZN9SemaphoreC2Ej
 276              	_ZN9SemaphoreC2Ej:
 277              	.LFB34:
  68:src/syscall_cpp.cpp **** 
  69:src/syscall_cpp.cpp **** Semaphore::Semaphore(unsigned int init) {
 278              		.loc 1 69 1 is_stmt 1
 279              		.cfi_startproc
 280              	.LVL13:
 281 0134 130101FF 		addi	sp,sp,-16
 282              		.cfi_def_cfa_offset 16
 283 0138 23341100 		sd	ra,8(sp)
 284 013c 23308100 		sd	s0,0(sp)
GAS LISTING /tmp/ccLtJF81.s 			page 7


 285              		.cfi_offset 1, -8
 286              		.cfi_offset 8, -16
 287 0140 13040101 		addi	s0,sp,16
 288              		.cfi_def_cfa 8, 0
 289              	.LBB6:
  70:src/syscall_cpp.cpp ****     int retval = sem_open((void**)&myHandle, init);
 290              		.loc 1 70 5
 291              		.loc 1 70 26 is_stmt 0
 292 0144 97000000 		call	sem_open@plt
 292      E7800000 
 293              	.LVL14:
  71:src/syscall_cpp.cpp ****     if(retval != 0)
 294              		.loc 1 71 5 is_stmt 1
 295              	.LBE6:
  72:src/syscall_cpp.cpp ****     {
  73:src/syscall_cpp.cpp ****         //todo
  74:src/syscall_cpp.cpp ****         //what then
  75:src/syscall_cpp.cpp ****     }
  76:src/syscall_cpp.cpp **** }
 296              		.loc 1 76 1 is_stmt 0
 297 014c 83308100 		ld	ra,8(sp)
 298              		.cfi_restore 1
 299 0150 03340100 		ld	s0,0(sp)
 300              		.cfi_restore 8
 301              		.cfi_def_cfa 2, 16
 302 0154 13010101 		addi	sp,sp,16
 303              		.cfi_def_cfa_offset 0
 304 0158 67800000 		jr	ra
 305              		.cfi_endproc
 306              	.LFE34:
 308              		.globl	_ZN9SemaphoreC1Ej
 309              		.set	_ZN9SemaphoreC1Ej,_ZN9SemaphoreC2Ej
 310              		.align	2
 311              		.globl	_ZN9Semaphore6signalEv
 313              	_ZN9Semaphore6signalEv:
 314              	.LFB36:
  77:src/syscall_cpp.cpp **** 
  78:src/syscall_cpp.cpp **** void Semaphore::signal() {
 315              		.loc 1 78 26 is_stmt 1
 316              		.cfi_startproc
 317              	.LVL15:
 318 015c 130101FF 		addi	sp,sp,-16
 319              		.cfi_def_cfa_offset 16
 320 0160 23341100 		sd	ra,8(sp)
 321 0164 23308100 		sd	s0,0(sp)
 322              		.cfi_offset 1, -8
 323              		.cfi_offset 8, -16
 324 0168 13040101 		addi	s0,sp,16
 325              		.cfi_def_cfa 8, 0
  79:src/syscall_cpp.cpp ****     int retval = sem_signal((void*)myHandle);
 326              		.loc 1 79 5
 327              		.loc 1 79 28 is_stmt 0
 328 016c 03350500 		ld	a0,0(a0)
 329              	.LVL16:
 330 0170 97000000 		call	sem_signal@plt
 330      E7800000 
 331              	.LVL17:
GAS LISTING /tmp/ccLtJF81.s 			page 8


  80:src/syscall_cpp.cpp ****     if(retval != 0)
 332              		.loc 1 80 5 is_stmt 1
  81:src/syscall_cpp.cpp ****     {
  82:src/syscall_cpp.cpp ****         //todo
  83:src/syscall_cpp.cpp ****         //what then
  84:src/syscall_cpp.cpp ****     }
  85:src/syscall_cpp.cpp **** 
  86:src/syscall_cpp.cpp **** }
 333              		.loc 1 86 1 is_stmt 0
 334 0178 83308100 		ld	ra,8(sp)
 335              		.cfi_restore 1
 336 017c 03340100 		ld	s0,0(sp)
 337              		.cfi_restore 8
 338              		.cfi_def_cfa 2, 16
 339 0180 13010101 		addi	sp,sp,16
 340              		.cfi_def_cfa_offset 0
 341 0184 67800000 		jr	ra
 342              		.cfi_endproc
 343              	.LFE36:
 345              	.Letext0:
 346              		.file 2 "src/../h/../lib/hw.h"
 347              		.file 3 "src/../h/PCB.hpp"
 348              		.file 4 "src/../h/KSemaphore.hpp"
 349              		.file 5 "src/../h/syscall_cpp.hpp"
 350              		.file 6 "src/../h/syscall_c.h"
GAS LISTING /tmp/ccLtJF81.s 			page 9


DEFINED SYMBOLS
                            *ABS*:0000000000000000 syscall_cpp.cpp
     /tmp/ccLtJF81.s:9      .text:0000000000000000 _Znwm
     /tmp/ccLtJF81.s:13     .text:0000000000000000 .L0 
     /tmp/ccLtJF81.s:15     .text:0000000000000000 .L0 
     /tmp/ccLtJF81.s:16     .text:0000000000000004 .L0 
     /tmp/ccLtJF81.s:19     .text:000000000000000c .L0 
     /tmp/ccLtJF81.s:20     .text:000000000000000c .L0 
     /tmp/ccLtJF81.s:22     .text:0000000000000010 .L0 
     /tmp/ccLtJF81.s:24     .text:0000000000000010 .L0 
     /tmp/ccLtJF81.s:25     .text:0000000000000010 .L0 
     /tmp/ccLtJF81.s:28     .text:0000000000000018 .L0 
     /tmp/ccLtJF81.s:29     .text:000000000000001c .L0 
     /tmp/ccLtJF81.s:31     .text:0000000000000020 .L0 
     /tmp/ccLtJF81.s:32     .text:0000000000000020 .L0 
     /tmp/ccLtJF81.s:34     .text:0000000000000024 .L0 
     /tmp/ccLtJF81.s:36     .text:0000000000000028 .L0 
     /tmp/ccLtJF81.s:42     .text:0000000000000028 _ZdlPv
     /tmp/ccLtJF81.s:45     .text:0000000000000028 .L0 
     /tmp/ccLtJF81.s:47     .text:0000000000000028 .L0 
     /tmp/ccLtJF81.s:48     .text:000000000000002c .L0 
     /tmp/ccLtJF81.s:51     .text:0000000000000034 .L0 
     /tmp/ccLtJF81.s:52     .text:0000000000000034 .L0 
     /tmp/ccLtJF81.s:54     .text:0000000000000038 .L0 
     /tmp/ccLtJF81.s:56     .text:0000000000000038 .L0 
     /tmp/ccLtJF81.s:57     .text:0000000000000038 .L0 
     /tmp/ccLtJF81.s:60     .text:0000000000000040 .L0 
     /tmp/ccLtJF81.s:61     .text:0000000000000044 .L0 
     /tmp/ccLtJF81.s:63     .text:0000000000000048 .L0 
     /tmp/ccLtJF81.s:64     .text:0000000000000048 .L0 
     /tmp/ccLtJF81.s:66     .text:000000000000004c .L0 
     /tmp/ccLtJF81.s:68     .text:0000000000000050 .L0 
     /tmp/ccLtJF81.s:74     .text:0000000000000050 _ZN6Thread5startEv
     /tmp/ccLtJF81.s:77     .text:0000000000000050 .L0 
     /tmp/ccLtJF81.s:79     .text:0000000000000050 .L0 
     /tmp/ccLtJF81.s:81     .text:0000000000000050 .L0 
     /tmp/ccLtJF81.s:82     .text:0000000000000050 .L0 
     /tmp/ccLtJF81.s:84     .text:0000000000000054 .L0 
     /tmp/ccLtJF81.s:89     .text:000000000000005c .L0 
     /tmp/ccLtJF81.s:90     .text:0000000000000060 .L0 
     /tmp/ccLtJF81.s:93     .text:0000000000000068 .L0 
     /tmp/ccLtJF81.s:94     .text:0000000000000068 .L0 
     /tmp/ccLtJF81.s:96     .text:000000000000006c .L0 
     /tmp/ccLtJF81.s:100    .text:000000000000006c .L0 
     /tmp/ccLtJF81.s:101    .text:000000000000006c .L0 
     /tmp/ccLtJF81.s:108    .text:000000000000007c .L0 
     /tmp/ccLtJF81.s:109    .text:000000000000007c .L0 
     /tmp/ccLtJF81.s:110    .text:0000000000000080 .L0 
     /tmp/ccLtJF81.s:112    .text:0000000000000084 .L0 
     /tmp/ccLtJF81.s:113    .text:0000000000000084 .L0 
     /tmp/ccLtJF81.s:115    .text:0000000000000088 .L0 
     /tmp/ccLtJF81.s:117    .text:000000000000008c .L0 
     /tmp/ccLtJF81.s:123    .text:000000000000008c _ZN6Thread8dispatchEv
     /tmp/ccLtJF81.s:126    .text:000000000000008c .L0 
     /tmp/ccLtJF81.s:127    .text:000000000000008c .L0 
     /tmp/ccLtJF81.s:128    .text:0000000000000090 .L0 
     /tmp/ccLtJF81.s:131    .text:0000000000000098 .L0 
GAS LISTING /tmp/ccLtJF81.s 			page 10


     /tmp/ccLtJF81.s:132    .text:0000000000000098 .L0 
     /tmp/ccLtJF81.s:134    .text:000000000000009c .L0 
     /tmp/ccLtJF81.s:136    .text:000000000000009c .L0 
     /tmp/ccLtJF81.s:137    .text:000000000000009c .L0 
     /tmp/ccLtJF81.s:140    .text:00000000000000a4 .L0 
     /tmp/ccLtJF81.s:141    .text:00000000000000a8 .L0 
     /tmp/ccLtJF81.s:143    .text:00000000000000ac .L0 
     /tmp/ccLtJF81.s:144    .text:00000000000000ac .L0 
     /tmp/ccLtJF81.s:146    .text:00000000000000b0 .L0 
     /tmp/ccLtJF81.s:148    .text:00000000000000b4 .L0 
     /tmp/ccLtJF81.s:154    .text:00000000000000b4 _ZN6Thread5sleepEm
     /tmp/ccLtJF81.s:157    .text:00000000000000b4 .L0 
     /tmp/ccLtJF81.s:159    .text:00000000000000b4 .L0 
     /tmp/ccLtJF81.s:160    .text:00000000000000b8 .L0 
     /tmp/ccLtJF81.s:162    .text:00000000000000bc .L0 
     /tmp/ccLtJF81.s:164    .text:00000000000000c0 .L0 
     /tmp/ccLtJF81.s:166    .text:00000000000000c0 .L0 
     /tmp/ccLtJF81.s:167    .text:00000000000000c4 .L0 
     /tmp/ccLtJF81.s:168    .text:00000000000000c4 .L0 
     /tmp/ccLtJF81.s:170    .text:00000000000000c8 .L0 
     /tmp/ccLtJF81.s:172    .text:00000000000000cc .L0 
     /tmp/ccLtJF81.s:178    .text:00000000000000cc _ZN6ThreadC2EPFvPvES0_
     /tmp/ccLtJF81.s:181    .text:00000000000000cc .L0 
     /tmp/ccLtJF81.s:183    .text:00000000000000cc .L0 
     /tmp/ccLtJF81.s:184    .text:00000000000000d0 .L0 
     /tmp/ccLtJF81.s:186    .text:00000000000000d4 .L0 
     /tmp/ccLtJF81.s:188    .text:00000000000000d8 .L0 
     /tmp/ccLtJF81.s:191    .text:00000000000000d8 .L0 
     /tmp/ccLtJF81.s:192    .text:00000000000000d8 .L0 
     /tmp/ccLtJF81.s:194    .text:00000000000000dc .L0 
     /tmp/ccLtJF81.s:195    .text:00000000000000dc .L0 
     /tmp/ccLtJF81.s:197    .text:00000000000000e0 .L0 
     /tmp/ccLtJF81.s:198    .text:00000000000000e0 .L0 
     /tmp/ccLtJF81.s:201    .text:00000000000000e4 .L0 
     /tmp/ccLtJF81.s:202    .text:00000000000000e8 .L0 
     /tmp/ccLtJF81.s:203    .text:00000000000000e8 .L0 
     /tmp/ccLtJF81.s:205    .text:00000000000000ec .L0 
     /tmp/ccLtJF81.s:207    .text:00000000000000f0 .L0 
     /tmp/ccLtJF81.s:178    .text:00000000000000cc _ZN6ThreadC1EPFvPvES0_
     /tmp/ccLtJF81.s:215    .text:00000000000000f0 _ZN6ThreadC2Ev
     /tmp/ccLtJF81.s:218    .text:00000000000000f0 .L0 
     /tmp/ccLtJF81.s:220    .text:00000000000000f0 .L0 
     /tmp/ccLtJF81.s:221    .text:00000000000000f4 .L0 
     /tmp/ccLtJF81.s:223    .text:00000000000000f8 .L0 
     /tmp/ccLtJF81.s:225    .text:00000000000000fc .L0 
     /tmp/ccLtJF81.s:227    .text:00000000000000fc .L0 
     /tmp/ccLtJF81.s:228    .text:0000000000000100 .L0 
     /tmp/ccLtJF81.s:229    .text:0000000000000100 .L0 
     /tmp/ccLtJF81.s:231    .text:0000000000000104 .L0 
     /tmp/ccLtJF81.s:233    .text:0000000000000108 .L0 
     /tmp/ccLtJF81.s:215    .text:00000000000000f0 _ZN6ThreadC1Ev
     /tmp/ccLtJF81.s:241    .text:0000000000000108 _ZN9Semaphore4waitEv
     /tmp/ccLtJF81.s:244    .text:0000000000000108 .L0 
     /tmp/ccLtJF81.s:246    .text:0000000000000108 .L0 
     /tmp/ccLtJF81.s:247    .text:000000000000010c .L0 
     /tmp/ccLtJF81.s:250    .text:0000000000000114 .L0 
     /tmp/ccLtJF81.s:251    .text:0000000000000114 .L0 
GAS LISTING /tmp/ccLtJF81.s 			page 11


     /tmp/ccLtJF81.s:253    .text:0000000000000118 .L0 
     /tmp/ccLtJF81.s:255    .text:0000000000000118 .L0 
     /tmp/ccLtJF81.s:256    .text:0000000000000118 .L0 
     /tmp/ccLtJF81.s:261    .text:0000000000000124 .L0 
     /tmp/ccLtJF81.s:262    .text:0000000000000124 .L0 
     /tmp/ccLtJF81.s:263    .text:0000000000000128 .L0 
     /tmp/ccLtJF81.s:265    .text:000000000000012c .L0 
     /tmp/ccLtJF81.s:266    .text:000000000000012c .L0 
     /tmp/ccLtJF81.s:268    .text:0000000000000130 .L0 
     /tmp/ccLtJF81.s:270    .text:0000000000000134 .L0 
     /tmp/ccLtJF81.s:276    .text:0000000000000134 _ZN9SemaphoreC2Ej
     /tmp/ccLtJF81.s:279    .text:0000000000000134 .L0 
     /tmp/ccLtJF81.s:281    .text:0000000000000134 .L0 
     /tmp/ccLtJF81.s:282    .text:0000000000000138 .L0 
     /tmp/ccLtJF81.s:285    .text:0000000000000140 .L0 
     /tmp/ccLtJF81.s:286    .text:0000000000000140 .L0 
     /tmp/ccLtJF81.s:288    .text:0000000000000144 .L0 
     /tmp/ccLtJF81.s:291    .text:0000000000000144 .L0 
     /tmp/ccLtJF81.s:292    .text:0000000000000144 .L0 
     /tmp/ccLtJF81.s:296    .text:000000000000014c .L0 
     /tmp/ccLtJF81.s:297    .text:000000000000014c .L0 
     /tmp/ccLtJF81.s:298    .text:0000000000000150 .L0 
     /tmp/ccLtJF81.s:300    .text:0000000000000154 .L0 
     /tmp/ccLtJF81.s:301    .text:0000000000000154 .L0 
     /tmp/ccLtJF81.s:303    .text:0000000000000158 .L0 
     /tmp/ccLtJF81.s:305    .text:000000000000015c .L0 
     /tmp/ccLtJF81.s:276    .text:0000000000000134 _ZN9SemaphoreC1Ej
     /tmp/ccLtJF81.s:313    .text:000000000000015c _ZN9Semaphore6signalEv
     /tmp/ccLtJF81.s:316    .text:000000000000015c .L0 
     /tmp/ccLtJF81.s:318    .text:000000000000015c .L0 
     /tmp/ccLtJF81.s:319    .text:0000000000000160 .L0 
     /tmp/ccLtJF81.s:322    .text:0000000000000168 .L0 
     /tmp/ccLtJF81.s:323    .text:0000000000000168 .L0 
     /tmp/ccLtJF81.s:325    .text:000000000000016c .L0 
     /tmp/ccLtJF81.s:327    .text:000000000000016c .L0 
     /tmp/ccLtJF81.s:328    .text:000000000000016c .L0 
     /tmp/ccLtJF81.s:333    .text:0000000000000178 .L0 
     /tmp/ccLtJF81.s:334    .text:0000000000000178 .L0 
     /tmp/ccLtJF81.s:335    .text:000000000000017c .L0 
     /tmp/ccLtJF81.s:337    .text:0000000000000180 .L0 
     /tmp/ccLtJF81.s:338    .text:0000000000000180 .L0 
     /tmp/ccLtJF81.s:340    .text:0000000000000184 .L0 
     /tmp/ccLtJF81.s:342    .text:0000000000000188 .L0 
     /tmp/ccLtJF81.s:351    .text:0000000000000188 .L0 
     /tmp/ccLtJF81.s:86     .text:000000000000005c .L11
     /tmp/ccLtJF81.s:1598   .debug_abbrev:0000000000000000 .Ldebug_abbrev0
     /tmp/ccLtJF81.s:2815   .debug_str:00000000000003ab .LASF126
     /tmp/ccLtJF81.s:2785   .debug_str:00000000000002bd .LASF127
     /tmp/ccLtJF81.s:2913   .debug_str:0000000000000704 .LASF128
     /tmp/ccLtJF81.s:5      .text:0000000000000000 .Ltext0
     /tmp/ccLtJF81.s:345    .text:0000000000000188 .Letext0
     /tmp/ccLtJF81.s:2679   .debug_line:0000000000000000 .Ldebug_line0
     /tmp/ccLtJF81.s:2777   .debug_str:0000000000000285 .LASF0
     /tmp/ccLtJF81.s:2795   .debug_str:000000000000031f .LASF1
     /tmp/ccLtJF81.s:2851   .debug_str:0000000000000530 .LASF2
     /tmp/ccLtJF81.s:2863   .debug_str:0000000000000590 .LASF4
     /tmp/ccLtJF81.s:2787   .debug_str:00000000000002d1 .LASF3
GAS LISTING /tmp/ccLtJF81.s 			page 12


     /tmp/ccLtJF81.s:2695   .debug_str:0000000000000063 .LASF5
     /tmp/ccLtJF81.s:2843   .debug_str:0000000000000509 .LASF6
     /tmp/ccLtJF81.s:2837   .debug_str:00000000000004e9 .LASF7
     /tmp/ccLtJF81.s:2789   .debug_str:00000000000002e3 .LASF8
     /tmp/ccLtJF81.s:2761   .debug_str:000000000000022c .LASF9
     /tmp/ccLtJF81.s:2765   .debug_str:0000000000000250 .LASF10
     /tmp/ccLtJF81.s:2719   .debug_str:0000000000000135 .LASF11
     /tmp/ccLtJF81.s:2757   .debug_str:0000000000000218 .LASF12
     /tmp/ccLtJF81.s:2731   .debug_str:000000000000017c .LASF13
     /tmp/ccLtJF81.s:2717   .debug_str:0000000000000125 .LASF14
     /tmp/ccLtJF81.s:2887   .debug_str:0000000000000658 .LASF15
     /tmp/ccLtJF81.s:2749   .debug_str:00000000000001e9 .LASF16
     /tmp/ccLtJF81.s:2881   .debug_str:0000000000000618 .LASF17
     /tmp/ccLtJF81.s:2899   .debug_str:000000000000069d .LASF129
     /tmp/ccLtJF81.s:2715   .debug_str:000000000000011f .LASF18
     /tmp/ccLtJF81.s:2873   .debug_str:00000000000005dc .LASF19
     /tmp/ccLtJF81.s:2727   .debug_str:0000000000000168 .LASF20
     /tmp/ccLtJF81.s:2707   .debug_str:00000000000000cb .LASF21
     /tmp/ccLtJF81.s:2839   .debug_str:00000000000004fc .LASF22
     /tmp/ccLtJF81.s:2725   .debug_str:000000000000015f .LASF23
     /tmp/ccLtJF81.s:2893   .debug_str:000000000000067e .LASF69
     /tmp/ccLtJF81.s:2771   .debug_str:0000000000000270 .LASF24
     /tmp/ccLtJF81.s:2919   .debug_str:0000000000000748 .LASF130
     /tmp/ccLtJF81.s:2827   .debug_str:0000000000000498 .LASF131
     /tmp/ccLtJF81.s:2793   .debug_str:000000000000031a .LASF25
     /tmp/ccLtJF81.s:2939   .debug_str:00000000000007ce .LASF27
     /tmp/ccLtJF81.s:2937   .debug_str:00000000000007c8 .LASF26
     /tmp/ccLtJF81.s:2905   .debug_str:00000000000006be .LASF28
     /tmp/ccLtJF81.s:2739   .debug_str:00000000000001af .LASF53
     /tmp/ccLtJF81.s:2699   .debug_str:0000000000000081 .LASF55
     /tmp/ccLtJF81.s:2799   .debug_str:000000000000033b .LASF34
     /tmp/ccLtJF81.s:2831   .debug_str:00000000000004b3 .LASF36
     /tmp/ccLtJF81.s:2901   .debug_str:00000000000006a3 .LASF29
     /tmp/ccLtJF81.s:2929   .debug_str:000000000000079c .LASF30
     /tmp/ccLtJF81.s:2869   .debug_str:00000000000005c2 .LASF31
     /tmp/ccLtJF81.s:2801   .debug_str:0000000000000341 .LASF38
     /tmp/ccLtJF81.s:2805   .debug_str:0000000000000357 .LASF40
     /tmp/ccLtJF81.s:2943   .debug_str:00000000000007ea .LASF32
     /tmp/ccLtJF81.s:2751   .debug_str:00000000000001ff .LASF33
     /tmp/ccLtJF81.s:2689   .debug_str:0000000000000038 .LASF35
     /tmp/ccLtJF81.s:2783   .debug_str:00000000000002b0 .LASF37
     /tmp/ccLtJF81.s:2871   .debug_str:00000000000005d3 .LASF39
     /tmp/ccLtJF81.s:2817   .debug_str:000000000000044d .LASF41
     /tmp/ccLtJF81.s:2857   .debug_str:0000000000000556 .LASF42
     /tmp/ccLtJF81.s:2883   .debug_str:000000000000062e .LASF43
     /tmp/ccLtJF81.s:2819   .debug_str:0000000000000460 .LASF44
     /tmp/ccLtJF81.s:2685   .debug_str:0000000000000019 .LASF45
     /tmp/ccLtJF81.s:2933   .debug_str:00000000000007ae .LASF46
     /tmp/ccLtJF81.s:2835   .debug_str:00000000000004cf .LASF47
     /tmp/ccLtJF81.s:2879   .debug_str:000000000000060a .LASF48
     /tmp/ccLtJF81.s:2845   .debug_str:0000000000000510 .LASF49
     /tmp/ccLtJF81.s:2737   .debug_str:000000000000019f .LASF50
     /tmp/ccLtJF81.s:2935   .debug_str:00000000000007bd .LASF51
     /tmp/ccLtJF81.s:2813   .debug_str:000000000000039b .LASF52
     /tmp/ccLtJF81.s:2747   .debug_str:00000000000001d7 .LASF54
     /tmp/ccLtJF81.s:2925   .debug_str:000000000000076f .LASF56
     /tmp/ccLtJF81.s:2709   .debug_str:00000000000000d4 .LASF57
GAS LISTING /tmp/ccLtJF81.s 			page 13


     /tmp/ccLtJF81.s:2915   .debug_str:0000000000000727 .LASF58
     /tmp/ccLtJF81.s:2867   .debug_str:00000000000005ba .LASF85
     /tmp/ccLtJF81.s:2909   .debug_str:00000000000006e5 .LASF59
     /tmp/ccLtJF81.s:2833   .debug_str:00000000000004c3 .LASF60
     /tmp/ccLtJF81.s:2735   .debug_str:0000000000000191 .LASF61
     /tmp/ccLtJF81.s:2701   .debug_str:0000000000000094 .LASF63
     /tmp/ccLtJF81.s:2779   .debug_str:0000000000000292 .LASF62
     /tmp/ccLtJF81.s:2713   .debug_str:00000000000000f3 .LASF64
     /tmp/ccLtJF81.s:2931   .debug_str:00000000000007a7 .LASF132
     /tmp/ccLtJF81.s:2711   .debug_str:00000000000000e2 .LASF133
     /tmp/ccLtJF81.s:2687   .debug_str:0000000000000033 .LASF65
     /tmp/ccLtJF81.s:2921   .debug_str:0000000000000760 .LASF66
     /tmp/ccLtJF81.s:2809   .debug_str:0000000000000389 .LASF67
     /tmp/ccLtJF81.s:2743   .debug_str:00000000000001bd .LASF68
     /tmp/ccLtJF81.s:2917   .debug_str:0000000000000740 .LASF70
     /tmp/ccLtJF81.s:2705   .debug_str:00000000000000c1 .LASF71
     /tmp/ccLtJF81.s:2895   .debug_str:0000000000000686 .LASF72
     /tmp/ccLtJF81.s:2847   .debug_str:000000000000051c .LASF73
     /tmp/ccLtJF81.s:2763   .debug_str:000000000000023c .LASF74
     /tmp/ccLtJF81.s:2741   .debug_str:00000000000001b8 .LASF75
     /tmp/ccLtJF81.s:2875   .debug_str:00000000000005e4 .LASF76
     /tmp/ccLtJF81.s:2891   .debug_str:0000000000000677 .LASF77
     /tmp/ccLtJF81.s:2823   .debug_str:0000000000000478 .LASF78
     /tmp/ccLtJF81.s:2853   .debug_str:000000000000053e .LASF79
     /tmp/ccLtJF81.s:2745   .debug_str:00000000000001c3 .LASF80
     /tmp/ccLtJF81.s:2721   .debug_str:0000000000000144 .LASF81
     /tmp/ccLtJF81.s:2729   .debug_str:0000000000000172 .LASF82
     /tmp/ccLtJF81.s:2821   .debug_str:000000000000046f .LASF83
     /tmp/ccLtJF81.s:2861   .debug_str:0000000000000585 .LASF84
     /tmp/ccLtJF81.s:2683   .debug_str:000000000000000d .LASF86
     /tmp/ccLtJF81.s:2855   .debug_str:000000000000054a .LASF87
     /tmp/ccLtJF81.s:2797   .debug_str:0000000000000332 .LASF88
     /tmp/ccLtJF81.s:2775   .debug_str:000000000000027f .LASF89
     /tmp/ccLtJF81.s:2945   .debug_str:00000000000007f7 .LASF90
     /tmp/ccLtJF81.s:2691   .debug_str:0000000000000048 .LASF91
     /tmp/ccLtJF81.s:2807   .debug_str:000000000000036f .LASF92
     /tmp/ccLtJF81.s:2941   .debug_str:00000000000007da .LASF93
     /tmp/ccLtJF81.s:2865   .debug_str:0000000000000597 .LASF94
     /tmp/ccLtJF81.s:2889   .debug_str:0000000000000664 .LASF95
     /tmp/ccLtJF81.s:2859   .debug_str:000000000000055f .LASF96
     /tmp/ccLtJF81.s:2681   .debug_str:0000000000000000 .LASF97
     /tmp/ccLtJF81.s:2791   .debug_str:00000000000002f6 .LASF98
     /tmp/ccLtJF81.s:2769   .debug_str:0000000000000269 .LASF99
     /tmp/ccLtJF81.s:2949   .debug_str:000000000000081e .LASF100
     /tmp/ccLtJF81.s:2693   .debug_str:0000000000000050 .LASF101
     /tmp/ccLtJF81.s:2829   .debug_str:000000000000049d .LASF102
     /tmp/ccLtJF81.s:2903   .debug_str:00000000000006ab .LASF103
     /tmp/ccLtJF81.s:2781   .debug_str:00000000000002a7 .LASF104
     /tmp/ccLtJF81.s:2947   .debug_str:000000000000080f .LASF105
     /tmp/ccLtJF81.s:2923   .debug_str:0000000000000765 .LASF106
     /tmp/ccLtJF81.s:2897   .debug_str:000000000000068b .LASF107
     /tmp/ccLtJF81.s:2911   .debug_str:00000000000006ef .LASF108
     /tmp/ccLtJF81.s:2697   .debug_str:000000000000006a .LASF109
     /tmp/ccLtJF81.s:314    .text:000000000000015c .LFB36
     /tmp/ccLtJF81.s:343    .text:0000000000000188 .LFE36
     /tmp/ccLtJF81.s:2759   .debug_str:0000000000000227 .LASF111
     /tmp/ccLtJF81.s:2568   .debug_loc:0000000000000000 .LLST6
GAS LISTING /tmp/ccLtJF81.s 			page 14


     /tmp/ccLtJF81.s:2753   .debug_str:000000000000020b .LASF110
     /tmp/ccLtJF81.s:331    .text:0000000000000178 .LVL17
     /tmp/ccLtJF81.s:2703   .debug_str:00000000000000bc .LASF114
     /tmp/ccLtJF81.s:2723   .debug_str:000000000000014d .LASF112
     /tmp/ccLtJF81.s:277    .text:0000000000000134 .LFB34
     /tmp/ccLtJF81.s:306    .text:000000000000015c .LFE34
     /tmp/ccLtJF81.s:2582   .debug_loc:0000000000000039 .LLST4
     /tmp/ccLtJF81.s:2596   .debug_loc:0000000000000072 .LLST5
     /tmp/ccLtJF81.s:293    .text:000000000000014c .LVL14
     /tmp/ccLtJF81.s:289    .text:0000000000000144 .LBB6
     /tmp/ccLtJF81.s:295    .text:000000000000014c .LBE6
     /tmp/ccLtJF81.s:242    .text:0000000000000108 .LFB32
     /tmp/ccLtJF81.s:271    .text:0000000000000134 .LFE32
     /tmp/ccLtJF81.s:2610   .debug_loc:00000000000000ab .LLST3
     /tmp/ccLtJF81.s:259    .text:0000000000000124 .LVL12
     /tmp/ccLtJF81.s:2877   .debug_str:00000000000005fb .LASF113
     /tmp/ccLtJF81.s:216    .text:00000000000000f0 .LFB30
     /tmp/ccLtJF81.s:234    .text:0000000000000108 .LFE30
     /tmp/ccLtJF81.s:2907   .debug_str:00000000000006ce .LASF115
     /tmp/ccLtJF81.s:179    .text:00000000000000cc .LFB27
     /tmp/ccLtJF81.s:208    .text:00000000000000f0 .LFE27
     /tmp/ccLtJF81.s:155    .text:00000000000000b4 .LFB25
     /tmp/ccLtJF81.s:173    .text:00000000000000cc .LFE25
     /tmp/ccLtJF81.s:2841   .debug_str:0000000000000504 .LASF117
     /tmp/ccLtJF81.s:124    .text:000000000000008c .LFB24
     /tmp/ccLtJF81.s:149    .text:00000000000000b4 .LFE24
     /tmp/ccLtJF81.s:138    .text:00000000000000a4 .LVL6
     /tmp/ccLtJF81.s:75     .text:0000000000000050 .LFB23
     /tmp/ccLtJF81.s:118    .text:000000000000008c .LFE23
     /tmp/ccLtJF81.s:2624   .debug_loc:00000000000000e4 .LLST2
     /tmp/ccLtJF81.s:98     .text:000000000000006c .LBB3
     /tmp/ccLtJF81.s:106    .text:000000000000007c .LBE3
     /tmp/ccLtJF81.s:104    .text:000000000000007c .LVL5
     /tmp/ccLtJF81.s:2825   .debug_str:0000000000000491 .LASF116
     /tmp/ccLtJF81.s:43     .text:0000000000000028 .LFB22
     /tmp/ccLtJF81.s:69     .text:0000000000000050 .LFE22
     /tmp/ccLtJF81.s:2638   .debug_loc:000000000000011d .LLST1
     /tmp/ccLtJF81.s:58     .text:0000000000000040 .LVL3
     /tmp/ccLtJF81.s:2755   .debug_str:0000000000000212 .LASF134
     /tmp/ccLtJF81.s:10     .text:0000000000000000 .LFB21
     /tmp/ccLtJF81.s:37     .text:0000000000000028 .LFE21
     /tmp/ccLtJF81.s:2733   .debug_str:000000000000018c .LASF118
     /tmp/ccLtJF81.s:2652   .debug_loc:0000000000000156 .LLST0
     /tmp/ccLtJF81.s:26     .text:0000000000000018 .LVL1
     /tmp/ccLtJF81.s:2767   .debug_str:000000000000025e .LASF119
     /tmp/ccLtJF81.s:2849   .debug_str:0000000000000527 .LASF120
     /tmp/ccLtJF81.s:2803   .debug_str:000000000000034e .LASF121
     /tmp/ccLtJF81.s:2927   .debug_str:000000000000078c .LASF122
     /tmp/ccLtJF81.s:2885   .debug_str:000000000000064a .LASF123
     /tmp/ccLtJF81.s:2773   .debug_str:0000000000000276 .LASF124
     /tmp/ccLtJF81.s:2811   .debug_str:0000000000000391 .LASF125
     /tmp/ccLtJF81.s:317    .text:000000000000015c .LVL15
     /tmp/ccLtJF81.s:329    .text:0000000000000170 .LVL16
     /tmp/ccLtJF81.s:280    .text:0000000000000134 .LVL13
     /tmp/ccLtJF81.s:245    .text:0000000000000108 .LVL10
     /tmp/ccLtJF81.s:257    .text:000000000000011c .LVL11
     /tmp/ccLtJF81.s:78     .text:0000000000000050 .LVL4
GAS LISTING /tmp/ccLtJF81.s 			page 15


     /tmp/ccLtJF81.s:46     .text:0000000000000028 .LVL2
     /tmp/ccLtJF81.s:14     .text:0000000000000000 .LVL0
     /tmp/ccLtJF81.s:352    .debug_info:0000000000000000 .Ldebug_info0

UNDEFINED SYMBOLS
mem_alloc
mem_free
thread_create
thread_dispatch
sem_wait
sem_open
sem_signal
