GAS LISTING /tmp/ccon7eFG.s 			page 1


   1              		.file	"syscall_cpp.cpp"
   2              		.option pic
   3              		.option norelax
   4              		.text
   5              	.Ltext0:
   6              		.align	2
   7              		.globl	_Znwm
   9              	_Znwm:
  10              	.LFB0:
  11              		.file 1 "src/syscall_cpp.cpp"
   1:src/syscall_cpp.cpp **** //
   2:src/syscall_cpp.cpp **** // Created by os on 4/8/22.
   3:src/syscall_cpp.cpp **** //
   4:src/syscall_cpp.cpp **** 
   5:src/syscall_cpp.cpp **** #include "../h/syscall_cpp.h"
   6:src/syscall_cpp.cpp **** 
   7:src/syscall_cpp.cpp **** //general
   8:src/syscall_cpp.cpp **** void * operator new(size_t size)
   9:src/syscall_cpp.cpp **** {
  12              		.loc 1 9 1
  13              		.cfi_startproc
  14              	.LVL0:
  15 0000 130101FF 		addi	sp,sp,-16
  16              		.cfi_def_cfa_offset 16
  17 0004 23341100 		sd	ra,8(sp)
  18 0008 23308100 		sd	s0,0(sp)
  19              		.cfi_offset 1, -8
  20              		.cfi_offset 8, -16
  21 000c 13040101 		addi	s0,sp,16
  22              		.cfi_def_cfa 8, 0
  10:src/syscall_cpp.cpp ****     return mem_alloc(size);
  23              		.loc 1 10 5
  24              		.loc 1 10 21 is_stmt 0
  25 0010 97000000 		call	mem_alloc@plt
  25      E7800000 
  26              	.LVL1:
  11:src/syscall_cpp.cpp **** }
  27              		.loc 1 11 1
  28 0018 83308100 		ld	ra,8(sp)
  29              		.cfi_restore 1
  30 001c 03340100 		ld	s0,0(sp)
  31              		.cfi_restore 8
  32              		.cfi_def_cfa 2, 16
  33 0020 13010101 		addi	sp,sp,16
  34              		.cfi_def_cfa_offset 0
  35 0024 67800000 		jr	ra
  36              		.cfi_endproc
  37              	.LFE0:
  39              		.align	2
  40              		.globl	_ZdlPv
  42              	_ZdlPv:
  43              	.LFB1:
  12:src/syscall_cpp.cpp **** 
  13:src/syscall_cpp.cpp **** void operator delete(void * p)
  14:src/syscall_cpp.cpp **** {
  44              		.loc 1 14 1 is_stmt 1
  45              		.cfi_startproc
GAS LISTING /tmp/ccon7eFG.s 			page 2


  46              	.LVL2:
  47 0028 130101FF 		addi	sp,sp,-16
  48              		.cfi_def_cfa_offset 16
  49 002c 23341100 		sd	ra,8(sp)
  50 0030 23308100 		sd	s0,0(sp)
  51              		.cfi_offset 1, -8
  52              		.cfi_offset 8, -16
  53 0034 13040101 		addi	s0,sp,16
  54              		.cfi_def_cfa 8, 0
  15:src/syscall_cpp.cpp ****    mem_free(p);
  55              		.loc 1 15 4
  56              		.loc 1 15 12 is_stmt 0
  57 0038 97000000 		call	mem_free@plt
  57      E7800000 
  58              	.LVL3:
  16:src/syscall_cpp.cpp **** }
  59              		.loc 1 16 1
  60 0040 83308100 		ld	ra,8(sp)
  61              		.cfi_restore 1
  62 0044 03340100 		ld	s0,0(sp)
  63              		.cfi_restore 8
  64              		.cfi_def_cfa 2, 16
  65 0048 13010101 		addi	sp,sp,16
  66              		.cfi_def_cfa_offset 0
  67 004c 67800000 		jr	ra
  68              		.cfi_endproc
  69              	.LFE1:
  71              		.align	2
  72              		.globl	_ZN6Thread5startEv
  74              	_ZN6Thread5startEv:
  75              	.LFB2:
  17:src/syscall_cpp.cpp **** 
  18:src/syscall_cpp.cpp **** //Thread
  19:src/syscall_cpp.cpp **** 
  20:src/syscall_cpp.cpp **** void Thread::start() {
  76              		.loc 1 20 22 is_stmt 1
  77              		.cfi_startproc
  78              	.LVL4:
  79 0050 130101FF 		addi	sp,sp,-16
  80              		.cfi_def_cfa_offset 16
  81 0054 23341100 		sd	ra,8(sp)
  82 0058 23308100 		sd	s0,0(sp)
  83              		.cfi_offset 1, -8
  84              		.cfi_offset 8, -16
  85 005c 13040101 		addi	s0,sp,16
  86              		.cfi_def_cfa 8, 0
  21:src/syscall_cpp.cpp ****     myHandle->start();
  87              		.loc 1 21 5
  88              		.loc 1 21 20 is_stmt 0
  89 0060 03350500 		ld	a0,0(a0)
  90              	.LVL5:
  91 0064 97000000 		call	_ZN3PCB5startEv@plt
  91      E7800000 
  92              	.LVL6:
  22:src/syscall_cpp.cpp **** }
  93              		.loc 1 22 1
  94 006c 83308100 		ld	ra,8(sp)
GAS LISTING /tmp/ccon7eFG.s 			page 3


  95              		.cfi_restore 1
  96 0070 03340100 		ld	s0,0(sp)
  97              		.cfi_restore 8
  98              		.cfi_def_cfa 2, 16
  99 0074 13010101 		addi	sp,sp,16
 100              		.cfi_def_cfa_offset 0
 101 0078 67800000 		jr	ra
 102              		.cfi_endproc
 103              	.LFE2:
 105              		.align	2
 106              		.globl	_ZN6Thread8dispatchEv
 108              	_ZN6Thread8dispatchEv:
 109              	.LFB3:
  23:src/syscall_cpp.cpp **** 
  24:src/syscall_cpp.cpp **** void Thread::dispatch() {
 110              		.loc 1 24 25 is_stmt 1
 111              		.cfi_startproc
 112 007c 130101FF 		addi	sp,sp,-16
 113              		.cfi_def_cfa_offset 16
 114 0080 23348100 		sd	s0,8(sp)
 115              		.cfi_offset 8, -8
 116 0084 13040101 		addi	s0,sp,16
 117              		.cfi_def_cfa 8, 0
  25:src/syscall_cpp.cpp ****     //PCB::dispatch();
  26:src/syscall_cpp.cpp **** }
 118              		.loc 1 26 1 is_stmt 0
 119 0088 03348100 		ld	s0,8(sp)
 120              		.cfi_restore 8
 121              		.cfi_def_cfa 2, 16
 122 008c 13010101 		addi	sp,sp,16
 123              		.cfi_def_cfa_offset 0
 124 0090 67800000 		jr	ra
 125              		.cfi_endproc
 126              	.LFE3:
 128              		.align	2
 129              		.globl	_ZN6Thread5sleepEm
 131              	_ZN6Thread5sleepEm:
 132              	.LFB4:
  27:src/syscall_cpp.cpp **** 
  28:src/syscall_cpp.cpp **** void Thread::sleep(time_t time) {
 133              		.loc 1 28 33 is_stmt 1
 134              		.cfi_startproc
 135              	.LVL7:
 136 0094 130101FF 		addi	sp,sp,-16
 137              		.cfi_def_cfa_offset 16
 138 0098 23341100 		sd	ra,8(sp)
 139 009c 23308100 		sd	s0,0(sp)
 140              		.cfi_offset 1, -8
 141              		.cfi_offset 8, -16
 142 00a0 13040101 		addi	s0,sp,16
 143              		.cfi_def_cfa 8, 0
  29:src/syscall_cpp.cpp ****     PCB::sleep(time);
 144              		.loc 1 29 5
 145              		.loc 1 29 15 is_stmt 0
 146 00a4 97000000 		call	_ZN3PCB5sleepEm@plt
 146      E7800000 
 147              	.LVL8:
GAS LISTING /tmp/ccon7eFG.s 			page 4


  30:src/syscall_cpp.cpp **** }
 148              		.loc 1 30 1
 149 00ac 83308100 		ld	ra,8(sp)
 150              		.cfi_restore 1
 151 00b0 03340100 		ld	s0,0(sp)
 152              		.cfi_restore 8
 153              		.cfi_def_cfa 2, 16
 154 00b4 13010101 		addi	sp,sp,16
 155              		.cfi_def_cfa_offset 0
 156 00b8 67800000 		jr	ra
 157              		.cfi_endproc
 158              	.LFE4:
 160              	.Letext0:
 161              		.file 2 "src/../h/../lib/hw.h"
 162              		.file 3 "src/../h/PCB.h"
 163              		.file 4 "src/../h/syscall_cpp.h"
 164              		.file 5 "src/../h/syscall_c.h"
GAS LISTING /tmp/ccon7eFG.s 			page 5


DEFINED SYMBOLS
                            *ABS*:0000000000000000 syscall_cpp.cpp
     /tmp/ccon7eFG.s:9      .text:0000000000000000 _Znwm
     /tmp/ccon7eFG.s:13     .text:0000000000000000 .L0 
     /tmp/ccon7eFG.s:15     .text:0000000000000000 .L0 
     /tmp/ccon7eFG.s:16     .text:0000000000000004 .L0 
     /tmp/ccon7eFG.s:19     .text:000000000000000c .L0 
     /tmp/ccon7eFG.s:20     .text:000000000000000c .L0 
     /tmp/ccon7eFG.s:22     .text:0000000000000010 .L0 
     /tmp/ccon7eFG.s:24     .text:0000000000000010 .L0 
     /tmp/ccon7eFG.s:25     .text:0000000000000010 .L0 
     /tmp/ccon7eFG.s:28     .text:0000000000000018 .L0 
     /tmp/ccon7eFG.s:29     .text:000000000000001c .L0 
     /tmp/ccon7eFG.s:31     .text:0000000000000020 .L0 
     /tmp/ccon7eFG.s:32     .text:0000000000000020 .L0 
     /tmp/ccon7eFG.s:34     .text:0000000000000024 .L0 
     /tmp/ccon7eFG.s:36     .text:0000000000000028 .L0 
     /tmp/ccon7eFG.s:42     .text:0000000000000028 _ZdlPv
     /tmp/ccon7eFG.s:45     .text:0000000000000028 .L0 
     /tmp/ccon7eFG.s:47     .text:0000000000000028 .L0 
     /tmp/ccon7eFG.s:48     .text:000000000000002c .L0 
     /tmp/ccon7eFG.s:51     .text:0000000000000034 .L0 
     /tmp/ccon7eFG.s:52     .text:0000000000000034 .L0 
     /tmp/ccon7eFG.s:54     .text:0000000000000038 .L0 
     /tmp/ccon7eFG.s:56     .text:0000000000000038 .L0 
     /tmp/ccon7eFG.s:57     .text:0000000000000038 .L0 
     /tmp/ccon7eFG.s:60     .text:0000000000000040 .L0 
     /tmp/ccon7eFG.s:61     .text:0000000000000044 .L0 
     /tmp/ccon7eFG.s:63     .text:0000000000000048 .L0 
     /tmp/ccon7eFG.s:64     .text:0000000000000048 .L0 
     /tmp/ccon7eFG.s:66     .text:000000000000004c .L0 
     /tmp/ccon7eFG.s:68     .text:0000000000000050 .L0 
     /tmp/ccon7eFG.s:74     .text:0000000000000050 _ZN6Thread5startEv
     /tmp/ccon7eFG.s:77     .text:0000000000000050 .L0 
     /tmp/ccon7eFG.s:79     .text:0000000000000050 .L0 
     /tmp/ccon7eFG.s:80     .text:0000000000000054 .L0 
     /tmp/ccon7eFG.s:83     .text:000000000000005c .L0 
     /tmp/ccon7eFG.s:84     .text:000000000000005c .L0 
     /tmp/ccon7eFG.s:86     .text:0000000000000060 .L0 
     /tmp/ccon7eFG.s:88     .text:0000000000000060 .L0 
     /tmp/ccon7eFG.s:89     .text:0000000000000060 .L0 
     /tmp/ccon7eFG.s:94     .text:000000000000006c .L0 
     /tmp/ccon7eFG.s:95     .text:0000000000000070 .L0 
     /tmp/ccon7eFG.s:97     .text:0000000000000074 .L0 
     /tmp/ccon7eFG.s:98     .text:0000000000000074 .L0 
     /tmp/ccon7eFG.s:100    .text:0000000000000078 .L0 
     /tmp/ccon7eFG.s:102    .text:000000000000007c .L0 
     /tmp/ccon7eFG.s:108    .text:000000000000007c _ZN6Thread8dispatchEv
     /tmp/ccon7eFG.s:111    .text:000000000000007c .L0 
     /tmp/ccon7eFG.s:112    .text:000000000000007c .L0 
     /tmp/ccon7eFG.s:113    .text:0000000000000080 .L0 
     /tmp/ccon7eFG.s:115    .text:0000000000000084 .L0 
     /tmp/ccon7eFG.s:117    .text:0000000000000088 .L0 
     /tmp/ccon7eFG.s:119    .text:0000000000000088 .L0 
     /tmp/ccon7eFG.s:120    .text:000000000000008c .L0 
     /tmp/ccon7eFG.s:121    .text:000000000000008c .L0 
     /tmp/ccon7eFG.s:123    .text:0000000000000090 .L0 
GAS LISTING /tmp/ccon7eFG.s 			page 6


     /tmp/ccon7eFG.s:125    .text:0000000000000094 .L0 
     /tmp/ccon7eFG.s:131    .text:0000000000000094 _ZN6Thread5sleepEm
     /tmp/ccon7eFG.s:134    .text:0000000000000094 .L0 
     /tmp/ccon7eFG.s:136    .text:0000000000000094 .L0 
     /tmp/ccon7eFG.s:137    .text:0000000000000098 .L0 
     /tmp/ccon7eFG.s:140    .text:00000000000000a0 .L0 
     /tmp/ccon7eFG.s:141    .text:00000000000000a0 .L0 
     /tmp/ccon7eFG.s:143    .text:00000000000000a4 .L0 
     /tmp/ccon7eFG.s:145    .text:00000000000000a4 .L0 
     /tmp/ccon7eFG.s:146    .text:00000000000000a4 .L0 
     /tmp/ccon7eFG.s:149    .text:00000000000000ac .L0 
     /tmp/ccon7eFG.s:150    .text:00000000000000b0 .L0 
     /tmp/ccon7eFG.s:152    .text:00000000000000b4 .L0 
     /tmp/ccon7eFG.s:153    .text:00000000000000b4 .L0 
     /tmp/ccon7eFG.s:155    .text:00000000000000b8 .L0 
     /tmp/ccon7eFG.s:157    .text:00000000000000bc .L0 
     /tmp/ccon7eFG.s:165    .text:00000000000000bc .L0 
     /tmp/ccon7eFG.s:675    .debug_abbrev:0000000000000000 .Ldebug_abbrev0
     /tmp/ccon7eFG.s:1388   .debug_str:0000000000000098 .LASF43
     /tmp/ccon7eFG.s:1452   .debug_str:00000000000002b6 .LASF44
     /tmp/ccon7eFG.s:1382   .debug_str:0000000000000058 .LASF45
     /tmp/ccon7eFG.s:5      .text:0000000000000000 .Ltext0
     /tmp/ccon7eFG.s:160    .text:00000000000000bc .Letext0
     /tmp/ccon7eFG.s:1366   .debug_line:0000000000000000 .Ldebug_line0
     /tmp/ccon7eFG.s:1430   .debug_str:0000000000000235 .LASF0
     /tmp/ccon7eFG.s:1440   .debug_str:000000000000025c .LASF1
     /tmp/ccon7eFG.s:1426   .debug_str:0000000000000214 .LASF2
     /tmp/ccon7eFG.s:1412   .debug_str:00000000000001da .LASF4
     /tmp/ccon7eFG.s:1458   .debug_str:00000000000002e6 .LASF3
     /tmp/ccon7eFG.s:1372   .debug_str:0000000000000018 .LASF5
     /tmp/ccon7eFG.s:1386   .debug_str:0000000000000091 .LASF6
     /tmp/ccon7eFG.s:1442   .debug_str:000000000000026f .LASF7
     /tmp/ccon7eFG.s:1428   .debug_str:0000000000000222 .LASF8
     /tmp/ccon7eFG.s:1470   .debug_str:0000000000000332 .LASF9
     /tmp/ccon7eFG.s:1404   .debug_str:0000000000000196 .LASF10
     /tmp/ccon7eFG.s:1444   .debug_str:0000000000000282 .LASF11
     /tmp/ccon7eFG.s:1466   .debug_str:000000000000031c .LASF12
     /tmp/ccon7eFG.s:1376   .debug_str:0000000000000025 .LASF13
     /tmp/ccon7eFG.s:1368   .debug_str:0000000000000000 .LASF14
     /tmp/ccon7eFG.s:1378   .debug_str:0000000000000035 .LASF15
     /tmp/ccon7eFG.s:1456   .debug_str:00000000000002d0 .LASF16
     /tmp/ccon7eFG.s:1384   .debug_str:000000000000007b .LASF17
     /tmp/ccon7eFG.s:1370   .debug_str:0000000000000010 .LASF22
     /tmp/ccon7eFG.s:1374   .debug_str:000000000000001f .LASF18
     /tmp/ccon7eFG.s:1416   .debug_str:00000000000001ea .LASF19
     /tmp/ccon7eFG.s:1434   .debug_str:000000000000024b .LASF20
     /tmp/ccon7eFG.s:1380   .debug_str:0000000000000041 .LASF46
     /tmp/ccon7eFG.s:1438   .debug_str:0000000000000256 .LASF21
     /tmp/ccon7eFG.s:1410   .debug_str:00000000000001ca .LASF28
     /tmp/ccon7eFG.s:1432   .debug_str:0000000000000242 .LASF31
     /tmp/ccon7eFG.s:1408   .debug_str:00000000000001b7 .LASF32
     /tmp/ccon7eFG.s:1436   .debug_str:0000000000000250 .LASF34
     /tmp/ccon7eFG.s:1420   .debug_str:00000000000001f7 .LASF35
     /tmp/ccon7eFG.s:1394   .debug_str:0000000000000151 .LASF47
     /tmp/ccon7eFG.s:1454   .debug_str:00000000000002ca .LASF48
     /tmp/ccon7eFG.s:1462   .debug_str:0000000000000302 .LASF49
     /tmp/ccon7eFG.s:1418   .debug_str:00000000000001ef .LASF23
GAS LISTING /tmp/ccon7eFG.s 			page 7


     /tmp/ccon7eFG.s:1474   .debug_str:0000000000000347 .LASF24
     /tmp/ccon7eFG.s:1392   .debug_str:000000000000014a .LASF50
     /tmp/ccon7eFG.s:1478   .debug_str:000000000000035e .LASF51
     /tmp/ccon7eFG.s:1414   .debug_str:00000000000001e1 .LASF25
     /tmp/ccon7eFG.s:1396   .debug_str:0000000000000159 .LASF26
     /tmp/ccon7eFG.s:1468   .debug_str:000000000000032b .LASF27
     /tmp/ccon7eFG.s:1446   .debug_str:0000000000000291 .LASF29
     /tmp/ccon7eFG.s:1400   .debug_str:0000000000000174 .LASF30
     /tmp/ccon7eFG.s:1398   .debug_str:000000000000015e .LASF33
     /tmp/ccon7eFG.s:1406   .debug_str:00000000000001a4 .LASF36
     /tmp/ccon7eFG.s:1402   .debug_str:0000000000000187 .LASF37
     /tmp/ccon7eFG.s:1480   .debug_str:000000000000036f .LASF38
     /tmp/ccon7eFG.s:132    .text:0000000000000094 .LFB4
     /tmp/ccon7eFG.s:158    .text:00000000000000bc .LFE4
     /tmp/ccon7eFG.s:1472   .debug_str:0000000000000342 .LASF39
     /tmp/ccon7eFG.s:1297   .debug_loc:0000000000000000 .LLST3
     /tmp/ccon7eFG.s:147    .text:00000000000000ac .LVL8
     /tmp/ccon7eFG.s:109    .text:000000000000007c .LFB3
     /tmp/ccon7eFG.s:126    .text:0000000000000094 .LFE3
     /tmp/ccon7eFG.s:75     .text:0000000000000050 .LFB2
     /tmp/ccon7eFG.s:103    .text:000000000000007c .LFE2
     /tmp/ccon7eFG.s:1450   .debug_str:00000000000002b1 .LASF52
     /tmp/ccon7eFG.s:1311   .debug_loc:0000000000000039 .LLST2
     /tmp/ccon7eFG.s:92     .text:000000000000006c .LVL6
     /tmp/ccon7eFG.s:1390   .debug_str:000000000000013a .LASF53
     /tmp/ccon7eFG.s:1424   .debug_str:000000000000020d .LASF54
     /tmp/ccon7eFG.s:43     .text:0000000000000028 .LFB1
     /tmp/ccon7eFG.s:69     .text:0000000000000050 .LFE1
     /tmp/ccon7eFG.s:1325   .debug_loc:0000000000000072 .LLST1
     /tmp/ccon7eFG.s:58     .text:0000000000000040 .LVL3
     /tmp/ccon7eFG.s:1476   .debug_str:0000000000000351 .LASF55
     /tmp/ccon7eFG.s:1422   .debug_str:0000000000000207 .LASF56
     /tmp/ccon7eFG.s:10     .text:0000000000000000 .LFB0
     /tmp/ccon7eFG.s:37     .text:0000000000000028 .LFE0
     /tmp/ccon7eFG.s:1464   .debug_str:0000000000000317 .LASF40
     /tmp/ccon7eFG.s:1339   .debug_loc:00000000000000ab .LLST0
     /tmp/ccon7eFG.s:26     .text:0000000000000018 .LVL1
     /tmp/ccon7eFG.s:1448   .debug_str:00000000000002a8 .LASF41
     /tmp/ccon7eFG.s:1460   .debug_str:00000000000002f8 .LASF42
     /tmp/ccon7eFG.s:135    .text:0000000000000094 .LVL7
     /tmp/ccon7eFG.s:78     .text:0000000000000050 .LVL4
     /tmp/ccon7eFG.s:90     .text:0000000000000064 .LVL5
     /tmp/ccon7eFG.s:46     .text:0000000000000028 .LVL2
     /tmp/ccon7eFG.s:14     .text:0000000000000000 .LVL0
     /tmp/ccon7eFG.s:166    .debug_info:0000000000000000 .Ldebug_info0

UNDEFINED SYMBOLS
mem_alloc
mem_free
_ZN3PCB5startEv
_ZN3PCB5sleepEm
