GAS LISTING /tmp/ccBShCq6.s 			page 1


   1              		.file	"syscall_c.c"
   2              		.option nopic
   3              		.option norelax
   4              		.text
   5              	.Ltext0:
   6              		.cfi_sections	.debug_frame
   7              		.align	2
   8              		.globl	mem_alloc
  10              	mem_alloc:
  11              	.LFB0:
  12              		.file 1 "src/syscall_c.c"
   1:src/syscall_c.c **** //
   2:src/syscall_c.c **** // Created by os on 4/9/22.
   3:src/syscall_c.c **** //
   4:src/syscall_c.c **** 
   5:src/syscall_c.c **** #include "../h/syscall_c.h"
   6:src/syscall_c.c **** 
   7:src/syscall_c.c **** #ifdef __cplusplus
   8:src/syscall_c.c **** extern "C"
   9:src/syscall_c.c **** #endif
  10:src/syscall_c.c **** void* mem_alloc(size_t size)
  11:src/syscall_c.c **** {
  13              		.loc 1 11 1
  14              		.cfi_startproc
  15              	.LVL0:
  16 0000 130101FF 		addi	sp,sp,-16
  17              		.cfi_def_cfa_offset 16
  18 0004 23348100 		sd	s0,8(sp)
  19              		.cfi_offset 8, -8
  20 0008 13040101 		addi	s0,sp,16
  21              		.cfi_def_cfa 8, 0
  12:src/syscall_c.c ****     //prepare for system call
  13:src/syscall_c.c ****     __asm__ volatile("li a0, 1");
  22              		.loc 1 13 5
  23              	#APP
  24              	# 13 "src/syscall_c.c" 1
  14              	    uint64 numBlocks = (size + MEM_BLOCK_SIZE - 1) / MEM_BLOCK_SIZE;
  25              		li a0, 1
  26              	# 0 "" 2
  27              		.loc 1 14 5
  28              		.loc 1 14 47 is_stmt 0
  29              	#NO_APP
  30 0010 1305F503 		addi	a0,a0,63
  31              	.LVL1:
  32              		.loc 1 14 12
  33 0014 13556500 		srli	a0,a0,6
  34              	.LVL2:
  15:src/syscall_c.c ****     __asm__ volatile("mv a1, %0" :  : "r"(numBlocks));
  35              		.loc 1 15 5 is_stmt 1
  36              	#APP
  37              	# 15 "src/syscall_c.c" 1
  16              	
  17:src/syscall_c.c ****     __asm__ volatile("ecall"); // system call
  38              		mv a1, a0
  39              	# 0 "" 2
  40              		.loc 1 17 5
  41              	# 17 "src/syscall_c.c" 1
GAS LISTING /tmp/ccBShCq6.s 			page 2


  18              	
  19:src/syscall_c.c ****     //get the address
  20:src/syscall_c.c ****     uint64 allocatedAddr = 0x01;
  42              		ecall
  43              	# 0 "" 2
  44              		.loc 1 20 5
  45              	.LVL3:
  21:src/syscall_c.c ****     __asm__ volatile("mv %0, a0" : "=r"(allocatedAddr));
  46              		.loc 1 21 5
  47              	# 21 "src/syscall_c.c" 1
  22              	
  48              		mv a0, a0
  49              	# 0 "" 2
  50              	.LVL4:
  23:src/syscall_c.c ****     return (void*)allocatedAddr;
  51              		.loc 1 23 5
  24:src/syscall_c.c **** }
  52              		.loc 1 24 1 is_stmt 0
  53              	#NO_APP
  54 0024 03348100 		ld	s0,8(sp)
  55              		.cfi_restore 8
  56              		.cfi_def_cfa 2, 16
  57 0028 13010101 		addi	sp,sp,16
  58              		.cfi_def_cfa_offset 0
  59 002c 67800000 		jr	ra
  60              		.cfi_endproc
  61              	.LFE0:
  63              		.align	2
  64              		.globl	mem_free
  66              	mem_free:
  67              	.LFB1:
  25:src/syscall_c.c **** 
  26:src/syscall_c.c **** #ifdef __cplusplus
  27:src/syscall_c.c **** extern "C"
  28:src/syscall_c.c **** #endif
  29:src/syscall_c.c **** int mem_free(void* p)
  30:src/syscall_c.c **** {
  68              		.loc 1 30 1 is_stmt 1
  69              		.cfi_startproc
  70              	.LVL5:
  71 0030 130101FF 		addi	sp,sp,-16
  72              		.cfi_def_cfa_offset 16
  73 0034 23348100 		sd	s0,8(sp)
  74              		.cfi_offset 8, -8
  75 0038 13040101 		addi	s0,sp,16
  76              		.cfi_def_cfa 8, 0
  31:src/syscall_c.c ****     //prepare for system call
  32:src/syscall_c.c ****     __asm__ volatile("li a0, 2");
  77              		.loc 1 32 5
  78              	#APP
  79              	# 32 "src/syscall_c.c" 1
  33              	    uint64 addrFree = (uint64)p;
  80              		li a0, 2
  81              	# 0 "" 2
  82              		.loc 1 33 5
  83              	.LVL6:
  34:src/syscall_c.c ****     __asm__ volatile("mv a1, %0" :  : "r"(addrFree));
GAS LISTING /tmp/ccBShCq6.s 			page 3


  84              		.loc 1 34 5
  85              	# 34 "src/syscall_c.c" 1
  35              	
  36:src/syscall_c.c ****     __asm__ volatile("ecall"); // system call
  86              		mv a1, a0
  87              	# 0 "" 2
  88              		.loc 1 36 5
  89              	# 36 "src/syscall_c.c" 1
  37              	
  38:src/syscall_c.c ****     //get the result of system call
  39:src/syscall_c.c ****     uint64 result;
  90              		ecall
  91              	# 0 "" 2
  92              		.loc 1 39 5
  40:src/syscall_c.c ****     __asm__ volatile("mv %0, a0" : "=r"(result));
  93              		.loc 1 40 5
  94              	# 40 "src/syscall_c.c" 1
  41              	
  95              		mv a0, a0
  96              	# 0 "" 2
  97              	.LVL7:
  42:src/syscall_c.c ****     return result;
  98              		.loc 1 42 5
  43:src/syscall_c.c **** }
  99              		.loc 1 43 1 is_stmt 0
 100              	#NO_APP
 101 004c 1B050500 		sext.w	a0,a0
 102              	.LVL8:
 103 0050 03348100 		ld	s0,8(sp)
 104              		.cfi_restore 8
 105              		.cfi_def_cfa 2, 16
 106 0054 13010101 		addi	sp,sp,16
 107              		.cfi_def_cfa_offset 0
 108 0058 67800000 		jr	ra
 109              		.cfi_endproc
 110              	.LFE1:
 112              		.align	2
 113              		.globl	thread_create
 115              	thread_create:
 116              	.LFB2:
  44:src/syscall_c.c **** 
  45:src/syscall_c.c **** #ifdef __cplusplus
  46:src/syscall_c.c **** extern "C"
  47:src/syscall_c.c **** #endif
  48:src/syscall_c.c **** int thread_create(thread_t* handle, void (*start_routine)(void*), void* args)
  49:src/syscall_c.c **** {
 117              		.loc 1 49 1 is_stmt 1
 118              		.cfi_startproc
 119              	.LVL9:
 120 005c 130101FF 		addi	sp,sp,-16
 121              		.cfi_def_cfa_offset 16
 122 0060 23341100 		sd	ra,8(sp)
 123 0064 23308100 		sd	s0,0(sp)
 124              		.cfi_offset 1, -8
 125              		.cfi_offset 8, -16
 126 0068 13040101 		addi	s0,sp,16
 127              		.cfi_def_cfa 8, 0
GAS LISTING /tmp/ccBShCq6.s 			page 4


  50:src/syscall_c.c ****     //initialize registers
  51:src/syscall_c.c ****     __asm__ volatile("li a0, 0x11");
 128              		.loc 1 51 5
 129              	#APP
 130              	# 51 "src/syscall_c.c" 1
  52              	    //uint64 start_routine_addres = (uint64)start_routine;
  53:src/syscall_c.c ****     __asm__ volatile("mv a2, %0" :  : "r"((uint64)start_routine));
 131              		li a0, 0x11
 132              	# 0 "" 2
 133              		.loc 1 53 5
 134              	# 53 "src/syscall_c.c" 1
  54              	    __asm__ volatile("mv a3, %0" :  : "r"((uint64)args));
 135              		mv a2, a1
 136              	# 0 "" 2
 137              		.loc 1 54 5
 138              	# 54 "src/syscall_c.c" 1
  55              	
  56:src/syscall_c.c ****     void * stack_space = mem_alloc(DEFAULT_STACK_SIZE);
 139              		mv a3, a2
 140              	# 0 "" 2
 141              		.loc 1 56 5
 142              		.loc 1 56 26 is_stmt 0
 143              	#NO_APP
 144 0078 37150000 		li	a0,4096
 145              	.LVL10:
 146 007c 97000000 		call	mem_alloc
 146      E7800000 
 147              	.LVL11:
  57:src/syscall_c.c **** 
  58:src/syscall_c.c ****     //handle this error
  59:src/syscall_c.c ****     if(stack_space == 0)
 148              		.loc 1 59 5 is_stmt 1
 149              		.loc 1 59 7 is_stmt 0
 150 0084 63020502 		beqz	a0,.L7
  60:src/syscall_c.c ****         return -1;
  61:src/syscall_c.c **** 
  62:src/syscall_c.c ****     __asm__ volatile("mv a4, %0" :  : "r"((uint64)stack_space));
 151              		.loc 1 62 5 is_stmt 1
 152              	#APP
 153              	# 62 "src/syscall_c.c" 1
  63              	
  64:src/syscall_c.c ****     //todo
  65:src/syscall_c.c ****     __asm__ volatile("ecall");
 154              		mv a4, a0
 155              	# 0 "" 2
 156              		.loc 1 65 5
 157              	# 65 "src/syscall_c.c" 1
  66              	
  67:src/syscall_c.c ****     uint64 result;
 158              		ecall
 159              	# 0 "" 2
 160              		.loc 1 67 5
  68:src/syscall_c.c ****     __asm__ volatile("mv %0, a0" : "=r"(result));
 161              		.loc 1 68 5
 162              	# 68 "src/syscall_c.c" 1
  69              	
 163              		mv a0, a0
GAS LISTING /tmp/ccBShCq6.s 			page 5


 164              	# 0 "" 2
 165              	.LVL12:
  70:src/syscall_c.c ****     return result;
 166              		.loc 1 70 5
 167              		.loc 1 70 12 is_stmt 0
 168              	#NO_APP
 169 0094 1B050500 		sext.w	a0,a0
 170              	.LVL13:
 171              	.L6:
  71:src/syscall_c.c **** }
 172              		.loc 1 71 1
 173 0098 83308100 		ld	ra,8(sp)
 174              		.cfi_remember_state
 175              		.cfi_restore 1
 176 009c 03340100 		ld	s0,0(sp)
 177              		.cfi_restore 8
 178              		.cfi_def_cfa 2, 16
 179 00a0 13010101 		addi	sp,sp,16
 180              		.cfi_def_cfa_offset 0
 181 00a4 67800000 		jr	ra
 182              	.LVL14:
 183              	.L7:
 184              		.cfi_restore_state
  60:src/syscall_c.c **** 
 185              		.loc 1 60 16
 186 00a8 1305F0FF 		li	a0,-1
 187              	.LVL15:
 188 00ac 6FF0DFFE 		j	.L6
 189              		.cfi_endproc
 190              	.LFE2:
 192              	.Letext0:
 193              		.file 2 "src/../h/../lib/hw.h"
 194              		.file 3 "src/../h/syscall_c.h"
GAS LISTING /tmp/ccBShCq6.s 			page 6


DEFINED SYMBOLS
                            *ABS*:0000000000000000 syscall_c.c
     /tmp/ccBShCq6.s:10     .text:0000000000000000 mem_alloc
     /tmp/ccBShCq6.s:14     .text:0000000000000000 .L0 
     /tmp/ccBShCq6.s:16     .text:0000000000000000 .L0 
     /tmp/ccBShCq6.s:17     .text:0000000000000004 .L0 
     /tmp/ccBShCq6.s:19     .text:0000000000000008 .L0 
     /tmp/ccBShCq6.s:21     .text:000000000000000c .L0 
     src/syscall_c.c:13     .text:000000000000000c .L0 
     /tmp/ccBShCq6.s:28     .text:0000000000000010 .L0 
     /tmp/ccBShCq6.s:30     .text:0000000000000010 .L0 
     /tmp/ccBShCq6.s:33     .text:0000000000000014 .L0 
     src/syscall_c.c:15     .text:0000000000000018 .L0 
     src/syscall_c.c:17     .text:000000000000001c .L0 
     /tmp/ccBShCq6.s:46     .text:0000000000000020 .L0 
     src/syscall_c.c:21     .text:0000000000000020 .L0 
     /tmp/ccBShCq6.s:52     .text:0000000000000024 .L0 
     /tmp/ccBShCq6.s:54     .text:0000000000000024 .L0 
     /tmp/ccBShCq6.s:55     .text:0000000000000028 .L0 
     /tmp/ccBShCq6.s:56     .text:0000000000000028 .L0 
     /tmp/ccBShCq6.s:58     .text:000000000000002c .L0 
     /tmp/ccBShCq6.s:60     .text:0000000000000030 .L0 
     /tmp/ccBShCq6.s:66     .text:0000000000000030 mem_free
     /tmp/ccBShCq6.s:69     .text:0000000000000030 .L0 
     /tmp/ccBShCq6.s:71     .text:0000000000000030 .L0 
     /tmp/ccBShCq6.s:72     .text:0000000000000034 .L0 
     /tmp/ccBShCq6.s:74     .text:0000000000000038 .L0 
     /tmp/ccBShCq6.s:76     .text:000000000000003c .L0 
     src/syscall_c.c:32     .text:000000000000003c .L0 
     /tmp/ccBShCq6.s:84     .text:0000000000000040 .L0 
     src/syscall_c.c:34     .text:0000000000000040 .L0 
     src/syscall_c.c:36     .text:0000000000000044 .L0 
     /tmp/ccBShCq6.s:93     .text:0000000000000048 .L0 
     src/syscall_c.c:40     .text:0000000000000048 .L0 
     /tmp/ccBShCq6.s:99     .text:000000000000004c .L0 
     /tmp/ccBShCq6.s:101    .text:000000000000004c .L0 
     /tmp/ccBShCq6.s:104    .text:0000000000000054 .L0 
     /tmp/ccBShCq6.s:105    .text:0000000000000054 .L0 
     /tmp/ccBShCq6.s:107    .text:0000000000000058 .L0 
     /tmp/ccBShCq6.s:109    .text:000000000000005c .L0 
     /tmp/ccBShCq6.s:115    .text:000000000000005c thread_create
     /tmp/ccBShCq6.s:118    .text:000000000000005c .L0 
     /tmp/ccBShCq6.s:120    .text:000000000000005c .L0 
     /tmp/ccBShCq6.s:121    .text:0000000000000060 .L0 
     /tmp/ccBShCq6.s:124    .text:0000000000000068 .L0 
     /tmp/ccBShCq6.s:125    .text:0000000000000068 .L0 
     /tmp/ccBShCq6.s:127    .text:000000000000006c .L0 
     src/syscall_c.c:51     .text:000000000000006c .L0 
     src/syscall_c.c:53     .text:0000000000000070 .L0 
     src/syscall_c.c:54     .text:0000000000000074 .L0 
     /tmp/ccBShCq6.s:142    .text:0000000000000078 .L0 
     /tmp/ccBShCq6.s:144    .text:0000000000000078 .L0 
     /tmp/ccBShCq6.s:149    .text:0000000000000084 .L0 
     /tmp/ccBShCq6.s:150    .text:0000000000000084 .L0 
     src/syscall_c.c:62     .text:0000000000000088 .L0 
     src/syscall_c.c:65     .text:000000000000008c .L0 
     /tmp/ccBShCq6.s:161    .text:0000000000000090 .L0 
GAS LISTING /tmp/ccBShCq6.s 			page 7


     src/syscall_c.c:68     .text:0000000000000090 .L0 
     /tmp/ccBShCq6.s:167    .text:0000000000000094 .L0 
     /tmp/ccBShCq6.s:169    .text:0000000000000094 .L0 
     /tmp/ccBShCq6.s:173    .text:0000000000000098 .L0 
     /tmp/ccBShCq6.s:174    .text:000000000000009c .L0 
     /tmp/ccBShCq6.s:175    .text:000000000000009c .L0 
     /tmp/ccBShCq6.s:177    .text:00000000000000a0 .L0 
     /tmp/ccBShCq6.s:178    .text:00000000000000a0 .L0 
     /tmp/ccBShCq6.s:180    .text:00000000000000a4 .L0 
     /tmp/ccBShCq6.s:184    .text:00000000000000a8 .L0 
     /tmp/ccBShCq6.s:186    .text:00000000000000a8 .L0 
     /tmp/ccBShCq6.s:189    .text:00000000000000b0 .L0 
     /tmp/ccBShCq6.s:195    .text:00000000000000b0 .L0 
                     .debug_frame:0000000000000000 .L0 
     /tmp/ccBShCq6.s:183    .text:00000000000000a8 .L7
     /tmp/ccBShCq6.s:171    .text:0000000000000098 .L6
     /tmp/ccBShCq6.s:464    .debug_abbrev:0000000000000000 .Ldebug_abbrev0
     /tmp/ccBShCq6.s:968    .debug_str:00000000000001af .LASF29
     /tmp/ccBShCq6.s:918    .debug_str:000000000000004b .LASF30
     /tmp/ccBShCq6.s:924    .debug_str:0000000000000079 .LASF31
     /tmp/ccBShCq6.s:5      .text:0000000000000000 .Ltext0
     /tmp/ccBShCq6.s:192    .text:00000000000000b0 .Letext0
     /tmp/ccBShCq6.s:904    .debug_line:0000000000000000 .Ldebug_line0
     /tmp/ccBShCq6.s:906    .debug_str:0000000000000000 .LASF0
     /tmp/ccBShCq6.s:952    .debug_str:0000000000000152 .LASF1
     /tmp/ccBShCq6.s:936    .debug_str:00000000000000d9 .LASF2
     /tmp/ccBShCq6.s:928    .debug_str:00000000000000af .LASF4
     /tmp/ccBShCq6.s:920    .debug_str:000000000000005b .LASF3
     /tmp/ccBShCq6.s:914    .debug_str:0000000000000034 .LASF5
     /tmp/ccBShCq6.s:926    .debug_str:000000000000009c .LASF6
     /tmp/ccBShCq6.s:950    .debug_str:000000000000013f .LASF7
     /tmp/ccBShCq6.s:960    .debug_str:0000000000000189 .LASF8
     /tmp/ccBShCq6.s:910    .debug_str:0000000000000017 .LASF9
     /tmp/ccBShCq6.s:912    .debug_str:0000000000000025 .LASF10
     /tmp/ccBShCq6.s:956    .debug_str:0000000000000175 .LASF11
     /tmp/ccBShCq6.s:916    .debug_str:000000000000003b .LASF12
     /tmp/ccBShCq6.s:954    .debug_str:0000000000000165 .LASF13
     /tmp/ccBShCq6.s:934    .debug_str:00000000000000cd .LASF14
     /tmp/ccBShCq6.s:948    .debug_str:0000000000000129 .LASF15
     /tmp/ccBShCq6.s:942    .debug_str:0000000000000103 .LASF16
     /tmp/ccBShCq6.s:932    .debug_str:00000000000000c4 .LASF17
     /tmp/ccBShCq6.s:938    .debug_str:00000000000000e7 .LASF23
     /tmp/ccBShCq6.s:116    .text:000000000000005c .LFB2
     /tmp/ccBShCq6.s:190    .text:00000000000000b0 .LFE2
     /tmp/ccBShCq6.s:946    .debug_str:0000000000000122 .LASF18
     /tmp/ccBShCq6.s:746    .debug_loc:0000000000000000 .LLST6
     /tmp/ccBShCq6.s:930    .debug_str:00000000000000b6 .LASF19
     /tmp/ccBShCq6.s:760    .debug_loc:0000000000000039 .LLST7
     /tmp/ccBShCq6.s:966    .debug_str:00000000000001aa .LASF20
     /tmp/ccBShCq6.s:774    .debug_loc:0000000000000072 .LLST8
     /tmp/ccBShCq6.s:922    .debug_str:000000000000006d .LASF21
     /tmp/ccBShCq6.s:788    .debug_loc:00000000000000ab .LLST9
     /tmp/ccBShCq6.s:964    .debug_str:00000000000001a3 .LASF22
     /tmp/ccBShCq6.s:799    .debug_loc:00000000000000e1 .LLST10
     /tmp/ccBShCq6.s:147    .text:0000000000000084 .LVL11
     /tmp/ccBShCq6.s:970    .debug_str:000000000000024d .LASF24
     /tmp/ccBShCq6.s:67     .text:0000000000000030 .LFB1
GAS LISTING /tmp/ccBShCq6.s 			page 8


     /tmp/ccBShCq6.s:110    .text:000000000000005c .LFE1
     /tmp/ccBShCq6.s:806    .debug_loc:0000000000000104 .LLST3
     /tmp/ccBShCq6.s:944    .debug_str:0000000000000119 .LASF25
     /tmp/ccBShCq6.s:820    .debug_loc:000000000000013d .LLST4
     /tmp/ccBShCq6.s:834    .debug_loc:0000000000000176 .LLST5
     /tmp/ccBShCq6.s:962    .debug_str:0000000000000199 .LASF32
     /tmp/ccBShCq6.s:11     .text:0000000000000000 .LFB0
     /tmp/ccBShCq6.s:61     .text:0000000000000030 .LFE0
     /tmp/ccBShCq6.s:958    .debug_str:0000000000000184 .LASF26
     /tmp/ccBShCq6.s:841    .debug_loc:0000000000000199 .LLST0
     /tmp/ccBShCq6.s:908    .debug_str:000000000000000d .LASF27
     /tmp/ccBShCq6.s:861    .debug_loc:00000000000001e7 .LLST1
     /tmp/ccBShCq6.s:940    .debug_str:00000000000000f5 .LASF28
     /tmp/ccBShCq6.s:879    .debug_loc:0000000000000224 .LLST2
     /tmp/ccBShCq6.s:119    .text:000000000000005c .LVL9
     /tmp/ccBShCq6.s:145    .text:000000000000007c .LVL10
     /tmp/ccBShCq6.s:165    .text:0000000000000094 .LVL12
     /tmp/ccBShCq6.s:182    .text:00000000000000a8 .LVL14
     /tmp/ccBShCq6.s:187    .text:00000000000000ac .LVL15
     /tmp/ccBShCq6.s:170    .text:0000000000000098 .LVL13
     /tmp/ccBShCq6.s:70     .text:0000000000000030 .LVL5
     /tmp/ccBShCq6.s:97     .text:000000000000004c .LVL7
     /tmp/ccBShCq6.s:83     .text:0000000000000040 .LVL6
     /tmp/ccBShCq6.s:102    .text:0000000000000050 .LVL8
     /tmp/ccBShCq6.s:15     .text:0000000000000000 .LVL0
     /tmp/ccBShCq6.s:31     .text:0000000000000014 .LVL1
     /tmp/ccBShCq6.s:34     .text:0000000000000018 .LVL2
     /tmp/ccBShCq6.s:50     .text:0000000000000024 .LVL4
     /tmp/ccBShCq6.s:45     .text:0000000000000020 .LVL3
     /tmp/ccBShCq6.s:196    .debug_info:0000000000000000 .Ldebug_info0

NO UNDEFINED SYMBOLS
