GAS LISTING /tmp/ccrMZ9a9.s 			page 1


   1              		.file	"syscall_cpp.cpp"
   2              		.option pic
   3              		.option norelax
   4              		.text
   5              	.Ltext0:
   6              		.align	2
   7              		.globl	_Znwm
   9              	_Znwm:
  10              	.LFB0:
  11              		.file 1 "src/syscall_cpp.cpp"
   1:src/syscall_cpp.cpp **** //
   2:src/syscall_cpp.cpp **** // Created by os on 4/8/22.
   3:src/syscall_cpp.cpp **** //
   4:src/syscall_cpp.cpp **** 
   5:src/syscall_cpp.cpp **** #include "../h/syscall_cpp.h"
   6:src/syscall_cpp.cpp **** #include "../h/syscall_c.h"
   7:src/syscall_cpp.cpp **** 
   8:src/syscall_cpp.cpp **** //general
   9:src/syscall_cpp.cpp **** void * operator new(size_t size)
  10:src/syscall_cpp.cpp **** {
  12              		.loc 1 10 1
  13              		.cfi_startproc
  14              	.LVL0:
  15 0000 130101FF 		addi	sp,sp,-16
  16              		.cfi_def_cfa_offset 16
  17 0004 23341100 		sd	ra,8(sp)
  18 0008 23308100 		sd	s0,0(sp)
  19              		.cfi_offset 1, -8
  20              		.cfi_offset 8, -16
  21 000c 13040101 		addi	s0,sp,16
  22              		.cfi_def_cfa 8, 0
  11:src/syscall_cpp.cpp ****     return mem_alloc(size);
  23              		.loc 1 11 5
  24              		.loc 1 11 21 is_stmt 0
  25 0010 97000000 		call	mem_alloc@plt
  25      E7800000 
  26              	.LVL1:
  12:src/syscall_cpp.cpp **** }
  27              		.loc 1 12 1
  28 0018 83308100 		ld	ra,8(sp)
  29              		.cfi_restore 1
  30 001c 03340100 		ld	s0,0(sp)
  31              		.cfi_restore 8
  32              		.cfi_def_cfa 2, 16
  33 0020 13010101 		addi	sp,sp,16
  34              		.cfi_def_cfa_offset 0
  35 0024 67800000 		jr	ra
  36              		.cfi_endproc
  37              	.LFE0:
  39              		.align	2
  40              		.globl	_ZdlPv
  42              	_ZdlPv:
  43              	.LFB1:
  13:src/syscall_cpp.cpp **** 
  14:src/syscall_cpp.cpp **** void operator delete(void * p)
  15:src/syscall_cpp.cpp **** {
  44              		.loc 1 15 1 is_stmt 1
GAS LISTING /tmp/ccrMZ9a9.s 			page 2


  45              		.cfi_startproc
  46              	.LVL2:
  47 0028 130101FF 		addi	sp,sp,-16
  48              		.cfi_def_cfa_offset 16
  49 002c 23341100 		sd	ra,8(sp)
  50 0030 23308100 		sd	s0,0(sp)
  51              		.cfi_offset 1, -8
  52              		.cfi_offset 8, -16
  53 0034 13040101 		addi	s0,sp,16
  54              		.cfi_def_cfa 8, 0
  16:src/syscall_cpp.cpp ****    mem_free(p);
  55              		.loc 1 16 4
  56              		.loc 1 16 12 is_stmt 0
  57 0038 97000000 		call	mem_free@plt
  57      E7800000 
  58              	.LVL3:
  17:src/syscall_cpp.cpp **** }
  59              		.loc 1 17 1
  60 0040 83308100 		ld	ra,8(sp)
  61              		.cfi_restore 1
  62 0044 03340100 		ld	s0,0(sp)
  63              		.cfi_restore 8
  64              		.cfi_def_cfa 2, 16
  65 0048 13010101 		addi	sp,sp,16
  66              		.cfi_def_cfa_offset 0
  67 004c 67800000 		jr	ra
  68              		.cfi_endproc
  69              	.LFE1:
  71              		.align	2
  72              		.globl	_ZN15MemoryAllocatorC2Ev
  74              	_ZN15MemoryAllocatorC2Ev:
  75              	.LFB3:
  18:src/syscall_cpp.cpp **** 
  19:src/syscall_cpp.cpp **** //MemoryAllocator.h
  20:src/syscall_cpp.cpp **** 
  21:src/syscall_cpp.cpp **** MemoryAllocator* MemoryAllocator::memoryAllocator = 0;
  22:src/syscall_cpp.cpp **** 
  23:src/syscall_cpp.cpp **** MemoryAllocator::MemoryAllocator() {
  76              		.loc 1 23 1 is_stmt 1
  77              		.cfi_startproc
  78              	.LVL4:
  79 0050 130101FF 		addi	sp,sp,-16
  80              		.cfi_def_cfa_offset 16
  81 0054 23348100 		sd	s0,8(sp)
  82              		.cfi_offset 8, -8
  83 0058 13040101 		addi	s0,sp,16
  84              		.cfi_def_cfa 8, 0
  24:src/syscall_cpp.cpp **** 
  25:src/syscall_cpp.cpp **** }
  85              		.loc 1 25 1 is_stmt 0
  86 005c 03348100 		ld	s0,8(sp)
  87              		.cfi_restore 8
  88              		.cfi_def_cfa 2, 16
  89 0060 13010101 		addi	sp,sp,16
  90              		.cfi_def_cfa_offset 0
  91 0064 67800000 		jr	ra
  92              		.cfi_endproc
GAS LISTING /tmp/ccrMZ9a9.s 			page 3


  93              	.LFE3:
  95              		.globl	_ZN15MemoryAllocatorC1Ev
  96              		.set	_ZN15MemoryAllocatorC1Ev,_ZN15MemoryAllocatorC2Ev
  97              		.align	2
  98              		.globl	_ZN15MemoryAllocator9mem_allocEm
 100              	_ZN15MemoryAllocator9mem_allocEm:
 101              	.LFB5:
  26:src/syscall_cpp.cpp **** 
  27:src/syscall_cpp.cpp **** void *MemoryAllocator::mem_alloc(size_t size) {
 102              		.loc 1 27 47 is_stmt 1
 103              		.cfi_startproc
 104              	.LVL5:
 105 0068 130101FF 		addi	sp,sp,-16
 106              		.cfi_def_cfa_offset 16
 107 006c 23341100 		sd	ra,8(sp)
 108 0070 23308100 		sd	s0,0(sp)
 109              		.cfi_offset 1, -8
 110              		.cfi_offset 8, -16
 111 0074 13040101 		addi	s0,sp,16
 112              		.cfi_def_cfa 8, 0
  28:src/syscall_cpp.cpp ****     //todo
  29:src/syscall_cpp.cpp ****     //sta ovde treba kao parametar
  30:src/syscall_cpp.cpp ****     //svuda pogledaj to
  31:src/syscall_cpp.cpp ****     return ::mem_alloc(sizeof(MemoryAllocator));
 113              		.loc 1 31 5
 114              		.loc 1 31 23 is_stmt 0
 115 0078 13051000 		li	a0,1
 116              	.LVL6:
 117 007c 97000000 		call	mem_alloc@plt
 117      E7800000 
 118              	.LVL7:
  32:src/syscall_cpp.cpp **** }
 119              		.loc 1 32 1
 120 0084 83308100 		ld	ra,8(sp)
 121              		.cfi_restore 1
 122 0088 03340100 		ld	s0,0(sp)
 123              		.cfi_restore 8
 124              		.cfi_def_cfa 2, 16
 125 008c 13010101 		addi	sp,sp,16
 126              		.cfi_def_cfa_offset 0
 127 0090 67800000 		jr	ra
 128              		.cfi_endproc
 129              	.LFE5:
 131              		.align	2
 132              		.globl	_ZN15MemoryAllocator8mem_freeEPv
 134              	_ZN15MemoryAllocator8mem_freeEPv:
 135              	.LFB6:
  33:src/syscall_cpp.cpp **** 
  34:src/syscall_cpp.cpp **** int MemoryAllocator::mem_free(void * addr) {
 136              		.loc 1 34 44 is_stmt 1
 137              		.cfi_startproc
 138              	.LVL8:
 139 0094 130101FF 		addi	sp,sp,-16
 140              		.cfi_def_cfa_offset 16
 141 0098 23341100 		sd	ra,8(sp)
 142 009c 23308100 		sd	s0,0(sp)
 143              		.cfi_offset 1, -8
GAS LISTING /tmp/ccrMZ9a9.s 			page 4


 144              		.cfi_offset 8, -16
 145 00a0 13040101 		addi	s0,sp,16
 146              		.cfi_def_cfa 8, 0
  35:src/syscall_cpp.cpp ****     return ::mem_free(addr);
 147              		.loc 1 35 5
 148              		.loc 1 35 22 is_stmt 0
 149 00a4 13850500 		mv	a0,a1
 150              	.LVL9:
 151 00a8 97000000 		call	mem_free@plt
 151      E7800000 
 152              	.LVL10:
  36:src/syscall_cpp.cpp **** }
 153              		.loc 1 36 1
 154 00b0 83308100 		ld	ra,8(sp)
 155              		.cfi_restore 1
 156 00b4 03340100 		ld	s0,0(sp)
 157              		.cfi_restore 8
 158              		.cfi_def_cfa 2, 16
 159 00b8 13010101 		addi	sp,sp,16
 160              		.cfi_def_cfa_offset 0
 161 00bc 67800000 		jr	ra
 162              		.cfi_endproc
 163              	.LFE6:
 165              		.align	2
 166              		.globl	_ZN15MemoryAllocatorD2Ev
 168              	_ZN15MemoryAllocatorD2Ev:
 169              	.LFB9:
  37:src/syscall_cpp.cpp **** 
  38:src/syscall_cpp.cpp **** MemoryAllocator* MemoryAllocator::getMemoryAllocator() {
  39:src/syscall_cpp.cpp **** 
  40:src/syscall_cpp.cpp ****     if(memoryAllocator == 0) {
  41:src/syscall_cpp.cpp ****         //todo
  42:src/syscall_cpp.cpp ****         //preklopi new za memoryAllocator
  43:src/syscall_cpp.cpp ****         //proveri da li ovo radi
  44:src/syscall_cpp.cpp ****         memoryAllocator = new MemoryAllocator();
  45:src/syscall_cpp.cpp ****     }
  46:src/syscall_cpp.cpp ****     return memoryAllocator;
  47:src/syscall_cpp.cpp **** }
  48:src/syscall_cpp.cpp **** 
  49:src/syscall_cpp.cpp **** MemoryAllocator::~MemoryAllocator() {
 170              		.loc 1 49 1 is_stmt 1
 171              		.cfi_startproc
 172              	.LVL11:
 173 00c0 130101FF 		addi	sp,sp,-16
 174              		.cfi_def_cfa_offset 16
 175 00c4 23348100 		sd	s0,8(sp)
 176              		.cfi_offset 8, -8
 177 00c8 13040101 		addi	s0,sp,16
 178              		.cfi_def_cfa 8, 0
  50:src/syscall_cpp.cpp **** 
  51:src/syscall_cpp.cpp **** }
 179              		.loc 1 51 1 is_stmt 0
 180 00cc 03348100 		ld	s0,8(sp)
 181              		.cfi_restore 8
 182              		.cfi_def_cfa 2, 16
 183 00d0 13010101 		addi	sp,sp,16
 184              		.cfi_def_cfa_offset 0
GAS LISTING /tmp/ccrMZ9a9.s 			page 5


 185 00d4 67800000 		jr	ra
 186              		.cfi_endproc
 187              	.LFE9:
 189              		.globl	_ZN15MemoryAllocatorD1Ev
 190              		.set	_ZN15MemoryAllocatorD1Ev,_ZN15MemoryAllocatorD2Ev
 191              		.align	2
 192              		.globl	_ZN15MemoryAllocatornwEm
 194              	_ZN15MemoryAllocatornwEm:
 195              	.LFB11:
  52:src/syscall_cpp.cpp **** 
  53:src/syscall_cpp.cpp **** void *MemoryAllocator::operator new(size_t size) {
 196              		.loc 1 53 50 is_stmt 1
 197              		.cfi_startproc
 198              	.LVL12:
 199 00d8 130101FF 		addi	sp,sp,-16
 200              		.cfi_def_cfa_offset 16
 201 00dc 23341100 		sd	ra,8(sp)
 202 00e0 23308100 		sd	s0,0(sp)
 203              		.cfi_offset 1, -8
 204              		.cfi_offset 8, -16
 205 00e4 13040101 		addi	s0,sp,16
 206              		.cfi_def_cfa 8, 0
  54:src/syscall_cpp.cpp ****     return ::operator new(size);
 207              		.loc 1 54 5
 208              		.loc 1 54 26 is_stmt 0
 209 00e8 97000000 		call	_Znwm
 209      E7800000 
 210              	.LVL13:
  55:src/syscall_cpp.cpp **** }
 211              		.loc 1 55 1
 212 00f0 83308100 		ld	ra,8(sp)
 213              		.cfi_restore 1
 214 00f4 03340100 		ld	s0,0(sp)
 215              		.cfi_restore 8
 216              		.cfi_def_cfa 2, 16
 217 00f8 13010101 		addi	sp,sp,16
 218              		.cfi_def_cfa_offset 0
 219 00fc 67800000 		jr	ra
 220              		.cfi_endproc
 221              	.LFE11:
 223              		.align	2
 224              		.globl	_ZN15MemoryAllocator18getMemoryAllocatorEv
 226              	_ZN15MemoryAllocator18getMemoryAllocatorEv:
 227              	.LFB7:
  38:src/syscall_cpp.cpp **** 
 228              		.loc 1 38 56 is_stmt 1
 229              		.cfi_startproc
  40:src/syscall_cpp.cpp ****         //todo
 230              		.loc 1 40 5
  40:src/syscall_cpp.cpp ****         //todo
 231              		.loc 1 40 24 is_stmt 0
 232 0100 97070000 		ld	a5,.LANCHOR0
 232      83B70700 
  40:src/syscall_cpp.cpp ****         //todo
 233              		.loc 1 40 5
 234 0108 63880700 		beqz	a5,.L21
  46:src/syscall_cpp.cpp **** }
GAS LISTING /tmp/ccrMZ9a9.s 			page 6


 235              		.loc 1 46 5 is_stmt 1
  47:src/syscall_cpp.cpp **** 
 236              		.loc 1 47 1 is_stmt 0
 237 010c 17050000 		ld	a0,.LANCHOR0
 237      03350500 
 238 0114 67800000 		ret
 239              	.L21:
  38:src/syscall_cpp.cpp **** 
 240              		.loc 1 38 56
 241 0118 130101FF 		addi	sp,sp,-16
 242              		.cfi_def_cfa_offset 16
 243 011c 23341100 		sd	ra,8(sp)
 244 0120 23308100 		sd	s0,0(sp)
 245              		.cfi_offset 1, -8
 246              		.cfi_offset 8, -16
 247 0124 13040101 		addi	s0,sp,16
 248              		.cfi_def_cfa 8, 0
  44:src/syscall_cpp.cpp ****     }
 249              		.loc 1 44 9 is_stmt 1
  44:src/syscall_cpp.cpp ****     }
 250              		.loc 1 44 47 is_stmt 0
 251 0128 13051000 		li	a0,1
 252 012c 97000000 		call	_ZN15MemoryAllocatornwEm
 252      E7800000 
 253              	.LVL14:
  44:src/syscall_cpp.cpp ****     }
 254              		.loc 1 44 25
 255 0134 97070000 		sd	a0,.LANCHOR0,a5
 255      23B0A700 
  46:src/syscall_cpp.cpp **** }
 256              		.loc 1 46 5 is_stmt 1
  47:src/syscall_cpp.cpp **** 
 257              		.loc 1 47 1 is_stmt 0
 258 013c 17050000 		ld	a0,.LANCHOR0
 258      03350500 
 259 0144 83308100 		ld	ra,8(sp)
 260              		.cfi_restore 1
 261 0148 03340100 		ld	s0,0(sp)
 262              		.cfi_restore 8
 263              		.cfi_def_cfa 2, 16
 264 014c 13010101 		addi	sp,sp,16
 265              		.cfi_def_cfa_offset 0
 266 0150 67800000 		jr	ra
 267              		.cfi_endproc
 268              	.LFE7:
 270              		.align	2
 271              		.globl	_ZN15MemoryAllocatordlEPv
 273              	_ZN15MemoryAllocatordlEPv:
 274              	.LFB12:
  56:src/syscall_cpp.cpp **** 
  57:src/syscall_cpp.cpp **** void MemoryAllocator::operator delete(void *p) {
 275              		.loc 1 57 48 is_stmt 1
 276              		.cfi_startproc
 277              	.LVL15:
 278 0154 130101FF 		addi	sp,sp,-16
 279              		.cfi_def_cfa_offset 16
 280 0158 23341100 		sd	ra,8(sp)
GAS LISTING /tmp/ccrMZ9a9.s 			page 7


 281 015c 23308100 		sd	s0,0(sp)
 282              		.cfi_offset 1, -8
 283              		.cfi_offset 8, -16
 284 0160 13040101 		addi	s0,sp,16
 285              		.cfi_def_cfa 8, 0
  58:src/syscall_cpp.cpp ****     ::operator delete(p);
 286              		.loc 1 58 5
 287              		.loc 1 58 22 is_stmt 0
 288 0164 97000000 		call	_ZdlPv
 288      E7800000 
 289              	.LVL16:
  59:src/syscall_cpp.cpp **** }
 290              		.loc 1 59 1
 291 016c 83308100 		ld	ra,8(sp)
 292              		.cfi_restore 1
 293 0170 03340100 		ld	s0,0(sp)
 294              		.cfi_restore 8
 295              		.cfi_def_cfa 2, 16
 296 0174 13010101 		addi	sp,sp,16
 297              		.cfi_def_cfa_offset 0
 298 0178 67800000 		jr	ra
 299              		.cfi_endproc
 300              	.LFE12:
 302              		.align	2
 303              		.globl	_ZN9SchedulernwEm
 305              	_ZN9SchedulernwEm:
 306              	.LFB29:
  60:src/syscall_cpp.cpp **** 
  61:src/syscall_cpp.cpp **** 
  62:src/syscall_cpp.cpp **** //Queue.h
  63:src/syscall_cpp.cpp **** template<typename T>
  64:src/syscall_cpp.cpp **** void Queue<T>::pop() {
  65:src/syscall_cpp.cpp ****     Elem* newFirst = first->next;
  66:src/syscall_cpp.cpp ****     MemoryAllocator::getMemoryAllocator()->mem_free(first);
  67:src/syscall_cpp.cpp ****     first = newFirst;
  68:src/syscall_cpp.cpp ****     if(first == 0)
  69:src/syscall_cpp.cpp ****         first = last = 0;
  70:src/syscall_cpp.cpp **** }
  71:src/syscall_cpp.cpp **** 
  72:src/syscall_cpp.cpp **** template<typename T>
  73:src/syscall_cpp.cpp **** void Queue<T>::push(T t) {
  74:src/syscall_cpp.cpp ****     Elem* newElem = (Elem*)MemoryAllocator::getMemoryAllocator()->mem_alloc(sizeof(Elem));
  75:src/syscall_cpp.cpp ****     if(first == 0) {
  76:src/syscall_cpp.cpp ****         first = newElem;
  77:src/syscall_cpp.cpp ****         last = 0;
  78:src/syscall_cpp.cpp ****         first->next = last;
  79:src/syscall_cpp.cpp ****     }
  80:src/syscall_cpp.cpp **** }
  81:src/syscall_cpp.cpp **** 
  82:src/syscall_cpp.cpp **** template<typename T>
  83:src/syscall_cpp.cpp **** T Queue<T>::front() {
  84:src/syscall_cpp.cpp ****    if(first == 0)
  85:src/syscall_cpp.cpp ****        return 0;
  86:src/syscall_cpp.cpp ****    return first->data;
  87:src/syscall_cpp.cpp **** }
  88:src/syscall_cpp.cpp **** 
  89:src/syscall_cpp.cpp **** template<typename T>
GAS LISTING /tmp/ccrMZ9a9.s 			page 8


  90:src/syscall_cpp.cpp **** Queue<T>::Queue() {
  91:src/syscall_cpp.cpp ****     first = last = 0;
  92:src/syscall_cpp.cpp **** }
  93:src/syscall_cpp.cpp **** 
  94:src/syscall_cpp.cpp **** template<typename T>
  95:src/syscall_cpp.cpp **** Queue<T>::~Queue() {
  96:src/syscall_cpp.cpp ****     Elem* curr = first;
  97:src/syscall_cpp.cpp ****     while(curr != 0)
  98:src/syscall_cpp.cpp ****     {
  99:src/syscall_cpp.cpp ****         Elem* old = curr;
 100:src/syscall_cpp.cpp ****         curr = curr->next;
 101:src/syscall_cpp.cpp ****         MemoryAllocator::getMemoryAllocator()->mem_free(old);
 102:src/syscall_cpp.cpp ****     }
 103:src/syscall_cpp.cpp **** }
 104:src/syscall_cpp.cpp **** 
 105:src/syscall_cpp.cpp **** template<typename T>
 106:src/syscall_cpp.cpp **** void *Queue<T>::operator new(size_t size) {
 107:src/syscall_cpp.cpp ****     //todo
 108:src/syscall_cpp.cpp ****     //da li ovde treba size ili sizeof(Queue<T>)
 109:src/syscall_cpp.cpp ****     return ::operator new(sizeof(Queue<T>));
 110:src/syscall_cpp.cpp **** }
 111:src/syscall_cpp.cpp **** 
 112:src/syscall_cpp.cpp **** template<typename T>
 113:src/syscall_cpp.cpp **** void Queue<T>::operator delete(void *p) {
 114:src/syscall_cpp.cpp ****     ::operator delete(p);
 115:src/syscall_cpp.cpp **** }
 116:src/syscall_cpp.cpp **** 
 117:src/syscall_cpp.cpp **** //Scheduler.h
 118:src/syscall_cpp.cpp **** 
 119:src/syscall_cpp.cpp **** Scheduler* Scheduler::scheduler = 0;
 120:src/syscall_cpp.cpp **** 
 121:src/syscall_cpp.cpp **** Scheduler *Scheduler::getScheduler() {
 122:src/syscall_cpp.cpp ****     if(scheduler == 0)
 123:src/syscall_cpp.cpp ****     {
 124:src/syscall_cpp.cpp ****         //todo
 125:src/syscall_cpp.cpp ****         //preklopi new za Scheduler
 126:src/syscall_cpp.cpp ****         scheduler = new Scheduler();
 127:src/syscall_cpp.cpp ****     }
 128:src/syscall_cpp.cpp **** 
 129:src/syscall_cpp.cpp ****     return scheduler;
 130:src/syscall_cpp.cpp **** }
 131:src/syscall_cpp.cpp **** 
 132:src/syscall_cpp.cpp **** void Scheduler::put(PCB *pcb) {
 133:src/syscall_cpp.cpp ****     queuePCB->push(pcb);
 134:src/syscall_cpp.cpp **** }
 135:src/syscall_cpp.cpp **** 
 136:src/syscall_cpp.cpp **** PCB *Scheduler::get() {
 137:src/syscall_cpp.cpp ****     PCB* t =  queuePCB->front();
 138:src/syscall_cpp.cpp ****     queuePCB->pop();
 139:src/syscall_cpp.cpp ****     return t;
 140:src/syscall_cpp.cpp **** }
 141:src/syscall_cpp.cpp **** 
 142:src/syscall_cpp.cpp **** Scheduler::~Scheduler() {
 143:src/syscall_cpp.cpp ****     //todo
 144:src/syscall_cpp.cpp ****     //preklopi delete za queue
 145:src/syscall_cpp.cpp ****     delete queuePCB;
 146:src/syscall_cpp.cpp ****     //MemoryAllocator::getMemoryAllocator()->mem_free(queueThreads);
GAS LISTING /tmp/ccrMZ9a9.s 			page 9


 147:src/syscall_cpp.cpp **** }
 148:src/syscall_cpp.cpp **** 
 149:src/syscall_cpp.cpp **** Scheduler::Scheduler() {
 150:src/syscall_cpp.cpp ****     //todo
 151:src/syscall_cpp.cpp ****     //da li radi konstruktor
 152:src/syscall_cpp.cpp ****     queuePCB= new Queue<PCB*>();
 153:src/syscall_cpp.cpp **** }
 154:src/syscall_cpp.cpp **** 
 155:src/syscall_cpp.cpp **** void *Scheduler::operator new(size_t size) {
 307              		.loc 1 155 44 is_stmt 1
 308              		.cfi_startproc
 309              	.LVL17:
 310 017c 130101FF 		addi	sp,sp,-16
 311              		.cfi_def_cfa_offset 16
 312 0180 23341100 		sd	ra,8(sp)
 313 0184 23308100 		sd	s0,0(sp)
 314              		.cfi_offset 1, -8
 315              		.cfi_offset 8, -16
 316 0188 13040101 		addi	s0,sp,16
 317              		.cfi_def_cfa 8, 0
 156:src/syscall_cpp.cpp ****     return ::operator new(sizeof(Scheduler));
 318              		.loc 1 156 5
 319              		.loc 1 156 26 is_stmt 0
 320 018c 13058000 		li	a0,8
 321              	.LVL18:
 322 0190 97000000 		call	_Znwm
 322      E7800000 
 323              	.LVL19:
 157:src/syscall_cpp.cpp **** }
 324              		.loc 1 157 1
 325 0198 83308100 		ld	ra,8(sp)
 326              		.cfi_restore 1
 327 019c 03340100 		ld	s0,0(sp)
 328              		.cfi_restore 8
 329              		.cfi_def_cfa 2, 16
 330 01a0 13010101 		addi	sp,sp,16
 331              		.cfi_def_cfa_offset 0
 332 01a4 67800000 		jr	ra
 333              		.cfi_endproc
 334              	.LFE29:
 336              		.align	2
 337              		.globl	_ZN9SchedulerdlEPv
 339              	_ZN9SchedulerdlEPv:
 340              	.LFB30:
 158:src/syscall_cpp.cpp **** 
 159:src/syscall_cpp.cpp **** void Scheduler::operator delete(void *p) {
 341              		.loc 1 159 42 is_stmt 1
 342              		.cfi_startproc
 343              	.LVL20:
 344 01a8 130101FF 		addi	sp,sp,-16
 345              		.cfi_def_cfa_offset 16
 346 01ac 23341100 		sd	ra,8(sp)
 347 01b0 23308100 		sd	s0,0(sp)
 348              		.cfi_offset 1, -8
 349              		.cfi_offset 8, -16
 350 01b4 13040101 		addi	s0,sp,16
 351              		.cfi_def_cfa 8, 0
GAS LISTING /tmp/ccrMZ9a9.s 			page 10


 160:src/syscall_cpp.cpp ****     ::operator delete(p);
 352              		.loc 1 160 5
 353              		.loc 1 160 22 is_stmt 0
 354 01b8 97000000 		call	_ZdlPv
 354      E7800000 
 355              	.LVL21:
 161:src/syscall_cpp.cpp **** }
 356              		.loc 1 161 1
 357 01c0 83308100 		ld	ra,8(sp)
 358              		.cfi_restore 1
 359 01c4 03340100 		ld	s0,0(sp)
 360              		.cfi_restore 8
 361              		.cfi_def_cfa 2, 16
 362 01c8 13010101 		addi	sp,sp,16
 363              		.cfi_def_cfa_offset 0
 364 01cc 67800000 		jr	ra
 365              		.cfi_endproc
 366              	.LFE30:
 368              		.align	2
 369              		.globl	_ZN6ThreadC2EPFvPvES0_
 371              	_ZN6ThreadC2EPFvPvES0_:
 372              	.LFB32:
 162:src/syscall_cpp.cpp **** 
 163:src/syscall_cpp.cpp **** //Thread.h
 164:src/syscall_cpp.cpp **** 
 165:src/syscall_cpp.cpp **** //todo
 166:src/syscall_cpp.cpp **** //kreiranje pocetnog konteksta niti
 167:src/syscall_cpp.cpp **** 
 168:src/syscall_cpp.cpp **** Thread::Thread(void (*body)(void *), void *arg) {
 373              		.loc 1 168 1 is_stmt 1
 374              		.cfi_startproc
 375              	.LVL22:
 376 01d0 130101FF 		addi	sp,sp,-16
 377              		.cfi_def_cfa_offset 16
 378 01d4 23348100 		sd	s0,8(sp)
 379              		.cfi_offset 8, -8
 380 01d8 13040101 		addi	s0,sp,16
 381              		.cfi_def_cfa 8, 0
 382              	.LBB2:
 169:src/syscall_cpp.cpp ****     f = body;
 383              		.loc 1 169 5
 384              		.loc 1 169 7 is_stmt 0
 385 01dc 2330B500 		sd	a1,0(a0)
 170:src/syscall_cpp.cpp ****     args = arg;
 386              		.loc 1 170 5 is_stmt 1
 387              		.loc 1 170 10 is_stmt 0
 388 01e0 2334C500 		sd	a2,8(a0)
 389              	.LBE2:
 171:src/syscall_cpp.cpp **** }
 390              		.loc 1 171 1
 391 01e4 03348100 		ld	s0,8(sp)
 392              		.cfi_restore 8
 393              		.cfi_def_cfa 2, 16
 394 01e8 13010101 		addi	sp,sp,16
 395              		.cfi_def_cfa_offset 0
 396 01ec 67800000 		jr	ra
 397              		.cfi_endproc
GAS LISTING /tmp/ccrMZ9a9.s 			page 11


 398              	.LFE32:
 400              		.globl	_ZN6ThreadC1EPFvPvES0_
 401              		.set	_ZN6ThreadC1EPFvPvES0_,_ZN6ThreadC2EPFvPvES0_
 402              		.align	2
 403              		.globl	_ZN6Thread8dispatchEv
 405              	_ZN6Thread8dispatchEv:
 406              	.LFB35:
 172:src/syscall_cpp.cpp **** 
 173:src/syscall_cpp.cpp **** //Thread::~Thread() {
 174:src/syscall_cpp.cpp **** //
 175:src/syscall_cpp.cpp **** //}
 176:src/syscall_cpp.cpp **** 
 177:src/syscall_cpp.cpp **** void Thread::start() {
 178:src/syscall_cpp.cpp ****     threadPCB->start();
 179:src/syscall_cpp.cpp **** }
 180:src/syscall_cpp.cpp **** 
 181:src/syscall_cpp.cpp **** void Thread::dispatch() {
 407              		.loc 1 181 25 is_stmt 1
 408              		.cfi_startproc
 409 01f0 130101FF 		addi	sp,sp,-16
 410              		.cfi_def_cfa_offset 16
 411 01f4 23348100 		sd	s0,8(sp)
 412              		.cfi_offset 8, -8
 413 01f8 13040101 		addi	s0,sp,16
 414              		.cfi_def_cfa 8, 0
 182:src/syscall_cpp.cpp **** 
 183:src/syscall_cpp.cpp **** }
 415              		.loc 1 183 1 is_stmt 0
 416 01fc 03348100 		ld	s0,8(sp)
 417              		.cfi_restore 8
 418              		.cfi_def_cfa 2, 16
 419 0200 13010101 		addi	sp,sp,16
 420              		.cfi_def_cfa_offset 0
 421 0204 67800000 		jr	ra
 422              		.cfi_endproc
 423              	.LFE35:
 425              		.align	2
 426              		.globl	_ZN6Thread5sleepEm
 428              	_ZN6Thread5sleepEm:
 429              	.LFB36:
 184:src/syscall_cpp.cpp **** 
 185:src/syscall_cpp.cpp **** void Thread::sleep(time_t time) {
 430              		.loc 1 185 33 is_stmt 1
 431              		.cfi_startproc
 432              	.LVL23:
 433 0208 130101FF 		addi	sp,sp,-16
 434              		.cfi_def_cfa_offset 16
 435 020c 23348100 		sd	s0,8(sp)
 436              		.cfi_offset 8, -8
 437 0210 13040101 		addi	s0,sp,16
 438              		.cfi_def_cfa 8, 0
 186:src/syscall_cpp.cpp **** 
 187:src/syscall_cpp.cpp **** }
 439              		.loc 1 187 1 is_stmt 0
 440 0214 03348100 		ld	s0,8(sp)
 441              		.cfi_restore 8
 442              		.cfi_def_cfa 2, 16
GAS LISTING /tmp/ccrMZ9a9.s 			page 12


 443 0218 13010101 		addi	sp,sp,16
 444              		.cfi_def_cfa_offset 0
 445 021c 67800000 		jr	ra
 446              		.cfi_endproc
 447              	.LFE36:
 449              		.align	2
 450              		.globl	_ZN6ThreadC2Ev
 452              	_ZN6ThreadC2Ev:
 453              	.LFB38:
 188:src/syscall_cpp.cpp **** 
 189:src/syscall_cpp.cpp **** Thread::Thread() {
 454              		.loc 1 189 1 is_stmt 1
 455              		.cfi_startproc
 456              	.LVL24:
 457 0220 130101FF 		addi	sp,sp,-16
 458              		.cfi_def_cfa_offset 16
 459 0224 23348100 		sd	s0,8(sp)
 460              		.cfi_offset 8, -8
 461 0228 13040101 		addi	s0,sp,16
 462              		.cfi_def_cfa 8, 0
 190:src/syscall_cpp.cpp **** 
 191:src/syscall_cpp.cpp **** }
 463              		.loc 1 191 1 is_stmt 0
 464 022c 03348100 		ld	s0,8(sp)
 465              		.cfi_restore 8
 466              		.cfi_def_cfa 2, 16
 467 0230 13010101 		addi	sp,sp,16
 468              		.cfi_def_cfa_offset 0
 469 0234 67800000 		jr	ra
 470              		.cfi_endproc
 471              	.LFE38:
 473              		.globl	_ZN6ThreadC1Ev
 474              		.set	_ZN6ThreadC1Ev,_ZN6ThreadC2Ev
 475              		.align	2
 476              		.globl	_ZN6ThreadnwEm
 478              	_ZN6ThreadnwEm:
 479              	.LFB40:
 192:src/syscall_cpp.cpp **** 
 193:src/syscall_cpp.cpp **** void *Thread::operator new(size_t size) {
 480              		.loc 1 193 41 is_stmt 1
 481              		.cfi_startproc
 482              	.LVL25:
 483 0238 130101FF 		addi	sp,sp,-16
 484              		.cfi_def_cfa_offset 16
 485 023c 23341100 		sd	ra,8(sp)
 486 0240 23308100 		sd	s0,0(sp)
 487              		.cfi_offset 1, -8
 488              		.cfi_offset 8, -16
 489 0244 13040101 		addi	s0,sp,16
 490              		.cfi_def_cfa 8, 0
 194:src/syscall_cpp.cpp ****     return ::operator new(sizeof(Thread));
 491              		.loc 1 194 5
 492              		.loc 1 194 26 is_stmt 0
 493 0248 13058002 		li	a0,40
 494              	.LVL26:
 495 024c 97000000 		call	_Znwm
 495      E7800000 
GAS LISTING /tmp/ccrMZ9a9.s 			page 13


 496              	.LVL27:
 195:src/syscall_cpp.cpp **** }
 497              		.loc 1 195 1
 498 0254 83308100 		ld	ra,8(sp)
 499              		.cfi_restore 1
 500 0258 03340100 		ld	s0,0(sp)
 501              		.cfi_restore 8
 502              		.cfi_def_cfa 2, 16
 503 025c 13010101 		addi	sp,sp,16
 504              		.cfi_def_cfa_offset 0
 505 0260 67800000 		jr	ra
 506              		.cfi_endproc
 507              	.LFE40:
 509              		.align	2
 510              		.globl	_ZN6ThreaddlEPv
 512              	_ZN6ThreaddlEPv:
 513              	.LFB41:
 196:src/syscall_cpp.cpp **** 
 197:src/syscall_cpp.cpp **** void Thread::operator delete(void *p) {
 514              		.loc 1 197 39 is_stmt 1
 515              		.cfi_startproc
 516              	.LVL28:
 517 0264 130101FF 		addi	sp,sp,-16
 518              		.cfi_def_cfa_offset 16
 519 0268 23348100 		sd	s0,8(sp)
 520              		.cfi_offset 8, -8
 521 026c 13040101 		addi	s0,sp,16
 522              		.cfi_def_cfa 8, 0
 198:src/syscall_cpp.cpp **** 
 199:src/syscall_cpp.cpp **** }
 523              		.loc 1 199 1 is_stmt 0
 524 0270 03348100 		ld	s0,8(sp)
 525              		.cfi_restore 8
 526              		.cfi_def_cfa 2, 16
 527 0274 13010101 		addi	sp,sp,16
 528              		.cfi_def_cfa_offset 0
 529 0278 67800000 		jr	ra
 530              		.cfi_endproc
 531              	.LFE41:
 533              		.align	2
 534              		.globl	_ZN3PCBC2EPFvPvES0_mm
 536              	_ZN3PCBC2EPFvPvES0_mm:
 537              	.LFB43:
 200:src/syscall_cpp.cpp **** 
 201:src/syscall_cpp.cpp **** //void Thread::run() {
 202:src/syscall_cpp.cpp **** //
 203:src/syscall_cpp.cpp **** //}
 204:src/syscall_cpp.cpp **** 
 205:src/syscall_cpp.cpp **** //PCB.h
 206:src/syscall_cpp.cpp **** 
 207:src/syscall_cpp.cpp **** PCB::PCB(void (*body)(void*), void* arg , size_t stackSize, size_t timeSlice) {
 538              		.loc 1 207 1 is_stmt 1
 539              		.cfi_startproc
 540              	.LVL29:
 541 027c 130101FD 		addi	sp,sp,-48
 542              		.cfi_def_cfa_offset 48
 543 0280 23341102 		sd	ra,40(sp)
GAS LISTING /tmp/ccrMZ9a9.s 			page 14


 544 0284 23308102 		sd	s0,32(sp)
 545 0288 233C9100 		sd	s1,24(sp)
 546 028c 23382101 		sd	s2,16(sp)
 547 0290 23343101 		sd	s3,8(sp)
 548 0294 23304101 		sd	s4,0(sp)
 549              		.cfi_offset 1, -8
 550              		.cfi_offset 8, -16
 551              		.cfi_offset 9, -24
 552              		.cfi_offset 18, -32
 553              		.cfi_offset 19, -40
 554              		.cfi_offset 20, -48
 555 0298 13040103 		addi	s0,sp,48
 556              		.cfi_def_cfa 8, 0
 557 029c 93040500 		mv	s1,a0
 558 02a0 93890500 		mv	s3,a1
 559 02a4 130A0600 		mv	s4,a2
 560              	.LBB3:
 208:src/syscall_cpp.cpp ****     //todo
 209:src/syscall_cpp.cpp ****     //pocetni kontekst niti
 210:src/syscall_cpp.cpp ****     this->stackSize = stackSize;
 561              		.loc 1 210 5
 562              		.loc 1 210 21 is_stmt 0
 563 02a8 2338D500 		sd	a3,16(a0)
 211:src/syscall_cpp.cpp ****     this->timeSlice = timeSlice;
 564              		.loc 1 211 5 is_stmt 1
 565              		.loc 1 211 21 is_stmt 0
 566 02ac 233CE500 		sd	a4,24(a0)
 212:src/syscall_cpp.cpp ****     this->pcbThread = new Thread(body, arg);
 567              		.loc 1 212 5 is_stmt 1
 568              		.loc 1 212 43 is_stmt 0
 569 02b0 13058002 		li	a0,40
 570              	.LVL30:
 571 02b4 97000000 		call	_ZN6ThreadnwEm
 571      E7800000 
 572              	.LVL31:
 573 02bc 13090500 		mv	s2,a0
 574 02c0 13060A00 		mv	a2,s4
 575 02c4 93850900 		mv	a1,s3
 576 02c8 97000000 		call	_ZN6ThreadC1EPFvPvES0_
 576      E7800000 
 577              	.LVL32:
 578              		.loc 1 212 21
 579 02d0 23B02401 		sd	s2,0(s1)
 213:src/syscall_cpp.cpp ****     this->state = CREATED;
 580              		.loc 1 213 5 is_stmt 1
 581              		.loc 1 213 17 is_stmt 0
 582 02d4 23A00402 		sw	zero,32(s1)
 583              	.LBE3:
 214:src/syscall_cpp.cpp **** }
 584              		.loc 1 214 1
 585 02d8 83308102 		ld	ra,40(sp)
 586              		.cfi_restore 1
 587 02dc 03340102 		ld	s0,32(sp)
 588              		.cfi_restore 8
 589              		.cfi_def_cfa 2, 48
 590 02e0 83348101 		ld	s1,24(sp)
 591              		.cfi_restore 9
GAS LISTING /tmp/ccrMZ9a9.s 			page 15


 592              	.LVL33:
 593 02e4 03390101 		ld	s2,16(sp)
 594              		.cfi_restore 18
 595 02e8 83398100 		ld	s3,8(sp)
 596              		.cfi_restore 19
 597              	.LVL34:
 598 02ec 033A0100 		ld	s4,0(sp)
 599              		.cfi_restore 20
 600              	.LVL35:
 601 02f0 13010103 		addi	sp,sp,48
 602              		.cfi_def_cfa_offset 0
 603 02f4 67800000 		jr	ra
 604              		.cfi_endproc
 605              	.LFE43:
 607              		.globl	_ZN3PCBC1EPFvPvES0_mm
 608              		.set	_ZN3PCBC1EPFvPvES0_mm,_ZN3PCBC2EPFvPvES0_mm
 609              		.align	2
 610              		.globl	_ZN3PCBD2Ev
 612              	_ZN3PCBD2Ev:
 613              	.LFB46:
 215:src/syscall_cpp.cpp **** 
 216:src/syscall_cpp.cpp **** PCB::~PCB() {
 614              		.loc 1 216 1 is_stmt 1
 615              		.cfi_startproc
 616              	.LVL36:
 617 02f8 130101FF 		addi	sp,sp,-16
 618              		.cfi_def_cfa_offset 16
 619 02fc 23348100 		sd	s0,8(sp)
 620              		.cfi_offset 8, -8
 621 0300 13040101 		addi	s0,sp,16
 622              		.cfi_def_cfa 8, 0
 217:src/syscall_cpp.cpp **** 
 218:src/syscall_cpp.cpp **** }
 623              		.loc 1 218 1 is_stmt 0
 624 0304 03348100 		ld	s0,8(sp)
 625              		.cfi_restore 8
 626              		.cfi_def_cfa 2, 16
 627 0308 13010101 		addi	sp,sp,16
 628              		.cfi_def_cfa_offset 0
 629 030c 67800000 		jr	ra
 630              		.cfi_endproc
 631              	.LFE46:
 633              		.globl	_ZN3PCBD1Ev
 634              		.set	_ZN3PCBD1Ev,_ZN3PCBD2Ev
 635              		.align	2
 636              		.globl	_ZN3PCB6runnerEPv
 638              	_ZN3PCB6runnerEPv:
 639              	.LFB49:
 219:src/syscall_cpp.cpp **** 
 220:src/syscall_cpp.cpp **** void PCB::start()
 221:src/syscall_cpp.cpp **** {
 222:src/syscall_cpp.cpp ****     Scheduler::getScheduler()->put(this);
 223:src/syscall_cpp.cpp **** }
 224:src/syscall_cpp.cpp **** 
 225:src/syscall_cpp.cpp **** //todo
 226:src/syscall_cpp.cpp **** void PCB::runner(void* p) {
 640              		.loc 1 226 27 is_stmt 1
GAS LISTING /tmp/ccrMZ9a9.s 			page 16


 641              		.cfi_startproc
 642              	.LVL37:
 643 0310 130101FF 		addi	sp,sp,-16
 644              		.cfi_def_cfa_offset 16
 645 0314 23348100 		sd	s0,8(sp)
 646              		.cfi_offset 8, -8
 647 0318 13040101 		addi	s0,sp,16
 648              		.cfi_def_cfa 8, 0
 227:src/syscall_cpp.cpp ****     //pcbThread->run();
 228:src/syscall_cpp.cpp **** }
 649              		.loc 1 228 1 is_stmt 0
 650 031c 03348100 		ld	s0,8(sp)
 651              		.cfi_restore 8
 652              		.cfi_def_cfa 2, 16
 653 0320 13010101 		addi	sp,sp,16
 654              		.cfi_def_cfa_offset 0
 655 0324 67800000 		jr	ra
 656              		.cfi_endproc
 657              	.LFE49:
 659              		.align	2
 660              		.globl	_ZN3PCBnwEm
 662              	_ZN3PCBnwEm:
 663              	.LFB50:
 229:src/syscall_cpp.cpp **** 
 230:src/syscall_cpp.cpp **** void *PCB::operator new(size_t size) {
 664              		.loc 1 230 38 is_stmt 1
 665              		.cfi_startproc
 666              	.LVL38:
 667 0328 130101FF 		addi	sp,sp,-16
 668              		.cfi_def_cfa_offset 16
 669 032c 23341100 		sd	ra,8(sp)
 670 0330 23308100 		sd	s0,0(sp)
 671              		.cfi_offset 1, -8
 672              		.cfi_offset 8, -16
 673 0334 13040101 		addi	s0,sp,16
 674              		.cfi_def_cfa 8, 0
 231:src/syscall_cpp.cpp ****     return ::operator new(sizeof(PCB));
 675              		.loc 1 231 5
 676              		.loc 1 231 26 is_stmt 0
 677 0338 13058002 		li	a0,40
 678              	.LVL39:
 679 033c 97000000 		call	_Znwm
 679      E7800000 
 680              	.LVL40:
 232:src/syscall_cpp.cpp **** }
 681              		.loc 1 232 1
 682 0344 83308100 		ld	ra,8(sp)
 683              		.cfi_restore 1
 684 0348 03340100 		ld	s0,0(sp)
 685              		.cfi_restore 8
 686              		.cfi_def_cfa 2, 16
 687 034c 13010101 		addi	sp,sp,16
 688              		.cfi_def_cfa_offset 0
 689 0350 67800000 		jr	ra
 690              		.cfi_endproc
 691              	.LFE50:
 693              		.align	2
GAS LISTING /tmp/ccrMZ9a9.s 			page 17


 694              		.globl	_ZN3PCBdlEPv
 696              	_ZN3PCBdlEPv:
 697              	.LFB51:
 233:src/syscall_cpp.cpp **** 
 234:src/syscall_cpp.cpp **** void PCB::operator delete(void *p) {
 698              		.loc 1 234 36 is_stmt 1
 699              		.cfi_startproc
 700              	.LVL41:
 701 0354 130101FF 		addi	sp,sp,-16
 702              		.cfi_def_cfa_offset 16
 703 0358 23348100 		sd	s0,8(sp)
 704              		.cfi_offset 8, -8
 705 035c 13040101 		addi	s0,sp,16
 706              		.cfi_def_cfa 8, 0
 235:src/syscall_cpp.cpp **** 
 236:src/syscall_cpp.cpp **** }
 707              		.loc 1 236 1 is_stmt 0
 708 0360 03348100 		ld	s0,8(sp)
 709              		.cfi_restore 8
 710              		.cfi_def_cfa 2, 16
 711 0364 13010101 		addi	sp,sp,16
 712              		.cfi_def_cfa_offset 0
 713 0368 67800000 		jr	ra
 714              		.cfi_endproc
 715              	.LFE51:
 717              		.align	2
 718              		.globl	_ZN6System10initSystemEv
 720              	_ZN6System10initSystemEv:
 721              	.LFB52:
 237:src/syscall_cpp.cpp **** 
 238:src/syscall_cpp.cpp **** //System.h
 239:src/syscall_cpp.cpp **** 
 240:src/syscall_cpp.cpp **** PCB* System::runningPCB = 0;
 241:src/syscall_cpp.cpp **** 
 242:src/syscall_cpp.cpp **** //todo
 243:src/syscall_cpp.cpp **** extern "C" void interruptvec();
 244:src/syscall_cpp.cpp **** void System::initSystem() {
 722              		.loc 1 244 27 is_stmt 1
 723              		.cfi_startproc
 724 036c 130101FF 		addi	sp,sp,-16
 725              		.cfi_def_cfa_offset 16
 726 0370 23348100 		sd	s0,8(sp)
 727              		.cfi_offset 8, -8
 728 0374 13040101 		addi	s0,sp,16
 729              		.cfi_def_cfa 8, 0
 245:src/syscall_cpp.cpp ****     __asm__ volatile("csrw stvec, %0" : : [vector]"r"(&interruptvec));
 730              		.loc 1 245 5
 731              		.loc 1 245 70 is_stmt 0
 732 0378 97070000 		la	a5,interruptvec
 732      83B70700 
 733              	#APP
 734              	# 245 "src/syscall_cpp.cpp" 1
 246              	}
 735              		csrw stvec, a5
 736              	# 0 "" 2
 737              		.loc 1 246 1
 738              	#NO_APP
GAS LISTING /tmp/ccrMZ9a9.s 			page 18


 739 0384 03348100 		ld	s0,8(sp)
 740              		.cfi_restore 8
 741              		.cfi_def_cfa 2, 16
 742 0388 13010101 		addi	sp,sp,16
 743              		.cfi_def_cfa_offset 0
 744 038c 67800000 		jr	ra
 745              		.cfi_endproc
 746              	.LFE52:
 748              		.align	2
 749              		.globl	_ZN6SystemC2Ev
 751              	_ZN6SystemC2Ev:
 752              	.LFB54:
 247:src/syscall_cpp.cpp **** 
 248:src/syscall_cpp.cpp **** System::System() {
 753              		.loc 1 248 1 is_stmt 1
 754              		.cfi_startproc
 755              	.LVL42:
 756 0390 130101FF 		addi	sp,sp,-16
 757              		.cfi_def_cfa_offset 16
 758 0394 23348100 		sd	s0,8(sp)
 759              		.cfi_offset 8, -8
 760 0398 13040101 		addi	s0,sp,16
 761              		.cfi_def_cfa 8, 0
 249:src/syscall_cpp.cpp **** 
 250:src/syscall_cpp.cpp **** }
 762              		.loc 1 250 1 is_stmt 0
 763 039c 03348100 		ld	s0,8(sp)
 764              		.cfi_restore 8
 765              		.cfi_def_cfa 2, 16
 766 03a0 13010101 		addi	sp,sp,16
 767              		.cfi_def_cfa_offset 0
 768 03a4 67800000 		jr	ra
 769              		.cfi_endproc
 770              	.LFE54:
 772              		.globl	_ZN6SystemC1Ev
 773              		.set	_ZN6SystemC1Ev,_ZN6SystemC2Ev
 774              		.section	.text._ZN5QueueIP3PCBE4pushES1_,"axG",@progbits,_ZN5QueueIP3PCBE4pushES1_,comdat
 775              		.align	2
 776              		.weak	_ZN5QueueIP3PCBE4pushES1_
 778              	_ZN5QueueIP3PCBE4pushES1_:
 779              	.LFB56:
  73:src/syscall_cpp.cpp ****     Elem* newElem = (Elem*)MemoryAllocator::getMemoryAllocator()->mem_alloc(sizeof(Elem));
 780              		.loc 1 73 6 is_stmt 1
 781              		.cfi_startproc
 782              	.LVL43:
 783 0000 130101FE 		addi	sp,sp,-32
 784              		.cfi_def_cfa_offset 32
 785 0004 233C1100 		sd	ra,24(sp)
 786 0008 23388100 		sd	s0,16(sp)
 787 000c 23349100 		sd	s1,8(sp)
 788              		.cfi_offset 1, -8
 789              		.cfi_offset 8, -16
 790              		.cfi_offset 9, -24
 791 0010 13040102 		addi	s0,sp,32
 792              		.cfi_def_cfa 8, 0
 793 0014 93040500 		mv	s1,a0
  74:src/syscall_cpp.cpp ****     if(first == 0) {
GAS LISTING /tmp/ccrMZ9a9.s 			page 19


 794              		.loc 1 74 76 is_stmt 0
 795 0018 97000000 		call	_ZN15MemoryAllocator18getMemoryAllocatorEv
 795      E7800000 
 796              	.LVL44:
 797 0020 93050001 		li	a1,16
 798 0024 97000000 		call	_ZN15MemoryAllocator9mem_allocEm
 798      E7800000 
 799              	.LVL45:
  75:src/syscall_cpp.cpp ****         first = newElem;
 800              		.loc 1 75 8
 801 002c 83B70400 		ld	a5,0(s1)
  75:src/syscall_cpp.cpp ****         first = newElem;
 802              		.loc 1 75 5
 803 0030 638C0700 		beqz	a5,.L57
 804              	.L54:
  80:src/syscall_cpp.cpp **** 
 805              		.loc 1 80 1
 806 0034 83308101 		ld	ra,24(sp)
 807              		.cfi_remember_state
 808              		.cfi_restore 1
 809 0038 03340101 		ld	s0,16(sp)
 810              		.cfi_restore 8
 811              		.cfi_def_cfa 2, 32
 812 003c 83348100 		ld	s1,8(sp)
 813              		.cfi_restore 9
 814              	.LVL46:
 815 0040 13010102 		addi	sp,sp,32
 816              		.cfi_def_cfa_offset 0
 817 0044 67800000 		jr	ra
 818              	.LVL47:
 819              	.L57:
 820              		.cfi_restore_state
  76:src/syscall_cpp.cpp ****         last = 0;
 821              		.loc 1 76 9
 822 0048 23B0A400 		sd	a0,0(s1)
  77:src/syscall_cpp.cpp ****         first->next = last;
 823              		.loc 1 77 9
 824 004c 23B40400 		sd	zero,8(s1)
  78:src/syscall_cpp.cpp ****     }
 825              		.loc 1 78 9
 826 0050 23340500 		sd	zero,8(a0)
  80:src/syscall_cpp.cpp **** 
 827              		.loc 1 80 1
 828 0054 6FF01FFE 		j	.L54
 829              		.cfi_endproc
 830              	.LFE56:
 832              		.text
 833              		.align	2
 834              		.globl	_ZN9Scheduler3putEP3PCB
 836              	_ZN9Scheduler3putEP3PCB:
 837              	.LFB21:
 132:src/syscall_cpp.cpp ****     queuePCB->push(pcb);
 838              		.loc 1 132 31 is_stmt 1
 839              		.cfi_startproc
 840              	.LVL48:
 841 03a8 130101FF 		addi	sp,sp,-16
 842              		.cfi_def_cfa_offset 16
GAS LISTING /tmp/ccrMZ9a9.s 			page 20


 843 03ac 23341100 		sd	ra,8(sp)
 844 03b0 23308100 		sd	s0,0(sp)
 845              		.cfi_offset 1, -8
 846              		.cfi_offset 8, -16
 847 03b4 13040101 		addi	s0,sp,16
 848              		.cfi_def_cfa 8, 0
 133:src/syscall_cpp.cpp **** }
 849              		.loc 1 133 5
 133:src/syscall_cpp.cpp **** }
 850              		.loc 1 133 19 is_stmt 0
 851 03b8 03350500 		ld	a0,0(a0)
 852              	.LVL49:
 853 03bc 97000000 		call	_ZN5QueueIP3PCBE4pushES1_
 853      E7800000 
 854              	.LVL50:
 134:src/syscall_cpp.cpp **** 
 855              		.loc 1 134 1
 856 03c4 83308100 		ld	ra,8(sp)
 857              		.cfi_restore 1
 858 03c8 03340100 		ld	s0,0(sp)
 859              		.cfi_restore 8
 860              		.cfi_def_cfa 2, 16
 861 03cc 13010101 		addi	sp,sp,16
 862              		.cfi_def_cfa_offset 0
 863 03d0 67800000 		jr	ra
 864              		.cfi_endproc
 865              	.LFE21:
 867              		.section	.text._ZN5QueueIP3PCBE5frontEv,"axG",@progbits,_ZN5QueueIP3PCBE5frontEv,comdat
 868              		.align	2
 869              		.weak	_ZN5QueueIP3PCBE5frontEv
 871              	_ZN5QueueIP3PCBE5frontEv:
 872              	.LFB57:
  83:src/syscall_cpp.cpp ****    if(first == 0)
 873              		.loc 1 83 3 is_stmt 1
 874              		.cfi_startproc
 875              	.LVL51:
 876 0000 130101FF 		addi	sp,sp,-16
 877              		.cfi_def_cfa_offset 16
 878 0004 23348100 		sd	s0,8(sp)
 879              		.cfi_offset 8, -8
 880 0008 13040101 		addi	s0,sp,16
 881              		.cfi_def_cfa 8, 0
  84:src/syscall_cpp.cpp ****        return 0;
 882              		.loc 1 84 7 is_stmt 0
 883 000c 03350500 		ld	a0,0(a0)
 884              	.LVL52:
  84:src/syscall_cpp.cpp ****        return 0;
 885              		.loc 1 84 4
 886 0010 63040500 		beqz	a0,.L60
  86:src/syscall_cpp.cpp **** }
 887              		.loc 1 86 18
 888 0014 03350500 		ld	a0,0(a0)
 889              	.L60:
  87:src/syscall_cpp.cpp **** 
 890              		.loc 1 87 1
 891 0018 03348100 		ld	s0,8(sp)
 892              		.cfi_restore 8
GAS LISTING /tmp/ccrMZ9a9.s 			page 21


 893              		.cfi_def_cfa 2, 16
 894 001c 13010101 		addi	sp,sp,16
 895              		.cfi_def_cfa_offset 0
 896 0020 67800000 		jr	ra
 897              		.cfi_endproc
 898              	.LFE57:
 900              		.section	.text._ZN5QueueIP3PCBE3popEv,"axG",@progbits,_ZN5QueueIP3PCBE3popEv,comdat
 901              		.align	2
 902              		.weak	_ZN5QueueIP3PCBE3popEv
 904              	_ZN5QueueIP3PCBE3popEv:
 905              	.LFB58:
  64:src/syscall_cpp.cpp ****     Elem* newFirst = first->next;
 906              		.loc 1 64 6 is_stmt 1
 907              		.cfi_startproc
 908              	.LVL53:
 909 0000 130101FE 		addi	sp,sp,-32
 910              		.cfi_def_cfa_offset 32
 911 0004 233C1100 		sd	ra,24(sp)
 912 0008 23388100 		sd	s0,16(sp)
 913 000c 23349100 		sd	s1,8(sp)
 914 0010 23302101 		sd	s2,0(sp)
 915              		.cfi_offset 1, -8
 916              		.cfi_offset 8, -16
 917              		.cfi_offset 9, -24
 918              		.cfi_offset 18, -32
 919 0014 13040102 		addi	s0,sp,32
 920              		.cfi_def_cfa 8, 0
 921 0018 93040500 		mv	s1,a0
  65:src/syscall_cpp.cpp ****     MemoryAllocator::getMemoryAllocator()->mem_free(first);
 922              		.loc 1 65 22 is_stmt 0
 923 001c 83370500 		ld	a5,0(a0)
  65:src/syscall_cpp.cpp ****     MemoryAllocator::getMemoryAllocator()->mem_free(first);
 924              		.loc 1 65 11
 925 0020 03B98700 		ld	s2,8(a5)
 926              	.LVL54:
  66:src/syscall_cpp.cpp ****     first = newFirst;
 927              		.loc 1 66 5
 928 0024 97000000 		call	_ZN15MemoryAllocator18getMemoryAllocatorEv
 928      E7800000 
 929              	.LVL55:
 930 002c 83B50400 		ld	a1,0(s1)
 931 0030 97000000 		call	_ZN15MemoryAllocator8mem_freeEPv
 931      E7800000 
 932              	.LVL56:
  67:src/syscall_cpp.cpp ****     if(first == 0)
 933              		.loc 1 67 5
 934 0038 23B02401 		sd	s2,0(s1)
  68:src/syscall_cpp.cpp ****         first = last = 0;
 935              		.loc 1 68 5
 936 003c 630E0900 		beqz	s2,.L66
 937              	.L63:
  70:src/syscall_cpp.cpp **** 
 938              		.loc 1 70 1
 939 0040 83308101 		ld	ra,24(sp)
 940              		.cfi_remember_state
 941              		.cfi_restore 1
 942 0044 03340101 		ld	s0,16(sp)
GAS LISTING /tmp/ccrMZ9a9.s 			page 22


 943              		.cfi_restore 8
 944              		.cfi_def_cfa 2, 32
 945 0048 83348100 		ld	s1,8(sp)
 946              		.cfi_restore 9
 947              	.LVL57:
 948 004c 03390100 		ld	s2,0(sp)
 949              		.cfi_restore 18
 950              	.LVL58:
 951 0050 13010102 		addi	sp,sp,32
 952              		.cfi_def_cfa_offset 0
 953 0054 67800000 		jr	ra
 954              	.LVL59:
 955              	.L66:
 956              		.cfi_restore_state
  69:src/syscall_cpp.cpp **** }
 957              		.loc 1 69 9
 958 0058 23B40400 		sd	zero,8(s1)
 959 005c 23B00400 		sd	zero,0(s1)
  70:src/syscall_cpp.cpp **** 
 960              		.loc 1 70 1
 961 0060 6FF01FFE 		j	.L63
 962              		.cfi_endproc
 963              	.LFE58:
 965              		.text
 966              		.align	2
 967              		.globl	_ZN9Scheduler3getEv
 969              	_ZN9Scheduler3getEv:
 970              	.LFB22:
 136:src/syscall_cpp.cpp ****     PCB* t =  queuePCB->front();
 971              		.loc 1 136 23 is_stmt 1
 972              		.cfi_startproc
 973              	.LVL60:
 974 03d4 130101FE 		addi	sp,sp,-32
 975              		.cfi_def_cfa_offset 32
 976 03d8 233C1100 		sd	ra,24(sp)
 977 03dc 23388100 		sd	s0,16(sp)
 978 03e0 23349100 		sd	s1,8(sp)
 979 03e4 23302101 		sd	s2,0(sp)
 980              		.cfi_offset 1, -8
 981              		.cfi_offset 8, -16
 982              		.cfi_offset 9, -24
 983              		.cfi_offset 18, -32
 984 03e8 13040102 		addi	s0,sp,32
 985              		.cfi_def_cfa 8, 0
 137:src/syscall_cpp.cpp ****     queuePCB->pop();
 986              		.loc 1 137 5
 137:src/syscall_cpp.cpp ****     queuePCB->pop();
 987              		.loc 1 137 15 is_stmt 0
 988 03ec 03390500 		ld	s2,0(a0)
 137:src/syscall_cpp.cpp ****     queuePCB->pop();
 989              		.loc 1 137 30
 990 03f0 13050900 		mv	a0,s2
 991              	.LVL61:
 992 03f4 97000000 		call	_ZN5QueueIP3PCBE5frontEv
 992      E7800000 
 993              	.LVL62:
 994 03fc 93040500 		mv	s1,a0
GAS LISTING /tmp/ccrMZ9a9.s 			page 23


 995              	.LVL63:
 138:src/syscall_cpp.cpp ****     return t;
 996              		.loc 1 138 5 is_stmt 1
 138:src/syscall_cpp.cpp ****     return t;
 997              		.loc 1 138 18 is_stmt 0
 998 0400 13050900 		mv	a0,s2
 999 0404 97000000 		call	_ZN5QueueIP3PCBE3popEv
 999      E7800000 
 1000              	.LVL64:
 139:src/syscall_cpp.cpp **** }
 1001              		.loc 1 139 5 is_stmt 1
 140:src/syscall_cpp.cpp **** 
 1002              		.loc 1 140 1 is_stmt 0
 1003 040c 13850400 		mv	a0,s1
 1004 0410 83308101 		ld	ra,24(sp)
 1005              		.cfi_restore 1
 1006 0414 03340101 		ld	s0,16(sp)
 1007              		.cfi_restore 8
 1008              		.cfi_def_cfa 2, 32
 1009 0418 83348100 		ld	s1,8(sp)
 1010              		.cfi_restore 9
 1011              	.LVL65:
 1012 041c 03390100 		ld	s2,0(sp)
 1013              		.cfi_restore 18
 1014 0420 13010102 		addi	sp,sp,32
 1015              		.cfi_def_cfa_offset 0
 1016 0424 67800000 		jr	ra
 1017              		.cfi_endproc
 1018              	.LFE22:
 1020              		.section	.text._ZN5QueueIP3PCBEdlEPv,"axG",@progbits,_ZN5QueueIP3PCBEdlEPv,comdat
 1021              		.align	2
 1022              		.weak	_ZN5QueueIP3PCBEdlEPv
 1024              	_ZN5QueueIP3PCBEdlEPv:
 1025              	.LFB59:
 113:src/syscall_cpp.cpp ****     ::operator delete(p);
 1026              		.loc 1 113 6 is_stmt 1
 1027              		.cfi_startproc
 1028              	.LVL66:
 1029 0000 130101FF 		addi	sp,sp,-16
 1030              		.cfi_def_cfa_offset 16
 1031 0004 23341100 		sd	ra,8(sp)
 1032 0008 23308100 		sd	s0,0(sp)
 1033              		.cfi_offset 1, -8
 1034              		.cfi_offset 8, -16
 1035 000c 13040101 		addi	s0,sp,16
 1036              		.cfi_def_cfa 8, 0
 114:src/syscall_cpp.cpp **** }
 1037              		.loc 1 114 22 is_stmt 0
 1038 0010 97000000 		call	_ZdlPv
 1038      E7800000 
 1039              	.LVL67:
 115:src/syscall_cpp.cpp **** 
 1040              		.loc 1 115 1
 1041 0018 83308100 		ld	ra,8(sp)
 1042              		.cfi_restore 1
 1043 001c 03340100 		ld	s0,0(sp)
 1044              		.cfi_restore 8
GAS LISTING /tmp/ccrMZ9a9.s 			page 24


 1045              		.cfi_def_cfa 2, 16
 1046 0020 13010101 		addi	sp,sp,16
 1047              		.cfi_def_cfa_offset 0
 1048 0024 67800000 		jr	ra
 1049              		.cfi_endproc
 1050              	.LFE59:
 1052              		.section	.text._ZN5QueueIP3PCBED2Ev,"axG",@progbits,_ZN5QueueIP3PCBED5Ev,comdat
 1053              		.align	2
 1054              		.weak	_ZN5QueueIP3PCBED2Ev
 1056              	_ZN5QueueIP3PCBED2Ev:
 1057              	.LFB61:
  95:src/syscall_cpp.cpp ****     Elem* curr = first;
 1058              		.loc 1 95 1 is_stmt 1
 1059              		.cfi_startproc
 1060              		.cfi_personality 0x9b,DW.ref.__gxx_personality_v0
 1061              		.cfi_lsda 0x1b,.LLSDA61
 1062              	.LVL68:
 1063 0000 130101FE 		addi	sp,sp,-32
 1064              		.cfi_def_cfa_offset 32
 1065 0004 233C1100 		sd	ra,24(sp)
 1066 0008 23388100 		sd	s0,16(sp)
 1067 000c 23349100 		sd	s1,8(sp)
 1068 0010 23302101 		sd	s2,0(sp)
 1069              		.cfi_offset 1, -8
 1070              		.cfi_offset 8, -16
 1071              		.cfi_offset 9, -24
 1072              		.cfi_offset 18, -32
 1073 0014 13040102 		addi	s0,sp,32
 1074              		.cfi_def_cfa 8, 0
 1075              	.LBB4:
  96:src/syscall_cpp.cpp ****     while(curr != 0)
 1076              		.loc 1 96 11 is_stmt 0
 1077 0018 83340500 		ld	s1,0(a0)
 1078              	.LVL69:
 1079              	.L73:
  97:src/syscall_cpp.cpp ****     {
 1080              		.loc 1 97 16 is_stmt 1
 1081 001c 63820402 		beqz	s1,.L71
 1082              	.LVL70:
 1083              	.LBB5:
 100:src/syscall_cpp.cpp ****         MemoryAllocator::getMemoryAllocator()->mem_free(old);
 1084              		.loc 1 100 9 is_stmt 0
 1085 0020 03B98400 		ld	s2,8(s1)
 1086              	.LVL71:
 101:src/syscall_cpp.cpp ****     }
 1087              		.loc 1 101 9
 1088 0024 97000000 		call	_ZN15MemoryAllocator18getMemoryAllocatorEv
 1088      E7800000 
 1089              	.LVL72:
 1090 002c 93850400 		mv	a1,s1
 1091 0030 97000000 		call	_ZN15MemoryAllocator8mem_freeEPv
 1091      E7800000 
 1092              	.LVL73:
 100:src/syscall_cpp.cpp ****         MemoryAllocator::getMemoryAllocator()->mem_free(old);
 1093              		.loc 1 100 9
 1094 0038 93040900 		mv	s1,s2
 1095              	.LVL74:
GAS LISTING /tmp/ccrMZ9a9.s 			page 25


 1096              	.LBE5:
  97:src/syscall_cpp.cpp ****     {
 1097              		.loc 1 97 5
 1098 003c 6FF01FFE 		j	.L73
 1099              	.LVL75:
 1100              	.L71:
 1101              	.LBE4:
 103:src/syscall_cpp.cpp **** 
 1102              		.loc 1 103 1
 1103 0040 83308101 		ld	ra,24(sp)
 1104              		.cfi_restore 1
 1105 0044 03340101 		ld	s0,16(sp)
 1106              		.cfi_restore 8
 1107              		.cfi_def_cfa 2, 32
 1108 0048 83348100 		ld	s1,8(sp)
 1109              		.cfi_restore 9
 1110              	.LVL76:
 1111 004c 03390100 		ld	s2,0(sp)
 1112              		.cfi_restore 18
 1113 0050 13010102 		addi	sp,sp,32
 1114              		.cfi_def_cfa_offset 0
 1115 0054 67800000 		jr	ra
 1116              		.cfi_endproc
 1117              	.LFE61:
 1118              		.globl	__gxx_personality_v0
 1119              		.section	.gcc_except_table._ZN5QueueIP3PCBED2Ev,"aG",@progbits,_ZN5QueueIP3PCBED5Ev,comdat
 1120              	.LLSDA61:
 1121 0000 FF       		.byte	0xff
 1122 0001 FF       		.byte	0xff
 1123 0002 03       		.byte	0x3
 1124 0003 00       		.byte	0
 1125              		.section	.text._ZN5QueueIP3PCBED2Ev,"axG",@progbits,_ZN5QueueIP3PCBED5Ev,comdat
 1127              		.weak	_ZN5QueueIP3PCBED1Ev
 1128              		.set	_ZN5QueueIP3PCBED1Ev,_ZN5QueueIP3PCBED2Ev
 1129              		.text
 1130              		.align	2
 1131              		.globl	_ZN9SchedulerD2Ev
 1133              	_ZN9SchedulerD2Ev:
 1134              	.LFB24:
 142:src/syscall_cpp.cpp ****     //todo
 1135              		.loc 1 142 1 is_stmt 1
 1136              		.cfi_startproc
 1137              		.cfi_personality 0x9b,DW.ref.__gxx_personality_v0
 1138              		.cfi_lsda 0x1b,.LLSDA24
 1139              	.LVL77:
 1140 0428 130101FE 		addi	sp,sp,-32
 1141              		.cfi_def_cfa_offset 32
 1142 042c 233C1100 		sd	ra,24(sp)
 1143 0430 23388100 		sd	s0,16(sp)
 1144 0434 23349100 		sd	s1,8(sp)
 1145              		.cfi_offset 1, -8
 1146              		.cfi_offset 8, -16
 1147              		.cfi_offset 9, -24
 1148 0438 13040102 		addi	s0,sp,32
 1149              		.cfi_def_cfa 8, 0
 1150              	.LBB6:
 145:src/syscall_cpp.cpp ****     //MemoryAllocator::getMemoryAllocator()->mem_free(queueThreads);
GAS LISTING /tmp/ccrMZ9a9.s 			page 26


 1151              		.loc 1 145 5
 145:src/syscall_cpp.cpp ****     //MemoryAllocator::getMemoryAllocator()->mem_free(queueThreads);
 1152              		.loc 1 145 12 is_stmt 0
 1153 043c 83340500 		ld	s1,0(a0)
 145:src/syscall_cpp.cpp ****     //MemoryAllocator::getMemoryAllocator()->mem_free(queueThreads);
 1154              		.loc 1 145 20
 1155 0440 638E0400 		beqz	s1,.L75
 145:src/syscall_cpp.cpp ****     //MemoryAllocator::getMemoryAllocator()->mem_free(queueThreads);
 1156              		.loc 1 145 12 discriminator 1
 1157 0444 13850400 		mv	a0,s1
 1158              	.LVL78:
 1159 0448 97000000 		call	_ZN5QueueIP3PCBED1Ev
 1159      E7800000 
 1160              	.LVL79:
 1161 0450 13850400 		mv	a0,s1
 1162 0454 97000000 		call	_ZN5QueueIP3PCBEdlEPv
 1162      E7800000 
 1163              	.LVL80:
 1164              	.L75:
 1165              	.LBE6:
 147:src/syscall_cpp.cpp **** 
 1166              		.loc 1 147 1
 1167 045c 83308101 		ld	ra,24(sp)
 1168              		.cfi_restore 1
 1169 0460 03340101 		ld	s0,16(sp)
 1170              		.cfi_restore 8
 1171              		.cfi_def_cfa 2, 32
 1172 0464 83348100 		ld	s1,8(sp)
 1173              		.cfi_restore 9
 1174 0468 13010102 		addi	sp,sp,32
 1175              		.cfi_def_cfa_offset 0
 1176 046c 67800000 		jr	ra
 1177              		.cfi_endproc
 1178              	.LFE24:
 1179              		.section	.gcc_except_table,"a",@progbits
 1180              	.LLSDA24:
 1181 0000 FF       		.byte	0xff
 1182 0001 FF       		.byte	0xff
 1183 0002 03       		.byte	0x3
 1184 0003 00       		.byte	0
 1185              		.text
 1187              		.globl	_ZN9SchedulerD1Ev
 1188              		.set	_ZN9SchedulerD1Ev,_ZN9SchedulerD2Ev
 1189              		.section	.text._ZN5QueueIP3PCBEnwEm,"axG",@progbits,_ZN5QueueIP3PCBEnwEm,comdat
 1190              		.align	2
 1191              		.weak	_ZN5QueueIP3PCBEnwEm
 1193              	_ZN5QueueIP3PCBEnwEm:
 1194              	.LFB63:
 106:src/syscall_cpp.cpp ****     //todo
 1195              		.loc 1 106 7 is_stmt 1
 1196              		.cfi_startproc
 1197              	.LVL81:
 1198 0000 130101FF 		addi	sp,sp,-16
 1199              		.cfi_def_cfa_offset 16
 1200 0004 23341100 		sd	ra,8(sp)
 1201 0008 23308100 		sd	s0,0(sp)
 1202              		.cfi_offset 1, -8
GAS LISTING /tmp/ccrMZ9a9.s 			page 27


 1203              		.cfi_offset 8, -16
 1204 000c 13040101 		addi	s0,sp,16
 1205              		.cfi_def_cfa 8, 0
 109:src/syscall_cpp.cpp **** }
 1206              		.loc 1 109 26 is_stmt 0
 1207 0010 13050001 		li	a0,16
 1208              	.LVL82:
 1209 0014 97000000 		call	_Znwm
 1209      E7800000 
 1210              	.LVL83:
 110:src/syscall_cpp.cpp **** 
 1211              		.loc 1 110 1
 1212 001c 83308100 		ld	ra,8(sp)
 1213              		.cfi_restore 1
 1214 0020 03340100 		ld	s0,0(sp)
 1215              		.cfi_restore 8
 1216              		.cfi_def_cfa 2, 16
 1217 0024 13010101 		addi	sp,sp,16
 1218              		.cfi_def_cfa_offset 0
 1219 0028 67800000 		jr	ra
 1220              		.cfi_endproc
 1221              	.LFE63:
 1223              		.section	.text._ZN5QueueIP3PCBEC2Ev,"axG",@progbits,_ZN5QueueIP3PCBEC5Ev,comdat
 1224              		.align	2
 1225              		.weak	_ZN5QueueIP3PCBEC2Ev
 1227              	_ZN5QueueIP3PCBEC2Ev:
 1228              	.LFB65:
  90:src/syscall_cpp.cpp ****     first = last = 0;
 1229              		.loc 1 90 1 is_stmt 1
 1230              		.cfi_startproc
 1231              	.LVL84:
 1232 0000 130101FF 		addi	sp,sp,-16
 1233              		.cfi_def_cfa_offset 16
 1234 0004 23348100 		sd	s0,8(sp)
 1235              		.cfi_offset 8, -8
 1236 0008 13040101 		addi	s0,sp,16
 1237              		.cfi_def_cfa 8, 0
 1238              	.LBB7:
  91:src/syscall_cpp.cpp **** }
 1239              		.loc 1 91 5 is_stmt 0
 1240 000c 23340500 		sd	zero,8(a0)
 1241 0010 23300500 		sd	zero,0(a0)
 1242              	.LBE7:
  92:src/syscall_cpp.cpp **** 
 1243              		.loc 1 92 1
 1244 0014 03348100 		ld	s0,8(sp)
 1245              		.cfi_restore 8
 1246              		.cfi_def_cfa 2, 16
 1247 0018 13010101 		addi	sp,sp,16
 1248              		.cfi_def_cfa_offset 0
 1249 001c 67800000 		jr	ra
 1250              		.cfi_endproc
 1251              	.LFE65:
 1253              		.weak	_ZN5QueueIP3PCBEC1Ev
 1254              		.set	_ZN5QueueIP3PCBEC1Ev,_ZN5QueueIP3PCBEC2Ev
 1255              		.text
 1256              		.align	2
GAS LISTING /tmp/ccrMZ9a9.s 			page 28


 1257              		.globl	_ZN9SchedulerC2Ev
 1259              	_ZN9SchedulerC2Ev:
 1260              	.LFB27:
 149:src/syscall_cpp.cpp ****     //todo
 1261              		.loc 1 149 1 is_stmt 1
 1262              		.cfi_startproc
 1263              	.LVL85:
 1264 0470 130101FE 		addi	sp,sp,-32
 1265              		.cfi_def_cfa_offset 32
 1266 0474 233C1100 		sd	ra,24(sp)
 1267 0478 23388100 		sd	s0,16(sp)
 1268 047c 23349100 		sd	s1,8(sp)
 1269 0480 23302101 		sd	s2,0(sp)
 1270              		.cfi_offset 1, -8
 1271              		.cfi_offset 8, -16
 1272              		.cfi_offset 9, -24
 1273              		.cfi_offset 18, -32
 1274 0484 13040102 		addi	s0,sp,32
 1275              		.cfi_def_cfa 8, 0
 1276 0488 93040500 		mv	s1,a0
 1277              	.LBB8:
 152:src/syscall_cpp.cpp **** }
 1278              		.loc 1 152 5
 152:src/syscall_cpp.cpp **** }
 1279              		.loc 1 152 31 is_stmt 0
 1280 048c 13050001 		li	a0,16
 1281              	.LVL86:
 1282 0490 97000000 		call	_ZN5QueueIP3PCBEnwEm
 1282      E7800000 
 1283              	.LVL87:
 1284 0498 13090500 		mv	s2,a0
 1285 049c 97000000 		call	_ZN5QueueIP3PCBEC1Ev
 1285      E7800000 
 1286              	.LVL88:
 152:src/syscall_cpp.cpp **** }
 1287              		.loc 1 152 13
 1288 04a4 23B02401 		sd	s2,0(s1)
 1289              	.LBE8:
 153:src/syscall_cpp.cpp **** 
 1290              		.loc 1 153 1
 1291 04a8 83308101 		ld	ra,24(sp)
 1292              		.cfi_restore 1
 1293 04ac 03340101 		ld	s0,16(sp)
 1294              		.cfi_restore 8
 1295              		.cfi_def_cfa 2, 32
 1296 04b0 83348100 		ld	s1,8(sp)
 1297              		.cfi_restore 9
 1298              	.LVL89:
 1299 04b4 03390100 		ld	s2,0(sp)
 1300              		.cfi_restore 18
 1301 04b8 13010102 		addi	sp,sp,32
 1302              		.cfi_def_cfa_offset 0
 1303 04bc 67800000 		jr	ra
 1304              		.cfi_endproc
 1305              	.LFE27:
 1307              		.globl	_ZN9SchedulerC1Ev
 1308              		.set	_ZN9SchedulerC1Ev,_ZN9SchedulerC2Ev
GAS LISTING /tmp/ccrMZ9a9.s 			page 29


 1309              		.align	2
 1310              		.globl	_ZN9Scheduler12getSchedulerEv
 1312              	_ZN9Scheduler12getSchedulerEv:
 1313              	.LFB20:
 121:src/syscall_cpp.cpp ****     if(scheduler == 0)
 1314              		.loc 1 121 38 is_stmt 1
 1315              		.cfi_startproc
 1316              		.cfi_personality 0x9b,DW.ref.__gxx_personality_v0
 1317              		.cfi_lsda 0x1b,.LLSDA20
 122:src/syscall_cpp.cpp ****     {
 1318              		.loc 1 122 5
 122:src/syscall_cpp.cpp ****     {
 1319              		.loc 1 122 18 is_stmt 0
 1320 04c0 97070000 		ld	a5,.LANCHOR0+8
 1320      83B70700 
 122:src/syscall_cpp.cpp ****     {
 1321              		.loc 1 122 5
 1322 04c8 63880700 		beqz	a5,.L93
 129:src/syscall_cpp.cpp **** }
 1323              		.loc 1 129 5 is_stmt 1
 129:src/syscall_cpp.cpp **** }
 1324              		.loc 1 129 12 is_stmt 0
 1325 04cc 17050000 		ld	a0,.LANCHOR0+8
 1325      03350500 
 130:src/syscall_cpp.cpp **** 
 1326              		.loc 1 130 1
 1327 04d4 67800000 		ret
 1328              	.L93:
 121:src/syscall_cpp.cpp ****     if(scheduler == 0)
 1329              		.loc 1 121 38
 1330 04d8 130101FE 		addi	sp,sp,-32
 1331              		.cfi_def_cfa_offset 32
 1332 04dc 233C1100 		sd	ra,24(sp)
 1333 04e0 23388100 		sd	s0,16(sp)
 1334 04e4 23349100 		sd	s1,8(sp)
 1335 04e8 23302101 		sd	s2,0(sp)
 1336              		.cfi_offset 1, -8
 1337              		.cfi_offset 8, -16
 1338              		.cfi_offset 9, -24
 1339              		.cfi_offset 18, -32
 1340 04ec 13040102 		addi	s0,sp,32
 1341              		.cfi_def_cfa 8, 0
 126:src/syscall_cpp.cpp ****     }
 1342              		.loc 1 126 9 is_stmt 1
 126:src/syscall_cpp.cpp ****     }
 1343              		.loc 1 126 35 is_stmt 0
 1344 04f0 13058000 		li	a0,8
 1345              	.LEHB0:
 1346 04f4 97000000 		call	_ZN9SchedulernwEm
 1346      E7800000 
 1347              	.LVL90:
 1348              	.LEHE0:
 1349 04fc 93040500 		mv	s1,a0
 1350              	.LEHB1:
 1351 0500 97000000 		call	_ZN9SchedulerC1Ev
 1351      E7800000 
 1352              	.LVL91:
GAS LISTING /tmp/ccrMZ9a9.s 			page 30


 1353              	.LEHE1:
 126:src/syscall_cpp.cpp ****     }
 1354              		.loc 1 126 19
 1355 0508 97070000 		sd	s1,.LANCHOR0+8,a5
 1355      23B09700 
 129:src/syscall_cpp.cpp **** }
 1356              		.loc 1 129 5 is_stmt 1
 129:src/syscall_cpp.cpp **** }
 1357              		.loc 1 129 12 is_stmt 0
 1358 0510 17050000 		ld	a0,.LANCHOR0+8
 1358      03350500 
 130:src/syscall_cpp.cpp **** 
 1359              		.loc 1 130 1
 1360 0518 83308101 		ld	ra,24(sp)
 1361              		.cfi_remember_state
 1362              		.cfi_restore 1
 1363 051c 03340101 		ld	s0,16(sp)
 1364              		.cfi_restore 8
 1365              		.cfi_def_cfa 2, 32
 1366 0520 83348100 		ld	s1,8(sp)
 1367              		.cfi_restore 9
 1368 0524 03390100 		ld	s2,0(sp)
 1369              		.cfi_restore 18
 1370 0528 13010102 		addi	sp,sp,32
 1371              		.cfi_def_cfa_offset 0
 1372 052c 67800000 		jr	ra
 1373              	.L87:
 1374              		.cfi_restore_state
 1375 0530 13090500 		mv	s2,a0
 126:src/syscall_cpp.cpp ****     }
 1376              		.loc 1 126 35
 1377 0534 13850400 		mv	a0,s1
 1378 0538 97000000 		call	_ZN9SchedulerdlEPv
 1378      E7800000 
 1379              	.LVL92:
 1380 0540 13050900 		mv	a0,s2
 1381              	.LEHB2:
 1382 0544 97000000 		call	_Unwind_Resume@plt
 1382      E7800000 
 1383              	.LVL93:
 1384              	.LEHE2:
 1385              		.cfi_endproc
 1386              	.LFE20:
 1387              		.section	.gcc_except_table
 1388              	.LLSDA20:
 1389 0004 FF       		.byte	0xff
 1390 0005 FF       		.byte	0xff
 1391 0006 03       		.byte	0x3
 1392 0007 27       		.byte	0x27
 1393 0008 00000000 		.4byte	.LEHB0-.LFB20
 1394 000c 00000000 		.4byte	.LEHE0-.LEHB0
 1395 0010 00000000 		.4byte	0
 1396 0014 00       		.byte	0
 1397 0015 00000000 		.4byte	.LEHB1-.LFB20
 1398 0019 00000000 		.4byte	.LEHE1-.LEHB1
 1399 001d 00000000 		.4byte	.L87-.LFB20
 1400 0021 00       		.byte	0
GAS LISTING /tmp/ccrMZ9a9.s 			page 31


 1401 0022 00000000 		.4byte	.LEHB2-.LFB20
 1402 0026 00000000 		.4byte	.LEHE2-.LEHB2
 1403 002a 00000000 		.4byte	0
 1404 002e 00       		.byte	0
 1405              		.text
 1407              		.align	2
 1408              		.globl	_ZN3PCB5startEv
 1410              	_ZN3PCB5startEv:
 1411              	.LFB48:
 221:src/syscall_cpp.cpp ****     Scheduler::getScheduler()->put(this);
 1412              		.loc 1 221 1 is_stmt 1
 1413              		.cfi_startproc
 1414              	.LVL94:
 1415 054c 130101FE 		addi	sp,sp,-32
 1416              		.cfi_def_cfa_offset 32
 1417 0550 233C1100 		sd	ra,24(sp)
 1418 0554 23388100 		sd	s0,16(sp)
 1419 0558 23349100 		sd	s1,8(sp)
 1420              		.cfi_offset 1, -8
 1421              		.cfi_offset 8, -16
 1422              		.cfi_offset 9, -24
 1423 055c 13040102 		addi	s0,sp,32
 1424              		.cfi_def_cfa 8, 0
 1425 0560 93040500 		mv	s1,a0
 222:src/syscall_cpp.cpp **** }
 1426              		.loc 1 222 5
 222:src/syscall_cpp.cpp **** }
 1427              		.loc 1 222 35 is_stmt 0
 1428 0564 97000000 		call	_ZN9Scheduler12getSchedulerEv
 1428      E7800000 
 1429              	.LVL95:
 1430 056c 93850400 		mv	a1,s1
 1431 0570 97000000 		call	_ZN9Scheduler3putEP3PCB
 1431      E7800000 
 1432              	.LVL96:
 223:src/syscall_cpp.cpp **** 
 1433              		.loc 1 223 1
 1434 0578 83308101 		ld	ra,24(sp)
 1435              		.cfi_restore 1
 1436 057c 03340101 		ld	s0,16(sp)
 1437              		.cfi_restore 8
 1438              		.cfi_def_cfa 2, 32
 1439 0580 83348100 		ld	s1,8(sp)
 1440              		.cfi_restore 9
 1441              	.LVL97:
 1442 0584 13010102 		addi	sp,sp,32
 1443              		.cfi_def_cfa_offset 0
 1444 0588 67800000 		jr	ra
 1445              		.cfi_endproc
 1446              	.LFE48:
 1448              		.align	2
 1449              		.globl	_ZN6Thread5startEv
 1451              	_ZN6Thread5startEv:
 1452              	.LFB34:
 177:src/syscall_cpp.cpp ****     threadPCB->start();
 1453              		.loc 1 177 22 is_stmt 1
 1454              		.cfi_startproc
GAS LISTING /tmp/ccrMZ9a9.s 			page 32


 1455              	.LVL98:
 1456 058c 130101FF 		addi	sp,sp,-16
 1457              		.cfi_def_cfa_offset 16
 1458 0590 23341100 		sd	ra,8(sp)
 1459 0594 23308100 		sd	s0,0(sp)
 1460              		.cfi_offset 1, -8
 1461              		.cfi_offset 8, -16
 1462 0598 13040101 		addi	s0,sp,16
 1463              		.cfi_def_cfa 8, 0
 178:src/syscall_cpp.cpp **** }
 1464              		.loc 1 178 5
 178:src/syscall_cpp.cpp **** }
 1465              		.loc 1 178 21 is_stmt 0
 1466 059c 03350502 		ld	a0,32(a0)
 1467              	.LVL99:
 1468 05a0 97000000 		call	_ZN3PCB5startEv
 1468      E7800000 
 1469              	.LVL100:
 179:src/syscall_cpp.cpp **** 
 1470              		.loc 1 179 1
 1471 05a8 83308100 		ld	ra,8(sp)
 1472              		.cfi_restore 1
 1473 05ac 03340100 		ld	s0,0(sp)
 1474              		.cfi_restore 8
 1475              		.cfi_def_cfa 2, 16
 1476 05b0 13010101 		addi	sp,sp,16
 1477              		.cfi_def_cfa_offset 0
 1478 05b4 67800000 		jr	ra
 1479              		.cfi_endproc
 1480              	.LFE34:
 1482              		.globl	_ZN6System10runningPCBE
 1483              		.globl	_ZN9Scheduler9schedulerE
 1484              		.globl	_ZN15MemoryAllocator15memoryAllocatorE
 1485              		.bss
 1486              		.align	3
 1487              		.set	.LANCHOR0,. + 0
 1490              	_ZN15MemoryAllocator15memoryAllocatorE:
 1491 0000 00000000 		.zero	8
 1491      00000000 
 1494              	_ZN9Scheduler9schedulerE:
 1495 0008 00000000 		.zero	8
 1495      00000000 
 1498              	_ZN6System10runningPCBE:
 1499 0010 00000000 		.zero	8
 1499      00000000 
 1500              		.text
 1501              	.Letext0:
 1502              		.file 2 "src/../h/../lib/hw.h"
 1503              		.file 3 "src/../h/syscall_cpp.h"
 1504              		.file 4 "src/../h/syscall_c.h"
 5665              		.align	3
 5668              	DW.ref.__gxx_personality_v0:
 5669 0000 00000000 		.dword	__gxx_personality_v0
 5669      00000000 
 5670              		.ident	"GCC: (Ubuntu 9.3.0-17ubuntu1~20.04) 9.3.0"
 5671              		.section	.note.GNU-stack,"",@progbits
GAS LISTING /tmp/ccrMZ9a9.s 			page 33


DEFINED SYMBOLS
                            *ABS*:0000000000000000 syscall_cpp.cpp
     /tmp/ccrMZ9a9.s:9      .text:0000000000000000 _Znwm
     /tmp/ccrMZ9a9.s:13     .text:0000000000000000 .L0 
     /tmp/ccrMZ9a9.s:15     .text:0000000000000000 .L0 
     /tmp/ccrMZ9a9.s:16     .text:0000000000000004 .L0 
     /tmp/ccrMZ9a9.s:19     .text:000000000000000c .L0 
     /tmp/ccrMZ9a9.s:20     .text:000000000000000c .L0 
     /tmp/ccrMZ9a9.s:22     .text:0000000000000010 .L0 
     /tmp/ccrMZ9a9.s:24     .text:0000000000000010 .L0 
     /tmp/ccrMZ9a9.s:25     .text:0000000000000010 .L0 
     /tmp/ccrMZ9a9.s:28     .text:0000000000000018 .L0 
     /tmp/ccrMZ9a9.s:29     .text:000000000000001c .L0 
     /tmp/ccrMZ9a9.s:31     .text:0000000000000020 .L0 
     /tmp/ccrMZ9a9.s:32     .text:0000000000000020 .L0 
     /tmp/ccrMZ9a9.s:34     .text:0000000000000024 .L0 
     /tmp/ccrMZ9a9.s:36     .text:0000000000000028 .L0 
     /tmp/ccrMZ9a9.s:42     .text:0000000000000028 _ZdlPv
     /tmp/ccrMZ9a9.s:45     .text:0000000000000028 .L0 
     /tmp/ccrMZ9a9.s:47     .text:0000000000000028 .L0 
     /tmp/ccrMZ9a9.s:48     .text:000000000000002c .L0 
     /tmp/ccrMZ9a9.s:51     .text:0000000000000034 .L0 
     /tmp/ccrMZ9a9.s:52     .text:0000000000000034 .L0 
     /tmp/ccrMZ9a9.s:54     .text:0000000000000038 .L0 
     /tmp/ccrMZ9a9.s:56     .text:0000000000000038 .L0 
     /tmp/ccrMZ9a9.s:57     .text:0000000000000038 .L0 
     /tmp/ccrMZ9a9.s:60     .text:0000000000000040 .L0 
     /tmp/ccrMZ9a9.s:61     .text:0000000000000044 .L0 
     /tmp/ccrMZ9a9.s:63     .text:0000000000000048 .L0 
     /tmp/ccrMZ9a9.s:64     .text:0000000000000048 .L0 
     /tmp/ccrMZ9a9.s:66     .text:000000000000004c .L0 
     /tmp/ccrMZ9a9.s:68     .text:0000000000000050 .L0 
     /tmp/ccrMZ9a9.s:74     .text:0000000000000050 _ZN15MemoryAllocatorC2Ev
     /tmp/ccrMZ9a9.s:77     .text:0000000000000050 .L0 
     /tmp/ccrMZ9a9.s:79     .text:0000000000000050 .L0 
     /tmp/ccrMZ9a9.s:80     .text:0000000000000054 .L0 
     /tmp/ccrMZ9a9.s:82     .text:0000000000000058 .L0 
     /tmp/ccrMZ9a9.s:84     .text:000000000000005c .L0 
     /tmp/ccrMZ9a9.s:86     .text:000000000000005c .L0 
     /tmp/ccrMZ9a9.s:87     .text:0000000000000060 .L0 
     /tmp/ccrMZ9a9.s:88     .text:0000000000000060 .L0 
     /tmp/ccrMZ9a9.s:90     .text:0000000000000064 .L0 
     /tmp/ccrMZ9a9.s:92     .text:0000000000000068 .L0 
     /tmp/ccrMZ9a9.s:74     .text:0000000000000050 _ZN15MemoryAllocatorC1Ev
     /tmp/ccrMZ9a9.s:100    .text:0000000000000068 _ZN15MemoryAllocator9mem_allocEm
     /tmp/ccrMZ9a9.s:103    .text:0000000000000068 .L0 
     /tmp/ccrMZ9a9.s:105    .text:0000000000000068 .L0 
     /tmp/ccrMZ9a9.s:106    .text:000000000000006c .L0 
     /tmp/ccrMZ9a9.s:109    .text:0000000000000074 .L0 
     /tmp/ccrMZ9a9.s:110    .text:0000000000000074 .L0 
     /tmp/ccrMZ9a9.s:112    .text:0000000000000078 .L0 
     /tmp/ccrMZ9a9.s:114    .text:0000000000000078 .L0 
     /tmp/ccrMZ9a9.s:115    .text:0000000000000078 .L0 
     /tmp/ccrMZ9a9.s:120    .text:0000000000000084 .L0 
     /tmp/ccrMZ9a9.s:121    .text:0000000000000088 .L0 
     /tmp/ccrMZ9a9.s:123    .text:000000000000008c .L0 
     /tmp/ccrMZ9a9.s:124    .text:000000000000008c .L0 
GAS LISTING /tmp/ccrMZ9a9.s 			page 34


     /tmp/ccrMZ9a9.s:126    .text:0000000000000090 .L0 
     /tmp/ccrMZ9a9.s:128    .text:0000000000000094 .L0 
     /tmp/ccrMZ9a9.s:134    .text:0000000000000094 _ZN15MemoryAllocator8mem_freeEPv
     /tmp/ccrMZ9a9.s:137    .text:0000000000000094 .L0 
     /tmp/ccrMZ9a9.s:139    .text:0000000000000094 .L0 
     /tmp/ccrMZ9a9.s:140    .text:0000000000000098 .L0 
     /tmp/ccrMZ9a9.s:143    .text:00000000000000a0 .L0 
     /tmp/ccrMZ9a9.s:144    .text:00000000000000a0 .L0 
     /tmp/ccrMZ9a9.s:146    .text:00000000000000a4 .L0 
     /tmp/ccrMZ9a9.s:148    .text:00000000000000a4 .L0 
     /tmp/ccrMZ9a9.s:149    .text:00000000000000a4 .L0 
     /tmp/ccrMZ9a9.s:154    .text:00000000000000b0 .L0 
     /tmp/ccrMZ9a9.s:155    .text:00000000000000b4 .L0 
     /tmp/ccrMZ9a9.s:157    .text:00000000000000b8 .L0 
     /tmp/ccrMZ9a9.s:158    .text:00000000000000b8 .L0 
     /tmp/ccrMZ9a9.s:160    .text:00000000000000bc .L0 
     /tmp/ccrMZ9a9.s:162    .text:00000000000000c0 .L0 
     /tmp/ccrMZ9a9.s:168    .text:00000000000000c0 _ZN15MemoryAllocatorD2Ev
     /tmp/ccrMZ9a9.s:171    .text:00000000000000c0 .L0 
     /tmp/ccrMZ9a9.s:173    .text:00000000000000c0 .L0 
     /tmp/ccrMZ9a9.s:174    .text:00000000000000c4 .L0 
     /tmp/ccrMZ9a9.s:176    .text:00000000000000c8 .L0 
     /tmp/ccrMZ9a9.s:178    .text:00000000000000cc .L0 
     /tmp/ccrMZ9a9.s:180    .text:00000000000000cc .L0 
     /tmp/ccrMZ9a9.s:181    .text:00000000000000d0 .L0 
     /tmp/ccrMZ9a9.s:182    .text:00000000000000d0 .L0 
     /tmp/ccrMZ9a9.s:184    .text:00000000000000d4 .L0 
     /tmp/ccrMZ9a9.s:186    .text:00000000000000d8 .L0 
     /tmp/ccrMZ9a9.s:168    .text:00000000000000c0 _ZN15MemoryAllocatorD1Ev
     /tmp/ccrMZ9a9.s:194    .text:00000000000000d8 _ZN15MemoryAllocatornwEm
     /tmp/ccrMZ9a9.s:197    .text:00000000000000d8 .L0 
     /tmp/ccrMZ9a9.s:199    .text:00000000000000d8 .L0 
     /tmp/ccrMZ9a9.s:200    .text:00000000000000dc .L0 
     /tmp/ccrMZ9a9.s:203    .text:00000000000000e4 .L0 
     /tmp/ccrMZ9a9.s:204    .text:00000000000000e4 .L0 
     /tmp/ccrMZ9a9.s:206    .text:00000000000000e8 .L0 
     /tmp/ccrMZ9a9.s:208    .text:00000000000000e8 .L0 
     /tmp/ccrMZ9a9.s:209    .text:00000000000000e8 .L0 
     /tmp/ccrMZ9a9.s:212    .text:00000000000000f0 .L0 
     /tmp/ccrMZ9a9.s:213    .text:00000000000000f4 .L0 
     /tmp/ccrMZ9a9.s:215    .text:00000000000000f8 .L0 
     /tmp/ccrMZ9a9.s:216    .text:00000000000000f8 .L0 
     /tmp/ccrMZ9a9.s:218    .text:00000000000000fc .L0 
     /tmp/ccrMZ9a9.s:220    .text:0000000000000100 .L0 
     /tmp/ccrMZ9a9.s:226    .text:0000000000000100 _ZN15MemoryAllocator18getMemoryAllocatorEv
     /tmp/ccrMZ9a9.s:229    .text:0000000000000100 .L0 
     /tmp/ccrMZ9a9.s:230    .text:0000000000000100 .L0 
     /tmp/ccrMZ9a9.s:231    .text:0000000000000100 .L0 
     /tmp/ccrMZ9a9.s:232    .text:0000000000000100 .L0 
     /tmp/ccrMZ9a9.s:234    .text:0000000000000108 .L0 
     /tmp/ccrMZ9a9.s:236    .text:000000000000010c .L0 
     /tmp/ccrMZ9a9.s:237    .text:000000000000010c .L0 
     /tmp/ccrMZ9a9.s:241    .text:0000000000000118 .L0 
     /tmp/ccrMZ9a9.s:242    .text:000000000000011c .L0 
     /tmp/ccrMZ9a9.s:245    .text:0000000000000124 .L0 
     /tmp/ccrMZ9a9.s:246    .text:0000000000000124 .L0 
     /tmp/ccrMZ9a9.s:248    .text:0000000000000128 .L0 
GAS LISTING /tmp/ccrMZ9a9.s 			page 35


     /tmp/ccrMZ9a9.s:250    .text:0000000000000128 .L0 
     /tmp/ccrMZ9a9.s:251    .text:0000000000000128 .L0 
     /tmp/ccrMZ9a9.s:255    .text:0000000000000134 .L0 
     /tmp/ccrMZ9a9.s:257    .text:000000000000013c .L0 
     /tmp/ccrMZ9a9.s:258    .text:000000000000013c .L0 
     /tmp/ccrMZ9a9.s:260    .text:0000000000000148 .L0 
     /tmp/ccrMZ9a9.s:262    .text:000000000000014c .L0 
     /tmp/ccrMZ9a9.s:263    .text:000000000000014c .L0 
     /tmp/ccrMZ9a9.s:265    .text:0000000000000150 .L0 
     /tmp/ccrMZ9a9.s:267    .text:0000000000000154 .L0 
     /tmp/ccrMZ9a9.s:273    .text:0000000000000154 _ZN15MemoryAllocatordlEPv
     /tmp/ccrMZ9a9.s:276    .text:0000000000000154 .L0 
     /tmp/ccrMZ9a9.s:278    .text:0000000000000154 .L0 
     /tmp/ccrMZ9a9.s:279    .text:0000000000000158 .L0 
     /tmp/ccrMZ9a9.s:282    .text:0000000000000160 .L0 
     /tmp/ccrMZ9a9.s:283    .text:0000000000000160 .L0 
     /tmp/ccrMZ9a9.s:285    .text:0000000000000164 .L0 
     /tmp/ccrMZ9a9.s:287    .text:0000000000000164 .L0 
     /tmp/ccrMZ9a9.s:288    .text:0000000000000164 .L0 
     /tmp/ccrMZ9a9.s:291    .text:000000000000016c .L0 
     /tmp/ccrMZ9a9.s:292    .text:0000000000000170 .L0 
     /tmp/ccrMZ9a9.s:294    .text:0000000000000174 .L0 
     /tmp/ccrMZ9a9.s:295    .text:0000000000000174 .L0 
     /tmp/ccrMZ9a9.s:297    .text:0000000000000178 .L0 
     /tmp/ccrMZ9a9.s:299    .text:000000000000017c .L0 
     /tmp/ccrMZ9a9.s:305    .text:000000000000017c _ZN9SchedulernwEm
     /tmp/ccrMZ9a9.s:308    .text:000000000000017c .L0 
     /tmp/ccrMZ9a9.s:310    .text:000000000000017c .L0 
     /tmp/ccrMZ9a9.s:311    .text:0000000000000180 .L0 
     /tmp/ccrMZ9a9.s:314    .text:0000000000000188 .L0 
     /tmp/ccrMZ9a9.s:315    .text:0000000000000188 .L0 
     /tmp/ccrMZ9a9.s:317    .text:000000000000018c .L0 
     /tmp/ccrMZ9a9.s:319    .text:000000000000018c .L0 
     /tmp/ccrMZ9a9.s:320    .text:000000000000018c .L0 
     /tmp/ccrMZ9a9.s:325    .text:0000000000000198 .L0 
     /tmp/ccrMZ9a9.s:326    .text:000000000000019c .L0 
     /tmp/ccrMZ9a9.s:328    .text:00000000000001a0 .L0 
     /tmp/ccrMZ9a9.s:329    .text:00000000000001a0 .L0 
     /tmp/ccrMZ9a9.s:331    .text:00000000000001a4 .L0 
     /tmp/ccrMZ9a9.s:333    .text:00000000000001a8 .L0 
     /tmp/ccrMZ9a9.s:339    .text:00000000000001a8 _ZN9SchedulerdlEPv
     /tmp/ccrMZ9a9.s:342    .text:00000000000001a8 .L0 
     /tmp/ccrMZ9a9.s:344    .text:00000000000001a8 .L0 
     /tmp/ccrMZ9a9.s:345    .text:00000000000001ac .L0 
     /tmp/ccrMZ9a9.s:348    .text:00000000000001b4 .L0 
     /tmp/ccrMZ9a9.s:349    .text:00000000000001b4 .L0 
     /tmp/ccrMZ9a9.s:351    .text:00000000000001b8 .L0 
     /tmp/ccrMZ9a9.s:353    .text:00000000000001b8 .L0 
     /tmp/ccrMZ9a9.s:354    .text:00000000000001b8 .L0 
     /tmp/ccrMZ9a9.s:357    .text:00000000000001c0 .L0 
     /tmp/ccrMZ9a9.s:358    .text:00000000000001c4 .L0 
     /tmp/ccrMZ9a9.s:360    .text:00000000000001c8 .L0 
     /tmp/ccrMZ9a9.s:361    .text:00000000000001c8 .L0 
     /tmp/ccrMZ9a9.s:363    .text:00000000000001cc .L0 
     /tmp/ccrMZ9a9.s:365    .text:00000000000001d0 .L0 
     /tmp/ccrMZ9a9.s:371    .text:00000000000001d0 _ZN6ThreadC2EPFvPvES0_
     /tmp/ccrMZ9a9.s:374    .text:00000000000001d0 .L0 
GAS LISTING /tmp/ccrMZ9a9.s 			page 36


     /tmp/ccrMZ9a9.s:376    .text:00000000000001d0 .L0 
     /tmp/ccrMZ9a9.s:377    .text:00000000000001d4 .L0 
     /tmp/ccrMZ9a9.s:379    .text:00000000000001d8 .L0 
     /tmp/ccrMZ9a9.s:381    .text:00000000000001dc .L0 
     /tmp/ccrMZ9a9.s:384    .text:00000000000001dc .L0 
     /tmp/ccrMZ9a9.s:385    .text:00000000000001dc .L0 
     /tmp/ccrMZ9a9.s:387    .text:00000000000001e0 .L0 
     /tmp/ccrMZ9a9.s:388    .text:00000000000001e0 .L0 
     /tmp/ccrMZ9a9.s:391    .text:00000000000001e4 .L0 
     /tmp/ccrMZ9a9.s:392    .text:00000000000001e8 .L0 
     /tmp/ccrMZ9a9.s:393    .text:00000000000001e8 .L0 
     /tmp/ccrMZ9a9.s:395    .text:00000000000001ec .L0 
     /tmp/ccrMZ9a9.s:397    .text:00000000000001f0 .L0 
     /tmp/ccrMZ9a9.s:371    .text:00000000000001d0 _ZN6ThreadC1EPFvPvES0_
     /tmp/ccrMZ9a9.s:405    .text:00000000000001f0 _ZN6Thread8dispatchEv
     /tmp/ccrMZ9a9.s:408    .text:00000000000001f0 .L0 
     /tmp/ccrMZ9a9.s:409    .text:00000000000001f0 .L0 
     /tmp/ccrMZ9a9.s:410    .text:00000000000001f4 .L0 
     /tmp/ccrMZ9a9.s:412    .text:00000000000001f8 .L0 
     /tmp/ccrMZ9a9.s:414    .text:00000000000001fc .L0 
     /tmp/ccrMZ9a9.s:416    .text:00000000000001fc .L0 
     /tmp/ccrMZ9a9.s:417    .text:0000000000000200 .L0 
     /tmp/ccrMZ9a9.s:418    .text:0000000000000200 .L0 
     /tmp/ccrMZ9a9.s:420    .text:0000000000000204 .L0 
     /tmp/ccrMZ9a9.s:422    .text:0000000000000208 .L0 
     /tmp/ccrMZ9a9.s:428    .text:0000000000000208 _ZN6Thread5sleepEm
     /tmp/ccrMZ9a9.s:431    .text:0000000000000208 .L0 
     /tmp/ccrMZ9a9.s:433    .text:0000000000000208 .L0 
     /tmp/ccrMZ9a9.s:434    .text:000000000000020c .L0 
     /tmp/ccrMZ9a9.s:436    .text:0000000000000210 .L0 
     /tmp/ccrMZ9a9.s:438    .text:0000000000000214 .L0 
     /tmp/ccrMZ9a9.s:440    .text:0000000000000214 .L0 
     /tmp/ccrMZ9a9.s:441    .text:0000000000000218 .L0 
     /tmp/ccrMZ9a9.s:442    .text:0000000000000218 .L0 
     /tmp/ccrMZ9a9.s:444    .text:000000000000021c .L0 
     /tmp/ccrMZ9a9.s:446    .text:0000000000000220 .L0 
     /tmp/ccrMZ9a9.s:452    .text:0000000000000220 _ZN6ThreadC2Ev
     /tmp/ccrMZ9a9.s:455    .text:0000000000000220 .L0 
     /tmp/ccrMZ9a9.s:457    .text:0000000000000220 .L0 
     /tmp/ccrMZ9a9.s:458    .text:0000000000000224 .L0 
     /tmp/ccrMZ9a9.s:460    .text:0000000000000228 .L0 
     /tmp/ccrMZ9a9.s:462    .text:000000000000022c .L0 
     /tmp/ccrMZ9a9.s:464    .text:000000000000022c .L0 
     /tmp/ccrMZ9a9.s:465    .text:0000000000000230 .L0 
     /tmp/ccrMZ9a9.s:466    .text:0000000000000230 .L0 
     /tmp/ccrMZ9a9.s:468    .text:0000000000000234 .L0 
     /tmp/ccrMZ9a9.s:470    .text:0000000000000238 .L0 
     /tmp/ccrMZ9a9.s:452    .text:0000000000000220 _ZN6ThreadC1Ev
     /tmp/ccrMZ9a9.s:478    .text:0000000000000238 _ZN6ThreadnwEm
     /tmp/ccrMZ9a9.s:481    .text:0000000000000238 .L0 
     /tmp/ccrMZ9a9.s:483    .text:0000000000000238 .L0 
     /tmp/ccrMZ9a9.s:484    .text:000000000000023c .L0 
     /tmp/ccrMZ9a9.s:487    .text:0000000000000244 .L0 
     /tmp/ccrMZ9a9.s:488    .text:0000000000000244 .L0 
     /tmp/ccrMZ9a9.s:490    .text:0000000000000248 .L0 
     /tmp/ccrMZ9a9.s:492    .text:0000000000000248 .L0 
     /tmp/ccrMZ9a9.s:493    .text:0000000000000248 .L0 
GAS LISTING /tmp/ccrMZ9a9.s 			page 37


     /tmp/ccrMZ9a9.s:498    .text:0000000000000254 .L0 
     /tmp/ccrMZ9a9.s:499    .text:0000000000000258 .L0 
     /tmp/ccrMZ9a9.s:501    .text:000000000000025c .L0 
     /tmp/ccrMZ9a9.s:502    .text:000000000000025c .L0 
     /tmp/ccrMZ9a9.s:504    .text:0000000000000260 .L0 
     /tmp/ccrMZ9a9.s:506    .text:0000000000000264 .L0 
     /tmp/ccrMZ9a9.s:512    .text:0000000000000264 _ZN6ThreaddlEPv
     /tmp/ccrMZ9a9.s:515    .text:0000000000000264 .L0 
     /tmp/ccrMZ9a9.s:517    .text:0000000000000264 .L0 
     /tmp/ccrMZ9a9.s:518    .text:0000000000000268 .L0 
     /tmp/ccrMZ9a9.s:520    .text:000000000000026c .L0 
     /tmp/ccrMZ9a9.s:522    .text:0000000000000270 .L0 
     /tmp/ccrMZ9a9.s:524    .text:0000000000000270 .L0 
     /tmp/ccrMZ9a9.s:525    .text:0000000000000274 .L0 
     /tmp/ccrMZ9a9.s:526    .text:0000000000000274 .L0 
     /tmp/ccrMZ9a9.s:528    .text:0000000000000278 .L0 
     /tmp/ccrMZ9a9.s:530    .text:000000000000027c .L0 
     /tmp/ccrMZ9a9.s:536    .text:000000000000027c _ZN3PCBC2EPFvPvES0_mm
     /tmp/ccrMZ9a9.s:539    .text:000000000000027c .L0 
     /tmp/ccrMZ9a9.s:541    .text:000000000000027c .L0 
     /tmp/ccrMZ9a9.s:542    .text:0000000000000280 .L0 
     /tmp/ccrMZ9a9.s:549    .text:0000000000000298 .L0 
     /tmp/ccrMZ9a9.s:550    .text:0000000000000298 .L0 
     /tmp/ccrMZ9a9.s:551    .text:0000000000000298 .L0 
     /tmp/ccrMZ9a9.s:552    .text:0000000000000298 .L0 
     /tmp/ccrMZ9a9.s:553    .text:0000000000000298 .L0 
     /tmp/ccrMZ9a9.s:554    .text:0000000000000298 .L0 
     /tmp/ccrMZ9a9.s:556    .text:000000000000029c .L0 
     /tmp/ccrMZ9a9.s:562    .text:00000000000002a8 .L0 
     /tmp/ccrMZ9a9.s:563    .text:00000000000002a8 .L0 
     /tmp/ccrMZ9a9.s:565    .text:00000000000002ac .L0 
     /tmp/ccrMZ9a9.s:566    .text:00000000000002ac .L0 
     /tmp/ccrMZ9a9.s:568    .text:00000000000002b0 .L0 
     /tmp/ccrMZ9a9.s:569    .text:00000000000002b0 .L0 
     /tmp/ccrMZ9a9.s:579    .text:00000000000002d0 .L0 
     /tmp/ccrMZ9a9.s:581    .text:00000000000002d4 .L0 
     /tmp/ccrMZ9a9.s:582    .text:00000000000002d4 .L0 
     /tmp/ccrMZ9a9.s:585    .text:00000000000002d8 .L0 
     /tmp/ccrMZ9a9.s:586    .text:00000000000002dc .L0 
     /tmp/ccrMZ9a9.s:588    .text:00000000000002e0 .L0 
     /tmp/ccrMZ9a9.s:589    .text:00000000000002e0 .L0 
     /tmp/ccrMZ9a9.s:591    .text:00000000000002e4 .L0 
     /tmp/ccrMZ9a9.s:594    .text:00000000000002e8 .L0 
     /tmp/ccrMZ9a9.s:596    .text:00000000000002ec .L0 
     /tmp/ccrMZ9a9.s:599    .text:00000000000002f0 .L0 
     /tmp/ccrMZ9a9.s:602    .text:00000000000002f4 .L0 
     /tmp/ccrMZ9a9.s:604    .text:00000000000002f8 .L0 
     /tmp/ccrMZ9a9.s:536    .text:000000000000027c _ZN3PCBC1EPFvPvES0_mm
     /tmp/ccrMZ9a9.s:612    .text:00000000000002f8 _ZN3PCBD2Ev
     /tmp/ccrMZ9a9.s:615    .text:00000000000002f8 .L0 
     /tmp/ccrMZ9a9.s:617    .text:00000000000002f8 .L0 
     /tmp/ccrMZ9a9.s:618    .text:00000000000002fc .L0 
     /tmp/ccrMZ9a9.s:620    .text:0000000000000300 .L0 
     /tmp/ccrMZ9a9.s:622    .text:0000000000000304 .L0 
     /tmp/ccrMZ9a9.s:624    .text:0000000000000304 .L0 
     /tmp/ccrMZ9a9.s:625    .text:0000000000000308 .L0 
     /tmp/ccrMZ9a9.s:626    .text:0000000000000308 .L0 
GAS LISTING /tmp/ccrMZ9a9.s 			page 38


     /tmp/ccrMZ9a9.s:628    .text:000000000000030c .L0 
     /tmp/ccrMZ9a9.s:630    .text:0000000000000310 .L0 
     /tmp/ccrMZ9a9.s:612    .text:00000000000002f8 _ZN3PCBD1Ev
     /tmp/ccrMZ9a9.s:638    .text:0000000000000310 _ZN3PCB6runnerEPv
     /tmp/ccrMZ9a9.s:641    .text:0000000000000310 .L0 
     /tmp/ccrMZ9a9.s:643    .text:0000000000000310 .L0 
     /tmp/ccrMZ9a9.s:644    .text:0000000000000314 .L0 
     /tmp/ccrMZ9a9.s:646    .text:0000000000000318 .L0 
     /tmp/ccrMZ9a9.s:648    .text:000000000000031c .L0 
     /tmp/ccrMZ9a9.s:650    .text:000000000000031c .L0 
     /tmp/ccrMZ9a9.s:651    .text:0000000000000320 .L0 
     /tmp/ccrMZ9a9.s:652    .text:0000000000000320 .L0 
     /tmp/ccrMZ9a9.s:654    .text:0000000000000324 .L0 
     /tmp/ccrMZ9a9.s:656    .text:0000000000000328 .L0 
     /tmp/ccrMZ9a9.s:662    .text:0000000000000328 _ZN3PCBnwEm
     /tmp/ccrMZ9a9.s:665    .text:0000000000000328 .L0 
     /tmp/ccrMZ9a9.s:667    .text:0000000000000328 .L0 
     /tmp/ccrMZ9a9.s:668    .text:000000000000032c .L0 
     /tmp/ccrMZ9a9.s:671    .text:0000000000000334 .L0 
     /tmp/ccrMZ9a9.s:672    .text:0000000000000334 .L0 
     /tmp/ccrMZ9a9.s:674    .text:0000000000000338 .L0 
     /tmp/ccrMZ9a9.s:676    .text:0000000000000338 .L0 
     /tmp/ccrMZ9a9.s:677    .text:0000000000000338 .L0 
     /tmp/ccrMZ9a9.s:682    .text:0000000000000344 .L0 
     /tmp/ccrMZ9a9.s:683    .text:0000000000000348 .L0 
     /tmp/ccrMZ9a9.s:685    .text:000000000000034c .L0 
     /tmp/ccrMZ9a9.s:686    .text:000000000000034c .L0 
     /tmp/ccrMZ9a9.s:688    .text:0000000000000350 .L0 
     /tmp/ccrMZ9a9.s:690    .text:0000000000000354 .L0 
     /tmp/ccrMZ9a9.s:696    .text:0000000000000354 _ZN3PCBdlEPv
     /tmp/ccrMZ9a9.s:699    .text:0000000000000354 .L0 
     /tmp/ccrMZ9a9.s:701    .text:0000000000000354 .L0 
     /tmp/ccrMZ9a9.s:702    .text:0000000000000358 .L0 
     /tmp/ccrMZ9a9.s:704    .text:000000000000035c .L0 
     /tmp/ccrMZ9a9.s:706    .text:0000000000000360 .L0 
     /tmp/ccrMZ9a9.s:708    .text:0000000000000360 .L0 
     /tmp/ccrMZ9a9.s:709    .text:0000000000000364 .L0 
     /tmp/ccrMZ9a9.s:710    .text:0000000000000364 .L0 
     /tmp/ccrMZ9a9.s:712    .text:0000000000000368 .L0 
     /tmp/ccrMZ9a9.s:714    .text:000000000000036c .L0 
     /tmp/ccrMZ9a9.s:720    .text:000000000000036c _ZN6System10initSystemEv
     /tmp/ccrMZ9a9.s:723    .text:000000000000036c .L0 
     /tmp/ccrMZ9a9.s:724    .text:000000000000036c .L0 
     /tmp/ccrMZ9a9.s:725    .text:0000000000000370 .L0 
     /tmp/ccrMZ9a9.s:727    .text:0000000000000374 .L0 
     /tmp/ccrMZ9a9.s:729    .text:0000000000000378 .L0 
     /tmp/ccrMZ9a9.s:731    .text:0000000000000378 .L0 
     /tmp/ccrMZ9a9.s:732    .text:0000000000000378 .L0 
     /tmp/ccrMZ9a9.s:739    .text:0000000000000384 .L0 
     /tmp/ccrMZ9a9.s:740    .text:0000000000000388 .L0 
     /tmp/ccrMZ9a9.s:741    .text:0000000000000388 .L0 
     /tmp/ccrMZ9a9.s:743    .text:000000000000038c .L0 
     /tmp/ccrMZ9a9.s:745    .text:0000000000000390 .L0 
     /tmp/ccrMZ9a9.s:751    .text:0000000000000390 _ZN6SystemC2Ev
     /tmp/ccrMZ9a9.s:754    .text:0000000000000390 .L0 
     /tmp/ccrMZ9a9.s:756    .text:0000000000000390 .L0 
     /tmp/ccrMZ9a9.s:757    .text:0000000000000394 .L0 
GAS LISTING /tmp/ccrMZ9a9.s 			page 39


     /tmp/ccrMZ9a9.s:759    .text:0000000000000398 .L0 
     /tmp/ccrMZ9a9.s:761    .text:000000000000039c .L0 
     /tmp/ccrMZ9a9.s:763    .text:000000000000039c .L0 
     /tmp/ccrMZ9a9.s:764    .text:00000000000003a0 .L0 
     /tmp/ccrMZ9a9.s:765    .text:00000000000003a0 .L0 
     /tmp/ccrMZ9a9.s:767    .text:00000000000003a4 .L0 
     /tmp/ccrMZ9a9.s:769    .text:00000000000003a8 .L0 
     /tmp/ccrMZ9a9.s:751    .text:0000000000000390 _ZN6SystemC1Ev
     /tmp/ccrMZ9a9.s:778    .text._ZN5QueueIP3PCBE4pushES1_:0000000000000000 _ZN5QueueIP3PCBE4pushES1_
     /tmp/ccrMZ9a9.s:781    .text._ZN5QueueIP3PCBE4pushES1_:0000000000000000 .L0 
     /tmp/ccrMZ9a9.s:783    .text._ZN5QueueIP3PCBE4pushES1_:0000000000000000 .L0 
     /tmp/ccrMZ9a9.s:784    .text._ZN5QueueIP3PCBE4pushES1_:0000000000000004 .L0 
     /tmp/ccrMZ9a9.s:788    .text._ZN5QueueIP3PCBE4pushES1_:0000000000000010 .L0 
     /tmp/ccrMZ9a9.s:789    .text._ZN5QueueIP3PCBE4pushES1_:0000000000000010 .L0 
     /tmp/ccrMZ9a9.s:790    .text._ZN5QueueIP3PCBE4pushES1_:0000000000000010 .L0 
     /tmp/ccrMZ9a9.s:792    .text._ZN5QueueIP3PCBE4pushES1_:0000000000000014 .L0 
     /tmp/ccrMZ9a9.s:795    .text._ZN5QueueIP3PCBE4pushES1_:0000000000000018 .L0 
     /tmp/ccrMZ9a9.s:801    .text._ZN5QueueIP3PCBE4pushES1_:000000000000002c .L0 
     /tmp/ccrMZ9a9.s:803    .text._ZN5QueueIP3PCBE4pushES1_:0000000000000030 .L0 
     /tmp/ccrMZ9a9.s:806    .text._ZN5QueueIP3PCBE4pushES1_:0000000000000034 .L0 
     /tmp/ccrMZ9a9.s:807    .text._ZN5QueueIP3PCBE4pushES1_:0000000000000038 .L0 
     /tmp/ccrMZ9a9.s:808    .text._ZN5QueueIP3PCBE4pushES1_:0000000000000038 .L0 
     /tmp/ccrMZ9a9.s:810    .text._ZN5QueueIP3PCBE4pushES1_:000000000000003c .L0 
     /tmp/ccrMZ9a9.s:811    .text._ZN5QueueIP3PCBE4pushES1_:000000000000003c .L0 
     /tmp/ccrMZ9a9.s:813    .text._ZN5QueueIP3PCBE4pushES1_:0000000000000040 .L0 
     /tmp/ccrMZ9a9.s:816    .text._ZN5QueueIP3PCBE4pushES1_:0000000000000044 .L0 
     /tmp/ccrMZ9a9.s:820    .text._ZN5QueueIP3PCBE4pushES1_:0000000000000048 .L0 
     /tmp/ccrMZ9a9.s:822    .text._ZN5QueueIP3PCBE4pushES1_:0000000000000048 .L0 
     /tmp/ccrMZ9a9.s:824    .text._ZN5QueueIP3PCBE4pushES1_:000000000000004c .L0 
     /tmp/ccrMZ9a9.s:826    .text._ZN5QueueIP3PCBE4pushES1_:0000000000000050 .L0 
     /tmp/ccrMZ9a9.s:828    .text._ZN5QueueIP3PCBE4pushES1_:0000000000000054 .L0 
     /tmp/ccrMZ9a9.s:829    .text._ZN5QueueIP3PCBE4pushES1_:0000000000000058 .L0 
     /tmp/ccrMZ9a9.s:836    .text:00000000000003a8 _ZN9Scheduler3putEP3PCB
     /tmp/ccrMZ9a9.s:839    .text:00000000000003a8 .L0 
     /tmp/ccrMZ9a9.s:841    .text:00000000000003a8 .L0 
     /tmp/ccrMZ9a9.s:842    .text:00000000000003ac .L0 
     /tmp/ccrMZ9a9.s:845    .text:00000000000003b4 .L0 
     /tmp/ccrMZ9a9.s:846    .text:00000000000003b4 .L0 
     /tmp/ccrMZ9a9.s:848    .text:00000000000003b8 .L0 
     /tmp/ccrMZ9a9.s:850    .text:00000000000003b8 .L0 
     /tmp/ccrMZ9a9.s:851    .text:00000000000003b8 .L0 
     /tmp/ccrMZ9a9.s:856    .text:00000000000003c4 .L0 
     /tmp/ccrMZ9a9.s:857    .text:00000000000003c8 .L0 
     /tmp/ccrMZ9a9.s:859    .text:00000000000003cc .L0 
     /tmp/ccrMZ9a9.s:860    .text:00000000000003cc .L0 
     /tmp/ccrMZ9a9.s:862    .text:00000000000003d0 .L0 
     /tmp/ccrMZ9a9.s:864    .text:00000000000003d4 .L0 
     /tmp/ccrMZ9a9.s:871    .text._ZN5QueueIP3PCBE5frontEv:0000000000000000 _ZN5QueueIP3PCBE5frontEv
     /tmp/ccrMZ9a9.s:874    .text._ZN5QueueIP3PCBE5frontEv:0000000000000000 .L0 
     /tmp/ccrMZ9a9.s:876    .text._ZN5QueueIP3PCBE5frontEv:0000000000000000 .L0 
     /tmp/ccrMZ9a9.s:877    .text._ZN5QueueIP3PCBE5frontEv:0000000000000004 .L0 
     /tmp/ccrMZ9a9.s:879    .text._ZN5QueueIP3PCBE5frontEv:0000000000000008 .L0 
     /tmp/ccrMZ9a9.s:881    .text._ZN5QueueIP3PCBE5frontEv:000000000000000c .L0 
     /tmp/ccrMZ9a9.s:883    .text._ZN5QueueIP3PCBE5frontEv:000000000000000c .L0 
     /tmp/ccrMZ9a9.s:886    .text._ZN5QueueIP3PCBE5frontEv:0000000000000010 .L0 
     /tmp/ccrMZ9a9.s:888    .text._ZN5QueueIP3PCBE5frontEv:0000000000000014 .L0 
     /tmp/ccrMZ9a9.s:891    .text._ZN5QueueIP3PCBE5frontEv:0000000000000018 .L0 
GAS LISTING /tmp/ccrMZ9a9.s 			page 40


     /tmp/ccrMZ9a9.s:892    .text._ZN5QueueIP3PCBE5frontEv:000000000000001c .L0 
     /tmp/ccrMZ9a9.s:893    .text._ZN5QueueIP3PCBE5frontEv:000000000000001c .L0 
     /tmp/ccrMZ9a9.s:895    .text._ZN5QueueIP3PCBE5frontEv:0000000000000020 .L0 
     /tmp/ccrMZ9a9.s:897    .text._ZN5QueueIP3PCBE5frontEv:0000000000000024 .L0 
     /tmp/ccrMZ9a9.s:904    .text._ZN5QueueIP3PCBE3popEv:0000000000000000 _ZN5QueueIP3PCBE3popEv
     /tmp/ccrMZ9a9.s:907    .text._ZN5QueueIP3PCBE3popEv:0000000000000000 .L0 
     /tmp/ccrMZ9a9.s:909    .text._ZN5QueueIP3PCBE3popEv:0000000000000000 .L0 
     /tmp/ccrMZ9a9.s:910    .text._ZN5QueueIP3PCBE3popEv:0000000000000004 .L0 
     /tmp/ccrMZ9a9.s:915    .text._ZN5QueueIP3PCBE3popEv:0000000000000014 .L0 
     /tmp/ccrMZ9a9.s:916    .text._ZN5QueueIP3PCBE3popEv:0000000000000014 .L0 
     /tmp/ccrMZ9a9.s:917    .text._ZN5QueueIP3PCBE3popEv:0000000000000014 .L0 
     /tmp/ccrMZ9a9.s:918    .text._ZN5QueueIP3PCBE3popEv:0000000000000014 .L0 
     /tmp/ccrMZ9a9.s:920    .text._ZN5QueueIP3PCBE3popEv:0000000000000018 .L0 
     /tmp/ccrMZ9a9.s:923    .text._ZN5QueueIP3PCBE3popEv:000000000000001c .L0 
     /tmp/ccrMZ9a9.s:925    .text._ZN5QueueIP3PCBE3popEv:0000000000000020 .L0 
     /tmp/ccrMZ9a9.s:928    .text._ZN5QueueIP3PCBE3popEv:0000000000000024 .L0 
     /tmp/ccrMZ9a9.s:934    .text._ZN5QueueIP3PCBE3popEv:0000000000000038 .L0 
     /tmp/ccrMZ9a9.s:936    .text._ZN5QueueIP3PCBE3popEv:000000000000003c .L0 
     /tmp/ccrMZ9a9.s:939    .text._ZN5QueueIP3PCBE3popEv:0000000000000040 .L0 
     /tmp/ccrMZ9a9.s:940    .text._ZN5QueueIP3PCBE3popEv:0000000000000044 .L0 
     /tmp/ccrMZ9a9.s:941    .text._ZN5QueueIP3PCBE3popEv:0000000000000044 .L0 
     /tmp/ccrMZ9a9.s:943    .text._ZN5QueueIP3PCBE3popEv:0000000000000048 .L0 
     /tmp/ccrMZ9a9.s:944    .text._ZN5QueueIP3PCBE3popEv:0000000000000048 .L0 
     /tmp/ccrMZ9a9.s:946    .text._ZN5QueueIP3PCBE3popEv:000000000000004c .L0 
     /tmp/ccrMZ9a9.s:949    .text._ZN5QueueIP3PCBE3popEv:0000000000000050 .L0 
     /tmp/ccrMZ9a9.s:952    .text._ZN5QueueIP3PCBE3popEv:0000000000000054 .L0 
     /tmp/ccrMZ9a9.s:956    .text._ZN5QueueIP3PCBE3popEv:0000000000000058 .L0 
     /tmp/ccrMZ9a9.s:958    .text._ZN5QueueIP3PCBE3popEv:0000000000000058 .L0 
     /tmp/ccrMZ9a9.s:961    .text._ZN5QueueIP3PCBE3popEv:0000000000000060 .L0 
     /tmp/ccrMZ9a9.s:962    .text._ZN5QueueIP3PCBE3popEv:0000000000000064 .L0 
     /tmp/ccrMZ9a9.s:969    .text:00000000000003d4 _ZN9Scheduler3getEv
     /tmp/ccrMZ9a9.s:972    .text:00000000000003d4 .L0 
     /tmp/ccrMZ9a9.s:974    .text:00000000000003d4 .L0 
     /tmp/ccrMZ9a9.s:975    .text:00000000000003d8 .L0 
     /tmp/ccrMZ9a9.s:980    .text:00000000000003e8 .L0 
     /tmp/ccrMZ9a9.s:981    .text:00000000000003e8 .L0 
     /tmp/ccrMZ9a9.s:982    .text:00000000000003e8 .L0 
     /tmp/ccrMZ9a9.s:983    .text:00000000000003e8 .L0 
     /tmp/ccrMZ9a9.s:985    .text:00000000000003ec .L0 
     /tmp/ccrMZ9a9.s:987    .text:00000000000003ec .L0 
     /tmp/ccrMZ9a9.s:988    .text:00000000000003ec .L0 
     /tmp/ccrMZ9a9.s:990    .text:00000000000003f0 .L0 
     /tmp/ccrMZ9a9.s:997    .text:0000000000000400 .L0 
     /tmp/ccrMZ9a9.s:998    .text:0000000000000400 .L0 
     /tmp/ccrMZ9a9.s:1002   .text:000000000000040c .L0 
     /tmp/ccrMZ9a9.s:1003   .text:000000000000040c .L0 
     /tmp/ccrMZ9a9.s:1005   .text:0000000000000414 .L0 
     /tmp/ccrMZ9a9.s:1007   .text:0000000000000418 .L0 
     /tmp/ccrMZ9a9.s:1008   .text:0000000000000418 .L0 
     /tmp/ccrMZ9a9.s:1010   .text:000000000000041c .L0 
     /tmp/ccrMZ9a9.s:1013   .text:0000000000000420 .L0 
     /tmp/ccrMZ9a9.s:1015   .text:0000000000000424 .L0 
     /tmp/ccrMZ9a9.s:1017   .text:0000000000000428 .L0 
     /tmp/ccrMZ9a9.s:1024   .text._ZN5QueueIP3PCBEdlEPv:0000000000000000 _ZN5QueueIP3PCBEdlEPv
     /tmp/ccrMZ9a9.s:1027   .text._ZN5QueueIP3PCBEdlEPv:0000000000000000 .L0 
     /tmp/ccrMZ9a9.s:1029   .text._ZN5QueueIP3PCBEdlEPv:0000000000000000 .L0 
     /tmp/ccrMZ9a9.s:1030   .text._ZN5QueueIP3PCBEdlEPv:0000000000000004 .L0 
GAS LISTING /tmp/ccrMZ9a9.s 			page 41


     /tmp/ccrMZ9a9.s:1033   .text._ZN5QueueIP3PCBEdlEPv:000000000000000c .L0 
     /tmp/ccrMZ9a9.s:1034   .text._ZN5QueueIP3PCBEdlEPv:000000000000000c .L0 
     /tmp/ccrMZ9a9.s:1036   .text._ZN5QueueIP3PCBEdlEPv:0000000000000010 .L0 
     /tmp/ccrMZ9a9.s:1038   .text._ZN5QueueIP3PCBEdlEPv:0000000000000010 .L0 
     /tmp/ccrMZ9a9.s:1041   .text._ZN5QueueIP3PCBEdlEPv:0000000000000018 .L0 
     /tmp/ccrMZ9a9.s:1042   .text._ZN5QueueIP3PCBEdlEPv:000000000000001c .L0 
     /tmp/ccrMZ9a9.s:1044   .text._ZN5QueueIP3PCBEdlEPv:0000000000000020 .L0 
     /tmp/ccrMZ9a9.s:1045   .text._ZN5QueueIP3PCBEdlEPv:0000000000000020 .L0 
     /tmp/ccrMZ9a9.s:1047   .text._ZN5QueueIP3PCBEdlEPv:0000000000000024 .L0 
     /tmp/ccrMZ9a9.s:1049   .text._ZN5QueueIP3PCBEdlEPv:0000000000000028 .L0 
     /tmp/ccrMZ9a9.s:1056   .text._ZN5QueueIP3PCBED2Ev:0000000000000000 _ZN5QueueIP3PCBED2Ev
     /tmp/ccrMZ9a9.s:1059   .text._ZN5QueueIP3PCBED2Ev:0000000000000000 .L0 
     /tmp/ccrMZ9a9.s:5668   .data.rel.local.DW.ref.__gxx_personality_v0:0000000000000000 DW.ref.__gxx_personality_v0
     /tmp/ccrMZ9a9.s:1063   .text._ZN5QueueIP3PCBED2Ev:0000000000000000 .L0 
     /tmp/ccrMZ9a9.s:1064   .text._ZN5QueueIP3PCBED2Ev:0000000000000004 .L0 
     /tmp/ccrMZ9a9.s:1069   .text._ZN5QueueIP3PCBED2Ev:0000000000000014 .L0 
     /tmp/ccrMZ9a9.s:1070   .text._ZN5QueueIP3PCBED2Ev:0000000000000014 .L0 
     /tmp/ccrMZ9a9.s:1071   .text._ZN5QueueIP3PCBED2Ev:0000000000000014 .L0 
     /tmp/ccrMZ9a9.s:1072   .text._ZN5QueueIP3PCBED2Ev:0000000000000014 .L0 
     /tmp/ccrMZ9a9.s:1074   .text._ZN5QueueIP3PCBED2Ev:0000000000000018 .L0 
     /tmp/ccrMZ9a9.s:1077   .text._ZN5QueueIP3PCBED2Ev:0000000000000018 .L0 
     /tmp/ccrMZ9a9.s:1081   .text._ZN5QueueIP3PCBED2Ev:000000000000001c .L0 
     /tmp/ccrMZ9a9.s:1085   .text._ZN5QueueIP3PCBED2Ev:0000000000000020 .L0 
     /tmp/ccrMZ9a9.s:1088   .text._ZN5QueueIP3PCBED2Ev:0000000000000024 .L0 
     /tmp/ccrMZ9a9.s:1094   .text._ZN5QueueIP3PCBED2Ev:0000000000000038 .L0 
     /tmp/ccrMZ9a9.s:1098   .text._ZN5QueueIP3PCBED2Ev:000000000000003c .L0 
     /tmp/ccrMZ9a9.s:1103   .text._ZN5QueueIP3PCBED2Ev:0000000000000040 .L0 
     /tmp/ccrMZ9a9.s:1104   .text._ZN5QueueIP3PCBED2Ev:0000000000000044 .L0 
     /tmp/ccrMZ9a9.s:1106   .text._ZN5QueueIP3PCBED2Ev:0000000000000048 .L0 
     /tmp/ccrMZ9a9.s:1107   .text._ZN5QueueIP3PCBED2Ev:0000000000000048 .L0 
     /tmp/ccrMZ9a9.s:1109   .text._ZN5QueueIP3PCBED2Ev:000000000000004c .L0 
     /tmp/ccrMZ9a9.s:1112   .text._ZN5QueueIP3PCBED2Ev:0000000000000050 .L0 
     /tmp/ccrMZ9a9.s:1114   .text._ZN5QueueIP3PCBED2Ev:0000000000000054 .L0 
     /tmp/ccrMZ9a9.s:1116   .text._ZN5QueueIP3PCBED2Ev:0000000000000058 .L0 
     /tmp/ccrMZ9a9.s:1056   .text._ZN5QueueIP3PCBED2Ev:0000000000000000 _ZN5QueueIP3PCBED1Ev
     /tmp/ccrMZ9a9.s:1133   .text:0000000000000428 _ZN9SchedulerD2Ev
     /tmp/ccrMZ9a9.s:1136   .text:0000000000000428 .L0 
     /tmp/ccrMZ9a9.s:1140   .text:0000000000000428 .L0 
     /tmp/ccrMZ9a9.s:1141   .text:000000000000042c .L0 
     /tmp/ccrMZ9a9.s:1145   .text:0000000000000438 .L0 
     /tmp/ccrMZ9a9.s:1146   .text:0000000000000438 .L0 
     /tmp/ccrMZ9a9.s:1147   .text:0000000000000438 .L0 
     /tmp/ccrMZ9a9.s:1149   .text:000000000000043c .L0 
     /tmp/ccrMZ9a9.s:1152   .text:000000000000043c .L0 
     /tmp/ccrMZ9a9.s:1153   .text:000000000000043c .L0 
     /tmp/ccrMZ9a9.s:1155   .text:0000000000000440 .L0 
     /tmp/ccrMZ9a9.s:1157   .text:0000000000000444 .L0 
     /tmp/ccrMZ9a9.s:1167   .text:000000000000045c .L0 
     /tmp/ccrMZ9a9.s:1168   .text:0000000000000460 .L0 
     /tmp/ccrMZ9a9.s:1170   .text:0000000000000464 .L0 
     /tmp/ccrMZ9a9.s:1171   .text:0000000000000464 .L0 
     /tmp/ccrMZ9a9.s:1173   .text:0000000000000468 .L0 
     /tmp/ccrMZ9a9.s:1175   .text:000000000000046c .L0 
     /tmp/ccrMZ9a9.s:1177   .text:0000000000000470 .L0 
     /tmp/ccrMZ9a9.s:1133   .text:0000000000000428 _ZN9SchedulerD1Ev
     /tmp/ccrMZ9a9.s:1193   .text._ZN5QueueIP3PCBEnwEm:0000000000000000 _ZN5QueueIP3PCBEnwEm
     /tmp/ccrMZ9a9.s:1196   .text._ZN5QueueIP3PCBEnwEm:0000000000000000 .L0 
GAS LISTING /tmp/ccrMZ9a9.s 			page 42


     /tmp/ccrMZ9a9.s:1198   .text._ZN5QueueIP3PCBEnwEm:0000000000000000 .L0 
     /tmp/ccrMZ9a9.s:1199   .text._ZN5QueueIP3PCBEnwEm:0000000000000004 .L0 
     /tmp/ccrMZ9a9.s:1202   .text._ZN5QueueIP3PCBEnwEm:000000000000000c .L0 
     /tmp/ccrMZ9a9.s:1203   .text._ZN5QueueIP3PCBEnwEm:000000000000000c .L0 
     /tmp/ccrMZ9a9.s:1205   .text._ZN5QueueIP3PCBEnwEm:0000000000000010 .L0 
     /tmp/ccrMZ9a9.s:1207   .text._ZN5QueueIP3PCBEnwEm:0000000000000010 .L0 
     /tmp/ccrMZ9a9.s:1212   .text._ZN5QueueIP3PCBEnwEm:000000000000001c .L0 
     /tmp/ccrMZ9a9.s:1213   .text._ZN5QueueIP3PCBEnwEm:0000000000000020 .L0 
     /tmp/ccrMZ9a9.s:1215   .text._ZN5QueueIP3PCBEnwEm:0000000000000024 .L0 
     /tmp/ccrMZ9a9.s:1216   .text._ZN5QueueIP3PCBEnwEm:0000000000000024 .L0 
     /tmp/ccrMZ9a9.s:1218   .text._ZN5QueueIP3PCBEnwEm:0000000000000028 .L0 
     /tmp/ccrMZ9a9.s:1220   .text._ZN5QueueIP3PCBEnwEm:000000000000002c .L0 
     /tmp/ccrMZ9a9.s:1227   .text._ZN5QueueIP3PCBEC2Ev:0000000000000000 _ZN5QueueIP3PCBEC2Ev
     /tmp/ccrMZ9a9.s:1230   .text._ZN5QueueIP3PCBEC2Ev:0000000000000000 .L0 
     /tmp/ccrMZ9a9.s:1232   .text._ZN5QueueIP3PCBEC2Ev:0000000000000000 .L0 
     /tmp/ccrMZ9a9.s:1233   .text._ZN5QueueIP3PCBEC2Ev:0000000000000004 .L0 
     /tmp/ccrMZ9a9.s:1235   .text._ZN5QueueIP3PCBEC2Ev:0000000000000008 .L0 
     /tmp/ccrMZ9a9.s:1237   .text._ZN5QueueIP3PCBEC2Ev:000000000000000c .L0 
     /tmp/ccrMZ9a9.s:1240   .text._ZN5QueueIP3PCBEC2Ev:000000000000000c .L0 
     /tmp/ccrMZ9a9.s:1244   .text._ZN5QueueIP3PCBEC2Ev:0000000000000014 .L0 
     /tmp/ccrMZ9a9.s:1245   .text._ZN5QueueIP3PCBEC2Ev:0000000000000018 .L0 
     /tmp/ccrMZ9a9.s:1246   .text._ZN5QueueIP3PCBEC2Ev:0000000000000018 .L0 
     /tmp/ccrMZ9a9.s:1248   .text._ZN5QueueIP3PCBEC2Ev:000000000000001c .L0 
     /tmp/ccrMZ9a9.s:1250   .text._ZN5QueueIP3PCBEC2Ev:0000000000000020 .L0 
     /tmp/ccrMZ9a9.s:1227   .text._ZN5QueueIP3PCBEC2Ev:0000000000000000 _ZN5QueueIP3PCBEC1Ev
     /tmp/ccrMZ9a9.s:1259   .text:0000000000000470 _ZN9SchedulerC2Ev
     /tmp/ccrMZ9a9.s:1262   .text:0000000000000470 .L0 
     /tmp/ccrMZ9a9.s:1264   .text:0000000000000470 .L0 
     /tmp/ccrMZ9a9.s:1265   .text:0000000000000474 .L0 
     /tmp/ccrMZ9a9.s:1270   .text:0000000000000484 .L0 
     /tmp/ccrMZ9a9.s:1271   .text:0000000000000484 .L0 
     /tmp/ccrMZ9a9.s:1272   .text:0000000000000484 .L0 
     /tmp/ccrMZ9a9.s:1273   .text:0000000000000484 .L0 
     /tmp/ccrMZ9a9.s:1275   .text:0000000000000488 .L0 
     /tmp/ccrMZ9a9.s:1279   .text:000000000000048c .L0 
     /tmp/ccrMZ9a9.s:1280   .text:000000000000048c .L0 
     /tmp/ccrMZ9a9.s:1288   .text:00000000000004a4 .L0 
     /tmp/ccrMZ9a9.s:1291   .text:00000000000004a8 .L0 
     /tmp/ccrMZ9a9.s:1292   .text:00000000000004ac .L0 
     /tmp/ccrMZ9a9.s:1294   .text:00000000000004b0 .L0 
     /tmp/ccrMZ9a9.s:1295   .text:00000000000004b0 .L0 
     /tmp/ccrMZ9a9.s:1297   .text:00000000000004b4 .L0 
     /tmp/ccrMZ9a9.s:1300   .text:00000000000004b8 .L0 
     /tmp/ccrMZ9a9.s:1302   .text:00000000000004bc .L0 
     /tmp/ccrMZ9a9.s:1304   .text:00000000000004c0 .L0 
     /tmp/ccrMZ9a9.s:1259   .text:0000000000000470 _ZN9SchedulerC1Ev
     /tmp/ccrMZ9a9.s:1312   .text:00000000000004c0 _ZN9Scheduler12getSchedulerEv
     /tmp/ccrMZ9a9.s:1315   .text:00000000000004c0 .L0 
     /tmp/ccrMZ9a9.s:1318   .text:00000000000004c0 .L0 
     /tmp/ccrMZ9a9.s:1319   .text:00000000000004c0 .L0 
     /tmp/ccrMZ9a9.s:1320   .text:00000000000004c0 .L0 
     /tmp/ccrMZ9a9.s:1322   .text:00000000000004c8 .L0 
     /tmp/ccrMZ9a9.s:1324   .text:00000000000004cc .L0 
     /tmp/ccrMZ9a9.s:1325   .text:00000000000004cc .L0 
     /tmp/ccrMZ9a9.s:1327   .text:00000000000004d4 .L0 
     /tmp/ccrMZ9a9.s:1330   .text:00000000000004d8 .L0 
     /tmp/ccrMZ9a9.s:1331   .text:00000000000004dc .L0 
GAS LISTING /tmp/ccrMZ9a9.s 			page 43


     /tmp/ccrMZ9a9.s:1336   .text:00000000000004ec .L0 
     /tmp/ccrMZ9a9.s:1337   .text:00000000000004ec .L0 
     /tmp/ccrMZ9a9.s:1338   .text:00000000000004ec .L0 
     /tmp/ccrMZ9a9.s:1339   .text:00000000000004ec .L0 
     /tmp/ccrMZ9a9.s:1341   .text:00000000000004f0 .L0 
     /tmp/ccrMZ9a9.s:1343   .text:00000000000004f0 .L0 
     /tmp/ccrMZ9a9.s:1344   .text:00000000000004f0 .L0 
     /tmp/ccrMZ9a9.s:1355   .text:0000000000000508 .L0 
     /tmp/ccrMZ9a9.s:1357   .text:0000000000000510 .L0 
     /tmp/ccrMZ9a9.s:1358   .text:0000000000000510 .L0 
     /tmp/ccrMZ9a9.s:1360   .text:0000000000000518 .L0 
     /tmp/ccrMZ9a9.s:1361   .text:000000000000051c .L0 
     /tmp/ccrMZ9a9.s:1362   .text:000000000000051c .L0 
     /tmp/ccrMZ9a9.s:1364   .text:0000000000000520 .L0 
     /tmp/ccrMZ9a9.s:1365   .text:0000000000000520 .L0 
     /tmp/ccrMZ9a9.s:1367   .text:0000000000000524 .L0 
     /tmp/ccrMZ9a9.s:1369   .text:0000000000000528 .L0 
     /tmp/ccrMZ9a9.s:1371   .text:000000000000052c .L0 
     /tmp/ccrMZ9a9.s:1374   .text:0000000000000530 .L0 
     /tmp/ccrMZ9a9.s:1377   .text:0000000000000534 .L0 
     /tmp/ccrMZ9a9.s:1385   .text:000000000000054c .L0 
     /tmp/ccrMZ9a9.s:1410   .text:000000000000054c _ZN3PCB5startEv
     /tmp/ccrMZ9a9.s:1413   .text:000000000000054c .L0 
     /tmp/ccrMZ9a9.s:1415   .text:000000000000054c .L0 
     /tmp/ccrMZ9a9.s:1416   .text:0000000000000550 .L0 
     /tmp/ccrMZ9a9.s:1420   .text:000000000000055c .L0 
     /tmp/ccrMZ9a9.s:1421   .text:000000000000055c .L0 
     /tmp/ccrMZ9a9.s:1422   .text:000000000000055c .L0 
     /tmp/ccrMZ9a9.s:1424   .text:0000000000000560 .L0 
     /tmp/ccrMZ9a9.s:1427   .text:0000000000000564 .L0 
     /tmp/ccrMZ9a9.s:1428   .text:0000000000000564 .L0 
     /tmp/ccrMZ9a9.s:1434   .text:0000000000000578 .L0 
     /tmp/ccrMZ9a9.s:1435   .text:000000000000057c .L0 
     /tmp/ccrMZ9a9.s:1437   .text:0000000000000580 .L0 
     /tmp/ccrMZ9a9.s:1438   .text:0000000000000580 .L0 
     /tmp/ccrMZ9a9.s:1440   .text:0000000000000584 .L0 
     /tmp/ccrMZ9a9.s:1443   .text:0000000000000588 .L0 
     /tmp/ccrMZ9a9.s:1445   .text:000000000000058c .L0 
     /tmp/ccrMZ9a9.s:1451   .text:000000000000058c _ZN6Thread5startEv
     /tmp/ccrMZ9a9.s:1454   .text:000000000000058c .L0 
     /tmp/ccrMZ9a9.s:1456   .text:000000000000058c .L0 
     /tmp/ccrMZ9a9.s:1457   .text:0000000000000590 .L0 
     /tmp/ccrMZ9a9.s:1460   .text:0000000000000598 .L0 
     /tmp/ccrMZ9a9.s:1461   .text:0000000000000598 .L0 
     /tmp/ccrMZ9a9.s:1463   .text:000000000000059c .L0 
     /tmp/ccrMZ9a9.s:1465   .text:000000000000059c .L0 
     /tmp/ccrMZ9a9.s:1466   .text:000000000000059c .L0 
     /tmp/ccrMZ9a9.s:1471   .text:00000000000005a8 .L0 
     /tmp/ccrMZ9a9.s:1472   .text:00000000000005ac .L0 
     /tmp/ccrMZ9a9.s:1474   .text:00000000000005b0 .L0 
     /tmp/ccrMZ9a9.s:1475   .text:00000000000005b0 .L0 
     /tmp/ccrMZ9a9.s:1477   .text:00000000000005b4 .L0 
     /tmp/ccrMZ9a9.s:1479   .text:00000000000005b8 .L0 
     /tmp/ccrMZ9a9.s:1498   .bss:0000000000000010 _ZN6System10runningPCBE
     /tmp/ccrMZ9a9.s:1494   .bss:0000000000000008 _ZN9Scheduler9schedulerE
     /tmp/ccrMZ9a9.s:1490   .bss:0000000000000000 _ZN15MemoryAllocator15memoryAllocatorE
     /tmp/ccrMZ9a9.s:1487   .bss:0000000000000000 .LANCHOR0
GAS LISTING /tmp/ccrMZ9a9.s 			page 44


     /tmp/ccrMZ9a9.s:1505   .text:00000000000005b8 .L0 
     /tmp/ccrMZ9a9.s:832    .text._ZN5QueueIP3PCBE4pushES1_:0000000000000058 .L0 
     /tmp/ccrMZ9a9.s:900    .text._ZN5QueueIP3PCBE5frontEv:0000000000000024 .L0 
     /tmp/ccrMZ9a9.s:965    .text._ZN5QueueIP3PCBE3popEv:0000000000000064 .L0 
     /tmp/ccrMZ9a9.s:1052   .text._ZN5QueueIP3PCBEdlEPv:0000000000000028 .L0 
     /tmp/ccrMZ9a9.s:1129   .text._ZN5QueueIP3PCBED2Ev:0000000000000058 .L0 
     /tmp/ccrMZ9a9.s:1223   .text._ZN5QueueIP3PCBEnwEm:000000000000002c .L0 
     /tmp/ccrMZ9a9.s:1255   .text._ZN5QueueIP3PCBEC2Ev:0000000000000020 .L0 
     /tmp/ccrMZ9a9.s:232    .text:0000000000000100 .L0 
     /tmp/ccrMZ9a9.s:237    .text:000000000000010c .L0 
     /tmp/ccrMZ9a9.s:255    .text:0000000000000134 .L0 
     /tmp/ccrMZ9a9.s:258    .text:000000000000013c .L0 
     /tmp/ccrMZ9a9.s:732    .text:0000000000000378 .L0 
     /tmp/ccrMZ9a9.s:1320   .text:00000000000004c0 .L0 
     /tmp/ccrMZ9a9.s:1325   .text:00000000000004cc .L0 
     /tmp/ccrMZ9a9.s:1355   .text:0000000000000508 .L0 
     /tmp/ccrMZ9a9.s:1358   .text:0000000000000510 .L0 
     /tmp/ccrMZ9a9.s:239    .text:0000000000000118 .L21
     /tmp/ccrMZ9a9.s:1164   .text:000000000000045c .L75
     /tmp/ccrMZ9a9.s:1328   .text:00000000000004d8 .L93
     /tmp/ccrMZ9a9.s:819    .text._ZN5QueueIP3PCBE4pushES1_:0000000000000048 .L57
     /tmp/ccrMZ9a9.s:804    .text._ZN5QueueIP3PCBE4pushES1_:0000000000000034 .L54
     /tmp/ccrMZ9a9.s:889    .text._ZN5QueueIP3PCBE5frontEv:0000000000000018 .L60
     /tmp/ccrMZ9a9.s:955    .text._ZN5QueueIP3PCBE3popEv:0000000000000058 .L66
     /tmp/ccrMZ9a9.s:937    .text._ZN5QueueIP3PCBE3popEv:0000000000000040 .L63
     /tmp/ccrMZ9a9.s:1100   .text._ZN5QueueIP3PCBED2Ev:0000000000000040 .L71
     /tmp/ccrMZ9a9.s:1079   .text._ZN5QueueIP3PCBED2Ev:000000000000001c .L73
     /tmp/ccrMZ9a9.s:1345   .text:00000000000004f4 .LEHB0
     /tmp/ccrMZ9a9.s:1313   .text:00000000000004c0 .LFB20
     /tmp/ccrMZ9a9.s:1348   .text:00000000000004fc .LEHE0
     /tmp/ccrMZ9a9.s:1350   .text:0000000000000500 .LEHB1
     /tmp/ccrMZ9a9.s:1353   .text:0000000000000508 .LEHE1
     /tmp/ccrMZ9a9.s:1373   .text:0000000000000530 .L87
     /tmp/ccrMZ9a9.s:1381   .text:0000000000000544 .LEHB2
     /tmp/ccrMZ9a9.s:1384   .text:000000000000054c .LEHE2
     /tmp/ccrMZ9a9.s:3585   .debug_abbrev:0000000000000000 .Ldebug_abbrev0
     /tmp/ccrMZ9a9.s:5448   .debug_str:000000000000018f .LASF123
     /tmp/ccrMZ9a9.s:5582   .debug_str:00000000000005d0 .LASF124
     /tmp/ccrMZ9a9.s:5440   .debug_str:000000000000014a .LASF125
     /tmp/ccrMZ9a9.s:5376   .debug_ranges:0000000000000000 .Ldebug_ranges0
     /tmp/ccrMZ9a9.s:5396   .debug_line:0000000000000000 .Ldebug_line0
     /tmp/ccrMZ9a9.s:5526   .debug_str:0000000000000451 .LASF0
     /tmp/ccrMZ9a9.s:5544   .debug_str:00000000000004bf .LASF1
     /tmp/ccrMZ9a9.s:5506   .debug_str:00000000000003cb .LASF2
     /tmp/ccrMZ9a9.s:5490   .debug_str:000000000000037b .LASF4
     /tmp/ccrMZ9a9.s:5588   .debug_str:0000000000000625 .LASF3
     /tmp/ccrMZ9a9.s:5414   .debug_str:0000000000000083 .LASF5
     /tmp/ccrMZ9a9.s:5446   .debug_str:0000000000000188 .LASF6
     /tmp/ccrMZ9a9.s:5546   .debug_str:00000000000004d2 .LASF7
     /tmp/ccrMZ9a9.s:5524   .debug_str:000000000000043e .LASF8
     /tmp/ccrMZ9a9.s:5624   .debug_str:0000000000000734 .LASF9
     /tmp/ccrMZ9a9.s:5472   .debug_str:00000000000002e5 .LASF10
     /tmp/ccrMZ9a9.s:5562   .debug_str:0000000000000555 .LASF11
     /tmp/ccrMZ9a9.s:5616   .debug_str:00000000000006fa .LASF12
     /tmp/ccrMZ9a9.s:5418   .debug_str:0000000000000090 .LASF13
     /tmp/ccrMZ9a9.s:5400   .debug_str:0000000000000015 .LASF14
     /tmp/ccrMZ9a9.s:5432   .debug_str:00000000000000f1 .LASF15
GAS LISTING /tmp/ccrMZ9a9.s 			page 45


     /tmp/ccrMZ9a9.s:5584   .debug_str:00000000000005e4 .LASF16
     /tmp/ccrMZ9a9.s:5442   .debug_str:000000000000016d .LASF17
     /tmp/ccrMZ9a9.s:5502   .debug_str:00000000000003b4 .LASF18
     /tmp/ccrMZ9a9.s:5426   .debug_str:00000000000000c1 .LASF38
     /tmp/ccrMZ9a9.s:5610   .debug_str:00000000000006c7 .LASF20
     /tmp/ccrMZ9a9.s:5640   .debug_str:00000000000007b0 .LASF22
     /tmp/ccrMZ9a9.s:5498   .debug_str:0000000000000395 .LASF24
     /tmp/ccrMZ9a9.s:5596   .debug_str:000000000000066b .LASF19
     /tmp/ccrMZ9a9.s:5560   .debug_str:000000000000053b .LASF21
     /tmp/ccrMZ9a9.s:5580   .debug_str:00000000000005bd .LASF29
     /tmp/ccrMZ9a9.s:5586   .debug_str:00000000000005fa .LASF31
     /tmp/ccrMZ9a9.s:5430   .debug_str:00000000000000e0 .LASF23
     /tmp/ccrMZ9a9.s:5642   .debug_str:00000000000007bd .LASF25
     /tmp/ccrMZ9a9.s:5590   .debug_str:0000000000000637 .LASF33
     /tmp/ccrMZ9a9.s:5604   .debug_str:0000000000000697 .LASF70
     /tmp/ccrMZ9a9.s:5568   .debug_str:0000000000000585 .LASF26
     /tmp/ccrMZ9a9.s:5470   .debug_str:00000000000002c4 .LASF27
     /tmp/ccrMZ9a9.s:5556   .debug_str:0000000000000517 .LASF28
     /tmp/ccrMZ9a9.s:5438   .debug_str:000000000000013d .LASF30
     /tmp/ccrMZ9a9.s:5488   .debug_str:000000000000035d .LASF32
     /tmp/ccrMZ9a9.s:5458   .debug_str:0000000000000261 .LASF53
     /tmp/ccrMZ9a9.s:5484   .debug_str:0000000000000339 .LASF126
     /tmp/ccrMZ9a9.s:5578   .debug_str:00000000000005b2 .LASF34
     /tmp/ccrMZ9a9.s:5632   .debug_str:0000000000000775 .LASF35
     /tmp/ccrMZ9a9.s:5614   .debug_str:00000000000006e8 .LASF36
     /tmp/ccrMZ9a9.s:5532   .debug_str:0000000000000480 .LASF37
     /tmp/ccrMZ9a9.s:5608   .debug_str:00000000000006bd .LASF39
     /tmp/ccrMZ9a9.s:5406   .debug_str:000000000000003d .LASF40
     /tmp/ccrMZ9a9.s:5628   .debug_str:0000000000000753 .LASF47
     /tmp/ccrMZ9a9.s:5476   .debug_str:00000000000002f9 .LASF127
     /tmp/ccrMZ9a9.s:5612   .debug_str:00000000000006e0 .LASF41
     /tmp/ccrMZ9a9.s:5600   .debug_str:0000000000000687 .LASF42
     /tmp/ccrMZ9a9.s:5554   .debug_str:000000000000050f .LASF43
     /tmp/ccrMZ9a9.s:5492   .debug_str:0000000000000382 .LASF44
     /tmp/ccrMZ9a9.s:5538   .debug_str:00000000000004a2 .LASF45
     /tmp/ccrMZ9a9.s:5460   .debug_str:0000000000000279 .LASF46
     /tmp/ccrMZ9a9.s:5602   .debug_str:000000000000068d .LASF48
     /tmp/ccrMZ9a9.s:5416   .debug_str:000000000000008a .LASF49
     /tmp/ccrMZ9a9.s:5638   .debug_str:00000000000007a6 .LASF50
     /tmp/ccrMZ9a9.s:5536   .debug_str:0000000000000498 .LASF51
     /tmp/ccrMZ9a9.s:5410   .debug_str:0000000000000067 .LASF52
     /tmp/ccrMZ9a9.s:5518   .debug_str:0000000000000411 .LASF54
     /tmp/ccrMZ9a9.s:5574   .debug_str:00000000000005a8 .LASF55
     /tmp/ccrMZ9a9.s:5520   .debug_str:0000000000000427 .LASF56
     /tmp/ccrMZ9a9.s:5454   .debug_str:0000000000000255 .LASF57
     /tmp/ccrMZ9a9.s:5480   .debug_str:0000000000000318 .LASF58
     /tmp/ccrMZ9a9.s:5542   .debug_str:00000000000004b9 .LASF59
     /tmp/ccrMZ9a9.s:5486   .debug_str:000000000000034d .LASF60
     /tmp/ccrMZ9a9.s:5548   .debug_str:00000000000004e5 .LASF61
     /tmp/ccrMZ9a9.s:5652   .debug_str:0000000000000806 .LASF128
     /tmp/ccrMZ9a9.s:5598   .debug_str:000000000000067b .LASF62
     /tmp/ccrMZ9a9.s:5444   .debug_str:0000000000000183 .LASF63
     /tmp/ccrMZ9a9.s:5576   .debug_str:00000000000005ad .LASF64
     /tmp/ccrMZ9a9.s:5656   .debug_str:000000000000081c .LASF65
     /tmp/ccrMZ9a9.s:5660   .debug_str:0000000000000836 .LASF66
     /tmp/ccrMZ9a9.s:5534   .debug_str:0000000000000493 .LASF67
     /tmp/ccrMZ9a9.s:5594   .debug_str:0000000000000654 .LASF68
GAS LISTING /tmp/ccrMZ9a9.s 			page 46


     /tmp/ccrMZ9a9.s:5474   .debug_str:00000000000002f3 .LASF69
     /tmp/ccrMZ9a9.s:5478   .debug_str:00000000000002ff .LASF71
     /tmp/ccrMZ9a9.s:5456   .debug_str:000000000000025c .LASF72
     /tmp/ccrMZ9a9.s:5558   .debug_str:0000000000000521 .LASF73
     /tmp/ccrMZ9a9.s:5462   .debug_str:000000000000027e .LASF74
     /tmp/ccrMZ9a9.s:5620   .debug_str:0000000000000710 .LASF75
     /tmp/ccrMZ9a9.s:5422   .debug_str:00000000000000b5 .LASF76
     /tmp/ccrMZ9a9.s:5420   .debug_str:00000000000000a0 .LASF77
     /tmp/ccrMZ9a9.s:5398   .debug_str:0000000000000000 .LASF78
     /tmp/ccrMZ9a9.s:5412   .debug_str:000000000000006d .LASF79
     /tmp/ccrMZ9a9.s:5618   .debug_str:0000000000000709 .LASF80
     /tmp/ccrMZ9a9.s:5566   .debug_str:000000000000056e .LASF81
     /tmp/ccrMZ9a9.s:5468   .debug_str:00000000000002b1 .LASF82
     /tmp/ccrMZ9a9.s:5528   .debug_str:000000000000045e .LASF93
     /tmp/ccrMZ9a9.s:5464   .debug_str:0000000000000284 .LASF95
     /tmp/ccrMZ9a9.s:5494   .debug_str:000000000000038a .LASF83
     /tmp/ccrMZ9a9.s:5592   .debug_str:0000000000000641 .LASF84
     /tmp/ccrMZ9a9.s:5540   .debug_str:00000000000004ab .LASF97
     /tmp/ccrMZ9a9.s:5636   .debug_str:0000000000000797 .LASF85
     /tmp/ccrMZ9a9.s:5634   .debug_str:0000000000000787 .LASF86
     /tmp/ccrMZ9a9.s:5622   .debug_str:0000000000000725 .LASF87
     /tmp/ccrMZ9a9.s:5496   .debug_str:0000000000000390 .LASF88
     /tmp/ccrMZ9a9.s:5654   .debug_str:0000000000000813 .LASF89
     /tmp/ccrMZ9a9.s:5512   .debug_str:00000000000003f4 .LASF90
     /tmp/ccrMZ9a9.s:5646   .debug_str:00000000000007e8 .LASF91
     /tmp/ccrMZ9a9.s:5428   .debug_str:00000000000000d1 .LASF92
     /tmp/ccrMZ9a9.s:5514   .debug_str:00000000000003fe .LASF94
     /tmp/ccrMZ9a9.s:5550   .debug_str:00000000000004f1 .LASF96
     /tmp/ccrMZ9a9.s:5522   .debug_str:0000000000000433 .LASF98
     /tmp/ccrMZ9a9.s:5436   .debug_str:0000000000000116 .LASF99
     /tmp/ccrMZ9a9.s:5434   .debug_str:00000000000000fd .LASF100
     /tmp/ccrMZ9a9.s:5408   .debug_str:000000000000004f .LASF101
     /tmp/ccrMZ9a9.s:5570   .debug_str:000000000000058e .LASF102
     /tmp/ccrMZ9a9.s:5658   .debug_str:0000000000000821 .LASF105
     /tmp/ccrMZ9a9.s:1228   .text._ZN5QueueIP3PCBEC2Ev:0000000000000000 .LFB65
     /tmp/ccrMZ9a9.s:1251   .text._ZN5QueueIP3PCBEC2Ev:0000000000000020 .LFE65
     /tmp/ccrMZ9a9.s:1194   .text._ZN5QueueIP3PCBEnwEm:0000000000000000 .LFB63
     /tmp/ccrMZ9a9.s:1221   .text._ZN5QueueIP3PCBEnwEm:000000000000002c .LFE63
     /tmp/ccrMZ9a9.s:5606   .debug_str:00000000000006b8 .LASF107
     /tmp/ccrMZ9a9.s:4835   .debug_loc:0000000000000000 .LLST31
     /tmp/ccrMZ9a9.s:1210   .text._ZN5QueueIP3PCBEnwEm:000000000000001c .LVL83
     /tmp/ccrMZ9a9.s:5564   .debug_str:0000000000000564 .LASF103
     /tmp/ccrMZ9a9.s:5552   .debug_str:000000000000050a .LASF104
     /tmp/ccrMZ9a9.s:5572   .debug_str:0000000000000593 .LASF106
     /tmp/ccrMZ9a9.s:1057   .text._ZN5QueueIP3PCBED2Ev:0000000000000000 .LFB61
     /tmp/ccrMZ9a9.s:1117   .text._ZN5QueueIP3PCBED2Ev:0000000000000058 .LFE61
     /tmp/ccrMZ9a9.s:4849   .debug_loc:0000000000000039 .LLST27
     /tmp/ccrMZ9a9.s:1089   .text._ZN5QueueIP3PCBED2Ev:000000000000002c .LVL72
     /tmp/ccrMZ9a9.s:1092   .text._ZN5QueueIP3PCBED2Ev:0000000000000038 .LVL73
     /tmp/ccrMZ9a9.s:1075   .text._ZN5QueueIP3PCBED2Ev:0000000000000018 .LBB4
     /tmp/ccrMZ9a9.s:1101   .text._ZN5QueueIP3PCBED2Ev:0000000000000040 .LBE4
     /tmp/ccrMZ9a9.s:4863   .debug_loc:0000000000000072 .LLST28
     /tmp/ccrMZ9a9.s:1083   .text._ZN5QueueIP3PCBED2Ev:0000000000000020 .LBB5
     /tmp/ccrMZ9a9.s:1096   .text._ZN5QueueIP3PCBED2Ev:000000000000003c .LBE5
     /tmp/ccrMZ9a9.s:4878   .debug_loc:00000000000000bb .LLST29
     /tmp/ccrMZ9a9.s:1025   .text._ZN5QueueIP3PCBEdlEPv:0000000000000000 .LFB59
     /tmp/ccrMZ9a9.s:1050   .text._ZN5QueueIP3PCBEdlEPv:0000000000000028 .LFE59
GAS LISTING /tmp/ccrMZ9a9.s 			page 47


     /tmp/ccrMZ9a9.s:4885   .debug_loc:00000000000000de .LLST26
     /tmp/ccrMZ9a9.s:1039   .text._ZN5QueueIP3PCBEdlEPv:0000000000000018 .LVL67
     /tmp/ccrMZ9a9.s:905    .text._ZN5QueueIP3PCBE3popEv:0000000000000000 .LFB58
     /tmp/ccrMZ9a9.s:963    .text._ZN5QueueIP3PCBE3popEv:0000000000000064 .LFE58
     /tmp/ccrMZ9a9.s:4899   .debug_loc:0000000000000117 .LLST22
     /tmp/ccrMZ9a9.s:5404   .debug_str:0000000000000034 .LASF108
     /tmp/ccrMZ9a9.s:4921   .debug_loc:0000000000000176 .LLST23
     /tmp/ccrMZ9a9.s:929    .text._ZN5QueueIP3PCBE3popEv:000000000000002c .LVL55
     /tmp/ccrMZ9a9.s:932    .text._ZN5QueueIP3PCBE3popEv:0000000000000038 .LVL56
     /tmp/ccrMZ9a9.s:872    .text._ZN5QueueIP3PCBE5frontEv:0000000000000000 .LFB57
     /tmp/ccrMZ9a9.s:898    .text._ZN5QueueIP3PCBE5frontEv:0000000000000024 .LFE57
     /tmp/ccrMZ9a9.s:4932   .debug_loc:00000000000001ac .LLST21
     /tmp/ccrMZ9a9.s:779    .text._ZN5QueueIP3PCBE4pushES1_:0000000000000000 .LFB56
     /tmp/ccrMZ9a9.s:830    .text._ZN5QueueIP3PCBE4pushES1_:0000000000000058 .LFE56
     /tmp/ccrMZ9a9.s:4946   .debug_loc:00000000000001e5 .LLST17
     /tmp/ccrMZ9a9.s:4968   .debug_loc:0000000000000244 .LLST18
     /tmp/ccrMZ9a9.s:5516   .debug_str:0000000000000409 .LASF109
     /tmp/ccrMZ9a9.s:796    .text._ZN5QueueIP3PCBE4pushES1_:0000000000000020 .LVL44
     /tmp/ccrMZ9a9.s:799    .text._ZN5QueueIP3PCBE4pushES1_:000000000000002c .LVL45
     /tmp/ccrMZ9a9.s:5402   .debug_str:0000000000000025 .LASF110
     /tmp/ccrMZ9a9.s:752    .text:0000000000000390 .LFB54
     /tmp/ccrMZ9a9.s:770    .text:00000000000003a8 .LFE54
     /tmp/ccrMZ9a9.s:721    .text:000000000000036c .LFB52
     /tmp/ccrMZ9a9.s:746    .text:0000000000000390 .LFE52
     /tmp/ccrMZ9a9.s:697    .text:0000000000000354 .LFB51
     /tmp/ccrMZ9a9.s:715    .text:000000000000036c .LFE51
     /tmp/ccrMZ9a9.s:663    .text:0000000000000328 .LFB50
     /tmp/ccrMZ9a9.s:691    .text:0000000000000354 .LFE50
     /tmp/ccrMZ9a9.s:4982   .debug_loc:000000000000027d .LLST16
     /tmp/ccrMZ9a9.s:680    .text:0000000000000344 .LVL40
     /tmp/ccrMZ9a9.s:639    .text:0000000000000310 .LFB49
     /tmp/ccrMZ9a9.s:657    .text:0000000000000328 .LFE49
     /tmp/ccrMZ9a9.s:1411   .text:000000000000054c .LFB48
     /tmp/ccrMZ9a9.s:1446   .text:000000000000058c .LFE48
     /tmp/ccrMZ9a9.s:4996   .debug_loc:00000000000002b6 .LLST33
     /tmp/ccrMZ9a9.s:1429   .text:000000000000056c .LVL95
     /tmp/ccrMZ9a9.s:1432   .text:0000000000000578 .LVL96
     /tmp/ccrMZ9a9.s:5450   .debug_str:0000000000000231 .LASF111
     /tmp/ccrMZ9a9.s:613    .text:00000000000002f8 .LFB46
     /tmp/ccrMZ9a9.s:631    .text:0000000000000310 .LFE46
     /tmp/ccrMZ9a9.s:5424   .debug_str:00000000000000bc .LASF112
     /tmp/ccrMZ9a9.s:5508   .debug_str:00000000000003d9 .LASF113
     /tmp/ccrMZ9a9.s:537    .text:000000000000027c .LFB43
     /tmp/ccrMZ9a9.s:605    .text:00000000000002f8 .LFE43
     /tmp/ccrMZ9a9.s:5014   .debug_loc:0000000000000302 .LLST11
     /tmp/ccrMZ9a9.s:5032   .debug_loc:000000000000034e .LLST12
     /tmp/ccrMZ9a9.s:5050   .debug_loc:000000000000039a .LLST13
     /tmp/ccrMZ9a9.s:5068   .debug_loc:00000000000003e6 .LLST14
     /tmp/ccrMZ9a9.s:5082   .debug_loc:000000000000041f .LLST15
     /tmp/ccrMZ9a9.s:572    .text:00000000000002bc .LVL31
     /tmp/ccrMZ9a9.s:577    .text:00000000000002d0 .LVL32
     /tmp/ccrMZ9a9.s:513    .text:0000000000000264 .LFB41
     /tmp/ccrMZ9a9.s:531    .text:000000000000027c .LFE41
     /tmp/ccrMZ9a9.s:479    .text:0000000000000238 .LFB40
     /tmp/ccrMZ9a9.s:507    .text:0000000000000264 .LFE40
     /tmp/ccrMZ9a9.s:5096   .debug_loc:0000000000000458 .LLST10
     /tmp/ccrMZ9a9.s:496    .text:0000000000000254 .LVL27
GAS LISTING /tmp/ccrMZ9a9.s 			page 48


     /tmp/ccrMZ9a9.s:5626   .debug_str:0000000000000744 .LASF114
     /tmp/ccrMZ9a9.s:453    .text:0000000000000220 .LFB38
     /tmp/ccrMZ9a9.s:471    .text:0000000000000238 .LFE38
     /tmp/ccrMZ9a9.s:429    .text:0000000000000208 .LFB36
     /tmp/ccrMZ9a9.s:447    .text:0000000000000220 .LFE36
     /tmp/ccrMZ9a9.s:5510   .debug_str:00000000000003ef .LASF115
     /tmp/ccrMZ9a9.s:406    .text:00000000000001f0 .LFB35
     /tmp/ccrMZ9a9.s:423    .text:0000000000000208 .LFE35
     /tmp/ccrMZ9a9.s:1452   .text:000000000000058c .LFB34
     /tmp/ccrMZ9a9.s:1480   .text:00000000000005b8 .LFE34
     /tmp/ccrMZ9a9.s:5110   .debug_loc:0000000000000491 .LLST34
     /tmp/ccrMZ9a9.s:1469   .text:00000000000005a8 .LVL100
     /tmp/ccrMZ9a9.s:5466   .debug_str:000000000000029a .LASF116
     /tmp/ccrMZ9a9.s:372    .text:00000000000001d0 .LFB32
     /tmp/ccrMZ9a9.s:398    .text:00000000000001f0 .LFE32
     /tmp/ccrMZ9a9.s:340    .text:00000000000001a8 .LFB30
     /tmp/ccrMZ9a9.s:366    .text:00000000000001d0 .LFE30
     /tmp/ccrMZ9a9.s:5124   .debug_loc:00000000000004ca .LLST9
     /tmp/ccrMZ9a9.s:355    .text:00000000000001c0 .LVL21
     /tmp/ccrMZ9a9.s:306    .text:000000000000017c .LFB29
     /tmp/ccrMZ9a9.s:334    .text:00000000000001a8 .LFE29
     /tmp/ccrMZ9a9.s:5138   .debug_loc:0000000000000503 .LLST8
     /tmp/ccrMZ9a9.s:323    .text:0000000000000198 .LVL19
     /tmp/ccrMZ9a9.s:5644   .debug_str:00000000000007d6 .LASF117
     /tmp/ccrMZ9a9.s:1260   .text:0000000000000470 .LFB27
     /tmp/ccrMZ9a9.s:1305   .text:00000000000004c0 .LFE27
     /tmp/ccrMZ9a9.s:5152   .debug_loc:000000000000053c .LLST32
     /tmp/ccrMZ9a9.s:1283   .text:0000000000000498 .LVL87
     /tmp/ccrMZ9a9.s:1286   .text:00000000000004a4 .LVL88
     /tmp/ccrMZ9a9.s:5648   .debug_str:00000000000007ef .LASF118
     /tmp/ccrMZ9a9.s:1134   .text:0000000000000428 .LFB24
     /tmp/ccrMZ9a9.s:1178   .text:0000000000000470 .LFE24
     /tmp/ccrMZ9a9.s:5170   .debug_loc:0000000000000588 .LLST30
     /tmp/ccrMZ9a9.s:1160   .text:0000000000000450 .LVL79
     /tmp/ccrMZ9a9.s:1163   .text:000000000000045c .LVL80
     /tmp/ccrMZ9a9.s:970    .text:00000000000003d4 .LFB22
     /tmp/ccrMZ9a9.s:1018   .text:0000000000000428 .LFE22
     /tmp/ccrMZ9a9.s:5184   .debug_loc:00000000000005c1 .LLST24
     /tmp/ccrMZ9a9.s:5198   .debug_loc:00000000000005fa .LLST25
     /tmp/ccrMZ9a9.s:993    .text:00000000000003fc .LVL62
     /tmp/ccrMZ9a9.s:1000   .text:000000000000040c .LVL64
     /tmp/ccrMZ9a9.s:837    .text:00000000000003a8 .LFB21
     /tmp/ccrMZ9a9.s:865    .text:00000000000003d4 .LFE21
     /tmp/ccrMZ9a9.s:5209   .debug_loc:0000000000000630 .LLST19
     /tmp/ccrMZ9a9.s:5223   .debug_loc:0000000000000669 .LLST20
     /tmp/ccrMZ9a9.s:854    .text:00000000000003c4 .LVL50
     /tmp/ccrMZ9a9.s:1386   .text:000000000000054c .LFE20
     /tmp/ccrMZ9a9.s:1347   .text:00000000000004fc .LVL90
     /tmp/ccrMZ9a9.s:1352   .text:0000000000000508 .LVL91
     /tmp/ccrMZ9a9.s:1379   .text:0000000000000540 .LVL92
     /tmp/ccrMZ9a9.s:1383   .text:000000000000054c .LVL93
     /tmp/ccrMZ9a9.s:274    .text:0000000000000154 .LFB12
     /tmp/ccrMZ9a9.s:300    .text:000000000000017c .LFE12
     /tmp/ccrMZ9a9.s:5237   .debug_loc:00000000000006a2 .LLST7
     /tmp/ccrMZ9a9.s:289    .text:000000000000016c .LVL16
     /tmp/ccrMZ9a9.s:195    .text:00000000000000d8 .LFB11
     /tmp/ccrMZ9a9.s:221    .text:0000000000000100 .LFE11
GAS LISTING /tmp/ccrMZ9a9.s 			page 49


     /tmp/ccrMZ9a9.s:5251   .debug_loc:00000000000006db .LLST6
     /tmp/ccrMZ9a9.s:210    .text:00000000000000f0 .LVL13
     /tmp/ccrMZ9a9.s:5530   .debug_str:0000000000000467 .LASF119
     /tmp/ccrMZ9a9.s:169    .text:00000000000000c0 .LFB9
     /tmp/ccrMZ9a9.s:187    .text:00000000000000d8 .LFE9
     /tmp/ccrMZ9a9.s:227    .text:0000000000000100 .LFB7
     /tmp/ccrMZ9a9.s:268    .text:0000000000000154 .LFE7
     /tmp/ccrMZ9a9.s:253    .text:0000000000000134 .LVL14
     /tmp/ccrMZ9a9.s:135    .text:0000000000000094 .LFB6
     /tmp/ccrMZ9a9.s:163    .text:00000000000000c0 .LFE6
     /tmp/ccrMZ9a9.s:5265   .debug_loc:0000000000000714 .LLST4
     /tmp/ccrMZ9a9.s:5650   .debug_str:0000000000000801 .LASF120
     /tmp/ccrMZ9a9.s:5279   .debug_loc:000000000000074d .LLST5
     /tmp/ccrMZ9a9.s:152    .text:00000000000000b0 .LVL10
     /tmp/ccrMZ9a9.s:101    .text:0000000000000068 .LFB5
     /tmp/ccrMZ9a9.s:129    .text:0000000000000094 .LFE5
     /tmp/ccrMZ9a9.s:5293   .debug_loc:0000000000000786 .LLST2
     /tmp/ccrMZ9a9.s:5307   .debug_loc:00000000000007bf .LLST3
     /tmp/ccrMZ9a9.s:118    .text:0000000000000084 .LVL7
     /tmp/ccrMZ9a9.s:5630   .debug_str:000000000000075c .LASF121
     /tmp/ccrMZ9a9.s:75     .text:0000000000000050 .LFB3
     /tmp/ccrMZ9a9.s:93     .text:0000000000000068 .LFE3
     /tmp/ccrMZ9a9.s:5504   .debug_str:00000000000003c4 .LASF122
     /tmp/ccrMZ9a9.s:43     .text:0000000000000028 .LFB1
     /tmp/ccrMZ9a9.s:69     .text:0000000000000050 .LFE1
     /tmp/ccrMZ9a9.s:5321   .debug_loc:00000000000007f8 .LLST1
     /tmp/ccrMZ9a9.s:58     .text:0000000000000040 .LVL3
     /tmp/ccrMZ9a9.s:5500   .debug_str:00000000000003ae .LASF129
     /tmp/ccrMZ9a9.s:10     .text:0000000000000000 .LFB0
     /tmp/ccrMZ9a9.s:37     .text:0000000000000028 .LFE0
     /tmp/ccrMZ9a9.s:5335   .debug_loc:0000000000000831 .LLST0
     /tmp/ccrMZ9a9.s:26     .text:0000000000000018 .LVL1
     /tmp/ccrMZ9a9.s:5482   .debug_str:000000000000032a .LASF130
     /tmp/ccrMZ9a9.s:5452   .debug_str:000000000000023d .LASF131
     /tmp/ccrMZ9a9.s:1197   .text._ZN5QueueIP3PCBEnwEm:0000000000000000 .LVL81
     /tmp/ccrMZ9a9.s:1208   .text._ZN5QueueIP3PCBEnwEm:0000000000000014 .LVL82
     /tmp/ccrMZ9a9.s:1062   .text._ZN5QueueIP3PCBED2Ev:0000000000000000 .LVL68
     /tmp/ccrMZ9a9.s:1078   .text._ZN5QueueIP3PCBED2Ev:000000000000001c .LVL69
     /tmp/ccrMZ9a9.s:1086   .text._ZN5QueueIP3PCBED2Ev:0000000000000024 .LVL71
     /tmp/ccrMZ9a9.s:1099   .text._ZN5QueueIP3PCBED2Ev:0000000000000040 .LVL75
     /tmp/ccrMZ9a9.s:1110   .text._ZN5QueueIP3PCBED2Ev:000000000000004c .LVL76
     /tmp/ccrMZ9a9.s:1082   .text._ZN5QueueIP3PCBED2Ev:0000000000000020 .LVL70
     /tmp/ccrMZ9a9.s:1095   .text._ZN5QueueIP3PCBED2Ev:000000000000003c .LVL74
     /tmp/ccrMZ9a9.s:1028   .text._ZN5QueueIP3PCBEdlEPv:0000000000000000 .LVL66
     /tmp/ccrMZ9a9.s:908    .text._ZN5QueueIP3PCBE3popEv:0000000000000000 .LVL53
     /tmp/ccrMZ9a9.s:947    .text._ZN5QueueIP3PCBE3popEv:000000000000004c .LVL57
     /tmp/ccrMZ9a9.s:954    .text._ZN5QueueIP3PCBE3popEv:0000000000000058 .LVL59
     /tmp/ccrMZ9a9.s:926    .text._ZN5QueueIP3PCBE3popEv:0000000000000024 .LVL54
     /tmp/ccrMZ9a9.s:950    .text._ZN5QueueIP3PCBE3popEv:0000000000000050 .LVL58
     /tmp/ccrMZ9a9.s:875    .text._ZN5QueueIP3PCBE5frontEv:0000000000000000 .LVL51
     /tmp/ccrMZ9a9.s:884    .text._ZN5QueueIP3PCBE5frontEv:0000000000000010 .LVL52
     /tmp/ccrMZ9a9.s:782    .text._ZN5QueueIP3PCBE4pushES1_:0000000000000000 .LVL43
     /tmp/ccrMZ9a9.s:814    .text._ZN5QueueIP3PCBE4pushES1_:0000000000000040 .LVL46
     /tmp/ccrMZ9a9.s:818    .text._ZN5QueueIP3PCBE4pushES1_:0000000000000048 .LVL47
     /tmp/ccrMZ9a9.s:666    .text:0000000000000328 .LVL38
     /tmp/ccrMZ9a9.s:678    .text:000000000000033c .LVL39
     /tmp/ccrMZ9a9.s:1414   .text:000000000000054c .LVL94
GAS LISTING /tmp/ccrMZ9a9.s 			page 50


     /tmp/ccrMZ9a9.s:1441   .text:0000000000000584 .LVL97
     /tmp/ccrMZ9a9.s:540    .text:000000000000027c .LVL29
     /tmp/ccrMZ9a9.s:570    .text:00000000000002b4 .LVL30
     /tmp/ccrMZ9a9.s:592    .text:00000000000002e4 .LVL33
     /tmp/ccrMZ9a9.s:597    .text:00000000000002ec .LVL34
     /tmp/ccrMZ9a9.s:600    .text:00000000000002f0 .LVL35
     /tmp/ccrMZ9a9.s:482    .text:0000000000000238 .LVL25
     /tmp/ccrMZ9a9.s:494    .text:000000000000024c .LVL26
     /tmp/ccrMZ9a9.s:1455   .text:000000000000058c .LVL98
     /tmp/ccrMZ9a9.s:1467   .text:00000000000005a0 .LVL99
     /tmp/ccrMZ9a9.s:343    .text:00000000000001a8 .LVL20
     /tmp/ccrMZ9a9.s:309    .text:000000000000017c .LVL17
     /tmp/ccrMZ9a9.s:321    .text:0000000000000190 .LVL18
     /tmp/ccrMZ9a9.s:1263   .text:0000000000000470 .LVL85
     /tmp/ccrMZ9a9.s:1281   .text:0000000000000490 .LVL86
     /tmp/ccrMZ9a9.s:1298   .text:00000000000004b4 .LVL89
     /tmp/ccrMZ9a9.s:1139   .text:0000000000000428 .LVL77
     /tmp/ccrMZ9a9.s:1158   .text:0000000000000448 .LVL78
     /tmp/ccrMZ9a9.s:973    .text:00000000000003d4 .LVL60
     /tmp/ccrMZ9a9.s:991    .text:00000000000003f4 .LVL61
     /tmp/ccrMZ9a9.s:995    .text:0000000000000400 .LVL63
     /tmp/ccrMZ9a9.s:1011   .text:000000000000041c .LVL65
     /tmp/ccrMZ9a9.s:840    .text:00000000000003a8 .LVL48
     /tmp/ccrMZ9a9.s:852    .text:00000000000003bc .LVL49
     /tmp/ccrMZ9a9.s:277    .text:0000000000000154 .LVL15
     /tmp/ccrMZ9a9.s:198    .text:00000000000000d8 .LVL12
     /tmp/ccrMZ9a9.s:138    .text:0000000000000094 .LVL8
     /tmp/ccrMZ9a9.s:150    .text:00000000000000a8 .LVL9
     /tmp/ccrMZ9a9.s:104    .text:0000000000000068 .LVL5
     /tmp/ccrMZ9a9.s:116    .text:000000000000007c .LVL6
     /tmp/ccrMZ9a9.s:46     .text:0000000000000028 .LVL2
     /tmp/ccrMZ9a9.s:14     .text:0000000000000000 .LVL0
     /tmp/ccrMZ9a9.s:1506   .debug_info:0000000000000000 .Ldebug_info0
     /tmp/ccrMZ9a9.s:5      .text:0000000000000000 .Ltext0
     /tmp/ccrMZ9a9.s:1501   .text:00000000000005b8 .Letext0
     /tmp/ccrMZ9a9.s:1120   .gcc_except_table._ZN5QueueIP3PCBED2Ev:0000000000000000 .LLSDA61
     /tmp/ccrMZ9a9.s:1180   .gcc_except_table:0000000000000000 .LLSDA24
     /tmp/ccrMZ9a9.s:1388   .gcc_except_table:0000000000000004 .LLSDA20
                           .group:0000000000000000 _ZN5QueueIP3PCBED5Ev
                           .group:0000000000000000 _ZN5QueueIP3PCBEC5Ev

UNDEFINED SYMBOLS
mem_alloc
mem_free
interruptvec
__gxx_personality_v0
_Unwind_Resume
