GAS LISTING /tmp/ccCV3DFY.s 			page 1


   1              		.file	"syscall_cpp.cpp"
   2              		.option pic
   3              		.option norelax
   4              		.text
   5              	.Ltext0:
   6              		.align	2
   7              		.globl	_Znwm
   9              	_Znwm:
  10              	.LFB0:
  11              		.file 1 "src/syscall_cpp.cpp"
   1:src/syscall_cpp.cpp **** //
   2:src/syscall_cpp.cpp **** // Created by os on 4/8/22.
   3:src/syscall_cpp.cpp **** //
   4:src/syscall_cpp.cpp **** 
   5:src/syscall_cpp.cpp **** #include "../h/syscall_cpp.h"
   6:src/syscall_cpp.cpp **** #include "../h/syscall_c.h"
   7:src/syscall_cpp.cpp **** 
   8:src/syscall_cpp.cpp **** //general
   9:src/syscall_cpp.cpp **** void * operator new(size_t size)
  10:src/syscall_cpp.cpp **** {
  12              		.loc 1 10 1
  13              		.cfi_startproc
  14              	.LVL0:
  15 0000 130101FF 		addi	sp,sp,-16
  16              		.cfi_def_cfa_offset 16
  17 0004 23341100 		sd	ra,8(sp)
  18 0008 23308100 		sd	s0,0(sp)
  19              		.cfi_offset 1, -8
  20              		.cfi_offset 8, -16
  21 000c 13040101 		addi	s0,sp,16
  22              		.cfi_def_cfa 8, 0
  11:src/syscall_cpp.cpp ****     return mem_alloc(size);
  23              		.loc 1 11 5
  24              		.loc 1 11 21 is_stmt 0
  25 0010 97000000 		call	mem_alloc@plt
  25      E7800000 
  26              	.LVL1:
  12:src/syscall_cpp.cpp **** }
  27              		.loc 1 12 1
  28 0018 83308100 		ld	ra,8(sp)
  29              		.cfi_restore 1
  30 001c 03340100 		ld	s0,0(sp)
  31              		.cfi_restore 8
  32              		.cfi_def_cfa 2, 16
  33 0020 13010101 		addi	sp,sp,16
  34              		.cfi_def_cfa_offset 0
  35 0024 67800000 		jr	ra
  36              		.cfi_endproc
  37              	.LFE0:
  39              		.align	2
  40              		.globl	_ZdlPv
  42              	_ZdlPv:
  43              	.LFB1:
  13:src/syscall_cpp.cpp **** 
  14:src/syscall_cpp.cpp **** void operator delete(void * p)
  15:src/syscall_cpp.cpp **** {
  44              		.loc 1 15 1 is_stmt 1
GAS LISTING /tmp/ccCV3DFY.s 			page 2


  45              		.cfi_startproc
  46              	.LVL2:
  47 0028 130101FF 		addi	sp,sp,-16
  48              		.cfi_def_cfa_offset 16
  49 002c 23341100 		sd	ra,8(sp)
  50 0030 23308100 		sd	s0,0(sp)
  51              		.cfi_offset 1, -8
  52              		.cfi_offset 8, -16
  53 0034 13040101 		addi	s0,sp,16
  54              		.cfi_def_cfa 8, 0
  16:src/syscall_cpp.cpp ****    mem_free(p);
  55              		.loc 1 16 4
  56              		.loc 1 16 12 is_stmt 0
  57 0038 97000000 		call	mem_free@plt
  57      E7800000 
  58              	.LVL3:
  17:src/syscall_cpp.cpp **** }
  59              		.loc 1 17 1
  60 0040 83308100 		ld	ra,8(sp)
  61              		.cfi_restore 1
  62 0044 03340100 		ld	s0,0(sp)
  63              		.cfi_restore 8
  64              		.cfi_def_cfa 2, 16
  65 0048 13010101 		addi	sp,sp,16
  66              		.cfi_def_cfa_offset 0
  67 004c 67800000 		jr	ra
  68              		.cfi_endproc
  69              	.LFE1:
  71              		.align	2
  72              		.globl	_ZN15MemoryAllocatorC2Ev
  74              	_ZN15MemoryAllocatorC2Ev:
  75              	.LFB3:
  18:src/syscall_cpp.cpp **** 
  19:src/syscall_cpp.cpp **** //MemoryAllocator.h
  20:src/syscall_cpp.cpp **** 
  21:src/syscall_cpp.cpp **** MemoryAllocator* MemoryAllocator::memoryAllocator = 0;
  22:src/syscall_cpp.cpp **** 
  23:src/syscall_cpp.cpp **** MemoryAllocator::MemoryAllocator() {
  76              		.loc 1 23 1 is_stmt 1
  77              		.cfi_startproc
  78              	.LVL4:
  79 0050 130101FF 		addi	sp,sp,-16
  80              		.cfi_def_cfa_offset 16
  81 0054 23348100 		sd	s0,8(sp)
  82              		.cfi_offset 8, -8
  83 0058 13040101 		addi	s0,sp,16
  84              		.cfi_def_cfa 8, 0
  24:src/syscall_cpp.cpp **** 
  25:src/syscall_cpp.cpp **** }
  85              		.loc 1 25 1 is_stmt 0
  86 005c 03348100 		ld	s0,8(sp)
  87              		.cfi_restore 8
  88              		.cfi_def_cfa 2, 16
  89 0060 13010101 		addi	sp,sp,16
  90              		.cfi_def_cfa_offset 0
  91 0064 67800000 		jr	ra
  92              		.cfi_endproc
GAS LISTING /tmp/ccCV3DFY.s 			page 3


  93              	.LFE3:
  95              		.globl	_ZN15MemoryAllocatorC1Ev
  96              		.set	_ZN15MemoryAllocatorC1Ev,_ZN15MemoryAllocatorC2Ev
  97              		.align	2
  98              		.globl	_ZN15MemoryAllocator9mem_allocEm
 100              	_ZN15MemoryAllocator9mem_allocEm:
 101              	.LFB5:
  26:src/syscall_cpp.cpp **** 
  27:src/syscall_cpp.cpp **** void *MemoryAllocator::mem_alloc(size_t size) {
 102              		.loc 1 27 47 is_stmt 1
 103              		.cfi_startproc
 104              	.LVL5:
 105 0068 130101FF 		addi	sp,sp,-16
 106              		.cfi_def_cfa_offset 16
 107 006c 23341100 		sd	ra,8(sp)
 108 0070 23308100 		sd	s0,0(sp)
 109              		.cfi_offset 1, -8
 110              		.cfi_offset 8, -16
 111 0074 13040101 		addi	s0,sp,16
 112              		.cfi_def_cfa 8, 0
  28:src/syscall_cpp.cpp ****     //todo
  29:src/syscall_cpp.cpp ****     //sta ovde treba kao parametar
  30:src/syscall_cpp.cpp ****     //svuda pogledaj to
  31:src/syscall_cpp.cpp ****     return ::mem_alloc(sizeof(MemoryAllocator));
 113              		.loc 1 31 5
 114              		.loc 1 31 23 is_stmt 0
 115 0078 13051000 		li	a0,1
 116              	.LVL6:
 117 007c 97000000 		call	mem_alloc@plt
 117      E7800000 
 118              	.LVL7:
  32:src/syscall_cpp.cpp **** }
 119              		.loc 1 32 1
 120 0084 83308100 		ld	ra,8(sp)
 121              		.cfi_restore 1
 122 0088 03340100 		ld	s0,0(sp)
 123              		.cfi_restore 8
 124              		.cfi_def_cfa 2, 16
 125 008c 13010101 		addi	sp,sp,16
 126              		.cfi_def_cfa_offset 0
 127 0090 67800000 		jr	ra
 128              		.cfi_endproc
 129              	.LFE5:
 131              		.align	2
 132              		.globl	_ZN15MemoryAllocator8mem_freeEPv
 134              	_ZN15MemoryAllocator8mem_freeEPv:
 135              	.LFB6:
  33:src/syscall_cpp.cpp **** 
  34:src/syscall_cpp.cpp **** int MemoryAllocator::mem_free(void * addr) {
 136              		.loc 1 34 44 is_stmt 1
 137              		.cfi_startproc
 138              	.LVL8:
 139 0094 130101FF 		addi	sp,sp,-16
 140              		.cfi_def_cfa_offset 16
 141 0098 23341100 		sd	ra,8(sp)
 142 009c 23308100 		sd	s0,0(sp)
 143              		.cfi_offset 1, -8
GAS LISTING /tmp/ccCV3DFY.s 			page 4


 144              		.cfi_offset 8, -16
 145 00a0 13040101 		addi	s0,sp,16
 146              		.cfi_def_cfa 8, 0
  35:src/syscall_cpp.cpp ****     return ::mem_free(addr);
 147              		.loc 1 35 5
 148              		.loc 1 35 22 is_stmt 0
 149 00a4 13850500 		mv	a0,a1
 150              	.LVL9:
 151 00a8 97000000 		call	mem_free@plt
 151      E7800000 
 152              	.LVL10:
  36:src/syscall_cpp.cpp **** }
 153              		.loc 1 36 1
 154 00b0 83308100 		ld	ra,8(sp)
 155              		.cfi_restore 1
 156 00b4 03340100 		ld	s0,0(sp)
 157              		.cfi_restore 8
 158              		.cfi_def_cfa 2, 16
 159 00b8 13010101 		addi	sp,sp,16
 160              		.cfi_def_cfa_offset 0
 161 00bc 67800000 		jr	ra
 162              		.cfi_endproc
 163              	.LFE6:
 165              		.align	2
 166              		.globl	_ZN15MemoryAllocatorD2Ev
 168              	_ZN15MemoryAllocatorD2Ev:
 169              	.LFB9:
  37:src/syscall_cpp.cpp **** 
  38:src/syscall_cpp.cpp **** MemoryAllocator* MemoryAllocator::getMemoryAllocator() {
  39:src/syscall_cpp.cpp **** 
  40:src/syscall_cpp.cpp ****     if(memoryAllocator == 0) {
  41:src/syscall_cpp.cpp ****         //todo
  42:src/syscall_cpp.cpp ****         //preklopi new za memoryAllocator
  43:src/syscall_cpp.cpp ****         //proveri da li ovo radi
  44:src/syscall_cpp.cpp ****         memoryAllocator = new MemoryAllocator();
  45:src/syscall_cpp.cpp ****     }
  46:src/syscall_cpp.cpp ****     return memoryAllocator;
  47:src/syscall_cpp.cpp **** }
  48:src/syscall_cpp.cpp **** 
  49:src/syscall_cpp.cpp **** MemoryAllocator::~MemoryAllocator() {
 170              		.loc 1 49 1 is_stmt 1
 171              		.cfi_startproc
 172              	.LVL11:
 173 00c0 130101FF 		addi	sp,sp,-16
 174              		.cfi_def_cfa_offset 16
 175 00c4 23348100 		sd	s0,8(sp)
 176              		.cfi_offset 8, -8
 177 00c8 13040101 		addi	s0,sp,16
 178              		.cfi_def_cfa 8, 0
  50:src/syscall_cpp.cpp **** 
  51:src/syscall_cpp.cpp **** }
 179              		.loc 1 51 1 is_stmt 0
 180 00cc 03348100 		ld	s0,8(sp)
 181              		.cfi_restore 8
 182              		.cfi_def_cfa 2, 16
 183 00d0 13010101 		addi	sp,sp,16
 184              		.cfi_def_cfa_offset 0
GAS LISTING /tmp/ccCV3DFY.s 			page 5


 185 00d4 67800000 		jr	ra
 186              		.cfi_endproc
 187              	.LFE9:
 189              		.globl	_ZN15MemoryAllocatorD1Ev
 190              		.set	_ZN15MemoryAllocatorD1Ev,_ZN15MemoryAllocatorD2Ev
 191              		.align	2
 192              		.globl	_ZN15MemoryAllocatornwEm
 194              	_ZN15MemoryAllocatornwEm:
 195              	.LFB11:
  52:src/syscall_cpp.cpp **** 
  53:src/syscall_cpp.cpp **** void *MemoryAllocator::operator new(size_t size) {
 196              		.loc 1 53 50 is_stmt 1
 197              		.cfi_startproc
 198              	.LVL12:
 199 00d8 130101FF 		addi	sp,sp,-16
 200              		.cfi_def_cfa_offset 16
 201 00dc 23341100 		sd	ra,8(sp)
 202 00e0 23308100 		sd	s0,0(sp)
 203              		.cfi_offset 1, -8
 204              		.cfi_offset 8, -16
 205 00e4 13040101 		addi	s0,sp,16
 206              		.cfi_def_cfa 8, 0
  54:src/syscall_cpp.cpp ****     return ::operator new(size);
 207              		.loc 1 54 5
 208              		.loc 1 54 26 is_stmt 0
 209 00e8 97000000 		call	_Znwm
 209      E7800000 
 210              	.LVL13:
  55:src/syscall_cpp.cpp **** }
 211              		.loc 1 55 1
 212 00f0 83308100 		ld	ra,8(sp)
 213              		.cfi_restore 1
 214 00f4 03340100 		ld	s0,0(sp)
 215              		.cfi_restore 8
 216              		.cfi_def_cfa 2, 16
 217 00f8 13010101 		addi	sp,sp,16
 218              		.cfi_def_cfa_offset 0
 219 00fc 67800000 		jr	ra
 220              		.cfi_endproc
 221              	.LFE11:
 223              		.align	2
 224              		.globl	_ZN15MemoryAllocator18getMemoryAllocatorEv
 226              	_ZN15MemoryAllocator18getMemoryAllocatorEv:
 227              	.LFB7:
  38:src/syscall_cpp.cpp **** 
 228              		.loc 1 38 56 is_stmt 1
 229              		.cfi_startproc
  40:src/syscall_cpp.cpp ****         //todo
 230              		.loc 1 40 5
  40:src/syscall_cpp.cpp ****         //todo
 231              		.loc 1 40 24 is_stmt 0
 232 0100 97070000 		ld	a5,.LANCHOR0
 232      83B70700 
  40:src/syscall_cpp.cpp ****         //todo
 233              		.loc 1 40 5
 234 0108 63880700 		beqz	a5,.L21
  46:src/syscall_cpp.cpp **** }
GAS LISTING /tmp/ccCV3DFY.s 			page 6


 235              		.loc 1 46 5 is_stmt 1
  47:src/syscall_cpp.cpp **** 
 236              		.loc 1 47 1 is_stmt 0
 237 010c 17050000 		ld	a0,.LANCHOR0
 237      03350500 
 238 0114 67800000 		ret
 239              	.L21:
  38:src/syscall_cpp.cpp **** 
 240              		.loc 1 38 56
 241 0118 130101FF 		addi	sp,sp,-16
 242              		.cfi_def_cfa_offset 16
 243 011c 23341100 		sd	ra,8(sp)
 244 0120 23308100 		sd	s0,0(sp)
 245              		.cfi_offset 1, -8
 246              		.cfi_offset 8, -16
 247 0124 13040101 		addi	s0,sp,16
 248              		.cfi_def_cfa 8, 0
  44:src/syscall_cpp.cpp ****     }
 249              		.loc 1 44 9 is_stmt 1
  44:src/syscall_cpp.cpp ****     }
 250              		.loc 1 44 47 is_stmt 0
 251 0128 13051000 		li	a0,1
 252 012c 97000000 		call	_ZN15MemoryAllocatornwEm
 252      E7800000 
 253              	.LVL14:
  44:src/syscall_cpp.cpp ****     }
 254              		.loc 1 44 25
 255 0134 97070000 		sd	a0,.LANCHOR0,a5
 255      23B0A700 
  46:src/syscall_cpp.cpp **** }
 256              		.loc 1 46 5 is_stmt 1
  47:src/syscall_cpp.cpp **** 
 257              		.loc 1 47 1 is_stmt 0
 258 013c 17050000 		ld	a0,.LANCHOR0
 258      03350500 
 259 0144 83308100 		ld	ra,8(sp)
 260              		.cfi_restore 1
 261 0148 03340100 		ld	s0,0(sp)
 262              		.cfi_restore 8
 263              		.cfi_def_cfa 2, 16
 264 014c 13010101 		addi	sp,sp,16
 265              		.cfi_def_cfa_offset 0
 266 0150 67800000 		jr	ra
 267              		.cfi_endproc
 268              	.LFE7:
 270              		.align	2
 271              		.globl	_ZN15MemoryAllocatordlEPv
 273              	_ZN15MemoryAllocatordlEPv:
 274              	.LFB12:
  56:src/syscall_cpp.cpp **** 
  57:src/syscall_cpp.cpp **** void MemoryAllocator::operator delete(void *p) {
 275              		.loc 1 57 48 is_stmt 1
 276              		.cfi_startproc
 277              	.LVL15:
 278 0154 130101FF 		addi	sp,sp,-16
 279              		.cfi_def_cfa_offset 16
 280 0158 23341100 		sd	ra,8(sp)
GAS LISTING /tmp/ccCV3DFY.s 			page 7


 281 015c 23308100 		sd	s0,0(sp)
 282              		.cfi_offset 1, -8
 283              		.cfi_offset 8, -16
 284 0160 13040101 		addi	s0,sp,16
 285              		.cfi_def_cfa 8, 0
  58:src/syscall_cpp.cpp ****     ::operator delete(p);
 286              		.loc 1 58 5
 287              		.loc 1 58 22 is_stmt 0
 288 0164 97000000 		call	_ZdlPv
 288      E7800000 
 289              	.LVL16:
  59:src/syscall_cpp.cpp **** }
 290              		.loc 1 59 1
 291 016c 83308100 		ld	ra,8(sp)
 292              		.cfi_restore 1
 293 0170 03340100 		ld	s0,0(sp)
 294              		.cfi_restore 8
 295              		.cfi_def_cfa 2, 16
 296 0174 13010101 		addi	sp,sp,16
 297              		.cfi_def_cfa_offset 0
 298 0178 67800000 		jr	ra
 299              		.cfi_endproc
 300              	.LFE12:
 302              		.align	2
 303              		.globl	_ZN9Scheduler12getSchedulerEv
 305              	_ZN9Scheduler12getSchedulerEv:
 306              	.LFB20:
  60:src/syscall_cpp.cpp **** 
  61:src/syscall_cpp.cpp **** 
  62:src/syscall_cpp.cpp **** //Queue.h
  63:src/syscall_cpp.cpp **** template<typename T>
  64:src/syscall_cpp.cpp **** void Queue<T>::pop() {
  65:src/syscall_cpp.cpp ****     Elem* newFirst = first->next;
  66:src/syscall_cpp.cpp ****     MemoryAllocator::getMemoryAllocator()->mem_free(first);
  67:src/syscall_cpp.cpp ****     first = newFirst;
  68:src/syscall_cpp.cpp ****     if(first == 0)
  69:src/syscall_cpp.cpp ****         first = last = 0;
  70:src/syscall_cpp.cpp **** }
  71:src/syscall_cpp.cpp **** 
  72:src/syscall_cpp.cpp **** template<typename T>
  73:src/syscall_cpp.cpp **** void Queue<T>::push(T t) {
  74:src/syscall_cpp.cpp ****     Elem* newElem = (Elem*)MemoryAllocator::getMemoryAllocator()->mem_alloc(sizeof(Elem));
  75:src/syscall_cpp.cpp ****     if(first == 0) {
  76:src/syscall_cpp.cpp ****         first = newElem;
  77:src/syscall_cpp.cpp ****         last = 0;
  78:src/syscall_cpp.cpp ****         first->next = last;
  79:src/syscall_cpp.cpp ****     }
  80:src/syscall_cpp.cpp **** }
  81:src/syscall_cpp.cpp **** 
  82:src/syscall_cpp.cpp **** template<typename T>
  83:src/syscall_cpp.cpp **** T Queue<T>::front() {
  84:src/syscall_cpp.cpp ****    if(first == 0)
  85:src/syscall_cpp.cpp ****        return 0;
  86:src/syscall_cpp.cpp ****    return first->data;
  87:src/syscall_cpp.cpp **** }
  88:src/syscall_cpp.cpp **** 
  89:src/syscall_cpp.cpp **** template<typename T>
GAS LISTING /tmp/ccCV3DFY.s 			page 8


  90:src/syscall_cpp.cpp **** Queue<T>::Queue() {
  91:src/syscall_cpp.cpp ****     first = last = 0;
  92:src/syscall_cpp.cpp **** }
  93:src/syscall_cpp.cpp **** 
  94:src/syscall_cpp.cpp **** template<typename T>
  95:src/syscall_cpp.cpp **** Queue<T>::~Queue() {
  96:src/syscall_cpp.cpp ****     Elem* curr = first;
  97:src/syscall_cpp.cpp ****     while(curr != 0)
  98:src/syscall_cpp.cpp ****     {
  99:src/syscall_cpp.cpp ****         Elem* old = curr;
 100:src/syscall_cpp.cpp ****         curr = curr->next;
 101:src/syscall_cpp.cpp ****         MemoryAllocator::getMemoryAllocator()->mem_free(old);
 102:src/syscall_cpp.cpp ****     }
 103:src/syscall_cpp.cpp **** }
 104:src/syscall_cpp.cpp **** 
 105:src/syscall_cpp.cpp **** template<typename T>
 106:src/syscall_cpp.cpp **** void *Queue<T>::operator new(size_t size) {
 107:src/syscall_cpp.cpp ****     //da li ovde treba size ili sizeof(Queue<T>)
 108:src/syscall_cpp.cpp ****     return ::operator new(sizeof(Queue<T>));
 109:src/syscall_cpp.cpp **** }
 110:src/syscall_cpp.cpp **** 
 111:src/syscall_cpp.cpp **** template<typename T>
 112:src/syscall_cpp.cpp **** void Queue<T>::operator delete(void *p) {
 113:src/syscall_cpp.cpp ****     ::operator delete(p);
 114:src/syscall_cpp.cpp **** }
 115:src/syscall_cpp.cpp **** 
 116:src/syscall_cpp.cpp **** //Scheduler.h
 117:src/syscall_cpp.cpp **** 
 118:src/syscall_cpp.cpp **** Scheduler* Scheduler::scheduler = 0;
 119:src/syscall_cpp.cpp **** 
 120:src/syscall_cpp.cpp **** Scheduler *Scheduler::getScheduler() {
 307              		.loc 1 120 38 is_stmt 1
 308              		.cfi_startproc
 121:src/syscall_cpp.cpp ****     if(scheduler == 0)
 309              		.loc 1 121 5
 310              		.loc 1 121 18 is_stmt 0
 311 017c 97070000 		ld	a5,.LANCHOR0+8
 311      83B70700 
 312              		.loc 1 121 5
 313 0184 63880700 		beqz	a5,.L30
 122:src/syscall_cpp.cpp ****     {
 123:src/syscall_cpp.cpp ****         //todo
 124:src/syscall_cpp.cpp ****         //preklopi new za Scheduler
 125:src/syscall_cpp.cpp ****         scheduler = (Scheduler*)MemoryAllocator::getMemoryAllocator()->mem_alloc(sizeof(Scheduler))
 126:src/syscall_cpp.cpp ****     }
 127:src/syscall_cpp.cpp **** 
 128:src/syscall_cpp.cpp ****     return scheduler;
 314              		.loc 1 128 5 is_stmt 1
 129:src/syscall_cpp.cpp **** }
 315              		.loc 1 129 1 is_stmt 0
 316 0188 17050000 		ld	a0,.LANCHOR0+8
 316      03350500 
 317 0190 67800000 		ret
 318              	.L30:
 120:src/syscall_cpp.cpp ****     if(scheduler == 0)
 319              		.loc 1 120 38
 320 0194 130101FF 		addi	sp,sp,-16
GAS LISTING /tmp/ccCV3DFY.s 			page 9


 321              		.cfi_def_cfa_offset 16
 322 0198 23341100 		sd	ra,8(sp)
 323 019c 23308100 		sd	s0,0(sp)
 324              		.cfi_offset 1, -8
 325              		.cfi_offset 8, -16
 326 01a0 13040101 		addi	s0,sp,16
 327              		.cfi_def_cfa 8, 0
 125:src/syscall_cpp.cpp ****     }
 328              		.loc 1 125 9 is_stmt 1
 125:src/syscall_cpp.cpp ****     }
 329              		.loc 1 125 81 is_stmt 0
 330 01a4 97000000 		call	_ZN15MemoryAllocator18getMemoryAllocatorEv
 330      E7800000 
 331              	.LVL17:
 332 01ac 93058000 		li	a1,8
 333 01b0 97000000 		call	_ZN15MemoryAllocator9mem_allocEm
 333      E7800000 
 334              	.LVL18:
 125:src/syscall_cpp.cpp ****     }
 335              		.loc 1 125 19
 336 01b8 97070000 		sd	a0,.LANCHOR0+8,a5
 336      23B0A700 
 128:src/syscall_cpp.cpp **** }
 337              		.loc 1 128 5 is_stmt 1
 338              		.loc 1 129 1 is_stmt 0
 339 01c0 17050000 		ld	a0,.LANCHOR0+8
 339      03350500 
 340 01c8 83308100 		ld	ra,8(sp)
 341              		.cfi_restore 1
 342 01cc 03340100 		ld	s0,0(sp)
 343              		.cfi_restore 8
 344              		.cfi_def_cfa 2, 16
 345 01d0 13010101 		addi	sp,sp,16
 346              		.cfi_def_cfa_offset 0
 347 01d4 67800000 		jr	ra
 348              		.cfi_endproc
 349              	.LFE20:
 351              		.align	2
 352              		.globl	_ZN9SchedulerC2Ev
 354              	_ZN9SchedulerC2Ev:
 355              	.LFB27:
 130:src/syscall_cpp.cpp **** 
 131:src/syscall_cpp.cpp **** void Scheduler::put(PCB *pcb) {
 132:src/syscall_cpp.cpp ****     queuePCB->push(pcb);
 133:src/syscall_cpp.cpp **** }
 134:src/syscall_cpp.cpp **** 
 135:src/syscall_cpp.cpp **** PCB *Scheduler::get() {
 136:src/syscall_cpp.cpp ****     PCB* t =  queuePCB->front();
 137:src/syscall_cpp.cpp ****     queuePCB->pop();
 138:src/syscall_cpp.cpp ****     return t;
 139:src/syscall_cpp.cpp **** }
 140:src/syscall_cpp.cpp **** 
 141:src/syscall_cpp.cpp **** Scheduler::~Scheduler() {
 142:src/syscall_cpp.cpp ****     //todo
 143:src/syscall_cpp.cpp ****     //preklopi delete za queue
 144:src/syscall_cpp.cpp ****     delete queuePCB;
 145:src/syscall_cpp.cpp ****     //MemoryAllocator::getMemoryAllocator()->mem_free(queueThreads);
GAS LISTING /tmp/ccCV3DFY.s 			page 10


 146:src/syscall_cpp.cpp **** }
 147:src/syscall_cpp.cpp **** 
 148:src/syscall_cpp.cpp **** Scheduler::Scheduler() {
 356              		.loc 1 148 1 is_stmt 1
 357              		.cfi_startproc
 358              	.LVL19:
 359 01d8 130101FE 		addi	sp,sp,-32
 360              		.cfi_def_cfa_offset 32
 361 01dc 233C1100 		sd	ra,24(sp)
 362 01e0 23388100 		sd	s0,16(sp)
 363 01e4 23349100 		sd	s1,8(sp)
 364              		.cfi_offset 1, -8
 365              		.cfi_offset 8, -16
 366              		.cfi_offset 9, -24
 367 01e8 13040102 		addi	s0,sp,32
 368              		.cfi_def_cfa 8, 0
 369 01ec 93040500 		mv	s1,a0
 370              	.LBB2:
 149:src/syscall_cpp.cpp ****     queuePCB= (Queue<PCB*>*)MemoryAllocator::getMemoryAllocator()->mem_alloc(sizeof(Queue<PCB*>));
 371              		.loc 1 149 5
 372              		.loc 1 149 77 is_stmt 0
 373 01f0 97000000 		call	_ZN15MemoryAllocator18getMemoryAllocatorEv
 373      E7800000 
 374              	.LVL20:
 375 01f8 93050001 		li	a1,16
 376 01fc 97000000 		call	_ZN15MemoryAllocator9mem_allocEm
 376      E7800000 
 377              	.LVL21:
 378              		.loc 1 149 13
 379 0204 23B0A400 		sd	a0,0(s1)
 380              	.LBE2:
 150:src/syscall_cpp.cpp **** }
 381              		.loc 1 150 1
 382 0208 83308101 		ld	ra,24(sp)
 383              		.cfi_restore 1
 384 020c 03340101 		ld	s0,16(sp)
 385              		.cfi_restore 8
 386              		.cfi_def_cfa 2, 32
 387 0210 83348100 		ld	s1,8(sp)
 388              		.cfi_restore 9
 389              	.LVL22:
 390 0214 13010102 		addi	sp,sp,32
 391              		.cfi_def_cfa_offset 0
 392 0218 67800000 		jr	ra
 393              		.cfi_endproc
 394              	.LFE27:
 396              		.globl	_ZN9SchedulerC1Ev
 397              		.set	_ZN9SchedulerC1Ev,_ZN9SchedulerC2Ev
 398              		.align	2
 399              		.globl	_ZN9SchedulernwEm
 401              	_ZN9SchedulernwEm:
 402              	.LFB29:
 151:src/syscall_cpp.cpp **** 
 152:src/syscall_cpp.cpp **** void *Scheduler::operator new(size_t size) {
 403              		.loc 1 152 44 is_stmt 1
 404              		.cfi_startproc
 405              	.LVL23:
GAS LISTING /tmp/ccCV3DFY.s 			page 11


 406 021c 130101FF 		addi	sp,sp,-16
 407              		.cfi_def_cfa_offset 16
 408 0220 23341100 		sd	ra,8(sp)
 409 0224 23308100 		sd	s0,0(sp)
 410              		.cfi_offset 1, -8
 411              		.cfi_offset 8, -16
 412 0228 13040101 		addi	s0,sp,16
 413              		.cfi_def_cfa 8, 0
 153:src/syscall_cpp.cpp ****     return ::operator new(sizeof(Scheduler));
 414              		.loc 1 153 5
 415              		.loc 1 153 26 is_stmt 0
 416 022c 13058000 		li	a0,8
 417              	.LVL24:
 418 0230 97000000 		call	_Znwm
 418      E7800000 
 419              	.LVL25:
 154:src/syscall_cpp.cpp **** }
 420              		.loc 1 154 1
 421 0238 83308100 		ld	ra,8(sp)
 422              		.cfi_restore 1
 423 023c 03340100 		ld	s0,0(sp)
 424              		.cfi_restore 8
 425              		.cfi_def_cfa 2, 16
 426 0240 13010101 		addi	sp,sp,16
 427              		.cfi_def_cfa_offset 0
 428 0244 67800000 		jr	ra
 429              		.cfi_endproc
 430              	.LFE29:
 432              		.align	2
 433              		.globl	_ZN9SchedulerdlEPv
 435              	_ZN9SchedulerdlEPv:
 436              	.LFB30:
 155:src/syscall_cpp.cpp **** 
 156:src/syscall_cpp.cpp **** void Scheduler::operator delete(void *p) {
 437              		.loc 1 156 42 is_stmt 1
 438              		.cfi_startproc
 439              	.LVL26:
 440 0248 130101FF 		addi	sp,sp,-16
 441              		.cfi_def_cfa_offset 16
 442 024c 23341100 		sd	ra,8(sp)
 443 0250 23308100 		sd	s0,0(sp)
 444              		.cfi_offset 1, -8
 445              		.cfi_offset 8, -16
 446 0254 13040101 		addi	s0,sp,16
 447              		.cfi_def_cfa 8, 0
 157:src/syscall_cpp.cpp ****     ::operator delete(p);
 448              		.loc 1 157 5
 449              		.loc 1 157 22 is_stmt 0
 450 0258 97000000 		call	_ZdlPv
 450      E7800000 
 451              	.LVL27:
 158:src/syscall_cpp.cpp **** }
 452              		.loc 1 158 1
 453 0260 83308100 		ld	ra,8(sp)
 454              		.cfi_restore 1
 455 0264 03340100 		ld	s0,0(sp)
 456              		.cfi_restore 8
GAS LISTING /tmp/ccCV3DFY.s 			page 12


 457              		.cfi_def_cfa 2, 16
 458 0268 13010101 		addi	sp,sp,16
 459              		.cfi_def_cfa_offset 0
 460 026c 67800000 		jr	ra
 461              		.cfi_endproc
 462              	.LFE30:
 464              		.align	2
 465              		.globl	_ZN6ThreadC2EPFvPvES0_
 467              	_ZN6ThreadC2EPFvPvES0_:
 468              	.LFB32:
 159:src/syscall_cpp.cpp **** 
 160:src/syscall_cpp.cpp **** //Thread.h
 161:src/syscall_cpp.cpp **** 
 162:src/syscall_cpp.cpp **** //todo
 163:src/syscall_cpp.cpp **** //kreiranje pocetnog konteksta niti
 164:src/syscall_cpp.cpp **** 
 165:src/syscall_cpp.cpp **** Thread::Thread(void (*body)(void *), void *arg) {
 469              		.loc 1 165 1 is_stmt 1
 470              		.cfi_startproc
 471              	.LVL28:
 472 0270 130101FF 		addi	sp,sp,-16
 473              		.cfi_def_cfa_offset 16
 474 0274 23348100 		sd	s0,8(sp)
 475              		.cfi_offset 8, -8
 476 0278 13040101 		addi	s0,sp,16
 477              		.cfi_def_cfa 8, 0
 478              	.LBB3:
 166:src/syscall_cpp.cpp ****     f = body;
 479              		.loc 1 166 5
 480              		.loc 1 166 7 is_stmt 0
 481 027c 2330B500 		sd	a1,0(a0)
 167:src/syscall_cpp.cpp ****     args = arg;
 482              		.loc 1 167 5 is_stmt 1
 483              		.loc 1 167 10 is_stmt 0
 484 0280 2334C500 		sd	a2,8(a0)
 485              	.LBE3:
 168:src/syscall_cpp.cpp **** }
 486              		.loc 1 168 1
 487 0284 03348100 		ld	s0,8(sp)
 488              		.cfi_restore 8
 489              		.cfi_def_cfa 2, 16
 490 0288 13010101 		addi	sp,sp,16
 491              		.cfi_def_cfa_offset 0
 492 028c 67800000 		jr	ra
 493              		.cfi_endproc
 494              	.LFE32:
 496              		.globl	_ZN6ThreadC1EPFvPvES0_
 497              		.set	_ZN6ThreadC1EPFvPvES0_,_ZN6ThreadC2EPFvPvES0_
 498              		.align	2
 499              		.globl	_ZN6Thread8dispatchEv
 501              	_ZN6Thread8dispatchEv:
 502              	.LFB35:
 169:src/syscall_cpp.cpp **** 
 170:src/syscall_cpp.cpp **** //Thread::~Thread() {
 171:src/syscall_cpp.cpp **** //
 172:src/syscall_cpp.cpp **** //}
 173:src/syscall_cpp.cpp **** 
GAS LISTING /tmp/ccCV3DFY.s 			page 13


 174:src/syscall_cpp.cpp **** void Thread::start() {
 175:src/syscall_cpp.cpp ****     threadPCB->start();
 176:src/syscall_cpp.cpp **** }
 177:src/syscall_cpp.cpp **** 
 178:src/syscall_cpp.cpp **** void Thread::dispatch() {
 503              		.loc 1 178 25 is_stmt 1
 504              		.cfi_startproc
 505 0290 130101FF 		addi	sp,sp,-16
 506              		.cfi_def_cfa_offset 16
 507 0294 23348100 		sd	s0,8(sp)
 508              		.cfi_offset 8, -8
 509 0298 13040101 		addi	s0,sp,16
 510              		.cfi_def_cfa 8, 0
 179:src/syscall_cpp.cpp **** 
 180:src/syscall_cpp.cpp **** }
 511              		.loc 1 180 1 is_stmt 0
 512 029c 03348100 		ld	s0,8(sp)
 513              		.cfi_restore 8
 514              		.cfi_def_cfa 2, 16
 515 02a0 13010101 		addi	sp,sp,16
 516              		.cfi_def_cfa_offset 0
 517 02a4 67800000 		jr	ra
 518              		.cfi_endproc
 519              	.LFE35:
 521              		.align	2
 522              		.globl	_ZN6Thread5sleepEm
 524              	_ZN6Thread5sleepEm:
 525              	.LFB36:
 181:src/syscall_cpp.cpp **** 
 182:src/syscall_cpp.cpp **** void Thread::sleep(time_t time) {
 526              		.loc 1 182 33 is_stmt 1
 527              		.cfi_startproc
 528              	.LVL29:
 529 02a8 130101FF 		addi	sp,sp,-16
 530              		.cfi_def_cfa_offset 16
 531 02ac 23348100 		sd	s0,8(sp)
 532              		.cfi_offset 8, -8
 533 02b0 13040101 		addi	s0,sp,16
 534              		.cfi_def_cfa 8, 0
 183:src/syscall_cpp.cpp **** 
 184:src/syscall_cpp.cpp **** }
 535              		.loc 1 184 1 is_stmt 0
 536 02b4 03348100 		ld	s0,8(sp)
 537              		.cfi_restore 8
 538              		.cfi_def_cfa 2, 16
 539 02b8 13010101 		addi	sp,sp,16
 540              		.cfi_def_cfa_offset 0
 541 02bc 67800000 		jr	ra
 542              		.cfi_endproc
 543              	.LFE36:
 545              		.align	2
 546              		.globl	_ZN6ThreadC2Ev
 548              	_ZN6ThreadC2Ev:
 549              	.LFB38:
 185:src/syscall_cpp.cpp **** 
 186:src/syscall_cpp.cpp **** Thread::Thread() {
 550              		.loc 1 186 1 is_stmt 1
GAS LISTING /tmp/ccCV3DFY.s 			page 14


 551              		.cfi_startproc
 552              	.LVL30:
 553 02c0 130101FF 		addi	sp,sp,-16
 554              		.cfi_def_cfa_offset 16
 555 02c4 23348100 		sd	s0,8(sp)
 556              		.cfi_offset 8, -8
 557 02c8 13040101 		addi	s0,sp,16
 558              		.cfi_def_cfa 8, 0
 187:src/syscall_cpp.cpp **** 
 188:src/syscall_cpp.cpp **** }
 559              		.loc 1 188 1 is_stmt 0
 560 02cc 03348100 		ld	s0,8(sp)
 561              		.cfi_restore 8
 562              		.cfi_def_cfa 2, 16
 563 02d0 13010101 		addi	sp,sp,16
 564              		.cfi_def_cfa_offset 0
 565 02d4 67800000 		jr	ra
 566              		.cfi_endproc
 567              	.LFE38:
 569              		.globl	_ZN6ThreadC1Ev
 570              		.set	_ZN6ThreadC1Ev,_ZN6ThreadC2Ev
 571              		.align	2
 572              		.globl	_ZN3PCBC2EPFvPvES0_mm
 574              	_ZN3PCBC2EPFvPvES0_mm:
 575              	.LFB41:
 189:src/syscall_cpp.cpp **** 
 190:src/syscall_cpp.cpp **** //void Thread::run() {
 191:src/syscall_cpp.cpp **** //
 192:src/syscall_cpp.cpp **** //}
 193:src/syscall_cpp.cpp **** 
 194:src/syscall_cpp.cpp **** //PCB.h
 195:src/syscall_cpp.cpp **** 
 196:src/syscall_cpp.cpp **** PCB::PCB(void (*body)(void*), void* arg , size_t stackSize, size_t timeSlice) {
 576              		.loc 1 196 1 is_stmt 1
 577              		.cfi_startproc
 578              	.LVL31:
 579 02d8 130101FD 		addi	sp,sp,-48
 580              		.cfi_def_cfa_offset 48
 581 02dc 23341102 		sd	ra,40(sp)
 582 02e0 23308102 		sd	s0,32(sp)
 583 02e4 233C9100 		sd	s1,24(sp)
 584 02e8 23382101 		sd	s2,16(sp)
 585 02ec 23343101 		sd	s3,8(sp)
 586 02f0 23304101 		sd	s4,0(sp)
 587              		.cfi_offset 1, -8
 588              		.cfi_offset 8, -16
 589              		.cfi_offset 9, -24
 590              		.cfi_offset 18, -32
 591              		.cfi_offset 19, -40
 592              		.cfi_offset 20, -48
 593 02f4 13040103 		addi	s0,sp,48
 594              		.cfi_def_cfa 8, 0
 595 02f8 93040500 		mv	s1,a0
 596 02fc 93890500 		mv	s3,a1
 597 0300 130A0600 		mv	s4,a2
 598              	.LBB4:
 197:src/syscall_cpp.cpp ****     //todo
GAS LISTING /tmp/ccCV3DFY.s 			page 15


 198:src/syscall_cpp.cpp ****     //pocetni kontekst niti
 199:src/syscall_cpp.cpp ****     this->stackSize = stackSize;
 599              		.loc 1 199 5
 600              		.loc 1 199 21 is_stmt 0
 601 0304 2338D500 		sd	a3,16(a0)
 200:src/syscall_cpp.cpp ****     this->timeSlice = timeSlice;
 602              		.loc 1 200 5 is_stmt 1
 603              		.loc 1 200 21 is_stmt 0
 604 0308 233CE500 		sd	a4,24(a0)
 201:src/syscall_cpp.cpp ****     this->pcbThread = new Thread(body, arg);
 605              		.loc 1 201 5 is_stmt 1
 606              		.loc 1 201 43 is_stmt 0
 607 030c 13058002 		li	a0,40
 608              	.LVL32:
 609 0310 97000000 		call	_Znwm
 609      E7800000 
 610              	.LVL33:
 611 0318 13090500 		mv	s2,a0
 612 031c 13060A00 		mv	a2,s4
 613 0320 93850900 		mv	a1,s3
 614 0324 97000000 		call	_ZN6ThreadC1EPFvPvES0_
 614      E7800000 
 615              	.LVL34:
 616              		.loc 1 201 21
 617 032c 23B02401 		sd	s2,0(s1)
 202:src/syscall_cpp.cpp ****     this->state = CREATED;
 618              		.loc 1 202 5 is_stmt 1
 619              		.loc 1 202 17 is_stmt 0
 620 0330 23A00402 		sw	zero,32(s1)
 621              	.LBE4:
 203:src/syscall_cpp.cpp **** }
 622              		.loc 1 203 1
 623 0334 83308102 		ld	ra,40(sp)
 624              		.cfi_restore 1
 625 0338 03340102 		ld	s0,32(sp)
 626              		.cfi_restore 8
 627              		.cfi_def_cfa 2, 48
 628 033c 83348101 		ld	s1,24(sp)
 629              		.cfi_restore 9
 630              	.LVL35:
 631 0340 03390101 		ld	s2,16(sp)
 632              		.cfi_restore 18
 633 0344 83398100 		ld	s3,8(sp)
 634              		.cfi_restore 19
 635              	.LVL36:
 636 0348 033A0100 		ld	s4,0(sp)
 637              		.cfi_restore 20
 638              	.LVL37:
 639 034c 13010103 		addi	sp,sp,48
 640              		.cfi_def_cfa_offset 0
 641 0350 67800000 		jr	ra
 642              		.cfi_endproc
 643              	.LFE41:
 645              		.globl	_ZN3PCBC1EPFvPvES0_mm
 646              		.set	_ZN3PCBC1EPFvPvES0_mm,_ZN3PCBC2EPFvPvES0_mm
 647              		.align	2
 648              		.globl	_ZN3PCBD2Ev
GAS LISTING /tmp/ccCV3DFY.s 			page 16


 650              	_ZN3PCBD2Ev:
 651              	.LFB44:
 204:src/syscall_cpp.cpp **** 
 205:src/syscall_cpp.cpp **** PCB::~PCB() {
 652              		.loc 1 205 1 is_stmt 1
 653              		.cfi_startproc
 654              	.LVL38:
 655 0354 130101FF 		addi	sp,sp,-16
 656              		.cfi_def_cfa_offset 16
 657 0358 23348100 		sd	s0,8(sp)
 658              		.cfi_offset 8, -8
 659 035c 13040101 		addi	s0,sp,16
 660              		.cfi_def_cfa 8, 0
 206:src/syscall_cpp.cpp **** 
 207:src/syscall_cpp.cpp **** }
 661              		.loc 1 207 1 is_stmt 0
 662 0360 03348100 		ld	s0,8(sp)
 663              		.cfi_restore 8
 664              		.cfi_def_cfa 2, 16
 665 0364 13010101 		addi	sp,sp,16
 666              		.cfi_def_cfa_offset 0
 667 0368 67800000 		jr	ra
 668              		.cfi_endproc
 669              	.LFE44:
 671              		.globl	_ZN3PCBD1Ev
 672              		.set	_ZN3PCBD1Ev,_ZN3PCBD2Ev
 673              		.align	2
 674              		.globl	_ZN3PCB6runnerEPv
 676              	_ZN3PCB6runnerEPv:
 677              	.LFB47:
 208:src/syscall_cpp.cpp **** 
 209:src/syscall_cpp.cpp **** void PCB::start()
 210:src/syscall_cpp.cpp **** {
 211:src/syscall_cpp.cpp ****     Scheduler::getScheduler()->put(this);
 212:src/syscall_cpp.cpp **** }
 213:src/syscall_cpp.cpp **** 
 214:src/syscall_cpp.cpp **** void PCB::runner(void* p) {
 678              		.loc 1 214 27 is_stmt 1
 679              		.cfi_startproc
 680              	.LVL39:
 681 036c 130101FF 		addi	sp,sp,-16
 682              		.cfi_def_cfa_offset 16
 683 0370 23348100 		sd	s0,8(sp)
 684              		.cfi_offset 8, -8
 685 0374 13040101 		addi	s0,sp,16
 686              		.cfi_def_cfa 8, 0
 215:src/syscall_cpp.cpp **** 
 216:src/syscall_cpp.cpp **** }
 687              		.loc 1 216 1 is_stmt 0
 688 0378 03348100 		ld	s0,8(sp)
 689              		.cfi_restore 8
 690              		.cfi_def_cfa 2, 16
 691 037c 13010101 		addi	sp,sp,16
 692              		.cfi_def_cfa_offset 0
 693 0380 67800000 		jr	ra
 694              		.cfi_endproc
 695              	.LFE47:
GAS LISTING /tmp/ccCV3DFY.s 			page 17


 697              		.align	2
 698              		.globl	_ZN6System10initSystemEv
 700              	_ZN6System10initSystemEv:
 701              	.LFB48:
 217:src/syscall_cpp.cpp **** 
 218:src/syscall_cpp.cpp **** //System.h
 219:src/syscall_cpp.cpp **** 
 220:src/syscall_cpp.cpp **** PCB* System::runningPCB = 0;
 221:src/syscall_cpp.cpp **** 
 222:src/syscall_cpp.cpp **** void System::initSystem() {
 702              		.loc 1 222 27 is_stmt 1
 703              		.cfi_startproc
 704 0384 130101FF 		addi	sp,sp,-16
 705              		.cfi_def_cfa_offset 16
 706 0388 23348100 		sd	s0,8(sp)
 707              		.cfi_offset 8, -8
 708 038c 13040101 		addi	s0,sp,16
 709              		.cfi_def_cfa 8, 0
 223:src/syscall_cpp.cpp **** 
 224:src/syscall_cpp.cpp **** }...
 710              		.loc 1 224 1 is_stmt 0
 711 0390 03348100 		ld	s0,8(sp)
 712              		.cfi_restore 8
 713              		.cfi_def_cfa 2, 16
 714 0394 13010101 		addi	sp,sp,16
 715              		.cfi_def_cfa_offset 0
 716 0398 67800000 		jr	ra
 717              		.cfi_endproc
 718              	.LFE48:
 720              		.section	.text._ZN5QueueIP3PCBE4pushES1_,"axG",@progbits,_ZN5QueueIP3PCBE4pushES1_,comdat
 721              		.align	2
 722              		.weak	_ZN5QueueIP3PCBE4pushES1_
 724              	_ZN5QueueIP3PCBE4pushES1_:
 725              	.LFB49:
  73:src/syscall_cpp.cpp **** void Queue<T>::push(T t) {
 726              		.loc 1 73 6 is_stmt 1
 727              		.cfi_startproc
 728              	.LVL40:
 729 0000 130101FE 		addi	sp,sp,-32
 730              		.cfi_def_cfa_offset 32
 731 0004 233C1100 		sd	ra,24(sp)
 732 0008 23388100 		sd	s0,16(sp)
 733 000c 23349100 		sd	s1,8(sp)
 734              		.cfi_offset 1, -8
 735              		.cfi_offset 8, -16
 736              		.cfi_offset 9, -24
 737 0010 13040102 		addi	s0,sp,32
 738              		.cfi_def_cfa 8, 0
 739 0014 93040500 		mv	s1,a0
  74:src/syscall_cpp.cpp ****     Elem* newElem = (Elem*)MemoryAllocator::getMemoryAllocator()->mem_alloc(sizeof(Elem));
 740              		.loc 1 74 76 is_stmt 0
 741 0018 97000000 		call	_ZN15MemoryAllocator18getMemoryAllocatorEv
 741      E7800000 
 742              	.LVL41:
 743 0020 93050001 		li	a1,16
 744 0024 97000000 		call	_ZN15MemoryAllocator9mem_allocEm
 744      E7800000 
GAS LISTING /tmp/ccCV3DFY.s 			page 18


 745              	.LVL42:
  75:src/syscall_cpp.cpp ****     if(first == 0) {
 746              		.loc 1 75 8
 747 002c 83B70400 		ld	a5,0(s1)
  75:src/syscall_cpp.cpp ****     if(first == 0) {
 748              		.loc 1 75 5
 749 0030 638C0700 		beqz	a5,.L56
 750              	.L53:
  80:src/syscall_cpp.cpp **** }
 751              		.loc 1 80 1
 752 0034 83308101 		ld	ra,24(sp)
 753              		.cfi_remember_state
 754              		.cfi_restore 1
 755 0038 03340101 		ld	s0,16(sp)
 756              		.cfi_restore 8
 757              		.cfi_def_cfa 2, 32
 758 003c 83348100 		ld	s1,8(sp)
 759              		.cfi_restore 9
 760              	.LVL43:
 761 0040 13010102 		addi	sp,sp,32
 762              		.cfi_def_cfa_offset 0
 763 0044 67800000 		jr	ra
 764              	.LVL44:
 765              	.L56:
 766              		.cfi_restore_state
  76:src/syscall_cpp.cpp ****         first = newElem;
 767              		.loc 1 76 9
 768 0048 23B0A400 		sd	a0,0(s1)
  77:src/syscall_cpp.cpp ****         last = 0;
 769              		.loc 1 77 9
 770 004c 23B40400 		sd	zero,8(s1)
  78:src/syscall_cpp.cpp ****         first->next = last;
 771              		.loc 1 78 9
 772 0050 23340500 		sd	zero,8(a0)
  80:src/syscall_cpp.cpp **** }
 773              		.loc 1 80 1
 774 0054 6FF01FFE 		j	.L53
 775              		.cfi_endproc
 776              	.LFE49:
 778              		.text
 779              		.align	2
 780              		.globl	_ZN9Scheduler3putEP3PCB
 782              	_ZN9Scheduler3putEP3PCB:
 783              	.LFB21:
 131:src/syscall_cpp.cpp **** void Scheduler::put(PCB *pcb) {
 784              		.loc 1 131 31 is_stmt 1
 785              		.cfi_startproc
 786              	.LVL45:
 787 039c 130101FF 		addi	sp,sp,-16
 788              		.cfi_def_cfa_offset 16
 789 03a0 23341100 		sd	ra,8(sp)
 790 03a4 23308100 		sd	s0,0(sp)
 791              		.cfi_offset 1, -8
 792              		.cfi_offset 8, -16
 793 03a8 13040101 		addi	s0,sp,16
 794              		.cfi_def_cfa 8, 0
 132:src/syscall_cpp.cpp ****     queuePCB->push(pcb);
GAS LISTING /tmp/ccCV3DFY.s 			page 19


 795              		.loc 1 132 5
 132:src/syscall_cpp.cpp ****     queuePCB->push(pcb);
 796              		.loc 1 132 19 is_stmt 0
 797 03ac 03350500 		ld	a0,0(a0)
 798              	.LVL46:
 799 03b0 97000000 		call	_ZN5QueueIP3PCBE4pushES1_
 799      E7800000 
 800              	.LVL47:
 133:src/syscall_cpp.cpp **** }
 801              		.loc 1 133 1
 802 03b8 83308100 		ld	ra,8(sp)
 803              		.cfi_restore 1
 804 03bc 03340100 		ld	s0,0(sp)
 805              		.cfi_restore 8
 806              		.cfi_def_cfa 2, 16
 807 03c0 13010101 		addi	sp,sp,16
 808              		.cfi_def_cfa_offset 0
 809 03c4 67800000 		jr	ra
 810              		.cfi_endproc
 811              	.LFE21:
 813              		.align	2
 814              		.globl	_ZN3PCB5startEv
 816              	_ZN3PCB5startEv:
 817              	.LFB46:
 210:src/syscall_cpp.cpp **** {
 818              		.loc 1 210 1 is_stmt 1
 819              		.cfi_startproc
 820              	.LVL48:
 821 03c8 130101FE 		addi	sp,sp,-32
 822              		.cfi_def_cfa_offset 32
 823 03cc 233C1100 		sd	ra,24(sp)
 824 03d0 23388100 		sd	s0,16(sp)
 825 03d4 23349100 		sd	s1,8(sp)
 826              		.cfi_offset 1, -8
 827              		.cfi_offset 8, -16
 828              		.cfi_offset 9, -24
 829 03d8 13040102 		addi	s0,sp,32
 830              		.cfi_def_cfa 8, 0
 831 03dc 93040500 		mv	s1,a0
 211:src/syscall_cpp.cpp ****     Scheduler::getScheduler()->put(this);
 832              		.loc 1 211 5
 211:src/syscall_cpp.cpp ****     Scheduler::getScheduler()->put(this);
 833              		.loc 1 211 35 is_stmt 0
 834 03e0 97000000 		call	_ZN9Scheduler12getSchedulerEv
 834      E7800000 
 835              	.LVL49:
 836 03e8 93850400 		mv	a1,s1
 837 03ec 97000000 		call	_ZN9Scheduler3putEP3PCB
 837      E7800000 
 838              	.LVL50:
 212:src/syscall_cpp.cpp **** }
 839              		.loc 1 212 1
 840 03f4 83308101 		ld	ra,24(sp)
 841              		.cfi_restore 1
 842 03f8 03340101 		ld	s0,16(sp)
 843              		.cfi_restore 8
 844              		.cfi_def_cfa 2, 32
GAS LISTING /tmp/ccCV3DFY.s 			page 20


 845 03fc 83348100 		ld	s1,8(sp)
 846              		.cfi_restore 9
 847              	.LVL51:
 848 0400 13010102 		addi	sp,sp,32
 849              		.cfi_def_cfa_offset 0
 850 0404 67800000 		jr	ra
 851              		.cfi_endproc
 852              	.LFE46:
 854              		.align	2
 855              		.globl	_ZN6Thread5startEv
 857              	_ZN6Thread5startEv:
 858              	.LFB34:
 174:src/syscall_cpp.cpp **** void Thread::start() {
 859              		.loc 1 174 22 is_stmt 1
 860              		.cfi_startproc
 861              	.LVL52:
 862 0408 130101FF 		addi	sp,sp,-16
 863              		.cfi_def_cfa_offset 16
 864 040c 23341100 		sd	ra,8(sp)
 865 0410 23308100 		sd	s0,0(sp)
 866              		.cfi_offset 1, -8
 867              		.cfi_offset 8, -16
 868 0414 13040101 		addi	s0,sp,16
 869              		.cfi_def_cfa 8, 0
 175:src/syscall_cpp.cpp ****     threadPCB->start();
 870              		.loc 1 175 5
 175:src/syscall_cpp.cpp ****     threadPCB->start();
 871              		.loc 1 175 21 is_stmt 0
 872 0418 03350502 		ld	a0,32(a0)
 873              	.LVL53:
 874 041c 97000000 		call	_ZN3PCB5startEv
 874      E7800000 
 875              	.LVL54:
 176:src/syscall_cpp.cpp **** }
 876              		.loc 1 176 1
 877 0424 83308100 		ld	ra,8(sp)
 878              		.cfi_restore 1
 879 0428 03340100 		ld	s0,0(sp)
 880              		.cfi_restore 8
 881              		.cfi_def_cfa 2, 16
 882 042c 13010101 		addi	sp,sp,16
 883              		.cfi_def_cfa_offset 0
 884 0430 67800000 		jr	ra
 885              		.cfi_endproc
 886              	.LFE34:
 888              		.section	.text._ZN5QueueIP3PCBE5frontEv,"axG",@progbits,_ZN5QueueIP3PCBE5frontEv,comdat
 889              		.align	2
 890              		.weak	_ZN5QueueIP3PCBE5frontEv
 892              	_ZN5QueueIP3PCBE5frontEv:
 893              	.LFB50:
  83:src/syscall_cpp.cpp **** T Queue<T>::front() {
 894              		.loc 1 83 3 is_stmt 1
 895              		.cfi_startproc
 896              	.LVL55:
 897 0000 130101FF 		addi	sp,sp,-16
 898              		.cfi_def_cfa_offset 16
 899 0004 23348100 		sd	s0,8(sp)
GAS LISTING /tmp/ccCV3DFY.s 			page 21


 900              		.cfi_offset 8, -8
 901 0008 13040101 		addi	s0,sp,16
 902              		.cfi_def_cfa 8, 0
  84:src/syscall_cpp.cpp ****    if(first == 0)
 903              		.loc 1 84 7 is_stmt 0
 904 000c 03350500 		ld	a0,0(a0)
 905              	.LVL56:
  84:src/syscall_cpp.cpp ****    if(first == 0)
 906              		.loc 1 84 4
 907 0010 63040500 		beqz	a0,.L63
  86:src/syscall_cpp.cpp ****    return first->data;
 908              		.loc 1 86 18
 909 0014 03350500 		ld	a0,0(a0)
 910              	.L63:
  87:src/syscall_cpp.cpp **** }
 911              		.loc 1 87 1
 912 0018 03348100 		ld	s0,8(sp)
 913              		.cfi_restore 8
 914              		.cfi_def_cfa 2, 16
 915 001c 13010101 		addi	sp,sp,16
 916              		.cfi_def_cfa_offset 0
 917 0020 67800000 		jr	ra
 918              		.cfi_endproc
 919              	.LFE50:
 921              		.section	.text._ZN5QueueIP3PCBE3popEv,"axG",@progbits,_ZN5QueueIP3PCBE3popEv,comdat
 922              		.align	2
 923              		.weak	_ZN5QueueIP3PCBE3popEv
 925              	_ZN5QueueIP3PCBE3popEv:
 926              	.LFB51:
  64:src/syscall_cpp.cpp **** void Queue<T>::pop() {
 927              		.loc 1 64 6 is_stmt 1
 928              		.cfi_startproc
 929              	.LVL57:
 930 0000 130101FE 		addi	sp,sp,-32
 931              		.cfi_def_cfa_offset 32
 932 0004 233C1100 		sd	ra,24(sp)
 933 0008 23388100 		sd	s0,16(sp)
 934 000c 23349100 		sd	s1,8(sp)
 935 0010 23302101 		sd	s2,0(sp)
 936              		.cfi_offset 1, -8
 937              		.cfi_offset 8, -16
 938              		.cfi_offset 9, -24
 939              		.cfi_offset 18, -32
 940 0014 13040102 		addi	s0,sp,32
 941              		.cfi_def_cfa 8, 0
 942 0018 93040500 		mv	s1,a0
  65:src/syscall_cpp.cpp ****     Elem* newFirst = first->next;
 943              		.loc 1 65 22 is_stmt 0
 944 001c 83370500 		ld	a5,0(a0)
  65:src/syscall_cpp.cpp ****     Elem* newFirst = first->next;
 945              		.loc 1 65 11
 946 0020 03B98700 		ld	s2,8(a5)
 947              	.LVL58:
  66:src/syscall_cpp.cpp ****     MemoryAllocator::getMemoryAllocator()->mem_free(first);
 948              		.loc 1 66 5
 949 0024 97000000 		call	_ZN15MemoryAllocator18getMemoryAllocatorEv
 949      E7800000 
GAS LISTING /tmp/ccCV3DFY.s 			page 22


 950              	.LVL59:
 951 002c 83B50400 		ld	a1,0(s1)
 952 0030 97000000 		call	_ZN15MemoryAllocator8mem_freeEPv
 952      E7800000 
 953              	.LVL60:
  67:src/syscall_cpp.cpp ****     first = newFirst;
 954              		.loc 1 67 5
 955 0038 23B02401 		sd	s2,0(s1)
  68:src/syscall_cpp.cpp ****     if(first == 0)
 956              		.loc 1 68 5
 957 003c 630E0900 		beqz	s2,.L69
 958              	.L66:
  70:src/syscall_cpp.cpp **** }
 959              		.loc 1 70 1
 960 0040 83308101 		ld	ra,24(sp)
 961              		.cfi_remember_state
 962              		.cfi_restore 1
 963 0044 03340101 		ld	s0,16(sp)
 964              		.cfi_restore 8
 965              		.cfi_def_cfa 2, 32
 966 0048 83348100 		ld	s1,8(sp)
 967              		.cfi_restore 9
 968              	.LVL61:
 969 004c 03390100 		ld	s2,0(sp)
 970              		.cfi_restore 18
 971              	.LVL62:
 972 0050 13010102 		addi	sp,sp,32
 973              		.cfi_def_cfa_offset 0
 974 0054 67800000 		jr	ra
 975              	.LVL63:
 976              	.L69:
 977              		.cfi_restore_state
  69:src/syscall_cpp.cpp ****         first = last = 0;
 978              		.loc 1 69 9
 979 0058 23B40400 		sd	zero,8(s1)
 980 005c 23B00400 		sd	zero,0(s1)
  70:src/syscall_cpp.cpp **** }
 981              		.loc 1 70 1
 982 0060 6FF01FFE 		j	.L66
 983              		.cfi_endproc
 984              	.LFE51:
 986              		.text
 987              		.align	2
 988              		.globl	_ZN9Scheduler3getEv
 990              	_ZN9Scheduler3getEv:
 991              	.LFB22:
 135:src/syscall_cpp.cpp **** PCB *Scheduler::get() {
 992              		.loc 1 135 23 is_stmt 1
 993              		.cfi_startproc
 994              	.LVL64:
 995 0434 130101FE 		addi	sp,sp,-32
 996              		.cfi_def_cfa_offset 32
 997 0438 233C1100 		sd	ra,24(sp)
 998 043c 23388100 		sd	s0,16(sp)
 999 0440 23349100 		sd	s1,8(sp)
 1000 0444 23302101 		sd	s2,0(sp)
 1001              		.cfi_offset 1, -8
GAS LISTING /tmp/ccCV3DFY.s 			page 23


 1002              		.cfi_offset 8, -16
 1003              		.cfi_offset 9, -24
 1004              		.cfi_offset 18, -32
 1005 0448 13040102 		addi	s0,sp,32
 1006              		.cfi_def_cfa 8, 0
 136:src/syscall_cpp.cpp ****     PCB* t =  queuePCB->front();
 1007              		.loc 1 136 5
 136:src/syscall_cpp.cpp ****     PCB* t =  queuePCB->front();
 1008              		.loc 1 136 15 is_stmt 0
 1009 044c 03390500 		ld	s2,0(a0)
 136:src/syscall_cpp.cpp ****     PCB* t =  queuePCB->front();
 1010              		.loc 1 136 30
 1011 0450 13050900 		mv	a0,s2
 1012              	.LVL65:
 1013 0454 97000000 		call	_ZN5QueueIP3PCBE5frontEv
 1013      E7800000 
 1014              	.LVL66:
 1015 045c 93040500 		mv	s1,a0
 1016              	.LVL67:
 137:src/syscall_cpp.cpp ****     queuePCB->pop();
 1017              		.loc 1 137 5 is_stmt 1
 137:src/syscall_cpp.cpp ****     queuePCB->pop();
 1018              		.loc 1 137 18 is_stmt 0
 1019 0460 13050900 		mv	a0,s2
 1020 0464 97000000 		call	_ZN5QueueIP3PCBE3popEv
 1020      E7800000 
 1021              	.LVL68:
 138:src/syscall_cpp.cpp ****     return t;
 1022              		.loc 1 138 5 is_stmt 1
 139:src/syscall_cpp.cpp **** }
 1023              		.loc 1 139 1 is_stmt 0
 1024 046c 13850400 		mv	a0,s1
 1025 0470 83308101 		ld	ra,24(sp)
 1026              		.cfi_restore 1
 1027 0474 03340101 		ld	s0,16(sp)
 1028              		.cfi_restore 8
 1029              		.cfi_def_cfa 2, 32
 1030 0478 83348100 		ld	s1,8(sp)
 1031              		.cfi_restore 9
 1032              	.LVL69:
 1033 047c 03390100 		ld	s2,0(sp)
 1034              		.cfi_restore 18
 1035 0480 13010102 		addi	sp,sp,32
 1036              		.cfi_def_cfa_offset 0
 1037 0484 67800000 		jr	ra
 1038              		.cfi_endproc
 1039              	.LFE22:
 1041              		.section	.text._ZN5QueueIP3PCBEdlEPv,"axG",@progbits,_ZN5QueueIP3PCBEdlEPv,comdat
 1042              		.align	2
 1043              		.weak	_ZN5QueueIP3PCBEdlEPv
 1045              	_ZN5QueueIP3PCBEdlEPv:
 1046              	.LFB52:
 112:src/syscall_cpp.cpp **** void Queue<T>::operator delete(void *p) {
 1047              		.loc 1 112 6 is_stmt 1
 1048              		.cfi_startproc
 1049              	.LVL70:
 1050 0000 130101FF 		addi	sp,sp,-16
GAS LISTING /tmp/ccCV3DFY.s 			page 24


 1051              		.cfi_def_cfa_offset 16
 1052 0004 23341100 		sd	ra,8(sp)
 1053 0008 23308100 		sd	s0,0(sp)
 1054              		.cfi_offset 1, -8
 1055              		.cfi_offset 8, -16
 1056 000c 13040101 		addi	s0,sp,16
 1057              		.cfi_def_cfa 8, 0
 113:src/syscall_cpp.cpp ****     ::operator delete(p);
 1058              		.loc 1 113 22 is_stmt 0
 1059 0010 97000000 		call	_ZdlPv
 1059      E7800000 
 1060              	.LVL71:
 114:src/syscall_cpp.cpp **** }
 1061              		.loc 1 114 1
 1062 0018 83308100 		ld	ra,8(sp)
 1063              		.cfi_restore 1
 1064 001c 03340100 		ld	s0,0(sp)
 1065              		.cfi_restore 8
 1066              		.cfi_def_cfa 2, 16
 1067 0020 13010101 		addi	sp,sp,16
 1068              		.cfi_def_cfa_offset 0
 1069 0024 67800000 		jr	ra
 1070              		.cfi_endproc
 1071              	.LFE52:
 1073              		.section	.text._ZN5QueueIP3PCBED2Ev,"axG",@progbits,_ZN5QueueIP3PCBED5Ev,comdat
 1074              		.align	2
 1075              		.weak	_ZN5QueueIP3PCBED2Ev
 1077              	_ZN5QueueIP3PCBED2Ev:
 1078              	.LFB54:
  95:src/syscall_cpp.cpp **** Queue<T>::~Queue() {
 1079              		.loc 1 95 1 is_stmt 1
 1080              		.cfi_startproc
 1081              		.cfi_personality 0x9b,DW.ref.__gxx_personality_v0
 1082              		.cfi_lsda 0x1b,.LLSDA54
 1083              	.LVL72:
 1084 0000 130101FE 		addi	sp,sp,-32
 1085              		.cfi_def_cfa_offset 32
 1086 0004 233C1100 		sd	ra,24(sp)
 1087 0008 23388100 		sd	s0,16(sp)
 1088 000c 23349100 		sd	s1,8(sp)
 1089 0010 23302101 		sd	s2,0(sp)
 1090              		.cfi_offset 1, -8
 1091              		.cfi_offset 8, -16
 1092              		.cfi_offset 9, -24
 1093              		.cfi_offset 18, -32
 1094 0014 13040102 		addi	s0,sp,32
 1095              		.cfi_def_cfa 8, 0
 1096              	.LBB5:
  96:src/syscall_cpp.cpp ****     Elem* curr = first;
 1097              		.loc 1 96 11 is_stmt 0
 1098 0018 83340500 		ld	s1,0(a0)
 1099              	.LVL73:
 1100              	.L76:
  97:src/syscall_cpp.cpp ****     while(curr != 0)
 1101              		.loc 1 97 16 is_stmt 1
 1102 001c 63820402 		beqz	s1,.L74
 1103              	.LVL74:
GAS LISTING /tmp/ccCV3DFY.s 			page 25


 1104              	.LBB6:
 100:src/syscall_cpp.cpp ****         curr = curr->next;
 1105              		.loc 1 100 9 is_stmt 0
 1106 0020 03B98400 		ld	s2,8(s1)
 1107              	.LVL75:
 101:src/syscall_cpp.cpp ****         MemoryAllocator::getMemoryAllocator()->mem_free(old);
 1108              		.loc 1 101 9
 1109 0024 97000000 		call	_ZN15MemoryAllocator18getMemoryAllocatorEv
 1109      E7800000 
 1110              	.LVL76:
 1111 002c 93850400 		mv	a1,s1
 1112 0030 97000000 		call	_ZN15MemoryAllocator8mem_freeEPv
 1112      E7800000 
 1113              	.LVL77:
 100:src/syscall_cpp.cpp ****         curr = curr->next;
 1114              		.loc 1 100 9
 1115 0038 93040900 		mv	s1,s2
 1116              	.LVL78:
 1117              	.LBE6:
  97:src/syscall_cpp.cpp ****     while(curr != 0)
 1118              		.loc 1 97 5
 1119 003c 6FF01FFE 		j	.L76
 1120              	.LVL79:
 1121              	.L74:
 1122              	.LBE5:
 103:src/syscall_cpp.cpp **** }
 1123              		.loc 1 103 1
 1124 0040 83308101 		ld	ra,24(sp)
 1125              		.cfi_restore 1
 1126 0044 03340101 		ld	s0,16(sp)
 1127              		.cfi_restore 8
 1128              		.cfi_def_cfa 2, 32
 1129 0048 83348100 		ld	s1,8(sp)
 1130              		.cfi_restore 9
 1131              	.LVL80:
 1132 004c 03390100 		ld	s2,0(sp)
 1133              		.cfi_restore 18
 1134 0050 13010102 		addi	sp,sp,32
 1135              		.cfi_def_cfa_offset 0
 1136 0054 67800000 		jr	ra
 1137              		.cfi_endproc
 1138              	.LFE54:
 1139              		.globl	__gxx_personality_v0
 1140              		.section	.gcc_except_table._ZN5QueueIP3PCBED2Ev,"aG",@progbits,_ZN5QueueIP3PCBED5Ev,comdat
 1141              	.LLSDA54:
 1142 0000 FF       		.byte	0xff
 1143 0001 FF       		.byte	0xff
 1144 0002 03       		.byte	0x3
 1145 0003 00       		.byte	0
 1146              		.section	.text._ZN5QueueIP3PCBED2Ev,"axG",@progbits,_ZN5QueueIP3PCBED5Ev,comdat
 1148              		.weak	_ZN5QueueIP3PCBED1Ev
 1149              		.set	_ZN5QueueIP3PCBED1Ev,_ZN5QueueIP3PCBED2Ev
 1150              		.text
 1151              		.align	2
 1152              		.globl	_ZN9SchedulerD2Ev
 1154              	_ZN9SchedulerD2Ev:
 1155              	.LFB24:
GAS LISTING /tmp/ccCV3DFY.s 			page 26


 141:src/syscall_cpp.cpp **** Scheduler::~Scheduler() {
 1156              		.loc 1 141 1 is_stmt 1
 1157              		.cfi_startproc
 1158              		.cfi_personality 0x9b,DW.ref.__gxx_personality_v0
 1159              		.cfi_lsda 0x1b,.LLSDA24
 1160              	.LVL81:
 1161 0488 130101FE 		addi	sp,sp,-32
 1162              		.cfi_def_cfa_offset 32
 1163 048c 233C1100 		sd	ra,24(sp)
 1164 0490 23388100 		sd	s0,16(sp)
 1165 0494 23349100 		sd	s1,8(sp)
 1166              		.cfi_offset 1, -8
 1167              		.cfi_offset 8, -16
 1168              		.cfi_offset 9, -24
 1169 0498 13040102 		addi	s0,sp,32
 1170              		.cfi_def_cfa 8, 0
 1171              	.LBB7:
 144:src/syscall_cpp.cpp ****     delete queuePCB;
 1172              		.loc 1 144 5
 144:src/syscall_cpp.cpp ****     delete queuePCB;
 1173              		.loc 1 144 12 is_stmt 0
 1174 049c 83340500 		ld	s1,0(a0)
 144:src/syscall_cpp.cpp ****     delete queuePCB;
 1175              		.loc 1 144 20
 1176 04a0 638E0400 		beqz	s1,.L78
 144:src/syscall_cpp.cpp ****     delete queuePCB;
 1177              		.loc 1 144 12 discriminator 1
 1178 04a4 13850400 		mv	a0,s1
 1179              	.LVL82:
 1180 04a8 97000000 		call	_ZN5QueueIP3PCBED1Ev
 1180      E7800000 
 1181              	.LVL83:
 1182 04b0 13850400 		mv	a0,s1
 1183 04b4 97000000 		call	_ZN5QueueIP3PCBEdlEPv
 1183      E7800000 
 1184              	.LVL84:
 1185              	.L78:
 1186              	.LBE7:
 146:src/syscall_cpp.cpp **** }
 1187              		.loc 1 146 1
 1188 04bc 83308101 		ld	ra,24(sp)
 1189              		.cfi_restore 1
 1190 04c0 03340101 		ld	s0,16(sp)
 1191              		.cfi_restore 8
 1192              		.cfi_def_cfa 2, 32
 1193 04c4 83348100 		ld	s1,8(sp)
 1194              		.cfi_restore 9
 1195 04c8 13010102 		addi	sp,sp,32
 1196              		.cfi_def_cfa_offset 0
 1197 04cc 67800000 		jr	ra
 1198              		.cfi_endproc
 1199              	.LFE24:
 1200              		.section	.gcc_except_table,"a",@progbits
 1201              	.LLSDA24:
 1202 0000 FF       		.byte	0xff
 1203 0001 FF       		.byte	0xff
 1204 0002 03       		.byte	0x3
GAS LISTING /tmp/ccCV3DFY.s 			page 27


 1205 0003 00       		.byte	0
 1206              		.text
 1208              		.globl	_ZN9SchedulerD1Ev
 1209              		.set	_ZN9SchedulerD1Ev,_ZN9SchedulerD2Ev
 1210              		.globl	_ZN6System10runningPCBE
 1211              		.globl	_ZN9Scheduler9schedulerE
 1212              		.globl	_ZN15MemoryAllocator15memoryAllocatorE
 1213              		.bss
 1214              		.align	3
 1215              		.set	.LANCHOR0,. + 0
 1218              	_ZN15MemoryAllocator15memoryAllocatorE:
 1219 0000 00000000 		.zero	8
 1219      00000000 
 1222              	_ZN9Scheduler9schedulerE:
 1223 0008 00000000 		.zero	8
 1223      00000000 
 1226              	_ZN6System10runningPCBE:
 1227 0010 00000000 		.zero	8
 1227      00000000 
 1228              		.text
 1229              	.Letext0:
 1230              		.file 2 "src/../h/../lib/hw.h"
 1231              		.file 3 "src/../h/syscall_cpp.h"
 1232              		.file 4 "src/../h/syscall_c.h"
 5066              		.align	3
 5069              	DW.ref.__gxx_personality_v0:
 5070 0000 00000000 		.dword	__gxx_personality_v0
 5070      00000000 
 5071              		.ident	"GCC: (Ubuntu 9.3.0-17ubuntu1~20.04) 9.3.0"
 5072              		.section	.note.GNU-stack,"",@progbits
GAS LISTING /tmp/ccCV3DFY.s 			page 28

