GAS LISTING /tmp/cciHs8LR.s 			page 1


   1              		.file	"syscall_cpp.cpp"
   2              		.option pic
   3              		.option norelax
   4              		.text
   5              	.Ltext0:
   6              		.section	.text._ZN6Thread3runEv,"axG",@progbits,_ZN6Thread3runEv,comdat
   7              		.align	2
   8              		.weak	_ZN6Thread3runEv
  10              	_ZN6Thread3runEv:
  11              	.LFB24:
  12              		.file 1 "src/../h/syscall_cpp.hpp"
   1:src/../h/syscall_cpp.hpp **** //
   2:src/../h/syscall_cpp.hpp **** // Created by os on 4/8/22.
   3:src/../h/syscall_cpp.hpp **** //
   4:src/../h/syscall_cpp.hpp **** 
   5:src/../h/syscall_cpp.hpp **** #ifndef PROJECT_BASE_V1_0_SYSCALL_CPP_HPP
   6:src/../h/syscall_cpp.hpp **** #define PROJECT_BASE_V1_0_SYSCALL_CPP_HPP
   7:src/../h/syscall_cpp.hpp **** 
   8:src/../h/syscall_cpp.hpp **** #include "syscall_c.h"
   9:src/../h/syscall_cpp.hpp **** #include "PCB.hpp"
  10:src/../h/syscall_cpp.hpp **** #include "KSemaphore.hpp"
  11:src/../h/syscall_cpp.hpp **** 
  12:src/../h/syscall_cpp.hpp **** void * operator new(size_t size);
  13:src/../h/syscall_cpp.hpp **** 
  14:src/../h/syscall_cpp.hpp **** void operator delete(void * p);
  15:src/../h/syscall_cpp.hpp **** 
  16:src/../h/syscall_cpp.hpp **** class Thread
  17:src/../h/syscall_cpp.hpp **** {
  18:src/../h/syscall_cpp.hpp **** public:
  19:src/../h/syscall_cpp.hpp ****     Thread(void (*body)(void*), void* args);
  20:src/../h/syscall_cpp.hpp **** 
  21:src/../h/syscall_cpp.hpp ****     virtual ~Thread();
  22:src/../h/syscall_cpp.hpp **** 
  23:src/../h/syscall_cpp.hpp ****     int start();
  24:src/../h/syscall_cpp.hpp **** 
  25:src/../h/syscall_cpp.hpp ****     static void dispatch();
  26:src/../h/syscall_cpp.hpp **** 
  27:src/../h/syscall_cpp.hpp ****     static void sleep(time_t);
  28:src/../h/syscall_cpp.hpp **** 
  29:src/../h/syscall_cpp.hpp **** protected:
  30:src/../h/syscall_cpp.hpp ****     Thread();
  31:src/../h/syscall_cpp.hpp **** 
  32:src/../h/syscall_cpp.hpp ****     virtual void run() {}
  13              		.loc 1 32 18
  14              		.cfi_startproc
  15              	.LVL0:
  16 0000 130101FF 		addi	sp,sp,-16
  17              		.cfi_def_cfa_offset 16
  18 0004 23348100 		sd	s0,8(sp)
  19              		.cfi_offset 8, -8
  20 0008 13040101 		addi	s0,sp,16
  21              		.cfi_def_cfa 8, 0
  22              		.loc 1 32 25 is_stmt 0
  23 000c 03348100 		ld	s0,8(sp)
  24              		.cfi_restore 8
  25              		.cfi_def_cfa 2, 16
  26 0010 13010101 		addi	sp,sp,16
GAS LISTING /tmp/cciHs8LR.s 			page 2


  27              		.cfi_def_cfa_offset 0
  28 0014 67800000 		jr	ra
  29              		.cfi_endproc
  30              	.LFE24:
  32              		.section	.text._ZN14PeriodicThread18periodicActivationEv,"axG",@progbits,_ZN14PeriodicThread18peri
  33              		.align	2
  34              		.weak	_ZN14PeriodicThread18periodicActivationEv
  36              	_ZN14PeriodicThread18periodicActivationEv:
  37              	.LFB25:
  33:src/../h/syscall_cpp.hpp **** private:
  34:src/../h/syscall_cpp.hpp ****     thread_t myHandle;
  35:src/../h/syscall_cpp.hpp ****     static void runner(void* t);
  36:src/../h/syscall_cpp.hpp **** };
  37:src/../h/syscall_cpp.hpp **** 
  38:src/../h/syscall_cpp.hpp **** class Semaphore
  39:src/../h/syscall_cpp.hpp **** {
  40:src/../h/syscall_cpp.hpp **** public:
  41:src/../h/syscall_cpp.hpp ****     Semaphore(unsigned init = 1);
  42:src/../h/syscall_cpp.hpp **** 
  43:src/../h/syscall_cpp.hpp ****     virtual ~Semaphore();
  44:src/../h/syscall_cpp.hpp **** 
  45:src/../h/syscall_cpp.hpp ****     int wait();
  46:src/../h/syscall_cpp.hpp ****     int signal();
  47:src/../h/syscall_cpp.hpp **** 
  48:src/../h/syscall_cpp.hpp **** private:
  49:src/../h/syscall_cpp.hpp ****     sem_t myHandle;
  50:src/../h/syscall_cpp.hpp **** };
  51:src/../h/syscall_cpp.hpp **** 
  52:src/../h/syscall_cpp.hpp **** class Console
  53:src/../h/syscall_cpp.hpp **** {
  54:src/../h/syscall_cpp.hpp **** public:
  55:src/../h/syscall_cpp.hpp ****     static char getc();
  56:src/../h/syscall_cpp.hpp ****     static void putc(char);
  57:src/../h/syscall_cpp.hpp **** };
  58:src/../h/syscall_cpp.hpp **** 
  59:src/../h/syscall_cpp.hpp **** class PeriodicThread : public Thread
  60:src/../h/syscall_cpp.hpp **** {
  61:src/../h/syscall_cpp.hpp **** protected:
  62:src/../h/syscall_cpp.hpp ****     PeriodicThread(time_t period);
  63:src/../h/syscall_cpp.hpp ****     virtual void periodicActivation() {};
  38              		.loc 1 63 18 is_stmt 1
  39              		.cfi_startproc
  40              	.LVL1:
  41 0000 130101FF 		addi	sp,sp,-16
  42              		.cfi_def_cfa_offset 16
  43 0004 23348100 		sd	s0,8(sp)
  44              		.cfi_offset 8, -8
  45 0008 13040101 		addi	s0,sp,16
  46              		.cfi_def_cfa 8, 0
  47              		.loc 1 63 40 is_stmt 0
  48 000c 03348100 		ld	s0,8(sp)
  49              		.cfi_restore 8
  50              		.cfi_def_cfa 2, 16
  51 0010 13010101 		addi	sp,sp,16
  52              		.cfi_def_cfa_offset 0
  53 0014 67800000 		jr	ra
  54              		.cfi_endproc
GAS LISTING /tmp/cciHs8LR.s 			page 3


  55              	.LFE25:
  57              		.text
  58              		.align	2
  59              		.globl	_ZN6ThreadD2Ev
  61              	_ZN6ThreadD2Ev:
  62              	.LFB42:
  63              		.file 2 "src/syscall_cpp.cpp"
   1:src/syscall_cpp.cpp **** //
   2:src/syscall_cpp.cpp **** // Created by os on 4/8/22.
   3:src/syscall_cpp.cpp **** //
   4:src/syscall_cpp.cpp **** 
   5:src/syscall_cpp.cpp **** #include "../h/syscall_cpp.hpp"
   6:src/syscall_cpp.cpp **** 
   7:src/syscall_cpp.cpp **** struct ArgsPeriodic
   8:src/syscall_cpp.cpp **** {
   9:src/syscall_cpp.cpp ****     void* pt;
  10:src/syscall_cpp.cpp ****     uint64 time;
  11:src/syscall_cpp.cpp ****     ArgsPeriodic(void *p, uint64 t) : pt(p), time(t){}
  12:src/syscall_cpp.cpp **** };
  13:src/syscall_cpp.cpp **** 
  14:src/syscall_cpp.cpp **** //general
  15:src/syscall_cpp.cpp **** void * operator new(size_t size)
  16:src/syscall_cpp.cpp **** {
  17:src/syscall_cpp.cpp ****     return mem_alloc(size);
  18:src/syscall_cpp.cpp **** }
  19:src/syscall_cpp.cpp **** 
  20:src/syscall_cpp.cpp **** void operator delete(void * p)
  21:src/syscall_cpp.cpp **** {
  22:src/syscall_cpp.cpp ****     mem_free(p);
  23:src/syscall_cpp.cpp **** }
  24:src/syscall_cpp.cpp **** 
  25:src/syscall_cpp.cpp **** //Thread
  26:src/syscall_cpp.cpp **** 
  27:src/syscall_cpp.cpp **** int Thread::start()
  28:src/syscall_cpp.cpp **** {
  29:src/syscall_cpp.cpp ****     if(myHandle != 0)
  30:src/syscall_cpp.cpp ****     {
  31:src/syscall_cpp.cpp ****         return thread_start(myHandle);
  32:src/syscall_cpp.cpp ****     }
  33:src/syscall_cpp.cpp ****     else
  34:src/syscall_cpp.cpp ****     {
  35:src/syscall_cpp.cpp ****         //todo
  36:src/syscall_cpp.cpp ****         return -1;
  37:src/syscall_cpp.cpp ****     }
  38:src/syscall_cpp.cpp **** 
  39:src/syscall_cpp.cpp **** }
  40:src/syscall_cpp.cpp **** 
  41:src/syscall_cpp.cpp **** void Thread::dispatch() {
  42:src/syscall_cpp.cpp ****     thread_dispatch();
  43:src/syscall_cpp.cpp **** }
  44:src/syscall_cpp.cpp **** 
  45:src/syscall_cpp.cpp **** void Thread::sleep(time_t time)
  46:src/syscall_cpp.cpp **** {
  47:src/syscall_cpp.cpp ****     time_sleep(time);
  48:src/syscall_cpp.cpp **** }
  49:src/syscall_cpp.cpp **** 
  50:src/syscall_cpp.cpp **** Thread::Thread(void (*body)(void *), void *args)
GAS LISTING /tmp/cciHs8LR.s 			page 4


  51:src/syscall_cpp.cpp **** {
  52:src/syscall_cpp.cpp ****     thread_make_pcb(&myHandle, body, args);
  53:src/syscall_cpp.cpp **** }
  54:src/syscall_cpp.cpp **** 
  55:src/syscall_cpp.cpp **** Thread::Thread()
  56:src/syscall_cpp.cpp **** {
  57:src/syscall_cpp.cpp ****     thread_make_pcb(&myHandle, &Thread::runner, (void*)this);
  58:src/syscall_cpp.cpp **** }
  59:src/syscall_cpp.cpp **** 
  60:src/syscall_cpp.cpp **** void Thread::runner(void *t)
  61:src/syscall_cpp.cpp **** {
  62:src/syscall_cpp.cpp ****     Riscv::printString("Thread runner started...\n");
  63:src/syscall_cpp.cpp ****     Thread* thr = (Thread*)t;
  64:src/syscall_cpp.cpp ****     thr->run();
  65:src/syscall_cpp.cpp **** }
  66:src/syscall_cpp.cpp **** 
  67:src/syscall_cpp.cpp **** Thread::~Thread()
  64              		.loc 2 67 1 is_stmt 1
  65              		.cfi_startproc
  66              		.cfi_personality 0x9b,DW.ref.__gxx_personality_v0
  67              		.cfi_lsda 0x1b,.LLSDA42
  68              	.LVL2:
  69 0000 130101FF 		addi	sp,sp,-16
  70              		.cfi_def_cfa_offset 16
  71 0004 23341100 		sd	ra,8(sp)
  72 0008 23308100 		sd	s0,0(sp)
  73              		.cfi_offset 1, -8
  74              		.cfi_offset 8, -16
  75 000c 13040101 		addi	s0,sp,16
  76              		.cfi_def_cfa 8, 0
  77              	.LBB9:
  78              		.loc 2 67 17 is_stmt 0
  79 0010 97070000 		lla	a5,_ZTV6Thread+16
  79      93870700 
  80 0018 2330F500 		sd	a5,0(a0)
  68:src/syscall_cpp.cpp **** {
  69:src/syscall_cpp.cpp ****     mem_free(myHandle);
  81              		.loc 2 69 5 is_stmt 1
  82              		.loc 2 69 13 is_stmt 0
  83 001c 03358500 		ld	a0,8(a0)
  84              	.LVL3:
  85 0020 97000000 		call	mem_free@plt
  85      E7800000 
  86              	.LVL4:
  87              	.LBE9:
  70:src/syscall_cpp.cpp **** }
  88              		.loc 2 70 1
  89 0028 83308100 		ld	ra,8(sp)
  90              		.cfi_restore 1
  91 002c 03340100 		ld	s0,0(sp)
  92              		.cfi_restore 8
  93              		.cfi_def_cfa 2, 16
  94 0030 13010101 		addi	sp,sp,16
  95              		.cfi_def_cfa_offset 0
  96 0034 67800000 		jr	ra
  97              		.cfi_endproc
  98              	.LFE42:
GAS LISTING /tmp/cciHs8LR.s 			page 5


  99              		.globl	__gxx_personality_v0
 100              		.section	.gcc_except_table,"a",@progbits
 101              	.LLSDA42:
 102 0000 FF       		.byte	0xff
 103 0001 FF       		.byte	0xff
 104 0002 03       		.byte	0x3
 105 0003 00       		.byte	0
 106              		.text
 108              		.globl	_ZN6ThreadD1Ev
 109              		.set	_ZN6ThreadD1Ev,_ZN6ThreadD2Ev
 110              		.section	.text._ZN14PeriodicThreadD2Ev,"axG",@progbits,_ZN14PeriodicThreadD5Ev,comdat
 111              		.align	2
 112              		.weak	_ZN14PeriodicThreadD2Ev
 114              	_ZN14PeriodicThreadD2Ev:
 115              	.LFB61:
  59:src/../h/syscall_cpp.hpp **** {
 116              		.loc 1 59 7 is_stmt 1
 117              		.cfi_startproc
 118              	.LVL5:
 119 0000 130101FF 		addi	sp,sp,-16
 120              		.cfi_def_cfa_offset 16
 121 0004 23341100 		sd	ra,8(sp)
 122 0008 23308100 		sd	s0,0(sp)
 123              		.cfi_offset 1, -8
 124              		.cfi_offset 8, -16
 125 000c 13040101 		addi	s0,sp,16
 126              		.cfi_def_cfa 8, 0
 127              	.LBB10:
  59:src/../h/syscall_cpp.hpp **** {
 128              		.loc 1 59 7 is_stmt 0
 129 0010 97070000 		lla	a5,_ZTV14PeriodicThread+16
 129      93870700 
 130 0018 2330F500 		sd	a5,0(a0)
 131 001c 97000000 		call	_ZN6ThreadD2Ev
 131      E7800000 
 132              	.LVL6:
 133              	.LBE10:
 134 0024 83308100 		ld	ra,8(sp)
 135              		.cfi_restore 1
 136 0028 03340100 		ld	s0,0(sp)
 137              		.cfi_restore 8
 138              		.cfi_def_cfa 2, 16
 139 002c 13010101 		addi	sp,sp,16
 140              		.cfi_def_cfa_offset 0
 141 0030 67800000 		jr	ra
 142              		.cfi_endproc
 143              	.LFE61:
 145              		.weak	_ZN14PeriodicThreadD1Ev
 146              		.set	_ZN14PeriodicThreadD1Ev,_ZN14PeriodicThreadD2Ev
 147              		.text
 148              		.align	2
 149              		.globl	_ZN9SemaphoreD2Ev
 151              	_ZN9SemaphoreD2Ev:
 152              	.LFB51:
  71:src/syscall_cpp.cpp **** 
  72:src/syscall_cpp.cpp **** //Semaphore
  73:src/syscall_cpp.cpp **** 
GAS LISTING /tmp/cciHs8LR.s 			page 6


  74:src/syscall_cpp.cpp **** int Semaphore::wait()
  75:src/syscall_cpp.cpp **** {
  76:src/syscall_cpp.cpp ****     if(myHandle == 0)
  77:src/syscall_cpp.cpp ****         return -1;
  78:src/syscall_cpp.cpp ****     return sem_wait(myHandle);
  79:src/syscall_cpp.cpp **** }
  80:src/syscall_cpp.cpp **** 
  81:src/syscall_cpp.cpp **** Semaphore::Semaphore(unsigned int init)
  82:src/syscall_cpp.cpp **** {
  83:src/syscall_cpp.cpp ****     int retval = sem_open(&myHandle, init);
  84:src/syscall_cpp.cpp ****     if(retval != 0)
  85:src/syscall_cpp.cpp ****     {
  86:src/syscall_cpp.cpp ****         //todo
  87:src/syscall_cpp.cpp ****         //what then
  88:src/syscall_cpp.cpp ****         myHandle = 0;
  89:src/syscall_cpp.cpp ****     }
  90:src/syscall_cpp.cpp **** }
  91:src/syscall_cpp.cpp **** 
  92:src/syscall_cpp.cpp **** int Semaphore::signal()
  93:src/syscall_cpp.cpp **** {
  94:src/syscall_cpp.cpp ****     if(myHandle == 0)
  95:src/syscall_cpp.cpp ****         return -1;
  96:src/syscall_cpp.cpp ****     return sem_signal(myHandle);
  97:src/syscall_cpp.cpp **** }
  98:src/syscall_cpp.cpp **** 
  99:src/syscall_cpp.cpp **** Semaphore::~Semaphore() {
 153              		.loc 2 99 1 is_stmt 1
 154              		.cfi_startproc
 155              		.cfi_personality 0x9b,DW.ref.__gxx_personality_v0
 156              		.cfi_lsda 0x1b,.LLSDA51
 157              	.LVL7:
 158 0038 130101FF 		addi	sp,sp,-16
 159              		.cfi_def_cfa_offset 16
 160 003c 23341100 		sd	ra,8(sp)
 161 0040 23308100 		sd	s0,0(sp)
 162              		.cfi_offset 1, -8
 163              		.cfi_offset 8, -16
 164 0044 13040101 		addi	s0,sp,16
 165              		.cfi_def_cfa 8, 0
 166              	.LBB11:
 167              		.loc 2 99 23 is_stmt 0
 168 0048 97070000 		lla	a5,_ZTV9Semaphore+16
 168      93870700 
 169 0050 2330F500 		sd	a5,0(a0)
 100:src/syscall_cpp.cpp ****     mem_free(myHandle);
 170              		.loc 2 100 5 is_stmt 1
 171              		.loc 2 100 13 is_stmt 0
 172 0054 03358500 		ld	a0,8(a0)
 173              	.LVL8:
 174 0058 97000000 		call	mem_free@plt
 174      E7800000 
 175              	.LVL9:
 176              	.LBE11:
 101:src/syscall_cpp.cpp **** }
 177              		.loc 2 101 1
 178 0060 83308100 		ld	ra,8(sp)
 179              		.cfi_restore 1
GAS LISTING /tmp/cciHs8LR.s 			page 7


 180 0064 03340100 		ld	s0,0(sp)
 181              		.cfi_restore 8
 182              		.cfi_def_cfa 2, 16
 183 0068 13010101 		addi	sp,sp,16
 184              		.cfi_def_cfa_offset 0
 185 006c 67800000 		jr	ra
 186              		.cfi_endproc
 187              	.LFE51:
 188              		.section	.gcc_except_table
 189              	.LLSDA51:
 190 0004 FF       		.byte	0xff
 191 0005 FF       		.byte	0xff
 192 0006 03       		.byte	0x3
 193 0007 00       		.byte	0
 194              		.text
 196              		.globl	_ZN9SemaphoreD1Ev
 197              		.set	_ZN9SemaphoreD1Ev,_ZN9SemaphoreD2Ev
 198              		.section	.rodata.str1.8,"aMS",@progbits,1
 199              		.align	3
 200              	.LC0:
 201 0000 54687265 		.string	"Thread runner started...\n"
 201      61642072 
 201      756E6E65 
 201      72207374 
 201      61727465 
 202              		.text
 203              		.align	2
 204              		.globl	_ZN6Thread6runnerEPv
 206              	_ZN6Thread6runnerEPv:
 207              	.LFB40:
  61:src/syscall_cpp.cpp ****     Riscv::printString("Thread runner started...\n");
 208              		.loc 2 61 1 is_stmt 1
 209              		.cfi_startproc
 210              	.LVL10:
 211 0070 130101FE 		addi	sp,sp,-32
 212              		.cfi_def_cfa_offset 32
 213 0074 233C1100 		sd	ra,24(sp)
 214 0078 23388100 		sd	s0,16(sp)
 215 007c 23349100 		sd	s1,8(sp)
 216              		.cfi_offset 1, -8
 217              		.cfi_offset 8, -16
 218              		.cfi_offset 9, -24
 219 0080 13040102 		addi	s0,sp,32
 220              		.cfi_def_cfa 8, 0
 221 0084 93040500 		mv	s1,a0
  62:src/syscall_cpp.cpp ****     Thread* thr = (Thread*)t;
 222              		.loc 2 62 5
  62:src/syscall_cpp.cpp ****     Thread* thr = (Thread*)t;
 223              		.loc 2 62 23 is_stmt 0
 224 0088 17050000 		lla	a0,.LC0
 224      13050500 
 225              	.LVL11:
 226 0090 97000000 		call	_ZN5Riscv11printStringEPKc@plt
 226      E7800000 
 227              	.LVL12:
  63:src/syscall_cpp.cpp ****     thr->run();
 228              		.loc 2 63 5 is_stmt 1
GAS LISTING /tmp/cciHs8LR.s 			page 8


  64:src/syscall_cpp.cpp **** }
 229              		.loc 2 64 5
  64:src/syscall_cpp.cpp **** }
 230              		.loc 2 64 14 is_stmt 0
 231 0098 83B70400 		ld	a5,0(s1)
 232 009c 83B70701 		ld	a5,16(a5)
  64:src/syscall_cpp.cpp **** }
 233              		.loc 2 64 13
 234 00a0 13850400 		mv	a0,s1
 235 00a4 E7800700 		jalr	a5
 236              	.LVL13:
  65:src/syscall_cpp.cpp **** 
 237              		.loc 2 65 1
 238 00a8 83308101 		ld	ra,24(sp)
 239              		.cfi_restore 1
 240 00ac 03340101 		ld	s0,16(sp)
 241              		.cfi_restore 8
 242              		.cfi_def_cfa 2, 32
 243 00b0 83348100 		ld	s1,8(sp)
 244              		.cfi_restore 9
 245              	.LVL14:
 246 00b4 13010102 		addi	sp,sp,32
 247              		.cfi_def_cfa_offset 0
 248 00b8 67800000 		jr	ra
 249              		.cfi_endproc
 250              	.LFE40:
 252              		.align	2
 253              		.globl	_Znwm
 255              	_Znwm:
 256              	.LFB29:
  16:src/syscall_cpp.cpp ****     return mem_alloc(size);
 257              		.loc 2 16 1 is_stmt 1
 258              		.cfi_startproc
 259              	.LVL15:
 260 00bc 130101FF 		addi	sp,sp,-16
 261              		.cfi_def_cfa_offset 16
 262 00c0 23341100 		sd	ra,8(sp)
 263 00c4 23308100 		sd	s0,0(sp)
 264              		.cfi_offset 1, -8
 265              		.cfi_offset 8, -16
 266 00c8 13040101 		addi	s0,sp,16
 267              		.cfi_def_cfa 8, 0
  17:src/syscall_cpp.cpp **** }
 268              		.loc 2 17 5
  17:src/syscall_cpp.cpp **** }
 269              		.loc 2 17 21 is_stmt 0
 270 00cc 97000000 		call	mem_alloc@plt
 270      E7800000 
 271              	.LVL16:
  18:src/syscall_cpp.cpp **** 
 272              		.loc 2 18 1
 273 00d4 83308100 		ld	ra,8(sp)
 274              		.cfi_restore 1
 275 00d8 03340100 		ld	s0,0(sp)
 276              		.cfi_restore 8
 277              		.cfi_def_cfa 2, 16
 278 00dc 13010101 		addi	sp,sp,16
GAS LISTING /tmp/cciHs8LR.s 			page 9


 279              		.cfi_def_cfa_offset 0
 280 00e0 67800000 		jr	ra
 281              		.cfi_endproc
 282              	.LFE29:
 284              		.align	2
 285              		.globl	_ZdlPv
 287              	_ZdlPv:
 288              	.LFB30:
  21:src/syscall_cpp.cpp ****     mem_free(p);
 289              		.loc 2 21 1 is_stmt 1
 290              		.cfi_startproc
 291              	.LVL17:
 292 00e4 130101FF 		addi	sp,sp,-16
 293              		.cfi_def_cfa_offset 16
 294 00e8 23341100 		sd	ra,8(sp)
 295 00ec 23308100 		sd	s0,0(sp)
 296              		.cfi_offset 1, -8
 297              		.cfi_offset 8, -16
 298 00f0 13040101 		addi	s0,sp,16
 299              		.cfi_def_cfa 8, 0
  22:src/syscall_cpp.cpp **** }
 300              		.loc 2 22 5
  22:src/syscall_cpp.cpp **** }
 301              		.loc 2 22 13 is_stmt 0
 302 00f4 97000000 		call	mem_free@plt
 302      E7800000 
 303              	.LVL18:
  23:src/syscall_cpp.cpp **** 
 304              		.loc 2 23 1
 305 00fc 83308100 		ld	ra,8(sp)
 306              		.cfi_restore 1
 307 0100 03340100 		ld	s0,0(sp)
 308              		.cfi_restore 8
 309              		.cfi_def_cfa 2, 16
 310 0104 13010101 		addi	sp,sp,16
 311              		.cfi_def_cfa_offset 0
 312 0108 67800000 		jr	ra
 313              		.cfi_endproc
 314              	.LFE30:
 316              		.align	2
 317              		.globl	_ZN6ThreadD0Ev
 319              	_ZN6ThreadD0Ev:
 320              	.LFB44:
  67:src/syscall_cpp.cpp **** {
 321              		.loc 2 67 1 is_stmt 1
 322              		.cfi_startproc
 323              	.LVL19:
 324 010c 130101FE 		addi	sp,sp,-32
 325              		.cfi_def_cfa_offset 32
 326 0110 233C1100 		sd	ra,24(sp)
 327 0114 23388100 		sd	s0,16(sp)
 328 0118 23349100 		sd	s1,8(sp)
 329              		.cfi_offset 1, -8
 330              		.cfi_offset 8, -16
 331              		.cfi_offset 9, -24
 332 011c 13040102 		addi	s0,sp,32
 333              		.cfi_def_cfa 8, 0
GAS LISTING /tmp/cciHs8LR.s 			page 10


 334 0120 93040500 		mv	s1,a0
  70:src/syscall_cpp.cpp **** 
 335              		.loc 2 70 1 is_stmt 0
 336 0124 97000000 		call	_ZN6ThreadD1Ev
 336      E7800000 
 337              	.LVL20:
 338 012c 13850400 		mv	a0,s1
 339 0130 97000000 		call	_ZdlPv
 339      E7800000 
 340              	.LVL21:
 341 0138 83308101 		ld	ra,24(sp)
 342              		.cfi_restore 1
 343 013c 03340101 		ld	s0,16(sp)
 344              		.cfi_restore 8
 345              		.cfi_def_cfa 2, 32
 346 0140 83348100 		ld	s1,8(sp)
 347              		.cfi_restore 9
 348              	.LVL22:
 349 0144 13010102 		addi	sp,sp,32
 350              		.cfi_def_cfa_offset 0
 351 0148 67800000 		jr	ra
 352              		.cfi_endproc
 353              	.LFE44:
 355              		.align	2
 356              		.globl	_ZN9SemaphoreD0Ev
 358              	_ZN9SemaphoreD0Ev:
 359              	.LFB53:
  99:src/syscall_cpp.cpp ****     mem_free(myHandle);
 360              		.loc 2 99 1 is_stmt 1
 361              		.cfi_startproc
 362              	.LVL23:
 363 014c 130101FE 		addi	sp,sp,-32
 364              		.cfi_def_cfa_offset 32
 365 0150 233C1100 		sd	ra,24(sp)
 366 0154 23388100 		sd	s0,16(sp)
 367 0158 23349100 		sd	s1,8(sp)
 368              		.cfi_offset 1, -8
 369              		.cfi_offset 8, -16
 370              		.cfi_offset 9, -24
 371 015c 13040102 		addi	s0,sp,32
 372              		.cfi_def_cfa 8, 0
 373 0160 93040500 		mv	s1,a0
 374              		.loc 2 101 1 is_stmt 0
 375 0164 97000000 		call	_ZN9SemaphoreD1Ev
 375      E7800000 
 376              	.LVL24:
 377 016c 13850400 		mv	a0,s1
 378 0170 97000000 		call	_ZdlPv
 378      E7800000 
 379              	.LVL25:
 380 0178 83308101 		ld	ra,24(sp)
 381              		.cfi_restore 1
 382 017c 03340101 		ld	s0,16(sp)
 383              		.cfi_restore 8
 384              		.cfi_def_cfa 2, 32
 385 0180 83348100 		ld	s1,8(sp)
 386              		.cfi_restore 9
GAS LISTING /tmp/cciHs8LR.s 			page 11


 387              	.LVL26:
 388 0184 13010102 		addi	sp,sp,32
 389              		.cfi_def_cfa_offset 0
 390 0188 67800000 		jr	ra
 391              		.cfi_endproc
 392              	.LFE53:
 394              		.section	.text._ZN14PeriodicThreadD0Ev,"axG",@progbits,_ZN14PeriodicThreadD5Ev,comdat
 395              		.align	2
 396              		.weak	_ZN14PeriodicThreadD0Ev
 398              	_ZN14PeriodicThreadD0Ev:
 399              	.LFB63:
  59:src/../h/syscall_cpp.hpp **** {
 400              		.loc 1 59 7 is_stmt 1
 401              		.cfi_startproc
 402              	.LVL27:
 403 0000 130101FE 		addi	sp,sp,-32
 404              		.cfi_def_cfa_offset 32
 405 0004 233C1100 		sd	ra,24(sp)
 406 0008 23388100 		sd	s0,16(sp)
 407 000c 23349100 		sd	s1,8(sp)
 408              		.cfi_offset 1, -8
 409              		.cfi_offset 8, -16
 410              		.cfi_offset 9, -24
 411 0010 13040102 		addi	s0,sp,32
 412              		.cfi_def_cfa 8, 0
 413 0014 93040500 		mv	s1,a0
 414              	.LVL28:
 415              	.LBB12:
 416              	.LBB13:
  59:src/../h/syscall_cpp.hpp **** {
 417              		.loc 1 59 7 is_stmt 0
 418 0018 97070000 		lla	a5,_ZTV14PeriodicThread+16
 418      93870700 
 419 0020 2330F500 		sd	a5,0(a0)
 420 0024 97000000 		call	_ZN6ThreadD2Ev
 420      E7800000 
 421              	.LVL29:
 422              	.LBE13:
 423              	.LBE12:
 424 002c 13850400 		mv	a0,s1
 425 0030 97000000 		call	_ZdlPv
 425      E7800000 
 426              	.LVL30:
 427 0038 83308101 		ld	ra,24(sp)
 428              		.cfi_restore 1
 429 003c 03340101 		ld	s0,16(sp)
 430              		.cfi_restore 8
 431              		.cfi_def_cfa 2, 32
 432 0040 83348100 		ld	s1,8(sp)
 433              		.cfi_restore 9
 434              	.LVL31:
 435 0044 13010102 		addi	sp,sp,32
 436              		.cfi_def_cfa_offset 0
 437 0048 67800000 		jr	ra
 438              		.cfi_endproc
 439              	.LFE63:
 441              		.text
GAS LISTING /tmp/cciHs8LR.s 			page 12


 442              		.align	2
 443              		.globl	_ZN6Thread5startEv
 445              	_ZN6Thread5startEv:
 446              	.LFB31:
  28:src/syscall_cpp.cpp ****     if(myHandle != 0)
 447              		.loc 2 28 1 is_stmt 1
 448              		.cfi_startproc
 449              	.LVL32:
  29:src/syscall_cpp.cpp ****     {
 450              		.loc 2 29 5
  29:src/syscall_cpp.cpp ****     {
 451              		.loc 2 29 8 is_stmt 0
 452 018c 03358500 		ld	a0,8(a0)
 453              	.LVL33:
  29:src/syscall_cpp.cpp ****     {
 454              		.loc 2 29 5
 455 0190 63060502 		beqz	a0,.L25
  28:src/syscall_cpp.cpp ****     if(myHandle != 0)
 456              		.loc 2 28 1
 457 0194 130101FF 		addi	sp,sp,-16
 458              		.cfi_def_cfa_offset 16
 459 0198 23341100 		sd	ra,8(sp)
 460 019c 23308100 		sd	s0,0(sp)
 461              		.cfi_offset 1, -8
 462              		.cfi_offset 8, -16
 463 01a0 13040101 		addi	s0,sp,16
 464              		.cfi_def_cfa 8, 0
  31:src/syscall_cpp.cpp ****     }
 465              		.loc 2 31 9 is_stmt 1
  31:src/syscall_cpp.cpp ****     }
 466              		.loc 2 31 28 is_stmt 0
 467 01a4 97000000 		call	thread_start@plt
 467      E7800000 
 468              	.LVL34:
  39:src/syscall_cpp.cpp **** 
 469              		.loc 2 39 1
 470 01ac 83308100 		ld	ra,8(sp)
 471              		.cfi_restore 1
 472 01b0 03340100 		ld	s0,0(sp)
 473              		.cfi_restore 8
 474              		.cfi_def_cfa 2, 16
 475 01b4 13010101 		addi	sp,sp,16
 476              		.cfi_def_cfa_offset 0
 477 01b8 67800000 		jr	ra
 478              	.L25:
  36:src/syscall_cpp.cpp ****     }
 479              		.loc 2 36 17
 480 01bc 1305F0FF 		li	a0,-1
  39:src/syscall_cpp.cpp **** 
 481              		.loc 2 39 1
 482 01c0 67800000 		ret
 483              		.cfi_endproc
 484              	.LFE31:
 486              		.align	2
 487              		.globl	_ZN6Thread8dispatchEv
 489              	_ZN6Thread8dispatchEv:
 490              	.LFB32:
GAS LISTING /tmp/cciHs8LR.s 			page 13


  41:src/syscall_cpp.cpp ****     thread_dispatch();
 491              		.loc 2 41 25 is_stmt 1
 492              		.cfi_startproc
 493 01c4 130101FF 		addi	sp,sp,-16
 494              		.cfi_def_cfa_offset 16
 495 01c8 23341100 		sd	ra,8(sp)
 496 01cc 23308100 		sd	s0,0(sp)
 497              		.cfi_offset 1, -8
 498              		.cfi_offset 8, -16
 499 01d0 13040101 		addi	s0,sp,16
 500              		.cfi_def_cfa 8, 0
  42:src/syscall_cpp.cpp **** }
 501              		.loc 2 42 5
  42:src/syscall_cpp.cpp **** }
 502              		.loc 2 42 20 is_stmt 0
 503 01d4 97000000 		call	thread_dispatch@plt
 503      E7800000 
 504              	.LVL35:
  43:src/syscall_cpp.cpp **** 
 505              		.loc 2 43 1
 506 01dc 83308100 		ld	ra,8(sp)
 507              		.cfi_restore 1
 508 01e0 03340100 		ld	s0,0(sp)
 509              		.cfi_restore 8
 510              		.cfi_def_cfa 2, 16
 511 01e4 13010101 		addi	sp,sp,16
 512              		.cfi_def_cfa_offset 0
 513 01e8 67800000 		jr	ra
 514              		.cfi_endproc
 515              	.LFE32:
 517              		.align	2
 518              		.globl	_ZN6Thread5sleepEm
 520              	_ZN6Thread5sleepEm:
 521              	.LFB33:
  46:src/syscall_cpp.cpp ****     time_sleep(time);
 522              		.loc 2 46 1 is_stmt 1
 523              		.cfi_startproc
 524              	.LVL36:
 525 01ec 130101FF 		addi	sp,sp,-16
 526              		.cfi_def_cfa_offset 16
 527 01f0 23341100 		sd	ra,8(sp)
 528 01f4 23308100 		sd	s0,0(sp)
 529              		.cfi_offset 1, -8
 530              		.cfi_offset 8, -16
 531 01f8 13040101 		addi	s0,sp,16
 532              		.cfi_def_cfa 8, 0
  47:src/syscall_cpp.cpp **** }
 533              		.loc 2 47 5
  47:src/syscall_cpp.cpp **** }
 534              		.loc 2 47 15 is_stmt 0
 535 01fc 97000000 		call	time_sleep@plt
 535      E7800000 
 536              	.LVL37:
  48:src/syscall_cpp.cpp **** 
 537              		.loc 2 48 1
 538 0204 83308100 		ld	ra,8(sp)
 539              		.cfi_restore 1
GAS LISTING /tmp/cciHs8LR.s 			page 14


 540 0208 03340100 		ld	s0,0(sp)
 541              		.cfi_restore 8
 542              		.cfi_def_cfa 2, 16
 543 020c 13010101 		addi	sp,sp,16
 544              		.cfi_def_cfa_offset 0
 545 0210 67800000 		jr	ra
 546              		.cfi_endproc
 547              	.LFE33:
 549              		.align	2
 550              		.globl	_ZN14PeriodicThread6runnerEPv
 552              	_ZN14PeriodicThread6runnerEPv:
 553              	.LFB59:
 102:src/syscall_cpp.cpp **** 
 103:src/syscall_cpp.cpp **** //Console
 104:src/syscall_cpp.cpp **** 
 105:src/syscall_cpp.cpp **** char Console::getc()
 106:src/syscall_cpp.cpp **** {
 107:src/syscall_cpp.cpp ****     return 0;
 108:src/syscall_cpp.cpp **** }
 109:src/syscall_cpp.cpp **** 
 110:src/syscall_cpp.cpp **** void Console::putc(char)
 111:src/syscall_cpp.cpp **** {
 112:src/syscall_cpp.cpp **** 
 113:src/syscall_cpp.cpp **** }
 114:src/syscall_cpp.cpp **** 
 115:src/syscall_cpp.cpp **** //PeriodicThread
 116:src/syscall_cpp.cpp **** 
 117:src/syscall_cpp.cpp **** PeriodicThread::PeriodicThread(time_t period) : Thread(&PeriodicThread::runner, new ArgsPeriodic((v
 118:src/syscall_cpp.cpp **** {
 119:src/syscall_cpp.cpp **** 
 120:src/syscall_cpp.cpp **** }
 121:src/syscall_cpp.cpp **** 
 122:src/syscall_cpp.cpp **** void PeriodicThread::runner(void* arg)
 123:src/syscall_cpp.cpp **** {
 554              		.loc 2 123 1 is_stmt 1
 555              		.cfi_startproc
 556              	.LVL38:
 557 0214 130101FE 		addi	sp,sp,-32
 558              		.cfi_def_cfa_offset 32
 559 0218 233C1100 		sd	ra,24(sp)
 560 021c 23388100 		sd	s0,16(sp)
 561 0220 23349100 		sd	s1,8(sp)
 562 0224 23302101 		sd	s2,0(sp)
 563              		.cfi_offset 1, -8
 564              		.cfi_offset 8, -16
 565              		.cfi_offset 9, -24
 566              		.cfi_offset 18, -32
 567 0228 13040102 		addi	s0,sp,32
 568              		.cfi_def_cfa 8, 0
 124:src/syscall_cpp.cpp ****     PeriodicThread *pThread =(PeriodicThread*) ((ArgsPeriodic*)arg)->pt;
 569              		.loc 2 124 5
 570              		.loc 2 124 21 is_stmt 0
 571 022c 83340500 		ld	s1,0(a0)
 572              	.LVL39:
 125:src/syscall_cpp.cpp ****     uint64 time = ((ArgsPeriodic*)arg)->time;
 573              		.loc 2 125 5 is_stmt 1
 574              		.loc 2 125 12 is_stmt 0
GAS LISTING /tmp/cciHs8LR.s 			page 15


 575 0230 03398500 		ld	s2,8(a0)
 576              	.LVL40:
 577              	.L35:
 126:src/syscall_cpp.cpp **** 
 127:src/syscall_cpp.cpp ****     while(true)
 578              		.loc 2 127 5 is_stmt 1 discriminator 1
 128:src/syscall_cpp.cpp ****     {
 129:src/syscall_cpp.cpp ****         pThread->periodicActivation();
 579              		.loc 2 129 9 discriminator 1
 580              		.loc 2 129 37 is_stmt 0 discriminator 1
 581 0234 83B70400 		ld	a5,0(s1)
 582 0238 83B78701 		ld	a5,24(a5)
 583              		.loc 2 129 36 discriminator 1
 584 023c 13850400 		mv	a0,s1
 585 0240 E7800700 		jalr	a5
 586              	.LVL41:
 130:src/syscall_cpp.cpp ****         Thread::sleep(time);
 587              		.loc 2 130 9 is_stmt 1 discriminator 1
 588              		.loc 2 130 22 is_stmt 0 discriminator 1
 589 0244 13050900 		mv	a0,s2
 590 0248 97000000 		call	_ZN6Thread5sleepEm
 590      E7800000 
 591              	.LVL42:
 127:src/syscall_cpp.cpp ****     {
 592              		.loc 2 127 5 is_stmt 1 discriminator 1
 593 0250 6FF05FFE 		j	.L35
 594              		.cfi_endproc
 595              	.LFE59:
 597              		.align	2
 598              		.globl	_ZN6ThreadC2EPFvPvES0_
 600              	_ZN6ThreadC2EPFvPvES0_:
 601              	.LFB35:
  50:src/syscall_cpp.cpp **** {
 602              		.loc 2 50 1
 603              		.cfi_startproc
 604              	.LVL43:
 605 0254 130101FF 		addi	sp,sp,-16
 606              		.cfi_def_cfa_offset 16
 607 0258 23341100 		sd	ra,8(sp)
 608 025c 23308100 		sd	s0,0(sp)
 609              		.cfi_offset 1, -8
 610              		.cfi_offset 8, -16
 611 0260 13040101 		addi	s0,sp,16
 612              		.cfi_def_cfa 8, 0
 613              	.LBB14:
  50:src/syscall_cpp.cpp **** {
 614              		.loc 2 50 48 is_stmt 0
 615 0264 97070000 		lla	a5,_ZTV6Thread+16
 615      93870700 
 616 026c 2330F500 		sd	a5,0(a0)
  52:src/syscall_cpp.cpp **** }
 617              		.loc 2 52 5 is_stmt 1
  52:src/syscall_cpp.cpp **** }
 618              		.loc 2 52 20 is_stmt 0
 619 0270 13058500 		addi	a0,a0,8
 620              	.LVL44:
 621 0274 97000000 		call	thread_make_pcb@plt
GAS LISTING /tmp/cciHs8LR.s 			page 16


 621      E7800000 
 622              	.LVL45:
 623              	.LBE14:
  53:src/syscall_cpp.cpp **** 
 624              		.loc 2 53 1
 625 027c 83308100 		ld	ra,8(sp)
 626              		.cfi_restore 1
 627 0280 03340100 		ld	s0,0(sp)
 628              		.cfi_restore 8
 629              		.cfi_def_cfa 2, 16
 630 0284 13010101 		addi	sp,sp,16
 631              		.cfi_def_cfa_offset 0
 632 0288 67800000 		jr	ra
 633              		.cfi_endproc
 634              	.LFE35:
 636              		.globl	_ZN6ThreadC1EPFvPvES0_
 637              		.set	_ZN6ThreadC1EPFvPvES0_,_ZN6ThreadC2EPFvPvES0_
 638              		.align	2
 639              		.globl	_ZN6ThreadC2Ev
 641              	_ZN6ThreadC2Ev:
 642              	.LFB38:
  55:src/syscall_cpp.cpp **** {
 643              		.loc 2 55 1 is_stmt 1
 644              		.cfi_startproc
 645              	.LVL46:
 646 028c 130101FF 		addi	sp,sp,-16
 647              		.cfi_def_cfa_offset 16
 648 0290 23341100 		sd	ra,8(sp)
 649 0294 23308100 		sd	s0,0(sp)
 650              		.cfi_offset 1, -8
 651              		.cfi_offset 8, -16
 652 0298 13040101 		addi	s0,sp,16
 653              		.cfi_def_cfa 8, 0
 654              	.LBB15:
  55:src/syscall_cpp.cpp **** {
 655              		.loc 2 55 16 is_stmt 0
 656 029c 97070000 		lla	a5,_ZTV6Thread+16
 656      93870700 
 657 02a4 2330F500 		sd	a5,0(a0)
  57:src/syscall_cpp.cpp **** }
 658              		.loc 2 57 5 is_stmt 1
  57:src/syscall_cpp.cpp **** }
 659              		.loc 2 57 20 is_stmt 0
 660 02a8 13060500 		mv	a2,a0
 661 02ac 97050000 		lla	a1,_ZN6Thread6runnerEPv
 661      93850500 
 662 02b4 13058500 		addi	a0,a0,8
 663              	.LVL47:
 664 02b8 97000000 		call	thread_make_pcb@plt
 664      E7800000 
 665              	.LVL48:
 666              	.LBE15:
  58:src/syscall_cpp.cpp **** 
 667              		.loc 2 58 1
 668 02c0 83308100 		ld	ra,8(sp)
 669              		.cfi_restore 1
 670 02c4 03340100 		ld	s0,0(sp)
GAS LISTING /tmp/cciHs8LR.s 			page 17


 671              		.cfi_restore 8
 672              		.cfi_def_cfa 2, 16
 673 02c8 13010101 		addi	sp,sp,16
 674              		.cfi_def_cfa_offset 0
 675 02cc 67800000 		jr	ra
 676              		.cfi_endproc
 677              	.LFE38:
 679              		.globl	_ZN6ThreadC1Ev
 680              		.set	_ZN6ThreadC1Ev,_ZN6ThreadC2Ev
 681              		.align	2
 682              		.globl	_ZN9Semaphore4waitEv
 684              	_ZN9Semaphore4waitEv:
 685              	.LFB45:
  75:src/syscall_cpp.cpp ****     if(myHandle == 0)
 686              		.loc 2 75 1 is_stmt 1
 687              		.cfi_startproc
 688              	.LVL49:
  76:src/syscall_cpp.cpp ****         return -1;
 689              		.loc 2 76 5
  76:src/syscall_cpp.cpp ****         return -1;
 690              		.loc 2 76 8 is_stmt 0
 691 02d0 03358500 		ld	a0,8(a0)
 692              	.LVL50:
  76:src/syscall_cpp.cpp ****         return -1;
 693              		.loc 2 76 5
 694 02d4 63060502 		beqz	a0,.L43
  75:src/syscall_cpp.cpp ****     if(myHandle == 0)
 695              		.loc 2 75 1
 696 02d8 130101FF 		addi	sp,sp,-16
 697              		.cfi_def_cfa_offset 16
 698 02dc 23341100 		sd	ra,8(sp)
 699 02e0 23308100 		sd	s0,0(sp)
 700              		.cfi_offset 1, -8
 701              		.cfi_offset 8, -16
 702 02e4 13040101 		addi	s0,sp,16
 703              		.cfi_def_cfa 8, 0
  78:src/syscall_cpp.cpp **** }
 704              		.loc 2 78 5 is_stmt 1
  78:src/syscall_cpp.cpp **** }
 705              		.loc 2 78 20 is_stmt 0
 706 02e8 97000000 		call	sem_wait@plt
 706      E7800000 
 707              	.LVL51:
  79:src/syscall_cpp.cpp **** 
 708              		.loc 2 79 1
 709 02f0 83308100 		ld	ra,8(sp)
 710              		.cfi_restore 1
 711 02f4 03340100 		ld	s0,0(sp)
 712              		.cfi_restore 8
 713              		.cfi_def_cfa 2, 16
 714 02f8 13010101 		addi	sp,sp,16
 715              		.cfi_def_cfa_offset 0
 716 02fc 67800000 		jr	ra
 717              	.L43:
  77:src/syscall_cpp.cpp ****     return sem_wait(myHandle);
 718              		.loc 2 77 17
 719 0300 1305F0FF 		li	a0,-1
GAS LISTING /tmp/cciHs8LR.s 			page 18


  79:src/syscall_cpp.cpp **** 
 720              		.loc 2 79 1
 721 0304 67800000 		ret
 722              		.cfi_endproc
 723              	.LFE45:
 725              		.align	2
 726              		.globl	_ZN9SemaphoreC2Ej
 728              	_ZN9SemaphoreC2Ej:
 729              	.LFB47:
  81:src/syscall_cpp.cpp **** {
 730              		.loc 2 81 1 is_stmt 1
 731              		.cfi_startproc
 732              	.LVL52:
 733 0308 130101FE 		addi	sp,sp,-32
 734              		.cfi_def_cfa_offset 32
 735 030c 233C1100 		sd	ra,24(sp)
 736 0310 23388100 		sd	s0,16(sp)
 737 0314 23349100 		sd	s1,8(sp)
 738              		.cfi_offset 1, -8
 739              		.cfi_offset 8, -16
 740              		.cfi_offset 9, -24
 741 0318 13040102 		addi	s0,sp,32
 742              		.cfi_def_cfa 8, 0
 743 031c 93040500 		mv	s1,a0
 744              	.LBB16:
  81:src/syscall_cpp.cpp **** {
 745              		.loc 2 81 39 is_stmt 0
 746 0320 97070000 		lla	a5,_ZTV9Semaphore+16
 746      93870700 
 747 0328 2330F500 		sd	a5,0(a0)
 748              	.LBB17:
  83:src/syscall_cpp.cpp ****     if(retval != 0)
 749              		.loc 2 83 5 is_stmt 1
  83:src/syscall_cpp.cpp ****     if(retval != 0)
 750              		.loc 2 83 26 is_stmt 0
 751 032c 13058500 		addi	a0,a0,8
 752              	.LVL53:
 753 0330 97000000 		call	sem_open@plt
 753      E7800000 
 754              	.LVL54:
  84:src/syscall_cpp.cpp ****     {
 755              		.loc 2 84 5 is_stmt 1
 756 0338 63040500 		beqz	a0,.L48
  88:src/syscall_cpp.cpp ****     }
 757              		.loc 2 88 9
  88:src/syscall_cpp.cpp ****     }
 758              		.loc 2 88 18 is_stmt 0
 759 033c 23B40400 		sd	zero,8(s1)
 760              	.L48:
 761              	.LBE17:
 762              	.LBE16:
  90:src/syscall_cpp.cpp **** 
 763              		.loc 2 90 1
 764 0340 83308101 		ld	ra,24(sp)
 765              		.cfi_restore 1
 766 0344 03340101 		ld	s0,16(sp)
 767              		.cfi_restore 8
GAS LISTING /tmp/cciHs8LR.s 			page 19


 768              		.cfi_def_cfa 2, 32
 769 0348 83348100 		ld	s1,8(sp)
 770              		.cfi_restore 9
 771              	.LVL55:
 772 034c 13010102 		addi	sp,sp,32
 773              		.cfi_def_cfa_offset 0
 774 0350 67800000 		jr	ra
 775              		.cfi_endproc
 776              	.LFE47:
 778              		.globl	_ZN9SemaphoreC1Ej
 779              		.set	_ZN9SemaphoreC1Ej,_ZN9SemaphoreC2Ej
 780              		.align	2
 781              		.globl	_ZN9Semaphore6signalEv
 783              	_ZN9Semaphore6signalEv:
 784              	.LFB49:
  93:src/syscall_cpp.cpp ****     if(myHandle == 0)
 785              		.loc 2 93 1 is_stmt 1
 786              		.cfi_startproc
 787              	.LVL56:
  94:src/syscall_cpp.cpp ****         return -1;
 788              		.loc 2 94 5
  94:src/syscall_cpp.cpp ****         return -1;
 789              		.loc 2 94 8 is_stmt 0
 790 0354 03358500 		ld	a0,8(a0)
 791              	.LVL57:
  94:src/syscall_cpp.cpp ****         return -1;
 792              		.loc 2 94 5
 793 0358 63060502 		beqz	a0,.L53
  93:src/syscall_cpp.cpp ****     if(myHandle == 0)
 794              		.loc 2 93 1
 795 035c 130101FF 		addi	sp,sp,-16
 796              		.cfi_def_cfa_offset 16
 797 0360 23341100 		sd	ra,8(sp)
 798 0364 23308100 		sd	s0,0(sp)
 799              		.cfi_offset 1, -8
 800              		.cfi_offset 8, -16
 801 0368 13040101 		addi	s0,sp,16
 802              		.cfi_def_cfa 8, 0
  96:src/syscall_cpp.cpp **** }
 803              		.loc 2 96 5 is_stmt 1
  96:src/syscall_cpp.cpp **** }
 804              		.loc 2 96 22 is_stmt 0
 805 036c 97000000 		call	sem_signal@plt
 805      E7800000 
 806              	.LVL58:
  97:src/syscall_cpp.cpp **** 
 807              		.loc 2 97 1
 808 0374 83308100 		ld	ra,8(sp)
 809              		.cfi_restore 1
 810 0378 03340100 		ld	s0,0(sp)
 811              		.cfi_restore 8
 812              		.cfi_def_cfa 2, 16
 813 037c 13010101 		addi	sp,sp,16
 814              		.cfi_def_cfa_offset 0
 815 0380 67800000 		jr	ra
 816              	.L53:
  95:src/syscall_cpp.cpp ****     return sem_signal(myHandle);
GAS LISTING /tmp/cciHs8LR.s 			page 20


 817              		.loc 2 95 17
 818 0384 1305F0FF 		li	a0,-1
  97:src/syscall_cpp.cpp **** 
 819              		.loc 2 97 1
 820 0388 67800000 		ret
 821              		.cfi_endproc
 822              	.LFE49:
 824              		.align	2
 825              		.globl	_ZN7Console4getcEv
 827              	_ZN7Console4getcEv:
 828              	.LFB54:
 106:src/syscall_cpp.cpp ****     return 0;
 829              		.loc 2 106 1 is_stmt 1
 830              		.cfi_startproc
 831 038c 130101FF 		addi	sp,sp,-16
 832              		.cfi_def_cfa_offset 16
 833 0390 23348100 		sd	s0,8(sp)
 834              		.cfi_offset 8, -8
 835 0394 13040101 		addi	s0,sp,16
 836              		.cfi_def_cfa 8, 0
 107:src/syscall_cpp.cpp **** }
 837              		.loc 2 107 5
 108:src/syscall_cpp.cpp **** 
 838              		.loc 2 108 1 is_stmt 0
 839 0398 13050000 		li	a0,0
 840 039c 03348100 		ld	s0,8(sp)
 841              		.cfi_restore 8
 842              		.cfi_def_cfa 2, 16
 843 03a0 13010101 		addi	sp,sp,16
 844              		.cfi_def_cfa_offset 0
 845 03a4 67800000 		jr	ra
 846              		.cfi_endproc
 847              	.LFE54:
 849              		.align	2
 850              		.globl	_ZN7Console4putcEc
 852              	_ZN7Console4putcEc:
 853              	.LFB55:
 111:src/syscall_cpp.cpp **** 
 854              		.loc 2 111 1 is_stmt 1
 855              		.cfi_startproc
 856 03a8 130101FF 		addi	sp,sp,-16
 857              		.cfi_def_cfa_offset 16
 858 03ac 23348100 		sd	s0,8(sp)
 859              		.cfi_offset 8, -8
 860 03b0 13040101 		addi	s0,sp,16
 861              		.cfi_def_cfa 8, 0
 113:src/syscall_cpp.cpp **** 
 862              		.loc 2 113 1 is_stmt 0
 863 03b4 03348100 		ld	s0,8(sp)
 864              		.cfi_restore 8
 865              		.cfi_def_cfa 2, 16
 866 03b8 13010101 		addi	sp,sp,16
 867              		.cfi_def_cfa_offset 0
 868 03bc 67800000 		jr	ra
 869              		.cfi_endproc
 870              	.LFE55:
 872              		.align	2
GAS LISTING /tmp/cciHs8LR.s 			page 21


 873              		.globl	_ZN14PeriodicThreadC2Em
 875              	_ZN14PeriodicThreadC2Em:
 876              	.LFB57:
 117:src/syscall_cpp.cpp **** {
 877              		.loc 2 117 1 is_stmt 1
 878              		.cfi_startproc
 879              	.LVL59:
 880 03c0 130101FE 		addi	sp,sp,-32
 881              		.cfi_def_cfa_offset 32
 882 03c4 233C1100 		sd	ra,24(sp)
 883 03c8 23388100 		sd	s0,16(sp)
 884 03cc 23349100 		sd	s1,8(sp)
 885 03d0 23302101 		sd	s2,0(sp)
 886              		.cfi_offset 1, -8
 887              		.cfi_offset 8, -16
 888              		.cfi_offset 9, -24
 889              		.cfi_offset 18, -32
 890 03d4 13040102 		addi	s0,sp,32
 891              		.cfi_def_cfa 8, 0
 892 03d8 93040500 		mv	s1,a0
 893 03dc 13890500 		mv	s2,a1
 894              	.LBB18:
 117:src/syscall_cpp.cpp **** {
 895              		.loc 2 117 117 is_stmt 0
 896 03e0 13050001 		li	a0,16
 897              	.LVL60:
 898 03e4 97000000 		call	_Znwm
 898      E7800000 
 899              	.LVL61:
 900 03ec 13060500 		mv	a2,a0
 901              	.LVL62:
 902              	.LBB19:
 903              	.LBB20:
  11:src/syscall_cpp.cpp **** };
 904              		.loc 2 11 52
 905 03f0 23309500 		sd	s1,0(a0)
 906 03f4 23342501 		sd	s2,8(a0)
 907              	.LVL63:
 908              	.LBE20:
 909              	.LBE19:
 117:src/syscall_cpp.cpp **** {
 910              		.loc 2 117 118
 911 03f8 97050000 		lla	a1,_ZN14PeriodicThread6runnerEPv
 911      93850500 
 912 0400 13850400 		mv	a0,s1
 913 0404 97000000 		call	_ZN6ThreadC2EPFvPvES0_
 913      E7800000 
 914              	.LVL64:
 915 040c 97070000 		lla	a5,_ZTV14PeriodicThread+16
 915      93870700 
 916 0414 23B0F400 		sd	a5,0(s1)
 917              	.LBE18:
 120:src/syscall_cpp.cpp **** 
 918              		.loc 2 120 1
 919 0418 83308101 		ld	ra,24(sp)
 920              		.cfi_restore 1
 921 041c 03340101 		ld	s0,16(sp)
GAS LISTING /tmp/cciHs8LR.s 			page 22


 922              		.cfi_restore 8
 923              		.cfi_def_cfa 2, 32
 924 0420 83348100 		ld	s1,8(sp)
 925              		.cfi_restore 9
 926              	.LVL65:
 927 0424 03390100 		ld	s2,0(sp)
 928              		.cfi_restore 18
 929              	.LVL66:
 930 0428 13010102 		addi	sp,sp,32
 931              		.cfi_def_cfa_offset 0
 932 042c 67800000 		jr	ra
 933              		.cfi_endproc
 934              	.LFE57:
 936              		.globl	_ZN14PeriodicThreadC1Em
 937              		.set	_ZN14PeriodicThreadC1Em,_ZN14PeriodicThreadC2Em
 938              		.weak	_ZTV14PeriodicThread
 939              		.section	.data.rel.ro.local._ZTV14PeriodicThread,"awG",@progbits,_ZTV14PeriodicThread,comdat
 940              		.align	3
 943              	_ZTV14PeriodicThread:
 944 0000 00000000 		.dword	0
 944      00000000 
 945 0008 00000000 		.dword	0
 945      00000000 
 946 0010 00000000 		.dword	_ZN14PeriodicThreadD1Ev
 946      00000000 
 947 0018 00000000 		.dword	_ZN14PeriodicThreadD0Ev
 947      00000000 
 948 0020 00000000 		.dword	_ZN6Thread3runEv
 948      00000000 
 949 0028 00000000 		.dword	_ZN14PeriodicThread18periodicActivationEv
 949      00000000 
 950              		.weak	_ZTV6Thread
 951              		.section	.data.rel.ro.local._ZTV6Thread,"awG",@progbits,_ZTV6Thread,comdat
 952              		.align	3
 955              	_ZTV6Thread:
 956 0000 00000000 		.dword	0
 956      00000000 
 957 0008 00000000 		.dword	0
 957      00000000 
 958 0010 00000000 		.dword	_ZN6ThreadD1Ev
 958      00000000 
 959 0018 00000000 		.dword	_ZN6ThreadD0Ev
 959      00000000 
 960 0020 00000000 		.dword	_ZN6Thread3runEv
 960      00000000 
 961              		.weak	_ZTV9Semaphore
 962              		.section	.data.rel.ro.local._ZTV9Semaphore,"awG",@progbits,_ZTV9Semaphore,comdat
 963              		.align	3
 966              	_ZTV9Semaphore:
 967 0000 00000000 		.dword	0
 967      00000000 
 968 0008 00000000 		.dword	0
 968      00000000 
 969 0010 00000000 		.dword	_ZN9SemaphoreD1Ev
 969      00000000 
 970 0018 00000000 		.dword	_ZN9SemaphoreD0Ev
 970      00000000 
GAS LISTING /tmp/cciHs8LR.s 			page 23


 971              		.text
 972              	.Letext0:
 973              		.file 3 "src/../h/../lib/hw.h"
 974              		.file 4 "src/../h/syscall_c.h"
 975              		.file 5 "src/../h/Riscv.hpp"
 4816              		.align	3
 4819              	DW.ref.__gxx_personality_v0:
 4820 0000 00000000 		.dword	__gxx_personality_v0
 4820      00000000 
 4821              		.ident	"GCC: (Ubuntu 9.3.0-17ubuntu1~20.04) 9.3.0"
 4822              		.section	.note.GNU-stack,"",@progbits
GAS LISTING /tmp/cciHs8LR.s 			page 24


DEFINED SYMBOLS
                            *ABS*:0000000000000000 syscall_cpp.cpp
     /tmp/cciHs8LR.s:10     .text._ZN6Thread3runEv:0000000000000000 _ZN6Thread3runEv
     /tmp/cciHs8LR.s:14     .text._ZN6Thread3runEv:0000000000000000 .L0 
     /tmp/cciHs8LR.s:16     .text._ZN6Thread3runEv:0000000000000000 .L0 
     /tmp/cciHs8LR.s:17     .text._ZN6Thread3runEv:0000000000000004 .L0 
     /tmp/cciHs8LR.s:19     .text._ZN6Thread3runEv:0000000000000008 .L0 
     /tmp/cciHs8LR.s:21     .text._ZN6Thread3runEv:000000000000000c .L0 
     /tmp/cciHs8LR.s:23     .text._ZN6Thread3runEv:000000000000000c .L0 
     /tmp/cciHs8LR.s:24     .text._ZN6Thread3runEv:0000000000000010 .L0 
     /tmp/cciHs8LR.s:25     .text._ZN6Thread3runEv:0000000000000010 .L0 
     /tmp/cciHs8LR.s:27     .text._ZN6Thread3runEv:0000000000000014 .L0 
     /tmp/cciHs8LR.s:29     .text._ZN6Thread3runEv:0000000000000018 .L0 
     /tmp/cciHs8LR.s:36     .text._ZN14PeriodicThread18periodicActivationEv:0000000000000000 _ZN14PeriodicThread18periodicActivationEv
     /tmp/cciHs8LR.s:39     .text._ZN14PeriodicThread18periodicActivationEv:0000000000000000 .L0 
     /tmp/cciHs8LR.s:41     .text._ZN14PeriodicThread18periodicActivationEv:0000000000000000 .L0 
     /tmp/cciHs8LR.s:42     .text._ZN14PeriodicThread18periodicActivationEv:0000000000000004 .L0 
     /tmp/cciHs8LR.s:44     .text._ZN14PeriodicThread18periodicActivationEv:0000000000000008 .L0 
     /tmp/cciHs8LR.s:46     .text._ZN14PeriodicThread18periodicActivationEv:000000000000000c .L0 
     /tmp/cciHs8LR.s:48     .text._ZN14PeriodicThread18periodicActivationEv:000000000000000c .L0 
     /tmp/cciHs8LR.s:49     .text._ZN14PeriodicThread18periodicActivationEv:0000000000000010 .L0 
     /tmp/cciHs8LR.s:50     .text._ZN14PeriodicThread18periodicActivationEv:0000000000000010 .L0 
     /tmp/cciHs8LR.s:52     .text._ZN14PeriodicThread18periodicActivationEv:0000000000000014 .L0 
     /tmp/cciHs8LR.s:54     .text._ZN14PeriodicThread18periodicActivationEv:0000000000000018 .L0 
     /tmp/cciHs8LR.s:61     .text:0000000000000000 _ZN6ThreadD2Ev
     /tmp/cciHs8LR.s:65     .text:0000000000000000 .L0 
     /tmp/cciHs8LR.s:4819   .data.rel.local.DW.ref.__gxx_personality_v0:0000000000000000 DW.ref.__gxx_personality_v0
     /tmp/cciHs8LR.s:69     .text:0000000000000000 .L0 
     /tmp/cciHs8LR.s:70     .text:0000000000000004 .L0 
     /tmp/cciHs8LR.s:73     .text:000000000000000c .L0 
     /tmp/cciHs8LR.s:74     .text:000000000000000c .L0 
     /tmp/cciHs8LR.s:76     .text:0000000000000010 .L0 
     /tmp/cciHs8LR.s:955    .data.rel.ro.local._ZTV6Thread:0000000000000000 _ZTV6Thread
     /tmp/cciHs8LR.s:79     .text:0000000000000010 .L0 
     /tmp/cciHs8LR.s:82     .text:000000000000001c .L0 
     /tmp/cciHs8LR.s:83     .text:000000000000001c .L0 
     /tmp/cciHs8LR.s:89     .text:0000000000000028 .L0 
     /tmp/cciHs8LR.s:90     .text:000000000000002c .L0 
     /tmp/cciHs8LR.s:92     .text:0000000000000030 .L0 
     /tmp/cciHs8LR.s:93     .text:0000000000000030 .L0 
     /tmp/cciHs8LR.s:95     .text:0000000000000034 .L0 
     /tmp/cciHs8LR.s:97     .text:0000000000000038 .L0 
     /tmp/cciHs8LR.s:61     .text:0000000000000000 _ZN6ThreadD1Ev
     /tmp/cciHs8LR.s:114    .text._ZN14PeriodicThreadD2Ev:0000000000000000 _ZN14PeriodicThreadD2Ev
     /tmp/cciHs8LR.s:117    .text._ZN14PeriodicThreadD2Ev:0000000000000000 .L0 
     /tmp/cciHs8LR.s:119    .text._ZN14PeriodicThreadD2Ev:0000000000000000 .L0 
     /tmp/cciHs8LR.s:120    .text._ZN14PeriodicThreadD2Ev:0000000000000004 .L0 
     /tmp/cciHs8LR.s:123    .text._ZN14PeriodicThreadD2Ev:000000000000000c .L0 
     /tmp/cciHs8LR.s:124    .text._ZN14PeriodicThreadD2Ev:000000000000000c .L0 
     /tmp/cciHs8LR.s:126    .text._ZN14PeriodicThreadD2Ev:0000000000000010 .L0 
     /tmp/cciHs8LR.s:943    .data.rel.ro.local._ZTV14PeriodicThread:0000000000000000 _ZTV14PeriodicThread
     /tmp/cciHs8LR.s:129    .text._ZN14PeriodicThreadD2Ev:0000000000000010 .L0 
     /tmp/cciHs8LR.s:135    .text._ZN14PeriodicThreadD2Ev:0000000000000028 .L0 
     /tmp/cciHs8LR.s:137    .text._ZN14PeriodicThreadD2Ev:000000000000002c .L0 
     /tmp/cciHs8LR.s:138    .text._ZN14PeriodicThreadD2Ev:000000000000002c .L0 
     /tmp/cciHs8LR.s:140    .text._ZN14PeriodicThreadD2Ev:0000000000000030 .L0 
     /tmp/cciHs8LR.s:142    .text._ZN14PeriodicThreadD2Ev:0000000000000034 .L0 
GAS LISTING /tmp/cciHs8LR.s 			page 25


     /tmp/cciHs8LR.s:114    .text._ZN14PeriodicThreadD2Ev:0000000000000000 _ZN14PeriodicThreadD1Ev
     /tmp/cciHs8LR.s:151    .text:0000000000000038 _ZN9SemaphoreD2Ev
     /tmp/cciHs8LR.s:154    .text:0000000000000038 .L0 
     /tmp/cciHs8LR.s:158    .text:0000000000000038 .L0 
     /tmp/cciHs8LR.s:159    .text:000000000000003c .L0 
     /tmp/cciHs8LR.s:162    .text:0000000000000044 .L0 
     /tmp/cciHs8LR.s:163    .text:0000000000000044 .L0 
     /tmp/cciHs8LR.s:165    .text:0000000000000048 .L0 
     /tmp/cciHs8LR.s:966    .data.rel.ro.local._ZTV9Semaphore:0000000000000000 _ZTV9Semaphore
     /tmp/cciHs8LR.s:168    .text:0000000000000048 .L0 
     /tmp/cciHs8LR.s:171    .text:0000000000000054 .L0 
     /tmp/cciHs8LR.s:172    .text:0000000000000054 .L0 
     /tmp/cciHs8LR.s:178    .text:0000000000000060 .L0 
     /tmp/cciHs8LR.s:179    .text:0000000000000064 .L0 
     /tmp/cciHs8LR.s:181    .text:0000000000000068 .L0 
     /tmp/cciHs8LR.s:182    .text:0000000000000068 .L0 
     /tmp/cciHs8LR.s:184    .text:000000000000006c .L0 
     /tmp/cciHs8LR.s:186    .text:0000000000000070 .L0 
     /tmp/cciHs8LR.s:151    .text:0000000000000038 _ZN9SemaphoreD1Ev
     /tmp/cciHs8LR.s:206    .text:0000000000000070 _ZN6Thread6runnerEPv
     /tmp/cciHs8LR.s:209    .text:0000000000000070 .L0 
     /tmp/cciHs8LR.s:211    .text:0000000000000070 .L0 
     /tmp/cciHs8LR.s:212    .text:0000000000000074 .L0 
     /tmp/cciHs8LR.s:216    .text:0000000000000080 .L0 
     /tmp/cciHs8LR.s:217    .text:0000000000000080 .L0 
     /tmp/cciHs8LR.s:218    .text:0000000000000080 .L0 
     /tmp/cciHs8LR.s:220    .text:0000000000000084 .L0 
     /tmp/cciHs8LR.s:223    .text:0000000000000088 .L0 
     /tmp/cciHs8LR.s:224    .text:0000000000000088 .L0 
     /tmp/cciHs8LR.s:229    .text:0000000000000098 .L0 
     /tmp/cciHs8LR.s:230    .text:0000000000000098 .L0 
     /tmp/cciHs8LR.s:231    .text:0000000000000098 .L0 
     /tmp/cciHs8LR.s:234    .text:00000000000000a0 .L0 
     /tmp/cciHs8LR.s:238    .text:00000000000000a8 .L0 
     /tmp/cciHs8LR.s:239    .text:00000000000000ac .L0 
     /tmp/cciHs8LR.s:241    .text:00000000000000b0 .L0 
     /tmp/cciHs8LR.s:242    .text:00000000000000b0 .L0 
     /tmp/cciHs8LR.s:244    .text:00000000000000b4 .L0 
     /tmp/cciHs8LR.s:247    .text:00000000000000b8 .L0 
     /tmp/cciHs8LR.s:249    .text:00000000000000bc .L0 
     /tmp/cciHs8LR.s:255    .text:00000000000000bc _Znwm
     /tmp/cciHs8LR.s:258    .text:00000000000000bc .L0 
     /tmp/cciHs8LR.s:260    .text:00000000000000bc .L0 
     /tmp/cciHs8LR.s:261    .text:00000000000000c0 .L0 
     /tmp/cciHs8LR.s:264    .text:00000000000000c8 .L0 
     /tmp/cciHs8LR.s:265    .text:00000000000000c8 .L0 
     /tmp/cciHs8LR.s:267    .text:00000000000000cc .L0 
     /tmp/cciHs8LR.s:269    .text:00000000000000cc .L0 
     /tmp/cciHs8LR.s:270    .text:00000000000000cc .L0 
     /tmp/cciHs8LR.s:273    .text:00000000000000d4 .L0 
     /tmp/cciHs8LR.s:274    .text:00000000000000d8 .L0 
     /tmp/cciHs8LR.s:276    .text:00000000000000dc .L0 
     /tmp/cciHs8LR.s:277    .text:00000000000000dc .L0 
     /tmp/cciHs8LR.s:279    .text:00000000000000e0 .L0 
     /tmp/cciHs8LR.s:281    .text:00000000000000e4 .L0 
     /tmp/cciHs8LR.s:287    .text:00000000000000e4 _ZdlPv
     /tmp/cciHs8LR.s:290    .text:00000000000000e4 .L0 
GAS LISTING /tmp/cciHs8LR.s 			page 26


     /tmp/cciHs8LR.s:292    .text:00000000000000e4 .L0 
     /tmp/cciHs8LR.s:293    .text:00000000000000e8 .L0 
     /tmp/cciHs8LR.s:296    .text:00000000000000f0 .L0 
     /tmp/cciHs8LR.s:297    .text:00000000000000f0 .L0 
     /tmp/cciHs8LR.s:299    .text:00000000000000f4 .L0 
     /tmp/cciHs8LR.s:301    .text:00000000000000f4 .L0 
     /tmp/cciHs8LR.s:302    .text:00000000000000f4 .L0 
     /tmp/cciHs8LR.s:305    .text:00000000000000fc .L0 
     /tmp/cciHs8LR.s:306    .text:0000000000000100 .L0 
     /tmp/cciHs8LR.s:308    .text:0000000000000104 .L0 
     /tmp/cciHs8LR.s:309    .text:0000000000000104 .L0 
     /tmp/cciHs8LR.s:311    .text:0000000000000108 .L0 
     /tmp/cciHs8LR.s:313    .text:000000000000010c .L0 
     /tmp/cciHs8LR.s:319    .text:000000000000010c _ZN6ThreadD0Ev
     /tmp/cciHs8LR.s:322    .text:000000000000010c .L0 
     /tmp/cciHs8LR.s:324    .text:000000000000010c .L0 
     /tmp/cciHs8LR.s:325    .text:0000000000000110 .L0 
     /tmp/cciHs8LR.s:329    .text:000000000000011c .L0 
     /tmp/cciHs8LR.s:330    .text:000000000000011c .L0 
     /tmp/cciHs8LR.s:331    .text:000000000000011c .L0 
     /tmp/cciHs8LR.s:333    .text:0000000000000120 .L0 
     /tmp/cciHs8LR.s:336    .text:0000000000000124 .L0 
     /tmp/cciHs8LR.s:342    .text:000000000000013c .L0 
     /tmp/cciHs8LR.s:344    .text:0000000000000140 .L0 
     /tmp/cciHs8LR.s:345    .text:0000000000000140 .L0 
     /tmp/cciHs8LR.s:347    .text:0000000000000144 .L0 
     /tmp/cciHs8LR.s:350    .text:0000000000000148 .L0 
     /tmp/cciHs8LR.s:352    .text:000000000000014c .L0 
     /tmp/cciHs8LR.s:358    .text:000000000000014c _ZN9SemaphoreD0Ev
     /tmp/cciHs8LR.s:361    .text:000000000000014c .L0 
     /tmp/cciHs8LR.s:363    .text:000000000000014c .L0 
     /tmp/cciHs8LR.s:364    .text:0000000000000150 .L0 
     /tmp/cciHs8LR.s:368    .text:000000000000015c .L0 
     /tmp/cciHs8LR.s:369    .text:000000000000015c .L0 
     /tmp/cciHs8LR.s:370    .text:000000000000015c .L0 
     /tmp/cciHs8LR.s:372    .text:0000000000000160 .L0 
     /tmp/cciHs8LR.s:375    .text:0000000000000164 .L0 
     /tmp/cciHs8LR.s:381    .text:000000000000017c .L0 
     /tmp/cciHs8LR.s:383    .text:0000000000000180 .L0 
     /tmp/cciHs8LR.s:384    .text:0000000000000180 .L0 
     /tmp/cciHs8LR.s:386    .text:0000000000000184 .L0 
     /tmp/cciHs8LR.s:389    .text:0000000000000188 .L0 
     /tmp/cciHs8LR.s:391    .text:000000000000018c .L0 
     /tmp/cciHs8LR.s:398    .text._ZN14PeriodicThreadD0Ev:0000000000000000 _ZN14PeriodicThreadD0Ev
     /tmp/cciHs8LR.s:401    .text._ZN14PeriodicThreadD0Ev:0000000000000000 .L0 
     /tmp/cciHs8LR.s:403    .text._ZN14PeriodicThreadD0Ev:0000000000000000 .L0 
     /tmp/cciHs8LR.s:404    .text._ZN14PeriodicThreadD0Ev:0000000000000004 .L0 
     /tmp/cciHs8LR.s:408    .text._ZN14PeriodicThreadD0Ev:0000000000000010 .L0 
     /tmp/cciHs8LR.s:409    .text._ZN14PeriodicThreadD0Ev:0000000000000010 .L0 
     /tmp/cciHs8LR.s:410    .text._ZN14PeriodicThreadD0Ev:0000000000000010 .L0 
     /tmp/cciHs8LR.s:412    .text._ZN14PeriodicThreadD0Ev:0000000000000014 .L0 
     /tmp/cciHs8LR.s:418    .text._ZN14PeriodicThreadD0Ev:0000000000000018 .L0 
     /tmp/cciHs8LR.s:428    .text._ZN14PeriodicThreadD0Ev:000000000000003c .L0 
     /tmp/cciHs8LR.s:430    .text._ZN14PeriodicThreadD0Ev:0000000000000040 .L0 
     /tmp/cciHs8LR.s:431    .text._ZN14PeriodicThreadD0Ev:0000000000000040 .L0 
     /tmp/cciHs8LR.s:433    .text._ZN14PeriodicThreadD0Ev:0000000000000044 .L0 
     /tmp/cciHs8LR.s:436    .text._ZN14PeriodicThreadD0Ev:0000000000000048 .L0 
GAS LISTING /tmp/cciHs8LR.s 			page 27


     /tmp/cciHs8LR.s:438    .text._ZN14PeriodicThreadD0Ev:000000000000004c .L0 
     /tmp/cciHs8LR.s:445    .text:000000000000018c _ZN6Thread5startEv
     /tmp/cciHs8LR.s:448    .text:000000000000018c .L0 
     /tmp/cciHs8LR.s:450    .text:000000000000018c .L0 
     /tmp/cciHs8LR.s:451    .text:000000000000018c .L0 
     /tmp/cciHs8LR.s:452    .text:000000000000018c .L0 
     /tmp/cciHs8LR.s:455    .text:0000000000000190 .L0 
     /tmp/cciHs8LR.s:457    .text:0000000000000194 .L0 
     /tmp/cciHs8LR.s:458    .text:0000000000000198 .L0 
     /tmp/cciHs8LR.s:461    .text:00000000000001a0 .L0 
     /tmp/cciHs8LR.s:462    .text:00000000000001a0 .L0 
     /tmp/cciHs8LR.s:464    .text:00000000000001a4 .L0 
     /tmp/cciHs8LR.s:466    .text:00000000000001a4 .L0 
     /tmp/cciHs8LR.s:467    .text:00000000000001a4 .L0 
     /tmp/cciHs8LR.s:470    .text:00000000000001ac .L0 
     /tmp/cciHs8LR.s:471    .text:00000000000001b0 .L0 
     /tmp/cciHs8LR.s:473    .text:00000000000001b4 .L0 
     /tmp/cciHs8LR.s:474    .text:00000000000001b4 .L0 
     /tmp/cciHs8LR.s:476    .text:00000000000001b8 .L0 
     /tmp/cciHs8LR.s:480    .text:00000000000001bc .L0 
     /tmp/cciHs8LR.s:482    .text:00000000000001c0 .L0 
     /tmp/cciHs8LR.s:483    .text:00000000000001c4 .L0 
     /tmp/cciHs8LR.s:489    .text:00000000000001c4 _ZN6Thread8dispatchEv
     /tmp/cciHs8LR.s:492    .text:00000000000001c4 .L0 
     /tmp/cciHs8LR.s:493    .text:00000000000001c4 .L0 
     /tmp/cciHs8LR.s:494    .text:00000000000001c8 .L0 
     /tmp/cciHs8LR.s:497    .text:00000000000001d0 .L0 
     /tmp/cciHs8LR.s:498    .text:00000000000001d0 .L0 
     /tmp/cciHs8LR.s:500    .text:00000000000001d4 .L0 
     /tmp/cciHs8LR.s:502    .text:00000000000001d4 .L0 
     /tmp/cciHs8LR.s:503    .text:00000000000001d4 .L0 
     /tmp/cciHs8LR.s:506    .text:00000000000001dc .L0 
     /tmp/cciHs8LR.s:507    .text:00000000000001e0 .L0 
     /tmp/cciHs8LR.s:509    .text:00000000000001e4 .L0 
     /tmp/cciHs8LR.s:510    .text:00000000000001e4 .L0 
     /tmp/cciHs8LR.s:512    .text:00000000000001e8 .L0 
     /tmp/cciHs8LR.s:514    .text:00000000000001ec .L0 
     /tmp/cciHs8LR.s:520    .text:00000000000001ec _ZN6Thread5sleepEm
     /tmp/cciHs8LR.s:523    .text:00000000000001ec .L0 
     /tmp/cciHs8LR.s:525    .text:00000000000001ec .L0 
     /tmp/cciHs8LR.s:526    .text:00000000000001f0 .L0 
     /tmp/cciHs8LR.s:529    .text:00000000000001f8 .L0 
     /tmp/cciHs8LR.s:530    .text:00000000000001f8 .L0 
     /tmp/cciHs8LR.s:532    .text:00000000000001fc .L0 
     /tmp/cciHs8LR.s:534    .text:00000000000001fc .L0 
     /tmp/cciHs8LR.s:535    .text:00000000000001fc .L0 
     /tmp/cciHs8LR.s:538    .text:0000000000000204 .L0 
     /tmp/cciHs8LR.s:539    .text:0000000000000208 .L0 
     /tmp/cciHs8LR.s:541    .text:000000000000020c .L0 
     /tmp/cciHs8LR.s:542    .text:000000000000020c .L0 
     /tmp/cciHs8LR.s:544    .text:0000000000000210 .L0 
     /tmp/cciHs8LR.s:546    .text:0000000000000214 .L0 
     /tmp/cciHs8LR.s:552    .text:0000000000000214 _ZN14PeriodicThread6runnerEPv
     /tmp/cciHs8LR.s:555    .text:0000000000000214 .L0 
     /tmp/cciHs8LR.s:557    .text:0000000000000214 .L0 
     /tmp/cciHs8LR.s:558    .text:0000000000000218 .L0 
     /tmp/cciHs8LR.s:563    .text:0000000000000228 .L0 
GAS LISTING /tmp/cciHs8LR.s 			page 28


     /tmp/cciHs8LR.s:564    .text:0000000000000228 .L0 
     /tmp/cciHs8LR.s:565    .text:0000000000000228 .L0 
     /tmp/cciHs8LR.s:566    .text:0000000000000228 .L0 
     /tmp/cciHs8LR.s:568    .text:000000000000022c .L0 
     /tmp/cciHs8LR.s:570    .text:000000000000022c .L0 
     /tmp/cciHs8LR.s:571    .text:000000000000022c .L0 
     /tmp/cciHs8LR.s:574    .text:0000000000000230 .L0 
     /tmp/cciHs8LR.s:575    .text:0000000000000230 .L0 
     /tmp/cciHs8LR.s:579    .text:0000000000000234 .L0 
     /tmp/cciHs8LR.s:580    .text:0000000000000234 .L0 
     /tmp/cciHs8LR.s:581    .text:0000000000000234 .L0 
     /tmp/cciHs8LR.s:584    .text:000000000000023c .L0 
     /tmp/cciHs8LR.s:588    .text:0000000000000244 .L0 
     /tmp/cciHs8LR.s:589    .text:0000000000000244 .L0 
     /tmp/cciHs8LR.s:593    .text:0000000000000250 .L0 
     /tmp/cciHs8LR.s:594    .text:0000000000000254 .L0 
     /tmp/cciHs8LR.s:600    .text:0000000000000254 _ZN6ThreadC2EPFvPvES0_
     /tmp/cciHs8LR.s:603    .text:0000000000000254 .L0 
     /tmp/cciHs8LR.s:605    .text:0000000000000254 .L0 
     /tmp/cciHs8LR.s:606    .text:0000000000000258 .L0 
     /tmp/cciHs8LR.s:609    .text:0000000000000260 .L0 
     /tmp/cciHs8LR.s:610    .text:0000000000000260 .L0 
     /tmp/cciHs8LR.s:612    .text:0000000000000264 .L0 
     /tmp/cciHs8LR.s:615    .text:0000000000000264 .L0 
     /tmp/cciHs8LR.s:618    .text:0000000000000270 .L0 
     /tmp/cciHs8LR.s:619    .text:0000000000000270 .L0 
     /tmp/cciHs8LR.s:625    .text:000000000000027c .L0 
     /tmp/cciHs8LR.s:626    .text:0000000000000280 .L0 
     /tmp/cciHs8LR.s:628    .text:0000000000000284 .L0 
     /tmp/cciHs8LR.s:629    .text:0000000000000284 .L0 
     /tmp/cciHs8LR.s:631    .text:0000000000000288 .L0 
     /tmp/cciHs8LR.s:633    .text:000000000000028c .L0 
     /tmp/cciHs8LR.s:600    .text:0000000000000254 _ZN6ThreadC1EPFvPvES0_
     /tmp/cciHs8LR.s:641    .text:000000000000028c _ZN6ThreadC2Ev
     /tmp/cciHs8LR.s:644    .text:000000000000028c .L0 
     /tmp/cciHs8LR.s:646    .text:000000000000028c .L0 
     /tmp/cciHs8LR.s:647    .text:0000000000000290 .L0 
     /tmp/cciHs8LR.s:650    .text:0000000000000298 .L0 
     /tmp/cciHs8LR.s:651    .text:0000000000000298 .L0 
     /tmp/cciHs8LR.s:653    .text:000000000000029c .L0 
     /tmp/cciHs8LR.s:656    .text:000000000000029c .L0 
     /tmp/cciHs8LR.s:659    .text:00000000000002a8 .L0 
     /tmp/cciHs8LR.s:660    .text:00000000000002a8 .L0 
     /tmp/cciHs8LR.s:668    .text:00000000000002c0 .L0 
     /tmp/cciHs8LR.s:669    .text:00000000000002c4 .L0 
     /tmp/cciHs8LR.s:671    .text:00000000000002c8 .L0 
     /tmp/cciHs8LR.s:672    .text:00000000000002c8 .L0 
     /tmp/cciHs8LR.s:674    .text:00000000000002cc .L0 
     /tmp/cciHs8LR.s:676    .text:00000000000002d0 .L0 
     /tmp/cciHs8LR.s:641    .text:000000000000028c _ZN6ThreadC1Ev
     /tmp/cciHs8LR.s:684    .text:00000000000002d0 _ZN9Semaphore4waitEv
     /tmp/cciHs8LR.s:687    .text:00000000000002d0 .L0 
     /tmp/cciHs8LR.s:689    .text:00000000000002d0 .L0 
     /tmp/cciHs8LR.s:690    .text:00000000000002d0 .L0 
     /tmp/cciHs8LR.s:691    .text:00000000000002d0 .L0 
     /tmp/cciHs8LR.s:694    .text:00000000000002d4 .L0 
     /tmp/cciHs8LR.s:696    .text:00000000000002d8 .L0 
GAS LISTING /tmp/cciHs8LR.s 			page 29


     /tmp/cciHs8LR.s:697    .text:00000000000002dc .L0 
     /tmp/cciHs8LR.s:700    .text:00000000000002e4 .L0 
     /tmp/cciHs8LR.s:701    .text:00000000000002e4 .L0 
     /tmp/cciHs8LR.s:703    .text:00000000000002e8 .L0 
     /tmp/cciHs8LR.s:705    .text:00000000000002e8 .L0 
     /tmp/cciHs8LR.s:706    .text:00000000000002e8 .L0 
     /tmp/cciHs8LR.s:709    .text:00000000000002f0 .L0 
     /tmp/cciHs8LR.s:710    .text:00000000000002f4 .L0 
     /tmp/cciHs8LR.s:712    .text:00000000000002f8 .L0 
     /tmp/cciHs8LR.s:713    .text:00000000000002f8 .L0 
     /tmp/cciHs8LR.s:715    .text:00000000000002fc .L0 
     /tmp/cciHs8LR.s:719    .text:0000000000000300 .L0 
     /tmp/cciHs8LR.s:721    .text:0000000000000304 .L0 
     /tmp/cciHs8LR.s:722    .text:0000000000000308 .L0 
     /tmp/cciHs8LR.s:728    .text:0000000000000308 _ZN9SemaphoreC2Ej
     /tmp/cciHs8LR.s:731    .text:0000000000000308 .L0 
     /tmp/cciHs8LR.s:733    .text:0000000000000308 .L0 
     /tmp/cciHs8LR.s:734    .text:000000000000030c .L0 
     /tmp/cciHs8LR.s:738    .text:0000000000000318 .L0 
     /tmp/cciHs8LR.s:739    .text:0000000000000318 .L0 
     /tmp/cciHs8LR.s:740    .text:0000000000000318 .L0 
     /tmp/cciHs8LR.s:742    .text:000000000000031c .L0 
     /tmp/cciHs8LR.s:746    .text:0000000000000320 .L0 
     /tmp/cciHs8LR.s:750    .text:000000000000032c .L0 
     /tmp/cciHs8LR.s:751    .text:000000000000032c .L0 
     /tmp/cciHs8LR.s:756    .text:0000000000000338 .L0 
     /tmp/cciHs8LR.s:758    .text:000000000000033c .L0 
     /tmp/cciHs8LR.s:759    .text:000000000000033c .L0 
     /tmp/cciHs8LR.s:764    .text:0000000000000340 .L0 
     /tmp/cciHs8LR.s:765    .text:0000000000000344 .L0 
     /tmp/cciHs8LR.s:767    .text:0000000000000348 .L0 
     /tmp/cciHs8LR.s:768    .text:0000000000000348 .L0 
     /tmp/cciHs8LR.s:770    .text:000000000000034c .L0 
     /tmp/cciHs8LR.s:773    .text:0000000000000350 .L0 
     /tmp/cciHs8LR.s:775    .text:0000000000000354 .L0 
     /tmp/cciHs8LR.s:728    .text:0000000000000308 _ZN9SemaphoreC1Ej
     /tmp/cciHs8LR.s:783    .text:0000000000000354 _ZN9Semaphore6signalEv
     /tmp/cciHs8LR.s:786    .text:0000000000000354 .L0 
     /tmp/cciHs8LR.s:788    .text:0000000000000354 .L0 
     /tmp/cciHs8LR.s:789    .text:0000000000000354 .L0 
     /tmp/cciHs8LR.s:790    .text:0000000000000354 .L0 
     /tmp/cciHs8LR.s:793    .text:0000000000000358 .L0 
     /tmp/cciHs8LR.s:795    .text:000000000000035c .L0 
     /tmp/cciHs8LR.s:796    .text:0000000000000360 .L0 
     /tmp/cciHs8LR.s:799    .text:0000000000000368 .L0 
     /tmp/cciHs8LR.s:800    .text:0000000000000368 .L0 
     /tmp/cciHs8LR.s:802    .text:000000000000036c .L0 
     /tmp/cciHs8LR.s:804    .text:000000000000036c .L0 
     /tmp/cciHs8LR.s:805    .text:000000000000036c .L0 
     /tmp/cciHs8LR.s:808    .text:0000000000000374 .L0 
     /tmp/cciHs8LR.s:809    .text:0000000000000378 .L0 
     /tmp/cciHs8LR.s:811    .text:000000000000037c .L0 
     /tmp/cciHs8LR.s:812    .text:000000000000037c .L0 
     /tmp/cciHs8LR.s:814    .text:0000000000000380 .L0 
     /tmp/cciHs8LR.s:818    .text:0000000000000384 .L0 
     /tmp/cciHs8LR.s:820    .text:0000000000000388 .L0 
     /tmp/cciHs8LR.s:821    .text:000000000000038c .L0 
GAS LISTING /tmp/cciHs8LR.s 			page 30


     /tmp/cciHs8LR.s:827    .text:000000000000038c _ZN7Console4getcEv
     /tmp/cciHs8LR.s:830    .text:000000000000038c .L0 
     /tmp/cciHs8LR.s:831    .text:000000000000038c .L0 
     /tmp/cciHs8LR.s:832    .text:0000000000000390 .L0 
     /tmp/cciHs8LR.s:834    .text:0000000000000394 .L0 
     /tmp/cciHs8LR.s:836    .text:0000000000000398 .L0 
     /tmp/cciHs8LR.s:838    .text:0000000000000398 .L0 
     /tmp/cciHs8LR.s:839    .text:0000000000000398 .L0 
     /tmp/cciHs8LR.s:841    .text:00000000000003a0 .L0 
     /tmp/cciHs8LR.s:842    .text:00000000000003a0 .L0 
     /tmp/cciHs8LR.s:844    .text:00000000000003a4 .L0 
     /tmp/cciHs8LR.s:846    .text:00000000000003a8 .L0 
     /tmp/cciHs8LR.s:852    .text:00000000000003a8 _ZN7Console4putcEc
     /tmp/cciHs8LR.s:855    .text:00000000000003a8 .L0 
     /tmp/cciHs8LR.s:856    .text:00000000000003a8 .L0 
     /tmp/cciHs8LR.s:857    .text:00000000000003ac .L0 
     /tmp/cciHs8LR.s:859    .text:00000000000003b0 .L0 
     /tmp/cciHs8LR.s:861    .text:00000000000003b4 .L0 
     /tmp/cciHs8LR.s:863    .text:00000000000003b4 .L0 
     /tmp/cciHs8LR.s:864    .text:00000000000003b8 .L0 
     /tmp/cciHs8LR.s:865    .text:00000000000003b8 .L0 
     /tmp/cciHs8LR.s:867    .text:00000000000003bc .L0 
     /tmp/cciHs8LR.s:869    .text:00000000000003c0 .L0 
     /tmp/cciHs8LR.s:875    .text:00000000000003c0 _ZN14PeriodicThreadC2Em
     /tmp/cciHs8LR.s:878    .text:00000000000003c0 .L0 
     /tmp/cciHs8LR.s:880    .text:00000000000003c0 .L0 
     /tmp/cciHs8LR.s:881    .text:00000000000003c4 .L0 
     /tmp/cciHs8LR.s:886    .text:00000000000003d4 .L0 
     /tmp/cciHs8LR.s:887    .text:00000000000003d4 .L0 
     /tmp/cciHs8LR.s:888    .text:00000000000003d4 .L0 
     /tmp/cciHs8LR.s:889    .text:00000000000003d4 .L0 
     /tmp/cciHs8LR.s:891    .text:00000000000003d8 .L0 
     /tmp/cciHs8LR.s:896    .text:00000000000003e0 .L0 
     /tmp/cciHs8LR.s:905    .text:00000000000003f0 .L0 
     /tmp/cciHs8LR.s:911    .text:00000000000003f8 .L0 
     /tmp/cciHs8LR.s:919    .text:0000000000000418 .L0 
     /tmp/cciHs8LR.s:920    .text:000000000000041c .L0 
     /tmp/cciHs8LR.s:922    .text:0000000000000420 .L0 
     /tmp/cciHs8LR.s:923    .text:0000000000000420 .L0 
     /tmp/cciHs8LR.s:925    .text:0000000000000424 .L0 
     /tmp/cciHs8LR.s:928    .text:0000000000000428 .L0 
     /tmp/cciHs8LR.s:931    .text:000000000000042c .L0 
     /tmp/cciHs8LR.s:933    .text:0000000000000430 .L0 
     /tmp/cciHs8LR.s:875    .text:00000000000003c0 _ZN14PeriodicThreadC1Em
     /tmp/cciHs8LR.s:32     .text._ZN6Thread3runEv:0000000000000018 .L0 
     /tmp/cciHs8LR.s:57     .text._ZN14PeriodicThread18periodicActivationEv:0000000000000018 .L0 
     /tmp/cciHs8LR.s:976    .text:0000000000000430 .L0 
     /tmp/cciHs8LR.s:147    .text._ZN14PeriodicThreadD2Ev:0000000000000034 .L0 
     /tmp/cciHs8LR.s:441    .text._ZN14PeriodicThreadD0Ev:000000000000004c .L0 
     /tmp/cciHs8LR.s:79     .text:0000000000000010 .L0 
     /tmp/cciHs8LR.s:168    .text:0000000000000048 .L0 
     /tmp/cciHs8LR.s:200    .rodata.str1.8:0000000000000000 .LC0
     /tmp/cciHs8LR.s:224    .text:0000000000000088 .L0 
     /tmp/cciHs8LR.s:615    .text:0000000000000264 .L0 
     /tmp/cciHs8LR.s:656    .text:000000000000029c .L0 
     /tmp/cciHs8LR.s:661    .text:00000000000002ac .L0 
     /tmp/cciHs8LR.s:746    .text:0000000000000320 .L0 
GAS LISTING /tmp/cciHs8LR.s 			page 31


     /tmp/cciHs8LR.s:911    .text:00000000000003f8 .L0 
     /tmp/cciHs8LR.s:915    .text:000000000000040c .L0 
     /tmp/cciHs8LR.s:478    .text:00000000000001bc .L25
     /tmp/cciHs8LR.s:577    .text:0000000000000234 .L35
     /tmp/cciHs8LR.s:717    .text:0000000000000300 .L43
     /tmp/cciHs8LR.s:760    .text:0000000000000340 .L48
     /tmp/cciHs8LR.s:816    .text:0000000000000384 .L53
     /tmp/cciHs8LR.s:129    .text._ZN14PeriodicThreadD2Ev:0000000000000010 .L0 
     /tmp/cciHs8LR.s:418    .text._ZN14PeriodicThreadD0Ev:0000000000000018 .L0 
     /tmp/cciHs8LR.s:2806   .debug_abbrev:0000000000000000 .Ldebug_abbrev0
     /tmp/cciHs8LR.s:4481   .debug_str:000000000000010f .LASF173
     /tmp/cciHs8LR.s:4601   .debug_str:0000000000000559 .LASF174
     /tmp/cciHs8LR.s:4755   .debug_str:0000000000000a02 .LASF175
     /tmp/cciHs8LR.s:4431   .debug_ranges:0000000000000000 .Ldebug_ranges0
     /tmp/cciHs8LR.s:4445   .debug_line:0000000000000000 .Ldebug_line0
     /tmp/cciHs8LR.s:4583   .debug_str:00000000000004cd .LASF0
     /tmp/cciHs8LR.s:4619   .debug_str:0000000000000609 .LASF1
     /tmp/cciHs8LR.s:4703   .debug_str:0000000000000874 .LASF2
     /tmp/cciHs8LR.s:4711   .debug_str:00000000000008b0 .LASF4
     /tmp/cciHs8LR.s:4603   .debug_str:000000000000056d .LASF3
     /tmp/cciHs8LR.s:4457   .debug_str:000000000000005d .LASF5
     /tmp/cciHs8LR.s:4679   .debug_str:00000000000007cf .LASF6
     /tmp/cciHs8LR.s:4669   .debug_str:0000000000000788 .LASF7
     /tmp/cciHs8LR.s:4613   .debug_str:00000000000005de .LASF8
     /tmp/cciHs8LR.s:4553   .debug_str:00000000000003d6 .LASF9
     /tmp/cciHs8LR.s:4563   .debug_str:0000000000000444 .LASF10
     /tmp/cciHs8LR.s:4491   .debug_str:0000000000000203 .LASF11
     /tmp/cciHs8LR.s:4549   .debug_str:00000000000003c2 .LASF12
     /tmp/cciHs8LR.s:4505   .debug_str:0000000000000284 .LASF13
     /tmp/cciHs8LR.s:4489   .debug_str:00000000000001f3 .LASF14
     /tmp/cciHs8LR.s:4729   .debug_str:000000000000092e .LASF15
     /tmp/cciHs8LR.s:4535   .debug_str:0000000000000350 .LASF16
     /tmp/cciHs8LR.s:4723   .debug_str:00000000000008f9 .LASF17
     /tmp/cciHs8LR.s:4743   .debug_str:000000000000098e .LASF18
     /tmp/cciHs8LR.s:4791   .debug_str:0000000000000b31 .LASF19
     /tmp/cciHs8LR.s:4777   .debug_str:0000000000000ad6 .LASF101
     /tmp/cciHs8LR.s:4577   .debug_str:000000000000049a .LASF20
     /tmp/cciHs8LR.s:4725   .debug_str:000000000000090f .LASF22
     /tmp/cciHs8LR.s:4649   .debug_str:00000000000006fd .LASF21
     /tmp/cciHs8LR.s:4635   .debug_str:0000000000000696 .LASF23
     /tmp/cciHs8LR.s:4533   .debug_str:0000000000000346 .LASF24
     /tmp/cciHs8LR.s:4451   .debug_str:0000000000000035 .LASF25
     /tmp/cciHs8LR.s:4639   .debug_str:00000000000006b3 .LASF32
     /tmp/cciHs8LR.s:4773   .debug_str:0000000000000aae .LASF34
     /tmp/cciHs8LR.s:4771   .debug_str:0000000000000a9d .LASF26
     /tmp/cciHs8LR.s:4629   .debug_str:0000000000000656 .LASF27
     /tmp/cciHs8LR.s:4527   .debug_str:0000000000000314 .LASF28
     /tmp/cciHs8LR.s:4495   .debug_str:0000000000000224 .LASF29
     /tmp/cciHs8LR.s:4595   .debug_str:000000000000051a .LASF30
     /tmp/cciHs8LR.s:4509   .debug_str:000000000000029f .LASF31
     /tmp/cciHs8LR.s:4793   .debug_str:0000000000000b37 .LASF33
     /tmp/cciHs8LR.s:4465   .debug_str:0000000000000093 .LASF35
     /tmp/cciHs8LR.s:4677   .debug_str:00000000000007c2 .LASF36
     /tmp/cciHs8LR.s:4467   .debug_str:00000000000000ae .LASF37
     /tmp/cciHs8LR.s:4475   .debug_str:00000000000000e3 .LASF38
     /tmp/cciHs8LR.s:4555   .debug_str:00000000000003e6 .LASF39
     /tmp/cciHs8LR.s:4717   .debug_str:00000000000008d1 .LASF40
GAS LISTING /tmp/cciHs8LR.s 			page 32


     /tmp/cciHs8LR.s:4539   .debug_str:0000000000000376 .LASF41
     /tmp/cciHs8LR.s:4587   .debug_str:00000000000004ea .LASF42
     /tmp/cciHs8LR.s:4781   .debug_str:0000000000000ae6 .LASF43
     /tmp/cciHs8LR.s:4767   .debug_str:0000000000000a8a .LASF46
     /tmp/cciHs8LR.s:4757   .debug_str:0000000000000a25 .LASF48
     /tmp/cciHs8LR.s:4699   .debug_str:0000000000000860 .LASF44
     /tmp/cciHs8LR.s:4661   .debug_str:000000000000074e .LASF45
     /tmp/cciHs8LR.s:4683   .debug_str:00000000000007ed .LASF47
     /tmp/cciHs8LR.s:4685   .debug_str:00000000000007f4 .LASF49
     /tmp/cciHs8LR.s:4655   .debug_str:0000000000000723 .LASF50
     /tmp/cciHs8LR.s:4615   .debug_str:00000000000005f1 .LASF51
     /tmp/cciHs8LR.s:4783   .debug_str:0000000000000b00 .LASF52
     /tmp/cciHs8LR.s:4749   .debug_str:00000000000009c2 .LASF53
     /tmp/cciHs8LR.s:4651   .debug_str:0000000000000708 .LASF54
     /tmp/cciHs8LR.s:4659   .debug_str:000000000000073a .LASF55
     /tmp/cciHs8LR.s:4645   .debug_str:00000000000006e3 .LASF56
     /tmp/cciHs8LR.s:4687   .debug_str:0000000000000807 .LASF57
     /tmp/cciHs8LR.s:4805   .debug_str:0000000000000b83 .LASF58
     /tmp/cciHs8LR.s:4591   .debug_str:00000000000004fd .LASF59
     /tmp/cciHs8LR.s:4727   .debug_str:0000000000000927 .LASF60
     /tmp/cciHs8LR.s:4713   .debug_str:00000000000008b7 .LASF61
     /tmp/cciHs8LR.s:4715   .debug_str:00000000000008ca .LASF62
     /tmp/cciHs8LR.s:4531   .debug_str:0000000000000333 .LASF63
     /tmp/cciHs8LR.s:4525   .debug_str:000000000000030e .LASF64
     /tmp/cciHs8LR.s:4461   .debug_str:000000000000006f .LASF65
     /tmp/cciHs8LR.s:4589   .debug_str:00000000000004f7 .LASF66
     /tmp/cciHs8LR.s:4517   .debug_str:00000000000002e9 .LASF67
     /tmp/cciHs8LR.s:4459   .debug_str:0000000000000064 .LASF68
     /tmp/cciHs8LR.s:4709   .debug_str:0000000000000898 .LASF69
     /tmp/cciHs8LR.s:4701   .debug_str:0000000000000869 .LASF70
     /tmp/cciHs8LR.s:4801   .debug_str:0000000000000b5e .LASF71
     /tmp/cciHs8LR.s:4707   .debug_str:0000000000000891 .LASF72
     /tmp/cciHs8LR.s:4487   .debug_str:00000000000001e0 .LASF73
     /tmp/cciHs8LR.s:4779   .debug_str:0000000000000adc .LASF74
     /tmp/cciHs8LR.s:4503   .debug_str:000000000000026e .LASF75
     /tmp/cciHs8LR.s:4775   .debug_str:0000000000000acc .LASF76
     /tmp/cciHs8LR.s:4641   .debug_str:00000000000006c3 .LASF77
     /tmp/cciHs8LR.s:4515   .debug_str:00000000000002e3 .LASF78
     /tmp/cciHs8LR.s:4571   .debug_str:0000000000000477 .LASF79
     /tmp/cciHs8LR.s:4575   .debug_str:0000000000000494 .LASF80
     /tmp/cciHs8LR.s:4511   .debug_str:00000000000002be .LASF81
     /tmp/cciHs8LR.s:4573   .debug_str:0000000000000489 .LASF82
     /tmp/cciHs8LR.s:4579   .debug_str:00000000000004a5 .LASF83
     /tmp/cciHs8LR.s:4763   .debug_str:0000000000000a60 .LASF84
     /tmp/cciHs8LR.s:4561   .debug_str:0000000000000428 .LASF85
     /tmp/cciHs8LR.s:4675   .debug_str:00000000000007ad .LASF86
     /tmp/cciHs8LR.s:4607   .debug_str:0000000000000597 .LASF87
     /tmp/cciHs8LR.s:4471   .debug_str:00000000000000cd .LASF88
     /tmp/cciHs8LR.s:4633   .debug_str:0000000000000679 .LASF89
     /tmp/cciHs8LR.s:4693   .debug_str:0000000000000834 .LASF90
     /tmp/cciHs8LR.s:4453   .debug_str:000000000000004b .LASF91
     /tmp/cciHs8LR.s:4477   .debug_str:00000000000000ed .LASF92
     /tmp/cciHs8LR.s:4759   .debug_str:0000000000000a3a .LASF93
     /tmp/cciHs8LR.s:4479   .debug_str:00000000000000fc .LASF94
     /tmp/cciHs8LR.s:4647   .debug_str:00000000000006eb .LASF95
     /tmp/cciHs8LR.s:4565   .debug_str:0000000000000452 .LASF96
     /tmp/cciHs8LR.s:4653   .debug_str:0000000000000710 .LASF97
GAS LISTING /tmp/cciHs8LR.s 			page 33


     /tmp/cciHs8LR.s:4485   .debug_str:00000000000001cc .LASF98
     /tmp/cciHs8LR.s:4735   .debug_str:000000000000094a .LASF99
     /tmp/cciHs8LR.s:4631   .debug_str:0000000000000674 .LASF100
     /tmp/cciHs8LR.s:4663   .debug_str:0000000000000763 .LASF102
     /tmp/cciHs8LR.s:4499   .debug_str:0000000000000257 .LASF103
     /tmp/cciHs8LR.s:4513   .debug_str:00000000000002d0 .LASF104
     /tmp/cciHs8LR.s:4637   .debug_str:00000000000006ae .LASF106
     /tmp/cciHs8LR.s:4787   .debug_str:0000000000000b17 .LASF108
     /tmp/cciHs8LR.s:4611   .debug_str:00000000000005d1 .LASF107
     /tmp/cciHs8LR.s:4673   .debug_str:00000000000007a8 .LASF105
     /tmp/cciHs8LR.s:4747   .debug_str:00000000000009aa .LASF109
     /tmp/cciHs8LR.s:4769   .debug_str:0000000000000a93 .LASF110
     /tmp/cciHs8LR.s:4739   .debug_str:0000000000000961 .LASF117
     /tmp/cciHs8LR.s:4799   .debug_str:0000000000000b4e .LASF119
     /tmp/cciHs8LR.s:4737   .debug_str:000000000000094f .LASF121
     /tmp/cciHs8LR.s:4449   .debug_str:000000000000002a .LASF123
     /tmp/cciHs8LR.s:4719   .debug_str:00000000000008df .LASF125
     /tmp/cciHs8LR.s:4523   .debug_str:0000000000000309 .LASF111
     /tmp/cciHs8LR.s:4753   .debug_str:00000000000009ed .LASF113
     /tmp/cciHs8LR.s:4731   .debug_str:000000000000093a .LASF112
     /tmp/cciHs8LR.s:4681   .debug_str:00000000000007d6 .LASF114
     /tmp/cciHs8LR.s:4593   .debug_str:0000000000000511 .LASF115
     /tmp/cciHs8LR.s:4581   .debug_str:00000000000004bd .LASF176
     /tmp/cciHs8LR.s:4569   .debug_str:0000000000000470 .LASF116
     /tmp/cciHs8LR.s:4501   .debug_str:000000000000025c .LASF118
     /tmp/cciHs8LR.s:4695   .debug_str:000000000000083b .LASF120
     /tmp/cciHs8LR.s:4809   .debug_str:0000000000000b94 .LASF122
     /tmp/cciHs8LR.s:4721   .debug_str:00000000000008f1 .LASF124
     /tmp/cciHs8LR.s:4545   .debug_str:00000000000003ad .LASF126
     /tmp/cciHs8LR.s:4795   .debug_str:0000000000000b43 .LASF127
     /tmp/cciHs8LR.s:4623   .debug_str:0000000000000622 .LASF128
     /tmp/cciHs8LR.s:4521   .debug_str:0000000000000300 .LASF129
     /tmp/cciHs8LR.s:4667   .debug_str:0000000000000772 .LASF130
     /tmp/cciHs8LR.s:4621   .debug_str:000000000000061c .LASF131
     /tmp/cciHs8LR.s:4745   .debug_str:0000000000000997 .LASF132
     /tmp/cciHs8LR.s:4597   .debug_str:000000000000052c .LASF133
     /tmp/cciHs8LR.s:4483   .debug_str:00000000000001bb .LASF177
     /tmp/cciHs8LR.s:4789   .debug_str:0000000000000b2a .LASF139
     /tmp/cciHs8LR.s:4541   .debug_str:0000000000000391 .LASF178
     /tmp/cciHs8LR.s:4497   .debug_str:0000000000000248 .LASF134
     /tmp/cciHs8LR.s:4761   .debug_str:0000000000000a46 .LASF135
     /tmp/cciHs8LR.s:4765   .debug_str:0000000000000a6f .LASF136
     /tmp/cciHs8LR.s:4609   .debug_str:00000000000005b9 .LASF137
     /tmp/cciHs8LR.s:4559   .debug_str:0000000000000415 .LASF138
     /tmp/cciHs8LR.s:4447   .debug_str:0000000000000000 .LASF179
     /tmp/cciHs8LR.s:4599   .debug_str:000000000000053b .LASF140
     /tmp/cciHs8LR.s:4657   .debug_str:000000000000072a .LASF141
     /tmp/cciHs8LR.s:4557   .debug_str:00000000000003fd .LASF180
     /tmp/cciHs8LR.s:4551   .debug_str:00000000000003d1 .LASF142
     /tmp/cciHs8LR.s:4455   .debug_str:0000000000000053 .LASF143
     /tmp/cciHs8LR.s:4811   .debug_str:0000000000000bab .LASF144
     /tmp/cciHs8LR.s:399    .text._ZN14PeriodicThreadD0Ev:0000000000000000 .LFB63
     /tmp/cciHs8LR.s:439    .text._ZN14PeriodicThreadD0Ev:000000000000004c .LFE63
     /tmp/cciHs8LR.s:4018   .debug_loc:0000000000000000 .LLST9
     /tmp/cciHs8LR.s:415    .text._ZN14PeriodicThreadD0Ev:0000000000000018 .LBB12
     /tmp/cciHs8LR.s:423    .text._ZN14PeriodicThreadD0Ev:000000000000002c .LBE12
     /tmp/cciHs8LR.s:4036   .debug_loc:000000000000004c .LLST10
GAS LISTING /tmp/cciHs8LR.s 			page 34


     /tmp/cciHs8LR.s:421    .text._ZN14PeriodicThreadD0Ev:000000000000002c .LVL29
     /tmp/cciHs8LR.s:426    .text._ZN14PeriodicThreadD0Ev:0000000000000038 .LVL30
     /tmp/cciHs8LR.s:4697   .debug_str:0000000000000848 .LASF145
     /tmp/cciHs8LR.s:115    .text._ZN14PeriodicThreadD2Ev:0000000000000000 .LFB61
     /tmp/cciHs8LR.s:143    .text._ZN14PeriodicThreadD2Ev:0000000000000034 .LFE61
     /tmp/cciHs8LR.s:4047   .debug_loc:0000000000000082 .LLST1
     /tmp/cciHs8LR.s:132    .text._ZN14PeriodicThreadD2Ev:0000000000000024 .LVL6
     /tmp/cciHs8LR.s:553    .text:0000000000000214 .LFB59
     /tmp/cciHs8LR.s:595    .text:0000000000000254 .LFE59
     /tmp/cciHs8LR.s:4061   .debug_loc:00000000000000bb .LLST13
     /tmp/cciHs8LR.s:4529   .debug_str:000000000000032b .LASF146
     /tmp/cciHs8LR.s:586    .text:0000000000000244 .LVL41
     /tmp/cciHs8LR.s:591    .text:0000000000000250 .LVL42
     /tmp/cciHs8LR.s:4473   .debug_str:00000000000000dc .LASF150
     /tmp/cciHs8LR.s:4605   .debug_str:000000000000057f .LASF147
     /tmp/cciHs8LR.s:876    .text:00000000000003c0 .LFB57
     /tmp/cciHs8LR.s:934    .text:0000000000000430 .LFE57
     /tmp/cciHs8LR.s:4075   .debug_loc:00000000000000f4 .LLST22
     /tmp/cciHs8LR.s:4093   .debug_loc:0000000000000140 .LLST23
     /tmp/cciHs8LR.s:902    .text:00000000000003f0 .LBB19
     /tmp/cciHs8LR.s:909    .text:00000000000003f8 .LBE19
     /tmp/cciHs8LR.s:4111   .debug_loc:000000000000018c .LLST24
     /tmp/cciHs8LR.s:4118   .debug_loc:00000000000001af .LLST25
     /tmp/cciHs8LR.s:4125   .debug_loc:00000000000001d2 .LLST26
     /tmp/cciHs8LR.s:899    .text:00000000000003ec .LVL61
     /tmp/cciHs8LR.s:914    .text:000000000000040c .LVL64
     /tmp/cciHs8LR.s:853    .text:00000000000003a8 .LFB55
     /tmp/cciHs8LR.s:870    .text:00000000000003c0 .LFE55
     /tmp/cciHs8LR.s:828    .text:000000000000038c .LFB54
     /tmp/cciHs8LR.s:847    .text:00000000000003a8 .LFE54
     /tmp/cciHs8LR.s:4625   .debug_str:0000000000000635 .LASF148
     /tmp/cciHs8LR.s:359    .text:000000000000014c .LFB53
     /tmp/cciHs8LR.s:392    .text:000000000000018c .LFE53
     /tmp/cciHs8LR.s:4132   .debug_loc:00000000000001f5 .LLST8
     /tmp/cciHs8LR.s:376    .text:000000000000016c .LVL24
     /tmp/cciHs8LR.s:379    .text:0000000000000178 .LVL25
     /tmp/cciHs8LR.s:4463   .debug_str:0000000000000081 .LASF149
     /tmp/cciHs8LR.s:152    .text:0000000000000038 .LFB51
     /tmp/cciHs8LR.s:187    .text:0000000000000070 .LFE51
     /tmp/cciHs8LR.s:4150   .debug_loc:0000000000000241 .LLST2
     /tmp/cciHs8LR.s:175    .text:0000000000000060 .LVL9
     /tmp/cciHs8LR.s:784    .text:0000000000000354 .LFB49
     /tmp/cciHs8LR.s:822    .text:000000000000038c .LFE49
     /tmp/cciHs8LR.s:4164   .debug_loc:000000000000027a .LLST21
     /tmp/cciHs8LR.s:806    .text:0000000000000374 .LVL58
     /tmp/cciHs8LR.s:4469   .debug_str:00000000000000c8 .LASF151
     /tmp/cciHs8LR.s:4543   .debug_str:00000000000003a6 .LASF181
     /tmp/cciHs8LR.s:4493   .debug_str:0000000000000212 .LASF152
     /tmp/cciHs8LR.s:729    .text:0000000000000308 .LFB47
     /tmp/cciHs8LR.s:776    .text:0000000000000354 .LFE47
     /tmp/cciHs8LR.s:4178   .debug_loc:00000000000002b3 .LLST19
     /tmp/cciHs8LR.s:4196   .debug_loc:00000000000002ff .LLST20
     /tmp/cciHs8LR.s:754    .text:0000000000000338 .LVL54
     /tmp/cciHs8LR.s:748    .text:000000000000032c .LBB17
     /tmp/cciHs8LR.s:761    .text:0000000000000340 .LBE17
     /tmp/cciHs8LR.s:685    .text:00000000000002d0 .LFB45
     /tmp/cciHs8LR.s:723    .text:0000000000000308 .LFE45
GAS LISTING /tmp/cciHs8LR.s 			page 35


     /tmp/cciHs8LR.s:4210   .debug_loc:0000000000000338 .LLST18
     /tmp/cciHs8LR.s:707    .text:00000000000002f0 .LVL51
     /tmp/cciHs8LR.s:4627   .debug_str:0000000000000647 .LASF153
     /tmp/cciHs8LR.s:320    .text:000000000000010c .LFB44
     /tmp/cciHs8LR.s:353    .text:000000000000014c .LFE44
     /tmp/cciHs8LR.s:4224   .debug_loc:0000000000000371 .LLST7
     /tmp/cciHs8LR.s:337    .text:000000000000012c .LVL20
     /tmp/cciHs8LR.s:340    .text:0000000000000138 .LVL21
     /tmp/cciHs8LR.s:4785   .debug_str:0000000000000b08 .LASF154
     /tmp/cciHs8LR.s:62     .text:0000000000000000 .LFB42
     /tmp/cciHs8LR.s:98     .text:0000000000000038 .LFE42
     /tmp/cciHs8LR.s:4242   .debug_loc:00000000000003bd .LLST0
     /tmp/cciHs8LR.s:86     .text:0000000000000028 .LVL4
     /tmp/cciHs8LR.s:207    .text:0000000000000070 .LFB40
     /tmp/cciHs8LR.s:250    .text:00000000000000bc .LFE40
     /tmp/cciHs8LR.s:4256   .debug_loc:00000000000003f6 .LLST3
     /tmp/cciHs8LR.s:4274   .debug_loc:0000000000000442 .LLST4
     /tmp/cciHs8LR.s:227    .text:0000000000000098 .LVL12
     /tmp/cciHs8LR.s:236    .text:00000000000000a8 .LVL13
     /tmp/cciHs8LR.s:4705   .debug_str:0000000000000882 .LASF155
     /tmp/cciHs8LR.s:642    .text:000000000000028c .LFB38
     /tmp/cciHs8LR.s:677    .text:00000000000002d0 .LFE38
     /tmp/cciHs8LR.s:4288   .debug_loc:000000000000047b .LLST17
     /tmp/cciHs8LR.s:665    .text:00000000000002c0 .LVL48
     /tmp/cciHs8LR.s:4519   .debug_str:00000000000002fb .LASF156
     /tmp/cciHs8LR.s:4797   .debug_str:0000000000000b49 .LASF157
     /tmp/cciHs8LR.s:4751   .debug_str:00000000000009d6 .LASF158
     /tmp/cciHs8LR.s:601    .text:0000000000000254 .LFB35
     /tmp/cciHs8LR.s:634    .text:000000000000028c .LFE35
     /tmp/cciHs8LR.s:4306   .debug_loc:00000000000004c7 .LLST14
     /tmp/cciHs8LR.s:4326   .debug_loc:0000000000000515 .LLST15
     /tmp/cciHs8LR.s:4340   .debug_loc:000000000000054e .LLST16
     /tmp/cciHs8LR.s:622    .text:000000000000027c .LVL45
     /tmp/cciHs8LR.s:521    .text:00000000000001ec .LFB33
     /tmp/cciHs8LR.s:547    .text:0000000000000214 .LFE33
     /tmp/cciHs8LR.s:4354   .debug_loc:0000000000000587 .LLST12
     /tmp/cciHs8LR.s:536    .text:0000000000000204 .LVL37
     /tmp/cciHs8LR.s:490    .text:00000000000001c4 .LFB32
     /tmp/cciHs8LR.s:515    .text:00000000000001ec .LFE32
     /tmp/cciHs8LR.s:504    .text:00000000000001dc .LVL35
     /tmp/cciHs8LR.s:446    .text:000000000000018c .LFB31
     /tmp/cciHs8LR.s:484    .text:00000000000001c4 .LFE31
     /tmp/cciHs8LR.s:4368   .debug_loc:00000000000005c0 .LLST11
     /tmp/cciHs8LR.s:468    .text:00000000000001ac .LVL34
     /tmp/cciHs8LR.s:4585   .debug_str:00000000000004da .LASF159
     /tmp/cciHs8LR.s:4665   .debug_str:000000000000076b .LASF160
     /tmp/cciHs8LR.s:288    .text:00000000000000e4 .LFB30
     /tmp/cciHs8LR.s:314    .text:000000000000010c .LFE30
     /tmp/cciHs8LR.s:4382   .debug_loc:00000000000005f9 .LLST6
     /tmp/cciHs8LR.s:303    .text:00000000000000fc .LVL18
     /tmp/cciHs8LR.s:4803   .debug_str:0000000000000b76 .LASF161
     /tmp/cciHs8LR.s:4547   .debug_str:00000000000003bc .LASF162
     /tmp/cciHs8LR.s:256    .text:00000000000000bc .LFB29
     /tmp/cciHs8LR.s:282    .text:00000000000000e4 .LFE29
     /tmp/cciHs8LR.s:4617   .debug_str:0000000000000604 .LASF163
     /tmp/cciHs8LR.s:4396   .debug_loc:0000000000000632 .LLST5
     /tmp/cciHs8LR.s:271    .text:00000000000000d4 .LVL16
GAS LISTING /tmp/cciHs8LR.s 			page 36


     /tmp/cciHs8LR.s:4741   .debug_str:0000000000000976 .LASF182
     /tmp/cciHs8LR.s:37     .text._ZN14PeriodicThread18periodicActivationEv:0000000000000000 .LFB25
     /tmp/cciHs8LR.s:55     .text._ZN14PeriodicThread18periodicActivationEv:0000000000000018 .LFE25
     /tmp/cciHs8LR.s:11     .text._ZN6Thread3runEv:0000000000000000 .LFB24
     /tmp/cciHs8LR.s:30     .text._ZN6Thread3runEv:0000000000000018 .LFE24
     /tmp/cciHs8LR.s:4733   .debug_str:0000000000000941 .LASF164
     /tmp/cciHs8LR.s:4567   .debug_str:0000000000000465 .LASF165
     /tmp/cciHs8LR.s:4691   .debug_str:000000000000082b .LASF166
     /tmp/cciHs8LR.s:4807   .debug_str:0000000000000b8b .LASF167
     /tmp/cciHs8LR.s:4537   .debug_str:0000000000000366 .LASF168
     /tmp/cciHs8LR.s:4507   .debug_str:0000000000000294 .LASF169
     /tmp/cciHs8LR.s:4689   .debug_str:000000000000081b .LASF170
     /tmp/cciHs8LR.s:4671   .debug_str:000000000000079b .LASF171
     /tmp/cciHs8LR.s:4643   .debug_str:00000000000006d9 .LASF172
     /tmp/cciHs8LR.s:402    .text._ZN14PeriodicThreadD0Ev:0000000000000000 .LVL27
     /tmp/cciHs8LR.s:434    .text._ZN14PeriodicThreadD0Ev:0000000000000044 .LVL31
     /tmp/cciHs8LR.s:414    .text._ZN14PeriodicThreadD0Ev:0000000000000018 .LVL28
     /tmp/cciHs8LR.s:118    .text._ZN14PeriodicThreadD2Ev:0000000000000000 .LVL5
     /tmp/cciHs8LR.s:556    .text:0000000000000214 .LVL38
     /tmp/cciHs8LR.s:576    .text:0000000000000234 .LVL40
     /tmp/cciHs8LR.s:879    .text:00000000000003c0 .LVL59
     /tmp/cciHs8LR.s:897    .text:00000000000003e4 .LVL60
     /tmp/cciHs8LR.s:926    .text:0000000000000424 .LVL65
     /tmp/cciHs8LR.s:929    .text:0000000000000428 .LVL66
     /tmp/cciHs8LR.s:901    .text:00000000000003f0 .LVL62
     /tmp/cciHs8LR.s:907    .text:00000000000003f8 .LVL63
     /tmp/cciHs8LR.s:362    .text:000000000000014c .LVL23
     /tmp/cciHs8LR.s:387    .text:0000000000000184 .LVL26
     /tmp/cciHs8LR.s:157    .text:0000000000000038 .LVL7
     /tmp/cciHs8LR.s:173    .text:0000000000000058 .LVL8
     /tmp/cciHs8LR.s:787    .text:0000000000000354 .LVL56
     /tmp/cciHs8LR.s:791    .text:0000000000000358 .LVL57
     /tmp/cciHs8LR.s:732    .text:0000000000000308 .LVL52
     /tmp/cciHs8LR.s:752    .text:0000000000000330 .LVL53
     /tmp/cciHs8LR.s:771    .text:000000000000034c .LVL55
     /tmp/cciHs8LR.s:688    .text:00000000000002d0 .LVL49
     /tmp/cciHs8LR.s:692    .text:00000000000002d4 .LVL50
     /tmp/cciHs8LR.s:323    .text:000000000000010c .LVL19
     /tmp/cciHs8LR.s:348    .text:0000000000000144 .LVL22
     /tmp/cciHs8LR.s:68     .text:0000000000000000 .LVL2
     /tmp/cciHs8LR.s:84     .text:0000000000000020 .LVL3
     /tmp/cciHs8LR.s:210    .text:0000000000000070 .LVL10
     /tmp/cciHs8LR.s:225    .text:0000000000000090 .LVL11
     /tmp/cciHs8LR.s:245    .text:00000000000000b4 .LVL14
     /tmp/cciHs8LR.s:645    .text:000000000000028c .LVL46
     /tmp/cciHs8LR.s:663    .text:00000000000002b8 .LVL47
     /tmp/cciHs8LR.s:604    .text:0000000000000254 .LVL43
     /tmp/cciHs8LR.s:620    .text:0000000000000274 .LVL44
     /tmp/cciHs8LR.s:524    .text:00000000000001ec .LVL36
     /tmp/cciHs8LR.s:449    .text:000000000000018c .LVL32
     /tmp/cciHs8LR.s:453    .text:0000000000000190 .LVL33
     /tmp/cciHs8LR.s:291    .text:00000000000000e4 .LVL17
     /tmp/cciHs8LR.s:259    .text:00000000000000bc .LVL15
     /tmp/cciHs8LR.s:977    .debug_info:0000000000000000 .Ldebug_info0
     /tmp/cciHs8LR.s:5      .text:0000000000000000 .Ltext0
     /tmp/cciHs8LR.s:972    .text:0000000000000430 .Letext0
     /tmp/cciHs8LR.s:101    .gcc_except_table:0000000000000000 .LLSDA42
GAS LISTING /tmp/cciHs8LR.s 			page 37


     /tmp/cciHs8LR.s:189    .gcc_except_table:0000000000000004 .LLSDA51
                           .group:0000000000000000 _ZN14PeriodicThreadD5Ev

UNDEFINED SYMBOLS
mem_free
__gxx_personality_v0
_ZN5Riscv11printStringEPKc
mem_alloc
thread_start
thread_dispatch
time_sleep
thread_make_pcb
sem_wait
sem_open
sem_signal
