GAS LISTING /tmp/ccf9bp1A.s 			page 1


   1              		.file	"Tests.cpp"
   2              		.option pic
   3              		.option norelax
   4              		.text
   5              	.Ltext0:
   6              		.section	.text._ZN6Thread3runEv,"axG",@progbits,_ZN6Thread3runEv,comdat
   7              		.align	2
   8              		.weak	_ZN6Thread3runEv
  10              	_ZN6Thread3runEv:
  11              	.LFB21:
  12              		.file 1 "src/../h/syscall_cpp.hpp"
   1:src/../h/syscall_cpp.hpp **** //
   2:src/../h/syscall_cpp.hpp **** // Created by os on 4/8/22.
   3:src/../h/syscall_cpp.hpp **** //
   4:src/../h/syscall_cpp.hpp **** 
   5:src/../h/syscall_cpp.hpp **** #ifndef PROJECT_BASE_V1_0_SYSCALL_CPP_HPP
   6:src/../h/syscall_cpp.hpp **** #define PROJECT_BASE_V1_0_SYSCALL_CPP_HPP
   7:src/../h/syscall_cpp.hpp **** 
   8:src/../h/syscall_cpp.hpp **** #include "syscall_c.h"
   9:src/../h/syscall_cpp.hpp **** #include "PCB.hpp"
  10:src/../h/syscall_cpp.hpp **** #include "KSemaphore.hpp"
  11:src/../h/syscall_cpp.hpp **** 
  12:src/../h/syscall_cpp.hpp **** void * operator new(size_t size);
  13:src/../h/syscall_cpp.hpp **** 
  14:src/../h/syscall_cpp.hpp **** void operator delete(void * p);
  15:src/../h/syscall_cpp.hpp **** 
  16:src/../h/syscall_cpp.hpp **** class Thread
  17:src/../h/syscall_cpp.hpp **** {
  18:src/../h/syscall_cpp.hpp **** public:
  19:src/../h/syscall_cpp.hpp ****     Thread(void (*body)(void*), void* args);
  20:src/../h/syscall_cpp.hpp **** 
  21:src/../h/syscall_cpp.hpp ****     virtual ~Thread();
  22:src/../h/syscall_cpp.hpp **** 
  23:src/../h/syscall_cpp.hpp ****     int start();
  24:src/../h/syscall_cpp.hpp **** 
  25:src/../h/syscall_cpp.hpp ****     static void dispatch();
  26:src/../h/syscall_cpp.hpp **** 
  27:src/../h/syscall_cpp.hpp ****     static void sleep(time_t);
  28:src/../h/syscall_cpp.hpp **** 
  29:src/../h/syscall_cpp.hpp ****     //todo
  30:src/../h/syscall_cpp.hpp ****     //vrati u private
  31:src/../h/syscall_cpp.hpp ****     //ovde je samo za potrebe testiranja
  32:src/../h/syscall_cpp.hpp ****     thread_t myHandle;
  33:src/../h/syscall_cpp.hpp **** protected:
  34:src/../h/syscall_cpp.hpp ****     Thread();
  35:src/../h/syscall_cpp.hpp **** 
  36:src/../h/syscall_cpp.hpp ****     virtual void run() {}
  13              		.loc 1 36 18
  14              		.cfi_startproc
  15              	.LVL0:
  16 0000 130101FF 		addi	sp,sp,-16
  17              		.cfi_def_cfa_offset 16
  18 0004 23348100 		sd	s0,8(sp)
  19              		.cfi_offset 8, -8
  20 0008 13040101 		addi	s0,sp,16
  21              		.cfi_def_cfa 8, 0
  22              		.loc 1 36 25 is_stmt 0
GAS LISTING /tmp/ccf9bp1A.s 			page 2


  23 000c 03348100 		ld	s0,8(sp)
  24              		.cfi_restore 8
  25              		.cfi_def_cfa 2, 16
  26 0010 13010101 		addi	sp,sp,16
  27              		.cfi_def_cfa_offset 0
  28 0014 67800000 		jr	ra
  29              		.cfi_endproc
  30              	.LFE21:
  32              		.section	.text._ZN14PeriodicThread18periodicActivationEv,"axG",@progbits,_ZN14PeriodicThread18peri
  33              		.align	2
  34              		.weak	_ZN14PeriodicThread18periodicActivationEv
  36              	_ZN14PeriodicThread18periodicActivationEv:
  37              	.LFB22:
  37:src/../h/syscall_cpp.hpp **** private:
  38:src/../h/syscall_cpp.hpp ****     void (*f)(void*);
  39:src/../h/syscall_cpp.hpp ****     void* args;
  40:src/../h/syscall_cpp.hpp ****     static void runner(void* t);
  41:src/../h/syscall_cpp.hpp **** };
  42:src/../h/syscall_cpp.hpp **** 
  43:src/../h/syscall_cpp.hpp **** class Semaphore
  44:src/../h/syscall_cpp.hpp **** {
  45:src/../h/syscall_cpp.hpp **** public:
  46:src/../h/syscall_cpp.hpp ****     Semaphore(unsigned init = 1);
  47:src/../h/syscall_cpp.hpp **** 
  48:src/../h/syscall_cpp.hpp ****     virtual ~Semaphore();
  49:src/../h/syscall_cpp.hpp **** 
  50:src/../h/syscall_cpp.hpp ****     int wait();
  51:src/../h/syscall_cpp.hpp ****     int signal();
  52:src/../h/syscall_cpp.hpp **** 
  53:src/../h/syscall_cpp.hpp **** private:
  54:src/../h/syscall_cpp.hpp ****     sem_t myHandle;
  55:src/../h/syscall_cpp.hpp **** };
  56:src/../h/syscall_cpp.hpp **** 
  57:src/../h/syscall_cpp.hpp **** class Console
  58:src/../h/syscall_cpp.hpp **** {
  59:src/../h/syscall_cpp.hpp **** public:
  60:src/../h/syscall_cpp.hpp ****     static char getc();
  61:src/../h/syscall_cpp.hpp ****     static void putc(char);
  62:src/../h/syscall_cpp.hpp **** };
  63:src/../h/syscall_cpp.hpp **** 
  64:src/../h/syscall_cpp.hpp **** class PeriodicThread : public Thread
  65:src/../h/syscall_cpp.hpp **** {
  66:src/../h/syscall_cpp.hpp **** protected:
  67:src/../h/syscall_cpp.hpp ****     PeriodicThread(time_t period);
  68:src/../h/syscall_cpp.hpp ****     virtual void periodicActivation() {};
  38              		.loc 1 68 18 is_stmt 1
  39              		.cfi_startproc
  40              	.LVL1:
  41 0000 130101FF 		addi	sp,sp,-16
  42              		.cfi_def_cfa_offset 16
  43 0004 23348100 		sd	s0,8(sp)
  44              		.cfi_offset 8, -8
  45 0008 13040101 		addi	s0,sp,16
  46              		.cfi_def_cfa 8, 0
  47              		.loc 1 68 40 is_stmt 0
  48 000c 03348100 		ld	s0,8(sp)
  49              		.cfi_restore 8
GAS LISTING /tmp/ccf9bp1A.s 			page 3


  50              		.cfi_def_cfa 2, 16
  51 0010 13010101 		addi	sp,sp,16
  52              		.cfi_def_cfa_offset 0
  53 0014 67800000 		jr	ra
  54              		.cfi_endproc
  55              	.LFE22:
  57              		.section	.rodata.str1.8,"aMS",@progbits,1
  58              		.align	3
  59              	.LC0:
  60 0000 49646C65 		.string	"Idle\n"
  60      0A00
  61              		.text
  62              		.align	2
  63              		.globl	_Z4idlePv
  65              	_Z4idlePv:
  66              	.LFB23:
  67              		.file 2 "src/Tests.cpp"
   1:src/Tests.cpp **** //
   2:src/Tests.cpp **** // Created by os on 5/5/22.
   3:src/Tests.cpp **** //
   4:src/Tests.cpp **** 
   5:src/Tests.cpp **** #include "../h/Tests.hpp"
   6:src/Tests.cpp **** #include "../lib/console.h"
   7:src/Tests.cpp **** 
   8:src/Tests.cpp **** void idle(void* args)
   9:src/Tests.cpp **** {
  68              		.loc 2 9 1 is_stmt 1
  69              		.cfi_startproc
  70              	.LVL2:
  71 0000 130101FF 		addi	sp,sp,-16
  72              		.cfi_def_cfa_offset 16
  73 0004 23341100 		sd	ra,8(sp)
  74 0008 23308100 		sd	s0,0(sp)
  75              		.cfi_offset 1, -8
  76              		.cfi_offset 8, -16
  77 000c 13040101 		addi	s0,sp,16
  78              		.cfi_def_cfa 8, 0
  79              	.LVL3:
  80              	.L6:
  10:src/Tests.cpp ****     while(true)
  81              		.loc 2 10 5 discriminator 1
  11:src/Tests.cpp ****     {
  12:src/Tests.cpp ****         Riscv::printString("Idle\n");
  82              		.loc 2 12 9 discriminator 1
  83              		.loc 2 12 27 is_stmt 0 discriminator 1
  84 0010 17050000 		lla	a0,.LC0
  84      13050500 
  85 0018 97000000 		call	_ZN5Riscv11printStringEPKc@plt
  85      E7800000 
  86              	.LVL4:
  13:src/Tests.cpp ****         thread_dispatch();
  87              		.loc 2 13 9 is_stmt 1 discriminator 1
  88              		.loc 2 13 24 is_stmt 0 discriminator 1
  89 0020 97000000 		call	thread_dispatch@plt
  89      E7800000 
  90              	.LVL5:
  10:src/Tests.cpp ****     while(true)
GAS LISTING /tmp/ccf9bp1A.s 			page 4


  91              		.loc 2 10 5 is_stmt 1 discriminator 1
  92 0028 6FF09FFE 		j	.L6
  93              		.cfi_endproc
  94              	.LFE23:
  96              		.section	.rodata.str1.8
  97 0006 0000     		.align	3
  98              	.LC1:
  99 0008 54687265 		.string	"Thread 1 started...\n"
  99      61642031 
  99      20737461 
  99      72746564 
  99      2E2E2E0A 
 100 001d 000000   		.align	3
 101              	.LC2:
 102 0020 69203A20 		.string	"i : "
 102      00
 103 0025 000000   		.align	3
 104              	.LC3:
 105 0028 0A00     		.string	"\n"
 106              		.text
 107              		.align	2
 108              		.globl	_Z15thread1FunctionPv
 110              	_Z15thread1FunctionPv:
 111              	.LFB24:
  14:src/Tests.cpp ****     }
  15:src/Tests.cpp **** }
  16:src/Tests.cpp **** 
  17:src/Tests.cpp **** void thread1Function(void* p)
  18:src/Tests.cpp **** {
 112              		.loc 2 18 1
 113              		.cfi_startproc
 114              	.LVL6:
 115 002c 130101FE 		addi	sp,sp,-32
 116              		.cfi_def_cfa_offset 32
 117 0030 233C1100 		sd	ra,24(sp)
 118 0034 23388100 		sd	s0,16(sp)
 119 0038 23349100 		sd	s1,8(sp)
 120              		.cfi_offset 1, -8
 121              		.cfi_offset 8, -16
 122              		.cfi_offset 9, -24
 123 003c 13040102 		addi	s0,sp,32
 124              		.cfi_def_cfa 8, 0
  19:src/Tests.cpp ****     Riscv::printString("Thread 1 started...\n");
 125              		.loc 2 19 5
 126              		.loc 2 19 23 is_stmt 0
 127 0040 17050000 		lla	a0,.LC1
 127      13050500 
 128              	.LVL7:
 129 0048 97000000 		call	_ZN5Riscv11printStringEPKc@plt
 129      E7800000 
 130              	.LVL8:
  20:src/Tests.cpp ****     uint64 num = 10000;
 131              		.loc 2 20 5 is_stmt 1
  21:src/Tests.cpp ****     for(uint64 i = 0; i < num;i++)
 132              		.loc 2 21 5
 133              	.LBB20:
 134              		.loc 2 21 16 is_stmt 0
GAS LISTING /tmp/ccf9bp1A.s 			page 5


 135 0050 93040000 		li	s1,0
 136 0054 6F00C003 		j	.L11
 137              	.LVL9:
 138              	.L13:
  22:src/Tests.cpp ****     {
  23:src/Tests.cpp ****         if(i % 150 == 0 && i > 0)
  24:src/Tests.cpp ****             thread_dispatch();
 139              		.loc 2 24 13 is_stmt 1
 140              		.loc 2 24 28 is_stmt 0
 141 0058 97000000 		call	thread_dispatch@plt
 141      E7800000 
 142              	.LVL10:
 143              	.L10:
  25:src/Tests.cpp ****         Riscv::printString("i : ");
 144              		.loc 2 25 9 is_stmt 1 discriminator 2
 145              		.loc 2 25 27 is_stmt 0 discriminator 2
 146 0060 17050000 		lla	a0,.LC2
 146      13050500 
 147 0068 97000000 		call	_ZN5Riscv11printStringEPKc@plt
 147      E7800000 
 148              	.LVL11:
  26:src/Tests.cpp ****         Riscv::printInteger(i);
 149              		.loc 2 26 9 is_stmt 1 discriminator 2
 150              		.loc 2 26 28 is_stmt 0 discriminator 2
 151 0070 13850400 		mv	a0,s1
 152 0074 97000000 		call	_ZN5Riscv12printIntegerEm@plt
 152      E7800000 
 153              	.LVL12:
  27:src/Tests.cpp ****         Riscv::printString("\n");
 154              		.loc 2 27 9 is_stmt 1 discriminator 2
 155              		.loc 2 27 27 is_stmt 0 discriminator 2
 156 007c 17050000 		lla	a0,.LC3
 156      13050500 
 157 0084 97000000 		call	_ZN5Riscv11printStringEPKc@plt
 157      E7800000 
 158              	.LVL13:
  21:src/Tests.cpp ****     {
 159              		.loc 2 21 5 is_stmt 1 discriminator 2
 160 008c 93841400 		addi	s1,s1,1
 161              	.LVL14:
 162              	.L11:
  21:src/Tests.cpp ****     {
 163              		.loc 2 21 25 discriminator 1
 164 0090 B7270000 		li	a5,8192
 165 0094 9387F770 		addi	a5,a5,1807
 166 0098 63EC9700 		bgtu	s1,a5,.L8
  23:src/Tests.cpp ****             thread_dispatch();
 167              		.loc 2 23 9
  23:src/Tests.cpp ****             thread_dispatch();
 168              		.loc 2 23 14 is_stmt 0
 169 009c 93076009 		li	a5,150
 170 00a0 B3F7F402 		remu	a5,s1,a5
  23:src/Tests.cpp ****             thread_dispatch();
 171              		.loc 2 23 9
 172 00a4 E39E07FA 		bnez	a5,.L10
  23:src/Tests.cpp ****             thread_dispatch();
 173              		.loc 2 23 25 discriminator 1
GAS LISTING /tmp/ccf9bp1A.s 			page 6


 174 00a8 E38C04FA 		beqz	s1,.L10
 175 00ac 6FF0DFFA 		j	.L13
 176              	.L8:
 177              	.LBE20:
  28:src/Tests.cpp ****     }
  29:src/Tests.cpp **** }
 178              		.loc 2 29 1
 179 00b0 83308101 		ld	ra,24(sp)
 180              		.cfi_restore 1
 181 00b4 03340101 		ld	s0,16(sp)
 182              		.cfi_restore 8
 183              		.cfi_def_cfa 2, 32
 184 00b8 83348100 		ld	s1,8(sp)
 185              		.cfi_restore 9
 186              	.LVL15:
 187 00bc 13010102 		addi	sp,sp,32
 188              		.cfi_def_cfa_offset 0
 189 00c0 67800000 		jr	ra
 190              		.cfi_endproc
 191              	.LFE24:
 193              		.section	.rodata.str1.8
 194 002a 00000000 		.align	3
 194      0000
 195              	.LC4:
 196 0030 54687265 		.string	"Thread 2 started...\n"
 196      61642032 
 196      20737461 
 196      72746564 
 196      2E2E2E0A 
 197 0045 000000   		.align	3
 198              	.LC5:
 199 0048 6A203A20 		.string	"j : "
 199      00
 200              		.text
 201              		.align	2
 202              		.globl	_Z15thread2FunctionPv
 204              	_Z15thread2FunctionPv:
 205              	.LFB25:
  30:src/Tests.cpp **** 
  31:src/Tests.cpp **** void thread2Function(void* p)
  32:src/Tests.cpp **** {
 206              		.loc 2 32 1 is_stmt 1
 207              		.cfi_startproc
 208              	.LVL16:
 209 00c4 130101FE 		addi	sp,sp,-32
 210              		.cfi_def_cfa_offset 32
 211 00c8 233C1100 		sd	ra,24(sp)
 212 00cc 23388100 		sd	s0,16(sp)
 213 00d0 23349100 		sd	s1,8(sp)
 214              		.cfi_offset 1, -8
 215              		.cfi_offset 8, -16
 216              		.cfi_offset 9, -24
 217 00d4 13040102 		addi	s0,sp,32
 218              		.cfi_def_cfa 8, 0
  33:src/Tests.cpp ****     Riscv::printString("Thread 2 started...\n");
 219              		.loc 2 33 5
 220              		.loc 2 33 23 is_stmt 0
GAS LISTING /tmp/ccf9bp1A.s 			page 7


 221 00d8 17050000 		lla	a0,.LC4
 221      13050500 
 222              	.LVL17:
 223 00e0 97000000 		call	_ZN5Riscv11printStringEPKc@plt
 223      E7800000 
 224              	.LVL18:
  34:src/Tests.cpp ****     uint64 num = 10000;
 225              		.loc 2 34 5 is_stmt 1
  35:src/Tests.cpp ****     for(uint64 j = 0; j < num;j++)
 226              		.loc 2 35 5
 227              	.LBB21:
 228              		.loc 2 35 16 is_stmt 0
 229 00e8 93040000 		li	s1,0
 230 00ec 6F00C003 		j	.L17
 231              	.LVL19:
 232              	.L19:
  36:src/Tests.cpp ****     {
  37:src/Tests.cpp ****         if(j % 50 == 0 && j > 0)
  38:src/Tests.cpp ****             thread_dispatch();
 233              		.loc 2 38 13 is_stmt 1
 234              		.loc 2 38 28 is_stmt 0
 235 00f0 97000000 		call	thread_dispatch@plt
 235      E7800000 
 236              	.LVL20:
 237              	.L16:
  39:src/Tests.cpp ****         Riscv::printString("j : ");
 238              		.loc 2 39 9 is_stmt 1 discriminator 2
 239              		.loc 2 39 27 is_stmt 0 discriminator 2
 240 00f8 17050000 		lla	a0,.LC5
 240      13050500 
 241 0100 97000000 		call	_ZN5Riscv11printStringEPKc@plt
 241      E7800000 
 242              	.LVL21:
  40:src/Tests.cpp ****         Riscv::printInteger(j);
 243              		.loc 2 40 9 is_stmt 1 discriminator 2
 244              		.loc 2 40 28 is_stmt 0 discriminator 2
 245 0108 13850400 		mv	a0,s1
 246 010c 97000000 		call	_ZN5Riscv12printIntegerEm@plt
 246      E7800000 
 247              	.LVL22:
  41:src/Tests.cpp ****         Riscv::printString("\n");
 248              		.loc 2 41 9 is_stmt 1 discriminator 2
 249              		.loc 2 41 27 is_stmt 0 discriminator 2
 250 0114 17050000 		lla	a0,.LC3
 250      13050500 
 251 011c 97000000 		call	_ZN5Riscv11printStringEPKc@plt
 251      E7800000 
 252              	.LVL23:
  35:src/Tests.cpp ****     {
 253              		.loc 2 35 5 is_stmt 1 discriminator 2
 254 0124 93841400 		addi	s1,s1,1
 255              	.LVL24:
 256              	.L17:
  35:src/Tests.cpp ****     {
 257              		.loc 2 35 25 discriminator 1
 258 0128 B7270000 		li	a5,8192
 259 012c 9387F770 		addi	a5,a5,1807
GAS LISTING /tmp/ccf9bp1A.s 			page 8


 260 0130 63EC9700 		bgtu	s1,a5,.L14
  37:src/Tests.cpp ****             thread_dispatch();
 261              		.loc 2 37 9
  37:src/Tests.cpp ****             thread_dispatch();
 262              		.loc 2 37 14 is_stmt 0
 263 0134 93072003 		li	a5,50
 264 0138 B3F7F402 		remu	a5,s1,a5
  37:src/Tests.cpp ****             thread_dispatch();
 265              		.loc 2 37 9
 266 013c E39E07FA 		bnez	a5,.L16
  37:src/Tests.cpp ****             thread_dispatch();
 267              		.loc 2 37 24 discriminator 1
 268 0140 E38C04FA 		beqz	s1,.L16
 269 0144 6FF0DFFA 		j	.L19
 270              	.L14:
 271              	.LBE21:
  42:src/Tests.cpp ****     }
  43:src/Tests.cpp **** }
 272              		.loc 2 43 1
 273 0148 83308101 		ld	ra,24(sp)
 274              		.cfi_restore 1
 275 014c 03340101 		ld	s0,16(sp)
 276              		.cfi_restore 8
 277              		.cfi_def_cfa 2, 32
 278 0150 83348100 		ld	s1,8(sp)
 279              		.cfi_restore 9
 280              	.LVL25:
 281 0154 13010102 		addi	sp,sp,32
 282              		.cfi_def_cfa_offset 0
 283 0158 67800000 		jr	ra
 284              		.cfi_endproc
 285              	.LFE25:
 287              		.align	2
 288              		.globl	_ZN12TestPeriodic18periodicActivationEv
 290              	_ZN12TestPeriodic18periodicActivationEv:
 291              	.LFB46:
  44:src/Tests.cpp **** 
  45:src/Tests.cpp **** void thread2FunctionTest2(void* p)
  46:src/Tests.cpp **** {
  47:src/Tests.cpp ****     Riscv::printString("Thread 2 started...\n");
  48:src/Tests.cpp ****     uint64 num = 10000;
  49:src/Tests.cpp ****     for(uint64 j = 0; j < num;j++)
  50:src/Tests.cpp ****     {
  51:src/Tests.cpp ****         if(j == 200)
  52:src/Tests.cpp ****             thread_exit();
  53:src/Tests.cpp ****         if(j % 50 == 0 && j > 0)
  54:src/Tests.cpp ****             thread_dispatch();
  55:src/Tests.cpp ****         Riscv::printString("j : ");
  56:src/Tests.cpp ****         Riscv::printInteger(j);
  57:src/Tests.cpp ****         Riscv::printString("\n");
  58:src/Tests.cpp ****     }
  59:src/Tests.cpp **** }
  60:src/Tests.cpp **** 
  61:src/Tests.cpp **** void threadTest1()
  62:src/Tests.cpp **** {
  63:src/Tests.cpp ****     Thread* t1 = new Thread(&thread1Function, 0);
  64:src/Tests.cpp ****     t1->start();
GAS LISTING /tmp/ccf9bp1A.s 			page 9


  65:src/Tests.cpp ****     Thread* t2 = new Thread(&thread2Function, 0);
  66:src/Tests.cpp ****     t2->start();
  67:src/Tests.cpp ****     Riscv::enableInterrupts();
  68:src/Tests.cpp ****     while(((PCB*)(t1->myHandle))->getState() != PCB::FINISHED || ((PCB*)(t2->myHandle))->getState()
  69:src/Tests.cpp ****     {
  70:src/Tests.cpp ****         Riscv::printString("Main thread\n");
  71:src/Tests.cpp ****         thread_dispatch();
  72:src/Tests.cpp ****     }
  73:src/Tests.cpp **** 
  74:src/Tests.cpp ****     Riscv::printString("End...\n");
  75:src/Tests.cpp ****     Riscv::disableInterrupts();
  76:src/Tests.cpp **** }
  77:src/Tests.cpp **** 
  78:src/Tests.cpp **** void threadTest2()
  79:src/Tests.cpp **** {
  80:src/Tests.cpp ****     Thread* idleThread = new Thread(&idle, 0);
  81:src/Tests.cpp ****     idleThread->start();
  82:src/Tests.cpp ****     Thread* t1 = new Thread(&thread1Function, 0);
  83:src/Tests.cpp ****     t1->start();
  84:src/Tests.cpp ****     Thread* t2  = new Thread(&thread2FunctionTest2, 0);
  85:src/Tests.cpp ****     t2->start();
  86:src/Tests.cpp **** 
  87:src/Tests.cpp ****     Riscv::enableInterrupts();
  88:src/Tests.cpp **** 
  89:src/Tests.cpp ****     while(((PCB*)idleThread->myHandle)->getState() != PCB::FINISHED);
  90:src/Tests.cpp **** 
  91:src/Tests.cpp ****     Riscv::printString("End...\n");
  92:src/Tests.cpp **** 
  93:src/Tests.cpp ****     Riscv::disableInterrupts();
  94:src/Tests.cpp **** }
  95:src/Tests.cpp **** 
  96:src/Tests.cpp **** 
  97:src/Tests.cpp **** void threadTest3()
  98:src/Tests.cpp **** {
  99:src/Tests.cpp ****     Thread* t = new TestPeriodic(50);
 100:src/Tests.cpp ****     t->start();
 101:src/Tests.cpp ****     while(true)
 102:src/Tests.cpp ****     {
 103:src/Tests.cpp ****         //thread_dispatch();
 104:src/Tests.cpp ****     }
 105:src/Tests.cpp **** }
 106:src/Tests.cpp **** 
 107:src/Tests.cpp **** void threadTests()
 108:src/Tests.cpp **** {
 109:src/Tests.cpp ****     //threadTest1();
 110:src/Tests.cpp ****     //threadTest2();
 111:src/Tests.cpp ****     //threadTest3();
 112:src/Tests.cpp **** }
 113:src/Tests.cpp **** 
 114:src/Tests.cpp **** 
 115:src/Tests.cpp **** //memory (de)allocation tests
 116:src/Tests.cpp **** void mallocFree()
 117:src/Tests.cpp **** {
 118:src/Tests.cpp ****     Riscv::printString("mallocFree\n");
 119:src/Tests.cpp ****     constexpr int num = 100;
 120:src/Tests.cpp ****     void* addrs[num];
 121:src/Tests.cpp ****     for(int i = 0; i < num;i++)
GAS LISTING /tmp/ccf9bp1A.s 			page 10


 122:src/Tests.cpp ****     {
 123:src/Tests.cpp ****         addrs[i] = mem_alloc(100);
 124:src/Tests.cpp ****         if(addrs[i] == 0)
 125:src/Tests.cpp ****         {
 126:src/Tests.cpp ****             Riscv::printString("not OK\n");
 127:src/Tests.cpp ****             return;
 128:src/Tests.cpp ****         }
 129:src/Tests.cpp **** 
 130:src/Tests.cpp ****     }
 131:src/Tests.cpp **** 
 132:src/Tests.cpp ****     for(int i = 0 ; i < num;i+=2)
 133:src/Tests.cpp ****     {
 134:src/Tests.cpp ****         int retval = mem_free(addrs[i]);
 135:src/Tests.cpp ****         if(retval != 0)
 136:src/Tests.cpp ****         {
 137:src/Tests.cpp ****             Riscv::printString("not OK\n");
 138:src/Tests.cpp ****             return;
 139:src/Tests.cpp ****         }
 140:src/Tests.cpp ****     }
 141:src/Tests.cpp **** 
 142:src/Tests.cpp ****     for(int i = 0 ; i < num;i+=2)
 143:src/Tests.cpp ****     {
 144:src/Tests.cpp ****         addrs[i] = mem_alloc(20);
 145:src/Tests.cpp ****         if(addrs[i] == 0)
 146:src/Tests.cpp ****         {
 147:src/Tests.cpp ****             Riscv::printString("not OK\n");
 148:src/Tests.cpp ****             return;
 149:src/Tests.cpp ****         }
 150:src/Tests.cpp ****     }
 151:src/Tests.cpp **** 
 152:src/Tests.cpp ****     for(int i = 0; i < num;i++)
 153:src/Tests.cpp ****     {
 154:src/Tests.cpp ****         int retval = mem_free(addrs[i]);
 155:src/Tests.cpp ****         if(retval != 0)
 156:src/Tests.cpp ****         {
 157:src/Tests.cpp ****             Riscv::printString("not OK\n");
 158:src/Tests.cpp ****             return;
 159:src/Tests.cpp ****         }
 160:src/Tests.cpp ****     }
 161:src/Tests.cpp **** 
 162:src/Tests.cpp ****     Riscv::printString("OK\n");
 163:src/Tests.cpp **** }
 164:src/Tests.cpp **** void bigMalloc()
 165:src/Tests.cpp **** {
 166:src/Tests.cpp ****     Riscv::printString("bigMalloc\n");
 167:src/Tests.cpp ****     uint64 x = (uint64)HEAP_END_ADDR - (uint64)HEAP_START_ADDR + 100UL;
 168:src/Tests.cpp ****     void* p = mem_alloc(x);
 169:src/Tests.cpp ****     if(p == 0)
 170:src/Tests.cpp ****         Riscv::printString("OK\n");
 171:src/Tests.cpp ****     else
 172:src/Tests.cpp ****         Riscv::printString("not OK\n");
 173:src/Tests.cpp **** }
 174:src/Tests.cpp **** 
 175:src/Tests.cpp **** void lotOfSmallMallocs()
 176:src/Tests.cpp **** {
 177:src/Tests.cpp ****     Riscv::printString("lotOfSmallMallocs\n");
 178:src/Tests.cpp ****     uint64 cnt = 0;
GAS LISTING /tmp/ccf9bp1A.s 			page 11


 179:src/Tests.cpp ****     uint64 sum = 0;
 180:src/Tests.cpp ****     uint64 N = 10000UL;
 181:src/Tests.cpp ****     uint64 X = 10UL;
 182:src/Tests.cpp ****     for(uint64 i = 0; i < N;i++)
 183:src/Tests.cpp ****     {
 184:src/Tests.cpp ****         Test* t = (Test*)mem_alloc(sizeof(Test));
 185:src/Tests.cpp ****         if(t == 0)
 186:src/Tests.cpp ****             break;
 187:src/Tests.cpp ****         t->a = X;
 188:src/Tests.cpp ****         sum+=t->a;
 189:src/Tests.cpp ****         cnt++;
 190:src/Tests.cpp ****     }
 191:src/Tests.cpp ****     Riscv::printInteger(cnt);
 192:src/Tests.cpp ****     Riscv::printString("\n");
 193:src/Tests.cpp ****     if(sum == X*cnt)
 194:src/Tests.cpp ****         Riscv::printString("OK\n");
 195:src/Tests.cpp ****     else
 196:src/Tests.cpp ****         Riscv::printString("not OK\n");
 197:src/Tests.cpp **** }
 198:src/Tests.cpp **** void badFree()
 199:src/Tests.cpp **** {
 200:src/Tests.cpp ****     Riscv::printString("badFree\n");
 201:src/Tests.cpp ****     Test* t = (Test*)mem_alloc(sizeof(Test));
 202:src/Tests.cpp ****     uint64 retval = mem_free((char*)t + 2);
 203:src/Tests.cpp ****     if(retval == 0)
 204:src/Tests.cpp ****         Riscv::printString("not OK\n");
 205:src/Tests.cpp ****     else
 206:src/Tests.cpp ****         Riscv::printString("OK\n");
 207:src/Tests.cpp **** }
 208:src/Tests.cpp **** 
 209:src/Tests.cpp **** void stressTesting()
 210:src/Tests.cpp **** {
 211:src/Tests.cpp ****     Riscv::printString("stressTesting\n");
 212:src/Tests.cpp ****     constexpr int num = 100;
 213:src/Tests.cpp ****     void* addrs[num];
 214:src/Tests.cpp ****     for(int i = 0; i < num;i++)
 215:src/Tests.cpp ****     {
 216:src/Tests.cpp ****         addrs[i] = mem_alloc(1);
 217:src/Tests.cpp ****         if(addrs[i] == 0)
 218:src/Tests.cpp ****         {
 219:src/Tests.cpp ****             Riscv::printString("not OK\n");
 220:src/Tests.cpp ****             return;
 221:src/Tests.cpp ****         }
 222:src/Tests.cpp **** 
 223:src/Tests.cpp ****     }
 224:src/Tests.cpp ****     int sz = 300;
 225:src/Tests.cpp ****     while(sz > 0)
 226:src/Tests.cpp ****     {
 227:src/Tests.cpp ****         for(int i = 0 ; i < num;i+=2)
 228:src/Tests.cpp ****         {
 229:src/Tests.cpp ****             int retval = mem_free(addrs[i]);
 230:src/Tests.cpp ****             if(retval != 0)
 231:src/Tests.cpp ****             {
 232:src/Tests.cpp ****                 Riscv::printString("not OK\n");
 233:src/Tests.cpp ****                 return;
 234:src/Tests.cpp ****             }
 235:src/Tests.cpp ****             addrs[i] = mem_alloc(sz/2);
GAS LISTING /tmp/ccf9bp1A.s 			page 12


 236:src/Tests.cpp ****             if(addrs[i] == 0)
 237:src/Tests.cpp ****             {
 238:src/Tests.cpp ****                 Riscv::printString("not Ok\n");
 239:src/Tests.cpp ****                 return;
 240:src/Tests.cpp ****             }
 241:src/Tests.cpp **** 
 242:src/Tests.cpp ****         }
 243:src/Tests.cpp **** 
 244:src/Tests.cpp ****         for(int i = 1 ; i < num;i+=2)
 245:src/Tests.cpp ****         {
 246:src/Tests.cpp ****             int retval = mem_free(addrs[i]);
 247:src/Tests.cpp ****             if(retval != 0)
 248:src/Tests.cpp ****             {
 249:src/Tests.cpp ****                 Riscv::printString("not OK\n");
 250:src/Tests.cpp ****                 return;
 251:src/Tests.cpp ****             }
 252:src/Tests.cpp ****             addrs[i] = mem_alloc(sz);
 253:src/Tests.cpp ****             if(addrs[i] == 0)
 254:src/Tests.cpp ****             {
 255:src/Tests.cpp ****                 Riscv::printString("not Ok\n");
 256:src/Tests.cpp ****                 return;
 257:src/Tests.cpp ****             }
 258:src/Tests.cpp **** 
 259:src/Tests.cpp ****         }
 260:src/Tests.cpp ****         sz-=10;
 261:src/Tests.cpp ****     }
 262:src/Tests.cpp **** 
 263:src/Tests.cpp ****     Riscv::printString("OK\n");
 264:src/Tests.cpp **** }
 265:src/Tests.cpp **** 
 266:src/Tests.cpp **** void memoryAllocationTests()
 267:src/Tests.cpp **** {
 268:src/Tests.cpp ****     //bigMalloc();
 269:src/Tests.cpp ****     //lotOfSmallMallocs();
 270:src/Tests.cpp ****     //mallocFree();
 271:src/Tests.cpp ****     //badFree();
 272:src/Tests.cpp ****     //stressTesting();
 273:src/Tests.cpp ****     //mallocTest();
 274:src/Tests.cpp ****     //mallocEverything();
 275:src/Tests.cpp ****     //mallocGapFillTest();
 276:src/Tests.cpp **** }
 277:src/Tests.cpp **** 
 278:src/Tests.cpp **** 
 279:src/Tests.cpp **** 
 280:src/Tests.cpp **** void semaphoreTests()
 281:src/Tests.cpp **** {
 282:src/Tests.cpp ****     semTest1();
 283:src/Tests.cpp **** }
 284:src/Tests.cpp **** 
 285:src/Tests.cpp **** void myTests()
 286:src/Tests.cpp **** {
 287:src/Tests.cpp ****     //memoryAllocationTests();
 288:src/Tests.cpp ****     //threadTests();
 289:src/Tests.cpp ****     //testQueue();
 290:src/Tests.cpp ****     semaphoreTests();
 291:src/Tests.cpp **** }
 292:src/Tests.cpp **** 
GAS LISTING /tmp/ccf9bp1A.s 			page 13


 293:src/Tests.cpp **** TestPeriodic::TestPeriodic(time_t time) : PeriodicThread(time) {
 294:src/Tests.cpp **** 
 295:src/Tests.cpp **** }
 296:src/Tests.cpp **** 
 297:src/Tests.cpp **** void TestPeriodic::periodicActivation()
 298:src/Tests.cpp **** {
 292              		.loc 2 298 1 is_stmt 1
 293              		.cfi_startproc
 294              	.LVL26:
 295 015c 130101FE 		addi	sp,sp,-32
 296              		.cfi_def_cfa_offset 32
 297 0160 233C1100 		sd	ra,24(sp)
 298 0164 23388100 		sd	s0,16(sp)
 299 0168 23349100 		sd	s1,8(sp)
 300              		.cfi_offset 1, -8
 301              		.cfi_offset 8, -16
 302              		.cfi_offset 9, -24
 303 016c 13040102 		addi	s0,sp,32
 304              		.cfi_def_cfa 8, 0
 299:src/Tests.cpp ****     for(int i = 0 ; i < 10000;i++)
 305              		.loc 2 299 5
 306              	.LVL27:
 307              	.LBB22:
 308              		.loc 2 299 13 is_stmt 0
 309 0170 93040000 		li	s1,0
 310              	.LVL28:
 311              	.L22:
 312              		.loc 2 299 23 is_stmt 1 discriminator 3
 313 0174 B7270000 		li	a5,8192
 314 0178 9387F770 		addi	a5,a5,1807
 315 017c 63C49702 		bgt	s1,a5,.L20
 300:src/Tests.cpp ****     {
 301:src/Tests.cpp ****         Riscv::printString("i : ");
 316              		.loc 2 301 9 discriminator 2
 317              		.loc 2 301 27 is_stmt 0 discriminator 2
 318 0180 17050000 		lla	a0,.LC2
 318      13050500 
 319 0188 97000000 		call	_ZN5Riscv11printStringEPKc@plt
 319      E7800000 
 320              	.LVL29:
 302:src/Tests.cpp ****         Riscv::printInteger(i);
 321              		.loc 2 302 9 is_stmt 1 discriminator 2
 322              		.loc 2 302 28 is_stmt 0 discriminator 2
 323 0190 13850400 		mv	a0,s1
 324 0194 97000000 		call	_ZN5Riscv12printIntegerEm@plt
 324      E7800000 
 325              	.LVL30:
 299:src/Tests.cpp ****     for(int i = 0 ; i < 10000;i++)
 326              		.loc 2 299 5 is_stmt 1 discriminator 2
 327 019c 9B841400 		addiw	s1,s1,1
 328              	.LVL31:
 329 01a0 6FF05FFD 		j	.L22
 330              	.LVL32:
 331              	.L20:
 332              	.LBE22:
 303:src/Tests.cpp ****     }
 304:src/Tests.cpp **** }
GAS LISTING /tmp/ccf9bp1A.s 			page 14


 333              		.loc 2 304 1 is_stmt 0
 334 01a4 83308101 		ld	ra,24(sp)
 335              		.cfi_restore 1
 336 01a8 03340101 		ld	s0,16(sp)
 337              		.cfi_restore 8
 338              		.cfi_def_cfa 2, 32
 339 01ac 83348100 		ld	s1,8(sp)
 340              		.cfi_restore 9
 341              	.LVL33:
 342 01b0 13010102 		addi	sp,sp,32
 343              		.cfi_def_cfa_offset 0
 344 01b4 67800000 		jr	ra
 345              		.cfi_endproc
 346              	.LFE46:
 348              		.align	2
 349              		.globl	_Z20thread2FunctionTest2Pv
 351              	_Z20thread2FunctionTest2Pv:
 352              	.LFB26:
  46:src/Tests.cpp ****     Riscv::printString("Thread 2 started...\n");
 353              		.loc 2 46 1 is_stmt 1
 354              		.cfi_startproc
 355              	.LVL34:
 356 01b8 130101FE 		addi	sp,sp,-32
 357              		.cfi_def_cfa_offset 32
 358 01bc 233C1100 		sd	ra,24(sp)
 359 01c0 23388100 		sd	s0,16(sp)
 360 01c4 23349100 		sd	s1,8(sp)
 361              		.cfi_offset 1, -8
 362              		.cfi_offset 8, -16
 363              		.cfi_offset 9, -24
 364 01c8 13040102 		addi	s0,sp,32
 365              		.cfi_def_cfa 8, 0
  47:src/Tests.cpp ****     uint64 num = 10000;
 366              		.loc 2 47 5
  47:src/Tests.cpp ****     uint64 num = 10000;
 367              		.loc 2 47 23 is_stmt 0
 368 01cc 17050000 		lla	a0,.LC4
 368      13050500 
 369              	.LVL35:
 370 01d4 97000000 		call	_ZN5Riscv11printStringEPKc@plt
 370      E7800000 
 371              	.LVL36:
  48:src/Tests.cpp ****     for(uint64 j = 0; j < num;j++)
 372              		.loc 2 48 5 is_stmt 1
  49:src/Tests.cpp ****     {
 373              		.loc 2 49 5
 374              	.LBB23:
  49:src/Tests.cpp ****     {
 375              		.loc 2 49 16 is_stmt 0
 376 01dc 93040000 		li	s1,0
 377 01e0 6F008004 		j	.L28
 378              	.LVL37:
 379              	.L30:
  52:src/Tests.cpp ****         if(j % 50 == 0 && j > 0)
 380              		.loc 2 52 13 is_stmt 1
  52:src/Tests.cpp ****         if(j % 50 == 0 && j > 0)
 381              		.loc 2 52 24 is_stmt 0
GAS LISTING /tmp/ccf9bp1A.s 			page 15


 382 01e4 97000000 		call	thread_exit@plt
 382      E7800000 
 383              	.LVL38:
 384 01ec 6F000005 		j	.L26
 385              	.L31:
  54:src/Tests.cpp ****         Riscv::printString("j : ");
 386              		.loc 2 54 13 is_stmt 1
  54:src/Tests.cpp ****         Riscv::printString("j : ");
 387              		.loc 2 54 28 is_stmt 0
 388 01f0 97000000 		call	thread_dispatch@plt
 388      E7800000 
 389              	.LVL39:
 390              	.L27:
  55:src/Tests.cpp ****         Riscv::printInteger(j);
 391              		.loc 2 55 9 is_stmt 1 discriminator 2
  55:src/Tests.cpp ****         Riscv::printInteger(j);
 392              		.loc 2 55 27 is_stmt 0 discriminator 2
 393 01f8 17050000 		lla	a0,.LC5
 393      13050500 
 394 0200 97000000 		call	_ZN5Riscv11printStringEPKc@plt
 394      E7800000 
 395              	.LVL40:
  56:src/Tests.cpp ****         Riscv::printString("\n");
 396              		.loc 2 56 9 is_stmt 1 discriminator 2
  56:src/Tests.cpp ****         Riscv::printString("\n");
 397              		.loc 2 56 28 is_stmt 0 discriminator 2
 398 0208 13850400 		mv	a0,s1
 399 020c 97000000 		call	_ZN5Riscv12printIntegerEm@plt
 399      E7800000 
 400              	.LVL41:
  57:src/Tests.cpp ****     }
 401              		.loc 2 57 9 is_stmt 1 discriminator 2
  57:src/Tests.cpp ****     }
 402              		.loc 2 57 27 is_stmt 0 discriminator 2
 403 0214 17050000 		lla	a0,.LC3
 403      13050500 
 404 021c 97000000 		call	_ZN5Riscv11printStringEPKc@plt
 404      E7800000 
 405              	.LVL42:
  49:src/Tests.cpp ****     {
 406              		.loc 2 49 5 is_stmt 1 discriminator 2
 407 0224 93841400 		addi	s1,s1,1
 408              	.LVL43:
 409              	.L28:
  49:src/Tests.cpp ****     {
 410              		.loc 2 49 25 discriminator 1
 411 0228 B7270000 		li	a5,8192
 412 022c 9387F770 		addi	a5,a5,1807
 413 0230 63E09702 		bgtu	s1,a5,.L24
  51:src/Tests.cpp ****             thread_exit();
 414              		.loc 2 51 9
 415 0234 9307800C 		li	a5,200
 416 0238 E386F4FA 		beq	s1,a5,.L30
 417              	.L26:
  53:src/Tests.cpp ****             thread_dispatch();
 418              		.loc 2 53 9
  53:src/Tests.cpp ****             thread_dispatch();
GAS LISTING /tmp/ccf9bp1A.s 			page 16


 419              		.loc 2 53 14 is_stmt 0
 420 023c 93072003 		li	a5,50
 421 0240 B3F7F402 		remu	a5,s1,a5
  53:src/Tests.cpp ****             thread_dispatch();
 422              		.loc 2 53 9
 423 0244 E39A07FA 		bnez	a5,.L27
  53:src/Tests.cpp ****             thread_dispatch();
 424              		.loc 2 53 24 discriminator 1
 425 0248 E38804FA 		beqz	s1,.L27
 426 024c 6FF05FFA 		j	.L31
 427              	.L24:
 428              	.LBE23:
  59:src/Tests.cpp **** 
 429              		.loc 2 59 1
 430 0250 83308101 		ld	ra,24(sp)
 431              		.cfi_restore 1
 432 0254 03340101 		ld	s0,16(sp)
 433              		.cfi_restore 8
 434              		.cfi_def_cfa 2, 32
 435 0258 83348100 		ld	s1,8(sp)
 436              		.cfi_restore 9
 437              	.LVL44:
 438 025c 13010102 		addi	sp,sp,32
 439              		.cfi_def_cfa_offset 0
 440 0260 67800000 		jr	ra
 441              		.cfi_endproc
 442              	.LFE26:
 444              		.align	2
 445              		.globl	_Z9consumerAPv
 447              	_Z9consumerAPv:
 448              	.LFB50:
 305:src/Tests.cpp **** 
 306:src/Tests.cpp **** void mallocTest()
 307:src/Tests.cpp **** {
 308:src/Tests.cpp ****     Riscv::printString("Testing a few mallocs and frees\n\n");
 309:src/Tests.cpp **** 
 310:src/Tests.cpp ****     object* o = new object;
 311:src/Tests.cpp ****     o->a = 3;
 312:src/Tests.cpp ****     void* m1 = mem_alloc(10);
 313:src/Tests.cpp ****     void* m2 = mem_alloc(100);
 314:src/Tests.cpp ****     void* m3 = mem_alloc(1000);
 315:src/Tests.cpp ****     void* m4 = mem_alloc(10000);
 316:src/Tests.cpp ****     void* m5 = mem_alloc(1);
 317:src/Tests.cpp **** 
 318:src/Tests.cpp ****     if(!m1 || !m2 || !m3 || !m4 || !m5){
 319:src/Tests.cpp ****         Riscv::printString("not OK\n");
 320:src/Tests.cpp ****         return;
 321:src/Tests.cpp ****     }
 322:src/Tests.cpp **** 
 323:src/Tests.cpp ****     delete (uint64*)m1;
 324:src/Tests.cpp ****     delete (uint64*)m3;
 325:src/Tests.cpp ****     delete (uint64*)m4;
 326:src/Tests.cpp ****     delete (uint64*)m2;
 327:src/Tests.cpp ****     delete (uint64*)m5;
 328:src/Tests.cpp ****     delete o;
 329:src/Tests.cpp **** 
 330:src/Tests.cpp ****     Riscv::printString("SUCCESSFUL: Testing a few mallocs and frees\n\n");
GAS LISTING /tmp/ccf9bp1A.s 			page 17


 331:src/Tests.cpp **** }
 332:src/Tests.cpp **** 
 333:src/Tests.cpp **** void mallocEverything()
 334:src/Tests.cpp **** {
 335:src/Tests.cpp ****     Riscv::printString("Testing allocating whole address space\n\n");
 336:src/Tests.cpp **** 
 337:src/Tests.cpp ****     uint64 neg_size = (uint64)HEAP_START_ADDR - (uint64)HEAP_END_ADDR -sizeof(MemoryAllocator::Bloc
 338:src/Tests.cpp **** 
 339:src/Tests.cpp ****     void* m = mem_alloc(neg_size);
 340:src/Tests.cpp **** 
 341:src/Tests.cpp ****     if(m!=nullptr){
 342:src/Tests.cpp ****         Riscv::printString("not OK\n");
 343:src/Tests.cpp ****         return;
 344:src/Tests.cpp ****     }
 345:src/Tests.cpp **** 
 346:src/Tests.cpp ****     uint64 blockSize = (((uint64)HEAP_END_ADDR - (uint64)HEAP_START_ADDR - sizeof(MemoryAllocator::
 347:src/Tests.cpp **** 
 348:src/Tests.cpp ****     m = mem_alloc(blockSize<<6);
 349:src/Tests.cpp **** 
 350:src/Tests.cpp ****     if(m==nullptr){
 351:src/Tests.cpp ****         Riscv::printString("not OK\n");
 352:src/Tests.cpp ****         return;
 353:src/Tests.cpp ****     }
 354:src/Tests.cpp **** 
 355:src/Tests.cpp **** //    there should be some space left still, depending on source file size and output buffer size
 356:src/Tests.cpp **** //    excess allocation should fail and small_chunk should succeed
 357:src/Tests.cpp **** 
 358:src/Tests.cpp **** //    void *excess = mem_alloc(100);
 359:src/Tests.cpp **** //
 360:src/Tests.cpp **** //    if(excess!=nullptr){
 361:src/Tests.cpp **** //        Riscv::printString("not OK\n");
 362:src/Tests.cpp **** //        return;
 363:src/Tests.cpp **** //    }
 364:src/Tests.cpp **** //
 365:src/Tests.cpp ****     void *small_chunk = mem_alloc(1);
 366:src/Tests.cpp **** 
 367:src/Tests.cpp ****     if(small_chunk == nullptr){
 368:src/Tests.cpp ****         Riscv::printString("not OK\n");
 369:src/Tests.cpp ****         return;
 370:src/Tests.cpp ****     }
 371:src/Tests.cpp **** 
 372:src/Tests.cpp ****     delete (uint64*)m;
 373:src/Tests.cpp ****     //delete (uint64*)small_chunk;
 374:src/Tests.cpp **** 
 375:src/Tests.cpp ****     Riscv::printString("SUCCESSFUL: Testing allocating whole address space\n\n");
 376:src/Tests.cpp **** }
 377:src/Tests.cpp **** 
 378:src/Tests.cpp **** void mallocGapFillTest()
 379:src/Tests.cpp **** {
 380:src/Tests.cpp ****     Riscv::printString("Testing gap filling and chunk merge after multiple mallocs and frees\n\n");
 381:src/Tests.cpp **** 
 382:src/Tests.cpp ****     const int N = 10;
 383:src/Tests.cpp **** 
 384:src/Tests.cpp ****     void *m[N];
 385:src/Tests.cpp **** 
 386:src/Tests.cpp ****     for(int i=0;i<N;i++)
 387:src/Tests.cpp ****     {
GAS LISTING /tmp/ccf9bp1A.s 			page 18


 388:src/Tests.cpp ****         m[i] = mem_alloc((i<<6)+1);
 389:src/Tests.cpp ****         if(m[i] == nullptr){
 390:src/Tests.cpp ****             Riscv::printString("not OK\n");
 391:src/Tests.cpp ****             return;
 392:src/Tests.cpp ****         }
 393:src/Tests.cpp ****     }
 394:src/Tests.cpp **** 
 395:src/Tests.cpp ****     delete (uint64*)m[2];
 396:src/Tests.cpp **** 
 397:src/Tests.cpp ****     void* tmp1 = mem_alloc(1);
 398:src/Tests.cpp ****     void* tmp2 = mem_alloc(1);
 399:src/Tests.cpp ****     void* tmp3 = mem_alloc(1);
 400:src/Tests.cpp **** 
 401:src/Tests.cpp ****     if(!tmp1 || !tmp2 || !tmp3)
 402:src/Tests.cpp ****     {
 403:src/Tests.cpp ****         Riscv::printString("not OK\n");
 404:src/Tests.cpp ****         return;
 405:src/Tests.cpp ****     }
 406:src/Tests.cpp **** 
 407:src/Tests.cpp ****     uint64 im1 = (uint64)m[1];
 408:src/Tests.cpp ****     uint64 im3 = (uint64)m[3];
 409:src/Tests.cpp ****     uint64 im5 = (uint64)m[5];
 410:src/Tests.cpp ****     uint64 imN = (uint64)m[N];
 411:src/Tests.cpp **** 
 412:src/Tests.cpp ****     uint64 itmp1 = (uint64)tmp1;
 413:src/Tests.cpp ****     uint64 itmp2 = (uint64)tmp2;
 414:src/Tests.cpp ****     uint64 itmp3 = (uint64)tmp3;
 415:src/Tests.cpp **** 
 416:src/Tests.cpp ****     if(!(im1<itmp1 && itmp1<im3 && im1<itmp2 && itmp2<im3 && itmp3>imN))
 417:src/Tests.cpp ****     {
 418:src/Tests.cpp ****         Riscv::printString("not OK\n");
 419:src/Tests.cpp ****         return;
 420:src/Tests.cpp ****     }
 421:src/Tests.cpp **** 
 422:src/Tests.cpp ****     delete (uint64*)m[3];
 423:src/Tests.cpp ****     delete (uint64*)m[4];
 424:src/Tests.cpp **** 
 425:src/Tests.cpp ****     void* tmp4 = mem_alloc(640);
 426:src/Tests.cpp ****     void* tmp5 = mem_alloc(576);
 427:src/Tests.cpp **** 
 428:src/Tests.cpp ****     if(!tmp4 || !tmp5){
 429:src/Tests.cpp ****         Riscv::printString("not OK\n");
 430:src/Tests.cpp ****         return;
 431:src/Tests.cpp ****     }
 432:src/Tests.cpp **** 
 433:src/Tests.cpp ****     uint64 itmp4 = (uint64)tmp4;
 434:src/Tests.cpp ****     uint64 itmp5 = (uint64)tmp5;
 435:src/Tests.cpp **** 
 436:src/Tests.cpp ****     if(!(itmp5>itmp2 && itmp5>im5 && itmp4<itmp3)){
 437:src/Tests.cpp ****         Riscv::printString("not OK\n");
 438:src/Tests.cpp ****         return;
 439:src/Tests.cpp ****     }
 440:src/Tests.cpp **** 
 441:src/Tests.cpp ****     for(int i=0;i<N;i++){
 442:src/Tests.cpp ****         delete (uint64*)m[i];
 443:src/Tests.cpp ****     }
 444:src/Tests.cpp **** 
GAS LISTING /tmp/ccf9bp1A.s 			page 19


 445:src/Tests.cpp ****     delete (uint64*)tmp1;
 446:src/Tests.cpp ****     delete (uint64*)tmp2;
 447:src/Tests.cpp ****     delete (uint64*)tmp3;
 448:src/Tests.cpp ****     delete (uint64*)tmp4;
 449:src/Tests.cpp ****     delete (uint64*)tmp5;
 450:src/Tests.cpp **** 
 451:src/Tests.cpp ****     Riscv::printString("SUCCESSFUL: Testing gap filling and chunk merge after multiple mallocs and 
 452:src/Tests.cpp **** }
 453:src/Tests.cpp **** 
 454:src/Tests.cpp **** char buffer[10];
 455:src/Tests.cpp **** int head = 0;
 456:src/Tests.cpp **** int tail = 0;
 457:src/Tests.cpp **** sem_t spaceAvailable, itemAvailable;
 458:src/Tests.cpp **** char string[11] = "this is ni";
 459:src/Tests.cpp **** 
 460:src/Tests.cpp **** void consumerA(void *arg)
 461:src/Tests.cpp **** {
 449              		.loc 2 461 1 is_stmt 1
 450              		.cfi_startproc
 451              	.LVL45:
 462:src/Tests.cpp ****     while(head!=10){
 452              		.loc 2 462 5
 453              		.loc 2 462 15
 454 0264 17070000 		lw	a4,.LANCHOR0
 454      03270700 
 455 026c 9307A000 		li	a5,10
 456 0270 630CF706 		beq	a4,a5,.L40
 461:src/Tests.cpp ****     while(head!=10){
 457              		.loc 2 461 1 is_stmt 0
 458 0274 130101FE 		addi	sp,sp,-32
 459              		.cfi_def_cfa_offset 32
 460 0278 233C1100 		sd	ra,24(sp)
 461 027c 23388100 		sd	s0,16(sp)
 462 0280 23349100 		sd	s1,8(sp)
 463              		.cfi_offset 1, -8
 464              		.cfi_offset 8, -16
 465              		.cfi_offset 9, -24
 466 0284 13040102 		addi	s0,sp,32
 467              		.cfi_def_cfa 8, 0
 468              	.LVL46:
 469              	.L37:
 463:src/Tests.cpp ****         sem_wait(itemAvailable);
 470              		.loc 2 463 9 is_stmt 1
 471              		.loc 2 463 17 is_stmt 0
 472 0288 97040000 		lla	s1,.LANCHOR0
 472      93840400 
 473 0290 03B58400 		ld	a0,8(s1)
 474 0294 97000000 		call	sem_wait@plt
 474      E7800000 
 475              	.LVL47:
 464:src/Tests.cpp ****         __putc(buffer[head++]);
 476              		.loc 2 464 9 is_stmt 1
 477              		.loc 2 464 27 is_stmt 0
 478 029c 83A70400 		lw	a5,0(s1)
 479 02a0 1B871700 		addiw	a4,a5,1
 480 02a4 23A0E400 		sw	a4,0(s1)
 481              		.loc 2 464 15
GAS LISTING /tmp/ccf9bp1A.s 			page 20


 482 02a8 B387F400 		add	a5,s1,a5
 483 02ac 03C50701 		lbu	a0,16(a5)
 484 02b0 97000000 		call	__putc@plt
 484      E7800000 
 485              	.LVL48:
 465:src/Tests.cpp ****         sem_signal(spaceAvailable);
 486              		.loc 2 465 9 is_stmt 1
 487              		.loc 2 465 19 is_stmt 0
 488 02b8 03B50402 		ld	a0,32(s1)
 489 02bc 97000000 		call	sem_signal@plt
 489      E7800000 
 490              	.LVL49:
 462:src/Tests.cpp ****         sem_wait(itemAvailable);
 491              		.loc 2 462 5 is_stmt 1
 462:src/Tests.cpp ****         sem_wait(itemAvailable);
 492              		.loc 2 462 15
 493 02c4 17070000 		lw	a4,.LANCHOR0
 493      03270700 
 494 02cc 9307A000 		li	a5,10
 495 02d0 E31CF7FA 		bne	a4,a5,.L37
 466:src/Tests.cpp ****     }
 467:src/Tests.cpp **** }
 496              		.loc 2 467 1 is_stmt 0
 497 02d4 83308101 		ld	ra,24(sp)
 498              		.cfi_restore 1
 499 02d8 03340101 		ld	s0,16(sp)
 500              		.cfi_restore 8
 501              		.cfi_def_cfa 2, 32
 502 02dc 83348100 		ld	s1,8(sp)
 503              		.cfi_restore 9
 504 02e0 13010102 		addi	sp,sp,32
 505              		.cfi_def_cfa_offset 0
 506 02e4 67800000 		jr	ra
 507              	.LVL50:
 508              	.L40:
 509 02e8 67800000 		ret
 510              		.cfi_endproc
 511              	.LFE50:
 513              		.align	2
 514              		.globl	_Z9producerAPv
 516              	_Z9producerAPv:
 517              	.LFB51:
 468:src/Tests.cpp **** 
 469:src/Tests.cpp **** void producerA(void *arg)
 470:src/Tests.cpp **** {
 518              		.loc 2 470 1 is_stmt 1
 519              		.cfi_startproc
 520              	.LVL51:
 471:src/Tests.cpp ****     while(tail!=10) {
 521              		.loc 2 471 5
 522              		.loc 2 471 15
 523 02ec 17070000 		lw	a4,.LANCHOR0+40
 523      03270700 
 524 02f4 9307A000 		li	a5,10
 525 02f8 6300F708 		beq	a4,a5,.L49
 470:src/Tests.cpp ****     while(tail!=10) {
 526              		.loc 2 470 1 is_stmt 0
GAS LISTING /tmp/ccf9bp1A.s 			page 21


 527 02fc 130101FE 		addi	sp,sp,-32
 528              		.cfi_def_cfa_offset 32
 529 0300 233C1100 		sd	ra,24(sp)
 530 0304 23388100 		sd	s0,16(sp)
 531 0308 23349100 		sd	s1,8(sp)
 532              		.cfi_offset 1, -8
 533              		.cfi_offset 8, -16
 534              		.cfi_offset 9, -24
 535 030c 13040102 		addi	s0,sp,32
 536              		.cfi_def_cfa 8, 0
 537              	.LVL52:
 538              	.L46:
 472:src/Tests.cpp ****         sem_wait(spaceAvailable);
 539              		.loc 2 472 9 is_stmt 1
 540              		.loc 2 472 17 is_stmt 0
 541 0310 97040000 		lla	s1,.LANCHOR0
 541      93840400 
 542 0318 03B50402 		ld	a0,32(s1)
 543 031c 97000000 		call	sem_wait@plt
 543      E7800000 
 544              	.LVL53:
 473:src/Tests.cpp ****         buffer[tail] = string[tail];
 545              		.loc 2 473 9 is_stmt 1
 546              		.loc 2 473 35 is_stmt 0
 547 0324 83A78402 		lw	a5,40(s1)
 548 0328 17070000 		lla	a4,.LANCHOR1
 548      13070700 
 549 0330 3307F700 		add	a4,a4,a5
 550 0334 83460700 		lbu	a3,0(a4)
 551              		.loc 2 473 22
 552 0338 3387F400 		add	a4,s1,a5
 553 033c 2308D700 		sb	a3,16(a4)
 474:src/Tests.cpp ****         tail++;
 554              		.loc 2 474 9 is_stmt 1
 555              		.loc 2 474 13 is_stmt 0
 556 0340 9B871700 		addiw	a5,a5,1
 557 0344 23A4F402 		sw	a5,40(s1)
 475:src/Tests.cpp ****         sem_signal(itemAvailable);
 558              		.loc 2 475 9 is_stmt 1
 559              		.loc 2 475 19 is_stmt 0
 560 0348 03B58400 		ld	a0,8(s1)
 561 034c 97000000 		call	sem_signal@plt
 561      E7800000 
 562              	.LVL54:
 471:src/Tests.cpp ****         sem_wait(spaceAvailable);
 563              		.loc 2 471 5 is_stmt 1
 471:src/Tests.cpp ****         sem_wait(spaceAvailable);
 564              		.loc 2 471 15
 565 0354 17070000 		lw	a4,.LANCHOR0+40
 565      03270700 
 566 035c 9307A000 		li	a5,10
 567 0360 E318F7FA 		bne	a4,a5,.L46
 476:src/Tests.cpp ****     }
 477:src/Tests.cpp **** }
 568              		.loc 2 477 1 is_stmt 0
 569 0364 83308101 		ld	ra,24(sp)
 570              		.cfi_restore 1
GAS LISTING /tmp/ccf9bp1A.s 			page 22


 571 0368 03340101 		ld	s0,16(sp)
 572              		.cfi_restore 8
 573              		.cfi_def_cfa 2, 32
 574 036c 83348100 		ld	s1,8(sp)
 575              		.cfi_restore 9
 576 0370 13010102 		addi	sp,sp,32
 577              		.cfi_def_cfa_offset 0
 578 0374 67800000 		jr	ra
 579              	.LVL55:
 580              	.L49:
 581 0378 67800000 		ret
 582              		.cfi_endproc
 583              	.LFE51:
 585              		.section	.text._ZN14PeriodicThreadD2Ev,"axG",@progbits,_ZN14PeriodicThreadD5Ev,comdat
 586              		.align	2
 587              		.weak	_ZN14PeriodicThreadD2Ev
 589              	_ZN14PeriodicThreadD2Ev:
 590              	.LFB41:
  64:src/../h/syscall_cpp.hpp **** {
 591              		.loc 1 64 7 is_stmt 1
 592              		.cfi_startproc
 593              	.LVL56:
 594 0000 130101FF 		addi	sp,sp,-16
 595              		.cfi_def_cfa_offset 16
 596 0004 23341100 		sd	ra,8(sp)
 597 0008 23308100 		sd	s0,0(sp)
 598              		.cfi_offset 1, -8
 599              		.cfi_offset 8, -16
 600 000c 13040101 		addi	s0,sp,16
 601              		.cfi_def_cfa 8, 0
 602              	.LBB24:
  64:src/../h/syscall_cpp.hpp **** {
 603              		.loc 1 64 7 is_stmt 0
 604 0010 97070000 		lla	a5,_ZTV14PeriodicThread+16
 604      93870700 
 605 0018 2330F500 		sd	a5,0(a0)
 606 001c 97000000 		call	_ZN6ThreadD2Ev@plt
 606      E7800000 
 607              	.LVL57:
 608              	.LBE24:
 609 0024 83308100 		ld	ra,8(sp)
 610              		.cfi_restore 1
 611 0028 03340100 		ld	s0,0(sp)
 612              		.cfi_restore 8
 613              		.cfi_def_cfa 2, 16
 614 002c 13010101 		addi	sp,sp,16
 615              		.cfi_def_cfa_offset 0
 616 0030 67800000 		jr	ra
 617              		.cfi_endproc
 618              	.LFE41:
 620              		.weak	_ZN14PeriodicThreadD1Ev
 621              		.set	_ZN14PeriodicThreadD1Ev,_ZN14PeriodicThreadD2Ev
 622              		.section	.text._ZN14PeriodicThreadD0Ev,"axG",@progbits,_ZN14PeriodicThreadD5Ev,comdat
 623              		.align	2
 624              		.weak	_ZN14PeriodicThreadD0Ev
 626              	_ZN14PeriodicThreadD0Ev:
 627              	.LFB43:
GAS LISTING /tmp/ccf9bp1A.s 			page 23


  64:src/../h/syscall_cpp.hpp **** {
 628              		.loc 1 64 7 is_stmt 1
 629              		.cfi_startproc
 630              	.LVL58:
 631 0000 130101FE 		addi	sp,sp,-32
 632              		.cfi_def_cfa_offset 32
 633 0004 233C1100 		sd	ra,24(sp)
 634 0008 23388100 		sd	s0,16(sp)
 635 000c 23349100 		sd	s1,8(sp)
 636              		.cfi_offset 1, -8
 637              		.cfi_offset 8, -16
 638              		.cfi_offset 9, -24
 639 0010 13040102 		addi	s0,sp,32
 640              		.cfi_def_cfa 8, 0
 641 0014 93040500 		mv	s1,a0
 642              	.LVL59:
 643              	.LBB25:
 644              	.LBB26:
  64:src/../h/syscall_cpp.hpp **** {
 645              		.loc 1 64 7 is_stmt 0
 646 0018 97070000 		lla	a5,_ZTV14PeriodicThread+16
 646      93870700 
 647 0020 2330F500 		sd	a5,0(a0)
 648 0024 97000000 		call	_ZN6ThreadD2Ev@plt
 648      E7800000 
 649              	.LVL60:
 650              	.LBE26:
 651              	.LBE25:
 652 002c 13850400 		mv	a0,s1
 653 0030 97000000 		call	_ZdlPv@plt
 653      E7800000 
 654              	.LVL61:
 655 0038 83308101 		ld	ra,24(sp)
 656              		.cfi_restore 1
 657 003c 03340101 		ld	s0,16(sp)
 658              		.cfi_restore 8
 659              		.cfi_def_cfa 2, 32
 660 0040 83348100 		ld	s1,8(sp)
 661              		.cfi_restore 9
 662              	.LVL62:
 663 0044 13010102 		addi	sp,sp,32
 664              		.cfi_def_cfa_offset 0
 665 0048 67800000 		jr	ra
 666              		.cfi_endproc
 667              	.LFE43:
 669              		.section	.text._ZN12TestPeriodicD2Ev,"axG",@progbits,_ZN12TestPeriodicD5Ev,comdat
 670              		.align	2
 671              		.weak	_ZN12TestPeriodicD2Ev
 673              	_ZN12TestPeriodicD2Ev:
 674              	.LFB54:
 675              		.file 3 "src/../h/Tests.hpp"
   1:src/../h/Tests.hpp **** //
   2:src/../h/Tests.hpp **** // Created by os on 5/5/22.
   3:src/../h/Tests.hpp **** //
   4:src/../h/Tests.hpp **** 
   5:src/../h/Tests.hpp **** #ifndef PROJECT_BASE_V1_0_TESTS_HPP
   6:src/../h/Tests.hpp **** #define PROJECT_BASE_V1_0_TESTS_HPP
GAS LISTING /tmp/ccf9bp1A.s 			page 24


   7:src/../h/Tests.hpp **** 
   8:src/../h/Tests.hpp **** #include "Riscv.hpp"
   9:src/../h/Tests.hpp **** #include "PCB.hpp"
  10:src/../h/Tests.hpp **** #include "syscall_cpp.hpp"
  11:src/../h/Tests.hpp **** 
  12:src/../h/Tests.hpp **** class Test
  13:src/../h/Tests.hpp **** {
  14:src/../h/Tests.hpp **** public:
  15:src/../h/Tests.hpp ****     uint64 a;
  16:src/../h/Tests.hpp **** };
  17:src/../h/Tests.hpp **** struct object{
  18:src/../h/Tests.hpp ****     int a,b,c,d,e,f,g,h,i,j,k;
  19:src/../h/Tests.hpp **** };
  20:src/../h/Tests.hpp **** struct node{
  21:src/../h/Tests.hpp ****     object o1, o2, o3;
  22:src/../h/Tests.hpp ****     char id;
  23:src/../h/Tests.hpp ****     node *next, *prev;
  24:src/../h/Tests.hpp **** };
  25:src/../h/Tests.hpp **** 
  26:src/../h/Tests.hpp **** //memory (de)allocation tests
  27:src/../h/Tests.hpp **** void mallocFree();
  28:src/../h/Tests.hpp **** void bigMalloc();
  29:src/../h/Tests.hpp **** void lotOfSmallMallocs();
  30:src/../h/Tests.hpp **** void badFree();
  31:src/../h/Tests.hpp **** void stressTesting();
  32:src/../h/Tests.hpp **** void mallocTest();
  33:src/../h/Tests.hpp **** void mallocEverything();
  34:src/../h/Tests.hpp **** void mallocGapFillTest();
  35:src/../h/Tests.hpp **** void memoryAllocationTests();
  36:src/../h/Tests.hpp **** 
  37:src/../h/Tests.hpp **** //thread tests
  38:src/../h/Tests.hpp **** void thread1Function();
  39:src/../h/Tests.hpp **** void thread2Function();
  40:src/../h/Tests.hpp **** 
  41:src/../h/Tests.hpp **** void threadFunction3();
  42:src/../h/Tests.hpp **** 
  43:src/../h/Tests.hpp **** void threadTest1();
  44:src/../h/Tests.hpp **** void threadTest2();
  45:src/../h/Tests.hpp **** void threadTest3();
  46:src/../h/Tests.hpp **** 
  47:src/../h/Tests.hpp **** void threadTests();
  48:src/../h/Tests.hpp **** 
  49:src/../h/Tests.hpp **** class TestPeriodic : public PeriodicThread
 676              		.loc 3 49 7 is_stmt 1
 677              		.cfi_startproc
 678              	.LVL63:
 679 0000 130101FF 		addi	sp,sp,-16
 680              		.cfi_def_cfa_offset 16
 681 0004 23341100 		sd	ra,8(sp)
 682 0008 23308100 		sd	s0,0(sp)
 683              		.cfi_offset 1, -8
 684              		.cfi_offset 8, -16
 685 000c 13040101 		addi	s0,sp,16
 686              		.cfi_def_cfa 8, 0
 687              	.LVL64:
 688              	.LBB27:
 689              	.LBB28:
GAS LISTING /tmp/ccf9bp1A.s 			page 25


  64:src/../h/syscall_cpp.hpp **** {
 690              		.loc 1 64 7 is_stmt 0
 691 0010 97070000 		lla	a5,_ZTV14PeriodicThread+16
 691      93870700 
 692 0018 2330F500 		sd	a5,0(a0)
 693 001c 97000000 		call	_ZN6ThreadD2Ev@plt
 693      E7800000 
 694              	.LVL65:
 695              	.LBE28:
 696              	.LBE27:
 697              		.loc 3 49 7
 698 0024 83308100 		ld	ra,8(sp)
 699              		.cfi_restore 1
 700 0028 03340100 		ld	s0,0(sp)
 701              		.cfi_restore 8
 702              		.cfi_def_cfa 2, 16
 703 002c 13010101 		addi	sp,sp,16
 704              		.cfi_def_cfa_offset 0
 705 0030 67800000 		jr	ra
 706              		.cfi_endproc
 707              	.LFE54:
 709              		.weak	_ZN12TestPeriodicD1Ev
 710              		.set	_ZN12TestPeriodicD1Ev,_ZN12TestPeriodicD2Ev
 711              		.section	.text._ZN12TestPeriodicD0Ev,"axG",@progbits,_ZN12TestPeriodicD5Ev,comdat
 712              		.align	2
 713              		.weak	_ZN12TestPeriodicD0Ev
 715              	_ZN12TestPeriodicD0Ev:
 716              	.LFB56:
 717              		.loc 3 49 7 is_stmt 1
 718              		.cfi_startproc
 719              	.LVL66:
 720 0000 130101FE 		addi	sp,sp,-32
 721              		.cfi_def_cfa_offset 32
 722 0004 233C1100 		sd	ra,24(sp)
 723 0008 23388100 		sd	s0,16(sp)
 724 000c 23349100 		sd	s1,8(sp)
 725              		.cfi_offset 1, -8
 726              		.cfi_offset 8, -16
 727              		.cfi_offset 9, -24
 728 0010 13040102 		addi	s0,sp,32
 729              		.cfi_def_cfa 8, 0
 730 0014 93040500 		mv	s1,a0
 731              	.LVL67:
 732              	.LBB29:
 733              	.LBB30:
 734              	.LBB31:
  64:src/../h/syscall_cpp.hpp **** {
 735              		.loc 1 64 7 is_stmt 0
 736 0018 97070000 		lla	a5,_ZTV14PeriodicThread+16
 736      93870700 
 737 0020 2330F500 		sd	a5,0(a0)
 738 0024 97000000 		call	_ZN6ThreadD2Ev@plt
 738      E7800000 
 739              	.LVL68:
 740              	.LBE31:
 741              	.LBE30:
 742              	.LBE29:
GAS LISTING /tmp/ccf9bp1A.s 			page 26


 743              		.loc 3 49 7
 744 002c 13850400 		mv	a0,s1
 745 0030 97000000 		call	_ZdlPv@plt
 745      E7800000 
 746              	.LVL69:
 747 0038 83308101 		ld	ra,24(sp)
 748              		.cfi_restore 1
 749 003c 03340101 		ld	s0,16(sp)
 750              		.cfi_restore 8
 751              		.cfi_def_cfa 2, 32
 752 0040 83348100 		ld	s1,8(sp)
 753              		.cfi_restore 9
 754              	.LVL70:
 755 0044 13010102 		addi	sp,sp,32
 756              		.cfi_def_cfa_offset 0
 757 0048 67800000 		jr	ra
 758              		.cfi_endproc
 759              	.LFE56:
 761              		.section	.rodata.str1.8
 762 004d 000000   		.align	3
 763              	.LC6:
 764 0050 4D61696E 		.string	"Main thread\n"
 764      20746872 
 764      6561640A 
 764      00
 765 005d 000000   		.align	3
 766              	.LC7:
 767 0060 456E642E 		.string	"End...\n"
 767      2E2E0A00 
 768              		.text
 769              		.align	2
 770              		.globl	_Z11threadTest1v
 772              	_Z11threadTest1v:
 773              	.LFB27:
  62:src/Tests.cpp ****     Thread* t1 = new Thread(&thread1Function, 0);
 774              		.loc 2 62 1 is_stmt 1
 775              		.cfi_startproc
 776              		.cfi_personality 0x9b,DW.ref.__gxx_personality_v0
 777              		.cfi_lsda 0x1b,.LLSDA27
 778 037c 130101FE 		addi	sp,sp,-32
 779              		.cfi_def_cfa_offset 32
 780 0380 233C1100 		sd	ra,24(sp)
 781 0384 23388100 		sd	s0,16(sp)
 782 0388 23349100 		sd	s1,8(sp)
 783 038c 23302101 		sd	s2,0(sp)
 784              		.cfi_offset 1, -8
 785              		.cfi_offset 8, -16
 786              		.cfi_offset 9, -24
 787              		.cfi_offset 18, -32
 788 0390 13040102 		addi	s0,sp,32
 789              		.cfi_def_cfa 8, 0
  63:src/Tests.cpp ****     t1->start();
 790              		.loc 2 63 5
  63:src/Tests.cpp ****     t1->start();
 791              		.loc 2 63 48 is_stmt 0
 792 0394 13050002 		li	a0,32
 793              	.LEHB0:
GAS LISTING /tmp/ccf9bp1A.s 			page 27


 794 0398 97000000 		call	_Znwm@plt
 794      E7800000 
 795              	.LVL71:
 796              	.LEHE0:
 797 03a0 93040500 		mv	s1,a0
 798 03a4 13060000 		li	a2,0
 799 03a8 97050000 		lla	a1,_Z15thread1FunctionPv
 799      93850500 
 800              	.LEHB1:
 801 03b0 97000000 		call	_ZN6ThreadC1EPFvPvES0_@plt
 801      E7800000 
 802              	.LVL72:
 803              	.LEHE1:
  64:src/Tests.cpp ****     Thread* t2 = new Thread(&thread2Function, 0);
 804              		.loc 2 64 5 is_stmt 1 discriminator 2
  64:src/Tests.cpp ****     Thread* t2 = new Thread(&thread2Function, 0);
 805              		.loc 2 64 14 is_stmt 0 discriminator 2
 806 03b8 13850400 		mv	a0,s1
 807              	.LEHB2:
 808 03bc 97000000 		call	_ZN6Thread5startEv@plt
 808      E7800000 
 809              	.LVL73:
  65:src/Tests.cpp ****     t2->start();
 810              		.loc 2 65 5 is_stmt 1 discriminator 2
  65:src/Tests.cpp ****     t2->start();
 811              		.loc 2 65 48 is_stmt 0 discriminator 2
 812 03c4 13050002 		li	a0,32
 813 03c8 97000000 		call	_Znwm@plt
 813      E7800000 
 814              	.LVL74:
 815              	.LEHE2:
 816 03d0 13090500 		mv	s2,a0
 817 03d4 13060000 		li	a2,0
 818 03d8 97050000 		lla	a1,_Z15thread2FunctionPv
 818      93850500 
 819              	.LEHB3:
 820 03e0 97000000 		call	_ZN6ThreadC1EPFvPvES0_@plt
 820      E7800000 
 821              	.LVL75:
 822              	.LEHE3:
  66:src/Tests.cpp ****     Riscv::enableInterrupts();
 823              		.loc 2 66 5 is_stmt 1 discriminator 2
  66:src/Tests.cpp ****     Riscv::enableInterrupts();
 824              		.loc 2 66 14 is_stmt 0 discriminator 2
 825 03e8 13050900 		mv	a0,s2
 826              	.LEHB4:
 827 03ec 97000000 		call	_ZN6Thread5startEv@plt
 827      E7800000 
 828              	.LVL76:
  67:src/Tests.cpp ****     while(((PCB*)(t1->myHandle))->getState() != PCB::FINISHED || ((PCB*)(t2->myHandle))->getState()
 829              		.loc 2 67 5 is_stmt 1 discriminator 2
  67:src/Tests.cpp ****     while(((PCB*)(t1->myHandle))->getState() != PCB::FINISHED || ((PCB*)(t2->myHandle))->getState()
 830              		.loc 2 67 28 is_stmt 0 discriminator 2
 831 03f4 97000000 		call	_ZN5Riscv16enableInterruptsEv@plt
 831      E7800000 
 832              	.LVL77:
 833 03fc 6F00C001 		j	.L61
GAS LISTING /tmp/ccf9bp1A.s 			page 28


 834              	.L59:
  70:src/Tests.cpp ****         thread_dispatch();
 835              		.loc 2 70 9 is_stmt 1 discriminator 3
  70:src/Tests.cpp ****         thread_dispatch();
 836              		.loc 2 70 27 is_stmt 0 discriminator 3
 837 0400 17050000 		lla	a0,.LC6
 837      13050500 
 838 0408 97000000 		call	_ZN5Riscv11printStringEPKc@plt
 838      E7800000 
 839              	.LVL78:
  71:src/Tests.cpp ****     }
 840              		.loc 2 71 9 is_stmt 1 discriminator 3
  71:src/Tests.cpp ****     }
 841              		.loc 2 71 24 is_stmt 0 discriminator 3
 842 0410 97000000 		call	thread_dispatch@plt
 842      E7800000 
 843              	.LVL79:
 844              	.L61:
  68:src/Tests.cpp ****     {
 845              		.loc 2 68 5 is_stmt 1
  68:src/Tests.cpp ****     {
 846              		.loc 2 68 63
  68:src/Tests.cpp ****     {
 847              		.loc 2 68 23 is_stmt 0
 848 0418 83B78400 		ld	a5,8(s1)
 849              	.LVL80:
 850              	.LBB32:
 851              	.LBB33:
 852              		.file 4 "src/../h/PCB.hpp"
   1:src/../h/PCB.hpp **** //
   2:src/../h/PCB.hpp **** // Created by os on 4/27/22.
   3:src/../h/PCB.hpp **** //
   4:src/../h/PCB.hpp **** 
   5:src/../h/PCB.hpp **** #ifndef PROJECT_BASE_V1_0_PCB_HPP
   6:src/../h/PCB.hpp **** #define PROJECT_BASE_V1_0_PCB_HPP
   7:src/../h/PCB.hpp **** 
   8:src/../h/PCB.hpp **** #include "../lib/hw.h"
   9:src/../h/PCB.hpp **** #include "Scheduler.hpp"
  10:src/../h/PCB.hpp **** #include "Riscv.hpp"
  11:src/../h/PCB.hpp **** 
  12:src/../h/PCB.hpp **** class PCB
  13:src/../h/PCB.hpp **** {
  14:src/../h/PCB.hpp **** public:
  15:src/../h/PCB.hpp ****     using Body = void (*)(void*);
  16:src/../h/PCB.hpp **** 
  17:src/../h/PCB.hpp ****     PCB(Body body,  void* args, void* stack_space, uint64 timeSlice);
  18:src/../h/PCB.hpp ****     ~PCB();
  19:src/../h/PCB.hpp **** 
  20:src/../h/PCB.hpp ****     void start();
  21:src/../h/PCB.hpp ****     static void dispatch();
  22:src/../h/PCB.hpp ****     static void sleep(time_t);
  23:src/../h/PCB.hpp **** 
  24:src/../h/PCB.hpp ****     static PCB* running;
  25:src/../h/PCB.hpp **** 
  26:src/../h/PCB.hpp ****     static uint64 timeSliceCounter;
  27:src/../h/PCB.hpp ****     uint64 getTimeSlice() { return timeSlice;}
  28:src/../h/PCB.hpp **** 
GAS LISTING /tmp/ccf9bp1A.s 			page 29


  29:src/../h/PCB.hpp ****     void* operator new(size_t size);
  30:src/../h/PCB.hpp ****     void operator delete(void *p);
  31:src/../h/PCB.hpp **** 
  32:src/../h/PCB.hpp ****     enum State{READY, RUNNING, SUSPENDED, FINISHED, EXITING, SLEEPING};
  33:src/../h/PCB.hpp ****     State getState() {return state;}
 853              		.loc 4 33 23 is_stmt 1
 854              		.loc 4 33 30 is_stmt 0
 855 041c 03A78703 		lw	a4,56(a5)
 856              	.LVL81:
 857              	.LBE33:
 858              	.LBE32:
  68:src/Tests.cpp ****     {
 859              		.loc 2 68 63
 860 0420 93073000 		li	a5,3
 861 0424 E31EF7FC 		bne	a4,a5,.L59
  68:src/Tests.cpp ****     {
 862              		.loc 2 68 78 discriminator 2
 863 0428 83378900 		ld	a5,8(s2)
 864              	.LVL82:
 865              	.LBB34:
 866              	.LBB35:
 867              		.loc 4 33 23 is_stmt 1 discriminator 2
 868              		.loc 4 33 30 is_stmt 0 discriminator 2
 869 042c 03A78703 		lw	a4,56(a5)
 870              	.LVL83:
 871              	.LBE35:
 872              	.LBE34:
  68:src/Tests.cpp ****     {
 873              		.loc 2 68 63 discriminator 2
 874 0430 93073000 		li	a5,3
 875 0434 E316F7FC 		bne	a4,a5,.L59
  74:src/Tests.cpp ****     Riscv::disableInterrupts();
 876              		.loc 2 74 5 is_stmt 1
  74:src/Tests.cpp ****     Riscv::disableInterrupts();
 877              		.loc 2 74 23 is_stmt 0
 878 0438 17050000 		lla	a0,.LC7
 878      13050500 
 879 0440 97000000 		call	_ZN5Riscv11printStringEPKc@plt
 879      E7800000 
 880              	.LVL84:
  75:src/Tests.cpp **** }
 881              		.loc 2 75 5 is_stmt 1
  75:src/Tests.cpp **** }
 882              		.loc 2 75 29 is_stmt 0
 883 0448 97000000 		call	_ZN5Riscv17disableInterruptsEv@plt
 883      E7800000 
 884              	.LVL85:
 885              	.LEHE4:
  76:src/Tests.cpp **** 
 886              		.loc 2 76 1
 887 0450 83308101 		ld	ra,24(sp)
 888              		.cfi_remember_state
 889              		.cfi_restore 1
 890 0454 03340101 		ld	s0,16(sp)
 891              		.cfi_restore 8
 892              		.cfi_def_cfa 2, 32
 893 0458 83348100 		ld	s1,8(sp)
GAS LISTING /tmp/ccf9bp1A.s 			page 30


 894              		.cfi_restore 9
 895              	.LVL86:
 896 045c 03390100 		ld	s2,0(sp)
 897              		.cfi_restore 18
 898              	.LVL87:
 899 0460 13010102 		addi	sp,sp,32
 900              		.cfi_def_cfa_offset 0
 901 0464 67800000 		jr	ra
 902              	.L64:
 903              		.cfi_restore_state
 904 0468 13090500 		mv	s2,a0
  63:src/Tests.cpp ****     t1->start();
 905              		.loc 2 63 48
 906 046c 13850400 		mv	a0,s1
 907 0470 97000000 		call	_ZdlPv@plt
 907      E7800000 
 908              	.LVL88:
 909 0478 13050900 		mv	a0,s2
 910              	.LEHB5:
 911 047c 97000000 		call	_Unwind_Resume@plt
 911      E7800000 
 912              	.LVL89:
 913              	.LEHE5:
 914              	.L65:
 915 0484 93040500 		mv	s1,a0
 916              	.LVL90:
  65:src/Tests.cpp ****     t2->start();
 917              		.loc 2 65 48
 918 0488 13050900 		mv	a0,s2
 919 048c 97000000 		call	_ZdlPv@plt
 919      E7800000 
 920              	.LVL91:
 921 0494 13850400 		mv	a0,s1
 922              	.LEHB6:
 923 0498 97000000 		call	_Unwind_Resume@plt
 923      E7800000 
 924              	.LVL92:
 925              	.LEHE6:
 926              		.cfi_endproc
 927              	.LFE27:
 928              		.globl	__gxx_personality_v0
 929              		.section	.gcc_except_table,"a",@progbits
 930              	.LLSDA27:
 931 0000 FF       		.byte	0xff
 932 0001 FF       		.byte	0xff
 933 0002 03       		.byte	0x3
 934 0003 5B       		.byte	0x5b
 935 0004 00000000 		.4byte	.LEHB0-.LFB27
 936 0008 00000000 		.4byte	.LEHE0-.LEHB0
 937 000c 00000000 		.4byte	0
 938 0010 00       		.byte	0
 939 0011 00000000 		.4byte	.LEHB1-.LFB27
 940 0015 00000000 		.4byte	.LEHE1-.LEHB1
 941 0019 00000000 		.4byte	.L64-.LFB27
 942 001d 00       		.byte	0
 943 001e 00000000 		.4byte	.LEHB2-.LFB27
 944 0022 00000000 		.4byte	.LEHE2-.LEHB2
GAS LISTING /tmp/ccf9bp1A.s 			page 31


 945 0026 00000000 		.4byte	0
 946 002a 00       		.byte	0
 947 002b 00000000 		.4byte	.LEHB3-.LFB27
 948 002f 00000000 		.4byte	.LEHE3-.LEHB3
 949 0033 00000000 		.4byte	.L65-.LFB27
 950 0037 00       		.byte	0
 951 0038 00000000 		.4byte	.LEHB4-.LFB27
 952 003c 00000000 		.4byte	.LEHE4-.LEHB4
 953 0040 00000000 		.4byte	0
 954 0044 00       		.byte	0
 955 0045 00000000 		.4byte	.LEHB5-.LFB27
 956 0049 00000000 		.4byte	.LEHE5-.LEHB5
 957 004d 00000000 		.4byte	0
 958 0051 00       		.byte	0
 959 0052 00000000 		.4byte	.LEHB6-.LFB27
 960 0056 00000000 		.4byte	.LEHE6-.LEHB6
 961 005a 00000000 		.4byte	0
 962 005e 00       		.byte	0
 963              		.text
 965              		.align	2
 966              		.globl	_Z11threadTest2v
 968              	_Z11threadTest2v:
 969              	.LFB28:
  79:src/Tests.cpp ****     Thread* idleThread = new Thread(&idle, 0);
 970              		.loc 2 79 1 is_stmt 1
 971              		.cfi_startproc
 972              		.cfi_personality 0x9b,DW.ref.__gxx_personality_v0
 973              		.cfi_lsda 0x1b,.LLSDA28
 974 04a0 130101FE 		addi	sp,sp,-32
 975              		.cfi_def_cfa_offset 32
 976 04a4 233C1100 		sd	ra,24(sp)
 977 04a8 23388100 		sd	s0,16(sp)
 978 04ac 23349100 		sd	s1,8(sp)
 979 04b0 23302101 		sd	s2,0(sp)
 980              		.cfi_offset 1, -8
 981              		.cfi_offset 8, -16
 982              		.cfi_offset 9, -24
 983              		.cfi_offset 18, -32
 984 04b4 13040102 		addi	s0,sp,32
 985              		.cfi_def_cfa 8, 0
  80:src/Tests.cpp ****     idleThread->start();
 986              		.loc 2 80 5
  80:src/Tests.cpp ****     idleThread->start();
 987              		.loc 2 80 45 is_stmt 0
 988 04b8 13050002 		li	a0,32
 989              	.LEHB7:
 990 04bc 97000000 		call	_Znwm@plt
 990      E7800000 
 991              	.LVL93:
 992              	.LEHE7:
 993 04c4 93040500 		mv	s1,a0
 994 04c8 13060000 		li	a2,0
 995 04cc 97050000 		lla	a1,_Z4idlePv
 995      93850500 
 996              	.LEHB8:
 997 04d4 97000000 		call	_ZN6ThreadC1EPFvPvES0_@plt
 997      E7800000 
GAS LISTING /tmp/ccf9bp1A.s 			page 32


 998              	.LVL94:
 999              	.LEHE8:
  81:src/Tests.cpp ****     Thread* t1 = new Thread(&thread1Function, 0);
 1000              		.loc 2 81 5 is_stmt 1 discriminator 2
  81:src/Tests.cpp ****     Thread* t1 = new Thread(&thread1Function, 0);
 1001              		.loc 2 81 22 is_stmt 0 discriminator 2
 1002 04dc 13850400 		mv	a0,s1
 1003              	.LEHB9:
 1004 04e0 97000000 		call	_ZN6Thread5startEv@plt
 1004      E7800000 
 1005              	.LVL95:
  82:src/Tests.cpp ****     t1->start();
 1006              		.loc 2 82 5 is_stmt 1 discriminator 2
  82:src/Tests.cpp ****     t1->start();
 1007              		.loc 2 82 48 is_stmt 0 discriminator 2
 1008 04e8 13050002 		li	a0,32
 1009 04ec 97000000 		call	_Znwm@plt
 1009      E7800000 
 1010              	.LVL96:
 1011              	.LEHE9:
 1012 04f4 13090500 		mv	s2,a0
 1013 04f8 13060000 		li	a2,0
 1014 04fc 97050000 		lla	a1,_Z15thread1FunctionPv
 1014      93850500 
 1015              	.LEHB10:
 1016 0504 97000000 		call	_ZN6ThreadC1EPFvPvES0_@plt
 1016      E7800000 
 1017              	.LVL97:
 1018              	.LEHE10:
  83:src/Tests.cpp ****     Thread* t2  = new Thread(&thread2FunctionTest2, 0);
 1019              		.loc 2 83 5 is_stmt 1 discriminator 2
  83:src/Tests.cpp ****     Thread* t2  = new Thread(&thread2FunctionTest2, 0);
 1020              		.loc 2 83 14 is_stmt 0 discriminator 2
 1021 050c 13050900 		mv	a0,s2
 1022              	.LEHB11:
 1023 0510 97000000 		call	_ZN6Thread5startEv@plt
 1023      E7800000 
 1024              	.LVL98:
  84:src/Tests.cpp ****     t2->start();
 1025              		.loc 2 84 5 is_stmt 1 discriminator 2
  84:src/Tests.cpp ****     t2->start();
 1026              		.loc 2 84 54 is_stmt 0 discriminator 2
 1027 0518 13050002 		li	a0,32
 1028 051c 97000000 		call	_Znwm@plt
 1028      E7800000 
 1029              	.LVL99:
 1030              	.LEHE11:
 1031 0524 13090500 		mv	s2,a0
 1032              	.LVL100:
 1033 0528 13060000 		li	a2,0
 1034 052c 97050000 		lla	a1,_Z20thread2FunctionTest2Pv
 1034      93850500 
 1035              	.LEHB12:
 1036 0534 97000000 		call	_ZN6ThreadC1EPFvPvES0_@plt
 1036      E7800000 
 1037              	.LVL101:
 1038              	.LEHE12:
GAS LISTING /tmp/ccf9bp1A.s 			page 33


  85:src/Tests.cpp **** 
 1039              		.loc 2 85 5 is_stmt 1 discriminator 2
  85:src/Tests.cpp **** 
 1040              		.loc 2 85 14 is_stmt 0 discriminator 2
 1041 053c 13050900 		mv	a0,s2
 1042              	.LEHB13:
 1043 0540 97000000 		call	_ZN6Thread5startEv@plt
 1043      E7800000 
 1044              	.LVL102:
  87:src/Tests.cpp **** 
 1045              		.loc 2 87 5 is_stmt 1 discriminator 2
  87:src/Tests.cpp **** 
 1046              		.loc 2 87 28 is_stmt 0 discriminator 2
 1047 0548 97000000 		call	_ZN5Riscv16enableInterruptsEv@plt
 1047      E7800000 
 1048              	.LVL103:
 1049              	.L69:
  89:src/Tests.cpp **** 
 1050              		.loc 2 89 5 is_stmt 1
  89:src/Tests.cpp **** 
 1051              		.loc 2 89 52
  89:src/Tests.cpp **** 
 1052              		.loc 2 89 30 is_stmt 0
 1053 0550 83B78400 		ld	a5,8(s1)
 1054              	.LVL104:
 1055              	.LBB36:
 1056              	.LBB37:
 1057              		.loc 4 33 23 is_stmt 1
 1058              		.loc 4 33 30 is_stmt 0
 1059 0554 03A78703 		lw	a4,56(a5)
 1060              	.LVL105:
 1061              	.LBE37:
 1062              	.LBE36:
  89:src/Tests.cpp **** 
 1063              		.loc 2 89 52
 1064 0558 93073000 		li	a5,3
 1065 055c E31AF7FE 		bne	a4,a5,.L69
  91:src/Tests.cpp **** 
 1066              		.loc 2 91 5 is_stmt 1
  91:src/Tests.cpp **** 
 1067              		.loc 2 91 23 is_stmt 0
 1068 0560 17050000 		lla	a0,.LC7
 1068      13050500 
 1069 0568 97000000 		call	_ZN5Riscv11printStringEPKc@plt
 1069      E7800000 
 1070              	.LVL106:
  93:src/Tests.cpp **** }
 1071              		.loc 2 93 5 is_stmt 1
  93:src/Tests.cpp **** }
 1072              		.loc 2 93 29 is_stmt 0
 1073 0570 97000000 		call	_ZN5Riscv17disableInterruptsEv@plt
 1073      E7800000 
 1074              	.LVL107:
 1075              	.LEHE13:
  94:src/Tests.cpp **** 
 1076              		.loc 2 94 1
 1077 0578 83308101 		ld	ra,24(sp)
GAS LISTING /tmp/ccf9bp1A.s 			page 34


 1078              		.cfi_remember_state
 1079              		.cfi_restore 1
 1080 057c 03340101 		ld	s0,16(sp)
 1081              		.cfi_restore 8
 1082              		.cfi_def_cfa 2, 32
 1083 0580 83348100 		ld	s1,8(sp)
 1084              		.cfi_restore 9
 1085              	.LVL108:
 1086 0584 03390100 		ld	s2,0(sp)
 1087              		.cfi_restore 18
 1088              	.LVL109:
 1089 0588 13010102 		addi	sp,sp,32
 1090              		.cfi_def_cfa_offset 0
 1091 058c 67800000 		jr	ra
 1092              	.L73:
 1093              		.cfi_restore_state
 1094 0590 13090500 		mv	s2,a0
  80:src/Tests.cpp ****     idleThread->start();
 1095              		.loc 2 80 45
 1096 0594 13850400 		mv	a0,s1
 1097 0598 97000000 		call	_ZdlPv@plt
 1097      E7800000 
 1098              	.LVL110:
 1099 05a0 13050900 		mv	a0,s2
 1100              	.LEHB14:
 1101 05a4 97000000 		call	_Unwind_Resume@plt
 1101      E7800000 
 1102              	.LVL111:
 1103              	.LEHE14:
 1104              	.L74:
 1105 05ac 93040500 		mv	s1,a0
 1106              	.LVL112:
  82:src/Tests.cpp ****     t1->start();
 1107              		.loc 2 82 48
 1108 05b0 13050900 		mv	a0,s2
 1109 05b4 97000000 		call	_ZdlPv@plt
 1109      E7800000 
 1110              	.LVL113:
 1111 05bc 13850400 		mv	a0,s1
 1112              	.LEHB15:
 1113 05c0 97000000 		call	_Unwind_Resume@plt
 1113      E7800000 
 1114              	.LVL114:
 1115              	.LEHE15:
 1116              	.L75:
 1117 05c8 93040500 		mv	s1,a0
 1118              	.LVL115:
  84:src/Tests.cpp ****     t2->start();
 1119              		.loc 2 84 54
 1120 05cc 13050900 		mv	a0,s2
 1121 05d0 97000000 		call	_ZdlPv@plt
 1121      E7800000 
 1122              	.LVL116:
 1123 05d8 13850400 		mv	a0,s1
 1124              	.LEHB16:
 1125 05dc 97000000 		call	_Unwind_Resume@plt
 1125      E7800000 
GAS LISTING /tmp/ccf9bp1A.s 			page 35


 1126              	.LVL117:
 1127              	.LEHE16:
 1128              		.cfi_endproc
 1129              	.LFE28:
 1130              		.section	.gcc_except_table
 1131              	.LLSDA28:
 1132 005f FF       		.byte	0xff
 1133 0060 FF       		.byte	0xff
 1134 0061 03       		.byte	0x3
 1135 0062 8201     		.byte	0x82,0x1
 1136 0064 00000000 		.4byte	.LEHB7-.LFB28
 1137 0068 00000000 		.4byte	.LEHE7-.LEHB7
 1138 006c 00000000 		.4byte	0
 1139 0070 00       		.byte	0
 1140 0071 00000000 		.4byte	.LEHB8-.LFB28
 1141 0075 00000000 		.4byte	.LEHE8-.LEHB8
 1142 0079 00000000 		.4byte	.L73-.LFB28
 1143 007d 00       		.byte	0
 1144 007e 00000000 		.4byte	.LEHB9-.LFB28
 1145 0082 00000000 		.4byte	.LEHE9-.LEHB9
 1146 0086 00000000 		.4byte	0
 1147 008a 00       		.byte	0
 1148 008b 00000000 		.4byte	.LEHB10-.LFB28
 1149 008f 00000000 		.4byte	.LEHE10-.LEHB10
 1150 0093 00000000 		.4byte	.L74-.LFB28
 1151 0097 00       		.byte	0
 1152 0098 00000000 		.4byte	.LEHB11-.LFB28
 1153 009c 00000000 		.4byte	.LEHE11-.LEHB11
 1154 00a0 00000000 		.4byte	0
 1155 00a4 00       		.byte	0
 1156 00a5 00000000 		.4byte	.LEHB12-.LFB28
 1157 00a9 00000000 		.4byte	.LEHE12-.LEHB12
 1158 00ad 00000000 		.4byte	.L75-.LFB28
 1159 00b1 00       		.byte	0
 1160 00b2 00000000 		.4byte	.LEHB13-.LFB28
 1161 00b6 00000000 		.4byte	.LEHE13-.LEHB13
 1162 00ba 00000000 		.4byte	0
 1163 00be 00       		.byte	0
 1164 00bf 00000000 		.4byte	.LEHB14-.LFB28
 1165 00c3 00000000 		.4byte	.LEHE14-.LEHB14
 1166 00c7 00000000 		.4byte	0
 1167 00cb 00       		.byte	0
 1168 00cc 00000000 		.4byte	.LEHB15-.LFB28
 1169 00d0 00000000 		.4byte	.LEHE15-.LEHB15
 1170 00d4 00000000 		.4byte	0
 1171 00d8 00       		.byte	0
 1172 00d9 00000000 		.4byte	.LEHB16-.LFB28
 1173 00dd 00000000 		.4byte	.LEHE16-.LEHB16
 1174 00e1 00000000 		.4byte	0
 1175 00e5 00       		.byte	0
 1176              		.text
 1178              		.align	2
 1179              		.globl	_Z11threadTestsv
 1181              	_Z11threadTestsv:
 1182              	.LFB30:
 108:src/Tests.cpp ****     //threadTest1();
 1183              		.loc 2 108 1 is_stmt 1
GAS LISTING /tmp/ccf9bp1A.s 			page 36


 1184              		.cfi_startproc
 1185 05e4 130101FF 		addi	sp,sp,-16
 1186              		.cfi_def_cfa_offset 16
 1187 05e8 23348100 		sd	s0,8(sp)
 1188              		.cfi_offset 8, -8
 1189 05ec 13040101 		addi	s0,sp,16
 1190              		.cfi_def_cfa 8, 0
 112:src/Tests.cpp **** 
 1191              		.loc 2 112 1 is_stmt 0
 1192 05f0 03348100 		ld	s0,8(sp)
 1193              		.cfi_restore 8
 1194              		.cfi_def_cfa 2, 16
 1195 05f4 13010101 		addi	sp,sp,16
 1196              		.cfi_def_cfa_offset 0
 1197 05f8 67800000 		jr	ra
 1198              		.cfi_endproc
 1199              	.LFE30:
 1201              		.section	.rodata.str1.8
 1202              		.align	3
 1203              	.LC8:
 1204 0068 6D616C6C 		.string	"mallocFree\n"
 1204      6F634672 
 1204      65650A00 
 1205 0074 00000000 		.align	3
 1206              	.LC9:
 1207 0078 6E6F7420 		.string	"not OK\n"
 1207      4F4B0A00 
 1208              		.align	3
 1209              	.LC10:
 1210 0080 4F4B0A00 		.string	"OK\n"
 1211              		.text
 1212              		.align	2
 1213              		.globl	_Z10mallocFreev
 1215              	_Z10mallocFreev:
 1216              	.LFB31:
 117:src/Tests.cpp ****     Riscv::printString("mallocFree\n");
 1217              		.loc 2 117 1 is_stmt 1
 1218              		.cfi_startproc
 1219 05fc 130101CC 		addi	sp,sp,-832
 1220              		.cfi_def_cfa_offset 832
 1221 0600 233C1132 		sd	ra,824(sp)
 1222 0604 23388132 		sd	s0,816(sp)
 1223 0608 23349132 		sd	s1,808(sp)
 1224              		.cfi_offset 1, -8
 1225              		.cfi_offset 8, -16
 1226              		.cfi_offset 9, -24
 1227 060c 13040134 		addi	s0,sp,832
 1228              		.cfi_def_cfa 8, 0
 118:src/Tests.cpp ****     constexpr int num = 100;
 1229              		.loc 2 118 5
 118:src/Tests.cpp ****     constexpr int num = 100;
 1230              		.loc 2 118 23 is_stmt 0
 1231 0610 17050000 		lla	a0,.LC8
 1231      13050500 
 1232 0618 97000000 		call	_ZN5Riscv11printStringEPKc@plt
 1232      E7800000 
 1233              	.LVL118:
GAS LISTING /tmp/ccf9bp1A.s 			page 37


 1234              	.LBB38:
 121:src/Tests.cpp ****     {
 1235              		.loc 2 121 13
 1236 0620 93040000 		li	s1,0
 1237 0624 6F008000 		j	.L84
 1238              	.LVL119:
 1239              	.L82:
 121:src/Tests.cpp ****     {
 1240              		.loc 2 121 5 is_stmt 1 discriminator 2
 1241 0628 9B841400 		addiw	s1,s1,1
 1242              	.LVL120:
 1243              	.L84:
 121:src/Tests.cpp ****     {
 1244              		.loc 2 121 22 discriminator 1
 1245 062c 93073006 		li	a5,99
 1246 0630 63C49704 		bgt	s1,a5,.L92
 123:src/Tests.cpp ****         if(addrs[i] == 0)
 1247              		.loc 2 123 9
 123:src/Tests.cpp ****         if(addrs[i] == 0)
 1248              		.loc 2 123 29 is_stmt 0
 1249 0634 13054006 		li	a0,100
 1250 0638 97000000 		call	mem_alloc@plt
 1250      E7800000 
 1251              	.LVL121:
 123:src/Tests.cpp ****         if(addrs[i] == 0)
 1252              		.loc 2 123 18
 1253 0640 93973400 		slli	a5,s1,3
 1254 0644 130704FE 		addi	a4,s0,-32
 1255 0648 B307F700 		add	a5,a4,a5
 1256 064c 23B0A7CE 		sd	a0,-800(a5)
 124:src/Tests.cpp ****         {
 1257              		.loc 2 124 9 is_stmt 1
 1258 0650 E31C05FC 		bnez	a0,.L82
 126:src/Tests.cpp ****             return;
 1259              		.loc 2 126 13
 126:src/Tests.cpp ****             return;
 1260              		.loc 2 126 31 is_stmt 0
 1261 0654 17050000 		lla	a0,.LC9
 1261      13050500 
 1262 065c 97000000 		call	_ZN5Riscv11printStringEPKc@plt
 1262      E7800000 
 1263              	.LVL122:
 127:src/Tests.cpp ****         }
 1264              		.loc 2 127 13 is_stmt 1
 1265              	.L80:
 1266              	.LBE38:
 163:src/Tests.cpp **** void bigMalloc()
 1267              		.loc 2 163 1 is_stmt 0
 1268 0664 83308133 		ld	ra,824(sp)
 1269              		.cfi_remember_state
 1270              		.cfi_restore 1
 1271 0668 03340133 		ld	s0,816(sp)
 1272              		.cfi_restore 8
 1273              		.cfi_def_cfa 2, 832
 1274 066c 83348132 		ld	s1,808(sp)
 1275              		.cfi_restore 9
 1276 0670 13010134 		addi	sp,sp,832
GAS LISTING /tmp/ccf9bp1A.s 			page 38


 1277              		.cfi_def_cfa_offset 0
 1278 0674 67800000 		jr	ra
 1279              	.LVL123:
 1280              	.L92:
 1281              		.cfi_restore_state
 1282              	.LBB39:
 132:src/Tests.cpp ****     {
 1283              		.loc 2 132 13
 1284 0678 93040000 		li	s1,0
 1285              	.LVL124:
 1286              	.L81:
 132:src/Tests.cpp ****     {
 1287              		.loc 2 132 23 is_stmt 1 discriminator 1
 1288 067c 93073006 		li	a5,99
 1289 0680 63CE9702 		bgt	s1,a5,.L93
 1290              	.LBB40:
 134:src/Tests.cpp ****         if(retval != 0)
 1291              		.loc 2 134 9
 134:src/Tests.cpp ****         if(retval != 0)
 1292              		.loc 2 134 30 is_stmt 0
 1293 0684 93973400 		slli	a5,s1,3
 1294 0688 130704FE 		addi	a4,s0,-32
 1295 068c B307F700 		add	a5,a4,a5
 1296 0690 03B507CE 		ld	a0,-800(a5)
 1297 0694 97000000 		call	mem_free@plt
 1297      E7800000 
 1298              	.LVL125:
 135:src/Tests.cpp ****         {
 1299              		.loc 2 135 9 is_stmt 1
 1300 069c 63160500 		bnez	a0,.L96
 1301              	.LBE40:
 132:src/Tests.cpp ****     {
 1302              		.loc 2 132 5 discriminator 2
 132:src/Tests.cpp ****     {
 1303              		.loc 2 132 30 is_stmt 0 discriminator 2
 1304 06a0 9B842400 		addiw	s1,s1,2
 1305              	.LVL126:
 132:src/Tests.cpp ****     {
 1306              		.loc 2 132 5 discriminator 2
 1307 06a4 6FF09FFD 		j	.L81
 1308              	.LVL127:
 1309              	.L96:
 1310              	.LBB41:
 137:src/Tests.cpp ****             return;
 1311              		.loc 2 137 13 is_stmt 1
 137:src/Tests.cpp ****             return;
 1312              		.loc 2 137 31 is_stmt 0
 1313 06a8 17050000 		lla	a0,.LC9
 1313      13050500 
 1314              	.LVL128:
 1315 06b0 97000000 		call	_ZN5Riscv11printStringEPKc@plt
 1315      E7800000 
 1316              	.LVL129:
 138:src/Tests.cpp ****         }
 1317              		.loc 2 138 13 is_stmt 1
 1318 06b8 6FF0DFFA 		j	.L80
 1319              	.L93:
GAS LISTING /tmp/ccf9bp1A.s 			page 39


 1320              	.LBE41:
 1321              	.LBE39:
 1322              	.LBB42:
 142:src/Tests.cpp ****     {
 1323              		.loc 2 142 13 is_stmt 0
 1324 06bc 93040000 		li	s1,0
 1325              	.LVL130:
 1326 06c0 6F008000 		j	.L85
 1327              	.LVL131:
 1328              	.L88:
 142:src/Tests.cpp ****     {
 1329              		.loc 2 142 5 is_stmt 1 discriminator 2
 142:src/Tests.cpp ****     {
 1330              		.loc 2 142 30 is_stmt 0 discriminator 2
 1331 06c4 9B842400 		addiw	s1,s1,2
 1332              	.LVL132:
 1333              	.L85:
 142:src/Tests.cpp ****     {
 1334              		.loc 2 142 23 is_stmt 1 discriminator 1
 1335 06c8 93073006 		li	a5,99
 1336 06cc 63CC9702 		bgt	s1,a5,.L94
 144:src/Tests.cpp ****         if(addrs[i] == 0)
 1337              		.loc 2 144 9
 144:src/Tests.cpp ****         if(addrs[i] == 0)
 1338              		.loc 2 144 29 is_stmt 0
 1339 06d0 13054001 		li	a0,20
 1340 06d4 97000000 		call	mem_alloc@plt
 1340      E7800000 
 1341              	.LVL133:
 144:src/Tests.cpp ****         if(addrs[i] == 0)
 1342              		.loc 2 144 18
 1343 06dc 93973400 		slli	a5,s1,3
 1344 06e0 130704FE 		addi	a4,s0,-32
 1345 06e4 B307F700 		add	a5,a4,a5
 1346 06e8 23B0A7CE 		sd	a0,-800(a5)
 145:src/Tests.cpp ****         {
 1347              		.loc 2 145 9 is_stmt 1
 1348 06ec E31C05FC 		bnez	a0,.L88
 147:src/Tests.cpp ****             return;
 1349              		.loc 2 147 13
 147:src/Tests.cpp ****             return;
 1350              		.loc 2 147 31 is_stmt 0
 1351 06f0 17050000 		lla	a0,.LC9
 1351      13050500 
 1352 06f8 97000000 		call	_ZN5Riscv11printStringEPKc@plt
 1352      E7800000 
 1353              	.LVL134:
 148:src/Tests.cpp ****         }
 1354              		.loc 2 148 13 is_stmt 1
 1355 0700 6FF05FF6 		j	.L80
 1356              	.L94:
 1357              	.LBE42:
 1358              	.LBB43:
 152:src/Tests.cpp ****     {
 1359              		.loc 2 152 13 is_stmt 0
 1360 0704 93040000 		li	s1,0
 1361              	.LVL135:
GAS LISTING /tmp/ccf9bp1A.s 			page 40


 1362              	.L87:
 152:src/Tests.cpp ****     {
 1363              		.loc 2 152 22 is_stmt 1 discriminator 1
 1364 0708 93073006 		li	a5,99
 1365 070c 63CE9702 		bgt	s1,a5,.L89
 1366              	.LBB44:
 154:src/Tests.cpp ****         if(retval != 0)
 1367              		.loc 2 154 9
 154:src/Tests.cpp ****         if(retval != 0)
 1368              		.loc 2 154 30 is_stmt 0
 1369 0710 93973400 		slli	a5,s1,3
 1370 0714 130704FE 		addi	a4,s0,-32
 1371 0718 B307F700 		add	a5,a4,a5
 1372 071c 03B507CE 		ld	a0,-800(a5)
 1373 0720 97000000 		call	mem_free@plt
 1373      E7800000 
 1374              	.LVL136:
 155:src/Tests.cpp ****         {
 1375              		.loc 2 155 9 is_stmt 1
 1376 0728 63160500 		bnez	a0,.L97
 1377              	.LBE44:
 152:src/Tests.cpp ****     {
 1378              		.loc 2 152 5 discriminator 2
 1379 072c 9B841400 		addiw	s1,s1,1
 1380              	.LVL137:
 1381 0730 6FF09FFD 		j	.L87
 1382              	.LVL138:
 1383              	.L97:
 1384              	.LBB45:
 157:src/Tests.cpp ****             return;
 1385              		.loc 2 157 13
 157:src/Tests.cpp ****             return;
 1386              		.loc 2 157 31 is_stmt 0
 1387 0734 17050000 		lla	a0,.LC9
 1387      13050500 
 1388              	.LVL139:
 1389 073c 97000000 		call	_ZN5Riscv11printStringEPKc@plt
 1389      E7800000 
 1390              	.LVL140:
 158:src/Tests.cpp ****         }
 1391              		.loc 2 158 13 is_stmt 1
 1392 0744 6FF01FF2 		j	.L80
 1393              	.L89:
 1394              	.LBE45:
 1395              	.LBE43:
 162:src/Tests.cpp **** }
 1396              		.loc 2 162 5
 162:src/Tests.cpp **** }
 1397              		.loc 2 162 23 is_stmt 0
 1398 0748 17050000 		lla	a0,.LC10
 1398      13050500 
 1399 0750 97000000 		call	_ZN5Riscv11printStringEPKc@plt
 1399      E7800000 
 1400              	.LVL141:
 1401 0758 6FF0DFF0 		j	.L80
 1402              		.cfi_endproc
 1403              	.LFE31:
GAS LISTING /tmp/ccf9bp1A.s 			page 41


 1405              		.section	.rodata.str1.8
 1406 0084 00000000 		.align	3
 1407              	.LC11:
 1408 0088 6269674D 		.string	"bigMalloc\n"
 1408      616C6C6F 
 1408      630A00
 1409              		.text
 1410              		.align	2
 1411              		.globl	_Z9bigMallocv
 1413              	_Z9bigMallocv:
 1414              	.LFB32:
 165:src/Tests.cpp ****     Riscv::printString("bigMalloc\n");
 1415              		.loc 2 165 1 is_stmt 1
 1416              		.cfi_startproc
 1417 075c 130101FF 		addi	sp,sp,-16
 1418              		.cfi_def_cfa_offset 16
 1419 0760 23341100 		sd	ra,8(sp)
 1420 0764 23308100 		sd	s0,0(sp)
 1421              		.cfi_offset 1, -8
 1422              		.cfi_offset 8, -16
 1423 0768 13040101 		addi	s0,sp,16
 1424              		.cfi_def_cfa 8, 0
 166:src/Tests.cpp ****     uint64 x = (uint64)HEAP_END_ADDR - (uint64)HEAP_START_ADDR + 100UL;
 1425              		.loc 2 166 5
 166:src/Tests.cpp ****     uint64 x = (uint64)HEAP_END_ADDR - (uint64)HEAP_START_ADDR + 100UL;
 1426              		.loc 2 166 23 is_stmt 0
 1427 076c 17050000 		lla	a0,.LC11
 1427      13050500 
 1428 0774 97000000 		call	_ZN5Riscv11printStringEPKc@plt
 1428      E7800000 
 1429              	.LVL142:
 167:src/Tests.cpp ****     void* p = mem_alloc(x);
 1430              		.loc 2 167 5 is_stmt 1
 167:src/Tests.cpp ****     void* p = mem_alloc(x);
 1431              		.loc 2 167 38 is_stmt 0
 1432 077c 97070000 		la	a5,HEAP_END_ADDR
 1432      83B70700 
 1433 0784 03B50700 		ld	a0,0(a5)
 1434 0788 97070000 		la	a5,HEAP_START_ADDR
 1434      83B70700 
 1435 0790 83B70700 		ld	a5,0(a5)
 1436 0794 3305F540 		sub	a0,a0,a5
 1437              	.LVL143:
 168:src/Tests.cpp ****     if(p == 0)
 1438              		.loc 2 168 5 is_stmt 1
 168:src/Tests.cpp ****     if(p == 0)
 1439              		.loc 2 168 24 is_stmt 0
 1440 0798 13054506 		addi	a0,a0,100
 1441              	.LVL144:
 1442 079c 97000000 		call	mem_alloc@plt
 1442      E7800000 
 1443              	.LVL145:
 169:src/Tests.cpp ****         Riscv::printString("OK\n");
 1444              		.loc 2 169 5 is_stmt 1
 1445 07a4 63020502 		beqz	a0,.L102
 172:src/Tests.cpp **** }
 1446              		.loc 2 172 9
GAS LISTING /tmp/ccf9bp1A.s 			page 42


 172:src/Tests.cpp **** }
 1447              		.loc 2 172 27 is_stmt 0
 1448 07a8 17050000 		lla	a0,.LC9
 1448      13050500 
 1449              	.LVL146:
 1450 07b0 97000000 		call	_ZN5Riscv11printStringEPKc@plt
 1450      E7800000 
 1451              	.LVL147:
 1452              	.L98:
 173:src/Tests.cpp **** 
 1453              		.loc 2 173 1
 1454 07b8 83308100 		ld	ra,8(sp)
 1455              		.cfi_remember_state
 1456              		.cfi_restore 1
 1457 07bc 03340100 		ld	s0,0(sp)
 1458              		.cfi_restore 8
 1459              		.cfi_def_cfa 2, 16
 1460 07c0 13010101 		addi	sp,sp,16
 1461              		.cfi_def_cfa_offset 0
 1462 07c4 67800000 		jr	ra
 1463              	.LVL148:
 1464              	.L102:
 1465              		.cfi_restore_state
 170:src/Tests.cpp ****     else
 1466              		.loc 2 170 9 is_stmt 1
 170:src/Tests.cpp ****     else
 1467              		.loc 2 170 27 is_stmt 0
 1468 07c8 17050000 		lla	a0,.LC10
 1468      13050500 
 1469              	.LVL149:
 1470 07d0 97000000 		call	_ZN5Riscv11printStringEPKc@plt
 1470      E7800000 
 1471              	.LVL150:
 1472 07d8 6FF01FFE 		j	.L98
 1473              		.cfi_endproc
 1474              	.LFE32:
 1476              		.section	.rodata.str1.8
 1477 0093 00000000 		.align	3
 1477      00
 1478              	.LC12:
 1479 0098 6C6F744F 		.string	"lotOfSmallMallocs\n"
 1479      66536D61 
 1479      6C6C4D61 
 1479      6C6C6F63 
 1479      730A00
 1480              		.text
 1481              		.align	2
 1482              		.globl	_Z17lotOfSmallMallocsv
 1484              	_Z17lotOfSmallMallocsv:
 1485              	.LFB33:
 176:src/Tests.cpp ****     Riscv::printString("lotOfSmallMallocs\n");
 1486              		.loc 2 176 1 is_stmt 1
 1487              		.cfi_startproc
 1488 07dc 130101FD 		addi	sp,sp,-48
 1489              		.cfi_def_cfa_offset 48
 1490 07e0 23341102 		sd	ra,40(sp)
 1491 07e4 23308102 		sd	s0,32(sp)
GAS LISTING /tmp/ccf9bp1A.s 			page 43


 1492 07e8 233C9100 		sd	s1,24(sp)
 1493 07ec 23382101 		sd	s2,16(sp)
 1494 07f0 23343101 		sd	s3,8(sp)
 1495              		.cfi_offset 1, -8
 1496              		.cfi_offset 8, -16
 1497              		.cfi_offset 9, -24
 1498              		.cfi_offset 18, -32
 1499              		.cfi_offset 19, -40
 1500 07f4 13040103 		addi	s0,sp,48
 1501              		.cfi_def_cfa 8, 0
 177:src/Tests.cpp ****     uint64 cnt = 0;
 1502              		.loc 2 177 5
 177:src/Tests.cpp ****     uint64 cnt = 0;
 1503              		.loc 2 177 23 is_stmt 0
 1504 07f8 17050000 		lla	a0,.LC12
 1504      13050500 
 1505 0800 97000000 		call	_ZN5Riscv11printStringEPKc@plt
 1505      E7800000 
 1506              	.LVL151:
 178:src/Tests.cpp ****     uint64 sum = 0;
 1507              		.loc 2 178 5 is_stmt 1
 179:src/Tests.cpp ****     uint64 N = 10000UL;
 1508              		.loc 2 179 5
 180:src/Tests.cpp ****     uint64 X = 10UL;
 1509              		.loc 2 180 5
 181:src/Tests.cpp ****     for(uint64 i = 0; i < N;i++)
 1510              		.loc 2 181 5
 182:src/Tests.cpp ****     {
 1511              		.loc 2 182 5
 1512              	.LBB46:
 182:src/Tests.cpp ****     {
 1513              		.loc 2 182 16 is_stmt 0
 1514 0808 93040000 		li	s1,0
 1515              	.LBE46:
 179:src/Tests.cpp ****     uint64 N = 10000UL;
 1516              		.loc 2 179 12
 1517 080c 93090000 		li	s3,0
 178:src/Tests.cpp ****     uint64 sum = 0;
 1518              		.loc 2 178 12
 1519 0810 13090000 		li	s2,0
 1520 0814 6F008001 		j	.L105
 1521              	.LVL152:
 1522              	.L109:
 1523              	.LBB49:
 1524              	.LBB47:
 187:src/Tests.cpp ****         sum+=t->a;
 1525              		.loc 2 187 9 is_stmt 1 discriminator 2
 187:src/Tests.cpp ****         sum+=t->a;
 1526              		.loc 2 187 14 is_stmt 0 discriminator 2
 1527 0818 9307A000 		li	a5,10
 1528 081c 2330F500 		sd	a5,0(a0)
 188:src/Tests.cpp ****         cnt++;
 1529              		.loc 2 188 9 is_stmt 1 discriminator 2
 188:src/Tests.cpp ****         cnt++;
 1530              		.loc 2 188 12 is_stmt 0 discriminator 2
 1531 0820 9389A900 		addi	s3,s3,10
 1532              	.LVL153:
GAS LISTING /tmp/ccf9bp1A.s 			page 44


 189:src/Tests.cpp ****     }
 1533              		.loc 2 189 9 is_stmt 1 discriminator 2
 189:src/Tests.cpp ****     }
 1534              		.loc 2 189 12 is_stmt 0 discriminator 2
 1535 0824 13091900 		addi	s2,s2,1
 1536              	.LVL154:
 1537              	.LBE47:
 182:src/Tests.cpp ****     {
 1538              		.loc 2 182 5 is_stmt 1 discriminator 2
 1539 0828 93841400 		addi	s1,s1,1
 1540              	.LVL155:
 1541              	.L105:
 182:src/Tests.cpp ****     {
 1542              		.loc 2 182 25 discriminator 1
 1543 082c B7270000 		li	a5,8192
 1544 0830 9387F770 		addi	a5,a5,1807
 1545 0834 63EA9700 		bgtu	s1,a5,.L104
 1546              	.LBB48:
 184:src/Tests.cpp ****         if(t == 0)
 1547              		.loc 2 184 9
 184:src/Tests.cpp ****         if(t == 0)
 1548              		.loc 2 184 35 is_stmt 0
 1549 0838 13058000 		li	a0,8
 1550 083c 97000000 		call	mem_alloc@plt
 1550      E7800000 
 1551              	.LVL156:
 185:src/Tests.cpp ****             break;
 1552              		.loc 2 185 9 is_stmt 1
 1553 0844 E31A05FC 		bnez	a0,.L109
 1554              	.LVL157:
 1555              	.L104:
 1556              	.LBE48:
 1557              	.LBE49:
 191:src/Tests.cpp ****     Riscv::printString("\n");
 1558              		.loc 2 191 5
 191:src/Tests.cpp ****     Riscv::printString("\n");
 1559              		.loc 2 191 24 is_stmt 0
 1560 0848 13050900 		mv	a0,s2
 1561 084c 97000000 		call	_ZN5Riscv12printIntegerEm@plt
 1561      E7800000 
 1562              	.LVL158:
 192:src/Tests.cpp ****     if(sum == X*cnt)
 1563              		.loc 2 192 5 is_stmt 1
 192:src/Tests.cpp ****     if(sum == X*cnt)
 1564              		.loc 2 192 23 is_stmt 0
 1565 0854 17050000 		lla	a0,.LC3
 1565      13050500 
 1566 085c 97000000 		call	_ZN5Riscv11printStringEPKc@plt
 1566      E7800000 
 1567              	.LVL159:
 193:src/Tests.cpp ****         Riscv::printString("OK\n");
 1568              		.loc 2 193 5 is_stmt 1
 193:src/Tests.cpp ****         Riscv::printString("OK\n");
 1569              		.loc 2 193 16 is_stmt 0
 1570 0864 93172900 		slli	a5,s2,2
 1571 0868 33892701 		add	s2,a5,s2
 1572              	.LVL160:
GAS LISTING /tmp/ccf9bp1A.s 			page 45


 1573 086c 13191900 		slli	s2,s2,1
 193:src/Tests.cpp ****         Riscv::printString("OK\n");
 1574              		.loc 2 193 5
 1575 0870 63083903 		beq	s2,s3,.L110
 196:src/Tests.cpp **** }
 1576              		.loc 2 196 9 is_stmt 1
 196:src/Tests.cpp **** }
 1577              		.loc 2 196 27 is_stmt 0
 1578 0874 17050000 		lla	a0,.LC9
 1578      13050500 
 1579 087c 97000000 		call	_ZN5Riscv11printStringEPKc@plt
 1579      E7800000 
 1580              	.LVL161:
 1581              	.L103:
 197:src/Tests.cpp **** void badFree()
 1582              		.loc 2 197 1
 1583 0884 83308102 		ld	ra,40(sp)
 1584              		.cfi_remember_state
 1585              		.cfi_restore 1
 1586 0888 03340102 		ld	s0,32(sp)
 1587              		.cfi_restore 8
 1588              		.cfi_def_cfa 2, 48
 1589 088c 83348101 		ld	s1,24(sp)
 1590              		.cfi_restore 9
 1591              	.LVL162:
 1592 0890 03390101 		ld	s2,16(sp)
 1593              		.cfi_restore 18
 1594 0894 83398100 		ld	s3,8(sp)
 1595              		.cfi_restore 19
 1596              	.LVL163:
 1597 0898 13010103 		addi	sp,sp,48
 1598              		.cfi_def_cfa_offset 0
 1599 089c 67800000 		jr	ra
 1600              	.LVL164:
 1601              	.L110:
 1602              		.cfi_restore_state
 194:src/Tests.cpp ****     else
 1603              		.loc 2 194 9 is_stmt 1
 194:src/Tests.cpp ****     else
 1604              		.loc 2 194 27 is_stmt 0
 1605 08a0 17050000 		lla	a0,.LC10
 1605      13050500 
 1606 08a8 97000000 		call	_ZN5Riscv11printStringEPKc@plt
 1606      E7800000 
 1607              	.LVL165:
 1608 08b0 6FF05FFD 		j	.L103
 1609              		.cfi_endproc
 1610              	.LFE33:
 1612              		.section	.rodata.str1.8
 1613 00ab 00000000 		.align	3
 1613      00
 1614              	.LC13:
 1615 00b0 62616446 		.string	"badFree\n"
 1615      7265650A 
 1615      00
 1616              		.text
 1617              		.align	2
GAS LISTING /tmp/ccf9bp1A.s 			page 46


 1618              		.globl	_Z7badFreev
 1620              	_Z7badFreev:
 1621              	.LFB34:
 199:src/Tests.cpp ****     Riscv::printString("badFree\n");
 1622              		.loc 2 199 1 is_stmt 1
 1623              		.cfi_startproc
 1624 08b4 130101FF 		addi	sp,sp,-16
 1625              		.cfi_def_cfa_offset 16
 1626 08b8 23341100 		sd	ra,8(sp)
 1627 08bc 23308100 		sd	s0,0(sp)
 1628              		.cfi_offset 1, -8
 1629              		.cfi_offset 8, -16
 1630 08c0 13040101 		addi	s0,sp,16
 1631              		.cfi_def_cfa 8, 0
 200:src/Tests.cpp ****     Test* t = (Test*)mem_alloc(sizeof(Test));
 1632              		.loc 2 200 5
 200:src/Tests.cpp ****     Test* t = (Test*)mem_alloc(sizeof(Test));
 1633              		.loc 2 200 23 is_stmt 0
 1634 08c4 17050000 		lla	a0,.LC13
 1634      13050500 
 1635 08cc 97000000 		call	_ZN5Riscv11printStringEPKc@plt
 1635      E7800000 
 1636              	.LVL166:
 201:src/Tests.cpp ****     uint64 retval = mem_free((char*)t + 2);
 1637              		.loc 2 201 5 is_stmt 1
 201:src/Tests.cpp ****     uint64 retval = mem_free((char*)t + 2);
 1638              		.loc 2 201 31 is_stmt 0
 1639 08d4 13058000 		li	a0,8
 1640 08d8 97000000 		call	mem_alloc@plt
 1640      E7800000 
 1641              	.LVL167:
 202:src/Tests.cpp ****     if(retval == 0)
 1642              		.loc 2 202 5 is_stmt 1
 202:src/Tests.cpp ****     if(retval == 0)
 1643              		.loc 2 202 29 is_stmt 0
 1644 08e0 13052500 		addi	a0,a0,2
 1645              	.LVL168:
 1646 08e4 97000000 		call	mem_free@plt
 1646      E7800000 
 1647              	.LVL169:
 203:src/Tests.cpp ****         Riscv::printString("not OK\n");
 1648              		.loc 2 203 5 is_stmt 1
 1649 08ec 63120502 		bnez	a0,.L112
 204:src/Tests.cpp ****     else
 1650              		.loc 2 204 9
 204:src/Tests.cpp ****     else
 1651              		.loc 2 204 27 is_stmt 0
 1652 08f0 17050000 		lla	a0,.LC9
 1652      13050500 
 1653              	.LVL170:
 1654 08f8 97000000 		call	_ZN5Riscv11printStringEPKc@plt
 1654      E7800000 
 1655              	.LVL171:
 1656              	.L111:
 207:src/Tests.cpp **** 
 1657              		.loc 2 207 1
 1658 0900 83308100 		ld	ra,8(sp)
GAS LISTING /tmp/ccf9bp1A.s 			page 47


 1659              		.cfi_remember_state
 1660              		.cfi_restore 1
 1661 0904 03340100 		ld	s0,0(sp)
 1662              		.cfi_restore 8
 1663              		.cfi_def_cfa 2, 16
 1664 0908 13010101 		addi	sp,sp,16
 1665              		.cfi_def_cfa_offset 0
 1666 090c 67800000 		jr	ra
 1667              	.LVL172:
 1668              	.L112:
 1669              		.cfi_restore_state
 206:src/Tests.cpp **** }
 1670              		.loc 2 206 9 is_stmt 1
 206:src/Tests.cpp **** }
 1671              		.loc 2 206 27 is_stmt 0
 1672 0910 17050000 		lla	a0,.LC10
 1672      13050500 
 1673              	.LVL173:
 1674 0918 97000000 		call	_ZN5Riscv11printStringEPKc@plt
 1674      E7800000 
 1675              	.LVL174:
 207:src/Tests.cpp **** 
 1676              		.loc 2 207 1
 1677 0920 6FF01FFE 		j	.L111
 1678              		.cfi_endproc
 1679              	.LFE34:
 1681              		.section	.rodata.str1.8
 1682 00b9 00000000 		.align	3
 1682      000000
 1683              	.LC14:
 1684 00c0 73747265 		.string	"stressTesting\n"
 1684      73735465 
 1684      7374696E 
 1684      670A00
 1685 00cf 00       		.align	3
 1686              	.LC15:
 1687 00d0 6E6F7420 		.string	"not Ok\n"
 1687      4F6B0A00 
 1688              		.text
 1689              		.align	2
 1690              		.globl	_Z13stressTestingv
 1692              	_Z13stressTestingv:
 1693              	.LFB35:
 210:src/Tests.cpp ****     Riscv::printString("stressTesting\n");
 1694              		.loc 2 210 1 is_stmt 1
 1695              		.cfi_startproc
 1696 0924 130101CC 		addi	sp,sp,-832
 1697              		.cfi_def_cfa_offset 832
 1698 0928 233C1132 		sd	ra,824(sp)
 1699 092c 23388132 		sd	s0,816(sp)
 1700 0930 23349132 		sd	s1,808(sp)
 1701 0934 23302133 		sd	s2,800(sp)
 1702              		.cfi_offset 1, -8
 1703              		.cfi_offset 8, -16
 1704              		.cfi_offset 9, -24
 1705              		.cfi_offset 18, -32
 1706 0938 13040134 		addi	s0,sp,832
GAS LISTING /tmp/ccf9bp1A.s 			page 48


 1707              		.cfi_def_cfa 8, 0
 211:src/Tests.cpp ****     constexpr int num = 100;
 1708              		.loc 2 211 5
 211:src/Tests.cpp ****     constexpr int num = 100;
 1709              		.loc 2 211 23 is_stmt 0
 1710 093c 17050000 		lla	a0,.LC14
 1710      13050500 
 1711 0944 97000000 		call	_ZN5Riscv11printStringEPKc@plt
 1711      E7800000 
 1712              	.LVL175:
 1713              	.LBB50:
 214:src/Tests.cpp ****     {
 1714              		.loc 2 214 13
 1715 094c 93040000 		li	s1,0
 1716 0950 6F008000 		j	.L119
 1717              	.LVL176:
 1718              	.L117:
 214:src/Tests.cpp ****     {
 1719              		.loc 2 214 5 is_stmt 1 discriminator 2
 1720 0954 9B841400 		addiw	s1,s1,1
 1721              	.LVL177:
 1722              	.L119:
 214:src/Tests.cpp ****     {
 1723              		.loc 2 214 22 discriminator 1
 1724 0958 93073006 		li	a5,99
 1725 095c 63C69704 		bgt	s1,a5,.L129
 216:src/Tests.cpp ****         if(addrs[i] == 0)
 1726              		.loc 2 216 9
 216:src/Tests.cpp ****         if(addrs[i] == 0)
 1727              		.loc 2 216 29 is_stmt 0
 1728 0960 13051000 		li	a0,1
 1729 0964 97000000 		call	mem_alloc@plt
 1729      E7800000 
 1730              	.LVL178:
 216:src/Tests.cpp ****         if(addrs[i] == 0)
 1731              		.loc 2 216 18
 1732 096c 93973400 		slli	a5,s1,3
 1733 0970 130704FE 		addi	a4,s0,-32
 1734 0974 B307F700 		add	a5,a4,a5
 1735 0978 23B0A7CE 		sd	a0,-800(a5)
 217:src/Tests.cpp ****         {
 1736              		.loc 2 217 9 is_stmt 1
 1737 097c E31C05FC 		bnez	a0,.L117
 219:src/Tests.cpp ****             return;
 1738              		.loc 2 219 13
 219:src/Tests.cpp ****             return;
 1739              		.loc 2 219 31 is_stmt 0
 1740 0980 17050000 		lla	a0,.LC9
 1740      13050500 
 1741 0988 97000000 		call	_ZN5Riscv11printStringEPKc@plt
 1741      E7800000 
 1742              	.LVL179:
 220:src/Tests.cpp ****         }
 1743              		.loc 2 220 13 is_stmt 1
 1744              	.L115:
 1745              	.LBE50:
 264:src/Tests.cpp **** 
GAS LISTING /tmp/ccf9bp1A.s 			page 49


 1746              		.loc 2 264 1 is_stmt 0
 1747 0990 83308133 		ld	ra,824(sp)
 1748              		.cfi_remember_state
 1749              		.cfi_restore 1
 1750 0994 03340133 		ld	s0,816(sp)
 1751              		.cfi_restore 8
 1752              		.cfi_def_cfa 2, 832
 1753 0998 83348132 		ld	s1,808(sp)
 1754              		.cfi_restore 9
 1755 099c 03390132 		ld	s2,800(sp)
 1756              		.cfi_restore 18
 1757 09a0 13010134 		addi	sp,sp,832
 1758              		.cfi_def_cfa_offset 0
 1759 09a4 67800000 		jr	ra
 1760              	.LVL180:
 1761              	.L129:
 1762              		.cfi_restore_state
 224:src/Tests.cpp ****     while(sz > 0)
 1763              		.loc 2 224 9
 1764 09a8 1309C012 		li	s2,300
 1765              	.LVL181:
 1766              	.L116:
 225:src/Tests.cpp ****     {
 1767              		.loc 2 225 5 is_stmt 1
 225:src/Tests.cpp ****     {
 1768              		.loc 2 225 14
 1769 09ac 63522011 		blez	s2,.L120
 1770              	.LBB51:
 1771              	.LBB52:
 227:src/Tests.cpp ****         {
 1772              		.loc 2 227 17 is_stmt 0
 1773 09b0 93040000 		li	s1,0
 1774              	.L124:
 1775              	.LVL182:
 227:src/Tests.cpp ****         {
 1776              		.loc 2 227 27 is_stmt 1 discriminator 1
 1777 09b4 93073006 		li	a5,99
 1778 09b8 63CC9706 		bgt	s1,a5,.L130
 1779              	.LBB53:
 229:src/Tests.cpp ****             if(retval != 0)
 1780              		.loc 2 229 13
 229:src/Tests.cpp ****             if(retval != 0)
 1781              		.loc 2 229 34 is_stmt 0
 1782 09bc 93973400 		slli	a5,s1,3
 1783 09c0 130704FE 		addi	a4,s0,-32
 1784 09c4 B307F700 		add	a5,a4,a5
 1785 09c8 03B507CE 		ld	a0,-800(a5)
 1786 09cc 97000000 		call	mem_free@plt
 1786      E7800000 
 1787              	.LVL183:
 230:src/Tests.cpp ****             {
 1788              		.loc 2 230 13 is_stmt 1
 1789 09d4 631A0502 		bnez	a0,.L132
 235:src/Tests.cpp ****             if(addrs[i] == 0)
 1790              		.loc 2 235 13
 235:src/Tests.cpp ****             if(addrs[i] == 0)
 1791              		.loc 2 235 36 is_stmt 0
GAS LISTING /tmp/ccf9bp1A.s 			page 50


 1792 09d8 1B55F901 		srliw	a0,s2,31
 1793              	.LVL184:
 1794 09dc 3B052501 		addw	a0,a0,s2
 235:src/Tests.cpp ****             if(addrs[i] == 0)
 1795              		.loc 2 235 33
 1796 09e0 1B551540 		sraiw	a0,a0,1
 1797 09e4 97000000 		call	mem_alloc@plt
 1797      E7800000 
 1798              	.LVL185:
 235:src/Tests.cpp ****             if(addrs[i] == 0)
 1799              		.loc 2 235 22
 1800 09ec 93973400 		slli	a5,s1,3
 1801 09f0 130704FE 		addi	a4,s0,-32
 1802 09f4 B307F700 		add	a5,a4,a5
 1803 09f8 23B0A7CE 		sd	a0,-800(a5)
 236:src/Tests.cpp ****             {
 1804              		.loc 2 236 13 is_stmt 1
 1805 09fc 63000502 		beqz	a0,.L133
 1806              	.LBE53:
 227:src/Tests.cpp ****         {
 1807              		.loc 2 227 9 discriminator 2
 227:src/Tests.cpp ****         {
 1808              		.loc 2 227 34 is_stmt 0 discriminator 2
 1809 0a00 9B842400 		addiw	s1,s1,2
 1810              	.LVL186:
 227:src/Tests.cpp ****         {
 1811              		.loc 2 227 9 discriminator 2
 1812 0a04 6FF01FFB 		j	.L124
 1813              	.LVL187:
 1814              	.L132:
 1815              	.LBB54:
 232:src/Tests.cpp ****                 return;
 1816              		.loc 2 232 17 is_stmt 1
 232:src/Tests.cpp ****                 return;
 1817              		.loc 2 232 35 is_stmt 0
 1818 0a08 17050000 		lla	a0,.LC9
 1818      13050500 
 1819              	.LVL188:
 1820 0a10 97000000 		call	_ZN5Riscv11printStringEPKc@plt
 1820      E7800000 
 1821              	.LVL189:
 233:src/Tests.cpp ****             }
 1822              		.loc 2 233 17 is_stmt 1
 1823 0a18 6FF09FF7 		j	.L115
 1824              	.L133:
 238:src/Tests.cpp ****                 return;
 1825              		.loc 2 238 17
 238:src/Tests.cpp ****                 return;
 1826              		.loc 2 238 35 is_stmt 0
 1827 0a1c 17050000 		lla	a0,.LC15
 1827      13050500 
 1828 0a24 97000000 		call	_ZN5Riscv11printStringEPKc@plt
 1828      E7800000 
 1829              	.LVL190:
 239:src/Tests.cpp ****             }
 1830              		.loc 2 239 17 is_stmt 1
 1831 0a2c 6FF05FF6 		j	.L115
GAS LISTING /tmp/ccf9bp1A.s 			page 51


 1832              	.L130:
 1833              	.LBE54:
 1834              	.LBE52:
 1835              	.LBB55:
 244:src/Tests.cpp ****         {
 1836              		.loc 2 244 17 is_stmt 0
 1837 0a30 93041000 		li	s1,1
 1838              	.LVL191:
 1839              	.L121:
 244:src/Tests.cpp ****         {
 1840              		.loc 2 244 27 is_stmt 1 discriminator 1
 1841 0a34 93073006 		li	a5,99
 1842 0a38 63C89706 		bgt	s1,a5,.L125
 1843              	.LBB56:
 246:src/Tests.cpp ****             if(retval != 0)
 1844              		.loc 2 246 13
 246:src/Tests.cpp ****             if(retval != 0)
 1845              		.loc 2 246 34 is_stmt 0
 1846 0a3c 93973400 		slli	a5,s1,3
 1847 0a40 130704FE 		addi	a4,s0,-32
 1848 0a44 B307F700 		add	a5,a4,a5
 1849 0a48 03B507CE 		ld	a0,-800(a5)
 1850 0a4c 97000000 		call	mem_free@plt
 1850      E7800000 
 1851              	.LVL192:
 247:src/Tests.cpp ****             {
 1852              		.loc 2 247 13 is_stmt 1
 1853 0a54 63160502 		bnez	a0,.L134
 252:src/Tests.cpp ****             if(addrs[i] == 0)
 1854              		.loc 2 252 13
 252:src/Tests.cpp ****             if(addrs[i] == 0)
 1855              		.loc 2 252 33 is_stmt 0
 1856 0a58 13050900 		mv	a0,s2
 1857              	.LVL193:
 1858 0a5c 97000000 		call	mem_alloc@plt
 1858      E7800000 
 1859              	.LVL194:
 252:src/Tests.cpp ****             if(addrs[i] == 0)
 1860              		.loc 2 252 22
 1861 0a64 93973400 		slli	a5,s1,3
 1862 0a68 130704FE 		addi	a4,s0,-32
 1863 0a6c B307F700 		add	a5,a4,a5
 1864 0a70 23B0A7CE 		sd	a0,-800(a5)
 253:src/Tests.cpp ****             {
 1865              		.loc 2 253 13 is_stmt 1
 1866 0a74 63000502 		beqz	a0,.L135
 1867              	.LBE56:
 244:src/Tests.cpp ****         {
 1868              		.loc 2 244 9 discriminator 2
 244:src/Tests.cpp ****         {
 1869              		.loc 2 244 34 is_stmt 0 discriminator 2
 1870 0a78 9B842400 		addiw	s1,s1,2
 1871              	.LVL195:
 244:src/Tests.cpp ****         {
 1872              		.loc 2 244 9 discriminator 2
 1873 0a7c 6FF09FFB 		j	.L121
 1874              	.LVL196:
GAS LISTING /tmp/ccf9bp1A.s 			page 52


 1875              	.L134:
 1876              	.LBB57:
 249:src/Tests.cpp ****                 return;
 1877              		.loc 2 249 17 is_stmt 1
 249:src/Tests.cpp ****                 return;
 1878              		.loc 2 249 35 is_stmt 0
 1879 0a80 17050000 		lla	a0,.LC9
 1879      13050500 
 1880              	.LVL197:
 1881 0a88 97000000 		call	_ZN5Riscv11printStringEPKc@plt
 1881      E7800000 
 1882              	.LVL198:
 250:src/Tests.cpp ****             }
 1883              		.loc 2 250 17 is_stmt 1
 1884 0a90 6FF01FF0 		j	.L115
 1885              	.L135:
 255:src/Tests.cpp ****                 return;
 1886              		.loc 2 255 17
 255:src/Tests.cpp ****                 return;
 1887              		.loc 2 255 35 is_stmt 0
 1888 0a94 17050000 		lla	a0,.LC15
 1888      13050500 
 1889 0a9c 97000000 		call	_ZN5Riscv11printStringEPKc@plt
 1889      E7800000 
 1890              	.LVL199:
 256:src/Tests.cpp ****             }
 1891              		.loc 2 256 17 is_stmt 1
 1892 0aa4 6FF0DFEE 		j	.L115
 1893              	.L125:
 1894              	.LBE57:
 1895              	.LBE55:
 260:src/Tests.cpp ****     }
 1896              		.loc 2 260 9
 260:src/Tests.cpp ****     }
 1897              		.loc 2 260 11 is_stmt 0
 1898 0aa8 1B0969FF 		addiw	s2,s2,-10
 1899              	.LVL200:
 1900              	.LBE51:
 225:src/Tests.cpp ****     {
 1901              		.loc 2 225 5
 1902 0aac 6FF01FF0 		j	.L116
 1903              	.LVL201:
 1904              	.L120:
 263:src/Tests.cpp **** }
 1905              		.loc 2 263 5 is_stmt 1
 263:src/Tests.cpp **** }
 1906              		.loc 2 263 23 is_stmt 0
 1907 0ab0 17050000 		lla	a0,.LC10
 1907      13050500 
 1908 0ab8 97000000 		call	_ZN5Riscv11printStringEPKc@plt
 1908      E7800000 
 1909              	.LVL202:
 1910 0ac0 6FF01FED 		j	.L115
 1911              		.cfi_endproc
 1912              	.LFE35:
 1914              		.align	2
 1915              		.globl	_Z21memoryAllocationTestsv
GAS LISTING /tmp/ccf9bp1A.s 			page 53


 1917              	_Z21memoryAllocationTestsv:
 1918              	.LFB36:
 267:src/Tests.cpp ****     //bigMalloc();
 1919              		.loc 2 267 1 is_stmt 1
 1920              		.cfi_startproc
 1921 0ac4 130101FF 		addi	sp,sp,-16
 1922              		.cfi_def_cfa_offset 16
 1923 0ac8 23348100 		sd	s0,8(sp)
 1924              		.cfi_offset 8, -8
 1925 0acc 13040101 		addi	s0,sp,16
 1926              		.cfi_def_cfa 8, 0
 276:src/Tests.cpp **** 
 1927              		.loc 2 276 1 is_stmt 0
 1928 0ad0 03348100 		ld	s0,8(sp)
 1929              		.cfi_restore 8
 1930              		.cfi_def_cfa 2, 16
 1931 0ad4 13010101 		addi	sp,sp,16
 1932              		.cfi_def_cfa_offset 0
 1933 0ad8 67800000 		jr	ra
 1934              		.cfi_endproc
 1935              	.LFE36:
 1937              		.align	2
 1938              		.globl	_ZN12TestPeriodicC2Em
 1940              	_ZN12TestPeriodicC2Em:
 1941              	.LFB44:
 293:src/Tests.cpp **** 
 1942              		.loc 2 293 1 is_stmt 1
 1943              		.cfi_startproc
 1944              	.LVL203:
 1945 0adc 130101FE 		addi	sp,sp,-32
 1946              		.cfi_def_cfa_offset 32
 1947 0ae0 233C1100 		sd	ra,24(sp)
 1948 0ae4 23388100 		sd	s0,16(sp)
 1949 0ae8 23349100 		sd	s1,8(sp)
 1950              		.cfi_offset 1, -8
 1951              		.cfi_offset 8, -16
 1952              		.cfi_offset 9, -24
 1953 0aec 13040102 		addi	s0,sp,32
 1954              		.cfi_def_cfa 8, 0
 1955 0af0 93040500 		mv	s1,a0
 1956              	.LBB58:
 293:src/Tests.cpp **** 
 1957              		.loc 2 293 62 is_stmt 0
 1958 0af4 97000000 		call	_ZN14PeriodicThreadC2Em@plt
 1958      E7800000 
 1959              	.LVL204:
 1960 0afc 97070000 		lla	a5,_ZTV12TestPeriodic+16
 1960      93870700 
 1961 0b04 23B0F400 		sd	a5,0(s1)
 1962              	.LBE58:
 295:src/Tests.cpp **** 
 1963              		.loc 2 295 1
 1964 0b08 83308101 		ld	ra,24(sp)
 1965              		.cfi_restore 1
 1966 0b0c 03340101 		ld	s0,16(sp)
 1967              		.cfi_restore 8
 1968              		.cfi_def_cfa 2, 32
GAS LISTING /tmp/ccf9bp1A.s 			page 54


 1969 0b10 83348100 		ld	s1,8(sp)
 1970              		.cfi_restore 9
 1971              	.LVL205:
 1972 0b14 13010102 		addi	sp,sp,32
 1973              		.cfi_def_cfa_offset 0
 1974 0b18 67800000 		jr	ra
 1975              		.cfi_endproc
 1976              	.LFE44:
 1978              		.globl	_ZN12TestPeriodicC1Em
 1979              		.set	_ZN12TestPeriodicC1Em,_ZN12TestPeriodicC2Em
 1980              		.align	2
 1981              		.globl	_Z11threadTest3v
 1983              	_Z11threadTest3v:
 1984              	.LFB29:
  98:src/Tests.cpp ****     Thread* t = new TestPeriodic(50);
 1985              		.loc 2 98 1 is_stmt 1
 1986              		.cfi_startproc
 1987              		.cfi_personality 0x9b,DW.ref.__gxx_personality_v0
 1988              		.cfi_lsda 0x1b,.LLSDA29
 1989 0b1c 130101FE 		addi	sp,sp,-32
 1990              		.cfi_def_cfa_offset 32
 1991 0b20 233C1100 		sd	ra,24(sp)
 1992 0b24 23388100 		sd	s0,16(sp)
 1993 0b28 23349100 		sd	s1,8(sp)
 1994 0b2c 23302101 		sd	s2,0(sp)
 1995              		.cfi_offset 1, -8
 1996              		.cfi_offset 8, -16
 1997              		.cfi_offset 9, -24
 1998              		.cfi_offset 18, -32
 1999 0b30 13040102 		addi	s0,sp,32
 2000              		.cfi_def_cfa 8, 0
  99:src/Tests.cpp ****     t->start();
 2001              		.loc 2 99 5
  99:src/Tests.cpp ****     t->start();
 2002              		.loc 2 99 36 is_stmt 0
 2003 0b34 13058002 		li	a0,40
 2004              	.LEHB17:
 2005 0b38 97000000 		call	_Znwm@plt
 2005      E7800000 
 2006              	.LVL206:
 2007              	.LEHE17:
 2008 0b40 13090500 		mv	s2,a0
 2009 0b44 93052003 		li	a1,50
 2010              	.LEHB18:
 2011 0b48 97000000 		call	_ZN12TestPeriodicC1Em
 2011      E7800000 
 2012              	.LVL207:
 2013              	.LEHE18:
 100:src/Tests.cpp ****     while(true)
 2014              		.loc 2 100 5 is_stmt 1 discriminator 2
 100:src/Tests.cpp ****     while(true)
 2015              		.loc 2 100 13 is_stmt 0 discriminator 2
 2016 0b50 13050900 		mv	a0,s2
 2017              	.LEHB19:
 2018 0b54 97000000 		call	_ZN6Thread5startEv@plt
 2018      E7800000 
 2019              	.LVL208:
GAS LISTING /tmp/ccf9bp1A.s 			page 55


 2020              	.LEHE19:
 2021              	.L141:
 101:src/Tests.cpp ****     {
 2022              		.loc 2 101 5 is_stmt 1 discriminator 1
 101:src/Tests.cpp ****     {
 2023              		.loc 2 101 5 discriminator 1
 2024 0b5c 6F000000 		j	.L141
 2025              	.LVL209:
 2026              	.L143:
 2027 0b60 93040500 		mv	s1,a0
  99:src/Tests.cpp ****     t->start();
 2028              		.loc 2 99 36 is_stmt 0
 2029 0b64 13050900 		mv	a0,s2
 2030 0b68 97000000 		call	_ZdlPv@plt
 2030      E7800000 
 2031              	.LVL210:
 2032 0b70 13850400 		mv	a0,s1
 2033              	.LEHB20:
 2034 0b74 97000000 		call	_Unwind_Resume@plt
 2034      E7800000 
 2035              	.LVL211:
 2036              	.LEHE20:
 2037              		.cfi_endproc
 2038              	.LFE29:
 2039              		.section	.gcc_except_table
 2040              	.LLSDA29:
 2041 00e6 FF       		.byte	0xff
 2042 00e7 FF       		.byte	0xff
 2043 00e8 03       		.byte	0x3
 2044 00e9 34       		.byte	0x34
 2045 00ea 00000000 		.4byte	.LEHB17-.LFB29
 2046 00ee 00000000 		.4byte	.LEHE17-.LEHB17
 2047 00f2 00000000 		.4byte	0
 2048 00f6 00       		.byte	0
 2049 00f7 00000000 		.4byte	.LEHB18-.LFB29
 2050 00fb 00000000 		.4byte	.LEHE18-.LEHB18
 2051 00ff 00000000 		.4byte	.L143-.LFB29
 2052 0103 00       		.byte	0
 2053 0104 00000000 		.4byte	.LEHB19-.LFB29
 2054 0108 00000000 		.4byte	.LEHE19-.LEHB19
 2055 010c 00000000 		.4byte	0
 2056 0110 00       		.byte	0
 2057 0111 00000000 		.4byte	.LEHB20-.LFB29
 2058 0115 00000000 		.4byte	.LEHE20-.LEHB20
 2059 0119 00000000 		.4byte	0
 2060 011d 00       		.byte	0
 2061              		.text
 2063              		.section	.rodata.str1.8
 2064              		.align	3
 2065              	.LC16:
 2066 00d8 54657374 		.string	"Testing a few mallocs and frees\n\n"
 2066      696E6720 
 2066      61206665 
 2066      77206D61 
 2066      6C6C6F63 
 2067 00fa 00000000 		.align	3
 2067      0000
GAS LISTING /tmp/ccf9bp1A.s 			page 56


 2068              	.LC17:
 2069 0100 53554343 		.string	"SUCCESSFUL: Testing a few mallocs and frees\n\n"
 2069      45535346 
 2069      554C3A20 
 2069      54657374 
 2069      696E6720 
 2070              		.text
 2071              		.align	2
 2072              		.globl	_Z10mallocTestv
 2074              	_Z10mallocTestv:
 2075              	.LFB47:
 307:src/Tests.cpp ****     Riscv::printString("Testing a few mallocs and frees\n\n");
 2076              		.loc 2 307 1 is_stmt 1
 2077              		.cfi_startproc
 2078 0b7c 130101FC 		addi	sp,sp,-64
 2079              		.cfi_def_cfa_offset 64
 2080 0b80 233C1102 		sd	ra,56(sp)
 2081 0b84 23388102 		sd	s0,48(sp)
 2082 0b88 23349102 		sd	s1,40(sp)
 2083 0b8c 23302103 		sd	s2,32(sp)
 2084 0b90 233C3101 		sd	s3,24(sp)
 2085 0b94 23384101 		sd	s4,16(sp)
 2086 0b98 23345101 		sd	s5,8(sp)
 2087 0b9c 23306101 		sd	s6,0(sp)
 2088              		.cfi_offset 1, -8
 2089              		.cfi_offset 8, -16
 2090              		.cfi_offset 9, -24
 2091              		.cfi_offset 18, -32
 2092              		.cfi_offset 19, -40
 2093              		.cfi_offset 20, -48
 2094              		.cfi_offset 21, -56
 2095              		.cfi_offset 22, -64
 2096 0ba0 13040104 		addi	s0,sp,64
 2097              		.cfi_def_cfa 8, 0
 308:src/Tests.cpp **** 
 2098              		.loc 2 308 5
 308:src/Tests.cpp **** 
 2099              		.loc 2 308 23 is_stmt 0
 2100 0ba4 17050000 		lla	a0,.LC16
 2100      13050500 
 2101 0bac 97000000 		call	_ZN5Riscv11printStringEPKc@plt
 2101      E7800000 
 2102              	.LVL212:
 310:src/Tests.cpp ****     o->a = 3;
 2103              		.loc 2 310 5 is_stmt 1
 310:src/Tests.cpp ****     o->a = 3;
 2104              		.loc 2 310 21 is_stmt 0
 2105 0bb4 1305C002 		li	a0,44
 2106 0bb8 97000000 		call	_Znwm@plt
 2106      E7800000 
 2107              	.LVL213:
 2108 0bc0 93040500 		mv	s1,a0
 2109              	.LVL214:
 311:src/Tests.cpp ****     void* m1 = mem_alloc(10);
 2110              		.loc 2 311 5 is_stmt 1
 311:src/Tests.cpp ****     void* m1 = mem_alloc(10);
 2111              		.loc 2 311 10 is_stmt 0
GAS LISTING /tmp/ccf9bp1A.s 			page 57


 2112 0bc4 93073000 		li	a5,3
 2113 0bc8 2320F500 		sw	a5,0(a0)
 312:src/Tests.cpp ****     void* m2 = mem_alloc(100);
 2114              		.loc 2 312 5 is_stmt 1
 312:src/Tests.cpp ****     void* m2 = mem_alloc(100);
 2115              		.loc 2 312 25 is_stmt 0
 2116 0bcc 1305A000 		li	a0,10
 2117 0bd0 97000000 		call	mem_alloc@plt
 2117      E7800000 
 2118              	.LVL215:
 2119 0bd8 13090500 		mv	s2,a0
 2120              	.LVL216:
 313:src/Tests.cpp ****     void* m3 = mem_alloc(1000);
 2121              		.loc 2 313 5 is_stmt 1
 313:src/Tests.cpp ****     void* m3 = mem_alloc(1000);
 2122              		.loc 2 313 25 is_stmt 0
 2123 0bdc 13054006 		li	a0,100
 2124              	.LVL217:
 2125 0be0 97000000 		call	mem_alloc@plt
 2125      E7800000 
 2126              	.LVL218:
 2127 0be8 93090500 		mv	s3,a0
 2128              	.LVL219:
 314:src/Tests.cpp ****     void* m4 = mem_alloc(10000);
 2129              		.loc 2 314 5 is_stmt 1
 314:src/Tests.cpp ****     void* m4 = mem_alloc(10000);
 2130              		.loc 2 314 25 is_stmt 0
 2131 0bec 1305803E 		li	a0,1000
 2132              	.LVL220:
 2133 0bf0 97000000 		call	mem_alloc@plt
 2133      E7800000 
 2134              	.LVL221:
 2135 0bf8 130A0500 		mv	s4,a0
 2136              	.LVL222:
 315:src/Tests.cpp ****     void* m5 = mem_alloc(1);
 2137              		.loc 2 315 5 is_stmt 1
 315:src/Tests.cpp ****     void* m5 = mem_alloc(1);
 2138              		.loc 2 315 25 is_stmt 0
 2139 0bfc 37250000 		li	a0,8192
 2140              	.LVL223:
 2141 0c00 13050571 		addi	a0,a0,1808
 2142 0c04 97000000 		call	mem_alloc@plt
 2142      E7800000 
 2143              	.LVL224:
 2144 0c0c 930A0500 		mv	s5,a0
 2145              	.LVL225:
 316:src/Tests.cpp **** 
 2146              		.loc 2 316 5 is_stmt 1
 316:src/Tests.cpp **** 
 2147              		.loc 2 316 25 is_stmt 0
 2148 0c10 13051000 		li	a0,1
 2149              	.LVL226:
 2150 0c14 97000000 		call	mem_alloc@plt
 2150      E7800000 
 2151              	.LVL227:
 318:src/Tests.cpp ****         Riscv::printString("not OK\n");
 2152              		.loc 2 318 5 is_stmt 1
GAS LISTING /tmp/ccf9bp1A.s 			page 58


 2153 0c1c 630C0906 		beqz	s2,.L146
 2154 0c20 130B0500 		mv	s6,a0
 318:src/Tests.cpp ****         Riscv::printString("not OK\n");
 2155              		.loc 2 318 12 is_stmt 0 discriminator 1
 2156 0c24 63880906 		beqz	s3,.L146
 318:src/Tests.cpp ****         Riscv::printString("not OK\n");
 2157              		.loc 2 318 19 discriminator 2
 2158 0c28 63060A06 		beqz	s4,.L146
 318:src/Tests.cpp ****         Riscv::printString("not OK\n");
 2159              		.loc 2 318 26 discriminator 3
 2160 0c2c 63840A06 		beqz	s5,.L146
 318:src/Tests.cpp ****         Riscv::printString("not OK\n");
 2161              		.loc 2 318 33 discriminator 4
 2162 0c30 63020506 		beqz	a0,.L146
 323:src/Tests.cpp ****     delete (uint64*)m3;
 2163              		.loc 2 323 5 is_stmt 1 discriminator 1
 323:src/Tests.cpp ****     delete (uint64*)m3;
 2164              		.loc 2 323 21 is_stmt 0 discriminator 1
 2165 0c34 13050900 		mv	a0,s2
 2166              	.LVL228:
 2167 0c38 97000000 		call	_ZdlPv@plt
 2167      E7800000 
 2168              	.LVL229:
 324:src/Tests.cpp ****     delete (uint64*)m4;
 2169              		.loc 2 324 5 is_stmt 1 discriminator 1
 324:src/Tests.cpp ****     delete (uint64*)m4;
 2170              		.loc 2 324 21 is_stmt 0 discriminator 1
 2171 0c40 13050A00 		mv	a0,s4
 2172 0c44 97000000 		call	_ZdlPv@plt
 2172      E7800000 
 2173              	.LVL230:
 325:src/Tests.cpp ****     delete (uint64*)m2;
 2174              		.loc 2 325 5 is_stmt 1 discriminator 1
 325:src/Tests.cpp ****     delete (uint64*)m2;
 2175              		.loc 2 325 21 is_stmt 0 discriminator 1
 2176 0c4c 13850A00 		mv	a0,s5
 2177 0c50 97000000 		call	_ZdlPv@plt
 2177      E7800000 
 2178              	.LVL231:
 326:src/Tests.cpp ****     delete (uint64*)m5;
 2179              		.loc 2 326 5 is_stmt 1 discriminator 1
 326:src/Tests.cpp ****     delete (uint64*)m5;
 2180              		.loc 2 326 21 is_stmt 0 discriminator 1
 2181 0c58 13850900 		mv	a0,s3
 2182 0c5c 97000000 		call	_ZdlPv@plt
 2182      E7800000 
 2183              	.LVL232:
 327:src/Tests.cpp ****     delete o;
 2184              		.loc 2 327 5 is_stmt 1 discriminator 1
 327:src/Tests.cpp ****     delete o;
 2185              		.loc 2 327 21 is_stmt 0 discriminator 1
 2186 0c64 13050B00 		mv	a0,s6
 2187 0c68 97000000 		call	_ZdlPv@plt
 2187      E7800000 
 2188              	.LVL233:
 328:src/Tests.cpp **** 
 2189              		.loc 2 328 5 is_stmt 1 discriminator 1
GAS LISTING /tmp/ccf9bp1A.s 			page 59


 328:src/Tests.cpp **** 
 2190              		.loc 2 328 13 is_stmt 0 discriminator 1
 2191 0c70 63880400 		beqz	s1,.L149
 328:src/Tests.cpp **** 
 2192              		.loc 2 328 12 discriminator 1
 2193 0c74 13850400 		mv	a0,s1
 2194 0c78 97000000 		call	_ZdlPv@plt
 2194      E7800000 
 2195              	.LVL234:
 2196              	.L149:
 330:src/Tests.cpp **** }
 2197              		.loc 2 330 5 is_stmt 1
 330:src/Tests.cpp **** }
 2198              		.loc 2 330 23 is_stmt 0
 2199 0c80 17050000 		lla	a0,.LC17
 2199      13050500 
 2200 0c88 97000000 		call	_ZN5Riscv11printStringEPKc@plt
 2200      E7800000 
 2201              	.LVL235:
 2202 0c90 6F004001 		j	.L145
 2203              	.LVL236:
 2204              	.L146:
 319:src/Tests.cpp ****         return;
 2205              		.loc 2 319 9 is_stmt 1
 319:src/Tests.cpp ****         return;
 2206              		.loc 2 319 27 is_stmt 0
 2207 0c94 17050000 		lla	a0,.LC9
 2207      13050500 
 2208              	.LVL237:
 2209 0c9c 97000000 		call	_ZN5Riscv11printStringEPKc@plt
 2209      E7800000 
 2210              	.LVL238:
 320:src/Tests.cpp ****     }
 2211              		.loc 2 320 9 is_stmt 1
 2212              	.L145:
 331:src/Tests.cpp **** 
 2213              		.loc 2 331 1 is_stmt 0
 2214 0ca4 83308103 		ld	ra,56(sp)
 2215              		.cfi_restore 1
 2216 0ca8 03340103 		ld	s0,48(sp)
 2217              		.cfi_restore 8
 2218              		.cfi_def_cfa 2, 64
 2219 0cac 83348102 		ld	s1,40(sp)
 2220              		.cfi_restore 9
 2221              	.LVL239:
 2222 0cb0 03390102 		ld	s2,32(sp)
 2223              		.cfi_restore 18
 2224              	.LVL240:
 2225 0cb4 83398101 		ld	s3,24(sp)
 2226              		.cfi_restore 19
 2227              	.LVL241:
 2228 0cb8 033A0101 		ld	s4,16(sp)
 2229              		.cfi_restore 20
 2230              	.LVL242:
 2231 0cbc 833A8100 		ld	s5,8(sp)
 2232              		.cfi_restore 21
 2233              	.LVL243:
GAS LISTING /tmp/ccf9bp1A.s 			page 60


 2234 0cc0 033B0100 		ld	s6,0(sp)
 2235              		.cfi_restore 22
 2236 0cc4 13010104 		addi	sp,sp,64
 2237              		.cfi_def_cfa_offset 0
 2238 0cc8 67800000 		jr	ra
 2239              		.cfi_endproc
 2240              	.LFE47:
 2242              		.section	.rodata.str1.8
 2243 012e 0000     		.align	3
 2244              	.LC18:
 2245 0130 54657374 		.string	"Testing allocating whole address space\n\n"
 2245      696E6720 
 2245      616C6C6F 
 2245      63617469 
 2245      6E672077 
 2246 0159 00000000 		.align	3
 2246      000000
 2247              	.LC19:
 2248 0160 53554343 		.string	"SUCCESSFUL: Testing allocating whole address space\n\n"
 2248      45535346 
 2248      554C3A20 
 2248      54657374 
 2248      696E6720 
 2249              		.text
 2250              		.align	2
 2251              		.globl	_Z16mallocEverythingv
 2253              	_Z16mallocEverythingv:
 2254              	.LFB48:
 334:src/Tests.cpp ****     Riscv::printString("Testing allocating whole address space\n\n");
 2255              		.loc 2 334 1 is_stmt 1
 2256              		.cfi_startproc
 2257 0ccc 130101FE 		addi	sp,sp,-32
 2258              		.cfi_def_cfa_offset 32
 2259 0cd0 233C1100 		sd	ra,24(sp)
 2260 0cd4 23388100 		sd	s0,16(sp)
 2261 0cd8 23349100 		sd	s1,8(sp)
 2262              		.cfi_offset 1, -8
 2263              		.cfi_offset 8, -16
 2264              		.cfi_offset 9, -24
 2265 0cdc 13040102 		addi	s0,sp,32
 2266              		.cfi_def_cfa 8, 0
 335:src/Tests.cpp **** 
 2267              		.loc 2 335 5
 335:src/Tests.cpp **** 
 2268              		.loc 2 335 23 is_stmt 0
 2269 0ce0 17050000 		lla	a0,.LC18
 2269      13050500 
 2270 0ce8 97000000 		call	_ZN5Riscv11printStringEPKc@plt
 2270      E7800000 
 2271              	.LVL244:
 337:src/Tests.cpp **** 
 2272              		.loc 2 337 5 is_stmt 1
 337:src/Tests.cpp **** 
 2273              		.loc 2 337 47 is_stmt 0
 2274 0cf0 97070000 		la	a5,HEAP_START_ADDR
 2274      83B70700 
 2275 0cf8 03B50700 		ld	a0,0(a5)
GAS LISTING /tmp/ccf9bp1A.s 			page 61


 2276 0cfc 97070000 		la	a5,HEAP_END_ADDR
 2276      83B70700 
 2277 0d04 83B70700 		ld	a5,0(a5)
 2278 0d08 3305F540 		sub	a0,a0,a5
 2279              	.LVL245:
 339:src/Tests.cpp **** 
 2280              		.loc 2 339 5 is_stmt 1
 339:src/Tests.cpp **** 
 2281              		.loc 2 339 24 is_stmt 0
 2282 0d0c 130505FF 		addi	a0,a0,-16
 2283              	.LVL246:
 2284 0d10 97000000 		call	mem_alloc@plt
 2284      E7800000 
 2285              	.LVL247:
 341:src/Tests.cpp ****         Riscv::printString("not OK\n");
 2286              		.loc 2 341 5 is_stmt 1
 2287 0d18 63040502 		beqz	a0,.L152
 342:src/Tests.cpp ****         return;
 2288              		.loc 2 342 9
 342:src/Tests.cpp ****         return;
 2289              		.loc 2 342 27 is_stmt 0
 2290 0d1c 17050000 		lla	a0,.LC9
 2290      13050500 
 2291              	.LVL248:
 2292 0d24 97000000 		call	_ZN5Riscv11printStringEPKc@plt
 2292      E7800000 
 2293              	.LVL249:
 343:src/Tests.cpp ****     }
 2294              		.loc 2 343 9 is_stmt 1
 2295              	.L151:
 376:src/Tests.cpp **** 
 2296              		.loc 2 376 1 is_stmt 0
 2297 0d2c 83308101 		ld	ra,24(sp)
 2298              		.cfi_remember_state
 2299              		.cfi_restore 1
 2300 0d30 03340101 		ld	s0,16(sp)
 2301              		.cfi_restore 8
 2302              		.cfi_def_cfa 2, 32
 2303 0d34 83348100 		ld	s1,8(sp)
 2304              		.cfi_restore 9
 2305 0d38 13010102 		addi	sp,sp,32
 2306              		.cfi_def_cfa_offset 0
 2307 0d3c 67800000 		jr	ra
 2308              	.LVL250:
 2309              	.L152:
 2310              		.cfi_restore_state
 346:src/Tests.cpp **** 
 2311              		.loc 2 346 5 is_stmt 1
 346:src/Tests.cpp **** 
 2312              		.loc 2 346 48 is_stmt 0
 2313 0d40 97070000 		la	a5,HEAP_END_ADDR
 2313      83B70700 
 2314 0d48 03B50700 		ld	a0,0(a5)
 2315              	.LVL251:
 2316 0d4c 97070000 		la	a5,HEAP_START_ADDR
 2316      83B70700 
 2317 0d54 83B70700 		ld	a5,0(a5)
GAS LISTING /tmp/ccf9bp1A.s 			page 62


 2318 0d58 3305F540 		sub	a0,a0,a5
 346:src/Tests.cpp **** 
 2319              		.loc 2 346 74
 2320 0d5c 130505FF 		addi	a0,a0,-16
 346:src/Tests.cpp **** 
 2321              		.loc 2 346 113
 2322 0d60 13556500 		srli	a0,a0,6
 346:src/Tests.cpp **** 
 2323              		.loc 2 346 12
 2324 0d64 130545ED 		addi	a0,a0,-300
 2325              	.LVL252:
 348:src/Tests.cpp **** 
 2326              		.loc 2 348 5 is_stmt 1
 348:src/Tests.cpp **** 
 2327              		.loc 2 348 18 is_stmt 0
 2328 0d68 13156500 		slli	a0,a0,6
 2329              	.LVL253:
 2330 0d6c 97000000 		call	mem_alloc@plt
 2330      E7800000 
 2331              	.LVL254:
 2332 0d74 93040500 		mv	s1,a0
 2333              	.LVL255:
 350:src/Tests.cpp ****         Riscv::printString("not OK\n");
 2334              		.loc 2 350 5 is_stmt 1
 2335 0d78 630A0502 		beqz	a0,.L157
 365:src/Tests.cpp **** 
 2336              		.loc 2 365 5
 365:src/Tests.cpp **** 
 2337              		.loc 2 365 34 is_stmt 0
 2338 0d7c 13051000 		li	a0,1
 2339 0d80 97000000 		call	mem_alloc@plt
 2339      E7800000 
 2340              	.LVL256:
 367:src/Tests.cpp ****         Riscv::printString("not OK\n");
 2341              		.loc 2 367 5 is_stmt 1
 2342 0d88 630C0502 		beqz	a0,.L158
 372:src/Tests.cpp ****     //delete (uint64*)small_chunk;
 2343              		.loc 2 372 5 discriminator 1
 372:src/Tests.cpp ****     //delete (uint64*)small_chunk;
 2344              		.loc 2 372 21 is_stmt 0 discriminator 1
 2345 0d8c 13850400 		mv	a0,s1
 2346              	.LVL257:
 2347 0d90 97000000 		call	_ZdlPv@plt
 2347      E7800000 
 2348              	.LVL258:
 375:src/Tests.cpp **** }
 2349              		.loc 2 375 5 is_stmt 1 discriminator 1
 375:src/Tests.cpp **** }
 2350              		.loc 2 375 23 is_stmt 0 discriminator 1
 2351 0d98 17050000 		lla	a0,.LC19
 2351      13050500 
 2352 0da0 97000000 		call	_ZN5Riscv11printStringEPKc@plt
 2352      E7800000 
 2353              	.LVL259:
 2354 0da8 6FF05FF8 		j	.L151
 2355              	.L157:
 351:src/Tests.cpp ****         return;
GAS LISTING /tmp/ccf9bp1A.s 			page 63


 2356              		.loc 2 351 9 is_stmt 1
 351:src/Tests.cpp ****         return;
 2357              		.loc 2 351 27 is_stmt 0
 2358 0dac 17050000 		lla	a0,.LC9
 2358      13050500 
 2359 0db4 97000000 		call	_ZN5Riscv11printStringEPKc@plt
 2359      E7800000 
 2360              	.LVL260:
 352:src/Tests.cpp ****     }
 2361              		.loc 2 352 9 is_stmt 1
 2362 0dbc 6FF01FF7 		j	.L151
 2363              	.LVL261:
 2364              	.L158:
 368:src/Tests.cpp ****         return;
 2365              		.loc 2 368 9
 368:src/Tests.cpp ****         return;
 2366              		.loc 2 368 27 is_stmt 0
 2367 0dc0 17050000 		lla	a0,.LC9
 2367      13050500 
 2368              	.LVL262:
 2369 0dc8 97000000 		call	_ZN5Riscv11printStringEPKc@plt
 2369      E7800000 
 2370              	.LVL263:
 369:src/Tests.cpp ****     }
 2371              		.loc 2 369 9 is_stmt 1
 2372 0dd0 6FF0DFF5 		j	.L151
 2373              		.cfi_endproc
 2374              	.LFE48:
 2376              		.section	.rodata.str1.8
 2377 0195 000000   		.align	3
 2378              	.LC20:
 2379 0198 54657374 		.string	"Testing gap filling and chunk merge after multiple mallocs and frees\n\n"
 2379      696E6720 
 2379      67617020 
 2379      66696C6C 
 2379      696E6720 
 2380 01df 00       		.align	3
 2381              	.LC21:
 2382 01e0 53554343 		.string	"SUCCESSFUL: Testing gap filling and chunk merge after multiple mallocs and frees\n\n"
 2382      45535346 
 2382      554C3A20 
 2382      54657374 
 2382      696E6720 
 2383              		.text
 2384              		.align	2
 2385              		.globl	_Z17mallocGapFillTestv
 2387              	_Z17mallocGapFillTestv:
 2388              	.LFB49:
 379:src/Tests.cpp ****     Riscv::printString("Testing gap filling and chunk merge after multiple mallocs and frees\n\n");
 2389              		.loc 2 379 1
 2390              		.cfi_startproc
 2391 0dd4 130101F6 		addi	sp,sp,-160
 2392              		.cfi_def_cfa_offset 160
 2393 0dd8 233C1108 		sd	ra,152(sp)
 2394 0ddc 23388108 		sd	s0,144(sp)
 2395 0de0 23349108 		sd	s1,136(sp)
 2396 0de4 23302109 		sd	s2,128(sp)
GAS LISTING /tmp/ccf9bp1A.s 			page 64


 2397 0de8 233C3107 		sd	s3,120(sp)
 2398 0dec 23384107 		sd	s4,112(sp)
 2399 0df0 23345107 		sd	s5,104(sp)
 2400 0df4 23306107 		sd	s6,96(sp)
 2401 0df8 233C7105 		sd	s7,88(sp)
 2402 0dfc 23388105 		sd	s8,80(sp)
 2403              		.cfi_offset 1, -8
 2404              		.cfi_offset 8, -16
 2405              		.cfi_offset 9, -24
 2406              		.cfi_offset 18, -32
 2407              		.cfi_offset 19, -40
 2408              		.cfi_offset 20, -48
 2409              		.cfi_offset 21, -56
 2410              		.cfi_offset 22, -64
 2411              		.cfi_offset 23, -72
 2412              		.cfi_offset 24, -80
 2413 0e00 1304010A 		addi	s0,sp,160
 2414              		.cfi_def_cfa 8, 0
 380:src/Tests.cpp **** 
 2415              		.loc 2 380 5
 380:src/Tests.cpp **** 
 2416              		.loc 2 380 23 is_stmt 0
 2417 0e04 17050000 		lla	a0,.LC20
 2417      13050500 
 2418 0e0c 97000000 		call	_ZN5Riscv11printStringEPKc@plt
 2418      E7800000 
 2419              	.LVL264:
 2420              	.LBB59:
 386:src/Tests.cpp ****     {
 2421              		.loc 2 386 13
 2422 0e14 93040000 		li	s1,0
 2423              	.L163:
 2424              	.LVL265:
 386:src/Tests.cpp ****     {
 2425              		.loc 2 386 18 is_stmt 1 discriminator 1
 2426 0e18 93079000 		li	a5,9
 2427 0e1c 63C89706 		bgt	s1,a5,.L160
 388:src/Tests.cpp ****         if(m[i] == nullptr){
 2428              		.loc 2 388 9
 388:src/Tests.cpp ****         if(m[i] == nullptr){
 2429              		.loc 2 388 28 is_stmt 0
 2430 0e20 1B956400 		slliw	a0,s1,6
 388:src/Tests.cpp ****         if(m[i] == nullptr){
 2431              		.loc 2 388 25
 2432 0e24 1B051500 		addiw	a0,a0,1
 2433 0e28 97000000 		call	mem_alloc@plt
 2433      E7800000 
 2434              	.LVL266:
 388:src/Tests.cpp ****         if(m[i] == nullptr){
 2435              		.loc 2 388 14
 2436 0e30 93973400 		slli	a5,s1,3
 2437 0e34 130704FB 		addi	a4,s0,-80
 2438 0e38 B307F700 		add	a5,a4,a5
 2439 0e3c 23B8A7FA 		sd	a0,-80(a5)
 389:src/Tests.cpp ****             Riscv::printString("not OK\n");
 2440              		.loc 2 389 9 is_stmt 1
 2441 0e40 63060500 		beqz	a0,.L180
GAS LISTING /tmp/ccf9bp1A.s 			page 65


 386:src/Tests.cpp ****     {
 2442              		.loc 2 386 5 discriminator 2
 2443 0e44 9B841400 		addiw	s1,s1,1
 2444              	.LVL267:
 2445 0e48 6FF01FFD 		j	.L163
 2446              	.LVL268:
 2447              	.L180:
 390:src/Tests.cpp ****             return;
 2448              		.loc 2 390 13
 390:src/Tests.cpp ****             return;
 2449              		.loc 2 390 31 is_stmt 0
 2450 0e4c 17050000 		lla	a0,.LC9
 2450      13050500 
 2451 0e54 97000000 		call	_ZN5Riscv11printStringEPKc@plt
 2451      E7800000 
 2452              	.LVL269:
 391:src/Tests.cpp ****         }
 2453              		.loc 2 391 13 is_stmt 1
 2454              	.L159:
 2455              	.LBE59:
 452:src/Tests.cpp **** 
 2456              		.loc 2 452 1 is_stmt 0
 2457 0e5c 83308109 		ld	ra,152(sp)
 2458              		.cfi_remember_state
 2459              		.cfi_restore 1
 2460 0e60 03340109 		ld	s0,144(sp)
 2461              		.cfi_restore 8
 2462              		.cfi_def_cfa 2, 160
 2463 0e64 83348108 		ld	s1,136(sp)
 2464              		.cfi_restore 9
 2465 0e68 03390108 		ld	s2,128(sp)
 2466              		.cfi_restore 18
 2467 0e6c 83398107 		ld	s3,120(sp)
 2468              		.cfi_restore 19
 2469 0e70 033A0107 		ld	s4,112(sp)
 2470              		.cfi_restore 20
 2471 0e74 833A8106 		ld	s5,104(sp)
 2472              		.cfi_restore 21
 2473 0e78 033B0106 		ld	s6,96(sp)
 2474              		.cfi_restore 22
 2475 0e7c 833B8105 		ld	s7,88(sp)
 2476              		.cfi_restore 23
 2477 0e80 033C0105 		ld	s8,80(sp)
 2478              		.cfi_restore 24
 2479 0e84 1301010A 		addi	sp,sp,160
 2480              		.cfi_def_cfa_offset 0
 2481 0e88 67800000 		jr	ra
 2482              	.LVL270:
 2483              	.L160:
 2484              		.cfi_restore_state
 395:src/Tests.cpp **** 
 2485              		.loc 2 395 5 is_stmt 1
 395:src/Tests.cpp **** 
 2486              		.loc 2 395 24 is_stmt 0
 2487 0e8c 033504F7 		ld	a0,-144(s0)
 395:src/Tests.cpp **** 
 2488              		.loc 2 395 25
GAS LISTING /tmp/ccf9bp1A.s 			page 66


 2489 0e90 63060500 		beqz	a0,.L164
 395:src/Tests.cpp **** 
 2490              		.loc 2 395 24 discriminator 1
 2491 0e94 97000000 		call	_ZdlPv@plt
 2491      E7800000 
 2492              	.LVL271:
 2493              	.L164:
 397:src/Tests.cpp ****     void* tmp2 = mem_alloc(1);
 2494              		.loc 2 397 5 is_stmt 1
 397:src/Tests.cpp ****     void* tmp2 = mem_alloc(1);
 2495              		.loc 2 397 27 is_stmt 0
 2496 0e9c 13051000 		li	a0,1
 2497 0ea0 97000000 		call	mem_alloc@plt
 2497      E7800000 
 2498              	.LVL272:
 2499 0ea8 93040500 		mv	s1,a0
 2500              	.LVL273:
 398:src/Tests.cpp ****     void* tmp3 = mem_alloc(1);
 2501              		.loc 2 398 5 is_stmt 1
 398:src/Tests.cpp ****     void* tmp3 = mem_alloc(1);
 2502              		.loc 2 398 27 is_stmt 0
 2503 0eac 13051000 		li	a0,1
 2504 0eb0 97000000 		call	mem_alloc@plt
 2504      E7800000 
 2505              	.LVL274:
 2506 0eb8 13090500 		mv	s2,a0
 2507              	.LVL275:
 399:src/Tests.cpp **** 
 2508              		.loc 2 399 5 is_stmt 1
 399:src/Tests.cpp **** 
 2509              		.loc 2 399 27 is_stmt 0
 2510 0ebc 13051000 		li	a0,1
 2511              	.LVL276:
 2512 0ec0 97000000 		call	mem_alloc@plt
 2512      E7800000 
 2513              	.LVL277:
 2514 0ec8 93090500 		mv	s3,a0
 2515              	.LVL278:
 401:src/Tests.cpp ****     {
 2516              		.loc 2 401 5 is_stmt 1
 2517 0ecc 63880408 		beqz	s1,.L165
 401:src/Tests.cpp ****     {
 2518              		.loc 2 401 14 is_stmt 0 discriminator 1
 2519 0ed0 63060908 		beqz	s2,.L165
 401:src/Tests.cpp ****     {
 2520              		.loc 2 401 23 discriminator 2
 2521 0ed4 63040508 		beqz	a0,.L165
 407:src/Tests.cpp ****     uint64 im3 = (uint64)m[3];
 2522              		.loc 2 407 5 is_stmt 1
 407:src/Tests.cpp ****     uint64 im3 = (uint64)m[3];
 2523              		.loc 2 407 29 is_stmt 0
 2524 0ed8 833784F6 		ld	a5,-152(s0)
 2525              	.LVL279:
 408:src/Tests.cpp ****     uint64 im5 = (uint64)m[5];
 2526              		.loc 2 408 5 is_stmt 1
 408:src/Tests.cpp ****     uint64 im5 = (uint64)m[5];
 2527              		.loc 2 408 29 is_stmt 0
GAS LISTING /tmp/ccf9bp1A.s 			page 67


 2528 0edc 033584F7 		ld	a0,-136(s0)
 2529              	.LVL280:
 409:src/Tests.cpp ****     uint64 imN = (uint64)m[N];
 2530              		.loc 2 409 5 is_stmt 1
 409:src/Tests.cpp ****     uint64 imN = (uint64)m[N];
 2531              		.loc 2 409 29 is_stmt 0
 2532 0ee0 033B84F8 		ld	s6,-120(s0)
 2533              	.LVL281:
 410:src/Tests.cpp **** 
 2534              		.loc 2 410 5 is_stmt 1
 410:src/Tests.cpp **** 
 2535              		.loc 2 410 29 is_stmt 0
 2536 0ee4 033604FB 		ld	a2,-80(s0)
 2537              	.LVL282:
 412:src/Tests.cpp ****     uint64 itmp2 = (uint64)tmp2;
 2538              		.loc 2 412 5 is_stmt 1
 413:src/Tests.cpp ****     uint64 itmp3 = (uint64)tmp3;
 2539              		.loc 2 413 5
 413:src/Tests.cpp ****     uint64 itmp3 = (uint64)tmp3;
 2540              		.loc 2 413 12 is_stmt 0
 2541 0ee8 130A0900 		mv	s4,s2
 2542              	.LVL283:
 414:src/Tests.cpp **** 
 2543              		.loc 2 414 5 is_stmt 1
 414:src/Tests.cpp **** 
 2544              		.loc 2 414 12 is_stmt 0
 2545 0eec 938A0900 		mv	s5,s3
 2546              	.LVL284:
 416:src/Tests.cpp ****     {
 2547              		.loc 2 416 5 is_stmt 1
 2548 0ef0 63F09708 		bgeu	a5,s1,.L167
 416:src/Tests.cpp ****     {
 2549              		.loc 2 416 20 is_stmt 0 discriminator 1
 2550 0ef4 63FEA406 		bleu	a0,s1,.L167
 416:src/Tests.cpp ****     {
 2551              		.loc 2 416 33 discriminator 2
 2552 0ef8 63FC2707 		bgeu	a5,s2,.L167
 416:src/Tests.cpp ****     {
 2553              		.loc 2 416 46 discriminator 3
 2554 0efc 637AA906 		bleu	a0,s2,.L167
 416:src/Tests.cpp ****     {
 2555              		.loc 2 416 8 discriminator 4
 2556 0f00 63783607 		bgeu	a2,s3,.L167
 422:src/Tests.cpp ****     delete (uint64*)m[4];
 2557              		.loc 2 422 5 is_stmt 1
 422:src/Tests.cpp ****     delete (uint64*)m[4];
 2558              		.loc 2 422 25 is_stmt 0
 2559 0f04 63060500 		beqz	a0,.L169
 422:src/Tests.cpp ****     delete (uint64*)m[4];
 2560              		.loc 2 422 24 discriminator 1
 2561 0f08 97000000 		call	_ZdlPv@plt
 2561      E7800000 
 2562              	.LVL285:
 2563              	.L169:
 423:src/Tests.cpp **** 
 2564              		.loc 2 423 5 is_stmt 1
 423:src/Tests.cpp **** 
GAS LISTING /tmp/ccf9bp1A.s 			page 68


 2565              		.loc 2 423 24 is_stmt 0
 2566 0f10 033504F8 		ld	a0,-128(s0)
 423:src/Tests.cpp **** 
 2567              		.loc 2 423 25
 2568 0f14 63060500 		beqz	a0,.L170
 423:src/Tests.cpp **** 
 2569              		.loc 2 423 24 discriminator 1
 2570 0f18 97000000 		call	_ZdlPv@plt
 2570      E7800000 
 2571              	.LVL286:
 2572              	.L170:
 425:src/Tests.cpp ****     void* tmp5 = mem_alloc(576);
 2573              		.loc 2 425 5 is_stmt 1
 425:src/Tests.cpp ****     void* tmp5 = mem_alloc(576);
 2574              		.loc 2 425 27 is_stmt 0
 2575 0f20 13050028 		li	a0,640
 2576 0f24 97000000 		call	mem_alloc@plt
 2576      E7800000 
 2577              	.LVL287:
 2578 0f2c 130C0500 		mv	s8,a0
 2579              	.LVL288:
 426:src/Tests.cpp **** 
 2580              		.loc 2 426 5 is_stmt 1
 426:src/Tests.cpp **** 
 2581              		.loc 2 426 27 is_stmt 0
 2582 0f30 13050024 		li	a0,576
 2583              	.LVL289:
 2584 0f34 97000000 		call	mem_alloc@plt
 2584      E7800000 
 2585              	.LVL290:
 2586 0f3c 930B0500 		mv	s7,a0
 2587              	.LVL291:
 428:src/Tests.cpp ****         Riscv::printString("not OK\n");
 2588              		.loc 2 428 5 is_stmt 1
 2589 0f40 63020C04 		beqz	s8,.L171
 428:src/Tests.cpp ****         Riscv::printString("not OK\n");
 2590              		.loc 2 428 14 is_stmt 0 discriminator 1
 2591 0f44 63000504 		beqz	a0,.L171
 433:src/Tests.cpp ****     uint64 itmp5 = (uint64)tmp5;
 2592              		.loc 2 433 5 is_stmt 1
 2593              	.LVL292:
 434:src/Tests.cpp **** 
 2594              		.loc 2 434 5
 436:src/Tests.cpp ****         Riscv::printString("not OK\n");
 2595              		.loc 2 436 5
 2596 0f48 6378AA04 		bgeu	s4,a0,.L173
 436:src/Tests.cpp ****         Riscv::printString("not OK\n");
 2597              		.loc 2 436 22 is_stmt 0 discriminator 1
 2598 0f4c 6376AB04 		bgeu	s6,a0,.L173
 436:src/Tests.cpp ****         Riscv::printString("not OK\n");
 2599              		.loc 2 436 8 discriminator 2
 2600 0f50 63745C05 		bleu	s5,s8,.L173
 2601              	.LBB60:
 441:src/Tests.cpp ****         delete (uint64*)m[i];
 2602              		.loc 2 441 13
 2603 0f54 130A0000 		li	s4,0
 2604 0f58 6F008005 		j	.L174
GAS LISTING /tmp/ccf9bp1A.s 			page 69


 2605              	.LVL293:
 2606              	.L165:
 2607              	.LBE60:
 403:src/Tests.cpp ****         return;
 2608              		.loc 2 403 9 is_stmt 1
 403:src/Tests.cpp ****         return;
 2609              		.loc 2 403 27 is_stmt 0
 2610 0f5c 17050000 		lla	a0,.LC9
 2610      13050500 
 2611              	.LVL294:
 2612 0f64 97000000 		call	_ZN5Riscv11printStringEPKc@plt
 2612      E7800000 
 2613              	.LVL295:
 404:src/Tests.cpp ****     }
 2614              		.loc 2 404 9 is_stmt 1
 2615 0f6c 6FF01FEF 		j	.L159
 2616              	.LVL296:
 2617              	.L167:
 418:src/Tests.cpp ****         return;
 2618              		.loc 2 418 9
 418:src/Tests.cpp ****         return;
 2619              		.loc 2 418 27 is_stmt 0
 2620 0f70 17050000 		lla	a0,.LC9
 2620      13050500 
 2621              	.LVL297:
 2622 0f78 97000000 		call	_ZN5Riscv11printStringEPKc@plt
 2622      E7800000 
 2623              	.LVL298:
 419:src/Tests.cpp ****     }
 2624              		.loc 2 419 9 is_stmt 1
 2625 0f80 6FF0DFED 		j	.L159
 2626              	.LVL299:
 2627              	.L171:
 429:src/Tests.cpp ****         return;
 2628              		.loc 2 429 9
 429:src/Tests.cpp ****         return;
 2629              		.loc 2 429 27 is_stmt 0
 2630 0f84 17050000 		lla	a0,.LC9
 2630      13050500 
 2631              	.LVL300:
 2632 0f8c 97000000 		call	_ZN5Riscv11printStringEPKc@plt
 2632      E7800000 
 2633              	.LVL301:
 430:src/Tests.cpp ****     }
 2634              		.loc 2 430 9 is_stmt 1
 2635 0f94 6FF09FEC 		j	.L159
 2636              	.LVL302:
 2637              	.L173:
 437:src/Tests.cpp ****         return;
 2638              		.loc 2 437 9
 437:src/Tests.cpp ****         return;
 2639              		.loc 2 437 27 is_stmt 0
 2640 0f98 17050000 		lla	a0,.LC9
 2640      13050500 
 2641              	.LVL303:
 2642 0fa0 97000000 		call	_ZN5Riscv11printStringEPKc@plt
 2642      E7800000 
GAS LISTING /tmp/ccf9bp1A.s 			page 70


 2643              	.LVL304:
 438:src/Tests.cpp ****     }
 2644              		.loc 2 438 9 is_stmt 1
 2645 0fa8 6FF05FEB 		j	.L159
 2646              	.LVL305:
 2647              	.L176:
 2648              	.LBB61:
 441:src/Tests.cpp ****         delete (uint64*)m[i];
 2649              		.loc 2 441 5 discriminator 2
 2650 0fac 1B0A1A00 		addiw	s4,s4,1
 2651              	.LVL306:
 2652              	.L174:
 441:src/Tests.cpp ****         delete (uint64*)m[i];
 2653              		.loc 2 441 18 discriminator 1
 2654 0fb0 93079000 		li	a5,9
 2655 0fb4 63C24703 		bgt	s4,a5,.L175
 442:src/Tests.cpp ****     }
 2656              		.loc 2 442 9
 442:src/Tests.cpp ****     }
 2657              		.loc 2 442 28 is_stmt 0
 2658 0fb8 93173A00 		slli	a5,s4,3
 2659 0fbc 130704FB 		addi	a4,s0,-80
 2660              	.LVL307:
 2661 0fc0 B307F700 		add	a5,a4,a5
 2662 0fc4 03B507FB 		ld	a0,-80(a5)
 442:src/Tests.cpp ****     }
 2663              		.loc 2 442 29
 2664 0fc8 E30205FE 		beqz	a0,.L176
 442:src/Tests.cpp ****     }
 2665              		.loc 2 442 28 discriminator 1
 2666 0fcc 97000000 		call	_ZdlPv@plt
 2666      E7800000 
 2667              	.LVL308:
 2668 0fd4 6FF09FFD 		j	.L176
 2669              	.L175:
 2670              	.LBE61:
 445:src/Tests.cpp ****     delete (uint64*)tmp2;
 2671              		.loc 2 445 5 is_stmt 1 discriminator 1
 445:src/Tests.cpp ****     delete (uint64*)tmp2;
 2672              		.loc 2 445 21 is_stmt 0 discriminator 1
 2673 0fd8 13850400 		mv	a0,s1
 2674 0fdc 97000000 		call	_ZdlPv@plt
 2674      E7800000 
 2675              	.LVL309:
 446:src/Tests.cpp ****     delete (uint64*)tmp3;
 2676              		.loc 2 446 5 is_stmt 1 discriminator 1
 446:src/Tests.cpp ****     delete (uint64*)tmp3;
 2677              		.loc 2 446 21 is_stmt 0 discriminator 1
 2678 0fe4 13050900 		mv	a0,s2
 2679 0fe8 97000000 		call	_ZdlPv@plt
 2679      E7800000 
 2680              	.LVL310:
 447:src/Tests.cpp ****     delete (uint64*)tmp4;
 2681              		.loc 2 447 5 is_stmt 1 discriminator 1
 447:src/Tests.cpp ****     delete (uint64*)tmp4;
 2682              		.loc 2 447 21 is_stmt 0 discriminator 1
 2683 0ff0 13850900 		mv	a0,s3
GAS LISTING /tmp/ccf9bp1A.s 			page 71


 2684 0ff4 97000000 		call	_ZdlPv@plt
 2684      E7800000 
 2685              	.LVL311:
 448:src/Tests.cpp ****     delete (uint64*)tmp5;
 2686              		.loc 2 448 5 is_stmt 1 discriminator 1
 448:src/Tests.cpp ****     delete (uint64*)tmp5;
 2687              		.loc 2 448 21 is_stmt 0 discriminator 1
 2688 0ffc 13050C00 		mv	a0,s8
 2689 1000 97000000 		call	_ZdlPv@plt
 2689      E7800000 
 2690              	.LVL312:
 449:src/Tests.cpp **** 
 2691              		.loc 2 449 5 is_stmt 1 discriminator 1
 449:src/Tests.cpp **** 
 2692              		.loc 2 449 21 is_stmt 0 discriminator 1
 2693 1008 13850B00 		mv	a0,s7
 2694 100c 97000000 		call	_ZdlPv@plt
 2694      E7800000 
 2695              	.LVL313:
 451:src/Tests.cpp **** }
 2696              		.loc 2 451 5 is_stmt 1 discriminator 1
 451:src/Tests.cpp **** }
 2697              		.loc 2 451 23 is_stmt 0 discriminator 1
 2698 1014 17050000 		lla	a0,.LC21
 2698      13050500 
 2699 101c 97000000 		call	_ZN5Riscv11printStringEPKc@plt
 2699      E7800000 
 2700              	.LVL314:
 2701 1024 6FF09FE3 		j	.L159
 2702              		.cfi_endproc
 2703              	.LFE49:
 2705              		.align	2
 2706              		.globl	_Z8semTest1v
 2708              	_Z8semTest1v:
 2709              	.LFB52:
 478:src/Tests.cpp **** 
 479:src/Tests.cpp **** void semTest1()
 480:src/Tests.cpp **** {
 2710              		.loc 2 480 1 is_stmt 1
 2711              		.cfi_startproc
 2712 1028 130101FE 		addi	sp,sp,-32
 2713              		.cfi_def_cfa_offset 32
 2714 102c 233C1100 		sd	ra,24(sp)
 2715 1030 23388100 		sd	s0,16(sp)
 2716              		.cfi_offset 1, -8
 2717              		.cfi_offset 8, -16
 2718 1034 13040102 		addi	s0,sp,32
 2719              		.cfi_def_cfa 8, 0
 481:src/Tests.cpp ****     sem_open(&spaceAvailable, 10);
 2720              		.loc 2 481 5
 2721              		.loc 2 481 13 is_stmt 0
 2722 1038 9305A000 		li	a1,10
 2723 103c 17050000 		lla	a0,.LANCHOR0+32
 2723      13050500 
 2724 1044 97000000 		call	sem_open@plt
 2724      E7800000 
 2725              	.LVL315:
GAS LISTING /tmp/ccf9bp1A.s 			page 72


 482:src/Tests.cpp **** 
 483:src/Tests.cpp ****     sem_open(&itemAvailable, 0);
 2726              		.loc 2 483 5 is_stmt 1
 2727              		.loc 2 483 13 is_stmt 0
 2728 104c 93050000 		li	a1,0
 2729 1050 17050000 		lla	a0,.LANCHOR0+8
 2729      13050500 
 2730 1058 97000000 		call	sem_open@plt
 2730      E7800000 
 2731              	.LVL316:
 484:src/Tests.cpp **** 
 485:src/Tests.cpp ****     thread_t threadA, threadB;
 2732              		.loc 2 485 5 is_stmt 1
 486:src/Tests.cpp **** 
 487:src/Tests.cpp ****     thread_create(&threadA, producerA, nullptr);
 2733              		.loc 2 487 5
 2734              		.loc 2 487 18 is_stmt 0
 2735 1060 13060000 		li	a2,0
 2736 1064 97050000 		lla	a1,_Z9producerAPv
 2736      93850500 
 2737 106c 130584FE 		addi	a0,s0,-24
 2738 1070 97000000 		call	thread_create@plt
 2738      E7800000 
 2739              	.LVL317:
 488:src/Tests.cpp **** 
 489:src/Tests.cpp ****     thread_create(&threadB, consumerA, nullptr);
 2740              		.loc 2 489 5 is_stmt 1
 2741              		.loc 2 489 18 is_stmt 0
 2742 1078 13060000 		li	a2,0
 2743 107c 97050000 		lla	a1,_Z9consumerAPv
 2743      93850500 
 2744 1084 130504FE 		addi	a0,s0,-32
 2745 1088 97000000 		call	thread_create@plt
 2745      E7800000 
 2746              	.LVL318:
 2747 1090 6F00C000 		j	.L184
 2748              	.L182:
 490:src/Tests.cpp **** 
 491:src/Tests.cpp ****     while(!((PCB*)threadA)->isFinished() || !((PCB*)threadA)->isFinished())
 492:src/Tests.cpp ****         thread_dispatch();
 2749              		.loc 2 492 9 is_stmt 1 discriminator 5
 2750              		.loc 2 492 24 is_stmt 0 discriminator 5
 2751 1094 97000000 		call	thread_dispatch@plt
 2751      E7800000 
 2752              	.LVL319:
 2753              	.L184:
 491:src/Tests.cpp ****         thread_dispatch();
 2754              		.loc 2 491 5 is_stmt 1
 491:src/Tests.cpp ****         thread_dispatch();
 2755              		.loc 2 491 42
 491:src/Tests.cpp ****         thread_dispatch();
 2756              		.loc 2 491 39 is_stmt 0
 2757 109c 033584FE 		ld	a0,-24(s0)
 2758 10a0 97000000 		call	_ZN3PCB10isFinishedEv@plt
 2758      E7800000 
 2759              	.LVL320:
 491:src/Tests.cpp ****         thread_dispatch();
GAS LISTING /tmp/ccf9bp1A.s 			page 73


 2760              		.loc 2 491 42
 2761 10a8 E30605FE 		beqz	a0,.L182
 491:src/Tests.cpp ****         thread_dispatch();
 2762              		.loc 2 491 73 discriminator 3
 2763 10ac 033584FE 		ld	a0,-24(s0)
 2764 10b0 97000000 		call	_ZN3PCB10isFinishedEv@plt
 2764      E7800000 
 2765              	.LVL321:
 491:src/Tests.cpp ****         thread_dispatch();
 2766              		.loc 2 491 42 discriminator 3
 2767 10b8 E30E05FC 		beqz	a0,.L182
 493:src/Tests.cpp **** 
 494:src/Tests.cpp **** }
 2768              		.loc 2 494 1
 2769 10bc 83308101 		ld	ra,24(sp)
 2770              		.cfi_restore 1
 2771 10c0 03340101 		ld	s0,16(sp)
 2772              		.cfi_restore 8
 2773              		.cfi_def_cfa 2, 32
 2774 10c4 13010102 		addi	sp,sp,32
 2775              		.cfi_def_cfa_offset 0
 2776 10c8 67800000 		jr	ra
 2777              		.cfi_endproc
 2778              	.LFE52:
 2780              		.align	2
 2781              		.globl	_Z14semaphoreTestsv
 2783              	_Z14semaphoreTestsv:
 2784              	.LFB37:
 281:src/Tests.cpp ****     semTest1();
 2785              		.loc 2 281 1 is_stmt 1
 2786              		.cfi_startproc
 2787 10cc 130101FF 		addi	sp,sp,-16
 2788              		.cfi_def_cfa_offset 16
 2789 10d0 23341100 		sd	ra,8(sp)
 2790 10d4 23308100 		sd	s0,0(sp)
 2791              		.cfi_offset 1, -8
 2792              		.cfi_offset 8, -16
 2793 10d8 13040101 		addi	s0,sp,16
 2794              		.cfi_def_cfa 8, 0
 282:src/Tests.cpp **** }
 2795              		.loc 2 282 5
 282:src/Tests.cpp **** }
 2796              		.loc 2 282 13 is_stmt 0
 2797 10dc 97000000 		call	_Z8semTest1v
 2797      E7800000 
 2798              	.LVL322:
 283:src/Tests.cpp **** 
 2799              		.loc 2 283 1
 2800 10e4 83308100 		ld	ra,8(sp)
 2801              		.cfi_restore 1
 2802 10e8 03340100 		ld	s0,0(sp)
 2803              		.cfi_restore 8
 2804              		.cfi_def_cfa 2, 16
 2805 10ec 13010101 		addi	sp,sp,16
 2806              		.cfi_def_cfa_offset 0
 2807 10f0 67800000 		jr	ra
 2808              		.cfi_endproc
GAS LISTING /tmp/ccf9bp1A.s 			page 74


 2809              	.LFE37:
 2811              		.align	2
 2812              		.globl	_Z7myTestsv
 2814              	_Z7myTestsv:
 2815              	.LFB38:
 286:src/Tests.cpp ****     //memoryAllocationTests();
 2816              		.loc 2 286 1 is_stmt 1
 2817              		.cfi_startproc
 2818 10f4 130101FF 		addi	sp,sp,-16
 2819              		.cfi_def_cfa_offset 16
 2820 10f8 23341100 		sd	ra,8(sp)
 2821 10fc 23308100 		sd	s0,0(sp)
 2822              		.cfi_offset 1, -8
 2823              		.cfi_offset 8, -16
 2824 1100 13040101 		addi	s0,sp,16
 2825              		.cfi_def_cfa 8, 0
 290:src/Tests.cpp **** }
 2826              		.loc 2 290 5
 290:src/Tests.cpp **** }
 2827              		.loc 2 290 19 is_stmt 0
 2828 1104 97000000 		call	_Z14semaphoreTestsv
 2828      E7800000 
 2829              	.LVL323:
 291:src/Tests.cpp **** 
 2830              		.loc 2 291 1
 2831 110c 83308100 		ld	ra,8(sp)
 2832              		.cfi_restore 1
 2833 1110 03340100 		ld	s0,0(sp)
 2834              		.cfi_restore 8
 2835              		.cfi_def_cfa 2, 16
 2836 1114 13010101 		addi	sp,sp,16
 2837              		.cfi_def_cfa_offset 0
 2838 1118 67800000 		jr	ra
 2839              		.cfi_endproc
 2840              	.LFE38:
 2842              		.weak	_ZTV14PeriodicThread
 2843              		.section	.data.rel.ro.local._ZTV14PeriodicThread,"awG",@progbits,_ZTV14PeriodicThread,comdat
 2844              		.align	3
 2847              	_ZTV14PeriodicThread:
 2848 0000 00000000 		.dword	0
 2848      00000000 
 2849 0008 00000000 		.dword	0
 2849      00000000 
 2850 0010 00000000 		.dword	_ZN14PeriodicThreadD1Ev
 2850      00000000 
 2851 0018 00000000 		.dword	_ZN14PeriodicThreadD0Ev
 2851      00000000 
 2852 0020 00000000 		.dword	_ZN6Thread3runEv
 2852      00000000 
 2853 0028 00000000 		.dword	_ZN14PeriodicThread18periodicActivationEv
 2853      00000000 
 2854              		.weak	_ZTV12TestPeriodic
 2855              		.section	.data.rel.ro.local._ZTV12TestPeriodic,"awG",@progbits,_ZTV12TestPeriodic,comdat
 2856              		.align	3
 2859              	_ZTV12TestPeriodic:
 2860 0000 00000000 		.dword	0
 2860      00000000 
GAS LISTING /tmp/ccf9bp1A.s 			page 75


 2861 0008 00000000 		.dword	0
 2861      00000000 
 2862 0010 00000000 		.dword	_ZN12TestPeriodicD1Ev
 2862      00000000 
 2863 0018 00000000 		.dword	_ZN12TestPeriodicD0Ev
 2863      00000000 
 2864 0020 00000000 		.dword	_ZN6Thread3runEv
 2864      00000000 
 2865 0028 00000000 		.dword	_ZN12TestPeriodic18periodicActivationEv
 2865      00000000 
 2866              		.globl	string
 2867              		.globl	itemAvailable
 2868              		.globl	spaceAvailable
 2869              		.globl	tail
 2870              		.globl	head
 2871              		.globl	buffer
 2872              		.data
 2873              		.align	3
 2874              		.set	.LANCHOR1,. + 0
 2877              	string:
 2878 0000 74686973 		.string	"this is ni"
 2878      20697320 
 2878      6E6900
 2879              		.bss
 2880              		.align	3
 2881              		.set	.LANCHOR0,. + 0
 2884              	head:
 2885 0000 00000000 		.zero	4
 2886 0004 00000000 		.zero	4
 2889              	itemAvailable:
 2890 0008 00000000 		.zero	8
 2890      00000000 
 2893              	buffer:
 2894 0010 00000000 		.zero	10
 2894      00000000 
 2894      0000
 2895 001a 00000000 		.zero	6
 2895      0000
 2898              	spaceAvailable:
 2899 0020 00000000 		.zero	8
 2899      00000000 
 2902              	tail:
 2903 0028 00000000 		.zero	4
 2904              		.text
 2905              	.Letext0:
 2906              		.file 5 "src/../h/../lib/hw.h"
 2907              		.file 6 "src/../h/Riscv.hpp"
 2908              		.file 7 "src/../h/syscall_c.h"
 2909              		.file 8 "src/../lib/console.h"
 10187              		.align	3
 10190              	DW.ref.__gxx_personality_v0:
 10191 0000 00000000 		.dword	__gxx_personality_v0
 10191      00000000 
 10192              		.ident	"GCC: (Ubuntu 9.3.0-17ubuntu1~20.04) 9.3.0"
 10193              		.section	.note.GNU-stack,"",@progbits
GAS LISTING /tmp/ccf9bp1A.s 			page 76


DEFINED SYMBOLS
                            *ABS*:0000000000000000 Tests.cpp
     /tmp/ccf9bp1A.s:10     .text._ZN6Thread3runEv:0000000000000000 _ZN6Thread3runEv
     /tmp/ccf9bp1A.s:14     .text._ZN6Thread3runEv:0000000000000000 .L0 
     /tmp/ccf9bp1A.s:16     .text._ZN6Thread3runEv:0000000000000000 .L0 
     /tmp/ccf9bp1A.s:17     .text._ZN6Thread3runEv:0000000000000004 .L0 
     /tmp/ccf9bp1A.s:19     .text._ZN6Thread3runEv:0000000000000008 .L0 
     /tmp/ccf9bp1A.s:21     .text._ZN6Thread3runEv:000000000000000c .L0 
     /tmp/ccf9bp1A.s:23     .text._ZN6Thread3runEv:000000000000000c .L0 
     /tmp/ccf9bp1A.s:24     .text._ZN6Thread3runEv:0000000000000010 .L0 
     /tmp/ccf9bp1A.s:25     .text._ZN6Thread3runEv:0000000000000010 .L0 
     /tmp/ccf9bp1A.s:27     .text._ZN6Thread3runEv:0000000000000014 .L0 
     /tmp/ccf9bp1A.s:29     .text._ZN6Thread3runEv:0000000000000018 .L0 
     /tmp/ccf9bp1A.s:36     .text._ZN14PeriodicThread18periodicActivationEv:0000000000000000 _ZN14PeriodicThread18periodicActivationEv
     /tmp/ccf9bp1A.s:39     .text._ZN14PeriodicThread18periodicActivationEv:0000000000000000 .L0 
     /tmp/ccf9bp1A.s:41     .text._ZN14PeriodicThread18periodicActivationEv:0000000000000000 .L0 
     /tmp/ccf9bp1A.s:42     .text._ZN14PeriodicThread18periodicActivationEv:0000000000000004 .L0 
     /tmp/ccf9bp1A.s:44     .text._ZN14PeriodicThread18periodicActivationEv:0000000000000008 .L0 
     /tmp/ccf9bp1A.s:46     .text._ZN14PeriodicThread18periodicActivationEv:000000000000000c .L0 
     /tmp/ccf9bp1A.s:48     .text._ZN14PeriodicThread18periodicActivationEv:000000000000000c .L0 
     /tmp/ccf9bp1A.s:49     .text._ZN14PeriodicThread18periodicActivationEv:0000000000000010 .L0 
     /tmp/ccf9bp1A.s:50     .text._ZN14PeriodicThread18periodicActivationEv:0000000000000010 .L0 
     /tmp/ccf9bp1A.s:52     .text._ZN14PeriodicThread18periodicActivationEv:0000000000000014 .L0 
     /tmp/ccf9bp1A.s:54     .text._ZN14PeriodicThread18periodicActivationEv:0000000000000018 .L0 
     /tmp/ccf9bp1A.s:65     .text:0000000000000000 _Z4idlePv
     /tmp/ccf9bp1A.s:69     .text:0000000000000000 .L0 
     /tmp/ccf9bp1A.s:71     .text:0000000000000000 .L0 
     /tmp/ccf9bp1A.s:72     .text:0000000000000004 .L0 
     /tmp/ccf9bp1A.s:75     .text:000000000000000c .L0 
     /tmp/ccf9bp1A.s:76     .text:000000000000000c .L0 
     /tmp/ccf9bp1A.s:78     .text:0000000000000010 .L0 
     /tmp/ccf9bp1A.s:82     .text:0000000000000010 .L0 
     /tmp/ccf9bp1A.s:83     .text:0000000000000010 .L0 
     /tmp/ccf9bp1A.s:84     .text:0000000000000010 .L0 
     /tmp/ccf9bp1A.s:88     .text:0000000000000020 .L0 
     /tmp/ccf9bp1A.s:89     .text:0000000000000020 .L0 
     /tmp/ccf9bp1A.s:92     .text:0000000000000028 .L0 
     /tmp/ccf9bp1A.s:93     .text:000000000000002c .L0 
     /tmp/ccf9bp1A.s:110    .text:000000000000002c _Z15thread1FunctionPv
     /tmp/ccf9bp1A.s:113    .text:000000000000002c .L0 
     /tmp/ccf9bp1A.s:115    .text:000000000000002c .L0 
     /tmp/ccf9bp1A.s:116    .text:0000000000000030 .L0 
     /tmp/ccf9bp1A.s:120    .text:000000000000003c .L0 
     /tmp/ccf9bp1A.s:121    .text:000000000000003c .L0 
     /tmp/ccf9bp1A.s:122    .text:000000000000003c .L0 
     /tmp/ccf9bp1A.s:124    .text:0000000000000040 .L0 
     /tmp/ccf9bp1A.s:126    .text:0000000000000040 .L0 
     /tmp/ccf9bp1A.s:127    .text:0000000000000040 .L0 
     /tmp/ccf9bp1A.s:132    .text:0000000000000050 .L0 
     /tmp/ccf9bp1A.s:134    .text:0000000000000050 .L0 
     /tmp/ccf9bp1A.s:135    .text:0000000000000050 .L0 
     /tmp/ccf9bp1A.s:140    .text:0000000000000058 .L0 
     /tmp/ccf9bp1A.s:141    .text:0000000000000058 .L0 
     /tmp/ccf9bp1A.s:145    .text:0000000000000060 .L0 
     /tmp/ccf9bp1A.s:146    .text:0000000000000060 .L0 
     /tmp/ccf9bp1A.s:150    .text:0000000000000070 .L0 
     /tmp/ccf9bp1A.s:151    .text:0000000000000070 .L0 
GAS LISTING /tmp/ccf9bp1A.s 			page 77


     /tmp/ccf9bp1A.s:155    .text:000000000000007c .L0 
     /tmp/ccf9bp1A.s:156    .text:000000000000007c .L0 
     /tmp/ccf9bp1A.s:160    .text:000000000000008c .L0 
     /tmp/ccf9bp1A.s:164    .text:0000000000000090 .L0 
     /tmp/ccf9bp1A.s:168    .text:000000000000009c .L0 
     /tmp/ccf9bp1A.s:169    .text:000000000000009c .L0 
     /tmp/ccf9bp1A.s:172    .text:00000000000000a4 .L0 
     /tmp/ccf9bp1A.s:174    .text:00000000000000a8 .L0 
     /tmp/ccf9bp1A.s:179    .text:00000000000000b0 .L0 
     /tmp/ccf9bp1A.s:180    .text:00000000000000b4 .L0 
     /tmp/ccf9bp1A.s:182    .text:00000000000000b8 .L0 
     /tmp/ccf9bp1A.s:183    .text:00000000000000b8 .L0 
     /tmp/ccf9bp1A.s:185    .text:00000000000000bc .L0 
     /tmp/ccf9bp1A.s:188    .text:00000000000000c0 .L0 
     /tmp/ccf9bp1A.s:190    .text:00000000000000c4 .L0 
     /tmp/ccf9bp1A.s:204    .text:00000000000000c4 _Z15thread2FunctionPv
     /tmp/ccf9bp1A.s:207    .text:00000000000000c4 .L0 
     /tmp/ccf9bp1A.s:209    .text:00000000000000c4 .L0 
     /tmp/ccf9bp1A.s:210    .text:00000000000000c8 .L0 
     /tmp/ccf9bp1A.s:214    .text:00000000000000d4 .L0 
     /tmp/ccf9bp1A.s:215    .text:00000000000000d4 .L0 
     /tmp/ccf9bp1A.s:216    .text:00000000000000d4 .L0 
     /tmp/ccf9bp1A.s:218    .text:00000000000000d8 .L0 
     /tmp/ccf9bp1A.s:220    .text:00000000000000d8 .L0 
     /tmp/ccf9bp1A.s:221    .text:00000000000000d8 .L0 
     /tmp/ccf9bp1A.s:226    .text:00000000000000e8 .L0 
     /tmp/ccf9bp1A.s:228    .text:00000000000000e8 .L0 
     /tmp/ccf9bp1A.s:229    .text:00000000000000e8 .L0 
     /tmp/ccf9bp1A.s:234    .text:00000000000000f0 .L0 
     /tmp/ccf9bp1A.s:235    .text:00000000000000f0 .L0 
     /tmp/ccf9bp1A.s:239    .text:00000000000000f8 .L0 
     /tmp/ccf9bp1A.s:240    .text:00000000000000f8 .L0 
     /tmp/ccf9bp1A.s:244    .text:0000000000000108 .L0 
     /tmp/ccf9bp1A.s:245    .text:0000000000000108 .L0 
     /tmp/ccf9bp1A.s:249    .text:0000000000000114 .L0 
     /tmp/ccf9bp1A.s:250    .text:0000000000000114 .L0 
     /tmp/ccf9bp1A.s:254    .text:0000000000000124 .L0 
     /tmp/ccf9bp1A.s:258    .text:0000000000000128 .L0 
     /tmp/ccf9bp1A.s:262    .text:0000000000000134 .L0 
     /tmp/ccf9bp1A.s:263    .text:0000000000000134 .L0 
     /tmp/ccf9bp1A.s:266    .text:000000000000013c .L0 
     /tmp/ccf9bp1A.s:268    .text:0000000000000140 .L0 
     /tmp/ccf9bp1A.s:273    .text:0000000000000148 .L0 
     /tmp/ccf9bp1A.s:274    .text:000000000000014c .L0 
     /tmp/ccf9bp1A.s:276    .text:0000000000000150 .L0 
     /tmp/ccf9bp1A.s:277    .text:0000000000000150 .L0 
     /tmp/ccf9bp1A.s:279    .text:0000000000000154 .L0 
     /tmp/ccf9bp1A.s:282    .text:0000000000000158 .L0 
     /tmp/ccf9bp1A.s:284    .text:000000000000015c .L0 
     /tmp/ccf9bp1A.s:290    .text:000000000000015c _ZN12TestPeriodic18periodicActivationEv
     /tmp/ccf9bp1A.s:293    .text:000000000000015c .L0 
     /tmp/ccf9bp1A.s:295    .text:000000000000015c .L0 
     /tmp/ccf9bp1A.s:296    .text:0000000000000160 .L0 
     /tmp/ccf9bp1A.s:300    .text:000000000000016c .L0 
     /tmp/ccf9bp1A.s:301    .text:000000000000016c .L0 
     /tmp/ccf9bp1A.s:302    .text:000000000000016c .L0 
     /tmp/ccf9bp1A.s:304    .text:0000000000000170 .L0 
GAS LISTING /tmp/ccf9bp1A.s 			page 78


     /tmp/ccf9bp1A.s:308    .text:0000000000000170 .L0 
     /tmp/ccf9bp1A.s:309    .text:0000000000000170 .L0 
     /tmp/ccf9bp1A.s:313    .text:0000000000000174 .L0 
     /tmp/ccf9bp1A.s:317    .text:0000000000000180 .L0 
     /tmp/ccf9bp1A.s:318    .text:0000000000000180 .L0 
     /tmp/ccf9bp1A.s:322    .text:0000000000000190 .L0 
     /tmp/ccf9bp1A.s:323    .text:0000000000000190 .L0 
     /tmp/ccf9bp1A.s:327    .text:000000000000019c .L0 
     /tmp/ccf9bp1A.s:334    .text:00000000000001a4 .L0 
     /tmp/ccf9bp1A.s:335    .text:00000000000001a8 .L0 
     /tmp/ccf9bp1A.s:337    .text:00000000000001ac .L0 
     /tmp/ccf9bp1A.s:338    .text:00000000000001ac .L0 
     /tmp/ccf9bp1A.s:340    .text:00000000000001b0 .L0 
     /tmp/ccf9bp1A.s:343    .text:00000000000001b4 .L0 
     /tmp/ccf9bp1A.s:345    .text:00000000000001b8 .L0 
     /tmp/ccf9bp1A.s:351    .text:00000000000001b8 _Z20thread2FunctionTest2Pv
     /tmp/ccf9bp1A.s:354    .text:00000000000001b8 .L0 
     /tmp/ccf9bp1A.s:356    .text:00000000000001b8 .L0 
     /tmp/ccf9bp1A.s:357    .text:00000000000001bc .L0 
     /tmp/ccf9bp1A.s:361    .text:00000000000001c8 .L0 
     /tmp/ccf9bp1A.s:362    .text:00000000000001c8 .L0 
     /tmp/ccf9bp1A.s:363    .text:00000000000001c8 .L0 
     /tmp/ccf9bp1A.s:365    .text:00000000000001cc .L0 
     /tmp/ccf9bp1A.s:367    .text:00000000000001cc .L0 
     /tmp/ccf9bp1A.s:368    .text:00000000000001cc .L0 
     /tmp/ccf9bp1A.s:373    .text:00000000000001dc .L0 
     /tmp/ccf9bp1A.s:375    .text:00000000000001dc .L0 
     /tmp/ccf9bp1A.s:376    .text:00000000000001dc .L0 
     /tmp/ccf9bp1A.s:381    .text:00000000000001e4 .L0 
     /tmp/ccf9bp1A.s:382    .text:00000000000001e4 .L0 
     /tmp/ccf9bp1A.s:387    .text:00000000000001f0 .L0 
     /tmp/ccf9bp1A.s:388    .text:00000000000001f0 .L0 
     /tmp/ccf9bp1A.s:392    .text:00000000000001f8 .L0 
     /tmp/ccf9bp1A.s:393    .text:00000000000001f8 .L0 
     /tmp/ccf9bp1A.s:397    .text:0000000000000208 .L0 
     /tmp/ccf9bp1A.s:398    .text:0000000000000208 .L0 
     /tmp/ccf9bp1A.s:402    .text:0000000000000214 .L0 
     /tmp/ccf9bp1A.s:403    .text:0000000000000214 .L0 
     /tmp/ccf9bp1A.s:407    .text:0000000000000224 .L0 
     /tmp/ccf9bp1A.s:411    .text:0000000000000228 .L0 
     /tmp/ccf9bp1A.s:415    .text:0000000000000234 .L0 
     /tmp/ccf9bp1A.s:419    .text:000000000000023c .L0 
     /tmp/ccf9bp1A.s:420    .text:000000000000023c .L0 
     /tmp/ccf9bp1A.s:423    .text:0000000000000244 .L0 
     /tmp/ccf9bp1A.s:425    .text:0000000000000248 .L0 
     /tmp/ccf9bp1A.s:430    .text:0000000000000250 .L0 
     /tmp/ccf9bp1A.s:431    .text:0000000000000254 .L0 
     /tmp/ccf9bp1A.s:433    .text:0000000000000258 .L0 
     /tmp/ccf9bp1A.s:434    .text:0000000000000258 .L0 
     /tmp/ccf9bp1A.s:436    .text:000000000000025c .L0 
     /tmp/ccf9bp1A.s:439    .text:0000000000000260 .L0 
     /tmp/ccf9bp1A.s:441    .text:0000000000000264 .L0 
     /tmp/ccf9bp1A.s:447    .text:0000000000000264 _Z9consumerAPv
     /tmp/ccf9bp1A.s:450    .text:0000000000000264 .L0 
     /tmp/ccf9bp1A.s:452    .text:0000000000000264 .L0 
     /tmp/ccf9bp1A.s:453    .text:0000000000000264 .L0 
     /tmp/ccf9bp1A.s:454    .text:0000000000000264 .L0 
GAS LISTING /tmp/ccf9bp1A.s 			page 79


     /tmp/ccf9bp1A.s:458    .text:0000000000000274 .L0 
     /tmp/ccf9bp1A.s:459    .text:0000000000000278 .L0 
     /tmp/ccf9bp1A.s:463    .text:0000000000000284 .L0 
     /tmp/ccf9bp1A.s:464    .text:0000000000000284 .L0 
     /tmp/ccf9bp1A.s:465    .text:0000000000000284 .L0 
     /tmp/ccf9bp1A.s:467    .text:0000000000000288 .L0 
     /tmp/ccf9bp1A.s:471    .text:0000000000000288 .L0 
     /tmp/ccf9bp1A.s:472    .text:0000000000000288 .L0 
     /tmp/ccf9bp1A.s:477    .text:000000000000029c .L0 
     /tmp/ccf9bp1A.s:478    .text:000000000000029c .L0 
     /tmp/ccf9bp1A.s:482    .text:00000000000002a8 .L0 
     /tmp/ccf9bp1A.s:487    .text:00000000000002b8 .L0 
     /tmp/ccf9bp1A.s:488    .text:00000000000002b8 .L0 
     /tmp/ccf9bp1A.s:492    .text:00000000000002c4 .L0 
     /tmp/ccf9bp1A.s:493    .text:00000000000002c4 .L0 
     /tmp/ccf9bp1A.s:497    .text:00000000000002d4 .L0 
     /tmp/ccf9bp1A.s:498    .text:00000000000002d8 .L0 
     /tmp/ccf9bp1A.s:500    .text:00000000000002dc .L0 
     /tmp/ccf9bp1A.s:501    .text:00000000000002dc .L0 
     /tmp/ccf9bp1A.s:503    .text:00000000000002e0 .L0 
     /tmp/ccf9bp1A.s:505    .text:00000000000002e4 .L0 
     /tmp/ccf9bp1A.s:510    .text:00000000000002ec .L0 
     /tmp/ccf9bp1A.s:516    .text:00000000000002ec _Z9producerAPv
     /tmp/ccf9bp1A.s:519    .text:00000000000002ec .L0 
     /tmp/ccf9bp1A.s:521    .text:00000000000002ec .L0 
     /tmp/ccf9bp1A.s:522    .text:00000000000002ec .L0 
     /tmp/ccf9bp1A.s:523    .text:00000000000002ec .L0 
     /tmp/ccf9bp1A.s:527    .text:00000000000002fc .L0 
     /tmp/ccf9bp1A.s:528    .text:0000000000000300 .L0 
     /tmp/ccf9bp1A.s:532    .text:000000000000030c .L0 
     /tmp/ccf9bp1A.s:533    .text:000000000000030c .L0 
     /tmp/ccf9bp1A.s:534    .text:000000000000030c .L0 
     /tmp/ccf9bp1A.s:536    .text:0000000000000310 .L0 
     /tmp/ccf9bp1A.s:540    .text:0000000000000310 .L0 
     /tmp/ccf9bp1A.s:541    .text:0000000000000310 .L0 
     /tmp/ccf9bp1A.s:546    .text:0000000000000324 .L0 
     /tmp/ccf9bp1A.s:547    .text:0000000000000324 .L0 
     /tmp/ccf9bp1A.s:552    .text:0000000000000338 .L0 
     /tmp/ccf9bp1A.s:555    .text:0000000000000340 .L0 
     /tmp/ccf9bp1A.s:556    .text:0000000000000340 .L0 
     /tmp/ccf9bp1A.s:559    .text:0000000000000348 .L0 
     /tmp/ccf9bp1A.s:560    .text:0000000000000348 .L0 
     /tmp/ccf9bp1A.s:564    .text:0000000000000354 .L0 
     /tmp/ccf9bp1A.s:565    .text:0000000000000354 .L0 
     /tmp/ccf9bp1A.s:569    .text:0000000000000364 .L0 
     /tmp/ccf9bp1A.s:570    .text:0000000000000368 .L0 
     /tmp/ccf9bp1A.s:572    .text:000000000000036c .L0 
     /tmp/ccf9bp1A.s:573    .text:000000000000036c .L0 
     /tmp/ccf9bp1A.s:575    .text:0000000000000370 .L0 
     /tmp/ccf9bp1A.s:577    .text:0000000000000374 .L0 
     /tmp/ccf9bp1A.s:582    .text:000000000000037c .L0 
     /tmp/ccf9bp1A.s:589    .text._ZN14PeriodicThreadD2Ev:0000000000000000 _ZN14PeriodicThreadD2Ev
     /tmp/ccf9bp1A.s:592    .text._ZN14PeriodicThreadD2Ev:0000000000000000 .L0 
     /tmp/ccf9bp1A.s:594    .text._ZN14PeriodicThreadD2Ev:0000000000000000 .L0 
     /tmp/ccf9bp1A.s:595    .text._ZN14PeriodicThreadD2Ev:0000000000000004 .L0 
     /tmp/ccf9bp1A.s:598    .text._ZN14PeriodicThreadD2Ev:000000000000000c .L0 
     /tmp/ccf9bp1A.s:599    .text._ZN14PeriodicThreadD2Ev:000000000000000c .L0 
GAS LISTING /tmp/ccf9bp1A.s 			page 80


     /tmp/ccf9bp1A.s:601    .text._ZN14PeriodicThreadD2Ev:0000000000000010 .L0 
     /tmp/ccf9bp1A.s:2847   .data.rel.ro.local._ZTV14PeriodicThread:0000000000000000 _ZTV14PeriodicThread
     /tmp/ccf9bp1A.s:604    .text._ZN14PeriodicThreadD2Ev:0000000000000010 .L0 
     /tmp/ccf9bp1A.s:610    .text._ZN14PeriodicThreadD2Ev:0000000000000028 .L0 
     /tmp/ccf9bp1A.s:612    .text._ZN14PeriodicThreadD2Ev:000000000000002c .L0 
     /tmp/ccf9bp1A.s:613    .text._ZN14PeriodicThreadD2Ev:000000000000002c .L0 
     /tmp/ccf9bp1A.s:615    .text._ZN14PeriodicThreadD2Ev:0000000000000030 .L0 
     /tmp/ccf9bp1A.s:617    .text._ZN14PeriodicThreadD2Ev:0000000000000034 .L0 
     /tmp/ccf9bp1A.s:589    .text._ZN14PeriodicThreadD2Ev:0000000000000000 _ZN14PeriodicThreadD1Ev
     /tmp/ccf9bp1A.s:626    .text._ZN14PeriodicThreadD0Ev:0000000000000000 _ZN14PeriodicThreadD0Ev
     /tmp/ccf9bp1A.s:629    .text._ZN14PeriodicThreadD0Ev:0000000000000000 .L0 
     /tmp/ccf9bp1A.s:631    .text._ZN14PeriodicThreadD0Ev:0000000000000000 .L0 
     /tmp/ccf9bp1A.s:632    .text._ZN14PeriodicThreadD0Ev:0000000000000004 .L0 
     /tmp/ccf9bp1A.s:636    .text._ZN14PeriodicThreadD0Ev:0000000000000010 .L0 
     /tmp/ccf9bp1A.s:637    .text._ZN14PeriodicThreadD0Ev:0000000000000010 .L0 
     /tmp/ccf9bp1A.s:638    .text._ZN14PeriodicThreadD0Ev:0000000000000010 .L0 
     /tmp/ccf9bp1A.s:640    .text._ZN14PeriodicThreadD0Ev:0000000000000014 .L0 
     /tmp/ccf9bp1A.s:646    .text._ZN14PeriodicThreadD0Ev:0000000000000018 .L0 
     /tmp/ccf9bp1A.s:656    .text._ZN14PeriodicThreadD0Ev:000000000000003c .L0 
     /tmp/ccf9bp1A.s:658    .text._ZN14PeriodicThreadD0Ev:0000000000000040 .L0 
     /tmp/ccf9bp1A.s:659    .text._ZN14PeriodicThreadD0Ev:0000000000000040 .L0 
     /tmp/ccf9bp1A.s:661    .text._ZN14PeriodicThreadD0Ev:0000000000000044 .L0 
     /tmp/ccf9bp1A.s:664    .text._ZN14PeriodicThreadD0Ev:0000000000000048 .L0 
     /tmp/ccf9bp1A.s:666    .text._ZN14PeriodicThreadD0Ev:000000000000004c .L0 
     /tmp/ccf9bp1A.s:673    .text._ZN12TestPeriodicD2Ev:0000000000000000 _ZN12TestPeriodicD2Ev
     /tmp/ccf9bp1A.s:677    .text._ZN12TestPeriodicD2Ev:0000000000000000 .L0 
     /tmp/ccf9bp1A.s:679    .text._ZN12TestPeriodicD2Ev:0000000000000000 .L0 
     /tmp/ccf9bp1A.s:680    .text._ZN12TestPeriodicD2Ev:0000000000000004 .L0 
     /tmp/ccf9bp1A.s:683    .text._ZN12TestPeriodicD2Ev:000000000000000c .L0 
     /tmp/ccf9bp1A.s:684    .text._ZN12TestPeriodicD2Ev:000000000000000c .L0 
     /tmp/ccf9bp1A.s:686    .text._ZN12TestPeriodicD2Ev:0000000000000010 .L0 
     /tmp/ccf9bp1A.s:691    .text._ZN12TestPeriodicD2Ev:0000000000000010 .L0 
     /tmp/ccf9bp1A.s:698    .text._ZN12TestPeriodicD2Ev:0000000000000024 .L0 
     /tmp/ccf9bp1A.s:699    .text._ZN12TestPeriodicD2Ev:0000000000000028 .L0 
     /tmp/ccf9bp1A.s:701    .text._ZN12TestPeriodicD2Ev:000000000000002c .L0 
     /tmp/ccf9bp1A.s:702    .text._ZN12TestPeriodicD2Ev:000000000000002c .L0 
     /tmp/ccf9bp1A.s:704    .text._ZN12TestPeriodicD2Ev:0000000000000030 .L0 
     /tmp/ccf9bp1A.s:706    .text._ZN12TestPeriodicD2Ev:0000000000000034 .L0 
     /tmp/ccf9bp1A.s:673    .text._ZN12TestPeriodicD2Ev:0000000000000000 _ZN12TestPeriodicD1Ev
     /tmp/ccf9bp1A.s:715    .text._ZN12TestPeriodicD0Ev:0000000000000000 _ZN12TestPeriodicD0Ev
     /tmp/ccf9bp1A.s:718    .text._ZN12TestPeriodicD0Ev:0000000000000000 .L0 
     /tmp/ccf9bp1A.s:720    .text._ZN12TestPeriodicD0Ev:0000000000000000 .L0 
     /tmp/ccf9bp1A.s:721    .text._ZN12TestPeriodicD0Ev:0000000000000004 .L0 
     /tmp/ccf9bp1A.s:725    .text._ZN12TestPeriodicD0Ev:0000000000000010 .L0 
     /tmp/ccf9bp1A.s:726    .text._ZN12TestPeriodicD0Ev:0000000000000010 .L0 
     /tmp/ccf9bp1A.s:727    .text._ZN12TestPeriodicD0Ev:0000000000000010 .L0 
     /tmp/ccf9bp1A.s:729    .text._ZN12TestPeriodicD0Ev:0000000000000014 .L0 
     /tmp/ccf9bp1A.s:736    .text._ZN12TestPeriodicD0Ev:0000000000000018 .L0 
     /tmp/ccf9bp1A.s:744    .text._ZN12TestPeriodicD0Ev:000000000000002c .L0 
     /tmp/ccf9bp1A.s:748    .text._ZN12TestPeriodicD0Ev:000000000000003c .L0 
     /tmp/ccf9bp1A.s:750    .text._ZN12TestPeriodicD0Ev:0000000000000040 .L0 
     /tmp/ccf9bp1A.s:751    .text._ZN12TestPeriodicD0Ev:0000000000000040 .L0 
     /tmp/ccf9bp1A.s:753    .text._ZN12TestPeriodicD0Ev:0000000000000044 .L0 
     /tmp/ccf9bp1A.s:756    .text._ZN12TestPeriodicD0Ev:0000000000000048 .L0 
     /tmp/ccf9bp1A.s:758    .text._ZN12TestPeriodicD0Ev:000000000000004c .L0 
     /tmp/ccf9bp1A.s:772    .text:000000000000037c _Z11threadTest1v
     /tmp/ccf9bp1A.s:775    .text:000000000000037c .L0 
GAS LISTING /tmp/ccf9bp1A.s 			page 81


     /tmp/ccf9bp1A.s:10190  .data.rel.local.DW.ref.__gxx_personality_v0:0000000000000000 DW.ref.__gxx_personality_v0
     /tmp/ccf9bp1A.s:778    .text:000000000000037c .L0 
     /tmp/ccf9bp1A.s:779    .text:0000000000000380 .L0 
     /tmp/ccf9bp1A.s:784    .text:0000000000000390 .L0 
     /tmp/ccf9bp1A.s:785    .text:0000000000000390 .L0 
     /tmp/ccf9bp1A.s:786    .text:0000000000000390 .L0 
     /tmp/ccf9bp1A.s:787    .text:0000000000000390 .L0 
     /tmp/ccf9bp1A.s:789    .text:0000000000000394 .L0 
     /tmp/ccf9bp1A.s:791    .text:0000000000000394 .L0 
     /tmp/ccf9bp1A.s:792    .text:0000000000000394 .L0 
     /tmp/ccf9bp1A.s:805    .text:00000000000003b8 .L0 
     /tmp/ccf9bp1A.s:806    .text:00000000000003b8 .L0 
     /tmp/ccf9bp1A.s:811    .text:00000000000003c4 .L0 
     /tmp/ccf9bp1A.s:812    .text:00000000000003c4 .L0 
     /tmp/ccf9bp1A.s:824    .text:00000000000003e8 .L0 
     /tmp/ccf9bp1A.s:825    .text:00000000000003e8 .L0 
     /tmp/ccf9bp1A.s:830    .text:00000000000003f4 .L0 
     /tmp/ccf9bp1A.s:831    .text:00000000000003f4 .L0 
     /tmp/ccf9bp1A.s:836    .text:0000000000000400 .L0 
     /tmp/ccf9bp1A.s:837    .text:0000000000000400 .L0 
     /tmp/ccf9bp1A.s:841    .text:0000000000000410 .L0 
     /tmp/ccf9bp1A.s:842    .text:0000000000000410 .L0 
     /tmp/ccf9bp1A.s:846    .text:0000000000000418 .L0 
     /tmp/ccf9bp1A.s:847    .text:0000000000000418 .L0 
     /tmp/ccf9bp1A.s:848    .text:0000000000000418 .L0 
     /tmp/ccf9bp1A.s:854    .text:000000000000041c .L0 
     /tmp/ccf9bp1A.s:855    .text:000000000000041c .L0 
     /tmp/ccf9bp1A.s:860    .text:0000000000000420 .L0 
     /tmp/ccf9bp1A.s:863    .text:0000000000000428 .L0 
     /tmp/ccf9bp1A.s:868    .text:000000000000042c .L0 
     /tmp/ccf9bp1A.s:869    .text:000000000000042c .L0 
     /tmp/ccf9bp1A.s:874    .text:0000000000000430 .L0 
     /tmp/ccf9bp1A.s:877    .text:0000000000000438 .L0 
     /tmp/ccf9bp1A.s:878    .text:0000000000000438 .L0 
     /tmp/ccf9bp1A.s:882    .text:0000000000000448 .L0 
     /tmp/ccf9bp1A.s:883    .text:0000000000000448 .L0 
     /tmp/ccf9bp1A.s:887    .text:0000000000000450 .L0 
     /tmp/ccf9bp1A.s:888    .text:0000000000000454 .L0 
     /tmp/ccf9bp1A.s:889    .text:0000000000000454 .L0 
     /tmp/ccf9bp1A.s:891    .text:0000000000000458 .L0 
     /tmp/ccf9bp1A.s:892    .text:0000000000000458 .L0 
     /tmp/ccf9bp1A.s:894    .text:000000000000045c .L0 
     /tmp/ccf9bp1A.s:897    .text:0000000000000460 .L0 
     /tmp/ccf9bp1A.s:900    .text:0000000000000464 .L0 
     /tmp/ccf9bp1A.s:903    .text:0000000000000468 .L0 
     /tmp/ccf9bp1A.s:906    .text:000000000000046c .L0 
     /tmp/ccf9bp1A.s:918    .text:0000000000000488 .L0 
     /tmp/ccf9bp1A.s:926    .text:00000000000004a0 .L0 
     /tmp/ccf9bp1A.s:968    .text:00000000000004a0 _Z11threadTest2v
     /tmp/ccf9bp1A.s:971    .text:00000000000004a0 .L0 
     /tmp/ccf9bp1A.s:974    .text:00000000000004a0 .L0 
     /tmp/ccf9bp1A.s:975    .text:00000000000004a4 .L0 
     /tmp/ccf9bp1A.s:980    .text:00000000000004b4 .L0 
     /tmp/ccf9bp1A.s:981    .text:00000000000004b4 .L0 
     /tmp/ccf9bp1A.s:982    .text:00000000000004b4 .L0 
     /tmp/ccf9bp1A.s:983    .text:00000000000004b4 .L0 
     /tmp/ccf9bp1A.s:985    .text:00000000000004b8 .L0 
GAS LISTING /tmp/ccf9bp1A.s 			page 82


     /tmp/ccf9bp1A.s:987    .text:00000000000004b8 .L0 
     /tmp/ccf9bp1A.s:988    .text:00000000000004b8 .L0 
     /tmp/ccf9bp1A.s:1001   .text:00000000000004dc .L0 
     /tmp/ccf9bp1A.s:1002   .text:00000000000004dc .L0 
     /tmp/ccf9bp1A.s:1007   .text:00000000000004e8 .L0 
     /tmp/ccf9bp1A.s:1008   .text:00000000000004e8 .L0 
     /tmp/ccf9bp1A.s:1020   .text:000000000000050c .L0 
     /tmp/ccf9bp1A.s:1021   .text:000000000000050c .L0 
     /tmp/ccf9bp1A.s:1026   .text:0000000000000518 .L0 
     /tmp/ccf9bp1A.s:1027   .text:0000000000000518 .L0 
     /tmp/ccf9bp1A.s:1040   .text:000000000000053c .L0 
     /tmp/ccf9bp1A.s:1041   .text:000000000000053c .L0 
     /tmp/ccf9bp1A.s:1046   .text:0000000000000548 .L0 
     /tmp/ccf9bp1A.s:1047   .text:0000000000000548 .L0 
     /tmp/ccf9bp1A.s:1051   .text:0000000000000550 .L0 
     /tmp/ccf9bp1A.s:1052   .text:0000000000000550 .L0 
     /tmp/ccf9bp1A.s:1053   .text:0000000000000550 .L0 
     /tmp/ccf9bp1A.s:1058   .text:0000000000000554 .L0 
     /tmp/ccf9bp1A.s:1059   .text:0000000000000554 .L0 
     /tmp/ccf9bp1A.s:1064   .text:0000000000000558 .L0 
     /tmp/ccf9bp1A.s:1067   .text:0000000000000560 .L0 
     /tmp/ccf9bp1A.s:1068   .text:0000000000000560 .L0 
     /tmp/ccf9bp1A.s:1072   .text:0000000000000570 .L0 
     /tmp/ccf9bp1A.s:1073   .text:0000000000000570 .L0 
     /tmp/ccf9bp1A.s:1077   .text:0000000000000578 .L0 
     /tmp/ccf9bp1A.s:1078   .text:000000000000057c .L0 
     /tmp/ccf9bp1A.s:1079   .text:000000000000057c .L0 
     /tmp/ccf9bp1A.s:1081   .text:0000000000000580 .L0 
     /tmp/ccf9bp1A.s:1082   .text:0000000000000580 .L0 
     /tmp/ccf9bp1A.s:1084   .text:0000000000000584 .L0 
     /tmp/ccf9bp1A.s:1087   .text:0000000000000588 .L0 
     /tmp/ccf9bp1A.s:1090   .text:000000000000058c .L0 
     /tmp/ccf9bp1A.s:1093   .text:0000000000000590 .L0 
     /tmp/ccf9bp1A.s:1096   .text:0000000000000594 .L0 
     /tmp/ccf9bp1A.s:1108   .text:00000000000005b0 .L0 
     /tmp/ccf9bp1A.s:1120   .text:00000000000005cc .L0 
     /tmp/ccf9bp1A.s:1128   .text:00000000000005e4 .L0 
     /tmp/ccf9bp1A.s:1181   .text:00000000000005e4 _Z11threadTestsv
     /tmp/ccf9bp1A.s:1184   .text:00000000000005e4 .L0 
     /tmp/ccf9bp1A.s:1185   .text:00000000000005e4 .L0 
     /tmp/ccf9bp1A.s:1186   .text:00000000000005e8 .L0 
     /tmp/ccf9bp1A.s:1188   .text:00000000000005ec .L0 
     /tmp/ccf9bp1A.s:1190   .text:00000000000005f0 .L0 
     /tmp/ccf9bp1A.s:1192   .text:00000000000005f0 .L0 
     /tmp/ccf9bp1A.s:1193   .text:00000000000005f4 .L0 
     /tmp/ccf9bp1A.s:1194   .text:00000000000005f4 .L0 
     /tmp/ccf9bp1A.s:1196   .text:00000000000005f8 .L0 
     /tmp/ccf9bp1A.s:1198   .text:00000000000005fc .L0 
     /tmp/ccf9bp1A.s:1215   .text:00000000000005fc _Z10mallocFreev
     /tmp/ccf9bp1A.s:1218   .text:00000000000005fc .L0 
     /tmp/ccf9bp1A.s:1219   .text:00000000000005fc .L0 
     /tmp/ccf9bp1A.s:1220   .text:0000000000000600 .L0 
     /tmp/ccf9bp1A.s:1224   .text:000000000000060c .L0 
     /tmp/ccf9bp1A.s:1225   .text:000000000000060c .L0 
     /tmp/ccf9bp1A.s:1226   .text:000000000000060c .L0 
     /tmp/ccf9bp1A.s:1228   .text:0000000000000610 .L0 
     /tmp/ccf9bp1A.s:1230   .text:0000000000000610 .L0 
GAS LISTING /tmp/ccf9bp1A.s 			page 83


     /tmp/ccf9bp1A.s:1231   .text:0000000000000610 .L0 
     /tmp/ccf9bp1A.s:1236   .text:0000000000000620 .L0 
     /tmp/ccf9bp1A.s:1241   .text:0000000000000628 .L0 
     /tmp/ccf9bp1A.s:1245   .text:000000000000062c .L0 
     /tmp/ccf9bp1A.s:1248   .text:0000000000000634 .L0 
     /tmp/ccf9bp1A.s:1249   .text:0000000000000634 .L0 
     /tmp/ccf9bp1A.s:1253   .text:0000000000000640 .L0 
     /tmp/ccf9bp1A.s:1258   .text:0000000000000650 .L0 
     /tmp/ccf9bp1A.s:1260   .text:0000000000000654 .L0 
     /tmp/ccf9bp1A.s:1261   .text:0000000000000654 .L0 
     /tmp/ccf9bp1A.s:1267   .text:0000000000000664 .L0 
     /tmp/ccf9bp1A.s:1268   .text:0000000000000664 .L0 
     /tmp/ccf9bp1A.s:1269   .text:0000000000000668 .L0 
     /tmp/ccf9bp1A.s:1270   .text:0000000000000668 .L0 
     /tmp/ccf9bp1A.s:1272   .text:000000000000066c .L0 
     /tmp/ccf9bp1A.s:1273   .text:000000000000066c .L0 
     /tmp/ccf9bp1A.s:1275   .text:0000000000000670 .L0 
     /tmp/ccf9bp1A.s:1277   .text:0000000000000674 .L0 
     /tmp/ccf9bp1A.s:1281   .text:0000000000000678 .L0 
     /tmp/ccf9bp1A.s:1284   .text:0000000000000678 .L0 
     /tmp/ccf9bp1A.s:1288   .text:000000000000067c .L0 
     /tmp/ccf9bp1A.s:1292   .text:0000000000000684 .L0 
     /tmp/ccf9bp1A.s:1293   .text:0000000000000684 .L0 
     /tmp/ccf9bp1A.s:1300   .text:000000000000069c .L0 
     /tmp/ccf9bp1A.s:1303   .text:00000000000006a0 .L0 
     /tmp/ccf9bp1A.s:1304   .text:00000000000006a0 .L0 
     /tmp/ccf9bp1A.s:1307   .text:00000000000006a4 .L0 
     /tmp/ccf9bp1A.s:1312   .text:00000000000006a8 .L0 
     /tmp/ccf9bp1A.s:1313   .text:00000000000006a8 .L0 
     /tmp/ccf9bp1A.s:1318   .text:00000000000006b8 .L0 
     /tmp/ccf9bp1A.s:1324   .text:00000000000006bc .L0 
     /tmp/ccf9bp1A.s:1330   .text:00000000000006c4 .L0 
     /tmp/ccf9bp1A.s:1331   .text:00000000000006c4 .L0 
     /tmp/ccf9bp1A.s:1335   .text:00000000000006c8 .L0 
     /tmp/ccf9bp1A.s:1338   .text:00000000000006d0 .L0 
     /tmp/ccf9bp1A.s:1339   .text:00000000000006d0 .L0 
     /tmp/ccf9bp1A.s:1343   .text:00000000000006dc .L0 
     /tmp/ccf9bp1A.s:1348   .text:00000000000006ec .L0 
     /tmp/ccf9bp1A.s:1350   .text:00000000000006f0 .L0 
     /tmp/ccf9bp1A.s:1351   .text:00000000000006f0 .L0 
     /tmp/ccf9bp1A.s:1355   .text:0000000000000700 .L0 
     /tmp/ccf9bp1A.s:1360   .text:0000000000000704 .L0 
     /tmp/ccf9bp1A.s:1364   .text:0000000000000708 .L0 
     /tmp/ccf9bp1A.s:1368   .text:0000000000000710 .L0 
     /tmp/ccf9bp1A.s:1369   .text:0000000000000710 .L0 
     /tmp/ccf9bp1A.s:1376   .text:0000000000000728 .L0 
     /tmp/ccf9bp1A.s:1379   .text:000000000000072c .L0 
     /tmp/ccf9bp1A.s:1386   .text:0000000000000734 .L0 
     /tmp/ccf9bp1A.s:1387   .text:0000000000000734 .L0 
     /tmp/ccf9bp1A.s:1392   .text:0000000000000744 .L0 
     /tmp/ccf9bp1A.s:1397   .text:0000000000000748 .L0 
     /tmp/ccf9bp1A.s:1398   .text:0000000000000748 .L0 
     /tmp/ccf9bp1A.s:1402   .text:000000000000075c .L0 
     /tmp/ccf9bp1A.s:1413   .text:000000000000075c _Z9bigMallocv
     /tmp/ccf9bp1A.s:1416   .text:000000000000075c .L0 
     /tmp/ccf9bp1A.s:1417   .text:000000000000075c .L0 
     /tmp/ccf9bp1A.s:1418   .text:0000000000000760 .L0 
GAS LISTING /tmp/ccf9bp1A.s 			page 84


     /tmp/ccf9bp1A.s:1421   .text:0000000000000768 .L0 
     /tmp/ccf9bp1A.s:1422   .text:0000000000000768 .L0 
     /tmp/ccf9bp1A.s:1424   .text:000000000000076c .L0 
     /tmp/ccf9bp1A.s:1426   .text:000000000000076c .L0 
     /tmp/ccf9bp1A.s:1427   .text:000000000000076c .L0 
     /tmp/ccf9bp1A.s:1431   .text:000000000000077c .L0 
     /tmp/ccf9bp1A.s:1432   .text:000000000000077c .L0 
     /tmp/ccf9bp1A.s:1439   .text:0000000000000798 .L0 
     /tmp/ccf9bp1A.s:1440   .text:0000000000000798 .L0 
     /tmp/ccf9bp1A.s:1445   .text:00000000000007a4 .L0 
     /tmp/ccf9bp1A.s:1447   .text:00000000000007a8 .L0 
     /tmp/ccf9bp1A.s:1448   .text:00000000000007a8 .L0 
     /tmp/ccf9bp1A.s:1454   .text:00000000000007b8 .L0 
     /tmp/ccf9bp1A.s:1455   .text:00000000000007bc .L0 
     /tmp/ccf9bp1A.s:1456   .text:00000000000007bc .L0 
     /tmp/ccf9bp1A.s:1458   .text:00000000000007c0 .L0 
     /tmp/ccf9bp1A.s:1459   .text:00000000000007c0 .L0 
     /tmp/ccf9bp1A.s:1461   .text:00000000000007c4 .L0 
     /tmp/ccf9bp1A.s:1465   .text:00000000000007c8 .L0 
     /tmp/ccf9bp1A.s:1467   .text:00000000000007c8 .L0 
     /tmp/ccf9bp1A.s:1468   .text:00000000000007c8 .L0 
     /tmp/ccf9bp1A.s:1473   .text:00000000000007dc .L0 
     /tmp/ccf9bp1A.s:1484   .text:00000000000007dc _Z17lotOfSmallMallocsv
     /tmp/ccf9bp1A.s:1487   .text:00000000000007dc .L0 
     /tmp/ccf9bp1A.s:1488   .text:00000000000007dc .L0 
     /tmp/ccf9bp1A.s:1489   .text:00000000000007e0 .L0 
     /tmp/ccf9bp1A.s:1495   .text:00000000000007f4 .L0 
     /tmp/ccf9bp1A.s:1496   .text:00000000000007f4 .L0 
     /tmp/ccf9bp1A.s:1497   .text:00000000000007f4 .L0 
     /tmp/ccf9bp1A.s:1498   .text:00000000000007f4 .L0 
     /tmp/ccf9bp1A.s:1499   .text:00000000000007f4 .L0 
     /tmp/ccf9bp1A.s:1501   .text:00000000000007f8 .L0 
     /tmp/ccf9bp1A.s:1503   .text:00000000000007f8 .L0 
     /tmp/ccf9bp1A.s:1504   .text:00000000000007f8 .L0 
     /tmp/ccf9bp1A.s:1508   .text:0000000000000808 .L0 
     /tmp/ccf9bp1A.s:1509   .text:0000000000000808 .L0 
     /tmp/ccf9bp1A.s:1510   .text:0000000000000808 .L0 
     /tmp/ccf9bp1A.s:1511   .text:0000000000000808 .L0 
     /tmp/ccf9bp1A.s:1513   .text:0000000000000808 .L0 
     /tmp/ccf9bp1A.s:1514   .text:0000000000000808 .L0 
     /tmp/ccf9bp1A.s:1517   .text:000000000000080c .L0 
     /tmp/ccf9bp1A.s:1519   .text:0000000000000810 .L0 
     /tmp/ccf9bp1A.s:1526   .text:0000000000000818 .L0 
     /tmp/ccf9bp1A.s:1527   .text:0000000000000818 .L0 
     /tmp/ccf9bp1A.s:1530   .text:0000000000000820 .L0 
     /tmp/ccf9bp1A.s:1531   .text:0000000000000820 .L0 
     /tmp/ccf9bp1A.s:1534   .text:0000000000000824 .L0 
     /tmp/ccf9bp1A.s:1535   .text:0000000000000824 .L0 
     /tmp/ccf9bp1A.s:1539   .text:0000000000000828 .L0 
     /tmp/ccf9bp1A.s:1543   .text:000000000000082c .L0 
     /tmp/ccf9bp1A.s:1548   .text:0000000000000838 .L0 
     /tmp/ccf9bp1A.s:1549   .text:0000000000000838 .L0 
     /tmp/ccf9bp1A.s:1553   .text:0000000000000844 .L0 
     /tmp/ccf9bp1A.s:1559   .text:0000000000000848 .L0 
     /tmp/ccf9bp1A.s:1560   .text:0000000000000848 .L0 
     /tmp/ccf9bp1A.s:1564   .text:0000000000000854 .L0 
     /tmp/ccf9bp1A.s:1565   .text:0000000000000854 .L0 
GAS LISTING /tmp/ccf9bp1A.s 			page 85


     /tmp/ccf9bp1A.s:1569   .text:0000000000000864 .L0 
     /tmp/ccf9bp1A.s:1570   .text:0000000000000864 .L0 
     /tmp/ccf9bp1A.s:1575   .text:0000000000000870 .L0 
     /tmp/ccf9bp1A.s:1577   .text:0000000000000874 .L0 
     /tmp/ccf9bp1A.s:1578   .text:0000000000000874 .L0 
     /tmp/ccf9bp1A.s:1583   .text:0000000000000884 .L0 
     /tmp/ccf9bp1A.s:1584   .text:0000000000000888 .L0 
     /tmp/ccf9bp1A.s:1585   .text:0000000000000888 .L0 
     /tmp/ccf9bp1A.s:1587   .text:000000000000088c .L0 
     /tmp/ccf9bp1A.s:1588   .text:000000000000088c .L0 
     /tmp/ccf9bp1A.s:1590   .text:0000000000000890 .L0 
     /tmp/ccf9bp1A.s:1593   .text:0000000000000894 .L0 
     /tmp/ccf9bp1A.s:1595   .text:0000000000000898 .L0 
     /tmp/ccf9bp1A.s:1598   .text:000000000000089c .L0 
     /tmp/ccf9bp1A.s:1602   .text:00000000000008a0 .L0 
     /tmp/ccf9bp1A.s:1604   .text:00000000000008a0 .L0 
     /tmp/ccf9bp1A.s:1605   .text:00000000000008a0 .L0 
     /tmp/ccf9bp1A.s:1609   .text:00000000000008b4 .L0 
     /tmp/ccf9bp1A.s:1620   .text:00000000000008b4 _Z7badFreev
     /tmp/ccf9bp1A.s:1623   .text:00000000000008b4 .L0 
     /tmp/ccf9bp1A.s:1624   .text:00000000000008b4 .L0 
     /tmp/ccf9bp1A.s:1625   .text:00000000000008b8 .L0 
     /tmp/ccf9bp1A.s:1628   .text:00000000000008c0 .L0 
     /tmp/ccf9bp1A.s:1629   .text:00000000000008c0 .L0 
     /tmp/ccf9bp1A.s:1631   .text:00000000000008c4 .L0 
     /tmp/ccf9bp1A.s:1633   .text:00000000000008c4 .L0 
     /tmp/ccf9bp1A.s:1634   .text:00000000000008c4 .L0 
     /tmp/ccf9bp1A.s:1638   .text:00000000000008d4 .L0 
     /tmp/ccf9bp1A.s:1639   .text:00000000000008d4 .L0 
     /tmp/ccf9bp1A.s:1643   .text:00000000000008e0 .L0 
     /tmp/ccf9bp1A.s:1644   .text:00000000000008e0 .L0 
     /tmp/ccf9bp1A.s:1649   .text:00000000000008ec .L0 
     /tmp/ccf9bp1A.s:1651   .text:00000000000008f0 .L0 
     /tmp/ccf9bp1A.s:1652   .text:00000000000008f0 .L0 
     /tmp/ccf9bp1A.s:1658   .text:0000000000000900 .L0 
     /tmp/ccf9bp1A.s:1659   .text:0000000000000904 .L0 
     /tmp/ccf9bp1A.s:1660   .text:0000000000000904 .L0 
     /tmp/ccf9bp1A.s:1662   .text:0000000000000908 .L0 
     /tmp/ccf9bp1A.s:1663   .text:0000000000000908 .L0 
     /tmp/ccf9bp1A.s:1665   .text:000000000000090c .L0 
     /tmp/ccf9bp1A.s:1669   .text:0000000000000910 .L0 
     /tmp/ccf9bp1A.s:1671   .text:0000000000000910 .L0 
     /tmp/ccf9bp1A.s:1672   .text:0000000000000910 .L0 
     /tmp/ccf9bp1A.s:1677   .text:0000000000000920 .L0 
     /tmp/ccf9bp1A.s:1678   .text:0000000000000924 .L0 
     /tmp/ccf9bp1A.s:1692   .text:0000000000000924 _Z13stressTestingv
     /tmp/ccf9bp1A.s:1695   .text:0000000000000924 .L0 
     /tmp/ccf9bp1A.s:1696   .text:0000000000000924 .L0 
     /tmp/ccf9bp1A.s:1697   .text:0000000000000928 .L0 
     /tmp/ccf9bp1A.s:1702   .text:0000000000000938 .L0 
     /tmp/ccf9bp1A.s:1703   .text:0000000000000938 .L0 
     /tmp/ccf9bp1A.s:1704   .text:0000000000000938 .L0 
     /tmp/ccf9bp1A.s:1705   .text:0000000000000938 .L0 
     /tmp/ccf9bp1A.s:1707   .text:000000000000093c .L0 
     /tmp/ccf9bp1A.s:1709   .text:000000000000093c .L0 
     /tmp/ccf9bp1A.s:1710   .text:000000000000093c .L0 
     /tmp/ccf9bp1A.s:1715   .text:000000000000094c .L0 
GAS LISTING /tmp/ccf9bp1A.s 			page 86


     /tmp/ccf9bp1A.s:1720   .text:0000000000000954 .L0 
     /tmp/ccf9bp1A.s:1724   .text:0000000000000958 .L0 
     /tmp/ccf9bp1A.s:1727   .text:0000000000000960 .L0 
     /tmp/ccf9bp1A.s:1728   .text:0000000000000960 .L0 
     /tmp/ccf9bp1A.s:1732   .text:000000000000096c .L0 
     /tmp/ccf9bp1A.s:1737   .text:000000000000097c .L0 
     /tmp/ccf9bp1A.s:1739   .text:0000000000000980 .L0 
     /tmp/ccf9bp1A.s:1740   .text:0000000000000980 .L0 
     /tmp/ccf9bp1A.s:1746   .text:0000000000000990 .L0 
     /tmp/ccf9bp1A.s:1747   .text:0000000000000990 .L0 
     /tmp/ccf9bp1A.s:1748   .text:0000000000000994 .L0 
     /tmp/ccf9bp1A.s:1749   .text:0000000000000994 .L0 
     /tmp/ccf9bp1A.s:1751   .text:0000000000000998 .L0 
     /tmp/ccf9bp1A.s:1752   .text:0000000000000998 .L0 
     /tmp/ccf9bp1A.s:1754   .text:000000000000099c .L0 
     /tmp/ccf9bp1A.s:1756   .text:00000000000009a0 .L0 
     /tmp/ccf9bp1A.s:1758   .text:00000000000009a4 .L0 
     /tmp/ccf9bp1A.s:1762   .text:00000000000009a8 .L0 
     /tmp/ccf9bp1A.s:1764   .text:00000000000009a8 .L0 
     /tmp/ccf9bp1A.s:1768   .text:00000000000009ac .L0 
     /tmp/ccf9bp1A.s:1769   .text:00000000000009ac .L0 
     /tmp/ccf9bp1A.s:1773   .text:00000000000009b0 .L0 
     /tmp/ccf9bp1A.s:1777   .text:00000000000009b4 .L0 
     /tmp/ccf9bp1A.s:1781   .text:00000000000009bc .L0 
     /tmp/ccf9bp1A.s:1782   .text:00000000000009bc .L0 
     /tmp/ccf9bp1A.s:1789   .text:00000000000009d4 .L0 
     /tmp/ccf9bp1A.s:1791   .text:00000000000009d8 .L0 
     /tmp/ccf9bp1A.s:1792   .text:00000000000009d8 .L0 
     /tmp/ccf9bp1A.s:1796   .text:00000000000009e0 .L0 
     /tmp/ccf9bp1A.s:1800   .text:00000000000009ec .L0 
     /tmp/ccf9bp1A.s:1805   .text:00000000000009fc .L0 
     /tmp/ccf9bp1A.s:1808   .text:0000000000000a00 .L0 
     /tmp/ccf9bp1A.s:1809   .text:0000000000000a00 .L0 
     /tmp/ccf9bp1A.s:1812   .text:0000000000000a04 .L0 
     /tmp/ccf9bp1A.s:1817   .text:0000000000000a08 .L0 
     /tmp/ccf9bp1A.s:1818   .text:0000000000000a08 .L0 
     /tmp/ccf9bp1A.s:1823   .text:0000000000000a18 .L0 
     /tmp/ccf9bp1A.s:1826   .text:0000000000000a1c .L0 
     /tmp/ccf9bp1A.s:1827   .text:0000000000000a1c .L0 
     /tmp/ccf9bp1A.s:1831   .text:0000000000000a2c .L0 
     /tmp/ccf9bp1A.s:1837   .text:0000000000000a30 .L0 
     /tmp/ccf9bp1A.s:1841   .text:0000000000000a34 .L0 
     /tmp/ccf9bp1A.s:1845   .text:0000000000000a3c .L0 
     /tmp/ccf9bp1A.s:1846   .text:0000000000000a3c .L0 
     /tmp/ccf9bp1A.s:1853   .text:0000000000000a54 .L0 
     /tmp/ccf9bp1A.s:1855   .text:0000000000000a58 .L0 
     /tmp/ccf9bp1A.s:1856   .text:0000000000000a58 .L0 
     /tmp/ccf9bp1A.s:1861   .text:0000000000000a64 .L0 
     /tmp/ccf9bp1A.s:1866   .text:0000000000000a74 .L0 
     /tmp/ccf9bp1A.s:1869   .text:0000000000000a78 .L0 
     /tmp/ccf9bp1A.s:1870   .text:0000000000000a78 .L0 
     /tmp/ccf9bp1A.s:1873   .text:0000000000000a7c .L0 
     /tmp/ccf9bp1A.s:1878   .text:0000000000000a80 .L0 
     /tmp/ccf9bp1A.s:1879   .text:0000000000000a80 .L0 
     /tmp/ccf9bp1A.s:1884   .text:0000000000000a90 .L0 
     /tmp/ccf9bp1A.s:1887   .text:0000000000000a94 .L0 
     /tmp/ccf9bp1A.s:1888   .text:0000000000000a94 .L0 
GAS LISTING /tmp/ccf9bp1A.s 			page 87


     /tmp/ccf9bp1A.s:1892   .text:0000000000000aa4 .L0 
     /tmp/ccf9bp1A.s:1897   .text:0000000000000aa8 .L0 
     /tmp/ccf9bp1A.s:1898   .text:0000000000000aa8 .L0 
     /tmp/ccf9bp1A.s:1902   .text:0000000000000aac .L0 
     /tmp/ccf9bp1A.s:1906   .text:0000000000000ab0 .L0 
     /tmp/ccf9bp1A.s:1907   .text:0000000000000ab0 .L0 
     /tmp/ccf9bp1A.s:1911   .text:0000000000000ac4 .L0 
     /tmp/ccf9bp1A.s:1917   .text:0000000000000ac4 _Z21memoryAllocationTestsv
     /tmp/ccf9bp1A.s:1920   .text:0000000000000ac4 .L0 
     /tmp/ccf9bp1A.s:1921   .text:0000000000000ac4 .L0 
     /tmp/ccf9bp1A.s:1922   .text:0000000000000ac8 .L0 
     /tmp/ccf9bp1A.s:1924   .text:0000000000000acc .L0 
     /tmp/ccf9bp1A.s:1926   .text:0000000000000ad0 .L0 
     /tmp/ccf9bp1A.s:1928   .text:0000000000000ad0 .L0 
     /tmp/ccf9bp1A.s:1929   .text:0000000000000ad4 .L0 
     /tmp/ccf9bp1A.s:1930   .text:0000000000000ad4 .L0 
     /tmp/ccf9bp1A.s:1932   .text:0000000000000ad8 .L0 
     /tmp/ccf9bp1A.s:1934   .text:0000000000000adc .L0 
     /tmp/ccf9bp1A.s:1940   .text:0000000000000adc _ZN12TestPeriodicC2Em
     /tmp/ccf9bp1A.s:1943   .text:0000000000000adc .L0 
     /tmp/ccf9bp1A.s:1945   .text:0000000000000adc .L0 
     /tmp/ccf9bp1A.s:1946   .text:0000000000000ae0 .L0 
     /tmp/ccf9bp1A.s:1950   .text:0000000000000aec .L0 
     /tmp/ccf9bp1A.s:1951   .text:0000000000000aec .L0 
     /tmp/ccf9bp1A.s:1952   .text:0000000000000aec .L0 
     /tmp/ccf9bp1A.s:1954   .text:0000000000000af0 .L0 
     /tmp/ccf9bp1A.s:1958   .text:0000000000000af4 .L0 
     /tmp/ccf9bp1A.s:2859   .data.rel.ro.local._ZTV12TestPeriodic:0000000000000000 _ZTV12TestPeriodic
     /tmp/ccf9bp1A.s:1964   .text:0000000000000b08 .L0 
     /tmp/ccf9bp1A.s:1965   .text:0000000000000b0c .L0 
     /tmp/ccf9bp1A.s:1967   .text:0000000000000b10 .L0 
     /tmp/ccf9bp1A.s:1968   .text:0000000000000b10 .L0 
     /tmp/ccf9bp1A.s:1970   .text:0000000000000b14 .L0 
     /tmp/ccf9bp1A.s:1973   .text:0000000000000b18 .L0 
     /tmp/ccf9bp1A.s:1975   .text:0000000000000b1c .L0 
     /tmp/ccf9bp1A.s:1940   .text:0000000000000adc _ZN12TestPeriodicC1Em
     /tmp/ccf9bp1A.s:1983   .text:0000000000000b1c _Z11threadTest3v
     /tmp/ccf9bp1A.s:1986   .text:0000000000000b1c .L0 
     /tmp/ccf9bp1A.s:1989   .text:0000000000000b1c .L0 
     /tmp/ccf9bp1A.s:1990   .text:0000000000000b20 .L0 
     /tmp/ccf9bp1A.s:1995   .text:0000000000000b30 .L0 
     /tmp/ccf9bp1A.s:1996   .text:0000000000000b30 .L0 
     /tmp/ccf9bp1A.s:1997   .text:0000000000000b30 .L0 
     /tmp/ccf9bp1A.s:1998   .text:0000000000000b30 .L0 
     /tmp/ccf9bp1A.s:2000   .text:0000000000000b34 .L0 
     /tmp/ccf9bp1A.s:2002   .text:0000000000000b34 .L0 
     /tmp/ccf9bp1A.s:2003   .text:0000000000000b34 .L0 
     /tmp/ccf9bp1A.s:2015   .text:0000000000000b50 .L0 
     /tmp/ccf9bp1A.s:2016   .text:0000000000000b50 .L0 
     /tmp/ccf9bp1A.s:2023   .text:0000000000000b5c .L0 
     /tmp/ccf9bp1A.s:2024   .text:0000000000000b5c .L0 
     /tmp/ccf9bp1A.s:2029   .text:0000000000000b64 .L0 
     /tmp/ccf9bp1A.s:2037   .text:0000000000000b7c .L0 
     /tmp/ccf9bp1A.s:2074   .text:0000000000000b7c _Z10mallocTestv
     /tmp/ccf9bp1A.s:2077   .text:0000000000000b7c .L0 
     /tmp/ccf9bp1A.s:2078   .text:0000000000000b7c .L0 
     /tmp/ccf9bp1A.s:2079   .text:0000000000000b80 .L0 
GAS LISTING /tmp/ccf9bp1A.s 			page 88


     /tmp/ccf9bp1A.s:2088   .text:0000000000000ba0 .L0 
     /tmp/ccf9bp1A.s:2089   .text:0000000000000ba0 .L0 
     /tmp/ccf9bp1A.s:2090   .text:0000000000000ba0 .L0 
     /tmp/ccf9bp1A.s:2091   .text:0000000000000ba0 .L0 
     /tmp/ccf9bp1A.s:2092   .text:0000000000000ba0 .L0 
     /tmp/ccf9bp1A.s:2093   .text:0000000000000ba0 .L0 
     /tmp/ccf9bp1A.s:2094   .text:0000000000000ba0 .L0 
     /tmp/ccf9bp1A.s:2095   .text:0000000000000ba0 .L0 
     /tmp/ccf9bp1A.s:2097   .text:0000000000000ba4 .L0 
     /tmp/ccf9bp1A.s:2099   .text:0000000000000ba4 .L0 
     /tmp/ccf9bp1A.s:2100   .text:0000000000000ba4 .L0 
     /tmp/ccf9bp1A.s:2104   .text:0000000000000bb4 .L0 
     /tmp/ccf9bp1A.s:2105   .text:0000000000000bb4 .L0 
     /tmp/ccf9bp1A.s:2111   .text:0000000000000bc4 .L0 
     /tmp/ccf9bp1A.s:2112   .text:0000000000000bc4 .L0 
     /tmp/ccf9bp1A.s:2115   .text:0000000000000bcc .L0 
     /tmp/ccf9bp1A.s:2116   .text:0000000000000bcc .L0 
     /tmp/ccf9bp1A.s:2122   .text:0000000000000bdc .L0 
     /tmp/ccf9bp1A.s:2123   .text:0000000000000bdc .L0 
     /tmp/ccf9bp1A.s:2130   .text:0000000000000bec .L0 
     /tmp/ccf9bp1A.s:2131   .text:0000000000000bec .L0 
     /tmp/ccf9bp1A.s:2138   .text:0000000000000bfc .L0 
     /tmp/ccf9bp1A.s:2139   .text:0000000000000bfc .L0 
     /tmp/ccf9bp1A.s:2147   .text:0000000000000c10 .L0 
     /tmp/ccf9bp1A.s:2148   .text:0000000000000c10 .L0 
     /tmp/ccf9bp1A.s:2153   .text:0000000000000c1c .L0 
     /tmp/ccf9bp1A.s:2156   .text:0000000000000c24 .L0 
     /tmp/ccf9bp1A.s:2158   .text:0000000000000c28 .L0 
     /tmp/ccf9bp1A.s:2160   .text:0000000000000c2c .L0 
     /tmp/ccf9bp1A.s:2162   .text:0000000000000c30 .L0 
     /tmp/ccf9bp1A.s:2164   .text:0000000000000c34 .L0 
     /tmp/ccf9bp1A.s:2165   .text:0000000000000c34 .L0 
     /tmp/ccf9bp1A.s:2170   .text:0000000000000c40 .L0 
     /tmp/ccf9bp1A.s:2171   .text:0000000000000c40 .L0 
     /tmp/ccf9bp1A.s:2175   .text:0000000000000c4c .L0 
     /tmp/ccf9bp1A.s:2176   .text:0000000000000c4c .L0 
     /tmp/ccf9bp1A.s:2180   .text:0000000000000c58 .L0 
     /tmp/ccf9bp1A.s:2181   .text:0000000000000c58 .L0 
     /tmp/ccf9bp1A.s:2185   .text:0000000000000c64 .L0 
     /tmp/ccf9bp1A.s:2186   .text:0000000000000c64 .L0 
     /tmp/ccf9bp1A.s:2190   .text:0000000000000c70 .L0 
     /tmp/ccf9bp1A.s:2191   .text:0000000000000c70 .L0 
     /tmp/ccf9bp1A.s:2193   .text:0000000000000c74 .L0 
     /tmp/ccf9bp1A.s:2198   .text:0000000000000c80 .L0 
     /tmp/ccf9bp1A.s:2199   .text:0000000000000c80 .L0 
     /tmp/ccf9bp1A.s:2206   .text:0000000000000c94 .L0 
     /tmp/ccf9bp1A.s:2207   .text:0000000000000c94 .L0 
     /tmp/ccf9bp1A.s:2213   .text:0000000000000ca4 .L0 
     /tmp/ccf9bp1A.s:2214   .text:0000000000000ca4 .L0 
     /tmp/ccf9bp1A.s:2215   .text:0000000000000ca8 .L0 
     /tmp/ccf9bp1A.s:2217   .text:0000000000000cac .L0 
     /tmp/ccf9bp1A.s:2218   .text:0000000000000cac .L0 
     /tmp/ccf9bp1A.s:2220   .text:0000000000000cb0 .L0 
     /tmp/ccf9bp1A.s:2223   .text:0000000000000cb4 .L0 
     /tmp/ccf9bp1A.s:2226   .text:0000000000000cb8 .L0 
     /tmp/ccf9bp1A.s:2229   .text:0000000000000cbc .L0 
     /tmp/ccf9bp1A.s:2232   .text:0000000000000cc0 .L0 
GAS LISTING /tmp/ccf9bp1A.s 			page 89


     /tmp/ccf9bp1A.s:2235   .text:0000000000000cc4 .L0 
     /tmp/ccf9bp1A.s:2237   .text:0000000000000cc8 .L0 
     /tmp/ccf9bp1A.s:2239   .text:0000000000000ccc .L0 
     /tmp/ccf9bp1A.s:2253   .text:0000000000000ccc _Z16mallocEverythingv
     /tmp/ccf9bp1A.s:2256   .text:0000000000000ccc .L0 
     /tmp/ccf9bp1A.s:2257   .text:0000000000000ccc .L0 
     /tmp/ccf9bp1A.s:2258   .text:0000000000000cd0 .L0 
     /tmp/ccf9bp1A.s:2262   .text:0000000000000cdc .L0 
     /tmp/ccf9bp1A.s:2263   .text:0000000000000cdc .L0 
     /tmp/ccf9bp1A.s:2264   .text:0000000000000cdc .L0 
     /tmp/ccf9bp1A.s:2266   .text:0000000000000ce0 .L0 
     /tmp/ccf9bp1A.s:2268   .text:0000000000000ce0 .L0 
     /tmp/ccf9bp1A.s:2269   .text:0000000000000ce0 .L0 
     /tmp/ccf9bp1A.s:2273   .text:0000000000000cf0 .L0 
     /tmp/ccf9bp1A.s:2274   .text:0000000000000cf0 .L0 
     /tmp/ccf9bp1A.s:2281   .text:0000000000000d0c .L0 
     /tmp/ccf9bp1A.s:2282   .text:0000000000000d0c .L0 
     /tmp/ccf9bp1A.s:2287   .text:0000000000000d18 .L0 
     /tmp/ccf9bp1A.s:2289   .text:0000000000000d1c .L0 
     /tmp/ccf9bp1A.s:2290   .text:0000000000000d1c .L0 
     /tmp/ccf9bp1A.s:2296   .text:0000000000000d2c .L0 
     /tmp/ccf9bp1A.s:2297   .text:0000000000000d2c .L0 
     /tmp/ccf9bp1A.s:2298   .text:0000000000000d30 .L0 
     /tmp/ccf9bp1A.s:2299   .text:0000000000000d30 .L0 
     /tmp/ccf9bp1A.s:2301   .text:0000000000000d34 .L0 
     /tmp/ccf9bp1A.s:2302   .text:0000000000000d34 .L0 
     /tmp/ccf9bp1A.s:2304   .text:0000000000000d38 .L0 
     /tmp/ccf9bp1A.s:2306   .text:0000000000000d3c .L0 
     /tmp/ccf9bp1A.s:2310   .text:0000000000000d40 .L0 
     /tmp/ccf9bp1A.s:2312   .text:0000000000000d40 .L0 
     /tmp/ccf9bp1A.s:2313   .text:0000000000000d40 .L0 
     /tmp/ccf9bp1A.s:2320   .text:0000000000000d5c .L0 
     /tmp/ccf9bp1A.s:2322   .text:0000000000000d60 .L0 
     /tmp/ccf9bp1A.s:2324   .text:0000000000000d64 .L0 
     /tmp/ccf9bp1A.s:2327   .text:0000000000000d68 .L0 
     /tmp/ccf9bp1A.s:2328   .text:0000000000000d68 .L0 
     /tmp/ccf9bp1A.s:2335   .text:0000000000000d78 .L0 
     /tmp/ccf9bp1A.s:2337   .text:0000000000000d7c .L0 
     /tmp/ccf9bp1A.s:2338   .text:0000000000000d7c .L0 
     /tmp/ccf9bp1A.s:2342   .text:0000000000000d88 .L0 
     /tmp/ccf9bp1A.s:2344   .text:0000000000000d8c .L0 
     /tmp/ccf9bp1A.s:2345   .text:0000000000000d8c .L0 
     /tmp/ccf9bp1A.s:2350   .text:0000000000000d98 .L0 
     /tmp/ccf9bp1A.s:2351   .text:0000000000000d98 .L0 
     /tmp/ccf9bp1A.s:2357   .text:0000000000000dac .L0 
     /tmp/ccf9bp1A.s:2358   .text:0000000000000dac .L0 
     /tmp/ccf9bp1A.s:2362   .text:0000000000000dbc .L0 
     /tmp/ccf9bp1A.s:2366   .text:0000000000000dc0 .L0 
     /tmp/ccf9bp1A.s:2367   .text:0000000000000dc0 .L0 
     /tmp/ccf9bp1A.s:2372   .text:0000000000000dd0 .L0 
     /tmp/ccf9bp1A.s:2373   .text:0000000000000dd4 .L0 
     /tmp/ccf9bp1A.s:2387   .text:0000000000000dd4 _Z17mallocGapFillTestv
     /tmp/ccf9bp1A.s:2390   .text:0000000000000dd4 .L0 
     /tmp/ccf9bp1A.s:2391   .text:0000000000000dd4 .L0 
     /tmp/ccf9bp1A.s:2392   .text:0000000000000dd8 .L0 
     /tmp/ccf9bp1A.s:2403   .text:0000000000000e00 .L0 
     /tmp/ccf9bp1A.s:2404   .text:0000000000000e00 .L0 
GAS LISTING /tmp/ccf9bp1A.s 			page 90


     /tmp/ccf9bp1A.s:2405   .text:0000000000000e00 .L0 
     /tmp/ccf9bp1A.s:2406   .text:0000000000000e00 .L0 
     /tmp/ccf9bp1A.s:2407   .text:0000000000000e00 .L0 
     /tmp/ccf9bp1A.s:2408   .text:0000000000000e00 .L0 
     /tmp/ccf9bp1A.s:2409   .text:0000000000000e00 .L0 
     /tmp/ccf9bp1A.s:2410   .text:0000000000000e00 .L0 
     /tmp/ccf9bp1A.s:2411   .text:0000000000000e00 .L0 
     /tmp/ccf9bp1A.s:2412   .text:0000000000000e00 .L0 
     /tmp/ccf9bp1A.s:2414   .text:0000000000000e04 .L0 
     /tmp/ccf9bp1A.s:2416   .text:0000000000000e04 .L0 
     /tmp/ccf9bp1A.s:2417   .text:0000000000000e04 .L0 
     /tmp/ccf9bp1A.s:2422   .text:0000000000000e14 .L0 
     /tmp/ccf9bp1A.s:2426   .text:0000000000000e18 .L0 
     /tmp/ccf9bp1A.s:2429   .text:0000000000000e20 .L0 
     /tmp/ccf9bp1A.s:2430   .text:0000000000000e20 .L0 
     /tmp/ccf9bp1A.s:2432   .text:0000000000000e24 .L0 
     /tmp/ccf9bp1A.s:2436   .text:0000000000000e30 .L0 
     /tmp/ccf9bp1A.s:2441   .text:0000000000000e40 .L0 
     /tmp/ccf9bp1A.s:2443   .text:0000000000000e44 .L0 
     /tmp/ccf9bp1A.s:2449   .text:0000000000000e4c .L0 
     /tmp/ccf9bp1A.s:2450   .text:0000000000000e4c .L0 
     /tmp/ccf9bp1A.s:2456   .text:0000000000000e5c .L0 
     /tmp/ccf9bp1A.s:2457   .text:0000000000000e5c .L0 
     /tmp/ccf9bp1A.s:2458   .text:0000000000000e60 .L0 
     /tmp/ccf9bp1A.s:2459   .text:0000000000000e60 .L0 
     /tmp/ccf9bp1A.s:2461   .text:0000000000000e64 .L0 
     /tmp/ccf9bp1A.s:2462   .text:0000000000000e64 .L0 
     /tmp/ccf9bp1A.s:2464   .text:0000000000000e68 .L0 
     /tmp/ccf9bp1A.s:2466   .text:0000000000000e6c .L0 
     /tmp/ccf9bp1A.s:2468   .text:0000000000000e70 .L0 
     /tmp/ccf9bp1A.s:2470   .text:0000000000000e74 .L0 
     /tmp/ccf9bp1A.s:2472   .text:0000000000000e78 .L0 
     /tmp/ccf9bp1A.s:2474   .text:0000000000000e7c .L0 
     /tmp/ccf9bp1A.s:2476   .text:0000000000000e80 .L0 
     /tmp/ccf9bp1A.s:2478   .text:0000000000000e84 .L0 
     /tmp/ccf9bp1A.s:2480   .text:0000000000000e88 .L0 
     /tmp/ccf9bp1A.s:2484   .text:0000000000000e8c .L0 
     /tmp/ccf9bp1A.s:2486   .text:0000000000000e8c .L0 
     /tmp/ccf9bp1A.s:2487   .text:0000000000000e8c .L0 
     /tmp/ccf9bp1A.s:2489   .text:0000000000000e90 .L0 
     /tmp/ccf9bp1A.s:2491   .text:0000000000000e94 .L0 
     /tmp/ccf9bp1A.s:2495   .text:0000000000000e9c .L0 
     /tmp/ccf9bp1A.s:2496   .text:0000000000000e9c .L0 
     /tmp/ccf9bp1A.s:2502   .text:0000000000000eac .L0 
     /tmp/ccf9bp1A.s:2503   .text:0000000000000eac .L0 
     /tmp/ccf9bp1A.s:2509   .text:0000000000000ebc .L0 
     /tmp/ccf9bp1A.s:2510   .text:0000000000000ebc .L0 
     /tmp/ccf9bp1A.s:2517   .text:0000000000000ecc .L0 
     /tmp/ccf9bp1A.s:2519   .text:0000000000000ed0 .L0 
     /tmp/ccf9bp1A.s:2521   .text:0000000000000ed4 .L0 
     /tmp/ccf9bp1A.s:2523   .text:0000000000000ed8 .L0 
     /tmp/ccf9bp1A.s:2524   .text:0000000000000ed8 .L0 
     /tmp/ccf9bp1A.s:2527   .text:0000000000000edc .L0 
     /tmp/ccf9bp1A.s:2528   .text:0000000000000edc .L0 
     /tmp/ccf9bp1A.s:2531   .text:0000000000000ee0 .L0 
     /tmp/ccf9bp1A.s:2532   .text:0000000000000ee0 .L0 
     /tmp/ccf9bp1A.s:2535   .text:0000000000000ee4 .L0 
GAS LISTING /tmp/ccf9bp1A.s 			page 91


     /tmp/ccf9bp1A.s:2536   .text:0000000000000ee4 .L0 
     /tmp/ccf9bp1A.s:2539   .text:0000000000000ee8 .L0 
     /tmp/ccf9bp1A.s:2540   .text:0000000000000ee8 .L0 
     /tmp/ccf9bp1A.s:2541   .text:0000000000000ee8 .L0 
     /tmp/ccf9bp1A.s:2544   .text:0000000000000eec .L0 
     /tmp/ccf9bp1A.s:2545   .text:0000000000000eec .L0 
     /tmp/ccf9bp1A.s:2548   .text:0000000000000ef0 .L0 
     /tmp/ccf9bp1A.s:2550   .text:0000000000000ef4 .L0 
     /tmp/ccf9bp1A.s:2552   .text:0000000000000ef8 .L0 
     /tmp/ccf9bp1A.s:2554   .text:0000000000000efc .L0 
     /tmp/ccf9bp1A.s:2556   .text:0000000000000f00 .L0 
     /tmp/ccf9bp1A.s:2558   .text:0000000000000f04 .L0 
     /tmp/ccf9bp1A.s:2559   .text:0000000000000f04 .L0 
     /tmp/ccf9bp1A.s:2561   .text:0000000000000f08 .L0 
     /tmp/ccf9bp1A.s:2565   .text:0000000000000f10 .L0 
     /tmp/ccf9bp1A.s:2566   .text:0000000000000f10 .L0 
     /tmp/ccf9bp1A.s:2568   .text:0000000000000f14 .L0 
     /tmp/ccf9bp1A.s:2570   .text:0000000000000f18 .L0 
     /tmp/ccf9bp1A.s:2574   .text:0000000000000f20 .L0 
     /tmp/ccf9bp1A.s:2575   .text:0000000000000f20 .L0 
     /tmp/ccf9bp1A.s:2581   .text:0000000000000f30 .L0 
     /tmp/ccf9bp1A.s:2582   .text:0000000000000f30 .L0 
     /tmp/ccf9bp1A.s:2589   .text:0000000000000f40 .L0 
     /tmp/ccf9bp1A.s:2591   .text:0000000000000f44 .L0 
     /tmp/ccf9bp1A.s:2594   .text:0000000000000f48 .L0 
     /tmp/ccf9bp1A.s:2595   .text:0000000000000f48 .L0 
     /tmp/ccf9bp1A.s:2596   .text:0000000000000f48 .L0 
     /tmp/ccf9bp1A.s:2598   .text:0000000000000f4c .L0 
     /tmp/ccf9bp1A.s:2600   .text:0000000000000f50 .L0 
     /tmp/ccf9bp1A.s:2603   .text:0000000000000f54 .L0 
     /tmp/ccf9bp1A.s:2609   .text:0000000000000f5c .L0 
     /tmp/ccf9bp1A.s:2610   .text:0000000000000f5c .L0 
     /tmp/ccf9bp1A.s:2615   .text:0000000000000f6c .L0 
     /tmp/ccf9bp1A.s:2619   .text:0000000000000f70 .L0 
     /tmp/ccf9bp1A.s:2620   .text:0000000000000f70 .L0 
     /tmp/ccf9bp1A.s:2625   .text:0000000000000f80 .L0 
     /tmp/ccf9bp1A.s:2629   .text:0000000000000f84 .L0 
     /tmp/ccf9bp1A.s:2630   .text:0000000000000f84 .L0 
     /tmp/ccf9bp1A.s:2635   .text:0000000000000f94 .L0 
     /tmp/ccf9bp1A.s:2639   .text:0000000000000f98 .L0 
     /tmp/ccf9bp1A.s:2640   .text:0000000000000f98 .L0 
     /tmp/ccf9bp1A.s:2645   .text:0000000000000fa8 .L0 
     /tmp/ccf9bp1A.s:2650   .text:0000000000000fac .L0 
     /tmp/ccf9bp1A.s:2654   .text:0000000000000fb0 .L0 
     /tmp/ccf9bp1A.s:2657   .text:0000000000000fb8 .L0 
     /tmp/ccf9bp1A.s:2658   .text:0000000000000fb8 .L0 
     /tmp/ccf9bp1A.s:2664   .text:0000000000000fc8 .L0 
     /tmp/ccf9bp1A.s:2666   .text:0000000000000fcc .L0 
     /tmp/ccf9bp1A.s:2672   .text:0000000000000fd8 .L0 
     /tmp/ccf9bp1A.s:2673   .text:0000000000000fd8 .L0 
     /tmp/ccf9bp1A.s:2677   .text:0000000000000fe4 .L0 
     /tmp/ccf9bp1A.s:2678   .text:0000000000000fe4 .L0 
     /tmp/ccf9bp1A.s:2682   .text:0000000000000ff0 .L0 
     /tmp/ccf9bp1A.s:2683   .text:0000000000000ff0 .L0 
     /tmp/ccf9bp1A.s:2687   .text:0000000000000ffc .L0 
     /tmp/ccf9bp1A.s:2688   .text:0000000000000ffc .L0 
     /tmp/ccf9bp1A.s:2692   .text:0000000000001008 .L0 
GAS LISTING /tmp/ccf9bp1A.s 			page 92


     /tmp/ccf9bp1A.s:2693   .text:0000000000001008 .L0 
     /tmp/ccf9bp1A.s:2697   .text:0000000000001014 .L0 
     /tmp/ccf9bp1A.s:2698   .text:0000000000001014 .L0 
     /tmp/ccf9bp1A.s:2702   .text:0000000000001028 .L0 
     /tmp/ccf9bp1A.s:2708   .text:0000000000001028 _Z8semTest1v
     /tmp/ccf9bp1A.s:2711   .text:0000000000001028 .L0 
     /tmp/ccf9bp1A.s:2712   .text:0000000000001028 .L0 
     /tmp/ccf9bp1A.s:2713   .text:000000000000102c .L0 
     /tmp/ccf9bp1A.s:2716   .text:0000000000001034 .L0 
     /tmp/ccf9bp1A.s:2717   .text:0000000000001034 .L0 
     /tmp/ccf9bp1A.s:2719   .text:0000000000001038 .L0 
     /tmp/ccf9bp1A.s:2721   .text:0000000000001038 .L0 
     /tmp/ccf9bp1A.s:2722   .text:0000000000001038 .L0 
     /tmp/ccf9bp1A.s:2727   .text:000000000000104c .L0 
     /tmp/ccf9bp1A.s:2728   .text:000000000000104c .L0 
     /tmp/ccf9bp1A.s:2733   .text:0000000000001060 .L0 
     /tmp/ccf9bp1A.s:2734   .text:0000000000001060 .L0 
     /tmp/ccf9bp1A.s:2735   .text:0000000000001060 .L0 
     /tmp/ccf9bp1A.s:2741   .text:0000000000001078 .L0 
     /tmp/ccf9bp1A.s:2742   .text:0000000000001078 .L0 
     /tmp/ccf9bp1A.s:2750   .text:0000000000001094 .L0 
     /tmp/ccf9bp1A.s:2751   .text:0000000000001094 .L0 
     /tmp/ccf9bp1A.s:2755   .text:000000000000109c .L0 
     /tmp/ccf9bp1A.s:2756   .text:000000000000109c .L0 
     /tmp/ccf9bp1A.s:2757   .text:000000000000109c .L0 
     /tmp/ccf9bp1A.s:2761   .text:00000000000010a8 .L0 
     /tmp/ccf9bp1A.s:2763   .text:00000000000010ac .L0 
     /tmp/ccf9bp1A.s:2767   .text:00000000000010b8 .L0 
     /tmp/ccf9bp1A.s:2769   .text:00000000000010bc .L0 
     /tmp/ccf9bp1A.s:2770   .text:00000000000010c0 .L0 
     /tmp/ccf9bp1A.s:2772   .text:00000000000010c4 .L0 
     /tmp/ccf9bp1A.s:2773   .text:00000000000010c4 .L0 
     /tmp/ccf9bp1A.s:2775   .text:00000000000010c8 .L0 
     /tmp/ccf9bp1A.s:2777   .text:00000000000010cc .L0 
     /tmp/ccf9bp1A.s:2783   .text:00000000000010cc _Z14semaphoreTestsv
     /tmp/ccf9bp1A.s:2786   .text:00000000000010cc .L0 
     /tmp/ccf9bp1A.s:2787   .text:00000000000010cc .L0 
     /tmp/ccf9bp1A.s:2788   .text:00000000000010d0 .L0 
     /tmp/ccf9bp1A.s:2791   .text:00000000000010d8 .L0 
     /tmp/ccf9bp1A.s:2792   .text:00000000000010d8 .L0 
     /tmp/ccf9bp1A.s:2794   .text:00000000000010dc .L0 
     /tmp/ccf9bp1A.s:2796   .text:00000000000010dc .L0 
     /tmp/ccf9bp1A.s:2797   .text:00000000000010dc .L0 
     /tmp/ccf9bp1A.s:2800   .text:00000000000010e4 .L0 
     /tmp/ccf9bp1A.s:2801   .text:00000000000010e8 .L0 
     /tmp/ccf9bp1A.s:2803   .text:00000000000010ec .L0 
     /tmp/ccf9bp1A.s:2804   .text:00000000000010ec .L0 
     /tmp/ccf9bp1A.s:2806   .text:00000000000010f0 .L0 
     /tmp/ccf9bp1A.s:2808   .text:00000000000010f4 .L0 
     /tmp/ccf9bp1A.s:2814   .text:00000000000010f4 _Z7myTestsv
     /tmp/ccf9bp1A.s:2817   .text:00000000000010f4 .L0 
     /tmp/ccf9bp1A.s:2818   .text:00000000000010f4 .L0 
     /tmp/ccf9bp1A.s:2819   .text:00000000000010f8 .L0 
     /tmp/ccf9bp1A.s:2822   .text:0000000000001100 .L0 
     /tmp/ccf9bp1A.s:2823   .text:0000000000001100 .L0 
     /tmp/ccf9bp1A.s:2825   .text:0000000000001104 .L0 
     /tmp/ccf9bp1A.s:2827   .text:0000000000001104 .L0 
GAS LISTING /tmp/ccf9bp1A.s 			page 93


     /tmp/ccf9bp1A.s:2828   .text:0000000000001104 .L0 
     /tmp/ccf9bp1A.s:2831   .text:000000000000110c .L0 
     /tmp/ccf9bp1A.s:2832   .text:0000000000001110 .L0 
     /tmp/ccf9bp1A.s:2834   .text:0000000000001114 .L0 
     /tmp/ccf9bp1A.s:2835   .text:0000000000001114 .L0 
     /tmp/ccf9bp1A.s:2837   .text:0000000000001118 .L0 
     /tmp/ccf9bp1A.s:2839   .text:000000000000111c .L0 
     /tmp/ccf9bp1A.s:2877   .data:0000000000000000 string
     /tmp/ccf9bp1A.s:2889   .bss:0000000000000008 itemAvailable
     /tmp/ccf9bp1A.s:2898   .bss:0000000000000020 spaceAvailable
     /tmp/ccf9bp1A.s:2902   .bss:0000000000000028 tail
     /tmp/ccf9bp1A.s:2884   .bss:0000000000000000 head
     /tmp/ccf9bp1A.s:2893   .bss:0000000000000010 buffer
     /tmp/ccf9bp1A.s:2874   .data:0000000000000000 .LANCHOR1
     /tmp/ccf9bp1A.s:2881   .bss:0000000000000000 .LANCHOR0
     /tmp/ccf9bp1A.s:32     .text._ZN6Thread3runEv:0000000000000018 .L0 
     /tmp/ccf9bp1A.s:57     .text._ZN14PeriodicThread18periodicActivationEv:0000000000000018 .L0 
     /tmp/ccf9bp1A.s:2910   .text:000000000000111c .L0 
     /tmp/ccf9bp1A.s:622    .text._ZN14PeriodicThreadD2Ev:0000000000000034 .L0 
     /tmp/ccf9bp1A.s:669    .text._ZN14PeriodicThreadD0Ev:000000000000004c .L0 
     /tmp/ccf9bp1A.s:711    .text._ZN12TestPeriodicD2Ev:0000000000000034 .L0 
     /tmp/ccf9bp1A.s:761    .text._ZN12TestPeriodicD0Ev:000000000000004c .L0 
     /tmp/ccf9bp1A.s:59     .rodata.str1.8:0000000000000000 .LC0
     /tmp/ccf9bp1A.s:84     .text:0000000000000010 .L0 
     /tmp/ccf9bp1A.s:98     .rodata.str1.8:0000000000000008 .LC1
     /tmp/ccf9bp1A.s:127    .text:0000000000000040 .L0 
     /tmp/ccf9bp1A.s:101    .rodata.str1.8:0000000000000020 .LC2
     /tmp/ccf9bp1A.s:146    .text:0000000000000060 .L0 
     /tmp/ccf9bp1A.s:104    .rodata.str1.8:0000000000000028 .LC3
     /tmp/ccf9bp1A.s:156    .text:000000000000007c .L0 
     /tmp/ccf9bp1A.s:195    .rodata.str1.8:0000000000000030 .LC4
     /tmp/ccf9bp1A.s:221    .text:00000000000000d8 .L0 
     /tmp/ccf9bp1A.s:198    .rodata.str1.8:0000000000000048 .LC5
     /tmp/ccf9bp1A.s:240    .text:00000000000000f8 .L0 
     /tmp/ccf9bp1A.s:250    .text:0000000000000114 .L0 
     /tmp/ccf9bp1A.s:318    .text:0000000000000180 .L0 
     /tmp/ccf9bp1A.s:368    .text:00000000000001cc .L0 
     /tmp/ccf9bp1A.s:393    .text:00000000000001f8 .L0 
     /tmp/ccf9bp1A.s:403    .text:0000000000000214 .L0 
     /tmp/ccf9bp1A.s:454    .text:0000000000000264 .L0 
     /tmp/ccf9bp1A.s:472    .text:0000000000000288 .L0 
     /tmp/ccf9bp1A.s:493    .text:00000000000002c4 .L0 
     /tmp/ccf9bp1A.s:523    .text:00000000000002ec .L0 
     /tmp/ccf9bp1A.s:541    .text:0000000000000310 .L0 
     /tmp/ccf9bp1A.s:548    .text:0000000000000328 .L0 
     /tmp/ccf9bp1A.s:565    .text:0000000000000354 .L0 
     /tmp/ccf9bp1A.s:799    .text:00000000000003a8 .L0 
     /tmp/ccf9bp1A.s:818    .text:00000000000003d8 .L0 
     /tmp/ccf9bp1A.s:763    .rodata.str1.8:0000000000000050 .LC6
     /tmp/ccf9bp1A.s:837    .text:0000000000000400 .L0 
     /tmp/ccf9bp1A.s:766    .rodata.str1.8:0000000000000060 .LC7
     /tmp/ccf9bp1A.s:878    .text:0000000000000438 .L0 
     /tmp/ccf9bp1A.s:995    .text:00000000000004cc .L0 
     /tmp/ccf9bp1A.s:1014   .text:00000000000004fc .L0 
     /tmp/ccf9bp1A.s:1034   .text:000000000000052c .L0 
     /tmp/ccf9bp1A.s:1068   .text:0000000000000560 .L0 
     /tmp/ccf9bp1A.s:1203   .rodata.str1.8:0000000000000068 .LC8
GAS LISTING /tmp/ccf9bp1A.s 			page 94


     /tmp/ccf9bp1A.s:1231   .text:0000000000000610 .L0 
     /tmp/ccf9bp1A.s:1206   .rodata.str1.8:0000000000000078 .LC9
     /tmp/ccf9bp1A.s:1261   .text:0000000000000654 .L0 
     /tmp/ccf9bp1A.s:1313   .text:00000000000006a8 .L0 
     /tmp/ccf9bp1A.s:1351   .text:00000000000006f0 .L0 
     /tmp/ccf9bp1A.s:1387   .text:0000000000000734 .L0 
     /tmp/ccf9bp1A.s:1209   .rodata.str1.8:0000000000000080 .LC10
     /tmp/ccf9bp1A.s:1398   .text:0000000000000748 .L0 
     /tmp/ccf9bp1A.s:1407   .rodata.str1.8:0000000000000088 .LC11
     /tmp/ccf9bp1A.s:1427   .text:000000000000076c .L0 
     /tmp/ccf9bp1A.s:1432   .text:000000000000077c .L0 
     /tmp/ccf9bp1A.s:1434   .text:0000000000000788 .L0 
     /tmp/ccf9bp1A.s:1448   .text:00000000000007a8 .L0 
     /tmp/ccf9bp1A.s:1468   .text:00000000000007c8 .L0 
     /tmp/ccf9bp1A.s:1478   .rodata.str1.8:0000000000000098 .LC12
     /tmp/ccf9bp1A.s:1504   .text:00000000000007f8 .L0 
     /tmp/ccf9bp1A.s:1565   .text:0000000000000854 .L0 
     /tmp/ccf9bp1A.s:1578   .text:0000000000000874 .L0 
     /tmp/ccf9bp1A.s:1605   .text:00000000000008a0 .L0 
     /tmp/ccf9bp1A.s:1614   .rodata.str1.8:00000000000000b0 .LC13
     /tmp/ccf9bp1A.s:1634   .text:00000000000008c4 .L0 
     /tmp/ccf9bp1A.s:1652   .text:00000000000008f0 .L0 
     /tmp/ccf9bp1A.s:1672   .text:0000000000000910 .L0 
     /tmp/ccf9bp1A.s:1683   .rodata.str1.8:00000000000000c0 .LC14
     /tmp/ccf9bp1A.s:1710   .text:000000000000093c .L0 
     /tmp/ccf9bp1A.s:1740   .text:0000000000000980 .L0 
     /tmp/ccf9bp1A.s:1818   .text:0000000000000a08 .L0 
     /tmp/ccf9bp1A.s:1686   .rodata.str1.8:00000000000000d0 .LC15
     /tmp/ccf9bp1A.s:1827   .text:0000000000000a1c .L0 
     /tmp/ccf9bp1A.s:1879   .text:0000000000000a80 .L0 
     /tmp/ccf9bp1A.s:1888   .text:0000000000000a94 .L0 
     /tmp/ccf9bp1A.s:1907   .text:0000000000000ab0 .L0 
     /tmp/ccf9bp1A.s:1960   .text:0000000000000afc .L0 
     /tmp/ccf9bp1A.s:2065   .rodata.str1.8:00000000000000d8 .LC16
     /tmp/ccf9bp1A.s:2100   .text:0000000000000ba4 .L0 
     /tmp/ccf9bp1A.s:2068   .rodata.str1.8:0000000000000100 .LC17
     /tmp/ccf9bp1A.s:2199   .text:0000000000000c80 .L0 
     /tmp/ccf9bp1A.s:2207   .text:0000000000000c94 .L0 
     /tmp/ccf9bp1A.s:2244   .rodata.str1.8:0000000000000130 .LC18
     /tmp/ccf9bp1A.s:2269   .text:0000000000000ce0 .L0 
     /tmp/ccf9bp1A.s:2274   .text:0000000000000cf0 .L0 
     /tmp/ccf9bp1A.s:2276   .text:0000000000000cfc .L0 
     /tmp/ccf9bp1A.s:2290   .text:0000000000000d1c .L0 
     /tmp/ccf9bp1A.s:2313   .text:0000000000000d40 .L0 
     /tmp/ccf9bp1A.s:2316   .text:0000000000000d4c .L0 
     /tmp/ccf9bp1A.s:2247   .rodata.str1.8:0000000000000160 .LC19
     /tmp/ccf9bp1A.s:2351   .text:0000000000000d98 .L0 
     /tmp/ccf9bp1A.s:2358   .text:0000000000000dac .L0 
     /tmp/ccf9bp1A.s:2367   .text:0000000000000dc0 .L0 
     /tmp/ccf9bp1A.s:2378   .rodata.str1.8:0000000000000198 .LC20
     /tmp/ccf9bp1A.s:2417   .text:0000000000000e04 .L0 
     /tmp/ccf9bp1A.s:2450   .text:0000000000000e4c .L0 
     /tmp/ccf9bp1A.s:2610   .text:0000000000000f5c .L0 
     /tmp/ccf9bp1A.s:2620   .text:0000000000000f70 .L0 
     /tmp/ccf9bp1A.s:2630   .text:0000000000000f84 .L0 
     /tmp/ccf9bp1A.s:2640   .text:0000000000000f98 .L0 
     /tmp/ccf9bp1A.s:2381   .rodata.str1.8:00000000000001e0 .LC21
GAS LISTING /tmp/ccf9bp1A.s 			page 95


     /tmp/ccf9bp1A.s:2698   .text:0000000000001014 .L0 
     /tmp/ccf9bp1A.s:2723   .text:000000000000103c .L0 
     /tmp/ccf9bp1A.s:2729   .text:0000000000001050 .L0 
     /tmp/ccf9bp1A.s:2736   .text:0000000000001064 .L0 
     /tmp/ccf9bp1A.s:2743   .text:000000000000107c .L0 
     /tmp/ccf9bp1A.s:80     .text:0000000000000010 .L6
     /tmp/ccf9bp1A.s:162    .text:0000000000000090 .L11
     /tmp/ccf9bp1A.s:176    .text:00000000000000b0 .L8
     /tmp/ccf9bp1A.s:143    .text:0000000000000060 .L10
     /tmp/ccf9bp1A.s:138    .text:0000000000000058 .L13
     /tmp/ccf9bp1A.s:256    .text:0000000000000128 .L17
     /tmp/ccf9bp1A.s:270    .text:0000000000000148 .L14
     /tmp/ccf9bp1A.s:237    .text:00000000000000f8 .L16
     /tmp/ccf9bp1A.s:232    .text:00000000000000f0 .L19
     /tmp/ccf9bp1A.s:331    .text:00000000000001a4 .L20
     /tmp/ccf9bp1A.s:311    .text:0000000000000174 .L22
     /tmp/ccf9bp1A.s:409    .text:0000000000000228 .L28
     /tmp/ccf9bp1A.s:417    .text:000000000000023c .L26
     /tmp/ccf9bp1A.s:427    .text:0000000000000250 .L24
     /tmp/ccf9bp1A.s:379    .text:00000000000001e4 .L30
     /tmp/ccf9bp1A.s:390    .text:00000000000001f8 .L27
     /tmp/ccf9bp1A.s:385    .text:00000000000001f0 .L31
     /tmp/ccf9bp1A.s:508    .text:00000000000002e8 .L40
     /tmp/ccf9bp1A.s:469    .text:0000000000000288 .L37
     /tmp/ccf9bp1A.s:580    .text:0000000000000378 .L49
     /tmp/ccf9bp1A.s:538    .text:0000000000000310 .L46
     /tmp/ccf9bp1A.s:844    .text:0000000000000418 .L61
     /tmp/ccf9bp1A.s:834    .text:0000000000000400 .L59
     /tmp/ccf9bp1A.s:1049   .text:0000000000000550 .L69
     /tmp/ccf9bp1A.s:1243   .text:000000000000062c .L84
     /tmp/ccf9bp1A.s:1280   .text:0000000000000678 .L92
     /tmp/ccf9bp1A.s:1239   .text:0000000000000628 .L82
     /tmp/ccf9bp1A.s:1319   .text:00000000000006bc .L93
     /tmp/ccf9bp1A.s:1309   .text:00000000000006a8 .L96
     /tmp/ccf9bp1A.s:1286   .text:000000000000067c .L81
     /tmp/ccf9bp1A.s:1265   .text:0000000000000664 .L80
     /tmp/ccf9bp1A.s:1333   .text:00000000000006c8 .L85
     /tmp/ccf9bp1A.s:1356   .text:0000000000000704 .L94
     /tmp/ccf9bp1A.s:1328   .text:00000000000006c4 .L88
     /tmp/ccf9bp1A.s:1393   .text:0000000000000748 .L89
     /tmp/ccf9bp1A.s:1383   .text:0000000000000734 .L97
     /tmp/ccf9bp1A.s:1362   .text:0000000000000708 .L87
     /tmp/ccf9bp1A.s:1464   .text:00000000000007c8 .L102
     /tmp/ccf9bp1A.s:1452   .text:00000000000007b8 .L98
     /tmp/ccf9bp1A.s:1541   .text:000000000000082c .L105
     /tmp/ccf9bp1A.s:1555   .text:0000000000000848 .L104
     /tmp/ccf9bp1A.s:1522   .text:0000000000000818 .L109
     /tmp/ccf9bp1A.s:1601   .text:00000000000008a0 .L110
     /tmp/ccf9bp1A.s:1581   .text:0000000000000884 .L103
     /tmp/ccf9bp1A.s:1668   .text:0000000000000910 .L112
     /tmp/ccf9bp1A.s:1656   .text:0000000000000900 .L111
     /tmp/ccf9bp1A.s:1722   .text:0000000000000958 .L119
     /tmp/ccf9bp1A.s:1761   .text:00000000000009a8 .L129
     /tmp/ccf9bp1A.s:1718   .text:0000000000000954 .L117
     /tmp/ccf9bp1A.s:1904   .text:0000000000000ab0 .L120
     /tmp/ccf9bp1A.s:1832   .text:0000000000000a30 .L130
     /tmp/ccf9bp1A.s:1814   .text:0000000000000a08 .L132
GAS LISTING /tmp/ccf9bp1A.s 			page 96


     /tmp/ccf9bp1A.s:1824   .text:0000000000000a1c .L133
     /tmp/ccf9bp1A.s:1774   .text:00000000000009b4 .L124
     /tmp/ccf9bp1A.s:1744   .text:0000000000000990 .L115
     /tmp/ccf9bp1A.s:1893   .text:0000000000000aa8 .L125
     /tmp/ccf9bp1A.s:1875   .text:0000000000000a80 .L134
     /tmp/ccf9bp1A.s:1885   .text:0000000000000a94 .L135
     /tmp/ccf9bp1A.s:1839   .text:0000000000000a34 .L121
     /tmp/ccf9bp1A.s:1766   .text:00000000000009ac .L116
     /tmp/ccf9bp1A.s:2021   .text:0000000000000b5c .L141
     /tmp/ccf9bp1A.s:2204   .text:0000000000000c94 .L146
     /tmp/ccf9bp1A.s:2196   .text:0000000000000c80 .L149
     /tmp/ccf9bp1A.s:2212   .text:0000000000000ca4 .L145
     /tmp/ccf9bp1A.s:2309   .text:0000000000000d40 .L152
     /tmp/ccf9bp1A.s:2355   .text:0000000000000dac .L157
     /tmp/ccf9bp1A.s:2364   .text:0000000000000dc0 .L158
     /tmp/ccf9bp1A.s:2295   .text:0000000000000d2c .L151
     /tmp/ccf9bp1A.s:2483   .text:0000000000000e8c .L160
     /tmp/ccf9bp1A.s:2447   .text:0000000000000e4c .L180
     /tmp/ccf9bp1A.s:2423   .text:0000000000000e18 .L163
     /tmp/ccf9bp1A.s:2493   .text:0000000000000e9c .L164
     /tmp/ccf9bp1A.s:2606   .text:0000000000000f5c .L165
     /tmp/ccf9bp1A.s:2617   .text:0000000000000f70 .L167
     /tmp/ccf9bp1A.s:2563   .text:0000000000000f10 .L169
     /tmp/ccf9bp1A.s:2572   .text:0000000000000f20 .L170
     /tmp/ccf9bp1A.s:2627   .text:0000000000000f84 .L171
     /tmp/ccf9bp1A.s:2637   .text:0000000000000f98 .L173
     /tmp/ccf9bp1A.s:2652   .text:0000000000000fb0 .L174
     /tmp/ccf9bp1A.s:2454   .text:0000000000000e5c .L159
     /tmp/ccf9bp1A.s:2669   .text:0000000000000fd8 .L175
     /tmp/ccf9bp1A.s:2647   .text:0000000000000fac .L176
     /tmp/ccf9bp1A.s:2753   .text:000000000000109c .L184
     /tmp/ccf9bp1A.s:2748   .text:0000000000001094 .L182
     /tmp/ccf9bp1A.s:604    .text._ZN14PeriodicThreadD2Ev:0000000000000010 .L0 
     /tmp/ccf9bp1A.s:646    .text._ZN14PeriodicThreadD0Ev:0000000000000018 .L0 
     /tmp/ccf9bp1A.s:691    .text._ZN12TestPeriodicD2Ev:0000000000000010 .L0 
     /tmp/ccf9bp1A.s:736    .text._ZN12TestPeriodicD0Ev:0000000000000018 .L0 
     /tmp/ccf9bp1A.s:793    .text:0000000000000398 .LEHB0
     /tmp/ccf9bp1A.s:773    .text:000000000000037c .LFB27
     /tmp/ccf9bp1A.s:796    .text:00000000000003a0 .LEHE0
     /tmp/ccf9bp1A.s:800    .text:00000000000003b0 .LEHB1
     /tmp/ccf9bp1A.s:803    .text:00000000000003b8 .LEHE1
     /tmp/ccf9bp1A.s:902    .text:0000000000000468 .L64
     /tmp/ccf9bp1A.s:807    .text:00000000000003bc .LEHB2
     /tmp/ccf9bp1A.s:815    .text:00000000000003d0 .LEHE2
     /tmp/ccf9bp1A.s:819    .text:00000000000003e0 .LEHB3
     /tmp/ccf9bp1A.s:822    .text:00000000000003e8 .LEHE3
     /tmp/ccf9bp1A.s:914    .text:0000000000000484 .L65
     /tmp/ccf9bp1A.s:826    .text:00000000000003ec .LEHB4
     /tmp/ccf9bp1A.s:885    .text:0000000000000450 .LEHE4
     /tmp/ccf9bp1A.s:910    .text:000000000000047c .LEHB5
     /tmp/ccf9bp1A.s:913    .text:0000000000000484 .LEHE5
     /tmp/ccf9bp1A.s:922    .text:0000000000000498 .LEHB6
     /tmp/ccf9bp1A.s:925    .text:00000000000004a0 .LEHE6
     /tmp/ccf9bp1A.s:989    .text:00000000000004bc .LEHB7
     /tmp/ccf9bp1A.s:969    .text:00000000000004a0 .LFB28
     /tmp/ccf9bp1A.s:992    .text:00000000000004c4 .LEHE7
     /tmp/ccf9bp1A.s:996    .text:00000000000004d4 .LEHB8
GAS LISTING /tmp/ccf9bp1A.s 			page 97


     /tmp/ccf9bp1A.s:999    .text:00000000000004dc .LEHE8
     /tmp/ccf9bp1A.s:1092   .text:0000000000000590 .L73
     /tmp/ccf9bp1A.s:1003   .text:00000000000004e0 .LEHB9
     /tmp/ccf9bp1A.s:1011   .text:00000000000004f4 .LEHE9
     /tmp/ccf9bp1A.s:1015   .text:0000000000000504 .LEHB10
     /tmp/ccf9bp1A.s:1018   .text:000000000000050c .LEHE10
     /tmp/ccf9bp1A.s:1104   .text:00000000000005ac .L74
     /tmp/ccf9bp1A.s:1022   .text:0000000000000510 .LEHB11
     /tmp/ccf9bp1A.s:1030   .text:0000000000000524 .LEHE11
     /tmp/ccf9bp1A.s:1035   .text:0000000000000534 .LEHB12
     /tmp/ccf9bp1A.s:1038   .text:000000000000053c .LEHE12
     /tmp/ccf9bp1A.s:1116   .text:00000000000005c8 .L75
     /tmp/ccf9bp1A.s:1042   .text:0000000000000540 .LEHB13
     /tmp/ccf9bp1A.s:1075   .text:0000000000000578 .LEHE13
     /tmp/ccf9bp1A.s:1100   .text:00000000000005a4 .LEHB14
     /tmp/ccf9bp1A.s:1103   .text:00000000000005ac .LEHE14
     /tmp/ccf9bp1A.s:1112   .text:00000000000005c0 .LEHB15
     /tmp/ccf9bp1A.s:1115   .text:00000000000005c8 .LEHE15
     /tmp/ccf9bp1A.s:1124   .text:00000000000005dc .LEHB16
     /tmp/ccf9bp1A.s:1127   .text:00000000000005e4 .LEHE16
     /tmp/ccf9bp1A.s:2004   .text:0000000000000b38 .LEHB17
     /tmp/ccf9bp1A.s:1984   .text:0000000000000b1c .LFB29
     /tmp/ccf9bp1A.s:2007   .text:0000000000000b40 .LEHE17
     /tmp/ccf9bp1A.s:2010   .text:0000000000000b48 .LEHB18
     /tmp/ccf9bp1A.s:2013   .text:0000000000000b50 .LEHE18
     /tmp/ccf9bp1A.s:2026   .text:0000000000000b60 .L143
     /tmp/ccf9bp1A.s:2017   .text:0000000000000b54 .LEHB19
     /tmp/ccf9bp1A.s:2020   .text:0000000000000b5c .LEHE19
     /tmp/ccf9bp1A.s:2033   .text:0000000000000b74 .LEHB20
     /tmp/ccf9bp1A.s:2036   .text:0000000000000b7c .LEHE20
     /tmp/ccf9bp1A.s:7132   .debug_abbrev:0000000000000000 .Ldebug_abbrev0
     /tmp/ccf9bp1A.s:9982   .debug_str:0000000000000965 .LASF245
     /tmp/ccf9bp1A.s:9912   .debug_str:000000000000076b .LASF246
     /tmp/ccf9bp1A.s:9706   .debug_str:000000000000012e .LASF247
     /tmp/ccf9bp1A.s:9600   .debug_ranges:0000000000000000 .Ldebug_ranges0
     /tmp/ccf9bp1A.s:9660   .debug_line:0000000000000000 .Ldebug_line0
     /tmp/ccf9bp1A.s:9714   .debug_str:0000000000000190 .LASF0
     /tmp/ccf9bp1A.s:10146  .debug_str:0000000000000ea4 .LASF1
     /tmp/ccf9bp1A.s:10080  .debug_str:0000000000000cbc .LASF2
     /tmp/ccf9bp1A.s:10052  .debug_str:0000000000000c03 .LASF4
     /tmp/ccf9bp1A.s:10060  .debug_str:0000000000000c40 .LASF3
     /tmp/ccf9bp1A.s:9814   .debug_str:000000000000049c .LASF5
     /tmp/ccf9bp1A.s:9886   .debug_str:000000000000068d .LASF6
     /tmp/ccf9bp1A.s:9860   .debug_str:00000000000005d3 .LASF7
     /tmp/ccf9bp1A.s:9992   .debug_str:0000000000000a47 .LASF8
     /tmp/ccf9bp1A.s:9734   .debug_str:0000000000000218 .LASF9
     /tmp/ccf9bp1A.s:10128  .debug_str:0000000000000e21 .LASF10
     /tmp/ccf9bp1A.s:9822   .debug_str:00000000000004d1 .LASF11
     /tmp/ccf9bp1A.s:9766   .debug_str:0000000000000330 .LASF12
     /tmp/ccf9bp1A.s:9888   .debug_str:0000000000000694 .LASF13
     /tmp/ccf9bp1A.s:9828   .debug_str:00000000000004f6 .LASF14
     /tmp/ccf9bp1A.s:10038  .debug_str:0000000000000bbf .LASF15
     /tmp/ccf9bp1A.s:9830   .debug_str:0000000000000506 .LASF16
     /tmp/ccf9bp1A.s:9800   .debug_str:000000000000043f .LASF17
     /tmp/ccf9bp1A.s:9756   .debug_str:00000000000002d4 .LASF86
     /tmp/ccf9bp1A.s:10026  .debug_str:0000000000000b6f .LASF18
     /tmp/ccf9bp1A.s:9708   .debug_str:0000000000000151 .LASF20
GAS LISTING /tmp/ccf9bp1A.s 			page 98


     /tmp/ccf9bp1A.s:9990   .debug_str:0000000000000a3c .LASF19
     /tmp/ccf9bp1A.s:10104  .debug_str:0000000000000d66 .LASF21
     /tmp/ccf9bp1A.s:10108  .debug_str:0000000000000d8d .LASF22
     /tmp/ccf9bp1A.s:9816   .debug_str:00000000000004a3 .LASF23
     /tmp/ccf9bp1A.s:9790   .debug_str:0000000000000403 .LASF28
     /tmp/ccf9bp1A.s:9908   .debug_str:0000000000000744 .LASF30
     /tmp/ccf9bp1A.s:10182  .debug_str:0000000000000fa7 .LASF24
     /tmp/ccf9bp1A.s:10004  .debug_str:0000000000000aac .LASF25
     /tmp/ccf9bp1A.s:9854   .debug_str:00000000000005af .LASF26
     /tmp/ccf9bp1A.s:9906   .debug_str:0000000000000725 .LASF27
     /tmp/ccf9bp1A.s:9998   .debug_str:0000000000000a87 .LASF29
     /tmp/ccf9bp1A.s:9986   .debug_str:0000000000000a19 .LASF31
     /tmp/ccf9bp1A.s:10174  .debug_str:0000000000000f74 .LASF32
     /tmp/ccf9bp1A.s:9960   .debug_str:00000000000008d4 .LASF33
     /tmp/ccf9bp1A.s:9758   .debug_str:00000000000002da .LASF34
     /tmp/ccf9bp1A.s:9918   .debug_str:0000000000000786 .LASF35
     /tmp/ccf9bp1A.s:9880   .debug_str:0000000000000665 .LASF36
     /tmp/ccf9bp1A.s:10098  .debug_str:0000000000000d31 .LASF37
     /tmp/ccf9bp1A.s:10166  .debug_str:0000000000000f38 .LASF40
     /tmp/ccf9bp1A.s:10126  .debug_str:0000000000000e0c .LASF42
     /tmp/ccf9bp1A.s:10022  .debug_str:0000000000000b5a .LASF38
     /tmp/ccf9bp1A.s:9730   .debug_str:00000000000001f7 .LASF39
     /tmp/ccf9bp1A.s:9784   .debug_str:00000000000003db .LASF41
     /tmp/ccf9bp1A.s:9836   .debug_str:000000000000052c .LASF43
     /tmp/ccf9bp1A.s:9812   .debug_str:0000000000000495 .LASF44
     /tmp/ccf9bp1A.s:9726   .debug_str:00000000000001d9 .LASF45
     /tmp/ccf9bp1A.s:10148  .debug_str:0000000000000eb7 .LASF46
     /tmp/ccf9bp1A.s:10034  .debug_str:0000000000000b92 .LASF47
     /tmp/ccf9bp1A.s:10028  .debug_str:0000000000000b7a .LASF48
     /tmp/ccf9bp1A.s:9750   .debug_str:00000000000002a4 .LASF49
     /tmp/ccf9bp1A.s:9984   .debug_str:0000000000000a11 .LASF50
     /tmp/ccf9bp1A.s:9666   .debug_str:0000000000000015 .LASF51
     /tmp/ccf9bp1A.s:9904   .debug_str:000000000000071d .LASF52
     /tmp/ccf9bp1A.s:9870   .debug_str:000000000000060e .LASF53
     /tmp/ccf9bp1A.s:10092  .debug_str:0000000000000d15 .LASF54
     /tmp/ccf9bp1A.s:9946   .debug_str:000000000000085f .LASF55
     /tmp/ccf9bp1A.s:9862   .debug_str:00000000000005e6 .LASF56
     /tmp/ccf9bp1A.s:10078  .debug_str:0000000000000ca9 .LASF57
     /tmp/ccf9bp1A.s:9928   .debug_str:00000000000007f3 .LASF58
     /tmp/ccf9bp1A.s:10158  .debug_str:0000000000000ef6 .LASF59
     /tmp/ccf9bp1A.s:10062  .debug_str:0000000000000c52 .LASF60
     /tmp/ccf9bp1A.s:9976   .debug_str:0000000000000936 .LASF61
     /tmp/ccf9bp1A.s:10008  .debug_str:0000000000000ad9 .LASF62
     /tmp/ccf9bp1A.s:9764   .debug_str:0000000000000318 .LASF63
     /tmp/ccf9bp1A.s:9728   .debug_str:00000000000001ec .LASF64
     /tmp/ccf9bp1A.s:10176  .debug_str:0000000000000f81 .LASF65
     /tmp/ccf9bp1A.s:9826   .debug_str:00000000000004ec .LASF66
     /tmp/ccf9bp1A.s:9794   .debug_str:0000000000000418 .LASF67
     /tmp/ccf9bp1A.s:10050  .debug_str:0000000000000bf9 .LASF68
     /tmp/ccf9bp1A.s:9876   .debug_str:000000000000064a .LASF69
     /tmp/ccf9bp1A.s:9996   .debug_str:0000000000000a7c .LASF70
     /tmp/ccf9bp1A.s:10120  .debug_str:0000000000000dd7 .LASF71
     /tmp/ccf9bp1A.s:10014  .debug_str:0000000000000b17 .LASF72
     /tmp/ccf9bp1A.s:9772   .debug_str:000000000000036d .LASF73
     /tmp/ccf9bp1A.s:9716   .debug_str:000000000000019d .LASF74
     /tmp/ccf9bp1A.s:9994   .debug_str:0000000000000a5a .LASF75
     /tmp/ccf9bp1A.s:9688   .debug_str:000000000000008d .LASF76
GAS LISTING /tmp/ccf9bp1A.s 			page 99


     /tmp/ccf9bp1A.s:10076  .debug_str:0000000000000ca1 .LASF77
     /tmp/ccf9bp1A.s:9948   .debug_str:0000000000000872 .LASF78
     /tmp/ccf9bp1A.s:9978   .debug_str:0000000000000948 .LASF79
     /tmp/ccf9bp1A.s:9864   .debug_str:00000000000005ed .LASF80
     /tmp/ccf9bp1A.s:10136  .debug_str:0000000000000e56 .LASF81
     /tmp/ccf9bp1A.s:9692   .debug_str:00000000000000a4 .LASF82
     /tmp/ccf9bp1A.s:9778   .debug_str:00000000000003a4 .LASF83
     /tmp/ccf9bp1A.s:9742   .debug_str:000000000000026d .LASF84
     /tmp/ccf9bp1A.s:9856   .debug_str:00000000000005c1 .LASF85
     /tmp/ccf9bp1A.s:9736   .debug_str:0000000000000228 .LASF248
     /tmp/ccf9bp1A.s:9914   .debug_str:0000000000000779 .LASF87
     /tmp/ccf9bp1A.s:9954   .debug_str:00000000000008a1 .LASF88
     /tmp/ccf9bp1A.s:10064  .debug_str:0000000000000c58 .LASF89
     /tmp/ccf9bp1A.s:9852   .debug_str:00000000000005a6 .LASF90
     /tmp/ccf9bp1A.s:9846   .debug_str:0000000000000580 .LASF91
     /tmp/ccf9bp1A.s:10178  .debug_str:0000000000000f99 .LASF92
     /tmp/ccf9bp1A.s:9988   .debug_str:0000000000000a34 .LASF138
     /tmp/ccf9bp1A.s:9798   .debug_str:0000000000000439 .LASF93
     /tmp/ccf9bp1A.s:9920   .debug_str:00000000000007a1 .LASF249
     /tmp/ccf9bp1A.s:10130  .debug_str:0000000000000e2f .LASF250
     /tmp/ccf9bp1A.s:9832   .debug_str:000000000000051c .LASF94
     /tmp/ccf9bp1A.s:9824   .debug_str:00000000000004e0 .LASF96
     /tmp/ccf9bp1A.s:10046  .debug_str:0000000000000be9 .LASF95
     /tmp/ccf9bp1A.s:9872   .debug_str:0000000000000622 .LASF97
     /tmp/ccf9bp1A.s:9898   .debug_str:00000000000006f2 .LASF98
     /tmp/ccf9bp1A.s:9848   .debug_str:0000000000000588 .LASF99
     /tmp/ccf9bp1A.s:10110  .debug_str:0000000000000d97 .LASF100
     /tmp/ccf9bp1A.s:9746   .debug_str:0000000000000287 .LASF101
     /tmp/ccf9bp1A.s:10160  .debug_str:0000000000000f08 .LASF102
     /tmp/ccf9bp1A.s:10088  .debug_str:0000000000000cf8 .LASF103
     /tmp/ccf9bp1A.s:9748   .debug_str:0000000000000297 .LASF108
     /tmp/ccf9bp1A.s:9874   .debug_str:0000000000000632 .LASF110
     /tmp/ccf9bp1A.s:9966   .debug_str:0000000000000903 .LASF104
     /tmp/ccf9bp1A.s:9732   .debug_str:000000000000020c .LASF105
     /tmp/ccf9bp1A.s:9962   .debug_str:00000000000008ee .LASF106
     /tmp/ccf9bp1A.s:10000  .debug_str:0000000000000a93 .LASF107
     /tmp/ccf9bp1A.s:9970   .debug_str:000000000000091c .LASF109
     /tmp/ccf9bp1A.s:9740   .debug_str:000000000000025a .LASF111
     /tmp/ccf9bp1A.s:10154  .debug_str:0000000000000edf .LASF112
     /tmp/ccf9bp1A.s:9696   .debug_str:00000000000000cf .LASF113
     /tmp/ccf9bp1A.s:9894   .debug_str:00000000000006c8 .LASF114
     /tmp/ccf9bp1A.s:9842   .debug_str:000000000000055e .LASF115
     /tmp/ccf9bp1A.s:10006  .debug_str:0000000000000aca .LASF116
     /tmp/ccf9bp1A.s:9926   .debug_str:00000000000007d9 .LASF117
     /tmp/ccf9bp1A.s:10086  .debug_str:0000000000000cea .LASF118
     /tmp/ccf9bp1A.s:10090  .debug_str:0000000000000d09 .LASF119
     /tmp/ccf9bp1A.s:10016  .debug_str:0000000000000b26 .LASF120
     /tmp/ccf9bp1A.s:9672   .debug_str:0000000000000039 .LASF121
     /tmp/ccf9bp1A.s:9858   .debug_str:00000000000005c6 .LASF126
     /tmp/ccf9bp1A.s:10012  .debug_str:0000000000000b0c .LASF122
     /tmp/ccf9bp1A.s:10112  .debug_str:0000000000000d9d .LASF123
     /tmp/ccf9bp1A.s:9850   .debug_str:000000000000059b .LASF124
     /tmp/ccf9bp1A.s:10134  .debug_str:0000000000000e40 .LASF125
     /tmp/ccf9bp1A.s:10116  .debug_str:0000000000000db9 .LASF127
     /tmp/ccf9bp1A.s:9754   .debug_str:00000000000002ca .LASF128
     /tmp/ccf9bp1A.s:10068  .debug_str:0000000000000c67 .LASF129
     /tmp/ccf9bp1A.s:10124  .debug_str:0000000000000dfe .LASF130
GAS LISTING /tmp/ccf9bp1A.s 			page 100


     /tmp/ccf9bp1A.s:9704   .debug_str:0000000000000106 .LASF132
     /tmp/ccf9bp1A.s:9840   .debug_str:0000000000000549 .LASF131
     /tmp/ccf9bp1A.s:9738   .debug_str:000000000000022e .LASF133
     /tmp/ccf9bp1A.s:9932   .debug_str:0000000000000800 .LASF160
     /tmp/ccf9bp1A.s:10172  .debug_str:0000000000000f63 .LASF251
     /tmp/ccf9bp1A.s:10066  .debug_str:0000000000000c62 .LASF134
     /tmp/ccf9bp1A.s:9964   .debug_str:00000000000008fe .LASF135
     /tmp/ccf9bp1A.s:9720   .debug_str:00000000000001bb .LASF136
     /tmp/ccf9bp1A.s:10114  .debug_str:0000000000000db3 .LASF137
     /tmp/ccf9bp1A.s:9952   .debug_str:0000000000000899 .LASF139
     /tmp/ccf9bp1A.s:9922   .debug_str:00000000000007b9 .LASF140
     /tmp/ccf9bp1A.s:9806   .debug_str:0000000000000470 .LASF141
     /tmp/ccf9bp1A.s:10094  .debug_str:0000000000000d1c .LASF142
     /tmp/ccf9bp1A.s:10040  .debug_str:0000000000000bcb .LASF143
     /tmp/ccf9bp1A.s:9702   .debug_str:00000000000000ff .LASF144
     /tmp/ccf9bp1A.s:9700   .debug_str:00000000000000f8 .LASF145
     /tmp/ccf9bp1A.s:9792   .debug_str:0000000000000413 .LASF146
     /tmp/ccf9bp1A.s:10100  .debug_str:0000000000000d4b .LASF147
     /tmp/ccf9bp1A.s:9882   .debug_str:0000000000000672 .LASF148
     /tmp/ccf9bp1A.s:10058  .debug_str:0000000000000c32 .LASF149
     /tmp/ccf9bp1A.s:9866   .debug_str:0000000000000600 .LASF150
     /tmp/ccf9bp1A.s:9774   .debug_str:0000000000000389 .LASF151
     /tmp/ccf9bp1A.s:9950   .debug_str:0000000000000881 .LASF152
     /tmp/ccf9bp1A.s:10036  .debug_str:0000000000000ba6 .LASF153
     /tmp/ccf9bp1A.s:9686   .debug_str:0000000000000077 .LASF252
     /tmp/ccf9bp1A.s:9712   .debug_str:000000000000017d .LASF159
     /tmp/ccf9bp1A.s:10010  .debug_str:0000000000000ae4 .LASF253
     /tmp/ccf9bp1A.s:9938   .debug_str:000000000000082c .LASF154
     /tmp/ccf9bp1A.s:9958   .debug_str:00000000000008be .LASF164
     /tmp/ccf9bp1A.s:10122  .debug_str:0000000000000def .LASF155
     /tmp/ccf9bp1A.s:9890   .debug_str:00000000000006a4 .LASF156
     /tmp/ccf9bp1A.s:9896   .debug_str:00000000000006d7 .LASF157
     /tmp/ccf9bp1A.s:9762   .debug_str:0000000000000300 .LASF158
     /tmp/ccf9bp1A.s:10138  .debug_str:0000000000000e68 .LASF254
     /tmp/ccf9bp1A.s:9770   .debug_str:000000000000034f .LASF161
     /tmp/ccf9bp1A.s:9802   .debug_str:0000000000000455 .LASF162
     /tmp/ccf9bp1A.s:9722   .debug_str:00000000000001c3 .LASF163
     /tmp/ccf9bp1A.s:10056  .debug_str:0000000000000c1a .LASF165
     /tmp/ccf9bp1A.s:9868   .debug_str:0000000000000607 .LASF255
     /tmp/ccf9bp1A.s:10164  .debug_str:0000000000000f27 .LASF256
     /tmp/ccf9bp1A.s:10020  .debug_str:0000000000000b47 .LASF233
     /tmp/ccf9bp1A.s:9974   .debug_str:0000000000000931 .LASF166
     /tmp/ccf9bp1A.s:10048  .debug_str:0000000000000bef .LASF167
     /tmp/ccf9bp1A.s:9684   .debug_str:0000000000000061 .LASF168
     /tmp/ccf9bp1A.s:716    .text._ZN12TestPeriodicD0Ev:0000000000000000 .LFB56
     /tmp/ccf9bp1A.s:759    .text._ZN12TestPeriodicD0Ev:000000000000004c .LFE56
     /tmp/ccf9bp1A.s:8633   .debug_loc:0000000000000000 .LLST16
     /tmp/ccf9bp1A.s:732    .text._ZN12TestPeriodicD0Ev:0000000000000018 .LBB29
     /tmp/ccf9bp1A.s:742    .text._ZN12TestPeriodicD0Ev:000000000000002c .LBE29
     /tmp/ccf9bp1A.s:8651   .debug_loc:000000000000004c .LLST17
     /tmp/ccf9bp1A.s:733    .text._ZN12TestPeriodicD0Ev:0000000000000018 .LBB30
     /tmp/ccf9bp1A.s:741    .text._ZN12TestPeriodicD0Ev:000000000000002c .LBE30
     /tmp/ccf9bp1A.s:739    .text._ZN12TestPeriodicD0Ev:000000000000002c .LVL68
     /tmp/ccf9bp1A.s:746    .text._ZN12TestPeriodicD0Ev:0000000000000038 .LVL69
     /tmp/ccf9bp1A.s:10070  .debug_str:0000000000000c73 .LASF169
     /tmp/ccf9bp1A.s:674    .text._ZN12TestPeriodicD2Ev:0000000000000000 .LFB54
     /tmp/ccf9bp1A.s:707    .text._ZN12TestPeriodicD2Ev:0000000000000034 .LFE54
GAS LISTING /tmp/ccf9bp1A.s 			page 101


     /tmp/ccf9bp1A.s:8662   .debug_loc:0000000000000082 .LLST14
     /tmp/ccf9bp1A.s:688    .text._ZN12TestPeriodicD2Ev:0000000000000010 .LBB27
     /tmp/ccf9bp1A.s:696    .text._ZN12TestPeriodicD2Ev:0000000000000024 .LBE27
     /tmp/ccf9bp1A.s:8676   .debug_loc:00000000000000bb .LLST15
     /tmp/ccf9bp1A.s:694    .text._ZN12TestPeriodicD2Ev:0000000000000024 .LVL65
     /tmp/ccf9bp1A.s:10044  .debug_str:0000000000000be0 .LASF170
     /tmp/ccf9bp1A.s:9698   .debug_str:00000000000000eb .LASF174
     /tmp/ccf9bp1A.s:2709   .text:0000000000001028 .LFB52
     /tmp/ccf9bp1A.s:2778   .text:00000000000010cc .LFE52
     /tmp/ccf9bp1A.s:10030  .debug_str:0000000000000b82 .LASF171
     /tmp/ccf9bp1A.s:10032  .debug_str:0000000000000b8a .LASF172
     /tmp/ccf9bp1A.s:2725   .text:000000000000104c .LVL315
     /tmp/ccf9bp1A.s:2731   .text:0000000000001060 .LVL316
     /tmp/ccf9bp1A.s:2739   .text:0000000000001078 .LVL317
     /tmp/ccf9bp1A.s:2746   .text:0000000000001090 .LVL318
     /tmp/ccf9bp1A.s:2752   .text:000000000000109c .LVL319
     /tmp/ccf9bp1A.s:2759   .text:00000000000010a8 .LVL320
     /tmp/ccf9bp1A.s:2765   .text:00000000000010b8 .LVL321
     /tmp/ccf9bp1A.s:10168  .debug_str:0000000000000f41 .LASF173
     /tmp/ccf9bp1A.s:10096  .debug_str:0000000000000d22 .LASF175
     /tmp/ccf9bp1A.s:517    .text:00000000000002ec .LFB51
     /tmp/ccf9bp1A.s:583    .text:000000000000037c .LFE51
     /tmp/ccf9bp1A.s:8690   .debug_loc:00000000000000f4 .LLST10
     /tmp/ccf9bp1A.s:544    .text:0000000000000324 .LVL53
     /tmp/ccf9bp1A.s:562    .text:0000000000000354 .LVL54
     /tmp/ccf9bp1A.s:9838   .debug_str:000000000000053f .LASF176
     /tmp/ccf9bp1A.s:10150  .debug_str:0000000000000ebf .LASF177
     /tmp/ccf9bp1A.s:448    .text:0000000000000264 .LFB50
     /tmp/ccf9bp1A.s:511    .text:00000000000002ec .LFE50
     /tmp/ccf9bp1A.s:8708   .debug_loc:0000000000000140 .LLST9
     /tmp/ccf9bp1A.s:475    .text:000000000000029c .LVL47
     /tmp/ccf9bp1A.s:485    .text:00000000000002b8 .LVL48
     /tmp/ccf9bp1A.s:490    .text:00000000000002c4 .LVL49
     /tmp/ccf9bp1A.s:9752   .debug_str:00000000000002b8 .LASF178
     /tmp/ccf9bp1A.s:10162  .debug_str:0000000000000f10 .LASF179
     /tmp/ccf9bp1A.s:2388   .text:0000000000000dd4 .LFB49
     /tmp/ccf9bp1A.s:2703   .text:0000000000001028 .LFE49
     /tmp/ccf9bp1A.s:9878   .debug_str:0000000000000660 .LASF180
     /tmp/ccf9bp1A.s:9674   .debug_str:0000000000000044 .LASF181
     /tmp/ccf9bp1A.s:8726   .debug_loc:000000000000018c .LLST60
     /tmp/ccf9bp1A.s:9676   .debug_str:0000000000000049 .LASF182
     /tmp/ccf9bp1A.s:8737   .debug_loc:00000000000001c2 .LLST61
     /tmp/ccf9bp1A.s:8756   .debug_loc:000000000000021e .LLST62
     /tmp/ccf9bp1A.s:8777   .debug_loc:000000000000027e .LLST63
     /tmp/ccf9bp1A.s:8798   .debug_loc:00000000000002de .LLST64
     /tmp/ccf9bp1A.s:8809   .debug_loc:0000000000000314 .LLST65
     /tmp/ccf9bp1A.s:9724   .debug_str:00000000000001d3 .LASF183
     /tmp/ccf9bp1A.s:8840   .debug_loc:000000000000039d .LLST66
     /tmp/ccf9bp1A.s:9668   .debug_str:0000000000000029 .LASF184
     /tmp/ccf9bp1A.s:8851   .debug_loc:00000000000003d3 .LLST67
     /tmp/ccf9bp1A.s:10140  .debug_str:0000000000000e92 .LASF185
     /tmp/ccf9bp1A.s:8862   .debug_loc:0000000000000409 .LLST68
     /tmp/ccf9bp1A.s:9678   .debug_str:000000000000004e .LASF186
     /tmp/ccf9bp1A.s:8873   .debug_loc:000000000000043f .LLST69
     /tmp/ccf9bp1A.s:9680   .debug_str:0000000000000053 .LASF187
     /tmp/ccf9bp1A.s:8888   .debug_loc:0000000000000488 .LLST70
     /tmp/ccf9bp1A.s:10142  .debug_str:0000000000000e98 .LASF188
GAS LISTING /tmp/ccf9bp1A.s 			page 102


     /tmp/ccf9bp1A.s:8911   .debug_loc:00000000000004f7 .LLST71
     /tmp/ccf9bp1A.s:10144  .debug_str:0000000000000e9e .LASF189
     /tmp/ccf9bp1A.s:8922   .debug_loc:000000000000052d .LLST72
     /tmp/ccf9bp1A.s:2420   .text:0000000000000e14 .LBB59
     /tmp/ccf9bp1A.s:2455   .text:0000000000000e5c .LBE59
     /tmp/ccf9bp1A.s:8937   .debug_loc:0000000000000576 .LLST73
     /tmp/ccf9bp1A.s:2434   .text:0000000000000e30 .LVL266
     /tmp/ccf9bp1A.s:2452   .text:0000000000000e5c .LVL269
     /tmp/ccf9bp1A.s:2667   .text:0000000000000fd4 .LVL308
     /tmp/ccf9bp1A.s:2419   .text:0000000000000e14 .LVL264
     /tmp/ccf9bp1A.s:2492   .text:0000000000000e9c .LVL271
     /tmp/ccf9bp1A.s:2498   .text:0000000000000ea8 .LVL272
     /tmp/ccf9bp1A.s:2505   .text:0000000000000eb8 .LVL274
     /tmp/ccf9bp1A.s:2513   .text:0000000000000ec8 .LVL277
     /tmp/ccf9bp1A.s:2562   .text:0000000000000f10 .LVL285
     /tmp/ccf9bp1A.s:2571   .text:0000000000000f20 .LVL286
     /tmp/ccf9bp1A.s:2577   .text:0000000000000f2c .LVL287
     /tmp/ccf9bp1A.s:2585   .text:0000000000000f3c .LVL290
     /tmp/ccf9bp1A.s:2613   .text:0000000000000f6c .LVL295
     /tmp/ccf9bp1A.s:2623   .text:0000000000000f80 .LVL298
     /tmp/ccf9bp1A.s:2633   .text:0000000000000f94 .LVL301
     /tmp/ccf9bp1A.s:2643   .text:0000000000000fa8 .LVL304
     /tmp/ccf9bp1A.s:2675   .text:0000000000000fe4 .LVL309
     /tmp/ccf9bp1A.s:2680   .text:0000000000000ff0 .LVL310
     /tmp/ccf9bp1A.s:2685   .text:0000000000000ffc .LVL311
     /tmp/ccf9bp1A.s:2690   .text:0000000000001008 .LVL312
     /tmp/ccf9bp1A.s:2695   .text:0000000000001014 .LVL313
     /tmp/ccf9bp1A.s:2700   .text:0000000000001024 .LVL314
     /tmp/ccf9bp1A.s:10082  .debug_str:0000000000000cca .LASF190
     /tmp/ccf9bp1A.s:9804   .debug_str:000000000000045a .LASF191
     /tmp/ccf9bp1A.s:2254   .text:0000000000000ccc .LFB48
     /tmp/ccf9bp1A.s:2374   .text:0000000000000dd4 .LFE48
     /tmp/ccf9bp1A.s:9718   .debug_str:00000000000001b2 .LASF192
     /tmp/ccf9bp1A.s:8952   .debug_loc:00000000000005bf .LLST56
     /tmp/ccf9bp1A.s:8965   .debug_loc:00000000000005f7 .LLST57
     /tmp/ccf9bp1A.s:9942   .debug_str:0000000000000843 .LASF193
     /tmp/ccf9bp1A.s:8980   .debug_loc:0000000000000640 .LLST58
     /tmp/ccf9bp1A.s:10024  .debug_str:0000000000000b63 .LASF194
     /tmp/ccf9bp1A.s:8987   .debug_loc:0000000000000663 .LLST59
     /tmp/ccf9bp1A.s:2271   .text:0000000000000cf0 .LVL244
     /tmp/ccf9bp1A.s:2285   .text:0000000000000d18 .LVL247
     /tmp/ccf9bp1A.s:2293   .text:0000000000000d2c .LVL249
     /tmp/ccf9bp1A.s:2331   .text:0000000000000d74 .LVL254
     /tmp/ccf9bp1A.s:2340   .text:0000000000000d88 .LVL256
     /tmp/ccf9bp1A.s:2348   .text:0000000000000d98 .LVL258
     /tmp/ccf9bp1A.s:2353   .text:0000000000000da8 .LVL259
     /tmp/ccf9bp1A.s:2360   .text:0000000000000dbc .LVL260
     /tmp/ccf9bp1A.s:2370   .text:0000000000000dd0 .LVL263
     /tmp/ccf9bp1A.s:9796   .debug_str:000000000000042e .LASF195
     /tmp/ccf9bp1A.s:10072  .debug_str:0000000000000c89 .LASF196
     /tmp/ccf9bp1A.s:2075   .text:0000000000000b7c .LFB47
     /tmp/ccf9bp1A.s:2240   .text:0000000000000ccc .LFE47
     /tmp/ccf9bp1A.s:8998   .debug_loc:0000000000000699 .LLST50
     /tmp/ccf9bp1A.s:9005   .debug_loc:00000000000006bc .LLST51
     /tmp/ccf9bp1A.s:9016   .debug_loc:00000000000006f2 .LLST52
     /tmp/ccf9bp1A.s:9027   .debug_loc:0000000000000728 .LLST53
     /tmp/ccf9bp1A.s:9038   .debug_loc:000000000000075e .LLST54
GAS LISTING /tmp/ccf9bp1A.s 			page 103


     /tmp/ccf9bp1A.s:9049   .debug_loc:0000000000000794 .LLST55
     /tmp/ccf9bp1A.s:2102   .text:0000000000000bb4 .LVL212
     /tmp/ccf9bp1A.s:2107   .text:0000000000000bc0 .LVL213
     /tmp/ccf9bp1A.s:2118   .text:0000000000000bd8 .LVL215
     /tmp/ccf9bp1A.s:2126   .text:0000000000000be8 .LVL218
     /tmp/ccf9bp1A.s:2134   .text:0000000000000bf8 .LVL221
     /tmp/ccf9bp1A.s:2143   .text:0000000000000c0c .LVL224
     /tmp/ccf9bp1A.s:2151   .text:0000000000000c1c .LVL227
     /tmp/ccf9bp1A.s:2168   .text:0000000000000c40 .LVL229
     /tmp/ccf9bp1A.s:2173   .text:0000000000000c4c .LVL230
     /tmp/ccf9bp1A.s:2178   .text:0000000000000c58 .LVL231
     /tmp/ccf9bp1A.s:2183   .text:0000000000000c64 .LVL232
     /tmp/ccf9bp1A.s:2188   .text:0000000000000c70 .LVL233
     /tmp/ccf9bp1A.s:2195   .text:0000000000000c80 .LVL234
     /tmp/ccf9bp1A.s:2201   .text:0000000000000c90 .LVL235
     /tmp/ccf9bp1A.s:2210   .text:0000000000000ca4 .LVL238
     /tmp/ccf9bp1A.s:291    .text:000000000000015c .LFB46
     /tmp/ccf9bp1A.s:346    .text:00000000000001b8 .LFE46
     /tmp/ccf9bp1A.s:9064   .debug_loc:00000000000007dd .LLST5
     /tmp/ccf9bp1A.s:307    .text:0000000000000170 .LBB22
     /tmp/ccf9bp1A.s:332    .text:00000000000001a4 .LBE22
     /tmp/ccf9bp1A.s:9078   .debug_loc:0000000000000816 .LLST6
     /tmp/ccf9bp1A.s:320    .text:0000000000000190 .LVL29
     /tmp/ccf9bp1A.s:325    .text:000000000000019c .LVL30
     /tmp/ccf9bp1A.s:9786   .debug_str:00000000000003e2 .LASF197
     /tmp/ccf9bp1A.s:1941   .text:0000000000000adc .LFB44
     /tmp/ccf9bp1A.s:1976   .text:0000000000000b1c .LFE44
     /tmp/ccf9bp1A.s:9094   .debug_loc:0000000000000860 .LLST47
     /tmp/ccf9bp1A.s:9112   .debug_loc:00000000000008ac .LLST48
     /tmp/ccf9bp1A.s:1959   .text:0000000000000afc .LVL204
     /tmp/ccf9bp1A.s:9760   .debug_str:00000000000002e8 .LASF198
     /tmp/ccf9bp1A.s:627    .text._ZN14PeriodicThreadD0Ev:0000000000000000 .LFB43
     /tmp/ccf9bp1A.s:667    .text._ZN14PeriodicThreadD0Ev:000000000000004c .LFE43
     /tmp/ccf9bp1A.s:9126   .debug_loc:00000000000008e5 .LLST12
     /tmp/ccf9bp1A.s:643    .text._ZN14PeriodicThreadD0Ev:0000000000000018 .LBB25
     /tmp/ccf9bp1A.s:651    .text._ZN14PeriodicThreadD0Ev:000000000000002c .LBE25
     /tmp/ccf9bp1A.s:9144   .debug_loc:0000000000000931 .LLST13
     /tmp/ccf9bp1A.s:649    .text._ZN14PeriodicThreadD0Ev:000000000000002c .LVL60
     /tmp/ccf9bp1A.s:654    .text._ZN14PeriodicThreadD0Ev:0000000000000038 .LVL61
     /tmp/ccf9bp1A.s:10170  .debug_str:0000000000000f4b .LASF199
     /tmp/ccf9bp1A.s:590    .text._ZN14PeriodicThreadD2Ev:0000000000000000 .LFB41
     /tmp/ccf9bp1A.s:618    .text._ZN14PeriodicThreadD2Ev:0000000000000034 .LFE41
     /tmp/ccf9bp1A.s:9155   .debug_loc:0000000000000967 .LLST11
     /tmp/ccf9bp1A.s:607    .text._ZN14PeriodicThreadD2Ev:0000000000000024 .LVL57
     /tmp/ccf9bp1A.s:10074  .debug_str:0000000000000c99 .LASF200
     /tmp/ccf9bp1A.s:9818   .debug_str:00000000000004b9 .LASF201
     /tmp/ccf9bp1A.s:2815   .text:00000000000010f4 .LFB38
     /tmp/ccf9bp1A.s:2840   .text:000000000000111c .LFE38
     /tmp/ccf9bp1A.s:2829   .text:000000000000110c .LVL323
     /tmp/ccf9bp1A.s:10106  .debug_str:0000000000000d7e .LASF202
     /tmp/ccf9bp1A.s:9710   .debug_str:0000000000000169 .LASF203
     /tmp/ccf9bp1A.s:2784   .text:00000000000010cc .LFB37
     /tmp/ccf9bp1A.s:2809   .text:00000000000010f4 .LFE37
     /tmp/ccf9bp1A.s:2798   .text:00000000000010e4 .LVL322
     /tmp/ccf9bp1A.s:10102  .debug_str:0000000000000d50 .LASF216
     /tmp/ccf9bp1A.s:9902   .debug_str:0000000000000702 .LASF257
     /tmp/ccf9bp1A.s:1918   .text:0000000000000ac4 .LFB36
GAS LISTING /tmp/ccf9bp1A.s 			page 104


     /tmp/ccf9bp1A.s:1935   .text:0000000000000adc .LFE36
     /tmp/ccf9bp1A.s:9936   .debug_str:000000000000081e .LASF204
     /tmp/ccf9bp1A.s:9780   .debug_str:00000000000003b7 .LASF205
     /tmp/ccf9bp1A.s:1693   .text:0000000000000924 .LFB35
     /tmp/ccf9bp1A.s:1912   .text:0000000000000ac4 .LFE35
     /tmp/ccf9bp1A.s:9744   .debug_str:0000000000000281 .LASF206
     /tmp/ccf9bp1A.s:9169   .debug_loc:00000000000009a0 .LLST41
     /tmp/ccf9bp1A.s:1713   .text:000000000000094c .LBB50
     /tmp/ccf9bp1A.s:1745   .text:0000000000000990 .LBE50
     /tmp/ccf9bp1A.s:9180   .debug_loc:00000000000009d6 .LLST42
     /tmp/ccf9bp1A.s:1730   .text:000000000000096c .LVL178
     /tmp/ccf9bp1A.s:1742   .text:0000000000000990 .LVL179
     /tmp/ccf9bp1A.s:1771   .text:00000000000009b0 .LBB52
     /tmp/ccf9bp1A.s:1834   .text:0000000000000a30 .LBE52
     /tmp/ccf9bp1A.s:9191   .debug_loc:0000000000000a0c .LLST43
     /tmp/ccf9bp1A.s:9900   .debug_str:00000000000006fb .LASF207
     /tmp/ccf9bp1A.s:9202   .debug_loc:0000000000000a42 .LLST44
     /tmp/ccf9bp1A.s:1787   .text:00000000000009d4 .LVL183
     /tmp/ccf9bp1A.s:1798   .text:00000000000009ec .LVL185
     /tmp/ccf9bp1A.s:1821   .text:0000000000000a18 .LVL189
     /tmp/ccf9bp1A.s:1829   .text:0000000000000a2c .LVL190
     /tmp/ccf9bp1A.s:1835   .text:0000000000000a30 .LBB55
     /tmp/ccf9bp1A.s:1895   .text:0000000000000aa8 .LBE55
     /tmp/ccf9bp1A.s:9213   .debug_loc:0000000000000a78 .LLST45
     /tmp/ccf9bp1A.s:9224   .debug_loc:0000000000000aae .LLST46
     /tmp/ccf9bp1A.s:1851   .text:0000000000000a54 .LVL192
     /tmp/ccf9bp1A.s:1859   .text:0000000000000a64 .LVL194
     /tmp/ccf9bp1A.s:1882   .text:0000000000000a90 .LVL198
     /tmp/ccf9bp1A.s:1890   .text:0000000000000aa4 .LVL199
     /tmp/ccf9bp1A.s:1712   .text:000000000000094c .LVL175
     /tmp/ccf9bp1A.s:1909   .text:0000000000000ac0 .LVL202
     /tmp/ccf9bp1A.s:9844   .debug_str:0000000000000578 .LASF208
     /tmp/ccf9bp1A.s:10132  .debug_str:0000000000000e34 .LASF209
     /tmp/ccf9bp1A.s:1621   .text:00000000000008b4 .LFB34
     /tmp/ccf9bp1A.s:1679   .text:0000000000000924 .LFE34
     /tmp/ccf9bp1A.s:9235   .debug_loc:0000000000000ae4 .LLST39
     /tmp/ccf9bp1A.s:9248   .debug_loc:0000000000000b1c .LLST40
     /tmp/ccf9bp1A.s:1636   .text:00000000000008d4 .LVL166
     /tmp/ccf9bp1A.s:1641   .text:00000000000008e0 .LVL167
     /tmp/ccf9bp1A.s:1647   .text:00000000000008ec .LVL169
     /tmp/ccf9bp1A.s:1655   .text:0000000000000900 .LVL171
     /tmp/ccf9bp1A.s:1675   .text:0000000000000920 .LVL174
     /tmp/ccf9bp1A.s:9944   .debug_str:000000000000084d .LASF210
     /tmp/ccf9bp1A.s:9934   .debug_str:0000000000000807 .LASF211
     /tmp/ccf9bp1A.s:1485   .text:00000000000007dc .LFB33
     /tmp/ccf9bp1A.s:1610   .text:00000000000008b4 .LFE33
     /tmp/ccf9bp1A.s:9275   .debug_loc:0000000000000b62 .LLST35
     /tmp/ccf9bp1A.s:9287   .debug_loc:0000000000000b99 .LLST36
     /tmp/ccf9bp1A.s:9303   .debug_loc:0000000000000be3 .LLST37
     /tmp/ccf9bp1A.s:9319   .debug_loc:0000000000000c2d .LLST38
     /tmp/ccf9bp1A.s:1551   .text:0000000000000844 .LVL156
     /tmp/ccf9bp1A.s:1506   .text:0000000000000808 .LVL151
     /tmp/ccf9bp1A.s:1562   .text:0000000000000854 .LVL158
     /tmp/ccf9bp1A.s:1567   .text:0000000000000864 .LVL159
     /tmp/ccf9bp1A.s:1580   .text:0000000000000884 .LVL161
     /tmp/ccf9bp1A.s:1607   .text:00000000000008b0 .LVL165
     /tmp/ccf9bp1A.s:9662   .debug_str:0000000000000000 .LASF212
GAS LISTING /tmp/ccf9bp1A.s 			page 105


     /tmp/ccf9bp1A.s:10156  .debug_str:0000000000000ee8 .LASF213
     /tmp/ccf9bp1A.s:1414   .text:000000000000075c .LFB32
     /tmp/ccf9bp1A.s:1474   .text:00000000000007dc .LFE32
     /tmp/ccf9bp1A.s:9330   .debug_loc:0000000000000c63 .LLST33
     /tmp/ccf9bp1A.s:9343   .debug_loc:0000000000000c9c .LLST34
     /tmp/ccf9bp1A.s:1429   .text:000000000000077c .LVL142
     /tmp/ccf9bp1A.s:1443   .text:00000000000007a4 .LVL145
     /tmp/ccf9bp1A.s:1451   .text:00000000000007b8 .LVL147
     /tmp/ccf9bp1A.s:1471   .text:00000000000007d8 .LVL150
     /tmp/ccf9bp1A.s:9664   .debug_str:000000000000000a .LASF214
     /tmp/ccf9bp1A.s:9768   .debug_str:000000000000033f .LASF215
     /tmp/ccf9bp1A.s:1216   .text:00000000000005fc .LFB31
     /tmp/ccf9bp1A.s:1403   .text:000000000000075c .LFE31
     /tmp/ccf9bp1A.s:1234   .text:0000000000000620 .LBB38
     /tmp/ccf9bp1A.s:1266   .text:0000000000000664 .LBE38
     /tmp/ccf9bp1A.s:9354   .debug_loc:0000000000000cd2 .LLST27
     /tmp/ccf9bp1A.s:1251   .text:0000000000000640 .LVL121
     /tmp/ccf9bp1A.s:1263   .text:0000000000000664 .LVL122
     /tmp/ccf9bp1A.s:1282   .text:0000000000000678 .LBB39
     /tmp/ccf9bp1A.s:1321   .text:00000000000006bc .LBE39
     /tmp/ccf9bp1A.s:9365   .debug_loc:0000000000000d08 .LLST28
     /tmp/ccf9bp1A.s:9376   .debug_loc:0000000000000d3e .LLST29
     /tmp/ccf9bp1A.s:1298   .text:000000000000069c .LVL125
     /tmp/ccf9bp1A.s:1316   .text:00000000000006b8 .LVL129
     /tmp/ccf9bp1A.s:1322   .text:00000000000006bc .LBB42
     /tmp/ccf9bp1A.s:1357   .text:0000000000000704 .LBE42
     /tmp/ccf9bp1A.s:9383   .debug_loc:0000000000000d61 .LLST30
     /tmp/ccf9bp1A.s:1341   .text:00000000000006dc .LVL133
     /tmp/ccf9bp1A.s:1353   .text:0000000000000700 .LVL134
     /tmp/ccf9bp1A.s:1358   .text:0000000000000704 .LBB43
     /tmp/ccf9bp1A.s:1395   .text:0000000000000748 .LBE43
     /tmp/ccf9bp1A.s:9390   .debug_loc:0000000000000d84 .LLST31
     /tmp/ccf9bp1A.s:9401   .debug_loc:0000000000000dba .LLST32
     /tmp/ccf9bp1A.s:1374   .text:0000000000000728 .LVL136
     /tmp/ccf9bp1A.s:1390   .text:0000000000000744 .LVL140
     /tmp/ccf9bp1A.s:1233   .text:0000000000000620 .LVL118
     /tmp/ccf9bp1A.s:1400   .text:0000000000000758 .LVL141
     /tmp/ccf9bp1A.s:10002  .debug_str:0000000000000aa0 .LASF217
     /tmp/ccf9bp1A.s:10152  .debug_str:0000000000000ece .LASF258
     /tmp/ccf9bp1A.s:1182   .text:00000000000005e4 .LFB30
     /tmp/ccf9bp1A.s:1199   .text:00000000000005fc .LFE30
     /tmp/ccf9bp1A.s:9972   .debug_str:0000000000000925 .LASF218
     /tmp/ccf9bp1A.s:10018  .debug_str:0000000000000b36 .LASF219
     /tmp/ccf9bp1A.s:2038   .text:0000000000000b7c .LFE29
     /tmp/ccf9bp1A.s:9408   .debug_loc:0000000000000ddd .LLST49
     /tmp/ccf9bp1A.s:2006   .text:0000000000000b40 .LVL206
     /tmp/ccf9bp1A.s:2012   .text:0000000000000b50 .LVL207
     /tmp/ccf9bp1A.s:2019   .text:0000000000000b5c .LVL208
     /tmp/ccf9bp1A.s:2031   .text:0000000000000b70 .LVL210
     /tmp/ccf9bp1A.s:2035   .text:0000000000000b7c .LVL211
     /tmp/ccf9bp1A.s:9820   .debug_str:00000000000004c5 .LASF220
     /tmp/ccf9bp1A.s:9980   .debug_str:0000000000000954 .LASF221
     /tmp/ccf9bp1A.s:1129   .text:00000000000005e4 .LFE28
     /tmp/ccf9bp1A.s:9788   .debug_str:00000000000003f8 .LASF222
     /tmp/ccf9bp1A.s:9415   .debug_loc:0000000000000e00 .LLST23
     /tmp/ccf9bp1A.s:9430   .debug_loc:0000000000000e49 .LLST24
     /tmp/ccf9bp1A.s:9437   .debug_loc:0000000000000e6c .LLST25
GAS LISTING /tmp/ccf9bp1A.s 			page 106


     /tmp/ccf9bp1A.s:1055   .text:0000000000000554 .LBB36
     /tmp/ccf9bp1A.s:1062   .text:0000000000000558 .LBE36
     /tmp/ccf9bp1A.s:9444   .debug_loc:0000000000000e8f .LLST26
     /tmp/ccf9bp1A.s:991    .text:00000000000004c4 .LVL93
     /tmp/ccf9bp1A.s:998    .text:00000000000004dc .LVL94
     /tmp/ccf9bp1A.s:1005   .text:00000000000004e8 .LVL95
     /tmp/ccf9bp1A.s:1010   .text:00000000000004f4 .LVL96
     /tmp/ccf9bp1A.s:1017   .text:000000000000050c .LVL97
     /tmp/ccf9bp1A.s:1024   .text:0000000000000518 .LVL98
     /tmp/ccf9bp1A.s:1029   .text:0000000000000524 .LVL99
     /tmp/ccf9bp1A.s:1037   .text:000000000000053c .LVL101
     /tmp/ccf9bp1A.s:1044   .text:0000000000000548 .LVL102
     /tmp/ccf9bp1A.s:1048   .text:0000000000000550 .LVL103
     /tmp/ccf9bp1A.s:1070   .text:0000000000000570 .LVL106
     /tmp/ccf9bp1A.s:1074   .text:0000000000000578 .LVL107
     /tmp/ccf9bp1A.s:1098   .text:00000000000005a0 .LVL110
     /tmp/ccf9bp1A.s:1102   .text:00000000000005ac .LVL111
     /tmp/ccf9bp1A.s:1110   .text:00000000000005bc .LVL113
     /tmp/ccf9bp1A.s:1114   .text:00000000000005c8 .LVL114
     /tmp/ccf9bp1A.s:1122   .text:00000000000005d8 .LVL116
     /tmp/ccf9bp1A.s:1126   .text:00000000000005e4 .LVL117
     /tmp/ccf9bp1A.s:9968   .debug_str:0000000000000910 .LASF223
     /tmp/ccf9bp1A.s:9782   .debug_str:00000000000003ca .LASF224
     /tmp/ccf9bp1A.s:927    .text:00000000000004a0 .LFE27
     /tmp/ccf9bp1A.s:9451   .debug_loc:0000000000000eb2 .LLST19
     /tmp/ccf9bp1A.s:9462   .debug_loc:0000000000000ee8 .LLST20
     /tmp/ccf9bp1A.s:850    .text:000000000000041c .LBB32
     /tmp/ccf9bp1A.s:858    .text:0000000000000420 .LBE32
     /tmp/ccf9bp1A.s:9469   .debug_loc:0000000000000f0b .LLST21
     /tmp/ccf9bp1A.s:865    .text:000000000000042c .LBB34
     /tmp/ccf9bp1A.s:872    .text:0000000000000430 .LBE34
     /tmp/ccf9bp1A.s:9476   .debug_loc:0000000000000f2e .LLST22
     /tmp/ccf9bp1A.s:795    .text:00000000000003a0 .LVL71
     /tmp/ccf9bp1A.s:802    .text:00000000000003b8 .LVL72
     /tmp/ccf9bp1A.s:809    .text:00000000000003c4 .LVL73
     /tmp/ccf9bp1A.s:814    .text:00000000000003d0 .LVL74
     /tmp/ccf9bp1A.s:821    .text:00000000000003e8 .LVL75
     /tmp/ccf9bp1A.s:828    .text:00000000000003f4 .LVL76
     /tmp/ccf9bp1A.s:832    .text:00000000000003fc .LVL77
     /tmp/ccf9bp1A.s:839    .text:0000000000000410 .LVL78
     /tmp/ccf9bp1A.s:843    .text:0000000000000418 .LVL79
     /tmp/ccf9bp1A.s:880    .text:0000000000000448 .LVL84
     /tmp/ccf9bp1A.s:884    .text:0000000000000450 .LVL85
     /tmp/ccf9bp1A.s:908    .text:0000000000000478 .LVL88
     /tmp/ccf9bp1A.s:912    .text:0000000000000484 .LVL89
     /tmp/ccf9bp1A.s:920    .text:0000000000000494 .LVL91
     /tmp/ccf9bp1A.s:924    .text:00000000000004a0 .LVL92
     /tmp/ccf9bp1A.s:9956   .debug_str:00000000000008a9 .LASF225
     /tmp/ccf9bp1A.s:9924   .debug_str:00000000000007be .LASF226
     /tmp/ccf9bp1A.s:352    .text:00000000000001b8 .LFB26
     /tmp/ccf9bp1A.s:442    .text:0000000000000264 .LFE26
     /tmp/ccf9bp1A.s:9483   .debug_loc:0000000000000f51 .LLST7
     /tmp/ccf9bp1A.s:374    .text:00000000000001dc .LBB23
     /tmp/ccf9bp1A.s:428    .text:0000000000000250 .LBE23
     /tmp/ccf9bp1A.s:9497   .debug_loc:0000000000000f8a .LLST8
     /tmp/ccf9bp1A.s:383    .text:00000000000001ec .LVL38
     /tmp/ccf9bp1A.s:389    .text:00000000000001f8 .LVL39
GAS LISTING /tmp/ccf9bp1A.s 			page 107


     /tmp/ccf9bp1A.s:395    .text:0000000000000208 .LVL40
     /tmp/ccf9bp1A.s:400    .text:0000000000000214 .LVL41
     /tmp/ccf9bp1A.s:405    .text:0000000000000224 .LVL42
     /tmp/ccf9bp1A.s:371    .text:00000000000001dc .LVL36
     /tmp/ccf9bp1A.s:9690   .debug_str:0000000000000094 .LASF227
     /tmp/ccf9bp1A.s:9810   .debug_str:000000000000047f .LASF228
     /tmp/ccf9bp1A.s:205    .text:00000000000000c4 .LFB25
     /tmp/ccf9bp1A.s:285    .text:000000000000015c .LFE25
     /tmp/ccf9bp1A.s:9509   .debug_loc:0000000000000fc1 .LLST3
     /tmp/ccf9bp1A.s:227    .text:00000000000000e8 .LBB21
     /tmp/ccf9bp1A.s:271    .text:0000000000000148 .LBE21
     /tmp/ccf9bp1A.s:9523   .debug_loc:0000000000000ffa .LLST4
     /tmp/ccf9bp1A.s:236    .text:00000000000000f8 .LVL20
     /tmp/ccf9bp1A.s:242    .text:0000000000000108 .LVL21
     /tmp/ccf9bp1A.s:247    .text:0000000000000114 .LVL22
     /tmp/ccf9bp1A.s:252    .text:0000000000000124 .LVL23
     /tmp/ccf9bp1A.s:224    .text:00000000000000e8 .LVL18
     /tmp/ccf9bp1A.s:10042  .debug_str:0000000000000bd0 .LASF229
     /tmp/ccf9bp1A.s:10118  .debug_str:0000000000000dc1 .LASF230
     /tmp/ccf9bp1A.s:111    .text:000000000000002c .LFB24
     /tmp/ccf9bp1A.s:191    .text:00000000000000c4 .LFE24
     /tmp/ccf9bp1A.s:9535   .debug_loc:0000000000001031 .LLST1
     /tmp/ccf9bp1A.s:133    .text:0000000000000050 .LBB20
     /tmp/ccf9bp1A.s:177    .text:00000000000000b0 .LBE20
     /tmp/ccf9bp1A.s:9549   .debug_loc:000000000000106a .LLST2
     /tmp/ccf9bp1A.s:142    .text:0000000000000060 .LVL10
     /tmp/ccf9bp1A.s:148    .text:0000000000000070 .LVL11
     /tmp/ccf9bp1A.s:153    .text:000000000000007c .LVL12
     /tmp/ccf9bp1A.s:158    .text:000000000000008c .LVL13
     /tmp/ccf9bp1A.s:130    .text:0000000000000050 .LVL8
     /tmp/ccf9bp1A.s:10180  .debug_str:0000000000000fa2 .LASF231
     /tmp/ccf9bp1A.s:9892   .debug_str:00000000000006be .LASF232
     /tmp/ccf9bp1A.s:66     .text:0000000000000000 .LFB23
     /tmp/ccf9bp1A.s:94     .text:000000000000002c .LFE23
     /tmp/ccf9bp1A.s:9561   .debug_loc:00000000000010a1 .LLST0
     /tmp/ccf9bp1A.s:86     .text:0000000000000020 .LVL4
     /tmp/ccf9bp1A.s:90     .text:0000000000000028 .LVL5
     /tmp/ccf9bp1A.s:37     .text._ZN14PeriodicThread18periodicActivationEv:0000000000000000 .LFB22
     /tmp/ccf9bp1A.s:55     .text._ZN14PeriodicThread18periodicActivationEv:0000000000000018 .LFE22
     /tmp/ccf9bp1A.s:11     .text._ZN6Thread3runEv:0000000000000000 .LFB21
     /tmp/ccf9bp1A.s:30     .text._ZN6Thread3runEv:0000000000000018 .LFE21
     /tmp/ccf9bp1A.s:9916   .debug_str:000000000000077f .LASF234
     /tmp/ccf9bp1A.s:9940   .debug_str:000000000000083a .LASF235
     /tmp/ccf9bp1A.s:9776   .debug_str:0000000000000396 .LASF236
     /tmp/ccf9bp1A.s:10054  .debug_str:0000000000000c0a .LASF237
     /tmp/ccf9bp1A.s:9910   .debug_str:0000000000000762 .LASF238
     /tmp/ccf9bp1A.s:9834   .debug_str:0000000000000521 .LASF239
     /tmp/ccf9bp1A.s:9930   .debug_str:00000000000007f9 .LASF240
     /tmp/ccf9bp1A.s:9670   .debug_str:000000000000002f .LASF241
     /tmp/ccf9bp1A.s:9808   .debug_str:0000000000000479 .LASF242
     /tmp/ccf9bp1A.s:9682   .debug_str:0000000000000058 .LASF243
     /tmp/ccf9bp1A.s:10084  .debug_str:0000000000000cdb .LASF259
     /tmp/ccf9bp1A.s:9694   .debug_str:00000000000000b7 .LASF260
     /tmp/ccf9bp1A.s:9884   .debug_str:0000000000000681 .LASF244
     /tmp/ccf9bp1A.s:719    .text._ZN12TestPeriodicD0Ev:0000000000000000 .LVL66
     /tmp/ccf9bp1A.s:754    .text._ZN12TestPeriodicD0Ev:0000000000000044 .LVL70
     /tmp/ccf9bp1A.s:731    .text._ZN12TestPeriodicD0Ev:0000000000000018 .LVL67
GAS LISTING /tmp/ccf9bp1A.s 			page 108


     /tmp/ccf9bp1A.s:678    .text._ZN12TestPeriodicD2Ev:0000000000000000 .LVL63
     /tmp/ccf9bp1A.s:687    .text._ZN12TestPeriodicD2Ev:0000000000000010 .LVL64
     /tmp/ccf9bp1A.s:520    .text:00000000000002ec .LVL51
     /tmp/ccf9bp1A.s:537    .text:0000000000000310 .LVL52
     /tmp/ccf9bp1A.s:579    .text:0000000000000378 .LVL55
     /tmp/ccf9bp1A.s:451    .text:0000000000000264 .LVL45
     /tmp/ccf9bp1A.s:468    .text:0000000000000288 .LVL46
     /tmp/ccf9bp1A.s:507    .text:00000000000002e8 .LVL50
     /tmp/ccf9bp1A.s:2507   .text:0000000000000ebc .LVL275
     /tmp/ccf9bp1A.s:2511   .text:0000000000000ec0 .LVL276
     /tmp/ccf9bp1A.s:2515   .text:0000000000000ecc .LVL278
     /tmp/ccf9bp1A.s:2529   .text:0000000000000ee0 .LVL280
     /tmp/ccf9bp1A.s:2605   .text:0000000000000f5c .LVL293
     /tmp/ccf9bp1A.s:2611   .text:0000000000000f64 .LVL294
     /tmp/ccf9bp1A.s:2525   .text:0000000000000edc .LVL279
     /tmp/ccf9bp1A.s:2616   .text:0000000000000f70 .LVL296
     /tmp/ccf9bp1A.s:2621   .text:0000000000000f78 .LVL297
     /tmp/ccf9bp1A.s:2533   .text:0000000000000ee4 .LVL281
     /tmp/ccf9bp1A.s:2537   .text:0000000000000ee8 .LVL282
     /tmp/ccf9bp1A.s:2660   .text:0000000000000fc0 .LVL307
     /tmp/ccf9bp1A.s:2542   .text:0000000000000eec .LVL283
     /tmp/ccf9bp1A.s:2546   .text:0000000000000ef0 .LVL284
     /tmp/ccf9bp1A.s:2579   .text:0000000000000f30 .LVL288
     /tmp/ccf9bp1A.s:2583   .text:0000000000000f34 .LVL289
     /tmp/ccf9bp1A.s:2626   .text:0000000000000f84 .LVL299
     /tmp/ccf9bp1A.s:2587   .text:0000000000000f40 .LVL291
     /tmp/ccf9bp1A.s:2631   .text:0000000000000f8c .LVL300
     /tmp/ccf9bp1A.s:2636   .text:0000000000000f98 .LVL302
     /tmp/ccf9bp1A.s:2641   .text:0000000000000fa0 .LVL303
     /tmp/ccf9bp1A.s:2593   .text:0000000000000f48 .LVL292
     /tmp/ccf9bp1A.s:2424   .text:0000000000000e18 .LVL265
     /tmp/ccf9bp1A.s:2444   .text:0000000000000e48 .LVL267
     /tmp/ccf9bp1A.s:2446   .text:0000000000000e4c .LVL268
     /tmp/ccf9bp1A.s:2482   .text:0000000000000e8c .LVL270
     /tmp/ccf9bp1A.s:2500   .text:0000000000000eac .LVL273
     /tmp/ccf9bp1A.s:2279   .text:0000000000000d0c .LVL245
     /tmp/ccf9bp1A.s:2283   .text:0000000000000d10 .LVL246
     /tmp/ccf9bp1A.s:2291   .text:0000000000000d24 .LVL248
     /tmp/ccf9bp1A.s:2308   .text:0000000000000d40 .LVL250
     /tmp/ccf9bp1A.s:2315   .text:0000000000000d4c .LVL251
     /tmp/ccf9bp1A.s:2333   .text:0000000000000d78 .LVL255
     /tmp/ccf9bp1A.s:2325   .text:0000000000000d68 .LVL252
     /tmp/ccf9bp1A.s:2329   .text:0000000000000d6c .LVL253
     /tmp/ccf9bp1A.s:2346   .text:0000000000000d90 .LVL257
     /tmp/ccf9bp1A.s:2363   .text:0000000000000dc0 .LVL261
     /tmp/ccf9bp1A.s:2368   .text:0000000000000dc8 .LVL262
     /tmp/ccf9bp1A.s:2109   .text:0000000000000bc4 .LVL214
     /tmp/ccf9bp1A.s:2221   .text:0000000000000cb0 .LVL239
     /tmp/ccf9bp1A.s:2120   .text:0000000000000bdc .LVL216
     /tmp/ccf9bp1A.s:2124   .text:0000000000000be0 .LVL217
     /tmp/ccf9bp1A.s:2224   .text:0000000000000cb4 .LVL240
     /tmp/ccf9bp1A.s:2128   .text:0000000000000bec .LVL219
     /tmp/ccf9bp1A.s:2132   .text:0000000000000bf0 .LVL220
     /tmp/ccf9bp1A.s:2227   .text:0000000000000cb8 .LVL241
     /tmp/ccf9bp1A.s:2136   .text:0000000000000bfc .LVL222
     /tmp/ccf9bp1A.s:2140   .text:0000000000000c00 .LVL223
     /tmp/ccf9bp1A.s:2230   .text:0000000000000cbc .LVL242
GAS LISTING /tmp/ccf9bp1A.s 			page 109


     /tmp/ccf9bp1A.s:2145   .text:0000000000000c10 .LVL225
     /tmp/ccf9bp1A.s:2149   .text:0000000000000c14 .LVL226
     /tmp/ccf9bp1A.s:2233   .text:0000000000000cc0 .LVL243
     /tmp/ccf9bp1A.s:2166   .text:0000000000000c38 .LVL228
     /tmp/ccf9bp1A.s:2203   .text:0000000000000c94 .LVL236
     /tmp/ccf9bp1A.s:2208   .text:0000000000000c9c .LVL237
     /tmp/ccf9bp1A.s:294    .text:000000000000015c .LVL26
     /tmp/ccf9bp1A.s:310    .text:0000000000000174 .LVL28
     /tmp/ccf9bp1A.s:306    .text:0000000000000170 .LVL27
     /tmp/ccf9bp1A.s:328    .text:00000000000001a0 .LVL31
     /tmp/ccf9bp1A.s:330    .text:00000000000001a4 .LVL32
     /tmp/ccf9bp1A.s:341    .text:00000000000001b0 .LVL33
     /tmp/ccf9bp1A.s:1944   .text:0000000000000adc .LVL203
     /tmp/ccf9bp1A.s:1971   .text:0000000000000b14 .LVL205
     /tmp/ccf9bp1A.s:630    .text._ZN14PeriodicThreadD0Ev:0000000000000000 .LVL58
     /tmp/ccf9bp1A.s:662    .text._ZN14PeriodicThreadD0Ev:0000000000000044 .LVL62
     /tmp/ccf9bp1A.s:642    .text._ZN14PeriodicThreadD0Ev:0000000000000018 .LVL59
     /tmp/ccf9bp1A.s:593    .text._ZN14PeriodicThreadD2Ev:0000000000000000 .LVL56
     /tmp/ccf9bp1A.s:1765   .text:00000000000009ac .LVL181
     /tmp/ccf9bp1A.s:1899   .text:0000000000000aac .LVL200
     /tmp/ccf9bp1A.s:1903   .text:0000000000000ab0 .LVL201
     /tmp/ccf9bp1A.s:1717   .text:0000000000000954 .LVL176
     /tmp/ccf9bp1A.s:1760   .text:00000000000009a8 .LVL180
     /tmp/ccf9bp1A.s:1775   .text:00000000000009b4 .LVL182
     /tmp/ccf9bp1A.s:1810   .text:0000000000000a04 .LVL186
     /tmp/ccf9bp1A.s:1813   .text:0000000000000a08 .LVL187
     /tmp/ccf9bp1A.s:1838   .text:0000000000000a34 .LVL191
     /tmp/ccf9bp1A.s:1793   .text:00000000000009dc .LVL184
     /tmp/ccf9bp1A.s:1819   .text:0000000000000a10 .LVL188
     /tmp/ccf9bp1A.s:1871   .text:0000000000000a7c .LVL195
     /tmp/ccf9bp1A.s:1874   .text:0000000000000a80 .LVL196
     /tmp/ccf9bp1A.s:1857   .text:0000000000000a5c .LVL193
     /tmp/ccf9bp1A.s:1880   .text:0000000000000a88 .LVL197
     /tmp/ccf9bp1A.s:1645   .text:00000000000008e4 .LVL168
     /tmp/ccf9bp1A.s:1653   .text:00000000000008f8 .LVL170
     /tmp/ccf9bp1A.s:1667   .text:0000000000000910 .LVL172
     /tmp/ccf9bp1A.s:1673   .text:0000000000000918 .LVL173
     /tmp/ccf9bp1A.s:1521   .text:0000000000000818 .LVL152
     /tmp/ccf9bp1A.s:1572   .text:000000000000086c .LVL160
     /tmp/ccf9bp1A.s:1596   .text:0000000000000898 .LVL163
     /tmp/ccf9bp1A.s:1600   .text:00000000000008a0 .LVL164
     /tmp/ccf9bp1A.s:1591   .text:0000000000000890 .LVL162
     /tmp/ccf9bp1A.s:1540   .text:000000000000082c .LVL155
     /tmp/ccf9bp1A.s:1554   .text:0000000000000848 .LVL157
     /tmp/ccf9bp1A.s:1437   .text:0000000000000798 .LVL143
     /tmp/ccf9bp1A.s:1441   .text:000000000000079c .LVL144
     /tmp/ccf9bp1A.s:1449   .text:00000000000007b0 .LVL146
     /tmp/ccf9bp1A.s:1463   .text:00000000000007c8 .LVL148
     /tmp/ccf9bp1A.s:1469   .text:00000000000007d0 .LVL149
     /tmp/ccf9bp1A.s:1238   .text:0000000000000628 .LVL119
     /tmp/ccf9bp1A.s:1279   .text:0000000000000678 .LVL123
     /tmp/ccf9bp1A.s:1285   .text:000000000000067c .LVL124
     /tmp/ccf9bp1A.s:1305   .text:00000000000006a4 .LVL126
     /tmp/ccf9bp1A.s:1308   .text:00000000000006a8 .LVL127
     /tmp/ccf9bp1A.s:1325   .text:00000000000006c0 .LVL130
     /tmp/ccf9bp1A.s:1314   .text:00000000000006b0 .LVL128
     /tmp/ccf9bp1A.s:1327   .text:00000000000006c4 .LVL131
GAS LISTING /tmp/ccf9bp1A.s 			page 110


     /tmp/ccf9bp1A.s:1361   .text:0000000000000708 .LVL135
     /tmp/ccf9bp1A.s:1380   .text:0000000000000730 .LVL137
     /tmp/ccf9bp1A.s:1382   .text:0000000000000734 .LVL138
     /tmp/ccf9bp1A.s:1388   .text:000000000000073c .LVL139
     /tmp/ccf9bp1A.s:2025   .text:0000000000000b60 .LVL209
     /tmp/ccf9bp1A.s:1085   .text:0000000000000584 .LVL108
     /tmp/ccf9bp1A.s:1106   .text:00000000000005b0 .LVL112
     /tmp/ccf9bp1A.s:1118   .text:00000000000005cc .LVL115
     /tmp/ccf9bp1A.s:1032   .text:0000000000000528 .LVL100
     /tmp/ccf9bp1A.s:1088   .text:0000000000000588 .LVL109
     /tmp/ccf9bp1A.s:1054   .text:0000000000000554 .LVL104
     /tmp/ccf9bp1A.s:1060   .text:0000000000000558 .LVL105
     /tmp/ccf9bp1A.s:895    .text:000000000000045c .LVL86
     /tmp/ccf9bp1A.s:916    .text:0000000000000488 .LVL90
     /tmp/ccf9bp1A.s:898    .text:0000000000000460 .LVL87
     /tmp/ccf9bp1A.s:849    .text:000000000000041c .LVL80
     /tmp/ccf9bp1A.s:856    .text:0000000000000420 .LVL81
     /tmp/ccf9bp1A.s:864    .text:000000000000042c .LVL82
     /tmp/ccf9bp1A.s:870    .text:0000000000000430 .LVL83
     /tmp/ccf9bp1A.s:355    .text:00000000000001b8 .LVL34
     /tmp/ccf9bp1A.s:369    .text:00000000000001d4 .LVL35
     /tmp/ccf9bp1A.s:378    .text:00000000000001e4 .LVL37
     /tmp/ccf9bp1A.s:437    .text:000000000000025c .LVL44
     /tmp/ccf9bp1A.s:208    .text:00000000000000c4 .LVL16
     /tmp/ccf9bp1A.s:222    .text:00000000000000e0 .LVL17
     /tmp/ccf9bp1A.s:231    .text:00000000000000f0 .LVL19
     /tmp/ccf9bp1A.s:280    .text:0000000000000154 .LVL25
     /tmp/ccf9bp1A.s:114    .text:000000000000002c .LVL6
     /tmp/ccf9bp1A.s:128    .text:0000000000000048 .LVL7
     /tmp/ccf9bp1A.s:137    .text:0000000000000058 .LVL9
     /tmp/ccf9bp1A.s:186    .text:00000000000000bc .LVL15
     /tmp/ccf9bp1A.s:70     .text:0000000000000000 .LVL2
     /tmp/ccf9bp1A.s:79     .text:0000000000000010 .LVL3
     /tmp/ccf9bp1A.s:2911   .debug_info:0000000000000000 .Ldebug_info0
     /tmp/ccf9bp1A.s:5      .text:0000000000000000 .Ltext0
     /tmp/ccf9bp1A.s:2905   .text:000000000000111c .Letext0
     /tmp/ccf9bp1A.s:1290   .text:0000000000000684 .LBB40
     /tmp/ccf9bp1A.s:1301   .text:00000000000006a0 .LBE40
     /tmp/ccf9bp1A.s:1310   .text:00000000000006a8 .LBB41
     /tmp/ccf9bp1A.s:1320   .text:00000000000006bc .LBE41
     /tmp/ccf9bp1A.s:1366   .text:0000000000000710 .LBB44
     /tmp/ccf9bp1A.s:1377   .text:000000000000072c .LBE44
     /tmp/ccf9bp1A.s:1384   .text:0000000000000734 .LBB45
     /tmp/ccf9bp1A.s:1394   .text:0000000000000748 .LBE45
     /tmp/ccf9bp1A.s:1512   .text:0000000000000808 .LBB46
     /tmp/ccf9bp1A.s:1515   .text:000000000000080c .LBE46
     /tmp/ccf9bp1A.s:1523   .text:0000000000000818 .LBB49
     /tmp/ccf9bp1A.s:1557   .text:0000000000000848 .LBE49
     /tmp/ccf9bp1A.s:1524   .text:0000000000000818 .LBB47
     /tmp/ccf9bp1A.s:1537   .text:0000000000000828 .LBE47
     /tmp/ccf9bp1A.s:1546   .text:0000000000000838 .LBB48
     /tmp/ccf9bp1A.s:1556   .text:0000000000000848 .LBE48
     /tmp/ccf9bp1A.s:1779   .text:00000000000009bc .LBB53
     /tmp/ccf9bp1A.s:1806   .text:0000000000000a00 .LBE53
     /tmp/ccf9bp1A.s:1815   .text:0000000000000a08 .LBB54
     /tmp/ccf9bp1A.s:1833   .text:0000000000000a30 .LBE54
     /tmp/ccf9bp1A.s:1843   .text:0000000000000a3c .LBB56
GAS LISTING /tmp/ccf9bp1A.s 			page 111


     /tmp/ccf9bp1A.s:1867   .text:0000000000000a78 .LBE56
     /tmp/ccf9bp1A.s:1876   .text:0000000000000a80 .LBB57
     /tmp/ccf9bp1A.s:1894   .text:0000000000000aa8 .LBE57
     /tmp/ccf9bp1A.s:2601   .text:0000000000000f54 .LBB60
     /tmp/ccf9bp1A.s:2607   .text:0000000000000f5c .LBE60
     /tmp/ccf9bp1A.s:2648   .text:0000000000000fac .LBB61
     /tmp/ccf9bp1A.s:2670   .text:0000000000000fd8 .LBE61
     /tmp/ccf9bp1A.s:930    .gcc_except_table:0000000000000000 .LLSDA27
     /tmp/ccf9bp1A.s:1131   .gcc_except_table:000000000000005f .LLSDA28
     /tmp/ccf9bp1A.s:2040   .gcc_except_table:00000000000000e6 .LLSDA29
                           .group:0000000000000000 _ZN14PeriodicThreadD5Ev
                           .group:0000000000000000 _ZN12TestPeriodicD5Ev

UNDEFINED SYMBOLS
_ZN5Riscv11printStringEPKc
thread_dispatch
_ZN5Riscv12printIntegerEm
thread_exit
sem_wait
__putc
sem_signal
_ZN6ThreadD2Ev
_ZdlPv
_Znwm
_ZN6ThreadC1EPFvPvES0_
_ZN6Thread5startEv
_ZN5Riscv16enableInterruptsEv
_ZN5Riscv17disableInterruptsEv
_Unwind_Resume
__gxx_personality_v0
mem_alloc
mem_free
HEAP_END_ADDR
HEAP_START_ADDR
_ZN14PeriodicThreadC2Em
sem_open
thread_create
_ZN3PCB10isFinishedEv
