GAS LISTING /tmp/cczxdMQq.s 			page 1


   1              		.file	"Tests.cpp"
   2              		.option pic
   3              		.option norelax
   4              		.text
   5              	.Ltext0:
   6              		.section	.text._ZN6Thread3runEv,"axG",@progbits,_ZN6Thread3runEv,comdat
   7              		.align	2
   8              		.weak	_ZN6Thread3runEv
  10              	_ZN6Thread3runEv:
  11              	.LFB21:
  12              		.file 1 "src/../h/syscall_cpp.hpp"
   1:src/../h/syscall_cpp.hpp **** //
   2:src/../h/syscall_cpp.hpp **** // Created by os on 4/8/22.
   3:src/../h/syscall_cpp.hpp **** //
   4:src/../h/syscall_cpp.hpp **** 
   5:src/../h/syscall_cpp.hpp **** #ifndef PROJECT_BASE_V1_0_SYSCALL_CPP_HPP
   6:src/../h/syscall_cpp.hpp **** #define PROJECT_BASE_V1_0_SYSCALL_CPP_HPP
   7:src/../h/syscall_cpp.hpp **** 
   8:src/../h/syscall_cpp.hpp **** #include "syscall_c.h"
   9:src/../h/syscall_cpp.hpp **** #include "PCB.hpp"
  10:src/../h/syscall_cpp.hpp **** #include "KSemaphore.hpp"
  11:src/../h/syscall_cpp.hpp **** 
  12:src/../h/syscall_cpp.hpp **** void * operator new(size_t size);
  13:src/../h/syscall_cpp.hpp **** 
  14:src/../h/syscall_cpp.hpp **** void operator delete(void * p);
  15:src/../h/syscall_cpp.hpp **** 
  16:src/../h/syscall_cpp.hpp **** class Thread
  17:src/../h/syscall_cpp.hpp **** {
  18:src/../h/syscall_cpp.hpp **** public:
  19:src/../h/syscall_cpp.hpp ****     Thread(void (*body)(void*), void* args);
  20:src/../h/syscall_cpp.hpp **** 
  21:src/../h/syscall_cpp.hpp ****     //todo
  22:src/../h/syscall_cpp.hpp ****     virtual ~Thread();
  23:src/../h/syscall_cpp.hpp **** 
  24:src/../h/syscall_cpp.hpp ****     int start();
  25:src/../h/syscall_cpp.hpp **** 
  26:src/../h/syscall_cpp.hpp ****     static void dispatch();
  27:src/../h/syscall_cpp.hpp **** 
  28:src/../h/syscall_cpp.hpp ****     static void sleep(time_t);
  29:src/../h/syscall_cpp.hpp **** 
  30:src/../h/syscall_cpp.hpp ****     //todo
  31:src/../h/syscall_cpp.hpp ****     //vrati u private
  32:src/../h/syscall_cpp.hpp ****     //ovde je samo za potrebe testiranja
  33:src/../h/syscall_cpp.hpp ****     PCB* myHandle;
  34:src/../h/syscall_cpp.hpp **** protected:
  35:src/../h/syscall_cpp.hpp ****     Thread();
  36:src/../h/syscall_cpp.hpp **** 
  37:src/../h/syscall_cpp.hpp ****     virtual void run() {}
  13              		.loc 1 37 18
  14              		.cfi_startproc
  15              	.LVL0:
  16 0000 130101FF 		addi	sp,sp,-16
  17              		.cfi_def_cfa_offset 16
  18 0004 23348100 		sd	s0,8(sp)
  19              		.cfi_offset 8, -8
  20 0008 13040101 		addi	s0,sp,16
  21              		.cfi_def_cfa 8, 0
GAS LISTING /tmp/cczxdMQq.s 			page 2


  22              		.loc 1 37 25 is_stmt 0
  23 000c 03348100 		ld	s0,8(sp)
  24              		.cfi_restore 8
  25              		.cfi_def_cfa 2, 16
  26 0010 13010101 		addi	sp,sp,16
  27              		.cfi_def_cfa_offset 0
  28 0014 67800000 		jr	ra
  29              		.cfi_endproc
  30              	.LFE21:
  32              		.section	.text._ZN14PeriodicThread18periodicActivationEv,"axG",@progbits,_ZN14PeriodicThread18peri
  33              		.align	2
  34              		.weak	_ZN14PeriodicThread18periodicActivationEv
  36              	_ZN14PeriodicThread18periodicActivationEv:
  37              	.LFB22:
  38:src/../h/syscall_cpp.hpp **** private:
  39:src/../h/syscall_cpp.hpp ****     void (*f)(void*);
  40:src/../h/syscall_cpp.hpp ****     void* args;
  41:src/../h/syscall_cpp.hpp ****     static void runner(void* t);
  42:src/../h/syscall_cpp.hpp **** };
  43:src/../h/syscall_cpp.hpp **** 
  44:src/../h/syscall_cpp.hpp **** class Semaphore
  45:src/../h/syscall_cpp.hpp **** {
  46:src/../h/syscall_cpp.hpp **** public:
  47:src/../h/syscall_cpp.hpp ****     Semaphore(unsigned init = 1);
  48:src/../h/syscall_cpp.hpp **** 
  49:src/../h/syscall_cpp.hpp ****     virtual ~Semaphore();
  50:src/../h/syscall_cpp.hpp **** 
  51:src/../h/syscall_cpp.hpp ****     int wait();
  52:src/../h/syscall_cpp.hpp ****     int signal();
  53:src/../h/syscall_cpp.hpp **** 
  54:src/../h/syscall_cpp.hpp **** private:
  55:src/../h/syscall_cpp.hpp ****     KSemaphore* myHandle;
  56:src/../h/syscall_cpp.hpp **** };
  57:src/../h/syscall_cpp.hpp **** 
  58:src/../h/syscall_cpp.hpp **** class Console
  59:src/../h/syscall_cpp.hpp **** {
  60:src/../h/syscall_cpp.hpp **** public:
  61:src/../h/syscall_cpp.hpp ****     static char getc();
  62:src/../h/syscall_cpp.hpp ****     static void putc(char);
  63:src/../h/syscall_cpp.hpp **** };
  64:src/../h/syscall_cpp.hpp **** 
  65:src/../h/syscall_cpp.hpp **** class PeriodicThread : public Thread
  66:src/../h/syscall_cpp.hpp **** {
  67:src/../h/syscall_cpp.hpp **** protected:
  68:src/../h/syscall_cpp.hpp ****     PeriodicThread(time_t period);
  69:src/../h/syscall_cpp.hpp ****     virtual void periodicActivation() {};
  38              		.loc 1 69 18 is_stmt 1
  39              		.cfi_startproc
  40              	.LVL1:
  41 0000 130101FF 		addi	sp,sp,-16
  42              		.cfi_def_cfa_offset 16
  43 0004 23348100 		sd	s0,8(sp)
  44              		.cfi_offset 8, -8
  45 0008 13040101 		addi	s0,sp,16
  46              		.cfi_def_cfa 8, 0
  47              		.loc 1 69 40 is_stmt 0
  48 000c 03348100 		ld	s0,8(sp)
GAS LISTING /tmp/cczxdMQq.s 			page 3


  49              		.cfi_restore 8
  50              		.cfi_def_cfa 2, 16
  51 0010 13010101 		addi	sp,sp,16
  52              		.cfi_def_cfa_offset 0
  53 0014 67800000 		jr	ra
  54              		.cfi_endproc
  55              	.LFE22:
  57              		.section	.rodata.str1.8,"aMS",@progbits,1
  58              		.align	3
  59              	.LC0:
  60 0000 49646C65 		.string	"Idle\n"
  60      0A00
  61              		.text
  62              		.align	2
  63              		.globl	_Z4idlePv
  65              	_Z4idlePv:
  66              	.LFB23:
  67              		.file 2 "src/Tests.cpp"
   1:src/Tests.cpp **** //
   2:src/Tests.cpp **** // Created by os on 5/5/22.
   3:src/Tests.cpp **** //
   4:src/Tests.cpp **** 
   5:src/Tests.cpp **** #include "../h/Tests.hpp"
   6:src/Tests.cpp **** #include "../lib/console.h"
   7:src/Tests.cpp **** 
   8:src/Tests.cpp **** void idle(void* args)
   9:src/Tests.cpp **** {
  68              		.loc 2 9 1 is_stmt 1
  69              		.cfi_startproc
  70              	.LVL2:
  71 0000 130101FF 		addi	sp,sp,-16
  72              		.cfi_def_cfa_offset 16
  73 0004 23341100 		sd	ra,8(sp)
  74 0008 23308100 		sd	s0,0(sp)
  75              		.cfi_offset 1, -8
  76              		.cfi_offset 8, -16
  77 000c 13040101 		addi	s0,sp,16
  78              		.cfi_def_cfa 8, 0
  79              	.LVL3:
  80              	.L6:
  10:src/Tests.cpp ****     while(true)
  81              		.loc 2 10 5 discriminator 1
  11:src/Tests.cpp ****     {
  12:src/Tests.cpp ****         Riscv::printString("Idle\n");
  82              		.loc 2 12 9 discriminator 1
  83              		.loc 2 12 27 is_stmt 0 discriminator 1
  84 0010 17050000 		lla	a0,.LC0
  84      13050500 
  85 0018 97000000 		call	_ZN5Riscv11printStringEPKc@plt
  85      E7800000 
  86              	.LVL4:
  13:src/Tests.cpp ****         thread_dispatch();
  87              		.loc 2 13 9 is_stmt 1 discriminator 1
  88              		.loc 2 13 24 is_stmt 0 discriminator 1
  89 0020 97000000 		call	thread_dispatch@plt
  89      E7800000 
  90              	.LVL5:
GAS LISTING /tmp/cczxdMQq.s 			page 4


  10:src/Tests.cpp ****     while(true)
  91              		.loc 2 10 5 is_stmt 1 discriminator 1
  92 0028 6FF09FFE 		j	.L6
  93              		.cfi_endproc
  94              	.LFE23:
  96              		.section	.rodata.str1.8
  97 0006 0000     		.align	3
  98              	.LC1:
  99 0008 54687265 		.string	"Thread 1 started...\n"
  99      61642031 
  99      20737461 
  99      72746564 
  99      2E2E2E0A 
 100 001d 000000   		.align	3
 101              	.LC2:
 102 0020 69203A20 		.string	"i : "
 102      00
 103 0025 000000   		.align	3
 104              	.LC3:
 105 0028 0A00     		.string	"\n"
 106              		.text
 107              		.align	2
 108              		.globl	_Z15thread1FunctionPv
 110              	_Z15thread1FunctionPv:
 111              	.LFB24:
  14:src/Tests.cpp ****     }
  15:src/Tests.cpp **** }
  16:src/Tests.cpp **** 
  17:src/Tests.cpp **** void thread1Function(void* p)
  18:src/Tests.cpp **** {
 112              		.loc 2 18 1
 113              		.cfi_startproc
 114              	.LVL6:
 115 002c 130101FE 		addi	sp,sp,-32
 116              		.cfi_def_cfa_offset 32
 117 0030 233C1100 		sd	ra,24(sp)
 118 0034 23388100 		sd	s0,16(sp)
 119 0038 23349100 		sd	s1,8(sp)
 120              		.cfi_offset 1, -8
 121              		.cfi_offset 8, -16
 122              		.cfi_offset 9, -24
 123 003c 13040102 		addi	s0,sp,32
 124              		.cfi_def_cfa 8, 0
  19:src/Tests.cpp ****     Riscv::printString("Thread 1 started...\n");
 125              		.loc 2 19 5
 126              		.loc 2 19 23 is_stmt 0
 127 0040 17050000 		lla	a0,.LC1
 127      13050500 
 128              	.LVL7:
 129 0048 97000000 		call	_ZN5Riscv11printStringEPKc@plt
 129      E7800000 
 130              	.LVL8:
  20:src/Tests.cpp ****     uint64 num = 10000;
 131              		.loc 2 20 5 is_stmt 1
  21:src/Tests.cpp ****     for(uint64 i = 0; i < num;i++)
 132              		.loc 2 21 5
 133              	.LBB20:
GAS LISTING /tmp/cczxdMQq.s 			page 5


 134              		.loc 2 21 16 is_stmt 0
 135 0050 93040000 		li	s1,0
 136 0054 6F00C003 		j	.L11
 137              	.LVL9:
 138              	.L13:
  22:src/Tests.cpp ****     {
  23:src/Tests.cpp ****         if(i % 150 == 0 && i > 0)
  24:src/Tests.cpp ****             thread_dispatch();
 139              		.loc 2 24 13 is_stmt 1
 140              		.loc 2 24 28 is_stmt 0
 141 0058 97000000 		call	thread_dispatch@plt
 141      E7800000 
 142              	.LVL10:
 143              	.L10:
  25:src/Tests.cpp ****         Riscv::printString("i : ");
 144              		.loc 2 25 9 is_stmt 1 discriminator 2
 145              		.loc 2 25 27 is_stmt 0 discriminator 2
 146 0060 17050000 		lla	a0,.LC2
 146      13050500 
 147 0068 97000000 		call	_ZN5Riscv11printStringEPKc@plt
 147      E7800000 
 148              	.LVL11:
  26:src/Tests.cpp ****         Riscv::printInteger(i);
 149              		.loc 2 26 9 is_stmt 1 discriminator 2
 150              		.loc 2 26 28 is_stmt 0 discriminator 2
 151 0070 13850400 		mv	a0,s1
 152 0074 97000000 		call	_ZN5Riscv12printIntegerEm@plt
 152      E7800000 
 153              	.LVL12:
  27:src/Tests.cpp ****         Riscv::printString("\n");
 154              		.loc 2 27 9 is_stmt 1 discriminator 2
 155              		.loc 2 27 27 is_stmt 0 discriminator 2
 156 007c 17050000 		lla	a0,.LC3
 156      13050500 
 157 0084 97000000 		call	_ZN5Riscv11printStringEPKc@plt
 157      E7800000 
 158              	.LVL13:
  21:src/Tests.cpp ****     {
 159              		.loc 2 21 5 is_stmt 1 discriminator 2
 160 008c 93841400 		addi	s1,s1,1
 161              	.LVL14:
 162              	.L11:
  21:src/Tests.cpp ****     {
 163              		.loc 2 21 25 discriminator 1
 164 0090 B7270000 		li	a5,8192
 165 0094 9387F770 		addi	a5,a5,1807
 166 0098 63EC9700 		bgtu	s1,a5,.L8
  23:src/Tests.cpp ****             thread_dispatch();
 167              		.loc 2 23 9
  23:src/Tests.cpp ****             thread_dispatch();
 168              		.loc 2 23 14 is_stmt 0
 169 009c 93076009 		li	a5,150
 170 00a0 B3F7F402 		remu	a5,s1,a5
  23:src/Tests.cpp ****             thread_dispatch();
 171              		.loc 2 23 9
 172 00a4 E39E07FA 		bnez	a5,.L10
  23:src/Tests.cpp ****             thread_dispatch();
GAS LISTING /tmp/cczxdMQq.s 			page 6


 173              		.loc 2 23 25 discriminator 1
 174 00a8 E38C04FA 		beqz	s1,.L10
 175 00ac 6FF0DFFA 		j	.L13
 176              	.L8:
 177              	.LBE20:
  28:src/Tests.cpp ****     }
  29:src/Tests.cpp **** }
 178              		.loc 2 29 1
 179 00b0 83308101 		ld	ra,24(sp)
 180              		.cfi_restore 1
 181 00b4 03340101 		ld	s0,16(sp)
 182              		.cfi_restore 8
 183              		.cfi_def_cfa 2, 32
 184 00b8 83348100 		ld	s1,8(sp)
 185              		.cfi_restore 9
 186              	.LVL15:
 187 00bc 13010102 		addi	sp,sp,32
 188              		.cfi_def_cfa_offset 0
 189 00c0 67800000 		jr	ra
 190              		.cfi_endproc
 191              	.LFE24:
 193              		.section	.rodata.str1.8
 194 002a 00000000 		.align	3
 194      0000
 195              	.LC4:
 196 0030 54687265 		.string	"Thread 2 started...\n"
 196      61642032 
 196      20737461 
 196      72746564 
 196      2E2E2E0A 
 197 0045 000000   		.align	3
 198              	.LC5:
 199 0048 6A203A20 		.string	"j : "
 199      00
 200              		.text
 201              		.align	2
 202              		.globl	_Z15thread2FunctionPv
 204              	_Z15thread2FunctionPv:
 205              	.LFB25:
  30:src/Tests.cpp **** 
  31:src/Tests.cpp **** void thread2Function(void* p)
  32:src/Tests.cpp **** {
 206              		.loc 2 32 1 is_stmt 1
 207              		.cfi_startproc
 208              	.LVL16:
 209 00c4 130101FE 		addi	sp,sp,-32
 210              		.cfi_def_cfa_offset 32
 211 00c8 233C1100 		sd	ra,24(sp)
 212 00cc 23388100 		sd	s0,16(sp)
 213 00d0 23349100 		sd	s1,8(sp)
 214              		.cfi_offset 1, -8
 215              		.cfi_offset 8, -16
 216              		.cfi_offset 9, -24
 217 00d4 13040102 		addi	s0,sp,32
 218              		.cfi_def_cfa 8, 0
  33:src/Tests.cpp ****     Riscv::printString("Thread 2 started...\n");
 219              		.loc 2 33 5
GAS LISTING /tmp/cczxdMQq.s 			page 7


 220              		.loc 2 33 23 is_stmt 0
 221 00d8 17050000 		lla	a0,.LC4
 221      13050500 
 222              	.LVL17:
 223 00e0 97000000 		call	_ZN5Riscv11printStringEPKc@plt
 223      E7800000 
 224              	.LVL18:
  34:src/Tests.cpp ****     uint64 num = 10000;
 225              		.loc 2 34 5 is_stmt 1
  35:src/Tests.cpp ****     for(uint64 j = 0; j < num;j++)
 226              		.loc 2 35 5
 227              	.LBB21:
 228              		.loc 2 35 16 is_stmt 0
 229 00e8 93040000 		li	s1,0
 230 00ec 6F00C003 		j	.L17
 231              	.LVL19:
 232              	.L19:
  36:src/Tests.cpp ****     {
  37:src/Tests.cpp ****         if(j % 50 == 0 && j > 0)
  38:src/Tests.cpp ****             thread_dispatch();
 233              		.loc 2 38 13 is_stmt 1
 234              		.loc 2 38 28 is_stmt 0
 235 00f0 97000000 		call	thread_dispatch@plt
 235      E7800000 
 236              	.LVL20:
 237              	.L16:
  39:src/Tests.cpp ****         Riscv::printString("j : ");
 238              		.loc 2 39 9 is_stmt 1 discriminator 2
 239              		.loc 2 39 27 is_stmt 0 discriminator 2
 240 00f8 17050000 		lla	a0,.LC5
 240      13050500 
 241 0100 97000000 		call	_ZN5Riscv11printStringEPKc@plt
 241      E7800000 
 242              	.LVL21:
  40:src/Tests.cpp ****         Riscv::printInteger(j);
 243              		.loc 2 40 9 is_stmt 1 discriminator 2
 244              		.loc 2 40 28 is_stmt 0 discriminator 2
 245 0108 13850400 		mv	a0,s1
 246 010c 97000000 		call	_ZN5Riscv12printIntegerEm@plt
 246      E7800000 
 247              	.LVL22:
  41:src/Tests.cpp ****         Riscv::printString("\n");
 248              		.loc 2 41 9 is_stmt 1 discriminator 2
 249              		.loc 2 41 27 is_stmt 0 discriminator 2
 250 0114 17050000 		lla	a0,.LC3
 250      13050500 
 251 011c 97000000 		call	_ZN5Riscv11printStringEPKc@plt
 251      E7800000 
 252              	.LVL23:
  35:src/Tests.cpp ****     {
 253              		.loc 2 35 5 is_stmt 1 discriminator 2
 254 0124 93841400 		addi	s1,s1,1
 255              	.LVL24:
 256              	.L17:
  35:src/Tests.cpp ****     {
 257              		.loc 2 35 25 discriminator 1
 258 0128 B7270000 		li	a5,8192
GAS LISTING /tmp/cczxdMQq.s 			page 8


 259 012c 9387F770 		addi	a5,a5,1807
 260 0130 63EC9700 		bgtu	s1,a5,.L14
  37:src/Tests.cpp ****             thread_dispatch();
 261              		.loc 2 37 9
  37:src/Tests.cpp ****             thread_dispatch();
 262              		.loc 2 37 14 is_stmt 0
 263 0134 93072003 		li	a5,50
 264 0138 B3F7F402 		remu	a5,s1,a5
  37:src/Tests.cpp ****             thread_dispatch();
 265              		.loc 2 37 9
 266 013c E39E07FA 		bnez	a5,.L16
  37:src/Tests.cpp ****             thread_dispatch();
 267              		.loc 2 37 24 discriminator 1
 268 0140 E38C04FA 		beqz	s1,.L16
 269 0144 6FF0DFFA 		j	.L19
 270              	.L14:
 271              	.LBE21:
  42:src/Tests.cpp ****     }
  43:src/Tests.cpp **** }
 272              		.loc 2 43 1
 273 0148 83308101 		ld	ra,24(sp)
 274              		.cfi_restore 1
 275 014c 03340101 		ld	s0,16(sp)
 276              		.cfi_restore 8
 277              		.cfi_def_cfa 2, 32
 278 0150 83348100 		ld	s1,8(sp)
 279              		.cfi_restore 9
 280              	.LVL25:
 281 0154 13010102 		addi	sp,sp,32
 282              		.cfi_def_cfa_offset 0
 283 0158 67800000 		jr	ra
 284              		.cfi_endproc
 285              	.LFE25:
 287              		.align	2
 288              		.globl	_ZN12TestPeriodic18periodicActivationEv
 290              	_ZN12TestPeriodic18periodicActivationEv:
 291              	.LFB53:
  44:src/Tests.cpp **** 
  45:src/Tests.cpp **** void thread2FunctionTest2(void* p)
  46:src/Tests.cpp **** {
  47:src/Tests.cpp ****     Riscv::printString("Thread 2 started...\n");
  48:src/Tests.cpp ****     uint64 num = 10000;
  49:src/Tests.cpp ****     for(uint64 j = 0; j < num;j++)
  50:src/Tests.cpp ****     {
  51:src/Tests.cpp ****         if(j == 200)
  52:src/Tests.cpp ****             thread_exit();
  53:src/Tests.cpp ****         if(j % 50 == 0 && j > 0)
  54:src/Tests.cpp ****             thread_dispatch();
  55:src/Tests.cpp ****         Riscv::printString("j : ");
  56:src/Tests.cpp ****         Riscv::printInteger(j);
  57:src/Tests.cpp ****         Riscv::printString("\n");
  58:src/Tests.cpp ****     }
  59:src/Tests.cpp **** }
  60:src/Tests.cpp **** 
  61:src/Tests.cpp **** void threadTest1()
  62:src/Tests.cpp **** {
  63:src/Tests.cpp ****     Thread* t1 = new Thread(&thread1Function, 0);
GAS LISTING /tmp/cczxdMQq.s 			page 9


  64:src/Tests.cpp ****     t1->start();
  65:src/Tests.cpp ****     Thread* t2 = new Thread(&thread2Function, 0);
  66:src/Tests.cpp ****     t2->start();
  67:src/Tests.cpp ****     Riscv::enableInterrupts();
  68:src/Tests.cpp ****     while(t1->myHandle->getState() != PCB::FINISHED || t2->myHandle->getState() != PCB::FINISHED)
  69:src/Tests.cpp ****     {
  70:src/Tests.cpp ****         Riscv::printString("Main thread\n");
  71:src/Tests.cpp ****         thread_dispatch();
  72:src/Tests.cpp ****     }
  73:src/Tests.cpp **** 
  74:src/Tests.cpp ****     Riscv::printString("End...\n");
  75:src/Tests.cpp ****     Riscv::disableInterrupts();
  76:src/Tests.cpp **** }
  77:src/Tests.cpp **** 
  78:src/Tests.cpp **** void threadTest2()
  79:src/Tests.cpp **** {
  80:src/Tests.cpp ****     Thread* idleThread = new Thread(&idle, 0);
  81:src/Tests.cpp ****     idleThread->start();
  82:src/Tests.cpp ****     Thread* t1 = new Thread(&thread1Function, 0);
  83:src/Tests.cpp ****     t1->start();
  84:src/Tests.cpp ****     Thread* t2  = new Thread(&thread2FunctionTest2, 0);
  85:src/Tests.cpp ****     t2->start();
  86:src/Tests.cpp **** 
  87:src/Tests.cpp ****     Riscv::enableInterrupts();
  88:src/Tests.cpp **** 
  89:src/Tests.cpp ****     while(idleThread->myHandle->getState() != PCB::FINISHED);
  90:src/Tests.cpp **** 
  91:src/Tests.cpp ****     Riscv::printString("End...\n");
  92:src/Tests.cpp **** 
  93:src/Tests.cpp ****     Riscv::disableInterrupts();
  94:src/Tests.cpp **** }
  95:src/Tests.cpp **** 
  96:src/Tests.cpp **** 
  97:src/Tests.cpp **** void threadTest3()
  98:src/Tests.cpp **** {
  99:src/Tests.cpp ****     Thread* t = new TestPeriodic(50);
 100:src/Tests.cpp ****     t->start();
 101:src/Tests.cpp ****     while(true)
 102:src/Tests.cpp ****     {
 103:src/Tests.cpp ****         //thread_dispatch();
 104:src/Tests.cpp ****     }
 105:src/Tests.cpp **** }
 106:src/Tests.cpp **** 
 107:src/Tests.cpp **** void threadTests()
 108:src/Tests.cpp **** {
 109:src/Tests.cpp ****     //threadTest1();
 110:src/Tests.cpp ****     //threadTest2();
 111:src/Tests.cpp ****     threadTest3();
 112:src/Tests.cpp **** }
 113:src/Tests.cpp **** 
 114:src/Tests.cpp **** 
 115:src/Tests.cpp **** //memory (de)allocation tests
 116:src/Tests.cpp **** void mallocFree()
 117:src/Tests.cpp **** {
 118:src/Tests.cpp ****     Riscv::printString("mallocFree\n");
 119:src/Tests.cpp ****     constexpr int num = 100;
 120:src/Tests.cpp ****     void* addrs[num];
GAS LISTING /tmp/cczxdMQq.s 			page 10


 121:src/Tests.cpp ****     for(int i = 0; i < num;i++)
 122:src/Tests.cpp ****     {
 123:src/Tests.cpp ****         addrs[i] = mem_alloc(100);
 124:src/Tests.cpp ****         if(addrs[i] == 0)
 125:src/Tests.cpp ****         {
 126:src/Tests.cpp ****             Riscv::printString("not OK\n");
 127:src/Tests.cpp ****             return;
 128:src/Tests.cpp ****         }
 129:src/Tests.cpp **** 
 130:src/Tests.cpp ****     }
 131:src/Tests.cpp **** 
 132:src/Tests.cpp ****     for(int i = 0 ; i < num;i+=2)
 133:src/Tests.cpp ****     {
 134:src/Tests.cpp ****         int retval = mem_free(addrs[i]);
 135:src/Tests.cpp ****         if(retval != 0)
 136:src/Tests.cpp ****         {
 137:src/Tests.cpp ****             Riscv::printString("not OK\n");
 138:src/Tests.cpp ****             return;
 139:src/Tests.cpp ****         }
 140:src/Tests.cpp ****     }
 141:src/Tests.cpp **** 
 142:src/Tests.cpp ****     for(int i = 0 ; i < num;i+=2)
 143:src/Tests.cpp ****     {
 144:src/Tests.cpp ****         addrs[i] = mem_alloc(20);
 145:src/Tests.cpp ****         if(addrs[i] == 0)
 146:src/Tests.cpp ****         {
 147:src/Tests.cpp ****             Riscv::printString("not OK\n");
 148:src/Tests.cpp ****             return;
 149:src/Tests.cpp ****         }
 150:src/Tests.cpp ****     }
 151:src/Tests.cpp **** 
 152:src/Tests.cpp ****     for(int i = 0; i < num;i++)
 153:src/Tests.cpp ****     {
 154:src/Tests.cpp ****         int retval = mem_free(addrs[i]);
 155:src/Tests.cpp ****         if(retval != 0)
 156:src/Tests.cpp ****         {
 157:src/Tests.cpp ****             Riscv::printString("not OK\n");
 158:src/Tests.cpp ****             return;
 159:src/Tests.cpp ****         }
 160:src/Tests.cpp ****     }
 161:src/Tests.cpp **** 
 162:src/Tests.cpp ****     Riscv::printString("OK\n");
 163:src/Tests.cpp **** }
 164:src/Tests.cpp **** void bigMalloc()
 165:src/Tests.cpp **** {
 166:src/Tests.cpp ****     Riscv::printString("bigMalloc\n");
 167:src/Tests.cpp ****     uint64 x = (uint64)HEAP_END_ADDR - (uint64)HEAP_START_ADDR + 100UL;
 168:src/Tests.cpp ****     void* p = mem_alloc(x);
 169:src/Tests.cpp ****     if(p == 0)
 170:src/Tests.cpp ****         Riscv::printString("OK\n");
 171:src/Tests.cpp ****     else
 172:src/Tests.cpp ****         Riscv::printString("not OK\n");
 173:src/Tests.cpp **** }
 174:src/Tests.cpp **** 
 175:src/Tests.cpp **** void lotOfSmallMallocs()
 176:src/Tests.cpp **** {
 177:src/Tests.cpp ****     Riscv::printString("lotOfSmallMallocs\n");
GAS LISTING /tmp/cczxdMQq.s 			page 11


 178:src/Tests.cpp ****     uint64 cnt = 0;
 179:src/Tests.cpp ****     uint64 sum = 0;
 180:src/Tests.cpp ****     uint64 N = 10000UL;
 181:src/Tests.cpp ****     uint64 X = 10UL;
 182:src/Tests.cpp ****     for(uint64 i = 0; i < N;i++)
 183:src/Tests.cpp ****     {
 184:src/Tests.cpp ****         Test* t = (Test*)mem_alloc(sizeof(Test));
 185:src/Tests.cpp ****         if(t == 0)
 186:src/Tests.cpp ****             break;
 187:src/Tests.cpp ****         t->a = X;
 188:src/Tests.cpp ****         sum+=t->a;
 189:src/Tests.cpp ****         cnt++;
 190:src/Tests.cpp ****     }
 191:src/Tests.cpp ****     Riscv::printInteger(cnt);
 192:src/Tests.cpp ****     Riscv::printString("\n");
 193:src/Tests.cpp ****     if(sum == X*cnt)
 194:src/Tests.cpp ****         Riscv::printString("OK\n");
 195:src/Tests.cpp ****     else
 196:src/Tests.cpp ****         Riscv::printString("not OK\n");
 197:src/Tests.cpp **** }
 198:src/Tests.cpp **** void badFree()
 199:src/Tests.cpp **** {
 200:src/Tests.cpp ****     Riscv::printString("badFree\n");
 201:src/Tests.cpp ****     Test* t = (Test*)mem_alloc(sizeof(Test));
 202:src/Tests.cpp ****     uint64 retval = mem_free((char*)t + 2);
 203:src/Tests.cpp ****     if(retval == 0)
 204:src/Tests.cpp ****         Riscv::printString("not OK\n");
 205:src/Tests.cpp ****     else
 206:src/Tests.cpp ****         Riscv::printString("OK\n");
 207:src/Tests.cpp **** }
 208:src/Tests.cpp **** 
 209:src/Tests.cpp **** void stressTesting()
 210:src/Tests.cpp **** {
 211:src/Tests.cpp ****     Riscv::printString("stressTesting\n");
 212:src/Tests.cpp ****     constexpr int num = 100;
 213:src/Tests.cpp ****     void* addrs[num];
 214:src/Tests.cpp ****     for(int i = 0; i < num;i++)
 215:src/Tests.cpp ****     {
 216:src/Tests.cpp ****         addrs[i] = mem_alloc(1);
 217:src/Tests.cpp ****         if(addrs[i] == 0)
 218:src/Tests.cpp ****         {
 219:src/Tests.cpp ****             //Riscv::printString("not OK\n");
 220:src/Tests.cpp ****             return;
 221:src/Tests.cpp ****         }
 222:src/Tests.cpp **** 
 223:src/Tests.cpp ****     }
 224:src/Tests.cpp ****     int sz = 300;
 225:src/Tests.cpp ****     while(sz > 0)
 226:src/Tests.cpp ****     {
 227:src/Tests.cpp ****         //Riscv::printString("sz : ");
 228:src/Tests.cpp ****         //Riscv::printInteger(sz);
 229:src/Tests.cpp ****         for(int i = 0 ; i < num;i+=2)
 230:src/Tests.cpp ****         {
 231:src/Tests.cpp ****             //Riscv::printString("i : ");
 232:src/Tests.cpp ****             //Riscv::printInteger(i);
 233:src/Tests.cpp ****             //Riscv::printString("free\n");
 234:src/Tests.cpp ****             int retval = mem_free(addrs[i]);
GAS LISTING /tmp/cczxdMQq.s 			page 12


 235:src/Tests.cpp ****             if(retval != 0)
 236:src/Tests.cpp ****             {
 237:src/Tests.cpp ****                 //Riscv::printString("not OK\n");
 238:src/Tests.cpp ****                 return;
 239:src/Tests.cpp ****             }
 240:src/Tests.cpp ****             //Riscv::printString("alloc\n");
 241:src/Tests.cpp ****             addrs[i] = mem_alloc(sz/2);
 242:src/Tests.cpp ****             if(addrs[i] == 0)
 243:src/Tests.cpp ****             {
 244:src/Tests.cpp ****                 //Riscv::printString("not Ok\n");
 245:src/Tests.cpp ****                 return;
 246:src/Tests.cpp ****             }
 247:src/Tests.cpp **** 
 248:src/Tests.cpp ****         }
 249:src/Tests.cpp **** 
 250:src/Tests.cpp ****         for(int i = 1 ; i < num;i+=2)
 251:src/Tests.cpp ****         {
 252:src/Tests.cpp ****             //Riscv::printString("i : ");
 253:src/Tests.cpp ****             //Riscv::printInteger(i);
 254:src/Tests.cpp ****             //Riscv::printString("free\n");
 255:src/Tests.cpp ****             int retval = mem_free(addrs[i]);
 256:src/Tests.cpp ****             if(retval != 0)
 257:src/Tests.cpp ****             {
 258:src/Tests.cpp ****                 //Riscv::printString("not OK\n");
 259:src/Tests.cpp ****                 return;
 260:src/Tests.cpp ****             }
 261:src/Tests.cpp ****             //Riscv::printString("alloc\n");
 262:src/Tests.cpp ****             addrs[i] = mem_alloc(sz);
 263:src/Tests.cpp ****             if(addrs[i] == 0)
 264:src/Tests.cpp ****             {
 265:src/Tests.cpp ****                 //Riscv::printString("not Ok\n");
 266:src/Tests.cpp ****                 return;
 267:src/Tests.cpp ****             }
 268:src/Tests.cpp **** 
 269:src/Tests.cpp ****         }
 270:src/Tests.cpp ****         sz-=10;
 271:src/Tests.cpp ****     }
 272:src/Tests.cpp **** 
 273:src/Tests.cpp ****     Riscv::printString("OK\n");
 274:src/Tests.cpp **** }
 275:src/Tests.cpp **** 
 276:src/Tests.cpp **** void memoryAllocationTests()
 277:src/Tests.cpp **** {
 278:src/Tests.cpp ****     //bigMalloc();
 279:src/Tests.cpp ****     //lotOfSmallMallocs();
 280:src/Tests.cpp ****     //mallocFree();
 281:src/Tests.cpp ****     //badFree();
 282:src/Tests.cpp ****     stressTesting();
 283:src/Tests.cpp **** }
 284:src/Tests.cpp **** 
 285:src/Tests.cpp **** //semaphore tests
 286:src/Tests.cpp **** static Semaphore* mutex;
 287:src/Tests.cpp **** 
 288:src/Tests.cpp **** void f1(void* p)
 289:src/Tests.cpp **** {
 290:src/Tests.cpp ****     Riscv::printString("f1 started\n");
 291:src/Tests.cpp ****     int x = 0;
GAS LISTING /tmp/cczxdMQq.s 			page 13


 292:src/Tests.cpp ****     while(true)
 293:src/Tests.cpp ****     {
 294:src/Tests.cpp ****         x++;
 295:src/Tests.cpp ****         mutex->wait();
 296:src/Tests.cpp ****         //__putc('1');
 297:src/Tests.cpp ****         //__putc('\n');
 298:src/Tests.cpp ****         mutex->signal();
 299:src/Tests.cpp ****         if(x < 50000)
 300:src/Tests.cpp ****             thread_dispatch();
 301:src/Tests.cpp ****         else
 302:src/Tests.cpp ****             thread_exit();
 303:src/Tests.cpp ****     }
 304:src/Tests.cpp **** }
 305:src/Tests.cpp **** 
 306:src/Tests.cpp **** void f2(void* p)
 307:src/Tests.cpp **** {
 308:src/Tests.cpp ****     Riscv::printString("f2 started\n");
 309:src/Tests.cpp ****     int x = 0;
 310:src/Tests.cpp ****     while(true)
 311:src/Tests.cpp ****     {
 312:src/Tests.cpp ****         mutex->wait();
 313:src/Tests.cpp ****         //__putc('2');
 314:src/Tests.cpp ****         //__putc('\n');
 315:src/Tests.cpp ****         mutex->signal();
 316:src/Tests.cpp ****         if(x < 50000)
 317:src/Tests.cpp ****             thread_dispatch();
 318:src/Tests.cpp ****         else
 319:src/Tests.cpp ****             thread_exit();
 320:src/Tests.cpp ****     }
 321:src/Tests.cpp **** }
 322:src/Tests.cpp **** 
 323:src/Tests.cpp **** void semTest1()
 324:src/Tests.cpp **** {
 325:src/Tests.cpp ****     mutex = new Semaphore(1);
 326:src/Tests.cpp ****     Thread* t1 = new Thread(&f1, 0);
 327:src/Tests.cpp ****     Thread* t2 = new Thread(&f2, 0);
 328:src/Tests.cpp ****     t1->start();
 329:src/Tests.cpp ****     t2->start();
 330:src/Tests.cpp **** 
 331:src/Tests.cpp ****     int y = 0;
 332:src/Tests.cpp ****     while(true)
 333:src/Tests.cpp ****     {
 334:src/Tests.cpp ****         y++;
 335:src/Tests.cpp ****         thread_dispatch();
 336:src/Tests.cpp ****         if(y == 200000)
 337:src/Tests.cpp ****             break;
 338:src/Tests.cpp ****     }
 339:src/Tests.cpp **** }
 340:src/Tests.cpp **** 
 341:src/Tests.cpp **** static Semaphore* s1;
 342:src/Tests.cpp **** static Semaphore* s2;
 343:src/Tests.cpp **** static Semaphore* s3;
 344:src/Tests.cpp **** 
 345:src/Tests.cpp **** void f1_2(void* p)
 346:src/Tests.cpp **** {
 347:src/Tests.cpp ****     Riscv::printString("f1_2 started\n");
 348:src/Tests.cpp ****     int x = 0;
GAS LISTING /tmp/cczxdMQq.s 			page 14


 349:src/Tests.cpp ****     while(true)
 350:src/Tests.cpp ****     {
 351:src/Tests.cpp ****         x++;
 352:src/Tests.cpp ****         s1->wait();
 353:src/Tests.cpp ****         __putc('1');
 354:src/Tests.cpp ****         __putc('\n');
 355:src/Tests.cpp ****         s2->signal();
 356:src/Tests.cpp ****         if(x < 5000)
 357:src/Tests.cpp ****             thread_dispatch();
 358:src/Tests.cpp ****         else
 359:src/Tests.cpp ****             thread_exit();
 360:src/Tests.cpp ****     }
 361:src/Tests.cpp **** }
 362:src/Tests.cpp **** 
 363:src/Tests.cpp **** void f2_2(void* p)
 364:src/Tests.cpp **** {
 365:src/Tests.cpp ****     Riscv::printString("f2_2 started\n");
 366:src/Tests.cpp ****     int x = 0;
 367:src/Tests.cpp ****     while(true)
 368:src/Tests.cpp ****     {
 369:src/Tests.cpp ****         x++;
 370:src/Tests.cpp ****         s2->wait();
 371:src/Tests.cpp ****         __putc('2');
 372:src/Tests.cpp ****         __putc('\n');
 373:src/Tests.cpp ****         s3->signal();
 374:src/Tests.cpp ****         if(x < 5000)
 375:src/Tests.cpp ****             thread_dispatch();
 376:src/Tests.cpp ****         else
 377:src/Tests.cpp ****             thread_exit();
 378:src/Tests.cpp ****     }
 379:src/Tests.cpp **** }
 380:src/Tests.cpp **** 
 381:src/Tests.cpp **** void f3_2(void* p)
 382:src/Tests.cpp **** {
 383:src/Tests.cpp ****     Riscv::printString("f3_2 started\n");
 384:src/Tests.cpp ****     int x = 0;
 385:src/Tests.cpp ****     while(true)
 386:src/Tests.cpp ****     {
 387:src/Tests.cpp ****         x++;
 388:src/Tests.cpp ****         s3->wait();
 389:src/Tests.cpp ****         __putc('3');
 390:src/Tests.cpp ****         __putc('\n');
 391:src/Tests.cpp ****         s1->signal();
 392:src/Tests.cpp ****         if(x < 5000)
 393:src/Tests.cpp ****             thread_dispatch();
 394:src/Tests.cpp ****         else
 395:src/Tests.cpp ****             thread_exit();
 396:src/Tests.cpp ****     }
 397:src/Tests.cpp **** }
 398:src/Tests.cpp **** 
 399:src/Tests.cpp **** void semTest2()
 400:src/Tests.cpp **** {
 401:src/Tests.cpp ****     s1 = new Semaphore(1);
 402:src/Tests.cpp ****     s2 = new Semaphore(0);
 403:src/Tests.cpp ****     s3 = new Semaphore(0);
 404:src/Tests.cpp ****     Thread* t1 = new Thread(&f1_2, 0);
 405:src/Tests.cpp ****     Thread* t2 = new Thread(&f2_2, 0);
GAS LISTING /tmp/cczxdMQq.s 			page 15


 406:src/Tests.cpp ****     Thread* t3 = new Thread(&f3_2, 0);
 407:src/Tests.cpp ****     t3->start();
 408:src/Tests.cpp ****     t2->start();
 409:src/Tests.cpp ****     t1->start();
 410:src/Tests.cpp **** 
 411:src/Tests.cpp ****     int y = 0;
 412:src/Tests.cpp ****     while(true)
 413:src/Tests.cpp ****     {
 414:src/Tests.cpp ****         y++;
 415:src/Tests.cpp ****         thread_dispatch();
 416:src/Tests.cpp ****         if(y == 200000)
 417:src/Tests.cpp ****             break;
 418:src/Tests.cpp ****     }
 419:src/Tests.cpp **** 
 420:src/Tests.cpp **** }
 421:src/Tests.cpp **** 
 422:src/Tests.cpp **** void semaphoreTests()
 423:src/Tests.cpp **** {
 424:src/Tests.cpp ****     //semTest1();
 425:src/Tests.cpp ****     semTest2();
 426:src/Tests.cpp **** }
 427:src/Tests.cpp **** 
 428:src/Tests.cpp **** void myTests()
 429:src/Tests.cpp **** {
 430:src/Tests.cpp ****     //memoryAllocationTests();
 431:src/Tests.cpp ****     threadTests();
 432:src/Tests.cpp ****     //testQueue();
 433:src/Tests.cpp ****     //semaphoreTests();
 434:src/Tests.cpp **** }
 435:src/Tests.cpp **** 
 436:src/Tests.cpp **** TestPeriodic::TestPeriodic(time_t time) : PeriodicThread(time) {
 437:src/Tests.cpp **** 
 438:src/Tests.cpp **** }
 439:src/Tests.cpp **** 
 440:src/Tests.cpp **** void TestPeriodic::periodicActivation()
 441:src/Tests.cpp **** {
 292              		.loc 2 441 1 is_stmt 1
 293              		.cfi_startproc
 294              	.LVL26:
 295 015c 130101FE 		addi	sp,sp,-32
 296              		.cfi_def_cfa_offset 32
 297 0160 233C1100 		sd	ra,24(sp)
 298 0164 23388100 		sd	s0,16(sp)
 299 0168 23349100 		sd	s1,8(sp)
 300              		.cfi_offset 1, -8
 301              		.cfi_offset 8, -16
 302              		.cfi_offset 9, -24
 303 016c 13040102 		addi	s0,sp,32
 304              		.cfi_def_cfa 8, 0
 442:src/Tests.cpp ****     for(int i = 0 ; i < 10000;i++)
 305              		.loc 2 442 5
 306              	.LVL27:
 307              	.LBB22:
 308              		.loc 2 442 13 is_stmt 0
 309 0170 93040000 		li	s1,0
 310              	.LVL28:
 311              	.L22:
GAS LISTING /tmp/cczxdMQq.s 			page 16


 312              		.loc 2 442 23 is_stmt 1 discriminator 3
 313 0174 B7270000 		li	a5,8192
 314 0178 9387F770 		addi	a5,a5,1807
 315 017c 63C49702 		bgt	s1,a5,.L20
 443:src/Tests.cpp ****     {
 444:src/Tests.cpp ****         Riscv::printString("i : ");
 316              		.loc 2 444 9 discriminator 2
 317              		.loc 2 444 27 is_stmt 0 discriminator 2
 318 0180 17050000 		lla	a0,.LC2
 318      13050500 
 319 0188 97000000 		call	_ZN5Riscv11printStringEPKc@plt
 319      E7800000 
 320              	.LVL29:
 445:src/Tests.cpp ****         Riscv::printInteger(i);
 321              		.loc 2 445 9 is_stmt 1 discriminator 2
 322              		.loc 2 445 28 is_stmt 0 discriminator 2
 323 0190 13850400 		mv	a0,s1
 324 0194 97000000 		call	_ZN5Riscv12printIntegerEm@plt
 324      E7800000 
 325              	.LVL30:
 442:src/Tests.cpp ****     for(int i = 0 ; i < 10000;i++)
 326              		.loc 2 442 5 is_stmt 1 discriminator 2
 327 019c 9B841400 		addiw	s1,s1,1
 328              	.LVL31:
 329 01a0 6FF05FFD 		j	.L22
 330              	.LVL32:
 331              	.L20:
 332              	.LBE22:
 446:src/Tests.cpp ****     }
 447:src/Tests.cpp **** }...
 333              		.loc 2 447 1 is_stmt 0
 334 01a4 83308101 		ld	ra,24(sp)
 335              		.cfi_restore 1
 336 01a8 03340101 		ld	s0,16(sp)
 337              		.cfi_restore 8
 338              		.cfi_def_cfa 2, 32
 339 01ac 83348100 		ld	s1,8(sp)
 340              		.cfi_restore 9
 341              	.LVL33:
 342 01b0 13010102 		addi	sp,sp,32
 343              		.cfi_def_cfa_offset 0
 344 01b4 67800000 		jr	ra
 345              		.cfi_endproc
 346              	.LFE53:
 348              		.align	2
 349              		.globl	_Z20thread2FunctionTest2Pv
 351              	_Z20thread2FunctionTest2Pv:
 352              	.LFB26:
  46:src/Tests.cpp **** {
 353              		.loc 2 46 1 is_stmt 1
 354              		.cfi_startproc
 355              	.LVL34:
 356 01b8 130101FE 		addi	sp,sp,-32
 357              		.cfi_def_cfa_offset 32
 358 01bc 233C1100 		sd	ra,24(sp)
 359 01c0 23388100 		sd	s0,16(sp)
 360 01c4 23349100 		sd	s1,8(sp)
GAS LISTING /tmp/cczxdMQq.s 			page 17


 361              		.cfi_offset 1, -8
 362              		.cfi_offset 8, -16
 363              		.cfi_offset 9, -24
 364 01c8 13040102 		addi	s0,sp,32
 365              		.cfi_def_cfa 8, 0
  47:src/Tests.cpp ****     Riscv::printString("Thread 2 started...\n");
 366              		.loc 2 47 5
  47:src/Tests.cpp ****     Riscv::printString("Thread 2 started...\n");
 367              		.loc 2 47 23 is_stmt 0
 368 01cc 17050000 		lla	a0,.LC4
 368      13050500 
 369              	.LVL35:
 370 01d4 97000000 		call	_ZN5Riscv11printStringEPKc@plt
 370      E7800000 
 371              	.LVL36:
  48:src/Tests.cpp ****     uint64 num = 10000;
 372              		.loc 2 48 5 is_stmt 1
  49:src/Tests.cpp ****     for(uint64 j = 0; j < num;j++)
 373              		.loc 2 49 5
 374              	.LBB23:
  49:src/Tests.cpp ****     for(uint64 j = 0; j < num;j++)
 375              		.loc 2 49 16 is_stmt 0
 376 01dc 93040000 		li	s1,0
 377 01e0 6F008004 		j	.L28
 378              	.LVL37:
 379              	.L30:
  52:src/Tests.cpp ****             thread_exit();
 380              		.loc 2 52 13 is_stmt 1
  52:src/Tests.cpp ****             thread_exit();
 381              		.loc 2 52 24 is_stmt 0
 382 01e4 97000000 		call	thread_exit@plt
 382      E7800000 
 383              	.LVL38:
 384 01ec 6F000005 		j	.L26
 385              	.L31:
  54:src/Tests.cpp ****             thread_dispatch();
 386              		.loc 2 54 13 is_stmt 1
  54:src/Tests.cpp ****             thread_dispatch();
 387              		.loc 2 54 28 is_stmt 0
 388 01f0 97000000 		call	thread_dispatch@plt
 388      E7800000 
 389              	.LVL39:
 390              	.L27:
  55:src/Tests.cpp ****         Riscv::printString("j : ");
 391              		.loc 2 55 9 is_stmt 1 discriminator 2
  55:src/Tests.cpp ****         Riscv::printString("j : ");
 392              		.loc 2 55 27 is_stmt 0 discriminator 2
 393 01f8 17050000 		lla	a0,.LC5
 393      13050500 
 394 0200 97000000 		call	_ZN5Riscv11printStringEPKc@plt
 394      E7800000 
 395              	.LVL40:
  56:src/Tests.cpp ****         Riscv::printInteger(j);
 396              		.loc 2 56 9 is_stmt 1 discriminator 2
  56:src/Tests.cpp ****         Riscv::printInteger(j);
 397              		.loc 2 56 28 is_stmt 0 discriminator 2
 398 0208 13850400 		mv	a0,s1
GAS LISTING /tmp/cczxdMQq.s 			page 18


 399 020c 97000000 		call	_ZN5Riscv12printIntegerEm@plt
 399      E7800000 
 400              	.LVL41:
  57:src/Tests.cpp ****         Riscv::printString("\n");
 401              		.loc 2 57 9 is_stmt 1 discriminator 2
  57:src/Tests.cpp ****         Riscv::printString("\n");
 402              		.loc 2 57 27 is_stmt 0 discriminator 2
 403 0214 17050000 		lla	a0,.LC3
 403      13050500 
 404 021c 97000000 		call	_ZN5Riscv11printStringEPKc@plt
 404      E7800000 
 405              	.LVL42:
  49:src/Tests.cpp ****     for(uint64 j = 0; j < num;j++)
 406              		.loc 2 49 5 is_stmt 1 discriminator 2
 407 0224 93841400 		addi	s1,s1,1
 408              	.LVL43:
 409              	.L28:
  49:src/Tests.cpp ****     for(uint64 j = 0; j < num;j++)
 410              		.loc 2 49 25 discriminator 1
 411 0228 B7270000 		li	a5,8192
 412 022c 9387F770 		addi	a5,a5,1807
 413 0230 63E09702 		bgtu	s1,a5,.L24
  51:src/Tests.cpp ****         if(j == 200)
 414              		.loc 2 51 9
 415 0234 9307800C 		li	a5,200
 416 0238 E386F4FA 		beq	s1,a5,.L30
 417              	.L26:
  53:src/Tests.cpp ****         if(j % 50 == 0 && j > 0)
 418              		.loc 2 53 9
  53:src/Tests.cpp ****         if(j % 50 == 0 && j > 0)
 419              		.loc 2 53 14 is_stmt 0
 420 023c 93072003 		li	a5,50
 421 0240 B3F7F402 		remu	a5,s1,a5
  53:src/Tests.cpp ****         if(j % 50 == 0 && j > 0)
 422              		.loc 2 53 9
 423 0244 E39A07FA 		bnez	a5,.L27
  53:src/Tests.cpp ****         if(j % 50 == 0 && j > 0)
 424              		.loc 2 53 24 discriminator 1
 425 0248 E38804FA 		beqz	s1,.L27
 426 024c 6FF05FFA 		j	.L31
 427              	.L24:
 428              	.LBE23:
  59:src/Tests.cpp **** }
 429              		.loc 2 59 1
 430 0250 83308101 		ld	ra,24(sp)
 431              		.cfi_restore 1
 432 0254 03340101 		ld	s0,16(sp)
 433              		.cfi_restore 8
 434              		.cfi_def_cfa 2, 32
 435 0258 83348100 		ld	s1,8(sp)
 436              		.cfi_restore 9
 437              	.LVL44:
 438 025c 13010102 		addi	sp,sp,32
 439              		.cfi_def_cfa_offset 0
 440 0260 67800000 		jr	ra
 441              		.cfi_endproc
 442              	.LFE26:
GAS LISTING /tmp/cczxdMQq.s 			page 19


 444              		.section	.rodata.str1.8
 445 004d 000000   		.align	3
 446              	.LC6:
 447 0050 66312073 		.string	"f1 started\n"
 447      74617274 
 447      65640A00 
 448              		.text
 449              		.align	2
 450              		.globl	_Z2f1Pv
 452              	_Z2f1Pv:
 453              	.LFB37:
 289:src/Tests.cpp **** {
 454              		.loc 2 289 1 is_stmt 1
 455              		.cfi_startproc
 456              	.LVL45:
 457 0264 130101FE 		addi	sp,sp,-32
 458              		.cfi_def_cfa_offset 32
 459 0268 233C1100 		sd	ra,24(sp)
 460 026c 23388100 		sd	s0,16(sp)
 461 0270 23349100 		sd	s1,8(sp)
 462 0274 23302101 		sd	s2,0(sp)
 463              		.cfi_offset 1, -8
 464              		.cfi_offset 8, -16
 465              		.cfi_offset 9, -24
 466              		.cfi_offset 18, -32
 467 0278 13040102 		addi	s0,sp,32
 468              		.cfi_def_cfa 8, 0
 290:src/Tests.cpp ****     Riscv::printString("f1 started\n");
 469              		.loc 2 290 5
 290:src/Tests.cpp ****     Riscv::printString("f1 started\n");
 470              		.loc 2 290 23 is_stmt 0
 471 027c 17050000 		lla	a0,.LC6
 471      13050500 
 472              	.LVL46:
 473 0284 97000000 		call	_ZN5Riscv11printStringEPKc@plt
 473      E7800000 
 474              	.LVL47:
 291:src/Tests.cpp ****     int x = 0;
 475              		.loc 2 291 5 is_stmt 1
 291:src/Tests.cpp ****     int x = 0;
 476              		.loc 2 291 9 is_stmt 0
 477 028c 93040000 		li	s1,0
 478 0290 6F00C000 		j	.L33
 479              	.LVL48:
 480              	.L34:
 302:src/Tests.cpp ****             thread_exit();
 481              		.loc 2 302 13 is_stmt 1
 302:src/Tests.cpp ****             thread_exit();
 482              		.loc 2 302 24 is_stmt 0
 483 0294 97000000 		call	thread_exit@plt
 483      E7800000 
 484              	.LVL49:
 485              	.L33:
 292:src/Tests.cpp ****     while(true)
 486              		.loc 2 292 5 is_stmt 1
 294:src/Tests.cpp ****         x++;
 487              		.loc 2 294 9
GAS LISTING /tmp/cczxdMQq.s 			page 20


 294:src/Tests.cpp ****         x++;
 488              		.loc 2 294 10 is_stmt 0
 489 029c 9B841400 		addiw	s1,s1,1
 490              	.LVL50:
 295:src/Tests.cpp ****         mutex->wait();
 491              		.loc 2 295 9 is_stmt 1
 295:src/Tests.cpp ****         mutex->wait();
 492              		.loc 2 295 20 is_stmt 0
 493 02a0 17090000 		lla	s2,.LANCHOR0
 493      13090900 
 494 02a8 03350900 		ld	a0,0(s2)
 495 02ac 97000000 		call	_ZN9Semaphore4waitEv@plt
 495      E7800000 
 496              	.LVL51:
 298:src/Tests.cpp ****         mutex->signal();
 497              		.loc 2 298 9 is_stmt 1
 298:src/Tests.cpp ****         mutex->signal();
 498              		.loc 2 298 22 is_stmt 0
 499 02b4 03350900 		ld	a0,0(s2)
 500 02b8 97000000 		call	_ZN9Semaphore6signalEv@plt
 500      E7800000 
 501              	.LVL52:
 299:src/Tests.cpp ****         if(x < 50000)
 502              		.loc 2 299 9 is_stmt 1
 503 02c0 B7C70000 		li	a5,49152
 504 02c4 9387F734 		addi	a5,a5,847
 505 02c8 E3C697FC 		bgt	s1,a5,.L34
 300:src/Tests.cpp ****             thread_dispatch();
 506              		.loc 2 300 13
 300:src/Tests.cpp ****             thread_dispatch();
 507              		.loc 2 300 28 is_stmt 0
 508 02cc 97000000 		call	thread_dispatch@plt
 508      E7800000 
 509              	.LVL53:
 510 02d4 6FF09FFC 		j	.L33
 511              		.cfi_endproc
 512              	.LFE37:
 514              		.section	.rodata.str1.8
 515 005c 00000000 		.align	3
 516              	.LC7:
 517 0060 66322073 		.string	"f2 started\n"
 517      74617274 
 517      65640A00 
 518              		.text
 519              		.align	2
 520              		.globl	_Z2f2Pv
 522              	_Z2f2Pv:
 523              	.LFB38:
 307:src/Tests.cpp **** {
 524              		.loc 2 307 1 is_stmt 1
 525              		.cfi_startproc
 526              	.LVL54:
 527 02d8 130101FE 		addi	sp,sp,-32
 528              		.cfi_def_cfa_offset 32
 529 02dc 233C1100 		sd	ra,24(sp)
 530 02e0 23388100 		sd	s0,16(sp)
 531 02e4 23349100 		sd	s1,8(sp)
GAS LISTING /tmp/cczxdMQq.s 			page 21


 532              		.cfi_offset 1, -8
 533              		.cfi_offset 8, -16
 534              		.cfi_offset 9, -24
 535 02e8 13040102 		addi	s0,sp,32
 536              		.cfi_def_cfa 8, 0
 308:src/Tests.cpp ****     Riscv::printString("f2 started\n");
 537              		.loc 2 308 5
 308:src/Tests.cpp ****     Riscv::printString("f2 started\n");
 538              		.loc 2 308 23 is_stmt 0
 539 02ec 17050000 		lla	a0,.LC7
 539      13050500 
 540              	.LVL55:
 541 02f4 97000000 		call	_ZN5Riscv11printStringEPKc@plt
 541      E7800000 
 542              	.LVL56:
 309:src/Tests.cpp ****     int x = 0;
 543              		.loc 2 309 5 is_stmt 1
 544              	.L38:
 310:src/Tests.cpp ****     while(true)
 545              		.loc 2 310 5
 312:src/Tests.cpp ****         mutex->wait();
 546              		.loc 2 312 9
 312:src/Tests.cpp ****         mutex->wait();
 547              		.loc 2 312 20 is_stmt 0
 548 02fc 97040000 		lla	s1,.LANCHOR0
 548      93840400 
 549 0304 03B50400 		ld	a0,0(s1)
 550 0308 97000000 		call	_ZN9Semaphore4waitEv@plt
 550      E7800000 
 551              	.LVL57:
 315:src/Tests.cpp ****         mutex->signal();
 552              		.loc 2 315 9 is_stmt 1
 315:src/Tests.cpp ****         mutex->signal();
 553              		.loc 2 315 22 is_stmt 0
 554 0310 03B50400 		ld	a0,0(s1)
 555 0314 97000000 		call	_ZN9Semaphore6signalEv@plt
 555      E7800000 
 556              	.LVL58:
 316:src/Tests.cpp ****         if(x < 50000)
 557              		.loc 2 316 9 is_stmt 1
 317:src/Tests.cpp ****             thread_dispatch();
 558              		.loc 2 317 13
 317:src/Tests.cpp ****             thread_dispatch();
 559              		.loc 2 317 28 is_stmt 0
 560 031c 97000000 		call	thread_dispatch@plt
 560      E7800000 
 561              	.LVL59:
 562 0324 6FF09FFD 		j	.L38
 563              		.cfi_endproc
 564              	.LFE38:
 566              		.section	.rodata.str1.8
 567 006c 00000000 		.align	3
 568              	.LC8:
 569 0070 66315F32 		.string	"f1_2 started\n"
 569      20737461 
 569      72746564 
 569      0A00
GAS LISTING /tmp/cczxdMQq.s 			page 22


 570              		.text
 571              		.align	2
 572              		.globl	_Z4f1_2Pv
 574              	_Z4f1_2Pv:
 575              	.LFB40:
 346:src/Tests.cpp **** {
 576              		.loc 2 346 1 is_stmt 1
 577              		.cfi_startproc
 578              	.LVL60:
 579 0328 130101FE 		addi	sp,sp,-32
 580              		.cfi_def_cfa_offset 32
 581 032c 233C1100 		sd	ra,24(sp)
 582 0330 23388100 		sd	s0,16(sp)
 583 0334 23349100 		sd	s1,8(sp)
 584 0338 23302101 		sd	s2,0(sp)
 585              		.cfi_offset 1, -8
 586              		.cfi_offset 8, -16
 587              		.cfi_offset 9, -24
 588              		.cfi_offset 18, -32
 589 033c 13040102 		addi	s0,sp,32
 590              		.cfi_def_cfa 8, 0
 347:src/Tests.cpp ****     Riscv::printString("f1_2 started\n");
 591              		.loc 2 347 5
 347:src/Tests.cpp ****     Riscv::printString("f1_2 started\n");
 592              		.loc 2 347 23 is_stmt 0
 593 0340 17050000 		lla	a0,.LC8
 593      13050500 
 594              	.LVL61:
 595 0348 97000000 		call	_ZN5Riscv11printStringEPKc@plt
 595      E7800000 
 596              	.LVL62:
 348:src/Tests.cpp ****     int x = 0;
 597              		.loc 2 348 5 is_stmt 1
 348:src/Tests.cpp ****     int x = 0;
 598              		.loc 2 348 9 is_stmt 0
 599 0350 93040000 		li	s1,0
 600 0354 6F00C000 		j	.L41
 601              	.LVL63:
 602              	.L42:
 359:src/Tests.cpp ****             thread_exit();
 603              		.loc 2 359 13 is_stmt 1
 359:src/Tests.cpp ****             thread_exit();
 604              		.loc 2 359 24 is_stmt 0
 605 0358 97000000 		call	thread_exit@plt
 605      E7800000 
 606              	.LVL64:
 607              	.L41:
 349:src/Tests.cpp ****     while(true)
 608              		.loc 2 349 5 is_stmt 1
 351:src/Tests.cpp ****         x++;
 609              		.loc 2 351 9
 351:src/Tests.cpp ****         x++;
 610              		.loc 2 351 10 is_stmt 0
 611 0360 9B841400 		addiw	s1,s1,1
 612              	.LVL65:
 352:src/Tests.cpp ****         s1->wait();
 613              		.loc 2 352 9 is_stmt 1
GAS LISTING /tmp/cczxdMQq.s 			page 23


 352:src/Tests.cpp ****         s1->wait();
 614              		.loc 2 352 17 is_stmt 0
 615 0364 17090000 		lla	s2,.LANCHOR0
 615      13090900 
 616 036c 03358900 		ld	a0,8(s2)
 617 0370 97000000 		call	_ZN9Semaphore4waitEv@plt
 617      E7800000 
 618              	.LVL66:
 353:src/Tests.cpp ****         __putc('1');
 619              		.loc 2 353 9 is_stmt 1
 353:src/Tests.cpp ****         __putc('1');
 620              		.loc 2 353 15 is_stmt 0
 621 0378 13051003 		li	a0,49
 622 037c 97000000 		call	__putc@plt
 622      E7800000 
 623              	.LVL67:
 354:src/Tests.cpp ****         __putc('\n');
 624              		.loc 2 354 9 is_stmt 1
 354:src/Tests.cpp ****         __putc('\n');
 625              		.loc 2 354 15 is_stmt 0
 626 0384 1305A000 		li	a0,10
 627 0388 97000000 		call	__putc@plt
 627      E7800000 
 628              	.LVL68:
 355:src/Tests.cpp ****         s2->signal();
 629              		.loc 2 355 9 is_stmt 1
 355:src/Tests.cpp ****         s2->signal();
 630              		.loc 2 355 19 is_stmt 0
 631 0390 03350901 		ld	a0,16(s2)
 632 0394 97000000 		call	_ZN9Semaphore6signalEv@plt
 632      E7800000 
 633              	.LVL69:
 356:src/Tests.cpp ****         if(x < 5000)
 634              		.loc 2 356 9 is_stmt 1
 635 039c B7170000 		li	a5,4096
 636 03a0 93877738 		addi	a5,a5,903
 637 03a4 E3CA97FA 		bgt	s1,a5,.L42
 357:src/Tests.cpp ****             thread_dispatch();
 638              		.loc 2 357 13
 357:src/Tests.cpp ****             thread_dispatch();
 639              		.loc 2 357 28 is_stmt 0
 640 03a8 97000000 		call	thread_dispatch@plt
 640      E7800000 
 641              	.LVL70:
 642 03b0 6FF01FFB 		j	.L41
 643              		.cfi_endproc
 644              	.LFE40:
 646              		.section	.rodata.str1.8
 647 007e 0000     		.align	3
 648              	.LC9:
 649 0080 66325F32 		.string	"f2_2 started\n"
 649      20737461 
 649      72746564 
 649      0A00
 650              		.text
 651              		.align	2
 652              		.globl	_Z4f2_2Pv
GAS LISTING /tmp/cczxdMQq.s 			page 24


 654              	_Z4f2_2Pv:
 655              	.LFB41:
 364:src/Tests.cpp **** {
 656              		.loc 2 364 1 is_stmt 1
 657              		.cfi_startproc
 658              	.LVL71:
 659 03b4 130101FE 		addi	sp,sp,-32
 660              		.cfi_def_cfa_offset 32
 661 03b8 233C1100 		sd	ra,24(sp)
 662 03bc 23388100 		sd	s0,16(sp)
 663 03c0 23349100 		sd	s1,8(sp)
 664 03c4 23302101 		sd	s2,0(sp)
 665              		.cfi_offset 1, -8
 666              		.cfi_offset 8, -16
 667              		.cfi_offset 9, -24
 668              		.cfi_offset 18, -32
 669 03c8 13040102 		addi	s0,sp,32
 670              		.cfi_def_cfa 8, 0
 365:src/Tests.cpp ****     Riscv::printString("f2_2 started\n");
 671              		.loc 2 365 5
 365:src/Tests.cpp ****     Riscv::printString("f2_2 started\n");
 672              		.loc 2 365 23 is_stmt 0
 673 03cc 17050000 		lla	a0,.LC9
 673      13050500 
 674              	.LVL72:
 675 03d4 97000000 		call	_ZN5Riscv11printStringEPKc@plt
 675      E7800000 
 676              	.LVL73:
 366:src/Tests.cpp ****     int x = 0;
 677              		.loc 2 366 5 is_stmt 1
 366:src/Tests.cpp ****     int x = 0;
 678              		.loc 2 366 9 is_stmt 0
 679 03dc 93040000 		li	s1,0
 680 03e0 6F00C000 		j	.L46
 681              	.LVL74:
 682              	.L47:
 377:src/Tests.cpp ****             thread_exit();
 683              		.loc 2 377 13 is_stmt 1
 377:src/Tests.cpp ****             thread_exit();
 684              		.loc 2 377 24 is_stmt 0
 685 03e4 97000000 		call	thread_exit@plt
 685      E7800000 
 686              	.LVL75:
 687              	.L46:
 367:src/Tests.cpp ****     while(true)
 688              		.loc 2 367 5 is_stmt 1
 369:src/Tests.cpp ****         x++;
 689              		.loc 2 369 9
 369:src/Tests.cpp ****         x++;
 690              		.loc 2 369 10 is_stmt 0
 691 03ec 9B841400 		addiw	s1,s1,1
 692              	.LVL76:
 370:src/Tests.cpp ****         s2->wait();
 693              		.loc 2 370 9 is_stmt 1
 370:src/Tests.cpp ****         s2->wait();
 694              		.loc 2 370 17 is_stmt 0
 695 03f0 17090000 		lla	s2,.LANCHOR0
GAS LISTING /tmp/cczxdMQq.s 			page 25


 695      13090900 
 696 03f8 03350901 		ld	a0,16(s2)
 697 03fc 97000000 		call	_ZN9Semaphore4waitEv@plt
 697      E7800000 
 698              	.LVL77:
 371:src/Tests.cpp ****         __putc('2');
 699              		.loc 2 371 9 is_stmt 1
 371:src/Tests.cpp ****         __putc('2');
 700              		.loc 2 371 15 is_stmt 0
 701 0404 13052003 		li	a0,50
 702 0408 97000000 		call	__putc@plt
 702      E7800000 
 703              	.LVL78:
 372:src/Tests.cpp ****         __putc('\n');
 704              		.loc 2 372 9 is_stmt 1
 372:src/Tests.cpp ****         __putc('\n');
 705              		.loc 2 372 15 is_stmt 0
 706 0410 1305A000 		li	a0,10
 707 0414 97000000 		call	__putc@plt
 707      E7800000 
 708              	.LVL79:
 373:src/Tests.cpp ****         s3->signal();
 709              		.loc 2 373 9 is_stmt 1
 373:src/Tests.cpp ****         s3->signal();
 710              		.loc 2 373 19 is_stmt 0
 711 041c 03358901 		ld	a0,24(s2)
 712 0420 97000000 		call	_ZN9Semaphore6signalEv@plt
 712      E7800000 
 713              	.LVL80:
 374:src/Tests.cpp ****         if(x < 5000)
 714              		.loc 2 374 9 is_stmt 1
 715 0428 B7170000 		li	a5,4096
 716 042c 93877738 		addi	a5,a5,903
 717 0430 E3CA97FA 		bgt	s1,a5,.L47
 375:src/Tests.cpp ****             thread_dispatch();
 718              		.loc 2 375 13
 375:src/Tests.cpp ****             thread_dispatch();
 719              		.loc 2 375 28 is_stmt 0
 720 0434 97000000 		call	thread_dispatch@plt
 720      E7800000 
 721              	.LVL81:
 722 043c 6FF01FFB 		j	.L46
 723              		.cfi_endproc
 724              	.LFE41:
 726              		.section	.rodata.str1.8
 727 008e 0000     		.align	3
 728              	.LC10:
 729 0090 66335F32 		.string	"f3_2 started\n"
 729      20737461 
 729      72746564 
 729      0A00
 730              		.text
 731              		.align	2
 732              		.globl	_Z4f3_2Pv
 734              	_Z4f3_2Pv:
 735              	.LFB42:
 382:src/Tests.cpp **** {
GAS LISTING /tmp/cczxdMQq.s 			page 26


 736              		.loc 2 382 1 is_stmt 1
 737              		.cfi_startproc
 738              	.LVL82:
 739 0440 130101FE 		addi	sp,sp,-32
 740              		.cfi_def_cfa_offset 32
 741 0444 233C1100 		sd	ra,24(sp)
 742 0448 23388100 		sd	s0,16(sp)
 743 044c 23349100 		sd	s1,8(sp)
 744 0450 23302101 		sd	s2,0(sp)
 745              		.cfi_offset 1, -8
 746              		.cfi_offset 8, -16
 747              		.cfi_offset 9, -24
 748              		.cfi_offset 18, -32
 749 0454 13040102 		addi	s0,sp,32
 750              		.cfi_def_cfa 8, 0
 383:src/Tests.cpp ****     Riscv::printString("f3_2 started\n");
 751              		.loc 2 383 5
 383:src/Tests.cpp ****     Riscv::printString("f3_2 started\n");
 752              		.loc 2 383 23 is_stmt 0
 753 0458 17050000 		lla	a0,.LC10
 753      13050500 
 754              	.LVL83:
 755 0460 97000000 		call	_ZN5Riscv11printStringEPKc@plt
 755      E7800000 
 756              	.LVL84:
 384:src/Tests.cpp ****     int x = 0;
 757              		.loc 2 384 5 is_stmt 1
 384:src/Tests.cpp ****     int x = 0;
 758              		.loc 2 384 9 is_stmt 0
 759 0468 93040000 		li	s1,0
 760 046c 6F00C000 		j	.L51
 761              	.LVL85:
 762              	.L52:
 395:src/Tests.cpp ****             thread_exit();
 763              		.loc 2 395 13 is_stmt 1
 395:src/Tests.cpp ****             thread_exit();
 764              		.loc 2 395 24 is_stmt 0
 765 0470 97000000 		call	thread_exit@plt
 765      E7800000 
 766              	.LVL86:
 767              	.L51:
 385:src/Tests.cpp ****     while(true)
 768              		.loc 2 385 5 is_stmt 1
 387:src/Tests.cpp ****         x++;
 769              		.loc 2 387 9
 387:src/Tests.cpp ****         x++;
 770              		.loc 2 387 10 is_stmt 0
 771 0478 9B841400 		addiw	s1,s1,1
 772              	.LVL87:
 388:src/Tests.cpp ****         s3->wait();
 773              		.loc 2 388 9 is_stmt 1
 388:src/Tests.cpp ****         s3->wait();
 774              		.loc 2 388 17 is_stmt 0
 775 047c 17090000 		lla	s2,.LANCHOR0
 775      13090900 
 776 0484 03358901 		ld	a0,24(s2)
 777 0488 97000000 		call	_ZN9Semaphore4waitEv@plt
GAS LISTING /tmp/cczxdMQq.s 			page 27


 777      E7800000 
 778              	.LVL88:
 389:src/Tests.cpp ****         __putc('3');
 779              		.loc 2 389 9 is_stmt 1
 389:src/Tests.cpp ****         __putc('3');
 780              		.loc 2 389 15 is_stmt 0
 781 0490 13053003 		li	a0,51
 782 0494 97000000 		call	__putc@plt
 782      E7800000 
 783              	.LVL89:
 390:src/Tests.cpp ****         __putc('\n');
 784              		.loc 2 390 9 is_stmt 1
 390:src/Tests.cpp ****         __putc('\n');
 785              		.loc 2 390 15 is_stmt 0
 786 049c 1305A000 		li	a0,10
 787 04a0 97000000 		call	__putc@plt
 787      E7800000 
 788              	.LVL90:
 391:src/Tests.cpp ****         s1->signal();
 789              		.loc 2 391 9 is_stmt 1
 391:src/Tests.cpp ****         s1->signal();
 790              		.loc 2 391 19 is_stmt 0
 791 04a8 03358900 		ld	a0,8(s2)
 792 04ac 97000000 		call	_ZN9Semaphore6signalEv@plt
 792      E7800000 
 793              	.LVL91:
 392:src/Tests.cpp ****         if(x < 5000)
 794              		.loc 2 392 9 is_stmt 1
 795 04b4 B7170000 		li	a5,4096
 796 04b8 93877738 		addi	a5,a5,903
 797 04bc E3CA97FA 		bgt	s1,a5,.L52
 393:src/Tests.cpp ****             thread_dispatch();
 798              		.loc 2 393 13
 393:src/Tests.cpp ****             thread_dispatch();
 799              		.loc 2 393 28 is_stmt 0
 800 04c0 97000000 		call	thread_dispatch@plt
 800      E7800000 
 801              	.LVL92:
 802 04c8 6FF01FFB 		j	.L51
 803              		.cfi_endproc
 804              	.LFE42:
 806              		.section	.text._ZN14PeriodicThreadD2Ev,"axG",@progbits,_ZN14PeriodicThreadD5Ev,comdat
 807              		.align	2
 808              		.weak	_ZN14PeriodicThreadD2Ev
 810              	_ZN14PeriodicThreadD2Ev:
 811              	.LFB48:
  65:src/../h/syscall_cpp.hpp **** {
 812              		.loc 1 65 7 is_stmt 1
 813              		.cfi_startproc
 814              	.LVL93:
 815 0000 130101FF 		addi	sp,sp,-16
 816              		.cfi_def_cfa_offset 16
 817 0004 23341100 		sd	ra,8(sp)
 818 0008 23308100 		sd	s0,0(sp)
 819              		.cfi_offset 1, -8
 820              		.cfi_offset 8, -16
 821 000c 13040101 		addi	s0,sp,16
GAS LISTING /tmp/cczxdMQq.s 			page 28


 822              		.cfi_def_cfa 8, 0
 823              	.LBB24:
  65:src/../h/syscall_cpp.hpp **** {
 824              		.loc 1 65 7 is_stmt 0
 825 0010 97070000 		lla	a5,_ZTV14PeriodicThread+16
 825      93870700 
 826 0018 2330F500 		sd	a5,0(a0)
 827 001c 97000000 		call	_ZN6ThreadD2Ev@plt
 827      E7800000 
 828              	.LVL94:
 829              	.LBE24:
 830 0024 83308100 		ld	ra,8(sp)
 831              		.cfi_restore 1
 832 0028 03340100 		ld	s0,0(sp)
 833              		.cfi_restore 8
 834              		.cfi_def_cfa 2, 16
 835 002c 13010101 		addi	sp,sp,16
 836              		.cfi_def_cfa_offset 0
 837 0030 67800000 		jr	ra
 838              		.cfi_endproc
 839              	.LFE48:
 841              		.weak	_ZN14PeriodicThreadD1Ev
 842              		.set	_ZN14PeriodicThreadD1Ev,_ZN14PeriodicThreadD2Ev
 843              		.section	.text._ZN14PeriodicThreadD0Ev,"axG",@progbits,_ZN14PeriodicThreadD5Ev,comdat
 844              		.align	2
 845              		.weak	_ZN14PeriodicThreadD0Ev
 847              	_ZN14PeriodicThreadD0Ev:
 848              	.LFB50:
  65:src/../h/syscall_cpp.hpp **** {
 849              		.loc 1 65 7 is_stmt 1
 850              		.cfi_startproc
 851              	.LVL95:
 852 0000 130101FE 		addi	sp,sp,-32
 853              		.cfi_def_cfa_offset 32
 854 0004 233C1100 		sd	ra,24(sp)
 855 0008 23388100 		sd	s0,16(sp)
 856 000c 23349100 		sd	s1,8(sp)
 857              		.cfi_offset 1, -8
 858              		.cfi_offset 8, -16
 859              		.cfi_offset 9, -24
 860 0010 13040102 		addi	s0,sp,32
 861              		.cfi_def_cfa 8, 0
 862 0014 93040500 		mv	s1,a0
 863              	.LVL96:
 864              	.LBB25:
 865              	.LBB26:
  65:src/../h/syscall_cpp.hpp **** {
 866              		.loc 1 65 7 is_stmt 0
 867 0018 97070000 		lla	a5,_ZTV14PeriodicThread+16
 867      93870700 
 868 0020 2330F500 		sd	a5,0(a0)
 869 0024 97000000 		call	_ZN6ThreadD2Ev@plt
 869      E7800000 
 870              	.LVL97:
 871              	.LBE26:
 872              	.LBE25:
 873 002c 13850400 		mv	a0,s1
GAS LISTING /tmp/cczxdMQq.s 			page 29


 874 0030 97000000 		call	_ZdlPv@plt
 874      E7800000 
 875              	.LVL98:
 876 0038 83308101 		ld	ra,24(sp)
 877              		.cfi_restore 1
 878 003c 03340101 		ld	s0,16(sp)
 879              		.cfi_restore 8
 880              		.cfi_def_cfa 2, 32
 881 0040 83348100 		ld	s1,8(sp)
 882              		.cfi_restore 9
 883              	.LVL99:
 884 0044 13010102 		addi	sp,sp,32
 885              		.cfi_def_cfa_offset 0
 886 0048 67800000 		jr	ra
 887              		.cfi_endproc
 888              	.LFE50:
 890              		.section	.text._ZN12TestPeriodicD2Ev,"axG",@progbits,_ZN12TestPeriodicD5Ev,comdat
 891              		.align	2
 892              		.weak	_ZN12TestPeriodicD2Ev
 894              	_ZN12TestPeriodicD2Ev:
 895              	.LFB55:
 896              		.file 3 "src/../h/Tests.hpp"
   1:src/../h/Tests.hpp **** //
   2:src/../h/Tests.hpp **** // Created by os on 5/5/22.
   3:src/../h/Tests.hpp **** //
   4:src/../h/Tests.hpp **** 
   5:src/../h/Tests.hpp **** #ifndef PROJECT_BASE_V1_0_TESTS_HPP
   6:src/../h/Tests.hpp **** #define PROJECT_BASE_V1_0_TESTS_HPP
   7:src/../h/Tests.hpp **** 
   8:src/../h/Tests.hpp **** #include "Riscv.hpp"
   9:src/../h/Tests.hpp **** #include "PCB.hpp"
  10:src/../h/Tests.hpp **** #include "syscall_cpp.hpp"
  11:src/../h/Tests.hpp **** 
  12:src/../h/Tests.hpp **** class Test
  13:src/../h/Tests.hpp **** {
  14:src/../h/Tests.hpp **** public:
  15:src/../h/Tests.hpp ****     uint64 a;
  16:src/../h/Tests.hpp **** };
  17:src/../h/Tests.hpp **** 
  18:src/../h/Tests.hpp **** //memory (de)allocation tests
  19:src/../h/Tests.hpp **** void mallocFree();
  20:src/../h/Tests.hpp **** void bigMalloc();
  21:src/../h/Tests.hpp **** void lotOfSmallMallocs();
  22:src/../h/Tests.hpp **** void badFree();
  23:src/../h/Tests.hpp **** void stressTesting();
  24:src/../h/Tests.hpp **** void memoryAllocationTests();
  25:src/../h/Tests.hpp **** 
  26:src/../h/Tests.hpp **** //thread tests
  27:src/../h/Tests.hpp **** void thread1Function();
  28:src/../h/Tests.hpp **** void thread2Function();
  29:src/../h/Tests.hpp **** 
  30:src/../h/Tests.hpp **** void threadFunction3();
  31:src/../h/Tests.hpp **** 
  32:src/../h/Tests.hpp **** void threadTest1();
  33:src/../h/Tests.hpp **** void threadTest2();
  34:src/../h/Tests.hpp **** void threadTest3();
  35:src/../h/Tests.hpp **** 
GAS LISTING /tmp/cczxdMQq.s 			page 30


  36:src/../h/Tests.hpp **** void threadTests();
  37:src/../h/Tests.hpp **** 
  38:src/../h/Tests.hpp **** class TestPeriodic : public PeriodicThread
 897              		.loc 3 38 7 is_stmt 1
 898              		.cfi_startproc
 899              	.LVL100:
 900 0000 130101FF 		addi	sp,sp,-16
 901              		.cfi_def_cfa_offset 16
 902 0004 23341100 		sd	ra,8(sp)
 903 0008 23308100 		sd	s0,0(sp)
 904              		.cfi_offset 1, -8
 905              		.cfi_offset 8, -16
 906 000c 13040101 		addi	s0,sp,16
 907              		.cfi_def_cfa 8, 0
 908              	.LVL101:
 909              	.LBB27:
 910              	.LBB28:
  65:src/../h/syscall_cpp.hpp **** {
 911              		.loc 1 65 7 is_stmt 0
 912 0010 97070000 		lla	a5,_ZTV14PeriodicThread+16
 912      93870700 
 913 0018 2330F500 		sd	a5,0(a0)
 914 001c 97000000 		call	_ZN6ThreadD2Ev@plt
 914      E7800000 
 915              	.LVL102:
 916              	.LBE28:
 917              	.LBE27:
 918              		.loc 3 38 7
 919 0024 83308100 		ld	ra,8(sp)
 920              		.cfi_restore 1
 921 0028 03340100 		ld	s0,0(sp)
 922              		.cfi_restore 8
 923              		.cfi_def_cfa 2, 16
 924 002c 13010101 		addi	sp,sp,16
 925              		.cfi_def_cfa_offset 0
 926 0030 67800000 		jr	ra
 927              		.cfi_endproc
 928              	.LFE55:
 930              		.weak	_ZN12TestPeriodicD1Ev
 931              		.set	_ZN12TestPeriodicD1Ev,_ZN12TestPeriodicD2Ev
 932              		.section	.text._ZN12TestPeriodicD0Ev,"axG",@progbits,_ZN12TestPeriodicD5Ev,comdat
 933              		.align	2
 934              		.weak	_ZN12TestPeriodicD0Ev
 936              	_ZN12TestPeriodicD0Ev:
 937              	.LFB57:
 938              		.loc 3 38 7 is_stmt 1
 939              		.cfi_startproc
 940              	.LVL103:
 941 0000 130101FE 		addi	sp,sp,-32
 942              		.cfi_def_cfa_offset 32
 943 0004 233C1100 		sd	ra,24(sp)
 944 0008 23388100 		sd	s0,16(sp)
 945 000c 23349100 		sd	s1,8(sp)
 946              		.cfi_offset 1, -8
 947              		.cfi_offset 8, -16
 948              		.cfi_offset 9, -24
 949 0010 13040102 		addi	s0,sp,32
GAS LISTING /tmp/cczxdMQq.s 			page 31


 950              		.cfi_def_cfa 8, 0
 951 0014 93040500 		mv	s1,a0
 952              	.LVL104:
 953              	.LBB29:
 954              	.LBB30:
 955              	.LBB31:
  65:src/../h/syscall_cpp.hpp **** {
 956              		.loc 1 65 7 is_stmt 0
 957 0018 97070000 		lla	a5,_ZTV14PeriodicThread+16
 957      93870700 
 958 0020 2330F500 		sd	a5,0(a0)
 959 0024 97000000 		call	_ZN6ThreadD2Ev@plt
 959      E7800000 
 960              	.LVL105:
 961              	.LBE31:
 962              	.LBE30:
 963              	.LBE29:
 964              		.loc 3 38 7
 965 002c 13850400 		mv	a0,s1
 966 0030 97000000 		call	_ZdlPv@plt
 966      E7800000 
 967              	.LVL106:
 968 0038 83308101 		ld	ra,24(sp)
 969              		.cfi_restore 1
 970 003c 03340101 		ld	s0,16(sp)
 971              		.cfi_restore 8
 972              		.cfi_def_cfa 2, 32
 973 0040 83348100 		ld	s1,8(sp)
 974              		.cfi_restore 9
 975              	.LVL107:
 976 0044 13010102 		addi	sp,sp,32
 977              		.cfi_def_cfa_offset 0
 978 0048 67800000 		jr	ra
 979              		.cfi_endproc
 980              	.LFE57:
 982              		.section	.rodata.str1.8
 983 009e 0000     		.align	3
 984              	.LC11:
 985 00a0 4D61696E 		.string	"Main thread\n"
 985      20746872 
 985      6561640A 
 985      00
 986 00ad 000000   		.align	3
 987              	.LC12:
 988 00b0 456E642E 		.string	"End...\n"
 988      2E2E0A00 
 989              		.text
 990              		.align	2
 991              		.globl	_Z11threadTest1v
 993              	_Z11threadTest1v:
 994              	.LFB27:
  62:src/Tests.cpp **** {
 995              		.loc 2 62 1 is_stmt 1
 996              		.cfi_startproc
 997              		.cfi_personality 0x9b,DW.ref.__gxx_personality_v0
 998              		.cfi_lsda 0x1b,.LLSDA27
 999 04cc 130101FE 		addi	sp,sp,-32
GAS LISTING /tmp/cczxdMQq.s 			page 32


 1000              		.cfi_def_cfa_offset 32
 1001 04d0 233C1100 		sd	ra,24(sp)
 1002 04d4 23388100 		sd	s0,16(sp)
 1003 04d8 23349100 		sd	s1,8(sp)
 1004 04dc 23302101 		sd	s2,0(sp)
 1005              		.cfi_offset 1, -8
 1006              		.cfi_offset 8, -16
 1007              		.cfi_offset 9, -24
 1008              		.cfi_offset 18, -32
 1009 04e0 13040102 		addi	s0,sp,32
 1010              		.cfi_def_cfa 8, 0
  63:src/Tests.cpp ****     Thread* t1 = new Thread(&thread1Function, 0);
 1011              		.loc 2 63 5
  63:src/Tests.cpp ****     Thread* t1 = new Thread(&thread1Function, 0);
 1012              		.loc 2 63 48 is_stmt 0
 1013 04e4 13050002 		li	a0,32
 1014              	.LEHB0:
 1015 04e8 97000000 		call	_Znwm@plt
 1015      E7800000 
 1016              	.LVL108:
 1017              	.LEHE0:
 1018 04f0 93040500 		mv	s1,a0
 1019 04f4 13060000 		li	a2,0
 1020 04f8 97050000 		lla	a1,_Z15thread1FunctionPv
 1020      93850500 
 1021              	.LEHB1:
 1022 0500 97000000 		call	_ZN6ThreadC1EPFvPvES0_@plt
 1022      E7800000 
 1023              	.LVL109:
 1024              	.LEHE1:
  64:src/Tests.cpp ****     t1->start();
 1025              		.loc 2 64 5 is_stmt 1 discriminator 2
  64:src/Tests.cpp ****     t1->start();
 1026              		.loc 2 64 14 is_stmt 0 discriminator 2
 1027 0508 13850400 		mv	a0,s1
 1028              	.LEHB2:
 1029 050c 97000000 		call	_ZN6Thread5startEv@plt
 1029      E7800000 
 1030              	.LVL110:
  65:src/Tests.cpp ****     Thread* t2 = new Thread(&thread2Function, 0);
 1031              		.loc 2 65 5 is_stmt 1 discriminator 2
  65:src/Tests.cpp ****     Thread* t2 = new Thread(&thread2Function, 0);
 1032              		.loc 2 65 48 is_stmt 0 discriminator 2
 1033 0514 13050002 		li	a0,32
 1034 0518 97000000 		call	_Znwm@plt
 1034      E7800000 
 1035              	.LVL111:
 1036              	.LEHE2:
 1037 0520 13090500 		mv	s2,a0
 1038 0524 13060000 		li	a2,0
 1039 0528 97050000 		lla	a1,_Z15thread2FunctionPv
 1039      93850500 
 1040              	.LEHB3:
 1041 0530 97000000 		call	_ZN6ThreadC1EPFvPvES0_@plt
 1041      E7800000 
 1042              	.LVL112:
 1043              	.LEHE3:
GAS LISTING /tmp/cczxdMQq.s 			page 33


  66:src/Tests.cpp ****     t2->start();
 1044              		.loc 2 66 5 is_stmt 1 discriminator 2
  66:src/Tests.cpp ****     t2->start();
 1045              		.loc 2 66 14 is_stmt 0 discriminator 2
 1046 0538 13050900 		mv	a0,s2
 1047              	.LEHB4:
 1048 053c 97000000 		call	_ZN6Thread5startEv@plt
 1048      E7800000 
 1049              	.LVL113:
  67:src/Tests.cpp ****     Riscv::enableInterrupts();
 1050              		.loc 2 67 5 is_stmt 1 discriminator 2
  67:src/Tests.cpp ****     Riscv::enableInterrupts();
 1051              		.loc 2 67 28 is_stmt 0 discriminator 2
 1052 0544 97000000 		call	_ZN5Riscv16enableInterruptsEv@plt
 1052      E7800000 
 1053              	.LVL114:
 1054 054c 6F00C001 		j	.L66
 1055              	.L64:
  70:src/Tests.cpp ****         Riscv::printString("Main thread\n");
 1056              		.loc 2 70 9 is_stmt 1 discriminator 3
  70:src/Tests.cpp ****         Riscv::printString("Main thread\n");
 1057              		.loc 2 70 27 is_stmt 0 discriminator 3
 1058 0550 17050000 		lla	a0,.LC11
 1058      13050500 
 1059 0558 97000000 		call	_ZN5Riscv11printStringEPKc@plt
 1059      E7800000 
 1060              	.LVL115:
  71:src/Tests.cpp ****         thread_dispatch();
 1061              		.loc 2 71 9 is_stmt 1 discriminator 3
  71:src/Tests.cpp ****         thread_dispatch();
 1062              		.loc 2 71 24 is_stmt 0 discriminator 3
 1063 0560 97000000 		call	thread_dispatch@plt
 1063      E7800000 
 1064              	.LVL116:
 1065              	.L66:
  68:src/Tests.cpp ****     while(t1->myHandle->getState() != PCB::FINISHED || t2->myHandle->getState() != PCB::FINISHED)
 1066              		.loc 2 68 5 is_stmt 1
  68:src/Tests.cpp ****     while(t1->myHandle->getState() != PCB::FINISHED || t2->myHandle->getState() != PCB::FINISHED)
 1067              		.loc 2 68 53
  68:src/Tests.cpp ****     while(t1->myHandle->getState() != PCB::FINISHED || t2->myHandle->getState() != PCB::FINISHED)
 1068              		.loc 2 68 15 is_stmt 0
 1069 0568 83B78400 		ld	a5,8(s1)
 1070              	.LVL117:
 1071              	.LBB32:
 1072              	.LBB33:
 1073              		.file 4 "src/../h/PCB.hpp"
   1:src/../h/PCB.hpp **** //
   2:src/../h/PCB.hpp **** // Created by os on 4/27/22.
   3:src/../h/PCB.hpp **** //
   4:src/../h/PCB.hpp **** 
   5:src/../h/PCB.hpp **** #ifndef PROJECT_BASE_V1_0_PCB_HPP
   6:src/../h/PCB.hpp **** #define PROJECT_BASE_V1_0_PCB_HPP
   7:src/../h/PCB.hpp **** 
   8:src/../h/PCB.hpp **** #include "../lib/hw.h"
   9:src/../h/PCB.hpp **** #include "Scheduler.hpp"
  10:src/../h/PCB.hpp **** #include "Riscv.hpp"
  11:src/../h/PCB.hpp **** 
GAS LISTING /tmp/cczxdMQq.s 			page 34


  12:src/../h/PCB.hpp **** class PCB
  13:src/../h/PCB.hpp **** {
  14:src/../h/PCB.hpp **** public:
  15:src/../h/PCB.hpp ****     using Body = void (*)(void*);
  16:src/../h/PCB.hpp **** 
  17:src/../h/PCB.hpp ****     PCB(Body body,  void* args, void* stack_space, uint64 timeSlice);
  18:src/../h/PCB.hpp ****     ~PCB();
  19:src/../h/PCB.hpp **** 
  20:src/../h/PCB.hpp ****     void start();
  21:src/../h/PCB.hpp ****     static void dispatch();
  22:src/../h/PCB.hpp ****     static void sleep(time_t);
  23:src/../h/PCB.hpp **** 
  24:src/../h/PCB.hpp ****     static PCB* running;
  25:src/../h/PCB.hpp ****     static PCB* exitingPCB;
  26:src/../h/PCB.hpp **** 
  27:src/../h/PCB.hpp ****     static uint64 timeSliceCounter;
  28:src/../h/PCB.hpp ****     uint64 getTimeSlice() { return timeSlice;}
  29:src/../h/PCB.hpp **** 
  30:src/../h/PCB.hpp ****     void* operator new(size_t size);
  31:src/../h/PCB.hpp ****     void operator delete(void *p);
  32:src/../h/PCB.hpp **** 
  33:src/../h/PCB.hpp ****     enum State{READY, RUNNING, SUSPENDED, FINISHED, EXITING, SLEEPING};
  34:src/../h/PCB.hpp ****     State getState() {return state;}
 1074              		.loc 4 34 23 is_stmt 1
 1075              		.loc 4 34 30 is_stmt 0
 1076 056c 03A70703 		lw	a4,48(a5)
 1077              	.LVL118:
 1078              	.LBE33:
 1079              	.LBE32:
  68:src/Tests.cpp ****     while(t1->myHandle->getState() != PCB::FINISHED || t2->myHandle->getState() != PCB::FINISHED)
 1080              		.loc 2 68 53
 1081 0570 93073000 		li	a5,3
 1082 0574 E31EF7FC 		bne	a4,a5,.L64
  68:src/Tests.cpp ****     while(t1->myHandle->getState() != PCB::FINISHED || t2->myHandle->getState() != PCB::FINISHED)
 1083              		.loc 2 68 60 discriminator 2
 1084 0578 83378900 		ld	a5,8(s2)
 1085              	.LVL119:
 1086              	.LBB34:
 1087              	.LBB35:
 1088              		.loc 4 34 23 is_stmt 1 discriminator 2
 1089              		.loc 4 34 30 is_stmt 0 discriminator 2
 1090 057c 03A70703 		lw	a4,48(a5)
 1091              	.LVL120:
 1092              	.LBE35:
 1093              	.LBE34:
  68:src/Tests.cpp ****     while(t1->myHandle->getState() != PCB::FINISHED || t2->myHandle->getState() != PCB::FINISHED)
 1094              		.loc 2 68 53 discriminator 2
 1095 0580 93073000 		li	a5,3
 1096 0584 E316F7FC 		bne	a4,a5,.L64
  74:src/Tests.cpp ****     Riscv::printString("End...\n");
 1097              		.loc 2 74 5 is_stmt 1
  74:src/Tests.cpp ****     Riscv::printString("End...\n");
 1098              		.loc 2 74 23 is_stmt 0
 1099 0588 17050000 		lla	a0,.LC12
 1099      13050500 
 1100 0590 97000000 		call	_ZN5Riscv11printStringEPKc@plt
 1100      E7800000 
GAS LISTING /tmp/cczxdMQq.s 			page 35


 1101              	.LVL121:
  75:src/Tests.cpp ****     Riscv::disableInterrupts();
 1102              		.loc 2 75 5 is_stmt 1
  75:src/Tests.cpp ****     Riscv::disableInterrupts();
 1103              		.loc 2 75 29 is_stmt 0
 1104 0598 97000000 		call	_ZN5Riscv17disableInterruptsEv@plt
 1104      E7800000 
 1105              	.LVL122:
 1106              	.LEHE4:
  76:src/Tests.cpp **** }
 1107              		.loc 2 76 1
 1108 05a0 83308101 		ld	ra,24(sp)
 1109              		.cfi_remember_state
 1110              		.cfi_restore 1
 1111 05a4 03340101 		ld	s0,16(sp)
 1112              		.cfi_restore 8
 1113              		.cfi_def_cfa 2, 32
 1114 05a8 83348100 		ld	s1,8(sp)
 1115              		.cfi_restore 9
 1116              	.LVL123:
 1117 05ac 03390100 		ld	s2,0(sp)
 1118              		.cfi_restore 18
 1119              	.LVL124:
 1120 05b0 13010102 		addi	sp,sp,32
 1121              		.cfi_def_cfa_offset 0
 1122 05b4 67800000 		jr	ra
 1123              	.L69:
 1124              		.cfi_restore_state
 1125 05b8 13090500 		mv	s2,a0
  63:src/Tests.cpp ****     Thread* t1 = new Thread(&thread1Function, 0);
 1126              		.loc 2 63 48
 1127 05bc 13850400 		mv	a0,s1
 1128 05c0 97000000 		call	_ZdlPv@plt
 1128      E7800000 
 1129              	.LVL125:
 1130 05c8 13050900 		mv	a0,s2
 1131              	.LEHB5:
 1132 05cc 97000000 		call	_Unwind_Resume@plt
 1132      E7800000 
 1133              	.LVL126:
 1134              	.LEHE5:
 1135              	.L70:
 1136 05d4 93040500 		mv	s1,a0
 1137              	.LVL127:
  65:src/Tests.cpp ****     Thread* t2 = new Thread(&thread2Function, 0);
 1138              		.loc 2 65 48
 1139 05d8 13050900 		mv	a0,s2
 1140 05dc 97000000 		call	_ZdlPv@plt
 1140      E7800000 
 1141              	.LVL128:
 1142 05e4 13850400 		mv	a0,s1
 1143              	.LEHB6:
 1144 05e8 97000000 		call	_Unwind_Resume@plt
 1144      E7800000 
 1145              	.LVL129:
 1146              	.LEHE6:
 1147              		.cfi_endproc
GAS LISTING /tmp/cczxdMQq.s 			page 36


 1148              	.LFE27:
 1149              		.globl	__gxx_personality_v0
 1150              		.section	.gcc_except_table,"a",@progbits
 1151              	.LLSDA27:
 1152 0000 FF       		.byte	0xff
 1153 0001 FF       		.byte	0xff
 1154 0002 03       		.byte	0x3
 1155 0003 5B       		.byte	0x5b
 1156 0004 00000000 		.4byte	.LEHB0-.LFB27
 1157 0008 00000000 		.4byte	.LEHE0-.LEHB0
 1158 000c 00000000 		.4byte	0
 1159 0010 00       		.byte	0
 1160 0011 00000000 		.4byte	.LEHB1-.LFB27
 1161 0015 00000000 		.4byte	.LEHE1-.LEHB1
 1162 0019 00000000 		.4byte	.L69-.LFB27
 1163 001d 00       		.byte	0
 1164 001e 00000000 		.4byte	.LEHB2-.LFB27
 1165 0022 00000000 		.4byte	.LEHE2-.LEHB2
 1166 0026 00000000 		.4byte	0
 1167 002a 00       		.byte	0
 1168 002b 00000000 		.4byte	.LEHB3-.LFB27
 1169 002f 00000000 		.4byte	.LEHE3-.LEHB3
 1170 0033 00000000 		.4byte	.L70-.LFB27
 1171 0037 00       		.byte	0
 1172 0038 00000000 		.4byte	.LEHB4-.LFB27
 1173 003c 00000000 		.4byte	.LEHE4-.LEHB4
 1174 0040 00000000 		.4byte	0
 1175 0044 00       		.byte	0
 1176 0045 00000000 		.4byte	.LEHB5-.LFB27
 1177 0049 00000000 		.4byte	.LEHE5-.LEHB5
 1178 004d 00000000 		.4byte	0
 1179 0051 00       		.byte	0
 1180 0052 00000000 		.4byte	.LEHB6-.LFB27
 1181 0056 00000000 		.4byte	.LEHE6-.LEHB6
 1182 005a 00000000 		.4byte	0
 1183 005e 00       		.byte	0
 1184              		.text
 1186              		.align	2
 1187              		.globl	_Z11threadTest2v
 1189              	_Z11threadTest2v:
 1190              	.LFB28:
  79:src/Tests.cpp **** {
 1191              		.loc 2 79 1 is_stmt 1
 1192              		.cfi_startproc
 1193              		.cfi_personality 0x9b,DW.ref.__gxx_personality_v0
 1194              		.cfi_lsda 0x1b,.LLSDA28
 1195 05f0 130101FE 		addi	sp,sp,-32
 1196              		.cfi_def_cfa_offset 32
 1197 05f4 233C1100 		sd	ra,24(sp)
 1198 05f8 23388100 		sd	s0,16(sp)
 1199 05fc 23349100 		sd	s1,8(sp)
 1200 0600 23302101 		sd	s2,0(sp)
 1201              		.cfi_offset 1, -8
 1202              		.cfi_offset 8, -16
 1203              		.cfi_offset 9, -24
 1204              		.cfi_offset 18, -32
 1205 0604 13040102 		addi	s0,sp,32
GAS LISTING /tmp/cczxdMQq.s 			page 37


 1206              		.cfi_def_cfa 8, 0
  80:src/Tests.cpp ****     Thread* idleThread = new Thread(&idle, 0);
 1207              		.loc 2 80 5
  80:src/Tests.cpp ****     Thread* idleThread = new Thread(&idle, 0);
 1208              		.loc 2 80 45 is_stmt 0
 1209 0608 13050002 		li	a0,32
 1210              	.LEHB7:
 1211 060c 97000000 		call	_Znwm@plt
 1211      E7800000 
 1212              	.LVL130:
 1213              	.LEHE7:
 1214 0614 93040500 		mv	s1,a0
 1215 0618 13060000 		li	a2,0
 1216 061c 97050000 		lla	a1,_Z4idlePv
 1216      93850500 
 1217              	.LEHB8:
 1218 0624 97000000 		call	_ZN6ThreadC1EPFvPvES0_@plt
 1218      E7800000 
 1219              	.LVL131:
 1220              	.LEHE8:
  81:src/Tests.cpp ****     idleThread->start();
 1221              		.loc 2 81 5 is_stmt 1 discriminator 2
  81:src/Tests.cpp ****     idleThread->start();
 1222              		.loc 2 81 22 is_stmt 0 discriminator 2
 1223 062c 13850400 		mv	a0,s1
 1224              	.LEHB9:
 1225 0630 97000000 		call	_ZN6Thread5startEv@plt
 1225      E7800000 
 1226              	.LVL132:
  82:src/Tests.cpp ****     Thread* t1 = new Thread(&thread1Function, 0);
 1227              		.loc 2 82 5 is_stmt 1 discriminator 2
  82:src/Tests.cpp ****     Thread* t1 = new Thread(&thread1Function, 0);
 1228              		.loc 2 82 48 is_stmt 0 discriminator 2
 1229 0638 13050002 		li	a0,32
 1230 063c 97000000 		call	_Znwm@plt
 1230      E7800000 
 1231              	.LVL133:
 1232              	.LEHE9:
 1233 0644 13090500 		mv	s2,a0
 1234 0648 13060000 		li	a2,0
 1235 064c 97050000 		lla	a1,_Z15thread1FunctionPv
 1235      93850500 
 1236              	.LEHB10:
 1237 0654 97000000 		call	_ZN6ThreadC1EPFvPvES0_@plt
 1237      E7800000 
 1238              	.LVL134:
 1239              	.LEHE10:
  83:src/Tests.cpp ****     t1->start();
 1240              		.loc 2 83 5 is_stmt 1 discriminator 2
  83:src/Tests.cpp ****     t1->start();
 1241              		.loc 2 83 14 is_stmt 0 discriminator 2
 1242 065c 13050900 		mv	a0,s2
 1243              	.LEHB11:
 1244 0660 97000000 		call	_ZN6Thread5startEv@plt
 1244      E7800000 
 1245              	.LVL135:
  84:src/Tests.cpp ****     Thread* t2  = new Thread(&thread2FunctionTest2, 0);
GAS LISTING /tmp/cczxdMQq.s 			page 38


 1246              		.loc 2 84 5 is_stmt 1 discriminator 2
  84:src/Tests.cpp ****     Thread* t2  = new Thread(&thread2FunctionTest2, 0);
 1247              		.loc 2 84 54 is_stmt 0 discriminator 2
 1248 0668 13050002 		li	a0,32
 1249 066c 97000000 		call	_Znwm@plt
 1249      E7800000 
 1250              	.LVL136:
 1251              	.LEHE11:
 1252 0674 13090500 		mv	s2,a0
 1253              	.LVL137:
 1254 0678 13060000 		li	a2,0
 1255 067c 97050000 		lla	a1,_Z20thread2FunctionTest2Pv
 1255      93850500 
 1256              	.LEHB12:
 1257 0684 97000000 		call	_ZN6ThreadC1EPFvPvES0_@plt
 1257      E7800000 
 1258              	.LVL138:
 1259              	.LEHE12:
  85:src/Tests.cpp ****     t2->start();
 1260              		.loc 2 85 5 is_stmt 1 discriminator 2
  85:src/Tests.cpp ****     t2->start();
 1261              		.loc 2 85 14 is_stmt 0 discriminator 2
 1262 068c 13050900 		mv	a0,s2
 1263              	.LEHB13:
 1264 0690 97000000 		call	_ZN6Thread5startEv@plt
 1264      E7800000 
 1265              	.LVL139:
  87:src/Tests.cpp ****     Riscv::enableInterrupts();
 1266              		.loc 2 87 5 is_stmt 1 discriminator 2
  87:src/Tests.cpp ****     Riscv::enableInterrupts();
 1267              		.loc 2 87 28 is_stmt 0 discriminator 2
 1268 0698 97000000 		call	_ZN5Riscv16enableInterruptsEv@plt
 1268      E7800000 
 1269              	.LVL140:
 1270              	.L74:
  89:src/Tests.cpp ****     while(idleThread->myHandle->getState() != PCB::FINISHED);
 1271              		.loc 2 89 5 is_stmt 1
  89:src/Tests.cpp ****     while(idleThread->myHandle->getState() != PCB::FINISHED);
 1272              		.loc 2 89 44
  89:src/Tests.cpp ****     while(idleThread->myHandle->getState() != PCB::FINISHED);
 1273              		.loc 2 89 23 is_stmt 0
 1274 06a0 83B78400 		ld	a5,8(s1)
 1275              	.LVL141:
 1276              	.LBB36:
 1277              	.LBB37:
 1278              		.loc 4 34 23 is_stmt 1
 1279              		.loc 4 34 30 is_stmt 0
 1280 06a4 03A70703 		lw	a4,48(a5)
 1281              	.LVL142:
 1282              	.LBE37:
 1283              	.LBE36:
  89:src/Tests.cpp ****     while(idleThread->myHandle->getState() != PCB::FINISHED);
 1284              		.loc 2 89 44
 1285 06a8 93073000 		li	a5,3
 1286 06ac E31AF7FE 		bne	a4,a5,.L74
  91:src/Tests.cpp ****     Riscv::printString("End...\n");
 1287              		.loc 2 91 5 is_stmt 1
GAS LISTING /tmp/cczxdMQq.s 			page 39


  91:src/Tests.cpp ****     Riscv::printString("End...\n");
 1288              		.loc 2 91 23 is_stmt 0
 1289 06b0 17050000 		lla	a0,.LC12
 1289      13050500 
 1290 06b8 97000000 		call	_ZN5Riscv11printStringEPKc@plt
 1290      E7800000 
 1291              	.LVL143:
  93:src/Tests.cpp ****     Riscv::disableInterrupts();
 1292              		.loc 2 93 5 is_stmt 1
  93:src/Tests.cpp ****     Riscv::disableInterrupts();
 1293              		.loc 2 93 29 is_stmt 0
 1294 06c0 97000000 		call	_ZN5Riscv17disableInterruptsEv@plt
 1294      E7800000 
 1295              	.LVL144:
 1296              	.LEHE13:
  94:src/Tests.cpp **** }
 1297              		.loc 2 94 1
 1298 06c8 83308101 		ld	ra,24(sp)
 1299              		.cfi_remember_state
 1300              		.cfi_restore 1
 1301 06cc 03340101 		ld	s0,16(sp)
 1302              		.cfi_restore 8
 1303              		.cfi_def_cfa 2, 32
 1304 06d0 83348100 		ld	s1,8(sp)
 1305              		.cfi_restore 9
 1306              	.LVL145:
 1307 06d4 03390100 		ld	s2,0(sp)
 1308              		.cfi_restore 18
 1309              	.LVL146:
 1310 06d8 13010102 		addi	sp,sp,32
 1311              		.cfi_def_cfa_offset 0
 1312 06dc 67800000 		jr	ra
 1313              	.L78:
 1314              		.cfi_restore_state
 1315 06e0 13090500 		mv	s2,a0
  80:src/Tests.cpp ****     Thread* idleThread = new Thread(&idle, 0);
 1316              		.loc 2 80 45
 1317 06e4 13850400 		mv	a0,s1
 1318 06e8 97000000 		call	_ZdlPv@plt
 1318      E7800000 
 1319              	.LVL147:
 1320 06f0 13050900 		mv	a0,s2
 1321              	.LEHB14:
 1322 06f4 97000000 		call	_Unwind_Resume@plt
 1322      E7800000 
 1323              	.LVL148:
 1324              	.LEHE14:
 1325              	.L79:
 1326 06fc 93040500 		mv	s1,a0
 1327              	.LVL149:
  82:src/Tests.cpp ****     Thread* t1 = new Thread(&thread1Function, 0);
 1328              		.loc 2 82 48
 1329 0700 13050900 		mv	a0,s2
 1330 0704 97000000 		call	_ZdlPv@plt
 1330      E7800000 
 1331              	.LVL150:
 1332 070c 13850400 		mv	a0,s1
GAS LISTING /tmp/cczxdMQq.s 			page 40


 1333              	.LEHB15:
 1334 0710 97000000 		call	_Unwind_Resume@plt
 1334      E7800000 
 1335              	.LVL151:
 1336              	.LEHE15:
 1337              	.L80:
 1338 0718 93040500 		mv	s1,a0
 1339              	.LVL152:
  84:src/Tests.cpp ****     Thread* t2  = new Thread(&thread2FunctionTest2, 0);
 1340              		.loc 2 84 54
 1341 071c 13050900 		mv	a0,s2
 1342 0720 97000000 		call	_ZdlPv@plt
 1342      E7800000 
 1343              	.LVL153:
 1344 0728 13850400 		mv	a0,s1
 1345              	.LEHB16:
 1346 072c 97000000 		call	_Unwind_Resume@plt
 1346      E7800000 
 1347              	.LVL154:
 1348              	.LEHE16:
 1349              		.cfi_endproc
 1350              	.LFE28:
 1351              		.section	.gcc_except_table
 1352              	.LLSDA28:
 1353 005f FF       		.byte	0xff
 1354 0060 FF       		.byte	0xff
 1355 0061 03       		.byte	0x3
 1356 0062 8201     		.byte	0x82,0x1
 1357 0064 00000000 		.4byte	.LEHB7-.LFB28
 1358 0068 00000000 		.4byte	.LEHE7-.LEHB7
 1359 006c 00000000 		.4byte	0
 1360 0070 00       		.byte	0
 1361 0071 00000000 		.4byte	.LEHB8-.LFB28
 1362 0075 00000000 		.4byte	.LEHE8-.LEHB8
 1363 0079 00000000 		.4byte	.L78-.LFB28
 1364 007d 00       		.byte	0
 1365 007e 00000000 		.4byte	.LEHB9-.LFB28
 1366 0082 00000000 		.4byte	.LEHE9-.LEHB9
 1367 0086 00000000 		.4byte	0
 1368 008a 00       		.byte	0
 1369 008b 00000000 		.4byte	.LEHB10-.LFB28
 1370 008f 00000000 		.4byte	.LEHE10-.LEHB10
 1371 0093 00000000 		.4byte	.L79-.LFB28
 1372 0097 00       		.byte	0
 1373 0098 00000000 		.4byte	.LEHB11-.LFB28
 1374 009c 00000000 		.4byte	.LEHE11-.LEHB11
 1375 00a0 00000000 		.4byte	0
 1376 00a4 00       		.byte	0
 1377 00a5 00000000 		.4byte	.LEHB12-.LFB28
 1378 00a9 00000000 		.4byte	.LEHE12-.LEHB12
 1379 00ad 00000000 		.4byte	.L80-.LFB28
 1380 00b1 00       		.byte	0
 1381 00b2 00000000 		.4byte	.LEHB13-.LFB28
 1382 00b6 00000000 		.4byte	.LEHE13-.LEHB13
 1383 00ba 00000000 		.4byte	0
 1384 00be 00       		.byte	0
 1385 00bf 00000000 		.4byte	.LEHB14-.LFB28
GAS LISTING /tmp/cczxdMQq.s 			page 41


 1386 00c3 00000000 		.4byte	.LEHE14-.LEHB14
 1387 00c7 00000000 		.4byte	0
 1388 00cb 00       		.byte	0
 1389 00cc 00000000 		.4byte	.LEHB15-.LFB28
 1390 00d0 00000000 		.4byte	.LEHE15-.LEHB15
 1391 00d4 00000000 		.4byte	0
 1392 00d8 00       		.byte	0
 1393 00d9 00000000 		.4byte	.LEHB16-.LFB28
 1394 00dd 00000000 		.4byte	.LEHE16-.LEHB16
 1395 00e1 00000000 		.4byte	0
 1396 00e5 00       		.byte	0
 1397              		.text
 1399              		.section	.rodata.str1.8
 1400              		.align	3
 1401              	.LC13:
 1402 00b8 6D616C6C 		.string	"mallocFree\n"
 1402      6F634672 
 1402      65650A00 
 1403 00c4 00000000 		.align	3
 1404              	.LC14:
 1405 00c8 6E6F7420 		.string	"not OK\n"
 1405      4F4B0A00 
 1406              		.align	3
 1407              	.LC15:
 1408 00d0 4F4B0A00 		.string	"OK\n"
 1409              		.text
 1410              		.align	2
 1411              		.globl	_Z10mallocFreev
 1413              	_Z10mallocFreev:
 1414              	.LFB31:
 117:src/Tests.cpp **** {
 1415              		.loc 2 117 1 is_stmt 1
 1416              		.cfi_startproc
 1417 0734 130101CC 		addi	sp,sp,-832
 1418              		.cfi_def_cfa_offset 832
 1419 0738 233C1132 		sd	ra,824(sp)
 1420 073c 23388132 		sd	s0,816(sp)
 1421 0740 23349132 		sd	s1,808(sp)
 1422              		.cfi_offset 1, -8
 1423              		.cfi_offset 8, -16
 1424              		.cfi_offset 9, -24
 1425 0744 13040134 		addi	s0,sp,832
 1426              		.cfi_def_cfa 8, 0
 118:src/Tests.cpp ****     Riscv::printString("mallocFree\n");
 1427              		.loc 2 118 5
 118:src/Tests.cpp ****     Riscv::printString("mallocFree\n");
 1428              		.loc 2 118 23 is_stmt 0
 1429 0748 17050000 		lla	a0,.LC13
 1429      13050500 
 1430 0750 97000000 		call	_ZN5Riscv11printStringEPKc@plt
 1430      E7800000 
 1431              	.LVL155:
 1432              	.LBB38:
 121:src/Tests.cpp ****     for(int i = 0; i < num;i++)
 1433              		.loc 2 121 13
 1434 0758 93040000 		li	s1,0
 1435 075c 6F008000 		j	.L87
GAS LISTING /tmp/cczxdMQq.s 			page 42


 1436              	.LVL156:
 1437              	.L85:
 121:src/Tests.cpp ****     for(int i = 0; i < num;i++)
 1438              		.loc 2 121 5 is_stmt 1 discriminator 2
 1439 0760 9B841400 		addiw	s1,s1,1
 1440              	.LVL157:
 1441              	.L87:
 121:src/Tests.cpp ****     for(int i = 0; i < num;i++)
 1442              		.loc 2 121 22 discriminator 1
 1443 0764 93073006 		li	a5,99
 1444 0768 63C49704 		bgt	s1,a5,.L95
 123:src/Tests.cpp ****         addrs[i] = mem_alloc(100);
 1445              		.loc 2 123 9
 123:src/Tests.cpp ****         addrs[i] = mem_alloc(100);
 1446              		.loc 2 123 29 is_stmt 0
 1447 076c 13054006 		li	a0,100
 1448 0770 97000000 		call	mem_alloc@plt
 1448      E7800000 
 1449              	.LVL158:
 123:src/Tests.cpp ****         addrs[i] = mem_alloc(100);
 1450              		.loc 2 123 18
 1451 0778 93973400 		slli	a5,s1,3
 1452 077c 130704FE 		addi	a4,s0,-32
 1453 0780 B307F700 		add	a5,a4,a5
 1454 0784 23B0A7CE 		sd	a0,-800(a5)
 124:src/Tests.cpp ****         if(addrs[i] == 0)
 1455              		.loc 2 124 9 is_stmt 1
 1456 0788 E31C05FC 		bnez	a0,.L85
 126:src/Tests.cpp ****             Riscv::printString("not OK\n");
 1457              		.loc 2 126 13
 126:src/Tests.cpp ****             Riscv::printString("not OK\n");
 1458              		.loc 2 126 31 is_stmt 0
 1459 078c 17050000 		lla	a0,.LC14
 1459      13050500 
 1460 0794 97000000 		call	_ZN5Riscv11printStringEPKc@plt
 1460      E7800000 
 1461              	.LVL159:
 127:src/Tests.cpp ****             return;
 1462              		.loc 2 127 13 is_stmt 1
 1463              	.L83:
 1464              	.LBE38:
 163:src/Tests.cpp **** }
 1465              		.loc 2 163 1 is_stmt 0
 1466 079c 83308133 		ld	ra,824(sp)
 1467              		.cfi_remember_state
 1468              		.cfi_restore 1
 1469 07a0 03340133 		ld	s0,816(sp)
 1470              		.cfi_restore 8
 1471              		.cfi_def_cfa 2, 832
 1472 07a4 83348132 		ld	s1,808(sp)
 1473              		.cfi_restore 9
 1474 07a8 13010134 		addi	sp,sp,832
 1475              		.cfi_def_cfa_offset 0
 1476 07ac 67800000 		jr	ra
 1477              	.LVL160:
 1478              	.L95:
 1479              		.cfi_restore_state
GAS LISTING /tmp/cczxdMQq.s 			page 43


 1480              	.LBB39:
 132:src/Tests.cpp ****     for(int i = 0 ; i < num;i+=2)
 1481              		.loc 2 132 13
 1482 07b0 93040000 		li	s1,0
 1483              	.LVL161:
 1484              	.L84:
 132:src/Tests.cpp ****     for(int i = 0 ; i < num;i+=2)
 1485              		.loc 2 132 23 is_stmt 1 discriminator 1
 1486 07b4 93073006 		li	a5,99
 1487 07b8 63CE9702 		bgt	s1,a5,.L96
 1488              	.LBB40:
 134:src/Tests.cpp ****         int retval = mem_free(addrs[i]);
 1489              		.loc 2 134 9
 134:src/Tests.cpp ****         int retval = mem_free(addrs[i]);
 1490              		.loc 2 134 30 is_stmt 0
 1491 07bc 93973400 		slli	a5,s1,3
 1492 07c0 130704FE 		addi	a4,s0,-32
 1493 07c4 B307F700 		add	a5,a4,a5
 1494 07c8 03B507CE 		ld	a0,-800(a5)
 1495 07cc 97000000 		call	mem_free@plt
 1495      E7800000 
 1496              	.LVL162:
 135:src/Tests.cpp ****         if(retval != 0)
 1497              		.loc 2 135 9 is_stmt 1
 1498 07d4 63160500 		bnez	a0,.L99
 1499              	.LBE40:
 132:src/Tests.cpp ****     for(int i = 0 ; i < num;i+=2)
 1500              		.loc 2 132 5 discriminator 2
 132:src/Tests.cpp ****     for(int i = 0 ; i < num;i+=2)
 1501              		.loc 2 132 30 is_stmt 0 discriminator 2
 1502 07d8 9B842400 		addiw	s1,s1,2
 1503              	.LVL163:
 132:src/Tests.cpp ****     for(int i = 0 ; i < num;i+=2)
 1504              		.loc 2 132 5 discriminator 2
 1505 07dc 6FF09FFD 		j	.L84
 1506              	.LVL164:
 1507              	.L99:
 1508              	.LBB41:
 137:src/Tests.cpp ****             Riscv::printString("not OK\n");
 1509              		.loc 2 137 13 is_stmt 1
 137:src/Tests.cpp ****             Riscv::printString("not OK\n");
 1510              		.loc 2 137 31 is_stmt 0
 1511 07e0 17050000 		lla	a0,.LC14
 1511      13050500 
 1512              	.LVL165:
 1513 07e8 97000000 		call	_ZN5Riscv11printStringEPKc@plt
 1513      E7800000 
 1514              	.LVL166:
 138:src/Tests.cpp ****             return;
 1515              		.loc 2 138 13 is_stmt 1
 1516 07f0 6FF0DFFA 		j	.L83
 1517              	.L96:
 1518              	.LBE41:
 1519              	.LBE39:
 1520              	.LBB42:
 142:src/Tests.cpp ****     for(int i = 0 ; i < num;i+=2)
 1521              		.loc 2 142 13 is_stmt 0
GAS LISTING /tmp/cczxdMQq.s 			page 44


 1522 07f4 93040000 		li	s1,0
 1523              	.LVL167:
 1524 07f8 6F008000 		j	.L88
 1525              	.LVL168:
 1526              	.L91:
 142:src/Tests.cpp ****     for(int i = 0 ; i < num;i+=2)
 1527              		.loc 2 142 5 is_stmt 1 discriminator 2
 142:src/Tests.cpp ****     for(int i = 0 ; i < num;i+=2)
 1528              		.loc 2 142 30 is_stmt 0 discriminator 2
 1529 07fc 9B842400 		addiw	s1,s1,2
 1530              	.LVL169:
 1531              	.L88:
 142:src/Tests.cpp ****     for(int i = 0 ; i < num;i+=2)
 1532              		.loc 2 142 23 is_stmt 1 discriminator 1
 1533 0800 93073006 		li	a5,99
 1534 0804 63CC9702 		bgt	s1,a5,.L97
 144:src/Tests.cpp ****         addrs[i] = mem_alloc(20);
 1535              		.loc 2 144 9
 144:src/Tests.cpp ****         addrs[i] = mem_alloc(20);
 1536              		.loc 2 144 29 is_stmt 0
 1537 0808 13054001 		li	a0,20
 1538 080c 97000000 		call	mem_alloc@plt
 1538      E7800000 
 1539              	.LVL170:
 144:src/Tests.cpp ****         addrs[i] = mem_alloc(20);
 1540              		.loc 2 144 18
 1541 0814 93973400 		slli	a5,s1,3
 1542 0818 130704FE 		addi	a4,s0,-32
 1543 081c B307F700 		add	a5,a4,a5
 1544 0820 23B0A7CE 		sd	a0,-800(a5)
 145:src/Tests.cpp ****         if(addrs[i] == 0)
 1545              		.loc 2 145 9 is_stmt 1
 1546 0824 E31C05FC 		bnez	a0,.L91
 147:src/Tests.cpp ****             Riscv::printString("not OK\n");
 1547              		.loc 2 147 13
 147:src/Tests.cpp ****             Riscv::printString("not OK\n");
 1548              		.loc 2 147 31 is_stmt 0
 1549 0828 17050000 		lla	a0,.LC14
 1549      13050500 
 1550 0830 97000000 		call	_ZN5Riscv11printStringEPKc@plt
 1550      E7800000 
 1551              	.LVL171:
 148:src/Tests.cpp ****             return;
 1552              		.loc 2 148 13 is_stmt 1
 1553 0838 6FF05FF6 		j	.L83
 1554              	.L97:
 1555              	.LBE42:
 1556              	.LBB43:
 152:src/Tests.cpp ****     for(int i = 0; i < num;i++)
 1557              		.loc 2 152 13 is_stmt 0
 1558 083c 93040000 		li	s1,0
 1559              	.LVL172:
 1560              	.L90:
 152:src/Tests.cpp ****     for(int i = 0; i < num;i++)
 1561              		.loc 2 152 22 is_stmt 1 discriminator 1
 1562 0840 93073006 		li	a5,99
 1563 0844 63CE9702 		bgt	s1,a5,.L92
GAS LISTING /tmp/cczxdMQq.s 			page 45


 1564              	.LBB44:
 154:src/Tests.cpp ****         int retval = mem_free(addrs[i]);
 1565              		.loc 2 154 9
 154:src/Tests.cpp ****         int retval = mem_free(addrs[i]);
 1566              		.loc 2 154 30 is_stmt 0
 1567 0848 93973400 		slli	a5,s1,3
 1568 084c 130704FE 		addi	a4,s0,-32
 1569 0850 B307F700 		add	a5,a4,a5
 1570 0854 03B507CE 		ld	a0,-800(a5)
 1571 0858 97000000 		call	mem_free@plt
 1571      E7800000 
 1572              	.LVL173:
 155:src/Tests.cpp ****         if(retval != 0)
 1573              		.loc 2 155 9 is_stmt 1
 1574 0860 63160500 		bnez	a0,.L100
 1575              	.LBE44:
 152:src/Tests.cpp ****     for(int i = 0; i < num;i++)
 1576              		.loc 2 152 5 discriminator 2
 1577 0864 9B841400 		addiw	s1,s1,1
 1578              	.LVL174:
 1579 0868 6FF09FFD 		j	.L90
 1580              	.LVL175:
 1581              	.L100:
 1582              	.LBB45:
 157:src/Tests.cpp ****             Riscv::printString("not OK\n");
 1583              		.loc 2 157 13
 157:src/Tests.cpp ****             Riscv::printString("not OK\n");
 1584              		.loc 2 157 31 is_stmt 0
 1585 086c 17050000 		lla	a0,.LC14
 1585      13050500 
 1586              	.LVL176:
 1587 0874 97000000 		call	_ZN5Riscv11printStringEPKc@plt
 1587      E7800000 
 1588              	.LVL177:
 158:src/Tests.cpp ****             return;
 1589              		.loc 2 158 13 is_stmt 1
 1590 087c 6FF01FF2 		j	.L83
 1591              	.L92:
 1592              	.LBE45:
 1593              	.LBE43:
 162:src/Tests.cpp ****     Riscv::printString("OK\n");
 1594              		.loc 2 162 5
 162:src/Tests.cpp ****     Riscv::printString("OK\n");
 1595              		.loc 2 162 23 is_stmt 0
 1596 0880 17050000 		lla	a0,.LC15
 1596      13050500 
 1597 0888 97000000 		call	_ZN5Riscv11printStringEPKc@plt
 1597      E7800000 
 1598              	.LVL178:
 1599 0890 6FF0DFF0 		j	.L83
 1600              		.cfi_endproc
 1601              	.LFE31:
 1603              		.section	.rodata.str1.8
 1604 00d4 00000000 		.align	3
 1605              	.LC16:
 1606 00d8 6269674D 		.string	"bigMalloc\n"
 1606      616C6C6F 
GAS LISTING /tmp/cczxdMQq.s 			page 46


 1606      630A00
 1607              		.text
 1608              		.align	2
 1609              		.globl	_Z9bigMallocv
 1611              	_Z9bigMallocv:
 1612              	.LFB32:
 165:src/Tests.cpp **** {
 1613              		.loc 2 165 1 is_stmt 1
 1614              		.cfi_startproc
 1615 0894 130101FF 		addi	sp,sp,-16
 1616              		.cfi_def_cfa_offset 16
 1617 0898 23341100 		sd	ra,8(sp)
 1618 089c 23308100 		sd	s0,0(sp)
 1619              		.cfi_offset 1, -8
 1620              		.cfi_offset 8, -16
 1621 08a0 13040101 		addi	s0,sp,16
 1622              		.cfi_def_cfa 8, 0
 166:src/Tests.cpp ****     Riscv::printString("bigMalloc\n");
 1623              		.loc 2 166 5
 166:src/Tests.cpp ****     Riscv::printString("bigMalloc\n");
 1624              		.loc 2 166 23 is_stmt 0
 1625 08a4 17050000 		lla	a0,.LC16
 1625      13050500 
 1626 08ac 97000000 		call	_ZN5Riscv11printStringEPKc@plt
 1626      E7800000 
 1627              	.LVL179:
 167:src/Tests.cpp ****     uint64 x = (uint64)HEAP_END_ADDR - (uint64)HEAP_START_ADDR + 100UL;
 1628              		.loc 2 167 5 is_stmt 1
 167:src/Tests.cpp ****     uint64 x = (uint64)HEAP_END_ADDR - (uint64)HEAP_START_ADDR + 100UL;
 1629              		.loc 2 167 38 is_stmt 0
 1630 08b4 97070000 		la	a5,HEAP_END_ADDR
 1630      83B70700 
 1631 08bc 03B50700 		ld	a0,0(a5)
 1632 08c0 97070000 		la	a5,HEAP_START_ADDR
 1632      83B70700 
 1633 08c8 83B70700 		ld	a5,0(a5)
 1634 08cc 3305F540 		sub	a0,a0,a5
 1635              	.LVL180:
 168:src/Tests.cpp ****     void* p = mem_alloc(x);
 1636              		.loc 2 168 5 is_stmt 1
 168:src/Tests.cpp ****     void* p = mem_alloc(x);
 1637              		.loc 2 168 24 is_stmt 0
 1638 08d0 13054506 		addi	a0,a0,100
 1639              	.LVL181:
 1640 08d4 97000000 		call	mem_alloc@plt
 1640      E7800000 
 1641              	.LVL182:
 169:src/Tests.cpp ****     if(p == 0)
 1642              		.loc 2 169 5 is_stmt 1
 1643 08dc 63020502 		beqz	a0,.L105
 172:src/Tests.cpp ****         Riscv::printString("not OK\n");
 1644              		.loc 2 172 9
 172:src/Tests.cpp ****         Riscv::printString("not OK\n");
 1645              		.loc 2 172 27 is_stmt 0
 1646 08e0 17050000 		lla	a0,.LC14
 1646      13050500 
 1647              	.LVL183:
GAS LISTING /tmp/cczxdMQq.s 			page 47


 1648 08e8 97000000 		call	_ZN5Riscv11printStringEPKc@plt
 1648      E7800000 
 1649              	.LVL184:
 1650              	.L101:
 173:src/Tests.cpp **** }
 1651              		.loc 2 173 1
 1652 08f0 83308100 		ld	ra,8(sp)
 1653              		.cfi_remember_state
 1654              		.cfi_restore 1
 1655 08f4 03340100 		ld	s0,0(sp)
 1656              		.cfi_restore 8
 1657              		.cfi_def_cfa 2, 16
 1658 08f8 13010101 		addi	sp,sp,16
 1659              		.cfi_def_cfa_offset 0
 1660 08fc 67800000 		jr	ra
 1661              	.LVL185:
 1662              	.L105:
 1663              		.cfi_restore_state
 170:src/Tests.cpp ****         Riscv::printString("OK\n");
 1664              		.loc 2 170 9 is_stmt 1
 170:src/Tests.cpp ****         Riscv::printString("OK\n");
 1665              		.loc 2 170 27 is_stmt 0
 1666 0900 17050000 		lla	a0,.LC15
 1666      13050500 
 1667              	.LVL186:
 1668 0908 97000000 		call	_ZN5Riscv11printStringEPKc@plt
 1668      E7800000 
 1669              	.LVL187:
 1670 0910 6FF01FFE 		j	.L101
 1671              		.cfi_endproc
 1672              	.LFE32:
 1674              		.section	.rodata.str1.8
 1675 00e3 00000000 		.align	3
 1675      00
 1676              	.LC17:
 1677 00e8 6C6F744F 		.string	"lotOfSmallMallocs\n"
 1677      66536D61 
 1677      6C6C4D61 
 1677      6C6C6F63 
 1677      730A00
 1678              		.text
 1679              		.align	2
 1680              		.globl	_Z17lotOfSmallMallocsv
 1682              	_Z17lotOfSmallMallocsv:
 1683              	.LFB33:
 176:src/Tests.cpp **** {
 1684              		.loc 2 176 1 is_stmt 1
 1685              		.cfi_startproc
 1686 0914 130101FD 		addi	sp,sp,-48
 1687              		.cfi_def_cfa_offset 48
 1688 0918 23341102 		sd	ra,40(sp)
 1689 091c 23308102 		sd	s0,32(sp)
 1690 0920 233C9100 		sd	s1,24(sp)
 1691 0924 23382101 		sd	s2,16(sp)
 1692 0928 23343101 		sd	s3,8(sp)
 1693              		.cfi_offset 1, -8
 1694              		.cfi_offset 8, -16
GAS LISTING /tmp/cczxdMQq.s 			page 48


 1695              		.cfi_offset 9, -24
 1696              		.cfi_offset 18, -32
 1697              		.cfi_offset 19, -40
 1698 092c 13040103 		addi	s0,sp,48
 1699              		.cfi_def_cfa 8, 0
 177:src/Tests.cpp ****     Riscv::printString("lotOfSmallMallocs\n");
 1700              		.loc 2 177 5
 177:src/Tests.cpp ****     Riscv::printString("lotOfSmallMallocs\n");
 1701              		.loc 2 177 23 is_stmt 0
 1702 0930 17050000 		lla	a0,.LC17
 1702      13050500 
 1703 0938 97000000 		call	_ZN5Riscv11printStringEPKc@plt
 1703      E7800000 
 1704              	.LVL188:
 178:src/Tests.cpp ****     uint64 cnt = 0;
 1705              		.loc 2 178 5 is_stmt 1
 179:src/Tests.cpp ****     uint64 sum = 0;
 1706              		.loc 2 179 5
 180:src/Tests.cpp ****     uint64 N = 10000UL;
 1707              		.loc 2 180 5
 181:src/Tests.cpp ****     uint64 X = 10UL;
 1708              		.loc 2 181 5
 182:src/Tests.cpp ****     for(uint64 i = 0; i < N;i++)
 1709              		.loc 2 182 5
 1710              	.LBB46:
 182:src/Tests.cpp ****     for(uint64 i = 0; i < N;i++)
 1711              		.loc 2 182 16 is_stmt 0
 1712 0940 93040000 		li	s1,0
 1713              	.LBE46:
 179:src/Tests.cpp ****     uint64 sum = 0;
 1714              		.loc 2 179 12
 1715 0944 93090000 		li	s3,0
 178:src/Tests.cpp ****     uint64 cnt = 0;
 1716              		.loc 2 178 12
 1717 0948 13090000 		li	s2,0
 1718 094c 6F008001 		j	.L108
 1719              	.LVL189:
 1720              	.L112:
 1721              	.LBB49:
 1722              	.LBB47:
 187:src/Tests.cpp ****         t->a = X;
 1723              		.loc 2 187 9 is_stmt 1 discriminator 2
 187:src/Tests.cpp ****         t->a = X;
 1724              		.loc 2 187 14 is_stmt 0 discriminator 2
 1725 0950 9307A000 		li	a5,10
 1726 0954 2330F500 		sd	a5,0(a0)
 188:src/Tests.cpp ****         sum+=t->a;
 1727              		.loc 2 188 9 is_stmt 1 discriminator 2
 188:src/Tests.cpp ****         sum+=t->a;
 1728              		.loc 2 188 12 is_stmt 0 discriminator 2
 1729 0958 9389A900 		addi	s3,s3,10
 1730              	.LVL190:
 189:src/Tests.cpp ****         cnt++;
 1731              		.loc 2 189 9 is_stmt 1 discriminator 2
 189:src/Tests.cpp ****         cnt++;
 1732              		.loc 2 189 12 is_stmt 0 discriminator 2
 1733 095c 13091900 		addi	s2,s2,1
GAS LISTING /tmp/cczxdMQq.s 			page 49


 1734              	.LVL191:
 1735              	.LBE47:
 182:src/Tests.cpp ****     for(uint64 i = 0; i < N;i++)
 1736              		.loc 2 182 5 is_stmt 1 discriminator 2
 1737 0960 93841400 		addi	s1,s1,1
 1738              	.LVL192:
 1739              	.L108:
 182:src/Tests.cpp ****     for(uint64 i = 0; i < N;i++)
 1740              		.loc 2 182 25 discriminator 1
 1741 0964 B7270000 		li	a5,8192
 1742 0968 9387F770 		addi	a5,a5,1807
 1743 096c 63EA9700 		bgtu	s1,a5,.L107
 1744              	.LBB48:
 184:src/Tests.cpp ****         Test* t = (Test*)mem_alloc(sizeof(Test));
 1745              		.loc 2 184 9
 184:src/Tests.cpp ****         Test* t = (Test*)mem_alloc(sizeof(Test));
 1746              		.loc 2 184 35 is_stmt 0
 1747 0970 13058000 		li	a0,8
 1748 0974 97000000 		call	mem_alloc@plt
 1748      E7800000 
 1749              	.LVL193:
 185:src/Tests.cpp ****         if(t == 0)
 1750              		.loc 2 185 9 is_stmt 1
 1751 097c E31A05FC 		bnez	a0,.L112
 1752              	.LVL194:
 1753              	.L107:
 1754              	.LBE48:
 1755              	.LBE49:
 191:src/Tests.cpp ****     Riscv::printInteger(cnt);
 1756              		.loc 2 191 5
 191:src/Tests.cpp ****     Riscv::printInteger(cnt);
 1757              		.loc 2 191 24 is_stmt 0
 1758 0980 13050900 		mv	a0,s2
 1759 0984 97000000 		call	_ZN5Riscv12printIntegerEm@plt
 1759      E7800000 
 1760              	.LVL195:
 192:src/Tests.cpp ****     Riscv::printString("\n");
 1761              		.loc 2 192 5 is_stmt 1
 192:src/Tests.cpp ****     Riscv::printString("\n");
 1762              		.loc 2 192 23 is_stmt 0
 1763 098c 17050000 		lla	a0,.LC3
 1763      13050500 
 1764 0994 97000000 		call	_ZN5Riscv11printStringEPKc@plt
 1764      E7800000 
 1765              	.LVL196:
 193:src/Tests.cpp ****     if(sum == X*cnt)
 1766              		.loc 2 193 5 is_stmt 1
 193:src/Tests.cpp ****     if(sum == X*cnt)
 1767              		.loc 2 193 16 is_stmt 0
 1768 099c 93172900 		slli	a5,s2,2
 1769 09a0 33892701 		add	s2,a5,s2
 1770              	.LVL197:
 1771 09a4 13191900 		slli	s2,s2,1
 193:src/Tests.cpp ****     if(sum == X*cnt)
 1772              		.loc 2 193 5
 1773 09a8 63083903 		beq	s2,s3,.L113
 196:src/Tests.cpp ****         Riscv::printString("not OK\n");
GAS LISTING /tmp/cczxdMQq.s 			page 50


 1774              		.loc 2 196 9 is_stmt 1
 196:src/Tests.cpp ****         Riscv::printString("not OK\n");
 1775              		.loc 2 196 27 is_stmt 0
 1776 09ac 17050000 		lla	a0,.LC14
 1776      13050500 
 1777 09b4 97000000 		call	_ZN5Riscv11printStringEPKc@plt
 1777      E7800000 
 1778              	.LVL198:
 1779              	.L106:
 197:src/Tests.cpp **** }
 1780              		.loc 2 197 1
 1781 09bc 83308102 		ld	ra,40(sp)
 1782              		.cfi_remember_state
 1783              		.cfi_restore 1
 1784 09c0 03340102 		ld	s0,32(sp)
 1785              		.cfi_restore 8
 1786              		.cfi_def_cfa 2, 48
 1787 09c4 83348101 		ld	s1,24(sp)
 1788              		.cfi_restore 9
 1789              	.LVL199:
 1790 09c8 03390101 		ld	s2,16(sp)
 1791              		.cfi_restore 18
 1792 09cc 83398100 		ld	s3,8(sp)
 1793              		.cfi_restore 19
 1794              	.LVL200:
 1795 09d0 13010103 		addi	sp,sp,48
 1796              		.cfi_def_cfa_offset 0
 1797 09d4 67800000 		jr	ra
 1798              	.LVL201:
 1799              	.L113:
 1800              		.cfi_restore_state
 194:src/Tests.cpp ****         Riscv::printString("OK\n");
 1801              		.loc 2 194 9 is_stmt 1
 194:src/Tests.cpp ****         Riscv::printString("OK\n");
 1802              		.loc 2 194 27 is_stmt 0
 1803 09d8 17050000 		lla	a0,.LC15
 1803      13050500 
 1804 09e0 97000000 		call	_ZN5Riscv11printStringEPKc@plt
 1804      E7800000 
 1805              	.LVL202:
 1806 09e8 6FF05FFD 		j	.L106
 1807              		.cfi_endproc
 1808              	.LFE33:
 1810              		.section	.rodata.str1.8
 1811 00fb 00000000 		.align	3
 1811      00
 1812              	.LC18:
 1813 0100 62616446 		.string	"badFree\n"
 1813      7265650A 
 1813      00
 1814              		.text
 1815              		.align	2
 1816              		.globl	_Z7badFreev
 1818              	_Z7badFreev:
 1819              	.LFB34:
 199:src/Tests.cpp **** {
 1820              		.loc 2 199 1 is_stmt 1
GAS LISTING /tmp/cczxdMQq.s 			page 51


 1821              		.cfi_startproc
 1822 09ec 130101FF 		addi	sp,sp,-16
 1823              		.cfi_def_cfa_offset 16
 1824 09f0 23341100 		sd	ra,8(sp)
 1825 09f4 23308100 		sd	s0,0(sp)
 1826              		.cfi_offset 1, -8
 1827              		.cfi_offset 8, -16
 1828 09f8 13040101 		addi	s0,sp,16
 1829              		.cfi_def_cfa 8, 0
 200:src/Tests.cpp ****     Riscv::printString("badFree\n");
 1830              		.loc 2 200 5
 200:src/Tests.cpp ****     Riscv::printString("badFree\n");
 1831              		.loc 2 200 23 is_stmt 0
 1832 09fc 17050000 		lla	a0,.LC18
 1832      13050500 
 1833 0a04 97000000 		call	_ZN5Riscv11printStringEPKc@plt
 1833      E7800000 
 1834              	.LVL203:
 201:src/Tests.cpp ****     Test* t = (Test*)mem_alloc(sizeof(Test));
 1835              		.loc 2 201 5 is_stmt 1
 201:src/Tests.cpp ****     Test* t = (Test*)mem_alloc(sizeof(Test));
 1836              		.loc 2 201 31 is_stmt 0
 1837 0a0c 13058000 		li	a0,8
 1838 0a10 97000000 		call	mem_alloc@plt
 1838      E7800000 
 1839              	.LVL204:
 202:src/Tests.cpp ****     uint64 retval = mem_free((char*)t + 2);
 1840              		.loc 2 202 5 is_stmt 1
 202:src/Tests.cpp ****     uint64 retval = mem_free((char*)t + 2);
 1841              		.loc 2 202 29 is_stmt 0
 1842 0a18 13052500 		addi	a0,a0,2
 1843              	.LVL205:
 1844 0a1c 97000000 		call	mem_free@plt
 1844      E7800000 
 1845              	.LVL206:
 203:src/Tests.cpp ****     if(retval == 0)
 1846              		.loc 2 203 5 is_stmt 1
 1847 0a24 63120502 		bnez	a0,.L115
 204:src/Tests.cpp ****         Riscv::printString("not OK\n");
 1848              		.loc 2 204 9
 204:src/Tests.cpp ****         Riscv::printString("not OK\n");
 1849              		.loc 2 204 27 is_stmt 0
 1850 0a28 17050000 		lla	a0,.LC14
 1850      13050500 
 1851              	.LVL207:
 1852 0a30 97000000 		call	_ZN5Riscv11printStringEPKc@plt
 1852      E7800000 
 1853              	.LVL208:
 1854              	.L114:
 207:src/Tests.cpp **** }
 1855              		.loc 2 207 1
 1856 0a38 83308100 		ld	ra,8(sp)
 1857              		.cfi_remember_state
 1858              		.cfi_restore 1
 1859 0a3c 03340100 		ld	s0,0(sp)
 1860              		.cfi_restore 8
 1861              		.cfi_def_cfa 2, 16
GAS LISTING /tmp/cczxdMQq.s 			page 52


 1862 0a40 13010101 		addi	sp,sp,16
 1863              		.cfi_def_cfa_offset 0
 1864 0a44 67800000 		jr	ra
 1865              	.LVL209:
 1866              	.L115:
 1867              		.cfi_restore_state
 206:src/Tests.cpp ****         Riscv::printString("OK\n");
 1868              		.loc 2 206 9 is_stmt 1
 206:src/Tests.cpp ****         Riscv::printString("OK\n");
 1869              		.loc 2 206 27 is_stmt 0
 1870 0a48 17050000 		lla	a0,.LC15
 1870      13050500 
 1871              	.LVL210:
 1872 0a50 97000000 		call	_ZN5Riscv11printStringEPKc@plt
 1872      E7800000 
 1873              	.LVL211:
 207:src/Tests.cpp **** }
 1874              		.loc 2 207 1
 1875 0a58 6FF01FFE 		j	.L114
 1876              		.cfi_endproc
 1877              	.LFE34:
 1879              		.section	.rodata.str1.8
 1880 0109 00000000 		.align	3
 1880      000000
 1881              	.LC19:
 1882 0110 73747265 		.string	"stressTesting\n"
 1882      73735465 
 1882      7374696E 
 1882      670A00
 1883              		.text
 1884              		.align	2
 1885              		.globl	_Z13stressTestingv
 1887              	_Z13stressTestingv:
 1888              	.LFB35:
 210:src/Tests.cpp **** {
 1889              		.loc 2 210 1 is_stmt 1
 1890              		.cfi_startproc
 1891 0a5c 130101CC 		addi	sp,sp,-832
 1892              		.cfi_def_cfa_offset 832
 1893 0a60 233C1132 		sd	ra,824(sp)
 1894 0a64 23388132 		sd	s0,816(sp)
 1895 0a68 23349132 		sd	s1,808(sp)
 1896 0a6c 23302133 		sd	s2,800(sp)
 1897              		.cfi_offset 1, -8
 1898              		.cfi_offset 8, -16
 1899              		.cfi_offset 9, -24
 1900              		.cfi_offset 18, -32
 1901 0a70 13040134 		addi	s0,sp,832
 1902              		.cfi_def_cfa 8, 0
 211:src/Tests.cpp ****     Riscv::printString("stressTesting\n");
 1903              		.loc 2 211 5
 211:src/Tests.cpp ****     Riscv::printString("stressTesting\n");
 1904              		.loc 2 211 23 is_stmt 0
 1905 0a74 17050000 		lla	a0,.LC19
 1905      13050500 
 1906 0a7c 97000000 		call	_ZN5Riscv11printStringEPKc@plt
 1906      E7800000 
GAS LISTING /tmp/cczxdMQq.s 			page 53


 1907              	.LVL212:
 1908              	.LBB50:
 214:src/Tests.cpp ****     for(int i = 0; i < num;i++)
 1909              		.loc 2 214 13
 1910 0a84 93040000 		li	s1,0
 1911 0a88 6F008000 		j	.L121
 1912              	.LVL213:
 1913              	.L130:
 214:src/Tests.cpp ****     for(int i = 0; i < num;i++)
 1914              		.loc 2 214 5 is_stmt 1 discriminator 2
 1915 0a8c 9B841400 		addiw	s1,s1,1
 1916              	.LVL214:
 1917              	.L121:
 214:src/Tests.cpp ****     for(int i = 0; i < num;i++)
 1918              		.loc 2 214 22 discriminator 1
 1919 0a90 93073006 		li	a5,99
 1920 0a94 63CE9702 		bgt	s1,a5,.L127
 216:src/Tests.cpp ****         addrs[i] = mem_alloc(1);
 1921              		.loc 2 216 9
 216:src/Tests.cpp ****         addrs[i] = mem_alloc(1);
 1922              		.loc 2 216 29 is_stmt 0
 1923 0a98 13051000 		li	a0,1
 1924 0a9c 97000000 		call	mem_alloc@plt
 1924      E7800000 
 1925              	.LVL215:
 216:src/Tests.cpp ****         addrs[i] = mem_alloc(1);
 1926              		.loc 2 216 18
 1927 0aa4 93973400 		slli	a5,s1,3
 1928 0aa8 130704FE 		addi	a4,s0,-32
 1929 0aac B307F700 		add	a5,a4,a5
 1930 0ab0 23B0A7CE 		sd	a0,-800(a5)
 217:src/Tests.cpp ****         if(addrs[i] == 0)
 1931              		.loc 2 217 9 is_stmt 1
 1932 0ab4 E31C05FC 		bnez	a0,.L130
 1933              	.LVL216:
 1934              	.L118:
 1935              	.LBE50:
 274:src/Tests.cpp **** }
 1936              		.loc 2 274 1 is_stmt 0
 1937 0ab8 83308133 		ld	ra,824(sp)
 1938              		.cfi_remember_state
 1939              		.cfi_restore 1
 1940 0abc 03340133 		ld	s0,816(sp)
 1941              		.cfi_restore 8
 1942              		.cfi_def_cfa 2, 832
 1943 0ac0 83348132 		ld	s1,808(sp)
 1944              		.cfi_restore 9
 1945 0ac4 03390132 		ld	s2,800(sp)
 1946              		.cfi_restore 18
 1947 0ac8 13010134 		addi	sp,sp,832
 1948              		.cfi_def_cfa_offset 0
 1949 0acc 67800000 		jr	ra
 1950              	.LVL217:
 1951              	.L127:
 1952              		.cfi_restore_state
 224:src/Tests.cpp ****     int sz = 300;
 1953              		.loc 2 224 9
GAS LISTING /tmp/cczxdMQq.s 			page 54


 1954 0ad0 1309C012 		li	s2,300
 1955              	.LVL218:
 1956              	.L119:
 225:src/Tests.cpp ****     while(sz > 0)
 1957              		.loc 2 225 5 is_stmt 1
 225:src/Tests.cpp ****     while(sz > 0)
 1958              		.loc 2 225 14
 1959 0ad4 635A200B 		blez	s2,.L122
 1960              	.LBB51:
 1961              	.LBB52:
 229:src/Tests.cpp ****         for(int i = 0 ; i < num;i+=2)
 1962              		.loc 2 229 17 is_stmt 0
 1963 0ad8 93040000 		li	s1,0
 1964              	.L124:
 1965              	.LVL219:
 229:src/Tests.cpp ****         for(int i = 0 ; i < num;i+=2)
 1966              		.loc 2 229 27 is_stmt 1 discriminator 1
 1967 0adc 93073006 		li	a5,99
 1968 0ae0 63C89704 		bgt	s1,a5,.L128
 1969              	.LBB53:
 234:src/Tests.cpp ****             int retval = mem_free(addrs[i]);
 1970              		.loc 2 234 13
 234:src/Tests.cpp ****             int retval = mem_free(addrs[i]);
 1971              		.loc 2 234 34 is_stmt 0
 1972 0ae4 93973400 		slli	a5,s1,3
 1973 0ae8 130704FE 		addi	a4,s0,-32
 1974 0aec B307F700 		add	a5,a4,a5
 1975 0af0 03B507CE 		ld	a0,-800(a5)
 1976 0af4 97000000 		call	mem_free@plt
 1976      E7800000 
 1977              	.LVL220:
 235:src/Tests.cpp ****             if(retval != 0)
 1978              		.loc 2 235 13 is_stmt 1
 1979 0afc E31E05FA 		bnez	a0,.L118
 241:src/Tests.cpp ****             addrs[i] = mem_alloc(sz/2);
 1980              		.loc 2 241 13
 241:src/Tests.cpp ****             addrs[i] = mem_alloc(sz/2);
 1981              		.loc 2 241 36 is_stmt 0
 1982 0b00 1B55F901 		srliw	a0,s2,31
 1983              	.LVL221:
 1984 0b04 3B052501 		addw	a0,a0,s2
 241:src/Tests.cpp ****             addrs[i] = mem_alloc(sz/2);
 1985              		.loc 2 241 33
 1986 0b08 1B551540 		sraiw	a0,a0,1
 1987 0b0c 97000000 		call	mem_alloc@plt
 1987      E7800000 
 1988              	.LVL222:
 241:src/Tests.cpp ****             addrs[i] = mem_alloc(sz/2);
 1989              		.loc 2 241 22
 1990 0b14 93973400 		slli	a5,s1,3
 1991 0b18 130704FE 		addi	a4,s0,-32
 1992 0b1c B307F700 		add	a5,a4,a5
 1993 0b20 23B0A7CE 		sd	a0,-800(a5)
 242:src/Tests.cpp ****             if(addrs[i] == 0)
 1994              		.loc 2 242 13 is_stmt 1
 1995 0b24 E30A05F8 		beqz	a0,.L118
 1996              	.LBE53:
GAS LISTING /tmp/cczxdMQq.s 			page 55


 229:src/Tests.cpp ****         for(int i = 0 ; i < num;i+=2)
 1997              		.loc 2 229 9 discriminator 2
 229:src/Tests.cpp ****         for(int i = 0 ; i < num;i+=2)
 1998              		.loc 2 229 34 is_stmt 0 discriminator 2
 1999 0b28 9B842400 		addiw	s1,s1,2
 2000              	.LVL223:
 229:src/Tests.cpp ****         for(int i = 0 ; i < num;i+=2)
 2001              		.loc 2 229 9 discriminator 2
 2002 0b2c 6FF01FFB 		j	.L124
 2003              	.LVL224:
 2004              	.L128:
 2005              	.LBE52:
 2006              	.LBB54:
 250:src/Tests.cpp ****         for(int i = 1 ; i < num;i+=2)
 2007              		.loc 2 250 17
 2008 0b30 93041000 		li	s1,1
 2009              	.LVL225:
 2010              	.L123:
 250:src/Tests.cpp ****         for(int i = 1 ; i < num;i+=2)
 2011              		.loc 2 250 27 is_stmt 1 discriminator 1
 2012 0b34 93073006 		li	a5,99
 2013 0b38 63C49704 		bgt	s1,a5,.L125
 2014              	.LBB55:
 255:src/Tests.cpp ****             int retval = mem_free(addrs[i]);
 2015              		.loc 2 255 13
 255:src/Tests.cpp ****             int retval = mem_free(addrs[i]);
 2016              		.loc 2 255 34 is_stmt 0
 2017 0b3c 93973400 		slli	a5,s1,3
 2018 0b40 130704FE 		addi	a4,s0,-32
 2019 0b44 B307F700 		add	a5,a4,a5
 2020 0b48 03B507CE 		ld	a0,-800(a5)
 2021 0b4c 97000000 		call	mem_free@plt
 2021      E7800000 
 2022              	.LVL226:
 256:src/Tests.cpp ****             if(retval != 0)
 2023              		.loc 2 256 13 is_stmt 1
 2024 0b54 E31205F6 		bnez	a0,.L118
 262:src/Tests.cpp ****             addrs[i] = mem_alloc(sz);
 2025              		.loc 2 262 13
 262:src/Tests.cpp ****             addrs[i] = mem_alloc(sz);
 2026              		.loc 2 262 33 is_stmt 0
 2027 0b58 13050900 		mv	a0,s2
 2028              	.LVL227:
 2029 0b5c 97000000 		call	mem_alloc@plt
 2029      E7800000 
 2030              	.LVL228:
 262:src/Tests.cpp ****             addrs[i] = mem_alloc(sz);
 2031              		.loc 2 262 22
 2032 0b64 93973400 		slli	a5,s1,3
 2033 0b68 130704FE 		addi	a4,s0,-32
 2034 0b6c B307F700 		add	a5,a4,a5
 2035 0b70 23B0A7CE 		sd	a0,-800(a5)
 263:src/Tests.cpp ****             if(addrs[i] == 0)
 2036              		.loc 2 263 13 is_stmt 1
 2037 0b74 E30205F4 		beqz	a0,.L118
 2038              	.LBE55:
 250:src/Tests.cpp ****         for(int i = 1 ; i < num;i+=2)
GAS LISTING /tmp/cczxdMQq.s 			page 56


 2039              		.loc 2 250 9 discriminator 2
 250:src/Tests.cpp ****         for(int i = 1 ; i < num;i+=2)
 2040              		.loc 2 250 34 is_stmt 0 discriminator 2
 2041 0b78 9B842400 		addiw	s1,s1,2
 2042              	.LVL229:
 250:src/Tests.cpp ****         for(int i = 1 ; i < num;i+=2)
 2043              		.loc 2 250 9 discriminator 2
 2044 0b7c 6FF09FFB 		j	.L123
 2045              	.LVL230:
 2046              	.L125:
 2047              	.LBE54:
 270:src/Tests.cpp ****         sz-=10;
 2048              		.loc 2 270 9 is_stmt 1
 270:src/Tests.cpp ****         sz-=10;
 2049              		.loc 2 270 11 is_stmt 0
 2050 0b80 1B0969FF 		addiw	s2,s2,-10
 2051              	.LVL231:
 2052              	.LBE51:
 225:src/Tests.cpp ****     while(sz > 0)
 2053              		.loc 2 225 5
 2054 0b84 6FF01FF5 		j	.L119
 2055              	.LVL232:
 2056              	.L122:
 273:src/Tests.cpp ****     Riscv::printString("OK\n");
 2057              		.loc 2 273 5 is_stmt 1
 273:src/Tests.cpp ****     Riscv::printString("OK\n");
 2058              		.loc 2 273 23 is_stmt 0
 2059 0b88 17050000 		lla	a0,.LC15
 2059      13050500 
 2060 0b90 97000000 		call	_ZN5Riscv11printStringEPKc@plt
 2060      E7800000 
 2061              	.LVL233:
 2062 0b98 6FF01FF2 		j	.L118
 2063              		.cfi_endproc
 2064              	.LFE35:
 2066              		.align	2
 2067              		.globl	_Z21memoryAllocationTestsv
 2069              	_Z21memoryAllocationTestsv:
 2070              	.LFB36:
 277:src/Tests.cpp **** {
 2071              		.loc 2 277 1 is_stmt 1
 2072              		.cfi_startproc
 2073 0b9c 130101FF 		addi	sp,sp,-16
 2074              		.cfi_def_cfa_offset 16
 2075 0ba0 23341100 		sd	ra,8(sp)
 2076 0ba4 23308100 		sd	s0,0(sp)
 2077              		.cfi_offset 1, -8
 2078              		.cfi_offset 8, -16
 2079 0ba8 13040101 		addi	s0,sp,16
 2080              		.cfi_def_cfa 8, 0
 282:src/Tests.cpp ****     stressTesting();
 2081              		.loc 2 282 5
 282:src/Tests.cpp ****     stressTesting();
 2082              		.loc 2 282 18 is_stmt 0
 2083 0bac 97000000 		call	_Z13stressTestingv
 2083      E7800000 
 2084              	.LVL234:
GAS LISTING /tmp/cczxdMQq.s 			page 57


 283:src/Tests.cpp **** }
 2085              		.loc 2 283 1
 2086 0bb4 83308100 		ld	ra,8(sp)
 2087              		.cfi_restore 1
 2088 0bb8 03340100 		ld	s0,0(sp)
 2089              		.cfi_restore 8
 2090              		.cfi_def_cfa 2, 16
 2091 0bbc 13010101 		addi	sp,sp,16
 2092              		.cfi_def_cfa_offset 0
 2093 0bc0 67800000 		jr	ra
 2094              		.cfi_endproc
 2095              	.LFE36:
 2097              		.align	2
 2098              		.globl	_Z8semTest1v
 2100              	_Z8semTest1v:
 2101              	.LFB39:
 324:src/Tests.cpp **** {
 2102              		.loc 2 324 1 is_stmt 1
 2103              		.cfi_startproc
 2104              		.cfi_personality 0x9b,DW.ref.__gxx_personality_v0
 2105              		.cfi_lsda 0x1b,.LLSDA39
 2106 0bc4 130101FE 		addi	sp,sp,-32
 2107              		.cfi_def_cfa_offset 32
 2108 0bc8 233C1100 		sd	ra,24(sp)
 2109 0bcc 23388100 		sd	s0,16(sp)
 2110 0bd0 23349100 		sd	s1,8(sp)
 2111 0bd4 23302101 		sd	s2,0(sp)
 2112              		.cfi_offset 1, -8
 2113              		.cfi_offset 8, -16
 2114              		.cfi_offset 9, -24
 2115              		.cfi_offset 18, -32
 2116 0bd8 13040102 		addi	s0,sp,32
 2117              		.cfi_def_cfa 8, 0
 325:src/Tests.cpp ****     mutex = new Semaphore(1);
 2118              		.loc 2 325 5
 325:src/Tests.cpp ****     mutex = new Semaphore(1);
 2119              		.loc 2 325 28 is_stmt 0
 2120 0bdc 13050001 		li	a0,16
 2121              	.LEHB17:
 2122 0be0 97000000 		call	_Znwm@plt
 2122      E7800000 
 2123              	.LVL235:
 2124              	.LEHE17:
 2125 0be8 93040500 		mv	s1,a0
 2126 0bec 93051000 		li	a1,1
 2127              	.LEHB18:
 2128 0bf0 97000000 		call	_ZN9SemaphoreC1Ej@plt
 2128      E7800000 
 2129              	.LVL236:
 2130              	.LEHE18:
 325:src/Tests.cpp ****     mutex = new Semaphore(1);
 2131              		.loc 2 325 11 discriminator 2
 2132 0bf8 97070000 		sd	s1,.LANCHOR0,a5
 2132      23B09700 
 326:src/Tests.cpp ****     Thread* t1 = new Thread(&f1, 0);
 2133              		.loc 2 326 5 is_stmt 1 discriminator 2
 326:src/Tests.cpp ****     Thread* t1 = new Thread(&f1, 0);
GAS LISTING /tmp/cczxdMQq.s 			page 58


 2134              		.loc 2 326 35 is_stmt 0 discriminator 2
 2135 0c00 13050002 		li	a0,32
 2136              	.LEHB19:
 2137 0c04 97000000 		call	_Znwm@plt
 2137      E7800000 
 2138              	.LVL237:
 2139              	.LEHE19:
 2140 0c0c 13090500 		mv	s2,a0
 2141 0c10 13060000 		li	a2,0
 2142 0c14 97050000 		lla	a1,_Z2f1Pv
 2142      93850500 
 2143              	.LEHB20:
 2144 0c1c 97000000 		call	_ZN6ThreadC1EPFvPvES0_@plt
 2144      E7800000 
 2145              	.LVL238:
 2146              	.LEHE20:
 327:src/Tests.cpp ****     Thread* t2 = new Thread(&f2, 0);
 2147              		.loc 2 327 5 is_stmt 1 discriminator 2
 327:src/Tests.cpp ****     Thread* t2 = new Thread(&f2, 0);
 2148              		.loc 2 327 35 is_stmt 0 discriminator 2
 2149 0c24 13050002 		li	a0,32
 2150              	.LEHB21:
 2151 0c28 97000000 		call	_Znwm@plt
 2151      E7800000 
 2152              	.LVL239:
 2153              	.LEHE21:
 2154 0c30 93040500 		mv	s1,a0
 2155 0c34 13060000 		li	a2,0
 2156 0c38 97050000 		lla	a1,_Z2f2Pv
 2156      93850500 
 2157              	.LEHB22:
 2158 0c40 97000000 		call	_ZN6ThreadC1EPFvPvES0_@plt
 2158      E7800000 
 2159              	.LVL240:
 2160              	.LEHE22:
 328:src/Tests.cpp ****     t1->start();
 2161              		.loc 2 328 5 is_stmt 1 discriminator 2
 328:src/Tests.cpp ****     t1->start();
 2162              		.loc 2 328 14 is_stmt 0 discriminator 2
 2163 0c48 13050900 		mv	a0,s2
 2164              	.LEHB23:
 2165 0c4c 97000000 		call	_ZN6Thread5startEv@plt
 2165      E7800000 
 2166              	.LVL241:
 329:src/Tests.cpp ****     t2->start();
 2167              		.loc 2 329 5 is_stmt 1 discriminator 2
 329:src/Tests.cpp ****     t2->start();
 2168              		.loc 2 329 14 is_stmt 0 discriminator 2
 2169 0c54 13850400 		mv	a0,s1
 2170 0c58 97000000 		call	_ZN6Thread5startEv@plt
 2170      E7800000 
 2171              	.LVL242:
 331:src/Tests.cpp ****     int y = 0;
 2172              		.loc 2 331 5 is_stmt 1 discriminator 2
 331:src/Tests.cpp ****     int y = 0;
 2173              		.loc 2 331 9 is_stmt 0 discriminator 2
 2174 0c60 93040000 		li	s1,0
GAS LISTING /tmp/cczxdMQq.s 			page 59


 2175              	.LVL243:
 2176              	.L134:
 332:src/Tests.cpp ****     while(true)
 2177              		.loc 2 332 5 is_stmt 1
 334:src/Tests.cpp ****         y++;
 2178              		.loc 2 334 9
 334:src/Tests.cpp ****         y++;
 2179              		.loc 2 334 10 is_stmt 0
 2180 0c64 9B841400 		addiw	s1,s1,1
 2181              	.LVL244:
 335:src/Tests.cpp ****         thread_dispatch();
 2182              		.loc 2 335 9 is_stmt 1
 335:src/Tests.cpp ****         thread_dispatch();
 2183              		.loc 2 335 24 is_stmt 0
 2184 0c68 97000000 		call	thread_dispatch@plt
 2184      E7800000 
 2185              	.LVL245:
 2186              	.LEHE23:
 336:src/Tests.cpp ****         if(y == 200000)
 2187              		.loc 2 336 9 is_stmt 1
 2188 0c70 B7170300 		li	a5,200704
 2189 0c74 938707D4 		addi	a5,a5,-704
 2190 0c78 E396F4FE 		bne	s1,a5,.L134
 339:src/Tests.cpp **** }
 2191              		.loc 2 339 1 is_stmt 0
 2192 0c7c 83308101 		ld	ra,24(sp)
 2193              		.cfi_remember_state
 2194              		.cfi_restore 1
 2195 0c80 03340101 		ld	s0,16(sp)
 2196              		.cfi_restore 8
 2197              		.cfi_def_cfa 2, 32
 2198 0c84 83348100 		ld	s1,8(sp)
 2199              		.cfi_restore 9
 2200 0c88 03390100 		ld	s2,0(sp)
 2201              		.cfi_restore 18
 2202              	.LVL246:
 2203 0c8c 13010102 		addi	sp,sp,32
 2204              		.cfi_def_cfa_offset 0
 2205 0c90 67800000 		jr	ra
 2206              	.L138:
 2207              		.cfi_restore_state
 2208 0c94 13090500 		mv	s2,a0
 325:src/Tests.cpp ****     mutex = new Semaphore(1);
 2209              		.loc 2 325 28
 2210 0c98 13850400 		mv	a0,s1
 2211 0c9c 97000000 		call	_ZdlPv@plt
 2211      E7800000 
 2212              	.LVL247:
 2213 0ca4 13050900 		mv	a0,s2
 2214              	.LEHB24:
 2215 0ca8 97000000 		call	_Unwind_Resume@plt
 2215      E7800000 
 2216              	.LVL248:
 2217              	.LEHE24:
 2218              	.L139:
 2219 0cb0 93040500 		mv	s1,a0
 326:src/Tests.cpp ****     Thread* t1 = new Thread(&f1, 0);
GAS LISTING /tmp/cczxdMQq.s 			page 60


 2220              		.loc 2 326 35
 2221 0cb4 13050900 		mv	a0,s2
 2222 0cb8 97000000 		call	_ZdlPv@plt
 2222      E7800000 
 2223              	.LVL249:
 2224 0cc0 13850400 		mv	a0,s1
 2225              	.LEHB25:
 2226 0cc4 97000000 		call	_Unwind_Resume@plt
 2226      E7800000 
 2227              	.LVL250:
 2228              	.LEHE25:
 2229              	.L140:
 2230 0ccc 13090500 		mv	s2,a0
 2231              	.LVL251:
 327:src/Tests.cpp ****     Thread* t2 = new Thread(&f2, 0);
 2232              		.loc 2 327 35
 2233 0cd0 13850400 		mv	a0,s1
 2234 0cd4 97000000 		call	_ZdlPv@plt
 2234      E7800000 
 2235              	.LVL252:
 2236 0cdc 13050900 		mv	a0,s2
 2237              	.LEHB26:
 2238 0ce0 97000000 		call	_Unwind_Resume@plt
 2238      E7800000 
 2239              	.LVL253:
 2240              	.LEHE26:
 2241              		.cfi_endproc
 2242              	.LFE39:
 2243              		.section	.gcc_except_table
 2244              	.LLSDA39:
 2245 00e6 FF       		.byte	0xff
 2246 00e7 FF       		.byte	0xff
 2247 00e8 03       		.byte	0x3
 2248 00e9 8201     		.byte	0x82,0x1
 2249 00eb 00000000 		.4byte	.LEHB17-.LFB39
 2250 00ef 00000000 		.4byte	.LEHE17-.LEHB17
 2251 00f3 00000000 		.4byte	0
 2252 00f7 00       		.byte	0
 2253 00f8 00000000 		.4byte	.LEHB18-.LFB39
 2254 00fc 00000000 		.4byte	.LEHE18-.LEHB18
 2255 0100 00000000 		.4byte	.L138-.LFB39
 2256 0104 00       		.byte	0
 2257 0105 00000000 		.4byte	.LEHB19-.LFB39
 2258 0109 00000000 		.4byte	.LEHE19-.LEHB19
 2259 010d 00000000 		.4byte	0
 2260 0111 00       		.byte	0
 2261 0112 00000000 		.4byte	.LEHB20-.LFB39
 2262 0116 00000000 		.4byte	.LEHE20-.LEHB20
 2263 011a 00000000 		.4byte	.L139-.LFB39
 2264 011e 00       		.byte	0
 2265 011f 00000000 		.4byte	.LEHB21-.LFB39
 2266 0123 00000000 		.4byte	.LEHE21-.LEHB21
 2267 0127 00000000 		.4byte	0
 2268 012b 00       		.byte	0
 2269 012c 00000000 		.4byte	.LEHB22-.LFB39
 2270 0130 00000000 		.4byte	.LEHE22-.LEHB22
 2271 0134 00000000 		.4byte	.L140-.LFB39
GAS LISTING /tmp/cczxdMQq.s 			page 61


 2272 0138 00       		.byte	0
 2273 0139 00000000 		.4byte	.LEHB23-.LFB39
 2274 013d 00000000 		.4byte	.LEHE23-.LEHB23
 2275 0141 00000000 		.4byte	0
 2276 0145 00       		.byte	0
 2277 0146 00000000 		.4byte	.LEHB24-.LFB39
 2278 014a 00000000 		.4byte	.LEHE24-.LEHB24
 2279 014e 00000000 		.4byte	0
 2280 0152 00       		.byte	0
 2281 0153 00000000 		.4byte	.LEHB25-.LFB39
 2282 0157 00000000 		.4byte	.LEHE25-.LEHB25
 2283 015b 00000000 		.4byte	0
 2284 015f 00       		.byte	0
 2285 0160 00000000 		.4byte	.LEHB26-.LFB39
 2286 0164 00000000 		.4byte	.LEHE26-.LEHB26
 2287 0168 00000000 		.4byte	0
 2288 016c 00       		.byte	0
 2289              		.text
 2291              		.align	2
 2292              		.globl	_Z8semTest2v
 2294              	_Z8semTest2v:
 2295              	.LFB43:
 400:src/Tests.cpp **** {
 2296              		.loc 2 400 1 is_stmt 1
 2297              		.cfi_startproc
 2298              		.cfi_personality 0x9b,DW.ref.__gxx_personality_v0
 2299              		.cfi_lsda 0x1b,.LLSDA43
 2300 0ce8 130101FD 		addi	sp,sp,-48
 2301              		.cfi_def_cfa_offset 48
 2302 0cec 23341102 		sd	ra,40(sp)
 2303 0cf0 23308102 		sd	s0,32(sp)
 2304 0cf4 233C9100 		sd	s1,24(sp)
 2305 0cf8 23382101 		sd	s2,16(sp)
 2306 0cfc 23343101 		sd	s3,8(sp)
 2307              		.cfi_offset 1, -8
 2308              		.cfi_offset 8, -16
 2309              		.cfi_offset 9, -24
 2310              		.cfi_offset 18, -32
 2311              		.cfi_offset 19, -40
 2312 0d00 13040103 		addi	s0,sp,48
 2313              		.cfi_def_cfa 8, 0
 401:src/Tests.cpp ****     s1 = new Semaphore(1);
 2314              		.loc 2 401 5
 401:src/Tests.cpp ****     s1 = new Semaphore(1);
 2315              		.loc 2 401 25 is_stmt 0
 2316 0d04 13050001 		li	a0,16
 2317              	.LEHB27:
 2318 0d08 97000000 		call	_Znwm@plt
 2318      E7800000 
 2319              	.LVL254:
 2320              	.LEHE27:
 2321 0d10 93040500 		mv	s1,a0
 2322 0d14 93051000 		li	a1,1
 2323              	.LEHB28:
 2324 0d18 97000000 		call	_ZN9SemaphoreC1Ej@plt
 2324      E7800000 
 2325              	.LVL255:
GAS LISTING /tmp/cczxdMQq.s 			page 62


 2326              	.LEHE28:
 401:src/Tests.cpp ****     s1 = new Semaphore(1);
 2327              		.loc 2 401 8 discriminator 2
 2328 0d20 97070000 		sd	s1,.LANCHOR0+8,a5
 2328      23B09700 
 402:src/Tests.cpp ****     s2 = new Semaphore(0);
 2329              		.loc 2 402 5 is_stmt 1 discriminator 2
 402:src/Tests.cpp ****     s2 = new Semaphore(0);
 2330              		.loc 2 402 25 is_stmt 0 discriminator 2
 2331 0d28 13050001 		li	a0,16
 2332              	.LEHB29:
 2333 0d2c 97000000 		call	_Znwm@plt
 2333      E7800000 
 2334              	.LVL256:
 2335              	.LEHE29:
 2336 0d34 93040500 		mv	s1,a0
 2337 0d38 93050000 		li	a1,0
 2338              	.LEHB30:
 2339 0d3c 97000000 		call	_ZN9SemaphoreC1Ej@plt
 2339      E7800000 
 2340              	.LVL257:
 2341              	.LEHE30:
 402:src/Tests.cpp ****     s2 = new Semaphore(0);
 2342              		.loc 2 402 8 discriminator 2
 2343 0d44 97070000 		sd	s1,.LANCHOR0+16,a5
 2343      23B09700 
 403:src/Tests.cpp ****     s3 = new Semaphore(0);
 2344              		.loc 2 403 5 is_stmt 1 discriminator 2
 403:src/Tests.cpp ****     s3 = new Semaphore(0);
 2345              		.loc 2 403 25 is_stmt 0 discriminator 2
 2346 0d4c 13050001 		li	a0,16
 2347              	.LEHB31:
 2348 0d50 97000000 		call	_Znwm@plt
 2348      E7800000 
 2349              	.LVL258:
 2350              	.LEHE31:
 2351 0d58 93040500 		mv	s1,a0
 2352 0d5c 93050000 		li	a1,0
 2353              	.LEHB32:
 2354 0d60 97000000 		call	_ZN9SemaphoreC1Ej@plt
 2354      E7800000 
 2355              	.LVL259:
 2356              	.LEHE32:
 403:src/Tests.cpp ****     s3 = new Semaphore(0);
 2357              		.loc 2 403 8 discriminator 2
 2358 0d68 97070000 		sd	s1,.LANCHOR0+24,a5
 2358      23B09700 
 404:src/Tests.cpp ****     Thread* t1 = new Thread(&f1_2, 0);
 2359              		.loc 2 404 5 is_stmt 1 discriminator 2
 404:src/Tests.cpp ****     Thread* t1 = new Thread(&f1_2, 0);
 2360              		.loc 2 404 37 is_stmt 0 discriminator 2
 2361 0d70 13050002 		li	a0,32
 2362              	.LEHB33:
 2363 0d74 97000000 		call	_Znwm@plt
 2363      E7800000 
 2364              	.LVL260:
 2365              	.LEHE33:
GAS LISTING /tmp/cczxdMQq.s 			page 63


 2366 0d7c 93090500 		mv	s3,a0
 2367 0d80 13060000 		li	a2,0
 2368 0d84 97050000 		lla	a1,_Z4f1_2Pv
 2368      93850500 
 2369              	.LEHB34:
 2370 0d8c 97000000 		call	_ZN6ThreadC1EPFvPvES0_@plt
 2370      E7800000 
 2371              	.LVL261:
 2372              	.LEHE34:
 405:src/Tests.cpp ****     Thread* t2 = new Thread(&f2_2, 0);
 2373              		.loc 2 405 5 is_stmt 1 discriminator 2
 405:src/Tests.cpp ****     Thread* t2 = new Thread(&f2_2, 0);
 2374              		.loc 2 405 37 is_stmt 0 discriminator 2
 2375 0d94 13050002 		li	a0,32
 2376              	.LEHB35:
 2377 0d98 97000000 		call	_Znwm@plt
 2377      E7800000 
 2378              	.LVL262:
 2379              	.LEHE35:
 2380 0da0 13090500 		mv	s2,a0
 2381 0da4 13060000 		li	a2,0
 2382 0da8 97050000 		lla	a1,_Z4f2_2Pv
 2382      93850500 
 2383              	.LEHB36:
 2384 0db0 97000000 		call	_ZN6ThreadC1EPFvPvES0_@plt
 2384      E7800000 
 2385              	.LVL263:
 2386              	.LEHE36:
 406:src/Tests.cpp ****     Thread* t3 = new Thread(&f3_2, 0);
 2387              		.loc 2 406 5 is_stmt 1 discriminator 2
 406:src/Tests.cpp ****     Thread* t3 = new Thread(&f3_2, 0);
 2388              		.loc 2 406 37 is_stmt 0 discriminator 2
 2389 0db8 13050002 		li	a0,32
 2390              	.LEHB37:
 2391 0dbc 97000000 		call	_Znwm@plt
 2391      E7800000 
 2392              	.LVL264:
 2393              	.LEHE37:
 2394 0dc4 93040500 		mv	s1,a0
 2395 0dc8 13060000 		li	a2,0
 2396 0dcc 97050000 		lla	a1,_Z4f3_2Pv
 2396      93850500 
 2397              	.LEHB38:
 2398 0dd4 97000000 		call	_ZN6ThreadC1EPFvPvES0_@plt
 2398      E7800000 
 2399              	.LVL265:
 2400              	.LEHE38:
 407:src/Tests.cpp ****     t3->start();
 2401              		.loc 2 407 5 is_stmt 1 discriminator 2
 407:src/Tests.cpp ****     t3->start();
 2402              		.loc 2 407 14 is_stmt 0 discriminator 2
 2403 0ddc 13850400 		mv	a0,s1
 2404              	.LEHB39:
 2405 0de0 97000000 		call	_ZN6Thread5startEv@plt
 2405      E7800000 
 2406              	.LVL266:
 408:src/Tests.cpp ****     t2->start();
GAS LISTING /tmp/cczxdMQq.s 			page 64


 2407              		.loc 2 408 5 is_stmt 1 discriminator 2
 408:src/Tests.cpp ****     t2->start();
 2408              		.loc 2 408 14 is_stmt 0 discriminator 2
 2409 0de8 13050900 		mv	a0,s2
 2410 0dec 97000000 		call	_ZN6Thread5startEv@plt
 2410      E7800000 
 2411              	.LVL267:
 409:src/Tests.cpp ****     t1->start();
 2412              		.loc 2 409 5 is_stmt 1 discriminator 2
 409:src/Tests.cpp ****     t1->start();
 2413              		.loc 2 409 14 is_stmt 0 discriminator 2
 2414 0df4 13850900 		mv	a0,s3
 2415 0df8 97000000 		call	_ZN6Thread5startEv@plt
 2415      E7800000 
 2416              	.LVL268:
 411:src/Tests.cpp ****     int y = 0;
 2417              		.loc 2 411 5 is_stmt 1 discriminator 2
 411:src/Tests.cpp ****     int y = 0;
 2418              		.loc 2 411 9 is_stmt 0 discriminator 2
 2419 0e00 93040000 		li	s1,0
 2420              	.LVL269:
 2421              	.L144:
 412:src/Tests.cpp ****     while(true)
 2422              		.loc 2 412 5 is_stmt 1
 414:src/Tests.cpp ****         y++;
 2423              		.loc 2 414 9
 414:src/Tests.cpp ****         y++;
 2424              		.loc 2 414 10 is_stmt 0
 2425 0e04 9B841400 		addiw	s1,s1,1
 2426              	.LVL270:
 415:src/Tests.cpp ****         thread_dispatch();
 2427              		.loc 2 415 9 is_stmt 1
 415:src/Tests.cpp ****         thread_dispatch();
 2428              		.loc 2 415 24 is_stmt 0
 2429 0e08 97000000 		call	thread_dispatch@plt
 2429      E7800000 
 2430              	.LVL271:
 2431              	.LEHE39:
 416:src/Tests.cpp ****         if(y == 200000)
 2432              		.loc 2 416 9 is_stmt 1
 2433 0e10 B7170300 		li	a5,200704
 2434 0e14 938707D4 		addi	a5,a5,-704
 2435 0e18 E396F4FE 		bne	s1,a5,.L144
 420:src/Tests.cpp **** }
 2436              		.loc 2 420 1 is_stmt 0
 2437 0e1c 83308102 		ld	ra,40(sp)
 2438              		.cfi_remember_state
 2439              		.cfi_restore 1
 2440 0e20 03340102 		ld	s0,32(sp)
 2441              		.cfi_restore 8
 2442              		.cfi_def_cfa 2, 48
 2443 0e24 83348101 		ld	s1,24(sp)
 2444              		.cfi_restore 9
 2445 0e28 03390101 		ld	s2,16(sp)
 2446              		.cfi_restore 18
 2447              	.LVL272:
 2448 0e2c 83398100 		ld	s3,8(sp)
GAS LISTING /tmp/cczxdMQq.s 			page 65


 2449              		.cfi_restore 19
 2450              	.LVL273:
 2451 0e30 13010103 		addi	sp,sp,48
 2452              		.cfi_def_cfa_offset 0
 2453 0e34 67800000 		jr	ra
 2454              	.L151:
 2455              		.cfi_restore_state
 2456 0e38 13090500 		mv	s2,a0
 401:src/Tests.cpp ****     s1 = new Semaphore(1);
 2457              		.loc 2 401 25
 2458 0e3c 13850400 		mv	a0,s1
 2459 0e40 97000000 		call	_ZdlPv@plt
 2459      E7800000 
 2460              	.LVL274:
 2461 0e48 13050900 		mv	a0,s2
 2462              	.LEHB40:
 2463 0e4c 97000000 		call	_Unwind_Resume@plt
 2463      E7800000 
 2464              	.LVL275:
 2465              	.LEHE40:
 2466              	.L152:
 2467 0e54 13090500 		mv	s2,a0
 402:src/Tests.cpp ****     s2 = new Semaphore(0);
 2468              		.loc 2 402 25
 2469 0e58 13850400 		mv	a0,s1
 2470 0e5c 97000000 		call	_ZdlPv@plt
 2470      E7800000 
 2471              	.LVL276:
 2472 0e64 13050900 		mv	a0,s2
 2473              	.LEHB41:
 2474 0e68 97000000 		call	_Unwind_Resume@plt
 2474      E7800000 
 2475              	.LVL277:
 2476              	.LEHE41:
 2477              	.L153:
 2478 0e70 13090500 		mv	s2,a0
 403:src/Tests.cpp ****     s3 = new Semaphore(0);
 2479              		.loc 2 403 25
 2480 0e74 13850400 		mv	a0,s1
 2481 0e78 97000000 		call	_ZdlPv@plt
 2481      E7800000 
 2482              	.LVL278:
 2483 0e80 13050900 		mv	a0,s2
 2484              	.LEHB42:
 2485 0e84 97000000 		call	_Unwind_Resume@plt
 2485      E7800000 
 2486              	.LVL279:
 2487              	.LEHE42:
 2488              	.L154:
 2489 0e8c 93040500 		mv	s1,a0
 404:src/Tests.cpp ****     Thread* t1 = new Thread(&f1_2, 0);
 2490              		.loc 2 404 37
 2491 0e90 13850900 		mv	a0,s3
 2492 0e94 97000000 		call	_ZdlPv@plt
 2492      E7800000 
 2493              	.LVL280:
 2494 0e9c 13850400 		mv	a0,s1
GAS LISTING /tmp/cczxdMQq.s 			page 66


 2495              	.LEHB43:
 2496 0ea0 97000000 		call	_Unwind_Resume@plt
 2496      E7800000 
 2497              	.LVL281:
 2498              	.LEHE43:
 2499              	.L155:
 2500 0ea8 93040500 		mv	s1,a0
 405:src/Tests.cpp ****     Thread* t2 = new Thread(&f2_2, 0);
 2501              		.loc 2 405 37
 2502 0eac 13050900 		mv	a0,s2
 2503 0eb0 97000000 		call	_ZdlPv@plt
 2503      E7800000 
 2504              	.LVL282:
 2505 0eb8 13850400 		mv	a0,s1
 2506              	.LEHB44:
 2507 0ebc 97000000 		call	_Unwind_Resume@plt
 2507      E7800000 
 2508              	.LVL283:
 2509              	.LEHE44:
 2510              	.L156:
 2511 0ec4 13090500 		mv	s2,a0
 2512              	.LVL284:
 406:src/Tests.cpp ****     Thread* t3 = new Thread(&f3_2, 0);
 2513              		.loc 2 406 37
 2514 0ec8 13850400 		mv	a0,s1
 2515 0ecc 97000000 		call	_ZdlPv@plt
 2515      E7800000 
 2516              	.LVL285:
 2517 0ed4 13050900 		mv	a0,s2
 2518              	.LEHB45:
 2519 0ed8 97000000 		call	_Unwind_Resume@plt
 2519      E7800000 
 2520              	.LVL286:
 2521              	.LEHE45:
 2522              		.cfi_endproc
 2523              	.LFE43:
 2524              		.section	.gcc_except_table
 2525              	.LLSDA43:
 2526 016d FF       		.byte	0xff
 2527 016e FF       		.byte	0xff
 2528 016f 03       		.byte	0x3
 2529 0170 F701     		.byte	0xf7,0x1
 2530 0172 00000000 		.4byte	.LEHB27-.LFB43
 2531 0176 00000000 		.4byte	.LEHE27-.LEHB27
 2532 017a 00000000 		.4byte	0
 2533 017e 00       		.byte	0
 2534 017f 00000000 		.4byte	.LEHB28-.LFB43
 2535 0183 00000000 		.4byte	.LEHE28-.LEHB28
 2536 0187 00000000 		.4byte	.L151-.LFB43
 2537 018b 00       		.byte	0
 2538 018c 00000000 		.4byte	.LEHB29-.LFB43
 2539 0190 00000000 		.4byte	.LEHE29-.LEHB29
 2540 0194 00000000 		.4byte	0
 2541 0198 00       		.byte	0
 2542 0199 00000000 		.4byte	.LEHB30-.LFB43
 2543 019d 00000000 		.4byte	.LEHE30-.LEHB30
 2544 01a1 00000000 		.4byte	.L152-.LFB43
GAS LISTING /tmp/cczxdMQq.s 			page 67


 2545 01a5 00       		.byte	0
 2546 01a6 00000000 		.4byte	.LEHB31-.LFB43
 2547 01aa 00000000 		.4byte	.LEHE31-.LEHB31
 2548 01ae 00000000 		.4byte	0
 2549 01b2 00       		.byte	0
 2550 01b3 00000000 		.4byte	.LEHB32-.LFB43
 2551 01b7 00000000 		.4byte	.LEHE32-.LEHB32
 2552 01bb 00000000 		.4byte	.L153-.LFB43
 2553 01bf 00       		.byte	0
 2554 01c0 00000000 		.4byte	.LEHB33-.LFB43
 2555 01c4 00000000 		.4byte	.LEHE33-.LEHB33
 2556 01c8 00000000 		.4byte	0
 2557 01cc 00       		.byte	0
 2558 01cd 00000000 		.4byte	.LEHB34-.LFB43
 2559 01d1 00000000 		.4byte	.LEHE34-.LEHB34
 2560 01d5 00000000 		.4byte	.L154-.LFB43
 2561 01d9 00       		.byte	0
 2562 01da 00000000 		.4byte	.LEHB35-.LFB43
 2563 01de 00000000 		.4byte	.LEHE35-.LEHB35
 2564 01e2 00000000 		.4byte	0
 2565 01e6 00       		.byte	0
 2566 01e7 00000000 		.4byte	.LEHB36-.LFB43
 2567 01eb 00000000 		.4byte	.LEHE36-.LEHB36
 2568 01ef 00000000 		.4byte	.L155-.LFB43
 2569 01f3 00       		.byte	0
 2570 01f4 00000000 		.4byte	.LEHB37-.LFB43
 2571 01f8 00000000 		.4byte	.LEHE37-.LEHB37
 2572 01fc 00000000 		.4byte	0
 2573 0200 00       		.byte	0
 2574 0201 00000000 		.4byte	.LEHB38-.LFB43
 2575 0205 00000000 		.4byte	.LEHE38-.LEHB38
 2576 0209 00000000 		.4byte	.L156-.LFB43
 2577 020d 00       		.byte	0
 2578 020e 00000000 		.4byte	.LEHB39-.LFB43
 2579 0212 00000000 		.4byte	.LEHE39-.LEHB39
 2580 0216 00000000 		.4byte	0
 2581 021a 00       		.byte	0
 2582 021b 00000000 		.4byte	.LEHB40-.LFB43
 2583 021f 00000000 		.4byte	.LEHE40-.LEHB40
 2584 0223 00000000 		.4byte	0
 2585 0227 00       		.byte	0
 2586 0228 00000000 		.4byte	.LEHB41-.LFB43
 2587 022c 00000000 		.4byte	.LEHE41-.LEHB41
 2588 0230 00000000 		.4byte	0
 2589 0234 00       		.byte	0
 2590 0235 00000000 		.4byte	.LEHB42-.LFB43
 2591 0239 00000000 		.4byte	.LEHE42-.LEHB42
 2592 023d 00000000 		.4byte	0
 2593 0241 00       		.byte	0
 2594 0242 00000000 		.4byte	.LEHB43-.LFB43
 2595 0246 00000000 		.4byte	.LEHE43-.LEHB43
 2596 024a 00000000 		.4byte	0
 2597 024e 00       		.byte	0
 2598 024f 00000000 		.4byte	.LEHB44-.LFB43
 2599 0253 00000000 		.4byte	.LEHE44-.LEHB44
 2600 0257 00000000 		.4byte	0
 2601 025b 00       		.byte	0
GAS LISTING /tmp/cczxdMQq.s 			page 68


 2602 025c 00000000 		.4byte	.LEHB45-.LFB43
 2603 0260 00000000 		.4byte	.LEHE45-.LEHB45
 2604 0264 00000000 		.4byte	0
 2605 0268 00       		.byte	0
 2606              		.text
 2608              		.align	2
 2609              		.globl	_Z14semaphoreTestsv
 2611              	_Z14semaphoreTestsv:
 2612              	.LFB44:
 423:src/Tests.cpp **** {
 2613              		.loc 2 423 1 is_stmt 1
 2614              		.cfi_startproc
 2615 0ee0 130101FF 		addi	sp,sp,-16
 2616              		.cfi_def_cfa_offset 16
 2617 0ee4 23341100 		sd	ra,8(sp)
 2618 0ee8 23308100 		sd	s0,0(sp)
 2619              		.cfi_offset 1, -8
 2620              		.cfi_offset 8, -16
 2621 0eec 13040101 		addi	s0,sp,16
 2622              		.cfi_def_cfa 8, 0
 425:src/Tests.cpp ****     semTest2();
 2623              		.loc 2 425 5
 425:src/Tests.cpp ****     semTest2();
 2624              		.loc 2 425 13 is_stmt 0
 2625 0ef0 97000000 		call	_Z8semTest2v
 2625      E7800000 
 2626              	.LVL287:
 426:src/Tests.cpp **** }
 2627              		.loc 2 426 1
 2628 0ef8 83308100 		ld	ra,8(sp)
 2629              		.cfi_restore 1
 2630 0efc 03340100 		ld	s0,0(sp)
 2631              		.cfi_restore 8
 2632              		.cfi_def_cfa 2, 16
 2633 0f00 13010101 		addi	sp,sp,16
 2634              		.cfi_def_cfa_offset 0
 2635 0f04 67800000 		jr	ra
 2636              		.cfi_endproc
 2637              	.LFE44:
 2639              		.align	2
 2640              		.globl	_ZN12TestPeriodicC2Em
 2642              	_ZN12TestPeriodicC2Em:
 2643              	.LFB51:
 436:src/Tests.cpp **** TestPeriodic::TestPeriodic(time_t time) : PeriodicThread(time) {
 2644              		.loc 2 436 1 is_stmt 1
 2645              		.cfi_startproc
 2646              	.LVL288:
 2647 0f08 130101FE 		addi	sp,sp,-32
 2648              		.cfi_def_cfa_offset 32
 2649 0f0c 233C1100 		sd	ra,24(sp)
 2650 0f10 23388100 		sd	s0,16(sp)
 2651 0f14 23349100 		sd	s1,8(sp)
 2652              		.cfi_offset 1, -8
 2653              		.cfi_offset 8, -16
 2654              		.cfi_offset 9, -24
 2655 0f18 13040102 		addi	s0,sp,32
 2656              		.cfi_def_cfa 8, 0
GAS LISTING /tmp/cczxdMQq.s 			page 69


 2657 0f1c 93040500 		mv	s1,a0
 2658              	.LBB56:
 436:src/Tests.cpp **** TestPeriodic::TestPeriodic(time_t time) : PeriodicThread(time) {
 2659              		.loc 2 436 62 is_stmt 0
 2660 0f20 97000000 		call	_ZN14PeriodicThreadC2Em@plt
 2660      E7800000 
 2661              	.LVL289:
 2662 0f28 97070000 		lla	a5,_ZTV12TestPeriodic+16
 2662      93870700 
 2663 0f30 23B0F400 		sd	a5,0(s1)
 2664              	.LBE56:
 438:src/Tests.cpp **** }
 2665              		.loc 2 438 1
 2666 0f34 83308101 		ld	ra,24(sp)
 2667              		.cfi_restore 1
 2668 0f38 03340101 		ld	s0,16(sp)
 2669              		.cfi_restore 8
 2670              		.cfi_def_cfa 2, 32
 2671 0f3c 83348100 		ld	s1,8(sp)
 2672              		.cfi_restore 9
 2673              	.LVL290:
 2674 0f40 13010102 		addi	sp,sp,32
 2675              		.cfi_def_cfa_offset 0
 2676 0f44 67800000 		jr	ra
 2677              		.cfi_endproc
 2678              	.LFE51:
 2680              		.globl	_ZN12TestPeriodicC1Em
 2681              		.set	_ZN12TestPeriodicC1Em,_ZN12TestPeriodicC2Em
 2682              		.align	2
 2683              		.globl	_Z11threadTest3v
 2685              	_Z11threadTest3v:
 2686              	.LFB29:
  98:src/Tests.cpp **** {
 2687              		.loc 2 98 1 is_stmt 1
 2688              		.cfi_startproc
 2689              		.cfi_personality 0x9b,DW.ref.__gxx_personality_v0
 2690              		.cfi_lsda 0x1b,.LLSDA29
 2691 0f48 130101FE 		addi	sp,sp,-32
 2692              		.cfi_def_cfa_offset 32
 2693 0f4c 233C1100 		sd	ra,24(sp)
 2694 0f50 23388100 		sd	s0,16(sp)
 2695 0f54 23349100 		sd	s1,8(sp)
 2696 0f58 23302101 		sd	s2,0(sp)
 2697              		.cfi_offset 1, -8
 2698              		.cfi_offset 8, -16
 2699              		.cfi_offset 9, -24
 2700              		.cfi_offset 18, -32
 2701 0f5c 13040102 		addi	s0,sp,32
 2702              		.cfi_def_cfa 8, 0
  99:src/Tests.cpp ****     Thread* t = new TestPeriodic(50);
 2703              		.loc 2 99 5
  99:src/Tests.cpp ****     Thread* t = new TestPeriodic(50);
 2704              		.loc 2 99 36 is_stmt 0
 2705 0f60 13058002 		li	a0,40
 2706              	.LEHB46:
 2707 0f64 97000000 		call	_Znwm@plt
 2707      E7800000 
GAS LISTING /tmp/cczxdMQq.s 			page 70


 2708              	.LVL291:
 2709              	.LEHE46:
 2710 0f6c 13090500 		mv	s2,a0
 2711 0f70 93052003 		li	a1,50
 2712              	.LEHB47:
 2713 0f74 97000000 		call	_ZN12TestPeriodicC1Em
 2713      E7800000 
 2714              	.LVL292:
 2715              	.LEHE47:
 100:src/Tests.cpp ****     t->start();
 2716              		.loc 2 100 5 is_stmt 1 discriminator 2
 100:src/Tests.cpp ****     t->start();
 2717              		.loc 2 100 13 is_stmt 0 discriminator 2
 2718 0f7c 13050900 		mv	a0,s2
 2719              	.LEHB48:
 2720 0f80 97000000 		call	_ZN6Thread5startEv@plt
 2720      E7800000 
 2721              	.LVL293:
 2722              	.LEHE48:
 2723              	.L164:
 101:src/Tests.cpp ****     while(true)
 2724              		.loc 2 101 5 is_stmt 1 discriminator 1
 101:src/Tests.cpp ****     while(true)
 2725              		.loc 2 101 5 discriminator 1
 2726 0f88 6F000000 		j	.L164
 2727              	.LVL294:
 2728              	.L166:
 2729 0f8c 93040500 		mv	s1,a0
  99:src/Tests.cpp ****     Thread* t = new TestPeriodic(50);
 2730              		.loc 2 99 36 is_stmt 0
 2731 0f90 13050900 		mv	a0,s2
 2732 0f94 97000000 		call	_ZdlPv@plt
 2732      E7800000 
 2733              	.LVL295:
 2734 0f9c 13850400 		mv	a0,s1
 2735              	.LEHB49:
 2736 0fa0 97000000 		call	_Unwind_Resume@plt
 2736      E7800000 
 2737              	.LVL296:
 2738              	.LEHE49:
 2739              		.cfi_endproc
 2740              	.LFE29:
 2741              		.section	.gcc_except_table
 2742              	.LLSDA29:
 2743 0269 FF       		.byte	0xff
 2744 026a FF       		.byte	0xff
 2745 026b 03       		.byte	0x3
 2746 026c 34       		.byte	0x34
 2747 026d 00000000 		.4byte	.LEHB46-.LFB29
 2748 0271 00000000 		.4byte	.LEHE46-.LEHB46
 2749 0275 00000000 		.4byte	0
 2750 0279 00       		.byte	0
 2751 027a 00000000 		.4byte	.LEHB47-.LFB29
 2752 027e 00000000 		.4byte	.LEHE47-.LEHB47
 2753 0282 00000000 		.4byte	.L166-.LFB29
 2754 0286 00       		.byte	0
 2755 0287 00000000 		.4byte	.LEHB48-.LFB29
GAS LISTING /tmp/cczxdMQq.s 			page 71


 2756 028b 00000000 		.4byte	.LEHE48-.LEHB48
 2757 028f 00000000 		.4byte	0
 2758 0293 00       		.byte	0
 2759 0294 00000000 		.4byte	.LEHB49-.LFB29
 2760 0298 00000000 		.4byte	.LEHE49-.LEHB49
 2761 029c 00000000 		.4byte	0
 2762 02a0 00       		.byte	0
 2763              		.text
 2765              		.align	2
 2766              		.globl	_Z11threadTestsv
 2768              	_Z11threadTestsv:
 2769              	.LFB30:
 108:src/Tests.cpp **** {
 2770              		.loc 2 108 1 is_stmt 1
 2771              		.cfi_startproc
 2772 0fa8 130101FF 		addi	sp,sp,-16
 2773              		.cfi_def_cfa_offset 16
 2774 0fac 23341100 		sd	ra,8(sp)
 2775 0fb0 23308100 		sd	s0,0(sp)
 2776              		.cfi_offset 1, -8
 2777              		.cfi_offset 8, -16
 2778 0fb4 13040101 		addi	s0,sp,16
 2779              		.cfi_def_cfa 8, 0
 111:src/Tests.cpp ****     threadTest3();
 2780              		.loc 2 111 5
 111:src/Tests.cpp ****     threadTest3();
 2781              		.loc 2 111 16 is_stmt 0
 2782 0fb8 97000000 		call	_Z11threadTest3v
 2782      E7800000 
 2783              	.LVL297:
 2784              		.cfi_endproc
 2785              	.LFE30:
 2787              		.align	2
 2788              		.globl	_Z7myTestsv
 2790              	_Z7myTestsv:
 2791              	.LFB45:
 429:src/Tests.cpp **** {
 2792              		.loc 2 429 1 is_stmt 1
 2793              		.cfi_startproc
 2794 0fc0 130101FF 		addi	sp,sp,-16
 2795              		.cfi_def_cfa_offset 16
 2796 0fc4 23341100 		sd	ra,8(sp)
 2797 0fc8 23308100 		sd	s0,0(sp)
 2798              		.cfi_offset 1, -8
 2799              		.cfi_offset 8, -16
 2800 0fcc 13040101 		addi	s0,sp,16
 2801              		.cfi_def_cfa 8, 0
 431:src/Tests.cpp ****     threadTests();
 2802              		.loc 2 431 5
 431:src/Tests.cpp ****     threadTests();
 2803              		.loc 2 431 16 is_stmt 0
 2804 0fd0 97000000 		call	_Z11threadTestsv
 2804      E7800000 
 2805              	.LVL298:
 2806              		.cfi_endproc
 2807              	.LFE45:
 2809              		.weak	_ZTV14PeriodicThread
GAS LISTING /tmp/cczxdMQq.s 			page 72


 2810              		.section	.data.rel.ro.local._ZTV14PeriodicThread,"awG",@progbits,_ZTV14PeriodicThread,comdat
 2811              		.align	3
 2814              	_ZTV14PeriodicThread:
 2815 0000 00000000 		.dword	0
 2815      00000000 
 2816 0008 00000000 		.dword	0
 2816      00000000 
 2817 0010 00000000 		.dword	_ZN14PeriodicThreadD1Ev
 2817      00000000 
 2818 0018 00000000 		.dword	_ZN14PeriodicThreadD0Ev
 2818      00000000 
 2819 0020 00000000 		.dword	_ZN6Thread3runEv
 2819      00000000 
 2820 0028 00000000 		.dword	_ZN14PeriodicThread18periodicActivationEv
 2820      00000000 
 2821              		.weak	_ZTV12TestPeriodic
 2822              		.section	.data.rel.ro.local._ZTV12TestPeriodic,"awG",@progbits,_ZTV12TestPeriodic,comdat
 2823              		.align	3
 2826              	_ZTV12TestPeriodic:
 2827 0000 00000000 		.dword	0
 2827      00000000 
 2828 0008 00000000 		.dword	0
 2828      00000000 
 2829 0010 00000000 		.dword	_ZN12TestPeriodicD1Ev
 2829      00000000 
 2830 0018 00000000 		.dword	_ZN12TestPeriodicD0Ev
 2830      00000000 
 2831 0020 00000000 		.dword	_ZN6Thread3runEv
 2831      00000000 
 2832 0028 00000000 		.dword	_ZN12TestPeriodic18periodicActivationEv
 2832      00000000 
 2833              		.bss
 2834              		.align	3
 2835              		.set	.LANCHOR0,. + 0
 2838              	_ZL5mutex:
 2839 0000 00000000 		.zero	8
 2839      00000000 
 2842              	_ZL2s1:
 2843 0008 00000000 		.zero	8
 2843      00000000 
 2846              	_ZL2s2:
 2847 0010 00000000 		.zero	8
 2847      00000000 
 2850              	_ZL2s3:
 2851 0018 00000000 		.zero	8
 2851      00000000 
 2852              		.text
 2853              	.Letext0:
 2854              		.file 5 "src/../h/../lib/hw.h"
 2855              		.file 6 "src/../h/Riscv.hpp"
 2856              		.file 7 "src/../h/syscall_c.h"
 2857              		.file 8 "src/../lib/console.h"
 9577              		.align	3
 9580              	DW.ref.__gxx_personality_v0:
 9581 0000 00000000 		.dword	__gxx_personality_v0
 9581      00000000 
 9582              		.ident	"GCC: (Ubuntu 9.3.0-17ubuntu1~20.04) 9.3.0"
GAS LISTING /tmp/cczxdMQq.s 			page 73


 9583              		.section	.note.GNU-stack,"",@progbits
GAS LISTING /tmp/cczxdMQq.s 			page 74


DEFINED SYMBOLS
                            *ABS*:0000000000000000 Tests.cpp
     /tmp/cczxdMQq.s:10     .text._ZN6Thread3runEv:0000000000000000 _ZN6Thread3runEv
     /tmp/cczxdMQq.s:14     .text._ZN6Thread3runEv:0000000000000000 .L0 
     /tmp/cczxdMQq.s:16     .text._ZN6Thread3runEv:0000000000000000 .L0 
     /tmp/cczxdMQq.s:17     .text._ZN6Thread3runEv:0000000000000004 .L0 
     /tmp/cczxdMQq.s:19     .text._ZN6Thread3runEv:0000000000000008 .L0 
     /tmp/cczxdMQq.s:21     .text._ZN6Thread3runEv:000000000000000c .L0 
     /tmp/cczxdMQq.s:23     .text._ZN6Thread3runEv:000000000000000c .L0 
     /tmp/cczxdMQq.s:24     .text._ZN6Thread3runEv:0000000000000010 .L0 
     /tmp/cczxdMQq.s:25     .text._ZN6Thread3runEv:0000000000000010 .L0 
     /tmp/cczxdMQq.s:27     .text._ZN6Thread3runEv:0000000000000014 .L0 
     /tmp/cczxdMQq.s:29     .text._ZN6Thread3runEv:0000000000000018 .L0 
     /tmp/cczxdMQq.s:36     .text._ZN14PeriodicThread18periodicActivationEv:0000000000000000 _ZN14PeriodicThread18periodicActivationEv
     /tmp/cczxdMQq.s:39     .text._ZN14PeriodicThread18periodicActivationEv:0000000000000000 .L0 
     /tmp/cczxdMQq.s:41     .text._ZN14PeriodicThread18periodicActivationEv:0000000000000000 .L0 
     /tmp/cczxdMQq.s:42     .text._ZN14PeriodicThread18periodicActivationEv:0000000000000004 .L0 
     /tmp/cczxdMQq.s:44     .text._ZN14PeriodicThread18periodicActivationEv:0000000000000008 .L0 
     /tmp/cczxdMQq.s:46     .text._ZN14PeriodicThread18periodicActivationEv:000000000000000c .L0 
     /tmp/cczxdMQq.s:48     .text._ZN14PeriodicThread18periodicActivationEv:000000000000000c .L0 
     /tmp/cczxdMQq.s:49     .text._ZN14PeriodicThread18periodicActivationEv:0000000000000010 .L0 
     /tmp/cczxdMQq.s:50     .text._ZN14PeriodicThread18periodicActivationEv:0000000000000010 .L0 
     /tmp/cczxdMQq.s:52     .text._ZN14PeriodicThread18periodicActivationEv:0000000000000014 .L0 
     /tmp/cczxdMQq.s:54     .text._ZN14PeriodicThread18periodicActivationEv:0000000000000018 .L0 
     /tmp/cczxdMQq.s:65     .text:0000000000000000 _Z4idlePv
     /tmp/cczxdMQq.s:69     .text:0000000000000000 .L0 
     /tmp/cczxdMQq.s:71     .text:0000000000000000 .L0 
     /tmp/cczxdMQq.s:72     .text:0000000000000004 .L0 
     /tmp/cczxdMQq.s:75     .text:000000000000000c .L0 
     /tmp/cczxdMQq.s:76     .text:000000000000000c .L0 
     /tmp/cczxdMQq.s:78     .text:0000000000000010 .L0 
     /tmp/cczxdMQq.s:82     .text:0000000000000010 .L0 
     /tmp/cczxdMQq.s:83     .text:0000000000000010 .L0 
     /tmp/cczxdMQq.s:84     .text:0000000000000010 .L0 
     /tmp/cczxdMQq.s:88     .text:0000000000000020 .L0 
     /tmp/cczxdMQq.s:89     .text:0000000000000020 .L0 
     /tmp/cczxdMQq.s:92     .text:0000000000000028 .L0 
     /tmp/cczxdMQq.s:93     .text:000000000000002c .L0 
     /tmp/cczxdMQq.s:110    .text:000000000000002c _Z15thread1FunctionPv
     /tmp/cczxdMQq.s:113    .text:000000000000002c .L0 
     /tmp/cczxdMQq.s:115    .text:000000000000002c .L0 
     /tmp/cczxdMQq.s:116    .text:0000000000000030 .L0 
     /tmp/cczxdMQq.s:120    .text:000000000000003c .L0 
     /tmp/cczxdMQq.s:121    .text:000000000000003c .L0 
     /tmp/cczxdMQq.s:122    .text:000000000000003c .L0 
     /tmp/cczxdMQq.s:124    .text:0000000000000040 .L0 
     /tmp/cczxdMQq.s:126    .text:0000000000000040 .L0 
     /tmp/cczxdMQq.s:127    .text:0000000000000040 .L0 
     /tmp/cczxdMQq.s:132    .text:0000000000000050 .L0 
     /tmp/cczxdMQq.s:134    .text:0000000000000050 .L0 
     /tmp/cczxdMQq.s:135    .text:0000000000000050 .L0 
     /tmp/cczxdMQq.s:140    .text:0000000000000058 .L0 
     /tmp/cczxdMQq.s:141    .text:0000000000000058 .L0 
     /tmp/cczxdMQq.s:145    .text:0000000000000060 .L0 
     /tmp/cczxdMQq.s:146    .text:0000000000000060 .L0 
     /tmp/cczxdMQq.s:150    .text:0000000000000070 .L0 
     /tmp/cczxdMQq.s:151    .text:0000000000000070 .L0 
GAS LISTING /tmp/cczxdMQq.s 			page 75


     /tmp/cczxdMQq.s:155    .text:000000000000007c .L0 
     /tmp/cczxdMQq.s:156    .text:000000000000007c .L0 
     /tmp/cczxdMQq.s:160    .text:000000000000008c .L0 
     /tmp/cczxdMQq.s:164    .text:0000000000000090 .L0 
     /tmp/cczxdMQq.s:168    .text:000000000000009c .L0 
     /tmp/cczxdMQq.s:169    .text:000000000000009c .L0 
     /tmp/cczxdMQq.s:172    .text:00000000000000a4 .L0 
     /tmp/cczxdMQq.s:174    .text:00000000000000a8 .L0 
     /tmp/cczxdMQq.s:179    .text:00000000000000b0 .L0 
     /tmp/cczxdMQq.s:180    .text:00000000000000b4 .L0 
     /tmp/cczxdMQq.s:182    .text:00000000000000b8 .L0 
     /tmp/cczxdMQq.s:183    .text:00000000000000b8 .L0 
     /tmp/cczxdMQq.s:185    .text:00000000000000bc .L0 
     /tmp/cczxdMQq.s:188    .text:00000000000000c0 .L0 
     /tmp/cczxdMQq.s:190    .text:00000000000000c4 .L0 
     /tmp/cczxdMQq.s:204    .text:00000000000000c4 _Z15thread2FunctionPv
     /tmp/cczxdMQq.s:207    .text:00000000000000c4 .L0 
     /tmp/cczxdMQq.s:209    .text:00000000000000c4 .L0 
     /tmp/cczxdMQq.s:210    .text:00000000000000c8 .L0 
     /tmp/cczxdMQq.s:214    .text:00000000000000d4 .L0 
     /tmp/cczxdMQq.s:215    .text:00000000000000d4 .L0 
     /tmp/cczxdMQq.s:216    .text:00000000000000d4 .L0 
     /tmp/cczxdMQq.s:218    .text:00000000000000d8 .L0 
     /tmp/cczxdMQq.s:220    .text:00000000000000d8 .L0 
     /tmp/cczxdMQq.s:221    .text:00000000000000d8 .L0 
     /tmp/cczxdMQq.s:226    .text:00000000000000e8 .L0 
     /tmp/cczxdMQq.s:228    .text:00000000000000e8 .L0 
     /tmp/cczxdMQq.s:229    .text:00000000000000e8 .L0 
     /tmp/cczxdMQq.s:234    .text:00000000000000f0 .L0 
     /tmp/cczxdMQq.s:235    .text:00000000000000f0 .L0 
     /tmp/cczxdMQq.s:239    .text:00000000000000f8 .L0 
     /tmp/cczxdMQq.s:240    .text:00000000000000f8 .L0 
     /tmp/cczxdMQq.s:244    .text:0000000000000108 .L0 
     /tmp/cczxdMQq.s:245    .text:0000000000000108 .L0 
     /tmp/cczxdMQq.s:249    .text:0000000000000114 .L0 
     /tmp/cczxdMQq.s:250    .text:0000000000000114 .L0 
     /tmp/cczxdMQq.s:254    .text:0000000000000124 .L0 
     /tmp/cczxdMQq.s:258    .text:0000000000000128 .L0 
     /tmp/cczxdMQq.s:262    .text:0000000000000134 .L0 
     /tmp/cczxdMQq.s:263    .text:0000000000000134 .L0 
     /tmp/cczxdMQq.s:266    .text:000000000000013c .L0 
     /tmp/cczxdMQq.s:268    .text:0000000000000140 .L0 
     /tmp/cczxdMQq.s:273    .text:0000000000000148 .L0 
     /tmp/cczxdMQq.s:274    .text:000000000000014c .L0 
     /tmp/cczxdMQq.s:276    .text:0000000000000150 .L0 
     /tmp/cczxdMQq.s:277    .text:0000000000000150 .L0 
     /tmp/cczxdMQq.s:279    .text:0000000000000154 .L0 
     /tmp/cczxdMQq.s:282    .text:0000000000000158 .L0 
     /tmp/cczxdMQq.s:284    .text:000000000000015c .L0 
     /tmp/cczxdMQq.s:290    .text:000000000000015c _ZN12TestPeriodic18periodicActivationEv
     /tmp/cczxdMQq.s:293    .text:000000000000015c .L0 
     /tmp/cczxdMQq.s:295    .text:000000000000015c .L0 
     /tmp/cczxdMQq.s:296    .text:0000000000000160 .L0 
     /tmp/cczxdMQq.s:300    .text:000000000000016c .L0 
     /tmp/cczxdMQq.s:301    .text:000000000000016c .L0 
     /tmp/cczxdMQq.s:302    .text:000000000000016c .L0 
     /tmp/cczxdMQq.s:304    .text:0000000000000170 .L0 
GAS LISTING /tmp/cczxdMQq.s 			page 76


     /tmp/cczxdMQq.s:308    .text:0000000000000170 .L0 
     /tmp/cczxdMQq.s:309    .text:0000000000000170 .L0 
     /tmp/cczxdMQq.s:313    .text:0000000000000174 .L0 
     /tmp/cczxdMQq.s:317    .text:0000000000000180 .L0 
     /tmp/cczxdMQq.s:318    .text:0000000000000180 .L0 
     /tmp/cczxdMQq.s:322    .text:0000000000000190 .L0 
     /tmp/cczxdMQq.s:323    .text:0000000000000190 .L0 
     /tmp/cczxdMQq.s:327    .text:000000000000019c .L0 
     /tmp/cczxdMQq.s:334    .text:00000000000001a4 .L0 
     /tmp/cczxdMQq.s:335    .text:00000000000001a8 .L0 
     /tmp/cczxdMQq.s:337    .text:00000000000001ac .L0 
     /tmp/cczxdMQq.s:338    .text:00000000000001ac .L0 
     /tmp/cczxdMQq.s:340    .text:00000000000001b0 .L0 
     /tmp/cczxdMQq.s:343    .text:00000000000001b4 .L0 
     /tmp/cczxdMQq.s:345    .text:00000000000001b8 .L0 
     /tmp/cczxdMQq.s:351    .text:00000000000001b8 _Z20thread2FunctionTest2Pv
     /tmp/cczxdMQq.s:354    .text:00000000000001b8 .L0 
     /tmp/cczxdMQq.s:356    .text:00000000000001b8 .L0 
     /tmp/cczxdMQq.s:357    .text:00000000000001bc .L0 
     /tmp/cczxdMQq.s:361    .text:00000000000001c8 .L0 
     /tmp/cczxdMQq.s:362    .text:00000000000001c8 .L0 
     /tmp/cczxdMQq.s:363    .text:00000000000001c8 .L0 
     /tmp/cczxdMQq.s:365    .text:00000000000001cc .L0 
     /tmp/cczxdMQq.s:367    .text:00000000000001cc .L0 
     /tmp/cczxdMQq.s:368    .text:00000000000001cc .L0 
     /tmp/cczxdMQq.s:373    .text:00000000000001dc .L0 
     /tmp/cczxdMQq.s:375    .text:00000000000001dc .L0 
     /tmp/cczxdMQq.s:376    .text:00000000000001dc .L0 
     /tmp/cczxdMQq.s:381    .text:00000000000001e4 .L0 
     /tmp/cczxdMQq.s:382    .text:00000000000001e4 .L0 
     /tmp/cczxdMQq.s:387    .text:00000000000001f0 .L0 
     /tmp/cczxdMQq.s:388    .text:00000000000001f0 .L0 
     /tmp/cczxdMQq.s:392    .text:00000000000001f8 .L0 
     /tmp/cczxdMQq.s:393    .text:00000000000001f8 .L0 
     /tmp/cczxdMQq.s:397    .text:0000000000000208 .L0 
     /tmp/cczxdMQq.s:398    .text:0000000000000208 .L0 
     /tmp/cczxdMQq.s:402    .text:0000000000000214 .L0 
     /tmp/cczxdMQq.s:403    .text:0000000000000214 .L0 
     /tmp/cczxdMQq.s:407    .text:0000000000000224 .L0 
     /tmp/cczxdMQq.s:411    .text:0000000000000228 .L0 
     /tmp/cczxdMQq.s:415    .text:0000000000000234 .L0 
     /tmp/cczxdMQq.s:419    .text:000000000000023c .L0 
     /tmp/cczxdMQq.s:420    .text:000000000000023c .L0 
     /tmp/cczxdMQq.s:423    .text:0000000000000244 .L0 
     /tmp/cczxdMQq.s:425    .text:0000000000000248 .L0 
     /tmp/cczxdMQq.s:430    .text:0000000000000250 .L0 
     /tmp/cczxdMQq.s:431    .text:0000000000000254 .L0 
     /tmp/cczxdMQq.s:433    .text:0000000000000258 .L0 
     /tmp/cczxdMQq.s:434    .text:0000000000000258 .L0 
     /tmp/cczxdMQq.s:436    .text:000000000000025c .L0 
     /tmp/cczxdMQq.s:439    .text:0000000000000260 .L0 
     /tmp/cczxdMQq.s:441    .text:0000000000000264 .L0 
     /tmp/cczxdMQq.s:452    .text:0000000000000264 _Z2f1Pv
     /tmp/cczxdMQq.s:455    .text:0000000000000264 .L0 
     /tmp/cczxdMQq.s:457    .text:0000000000000264 .L0 
     /tmp/cczxdMQq.s:458    .text:0000000000000268 .L0 
     /tmp/cczxdMQq.s:463    .text:0000000000000278 .L0 
GAS LISTING /tmp/cczxdMQq.s 			page 77


     /tmp/cczxdMQq.s:464    .text:0000000000000278 .L0 
     /tmp/cczxdMQq.s:465    .text:0000000000000278 .L0 
     /tmp/cczxdMQq.s:466    .text:0000000000000278 .L0 
     /tmp/cczxdMQq.s:468    .text:000000000000027c .L0 
     /tmp/cczxdMQq.s:470    .text:000000000000027c .L0 
     /tmp/cczxdMQq.s:471    .text:000000000000027c .L0 
     /tmp/cczxdMQq.s:476    .text:000000000000028c .L0 
     /tmp/cczxdMQq.s:477    .text:000000000000028c .L0 
     /tmp/cczxdMQq.s:482    .text:0000000000000294 .L0 
     /tmp/cczxdMQq.s:483    .text:0000000000000294 .L0 
     /tmp/cczxdMQq.s:487    .text:000000000000029c .L0 
     /tmp/cczxdMQq.s:488    .text:000000000000029c .L0 
     /tmp/cczxdMQq.s:489    .text:000000000000029c .L0 
     /tmp/cczxdMQq.s:492    .text:00000000000002a0 .L0 
     /tmp/cczxdMQq.s:493    .text:00000000000002a0 .L0 
     /tmp/cczxdMQq.s:498    .text:00000000000002b4 .L0 
     /tmp/cczxdMQq.s:499    .text:00000000000002b4 .L0 
     /tmp/cczxdMQq.s:503    .text:00000000000002c0 .L0 
     /tmp/cczxdMQq.s:507    .text:00000000000002cc .L0 
     /tmp/cczxdMQq.s:508    .text:00000000000002cc .L0 
     /tmp/cczxdMQq.s:511    .text:00000000000002d8 .L0 
     /tmp/cczxdMQq.s:522    .text:00000000000002d8 _Z2f2Pv
     /tmp/cczxdMQq.s:525    .text:00000000000002d8 .L0 
     /tmp/cczxdMQq.s:527    .text:00000000000002d8 .L0 
     /tmp/cczxdMQq.s:528    .text:00000000000002dc .L0 
     /tmp/cczxdMQq.s:532    .text:00000000000002e8 .L0 
     /tmp/cczxdMQq.s:533    .text:00000000000002e8 .L0 
     /tmp/cczxdMQq.s:534    .text:00000000000002e8 .L0 
     /tmp/cczxdMQq.s:536    .text:00000000000002ec .L0 
     /tmp/cczxdMQq.s:538    .text:00000000000002ec .L0 
     /tmp/cczxdMQq.s:539    .text:00000000000002ec .L0 
     /tmp/cczxdMQq.s:545    .text:00000000000002fc .L0 
     /tmp/cczxdMQq.s:546    .text:00000000000002fc .L0 
     /tmp/cczxdMQq.s:547    .text:00000000000002fc .L0 
     /tmp/cczxdMQq.s:548    .text:00000000000002fc .L0 
     /tmp/cczxdMQq.s:553    .text:0000000000000310 .L0 
     /tmp/cczxdMQq.s:554    .text:0000000000000310 .L0 
     /tmp/cczxdMQq.s:558    .text:000000000000031c .L0 
     /tmp/cczxdMQq.s:559    .text:000000000000031c .L0 
     /tmp/cczxdMQq.s:560    .text:000000000000031c .L0 
     /tmp/cczxdMQq.s:563    .text:0000000000000328 .L0 
     /tmp/cczxdMQq.s:574    .text:0000000000000328 _Z4f1_2Pv
     /tmp/cczxdMQq.s:577    .text:0000000000000328 .L0 
     /tmp/cczxdMQq.s:579    .text:0000000000000328 .L0 
     /tmp/cczxdMQq.s:580    .text:000000000000032c .L0 
     /tmp/cczxdMQq.s:585    .text:000000000000033c .L0 
     /tmp/cczxdMQq.s:586    .text:000000000000033c .L0 
     /tmp/cczxdMQq.s:587    .text:000000000000033c .L0 
     /tmp/cczxdMQq.s:588    .text:000000000000033c .L0 
     /tmp/cczxdMQq.s:590    .text:0000000000000340 .L0 
     /tmp/cczxdMQq.s:592    .text:0000000000000340 .L0 
     /tmp/cczxdMQq.s:593    .text:0000000000000340 .L0 
     /tmp/cczxdMQq.s:598    .text:0000000000000350 .L0 
     /tmp/cczxdMQq.s:599    .text:0000000000000350 .L0 
     /tmp/cczxdMQq.s:604    .text:0000000000000358 .L0 
     /tmp/cczxdMQq.s:605    .text:0000000000000358 .L0 
     /tmp/cczxdMQq.s:609    .text:0000000000000360 .L0 
GAS LISTING /tmp/cczxdMQq.s 			page 78


     /tmp/cczxdMQq.s:610    .text:0000000000000360 .L0 
     /tmp/cczxdMQq.s:611    .text:0000000000000360 .L0 
     /tmp/cczxdMQq.s:614    .text:0000000000000364 .L0 
     /tmp/cczxdMQq.s:615    .text:0000000000000364 .L0 
     /tmp/cczxdMQq.s:620    .text:0000000000000378 .L0 
     /tmp/cczxdMQq.s:621    .text:0000000000000378 .L0 
     /tmp/cczxdMQq.s:625    .text:0000000000000384 .L0 
     /tmp/cczxdMQq.s:626    .text:0000000000000384 .L0 
     /tmp/cczxdMQq.s:630    .text:0000000000000390 .L0 
     /tmp/cczxdMQq.s:631    .text:0000000000000390 .L0 
     /tmp/cczxdMQq.s:635    .text:000000000000039c .L0 
     /tmp/cczxdMQq.s:639    .text:00000000000003a8 .L0 
     /tmp/cczxdMQq.s:640    .text:00000000000003a8 .L0 
     /tmp/cczxdMQq.s:643    .text:00000000000003b4 .L0 
     /tmp/cczxdMQq.s:654    .text:00000000000003b4 _Z4f2_2Pv
     /tmp/cczxdMQq.s:657    .text:00000000000003b4 .L0 
     /tmp/cczxdMQq.s:659    .text:00000000000003b4 .L0 
     /tmp/cczxdMQq.s:660    .text:00000000000003b8 .L0 
     /tmp/cczxdMQq.s:665    .text:00000000000003c8 .L0 
     /tmp/cczxdMQq.s:666    .text:00000000000003c8 .L0 
     /tmp/cczxdMQq.s:667    .text:00000000000003c8 .L0 
     /tmp/cczxdMQq.s:668    .text:00000000000003c8 .L0 
     /tmp/cczxdMQq.s:670    .text:00000000000003cc .L0 
     /tmp/cczxdMQq.s:672    .text:00000000000003cc .L0 
     /tmp/cczxdMQq.s:673    .text:00000000000003cc .L0 
     /tmp/cczxdMQq.s:678    .text:00000000000003dc .L0 
     /tmp/cczxdMQq.s:679    .text:00000000000003dc .L0 
     /tmp/cczxdMQq.s:684    .text:00000000000003e4 .L0 
     /tmp/cczxdMQq.s:685    .text:00000000000003e4 .L0 
     /tmp/cczxdMQq.s:689    .text:00000000000003ec .L0 
     /tmp/cczxdMQq.s:690    .text:00000000000003ec .L0 
     /tmp/cczxdMQq.s:691    .text:00000000000003ec .L0 
     /tmp/cczxdMQq.s:694    .text:00000000000003f0 .L0 
     /tmp/cczxdMQq.s:695    .text:00000000000003f0 .L0 
     /tmp/cczxdMQq.s:700    .text:0000000000000404 .L0 
     /tmp/cczxdMQq.s:701    .text:0000000000000404 .L0 
     /tmp/cczxdMQq.s:705    .text:0000000000000410 .L0 
     /tmp/cczxdMQq.s:706    .text:0000000000000410 .L0 
     /tmp/cczxdMQq.s:710    .text:000000000000041c .L0 
     /tmp/cczxdMQq.s:711    .text:000000000000041c .L0 
     /tmp/cczxdMQq.s:715    .text:0000000000000428 .L0 
     /tmp/cczxdMQq.s:719    .text:0000000000000434 .L0 
     /tmp/cczxdMQq.s:720    .text:0000000000000434 .L0 
     /tmp/cczxdMQq.s:723    .text:0000000000000440 .L0 
     /tmp/cczxdMQq.s:734    .text:0000000000000440 _Z4f3_2Pv
     /tmp/cczxdMQq.s:737    .text:0000000000000440 .L0 
     /tmp/cczxdMQq.s:739    .text:0000000000000440 .L0 
     /tmp/cczxdMQq.s:740    .text:0000000000000444 .L0 
     /tmp/cczxdMQq.s:745    .text:0000000000000454 .L0 
     /tmp/cczxdMQq.s:746    .text:0000000000000454 .L0 
     /tmp/cczxdMQq.s:747    .text:0000000000000454 .L0 
     /tmp/cczxdMQq.s:748    .text:0000000000000454 .L0 
     /tmp/cczxdMQq.s:750    .text:0000000000000458 .L0 
     /tmp/cczxdMQq.s:752    .text:0000000000000458 .L0 
     /tmp/cczxdMQq.s:753    .text:0000000000000458 .L0 
     /tmp/cczxdMQq.s:758    .text:0000000000000468 .L0 
     /tmp/cczxdMQq.s:759    .text:0000000000000468 .L0 
GAS LISTING /tmp/cczxdMQq.s 			page 79


     /tmp/cczxdMQq.s:764    .text:0000000000000470 .L0 
     /tmp/cczxdMQq.s:765    .text:0000000000000470 .L0 
     /tmp/cczxdMQq.s:769    .text:0000000000000478 .L0 
     /tmp/cczxdMQq.s:770    .text:0000000000000478 .L0 
     /tmp/cczxdMQq.s:771    .text:0000000000000478 .L0 
     /tmp/cczxdMQq.s:774    .text:000000000000047c .L0 
     /tmp/cczxdMQq.s:775    .text:000000000000047c .L0 
     /tmp/cczxdMQq.s:780    .text:0000000000000490 .L0 
     /tmp/cczxdMQq.s:781    .text:0000000000000490 .L0 
     /tmp/cczxdMQq.s:785    .text:000000000000049c .L0 
     /tmp/cczxdMQq.s:786    .text:000000000000049c .L0 
     /tmp/cczxdMQq.s:790    .text:00000000000004a8 .L0 
     /tmp/cczxdMQq.s:791    .text:00000000000004a8 .L0 
     /tmp/cczxdMQq.s:795    .text:00000000000004b4 .L0 
     /tmp/cczxdMQq.s:799    .text:00000000000004c0 .L0 
     /tmp/cczxdMQq.s:800    .text:00000000000004c0 .L0 
     /tmp/cczxdMQq.s:803    .text:00000000000004cc .L0 
     /tmp/cczxdMQq.s:810    .text._ZN14PeriodicThreadD2Ev:0000000000000000 _ZN14PeriodicThreadD2Ev
     /tmp/cczxdMQq.s:813    .text._ZN14PeriodicThreadD2Ev:0000000000000000 .L0 
     /tmp/cczxdMQq.s:815    .text._ZN14PeriodicThreadD2Ev:0000000000000000 .L0 
     /tmp/cczxdMQq.s:816    .text._ZN14PeriodicThreadD2Ev:0000000000000004 .L0 
     /tmp/cczxdMQq.s:819    .text._ZN14PeriodicThreadD2Ev:000000000000000c .L0 
     /tmp/cczxdMQq.s:820    .text._ZN14PeriodicThreadD2Ev:000000000000000c .L0 
     /tmp/cczxdMQq.s:822    .text._ZN14PeriodicThreadD2Ev:0000000000000010 .L0 
     /tmp/cczxdMQq.s:2814   .data.rel.ro.local._ZTV14PeriodicThread:0000000000000000 _ZTV14PeriodicThread
     /tmp/cczxdMQq.s:825    .text._ZN14PeriodicThreadD2Ev:0000000000000010 .L0 
     /tmp/cczxdMQq.s:831    .text._ZN14PeriodicThreadD2Ev:0000000000000028 .L0 
     /tmp/cczxdMQq.s:833    .text._ZN14PeriodicThreadD2Ev:000000000000002c .L0 
     /tmp/cczxdMQq.s:834    .text._ZN14PeriodicThreadD2Ev:000000000000002c .L0 
     /tmp/cczxdMQq.s:836    .text._ZN14PeriodicThreadD2Ev:0000000000000030 .L0 
     /tmp/cczxdMQq.s:838    .text._ZN14PeriodicThreadD2Ev:0000000000000034 .L0 
     /tmp/cczxdMQq.s:810    .text._ZN14PeriodicThreadD2Ev:0000000000000000 _ZN14PeriodicThreadD1Ev
     /tmp/cczxdMQq.s:847    .text._ZN14PeriodicThreadD0Ev:0000000000000000 _ZN14PeriodicThreadD0Ev
     /tmp/cczxdMQq.s:850    .text._ZN14PeriodicThreadD0Ev:0000000000000000 .L0 
     /tmp/cczxdMQq.s:852    .text._ZN14PeriodicThreadD0Ev:0000000000000000 .L0 
     /tmp/cczxdMQq.s:853    .text._ZN14PeriodicThreadD0Ev:0000000000000004 .L0 
     /tmp/cczxdMQq.s:857    .text._ZN14PeriodicThreadD0Ev:0000000000000010 .L0 
     /tmp/cczxdMQq.s:858    .text._ZN14PeriodicThreadD0Ev:0000000000000010 .L0 
     /tmp/cczxdMQq.s:859    .text._ZN14PeriodicThreadD0Ev:0000000000000010 .L0 
     /tmp/cczxdMQq.s:861    .text._ZN14PeriodicThreadD0Ev:0000000000000014 .L0 
     /tmp/cczxdMQq.s:867    .text._ZN14PeriodicThreadD0Ev:0000000000000018 .L0 
     /tmp/cczxdMQq.s:877    .text._ZN14PeriodicThreadD0Ev:000000000000003c .L0 
     /tmp/cczxdMQq.s:879    .text._ZN14PeriodicThreadD0Ev:0000000000000040 .L0 
     /tmp/cczxdMQq.s:880    .text._ZN14PeriodicThreadD0Ev:0000000000000040 .L0 
     /tmp/cczxdMQq.s:882    .text._ZN14PeriodicThreadD0Ev:0000000000000044 .L0 
     /tmp/cczxdMQq.s:885    .text._ZN14PeriodicThreadD0Ev:0000000000000048 .L0 
     /tmp/cczxdMQq.s:887    .text._ZN14PeriodicThreadD0Ev:000000000000004c .L0 
     /tmp/cczxdMQq.s:894    .text._ZN12TestPeriodicD2Ev:0000000000000000 _ZN12TestPeriodicD2Ev
     /tmp/cczxdMQq.s:898    .text._ZN12TestPeriodicD2Ev:0000000000000000 .L0 
     /tmp/cczxdMQq.s:900    .text._ZN12TestPeriodicD2Ev:0000000000000000 .L0 
     /tmp/cczxdMQq.s:901    .text._ZN12TestPeriodicD2Ev:0000000000000004 .L0 
     /tmp/cczxdMQq.s:904    .text._ZN12TestPeriodicD2Ev:000000000000000c .L0 
     /tmp/cczxdMQq.s:905    .text._ZN12TestPeriodicD2Ev:000000000000000c .L0 
     /tmp/cczxdMQq.s:907    .text._ZN12TestPeriodicD2Ev:0000000000000010 .L0 
     /tmp/cczxdMQq.s:912    .text._ZN12TestPeriodicD2Ev:0000000000000010 .L0 
     /tmp/cczxdMQq.s:919    .text._ZN12TestPeriodicD2Ev:0000000000000024 .L0 
     /tmp/cczxdMQq.s:920    .text._ZN12TestPeriodicD2Ev:0000000000000028 .L0 
GAS LISTING /tmp/cczxdMQq.s 			page 80


     /tmp/cczxdMQq.s:922    .text._ZN12TestPeriodicD2Ev:000000000000002c .L0 
     /tmp/cczxdMQq.s:923    .text._ZN12TestPeriodicD2Ev:000000000000002c .L0 
     /tmp/cczxdMQq.s:925    .text._ZN12TestPeriodicD2Ev:0000000000000030 .L0 
     /tmp/cczxdMQq.s:927    .text._ZN12TestPeriodicD2Ev:0000000000000034 .L0 
     /tmp/cczxdMQq.s:894    .text._ZN12TestPeriodicD2Ev:0000000000000000 _ZN12TestPeriodicD1Ev
     /tmp/cczxdMQq.s:936    .text._ZN12TestPeriodicD0Ev:0000000000000000 _ZN12TestPeriodicD0Ev
     /tmp/cczxdMQq.s:939    .text._ZN12TestPeriodicD0Ev:0000000000000000 .L0 
     /tmp/cczxdMQq.s:941    .text._ZN12TestPeriodicD0Ev:0000000000000000 .L0 
     /tmp/cczxdMQq.s:942    .text._ZN12TestPeriodicD0Ev:0000000000000004 .L0 
     /tmp/cczxdMQq.s:946    .text._ZN12TestPeriodicD0Ev:0000000000000010 .L0 
     /tmp/cczxdMQq.s:947    .text._ZN12TestPeriodicD0Ev:0000000000000010 .L0 
     /tmp/cczxdMQq.s:948    .text._ZN12TestPeriodicD0Ev:0000000000000010 .L0 
     /tmp/cczxdMQq.s:950    .text._ZN12TestPeriodicD0Ev:0000000000000014 .L0 
     /tmp/cczxdMQq.s:957    .text._ZN12TestPeriodicD0Ev:0000000000000018 .L0 
     /tmp/cczxdMQq.s:965    .text._ZN12TestPeriodicD0Ev:000000000000002c .L0 
     /tmp/cczxdMQq.s:969    .text._ZN12TestPeriodicD0Ev:000000000000003c .L0 
     /tmp/cczxdMQq.s:971    .text._ZN12TestPeriodicD0Ev:0000000000000040 .L0 
     /tmp/cczxdMQq.s:972    .text._ZN12TestPeriodicD0Ev:0000000000000040 .L0 
     /tmp/cczxdMQq.s:974    .text._ZN12TestPeriodicD0Ev:0000000000000044 .L0 
     /tmp/cczxdMQq.s:977    .text._ZN12TestPeriodicD0Ev:0000000000000048 .L0 
     /tmp/cczxdMQq.s:979    .text._ZN12TestPeriodicD0Ev:000000000000004c .L0 
     /tmp/cczxdMQq.s:993    .text:00000000000004cc _Z11threadTest1v
     /tmp/cczxdMQq.s:996    .text:00000000000004cc .L0 
     /tmp/cczxdMQq.s:9580   .data.rel.local.DW.ref.__gxx_personality_v0:0000000000000000 DW.ref.__gxx_personality_v0
     /tmp/cczxdMQq.s:999    .text:00000000000004cc .L0 
     /tmp/cczxdMQq.s:1000   .text:00000000000004d0 .L0 
     /tmp/cczxdMQq.s:1005   .text:00000000000004e0 .L0 
     /tmp/cczxdMQq.s:1006   .text:00000000000004e0 .L0 
     /tmp/cczxdMQq.s:1007   .text:00000000000004e0 .L0 
     /tmp/cczxdMQq.s:1008   .text:00000000000004e0 .L0 
     /tmp/cczxdMQq.s:1010   .text:00000000000004e4 .L0 
     /tmp/cczxdMQq.s:1012   .text:00000000000004e4 .L0 
     /tmp/cczxdMQq.s:1013   .text:00000000000004e4 .L0 
     /tmp/cczxdMQq.s:1026   .text:0000000000000508 .L0 
     /tmp/cczxdMQq.s:1027   .text:0000000000000508 .L0 
     /tmp/cczxdMQq.s:1032   .text:0000000000000514 .L0 
     /tmp/cczxdMQq.s:1033   .text:0000000000000514 .L0 
     /tmp/cczxdMQq.s:1045   .text:0000000000000538 .L0 
     /tmp/cczxdMQq.s:1046   .text:0000000000000538 .L0 
     /tmp/cczxdMQq.s:1051   .text:0000000000000544 .L0 
     /tmp/cczxdMQq.s:1052   .text:0000000000000544 .L0 
     /tmp/cczxdMQq.s:1057   .text:0000000000000550 .L0 
     /tmp/cczxdMQq.s:1058   .text:0000000000000550 .L0 
     /tmp/cczxdMQq.s:1062   .text:0000000000000560 .L0 
     /tmp/cczxdMQq.s:1063   .text:0000000000000560 .L0 
     /tmp/cczxdMQq.s:1067   .text:0000000000000568 .L0 
     /tmp/cczxdMQq.s:1068   .text:0000000000000568 .L0 
     /tmp/cczxdMQq.s:1069   .text:0000000000000568 .L0 
     /tmp/cczxdMQq.s:1075   .text:000000000000056c .L0 
     /tmp/cczxdMQq.s:1076   .text:000000000000056c .L0 
     /tmp/cczxdMQq.s:1081   .text:0000000000000570 .L0 
     /tmp/cczxdMQq.s:1084   .text:0000000000000578 .L0 
     /tmp/cczxdMQq.s:1089   .text:000000000000057c .L0 
     /tmp/cczxdMQq.s:1090   .text:000000000000057c .L0 
     /tmp/cczxdMQq.s:1095   .text:0000000000000580 .L0 
     /tmp/cczxdMQq.s:1098   .text:0000000000000588 .L0 
     /tmp/cczxdMQq.s:1099   .text:0000000000000588 .L0 
GAS LISTING /tmp/cczxdMQq.s 			page 81


     /tmp/cczxdMQq.s:1103   .text:0000000000000598 .L0 
     /tmp/cczxdMQq.s:1104   .text:0000000000000598 .L0 
     /tmp/cczxdMQq.s:1108   .text:00000000000005a0 .L0 
     /tmp/cczxdMQq.s:1109   .text:00000000000005a4 .L0 
     /tmp/cczxdMQq.s:1110   .text:00000000000005a4 .L0 
     /tmp/cczxdMQq.s:1112   .text:00000000000005a8 .L0 
     /tmp/cczxdMQq.s:1113   .text:00000000000005a8 .L0 
     /tmp/cczxdMQq.s:1115   .text:00000000000005ac .L0 
     /tmp/cczxdMQq.s:1118   .text:00000000000005b0 .L0 
     /tmp/cczxdMQq.s:1121   .text:00000000000005b4 .L0 
     /tmp/cczxdMQq.s:1124   .text:00000000000005b8 .L0 
     /tmp/cczxdMQq.s:1127   .text:00000000000005bc .L0 
     /tmp/cczxdMQq.s:1139   .text:00000000000005d8 .L0 
     /tmp/cczxdMQq.s:1147   .text:00000000000005f0 .L0 
     /tmp/cczxdMQq.s:1189   .text:00000000000005f0 _Z11threadTest2v
     /tmp/cczxdMQq.s:1192   .text:00000000000005f0 .L0 
     /tmp/cczxdMQq.s:1195   .text:00000000000005f0 .L0 
     /tmp/cczxdMQq.s:1196   .text:00000000000005f4 .L0 
     /tmp/cczxdMQq.s:1201   .text:0000000000000604 .L0 
     /tmp/cczxdMQq.s:1202   .text:0000000000000604 .L0 
     /tmp/cczxdMQq.s:1203   .text:0000000000000604 .L0 
     /tmp/cczxdMQq.s:1204   .text:0000000000000604 .L0 
     /tmp/cczxdMQq.s:1206   .text:0000000000000608 .L0 
     /tmp/cczxdMQq.s:1208   .text:0000000000000608 .L0 
     /tmp/cczxdMQq.s:1209   .text:0000000000000608 .L0 
     /tmp/cczxdMQq.s:1222   .text:000000000000062c .L0 
     /tmp/cczxdMQq.s:1223   .text:000000000000062c .L0 
     /tmp/cczxdMQq.s:1228   .text:0000000000000638 .L0 
     /tmp/cczxdMQq.s:1229   .text:0000000000000638 .L0 
     /tmp/cczxdMQq.s:1241   .text:000000000000065c .L0 
     /tmp/cczxdMQq.s:1242   .text:000000000000065c .L0 
     /tmp/cczxdMQq.s:1247   .text:0000000000000668 .L0 
     /tmp/cczxdMQq.s:1248   .text:0000000000000668 .L0 
     /tmp/cczxdMQq.s:1261   .text:000000000000068c .L0 
     /tmp/cczxdMQq.s:1262   .text:000000000000068c .L0 
     /tmp/cczxdMQq.s:1267   .text:0000000000000698 .L0 
     /tmp/cczxdMQq.s:1268   .text:0000000000000698 .L0 
     /tmp/cczxdMQq.s:1272   .text:00000000000006a0 .L0 
     /tmp/cczxdMQq.s:1273   .text:00000000000006a0 .L0 
     /tmp/cczxdMQq.s:1274   .text:00000000000006a0 .L0 
     /tmp/cczxdMQq.s:1279   .text:00000000000006a4 .L0 
     /tmp/cczxdMQq.s:1280   .text:00000000000006a4 .L0 
     /tmp/cczxdMQq.s:1285   .text:00000000000006a8 .L0 
     /tmp/cczxdMQq.s:1288   .text:00000000000006b0 .L0 
     /tmp/cczxdMQq.s:1289   .text:00000000000006b0 .L0 
     /tmp/cczxdMQq.s:1293   .text:00000000000006c0 .L0 
     /tmp/cczxdMQq.s:1294   .text:00000000000006c0 .L0 
     /tmp/cczxdMQq.s:1298   .text:00000000000006c8 .L0 
     /tmp/cczxdMQq.s:1299   .text:00000000000006cc .L0 
     /tmp/cczxdMQq.s:1300   .text:00000000000006cc .L0 
     /tmp/cczxdMQq.s:1302   .text:00000000000006d0 .L0 
     /tmp/cczxdMQq.s:1303   .text:00000000000006d0 .L0 
     /tmp/cczxdMQq.s:1305   .text:00000000000006d4 .L0 
     /tmp/cczxdMQq.s:1308   .text:00000000000006d8 .L0 
     /tmp/cczxdMQq.s:1311   .text:00000000000006dc .L0 
     /tmp/cczxdMQq.s:1314   .text:00000000000006e0 .L0 
     /tmp/cczxdMQq.s:1317   .text:00000000000006e4 .L0 
GAS LISTING /tmp/cczxdMQq.s 			page 82


     /tmp/cczxdMQq.s:1329   .text:0000000000000700 .L0 
     /tmp/cczxdMQq.s:1341   .text:000000000000071c .L0 
     /tmp/cczxdMQq.s:1349   .text:0000000000000734 .L0 
     /tmp/cczxdMQq.s:1413   .text:0000000000000734 _Z10mallocFreev
     /tmp/cczxdMQq.s:1416   .text:0000000000000734 .L0 
     /tmp/cczxdMQq.s:1417   .text:0000000000000734 .L0 
     /tmp/cczxdMQq.s:1418   .text:0000000000000738 .L0 
     /tmp/cczxdMQq.s:1422   .text:0000000000000744 .L0 
     /tmp/cczxdMQq.s:1423   .text:0000000000000744 .L0 
     /tmp/cczxdMQq.s:1424   .text:0000000000000744 .L0 
     /tmp/cczxdMQq.s:1426   .text:0000000000000748 .L0 
     /tmp/cczxdMQq.s:1428   .text:0000000000000748 .L0 
     /tmp/cczxdMQq.s:1429   .text:0000000000000748 .L0 
     /tmp/cczxdMQq.s:1434   .text:0000000000000758 .L0 
     /tmp/cczxdMQq.s:1439   .text:0000000000000760 .L0 
     /tmp/cczxdMQq.s:1443   .text:0000000000000764 .L0 
     /tmp/cczxdMQq.s:1446   .text:000000000000076c .L0 
     /tmp/cczxdMQq.s:1447   .text:000000000000076c .L0 
     /tmp/cczxdMQq.s:1451   .text:0000000000000778 .L0 
     /tmp/cczxdMQq.s:1456   .text:0000000000000788 .L0 
     /tmp/cczxdMQq.s:1458   .text:000000000000078c .L0 
     /tmp/cczxdMQq.s:1459   .text:000000000000078c .L0 
     /tmp/cczxdMQq.s:1465   .text:000000000000079c .L0 
     /tmp/cczxdMQq.s:1466   .text:000000000000079c .L0 
     /tmp/cczxdMQq.s:1467   .text:00000000000007a0 .L0 
     /tmp/cczxdMQq.s:1468   .text:00000000000007a0 .L0 
     /tmp/cczxdMQq.s:1470   .text:00000000000007a4 .L0 
     /tmp/cczxdMQq.s:1471   .text:00000000000007a4 .L0 
     /tmp/cczxdMQq.s:1473   .text:00000000000007a8 .L0 
     /tmp/cczxdMQq.s:1475   .text:00000000000007ac .L0 
     /tmp/cczxdMQq.s:1479   .text:00000000000007b0 .L0 
     /tmp/cczxdMQq.s:1482   .text:00000000000007b0 .L0 
     /tmp/cczxdMQq.s:1486   .text:00000000000007b4 .L0 
     /tmp/cczxdMQq.s:1490   .text:00000000000007bc .L0 
     /tmp/cczxdMQq.s:1491   .text:00000000000007bc .L0 
     /tmp/cczxdMQq.s:1498   .text:00000000000007d4 .L0 
     /tmp/cczxdMQq.s:1501   .text:00000000000007d8 .L0 
     /tmp/cczxdMQq.s:1502   .text:00000000000007d8 .L0 
     /tmp/cczxdMQq.s:1505   .text:00000000000007dc .L0 
     /tmp/cczxdMQq.s:1510   .text:00000000000007e0 .L0 
     /tmp/cczxdMQq.s:1511   .text:00000000000007e0 .L0 
     /tmp/cczxdMQq.s:1516   .text:00000000000007f0 .L0 
     /tmp/cczxdMQq.s:1522   .text:00000000000007f4 .L0 
     /tmp/cczxdMQq.s:1528   .text:00000000000007fc .L0 
     /tmp/cczxdMQq.s:1529   .text:00000000000007fc .L0 
     /tmp/cczxdMQq.s:1533   .text:0000000000000800 .L0 
     /tmp/cczxdMQq.s:1536   .text:0000000000000808 .L0 
     /tmp/cczxdMQq.s:1537   .text:0000000000000808 .L0 
     /tmp/cczxdMQq.s:1541   .text:0000000000000814 .L0 
     /tmp/cczxdMQq.s:1546   .text:0000000000000824 .L0 
     /tmp/cczxdMQq.s:1548   .text:0000000000000828 .L0 
     /tmp/cczxdMQq.s:1549   .text:0000000000000828 .L0 
     /tmp/cczxdMQq.s:1553   .text:0000000000000838 .L0 
     /tmp/cczxdMQq.s:1558   .text:000000000000083c .L0 
     /tmp/cczxdMQq.s:1562   .text:0000000000000840 .L0 
     /tmp/cczxdMQq.s:1566   .text:0000000000000848 .L0 
     /tmp/cczxdMQq.s:1567   .text:0000000000000848 .L0 
GAS LISTING /tmp/cczxdMQq.s 			page 83


     /tmp/cczxdMQq.s:1574   .text:0000000000000860 .L0 
     /tmp/cczxdMQq.s:1577   .text:0000000000000864 .L0 
     /tmp/cczxdMQq.s:1584   .text:000000000000086c .L0 
     /tmp/cczxdMQq.s:1585   .text:000000000000086c .L0 
     /tmp/cczxdMQq.s:1590   .text:000000000000087c .L0 
     /tmp/cczxdMQq.s:1595   .text:0000000000000880 .L0 
     /tmp/cczxdMQq.s:1596   .text:0000000000000880 .L0 
     /tmp/cczxdMQq.s:1600   .text:0000000000000894 .L0 
     /tmp/cczxdMQq.s:1611   .text:0000000000000894 _Z9bigMallocv
     /tmp/cczxdMQq.s:1614   .text:0000000000000894 .L0 
     /tmp/cczxdMQq.s:1615   .text:0000000000000894 .L0 
     /tmp/cczxdMQq.s:1616   .text:0000000000000898 .L0 
     /tmp/cczxdMQq.s:1619   .text:00000000000008a0 .L0 
     /tmp/cczxdMQq.s:1620   .text:00000000000008a0 .L0 
     /tmp/cczxdMQq.s:1622   .text:00000000000008a4 .L0 
     /tmp/cczxdMQq.s:1624   .text:00000000000008a4 .L0 
     /tmp/cczxdMQq.s:1625   .text:00000000000008a4 .L0 
     /tmp/cczxdMQq.s:1629   .text:00000000000008b4 .L0 
     /tmp/cczxdMQq.s:1630   .text:00000000000008b4 .L0 
     /tmp/cczxdMQq.s:1637   .text:00000000000008d0 .L0 
     /tmp/cczxdMQq.s:1638   .text:00000000000008d0 .L0 
     /tmp/cczxdMQq.s:1643   .text:00000000000008dc .L0 
     /tmp/cczxdMQq.s:1645   .text:00000000000008e0 .L0 
     /tmp/cczxdMQq.s:1646   .text:00000000000008e0 .L0 
     /tmp/cczxdMQq.s:1652   .text:00000000000008f0 .L0 
     /tmp/cczxdMQq.s:1653   .text:00000000000008f4 .L0 
     /tmp/cczxdMQq.s:1654   .text:00000000000008f4 .L0 
     /tmp/cczxdMQq.s:1656   .text:00000000000008f8 .L0 
     /tmp/cczxdMQq.s:1657   .text:00000000000008f8 .L0 
     /tmp/cczxdMQq.s:1659   .text:00000000000008fc .L0 
     /tmp/cczxdMQq.s:1663   .text:0000000000000900 .L0 
     /tmp/cczxdMQq.s:1665   .text:0000000000000900 .L0 
     /tmp/cczxdMQq.s:1666   .text:0000000000000900 .L0 
     /tmp/cczxdMQq.s:1671   .text:0000000000000914 .L0 
     /tmp/cczxdMQq.s:1682   .text:0000000000000914 _Z17lotOfSmallMallocsv
     /tmp/cczxdMQq.s:1685   .text:0000000000000914 .L0 
     /tmp/cczxdMQq.s:1686   .text:0000000000000914 .L0 
     /tmp/cczxdMQq.s:1687   .text:0000000000000918 .L0 
     /tmp/cczxdMQq.s:1693   .text:000000000000092c .L0 
     /tmp/cczxdMQq.s:1694   .text:000000000000092c .L0 
     /tmp/cczxdMQq.s:1695   .text:000000000000092c .L0 
     /tmp/cczxdMQq.s:1696   .text:000000000000092c .L0 
     /tmp/cczxdMQq.s:1697   .text:000000000000092c .L0 
     /tmp/cczxdMQq.s:1699   .text:0000000000000930 .L0 
     /tmp/cczxdMQq.s:1701   .text:0000000000000930 .L0 
     /tmp/cczxdMQq.s:1702   .text:0000000000000930 .L0 
     /tmp/cczxdMQq.s:1706   .text:0000000000000940 .L0 
     /tmp/cczxdMQq.s:1707   .text:0000000000000940 .L0 
     /tmp/cczxdMQq.s:1708   .text:0000000000000940 .L0 
     /tmp/cczxdMQq.s:1709   .text:0000000000000940 .L0 
     /tmp/cczxdMQq.s:1711   .text:0000000000000940 .L0 
     /tmp/cczxdMQq.s:1712   .text:0000000000000940 .L0 
     /tmp/cczxdMQq.s:1715   .text:0000000000000944 .L0 
     /tmp/cczxdMQq.s:1717   .text:0000000000000948 .L0 
     /tmp/cczxdMQq.s:1724   .text:0000000000000950 .L0 
     /tmp/cczxdMQq.s:1725   .text:0000000000000950 .L0 
     /tmp/cczxdMQq.s:1728   .text:0000000000000958 .L0 
GAS LISTING /tmp/cczxdMQq.s 			page 84


     /tmp/cczxdMQq.s:1729   .text:0000000000000958 .L0 
     /tmp/cczxdMQq.s:1732   .text:000000000000095c .L0 
     /tmp/cczxdMQq.s:1733   .text:000000000000095c .L0 
     /tmp/cczxdMQq.s:1737   .text:0000000000000960 .L0 
     /tmp/cczxdMQq.s:1741   .text:0000000000000964 .L0 
     /tmp/cczxdMQq.s:1746   .text:0000000000000970 .L0 
     /tmp/cczxdMQq.s:1747   .text:0000000000000970 .L0 
     /tmp/cczxdMQq.s:1751   .text:000000000000097c .L0 
     /tmp/cczxdMQq.s:1757   .text:0000000000000980 .L0 
     /tmp/cczxdMQq.s:1758   .text:0000000000000980 .L0 
     /tmp/cczxdMQq.s:1762   .text:000000000000098c .L0 
     /tmp/cczxdMQq.s:1763   .text:000000000000098c .L0 
     /tmp/cczxdMQq.s:1767   .text:000000000000099c .L0 
     /tmp/cczxdMQq.s:1768   .text:000000000000099c .L0 
     /tmp/cczxdMQq.s:1773   .text:00000000000009a8 .L0 
     /tmp/cczxdMQq.s:1775   .text:00000000000009ac .L0 
     /tmp/cczxdMQq.s:1776   .text:00000000000009ac .L0 
     /tmp/cczxdMQq.s:1781   .text:00000000000009bc .L0 
     /tmp/cczxdMQq.s:1782   .text:00000000000009c0 .L0 
     /tmp/cczxdMQq.s:1783   .text:00000000000009c0 .L0 
     /tmp/cczxdMQq.s:1785   .text:00000000000009c4 .L0 
     /tmp/cczxdMQq.s:1786   .text:00000000000009c4 .L0 
     /tmp/cczxdMQq.s:1788   .text:00000000000009c8 .L0 
     /tmp/cczxdMQq.s:1791   .text:00000000000009cc .L0 
     /tmp/cczxdMQq.s:1793   .text:00000000000009d0 .L0 
     /tmp/cczxdMQq.s:1796   .text:00000000000009d4 .L0 
     /tmp/cczxdMQq.s:1800   .text:00000000000009d8 .L0 
     /tmp/cczxdMQq.s:1802   .text:00000000000009d8 .L0 
     /tmp/cczxdMQq.s:1803   .text:00000000000009d8 .L0 
     /tmp/cczxdMQq.s:1807   .text:00000000000009ec .L0 
     /tmp/cczxdMQq.s:1818   .text:00000000000009ec _Z7badFreev
     /tmp/cczxdMQq.s:1821   .text:00000000000009ec .L0 
     /tmp/cczxdMQq.s:1822   .text:00000000000009ec .L0 
     /tmp/cczxdMQq.s:1823   .text:00000000000009f0 .L0 
     /tmp/cczxdMQq.s:1826   .text:00000000000009f8 .L0 
     /tmp/cczxdMQq.s:1827   .text:00000000000009f8 .L0 
     /tmp/cczxdMQq.s:1829   .text:00000000000009fc .L0 
     /tmp/cczxdMQq.s:1831   .text:00000000000009fc .L0 
     /tmp/cczxdMQq.s:1832   .text:00000000000009fc .L0 
     /tmp/cczxdMQq.s:1836   .text:0000000000000a0c .L0 
     /tmp/cczxdMQq.s:1837   .text:0000000000000a0c .L0 
     /tmp/cczxdMQq.s:1841   .text:0000000000000a18 .L0 
     /tmp/cczxdMQq.s:1842   .text:0000000000000a18 .L0 
     /tmp/cczxdMQq.s:1847   .text:0000000000000a24 .L0 
     /tmp/cczxdMQq.s:1849   .text:0000000000000a28 .L0 
     /tmp/cczxdMQq.s:1850   .text:0000000000000a28 .L0 
     /tmp/cczxdMQq.s:1856   .text:0000000000000a38 .L0 
     /tmp/cczxdMQq.s:1857   .text:0000000000000a3c .L0 
     /tmp/cczxdMQq.s:1858   .text:0000000000000a3c .L0 
     /tmp/cczxdMQq.s:1860   .text:0000000000000a40 .L0 
     /tmp/cczxdMQq.s:1861   .text:0000000000000a40 .L0 
     /tmp/cczxdMQq.s:1863   .text:0000000000000a44 .L0 
     /tmp/cczxdMQq.s:1867   .text:0000000000000a48 .L0 
     /tmp/cczxdMQq.s:1869   .text:0000000000000a48 .L0 
     /tmp/cczxdMQq.s:1870   .text:0000000000000a48 .L0 
     /tmp/cczxdMQq.s:1875   .text:0000000000000a58 .L0 
     /tmp/cczxdMQq.s:1876   .text:0000000000000a5c .L0 
GAS LISTING /tmp/cczxdMQq.s 			page 85


     /tmp/cczxdMQq.s:1887   .text:0000000000000a5c _Z13stressTestingv
     /tmp/cczxdMQq.s:1890   .text:0000000000000a5c .L0 
     /tmp/cczxdMQq.s:1891   .text:0000000000000a5c .L0 
     /tmp/cczxdMQq.s:1892   .text:0000000000000a60 .L0 
     /tmp/cczxdMQq.s:1897   .text:0000000000000a70 .L0 
     /tmp/cczxdMQq.s:1898   .text:0000000000000a70 .L0 
     /tmp/cczxdMQq.s:1899   .text:0000000000000a70 .L0 
     /tmp/cczxdMQq.s:1900   .text:0000000000000a70 .L0 
     /tmp/cczxdMQq.s:1902   .text:0000000000000a74 .L0 
     /tmp/cczxdMQq.s:1904   .text:0000000000000a74 .L0 
     /tmp/cczxdMQq.s:1905   .text:0000000000000a74 .L0 
     /tmp/cczxdMQq.s:1910   .text:0000000000000a84 .L0 
     /tmp/cczxdMQq.s:1915   .text:0000000000000a8c .L0 
     /tmp/cczxdMQq.s:1919   .text:0000000000000a90 .L0 
     /tmp/cczxdMQq.s:1922   .text:0000000000000a98 .L0 
     /tmp/cczxdMQq.s:1923   .text:0000000000000a98 .L0 
     /tmp/cczxdMQq.s:1927   .text:0000000000000aa4 .L0 
     /tmp/cczxdMQq.s:1932   .text:0000000000000ab4 .L0 
     /tmp/cczxdMQq.s:1937   .text:0000000000000ab8 .L0 
     /tmp/cczxdMQq.s:1938   .text:0000000000000abc .L0 
     /tmp/cczxdMQq.s:1939   .text:0000000000000abc .L0 
     /tmp/cczxdMQq.s:1941   .text:0000000000000ac0 .L0 
     /tmp/cczxdMQq.s:1942   .text:0000000000000ac0 .L0 
     /tmp/cczxdMQq.s:1944   .text:0000000000000ac4 .L0 
     /tmp/cczxdMQq.s:1946   .text:0000000000000ac8 .L0 
     /tmp/cczxdMQq.s:1948   .text:0000000000000acc .L0 
     /tmp/cczxdMQq.s:1952   .text:0000000000000ad0 .L0 
     /tmp/cczxdMQq.s:1954   .text:0000000000000ad0 .L0 
     /tmp/cczxdMQq.s:1958   .text:0000000000000ad4 .L0 
     /tmp/cczxdMQq.s:1959   .text:0000000000000ad4 .L0 
     /tmp/cczxdMQq.s:1963   .text:0000000000000ad8 .L0 
     /tmp/cczxdMQq.s:1967   .text:0000000000000adc .L0 
     /tmp/cczxdMQq.s:1971   .text:0000000000000ae4 .L0 
     /tmp/cczxdMQq.s:1972   .text:0000000000000ae4 .L0 
     /tmp/cczxdMQq.s:1979   .text:0000000000000afc .L0 
     /tmp/cczxdMQq.s:1981   .text:0000000000000b00 .L0 
     /tmp/cczxdMQq.s:1982   .text:0000000000000b00 .L0 
     /tmp/cczxdMQq.s:1986   .text:0000000000000b08 .L0 
     /tmp/cczxdMQq.s:1990   .text:0000000000000b14 .L0 
     /tmp/cczxdMQq.s:1995   .text:0000000000000b24 .L0 
     /tmp/cczxdMQq.s:1998   .text:0000000000000b28 .L0 
     /tmp/cczxdMQq.s:1999   .text:0000000000000b28 .L0 
     /tmp/cczxdMQq.s:2002   .text:0000000000000b2c .L0 
     /tmp/cczxdMQq.s:2008   .text:0000000000000b30 .L0 
     /tmp/cczxdMQq.s:2012   .text:0000000000000b34 .L0 
     /tmp/cczxdMQq.s:2016   .text:0000000000000b3c .L0 
     /tmp/cczxdMQq.s:2017   .text:0000000000000b3c .L0 
     /tmp/cczxdMQq.s:2024   .text:0000000000000b54 .L0 
     /tmp/cczxdMQq.s:2026   .text:0000000000000b58 .L0 
     /tmp/cczxdMQq.s:2027   .text:0000000000000b58 .L0 
     /tmp/cczxdMQq.s:2032   .text:0000000000000b64 .L0 
     /tmp/cczxdMQq.s:2037   .text:0000000000000b74 .L0 
     /tmp/cczxdMQq.s:2040   .text:0000000000000b78 .L0 
     /tmp/cczxdMQq.s:2041   .text:0000000000000b78 .L0 
     /tmp/cczxdMQq.s:2044   .text:0000000000000b7c .L0 
     /tmp/cczxdMQq.s:2049   .text:0000000000000b80 .L0 
     /tmp/cczxdMQq.s:2050   .text:0000000000000b80 .L0 
GAS LISTING /tmp/cczxdMQq.s 			page 86


     /tmp/cczxdMQq.s:2054   .text:0000000000000b84 .L0 
     /tmp/cczxdMQq.s:2058   .text:0000000000000b88 .L0 
     /tmp/cczxdMQq.s:2059   .text:0000000000000b88 .L0 
     /tmp/cczxdMQq.s:2063   .text:0000000000000b9c .L0 
     /tmp/cczxdMQq.s:2069   .text:0000000000000b9c _Z21memoryAllocationTestsv
     /tmp/cczxdMQq.s:2072   .text:0000000000000b9c .L0 
     /tmp/cczxdMQq.s:2073   .text:0000000000000b9c .L0 
     /tmp/cczxdMQq.s:2074   .text:0000000000000ba0 .L0 
     /tmp/cczxdMQq.s:2077   .text:0000000000000ba8 .L0 
     /tmp/cczxdMQq.s:2078   .text:0000000000000ba8 .L0 
     /tmp/cczxdMQq.s:2080   .text:0000000000000bac .L0 
     /tmp/cczxdMQq.s:2082   .text:0000000000000bac .L0 
     /tmp/cczxdMQq.s:2083   .text:0000000000000bac .L0 
     /tmp/cczxdMQq.s:2086   .text:0000000000000bb4 .L0 
     /tmp/cczxdMQq.s:2087   .text:0000000000000bb8 .L0 
     /tmp/cczxdMQq.s:2089   .text:0000000000000bbc .L0 
     /tmp/cczxdMQq.s:2090   .text:0000000000000bbc .L0 
     /tmp/cczxdMQq.s:2092   .text:0000000000000bc0 .L0 
     /tmp/cczxdMQq.s:2094   .text:0000000000000bc4 .L0 
     /tmp/cczxdMQq.s:2100   .text:0000000000000bc4 _Z8semTest1v
     /tmp/cczxdMQq.s:2103   .text:0000000000000bc4 .L0 
     /tmp/cczxdMQq.s:2106   .text:0000000000000bc4 .L0 
     /tmp/cczxdMQq.s:2107   .text:0000000000000bc8 .L0 
     /tmp/cczxdMQq.s:2112   .text:0000000000000bd8 .L0 
     /tmp/cczxdMQq.s:2113   .text:0000000000000bd8 .L0 
     /tmp/cczxdMQq.s:2114   .text:0000000000000bd8 .L0 
     /tmp/cczxdMQq.s:2115   .text:0000000000000bd8 .L0 
     /tmp/cczxdMQq.s:2117   .text:0000000000000bdc .L0 
     /tmp/cczxdMQq.s:2119   .text:0000000000000bdc .L0 
     /tmp/cczxdMQq.s:2120   .text:0000000000000bdc .L0 
     /tmp/cczxdMQq.s:2132   .text:0000000000000bf8 .L0 
     /tmp/cczxdMQq.s:2134   .text:0000000000000c00 .L0 
     /tmp/cczxdMQq.s:2135   .text:0000000000000c00 .L0 
     /tmp/cczxdMQq.s:2148   .text:0000000000000c24 .L0 
     /tmp/cczxdMQq.s:2149   .text:0000000000000c24 .L0 
     /tmp/cczxdMQq.s:2162   .text:0000000000000c48 .L0 
     /tmp/cczxdMQq.s:2163   .text:0000000000000c48 .L0 
     /tmp/cczxdMQq.s:2168   .text:0000000000000c54 .L0 
     /tmp/cczxdMQq.s:2169   .text:0000000000000c54 .L0 
     /tmp/cczxdMQq.s:2173   .text:0000000000000c60 .L0 
     /tmp/cczxdMQq.s:2174   .text:0000000000000c60 .L0 
     /tmp/cczxdMQq.s:2178   .text:0000000000000c64 .L0 
     /tmp/cczxdMQq.s:2179   .text:0000000000000c64 .L0 
     /tmp/cczxdMQq.s:2180   .text:0000000000000c64 .L0 
     /tmp/cczxdMQq.s:2183   .text:0000000000000c68 .L0 
     /tmp/cczxdMQq.s:2184   .text:0000000000000c68 .L0 
     /tmp/cczxdMQq.s:2188   .text:0000000000000c70 .L0 
     /tmp/cczxdMQq.s:2192   .text:0000000000000c7c .L0 
     /tmp/cczxdMQq.s:2193   .text:0000000000000c80 .L0 
     /tmp/cczxdMQq.s:2194   .text:0000000000000c80 .L0 
     /tmp/cczxdMQq.s:2196   .text:0000000000000c84 .L0 
     /tmp/cczxdMQq.s:2197   .text:0000000000000c84 .L0 
     /tmp/cczxdMQq.s:2199   .text:0000000000000c88 .L0 
     /tmp/cczxdMQq.s:2201   .text:0000000000000c8c .L0 
     /tmp/cczxdMQq.s:2204   .text:0000000000000c90 .L0 
     /tmp/cczxdMQq.s:2207   .text:0000000000000c94 .L0 
     /tmp/cczxdMQq.s:2210   .text:0000000000000c98 .L0 
GAS LISTING /tmp/cczxdMQq.s 			page 87


     /tmp/cczxdMQq.s:2221   .text:0000000000000cb4 .L0 
     /tmp/cczxdMQq.s:2233   .text:0000000000000cd0 .L0 
     /tmp/cczxdMQq.s:2241   .text:0000000000000ce8 .L0 
     /tmp/cczxdMQq.s:2294   .text:0000000000000ce8 _Z8semTest2v
     /tmp/cczxdMQq.s:2297   .text:0000000000000ce8 .L0 
     /tmp/cczxdMQq.s:2300   .text:0000000000000ce8 .L0 
     /tmp/cczxdMQq.s:2301   .text:0000000000000cec .L0 
     /tmp/cczxdMQq.s:2307   .text:0000000000000d00 .L0 
     /tmp/cczxdMQq.s:2308   .text:0000000000000d00 .L0 
     /tmp/cczxdMQq.s:2309   .text:0000000000000d00 .L0 
     /tmp/cczxdMQq.s:2310   .text:0000000000000d00 .L0 
     /tmp/cczxdMQq.s:2311   .text:0000000000000d00 .L0 
     /tmp/cczxdMQq.s:2313   .text:0000000000000d04 .L0 
     /tmp/cczxdMQq.s:2315   .text:0000000000000d04 .L0 
     /tmp/cczxdMQq.s:2316   .text:0000000000000d04 .L0 
     /tmp/cczxdMQq.s:2328   .text:0000000000000d20 .L0 
     /tmp/cczxdMQq.s:2330   .text:0000000000000d28 .L0 
     /tmp/cczxdMQq.s:2331   .text:0000000000000d28 .L0 
     /tmp/cczxdMQq.s:2343   .text:0000000000000d44 .L0 
     /tmp/cczxdMQq.s:2345   .text:0000000000000d4c .L0 
     /tmp/cczxdMQq.s:2346   .text:0000000000000d4c .L0 
     /tmp/cczxdMQq.s:2358   .text:0000000000000d68 .L0 
     /tmp/cczxdMQq.s:2360   .text:0000000000000d70 .L0 
     /tmp/cczxdMQq.s:2361   .text:0000000000000d70 .L0 
     /tmp/cczxdMQq.s:2374   .text:0000000000000d94 .L0 
     /tmp/cczxdMQq.s:2375   .text:0000000000000d94 .L0 
     /tmp/cczxdMQq.s:2388   .text:0000000000000db8 .L0 
     /tmp/cczxdMQq.s:2389   .text:0000000000000db8 .L0 
     /tmp/cczxdMQq.s:2402   .text:0000000000000ddc .L0 
     /tmp/cczxdMQq.s:2403   .text:0000000000000ddc .L0 
     /tmp/cczxdMQq.s:2408   .text:0000000000000de8 .L0 
     /tmp/cczxdMQq.s:2409   .text:0000000000000de8 .L0 
     /tmp/cczxdMQq.s:2413   .text:0000000000000df4 .L0 
     /tmp/cczxdMQq.s:2414   .text:0000000000000df4 .L0 
     /tmp/cczxdMQq.s:2418   .text:0000000000000e00 .L0 
     /tmp/cczxdMQq.s:2419   .text:0000000000000e00 .L0 
     /tmp/cczxdMQq.s:2423   .text:0000000000000e04 .L0 
     /tmp/cczxdMQq.s:2424   .text:0000000000000e04 .L0 
     /tmp/cczxdMQq.s:2425   .text:0000000000000e04 .L0 
     /tmp/cczxdMQq.s:2428   .text:0000000000000e08 .L0 
     /tmp/cczxdMQq.s:2429   .text:0000000000000e08 .L0 
     /tmp/cczxdMQq.s:2433   .text:0000000000000e10 .L0 
     /tmp/cczxdMQq.s:2437   .text:0000000000000e1c .L0 
     /tmp/cczxdMQq.s:2438   .text:0000000000000e20 .L0 
     /tmp/cczxdMQq.s:2439   .text:0000000000000e20 .L0 
     /tmp/cczxdMQq.s:2441   .text:0000000000000e24 .L0 
     /tmp/cczxdMQq.s:2442   .text:0000000000000e24 .L0 
     /tmp/cczxdMQq.s:2444   .text:0000000000000e28 .L0 
     /tmp/cczxdMQq.s:2446   .text:0000000000000e2c .L0 
     /tmp/cczxdMQq.s:2449   .text:0000000000000e30 .L0 
     /tmp/cczxdMQq.s:2452   .text:0000000000000e34 .L0 
     /tmp/cczxdMQq.s:2455   .text:0000000000000e38 .L0 
     /tmp/cczxdMQq.s:2458   .text:0000000000000e3c .L0 
     /tmp/cczxdMQq.s:2469   .text:0000000000000e58 .L0 
     /tmp/cczxdMQq.s:2480   .text:0000000000000e74 .L0 
     /tmp/cczxdMQq.s:2491   .text:0000000000000e90 .L0 
     /tmp/cczxdMQq.s:2502   .text:0000000000000eac .L0 
GAS LISTING /tmp/cczxdMQq.s 			page 88


     /tmp/cczxdMQq.s:2514   .text:0000000000000ec8 .L0 
     /tmp/cczxdMQq.s:2522   .text:0000000000000ee0 .L0 
     /tmp/cczxdMQq.s:2611   .text:0000000000000ee0 _Z14semaphoreTestsv
     /tmp/cczxdMQq.s:2614   .text:0000000000000ee0 .L0 
     /tmp/cczxdMQq.s:2615   .text:0000000000000ee0 .L0 
     /tmp/cczxdMQq.s:2616   .text:0000000000000ee4 .L0 
     /tmp/cczxdMQq.s:2619   .text:0000000000000eec .L0 
     /tmp/cczxdMQq.s:2620   .text:0000000000000eec .L0 
     /tmp/cczxdMQq.s:2622   .text:0000000000000ef0 .L0 
     /tmp/cczxdMQq.s:2624   .text:0000000000000ef0 .L0 
     /tmp/cczxdMQq.s:2625   .text:0000000000000ef0 .L0 
     /tmp/cczxdMQq.s:2628   .text:0000000000000ef8 .L0 
     /tmp/cczxdMQq.s:2629   .text:0000000000000efc .L0 
     /tmp/cczxdMQq.s:2631   .text:0000000000000f00 .L0 
     /tmp/cczxdMQq.s:2632   .text:0000000000000f00 .L0 
     /tmp/cczxdMQq.s:2634   .text:0000000000000f04 .L0 
     /tmp/cczxdMQq.s:2636   .text:0000000000000f08 .L0 
     /tmp/cczxdMQq.s:2642   .text:0000000000000f08 _ZN12TestPeriodicC2Em
     /tmp/cczxdMQq.s:2645   .text:0000000000000f08 .L0 
     /tmp/cczxdMQq.s:2647   .text:0000000000000f08 .L0 
     /tmp/cczxdMQq.s:2648   .text:0000000000000f0c .L0 
     /tmp/cczxdMQq.s:2652   .text:0000000000000f18 .L0 
     /tmp/cczxdMQq.s:2653   .text:0000000000000f18 .L0 
     /tmp/cczxdMQq.s:2654   .text:0000000000000f18 .L0 
     /tmp/cczxdMQq.s:2656   .text:0000000000000f1c .L0 
     /tmp/cczxdMQq.s:2660   .text:0000000000000f20 .L0 
     /tmp/cczxdMQq.s:2826   .data.rel.ro.local._ZTV12TestPeriodic:0000000000000000 _ZTV12TestPeriodic
     /tmp/cczxdMQq.s:2666   .text:0000000000000f34 .L0 
     /tmp/cczxdMQq.s:2667   .text:0000000000000f38 .L0 
     /tmp/cczxdMQq.s:2669   .text:0000000000000f3c .L0 
     /tmp/cczxdMQq.s:2670   .text:0000000000000f3c .L0 
     /tmp/cczxdMQq.s:2672   .text:0000000000000f40 .L0 
     /tmp/cczxdMQq.s:2675   .text:0000000000000f44 .L0 
     /tmp/cczxdMQq.s:2677   .text:0000000000000f48 .L0 
     /tmp/cczxdMQq.s:2642   .text:0000000000000f08 _ZN12TestPeriodicC1Em
     /tmp/cczxdMQq.s:2685   .text:0000000000000f48 _Z11threadTest3v
     /tmp/cczxdMQq.s:2688   .text:0000000000000f48 .L0 
     /tmp/cczxdMQq.s:2691   .text:0000000000000f48 .L0 
     /tmp/cczxdMQq.s:2692   .text:0000000000000f4c .L0 
     /tmp/cczxdMQq.s:2697   .text:0000000000000f5c .L0 
     /tmp/cczxdMQq.s:2698   .text:0000000000000f5c .L0 
     /tmp/cczxdMQq.s:2699   .text:0000000000000f5c .L0 
     /tmp/cczxdMQq.s:2700   .text:0000000000000f5c .L0 
     /tmp/cczxdMQq.s:2702   .text:0000000000000f60 .L0 
     /tmp/cczxdMQq.s:2704   .text:0000000000000f60 .L0 
     /tmp/cczxdMQq.s:2705   .text:0000000000000f60 .L0 
     /tmp/cczxdMQq.s:2717   .text:0000000000000f7c .L0 
     /tmp/cczxdMQq.s:2718   .text:0000000000000f7c .L0 
     /tmp/cczxdMQq.s:2725   .text:0000000000000f88 .L0 
     /tmp/cczxdMQq.s:2726   .text:0000000000000f88 .L0 
     /tmp/cczxdMQq.s:2731   .text:0000000000000f90 .L0 
     /tmp/cczxdMQq.s:2739   .text:0000000000000fa8 .L0 
     /tmp/cczxdMQq.s:2768   .text:0000000000000fa8 _Z11threadTestsv
     /tmp/cczxdMQq.s:2771   .text:0000000000000fa8 .L0 
     /tmp/cczxdMQq.s:2772   .text:0000000000000fa8 .L0 
     /tmp/cczxdMQq.s:2773   .text:0000000000000fac .L0 
     /tmp/cczxdMQq.s:2776   .text:0000000000000fb4 .L0 
GAS LISTING /tmp/cczxdMQq.s 			page 89


     /tmp/cczxdMQq.s:2777   .text:0000000000000fb4 .L0 
     /tmp/cczxdMQq.s:2779   .text:0000000000000fb8 .L0 
     /tmp/cczxdMQq.s:2781   .text:0000000000000fb8 .L0 
     /tmp/cczxdMQq.s:2782   .text:0000000000000fb8 .L0 
     /tmp/cczxdMQq.s:2784   .text:0000000000000fc0 .L0 
     /tmp/cczxdMQq.s:2790   .text:0000000000000fc0 _Z7myTestsv
     /tmp/cczxdMQq.s:2793   .text:0000000000000fc0 .L0 
     /tmp/cczxdMQq.s:2794   .text:0000000000000fc0 .L0 
     /tmp/cczxdMQq.s:2795   .text:0000000000000fc4 .L0 
     /tmp/cczxdMQq.s:2798   .text:0000000000000fcc .L0 
     /tmp/cczxdMQq.s:2799   .text:0000000000000fcc .L0 
     /tmp/cczxdMQq.s:2801   .text:0000000000000fd0 .L0 
     /tmp/cczxdMQq.s:2803   .text:0000000000000fd0 .L0 
     /tmp/cczxdMQq.s:2804   .text:0000000000000fd0 .L0 
     /tmp/cczxdMQq.s:2806   .text:0000000000000fd8 .L0 
     /tmp/cczxdMQq.s:2835   .bss:0000000000000000 .LANCHOR0
     /tmp/cczxdMQq.s:2838   .bss:0000000000000000 _ZL5mutex
     /tmp/cczxdMQq.s:2842   .bss:0000000000000008 _ZL2s1
     /tmp/cczxdMQq.s:2846   .bss:0000000000000010 _ZL2s2
     /tmp/cczxdMQq.s:2850   .bss:0000000000000018 _ZL2s3
     /tmp/cczxdMQq.s:32     .text._ZN6Thread3runEv:0000000000000018 .L0 
     /tmp/cczxdMQq.s:57     .text._ZN14PeriodicThread18periodicActivationEv:0000000000000018 .L0 
     /tmp/cczxdMQq.s:2858   .text:0000000000000fd8 .L0 
     /tmp/cczxdMQq.s:843    .text._ZN14PeriodicThreadD2Ev:0000000000000034 .L0 
     /tmp/cczxdMQq.s:890    .text._ZN14PeriodicThreadD0Ev:000000000000004c .L0 
     /tmp/cczxdMQq.s:932    .text._ZN12TestPeriodicD2Ev:0000000000000034 .L0 
     /tmp/cczxdMQq.s:982    .text._ZN12TestPeriodicD0Ev:000000000000004c .L0 
     /tmp/cczxdMQq.s:59     .rodata.str1.8:0000000000000000 .LC0
     /tmp/cczxdMQq.s:84     .text:0000000000000010 .L0 
     /tmp/cczxdMQq.s:98     .rodata.str1.8:0000000000000008 .LC1
     /tmp/cczxdMQq.s:127    .text:0000000000000040 .L0 
     /tmp/cczxdMQq.s:101    .rodata.str1.8:0000000000000020 .LC2
     /tmp/cczxdMQq.s:146    .text:0000000000000060 .L0 
     /tmp/cczxdMQq.s:104    .rodata.str1.8:0000000000000028 .LC3
     /tmp/cczxdMQq.s:156    .text:000000000000007c .L0 
     /tmp/cczxdMQq.s:195    .rodata.str1.8:0000000000000030 .LC4
     /tmp/cczxdMQq.s:221    .text:00000000000000d8 .L0 
     /tmp/cczxdMQq.s:198    .rodata.str1.8:0000000000000048 .LC5
     /tmp/cczxdMQq.s:240    .text:00000000000000f8 .L0 
     /tmp/cczxdMQq.s:250    .text:0000000000000114 .L0 
     /tmp/cczxdMQq.s:318    .text:0000000000000180 .L0 
     /tmp/cczxdMQq.s:368    .text:00000000000001cc .L0 
     /tmp/cczxdMQq.s:393    .text:00000000000001f8 .L0 
     /tmp/cczxdMQq.s:403    .text:0000000000000214 .L0 
     /tmp/cczxdMQq.s:446    .rodata.str1.8:0000000000000050 .LC6
     /tmp/cczxdMQq.s:471    .text:000000000000027c .L0 
     /tmp/cczxdMQq.s:493    .text:00000000000002a0 .L0 
     /tmp/cczxdMQq.s:516    .rodata.str1.8:0000000000000060 .LC7
     /tmp/cczxdMQq.s:539    .text:00000000000002ec .L0 
     /tmp/cczxdMQq.s:548    .text:00000000000002fc .L0 
     /tmp/cczxdMQq.s:568    .rodata.str1.8:0000000000000070 .LC8
     /tmp/cczxdMQq.s:593    .text:0000000000000340 .L0 
     /tmp/cczxdMQq.s:615    .text:0000000000000364 .L0 
     /tmp/cczxdMQq.s:648    .rodata.str1.8:0000000000000080 .LC9
     /tmp/cczxdMQq.s:673    .text:00000000000003cc .L0 
     /tmp/cczxdMQq.s:695    .text:00000000000003f0 .L0 
     /tmp/cczxdMQq.s:728    .rodata.str1.8:0000000000000090 .LC10
GAS LISTING /tmp/cczxdMQq.s 			page 90


     /tmp/cczxdMQq.s:753    .text:0000000000000458 .L0 
     /tmp/cczxdMQq.s:775    .text:000000000000047c .L0 
     /tmp/cczxdMQq.s:1020   .text:00000000000004f8 .L0 
     /tmp/cczxdMQq.s:1039   .text:0000000000000528 .L0 
     /tmp/cczxdMQq.s:984    .rodata.str1.8:00000000000000a0 .LC11
     /tmp/cczxdMQq.s:1058   .text:0000000000000550 .L0 
     /tmp/cczxdMQq.s:987    .rodata.str1.8:00000000000000b0 .LC12
     /tmp/cczxdMQq.s:1099   .text:0000000000000588 .L0 
     /tmp/cczxdMQq.s:1216   .text:000000000000061c .L0 
     /tmp/cczxdMQq.s:1235   .text:000000000000064c .L0 
     /tmp/cczxdMQq.s:1255   .text:000000000000067c .L0 
     /tmp/cczxdMQq.s:1289   .text:00000000000006b0 .L0 
     /tmp/cczxdMQq.s:1401   .rodata.str1.8:00000000000000b8 .LC13
     /tmp/cczxdMQq.s:1429   .text:0000000000000748 .L0 
     /tmp/cczxdMQq.s:1404   .rodata.str1.8:00000000000000c8 .LC14
     /tmp/cczxdMQq.s:1459   .text:000000000000078c .L0 
     /tmp/cczxdMQq.s:1511   .text:00000000000007e0 .L0 
     /tmp/cczxdMQq.s:1549   .text:0000000000000828 .L0 
     /tmp/cczxdMQq.s:1585   .text:000000000000086c .L0 
     /tmp/cczxdMQq.s:1407   .rodata.str1.8:00000000000000d0 .LC15
     /tmp/cczxdMQq.s:1596   .text:0000000000000880 .L0 
     /tmp/cczxdMQq.s:1605   .rodata.str1.8:00000000000000d8 .LC16
     /tmp/cczxdMQq.s:1625   .text:00000000000008a4 .L0 
     /tmp/cczxdMQq.s:1630   .text:00000000000008b4 .L0 
     /tmp/cczxdMQq.s:1632   .text:00000000000008c0 .L0 
     /tmp/cczxdMQq.s:1646   .text:00000000000008e0 .L0 
     /tmp/cczxdMQq.s:1666   .text:0000000000000900 .L0 
     /tmp/cczxdMQq.s:1676   .rodata.str1.8:00000000000000e8 .LC17
     /tmp/cczxdMQq.s:1702   .text:0000000000000930 .L0 
     /tmp/cczxdMQq.s:1763   .text:000000000000098c .L0 
     /tmp/cczxdMQq.s:1776   .text:00000000000009ac .L0 
     /tmp/cczxdMQq.s:1803   .text:00000000000009d8 .L0 
     /tmp/cczxdMQq.s:1812   .rodata.str1.8:0000000000000100 .LC18
     /tmp/cczxdMQq.s:1832   .text:00000000000009fc .L0 
     /tmp/cczxdMQq.s:1850   .text:0000000000000a28 .L0 
     /tmp/cczxdMQq.s:1870   .text:0000000000000a48 .L0 
     /tmp/cczxdMQq.s:1881   .rodata.str1.8:0000000000000110 .LC19
     /tmp/cczxdMQq.s:1905   .text:0000000000000a74 .L0 
     /tmp/cczxdMQq.s:2059   .text:0000000000000b88 .L0 
     /tmp/cczxdMQq.s:2132   .text:0000000000000bf8 .L0 
     /tmp/cczxdMQq.s:2142   .text:0000000000000c14 .L0 
     /tmp/cczxdMQq.s:2156   .text:0000000000000c38 .L0 
     /tmp/cczxdMQq.s:2328   .text:0000000000000d20 .L0 
     /tmp/cczxdMQq.s:2343   .text:0000000000000d44 .L0 
     /tmp/cczxdMQq.s:2358   .text:0000000000000d68 .L0 
     /tmp/cczxdMQq.s:2368   .text:0000000000000d84 .L0 
     /tmp/cczxdMQq.s:2382   .text:0000000000000da8 .L0 
     /tmp/cczxdMQq.s:2396   .text:0000000000000dcc .L0 
     /tmp/cczxdMQq.s:2662   .text:0000000000000f28 .L0 
     /tmp/cczxdMQq.s:80     .text:0000000000000010 .L6
     /tmp/cczxdMQq.s:162    .text:0000000000000090 .L11
     /tmp/cczxdMQq.s:176    .text:00000000000000b0 .L8
     /tmp/cczxdMQq.s:143    .text:0000000000000060 .L10
     /tmp/cczxdMQq.s:138    .text:0000000000000058 .L13
     /tmp/cczxdMQq.s:256    .text:0000000000000128 .L17
     /tmp/cczxdMQq.s:270    .text:0000000000000148 .L14
     /tmp/cczxdMQq.s:237    .text:00000000000000f8 .L16
GAS LISTING /tmp/cczxdMQq.s 			page 91


     /tmp/cczxdMQq.s:232    .text:00000000000000f0 .L19
     /tmp/cczxdMQq.s:331    .text:00000000000001a4 .L20
     /tmp/cczxdMQq.s:311    .text:0000000000000174 .L22
     /tmp/cczxdMQq.s:409    .text:0000000000000228 .L28
     /tmp/cczxdMQq.s:417    .text:000000000000023c .L26
     /tmp/cczxdMQq.s:427    .text:0000000000000250 .L24
     /tmp/cczxdMQq.s:379    .text:00000000000001e4 .L30
     /tmp/cczxdMQq.s:390    .text:00000000000001f8 .L27
     /tmp/cczxdMQq.s:385    .text:00000000000001f0 .L31
     /tmp/cczxdMQq.s:485    .text:000000000000029c .L33
     /tmp/cczxdMQq.s:480    .text:0000000000000294 .L34
     /tmp/cczxdMQq.s:544    .text:00000000000002fc .L38
     /tmp/cczxdMQq.s:607    .text:0000000000000360 .L41
     /tmp/cczxdMQq.s:602    .text:0000000000000358 .L42
     /tmp/cczxdMQq.s:687    .text:00000000000003ec .L46
     /tmp/cczxdMQq.s:682    .text:00000000000003e4 .L47
     /tmp/cczxdMQq.s:767    .text:0000000000000478 .L51
     /tmp/cczxdMQq.s:762    .text:0000000000000470 .L52
     /tmp/cczxdMQq.s:1065   .text:0000000000000568 .L66
     /tmp/cczxdMQq.s:1055   .text:0000000000000550 .L64
     /tmp/cczxdMQq.s:1270   .text:00000000000006a0 .L74
     /tmp/cczxdMQq.s:1441   .text:0000000000000764 .L87
     /tmp/cczxdMQq.s:1478   .text:00000000000007b0 .L95
     /tmp/cczxdMQq.s:1437   .text:0000000000000760 .L85
     /tmp/cczxdMQq.s:1517   .text:00000000000007f4 .L96
     /tmp/cczxdMQq.s:1507   .text:00000000000007e0 .L99
     /tmp/cczxdMQq.s:1484   .text:00000000000007b4 .L84
     /tmp/cczxdMQq.s:1463   .text:000000000000079c .L83
     /tmp/cczxdMQq.s:1531   .text:0000000000000800 .L88
     /tmp/cczxdMQq.s:1554   .text:000000000000083c .L97
     /tmp/cczxdMQq.s:1526   .text:00000000000007fc .L91
     /tmp/cczxdMQq.s:1591   .text:0000000000000880 .L92
     /tmp/cczxdMQq.s:1581   .text:000000000000086c .L100
     /tmp/cczxdMQq.s:1560   .text:0000000000000840 .L90
     /tmp/cczxdMQq.s:1662   .text:0000000000000900 .L105
     /tmp/cczxdMQq.s:1650   .text:00000000000008f0 .L101
     /tmp/cczxdMQq.s:1739   .text:0000000000000964 .L108
     /tmp/cczxdMQq.s:1753   .text:0000000000000980 .L107
     /tmp/cczxdMQq.s:1720   .text:0000000000000950 .L112
     /tmp/cczxdMQq.s:1799   .text:00000000000009d8 .L113
     /tmp/cczxdMQq.s:1779   .text:00000000000009bc .L106
     /tmp/cczxdMQq.s:1866   .text:0000000000000a48 .L115
     /tmp/cczxdMQq.s:1854   .text:0000000000000a38 .L114
     /tmp/cczxdMQq.s:1917   .text:0000000000000a90 .L121
     /tmp/cczxdMQq.s:1951   .text:0000000000000ad0 .L127
     /tmp/cczxdMQq.s:1913   .text:0000000000000a8c .L130
     /tmp/cczxdMQq.s:2056   .text:0000000000000b88 .L122
     /tmp/cczxdMQq.s:2004   .text:0000000000000b30 .L128
     /tmp/cczxdMQq.s:1934   .text:0000000000000ab8 .L118
     /tmp/cczxdMQq.s:1964   .text:0000000000000adc .L124
     /tmp/cczxdMQq.s:2046   .text:0000000000000b80 .L125
     /tmp/cczxdMQq.s:2010   .text:0000000000000b34 .L123
     /tmp/cczxdMQq.s:1956   .text:0000000000000ad4 .L119
     /tmp/cczxdMQq.s:2176   .text:0000000000000c64 .L134
     /tmp/cczxdMQq.s:2421   .text:0000000000000e04 .L144
     /tmp/cczxdMQq.s:2723   .text:0000000000000f88 .L164
     /tmp/cczxdMQq.s:825    .text._ZN14PeriodicThreadD2Ev:0000000000000010 .L0 
GAS LISTING /tmp/cczxdMQq.s 			page 92


     /tmp/cczxdMQq.s:867    .text._ZN14PeriodicThreadD0Ev:0000000000000018 .L0 
     /tmp/cczxdMQq.s:912    .text._ZN12TestPeriodicD2Ev:0000000000000010 .L0 
     /tmp/cczxdMQq.s:957    .text._ZN12TestPeriodicD0Ev:0000000000000018 .L0 
     /tmp/cczxdMQq.s:1014   .text:00000000000004e8 .LEHB0
     /tmp/cczxdMQq.s:994    .text:00000000000004cc .LFB27
     /tmp/cczxdMQq.s:1017   .text:00000000000004f0 .LEHE0
     /tmp/cczxdMQq.s:1021   .text:0000000000000500 .LEHB1
     /tmp/cczxdMQq.s:1024   .text:0000000000000508 .LEHE1
     /tmp/cczxdMQq.s:1123   .text:00000000000005b8 .L69
     /tmp/cczxdMQq.s:1028   .text:000000000000050c .LEHB2
     /tmp/cczxdMQq.s:1036   .text:0000000000000520 .LEHE2
     /tmp/cczxdMQq.s:1040   .text:0000000000000530 .LEHB3
     /tmp/cczxdMQq.s:1043   .text:0000000000000538 .LEHE3
     /tmp/cczxdMQq.s:1135   .text:00000000000005d4 .L70
     /tmp/cczxdMQq.s:1047   .text:000000000000053c .LEHB4
     /tmp/cczxdMQq.s:1106   .text:00000000000005a0 .LEHE4
     /tmp/cczxdMQq.s:1131   .text:00000000000005cc .LEHB5
     /tmp/cczxdMQq.s:1134   .text:00000000000005d4 .LEHE5
     /tmp/cczxdMQq.s:1143   .text:00000000000005e8 .LEHB6
     /tmp/cczxdMQq.s:1146   .text:00000000000005f0 .LEHE6
     /tmp/cczxdMQq.s:1210   .text:000000000000060c .LEHB7
     /tmp/cczxdMQq.s:1190   .text:00000000000005f0 .LFB28
     /tmp/cczxdMQq.s:1213   .text:0000000000000614 .LEHE7
     /tmp/cczxdMQq.s:1217   .text:0000000000000624 .LEHB8
     /tmp/cczxdMQq.s:1220   .text:000000000000062c .LEHE8
     /tmp/cczxdMQq.s:1313   .text:00000000000006e0 .L78
     /tmp/cczxdMQq.s:1224   .text:0000000000000630 .LEHB9
     /tmp/cczxdMQq.s:1232   .text:0000000000000644 .LEHE9
     /tmp/cczxdMQq.s:1236   .text:0000000000000654 .LEHB10
     /tmp/cczxdMQq.s:1239   .text:000000000000065c .LEHE10
     /tmp/cczxdMQq.s:1325   .text:00000000000006fc .L79
     /tmp/cczxdMQq.s:1243   .text:0000000000000660 .LEHB11
     /tmp/cczxdMQq.s:1251   .text:0000000000000674 .LEHE11
     /tmp/cczxdMQq.s:1256   .text:0000000000000684 .LEHB12
     /tmp/cczxdMQq.s:1259   .text:000000000000068c .LEHE12
     /tmp/cczxdMQq.s:1337   .text:0000000000000718 .L80
     /tmp/cczxdMQq.s:1263   .text:0000000000000690 .LEHB13
     /tmp/cczxdMQq.s:1296   .text:00000000000006c8 .LEHE13
     /tmp/cczxdMQq.s:1321   .text:00000000000006f4 .LEHB14
     /tmp/cczxdMQq.s:1324   .text:00000000000006fc .LEHE14
     /tmp/cczxdMQq.s:1333   .text:0000000000000710 .LEHB15
     /tmp/cczxdMQq.s:1336   .text:0000000000000718 .LEHE15
     /tmp/cczxdMQq.s:1345   .text:000000000000072c .LEHB16
     /tmp/cczxdMQq.s:1348   .text:0000000000000734 .LEHE16
     /tmp/cczxdMQq.s:2121   .text:0000000000000be0 .LEHB17
     /tmp/cczxdMQq.s:2101   .text:0000000000000bc4 .LFB39
     /tmp/cczxdMQq.s:2124   .text:0000000000000be8 .LEHE17
     /tmp/cczxdMQq.s:2127   .text:0000000000000bf0 .LEHB18
     /tmp/cczxdMQq.s:2130   .text:0000000000000bf8 .LEHE18
     /tmp/cczxdMQq.s:2206   .text:0000000000000c94 .L138
     /tmp/cczxdMQq.s:2136   .text:0000000000000c04 .LEHB19
     /tmp/cczxdMQq.s:2139   .text:0000000000000c0c .LEHE19
     /tmp/cczxdMQq.s:2143   .text:0000000000000c1c .LEHB20
     /tmp/cczxdMQq.s:2146   .text:0000000000000c24 .LEHE20
     /tmp/cczxdMQq.s:2218   .text:0000000000000cb0 .L139
     /tmp/cczxdMQq.s:2150   .text:0000000000000c28 .LEHB21
     /tmp/cczxdMQq.s:2153   .text:0000000000000c30 .LEHE21
GAS LISTING /tmp/cczxdMQq.s 			page 93


     /tmp/cczxdMQq.s:2157   .text:0000000000000c40 .LEHB22
     /tmp/cczxdMQq.s:2160   .text:0000000000000c48 .LEHE22
     /tmp/cczxdMQq.s:2229   .text:0000000000000ccc .L140
     /tmp/cczxdMQq.s:2164   .text:0000000000000c4c .LEHB23
     /tmp/cczxdMQq.s:2186   .text:0000000000000c70 .LEHE23
     /tmp/cczxdMQq.s:2214   .text:0000000000000ca8 .LEHB24
     /tmp/cczxdMQq.s:2217   .text:0000000000000cb0 .LEHE24
     /tmp/cczxdMQq.s:2225   .text:0000000000000cc4 .LEHB25
     /tmp/cczxdMQq.s:2228   .text:0000000000000ccc .LEHE25
     /tmp/cczxdMQq.s:2237   .text:0000000000000ce0 .LEHB26
     /tmp/cczxdMQq.s:2240   .text:0000000000000ce8 .LEHE26
     /tmp/cczxdMQq.s:2317   .text:0000000000000d08 .LEHB27
     /tmp/cczxdMQq.s:2295   .text:0000000000000ce8 .LFB43
     /tmp/cczxdMQq.s:2320   .text:0000000000000d10 .LEHE27
     /tmp/cczxdMQq.s:2323   .text:0000000000000d18 .LEHB28
     /tmp/cczxdMQq.s:2326   .text:0000000000000d20 .LEHE28
     /tmp/cczxdMQq.s:2454   .text:0000000000000e38 .L151
     /tmp/cczxdMQq.s:2332   .text:0000000000000d2c .LEHB29
     /tmp/cczxdMQq.s:2335   .text:0000000000000d34 .LEHE29
     /tmp/cczxdMQq.s:2338   .text:0000000000000d3c .LEHB30
     /tmp/cczxdMQq.s:2341   .text:0000000000000d44 .LEHE30
     /tmp/cczxdMQq.s:2466   .text:0000000000000e54 .L152
     /tmp/cczxdMQq.s:2347   .text:0000000000000d50 .LEHB31
     /tmp/cczxdMQq.s:2350   .text:0000000000000d58 .LEHE31
     /tmp/cczxdMQq.s:2353   .text:0000000000000d60 .LEHB32
     /tmp/cczxdMQq.s:2356   .text:0000000000000d68 .LEHE32
     /tmp/cczxdMQq.s:2477   .text:0000000000000e70 .L153
     /tmp/cczxdMQq.s:2362   .text:0000000000000d74 .LEHB33
     /tmp/cczxdMQq.s:2365   .text:0000000000000d7c .LEHE33
     /tmp/cczxdMQq.s:2369   .text:0000000000000d8c .LEHB34
     /tmp/cczxdMQq.s:2372   .text:0000000000000d94 .LEHE34
     /tmp/cczxdMQq.s:2488   .text:0000000000000e8c .L154
     /tmp/cczxdMQq.s:2376   .text:0000000000000d98 .LEHB35
     /tmp/cczxdMQq.s:2379   .text:0000000000000da0 .LEHE35
     /tmp/cczxdMQq.s:2383   .text:0000000000000db0 .LEHB36
     /tmp/cczxdMQq.s:2386   .text:0000000000000db8 .LEHE36
     /tmp/cczxdMQq.s:2499   .text:0000000000000ea8 .L155
     /tmp/cczxdMQq.s:2390   .text:0000000000000dbc .LEHB37
     /tmp/cczxdMQq.s:2393   .text:0000000000000dc4 .LEHE37
     /tmp/cczxdMQq.s:2397   .text:0000000000000dd4 .LEHB38
     /tmp/cczxdMQq.s:2400   .text:0000000000000ddc .LEHE38
     /tmp/cczxdMQq.s:2510   .text:0000000000000ec4 .L156
     /tmp/cczxdMQq.s:2404   .text:0000000000000de0 .LEHB39
     /tmp/cczxdMQq.s:2431   .text:0000000000000e10 .LEHE39
     /tmp/cczxdMQq.s:2462   .text:0000000000000e4c .LEHB40
     /tmp/cczxdMQq.s:2465   .text:0000000000000e54 .LEHE40
     /tmp/cczxdMQq.s:2473   .text:0000000000000e68 .LEHB41
     /tmp/cczxdMQq.s:2476   .text:0000000000000e70 .LEHE41
     /tmp/cczxdMQq.s:2484   .text:0000000000000e84 .LEHB42
     /tmp/cczxdMQq.s:2487   .text:0000000000000e8c .LEHE42
     /tmp/cczxdMQq.s:2495   .text:0000000000000ea0 .LEHB43
     /tmp/cczxdMQq.s:2498   .text:0000000000000ea8 .LEHE43
     /tmp/cczxdMQq.s:2506   .text:0000000000000ebc .LEHB44
     /tmp/cczxdMQq.s:2509   .text:0000000000000ec4 .LEHE44
     /tmp/cczxdMQq.s:2518   .text:0000000000000ed8 .LEHB45
     /tmp/cczxdMQq.s:2521   .text:0000000000000ee0 .LEHE45
     /tmp/cczxdMQq.s:2706   .text:0000000000000f64 .LEHB46
GAS LISTING /tmp/cczxdMQq.s 			page 94


     /tmp/cczxdMQq.s:2686   .text:0000000000000f48 .LFB29
     /tmp/cczxdMQq.s:2709   .text:0000000000000f6c .LEHE46
     /tmp/cczxdMQq.s:2712   .text:0000000000000f74 .LEHB47
     /tmp/cczxdMQq.s:2715   .text:0000000000000f7c .LEHE47
     /tmp/cczxdMQq.s:2728   .text:0000000000000f8c .L166
     /tmp/cczxdMQq.s:2719   .text:0000000000000f80 .LEHB48
     /tmp/cczxdMQq.s:2722   .text:0000000000000f88 .LEHE48
     /tmp/cczxdMQq.s:2735   .text:0000000000000fa0 .LEHB49
     /tmp/cczxdMQq.s:2738   .text:0000000000000fa8 .LEHE49
     /tmp/cczxdMQq.s:6846   .debug_abbrev:0000000000000000 .Ldebug_abbrev0
     /tmp/cczxdMQq.s:9160   .debug_str:00000000000001b4 .LASF220
     /tmp/cczxdMQq.s:9274   .debug_str:00000000000005c8 .LASF221
     /tmp/cczxdMQq.s:9480   .debug_str:0000000000000bb4 .LASF222
     /tmp/cczxdMQq.s:9064   .debug_ranges:0000000000000000 .Ldebug_ranges0
     /tmp/cczxdMQq.s:9106   .debug_line:0000000000000000 .Ldebug_line0
     /tmp/cczxdMQq.s:9256   .debug_str:0000000000000535 .LASF0
     /tmp/cczxdMQq.s:9290   .debug_str:0000000000000658 .LASF1
     /tmp/cczxdMQq.s:9406   .debug_str:00000000000009b3 .LASF2
     /tmp/cczxdMQq.s:9414   .debug_str:00000000000009ea .LASF4
     /tmp/cczxdMQq.s:9272   .debug_str:00000000000005b6 .LASF3
     /tmp/cczxdMQq.s:9128   .debug_str:00000000000000b7 .LASF5
     /tmp/cczxdMQq.s:9370   .debug_str:00000000000008b2 .LASF6
     /tmp/cczxdMQq.s:9358   .debug_str:000000000000086b .LASF7
     /tmp/cczxdMQq.s:9282   .debug_str:0000000000000624 .LASF8
     /tmp/cczxdMQq.s:9232   .debug_str:0000000000000472 .LASF9
     /tmp/cczxdMQq.s:9240   .debug_str:00000000000004c9 .LASF10
     /tmp/cczxdMQq.s:9172   .debug_str:00000000000002c7 .LASF11
     /tmp/cczxdMQq.s:9220   .debug_str:0000000000000422 .LASF12
     /tmp/cczxdMQq.s:9180   .debug_str:00000000000002fc .LASF13
     /tmp/cczxdMQq.s:9170   .debug_str:00000000000002b7 .LASF14
     /tmp/cczxdMQq.s:9444   .debug_str:0000000000000aaf .LASF15
     /tmp/cczxdMQq.s:9208   .debug_str:00000000000003b9 .LASF16
     /tmp/cczxdMQq.s:9438   .debug_str:0000000000000a76 .LASF17
     /tmp/cczxdMQq.s:9520   .debug_str:0000000000000ce3 .LASF84
     /tmp/cczxdMQq.s:9324   .debug_str:0000000000000779 .LASF18
     /tmp/cczxdMQq.s:9312   .debug_str:0000000000000716 .LASF20
     /tmp/cczxdMQq.s:9206   .debug_str:00000000000003af .LASF19
     /tmp/cczxdMQq.s:9118   .debug_str:000000000000006f .LASF21
     /tmp/cczxdMQq.s:9506   .debug_str:0000000000000c75 .LASF22
     /tmp/cczxdMQq.s:9300   .debug_str:00000000000006a1 .LASF23
     /tmp/cczxdMQq.s:9266   .debug_str:0000000000000579 .LASF24
     /tmp/cczxdMQq.s:9182   .debug_str:000000000000030c .LASF25
     /tmp/cczxdMQq.s:9546   .debug_str:0000000000000db8 .LASF26
     /tmp/cczxdMQq.s:9136   .debug_str:00000000000000e4 .LASF28
     /tmp/cczxdMQq.s:9366   .debug_str:00000000000008a0 .LASF27
     /tmp/cczxdMQq.s:9138   .debug_str:00000000000000ff .LASF29
     /tmp/cczxdMQq.s:9422   .debug_str:0000000000000a13 .LASF30
     /tmp/cczxdMQq.s:9214   .debug_str:00000000000003ec .LASF31
     /tmp/cczxdMQq.s:9260   .debug_str:0000000000000552 .LASF32
     /tmp/cczxdMQq.s:9534   .debug_str:0000000000000d51 .LASF33
     /tmp/cczxdMQq.s:9500   .debug_str:0000000000000c5d .LASF36
     /tmp/cczxdMQq.s:9488   .debug_str:0000000000000bf3 .LASF38
     /tmp/cczxdMQq.s:9402   .debug_str:000000000000099f .LASF34
     /tmp/cczxdMQq.s:9344   .debug_str:0000000000000803 .LASF35
     /tmp/cczxdMQq.s:9378   .debug_str:00000000000008ea .LASF37
     /tmp/cczxdMQq.s:9382   .debug_str:0000000000000900 .LASF39
     /tmp/cczxdMQq.s:9336   .debug_str:00000000000007d2 .LASF40
GAS LISTING /tmp/cczxdMQq.s 			page 95


     /tmp/cczxdMQq.s:9284   .debug_str:0000000000000637 .LASF41
     /tmp/cczxdMQq.s:9536   .debug_str:0000000000000d6b .LASF42
     /tmp/cczxdMQq.s:9470   .debug_str:0000000000000b59 .LASF43
     /tmp/cczxdMQq.s:9334   .debug_str:00000000000007ca .LASF44
     /tmp/cczxdMQq.s:9342   .debug_str:00000000000007ef .LASF45
     /tmp/cczxdMQq.s:9320   .debug_str:000000000000075f .LASF46
     /tmp/cczxdMQq.s:9384   .debug_str:0000000000000913 .LASF47
     /tmp/cczxdMQq.s:9570   .debug_str:0000000000000e69 .LASF48
     /tmp/cczxdMQq.s:9264   .debug_str:0000000000000565 .LASF49
     /tmp/cczxdMQq.s:9442   .debug_str:0000000000000aa8 .LASF50
     /tmp/cczxdMQq.s:9416   .debug_str:00000000000009f1 .LASF51
     /tmp/cczxdMQq.s:9418   .debug_str:0000000000000a04 .LASF52
     /tmp/cczxdMQq.s:9176   .debug_str:00000000000002df .LASF53
     /tmp/cczxdMQq.s:9204   .debug_str:00000000000003a9 .LASF54
     /tmp/cczxdMQq.s:9250   .debug_str:0000000000000502 .LASF55
     /tmp/cczxdMQq.s:9262   .debug_str:000000000000055f .LASF56
     /tmp/cczxdMQq.s:9194   .debug_str:000000000000036d .LASF57
     /tmp/cczxdMQq.s:9130   .debug_str:00000000000000be .LASF58
     /tmp/cczxdMQq.s:9410   .debug_str:00000000000009c9 .LASF59
     /tmp/cczxdMQq.s:9404   .debug_str:00000000000009a8 .LASF60
     /tmp/cczxdMQq.s:9562   .debug_str:0000000000000e26 .LASF61
     /tmp/cczxdMQq.s:9524   .debug_str:0000000000000cfa .LASF62
     /tmp/cczxdMQq.s:9544   .debug_str:0000000000000da2 .LASF63
     /tmp/cczxdMQq.s:9516   .debug_str:0000000000000cc3 .LASF64
     /tmp/cczxdMQq.s:9314   .debug_str:000000000000072e .LASF65
     /tmp/cczxdMQq.s:9246   .debug_str:00000000000004f1 .LASF66
     /tmp/cczxdMQq.s:9254   .debug_str:000000000000051d .LASF67
     /tmp/cczxdMQq.s:9496   .debug_str:0000000000000c33 .LASF68
     /tmp/cczxdMQq.s:9238   .debug_str:00000000000004ad .LASF69
     /tmp/cczxdMQq.s:9364   .debug_str:000000000000088b .LASF70
     /tmp/cczxdMQq.s:9278   .debug_str:00000000000005ea .LASF71
     /tmp/cczxdMQq.s:9538   .debug_str:0000000000000d73 .LASF72
     /tmp/cczxdMQq.s:9532   .debug_str:0000000000000d2b .LASF73
     /tmp/cczxdMQq.s:9190   .debug_str:0000000000000353 .LASF74
     /tmp/cczxdMQq.s:9122   .debug_str:0000000000000096 .LASF75
     /tmp/cczxdMQq.s:9152   .debug_str:000000000000017f .LASF76
     /tmp/cczxdMQq.s:9492   .debug_str:0000000000000c0d .LASF77
     /tmp/cczxdMQq.s:9154   .debug_str:000000000000018e .LASF78
     /tmp/cczxdMQq.s:9322   .debug_str:0000000000000767 .LASF79
     /tmp/cczxdMQq.s:9242   .debug_str:00000000000004d7 .LASF80
     /tmp/cczxdMQq.s:9514   .debug_str:0000000000000cb0 .LASF81
     /tmp/cczxdMQq.s:9168   .debug_str:00000000000002a3 .LASF82
     /tmp/cczxdMQq.s:9460   .debug_str:0000000000000b23 .LASF83
     /tmp/cczxdMQq.s:9464   .debug_str:0000000000000b3b .LASF223
     /tmp/cczxdMQq.s:9166   .debug_str:000000000000029d .LASF85
     /tmp/cczxdMQq.s:9430   .debug_str:0000000000000a46 .LASF86
     /tmp/cczxdMQq.s:9178   .debug_str:00000000000002f2 .LASF87
     /tmp/cczxdMQq.s:9156   .debug_str:00000000000001a1 .LASF88
     /tmp/cczxdMQq.s:9360   .debug_str:000000000000087e .LASF89
     /tmp/cczxdMQq.s:9286   .debug_str:000000000000064a .LASF90
     /tmp/cczxdMQq.s:9454   .debug_str:0000000000000b03 .LASF131
     /tmp/cczxdMQq.s:9248   .debug_str:00000000000004fc .LASF91
     /tmp/cczxdMQq.s:9332   .debug_str:00000000000007b2 .LASF224
     /tmp/cczxdMQq.s:9348   .debug_str:000000000000081f .LASF225
     /tmp/cczxdMQq.s:9288   .debug_str:0000000000000653 .LASF92
     /tmp/cczxdMQq.s:9558   .debug_str:0000000000000e04 .LASF94
     /tmp/cczxdMQq.s:9556   .debug_str:0000000000000dfe .LASF93
GAS LISTING /tmp/cczxdMQq.s 			page 96


     /tmp/cczxdMQq.s:9468   .debug_str:0000000000000b49 .LASF95
     /tmp/cczxdMQq.s:9196   .debug_str:000000000000037f .LASF96
     /tmp/cczxdMQq.s:9134   .debug_str:00000000000000d1 .LASF97
     /tmp/cczxdMQq.s:9292   .debug_str:000000000000066b .LASF98
     /tmp/cczxdMQq.s:9352   .debug_str:0000000000000835 .LASF99
     /tmp/cczxdMQq.s:9466   .debug_str:0000000000000b41 .LASF100
     /tmp/cczxdMQq.s:9530   .debug_str:0000000000000d20 .LASF101
     /tmp/cczxdMQq.s:9424   .debug_str:0000000000000a21 .LASF102
     /tmp/cczxdMQq.s:9296   .debug_str:0000000000000684 .LASF107
     /tmp/cczxdMQq.s:9302   .debug_str:00000000000006bf .LASF109
     /tmp/cczxdMQq.s:9564   .debug_str:0000000000000e3e .LASF103
     /tmp/cczxdMQq.s:9226   .debug_str:0000000000000442 .LASF104
     /tmp/cczxdMQq.s:9258   .debug_str:0000000000000542 .LASF105
     /tmp/cczxdMQq.s:9268   .debug_str:000000000000058b .LASF106
     /tmp/cczxdMQq.s:9426   .debug_str:0000000000000a32 .LASF108
     /tmp/cczxdMQq.s:9192   .debug_str:000000000000035a .LASF110
     /tmp/cczxdMQq.s:9412   .debug_str:00000000000009e1 .LASF111
     /tmp/cczxdMQq.s:9440   .debug_str:0000000000000a8c .LASF112
     /tmp/cczxdMQq.s:9330   .debug_str:00000000000007a3 .LASF113
     /tmp/cczxdMQq.s:9114   .debug_str:0000000000000050 .LASF114
     /tmp/cczxdMQq.s:9542   .debug_str:0000000000000d93 .LASF115
     /tmp/cczxdMQq.s:9356   .debug_str:0000000000000851 .LASF116
     /tmp/cczxdMQq.s:9436   .debug_str:0000000000000a68 .LASF117
     /tmp/cczxdMQq.s:9376   .debug_str:00000000000008de .LASF118
     /tmp/cczxdMQq.s:9110   .debug_str:000000000000002a .LASF119
     /tmp/cczxdMQq.s:9548   .debug_str:0000000000000dc4 .LASF120
     /tmp/cczxdMQq.s:9420   .debug_str:0000000000000a0b .LASF135
     /tmp/cczxdMQq.s:9474   .debug_str:0000000000000b7d .LASF121
     /tmp/cczxdMQq.s:9354   .debug_str:0000000000000845 .LASF122
     /tmp/cczxdMQq.s:9184   .debug_str:000000000000032b .LASF123
     /tmp/cczxdMQq.s:9142   .debug_str:0000000000000131 .LASF125
     /tmp/cczxdMQq.s:9216   .debug_str:0000000000000407 .LASF124
     /tmp/cczxdMQq.s:9164   .debug_str:0000000000000271 .LASF126
     /tmp/cczxdMQq.s:9540   .debug_str:0000000000000d8c .LASF150
     /tmp/cczxdMQq.s:9162   .debug_str:0000000000000260 .LASF226
     /tmp/cczxdMQq.s:9116   .debug_str:000000000000006a .LASF127
     /tmp/cczxdMQq.s:9502   .debug_str:0000000000000c66 .LASF128
     /tmp/cczxdMQq.s:9304   .debug_str:00000000000006d7 .LASF129
     /tmp/cczxdMQq.s:9202   .debug_str:00000000000003a3 .LASF130
     /tmp/cczxdMQq.s:9486   .debug_str:0000000000000beb .LASF132
     /tmp/cczxdMQq.s:9148   .debug_str:000000000000016b .LASF133
     /tmp/cczxdMQq.s:9490   .debug_str:0000000000000c08 .LASF134
     /tmp/cczxdMQq.s:9504   .debug_str:0000000000000c6b .LASF156
     /tmp/cczxdMQq.s:9478   .debug_str:0000000000000b9f .LASF136
     /tmp/cczxdMQq.s:9198   .debug_str:0000000000000388 .LASF138
     /tmp/cczxdMQq.s:9372   .debug_str:00000000000008b9 .LASF137
     /tmp/cczxdMQq.s:9452   .debug_str:0000000000000afc .LASF139
     /tmp/cczxdMQq.s:9398   .debug_str:0000000000000981 .LASF140
     /tmp/cczxdMQq.s:9394   .debug_str:000000000000096a .LASF141
     /tmp/cczxdMQq.s:9476   .debug_str:0000000000000b87 .LASF142
     /tmp/cczxdMQq.s:9308   .debug_str:00000000000006e6 .LASF143
     /tmp/cczxdMQq.s:9566   .debug_str:0000000000000e4b .LASF227
     /tmp/cczxdMQq.s:9236   .debug_str:000000000000049a .LASF149
     /tmp/cczxdMQq.s:9448   .debug_str:0000000000000ac4 .LASF228
     /tmp/cczxdMQq.s:9432   .debug_str:0000000000000a4e .LASF144
     /tmp/cczxdMQq.s:9518   .debug_str:0000000000000ccd .LASF154
     /tmp/cczxdMQq.s:9124   .debug_str:000000000000009e .LASF145
GAS LISTING /tmp/cczxdMQq.s 			page 97


     /tmp/cczxdMQq.s:9494   .debug_str:0000000000000c19 .LASF146
     /tmp/cczxdMQq.s:9498   .debug_str:0000000000000c42 .LASF147
     /tmp/cczxdMQq.s:9280   .debug_str:000000000000060c .LASF148
     /tmp/cczxdMQq.s:9108   .debug_str:0000000000000000 .LASF229
     /tmp/cczxdMQq.s:9270   .debug_str:0000000000000598 .LASF151
     /tmp/cczxdMQq.s:9362   .debug_str:0000000000000886 .LASF152
     /tmp/cczxdMQq.s:9340   .debug_str:00000000000007df .LASF153
     /tmp/cczxdMQq.s:9234   .debug_str:0000000000000482 .LASF155
     /tmp/cczxdMQq.s:9244   .debug_str:00000000000004ea .LASF157
     /tmp/cczxdMQq.s:9350   .debug_str:0000000000000824 .LASF230
     /tmp/cczxdMQq.s:9294   .debug_str:0000000000000671 .LASF158
     /tmp/cczxdMQq.s:9188   .debug_str:000000000000034e .LASF159
     /tmp/cczxdMQq.s:9126   .debug_str:00000000000000ad .LASF160
     /tmp/cczxdMQq.s:9386   .debug_str:0000000000000927 .LASF161
     /tmp/cczxdMQq.s:937    .text._ZN12TestPeriodicD0Ev:0000000000000000 .LFB57
     /tmp/cczxdMQq.s:980    .text._ZN12TestPeriodicD0Ev:000000000000004c .LFE57
     /tmp/cczxdMQq.s:8290   .debug_loc:0000000000000000 .LLST23
     /tmp/cczxdMQq.s:953    .text._ZN12TestPeriodicD0Ev:0000000000000018 .LBB29
     /tmp/cczxdMQq.s:963    .text._ZN12TestPeriodicD0Ev:000000000000002c .LBE29
     /tmp/cczxdMQq.s:8308   .debug_loc:000000000000004c .LLST24
     /tmp/cczxdMQq.s:954    .text._ZN12TestPeriodicD0Ev:0000000000000018 .LBB30
     /tmp/cczxdMQq.s:962    .text._ZN12TestPeriodicD0Ev:000000000000002c .LBE30
     /tmp/cczxdMQq.s:960    .text._ZN12TestPeriodicD0Ev:000000000000002c .LVL105
     /tmp/cczxdMQq.s:967    .text._ZN12TestPeriodicD0Ev:0000000000000038 .LVL106
     /tmp/cczxdMQq.s:9228   .debug_str:000000000000044e .LASF162
     /tmp/cczxdMQq.s:895    .text._ZN12TestPeriodicD2Ev:0000000000000000 .LFB55
     /tmp/cczxdMQq.s:928    .text._ZN12TestPeriodicD2Ev:0000000000000034 .LFE55
     /tmp/cczxdMQq.s:8319   .debug_loc:0000000000000082 .LLST21
     /tmp/cczxdMQq.s:909    .text._ZN12TestPeriodicD2Ev:0000000000000010 .LBB27
     /tmp/cczxdMQq.s:917    .text._ZN12TestPeriodicD2Ev:0000000000000024 .LBE27
     /tmp/cczxdMQq.s:8333   .debug_loc:00000000000000bb .LLST22
     /tmp/cczxdMQq.s:915    .text._ZN12TestPeriodicD2Ev:0000000000000024 .LVL102
     /tmp/cczxdMQq.s:291    .text:000000000000015c .LFB53
     /tmp/cczxdMQq.s:346    .text:00000000000001b8 .LFE53
     /tmp/cczxdMQq.s:8347   .debug_loc:00000000000000f4 .LLST5
     /tmp/cczxdMQq.s:307    .text:0000000000000170 .LBB22
     /tmp/cczxdMQq.s:332    .text:00000000000001a4 .LBE22
     /tmp/cczxdMQq.s:8361   .debug_loc:000000000000012d .LLST6
     /tmp/cczxdMQq.s:320    .text:0000000000000190 .LVL29
     /tmp/cczxdMQq.s:325    .text:000000000000019c .LVL30
     /tmp/cczxdMQq.s:9112   .debug_str:000000000000003a .LASF163
     /tmp/cczxdMQq.s:2643   .text:0000000000000f08 .LFB51
     /tmp/cczxdMQq.s:2678   .text:0000000000000f48 .LFE51
     /tmp/cczxdMQq.s:8377   .debug_loc:0000000000000177 .LLST61
     /tmp/cczxdMQq.s:8395   .debug_loc:00000000000001c3 .LLST62
     /tmp/cczxdMQq.s:2661   .text:0000000000000f28 .LVL289
     /tmp/cczxdMQq.s:9572   .debug_str:0000000000000e71 .LASF164
     /tmp/cczxdMQq.s:848    .text._ZN14PeriodicThreadD0Ev:0000000000000000 .LFB50
     /tmp/cczxdMQq.s:888    .text._ZN14PeriodicThreadD0Ev:000000000000004c .LFE50
     /tmp/cczxdMQq.s:8409   .debug_loc:00000000000001fc .LLST19
     /tmp/cczxdMQq.s:864    .text._ZN14PeriodicThreadD0Ev:0000000000000018 .LBB25
     /tmp/cczxdMQq.s:872    .text._ZN14PeriodicThreadD0Ev:000000000000002c .LBE25
     /tmp/cczxdMQq.s:8427   .debug_loc:0000000000000248 .LLST20
     /tmp/cczxdMQq.s:870    .text._ZN14PeriodicThreadD0Ev:000000000000002c .LVL97
     /tmp/cczxdMQq.s:875    .text._ZN14PeriodicThreadD0Ev:0000000000000038 .LVL98
     /tmp/cczxdMQq.s:9400   .debug_str:0000000000000987 .LASF165
     /tmp/cczxdMQq.s:811    .text._ZN14PeriodicThreadD2Ev:0000000000000000 .LFB48
GAS LISTING /tmp/cczxdMQq.s 			page 98


     /tmp/cczxdMQq.s:839    .text._ZN14PeriodicThreadD2Ev:0000000000000034 .LFE48
     /tmp/cczxdMQq.s:8438   .debug_loc:000000000000027e .LLST18
     /tmp/cczxdMQq.s:828    .text._ZN14PeriodicThreadD2Ev:0000000000000024 .LVL94
     /tmp/cczxdMQq.s:9408   .debug_str:00000000000009c1 .LASF166
     /tmp/cczxdMQq.s:9212   .debug_str:00000000000003e0 .LASF168
     /tmp/cczxdMQq.s:2791   .text:0000000000000fc0 .LFB45
     /tmp/cczxdMQq.s:2807   .text:0000000000000fd8 .LFE45
     /tmp/cczxdMQq.s:2805   .text:0000000000000fd8 .LVL298
     /tmp/cczxdMQq.s:9380   .debug_str:00000000000008f1 .LASF167
     /tmp/cczxdMQq.s:9276   .debug_str:00000000000005d6 .LASF169
     /tmp/cczxdMQq.s:2612   .text:0000000000000ee0 .LFB44
     /tmp/cczxdMQq.s:2637   .text:0000000000000f08 .LFE44
     /tmp/cczxdMQq.s:2626   .text:0000000000000ef8 .LVL287
     /tmp/cczxdMQq.s:9174   .debug_str:00000000000002d6 .LASF170
     /tmp/cczxdMQq.s:9390   .debug_str:0000000000000958 .LASF171
     /tmp/cczxdMQq.s:2523   .text:0000000000000ee0 .LFE43
     /tmp/cczxdMQq.s:8452   .debug_loc:00000000000002b7 .LLST57
     /tmp/cczxdMQq.s:8463   .debug_loc:00000000000002ed .LLST58
     /tmp/cczxdMQq.s:8474   .debug_loc:0000000000000323 .LLST59
     /tmp/cczxdMQq.s:8481   .debug_loc:0000000000000346 .LLST60
     /tmp/cczxdMQq.s:2319   .text:0000000000000d10 .LVL254
     /tmp/cczxdMQq.s:2325   .text:0000000000000d20 .LVL255
     /tmp/cczxdMQq.s:2334   .text:0000000000000d34 .LVL256
     /tmp/cczxdMQq.s:2340   .text:0000000000000d44 .LVL257
     /tmp/cczxdMQq.s:2349   .text:0000000000000d58 .LVL258
     /tmp/cczxdMQq.s:2355   .text:0000000000000d68 .LVL259
     /tmp/cczxdMQq.s:2364   .text:0000000000000d7c .LVL260
     /tmp/cczxdMQq.s:2371   .text:0000000000000d94 .LVL261
     /tmp/cczxdMQq.s:2378   .text:0000000000000da0 .LVL262
     /tmp/cczxdMQq.s:2385   .text:0000000000000db8 .LVL263
     /tmp/cczxdMQq.s:2392   .text:0000000000000dc4 .LVL264
     /tmp/cczxdMQq.s:2399   .text:0000000000000ddc .LVL265
     /tmp/cczxdMQq.s:2406   .text:0000000000000de8 .LVL266
     /tmp/cczxdMQq.s:2411   .text:0000000000000df4 .LVL267
     /tmp/cczxdMQq.s:2416   .text:0000000000000e00 .LVL268
     /tmp/cczxdMQq.s:2430   .text:0000000000000e10 .LVL271
     /tmp/cczxdMQq.s:2460   .text:0000000000000e48 .LVL274
     /tmp/cczxdMQq.s:2464   .text:0000000000000e54 .LVL275
     /tmp/cczxdMQq.s:2471   .text:0000000000000e64 .LVL276
     /tmp/cczxdMQq.s:2475   .text:0000000000000e70 .LVL277
     /tmp/cczxdMQq.s:2482   .text:0000000000000e80 .LVL278
     /tmp/cczxdMQq.s:2486   .text:0000000000000e8c .LVL279
     /tmp/cczxdMQq.s:2493   .text:0000000000000e9c .LVL280
     /tmp/cczxdMQq.s:2497   .text:0000000000000ea8 .LVL281
     /tmp/cczxdMQq.s:2504   .text:0000000000000eb8 .LVL282
     /tmp/cczxdMQq.s:2508   .text:0000000000000ec4 .LVL283
     /tmp/cczxdMQq.s:2516   .text:0000000000000ed4 .LVL285
     /tmp/cczxdMQq.s:2520   .text:0000000000000ee0 .LVL286
     /tmp/cczxdMQq.s:9392   .debug_str:0000000000000965 .LASF172
     /tmp/cczxdMQq.s:9158   .debug_str:00000000000001aa .LASF173
     /tmp/cczxdMQq.s:735    .text:0000000000000440 .LFB42
     /tmp/cczxdMQq.s:804    .text:00000000000004cc .LFE42
     /tmp/cczxdMQq.s:8493   .debug_loc:000000000000037d .LLST16
     /tmp/cczxdMQq.s:8507   .debug_loc:00000000000003b6 .LLST17
     /tmp/cczxdMQq.s:756    .text:0000000000000468 .LVL84
     /tmp/cczxdMQq.s:766    .text:0000000000000478 .LVL86
     /tmp/cczxdMQq.s:778    .text:0000000000000490 .LVL88
GAS LISTING /tmp/cczxdMQq.s 			page 99


     /tmp/cczxdMQq.s:783    .text:000000000000049c .LVL89
     /tmp/cczxdMQq.s:788    .text:00000000000004a8 .LVL90
     /tmp/cczxdMQq.s:793    .text:00000000000004b4 .LVL91
     /tmp/cczxdMQq.s:801    .text:00000000000004c8 .LVL92
     /tmp/cczxdMQq.s:9554   .debug_str:0000000000000df9 .LASF174
     /tmp/cczxdMQq.s:9396   .debug_str:0000000000000977 .LASF175
     /tmp/cczxdMQq.s:655    .text:00000000000003b4 .LFB41
     /tmp/cczxdMQq.s:724    .text:0000000000000440 .LFE41
     /tmp/cczxdMQq.s:8519   .debug_loc:00000000000003ed .LLST14
     /tmp/cczxdMQq.s:8533   .debug_loc:0000000000000426 .LLST15
     /tmp/cczxdMQq.s:676    .text:00000000000003dc .LVL73
     /tmp/cczxdMQq.s:686    .text:00000000000003ec .LVL75
     /tmp/cczxdMQq.s:698    .text:0000000000000404 .LVL77
     /tmp/cczxdMQq.s:703    .text:0000000000000410 .LVL78
     /tmp/cczxdMQq.s:708    .text:000000000000041c .LVL79
     /tmp/cczxdMQq.s:713    .text:0000000000000428 .LVL80
     /tmp/cczxdMQq.s:721    .text:000000000000043c .LVL81
     /tmp/cczxdMQq.s:9368   .debug_str:00000000000008ad .LASF176
     /tmp/cczxdMQq.s:9482   .debug_str:0000000000000bd7 .LASF177
     /tmp/cczxdMQq.s:575    .text:0000000000000328 .LFB40
     /tmp/cczxdMQq.s:644    .text:00000000000003b4 .LFE40
     /tmp/cczxdMQq.s:8545   .debug_loc:000000000000045d .LLST12
     /tmp/cczxdMQq.s:8559   .debug_loc:0000000000000496 .LLST13
     /tmp/cczxdMQq.s:596    .text:0000000000000350 .LVL62
     /tmp/cczxdMQq.s:606    .text:0000000000000360 .LVL64
     /tmp/cczxdMQq.s:618    .text:0000000000000378 .LVL66
     /tmp/cczxdMQq.s:623    .text:0000000000000384 .LVL67
     /tmp/cczxdMQq.s:628    .text:0000000000000390 .LVL68
     /tmp/cczxdMQq.s:633    .text:000000000000039c .LVL69
     /tmp/cczxdMQq.s:641    .text:00000000000003b0 .LVL70
     /tmp/cczxdMQq.s:9446   .debug_str:0000000000000abb .LASF178
     /tmp/cczxdMQq.s:9326   .debug_str:0000000000000784 .LASF179
     /tmp/cczxdMQq.s:2242   .text:0000000000000ce8 .LFE39
     /tmp/cczxdMQq.s:8571   .debug_loc:00000000000004cd .LLST54
     /tmp/cczxdMQq.s:8582   .debug_loc:0000000000000503 .LLST55
     /tmp/cczxdMQq.s:8589   .debug_loc:0000000000000526 .LLST56
     /tmp/cczxdMQq.s:2123   .text:0000000000000be8 .LVL235
     /tmp/cczxdMQq.s:2129   .text:0000000000000bf8 .LVL236
     /tmp/cczxdMQq.s:2138   .text:0000000000000c0c .LVL237
     /tmp/cczxdMQq.s:2145   .text:0000000000000c24 .LVL238
     /tmp/cczxdMQq.s:2152   .text:0000000000000c30 .LVL239
     /tmp/cczxdMQq.s:2159   .text:0000000000000c48 .LVL240
     /tmp/cczxdMQq.s:2166   .text:0000000000000c54 .LVL241
     /tmp/cczxdMQq.s:2171   .text:0000000000000c60 .LVL242
     /tmp/cczxdMQq.s:2185   .text:0000000000000c70 .LVL245
     /tmp/cczxdMQq.s:2212   .text:0000000000000ca4 .LVL247
     /tmp/cczxdMQq.s:2216   .text:0000000000000cb0 .LVL248
     /tmp/cczxdMQq.s:2223   .text:0000000000000cc0 .LVL249
     /tmp/cczxdMQq.s:2227   .text:0000000000000ccc .LVL250
     /tmp/cczxdMQq.s:2235   .text:0000000000000cdc .LVL252
     /tmp/cczxdMQq.s:2239   .text:0000000000000ce8 .LVL253
     /tmp/cczxdMQq.s:9508   .debug_str:0000000000000c86 .LASF180
     /tmp/cczxdMQq.s:523    .text:00000000000002d8 .LFB38
     /tmp/cczxdMQq.s:564    .text:0000000000000328 .LFE38
     /tmp/cczxdMQq.s:8601   .debug_loc:000000000000055d .LLST11
     /tmp/cczxdMQq.s:542    .text:00000000000002fc .LVL56
     /tmp/cczxdMQq.s:551    .text:0000000000000310 .LVL57
GAS LISTING /tmp/cczxdMQq.s 			page 100


     /tmp/cczxdMQq.s:556    .text:000000000000031c .LVL58
     /tmp/cczxdMQq.s:561    .text:0000000000000324 .LVL59
     /tmp/cczxdMQq.s:9132   .debug_str:00000000000000c9 .LASF181
     /tmp/cczxdMQq.s:453    .text:0000000000000264 .LFB37
     /tmp/cczxdMQq.s:512    .text:00000000000002d8 .LFE37
     /tmp/cczxdMQq.s:8615   .debug_loc:0000000000000596 .LLST9
     /tmp/cczxdMQq.s:8629   .debug_loc:00000000000005cf .LLST10
     /tmp/cczxdMQq.s:474    .text:000000000000028c .LVL47
     /tmp/cczxdMQq.s:484    .text:000000000000029c .LVL49
     /tmp/cczxdMQq.s:496    .text:00000000000002b4 .LVL51
     /tmp/cczxdMQq.s:501    .text:00000000000002c0 .LVL52
     /tmp/cczxdMQq.s:509    .text:00000000000002d4 .LVL53
     /tmp/cczxdMQq.s:9560   .debug_str:0000000000000e10 .LASF182
     /tmp/cczxdMQq.s:9388   .debug_str:000000000000093d .LASF183
     /tmp/cczxdMQq.s:2070   .text:0000000000000b9c .LFB36
     /tmp/cczxdMQq.s:2095   .text:0000000000000bc4 .LFE36
     /tmp/cczxdMQq.s:2084   .text:0000000000000bb4 .LVL234
     /tmp/cczxdMQq.s:9230   .debug_str:0000000000000464 .LASF184
     /tmp/cczxdMQq.s:9462   .debug_str:0000000000000b28 .LASF185
     /tmp/cczxdMQq.s:1888   .text:0000000000000a5c .LFB35
     /tmp/cczxdMQq.s:2064   .text:0000000000000b9c .LFE35
     /tmp/cczxdMQq.s:9338   .debug_str:00000000000007d9 .LASF186
     /tmp/cczxdMQq.s:8641   .debug_loc:0000000000000606 .LLST48
     /tmp/cczxdMQq.s:1908   .text:0000000000000a84 .LBB50
     /tmp/cczxdMQq.s:1935   .text:0000000000000ab8 .LBE50
     /tmp/cczxdMQq.s:8652   .debug_loc:000000000000063c .LLST49
     /tmp/cczxdMQq.s:1925   .text:0000000000000aa4 .LVL215
     /tmp/cczxdMQq.s:1961   .text:0000000000000ad8 .LBB52
     /tmp/cczxdMQq.s:2005   .text:0000000000000b30 .LBE52
     /tmp/cczxdMQq.s:8663   .debug_loc:0000000000000672 .LLST50
     /tmp/cczxdMQq.s:1969   .text:0000000000000ae4 .LBB53
     /tmp/cczxdMQq.s:1996   .text:0000000000000b28 .LBE53
     /tmp/cczxdMQq.s:9146   .debug_str:0000000000000164 .LASF187
     /tmp/cczxdMQq.s:8674   .debug_loc:00000000000006a8 .LLST51
     /tmp/cczxdMQq.s:1977   .text:0000000000000afc .LVL220
     /tmp/cczxdMQq.s:1988   .text:0000000000000b14 .LVL222
     /tmp/cczxdMQq.s:2006   .text:0000000000000b30 .LBB54
     /tmp/cczxdMQq.s:2047   .text:0000000000000b80 .LBE54
     /tmp/cczxdMQq.s:8681   .debug_loc:00000000000006cb .LLST52
     /tmp/cczxdMQq.s:2014   .text:0000000000000b3c .LBB55
     /tmp/cczxdMQq.s:2038   .text:0000000000000b78 .LBE55
     /tmp/cczxdMQq.s:8692   .debug_loc:0000000000000701 .LLST53
     /tmp/cczxdMQq.s:2022   .text:0000000000000b54 .LVL226
     /tmp/cczxdMQq.s:2030   .text:0000000000000b64 .LVL228
     /tmp/cczxdMQq.s:1907   .text:0000000000000a84 .LVL212
     /tmp/cczxdMQq.s:2061   .text:0000000000000b98 .LVL233
     /tmp/cczxdMQq.s:9568   .debug_str:0000000000000e61 .LASF188
     /tmp/cczxdMQq.s:9434   .debug_str:0000000000000a5c .LASF189
     /tmp/cczxdMQq.s:1819   .text:00000000000009ec .LFB34
     /tmp/cczxdMQq.s:1877   .text:0000000000000a5c .LFE34
     /tmp/cczxdMQq.s:8699   .debug_loc:0000000000000724 .LLST46
     /tmp/cczxdMQq.s:8712   .debug_loc:000000000000075c .LLST47
     /tmp/cczxdMQq.s:1834   .text:0000000000000a0c .LVL203
     /tmp/cczxdMQq.s:1839   .text:0000000000000a18 .LVL204
     /tmp/cczxdMQq.s:1845   .text:0000000000000a24 .LVL206
     /tmp/cczxdMQq.s:1853   .text:0000000000000a38 .LVL208
     /tmp/cczxdMQq.s:1873   .text:0000000000000a58 .LVL211
GAS LISTING /tmp/cczxdMQq.s 			page 101


     /tmp/cczxdMQq.s:9328   .debug_str:0000000000000791 .LASF190
     /tmp/cczxdMQq.s:9310   .debug_str:00000000000006ff .LASF191
     /tmp/cczxdMQq.s:1683   .text:0000000000000914 .LFB33
     /tmp/cczxdMQq.s:1808   .text:00000000000009ec .LFE33
     /tmp/cczxdMQq.s:8739   .debug_loc:00000000000007a2 .LLST42
     /tmp/cczxdMQq.s:8751   .debug_loc:00000000000007d9 .LLST43
     /tmp/cczxdMQq.s:8767   .debug_loc:0000000000000823 .LLST44
     /tmp/cczxdMQq.s:8783   .debug_loc:000000000000086d .LLST45
     /tmp/cczxdMQq.s:1749   .text:000000000000097c .LVL193
     /tmp/cczxdMQq.s:1704   .text:0000000000000940 .LVL188
     /tmp/cczxdMQq.s:1760   .text:000000000000098c .LVL195
     /tmp/cczxdMQq.s:1765   .text:000000000000099c .LVL196
     /tmp/cczxdMQq.s:1778   .text:00000000000009bc .LVL198
     /tmp/cczxdMQq.s:1805   .text:00000000000009e8 .LVL202
     /tmp/cczxdMQq.s:9484   .debug_str:0000000000000be1 .LASF192
     /tmp/cczxdMQq.s:9374   .debug_str:00000000000008d0 .LASF193
     /tmp/cczxdMQq.s:1612   .text:0000000000000894 .LFB32
     /tmp/cczxdMQq.s:1672   .text:0000000000000914 .LFE32
     /tmp/cczxdMQq.s:8794   .debug_loc:00000000000008a3 .LLST40
     /tmp/cczxdMQq.s:8807   .debug_loc:00000000000008dc .LLST41
     /tmp/cczxdMQq.s:1627   .text:00000000000008b4 .LVL179
     /tmp/cczxdMQq.s:1641   .text:00000000000008dc .LVL182
     /tmp/cczxdMQq.s:1649   .text:00000000000008f0 .LVL184
     /tmp/cczxdMQq.s:1669   .text:0000000000000910 .LVL187
     /tmp/cczxdMQq.s:9428   .debug_str:0000000000000a3b .LASF194
     /tmp/cczxdMQq.s:9472   .debug_str:0000000000000b6d .LASF195
     /tmp/cczxdMQq.s:1414   .text:0000000000000734 .LFB31
     /tmp/cczxdMQq.s:1601   .text:0000000000000894 .LFE31
     /tmp/cczxdMQq.s:1432   .text:0000000000000758 .LBB38
     /tmp/cczxdMQq.s:1464   .text:000000000000079c .LBE38
     /tmp/cczxdMQq.s:8818   .debug_loc:0000000000000912 .LLST34
     /tmp/cczxdMQq.s:1449   .text:0000000000000778 .LVL158
     /tmp/cczxdMQq.s:1461   .text:000000000000079c .LVL159
     /tmp/cczxdMQq.s:1480   .text:00000000000007b0 .LBB39
     /tmp/cczxdMQq.s:1519   .text:00000000000007f4 .LBE39
     /tmp/cczxdMQq.s:8829   .debug_loc:0000000000000948 .LLST35
     /tmp/cczxdMQq.s:8840   .debug_loc:000000000000097e .LLST36
     /tmp/cczxdMQq.s:1496   .text:00000000000007d4 .LVL162
     /tmp/cczxdMQq.s:1514   .text:00000000000007f0 .LVL166
     /tmp/cczxdMQq.s:1520   .text:00000000000007f4 .LBB42
     /tmp/cczxdMQq.s:1555   .text:000000000000083c .LBE42
     /tmp/cczxdMQq.s:8847   .debug_loc:00000000000009a1 .LLST37
     /tmp/cczxdMQq.s:1539   .text:0000000000000814 .LVL170
     /tmp/cczxdMQq.s:1551   .text:0000000000000838 .LVL171
     /tmp/cczxdMQq.s:1556   .text:000000000000083c .LBB43
     /tmp/cczxdMQq.s:1593   .text:0000000000000880 .LBE43
     /tmp/cczxdMQq.s:8854   .debug_loc:00000000000009c4 .LLST38
     /tmp/cczxdMQq.s:8865   .debug_loc:00000000000009fa .LLST39
     /tmp/cczxdMQq.s:1572   .text:0000000000000860 .LVL173
     /tmp/cczxdMQq.s:1588   .text:000000000000087c .LVL177
     /tmp/cczxdMQq.s:1431   .text:0000000000000758 .LVL155
     /tmp/cczxdMQq.s:1598   .text:0000000000000890 .LVL178
     /tmp/cczxdMQq.s:9512   .debug_str:0000000000000ca4 .LASF196
     /tmp/cczxdMQq.s:9522   .debug_str:0000000000000ce9 .LASF197
     /tmp/cczxdMQq.s:2769   .text:0000000000000fa8 .LFB30
     /tmp/cczxdMQq.s:2785   .text:0000000000000fc0 .LFE30
     /tmp/cczxdMQq.s:2783   .text:0000000000000fc0 .LVL297
GAS LISTING /tmp/cczxdMQq.s 			page 102


     /tmp/cczxdMQq.s:9458   .debug_str:0000000000000b17 .LASF198
     /tmp/cczxdMQq.s:9318   .debug_str:000000000000074e .LASF199
     /tmp/cczxdMQq.s:2740   .text:0000000000000fa8 .LFE29
     /tmp/cczxdMQq.s:8872   .debug_loc:0000000000000a1d .LLST63
     /tmp/cczxdMQq.s:2708   .text:0000000000000f6c .LVL291
     /tmp/cczxdMQq.s:2714   .text:0000000000000f7c .LVL292
     /tmp/cczxdMQq.s:2721   .text:0000000000000f88 .LVL293
     /tmp/cczxdMQq.s:2733   .text:0000000000000f9c .LVL295
     /tmp/cczxdMQq.s:2737   .text:0000000000000fa8 .LVL296
     /tmp/cczxdMQq.s:9526   .debug_str:0000000000000d04 .LASF200
     /tmp/cczxdMQq.s:9120   .debug_str:0000000000000085 .LASF201
     /tmp/cczxdMQq.s:1350   .text:0000000000000734 .LFE28
     /tmp/cczxdMQq.s:9144   .debug_str:0000000000000159 .LASF202
     /tmp/cczxdMQq.s:8879   .debug_loc:0000000000000a40 .LLST30
     /tmp/cczxdMQq.s:8894   .debug_loc:0000000000000a89 .LLST31
     /tmp/cczxdMQq.s:8901   .debug_loc:0000000000000aac .LLST32
     /tmp/cczxdMQq.s:1276   .text:00000000000006a4 .LBB36
     /tmp/cczxdMQq.s:1283   .text:00000000000006a8 .LBE36
     /tmp/cczxdMQq.s:8908   .debug_loc:0000000000000acf .LLST33
     /tmp/cczxdMQq.s:1212   .text:0000000000000614 .LVL130
     /tmp/cczxdMQq.s:1219   .text:000000000000062c .LVL131
     /tmp/cczxdMQq.s:1226   .text:0000000000000638 .LVL132
     /tmp/cczxdMQq.s:1231   .text:0000000000000644 .LVL133
     /tmp/cczxdMQq.s:1238   .text:000000000000065c .LVL134
     /tmp/cczxdMQq.s:1245   .text:0000000000000668 .LVL135
     /tmp/cczxdMQq.s:1250   .text:0000000000000674 .LVL136
     /tmp/cczxdMQq.s:1258   .text:000000000000068c .LVL138
     /tmp/cczxdMQq.s:1265   .text:0000000000000698 .LVL139
     /tmp/cczxdMQq.s:1269   .text:00000000000006a0 .LVL140
     /tmp/cczxdMQq.s:1291   .text:00000000000006c0 .LVL143
     /tmp/cczxdMQq.s:1295   .text:00000000000006c8 .LVL144
     /tmp/cczxdMQq.s:1319   .text:00000000000006f0 .LVL147
     /tmp/cczxdMQq.s:1323   .text:00000000000006fc .LVL148
     /tmp/cczxdMQq.s:1331   .text:000000000000070c .LVL150
     /tmp/cczxdMQq.s:1335   .text:0000000000000718 .LVL151
     /tmp/cczxdMQq.s:1343   .text:0000000000000728 .LVL153
     /tmp/cczxdMQq.s:1347   .text:0000000000000734 .LVL154
     /tmp/cczxdMQq.s:9456   .debug_str:0000000000000b0b .LASF203
     /tmp/cczxdMQq.s:9210   .debug_str:00000000000003cf .LASF204
     /tmp/cczxdMQq.s:1148   .text:00000000000005f0 .LFE27
     /tmp/cczxdMQq.s:8915   .debug_loc:0000000000000af2 .LLST26
     /tmp/cczxdMQq.s:8926   .debug_loc:0000000000000b28 .LLST27
     /tmp/cczxdMQq.s:1071   .text:000000000000056c .LBB32
     /tmp/cczxdMQq.s:1079   .text:0000000000000570 .LBE32
     /tmp/cczxdMQq.s:8933   .debug_loc:0000000000000b4b .LLST28
     /tmp/cczxdMQq.s:1086   .text:000000000000057c .LBB34
     /tmp/cczxdMQq.s:1093   .text:0000000000000580 .LBE34
     /tmp/cczxdMQq.s:8940   .debug_loc:0000000000000b6e .LLST29
     /tmp/cczxdMQq.s:1016   .text:00000000000004f0 .LVL108
     /tmp/cczxdMQq.s:1023   .text:0000000000000508 .LVL109
     /tmp/cczxdMQq.s:1030   .text:0000000000000514 .LVL110
     /tmp/cczxdMQq.s:1035   .text:0000000000000520 .LVL111
     /tmp/cczxdMQq.s:1042   .text:0000000000000538 .LVL112
     /tmp/cczxdMQq.s:1049   .text:0000000000000544 .LVL113
     /tmp/cczxdMQq.s:1053   .text:000000000000054c .LVL114
     /tmp/cczxdMQq.s:1060   .text:0000000000000560 .LVL115
     /tmp/cczxdMQq.s:1064   .text:0000000000000568 .LVL116
GAS LISTING /tmp/cczxdMQq.s 			page 103


     /tmp/cczxdMQq.s:1101   .text:0000000000000598 .LVL121
     /tmp/cczxdMQq.s:1105   .text:00000000000005a0 .LVL122
     /tmp/cczxdMQq.s:1129   .text:00000000000005c8 .LVL125
     /tmp/cczxdMQq.s:1133   .text:00000000000005d4 .LVL126
     /tmp/cczxdMQq.s:1141   .text:00000000000005e4 .LVL128
     /tmp/cczxdMQq.s:1145   .text:00000000000005f0 .LVL129
     /tmp/cczxdMQq.s:9186   .debug_str:0000000000000339 .LASF205
     /tmp/cczxdMQq.s:9550   .debug_str:0000000000000dcf .LASF206
     /tmp/cczxdMQq.s:352    .text:00000000000001b8 .LFB26
     /tmp/cczxdMQq.s:442    .text:0000000000000264 .LFE26
     /tmp/cczxdMQq.s:8947   .debug_loc:0000000000000b91 .LLST7
     /tmp/cczxdMQq.s:374    .text:00000000000001dc .LBB23
     /tmp/cczxdMQq.s:428    .text:0000000000000250 .LBE23
     /tmp/cczxdMQq.s:8961   .debug_loc:0000000000000bca .LLST8
     /tmp/cczxdMQq.s:383    .text:00000000000001ec .LVL38
     /tmp/cczxdMQq.s:389    .text:00000000000001f8 .LVL39
     /tmp/cczxdMQq.s:395    .text:0000000000000208 .LVL40
     /tmp/cczxdMQq.s:400    .text:0000000000000214 .LVL41
     /tmp/cczxdMQq.s:405    .text:0000000000000224 .LVL42
     /tmp/cczxdMQq.s:371    .text:00000000000001dc .LVL36
     /tmp/cczxdMQq.s:9298   .debug_str:0000000000000691 .LASF207
     /tmp/cczxdMQq.s:9510   .debug_str:0000000000000c8e .LASF208
     /tmp/cczxdMQq.s:205    .text:00000000000000c4 .LFB25
     /tmp/cczxdMQq.s:285    .text:000000000000015c .LFE25
     /tmp/cczxdMQq.s:8973   .debug_loc:0000000000000c01 .LLST3
     /tmp/cczxdMQq.s:227    .text:00000000000000e8 .LBB21
     /tmp/cczxdMQq.s:271    .text:0000000000000148 .LBE21
     /tmp/cczxdMQq.s:8987   .debug_loc:0000000000000c3a .LLST4
     /tmp/cczxdMQq.s:236    .text:00000000000000f8 .LVL20
     /tmp/cczxdMQq.s:242    .text:0000000000000108 .LVL21
     /tmp/cczxdMQq.s:247    .text:0000000000000114 .LVL22
     /tmp/cczxdMQq.s:252    .text:0000000000000124 .LVL23
     /tmp/cczxdMQq.s:224    .text:00000000000000e8 .LVL18
     /tmp/cczxdMQq.s:9528   .debug_str:0000000000000d10 .LASF209
     /tmp/cczxdMQq.s:9200   .debug_str:000000000000038d .LASF210
     /tmp/cczxdMQq.s:111    .text:000000000000002c .LFB24
     /tmp/cczxdMQq.s:191    .text:00000000000000c4 .LFE24
     /tmp/cczxdMQq.s:8999   .debug_loc:0000000000000c71 .LLST1
     /tmp/cczxdMQq.s:133    .text:0000000000000050 .LBB20
     /tmp/cczxdMQq.s:177    .text:00000000000000b0 .LBE20
     /tmp/cczxdMQq.s:9013   .debug_loc:0000000000000caa .LLST2
     /tmp/cczxdMQq.s:142    .text:0000000000000060 .LVL10
     /tmp/cczxdMQq.s:148    .text:0000000000000070 .LVL11
     /tmp/cczxdMQq.s:153    .text:000000000000007c .LVL12
     /tmp/cczxdMQq.s:158    .text:000000000000008c .LVL13
     /tmp/cczxdMQq.s:130    .text:0000000000000050 .LVL8
     /tmp/cczxdMQq.s:9224   .debug_str:000000000000043d .LASF211
     /tmp/cczxdMQq.s:9150   .debug_str:0000000000000175 .LASF212
     /tmp/cczxdMQq.s:66     .text:0000000000000000 .LFB23
     /tmp/cczxdMQq.s:94     .text:000000000000002c .LFE23
     /tmp/cczxdMQq.s:9025   .debug_loc:0000000000000ce1 .LLST0
     /tmp/cczxdMQq.s:86     .text:0000000000000020 .LVL4
     /tmp/cczxdMQq.s:90     .text:0000000000000028 .LVL5
     /tmp/cczxdMQq.s:37     .text._ZN14PeriodicThread18periodicActivationEv:0000000000000000 .LFB22
     /tmp/cczxdMQq.s:55     .text._ZN14PeriodicThread18periodicActivationEv:0000000000000018 .LFE22
     /tmp/cczxdMQq.s:11     .text._ZN6Thread3runEv:0000000000000000 .LFB21
     /tmp/cczxdMQq.s:30     .text._ZN6Thread3runEv:0000000000000018 .LFE21
GAS LISTING /tmp/cczxdMQq.s 			page 104


     /tmp/cczxdMQq.s:9346   .debug_str:0000000000000818 .LASF213
     /tmp/cczxdMQq.s:9218   .debug_str:000000000000041c .LASF214
     /tmp/cczxdMQq.s:9450   .debug_str:0000000000000aec .LASF215
     /tmp/cczxdMQq.s:9552   .debug_str:0000000000000dea .LASF231
     /tmp/cczxdMQq.s:9140   .debug_str:0000000000000119 .LASF232
     /tmp/cczxdMQq.s:9222   .debug_str:0000000000000431 .LASF216
     /tmp/cczxdMQq.s:9306   .debug_str:00000000000006df .LASF217
     /tmp/cczxdMQq.s:9316   .debug_str:0000000000000744 .LASF218
     /tmp/cczxdMQq.s:9252   .debug_str:0000000000000514 .LASF219
     /tmp/cczxdMQq.s:940    .text._ZN12TestPeriodicD0Ev:0000000000000000 .LVL103
     /tmp/cczxdMQq.s:975    .text._ZN12TestPeriodicD0Ev:0000000000000044 .LVL107
     /tmp/cczxdMQq.s:952    .text._ZN12TestPeriodicD0Ev:0000000000000018 .LVL104
     /tmp/cczxdMQq.s:899    .text._ZN12TestPeriodicD2Ev:0000000000000000 .LVL100
     /tmp/cczxdMQq.s:908    .text._ZN12TestPeriodicD2Ev:0000000000000010 .LVL101
     /tmp/cczxdMQq.s:294    .text:000000000000015c .LVL26
     /tmp/cczxdMQq.s:310    .text:0000000000000174 .LVL28
     /tmp/cczxdMQq.s:306    .text:0000000000000170 .LVL27
     /tmp/cczxdMQq.s:328    .text:00000000000001a0 .LVL31
     /tmp/cczxdMQq.s:330    .text:00000000000001a4 .LVL32
     /tmp/cczxdMQq.s:341    .text:00000000000001b0 .LVL33
     /tmp/cczxdMQq.s:2646   .text:0000000000000f08 .LVL288
     /tmp/cczxdMQq.s:2673   .text:0000000000000f40 .LVL290
     /tmp/cczxdMQq.s:851    .text._ZN14PeriodicThreadD0Ev:0000000000000000 .LVL95
     /tmp/cczxdMQq.s:883    .text._ZN14PeriodicThreadD0Ev:0000000000000044 .LVL99
     /tmp/cczxdMQq.s:863    .text._ZN14PeriodicThreadD0Ev:0000000000000018 .LVL96
     /tmp/cczxdMQq.s:814    .text._ZN14PeriodicThreadD2Ev:0000000000000000 .LVL93
     /tmp/cczxdMQq.s:2450   .text:0000000000000e30 .LVL273
     /tmp/cczxdMQq.s:2447   .text:0000000000000e2c .LVL272
     /tmp/cczxdMQq.s:2512   .text:0000000000000ec8 .LVL284
     /tmp/cczxdMQq.s:2420   .text:0000000000000e04 .LVL269
     /tmp/cczxdMQq.s:2426   .text:0000000000000e08 .LVL270
     /tmp/cczxdMQq.s:738    .text:0000000000000440 .LVL82
     /tmp/cczxdMQq.s:754    .text:0000000000000460 .LVL83
     /tmp/cczxdMQq.s:761    .text:0000000000000470 .LVL85
     /tmp/cczxdMQq.s:772    .text:000000000000047c .LVL87
     /tmp/cczxdMQq.s:658    .text:00000000000003b4 .LVL71
     /tmp/cczxdMQq.s:674    .text:00000000000003d4 .LVL72
     /tmp/cczxdMQq.s:681    .text:00000000000003e4 .LVL74
     /tmp/cczxdMQq.s:692    .text:00000000000003f0 .LVL76
     /tmp/cczxdMQq.s:578    .text:0000000000000328 .LVL60
     /tmp/cczxdMQq.s:594    .text:0000000000000348 .LVL61
     /tmp/cczxdMQq.s:601    .text:0000000000000358 .LVL63
     /tmp/cczxdMQq.s:612    .text:0000000000000364 .LVL65
     /tmp/cczxdMQq.s:2202   .text:0000000000000c8c .LVL246
     /tmp/cczxdMQq.s:2231   .text:0000000000000cd0 .LVL251
     /tmp/cczxdMQq.s:2175   .text:0000000000000c64 .LVL243
     /tmp/cczxdMQq.s:2181   .text:0000000000000c68 .LVL244
     /tmp/cczxdMQq.s:526    .text:00000000000002d8 .LVL54
     /tmp/cczxdMQq.s:540    .text:00000000000002f4 .LVL55
     /tmp/cczxdMQq.s:456    .text:0000000000000264 .LVL45
     /tmp/cczxdMQq.s:472    .text:0000000000000284 .LVL46
     /tmp/cczxdMQq.s:479    .text:0000000000000294 .LVL48
     /tmp/cczxdMQq.s:490    .text:00000000000002a0 .LVL50
     /tmp/cczxdMQq.s:1955   .text:0000000000000ad4 .LVL218
     /tmp/cczxdMQq.s:2051   .text:0000000000000b84 .LVL231
     /tmp/cczxdMQq.s:2055   .text:0000000000000b88 .LVL232
     /tmp/cczxdMQq.s:1912   .text:0000000000000a8c .LVL213
GAS LISTING /tmp/cczxdMQq.s 			page 105


     /tmp/cczxdMQq.s:1933   .text:0000000000000ab8 .LVL216
     /tmp/cczxdMQq.s:1950   .text:0000000000000ad0 .LVL217
     /tmp/cczxdMQq.s:1965   .text:0000000000000adc .LVL219
     /tmp/cczxdMQq.s:2000   .text:0000000000000b2c .LVL223
     /tmp/cczxdMQq.s:2003   .text:0000000000000b30 .LVL224
     /tmp/cczxdMQq.s:2009   .text:0000000000000b34 .LVL225
     /tmp/cczxdMQq.s:1983   .text:0000000000000b04 .LVL221
     /tmp/cczxdMQq.s:2042   .text:0000000000000b7c .LVL229
     /tmp/cczxdMQq.s:2045   .text:0000000000000b80 .LVL230
     /tmp/cczxdMQq.s:2028   .text:0000000000000b5c .LVL227
     /tmp/cczxdMQq.s:1843   .text:0000000000000a1c .LVL205
     /tmp/cczxdMQq.s:1851   .text:0000000000000a30 .LVL207
     /tmp/cczxdMQq.s:1865   .text:0000000000000a48 .LVL209
     /tmp/cczxdMQq.s:1871   .text:0000000000000a50 .LVL210
     /tmp/cczxdMQq.s:1719   .text:0000000000000950 .LVL189
     /tmp/cczxdMQq.s:1770   .text:00000000000009a4 .LVL197
     /tmp/cczxdMQq.s:1794   .text:00000000000009d0 .LVL200
     /tmp/cczxdMQq.s:1798   .text:00000000000009d8 .LVL201
     /tmp/cczxdMQq.s:1789   .text:00000000000009c8 .LVL199
     /tmp/cczxdMQq.s:1738   .text:0000000000000964 .LVL192
     /tmp/cczxdMQq.s:1752   .text:0000000000000980 .LVL194
     /tmp/cczxdMQq.s:1635   .text:00000000000008d0 .LVL180
     /tmp/cczxdMQq.s:1639   .text:00000000000008d4 .LVL181
     /tmp/cczxdMQq.s:1647   .text:00000000000008e8 .LVL183
     /tmp/cczxdMQq.s:1661   .text:0000000000000900 .LVL185
     /tmp/cczxdMQq.s:1667   .text:0000000000000908 .LVL186
     /tmp/cczxdMQq.s:1436   .text:0000000000000760 .LVL156
     /tmp/cczxdMQq.s:1477   .text:00000000000007b0 .LVL160
     /tmp/cczxdMQq.s:1483   .text:00000000000007b4 .LVL161
     /tmp/cczxdMQq.s:1503   .text:00000000000007dc .LVL163
     /tmp/cczxdMQq.s:1506   .text:00000000000007e0 .LVL164
     /tmp/cczxdMQq.s:1523   .text:00000000000007f8 .LVL167
     /tmp/cczxdMQq.s:1512   .text:00000000000007e8 .LVL165
     /tmp/cczxdMQq.s:1525   .text:00000000000007fc .LVL168
     /tmp/cczxdMQq.s:1559   .text:0000000000000840 .LVL172
     /tmp/cczxdMQq.s:1578   .text:0000000000000868 .LVL174
     /tmp/cczxdMQq.s:1580   .text:000000000000086c .LVL175
     /tmp/cczxdMQq.s:1586   .text:0000000000000874 .LVL176
     /tmp/cczxdMQq.s:2727   .text:0000000000000f8c .LVL294
     /tmp/cczxdMQq.s:1306   .text:00000000000006d4 .LVL145
     /tmp/cczxdMQq.s:1327   .text:0000000000000700 .LVL149
     /tmp/cczxdMQq.s:1339   .text:000000000000071c .LVL152
     /tmp/cczxdMQq.s:1253   .text:0000000000000678 .LVL137
     /tmp/cczxdMQq.s:1309   .text:00000000000006d8 .LVL146
     /tmp/cczxdMQq.s:1275   .text:00000000000006a4 .LVL141
     /tmp/cczxdMQq.s:1281   .text:00000000000006a8 .LVL142
     /tmp/cczxdMQq.s:1116   .text:00000000000005ac .LVL123
     /tmp/cczxdMQq.s:1137   .text:00000000000005d8 .LVL127
     /tmp/cczxdMQq.s:1119   .text:00000000000005b0 .LVL124
     /tmp/cczxdMQq.s:1070   .text:000000000000056c .LVL117
     /tmp/cczxdMQq.s:1077   .text:0000000000000570 .LVL118
     /tmp/cczxdMQq.s:1085   .text:000000000000057c .LVL119
     /tmp/cczxdMQq.s:1091   .text:0000000000000580 .LVL120
     /tmp/cczxdMQq.s:355    .text:00000000000001b8 .LVL34
     /tmp/cczxdMQq.s:369    .text:00000000000001d4 .LVL35
     /tmp/cczxdMQq.s:378    .text:00000000000001e4 .LVL37
     /tmp/cczxdMQq.s:437    .text:000000000000025c .LVL44
GAS LISTING /tmp/cczxdMQq.s 			page 106


     /tmp/cczxdMQq.s:208    .text:00000000000000c4 .LVL16
     /tmp/cczxdMQq.s:222    .text:00000000000000e0 .LVL17
     /tmp/cczxdMQq.s:231    .text:00000000000000f0 .LVL19
     /tmp/cczxdMQq.s:280    .text:0000000000000154 .LVL25
     /tmp/cczxdMQq.s:114    .text:000000000000002c .LVL6
     /tmp/cczxdMQq.s:128    .text:0000000000000048 .LVL7
     /tmp/cczxdMQq.s:137    .text:0000000000000058 .LVL9
     /tmp/cczxdMQq.s:186    .text:00000000000000bc .LVL15
     /tmp/cczxdMQq.s:70     .text:0000000000000000 .LVL2
     /tmp/cczxdMQq.s:79     .text:0000000000000010 .LVL3
     /tmp/cczxdMQq.s:2859   .debug_info:0000000000000000 .Ldebug_info0
     /tmp/cczxdMQq.s:5      .text:0000000000000000 .Ltext0
     /tmp/cczxdMQq.s:2853   .text:0000000000000fd8 .Letext0
     /tmp/cczxdMQq.s:1488   .text:00000000000007bc .LBB40
     /tmp/cczxdMQq.s:1499   .text:00000000000007d8 .LBE40
     /tmp/cczxdMQq.s:1508   .text:00000000000007e0 .LBB41
     /tmp/cczxdMQq.s:1518   .text:00000000000007f4 .LBE41
     /tmp/cczxdMQq.s:1564   .text:0000000000000848 .LBB44
     /tmp/cczxdMQq.s:1575   .text:0000000000000864 .LBE44
     /tmp/cczxdMQq.s:1582   .text:000000000000086c .LBB45
     /tmp/cczxdMQq.s:1592   .text:0000000000000880 .LBE45
     /tmp/cczxdMQq.s:1710   .text:0000000000000940 .LBB46
     /tmp/cczxdMQq.s:1713   .text:0000000000000944 .LBE46
     /tmp/cczxdMQq.s:1721   .text:0000000000000950 .LBB49
     /tmp/cczxdMQq.s:1755   .text:0000000000000980 .LBE49
     /tmp/cczxdMQq.s:1722   .text:0000000000000950 .LBB47
     /tmp/cczxdMQq.s:1735   .text:0000000000000960 .LBE47
     /tmp/cczxdMQq.s:1744   .text:0000000000000970 .LBB48
     /tmp/cczxdMQq.s:1754   .text:0000000000000980 .LBE48
     /tmp/cczxdMQq.s:1151   .gcc_except_table:0000000000000000 .LLSDA27
     /tmp/cczxdMQq.s:1352   .gcc_except_table:000000000000005f .LLSDA28
     /tmp/cczxdMQq.s:2244   .gcc_except_table:00000000000000e6 .LLSDA39
     /tmp/cczxdMQq.s:2525   .gcc_except_table:000000000000016d .LLSDA43
     /tmp/cczxdMQq.s:2742   .gcc_except_table:0000000000000269 .LLSDA29
                           .group:0000000000000000 _ZN14PeriodicThreadD5Ev
                           .group:0000000000000000 _ZN12TestPeriodicD5Ev

UNDEFINED SYMBOLS
_ZN5Riscv11printStringEPKc
thread_dispatch
_ZN5Riscv12printIntegerEm
thread_exit
_ZN9Semaphore4waitEv
_ZN9Semaphore6signalEv
__putc
_ZN6ThreadD2Ev
_ZdlPv
_Znwm
_ZN6ThreadC1EPFvPvES0_
_ZN6Thread5startEv
_ZN5Riscv16enableInterruptsEv
_ZN5Riscv17disableInterruptsEv
_Unwind_Resume
__gxx_personality_v0
mem_alloc
mem_free
HEAP_END_ADDR
GAS LISTING /tmp/cczxdMQq.s 			page 107


HEAP_START_ADDR
_ZN9SemaphoreC1Ej
_ZN14PeriodicThreadC2Em
