GAS LISTING /tmp/ccVT2ggL.s 			page 1


   1              		.file	"Tests.cpp"
   2              		.option pic
   3              		.option norelax
   4              		.text
   5              	.Ltext0:
   6              		.section	.text._ZN6Thread3runEv,"axG",@progbits,_ZN6Thread3runEv,comdat
   7              		.align	2
   8              		.weak	_ZN6Thread3runEv
  10              	_ZN6Thread3runEv:
  11              	.LFB21:
  12              		.file 1 "src/../h/syscall_cpp.hpp"
   1:src/../h/syscall_cpp.hpp **** //
   2:src/../h/syscall_cpp.hpp **** // Created by os on 4/8/22.
   3:src/../h/syscall_cpp.hpp **** //
   4:src/../h/syscall_cpp.hpp **** 
   5:src/../h/syscall_cpp.hpp **** #ifndef PROJECT_BASE_V1_0_SYSCALL_CPP_HPP
   6:src/../h/syscall_cpp.hpp **** #define PROJECT_BASE_V1_0_SYSCALL_CPP_HPP
   7:src/../h/syscall_cpp.hpp **** 
   8:src/../h/syscall_cpp.hpp **** #include "syscall_c.h"
   9:src/../h/syscall_cpp.hpp **** #include "PCB.hpp"
  10:src/../h/syscall_cpp.hpp **** #include "KSemaphore.hpp"
  11:src/../h/syscall_cpp.hpp **** 
  12:src/../h/syscall_cpp.hpp **** void * operator new(size_t size);
  13:src/../h/syscall_cpp.hpp **** 
  14:src/../h/syscall_cpp.hpp **** void operator delete(void * p);
  15:src/../h/syscall_cpp.hpp **** 
  16:src/../h/syscall_cpp.hpp **** class Thread
  17:src/../h/syscall_cpp.hpp **** {
  18:src/../h/syscall_cpp.hpp **** public:
  19:src/../h/syscall_cpp.hpp ****     Thread(void (*body)(void*), void* args);
  20:src/../h/syscall_cpp.hpp **** 
  21:src/../h/syscall_cpp.hpp ****     virtual ~Thread();
  22:src/../h/syscall_cpp.hpp **** 
  23:src/../h/syscall_cpp.hpp ****     int start();
  24:src/../h/syscall_cpp.hpp **** 
  25:src/../h/syscall_cpp.hpp ****     static void dispatch();
  26:src/../h/syscall_cpp.hpp **** 
  27:src/../h/syscall_cpp.hpp ****     static void sleep(time_t);
  28:src/../h/syscall_cpp.hpp **** 
  29:src/../h/syscall_cpp.hpp ****     //todo
  30:src/../h/syscall_cpp.hpp ****     //vrati u private
  31:src/../h/syscall_cpp.hpp ****     //ovde je samo za potrebe testiranja
  32:src/../h/syscall_cpp.hpp ****     thread_t myHandle;
  33:src/../h/syscall_cpp.hpp **** protected:
  34:src/../h/syscall_cpp.hpp ****     Thread();
  35:src/../h/syscall_cpp.hpp **** 
  36:src/../h/syscall_cpp.hpp ****     virtual void run() {}
  13              		.loc 1 36 18
  14              		.cfi_startproc
  15              	.LVL0:
  16 0000 130101FF 		addi	sp,sp,-16
  17              		.cfi_def_cfa_offset 16
  18 0004 23348100 		sd	s0,8(sp)
  19              		.cfi_offset 8, -8
  20 0008 13040101 		addi	s0,sp,16
  21              		.cfi_def_cfa 8, 0
  22              		.loc 1 36 25 is_stmt 0
GAS LISTING /tmp/ccVT2ggL.s 			page 2


  23 000c 03348100 		ld	s0,8(sp)
  24              		.cfi_restore 8
  25              		.cfi_def_cfa 2, 16
  26 0010 13010101 		addi	sp,sp,16
  27              		.cfi_def_cfa_offset 0
  28 0014 67800000 		jr	ra
  29              		.cfi_endproc
  30              	.LFE21:
  32              		.section	.text._ZN14PeriodicThread18periodicActivationEv,"axG",@progbits,_ZN14PeriodicThread18peri
  33              		.align	2
  34              		.weak	_ZN14PeriodicThread18periodicActivationEv
  36              	_ZN14PeriodicThread18periodicActivationEv:
  37              	.LFB22:
  37:src/../h/syscall_cpp.hpp **** private:
  38:src/../h/syscall_cpp.hpp ****     void (*f)(void*);
  39:src/../h/syscall_cpp.hpp ****     void* args;
  40:src/../h/syscall_cpp.hpp ****     static void runner(void* t);
  41:src/../h/syscall_cpp.hpp **** };
  42:src/../h/syscall_cpp.hpp **** 
  43:src/../h/syscall_cpp.hpp **** class Semaphore
  44:src/../h/syscall_cpp.hpp **** {
  45:src/../h/syscall_cpp.hpp **** public:
  46:src/../h/syscall_cpp.hpp ****     Semaphore(unsigned init = 1);
  47:src/../h/syscall_cpp.hpp **** 
  48:src/../h/syscall_cpp.hpp ****     virtual ~Semaphore();
  49:src/../h/syscall_cpp.hpp **** 
  50:src/../h/syscall_cpp.hpp ****     int wait();
  51:src/../h/syscall_cpp.hpp ****     int signal();
  52:src/../h/syscall_cpp.hpp **** 
  53:src/../h/syscall_cpp.hpp **** private:
  54:src/../h/syscall_cpp.hpp ****     sem_t myHandle;
  55:src/../h/syscall_cpp.hpp **** };
  56:src/../h/syscall_cpp.hpp **** 
  57:src/../h/syscall_cpp.hpp **** class Console
  58:src/../h/syscall_cpp.hpp **** {
  59:src/../h/syscall_cpp.hpp **** public:
  60:src/../h/syscall_cpp.hpp ****     static char getc();
  61:src/../h/syscall_cpp.hpp ****     static void putc(char);
  62:src/../h/syscall_cpp.hpp **** };
  63:src/../h/syscall_cpp.hpp **** 
  64:src/../h/syscall_cpp.hpp **** class PeriodicThread : public Thread
  65:src/../h/syscall_cpp.hpp **** {
  66:src/../h/syscall_cpp.hpp **** protected:
  67:src/../h/syscall_cpp.hpp ****     PeriodicThread(time_t period);
  68:src/../h/syscall_cpp.hpp ****     virtual void periodicActivation() {};
  38              		.loc 1 68 18 is_stmt 1
  39              		.cfi_startproc
  40              	.LVL1:
  41 0000 130101FF 		addi	sp,sp,-16
  42              		.cfi_def_cfa_offset 16
  43 0004 23348100 		sd	s0,8(sp)
  44              		.cfi_offset 8, -8
  45 0008 13040101 		addi	s0,sp,16
  46              		.cfi_def_cfa 8, 0
  47              		.loc 1 68 40 is_stmt 0
  48 000c 03348100 		ld	s0,8(sp)
  49              		.cfi_restore 8
GAS LISTING /tmp/ccVT2ggL.s 			page 3


  50              		.cfi_def_cfa 2, 16
  51 0010 13010101 		addi	sp,sp,16
  52              		.cfi_def_cfa_offset 0
  53 0014 67800000 		jr	ra
  54              		.cfi_endproc
  55              	.LFE22:
  57              		.section	.rodata.str1.8,"aMS",@progbits,1
  58              		.align	3
  59              	.LC0:
  60 0000 49646C65 		.string	"Idle\n"
  60      0A00
  61              		.text
  62              		.align	2
  63              		.globl	_Z4idlePv
  65              	_Z4idlePv:
  66              	.LFB23:
  67              		.file 2 "src/Tests.cpp"
   1:src/Tests.cpp **** //
   2:src/Tests.cpp **** // Created by os on 5/5/22.
   3:src/Tests.cpp **** //
   4:src/Tests.cpp **** 
   5:src/Tests.cpp **** #include "../h/Tests.hpp"
   6:src/Tests.cpp **** #include "../lib/console.h"
   7:src/Tests.cpp **** 
   8:src/Tests.cpp **** void idle(void* args)
   9:src/Tests.cpp **** {
  68              		.loc 2 9 1 is_stmt 1
  69              		.cfi_startproc
  70              	.LVL2:
  71 0000 130101FF 		addi	sp,sp,-16
  72              		.cfi_def_cfa_offset 16
  73 0004 23341100 		sd	ra,8(sp)
  74 0008 23308100 		sd	s0,0(sp)
  75              		.cfi_offset 1, -8
  76              		.cfi_offset 8, -16
  77 000c 13040101 		addi	s0,sp,16
  78              		.cfi_def_cfa 8, 0
  79              	.LVL3:
  80              	.L6:
  10:src/Tests.cpp ****     while(true)
  81              		.loc 2 10 5 discriminator 1
  11:src/Tests.cpp ****     {
  12:src/Tests.cpp ****         Riscv::printString("Idle\n");
  82              		.loc 2 12 9 discriminator 1
  83              		.loc 2 12 27 is_stmt 0 discriminator 1
  84 0010 17050000 		lla	a0,.LC0
  84      13050500 
  85 0018 97000000 		call	_ZN5Riscv11printStringEPKc@plt
  85      E7800000 
  86              	.LVL4:
  13:src/Tests.cpp ****         thread_dispatch();
  87              		.loc 2 13 9 is_stmt 1 discriminator 1
  88              		.loc 2 13 24 is_stmt 0 discriminator 1
  89 0020 97000000 		call	thread_dispatch@plt
  89      E7800000 
  90              	.LVL5:
  10:src/Tests.cpp ****     while(true)
GAS LISTING /tmp/ccVT2ggL.s 			page 4


  91              		.loc 2 10 5 is_stmt 1 discriminator 1
  92 0028 6FF09FFE 		j	.L6
  93              		.cfi_endproc
  94              	.LFE23:
  96              		.section	.rodata.str1.8
  97 0006 0000     		.align	3
  98              	.LC1:
  99 0008 54687265 		.string	"Thread 1 started...\n"
  99      61642031 
  99      20737461 
  99      72746564 
  99      2E2E2E0A 
 100 001d 000000   		.align	3
 101              	.LC2:
 102 0020 69203A20 		.string	"i : "
 102      00
 103 0025 000000   		.align	3
 104              	.LC3:
 105 0028 0A00     		.string	"\n"
 106              		.text
 107              		.align	2
 108              		.globl	_Z15thread1FunctionPv
 110              	_Z15thread1FunctionPv:
 111              	.LFB24:
  14:src/Tests.cpp ****     }
  15:src/Tests.cpp **** }
  16:src/Tests.cpp **** 
  17:src/Tests.cpp **** void thread1Function(void* p)
  18:src/Tests.cpp **** {
 112              		.loc 2 18 1
 113              		.cfi_startproc
 114              	.LVL6:
 115 002c 130101FE 		addi	sp,sp,-32
 116              		.cfi_def_cfa_offset 32
 117 0030 233C1100 		sd	ra,24(sp)
 118 0034 23388100 		sd	s0,16(sp)
 119 0038 23349100 		sd	s1,8(sp)
 120              		.cfi_offset 1, -8
 121              		.cfi_offset 8, -16
 122              		.cfi_offset 9, -24
 123 003c 13040102 		addi	s0,sp,32
 124              		.cfi_def_cfa 8, 0
  19:src/Tests.cpp ****     Riscv::printString("Thread 1 started...\n");
 125              		.loc 2 19 5
 126              		.loc 2 19 23 is_stmt 0
 127 0040 17050000 		lla	a0,.LC1
 127      13050500 
 128              	.LVL7:
 129 0048 97000000 		call	_ZN5Riscv11printStringEPKc@plt
 129      E7800000 
 130              	.LVL8:
  20:src/Tests.cpp ****     uint64 num = 10000;
 131              		.loc 2 20 5 is_stmt 1
  21:src/Tests.cpp ****     for(uint64 i = 0; i < num;i++)
 132              		.loc 2 21 5
 133              	.LBB20:
 134              		.loc 2 21 16 is_stmt 0
GAS LISTING /tmp/ccVT2ggL.s 			page 5


 135 0050 93040000 		li	s1,0
 136 0054 6F00C003 		j	.L11
 137              	.LVL9:
 138              	.L13:
  22:src/Tests.cpp ****     {
  23:src/Tests.cpp ****         if(i % 150 == 0 && i > 0)
  24:src/Tests.cpp ****             thread_dispatch();
 139              		.loc 2 24 13 is_stmt 1
 140              		.loc 2 24 28 is_stmt 0
 141 0058 97000000 		call	thread_dispatch@plt
 141      E7800000 
 142              	.LVL10:
 143              	.L10:
  25:src/Tests.cpp ****         Riscv::printString("i : ");
 144              		.loc 2 25 9 is_stmt 1 discriminator 2
 145              		.loc 2 25 27 is_stmt 0 discriminator 2
 146 0060 17050000 		lla	a0,.LC2
 146      13050500 
 147 0068 97000000 		call	_ZN5Riscv11printStringEPKc@plt
 147      E7800000 
 148              	.LVL11:
  26:src/Tests.cpp ****         Riscv::printInteger(i);
 149              		.loc 2 26 9 is_stmt 1 discriminator 2
 150              		.loc 2 26 28 is_stmt 0 discriminator 2
 151 0070 13850400 		mv	a0,s1
 152 0074 97000000 		call	_ZN5Riscv12printIntegerEm@plt
 152      E7800000 
 153              	.LVL12:
  27:src/Tests.cpp ****         Riscv::printString("\n");
 154              		.loc 2 27 9 is_stmt 1 discriminator 2
 155              		.loc 2 27 27 is_stmt 0 discriminator 2
 156 007c 17050000 		lla	a0,.LC3
 156      13050500 
 157 0084 97000000 		call	_ZN5Riscv11printStringEPKc@plt
 157      E7800000 
 158              	.LVL13:
  21:src/Tests.cpp ****     {
 159              		.loc 2 21 5 is_stmt 1 discriminator 2
 160 008c 93841400 		addi	s1,s1,1
 161              	.LVL14:
 162              	.L11:
  21:src/Tests.cpp ****     {
 163              		.loc 2 21 25 discriminator 1
 164 0090 B7270000 		li	a5,8192
 165 0094 9387F770 		addi	a5,a5,1807
 166 0098 63EC9700 		bgtu	s1,a5,.L8
  23:src/Tests.cpp ****             thread_dispatch();
 167              		.loc 2 23 9
  23:src/Tests.cpp ****             thread_dispatch();
 168              		.loc 2 23 14 is_stmt 0
 169 009c 93076009 		li	a5,150
 170 00a0 B3F7F402 		remu	a5,s1,a5
  23:src/Tests.cpp ****             thread_dispatch();
 171              		.loc 2 23 9
 172 00a4 E39E07FA 		bnez	a5,.L10
  23:src/Tests.cpp ****             thread_dispatch();
 173              		.loc 2 23 25 discriminator 1
GAS LISTING /tmp/ccVT2ggL.s 			page 6


 174 00a8 E38C04FA 		beqz	s1,.L10
 175 00ac 6FF0DFFA 		j	.L13
 176              	.L8:
 177              	.LBE20:
  28:src/Tests.cpp ****     }
  29:src/Tests.cpp **** }
 178              		.loc 2 29 1
 179 00b0 83308101 		ld	ra,24(sp)
 180              		.cfi_restore 1
 181 00b4 03340101 		ld	s0,16(sp)
 182              		.cfi_restore 8
 183              		.cfi_def_cfa 2, 32
 184 00b8 83348100 		ld	s1,8(sp)
 185              		.cfi_restore 9
 186              	.LVL15:
 187 00bc 13010102 		addi	sp,sp,32
 188              		.cfi_def_cfa_offset 0
 189 00c0 67800000 		jr	ra
 190              		.cfi_endproc
 191              	.LFE24:
 193              		.section	.rodata.str1.8
 194 002a 00000000 		.align	3
 194      0000
 195              	.LC4:
 196 0030 54687265 		.string	"Thread 2 started...\n"
 196      61642032 
 196      20737461 
 196      72746564 
 196      2E2E2E0A 
 197 0045 000000   		.align	3
 198              	.LC5:
 199 0048 6A203A20 		.string	"j : "
 199      00
 200              		.text
 201              		.align	2
 202              		.globl	_Z15thread2FunctionPv
 204              	_Z15thread2FunctionPv:
 205              	.LFB25:
  30:src/Tests.cpp **** 
  31:src/Tests.cpp **** void thread2Function(void* p)
  32:src/Tests.cpp **** {
 206              		.loc 2 32 1 is_stmt 1
 207              		.cfi_startproc
 208              	.LVL16:
 209 00c4 130101FE 		addi	sp,sp,-32
 210              		.cfi_def_cfa_offset 32
 211 00c8 233C1100 		sd	ra,24(sp)
 212 00cc 23388100 		sd	s0,16(sp)
 213 00d0 23349100 		sd	s1,8(sp)
 214              		.cfi_offset 1, -8
 215              		.cfi_offset 8, -16
 216              		.cfi_offset 9, -24
 217 00d4 13040102 		addi	s0,sp,32
 218              		.cfi_def_cfa 8, 0
  33:src/Tests.cpp ****     Riscv::printString("Thread 2 started...\n");
 219              		.loc 2 33 5
 220              		.loc 2 33 23 is_stmt 0
GAS LISTING /tmp/ccVT2ggL.s 			page 7


 221 00d8 17050000 		lla	a0,.LC4
 221      13050500 
 222              	.LVL17:
 223 00e0 97000000 		call	_ZN5Riscv11printStringEPKc@plt
 223      E7800000 
 224              	.LVL18:
  34:src/Tests.cpp ****     uint64 num = 10000;
 225              		.loc 2 34 5 is_stmt 1
  35:src/Tests.cpp ****     for(uint64 j = 0; j < num;j++)
 226              		.loc 2 35 5
 227              	.LBB21:
 228              		.loc 2 35 16 is_stmt 0
 229 00e8 93040000 		li	s1,0
 230 00ec 6F00C003 		j	.L17
 231              	.LVL19:
 232              	.L19:
  36:src/Tests.cpp ****     {
  37:src/Tests.cpp ****         if(j % 50 == 0 && j > 0)
  38:src/Tests.cpp ****             thread_dispatch();
 233              		.loc 2 38 13 is_stmt 1
 234              		.loc 2 38 28 is_stmt 0
 235 00f0 97000000 		call	thread_dispatch@plt
 235      E7800000 
 236              	.LVL20:
 237              	.L16:
  39:src/Tests.cpp ****         Riscv::printString("j : ");
 238              		.loc 2 39 9 is_stmt 1 discriminator 2
 239              		.loc 2 39 27 is_stmt 0 discriminator 2
 240 00f8 17050000 		lla	a0,.LC5
 240      13050500 
 241 0100 97000000 		call	_ZN5Riscv11printStringEPKc@plt
 241      E7800000 
 242              	.LVL21:
  40:src/Tests.cpp ****         Riscv::printInteger(j);
 243              		.loc 2 40 9 is_stmt 1 discriminator 2
 244              		.loc 2 40 28 is_stmt 0 discriminator 2
 245 0108 13850400 		mv	a0,s1
 246 010c 97000000 		call	_ZN5Riscv12printIntegerEm@plt
 246      E7800000 
 247              	.LVL22:
  41:src/Tests.cpp ****         Riscv::printString("\n");
 248              		.loc 2 41 9 is_stmt 1 discriminator 2
 249              		.loc 2 41 27 is_stmt 0 discriminator 2
 250 0114 17050000 		lla	a0,.LC3
 250      13050500 
 251 011c 97000000 		call	_ZN5Riscv11printStringEPKc@plt
 251      E7800000 
 252              	.LVL23:
  35:src/Tests.cpp ****     {
 253              		.loc 2 35 5 is_stmt 1 discriminator 2
 254 0124 93841400 		addi	s1,s1,1
 255              	.LVL24:
 256              	.L17:
  35:src/Tests.cpp ****     {
 257              		.loc 2 35 25 discriminator 1
 258 0128 B7270000 		li	a5,8192
 259 012c 9387F770 		addi	a5,a5,1807
GAS LISTING /tmp/ccVT2ggL.s 			page 8


 260 0130 63EC9700 		bgtu	s1,a5,.L14
  37:src/Tests.cpp ****             thread_dispatch();
 261              		.loc 2 37 9
  37:src/Tests.cpp ****             thread_dispatch();
 262              		.loc 2 37 14 is_stmt 0
 263 0134 93072003 		li	a5,50
 264 0138 B3F7F402 		remu	a5,s1,a5
  37:src/Tests.cpp ****             thread_dispatch();
 265              		.loc 2 37 9
 266 013c E39E07FA 		bnez	a5,.L16
  37:src/Tests.cpp ****             thread_dispatch();
 267              		.loc 2 37 24 discriminator 1
 268 0140 E38C04FA 		beqz	s1,.L16
 269 0144 6FF0DFFA 		j	.L19
 270              	.L14:
 271              	.LBE21:
  42:src/Tests.cpp ****     }
  43:src/Tests.cpp **** }
 272              		.loc 2 43 1
 273 0148 83308101 		ld	ra,24(sp)
 274              		.cfi_restore 1
 275 014c 03340101 		ld	s0,16(sp)
 276              		.cfi_restore 8
 277              		.cfi_def_cfa 2, 32
 278 0150 83348100 		ld	s1,8(sp)
 279              		.cfi_restore 9
 280              	.LVL25:
 281 0154 13010102 		addi	sp,sp,32
 282              		.cfi_def_cfa_offset 0
 283 0158 67800000 		jr	ra
 284              		.cfi_endproc
 285              	.LFE25:
 287              		.align	2
 288              		.globl	_ZN12TestPeriodic18periodicActivationEv
 290              	_ZN12TestPeriodic18periodicActivationEv:
 291              	.LFB55:
  44:src/Tests.cpp **** 
  45:src/Tests.cpp **** void thread2FunctionTest2(void* p)
  46:src/Tests.cpp **** {
  47:src/Tests.cpp ****     Riscv::printString("Thread 2 started...\n");
  48:src/Tests.cpp ****     uint64 num = 10000;
  49:src/Tests.cpp ****     for(uint64 j = 0; j < num;j++)
  50:src/Tests.cpp ****     {
  51:src/Tests.cpp ****         if(j == 200)
  52:src/Tests.cpp ****             thread_exit();
  53:src/Tests.cpp ****         if(j % 50 == 0 && j > 0)
  54:src/Tests.cpp ****             thread_dispatch();
  55:src/Tests.cpp ****         Riscv::printString("j : ");
  56:src/Tests.cpp ****         Riscv::printInteger(j);
  57:src/Tests.cpp ****         Riscv::printString("\n");
  58:src/Tests.cpp ****     }
  59:src/Tests.cpp **** }
  60:src/Tests.cpp **** 
  61:src/Tests.cpp **** void threadTest1()
  62:src/Tests.cpp **** {
  63:src/Tests.cpp ****     Thread* t1 = new Thread(&thread1Function, 0);
  64:src/Tests.cpp ****     t1->start();
GAS LISTING /tmp/ccVT2ggL.s 			page 9


  65:src/Tests.cpp ****     Thread* t2 = new Thread(&thread2Function, 0);
  66:src/Tests.cpp ****     t2->start();
  67:src/Tests.cpp ****     Riscv::enableInterrupts();
  68:src/Tests.cpp ****     while(((PCB*)(t1->myHandle))->getState() != PCB::FINISHED || ((PCB*)(t2->myHandle))->getState()
  69:src/Tests.cpp ****     {
  70:src/Tests.cpp ****         Riscv::printString("Main thread\n");
  71:src/Tests.cpp ****         thread_dispatch();
  72:src/Tests.cpp ****     }
  73:src/Tests.cpp **** 
  74:src/Tests.cpp ****     Riscv::printString("End...\n");
  75:src/Tests.cpp ****     Riscv::disableInterrupts();
  76:src/Tests.cpp **** }
  77:src/Tests.cpp **** 
  78:src/Tests.cpp **** void threadTest2()
  79:src/Tests.cpp **** {
  80:src/Tests.cpp ****     Thread* idleThread = new Thread(&idle, 0);
  81:src/Tests.cpp ****     idleThread->start();
  82:src/Tests.cpp ****     Thread* t1 = new Thread(&thread1Function, 0);
  83:src/Tests.cpp ****     t1->start();
  84:src/Tests.cpp ****     Thread* t2  = new Thread(&thread2FunctionTest2, 0);
  85:src/Tests.cpp ****     t2->start();
  86:src/Tests.cpp **** 
  87:src/Tests.cpp ****     Riscv::enableInterrupts();
  88:src/Tests.cpp **** 
  89:src/Tests.cpp ****     while(((PCB*)idleThread->myHandle)->getState() != PCB::FINISHED);
  90:src/Tests.cpp **** 
  91:src/Tests.cpp ****     Riscv::printString("End...\n");
  92:src/Tests.cpp **** 
  93:src/Tests.cpp ****     Riscv::disableInterrupts();
  94:src/Tests.cpp **** }
  95:src/Tests.cpp **** 
  96:src/Tests.cpp **** 
  97:src/Tests.cpp **** void threadTest3()
  98:src/Tests.cpp **** {
  99:src/Tests.cpp ****     Thread* t = new TestPeriodic(50);
 100:src/Tests.cpp ****     t->start();
 101:src/Tests.cpp ****     while(true)
 102:src/Tests.cpp ****     {
 103:src/Tests.cpp ****         //thread_dispatch();
 104:src/Tests.cpp ****     }
 105:src/Tests.cpp **** }
 106:src/Tests.cpp **** 
 107:src/Tests.cpp **** void threadTests()
 108:src/Tests.cpp **** {
 109:src/Tests.cpp ****     //threadTest1();
 110:src/Tests.cpp ****     //threadTest2();
 111:src/Tests.cpp ****     threadTest3();
 112:src/Tests.cpp **** }
 113:src/Tests.cpp **** 
 114:src/Tests.cpp **** 
 115:src/Tests.cpp **** //memory (de)allocation tests
 116:src/Tests.cpp **** void mallocFree()
 117:src/Tests.cpp **** {
 118:src/Tests.cpp ****     Riscv::printString("mallocFree\n");
 119:src/Tests.cpp ****     constexpr int num = 100;
 120:src/Tests.cpp ****     void* addrs[num];
 121:src/Tests.cpp ****     for(int i = 0; i < num;i++)
GAS LISTING /tmp/ccVT2ggL.s 			page 10


 122:src/Tests.cpp ****     {
 123:src/Tests.cpp ****         addrs[i] = mem_alloc(100);
 124:src/Tests.cpp ****         if(addrs[i] == 0)
 125:src/Tests.cpp ****         {
 126:src/Tests.cpp ****             Riscv::printString("not OK\n");
 127:src/Tests.cpp ****             return;
 128:src/Tests.cpp ****         }
 129:src/Tests.cpp **** 
 130:src/Tests.cpp ****     }
 131:src/Tests.cpp **** 
 132:src/Tests.cpp ****     for(int i = 0 ; i < num;i+=2)
 133:src/Tests.cpp ****     {
 134:src/Tests.cpp ****         int retval = mem_free(addrs[i]);
 135:src/Tests.cpp ****         if(retval != 0)
 136:src/Tests.cpp ****         {
 137:src/Tests.cpp ****             Riscv::printString("not OK\n");
 138:src/Tests.cpp ****             return;
 139:src/Tests.cpp ****         }
 140:src/Tests.cpp ****     }
 141:src/Tests.cpp **** 
 142:src/Tests.cpp ****     for(int i = 0 ; i < num;i+=2)
 143:src/Tests.cpp ****     {
 144:src/Tests.cpp ****         addrs[i] = mem_alloc(20);
 145:src/Tests.cpp ****         if(addrs[i] == 0)
 146:src/Tests.cpp ****         {
 147:src/Tests.cpp ****             Riscv::printString("not OK\n");
 148:src/Tests.cpp ****             return;
 149:src/Tests.cpp ****         }
 150:src/Tests.cpp ****     }
 151:src/Tests.cpp **** 
 152:src/Tests.cpp ****     for(int i = 0; i < num;i++)
 153:src/Tests.cpp ****     {
 154:src/Tests.cpp ****         int retval = mem_free(addrs[i]);
 155:src/Tests.cpp ****         if(retval != 0)
 156:src/Tests.cpp ****         {
 157:src/Tests.cpp ****             Riscv::printString("not OK\n");
 158:src/Tests.cpp ****             return;
 159:src/Tests.cpp ****         }
 160:src/Tests.cpp ****     }
 161:src/Tests.cpp **** 
 162:src/Tests.cpp ****     Riscv::printString("OK\n");
 163:src/Tests.cpp **** }
 164:src/Tests.cpp **** void bigMalloc()
 165:src/Tests.cpp **** {
 166:src/Tests.cpp ****     Riscv::printString("bigMalloc\n");
 167:src/Tests.cpp ****     uint64 x = (uint64)HEAP_END_ADDR - (uint64)HEAP_START_ADDR + 100UL;
 168:src/Tests.cpp ****     void* p = mem_alloc(x);
 169:src/Tests.cpp ****     if(p == 0)
 170:src/Tests.cpp ****         Riscv::printString("OK\n");
 171:src/Tests.cpp ****     else
 172:src/Tests.cpp ****         Riscv::printString("not OK\n");
 173:src/Tests.cpp **** }
 174:src/Tests.cpp **** 
 175:src/Tests.cpp **** void lotOfSmallMallocs()
 176:src/Tests.cpp **** {
 177:src/Tests.cpp ****     Riscv::printString("lotOfSmallMallocs\n");
 178:src/Tests.cpp ****     uint64 cnt = 0;
GAS LISTING /tmp/ccVT2ggL.s 			page 11


 179:src/Tests.cpp ****     uint64 sum = 0;
 180:src/Tests.cpp ****     uint64 N = 10000UL;
 181:src/Tests.cpp ****     uint64 X = 10UL;
 182:src/Tests.cpp ****     for(uint64 i = 0; i < N;i++)
 183:src/Tests.cpp ****     {
 184:src/Tests.cpp ****         Test* t = (Test*)mem_alloc(sizeof(Test));
 185:src/Tests.cpp ****         if(t == 0)
 186:src/Tests.cpp ****             break;
 187:src/Tests.cpp ****         t->a = X;
 188:src/Tests.cpp ****         sum+=t->a;
 189:src/Tests.cpp ****         cnt++;
 190:src/Tests.cpp ****     }
 191:src/Tests.cpp ****     Riscv::printInteger(cnt);
 192:src/Tests.cpp ****     Riscv::printString("\n");
 193:src/Tests.cpp ****     if(sum == X*cnt)
 194:src/Tests.cpp ****         Riscv::printString("OK\n");
 195:src/Tests.cpp ****     else
 196:src/Tests.cpp ****         Riscv::printString("not OK\n");
 197:src/Tests.cpp **** }
 198:src/Tests.cpp **** void badFree()
 199:src/Tests.cpp **** {
 200:src/Tests.cpp ****     Riscv::printString("badFree\n");
 201:src/Tests.cpp ****     Test* t = (Test*)mem_alloc(sizeof(Test));
 202:src/Tests.cpp ****     uint64 retval = mem_free((char*)t + 2);
 203:src/Tests.cpp ****     if(retval == 0)
 204:src/Tests.cpp ****         Riscv::printString("not OK\n");
 205:src/Tests.cpp ****     else
 206:src/Tests.cpp ****         Riscv::printString("OK\n");
 207:src/Tests.cpp **** }
 208:src/Tests.cpp **** 
 209:src/Tests.cpp **** void stressTesting()
 210:src/Tests.cpp **** {
 211:src/Tests.cpp ****     Riscv::printString("stressTesting\n");
 212:src/Tests.cpp ****     constexpr int num = 100;
 213:src/Tests.cpp ****     void* addrs[num];
 214:src/Tests.cpp ****     for(int i = 0; i < num;i++)
 215:src/Tests.cpp ****     {
 216:src/Tests.cpp ****         addrs[i] = mem_alloc(1);
 217:src/Tests.cpp ****         if(addrs[i] == 0)
 218:src/Tests.cpp ****         {
 219:src/Tests.cpp ****             //Riscv::printString("not OK\n");
 220:src/Tests.cpp ****             return;
 221:src/Tests.cpp ****         }
 222:src/Tests.cpp **** 
 223:src/Tests.cpp ****     }
 224:src/Tests.cpp ****     int sz = 300;
 225:src/Tests.cpp ****     while(sz > 0)
 226:src/Tests.cpp ****     {
 227:src/Tests.cpp ****         //Riscv::printString("sz : ");
 228:src/Tests.cpp ****         //Riscv::printInteger(sz);
 229:src/Tests.cpp ****         for(int i = 0 ; i < num;i+=2)
 230:src/Tests.cpp ****         {
 231:src/Tests.cpp ****             //Riscv::printString("i : ");
 232:src/Tests.cpp ****             //Riscv::printInteger(i);
 233:src/Tests.cpp ****             //Riscv::printString("free\n");
 234:src/Tests.cpp ****             int retval = mem_free(addrs[i]);
 235:src/Tests.cpp ****             if(retval != 0)
GAS LISTING /tmp/ccVT2ggL.s 			page 12


 236:src/Tests.cpp ****             {
 237:src/Tests.cpp ****                 //Riscv::printString("not OK\n");
 238:src/Tests.cpp ****                 return;
 239:src/Tests.cpp ****             }
 240:src/Tests.cpp ****             //Riscv::printString("alloc\n");
 241:src/Tests.cpp ****             addrs[i] = mem_alloc(sz/2);
 242:src/Tests.cpp ****             if(addrs[i] == 0)
 243:src/Tests.cpp ****             {
 244:src/Tests.cpp ****                 //Riscv::printString("not Ok\n");
 245:src/Tests.cpp ****                 return;
 246:src/Tests.cpp ****             }
 247:src/Tests.cpp **** 
 248:src/Tests.cpp ****         }
 249:src/Tests.cpp **** 
 250:src/Tests.cpp ****         for(int i = 1 ; i < num;i+=2)
 251:src/Tests.cpp ****         {
 252:src/Tests.cpp ****             //Riscv::printString("i : ");
 253:src/Tests.cpp ****             //Riscv::printInteger(i);
 254:src/Tests.cpp ****             //Riscv::printString("free\n");
 255:src/Tests.cpp ****             int retval = mem_free(addrs[i]);
 256:src/Tests.cpp ****             if(retval != 0)
 257:src/Tests.cpp ****             {
 258:src/Tests.cpp ****                 //Riscv::printString("not OK\n");
 259:src/Tests.cpp ****                 return;
 260:src/Tests.cpp ****             }
 261:src/Tests.cpp ****             //Riscv::printString("alloc\n");
 262:src/Tests.cpp ****             addrs[i] = mem_alloc(sz);
 263:src/Tests.cpp ****             if(addrs[i] == 0)
 264:src/Tests.cpp ****             {
 265:src/Tests.cpp ****                 //Riscv::printString("not Ok\n");
 266:src/Tests.cpp ****                 return;
 267:src/Tests.cpp ****             }
 268:src/Tests.cpp **** 
 269:src/Tests.cpp ****         }
 270:src/Tests.cpp ****         sz-=10;
 271:src/Tests.cpp ****     }
 272:src/Tests.cpp **** 
 273:src/Tests.cpp ****     Riscv::printString("OK\n");
 274:src/Tests.cpp **** }
 275:src/Tests.cpp **** 
 276:src/Tests.cpp **** void memoryAllocationTests()
 277:src/Tests.cpp **** {
 278:src/Tests.cpp ****     //bigMalloc();
 279:src/Tests.cpp ****     //lotOfSmallMallocs();
 280:src/Tests.cpp ****     //mallocFree();
 281:src/Tests.cpp ****     //badFree();
 282:src/Tests.cpp ****     //stressTesting();
 283:src/Tests.cpp ****     //mallocTest();
 284:src/Tests.cpp ****     //mallocEverything();
 285:src/Tests.cpp ****     mallocGapFillTest();
 286:src/Tests.cpp **** }
 287:src/Tests.cpp **** 
 288:src/Tests.cpp **** //semaphore tests
 289:src/Tests.cpp **** static Semaphore* mutex;
 290:src/Tests.cpp **** static Semaphore* s11, *s22;
 291:src/Tests.cpp **** 
 292:src/Tests.cpp **** void foo()
GAS LISTING /tmp/ccVT2ggL.s 			page 13


 293:src/Tests.cpp **** {
 294:src/Tests.cpp ****     s11->wait();
 295:src/Tests.cpp ****     Riscv::printString("foo exec\n");
 296:src/Tests.cpp ****     s22->signal();
 297:src/Tests.cpp **** }
 298:src/Tests.cpp **** 
 299:src/Tests.cpp **** void foo2()
 300:src/Tests.cpp **** {
 301:src/Tests.cpp ****     s22->wait();
 302:src/Tests.cpp ****     Riscv::printString("foo2 exec\n");
 303:src/Tests.cpp ****     s11->signal();
 304:src/Tests.cpp **** }
 305:src/Tests.cpp **** 
 306:src/Tests.cpp **** 
 307:src/Tests.cpp **** void f1(void* p)
 308:src/Tests.cpp **** {
 309:src/Tests.cpp ****     Riscv::printString("f1 started\n");
 310:src/Tests.cpp ****     for(int br = 0;br < 10;br++)
 311:src/Tests.cpp ****     {
 312:src/Tests.cpp ****         for (int i = 0; i < 5; i++)
 313:src/Tests.cpp ****             foo();
 314:src/Tests.cpp ****         if(br == 5)
 315:src/Tests.cpp ****             thread_dispatch();
 316:src/Tests.cpp ****     }
 317:src/Tests.cpp **** }
 318:src/Tests.cpp **** 
 319:src/Tests.cpp **** void f2(void* p)
 320:src/Tests.cpp **** {
 321:src/Tests.cpp ****     Riscv::printString("f2 started\n");
 322:src/Tests.cpp ****     for(int br = 0;br < 1;br++)
 323:src/Tests.cpp ****     {
 324:src/Tests.cpp ****         for(int j = 0; j < 10;j++)
 325:src/Tests.cpp ****             foo2();
 326:src/Tests.cpp ****         if(br == 6)
 327:src/Tests.cpp ****             thread_dispatch();
 328:src/Tests.cpp ****     }
 329:src/Tests.cpp **** }
 330:src/Tests.cpp **** 
 331:src/Tests.cpp **** void semTest1()
 332:src/Tests.cpp **** {
 333:src/Tests.cpp ****     mutex = new Semaphore(1);
 334:src/Tests.cpp ****     s11 = new Semaphore(1);
 335:src/Tests.cpp ****     s22 = new Semaphore(0);
 336:src/Tests.cpp ****     Thread* t1 = new Thread(&f1, 0);
 337:src/Tests.cpp ****     Thread* t2 = new Thread(&f2, 0);
 338:src/Tests.cpp ****     t2->start();
 339:src/Tests.cpp ****     t1->start();
 340:src/Tests.cpp **** 
 341:src/Tests.cpp ****     thread_dispatch();
 342:src/Tests.cpp **** 
 343:src/Tests.cpp ****     while(true)
 344:src/Tests.cpp ****     {
 345:src/Tests.cpp ****         thread_dispatch();
 346:src/Tests.cpp ****     }
 347:src/Tests.cpp **** }
 348:src/Tests.cpp **** 
 349:src/Tests.cpp **** static Semaphore* s1;
GAS LISTING /tmp/ccVT2ggL.s 			page 14


 350:src/Tests.cpp **** static Semaphore* s2;
 351:src/Tests.cpp **** static Semaphore* s3;
 352:src/Tests.cpp **** 
 353:src/Tests.cpp **** void f1_2(void* p)
 354:src/Tests.cpp **** {
 355:src/Tests.cpp ****     Riscv::printString("f1_2 started\n");
 356:src/Tests.cpp ****     int x = 0;
 357:src/Tests.cpp ****     while(true)
 358:src/Tests.cpp ****     {
 359:src/Tests.cpp ****         x++;
 360:src/Tests.cpp ****         s1->wait();
 361:src/Tests.cpp ****         __putc('1');
 362:src/Tests.cpp ****         __putc('\n');
 363:src/Tests.cpp ****         s2->signal();
 364:src/Tests.cpp ****         if(x < 5000)
 365:src/Tests.cpp ****             thread_dispatch();
 366:src/Tests.cpp ****         else
 367:src/Tests.cpp ****             thread_exit();
 368:src/Tests.cpp ****     }
 369:src/Tests.cpp **** }
 370:src/Tests.cpp **** 
 371:src/Tests.cpp **** void f2_2(void* p)
 372:src/Tests.cpp **** {
 373:src/Tests.cpp ****     Riscv::printString("f2_2 started\n");
 374:src/Tests.cpp ****     int x = 0;
 375:src/Tests.cpp ****     while(true)
 376:src/Tests.cpp ****     {
 377:src/Tests.cpp ****         x++;
 378:src/Tests.cpp ****         s2->wait();
 379:src/Tests.cpp ****         __putc('2');
 380:src/Tests.cpp ****         __putc('\n');
 381:src/Tests.cpp ****         s3->signal();
 382:src/Tests.cpp ****         if(x < 5000)
 383:src/Tests.cpp ****             thread_dispatch();
 384:src/Tests.cpp ****         else
 385:src/Tests.cpp ****             thread_exit();
 386:src/Tests.cpp ****     }
 387:src/Tests.cpp **** }
 388:src/Tests.cpp **** 
 389:src/Tests.cpp **** void f3_2(void* p)
 390:src/Tests.cpp **** {
 391:src/Tests.cpp ****     Riscv::printString("f3_2 started\n");
 392:src/Tests.cpp ****     int x = 0;
 393:src/Tests.cpp ****     while(true)
 394:src/Tests.cpp ****     {
 395:src/Tests.cpp ****         x++;
 396:src/Tests.cpp ****         s3->wait();
 397:src/Tests.cpp ****         __putc('3');
 398:src/Tests.cpp ****         __putc('\n');
 399:src/Tests.cpp ****         s1->signal();
 400:src/Tests.cpp ****         if(x < 5000)
 401:src/Tests.cpp ****             thread_dispatch();
 402:src/Tests.cpp ****         else
 403:src/Tests.cpp ****             thread_exit();
 404:src/Tests.cpp ****     }
 405:src/Tests.cpp **** }
 406:src/Tests.cpp **** 
GAS LISTING /tmp/ccVT2ggL.s 			page 15


 407:src/Tests.cpp **** void semTest2()
 408:src/Tests.cpp **** {
 409:src/Tests.cpp ****     s1 = new Semaphore(1);
 410:src/Tests.cpp ****     s2 = new Semaphore(0);
 411:src/Tests.cpp ****     s3 = new Semaphore(0);
 412:src/Tests.cpp ****     Thread* t1 = new Thread(&f1_2, 0);
 413:src/Tests.cpp ****     Thread* t2 = new Thread(&f2_2, 0);
 414:src/Tests.cpp ****     Thread* t3 = new Thread(&f3_2, 0);
 415:src/Tests.cpp ****     t3->start();
 416:src/Tests.cpp ****     t2->start();
 417:src/Tests.cpp ****     t1->start();
 418:src/Tests.cpp **** 
 419:src/Tests.cpp ****     int y = 0;
 420:src/Tests.cpp ****     while(true)
 421:src/Tests.cpp ****     {
 422:src/Tests.cpp ****         y++;
 423:src/Tests.cpp ****         thread_dispatch();
 424:src/Tests.cpp ****         if(y == 200000)
 425:src/Tests.cpp ****             break;
 426:src/Tests.cpp ****     }
 427:src/Tests.cpp **** 
 428:src/Tests.cpp **** }
 429:src/Tests.cpp **** 
 430:src/Tests.cpp **** void semaphoreTests()
 431:src/Tests.cpp **** {
 432:src/Tests.cpp ****     semTest1();
 433:src/Tests.cpp ****     //semTest2();
 434:src/Tests.cpp **** }
 435:src/Tests.cpp **** 
 436:src/Tests.cpp **** void myTests()
 437:src/Tests.cpp **** {
 438:src/Tests.cpp ****     memoryAllocationTests();
 439:src/Tests.cpp ****     //threadTests();
 440:src/Tests.cpp ****     //testQueue();
 441:src/Tests.cpp ****     //semaphoreTests();
 442:src/Tests.cpp **** }
 443:src/Tests.cpp **** 
 444:src/Tests.cpp **** TestPeriodic::TestPeriodic(time_t time) : PeriodicThread(time) {
 445:src/Tests.cpp **** 
 446:src/Tests.cpp **** }
 447:src/Tests.cpp **** 
 448:src/Tests.cpp **** void TestPeriodic::periodicActivation()
 449:src/Tests.cpp **** {
 292              		.loc 2 449 1 is_stmt 1
 293              		.cfi_startproc
 294              	.LVL26:
 295 015c 130101FE 		addi	sp,sp,-32
 296              		.cfi_def_cfa_offset 32
 297 0160 233C1100 		sd	ra,24(sp)
 298 0164 23388100 		sd	s0,16(sp)
 299 0168 23349100 		sd	s1,8(sp)
 300              		.cfi_offset 1, -8
 301              		.cfi_offset 8, -16
 302              		.cfi_offset 9, -24
 303 016c 13040102 		addi	s0,sp,32
 304              		.cfi_def_cfa 8, 0
 450:src/Tests.cpp ****     for(int i = 0 ; i < 10000;i++)
GAS LISTING /tmp/ccVT2ggL.s 			page 16


 305              		.loc 2 450 5
 306              	.LVL27:
 307              	.LBB22:
 308              		.loc 2 450 13 is_stmt 0
 309 0170 93040000 		li	s1,0
 310              	.LVL28:
 311              	.L22:
 312              		.loc 2 450 23 is_stmt 1 discriminator 3
 313 0174 B7270000 		li	a5,8192
 314 0178 9387F770 		addi	a5,a5,1807
 315 017c 63C49702 		bgt	s1,a5,.L20
 451:src/Tests.cpp ****     {
 452:src/Tests.cpp ****         Riscv::printString("i : ");
 316              		.loc 2 452 9 discriminator 2
 317              		.loc 2 452 27 is_stmt 0 discriminator 2
 318 0180 17050000 		lla	a0,.LC2
 318      13050500 
 319 0188 97000000 		call	_ZN5Riscv11printStringEPKc@plt
 319      E7800000 
 320              	.LVL29:
 453:src/Tests.cpp ****         Riscv::printInteger(i);
 321              		.loc 2 453 9 is_stmt 1 discriminator 2
 322              		.loc 2 453 28 is_stmt 0 discriminator 2
 323 0190 13850400 		mv	a0,s1
 324 0194 97000000 		call	_ZN5Riscv12printIntegerEm@plt
 324      E7800000 
 325              	.LVL30:
 450:src/Tests.cpp ****     for(int i = 0 ; i < 10000;i++)
 326              		.loc 2 450 5 is_stmt 1 discriminator 2
 327 019c 9B841400 		addiw	s1,s1,1
 328              	.LVL31:
 329 01a0 6FF05FFD 		j	.L22
 330              	.LVL32:
 331              	.L20:
 332              	.LBE22:
 454:src/Tests.cpp ****     }
 455:src/Tests.cpp **** }
 333              		.loc 2 455 1 is_stmt 0
 334 01a4 83308101 		ld	ra,24(sp)
 335              		.cfi_restore 1
 336 01a8 03340101 		ld	s0,16(sp)
 337              		.cfi_restore 8
 338              		.cfi_def_cfa 2, 32
 339 01ac 83348100 		ld	s1,8(sp)
 340              		.cfi_restore 9
 341              	.LVL33:
 342 01b0 13010102 		addi	sp,sp,32
 343              		.cfi_def_cfa_offset 0
 344 01b4 67800000 		jr	ra
 345              		.cfi_endproc
 346              	.LFE55:
 348              		.align	2
 349              		.globl	_Z20thread2FunctionTest2Pv
 351              	_Z20thread2FunctionTest2Pv:
 352              	.LFB26:
  46:src/Tests.cpp ****     Riscv::printString("Thread 2 started...\n");
 353              		.loc 2 46 1 is_stmt 1
GAS LISTING /tmp/ccVT2ggL.s 			page 17


 354              		.cfi_startproc
 355              	.LVL34:
 356 01b8 130101FE 		addi	sp,sp,-32
 357              		.cfi_def_cfa_offset 32
 358 01bc 233C1100 		sd	ra,24(sp)
 359 01c0 23388100 		sd	s0,16(sp)
 360 01c4 23349100 		sd	s1,8(sp)
 361              		.cfi_offset 1, -8
 362              		.cfi_offset 8, -16
 363              		.cfi_offset 9, -24
 364 01c8 13040102 		addi	s0,sp,32
 365              		.cfi_def_cfa 8, 0
  47:src/Tests.cpp ****     uint64 num = 10000;
 366              		.loc 2 47 5
  47:src/Tests.cpp ****     uint64 num = 10000;
 367              		.loc 2 47 23 is_stmt 0
 368 01cc 17050000 		lla	a0,.LC4
 368      13050500 
 369              	.LVL35:
 370 01d4 97000000 		call	_ZN5Riscv11printStringEPKc@plt
 370      E7800000 
 371              	.LVL36:
  48:src/Tests.cpp ****     for(uint64 j = 0; j < num;j++)
 372              		.loc 2 48 5 is_stmt 1
  49:src/Tests.cpp ****     {
 373              		.loc 2 49 5
 374              	.LBB23:
  49:src/Tests.cpp ****     {
 375              		.loc 2 49 16 is_stmt 0
 376 01dc 93040000 		li	s1,0
 377 01e0 6F008004 		j	.L28
 378              	.LVL37:
 379              	.L30:
  52:src/Tests.cpp ****         if(j % 50 == 0 && j > 0)
 380              		.loc 2 52 13 is_stmt 1
  52:src/Tests.cpp ****         if(j % 50 == 0 && j > 0)
 381              		.loc 2 52 24 is_stmt 0
 382 01e4 97000000 		call	thread_exit@plt
 382      E7800000 
 383              	.LVL38:
 384 01ec 6F000005 		j	.L26
 385              	.L31:
  54:src/Tests.cpp ****         Riscv::printString("j : ");
 386              		.loc 2 54 13 is_stmt 1
  54:src/Tests.cpp ****         Riscv::printString("j : ");
 387              		.loc 2 54 28 is_stmt 0
 388 01f0 97000000 		call	thread_dispatch@plt
 388      E7800000 
 389              	.LVL39:
 390              	.L27:
  55:src/Tests.cpp ****         Riscv::printInteger(j);
 391              		.loc 2 55 9 is_stmt 1 discriminator 2
  55:src/Tests.cpp ****         Riscv::printInteger(j);
 392              		.loc 2 55 27 is_stmt 0 discriminator 2
 393 01f8 17050000 		lla	a0,.LC5
 393      13050500 
 394 0200 97000000 		call	_ZN5Riscv11printStringEPKc@plt
GAS LISTING /tmp/ccVT2ggL.s 			page 18


 394      E7800000 
 395              	.LVL40:
  56:src/Tests.cpp ****         Riscv::printString("\n");
 396              		.loc 2 56 9 is_stmt 1 discriminator 2
  56:src/Tests.cpp ****         Riscv::printString("\n");
 397              		.loc 2 56 28 is_stmt 0 discriminator 2
 398 0208 13850400 		mv	a0,s1
 399 020c 97000000 		call	_ZN5Riscv12printIntegerEm@plt
 399      E7800000 
 400              	.LVL41:
  57:src/Tests.cpp ****     }
 401              		.loc 2 57 9 is_stmt 1 discriminator 2
  57:src/Tests.cpp ****     }
 402              		.loc 2 57 27 is_stmt 0 discriminator 2
 403 0214 17050000 		lla	a0,.LC3
 403      13050500 
 404 021c 97000000 		call	_ZN5Riscv11printStringEPKc@plt
 404      E7800000 
 405              	.LVL42:
  49:src/Tests.cpp ****     {
 406              		.loc 2 49 5 is_stmt 1 discriminator 2
 407 0224 93841400 		addi	s1,s1,1
 408              	.LVL43:
 409              	.L28:
  49:src/Tests.cpp ****     {
 410              		.loc 2 49 25 discriminator 1
 411 0228 B7270000 		li	a5,8192
 412 022c 9387F770 		addi	a5,a5,1807
 413 0230 63E09702 		bgtu	s1,a5,.L24
  51:src/Tests.cpp ****             thread_exit();
 414              		.loc 2 51 9
 415 0234 9307800C 		li	a5,200
 416 0238 E386F4FA 		beq	s1,a5,.L30
 417              	.L26:
  53:src/Tests.cpp ****             thread_dispatch();
 418              		.loc 2 53 9
  53:src/Tests.cpp ****             thread_dispatch();
 419              		.loc 2 53 14 is_stmt 0
 420 023c 93072003 		li	a5,50
 421 0240 B3F7F402 		remu	a5,s1,a5
  53:src/Tests.cpp ****             thread_dispatch();
 422              		.loc 2 53 9
 423 0244 E39A07FA 		bnez	a5,.L27
  53:src/Tests.cpp ****             thread_dispatch();
 424              		.loc 2 53 24 discriminator 1
 425 0248 E38804FA 		beqz	s1,.L27
 426 024c 6FF05FFA 		j	.L31
 427              	.L24:
 428              	.LBE23:
  59:src/Tests.cpp **** 
 429              		.loc 2 59 1
 430 0250 83308101 		ld	ra,24(sp)
 431              		.cfi_restore 1
 432 0254 03340101 		ld	s0,16(sp)
 433              		.cfi_restore 8
 434              		.cfi_def_cfa 2, 32
 435 0258 83348100 		ld	s1,8(sp)
GAS LISTING /tmp/ccVT2ggL.s 			page 19


 436              		.cfi_restore 9
 437              	.LVL44:
 438 025c 13010102 		addi	sp,sp,32
 439              		.cfi_def_cfa_offset 0
 440 0260 67800000 		jr	ra
 441              		.cfi_endproc
 442              	.LFE26:
 444              		.section	.rodata.str1.8
 445 004d 000000   		.align	3
 446              	.LC6:
 447 0050 66315F32 		.string	"f1_2 started\n"
 447      20737461 
 447      72746564 
 447      0A00
 448              		.text
 449              		.align	2
 450              		.globl	_Z4f1_2Pv
 452              	_Z4f1_2Pv:
 453              	.LFB42:
 354:src/Tests.cpp ****     Riscv::printString("f1_2 started\n");
 454              		.loc 2 354 1 is_stmt 1
 455              		.cfi_startproc
 456              	.LVL45:
 457 0264 130101FE 		addi	sp,sp,-32
 458              		.cfi_def_cfa_offset 32
 459 0268 233C1100 		sd	ra,24(sp)
 460 026c 23388100 		sd	s0,16(sp)
 461 0270 23349100 		sd	s1,8(sp)
 462 0274 23302101 		sd	s2,0(sp)
 463              		.cfi_offset 1, -8
 464              		.cfi_offset 8, -16
 465              		.cfi_offset 9, -24
 466              		.cfi_offset 18, -32
 467 0278 13040102 		addi	s0,sp,32
 468              		.cfi_def_cfa 8, 0
 355:src/Tests.cpp ****     int x = 0;
 469              		.loc 2 355 5
 355:src/Tests.cpp ****     int x = 0;
 470              		.loc 2 355 23 is_stmt 0
 471 027c 17050000 		lla	a0,.LC6
 471      13050500 
 472              	.LVL46:
 473 0284 97000000 		call	_ZN5Riscv11printStringEPKc@plt
 473      E7800000 
 474              	.LVL47:
 356:src/Tests.cpp ****     while(true)
 475              		.loc 2 356 5 is_stmt 1
 356:src/Tests.cpp ****     while(true)
 476              		.loc 2 356 9 is_stmt 0
 477 028c 93040000 		li	s1,0
 478 0290 6F00C000 		j	.L33
 479              	.LVL48:
 480              	.L34:
 367:src/Tests.cpp ****     }
 481              		.loc 2 367 13 is_stmt 1
 367:src/Tests.cpp ****     }
 482              		.loc 2 367 24 is_stmt 0
GAS LISTING /tmp/ccVT2ggL.s 			page 20


 483 0294 97000000 		call	thread_exit@plt
 483      E7800000 
 484              	.LVL49:
 485              	.L33:
 357:src/Tests.cpp ****     {
 486              		.loc 2 357 5 is_stmt 1
 359:src/Tests.cpp ****         s1->wait();
 487              		.loc 2 359 9
 359:src/Tests.cpp ****         s1->wait();
 488              		.loc 2 359 10 is_stmt 0
 489 029c 9B841400 		addiw	s1,s1,1
 490              	.LVL50:
 360:src/Tests.cpp ****         __putc('1');
 491              		.loc 2 360 9 is_stmt 1
 360:src/Tests.cpp ****         __putc('1');
 492              		.loc 2 360 17 is_stmt 0
 493 02a0 17090000 		lla	s2,.LANCHOR0
 493      13090900 
 494 02a8 03350900 		ld	a0,0(s2)
 495 02ac 97000000 		call	_ZN9Semaphore4waitEv@plt
 495      E7800000 
 496              	.LVL51:
 361:src/Tests.cpp ****         __putc('\n');
 497              		.loc 2 361 9 is_stmt 1
 361:src/Tests.cpp ****         __putc('\n');
 498              		.loc 2 361 15 is_stmt 0
 499 02b4 13051003 		li	a0,49
 500 02b8 97000000 		call	__putc@plt
 500      E7800000 
 501              	.LVL52:
 362:src/Tests.cpp ****         s2->signal();
 502              		.loc 2 362 9 is_stmt 1
 362:src/Tests.cpp ****         s2->signal();
 503              		.loc 2 362 15 is_stmt 0
 504 02c0 1305A000 		li	a0,10
 505 02c4 97000000 		call	__putc@plt
 505      E7800000 
 506              	.LVL53:
 363:src/Tests.cpp ****         if(x < 5000)
 507              		.loc 2 363 9 is_stmt 1
 363:src/Tests.cpp ****         if(x < 5000)
 508              		.loc 2 363 19 is_stmt 0
 509 02cc 03358900 		ld	a0,8(s2)
 510 02d0 97000000 		call	_ZN9Semaphore6signalEv@plt
 510      E7800000 
 511              	.LVL54:
 364:src/Tests.cpp ****             thread_dispatch();
 512              		.loc 2 364 9 is_stmt 1
 513 02d8 B7170000 		li	a5,4096
 514 02dc 93877738 		addi	a5,a5,903
 515 02e0 E3CA97FA 		bgt	s1,a5,.L34
 365:src/Tests.cpp ****         else
 516              		.loc 2 365 13
 365:src/Tests.cpp ****         else
 517              		.loc 2 365 28 is_stmt 0
 518 02e4 97000000 		call	thread_dispatch@plt
 518      E7800000 
GAS LISTING /tmp/ccVT2ggL.s 			page 21


 519              	.LVL55:
 520 02ec 6FF01FFB 		j	.L33
 521              		.cfi_endproc
 522              	.LFE42:
 524              		.section	.rodata.str1.8
 525 005e 0000     		.align	3
 526              	.LC7:
 527 0060 66325F32 		.string	"f2_2 started\n"
 527      20737461 
 527      72746564 
 527      0A00
 528              		.text
 529              		.align	2
 530              		.globl	_Z4f2_2Pv
 532              	_Z4f2_2Pv:
 533              	.LFB43:
 372:src/Tests.cpp ****     Riscv::printString("f2_2 started\n");
 534              		.loc 2 372 1 is_stmt 1
 535              		.cfi_startproc
 536              	.LVL56:
 537 02f0 130101FE 		addi	sp,sp,-32
 538              		.cfi_def_cfa_offset 32
 539 02f4 233C1100 		sd	ra,24(sp)
 540 02f8 23388100 		sd	s0,16(sp)
 541 02fc 23349100 		sd	s1,8(sp)
 542 0300 23302101 		sd	s2,0(sp)
 543              		.cfi_offset 1, -8
 544              		.cfi_offset 8, -16
 545              		.cfi_offset 9, -24
 546              		.cfi_offset 18, -32
 547 0304 13040102 		addi	s0,sp,32
 548              		.cfi_def_cfa 8, 0
 373:src/Tests.cpp ****     int x = 0;
 549              		.loc 2 373 5
 373:src/Tests.cpp ****     int x = 0;
 550              		.loc 2 373 23 is_stmt 0
 551 0308 17050000 		lla	a0,.LC7
 551      13050500 
 552              	.LVL57:
 553 0310 97000000 		call	_ZN5Riscv11printStringEPKc@plt
 553      E7800000 
 554              	.LVL58:
 374:src/Tests.cpp ****     while(true)
 555              		.loc 2 374 5 is_stmt 1
 374:src/Tests.cpp ****     while(true)
 556              		.loc 2 374 9 is_stmt 0
 557 0318 93040000 		li	s1,0
 558 031c 6F00C000 		j	.L38
 559              	.LVL59:
 560              	.L39:
 385:src/Tests.cpp ****     }
 561              		.loc 2 385 13 is_stmt 1
 385:src/Tests.cpp ****     }
 562              		.loc 2 385 24 is_stmt 0
 563 0320 97000000 		call	thread_exit@plt
 563      E7800000 
 564              	.LVL60:
GAS LISTING /tmp/ccVT2ggL.s 			page 22


 565              	.L38:
 375:src/Tests.cpp ****     {
 566              		.loc 2 375 5 is_stmt 1
 377:src/Tests.cpp ****         s2->wait();
 567              		.loc 2 377 9
 377:src/Tests.cpp ****         s2->wait();
 568              		.loc 2 377 10 is_stmt 0
 569 0328 9B841400 		addiw	s1,s1,1
 570              	.LVL61:
 378:src/Tests.cpp ****         __putc('2');
 571              		.loc 2 378 9 is_stmt 1
 378:src/Tests.cpp ****         __putc('2');
 572              		.loc 2 378 17 is_stmt 0
 573 032c 17090000 		lla	s2,.LANCHOR0
 573      13090900 
 574 0334 03358900 		ld	a0,8(s2)
 575 0338 97000000 		call	_ZN9Semaphore4waitEv@plt
 575      E7800000 
 576              	.LVL62:
 379:src/Tests.cpp ****         __putc('\n');
 577              		.loc 2 379 9 is_stmt 1
 379:src/Tests.cpp ****         __putc('\n');
 578              		.loc 2 379 15 is_stmt 0
 579 0340 13052003 		li	a0,50
 580 0344 97000000 		call	__putc@plt
 580      E7800000 
 581              	.LVL63:
 380:src/Tests.cpp ****         s3->signal();
 582              		.loc 2 380 9 is_stmt 1
 380:src/Tests.cpp ****         s3->signal();
 583              		.loc 2 380 15 is_stmt 0
 584 034c 1305A000 		li	a0,10
 585 0350 97000000 		call	__putc@plt
 585      E7800000 
 586              	.LVL64:
 381:src/Tests.cpp ****         if(x < 5000)
 587              		.loc 2 381 9 is_stmt 1
 381:src/Tests.cpp ****         if(x < 5000)
 588              		.loc 2 381 19 is_stmt 0
 589 0358 03350901 		ld	a0,16(s2)
 590 035c 97000000 		call	_ZN9Semaphore6signalEv@plt
 590      E7800000 
 591              	.LVL65:
 382:src/Tests.cpp ****             thread_dispatch();
 592              		.loc 2 382 9 is_stmt 1
 593 0364 B7170000 		li	a5,4096
 594 0368 93877738 		addi	a5,a5,903
 595 036c E3CA97FA 		bgt	s1,a5,.L39
 383:src/Tests.cpp ****         else
 596              		.loc 2 383 13
 383:src/Tests.cpp ****         else
 597              		.loc 2 383 28 is_stmt 0
 598 0370 97000000 		call	thread_dispatch@plt
 598      E7800000 
 599              	.LVL66:
 600 0378 6FF01FFB 		j	.L38
 601              		.cfi_endproc
GAS LISTING /tmp/ccVT2ggL.s 			page 23


 602              	.LFE43:
 604              		.section	.rodata.str1.8
 605 006e 0000     		.align	3
 606              	.LC8:
 607 0070 66335F32 		.string	"f3_2 started\n"
 607      20737461 
 607      72746564 
 607      0A00
 608              		.text
 609              		.align	2
 610              		.globl	_Z4f3_2Pv
 612              	_Z4f3_2Pv:
 613              	.LFB44:
 390:src/Tests.cpp ****     Riscv::printString("f3_2 started\n");
 614              		.loc 2 390 1 is_stmt 1
 615              		.cfi_startproc
 616              	.LVL67:
 617 037c 130101FE 		addi	sp,sp,-32
 618              		.cfi_def_cfa_offset 32
 619 0380 233C1100 		sd	ra,24(sp)
 620 0384 23388100 		sd	s0,16(sp)
 621 0388 23349100 		sd	s1,8(sp)
 622 038c 23302101 		sd	s2,0(sp)
 623              		.cfi_offset 1, -8
 624              		.cfi_offset 8, -16
 625              		.cfi_offset 9, -24
 626              		.cfi_offset 18, -32
 627 0390 13040102 		addi	s0,sp,32
 628              		.cfi_def_cfa 8, 0
 391:src/Tests.cpp ****     int x = 0;
 629              		.loc 2 391 5
 391:src/Tests.cpp ****     int x = 0;
 630              		.loc 2 391 23 is_stmt 0
 631 0394 17050000 		lla	a0,.LC8
 631      13050500 
 632              	.LVL68:
 633 039c 97000000 		call	_ZN5Riscv11printStringEPKc@plt
 633      E7800000 
 634              	.LVL69:
 392:src/Tests.cpp ****     while(true)
 635              		.loc 2 392 5 is_stmt 1
 392:src/Tests.cpp ****     while(true)
 636              		.loc 2 392 9 is_stmt 0
 637 03a4 93040000 		li	s1,0
 638 03a8 6F00C000 		j	.L43
 639              	.LVL70:
 640              	.L44:
 403:src/Tests.cpp ****     }
 641              		.loc 2 403 13 is_stmt 1
 403:src/Tests.cpp ****     }
 642              		.loc 2 403 24 is_stmt 0
 643 03ac 97000000 		call	thread_exit@plt
 643      E7800000 
 644              	.LVL71:
 645              	.L43:
 393:src/Tests.cpp ****     {
 646              		.loc 2 393 5 is_stmt 1
GAS LISTING /tmp/ccVT2ggL.s 			page 24


 395:src/Tests.cpp ****         s3->wait();
 647              		.loc 2 395 9
 395:src/Tests.cpp ****         s3->wait();
 648              		.loc 2 395 10 is_stmt 0
 649 03b4 9B841400 		addiw	s1,s1,1
 650              	.LVL72:
 396:src/Tests.cpp ****         __putc('3');
 651              		.loc 2 396 9 is_stmt 1
 396:src/Tests.cpp ****         __putc('3');
 652              		.loc 2 396 17 is_stmt 0
 653 03b8 17090000 		lla	s2,.LANCHOR0
 653      13090900 
 654 03c0 03350901 		ld	a0,16(s2)
 655 03c4 97000000 		call	_ZN9Semaphore4waitEv@plt
 655      E7800000 
 656              	.LVL73:
 397:src/Tests.cpp ****         __putc('\n');
 657              		.loc 2 397 9 is_stmt 1
 397:src/Tests.cpp ****         __putc('\n');
 658              		.loc 2 397 15 is_stmt 0
 659 03cc 13053003 		li	a0,51
 660 03d0 97000000 		call	__putc@plt
 660      E7800000 
 661              	.LVL74:
 398:src/Tests.cpp ****         s1->signal();
 662              		.loc 2 398 9 is_stmt 1
 398:src/Tests.cpp ****         s1->signal();
 663              		.loc 2 398 15 is_stmt 0
 664 03d8 1305A000 		li	a0,10
 665 03dc 97000000 		call	__putc@plt
 665      E7800000 
 666              	.LVL75:
 399:src/Tests.cpp ****         if(x < 5000)
 667              		.loc 2 399 9 is_stmt 1
 399:src/Tests.cpp ****         if(x < 5000)
 668              		.loc 2 399 19 is_stmt 0
 669 03e4 03350900 		ld	a0,0(s2)
 670 03e8 97000000 		call	_ZN9Semaphore6signalEv@plt
 670      E7800000 
 671              	.LVL76:
 400:src/Tests.cpp ****             thread_dispatch();
 672              		.loc 2 400 9 is_stmt 1
 673 03f0 B7170000 		li	a5,4096
 674 03f4 93877738 		addi	a5,a5,903
 675 03f8 E3CA97FA 		bgt	s1,a5,.L44
 401:src/Tests.cpp ****         else
 676              		.loc 2 401 13
 401:src/Tests.cpp ****         else
 677              		.loc 2 401 28 is_stmt 0
 678 03fc 97000000 		call	thread_dispatch@plt
 678      E7800000 
 679              	.LVL77:
 680 0404 6FF01FFB 		j	.L43
 681              		.cfi_endproc
 682              	.LFE44:
 684              		.section	.text._ZN14PeriodicThreadD2Ev,"axG",@progbits,_ZN14PeriodicThreadD5Ev,comdat
 685              		.align	2
GAS LISTING /tmp/ccVT2ggL.s 			page 25


 686              		.weak	_ZN14PeriodicThreadD2Ev
 688              	_ZN14PeriodicThreadD2Ev:
 689              	.LFB50:
  64:src/../h/syscall_cpp.hpp **** {
 690              		.loc 1 64 7 is_stmt 1
 691              		.cfi_startproc
 692              	.LVL78:
 693 0000 130101FF 		addi	sp,sp,-16
 694              		.cfi_def_cfa_offset 16
 695 0004 23341100 		sd	ra,8(sp)
 696 0008 23308100 		sd	s0,0(sp)
 697              		.cfi_offset 1, -8
 698              		.cfi_offset 8, -16
 699 000c 13040101 		addi	s0,sp,16
 700              		.cfi_def_cfa 8, 0
 701              	.LBB24:
  64:src/../h/syscall_cpp.hpp **** {
 702              		.loc 1 64 7 is_stmt 0
 703 0010 97070000 		lla	a5,_ZTV14PeriodicThread+16
 703      93870700 
 704 0018 2330F500 		sd	a5,0(a0)
 705 001c 97000000 		call	_ZN6ThreadD2Ev@plt
 705      E7800000 
 706              	.LVL79:
 707              	.LBE24:
 708 0024 83308100 		ld	ra,8(sp)
 709              		.cfi_restore 1
 710 0028 03340100 		ld	s0,0(sp)
 711              		.cfi_restore 8
 712              		.cfi_def_cfa 2, 16
 713 002c 13010101 		addi	sp,sp,16
 714              		.cfi_def_cfa_offset 0
 715 0030 67800000 		jr	ra
 716              		.cfi_endproc
 717              	.LFE50:
 719              		.weak	_ZN14PeriodicThreadD1Ev
 720              		.set	_ZN14PeriodicThreadD1Ev,_ZN14PeriodicThreadD2Ev
 721              		.section	.text._ZN14PeriodicThreadD0Ev,"axG",@progbits,_ZN14PeriodicThreadD5Ev,comdat
 722              		.align	2
 723              		.weak	_ZN14PeriodicThreadD0Ev
 725              	_ZN14PeriodicThreadD0Ev:
 726              	.LFB52:
  64:src/../h/syscall_cpp.hpp **** {
 727              		.loc 1 64 7 is_stmt 1
 728              		.cfi_startproc
 729              	.LVL80:
 730 0000 130101FE 		addi	sp,sp,-32
 731              		.cfi_def_cfa_offset 32
 732 0004 233C1100 		sd	ra,24(sp)
 733 0008 23388100 		sd	s0,16(sp)
 734 000c 23349100 		sd	s1,8(sp)
 735              		.cfi_offset 1, -8
 736              		.cfi_offset 8, -16
 737              		.cfi_offset 9, -24
 738 0010 13040102 		addi	s0,sp,32
 739              		.cfi_def_cfa 8, 0
 740 0014 93040500 		mv	s1,a0
GAS LISTING /tmp/ccVT2ggL.s 			page 26


 741              	.LVL81:
 742              	.LBB25:
 743              	.LBB26:
  64:src/../h/syscall_cpp.hpp **** {
 744              		.loc 1 64 7 is_stmt 0
 745 0018 97070000 		lla	a5,_ZTV14PeriodicThread+16
 745      93870700 
 746 0020 2330F500 		sd	a5,0(a0)
 747 0024 97000000 		call	_ZN6ThreadD2Ev@plt
 747      E7800000 
 748              	.LVL82:
 749              	.LBE26:
 750              	.LBE25:
 751 002c 13850400 		mv	a0,s1
 752 0030 97000000 		call	_ZdlPv@plt
 752      E7800000 
 753              	.LVL83:
 754 0038 83308101 		ld	ra,24(sp)
 755              		.cfi_restore 1
 756 003c 03340101 		ld	s0,16(sp)
 757              		.cfi_restore 8
 758              		.cfi_def_cfa 2, 32
 759 0040 83348100 		ld	s1,8(sp)
 760              		.cfi_restore 9
 761              	.LVL84:
 762 0044 13010102 		addi	sp,sp,32
 763              		.cfi_def_cfa_offset 0
 764 0048 67800000 		jr	ra
 765              		.cfi_endproc
 766              	.LFE52:
 768              		.section	.text._ZN12TestPeriodicD2Ev,"axG",@progbits,_ZN12TestPeriodicD5Ev,comdat
 769              		.align	2
 770              		.weak	_ZN12TestPeriodicD2Ev
 772              	_ZN12TestPeriodicD2Ev:
 773              	.LFB60:
 774              		.file 3 "src/../h/Tests.hpp"
   1:src/../h/Tests.hpp **** //
   2:src/../h/Tests.hpp **** // Created by os on 5/5/22.
   3:src/../h/Tests.hpp **** //
   4:src/../h/Tests.hpp **** 
   5:src/../h/Tests.hpp **** #ifndef PROJECT_BASE_V1_0_TESTS_HPP
   6:src/../h/Tests.hpp **** #define PROJECT_BASE_V1_0_TESTS_HPP
   7:src/../h/Tests.hpp **** 
   8:src/../h/Tests.hpp **** #include "Riscv.hpp"
   9:src/../h/Tests.hpp **** #include "PCB.hpp"
  10:src/../h/Tests.hpp **** #include "syscall_cpp.hpp"
  11:src/../h/Tests.hpp **** 
  12:src/../h/Tests.hpp **** class Test
  13:src/../h/Tests.hpp **** {
  14:src/../h/Tests.hpp **** public:
  15:src/../h/Tests.hpp ****     uint64 a;
  16:src/../h/Tests.hpp **** };
  17:src/../h/Tests.hpp **** struct object{
  18:src/../h/Tests.hpp ****     int a,b,c,d,e,f,g,h,i,j,k;
  19:src/../h/Tests.hpp **** };
  20:src/../h/Tests.hpp **** struct node{
  21:src/../h/Tests.hpp ****     object o1, o2, o3;
GAS LISTING /tmp/ccVT2ggL.s 			page 27


  22:src/../h/Tests.hpp ****     char id;
  23:src/../h/Tests.hpp ****     node *next, *prev;
  24:src/../h/Tests.hpp **** };
  25:src/../h/Tests.hpp **** 
  26:src/../h/Tests.hpp **** //memory (de)allocation tests
  27:src/../h/Tests.hpp **** void mallocFree();
  28:src/../h/Tests.hpp **** void bigMalloc();
  29:src/../h/Tests.hpp **** void lotOfSmallMallocs();
  30:src/../h/Tests.hpp **** void badFree();
  31:src/../h/Tests.hpp **** void stressTesting();
  32:src/../h/Tests.hpp **** void mallocTest();
  33:src/../h/Tests.hpp **** void mallocEverything();
  34:src/../h/Tests.hpp **** void mallocGapFillTest();
  35:src/../h/Tests.hpp **** void memoryAllocationTests();
  36:src/../h/Tests.hpp **** 
  37:src/../h/Tests.hpp **** //thread tests
  38:src/../h/Tests.hpp **** void thread1Function();
  39:src/../h/Tests.hpp **** void thread2Function();
  40:src/../h/Tests.hpp **** 
  41:src/../h/Tests.hpp **** void threadFunction3();
  42:src/../h/Tests.hpp **** 
  43:src/../h/Tests.hpp **** void threadTest1();
  44:src/../h/Tests.hpp **** void threadTest2();
  45:src/../h/Tests.hpp **** void threadTest3();
  46:src/../h/Tests.hpp **** 
  47:src/../h/Tests.hpp **** void threadTests();
  48:src/../h/Tests.hpp **** 
  49:src/../h/Tests.hpp **** class TestPeriodic : public PeriodicThread
 775              		.loc 3 49 7 is_stmt 1
 776              		.cfi_startproc
 777              	.LVL85:
 778 0000 130101FF 		addi	sp,sp,-16
 779              		.cfi_def_cfa_offset 16
 780 0004 23341100 		sd	ra,8(sp)
 781 0008 23308100 		sd	s0,0(sp)
 782              		.cfi_offset 1, -8
 783              		.cfi_offset 8, -16
 784 000c 13040101 		addi	s0,sp,16
 785              		.cfi_def_cfa 8, 0
 786              	.LVL86:
 787              	.LBB27:
 788              	.LBB28:
  64:src/../h/syscall_cpp.hpp **** {
 789              		.loc 1 64 7 is_stmt 0
 790 0010 97070000 		lla	a5,_ZTV14PeriodicThread+16
 790      93870700 
 791 0018 2330F500 		sd	a5,0(a0)
 792 001c 97000000 		call	_ZN6ThreadD2Ev@plt
 792      E7800000 
 793              	.LVL87:
 794              	.LBE28:
 795              	.LBE27:
 796              		.loc 3 49 7
 797 0024 83308100 		ld	ra,8(sp)
 798              		.cfi_restore 1
 799 0028 03340100 		ld	s0,0(sp)
 800              		.cfi_restore 8
GAS LISTING /tmp/ccVT2ggL.s 			page 28


 801              		.cfi_def_cfa 2, 16
 802 002c 13010101 		addi	sp,sp,16
 803              		.cfi_def_cfa_offset 0
 804 0030 67800000 		jr	ra
 805              		.cfi_endproc
 806              	.LFE60:
 808              		.weak	_ZN12TestPeriodicD1Ev
 809              		.set	_ZN12TestPeriodicD1Ev,_ZN12TestPeriodicD2Ev
 810              		.section	.text._ZN12TestPeriodicD0Ev,"axG",@progbits,_ZN12TestPeriodicD5Ev,comdat
 811              		.align	2
 812              		.weak	_ZN12TestPeriodicD0Ev
 814              	_ZN12TestPeriodicD0Ev:
 815              	.LFB62:
 816              		.loc 3 49 7 is_stmt 1
 817              		.cfi_startproc
 818              	.LVL88:
 819 0000 130101FE 		addi	sp,sp,-32
 820              		.cfi_def_cfa_offset 32
 821 0004 233C1100 		sd	ra,24(sp)
 822 0008 23388100 		sd	s0,16(sp)
 823 000c 23349100 		sd	s1,8(sp)
 824              		.cfi_offset 1, -8
 825              		.cfi_offset 8, -16
 826              		.cfi_offset 9, -24
 827 0010 13040102 		addi	s0,sp,32
 828              		.cfi_def_cfa 8, 0
 829 0014 93040500 		mv	s1,a0
 830              	.LVL89:
 831              	.LBB29:
 832              	.LBB30:
 833              	.LBB31:
  64:src/../h/syscall_cpp.hpp **** {
 834              		.loc 1 64 7 is_stmt 0
 835 0018 97070000 		lla	a5,_ZTV14PeriodicThread+16
 835      93870700 
 836 0020 2330F500 		sd	a5,0(a0)
 837 0024 97000000 		call	_ZN6ThreadD2Ev@plt
 837      E7800000 
 838              	.LVL90:
 839              	.LBE31:
 840              	.LBE30:
 841              	.LBE29:
 842              		.loc 3 49 7
 843 002c 13850400 		mv	a0,s1
 844 0030 97000000 		call	_ZdlPv@plt
 844      E7800000 
 845              	.LVL91:
 846 0038 83308101 		ld	ra,24(sp)
 847              		.cfi_restore 1
 848 003c 03340101 		ld	s0,16(sp)
 849              		.cfi_restore 8
 850              		.cfi_def_cfa 2, 32
 851 0040 83348100 		ld	s1,8(sp)
 852              		.cfi_restore 9
 853              	.LVL92:
 854 0044 13010102 		addi	sp,sp,32
 855              		.cfi_def_cfa_offset 0
GAS LISTING /tmp/ccVT2ggL.s 			page 29


 856 0048 67800000 		jr	ra
 857              		.cfi_endproc
 858              	.LFE62:
 860              		.section	.rodata.str1.8
 861 007e 0000     		.align	3
 862              	.LC9:
 863 0080 4D61696E 		.string	"Main thread\n"
 863      20746872 
 863      6561640A 
 863      00
 864 008d 000000   		.align	3
 865              	.LC10:
 866 0090 456E642E 		.string	"End...\n"
 866      2E2E0A00 
 867              		.text
 868              		.align	2
 869              		.globl	_Z11threadTest1v
 871              	_Z11threadTest1v:
 872              	.LFB27:
  62:src/Tests.cpp ****     Thread* t1 = new Thread(&thread1Function, 0);
 873              		.loc 2 62 1 is_stmt 1
 874              		.cfi_startproc
 875              		.cfi_personality 0x9b,DW.ref.__gxx_personality_v0
 876              		.cfi_lsda 0x1b,.LLSDA27
 877 0408 130101FE 		addi	sp,sp,-32
 878              		.cfi_def_cfa_offset 32
 879 040c 233C1100 		sd	ra,24(sp)
 880 0410 23388100 		sd	s0,16(sp)
 881 0414 23349100 		sd	s1,8(sp)
 882 0418 23302101 		sd	s2,0(sp)
 883              		.cfi_offset 1, -8
 884              		.cfi_offset 8, -16
 885              		.cfi_offset 9, -24
 886              		.cfi_offset 18, -32
 887 041c 13040102 		addi	s0,sp,32
 888              		.cfi_def_cfa 8, 0
  63:src/Tests.cpp ****     t1->start();
 889              		.loc 2 63 5
  63:src/Tests.cpp ****     t1->start();
 890              		.loc 2 63 48 is_stmt 0
 891 0420 13050002 		li	a0,32
 892              	.LEHB0:
 893 0424 97000000 		call	_Znwm@plt
 893      E7800000 
 894              	.LVL93:
 895              	.LEHE0:
 896 042c 93040500 		mv	s1,a0
 897 0430 13060000 		li	a2,0
 898 0434 97050000 		lla	a1,_Z15thread1FunctionPv
 898      93850500 
 899              	.LEHB1:
 900 043c 97000000 		call	_ZN6ThreadC1EPFvPvES0_@plt
 900      E7800000 
 901              	.LVL94:
 902              	.LEHE1:
  64:src/Tests.cpp ****     Thread* t2 = new Thread(&thread2Function, 0);
 903              		.loc 2 64 5 is_stmt 1 discriminator 2
GAS LISTING /tmp/ccVT2ggL.s 			page 30


  64:src/Tests.cpp ****     Thread* t2 = new Thread(&thread2Function, 0);
 904              		.loc 2 64 14 is_stmt 0 discriminator 2
 905 0444 13850400 		mv	a0,s1
 906              	.LEHB2:
 907 0448 97000000 		call	_ZN6Thread5startEv@plt
 907      E7800000 
 908              	.LVL95:
  65:src/Tests.cpp ****     t2->start();
 909              		.loc 2 65 5 is_stmt 1 discriminator 2
  65:src/Tests.cpp ****     t2->start();
 910              		.loc 2 65 48 is_stmt 0 discriminator 2
 911 0450 13050002 		li	a0,32
 912 0454 97000000 		call	_Znwm@plt
 912      E7800000 
 913              	.LVL96:
 914              	.LEHE2:
 915 045c 13090500 		mv	s2,a0
 916 0460 13060000 		li	a2,0
 917 0464 97050000 		lla	a1,_Z15thread2FunctionPv
 917      93850500 
 918              	.LEHB3:
 919 046c 97000000 		call	_ZN6ThreadC1EPFvPvES0_@plt
 919      E7800000 
 920              	.LVL97:
 921              	.LEHE3:
  66:src/Tests.cpp ****     Riscv::enableInterrupts();
 922              		.loc 2 66 5 is_stmt 1 discriminator 2
  66:src/Tests.cpp ****     Riscv::enableInterrupts();
 923              		.loc 2 66 14 is_stmt 0 discriminator 2
 924 0474 13050900 		mv	a0,s2
 925              	.LEHB4:
 926 0478 97000000 		call	_ZN6Thread5startEv@plt
 926      E7800000 
 927              	.LVL98:
  67:src/Tests.cpp ****     while(((PCB*)(t1->myHandle))->getState() != PCB::FINISHED || ((PCB*)(t2->myHandle))->getState()
 928              		.loc 2 67 5 is_stmt 1 discriminator 2
  67:src/Tests.cpp ****     while(((PCB*)(t1->myHandle))->getState() != PCB::FINISHED || ((PCB*)(t2->myHandle))->getState()
 929              		.loc 2 67 28 is_stmt 0 discriminator 2
 930 0480 97000000 		call	_ZN5Riscv16enableInterruptsEv@plt
 930      E7800000 
 931              	.LVL99:
 932 0488 6F00C001 		j	.L58
 933              	.L56:
  70:src/Tests.cpp ****         thread_dispatch();
 934              		.loc 2 70 9 is_stmt 1 discriminator 3
  70:src/Tests.cpp ****         thread_dispatch();
 935              		.loc 2 70 27 is_stmt 0 discriminator 3
 936 048c 17050000 		lla	a0,.LC9
 936      13050500 
 937 0494 97000000 		call	_ZN5Riscv11printStringEPKc@plt
 937      E7800000 
 938              	.LVL100:
  71:src/Tests.cpp ****     }
 939              		.loc 2 71 9 is_stmt 1 discriminator 3
  71:src/Tests.cpp ****     }
 940              		.loc 2 71 24 is_stmt 0 discriminator 3
 941 049c 97000000 		call	thread_dispatch@plt
GAS LISTING /tmp/ccVT2ggL.s 			page 31


 941      E7800000 
 942              	.LVL101:
 943              	.L58:
  68:src/Tests.cpp ****     {
 944              		.loc 2 68 5 is_stmt 1
  68:src/Tests.cpp ****     {
 945              		.loc 2 68 63
  68:src/Tests.cpp ****     {
 946              		.loc 2 68 23 is_stmt 0
 947 04a4 83B78400 		ld	a5,8(s1)
 948              	.LVL102:
 949              	.LBB32:
 950              	.LBB33:
 951              		.file 4 "src/../h/PCB.hpp"
   1:src/../h/PCB.hpp **** //
   2:src/../h/PCB.hpp **** // Created by os on 4/27/22.
   3:src/../h/PCB.hpp **** //
   4:src/../h/PCB.hpp **** 
   5:src/../h/PCB.hpp **** #ifndef PROJECT_BASE_V1_0_PCB_HPP
   6:src/../h/PCB.hpp **** #define PROJECT_BASE_V1_0_PCB_HPP
   7:src/../h/PCB.hpp **** 
   8:src/../h/PCB.hpp **** #include "../lib/hw.h"
   9:src/../h/PCB.hpp **** #include "Scheduler.hpp"
  10:src/../h/PCB.hpp **** #include "Riscv.hpp"
  11:src/../h/PCB.hpp **** 
  12:src/../h/PCB.hpp **** class PCB
  13:src/../h/PCB.hpp **** {
  14:src/../h/PCB.hpp **** public:
  15:src/../h/PCB.hpp ****     using Body = void (*)(void*);
  16:src/../h/PCB.hpp **** 
  17:src/../h/PCB.hpp ****     PCB(Body body,  void* args, void* stack_space, uint64 timeSlice);
  18:src/../h/PCB.hpp ****     ~PCB();
  19:src/../h/PCB.hpp **** 
  20:src/../h/PCB.hpp ****     void start();
  21:src/../h/PCB.hpp ****     static void dispatch();
  22:src/../h/PCB.hpp ****     static void sleep(time_t);
  23:src/../h/PCB.hpp **** 
  24:src/../h/PCB.hpp ****     static PCB* running;
  25:src/../h/PCB.hpp **** 
  26:src/../h/PCB.hpp ****     static uint64 timeSliceCounter;
  27:src/../h/PCB.hpp ****     uint64 getTimeSlice() { return timeSlice;}
  28:src/../h/PCB.hpp **** 
  29:src/../h/PCB.hpp ****     void* operator new(size_t size);
  30:src/../h/PCB.hpp ****     void operator delete(void *p);
  31:src/../h/PCB.hpp **** 
  32:src/../h/PCB.hpp ****     enum State{READY, RUNNING, SUSPENDED, FINISHED, EXITING, SLEEPING};
  33:src/../h/PCB.hpp ****     State getState() {return state;}
 952              		.loc 4 33 23 is_stmt 1
 953              		.loc 4 33 30 is_stmt 0
 954 04a8 03A78703 		lw	a4,56(a5)
 955              	.LVL103:
 956              	.LBE33:
 957              	.LBE32:
  68:src/Tests.cpp ****     {
 958              		.loc 2 68 63
 959 04ac 93073000 		li	a5,3
 960 04b0 E31EF7FC 		bne	a4,a5,.L56
GAS LISTING /tmp/ccVT2ggL.s 			page 32


  68:src/Tests.cpp ****     {
 961              		.loc 2 68 78 discriminator 2
 962 04b4 83378900 		ld	a5,8(s2)
 963              	.LVL104:
 964              	.LBB34:
 965              	.LBB35:
 966              		.loc 4 33 23 is_stmt 1 discriminator 2
 967              		.loc 4 33 30 is_stmt 0 discriminator 2
 968 04b8 03A78703 		lw	a4,56(a5)
 969              	.LVL105:
 970              	.LBE35:
 971              	.LBE34:
  68:src/Tests.cpp ****     {
 972              		.loc 2 68 63 discriminator 2
 973 04bc 93073000 		li	a5,3
 974 04c0 E316F7FC 		bne	a4,a5,.L56
  74:src/Tests.cpp ****     Riscv::disableInterrupts();
 975              		.loc 2 74 5 is_stmt 1
  74:src/Tests.cpp ****     Riscv::disableInterrupts();
 976              		.loc 2 74 23 is_stmt 0
 977 04c4 17050000 		lla	a0,.LC10
 977      13050500 
 978 04cc 97000000 		call	_ZN5Riscv11printStringEPKc@plt
 978      E7800000 
 979              	.LVL106:
  75:src/Tests.cpp **** }
 980              		.loc 2 75 5 is_stmt 1
  75:src/Tests.cpp **** }
 981              		.loc 2 75 29 is_stmt 0
 982 04d4 97000000 		call	_ZN5Riscv17disableInterruptsEv@plt
 982      E7800000 
 983              	.LVL107:
 984              	.LEHE4:
  76:src/Tests.cpp **** 
 985              		.loc 2 76 1
 986 04dc 83308101 		ld	ra,24(sp)
 987              		.cfi_remember_state
 988              		.cfi_restore 1
 989 04e0 03340101 		ld	s0,16(sp)
 990              		.cfi_restore 8
 991              		.cfi_def_cfa 2, 32
 992 04e4 83348100 		ld	s1,8(sp)
 993              		.cfi_restore 9
 994              	.LVL108:
 995 04e8 03390100 		ld	s2,0(sp)
 996              		.cfi_restore 18
 997              	.LVL109:
 998 04ec 13010102 		addi	sp,sp,32
 999              		.cfi_def_cfa_offset 0
 1000 04f0 67800000 		jr	ra
 1001              	.L61:
 1002              		.cfi_restore_state
 1003 04f4 13090500 		mv	s2,a0
  63:src/Tests.cpp ****     t1->start();
 1004              		.loc 2 63 48
 1005 04f8 13850400 		mv	a0,s1
 1006 04fc 97000000 		call	_ZdlPv@plt
GAS LISTING /tmp/ccVT2ggL.s 			page 33


 1006      E7800000 
 1007              	.LVL110:
 1008 0504 13050900 		mv	a0,s2
 1009              	.LEHB5:
 1010 0508 97000000 		call	_Unwind_Resume@plt
 1010      E7800000 
 1011              	.LVL111:
 1012              	.LEHE5:
 1013              	.L62:
 1014 0510 93040500 		mv	s1,a0
 1015              	.LVL112:
  65:src/Tests.cpp ****     t2->start();
 1016              		.loc 2 65 48
 1017 0514 13050900 		mv	a0,s2
 1018 0518 97000000 		call	_ZdlPv@plt
 1018      E7800000 
 1019              	.LVL113:
 1020 0520 13850400 		mv	a0,s1
 1021              	.LEHB6:
 1022 0524 97000000 		call	_Unwind_Resume@plt
 1022      E7800000 
 1023              	.LVL114:
 1024              	.LEHE6:
 1025              		.cfi_endproc
 1026              	.LFE27:
 1027              		.globl	__gxx_personality_v0
 1028              		.section	.gcc_except_table,"a",@progbits
 1029              	.LLSDA27:
 1030 0000 FF       		.byte	0xff
 1031 0001 FF       		.byte	0xff
 1032 0002 03       		.byte	0x3
 1033 0003 5B       		.byte	0x5b
 1034 0004 00000000 		.4byte	.LEHB0-.LFB27
 1035 0008 00000000 		.4byte	.LEHE0-.LEHB0
 1036 000c 00000000 		.4byte	0
 1037 0010 00       		.byte	0
 1038 0011 00000000 		.4byte	.LEHB1-.LFB27
 1039 0015 00000000 		.4byte	.LEHE1-.LEHB1
 1040 0019 00000000 		.4byte	.L61-.LFB27
 1041 001d 00       		.byte	0
 1042 001e 00000000 		.4byte	.LEHB2-.LFB27
 1043 0022 00000000 		.4byte	.LEHE2-.LEHB2
 1044 0026 00000000 		.4byte	0
 1045 002a 00       		.byte	0
 1046 002b 00000000 		.4byte	.LEHB3-.LFB27
 1047 002f 00000000 		.4byte	.LEHE3-.LEHB3
 1048 0033 00000000 		.4byte	.L62-.LFB27
 1049 0037 00       		.byte	0
 1050 0038 00000000 		.4byte	.LEHB4-.LFB27
 1051 003c 00000000 		.4byte	.LEHE4-.LEHB4
 1052 0040 00000000 		.4byte	0
 1053 0044 00       		.byte	0
 1054 0045 00000000 		.4byte	.LEHB5-.LFB27
 1055 0049 00000000 		.4byte	.LEHE5-.LEHB5
 1056 004d 00000000 		.4byte	0
 1057 0051 00       		.byte	0
 1058 0052 00000000 		.4byte	.LEHB6-.LFB27
GAS LISTING /tmp/ccVT2ggL.s 			page 34


 1059 0056 00000000 		.4byte	.LEHE6-.LEHB6
 1060 005a 00000000 		.4byte	0
 1061 005e 00       		.byte	0
 1062              		.text
 1064              		.align	2
 1065              		.globl	_Z11threadTest2v
 1067              	_Z11threadTest2v:
 1068              	.LFB28:
  79:src/Tests.cpp ****     Thread* idleThread = new Thread(&idle, 0);
 1069              		.loc 2 79 1 is_stmt 1
 1070              		.cfi_startproc
 1071              		.cfi_personality 0x9b,DW.ref.__gxx_personality_v0
 1072              		.cfi_lsda 0x1b,.LLSDA28
 1073 052c 130101FE 		addi	sp,sp,-32
 1074              		.cfi_def_cfa_offset 32
 1075 0530 233C1100 		sd	ra,24(sp)
 1076 0534 23388100 		sd	s0,16(sp)
 1077 0538 23349100 		sd	s1,8(sp)
 1078 053c 23302101 		sd	s2,0(sp)
 1079              		.cfi_offset 1, -8
 1080              		.cfi_offset 8, -16
 1081              		.cfi_offset 9, -24
 1082              		.cfi_offset 18, -32
 1083 0540 13040102 		addi	s0,sp,32
 1084              		.cfi_def_cfa 8, 0
  80:src/Tests.cpp ****     idleThread->start();
 1085              		.loc 2 80 5
  80:src/Tests.cpp ****     idleThread->start();
 1086              		.loc 2 80 45 is_stmt 0
 1087 0544 13050002 		li	a0,32
 1088              	.LEHB7:
 1089 0548 97000000 		call	_Znwm@plt
 1089      E7800000 
 1090              	.LVL115:
 1091              	.LEHE7:
 1092 0550 93040500 		mv	s1,a0
 1093 0554 13060000 		li	a2,0
 1094 0558 97050000 		lla	a1,_Z4idlePv
 1094      93850500 
 1095              	.LEHB8:
 1096 0560 97000000 		call	_ZN6ThreadC1EPFvPvES0_@plt
 1096      E7800000 
 1097              	.LVL116:
 1098              	.LEHE8:
  81:src/Tests.cpp ****     Thread* t1 = new Thread(&thread1Function, 0);
 1099              		.loc 2 81 5 is_stmt 1 discriminator 2
  81:src/Tests.cpp ****     Thread* t1 = new Thread(&thread1Function, 0);
 1100              		.loc 2 81 22 is_stmt 0 discriminator 2
 1101 0568 13850400 		mv	a0,s1
 1102              	.LEHB9:
 1103 056c 97000000 		call	_ZN6Thread5startEv@plt
 1103      E7800000 
 1104              	.LVL117:
  82:src/Tests.cpp ****     t1->start();
 1105              		.loc 2 82 5 is_stmt 1 discriminator 2
  82:src/Tests.cpp ****     t1->start();
 1106              		.loc 2 82 48 is_stmt 0 discriminator 2
GAS LISTING /tmp/ccVT2ggL.s 			page 35


 1107 0574 13050002 		li	a0,32
 1108 0578 97000000 		call	_Znwm@plt
 1108      E7800000 
 1109              	.LVL118:
 1110              	.LEHE9:
 1111 0580 13090500 		mv	s2,a0
 1112 0584 13060000 		li	a2,0
 1113 0588 97050000 		lla	a1,_Z15thread1FunctionPv
 1113      93850500 
 1114              	.LEHB10:
 1115 0590 97000000 		call	_ZN6ThreadC1EPFvPvES0_@plt
 1115      E7800000 
 1116              	.LVL119:
 1117              	.LEHE10:
  83:src/Tests.cpp ****     Thread* t2  = new Thread(&thread2FunctionTest2, 0);
 1118              		.loc 2 83 5 is_stmt 1 discriminator 2
  83:src/Tests.cpp ****     Thread* t2  = new Thread(&thread2FunctionTest2, 0);
 1119              		.loc 2 83 14 is_stmt 0 discriminator 2
 1120 0598 13050900 		mv	a0,s2
 1121              	.LEHB11:
 1122 059c 97000000 		call	_ZN6Thread5startEv@plt
 1122      E7800000 
 1123              	.LVL120:
  84:src/Tests.cpp ****     t2->start();
 1124              		.loc 2 84 5 is_stmt 1 discriminator 2
  84:src/Tests.cpp ****     t2->start();
 1125              		.loc 2 84 54 is_stmt 0 discriminator 2
 1126 05a4 13050002 		li	a0,32
 1127 05a8 97000000 		call	_Znwm@plt
 1127      E7800000 
 1128              	.LVL121:
 1129              	.LEHE11:
 1130 05b0 13090500 		mv	s2,a0
 1131              	.LVL122:
 1132 05b4 13060000 		li	a2,0
 1133 05b8 97050000 		lla	a1,_Z20thread2FunctionTest2Pv
 1133      93850500 
 1134              	.LEHB12:
 1135 05c0 97000000 		call	_ZN6ThreadC1EPFvPvES0_@plt
 1135      E7800000 
 1136              	.LVL123:
 1137              	.LEHE12:
  85:src/Tests.cpp **** 
 1138              		.loc 2 85 5 is_stmt 1 discriminator 2
  85:src/Tests.cpp **** 
 1139              		.loc 2 85 14 is_stmt 0 discriminator 2
 1140 05c8 13050900 		mv	a0,s2
 1141              	.LEHB13:
 1142 05cc 97000000 		call	_ZN6Thread5startEv@plt
 1142      E7800000 
 1143              	.LVL124:
  87:src/Tests.cpp **** 
 1144              		.loc 2 87 5 is_stmt 1 discriminator 2
  87:src/Tests.cpp **** 
 1145              		.loc 2 87 28 is_stmt 0 discriminator 2
 1146 05d4 97000000 		call	_ZN5Riscv16enableInterruptsEv@plt
 1146      E7800000 
GAS LISTING /tmp/ccVT2ggL.s 			page 36


 1147              	.LVL125:
 1148              	.L66:
  89:src/Tests.cpp **** 
 1149              		.loc 2 89 5 is_stmt 1
  89:src/Tests.cpp **** 
 1150              		.loc 2 89 52
  89:src/Tests.cpp **** 
 1151              		.loc 2 89 30 is_stmt 0
 1152 05dc 83B78400 		ld	a5,8(s1)
 1153              	.LVL126:
 1154              	.LBB36:
 1155              	.LBB37:
 1156              		.loc 4 33 23 is_stmt 1
 1157              		.loc 4 33 30 is_stmt 0
 1158 05e0 03A78703 		lw	a4,56(a5)
 1159              	.LVL127:
 1160              	.LBE37:
 1161              	.LBE36:
  89:src/Tests.cpp **** 
 1162              		.loc 2 89 52
 1163 05e4 93073000 		li	a5,3
 1164 05e8 E31AF7FE 		bne	a4,a5,.L66
  91:src/Tests.cpp **** 
 1165              		.loc 2 91 5 is_stmt 1
  91:src/Tests.cpp **** 
 1166              		.loc 2 91 23 is_stmt 0
 1167 05ec 17050000 		lla	a0,.LC10
 1167      13050500 
 1168 05f4 97000000 		call	_ZN5Riscv11printStringEPKc@plt
 1168      E7800000 
 1169              	.LVL128:
  93:src/Tests.cpp **** }
 1170              		.loc 2 93 5 is_stmt 1
  93:src/Tests.cpp **** }
 1171              		.loc 2 93 29 is_stmt 0
 1172 05fc 97000000 		call	_ZN5Riscv17disableInterruptsEv@plt
 1172      E7800000 
 1173              	.LVL129:
 1174              	.LEHE13:
  94:src/Tests.cpp **** 
 1175              		.loc 2 94 1
 1176 0604 83308101 		ld	ra,24(sp)
 1177              		.cfi_remember_state
 1178              		.cfi_restore 1
 1179 0608 03340101 		ld	s0,16(sp)
 1180              		.cfi_restore 8
 1181              		.cfi_def_cfa 2, 32
 1182 060c 83348100 		ld	s1,8(sp)
 1183              		.cfi_restore 9
 1184              	.LVL130:
 1185 0610 03390100 		ld	s2,0(sp)
 1186              		.cfi_restore 18
 1187              	.LVL131:
 1188 0614 13010102 		addi	sp,sp,32
 1189              		.cfi_def_cfa_offset 0
 1190 0618 67800000 		jr	ra
 1191              	.L70:
GAS LISTING /tmp/ccVT2ggL.s 			page 37


 1192              		.cfi_restore_state
 1193 061c 13090500 		mv	s2,a0
  80:src/Tests.cpp ****     idleThread->start();
 1194              		.loc 2 80 45
 1195 0620 13850400 		mv	a0,s1
 1196 0624 97000000 		call	_ZdlPv@plt
 1196      E7800000 
 1197              	.LVL132:
 1198 062c 13050900 		mv	a0,s2
 1199              	.LEHB14:
 1200 0630 97000000 		call	_Unwind_Resume@plt
 1200      E7800000 
 1201              	.LVL133:
 1202              	.LEHE14:
 1203              	.L71:
 1204 0638 93040500 		mv	s1,a0
 1205              	.LVL134:
  82:src/Tests.cpp ****     t1->start();
 1206              		.loc 2 82 48
 1207 063c 13050900 		mv	a0,s2
 1208 0640 97000000 		call	_ZdlPv@plt
 1208      E7800000 
 1209              	.LVL135:
 1210 0648 13850400 		mv	a0,s1
 1211              	.LEHB15:
 1212 064c 97000000 		call	_Unwind_Resume@plt
 1212      E7800000 
 1213              	.LVL136:
 1214              	.LEHE15:
 1215              	.L72:
 1216 0654 93040500 		mv	s1,a0
 1217              	.LVL137:
  84:src/Tests.cpp ****     t2->start();
 1218              		.loc 2 84 54
 1219 0658 13050900 		mv	a0,s2
 1220 065c 97000000 		call	_ZdlPv@plt
 1220      E7800000 
 1221              	.LVL138:
 1222 0664 13850400 		mv	a0,s1
 1223              	.LEHB16:
 1224 0668 97000000 		call	_Unwind_Resume@plt
 1224      E7800000 
 1225              	.LVL139:
 1226              	.LEHE16:
 1227              		.cfi_endproc
 1228              	.LFE28:
 1229              		.section	.gcc_except_table
 1230              	.LLSDA28:
 1231 005f FF       		.byte	0xff
 1232 0060 FF       		.byte	0xff
 1233 0061 03       		.byte	0x3
 1234 0062 8201     		.byte	0x82,0x1
 1235 0064 00000000 		.4byte	.LEHB7-.LFB28
 1236 0068 00000000 		.4byte	.LEHE7-.LEHB7
 1237 006c 00000000 		.4byte	0
 1238 0070 00       		.byte	0
 1239 0071 00000000 		.4byte	.LEHB8-.LFB28
GAS LISTING /tmp/ccVT2ggL.s 			page 38


 1240 0075 00000000 		.4byte	.LEHE8-.LEHB8
 1241 0079 00000000 		.4byte	.L70-.LFB28
 1242 007d 00       		.byte	0
 1243 007e 00000000 		.4byte	.LEHB9-.LFB28
 1244 0082 00000000 		.4byte	.LEHE9-.LEHB9
 1245 0086 00000000 		.4byte	0
 1246 008a 00       		.byte	0
 1247 008b 00000000 		.4byte	.LEHB10-.LFB28
 1248 008f 00000000 		.4byte	.LEHE10-.LEHB10
 1249 0093 00000000 		.4byte	.L71-.LFB28
 1250 0097 00       		.byte	0
 1251 0098 00000000 		.4byte	.LEHB11-.LFB28
 1252 009c 00000000 		.4byte	.LEHE11-.LEHB11
 1253 00a0 00000000 		.4byte	0
 1254 00a4 00       		.byte	0
 1255 00a5 00000000 		.4byte	.LEHB12-.LFB28
 1256 00a9 00000000 		.4byte	.LEHE12-.LEHB12
 1257 00ad 00000000 		.4byte	.L72-.LFB28
 1258 00b1 00       		.byte	0
 1259 00b2 00000000 		.4byte	.LEHB13-.LFB28
 1260 00b6 00000000 		.4byte	.LEHE13-.LEHB13
 1261 00ba 00000000 		.4byte	0
 1262 00be 00       		.byte	0
 1263 00bf 00000000 		.4byte	.LEHB14-.LFB28
 1264 00c3 00000000 		.4byte	.LEHE14-.LEHB14
 1265 00c7 00000000 		.4byte	0
 1266 00cb 00       		.byte	0
 1267 00cc 00000000 		.4byte	.LEHB15-.LFB28
 1268 00d0 00000000 		.4byte	.LEHE15-.LEHB15
 1269 00d4 00000000 		.4byte	0
 1270 00d8 00       		.byte	0
 1271 00d9 00000000 		.4byte	.LEHB16-.LFB28
 1272 00dd 00000000 		.4byte	.LEHE16-.LEHB16
 1273 00e1 00000000 		.4byte	0
 1274 00e5 00       		.byte	0
 1275              		.text
 1277              		.section	.rodata.str1.8
 1278              		.align	3
 1279              	.LC11:
 1280 0098 6D616C6C 		.string	"mallocFree\n"
 1280      6F634672 
 1280      65650A00 
 1281 00a4 00000000 		.align	3
 1282              	.LC12:
 1283 00a8 6E6F7420 		.string	"not OK\n"
 1283      4F4B0A00 
 1284              		.align	3
 1285              	.LC13:
 1286 00b0 4F4B0A00 		.string	"OK\n"
 1287              		.text
 1288              		.align	2
 1289              		.globl	_Z10mallocFreev
 1291              	_Z10mallocFreev:
 1292              	.LFB31:
 117:src/Tests.cpp ****     Riscv::printString("mallocFree\n");
 1293              		.loc 2 117 1 is_stmt 1
 1294              		.cfi_startproc
GAS LISTING /tmp/ccVT2ggL.s 			page 39


 1295 0670 130101CC 		addi	sp,sp,-832
 1296              		.cfi_def_cfa_offset 832
 1297 0674 233C1132 		sd	ra,824(sp)
 1298 0678 23388132 		sd	s0,816(sp)
 1299 067c 23349132 		sd	s1,808(sp)
 1300              		.cfi_offset 1, -8
 1301              		.cfi_offset 8, -16
 1302              		.cfi_offset 9, -24
 1303 0680 13040134 		addi	s0,sp,832
 1304              		.cfi_def_cfa 8, 0
 118:src/Tests.cpp ****     constexpr int num = 100;
 1305              		.loc 2 118 5
 118:src/Tests.cpp ****     constexpr int num = 100;
 1306              		.loc 2 118 23 is_stmt 0
 1307 0684 17050000 		lla	a0,.LC11
 1307      13050500 
 1308 068c 97000000 		call	_ZN5Riscv11printStringEPKc@plt
 1308      E7800000 
 1309              	.LVL140:
 1310              	.LBB38:
 121:src/Tests.cpp ****     {
 1311              		.loc 2 121 13
 1312 0694 93040000 		li	s1,0
 1313 0698 6F008000 		j	.L79
 1314              	.LVL141:
 1315              	.L77:
 121:src/Tests.cpp ****     {
 1316              		.loc 2 121 5 is_stmt 1 discriminator 2
 1317 069c 9B841400 		addiw	s1,s1,1
 1318              	.LVL142:
 1319              	.L79:
 121:src/Tests.cpp ****     {
 1320              		.loc 2 121 22 discriminator 1
 1321 06a0 93073006 		li	a5,99
 1322 06a4 63C49704 		bgt	s1,a5,.L87
 123:src/Tests.cpp ****         if(addrs[i] == 0)
 1323              		.loc 2 123 9
 123:src/Tests.cpp ****         if(addrs[i] == 0)
 1324              		.loc 2 123 29 is_stmt 0
 1325 06a8 13054006 		li	a0,100
 1326 06ac 97000000 		call	mem_alloc@plt
 1326      E7800000 
 1327              	.LVL143:
 123:src/Tests.cpp ****         if(addrs[i] == 0)
 1328              		.loc 2 123 18
 1329 06b4 93973400 		slli	a5,s1,3
 1330 06b8 130704FE 		addi	a4,s0,-32
 1331 06bc B307F700 		add	a5,a4,a5
 1332 06c0 23B0A7CE 		sd	a0,-800(a5)
 124:src/Tests.cpp ****         {
 1333              		.loc 2 124 9 is_stmt 1
 1334 06c4 E31C05FC 		bnez	a0,.L77
 126:src/Tests.cpp ****             return;
 1335              		.loc 2 126 13
 126:src/Tests.cpp ****             return;
 1336              		.loc 2 126 31 is_stmt 0
 1337 06c8 17050000 		lla	a0,.LC12
GAS LISTING /tmp/ccVT2ggL.s 			page 40


 1337      13050500 
 1338 06d0 97000000 		call	_ZN5Riscv11printStringEPKc@plt
 1338      E7800000 
 1339              	.LVL144:
 127:src/Tests.cpp ****         }
 1340              		.loc 2 127 13 is_stmt 1
 1341              	.L75:
 1342              	.LBE38:
 163:src/Tests.cpp **** void bigMalloc()
 1343              		.loc 2 163 1 is_stmt 0
 1344 06d8 83308133 		ld	ra,824(sp)
 1345              		.cfi_remember_state
 1346              		.cfi_restore 1
 1347 06dc 03340133 		ld	s0,816(sp)
 1348              		.cfi_restore 8
 1349              		.cfi_def_cfa 2, 832
 1350 06e0 83348132 		ld	s1,808(sp)
 1351              		.cfi_restore 9
 1352 06e4 13010134 		addi	sp,sp,832
 1353              		.cfi_def_cfa_offset 0
 1354 06e8 67800000 		jr	ra
 1355              	.LVL145:
 1356              	.L87:
 1357              		.cfi_restore_state
 1358              	.LBB39:
 132:src/Tests.cpp ****     {
 1359              		.loc 2 132 13
 1360 06ec 93040000 		li	s1,0
 1361              	.LVL146:
 1362              	.L76:
 132:src/Tests.cpp ****     {
 1363              		.loc 2 132 23 is_stmt 1 discriminator 1
 1364 06f0 93073006 		li	a5,99
 1365 06f4 63CE9702 		bgt	s1,a5,.L88
 1366              	.LBB40:
 134:src/Tests.cpp ****         if(retval != 0)
 1367              		.loc 2 134 9
 134:src/Tests.cpp ****         if(retval != 0)
 1368              		.loc 2 134 30 is_stmt 0
 1369 06f8 93973400 		slli	a5,s1,3
 1370 06fc 130704FE 		addi	a4,s0,-32
 1371 0700 B307F700 		add	a5,a4,a5
 1372 0704 03B507CE 		ld	a0,-800(a5)
 1373 0708 97000000 		call	mem_free@plt
 1373      E7800000 
 1374              	.LVL147:
 135:src/Tests.cpp ****         {
 1375              		.loc 2 135 9 is_stmt 1
 1376 0710 63160500 		bnez	a0,.L91
 1377              	.LBE40:
 132:src/Tests.cpp ****     {
 1378              		.loc 2 132 5 discriminator 2
 132:src/Tests.cpp ****     {
 1379              		.loc 2 132 30 is_stmt 0 discriminator 2
 1380 0714 9B842400 		addiw	s1,s1,2
 1381              	.LVL148:
 132:src/Tests.cpp ****     {
GAS LISTING /tmp/ccVT2ggL.s 			page 41


 1382              		.loc 2 132 5 discriminator 2
 1383 0718 6FF09FFD 		j	.L76
 1384              	.LVL149:
 1385              	.L91:
 1386              	.LBB41:
 137:src/Tests.cpp ****             return;
 1387              		.loc 2 137 13 is_stmt 1
 137:src/Tests.cpp ****             return;
 1388              		.loc 2 137 31 is_stmt 0
 1389 071c 17050000 		lla	a0,.LC12
 1389      13050500 
 1390              	.LVL150:
 1391 0724 97000000 		call	_ZN5Riscv11printStringEPKc@plt
 1391      E7800000 
 1392              	.LVL151:
 138:src/Tests.cpp ****         }
 1393              		.loc 2 138 13 is_stmt 1
 1394 072c 6FF0DFFA 		j	.L75
 1395              	.L88:
 1396              	.LBE41:
 1397              	.LBE39:
 1398              	.LBB42:
 142:src/Tests.cpp ****     {
 1399              		.loc 2 142 13 is_stmt 0
 1400 0730 93040000 		li	s1,0
 1401              	.LVL152:
 1402 0734 6F008000 		j	.L80
 1403              	.LVL153:
 1404              	.L83:
 142:src/Tests.cpp ****     {
 1405              		.loc 2 142 5 is_stmt 1 discriminator 2
 142:src/Tests.cpp ****     {
 1406              		.loc 2 142 30 is_stmt 0 discriminator 2
 1407 0738 9B842400 		addiw	s1,s1,2
 1408              	.LVL154:
 1409              	.L80:
 142:src/Tests.cpp ****     {
 1410              		.loc 2 142 23 is_stmt 1 discriminator 1
 1411 073c 93073006 		li	a5,99
 1412 0740 63CC9702 		bgt	s1,a5,.L89
 144:src/Tests.cpp ****         if(addrs[i] == 0)
 1413              		.loc 2 144 9
 144:src/Tests.cpp ****         if(addrs[i] == 0)
 1414              		.loc 2 144 29 is_stmt 0
 1415 0744 13054001 		li	a0,20
 1416 0748 97000000 		call	mem_alloc@plt
 1416      E7800000 
 1417              	.LVL155:
 144:src/Tests.cpp ****         if(addrs[i] == 0)
 1418              		.loc 2 144 18
 1419 0750 93973400 		slli	a5,s1,3
 1420 0754 130704FE 		addi	a4,s0,-32
 1421 0758 B307F700 		add	a5,a4,a5
 1422 075c 23B0A7CE 		sd	a0,-800(a5)
 145:src/Tests.cpp ****         {
 1423              		.loc 2 145 9 is_stmt 1
 1424 0760 E31C05FC 		bnez	a0,.L83
GAS LISTING /tmp/ccVT2ggL.s 			page 42


 147:src/Tests.cpp ****             return;
 1425              		.loc 2 147 13
 147:src/Tests.cpp ****             return;
 1426              		.loc 2 147 31 is_stmt 0
 1427 0764 17050000 		lla	a0,.LC12
 1427      13050500 
 1428 076c 97000000 		call	_ZN5Riscv11printStringEPKc@plt
 1428      E7800000 
 1429              	.LVL156:
 148:src/Tests.cpp ****         }
 1430              		.loc 2 148 13 is_stmt 1
 1431 0774 6FF05FF6 		j	.L75
 1432              	.L89:
 1433              	.LBE42:
 1434              	.LBB43:
 152:src/Tests.cpp ****     {
 1435              		.loc 2 152 13 is_stmt 0
 1436 0778 93040000 		li	s1,0
 1437              	.LVL157:
 1438              	.L82:
 152:src/Tests.cpp ****     {
 1439              		.loc 2 152 22 is_stmt 1 discriminator 1
 1440 077c 93073006 		li	a5,99
 1441 0780 63CE9702 		bgt	s1,a5,.L84
 1442              	.LBB44:
 154:src/Tests.cpp ****         if(retval != 0)
 1443              		.loc 2 154 9
 154:src/Tests.cpp ****         if(retval != 0)
 1444              		.loc 2 154 30 is_stmt 0
 1445 0784 93973400 		slli	a5,s1,3
 1446 0788 130704FE 		addi	a4,s0,-32
 1447 078c B307F700 		add	a5,a4,a5
 1448 0790 03B507CE 		ld	a0,-800(a5)
 1449 0794 97000000 		call	mem_free@plt
 1449      E7800000 
 1450              	.LVL158:
 155:src/Tests.cpp ****         {
 1451              		.loc 2 155 9 is_stmt 1
 1452 079c 63160500 		bnez	a0,.L92
 1453              	.LBE44:
 152:src/Tests.cpp ****     {
 1454              		.loc 2 152 5 discriminator 2
 1455 07a0 9B841400 		addiw	s1,s1,1
 1456              	.LVL159:
 1457 07a4 6FF09FFD 		j	.L82
 1458              	.LVL160:
 1459              	.L92:
 1460              	.LBB45:
 157:src/Tests.cpp ****             return;
 1461              		.loc 2 157 13
 157:src/Tests.cpp ****             return;
 1462              		.loc 2 157 31 is_stmt 0
 1463 07a8 17050000 		lla	a0,.LC12
 1463      13050500 
 1464              	.LVL161:
 1465 07b0 97000000 		call	_ZN5Riscv11printStringEPKc@plt
 1465      E7800000 
GAS LISTING /tmp/ccVT2ggL.s 			page 43


 1466              	.LVL162:
 158:src/Tests.cpp ****         }
 1467              		.loc 2 158 13 is_stmt 1
 1468 07b8 6FF01FF2 		j	.L75
 1469              	.L84:
 1470              	.LBE45:
 1471              	.LBE43:
 162:src/Tests.cpp **** }
 1472              		.loc 2 162 5
 162:src/Tests.cpp **** }
 1473              		.loc 2 162 23 is_stmt 0
 1474 07bc 17050000 		lla	a0,.LC13
 1474      13050500 
 1475 07c4 97000000 		call	_ZN5Riscv11printStringEPKc@plt
 1475      E7800000 
 1476              	.LVL163:
 1477 07cc 6FF0DFF0 		j	.L75
 1478              		.cfi_endproc
 1479              	.LFE31:
 1481              		.section	.rodata.str1.8
 1482 00b4 00000000 		.align	3
 1483              	.LC14:
 1484 00b8 6269674D 		.string	"bigMalloc\n"
 1484      616C6C6F 
 1484      630A00
 1485              		.text
 1486              		.align	2
 1487              		.globl	_Z9bigMallocv
 1489              	_Z9bigMallocv:
 1490              	.LFB32:
 165:src/Tests.cpp ****     Riscv::printString("bigMalloc\n");
 1491              		.loc 2 165 1 is_stmt 1
 1492              		.cfi_startproc
 1493 07d0 130101FF 		addi	sp,sp,-16
 1494              		.cfi_def_cfa_offset 16
 1495 07d4 23341100 		sd	ra,8(sp)
 1496 07d8 23308100 		sd	s0,0(sp)
 1497              		.cfi_offset 1, -8
 1498              		.cfi_offset 8, -16
 1499 07dc 13040101 		addi	s0,sp,16
 1500              		.cfi_def_cfa 8, 0
 166:src/Tests.cpp ****     uint64 x = (uint64)HEAP_END_ADDR - (uint64)HEAP_START_ADDR + 100UL;
 1501              		.loc 2 166 5
 166:src/Tests.cpp ****     uint64 x = (uint64)HEAP_END_ADDR - (uint64)HEAP_START_ADDR + 100UL;
 1502              		.loc 2 166 23 is_stmt 0
 1503 07e0 17050000 		lla	a0,.LC14
 1503      13050500 
 1504 07e8 97000000 		call	_ZN5Riscv11printStringEPKc@plt
 1504      E7800000 
 1505              	.LVL164:
 167:src/Tests.cpp ****     void* p = mem_alloc(x);
 1506              		.loc 2 167 5 is_stmt 1
 167:src/Tests.cpp ****     void* p = mem_alloc(x);
 1507              		.loc 2 167 38 is_stmt 0
 1508 07f0 97070000 		la	a5,HEAP_END_ADDR
 1508      83B70700 
 1509 07f8 03B50700 		ld	a0,0(a5)
GAS LISTING /tmp/ccVT2ggL.s 			page 44


 1510 07fc 97070000 		la	a5,HEAP_START_ADDR
 1510      83B70700 
 1511 0804 83B70700 		ld	a5,0(a5)
 1512 0808 3305F540 		sub	a0,a0,a5
 1513              	.LVL165:
 168:src/Tests.cpp ****     if(p == 0)
 1514              		.loc 2 168 5 is_stmt 1
 168:src/Tests.cpp ****     if(p == 0)
 1515              		.loc 2 168 24 is_stmt 0
 1516 080c 13054506 		addi	a0,a0,100
 1517              	.LVL166:
 1518 0810 97000000 		call	mem_alloc@plt
 1518      E7800000 
 1519              	.LVL167:
 169:src/Tests.cpp ****         Riscv::printString("OK\n");
 1520              		.loc 2 169 5 is_stmt 1
 1521 0818 63020502 		beqz	a0,.L97
 172:src/Tests.cpp **** }
 1522              		.loc 2 172 9
 172:src/Tests.cpp **** }
 1523              		.loc 2 172 27 is_stmt 0
 1524 081c 17050000 		lla	a0,.LC12
 1524      13050500 
 1525              	.LVL168:
 1526 0824 97000000 		call	_ZN5Riscv11printStringEPKc@plt
 1526      E7800000 
 1527              	.LVL169:
 1528              	.L93:
 173:src/Tests.cpp **** 
 1529              		.loc 2 173 1
 1530 082c 83308100 		ld	ra,8(sp)
 1531              		.cfi_remember_state
 1532              		.cfi_restore 1
 1533 0830 03340100 		ld	s0,0(sp)
 1534              		.cfi_restore 8
 1535              		.cfi_def_cfa 2, 16
 1536 0834 13010101 		addi	sp,sp,16
 1537              		.cfi_def_cfa_offset 0
 1538 0838 67800000 		jr	ra
 1539              	.LVL170:
 1540              	.L97:
 1541              		.cfi_restore_state
 170:src/Tests.cpp ****     else
 1542              		.loc 2 170 9 is_stmt 1
 170:src/Tests.cpp ****     else
 1543              		.loc 2 170 27 is_stmt 0
 1544 083c 17050000 		lla	a0,.LC13
 1544      13050500 
 1545              	.LVL171:
 1546 0844 97000000 		call	_ZN5Riscv11printStringEPKc@plt
 1546      E7800000 
 1547              	.LVL172:
 1548 084c 6FF01FFE 		j	.L93
 1549              		.cfi_endproc
 1550              	.LFE32:
 1552              		.section	.rodata.str1.8
 1553 00c3 00000000 		.align	3
GAS LISTING /tmp/ccVT2ggL.s 			page 45


 1553      00
 1554              	.LC15:
 1555 00c8 6C6F744F 		.string	"lotOfSmallMallocs\n"
 1555      66536D61 
 1555      6C6C4D61 
 1555      6C6C6F63 
 1555      730A00
 1556              		.text
 1557              		.align	2
 1558              		.globl	_Z17lotOfSmallMallocsv
 1560              	_Z17lotOfSmallMallocsv:
 1561              	.LFB33:
 176:src/Tests.cpp ****     Riscv::printString("lotOfSmallMallocs\n");
 1562              		.loc 2 176 1 is_stmt 1
 1563              		.cfi_startproc
 1564 0850 130101FD 		addi	sp,sp,-48
 1565              		.cfi_def_cfa_offset 48
 1566 0854 23341102 		sd	ra,40(sp)
 1567 0858 23308102 		sd	s0,32(sp)
 1568 085c 233C9100 		sd	s1,24(sp)
 1569 0860 23382101 		sd	s2,16(sp)
 1570 0864 23343101 		sd	s3,8(sp)
 1571              		.cfi_offset 1, -8
 1572              		.cfi_offset 8, -16
 1573              		.cfi_offset 9, -24
 1574              		.cfi_offset 18, -32
 1575              		.cfi_offset 19, -40
 1576 0868 13040103 		addi	s0,sp,48
 1577              		.cfi_def_cfa 8, 0
 177:src/Tests.cpp ****     uint64 cnt = 0;
 1578              		.loc 2 177 5
 177:src/Tests.cpp ****     uint64 cnt = 0;
 1579              		.loc 2 177 23 is_stmt 0
 1580 086c 17050000 		lla	a0,.LC15
 1580      13050500 
 1581 0874 97000000 		call	_ZN5Riscv11printStringEPKc@plt
 1581      E7800000 
 1582              	.LVL173:
 178:src/Tests.cpp ****     uint64 sum = 0;
 1583              		.loc 2 178 5 is_stmt 1
 179:src/Tests.cpp ****     uint64 N = 10000UL;
 1584              		.loc 2 179 5
 180:src/Tests.cpp ****     uint64 X = 10UL;
 1585              		.loc 2 180 5
 181:src/Tests.cpp ****     for(uint64 i = 0; i < N;i++)
 1586              		.loc 2 181 5
 182:src/Tests.cpp ****     {
 1587              		.loc 2 182 5
 1588              	.LBB46:
 182:src/Tests.cpp ****     {
 1589              		.loc 2 182 16 is_stmt 0
 1590 087c 93040000 		li	s1,0
 1591              	.LBE46:
 179:src/Tests.cpp ****     uint64 N = 10000UL;
 1592              		.loc 2 179 12
 1593 0880 93090000 		li	s3,0
 178:src/Tests.cpp ****     uint64 sum = 0;
GAS LISTING /tmp/ccVT2ggL.s 			page 46


 1594              		.loc 2 178 12
 1595 0884 13090000 		li	s2,0
 1596 0888 6F008001 		j	.L100
 1597              	.LVL174:
 1598              	.L104:
 1599              	.LBB49:
 1600              	.LBB47:
 187:src/Tests.cpp ****         sum+=t->a;
 1601              		.loc 2 187 9 is_stmt 1 discriminator 2
 187:src/Tests.cpp ****         sum+=t->a;
 1602              		.loc 2 187 14 is_stmt 0 discriminator 2
 1603 088c 9307A000 		li	a5,10
 1604 0890 2330F500 		sd	a5,0(a0)
 188:src/Tests.cpp ****         cnt++;
 1605              		.loc 2 188 9 is_stmt 1 discriminator 2
 188:src/Tests.cpp ****         cnt++;
 1606              		.loc 2 188 12 is_stmt 0 discriminator 2
 1607 0894 9389A900 		addi	s3,s3,10
 1608              	.LVL175:
 189:src/Tests.cpp ****     }
 1609              		.loc 2 189 9 is_stmt 1 discriminator 2
 189:src/Tests.cpp ****     }
 1610              		.loc 2 189 12 is_stmt 0 discriminator 2
 1611 0898 13091900 		addi	s2,s2,1
 1612              	.LVL176:
 1613              	.LBE47:
 182:src/Tests.cpp ****     {
 1614              		.loc 2 182 5 is_stmt 1 discriminator 2
 1615 089c 93841400 		addi	s1,s1,1
 1616              	.LVL177:
 1617              	.L100:
 182:src/Tests.cpp ****     {
 1618              		.loc 2 182 25 discriminator 1
 1619 08a0 B7270000 		li	a5,8192
 1620 08a4 9387F770 		addi	a5,a5,1807
 1621 08a8 63EA9700 		bgtu	s1,a5,.L99
 1622              	.LBB48:
 184:src/Tests.cpp ****         if(t == 0)
 1623              		.loc 2 184 9
 184:src/Tests.cpp ****         if(t == 0)
 1624              		.loc 2 184 35 is_stmt 0
 1625 08ac 13058000 		li	a0,8
 1626 08b0 97000000 		call	mem_alloc@plt
 1626      E7800000 
 1627              	.LVL178:
 185:src/Tests.cpp ****             break;
 1628              		.loc 2 185 9 is_stmt 1
 1629 08b8 E31A05FC 		bnez	a0,.L104
 1630              	.LVL179:
 1631              	.L99:
 1632              	.LBE48:
 1633              	.LBE49:
 191:src/Tests.cpp ****     Riscv::printString("\n");
 1634              		.loc 2 191 5
 191:src/Tests.cpp ****     Riscv::printString("\n");
 1635              		.loc 2 191 24 is_stmt 0
 1636 08bc 13050900 		mv	a0,s2
GAS LISTING /tmp/ccVT2ggL.s 			page 47


 1637 08c0 97000000 		call	_ZN5Riscv12printIntegerEm@plt
 1637      E7800000 
 1638              	.LVL180:
 192:src/Tests.cpp ****     if(sum == X*cnt)
 1639              		.loc 2 192 5 is_stmt 1
 192:src/Tests.cpp ****     if(sum == X*cnt)
 1640              		.loc 2 192 23 is_stmt 0
 1641 08c8 17050000 		lla	a0,.LC3
 1641      13050500 
 1642 08d0 97000000 		call	_ZN5Riscv11printStringEPKc@plt
 1642      E7800000 
 1643              	.LVL181:
 193:src/Tests.cpp ****         Riscv::printString("OK\n");
 1644              		.loc 2 193 5 is_stmt 1
 193:src/Tests.cpp ****         Riscv::printString("OK\n");
 1645              		.loc 2 193 16 is_stmt 0
 1646 08d8 93172900 		slli	a5,s2,2
 1647 08dc 33892701 		add	s2,a5,s2
 1648              	.LVL182:
 1649 08e0 13191900 		slli	s2,s2,1
 193:src/Tests.cpp ****         Riscv::printString("OK\n");
 1650              		.loc 2 193 5
 1651 08e4 63083903 		beq	s2,s3,.L105
 196:src/Tests.cpp **** }
 1652              		.loc 2 196 9 is_stmt 1
 196:src/Tests.cpp **** }
 1653              		.loc 2 196 27 is_stmt 0
 1654 08e8 17050000 		lla	a0,.LC12
 1654      13050500 
 1655 08f0 97000000 		call	_ZN5Riscv11printStringEPKc@plt
 1655      E7800000 
 1656              	.LVL183:
 1657              	.L98:
 197:src/Tests.cpp **** void badFree()
 1658              		.loc 2 197 1
 1659 08f8 83308102 		ld	ra,40(sp)
 1660              		.cfi_remember_state
 1661              		.cfi_restore 1
 1662 08fc 03340102 		ld	s0,32(sp)
 1663              		.cfi_restore 8
 1664              		.cfi_def_cfa 2, 48
 1665 0900 83348101 		ld	s1,24(sp)
 1666              		.cfi_restore 9
 1667              	.LVL184:
 1668 0904 03390101 		ld	s2,16(sp)
 1669              		.cfi_restore 18
 1670 0908 83398100 		ld	s3,8(sp)
 1671              		.cfi_restore 19
 1672              	.LVL185:
 1673 090c 13010103 		addi	sp,sp,48
 1674              		.cfi_def_cfa_offset 0
 1675 0910 67800000 		jr	ra
 1676              	.LVL186:
 1677              	.L105:
 1678              		.cfi_restore_state
 194:src/Tests.cpp ****     else
 1679              		.loc 2 194 9 is_stmt 1
GAS LISTING /tmp/ccVT2ggL.s 			page 48


 194:src/Tests.cpp ****     else
 1680              		.loc 2 194 27 is_stmt 0
 1681 0914 17050000 		lla	a0,.LC13
 1681      13050500 
 1682 091c 97000000 		call	_ZN5Riscv11printStringEPKc@plt
 1682      E7800000 
 1683              	.LVL187:
 1684 0924 6FF05FFD 		j	.L98
 1685              		.cfi_endproc
 1686              	.LFE33:
 1688              		.section	.rodata.str1.8
 1689 00db 00000000 		.align	3
 1689      00
 1690              	.LC16:
 1691 00e0 62616446 		.string	"badFree\n"
 1691      7265650A 
 1691      00
 1692              		.text
 1693              		.align	2
 1694              		.globl	_Z7badFreev
 1696              	_Z7badFreev:
 1697              	.LFB34:
 199:src/Tests.cpp ****     Riscv::printString("badFree\n");
 1698              		.loc 2 199 1 is_stmt 1
 1699              		.cfi_startproc
 1700 0928 130101FF 		addi	sp,sp,-16
 1701              		.cfi_def_cfa_offset 16
 1702 092c 23341100 		sd	ra,8(sp)
 1703 0930 23308100 		sd	s0,0(sp)
 1704              		.cfi_offset 1, -8
 1705              		.cfi_offset 8, -16
 1706 0934 13040101 		addi	s0,sp,16
 1707              		.cfi_def_cfa 8, 0
 200:src/Tests.cpp ****     Test* t = (Test*)mem_alloc(sizeof(Test));
 1708              		.loc 2 200 5
 200:src/Tests.cpp ****     Test* t = (Test*)mem_alloc(sizeof(Test));
 1709              		.loc 2 200 23 is_stmt 0
 1710 0938 17050000 		lla	a0,.LC16
 1710      13050500 
 1711 0940 97000000 		call	_ZN5Riscv11printStringEPKc@plt
 1711      E7800000 
 1712              	.LVL188:
 201:src/Tests.cpp ****     uint64 retval = mem_free((char*)t + 2);
 1713              		.loc 2 201 5 is_stmt 1
 201:src/Tests.cpp ****     uint64 retval = mem_free((char*)t + 2);
 1714              		.loc 2 201 31 is_stmt 0
 1715 0948 13058000 		li	a0,8
 1716 094c 97000000 		call	mem_alloc@plt
 1716      E7800000 
 1717              	.LVL189:
 202:src/Tests.cpp ****     if(retval == 0)
 1718              		.loc 2 202 5 is_stmt 1
 202:src/Tests.cpp ****     if(retval == 0)
 1719              		.loc 2 202 29 is_stmt 0
 1720 0954 13052500 		addi	a0,a0,2
 1721              	.LVL190:
 1722 0958 97000000 		call	mem_free@plt
GAS LISTING /tmp/ccVT2ggL.s 			page 49


 1722      E7800000 
 1723              	.LVL191:
 203:src/Tests.cpp ****         Riscv::printString("not OK\n");
 1724              		.loc 2 203 5 is_stmt 1
 1725 0960 63120502 		bnez	a0,.L107
 204:src/Tests.cpp ****     else
 1726              		.loc 2 204 9
 204:src/Tests.cpp ****     else
 1727              		.loc 2 204 27 is_stmt 0
 1728 0964 17050000 		lla	a0,.LC12
 1728      13050500 
 1729              	.LVL192:
 1730 096c 97000000 		call	_ZN5Riscv11printStringEPKc@plt
 1730      E7800000 
 1731              	.LVL193:
 1732              	.L106:
 207:src/Tests.cpp **** 
 1733              		.loc 2 207 1
 1734 0974 83308100 		ld	ra,8(sp)
 1735              		.cfi_remember_state
 1736              		.cfi_restore 1
 1737 0978 03340100 		ld	s0,0(sp)
 1738              		.cfi_restore 8
 1739              		.cfi_def_cfa 2, 16
 1740 097c 13010101 		addi	sp,sp,16
 1741              		.cfi_def_cfa_offset 0
 1742 0980 67800000 		jr	ra
 1743              	.LVL194:
 1744              	.L107:
 1745              		.cfi_restore_state
 206:src/Tests.cpp **** }
 1746              		.loc 2 206 9 is_stmt 1
 206:src/Tests.cpp **** }
 1747              		.loc 2 206 27 is_stmt 0
 1748 0984 17050000 		lla	a0,.LC13
 1748      13050500 
 1749              	.LVL195:
 1750 098c 97000000 		call	_ZN5Riscv11printStringEPKc@plt
 1750      E7800000 
 1751              	.LVL196:
 207:src/Tests.cpp **** 
 1752              		.loc 2 207 1
 1753 0994 6FF01FFE 		j	.L106
 1754              		.cfi_endproc
 1755              	.LFE34:
 1757              		.section	.rodata.str1.8
 1758 00e9 00000000 		.align	3
 1758      000000
 1759              	.LC17:
 1760 00f0 73747265 		.string	"stressTesting\n"
 1760      73735465 
 1760      7374696E 
 1760      670A00
 1761              		.text
 1762              		.align	2
 1763              		.globl	_Z13stressTestingv
 1765              	_Z13stressTestingv:
GAS LISTING /tmp/ccVT2ggL.s 			page 50


 1766              	.LFB35:
 210:src/Tests.cpp ****     Riscv::printString("stressTesting\n");
 1767              		.loc 2 210 1 is_stmt 1
 1768              		.cfi_startproc
 1769 0998 130101CC 		addi	sp,sp,-832
 1770              		.cfi_def_cfa_offset 832
 1771 099c 233C1132 		sd	ra,824(sp)
 1772 09a0 23388132 		sd	s0,816(sp)
 1773 09a4 23349132 		sd	s1,808(sp)
 1774 09a8 23302133 		sd	s2,800(sp)
 1775              		.cfi_offset 1, -8
 1776              		.cfi_offset 8, -16
 1777              		.cfi_offset 9, -24
 1778              		.cfi_offset 18, -32
 1779 09ac 13040134 		addi	s0,sp,832
 1780              		.cfi_def_cfa 8, 0
 211:src/Tests.cpp ****     constexpr int num = 100;
 1781              		.loc 2 211 5
 211:src/Tests.cpp ****     constexpr int num = 100;
 1782              		.loc 2 211 23 is_stmt 0
 1783 09b0 17050000 		lla	a0,.LC17
 1783      13050500 
 1784 09b8 97000000 		call	_ZN5Riscv11printStringEPKc@plt
 1784      E7800000 
 1785              	.LVL197:
 1786              	.LBB50:
 214:src/Tests.cpp ****     {
 1787              		.loc 2 214 13
 1788 09c0 93040000 		li	s1,0
 1789 09c4 6F008000 		j	.L113
 1790              	.LVL198:
 1791              	.L122:
 214:src/Tests.cpp ****     {
 1792              		.loc 2 214 5 is_stmt 1 discriminator 2
 1793 09c8 9B841400 		addiw	s1,s1,1
 1794              	.LVL199:
 1795              	.L113:
 214:src/Tests.cpp ****     {
 1796              		.loc 2 214 22 discriminator 1
 1797 09cc 93073006 		li	a5,99
 1798 09d0 63CE9702 		bgt	s1,a5,.L119
 216:src/Tests.cpp ****         if(addrs[i] == 0)
 1799              		.loc 2 216 9
 216:src/Tests.cpp ****         if(addrs[i] == 0)
 1800              		.loc 2 216 29 is_stmt 0
 1801 09d4 13051000 		li	a0,1
 1802 09d8 97000000 		call	mem_alloc@plt
 1802      E7800000 
 1803              	.LVL200:
 216:src/Tests.cpp ****         if(addrs[i] == 0)
 1804              		.loc 2 216 18
 1805 09e0 93973400 		slli	a5,s1,3
 1806 09e4 130704FE 		addi	a4,s0,-32
 1807 09e8 B307F700 		add	a5,a4,a5
 1808 09ec 23B0A7CE 		sd	a0,-800(a5)
 217:src/Tests.cpp ****         {
 1809              		.loc 2 217 9 is_stmt 1
GAS LISTING /tmp/ccVT2ggL.s 			page 51


 1810 09f0 E31C05FC 		bnez	a0,.L122
 1811              	.LVL201:
 1812              	.L110:
 1813              	.LBE50:
 274:src/Tests.cpp **** 
 1814              		.loc 2 274 1 is_stmt 0
 1815 09f4 83308133 		ld	ra,824(sp)
 1816              		.cfi_remember_state
 1817              		.cfi_restore 1
 1818 09f8 03340133 		ld	s0,816(sp)
 1819              		.cfi_restore 8
 1820              		.cfi_def_cfa 2, 832
 1821 09fc 83348132 		ld	s1,808(sp)
 1822              		.cfi_restore 9
 1823 0a00 03390132 		ld	s2,800(sp)
 1824              		.cfi_restore 18
 1825 0a04 13010134 		addi	sp,sp,832
 1826              		.cfi_def_cfa_offset 0
 1827 0a08 67800000 		jr	ra
 1828              	.LVL202:
 1829              	.L119:
 1830              		.cfi_restore_state
 224:src/Tests.cpp ****     while(sz > 0)
 1831              		.loc 2 224 9
 1832 0a0c 1309C012 		li	s2,300
 1833              	.LVL203:
 1834              	.L111:
 225:src/Tests.cpp ****     {
 1835              		.loc 2 225 5 is_stmt 1
 225:src/Tests.cpp ****     {
 1836              		.loc 2 225 14
 1837 0a10 635A200B 		blez	s2,.L114
 1838              	.LBB51:
 1839              	.LBB52:
 229:src/Tests.cpp ****         {
 1840              		.loc 2 229 17 is_stmt 0
 1841 0a14 93040000 		li	s1,0
 1842              	.L116:
 1843              	.LVL204:
 229:src/Tests.cpp ****         {
 1844              		.loc 2 229 27 is_stmt 1 discriminator 1
 1845 0a18 93073006 		li	a5,99
 1846 0a1c 63C89704 		bgt	s1,a5,.L120
 1847              	.LBB53:
 234:src/Tests.cpp ****             if(retval != 0)
 1848              		.loc 2 234 13
 234:src/Tests.cpp ****             if(retval != 0)
 1849              		.loc 2 234 34 is_stmt 0
 1850 0a20 93973400 		slli	a5,s1,3
 1851 0a24 130704FE 		addi	a4,s0,-32
 1852 0a28 B307F700 		add	a5,a4,a5
 1853 0a2c 03B507CE 		ld	a0,-800(a5)
 1854 0a30 97000000 		call	mem_free@plt
 1854      E7800000 
 1855              	.LVL205:
 235:src/Tests.cpp ****             {
 1856              		.loc 2 235 13 is_stmt 1
GAS LISTING /tmp/ccVT2ggL.s 			page 52


 1857 0a38 E31E05FA 		bnez	a0,.L110
 241:src/Tests.cpp ****             if(addrs[i] == 0)
 1858              		.loc 2 241 13
 241:src/Tests.cpp ****             if(addrs[i] == 0)
 1859              		.loc 2 241 36 is_stmt 0
 1860 0a3c 1B55F901 		srliw	a0,s2,31
 1861              	.LVL206:
 1862 0a40 3B052501 		addw	a0,a0,s2
 241:src/Tests.cpp ****             if(addrs[i] == 0)
 1863              		.loc 2 241 33
 1864 0a44 1B551540 		sraiw	a0,a0,1
 1865 0a48 97000000 		call	mem_alloc@plt
 1865      E7800000 
 1866              	.LVL207:
 241:src/Tests.cpp ****             if(addrs[i] == 0)
 1867              		.loc 2 241 22
 1868 0a50 93973400 		slli	a5,s1,3
 1869 0a54 130704FE 		addi	a4,s0,-32
 1870 0a58 B307F700 		add	a5,a4,a5
 1871 0a5c 23B0A7CE 		sd	a0,-800(a5)
 242:src/Tests.cpp ****             {
 1872              		.loc 2 242 13 is_stmt 1
 1873 0a60 E30A05F8 		beqz	a0,.L110
 1874              	.LBE53:
 229:src/Tests.cpp ****         {
 1875              		.loc 2 229 9 discriminator 2
 229:src/Tests.cpp ****         {
 1876              		.loc 2 229 34 is_stmt 0 discriminator 2
 1877 0a64 9B842400 		addiw	s1,s1,2
 1878              	.LVL208:
 229:src/Tests.cpp ****         {
 1879              		.loc 2 229 9 discriminator 2
 1880 0a68 6FF01FFB 		j	.L116
 1881              	.LVL209:
 1882              	.L120:
 1883              	.LBE52:
 1884              	.LBB54:
 250:src/Tests.cpp ****         {
 1885              		.loc 2 250 17
 1886 0a6c 93041000 		li	s1,1
 1887              	.LVL210:
 1888              	.L115:
 250:src/Tests.cpp ****         {
 1889              		.loc 2 250 27 is_stmt 1 discriminator 1
 1890 0a70 93073006 		li	a5,99
 1891 0a74 63C49704 		bgt	s1,a5,.L117
 1892              	.LBB55:
 255:src/Tests.cpp ****             if(retval != 0)
 1893              		.loc 2 255 13
 255:src/Tests.cpp ****             if(retval != 0)
 1894              		.loc 2 255 34 is_stmt 0
 1895 0a78 93973400 		slli	a5,s1,3
 1896 0a7c 130704FE 		addi	a4,s0,-32
 1897 0a80 B307F700 		add	a5,a4,a5
 1898 0a84 03B507CE 		ld	a0,-800(a5)
 1899 0a88 97000000 		call	mem_free@plt
 1899      E7800000 
GAS LISTING /tmp/ccVT2ggL.s 			page 53


 1900              	.LVL211:
 256:src/Tests.cpp ****             {
 1901              		.loc 2 256 13 is_stmt 1
 1902 0a90 E31205F6 		bnez	a0,.L110
 262:src/Tests.cpp ****             if(addrs[i] == 0)
 1903              		.loc 2 262 13
 262:src/Tests.cpp ****             if(addrs[i] == 0)
 1904              		.loc 2 262 33 is_stmt 0
 1905 0a94 13050900 		mv	a0,s2
 1906              	.LVL212:
 1907 0a98 97000000 		call	mem_alloc@plt
 1907      E7800000 
 1908              	.LVL213:
 262:src/Tests.cpp ****             if(addrs[i] == 0)
 1909              		.loc 2 262 22
 1910 0aa0 93973400 		slli	a5,s1,3
 1911 0aa4 130704FE 		addi	a4,s0,-32
 1912 0aa8 B307F700 		add	a5,a4,a5
 1913 0aac 23B0A7CE 		sd	a0,-800(a5)
 263:src/Tests.cpp ****             {
 1914              		.loc 2 263 13 is_stmt 1
 1915 0ab0 E30205F4 		beqz	a0,.L110
 1916              	.LBE55:
 250:src/Tests.cpp ****         {
 1917              		.loc 2 250 9 discriminator 2
 250:src/Tests.cpp ****         {
 1918              		.loc 2 250 34 is_stmt 0 discriminator 2
 1919 0ab4 9B842400 		addiw	s1,s1,2
 1920              	.LVL214:
 250:src/Tests.cpp ****         {
 1921              		.loc 2 250 9 discriminator 2
 1922 0ab8 6FF09FFB 		j	.L115
 1923              	.LVL215:
 1924              	.L117:
 1925              	.LBE54:
 270:src/Tests.cpp ****     }
 1926              		.loc 2 270 9 is_stmt 1
 270:src/Tests.cpp ****     }
 1927              		.loc 2 270 11 is_stmt 0
 1928 0abc 1B0969FF 		addiw	s2,s2,-10
 1929              	.LVL216:
 1930              	.LBE51:
 225:src/Tests.cpp ****     {
 1931              		.loc 2 225 5
 1932 0ac0 6FF01FF5 		j	.L111
 1933              	.LVL217:
 1934              	.L114:
 273:src/Tests.cpp **** }
 1935              		.loc 2 273 5 is_stmt 1
 273:src/Tests.cpp **** }
 1936              		.loc 2 273 23 is_stmt 0
 1937 0ac4 17050000 		lla	a0,.LC13
 1937      13050500 
 1938 0acc 97000000 		call	_ZN5Riscv11printStringEPKc@plt
 1938      E7800000 
 1939              	.LVL218:
 1940 0ad4 6FF01FF2 		j	.L110
GAS LISTING /tmp/ccVT2ggL.s 			page 54


 1941              		.cfi_endproc
 1942              	.LFE35:
 1944              		.section	.rodata.str1.8
 1945 00ff 00       		.align	3
 1946              	.LC18:
 1947 0100 666F6F20 		.string	"foo exec\n"
 1947      65786563 
 1947      0A00
 1948              		.text
 1949              		.align	2
 1950              		.globl	_Z3foov
 1952              	_Z3foov:
 1953              	.LFB37:
 293:src/Tests.cpp ****     s11->wait();
 1954              		.loc 2 293 1 is_stmt 1
 1955              		.cfi_startproc
 1956 0ad8 130101FE 		addi	sp,sp,-32
 1957              		.cfi_def_cfa_offset 32
 1958 0adc 233C1100 		sd	ra,24(sp)
 1959 0ae0 23388100 		sd	s0,16(sp)
 1960 0ae4 23349100 		sd	s1,8(sp)
 1961              		.cfi_offset 1, -8
 1962              		.cfi_offset 8, -16
 1963              		.cfi_offset 9, -24
 1964 0ae8 13040102 		addi	s0,sp,32
 1965              		.cfi_def_cfa 8, 0
 294:src/Tests.cpp ****     Riscv::printString("foo exec\n");
 1966              		.loc 2 294 5
 294:src/Tests.cpp ****     Riscv::printString("foo exec\n");
 1967              		.loc 2 294 14 is_stmt 0
 1968 0aec 97040000 		lla	s1,.LANCHOR0
 1968      93840400 
 1969 0af4 03B58401 		ld	a0,24(s1)
 1970 0af8 97000000 		call	_ZN9Semaphore4waitEv@plt
 1970      E7800000 
 1971              	.LVL219:
 295:src/Tests.cpp ****     s22->signal();
 1972              		.loc 2 295 5 is_stmt 1
 295:src/Tests.cpp ****     s22->signal();
 1973              		.loc 2 295 23 is_stmt 0
 1974 0b00 17050000 		lla	a0,.LC18
 1974      13050500 
 1975 0b08 97000000 		call	_ZN5Riscv11printStringEPKc@plt
 1975      E7800000 
 1976              	.LVL220:
 296:src/Tests.cpp **** }
 1977              		.loc 2 296 5 is_stmt 1
 296:src/Tests.cpp **** }
 1978              		.loc 2 296 16 is_stmt 0
 1979 0b10 03B50402 		ld	a0,32(s1)
 1980 0b14 97000000 		call	_ZN9Semaphore6signalEv@plt
 1980      E7800000 
 1981              	.LVL221:
 297:src/Tests.cpp **** 
 1982              		.loc 2 297 1
 1983 0b1c 83308101 		ld	ra,24(sp)
 1984              		.cfi_restore 1
GAS LISTING /tmp/ccVT2ggL.s 			page 55


 1985 0b20 03340101 		ld	s0,16(sp)
 1986              		.cfi_restore 8
 1987              		.cfi_def_cfa 2, 32
 1988 0b24 83348100 		ld	s1,8(sp)
 1989              		.cfi_restore 9
 1990 0b28 13010102 		addi	sp,sp,32
 1991              		.cfi_def_cfa_offset 0
 1992 0b2c 67800000 		jr	ra
 1993              		.cfi_endproc
 1994              	.LFE37:
 1996              		.section	.rodata.str1.8
 1997 010a 00000000 		.align	3
 1997      0000
 1998              	.LC19:
 1999 0110 66312073 		.string	"f1 started\n"
 1999      74617274 
 1999      65640A00 
 2000              		.text
 2001              		.align	2
 2002              		.globl	_Z2f1Pv
 2004              	_Z2f1Pv:
 2005              	.LFB39:
 308:src/Tests.cpp ****     Riscv::printString("f1 started\n");
 2006              		.loc 2 308 1 is_stmt 1
 2007              		.cfi_startproc
 2008              	.LVL222:
 2009 0b30 130101FE 		addi	sp,sp,-32
 2010              		.cfi_def_cfa_offset 32
 2011 0b34 233C1100 		sd	ra,24(sp)
 2012 0b38 23388100 		sd	s0,16(sp)
 2013 0b3c 23349100 		sd	s1,8(sp)
 2014 0b40 23302101 		sd	s2,0(sp)
 2015              		.cfi_offset 1, -8
 2016              		.cfi_offset 8, -16
 2017              		.cfi_offset 9, -24
 2018              		.cfi_offset 18, -32
 2019 0b44 13040102 		addi	s0,sp,32
 2020              		.cfi_def_cfa 8, 0
 309:src/Tests.cpp ****     for(int br = 0;br < 10;br++)
 2021              		.loc 2 309 5
 309:src/Tests.cpp ****     for(int br = 0;br < 10;br++)
 2022              		.loc 2 309 23 is_stmt 0
 2023 0b48 17050000 		lla	a0,.LC19
 2023      13050500 
 2024              	.LVL223:
 2025 0b50 97000000 		call	_ZN5Riscv11printStringEPKc@plt
 2025      E7800000 
 2026              	.LVL224:
 310:src/Tests.cpp ****     {
 2027              		.loc 2 310 5 is_stmt 1
 2028              	.LBB56:
 310:src/Tests.cpp ****     {
 2029              		.loc 2 310 13 is_stmt 0
 2030 0b58 13090000 		li	s2,0
 2031 0b5c 6F000001 		j	.L130
 2032              	.LVL225:
 2033              	.L127:
GAS LISTING /tmp/ccVT2ggL.s 			page 56


 2034              	.LBB57:
 314:src/Tests.cpp ****             thread_dispatch();
 2035              		.loc 2 314 9 is_stmt 1
 2036 0b60 93075000 		li	a5,5
 2037 0b64 6306F902 		beq	s2,a5,.L132
 2038              	.L129:
 2039              	.LBE57:
 310:src/Tests.cpp ****     {
 2040              		.loc 2 310 5 discriminator 2
 2041 0b68 1B091900 		addiw	s2,s2,1
 2042              	.LVL226:
 2043              	.L130:
 310:src/Tests.cpp ****     {
 2044              		.loc 2 310 23 discriminator 1
 2045 0b6c 93079000 		li	a5,9
 2046 0b70 63C62703 		bgt	s2,a5,.L125
 2047              	.LBB59:
 2048              	.LBB58:
 312:src/Tests.cpp ****             foo();
 2049              		.loc 2 312 18 is_stmt 0
 2050 0b74 93040000 		li	s1,0
 2051              	.L128:
 2052              	.LVL227:
 312:src/Tests.cpp ****             foo();
 2053              		.loc 2 312 27 is_stmt 1 discriminator 3
 2054 0b78 93074000 		li	a5,4
 2055 0b7c E3C297FE 		bgt	s1,a5,.L127
 313:src/Tests.cpp ****         if(br == 5)
 2056              		.loc 2 313 13 discriminator 2
 313:src/Tests.cpp ****         if(br == 5)
 2057              		.loc 2 313 16 is_stmt 0 discriminator 2
 2058 0b80 97000000 		call	_Z3foov
 2058      E7800000 
 2059              	.LVL228:
 312:src/Tests.cpp ****             foo();
 2060              		.loc 2 312 9 is_stmt 1 discriminator 2
 2061 0b88 9B841400 		addiw	s1,s1,1
 2062              	.LVL229:
 2063 0b8c 6FF0DFFE 		j	.L128
 2064              	.LVL230:
 2065              	.L132:
 2066              	.LBE58:
 315:src/Tests.cpp ****     }
 2067              		.loc 2 315 13
 315:src/Tests.cpp ****     }
 2068              		.loc 2 315 28 is_stmt 0
 2069 0b90 97000000 		call	thread_dispatch@plt
 2069      E7800000 
 2070              	.LVL231:
 2071 0b98 6FF01FFD 		j	.L129
 2072              	.LVL232:
 2073              	.L125:
 2074              	.LBE59:
 2075              	.LBE56:
 317:src/Tests.cpp **** 
 2076              		.loc 2 317 1
 2077 0b9c 83308101 		ld	ra,24(sp)
GAS LISTING /tmp/ccVT2ggL.s 			page 57


 2078              		.cfi_restore 1
 2079 0ba0 03340101 		ld	s0,16(sp)
 2080              		.cfi_restore 8
 2081              		.cfi_def_cfa 2, 32
 2082 0ba4 83348100 		ld	s1,8(sp)
 2083              		.cfi_restore 9
 2084 0ba8 03390100 		ld	s2,0(sp)
 2085              		.cfi_restore 18
 2086              	.LVL233:
 2087 0bac 13010102 		addi	sp,sp,32
 2088              		.cfi_def_cfa_offset 0
 2089 0bb0 67800000 		jr	ra
 2090              		.cfi_endproc
 2091              	.LFE39:
 2093              		.section	.rodata.str1.8
 2094 011c 00000000 		.align	3
 2095              	.LC20:
 2096 0120 666F6F32 		.string	"foo2 exec\n"
 2096      20657865 
 2096      630A00
 2097              		.text
 2098              		.align	2
 2099              		.globl	_Z4foo2v
 2101              	_Z4foo2v:
 2102              	.LFB38:
 300:src/Tests.cpp ****     s22->wait();
 2103              		.loc 2 300 1 is_stmt 1
 2104              		.cfi_startproc
 2105 0bb4 130101FE 		addi	sp,sp,-32
 2106              		.cfi_def_cfa_offset 32
 2107 0bb8 233C1100 		sd	ra,24(sp)
 2108 0bbc 23388100 		sd	s0,16(sp)
 2109 0bc0 23349100 		sd	s1,8(sp)
 2110              		.cfi_offset 1, -8
 2111              		.cfi_offset 8, -16
 2112              		.cfi_offset 9, -24
 2113 0bc4 13040102 		addi	s0,sp,32
 2114              		.cfi_def_cfa 8, 0
 301:src/Tests.cpp ****     Riscv::printString("foo2 exec\n");
 2115              		.loc 2 301 5
 301:src/Tests.cpp ****     Riscv::printString("foo2 exec\n");
 2116              		.loc 2 301 14 is_stmt 0
 2117 0bc8 97040000 		lla	s1,.LANCHOR0
 2117      93840400 
 2118 0bd0 03B50402 		ld	a0,32(s1)
 2119 0bd4 97000000 		call	_ZN9Semaphore4waitEv@plt
 2119      E7800000 
 2120              	.LVL234:
 302:src/Tests.cpp ****     s11->signal();
 2121              		.loc 2 302 5 is_stmt 1
 302:src/Tests.cpp ****     s11->signal();
 2122              		.loc 2 302 23 is_stmt 0
 2123 0bdc 17050000 		lla	a0,.LC20
 2123      13050500 
 2124 0be4 97000000 		call	_ZN5Riscv11printStringEPKc@plt
 2124      E7800000 
 2125              	.LVL235:
GAS LISTING /tmp/ccVT2ggL.s 			page 58


 303:src/Tests.cpp **** }
 2126              		.loc 2 303 5 is_stmt 1
 303:src/Tests.cpp **** }
 2127              		.loc 2 303 16 is_stmt 0
 2128 0bec 03B58401 		ld	a0,24(s1)
 2129 0bf0 97000000 		call	_ZN9Semaphore6signalEv@plt
 2129      E7800000 
 2130              	.LVL236:
 304:src/Tests.cpp **** 
 2131              		.loc 2 304 1
 2132 0bf8 83308101 		ld	ra,24(sp)
 2133              		.cfi_restore 1
 2134 0bfc 03340101 		ld	s0,16(sp)
 2135              		.cfi_restore 8
 2136              		.cfi_def_cfa 2, 32
 2137 0c00 83348100 		ld	s1,8(sp)
 2138              		.cfi_restore 9
 2139 0c04 13010102 		addi	sp,sp,32
 2140              		.cfi_def_cfa_offset 0
 2141 0c08 67800000 		jr	ra
 2142              		.cfi_endproc
 2143              	.LFE38:
 2145              		.section	.rodata.str1.8
 2146 012b 00000000 		.align	3
 2146      00
 2147              	.LC21:
 2148 0130 66322073 		.string	"f2 started\n"
 2148      74617274 
 2148      65640A00 
 2149              		.text
 2150              		.align	2
 2151              		.globl	_Z2f2Pv
 2153              	_Z2f2Pv:
 2154              	.LFB40:
 320:src/Tests.cpp ****     Riscv::printString("f2 started\n");
 2155              		.loc 2 320 1 is_stmt 1
 2156              		.cfi_startproc
 2157              	.LVL237:
 2158 0c0c 130101FE 		addi	sp,sp,-32
 2159              		.cfi_def_cfa_offset 32
 2160 0c10 233C1100 		sd	ra,24(sp)
 2161 0c14 23388100 		sd	s0,16(sp)
 2162 0c18 23349100 		sd	s1,8(sp)
 2163 0c1c 23302101 		sd	s2,0(sp)
 2164              		.cfi_offset 1, -8
 2165              		.cfi_offset 8, -16
 2166              		.cfi_offset 9, -24
 2167              		.cfi_offset 18, -32
 2168 0c20 13040102 		addi	s0,sp,32
 2169              		.cfi_def_cfa 8, 0
 321:src/Tests.cpp ****     for(int br = 0;br < 1;br++)
 2170              		.loc 2 321 5
 321:src/Tests.cpp ****     for(int br = 0;br < 1;br++)
 2171              		.loc 2 321 23 is_stmt 0
 2172 0c24 17050000 		lla	a0,.LC21
 2172      13050500 
 2173              	.LVL238:
GAS LISTING /tmp/ccVT2ggL.s 			page 59


 2174 0c2c 97000000 		call	_ZN5Riscv11printStringEPKc@plt
 2174      E7800000 
 2175              	.LVL239:
 322:src/Tests.cpp ****     {
 2176              		.loc 2 322 5 is_stmt 1
 2177              	.LBB60:
 322:src/Tests.cpp ****     {
 2178              		.loc 2 322 13 is_stmt 0
 2179 0c34 13090000 		li	s2,0
 2180              	.LVL240:
 2181              	.L140:
 322:src/Tests.cpp ****     {
 2182              		.loc 2 322 23 is_stmt 1 discriminator 1
 2183 0c38 634E2003 		bgtz	s2,.L135
 2184              	.LBB61:
 2185              	.LBB62:
 324:src/Tests.cpp ****             foo2();
 2186              		.loc 2 324 17 is_stmt 0
 2187 0c3c 93040000 		li	s1,0
 2188              	.L138:
 2189              	.LVL241:
 324:src/Tests.cpp ****             foo2();
 2190              		.loc 2 324 26 is_stmt 1 discriminator 3
 2191 0c40 93079000 		li	a5,9
 2192 0c44 63CA9700 		bgt	s1,a5,.L137
 325:src/Tests.cpp ****         if(br == 6)
 2193              		.loc 2 325 13 discriminator 2
 325:src/Tests.cpp ****         if(br == 6)
 2194              		.loc 2 325 17 is_stmt 0 discriminator 2
 2195 0c48 97000000 		call	_Z4foo2v
 2195      E7800000 
 2196              	.LVL242:
 324:src/Tests.cpp ****             foo2();
 2197              		.loc 2 324 9 is_stmt 1 discriminator 2
 2198 0c50 9B841400 		addiw	s1,s1,1
 2199              	.LVL243:
 2200 0c54 6FF0DFFE 		j	.L138
 2201              	.LVL244:
 2202              	.L137:
 2203              	.LBE62:
 326:src/Tests.cpp ****             thread_dispatch();
 2204              		.loc 2 326 9
 2205 0c58 93076000 		li	a5,6
 2206 0c5c 6306F900 		beq	s2,a5,.L142
 2207              	.L139:
 2208              	.LBE61:
 322:src/Tests.cpp ****     {
 2209              		.loc 2 322 5 discriminator 2
 2210 0c60 1B091900 		addiw	s2,s2,1
 2211              	.LVL245:
 2212 0c64 6FF05FFD 		j	.L140
 2213              	.LVL246:
 2214              	.L142:
 2215              	.LBB63:
 327:src/Tests.cpp ****     }
 2216              		.loc 2 327 13
 327:src/Tests.cpp ****     }
GAS LISTING /tmp/ccVT2ggL.s 			page 60


 2217              		.loc 2 327 28 is_stmt 0
 2218 0c68 97000000 		call	thread_dispatch@plt
 2218      E7800000 
 2219              	.LVL247:
 2220 0c70 6FF01FFF 		j	.L139
 2221              	.LVL248:
 2222              	.L135:
 2223              	.LBE63:
 2224              	.LBE60:
 329:src/Tests.cpp **** 
 2225              		.loc 2 329 1
 2226 0c74 83308101 		ld	ra,24(sp)
 2227              		.cfi_restore 1
 2228 0c78 03340101 		ld	s0,16(sp)
 2229              		.cfi_restore 8
 2230              		.cfi_def_cfa 2, 32
 2231 0c7c 83348100 		ld	s1,8(sp)
 2232              		.cfi_restore 9
 2233 0c80 03390100 		ld	s2,0(sp)
 2234              		.cfi_restore 18
 2235              	.LVL249:
 2236 0c84 13010102 		addi	sp,sp,32
 2237              		.cfi_def_cfa_offset 0
 2238 0c88 67800000 		jr	ra
 2239              		.cfi_endproc
 2240              	.LFE40:
 2242              		.align	2
 2243              		.globl	_Z8semTest1v
 2245              	_Z8semTest1v:
 2246              	.LFB41:
 332:src/Tests.cpp ****     mutex = new Semaphore(1);
 2247              		.loc 2 332 1 is_stmt 1
 2248              		.cfi_startproc
 2249              		.cfi_personality 0x9b,DW.ref.__gxx_personality_v0
 2250              		.cfi_lsda 0x1b,.LLSDA41
 2251 0c8c 130101FD 		addi	sp,sp,-48
 2252              		.cfi_def_cfa_offset 48
 2253 0c90 23341102 		sd	ra,40(sp)
 2254 0c94 23308102 		sd	s0,32(sp)
 2255 0c98 233C9100 		sd	s1,24(sp)
 2256 0c9c 23382101 		sd	s2,16(sp)
 2257 0ca0 23343101 		sd	s3,8(sp)
 2258              		.cfi_offset 1, -8
 2259              		.cfi_offset 8, -16
 2260              		.cfi_offset 9, -24
 2261              		.cfi_offset 18, -32
 2262              		.cfi_offset 19, -40
 2263 0ca4 13040103 		addi	s0,sp,48
 2264              		.cfi_def_cfa 8, 0
 333:src/Tests.cpp ****     s11 = new Semaphore(1);
 2265              		.loc 2 333 5
 333:src/Tests.cpp ****     s11 = new Semaphore(1);
 2266              		.loc 2 333 28 is_stmt 0
 2267 0ca8 13050001 		li	a0,16
 2268              	.LEHB17:
 2269 0cac 97000000 		call	_Znwm@plt
 2269      E7800000 
GAS LISTING /tmp/ccVT2ggL.s 			page 61


 2270              	.LVL250:
 2271              	.LEHE17:
 2272 0cb4 13090500 		mv	s2,a0
 2273 0cb8 93051000 		li	a1,1
 2274              	.LEHB18:
 2275 0cbc 97000000 		call	_ZN9SemaphoreC1Ej@plt
 2275      E7800000 
 2276              	.LVL251:
 2277              	.LEHE18:
 334:src/Tests.cpp ****     s22 = new Semaphore(0);
 2278              		.loc 2 334 5 is_stmt 1 discriminator 2
 334:src/Tests.cpp ****     s22 = new Semaphore(0);
 2279              		.loc 2 334 26 is_stmt 0 discriminator 2
 2280 0cc4 13050001 		li	a0,16
 2281              	.LEHB19:
 2282 0cc8 97000000 		call	_Znwm@plt
 2282      E7800000 
 2283              	.LVL252:
 2284              	.LEHE19:
 2285 0cd0 93040500 		mv	s1,a0
 2286 0cd4 93051000 		li	a1,1
 2287              	.LEHB20:
 2288 0cd8 97000000 		call	_ZN9SemaphoreC1Ej@plt
 2288      E7800000 
 2289              	.LVL253:
 2290              	.LEHE20:
 334:src/Tests.cpp ****     s22 = new Semaphore(0);
 2291              		.loc 2 334 9 discriminator 2
 2292 0ce0 97070000 		sd	s1,.LANCHOR0+24,a5
 2292      23B09700 
 335:src/Tests.cpp ****     Thread* t1 = new Thread(&f1, 0);
 2293              		.loc 2 335 5 is_stmt 1 discriminator 2
 335:src/Tests.cpp ****     Thread* t1 = new Thread(&f1, 0);
 2294              		.loc 2 335 26 is_stmt 0 discriminator 2
 2295 0ce8 13050001 		li	a0,16
 2296              	.LEHB21:
 2297 0cec 97000000 		call	_Znwm@plt
 2297      E7800000 
 2298              	.LVL254:
 2299              	.LEHE21:
 2300 0cf4 93040500 		mv	s1,a0
 2301 0cf8 93050000 		li	a1,0
 2302              	.LEHB22:
 2303 0cfc 97000000 		call	_ZN9SemaphoreC1Ej@plt
 2303      E7800000 
 2304              	.LVL255:
 2305              	.LEHE22:
 335:src/Tests.cpp ****     Thread* t1 = new Thread(&f1, 0);
 2306              		.loc 2 335 9 discriminator 2
 2307 0d04 97070000 		sd	s1,.LANCHOR0+32,a5
 2307      23B09700 
 336:src/Tests.cpp ****     Thread* t2 = new Thread(&f2, 0);
 2308              		.loc 2 336 5 is_stmt 1 discriminator 2
 336:src/Tests.cpp ****     Thread* t2 = new Thread(&f2, 0);
 2309              		.loc 2 336 35 is_stmt 0 discriminator 2
 2310 0d0c 13050002 		li	a0,32
 2311              	.LEHB23:
GAS LISTING /tmp/ccVT2ggL.s 			page 62


 2312 0d10 97000000 		call	_Znwm@plt
 2312      E7800000 
 2313              	.LVL256:
 2314              	.LEHE23:
 2315 0d18 93090500 		mv	s3,a0
 2316 0d1c 13060000 		li	a2,0
 2317 0d20 97050000 		lla	a1,_Z2f1Pv
 2317      93850500 
 2318              	.LEHB24:
 2319 0d28 97000000 		call	_ZN6ThreadC1EPFvPvES0_@plt
 2319      E7800000 
 2320              	.LVL257:
 2321              	.LEHE24:
 337:src/Tests.cpp ****     t2->start();
 2322              		.loc 2 337 5 is_stmt 1 discriminator 2
 337:src/Tests.cpp ****     t2->start();
 2323              		.loc 2 337 35 is_stmt 0 discriminator 2
 2324 0d30 13050002 		li	a0,32
 2325              	.LEHB25:
 2326 0d34 97000000 		call	_Znwm@plt
 2326      E7800000 
 2327              	.LVL258:
 2328              	.LEHE25:
 2329 0d3c 13090500 		mv	s2,a0
 2330 0d40 13060000 		li	a2,0
 2331 0d44 97050000 		lla	a1,_Z2f2Pv
 2331      93850500 
 2332              	.LEHB26:
 2333 0d4c 97000000 		call	_ZN6ThreadC1EPFvPvES0_@plt
 2333      E7800000 
 2334              	.LVL259:
 2335              	.LEHE26:
 338:src/Tests.cpp ****     t1->start();
 2336              		.loc 2 338 5 is_stmt 1 discriminator 2
 338:src/Tests.cpp ****     t1->start();
 2337              		.loc 2 338 14 is_stmt 0 discriminator 2
 2338 0d54 13050900 		mv	a0,s2
 2339              	.LEHB27:
 2340 0d58 97000000 		call	_ZN6Thread5startEv@plt
 2340      E7800000 
 2341              	.LVL260:
 339:src/Tests.cpp **** 
 2342              		.loc 2 339 5 is_stmt 1 discriminator 2
 339:src/Tests.cpp **** 
 2343              		.loc 2 339 14 is_stmt 0 discriminator 2
 2344 0d60 13850900 		mv	a0,s3
 2345 0d64 97000000 		call	_ZN6Thread5startEv@plt
 2345      E7800000 
 2346              	.LVL261:
 341:src/Tests.cpp **** 
 2347              		.loc 2 341 5 is_stmt 1 discriminator 2
 341:src/Tests.cpp **** 
 2348              		.loc 2 341 20 is_stmt 0 discriminator 2
 2349 0d6c 97000000 		call	thread_dispatch@plt
 2349      E7800000 
 2350              	.LVL262:
 2351              	.L144:
GAS LISTING /tmp/ccVT2ggL.s 			page 63


 343:src/Tests.cpp ****     {
 2352              		.loc 2 343 5 is_stmt 1 discriminator 1
 345:src/Tests.cpp ****     }
 2353              		.loc 2 345 9 discriminator 1
 345:src/Tests.cpp ****     }
 2354              		.loc 2 345 24 is_stmt 0 discriminator 1
 2355 0d74 97000000 		call	thread_dispatch@plt
 2355      E7800000 
 2356              	.LVL263:
 2357              	.LEHE27:
 343:src/Tests.cpp ****     {
 2358              		.loc 2 343 5 is_stmt 1 discriminator 1
 2359 0d7c 6FF09FFF 		j	.L144
 2360              	.LVL264:
 2361              	.L150:
 2362 0d80 93040500 		mv	s1,a0
 333:src/Tests.cpp ****     s11 = new Semaphore(1);
 2363              		.loc 2 333 28 is_stmt 0
 2364 0d84 13050900 		mv	a0,s2
 2365 0d88 97000000 		call	_ZdlPv@plt
 2365      E7800000 
 2366              	.LVL265:
 2367 0d90 13850400 		mv	a0,s1
 2368              	.LEHB28:
 2369 0d94 97000000 		call	_Unwind_Resume@plt
 2369      E7800000 
 2370              	.LVL266:
 2371              	.LEHE28:
 2372              	.L151:
 2373 0d9c 13090500 		mv	s2,a0
 334:src/Tests.cpp ****     s22 = new Semaphore(0);
 2374              		.loc 2 334 26
 2375 0da0 13850400 		mv	a0,s1
 2376 0da4 97000000 		call	_ZdlPv@plt
 2376      E7800000 
 2377              	.LVL267:
 2378 0dac 13050900 		mv	a0,s2
 2379              	.LEHB29:
 2380 0db0 97000000 		call	_Unwind_Resume@plt
 2380      E7800000 
 2381              	.LVL268:
 2382              	.LEHE29:
 2383              	.L152:
 2384 0db8 13090500 		mv	s2,a0
 335:src/Tests.cpp ****     Thread* t1 = new Thread(&f1, 0);
 2385              		.loc 2 335 26
 2386 0dbc 13850400 		mv	a0,s1
 2387 0dc0 97000000 		call	_ZdlPv@plt
 2387      E7800000 
 2388              	.LVL269:
 2389 0dc8 13050900 		mv	a0,s2
 2390              	.LEHB30:
 2391 0dcc 97000000 		call	_Unwind_Resume@plt
 2391      E7800000 
 2392              	.LVL270:
 2393              	.LEHE30:
 2394              	.L153:
GAS LISTING /tmp/ccVT2ggL.s 			page 64


 2395 0dd4 93040500 		mv	s1,a0
 336:src/Tests.cpp ****     Thread* t2 = new Thread(&f2, 0);
 2396              		.loc 2 336 35
 2397 0dd8 13850900 		mv	a0,s3
 2398 0ddc 97000000 		call	_ZdlPv@plt
 2398      E7800000 
 2399              	.LVL271:
 2400 0de4 13850400 		mv	a0,s1
 2401              	.LEHB31:
 2402 0de8 97000000 		call	_Unwind_Resume@plt
 2402      E7800000 
 2403              	.LVL272:
 2404              	.LEHE31:
 2405              	.L154:
 2406 0df0 93040500 		mv	s1,a0
 337:src/Tests.cpp ****     t2->start();
 2407              		.loc 2 337 35
 2408 0df4 13050900 		mv	a0,s2
 2409 0df8 97000000 		call	_ZdlPv@plt
 2409      E7800000 
 2410              	.LVL273:
 2411 0e00 13850400 		mv	a0,s1
 2412              	.LEHB32:
 2413 0e04 97000000 		call	_Unwind_Resume@plt
 2413      E7800000 
 2414              	.LVL274:
 2415              	.LEHE32:
 2416              		.cfi_endproc
 2417              	.LFE41:
 2418              		.section	.gcc_except_table
 2419              	.LLSDA41:
 2420 00e6 FF       		.byte	0xff
 2421 00e7 FF       		.byte	0xff
 2422 00e8 03       		.byte	0x3
 2423 00e9 D001     		.byte	0xd0,0x1
 2424 00eb 00000000 		.4byte	.LEHB17-.LFB41
 2425 00ef 00000000 		.4byte	.LEHE17-.LEHB17
 2426 00f3 00000000 		.4byte	0
 2427 00f7 00       		.byte	0
 2428 00f8 00000000 		.4byte	.LEHB18-.LFB41
 2429 00fc 00000000 		.4byte	.LEHE18-.LEHB18
 2430 0100 00000000 		.4byte	.L150-.LFB41
 2431 0104 00       		.byte	0
 2432 0105 00000000 		.4byte	.LEHB19-.LFB41
 2433 0109 00000000 		.4byte	.LEHE19-.LEHB19
 2434 010d 00000000 		.4byte	0
 2435 0111 00       		.byte	0
 2436 0112 00000000 		.4byte	.LEHB20-.LFB41
 2437 0116 00000000 		.4byte	.LEHE20-.LEHB20
 2438 011a 00000000 		.4byte	.L151-.LFB41
 2439 011e 00       		.byte	0
 2440 011f 00000000 		.4byte	.LEHB21-.LFB41
 2441 0123 00000000 		.4byte	.LEHE21-.LEHB21
 2442 0127 00000000 		.4byte	0
 2443 012b 00       		.byte	0
 2444 012c 00000000 		.4byte	.LEHB22-.LFB41
 2445 0130 00000000 		.4byte	.LEHE22-.LEHB22
GAS LISTING /tmp/ccVT2ggL.s 			page 65


 2446 0134 00000000 		.4byte	.L152-.LFB41
 2447 0138 00       		.byte	0
 2448 0139 00000000 		.4byte	.LEHB23-.LFB41
 2449 013d 00000000 		.4byte	.LEHE23-.LEHB23
 2450 0141 00000000 		.4byte	0
 2451 0145 00       		.byte	0
 2452 0146 00000000 		.4byte	.LEHB24-.LFB41
 2453 014a 00000000 		.4byte	.LEHE24-.LEHB24
 2454 014e 00000000 		.4byte	.L153-.LFB41
 2455 0152 00       		.byte	0
 2456 0153 00000000 		.4byte	.LEHB25-.LFB41
 2457 0157 00000000 		.4byte	.LEHE25-.LEHB25
 2458 015b 00000000 		.4byte	0
 2459 015f 00       		.byte	0
 2460 0160 00000000 		.4byte	.LEHB26-.LFB41
 2461 0164 00000000 		.4byte	.LEHE26-.LEHB26
 2462 0168 00000000 		.4byte	.L154-.LFB41
 2463 016c 00       		.byte	0
 2464 016d 00000000 		.4byte	.LEHB27-.LFB41
 2465 0171 00000000 		.4byte	.LEHE27-.LEHB27
 2466 0175 00000000 		.4byte	0
 2467 0179 00       		.byte	0
 2468 017a 00000000 		.4byte	.LEHB28-.LFB41
 2469 017e 00000000 		.4byte	.LEHE28-.LEHB28
 2470 0182 00000000 		.4byte	0
 2471 0186 00       		.byte	0
 2472 0187 00000000 		.4byte	.LEHB29-.LFB41
 2473 018b 00000000 		.4byte	.LEHE29-.LEHB29
 2474 018f 00000000 		.4byte	0
 2475 0193 00       		.byte	0
 2476 0194 00000000 		.4byte	.LEHB30-.LFB41
 2477 0198 00000000 		.4byte	.LEHE30-.LEHB30
 2478 019c 00000000 		.4byte	0
 2479 01a0 00       		.byte	0
 2480 01a1 00000000 		.4byte	.LEHB31-.LFB41
 2481 01a5 00000000 		.4byte	.LEHE31-.LEHB31
 2482 01a9 00000000 		.4byte	0
 2483 01ad 00       		.byte	0
 2484 01ae 00000000 		.4byte	.LEHB32-.LFB41
 2485 01b2 00000000 		.4byte	.LEHE32-.LEHB32
 2486 01b6 00000000 		.4byte	0
 2487 01ba 00       		.byte	0
 2488              		.text
 2490              		.align	2
 2491              		.globl	_Z8semTest2v
 2493              	_Z8semTest2v:
 2494              	.LFB45:
 408:src/Tests.cpp ****     s1 = new Semaphore(1);
 2495              		.loc 2 408 1 is_stmt 1
 2496              		.cfi_startproc
 2497              		.cfi_personality 0x9b,DW.ref.__gxx_personality_v0
 2498              		.cfi_lsda 0x1b,.LLSDA45
 2499 0e0c 130101FD 		addi	sp,sp,-48
 2500              		.cfi_def_cfa_offset 48
 2501 0e10 23341102 		sd	ra,40(sp)
 2502 0e14 23308102 		sd	s0,32(sp)
 2503 0e18 233C9100 		sd	s1,24(sp)
GAS LISTING /tmp/ccVT2ggL.s 			page 66


 2504 0e1c 23382101 		sd	s2,16(sp)
 2505 0e20 23343101 		sd	s3,8(sp)
 2506              		.cfi_offset 1, -8
 2507              		.cfi_offset 8, -16
 2508              		.cfi_offset 9, -24
 2509              		.cfi_offset 18, -32
 2510              		.cfi_offset 19, -40
 2511 0e24 13040103 		addi	s0,sp,48
 2512              		.cfi_def_cfa 8, 0
 409:src/Tests.cpp ****     s2 = new Semaphore(0);
 2513              		.loc 2 409 5
 409:src/Tests.cpp ****     s2 = new Semaphore(0);
 2514              		.loc 2 409 25 is_stmt 0
 2515 0e28 13050001 		li	a0,16
 2516              	.LEHB33:
 2517 0e2c 97000000 		call	_Znwm@plt
 2517      E7800000 
 2518              	.LVL275:
 2519              	.LEHE33:
 2520 0e34 93040500 		mv	s1,a0
 2521 0e38 93051000 		li	a1,1
 2522              	.LEHB34:
 2523 0e3c 97000000 		call	_ZN9SemaphoreC1Ej@plt
 2523      E7800000 
 2524              	.LVL276:
 2525              	.LEHE34:
 409:src/Tests.cpp ****     s2 = new Semaphore(0);
 2526              		.loc 2 409 8 discriminator 2
 2527 0e44 97070000 		sd	s1,.LANCHOR0,a5
 2527      23B09700 
 410:src/Tests.cpp ****     s3 = new Semaphore(0);
 2528              		.loc 2 410 5 is_stmt 1 discriminator 2
 410:src/Tests.cpp ****     s3 = new Semaphore(0);
 2529              		.loc 2 410 25 is_stmt 0 discriminator 2
 2530 0e4c 13050001 		li	a0,16
 2531              	.LEHB35:
 2532 0e50 97000000 		call	_Znwm@plt
 2532      E7800000 
 2533              	.LVL277:
 2534              	.LEHE35:
 2535 0e58 93040500 		mv	s1,a0
 2536 0e5c 93050000 		li	a1,0
 2537              	.LEHB36:
 2538 0e60 97000000 		call	_ZN9SemaphoreC1Ej@plt
 2538      E7800000 
 2539              	.LVL278:
 2540              	.LEHE36:
 410:src/Tests.cpp ****     s3 = new Semaphore(0);
 2541              		.loc 2 410 8 discriminator 2
 2542 0e68 97070000 		sd	s1,.LANCHOR0+8,a5
 2542      23B09700 
 411:src/Tests.cpp ****     Thread* t1 = new Thread(&f1_2, 0);
 2543              		.loc 2 411 5 is_stmt 1 discriminator 2
 411:src/Tests.cpp ****     Thread* t1 = new Thread(&f1_2, 0);
 2544              		.loc 2 411 25 is_stmt 0 discriminator 2
 2545 0e70 13050001 		li	a0,16
 2546              	.LEHB37:
GAS LISTING /tmp/ccVT2ggL.s 			page 67


 2547 0e74 97000000 		call	_Znwm@plt
 2547      E7800000 
 2548              	.LVL279:
 2549              	.LEHE37:
 2550 0e7c 93040500 		mv	s1,a0
 2551 0e80 93050000 		li	a1,0
 2552              	.LEHB38:
 2553 0e84 97000000 		call	_ZN9SemaphoreC1Ej@plt
 2553      E7800000 
 2554              	.LVL280:
 2555              	.LEHE38:
 411:src/Tests.cpp ****     Thread* t1 = new Thread(&f1_2, 0);
 2556              		.loc 2 411 8 discriminator 2
 2557 0e8c 97070000 		sd	s1,.LANCHOR0+16,a5
 2557      23B09700 
 412:src/Tests.cpp ****     Thread* t2 = new Thread(&f2_2, 0);
 2558              		.loc 2 412 5 is_stmt 1 discriminator 2
 412:src/Tests.cpp ****     Thread* t2 = new Thread(&f2_2, 0);
 2559              		.loc 2 412 37 is_stmt 0 discriminator 2
 2560 0e94 13050002 		li	a0,32
 2561              	.LEHB39:
 2562 0e98 97000000 		call	_Znwm@plt
 2562      E7800000 
 2563              	.LVL281:
 2564              	.LEHE39:
 2565 0ea0 93090500 		mv	s3,a0
 2566 0ea4 13060000 		li	a2,0
 2567 0ea8 97050000 		lla	a1,_Z4f1_2Pv
 2567      93850500 
 2568              	.LEHB40:
 2569 0eb0 97000000 		call	_ZN6ThreadC1EPFvPvES0_@plt
 2569      E7800000 
 2570              	.LVL282:
 2571              	.LEHE40:
 413:src/Tests.cpp ****     Thread* t3 = new Thread(&f3_2, 0);
 2572              		.loc 2 413 5 is_stmt 1 discriminator 2
 413:src/Tests.cpp ****     Thread* t3 = new Thread(&f3_2, 0);
 2573              		.loc 2 413 37 is_stmt 0 discriminator 2
 2574 0eb8 13050002 		li	a0,32
 2575              	.LEHB41:
 2576 0ebc 97000000 		call	_Znwm@plt
 2576      E7800000 
 2577              	.LVL283:
 2578              	.LEHE41:
 2579 0ec4 13090500 		mv	s2,a0
 2580 0ec8 13060000 		li	a2,0
 2581 0ecc 97050000 		lla	a1,_Z4f2_2Pv
 2581      93850500 
 2582              	.LEHB42:
 2583 0ed4 97000000 		call	_ZN6ThreadC1EPFvPvES0_@plt
 2583      E7800000 
 2584              	.LVL284:
 2585              	.LEHE42:
 414:src/Tests.cpp ****     t3->start();
 2586              		.loc 2 414 5 is_stmt 1 discriminator 2
 414:src/Tests.cpp ****     t3->start();
 2587              		.loc 2 414 37 is_stmt 0 discriminator 2
GAS LISTING /tmp/ccVT2ggL.s 			page 68


 2588 0edc 13050002 		li	a0,32
 2589              	.LEHB43:
 2590 0ee0 97000000 		call	_Znwm@plt
 2590      E7800000 
 2591              	.LVL285:
 2592              	.LEHE43:
 2593 0ee8 93040500 		mv	s1,a0
 2594 0eec 13060000 		li	a2,0
 2595 0ef0 97050000 		lla	a1,_Z4f3_2Pv
 2595      93850500 
 2596              	.LEHB44:
 2597 0ef8 97000000 		call	_ZN6ThreadC1EPFvPvES0_@plt
 2597      E7800000 
 2598              	.LVL286:
 2599              	.LEHE44:
 415:src/Tests.cpp ****     t2->start();
 2600              		.loc 2 415 5 is_stmt 1 discriminator 2
 415:src/Tests.cpp ****     t2->start();
 2601              		.loc 2 415 14 is_stmt 0 discriminator 2
 2602 0f00 13850400 		mv	a0,s1
 2603              	.LEHB45:
 2604 0f04 97000000 		call	_ZN6Thread5startEv@plt
 2604      E7800000 
 2605              	.LVL287:
 416:src/Tests.cpp ****     t1->start();
 2606              		.loc 2 416 5 is_stmt 1 discriminator 2
 416:src/Tests.cpp ****     t1->start();
 2607              		.loc 2 416 14 is_stmt 0 discriminator 2
 2608 0f0c 13050900 		mv	a0,s2
 2609 0f10 97000000 		call	_ZN6Thread5startEv@plt
 2609      E7800000 
 2610              	.LVL288:
 417:src/Tests.cpp **** 
 2611              		.loc 2 417 5 is_stmt 1 discriminator 2
 417:src/Tests.cpp **** 
 2612              		.loc 2 417 14 is_stmt 0 discriminator 2
 2613 0f18 13850900 		mv	a0,s3
 2614 0f1c 97000000 		call	_ZN6Thread5startEv@plt
 2614      E7800000 
 2615              	.LVL289:
 419:src/Tests.cpp ****     while(true)
 2616              		.loc 2 419 5 is_stmt 1 discriminator 2
 419:src/Tests.cpp ****     while(true)
 2617              		.loc 2 419 9 is_stmt 0 discriminator 2
 2618 0f24 93040000 		li	s1,0
 2619              	.LVL290:
 2620              	.L157:
 420:src/Tests.cpp ****     {
 2621              		.loc 2 420 5 is_stmt 1
 422:src/Tests.cpp ****         thread_dispatch();
 2622              		.loc 2 422 9
 422:src/Tests.cpp ****         thread_dispatch();
 2623              		.loc 2 422 10 is_stmt 0
 2624 0f28 9B841400 		addiw	s1,s1,1
 2625              	.LVL291:
 423:src/Tests.cpp ****         if(y == 200000)
 2626              		.loc 2 423 9 is_stmt 1
GAS LISTING /tmp/ccVT2ggL.s 			page 69


 423:src/Tests.cpp ****         if(y == 200000)
 2627              		.loc 2 423 24 is_stmt 0
 2628 0f2c 97000000 		call	thread_dispatch@plt
 2628      E7800000 
 2629              	.LVL292:
 2630              	.LEHE45:
 424:src/Tests.cpp ****             break;
 2631              		.loc 2 424 9 is_stmt 1
 2632 0f34 B7170300 		li	a5,200704
 2633 0f38 938707D4 		addi	a5,a5,-704
 2634 0f3c E396F4FE 		bne	s1,a5,.L157
 428:src/Tests.cpp **** 
 2635              		.loc 2 428 1 is_stmt 0
 2636 0f40 83308102 		ld	ra,40(sp)
 2637              		.cfi_remember_state
 2638              		.cfi_restore 1
 2639 0f44 03340102 		ld	s0,32(sp)
 2640              		.cfi_restore 8
 2641              		.cfi_def_cfa 2, 48
 2642 0f48 83348101 		ld	s1,24(sp)
 2643              		.cfi_restore 9
 2644 0f4c 03390101 		ld	s2,16(sp)
 2645              		.cfi_restore 18
 2646              	.LVL293:
 2647 0f50 83398100 		ld	s3,8(sp)
 2648              		.cfi_restore 19
 2649              	.LVL294:
 2650 0f54 13010103 		addi	sp,sp,48
 2651              		.cfi_def_cfa_offset 0
 2652 0f58 67800000 		jr	ra
 2653              	.L164:
 2654              		.cfi_restore_state
 2655 0f5c 13090500 		mv	s2,a0
 409:src/Tests.cpp ****     s2 = new Semaphore(0);
 2656              		.loc 2 409 25
 2657 0f60 13850400 		mv	a0,s1
 2658 0f64 97000000 		call	_ZdlPv@plt
 2658      E7800000 
 2659              	.LVL295:
 2660 0f6c 13050900 		mv	a0,s2
 2661              	.LEHB46:
 2662 0f70 97000000 		call	_Unwind_Resume@plt
 2662      E7800000 
 2663              	.LVL296:
 2664              	.LEHE46:
 2665              	.L165:
 2666 0f78 13090500 		mv	s2,a0
 410:src/Tests.cpp ****     s3 = new Semaphore(0);
 2667              		.loc 2 410 25
 2668 0f7c 13850400 		mv	a0,s1
 2669 0f80 97000000 		call	_ZdlPv@plt
 2669      E7800000 
 2670              	.LVL297:
 2671 0f88 13050900 		mv	a0,s2
 2672              	.LEHB47:
 2673 0f8c 97000000 		call	_Unwind_Resume@plt
 2673      E7800000 
GAS LISTING /tmp/ccVT2ggL.s 			page 70


 2674              	.LVL298:
 2675              	.LEHE47:
 2676              	.L166:
 2677 0f94 13090500 		mv	s2,a0
 411:src/Tests.cpp ****     Thread* t1 = new Thread(&f1_2, 0);
 2678              		.loc 2 411 25
 2679 0f98 13850400 		mv	a0,s1
 2680 0f9c 97000000 		call	_ZdlPv@plt
 2680      E7800000 
 2681              	.LVL299:
 2682 0fa4 13050900 		mv	a0,s2
 2683              	.LEHB48:
 2684 0fa8 97000000 		call	_Unwind_Resume@plt
 2684      E7800000 
 2685              	.LVL300:
 2686              	.LEHE48:
 2687              	.L167:
 2688 0fb0 93040500 		mv	s1,a0
 412:src/Tests.cpp ****     Thread* t2 = new Thread(&f2_2, 0);
 2689              		.loc 2 412 37
 2690 0fb4 13850900 		mv	a0,s3
 2691 0fb8 97000000 		call	_ZdlPv@plt
 2691      E7800000 
 2692              	.LVL301:
 2693 0fc0 13850400 		mv	a0,s1
 2694              	.LEHB49:
 2695 0fc4 97000000 		call	_Unwind_Resume@plt
 2695      E7800000 
 2696              	.LVL302:
 2697              	.LEHE49:
 2698              	.L168:
 2699 0fcc 93040500 		mv	s1,a0
 413:src/Tests.cpp ****     Thread* t3 = new Thread(&f3_2, 0);
 2700              		.loc 2 413 37
 2701 0fd0 13050900 		mv	a0,s2
 2702 0fd4 97000000 		call	_ZdlPv@plt
 2702      E7800000 
 2703              	.LVL303:
 2704 0fdc 13850400 		mv	a0,s1
 2705              	.LEHB50:
 2706 0fe0 97000000 		call	_Unwind_Resume@plt
 2706      E7800000 
 2707              	.LVL304:
 2708              	.LEHE50:
 2709              	.L169:
 2710 0fe8 13090500 		mv	s2,a0
 2711              	.LVL305:
 414:src/Tests.cpp ****     t3->start();
 2712              		.loc 2 414 37
 2713 0fec 13850400 		mv	a0,s1
 2714 0ff0 97000000 		call	_ZdlPv@plt
 2714      E7800000 
 2715              	.LVL306:
 2716 0ff8 13050900 		mv	a0,s2
 2717              	.LEHB51:
 2718 0ffc 97000000 		call	_Unwind_Resume@plt
 2718      E7800000 
GAS LISTING /tmp/ccVT2ggL.s 			page 71


 2719              	.LVL307:
 2720              	.LEHE51:
 2721              		.cfi_endproc
 2722              	.LFE45:
 2723              		.section	.gcc_except_table
 2724              	.LLSDA45:
 2725 01bb FF       		.byte	0xff
 2726 01bc FF       		.byte	0xff
 2727 01bd 03       		.byte	0x3
 2728 01be F701     		.byte	0xf7,0x1
 2729 01c0 00000000 		.4byte	.LEHB33-.LFB45
 2730 01c4 00000000 		.4byte	.LEHE33-.LEHB33
 2731 01c8 00000000 		.4byte	0
 2732 01cc 00       		.byte	0
 2733 01cd 00000000 		.4byte	.LEHB34-.LFB45
 2734 01d1 00000000 		.4byte	.LEHE34-.LEHB34
 2735 01d5 00000000 		.4byte	.L164-.LFB45
 2736 01d9 00       		.byte	0
 2737 01da 00000000 		.4byte	.LEHB35-.LFB45
 2738 01de 00000000 		.4byte	.LEHE35-.LEHB35
 2739 01e2 00000000 		.4byte	0
 2740 01e6 00       		.byte	0
 2741 01e7 00000000 		.4byte	.LEHB36-.LFB45
 2742 01eb 00000000 		.4byte	.LEHE36-.LEHB36
 2743 01ef 00000000 		.4byte	.L165-.LFB45
 2744 01f3 00       		.byte	0
 2745 01f4 00000000 		.4byte	.LEHB37-.LFB45
 2746 01f8 00000000 		.4byte	.LEHE37-.LEHB37
 2747 01fc 00000000 		.4byte	0
 2748 0200 00       		.byte	0
 2749 0201 00000000 		.4byte	.LEHB38-.LFB45
 2750 0205 00000000 		.4byte	.LEHE38-.LEHB38
 2751 0209 00000000 		.4byte	.L166-.LFB45
 2752 020d 00       		.byte	0
 2753 020e 00000000 		.4byte	.LEHB39-.LFB45
 2754 0212 00000000 		.4byte	.LEHE39-.LEHB39
 2755 0216 00000000 		.4byte	0
 2756 021a 00       		.byte	0
 2757 021b 00000000 		.4byte	.LEHB40-.LFB45
 2758 021f 00000000 		.4byte	.LEHE40-.LEHB40
 2759 0223 00000000 		.4byte	.L167-.LFB45
 2760 0227 00       		.byte	0
 2761 0228 00000000 		.4byte	.LEHB41-.LFB45
 2762 022c 00000000 		.4byte	.LEHE41-.LEHB41
 2763 0230 00000000 		.4byte	0
 2764 0234 00       		.byte	0
 2765 0235 00000000 		.4byte	.LEHB42-.LFB45
 2766 0239 00000000 		.4byte	.LEHE42-.LEHB42
 2767 023d 00000000 		.4byte	.L168-.LFB45
 2768 0241 00       		.byte	0
 2769 0242 00000000 		.4byte	.LEHB43-.LFB45
 2770 0246 00000000 		.4byte	.LEHE43-.LEHB43
 2771 024a 00000000 		.4byte	0
 2772 024e 00       		.byte	0
 2773 024f 00000000 		.4byte	.LEHB44-.LFB45
 2774 0253 00000000 		.4byte	.LEHE44-.LEHB44
 2775 0257 00000000 		.4byte	.L169-.LFB45
GAS LISTING /tmp/ccVT2ggL.s 			page 72


 2776 025b 00       		.byte	0
 2777 025c 00000000 		.4byte	.LEHB45-.LFB45
 2778 0260 00000000 		.4byte	.LEHE45-.LEHB45
 2779 0264 00000000 		.4byte	0
 2780 0268 00       		.byte	0
 2781 0269 00000000 		.4byte	.LEHB46-.LFB45
 2782 026d 00000000 		.4byte	.LEHE46-.LEHB46
 2783 0271 00000000 		.4byte	0
 2784 0275 00       		.byte	0
 2785 0276 00000000 		.4byte	.LEHB47-.LFB45
 2786 027a 00000000 		.4byte	.LEHE47-.LEHB47
 2787 027e 00000000 		.4byte	0
 2788 0282 00       		.byte	0
 2789 0283 00000000 		.4byte	.LEHB48-.LFB45
 2790 0287 00000000 		.4byte	.LEHE48-.LEHB48
 2791 028b 00000000 		.4byte	0
 2792 028f 00       		.byte	0
 2793 0290 00000000 		.4byte	.LEHB49-.LFB45
 2794 0294 00000000 		.4byte	.LEHE49-.LEHB49
 2795 0298 00000000 		.4byte	0
 2796 029c 00       		.byte	0
 2797 029d 00000000 		.4byte	.LEHB50-.LFB45
 2798 02a1 00000000 		.4byte	.LEHE50-.LEHB50
 2799 02a5 00000000 		.4byte	0
 2800 02a9 00       		.byte	0
 2801 02aa 00000000 		.4byte	.LEHB51-.LFB45
 2802 02ae 00000000 		.4byte	.LEHE51-.LEHB51
 2803 02b2 00000000 		.4byte	0
 2804 02b6 00       		.byte	0
 2805              		.text
 2807              		.align	2
 2808              		.globl	_Z14semaphoreTestsv
 2810              	_Z14semaphoreTestsv:
 2811              	.LFB46:
 431:src/Tests.cpp ****     semTest1();
 2812              		.loc 2 431 1 is_stmt 1
 2813              		.cfi_startproc
 2814 1004 130101FF 		addi	sp,sp,-16
 2815              		.cfi_def_cfa_offset 16
 2816 1008 23341100 		sd	ra,8(sp)
 2817 100c 23308100 		sd	s0,0(sp)
 2818              		.cfi_offset 1, -8
 2819              		.cfi_offset 8, -16
 2820 1010 13040101 		addi	s0,sp,16
 2821              		.cfi_def_cfa 8, 0
 432:src/Tests.cpp ****     //semTest2();
 2822              		.loc 2 432 5
 432:src/Tests.cpp ****     //semTest2();
 2823              		.loc 2 432 13 is_stmt 0
 2824 1014 97000000 		call	_Z8semTest1v
 2824      E7800000 
 2825              	.LVL308:
 2826              		.cfi_endproc
 2827              	.LFE46:
 2829              		.align	2
 2830              		.globl	_ZN12TestPeriodicC2Em
 2832              	_ZN12TestPeriodicC2Em:
GAS LISTING /tmp/ccVT2ggL.s 			page 73


 2833              	.LFB53:
 444:src/Tests.cpp **** 
 2834              		.loc 2 444 1 is_stmt 1
 2835              		.cfi_startproc
 2836              	.LVL309:
 2837 101c 130101FE 		addi	sp,sp,-32
 2838              		.cfi_def_cfa_offset 32
 2839 1020 233C1100 		sd	ra,24(sp)
 2840 1024 23388100 		sd	s0,16(sp)
 2841 1028 23349100 		sd	s1,8(sp)
 2842              		.cfi_offset 1, -8
 2843              		.cfi_offset 8, -16
 2844              		.cfi_offset 9, -24
 2845 102c 13040102 		addi	s0,sp,32
 2846              		.cfi_def_cfa 8, 0
 2847 1030 93040500 		mv	s1,a0
 2848              	.LBB64:
 444:src/Tests.cpp **** 
 2849              		.loc 2 444 62 is_stmt 0
 2850 1034 97000000 		call	_ZN14PeriodicThreadC2Em@plt
 2850      E7800000 
 2851              	.LVL310:
 2852 103c 97070000 		lla	a5,_ZTV12TestPeriodic+16
 2852      93870700 
 2853 1044 23B0F400 		sd	a5,0(s1)
 2854              	.LBE64:
 446:src/Tests.cpp **** 
 2855              		.loc 2 446 1
 2856 1048 83308101 		ld	ra,24(sp)
 2857              		.cfi_restore 1
 2858 104c 03340101 		ld	s0,16(sp)
 2859              		.cfi_restore 8
 2860              		.cfi_def_cfa 2, 32
 2861 1050 83348100 		ld	s1,8(sp)
 2862              		.cfi_restore 9
 2863              	.LVL311:
 2864 1054 13010102 		addi	sp,sp,32
 2865              		.cfi_def_cfa_offset 0
 2866 1058 67800000 		jr	ra
 2867              		.cfi_endproc
 2868              	.LFE53:
 2870              		.globl	_ZN12TestPeriodicC1Em
 2871              		.set	_ZN12TestPeriodicC1Em,_ZN12TestPeriodicC2Em
 2872              		.align	2
 2873              		.globl	_Z11threadTest3v
 2875              	_Z11threadTest3v:
 2876              	.LFB29:
  98:src/Tests.cpp ****     Thread* t = new TestPeriodic(50);
 2877              		.loc 2 98 1 is_stmt 1
 2878              		.cfi_startproc
 2879              		.cfi_personality 0x9b,DW.ref.__gxx_personality_v0
 2880              		.cfi_lsda 0x1b,.LLSDA29
 2881 105c 130101FE 		addi	sp,sp,-32
 2882              		.cfi_def_cfa_offset 32
 2883 1060 233C1100 		sd	ra,24(sp)
 2884 1064 23388100 		sd	s0,16(sp)
 2885 1068 23349100 		sd	s1,8(sp)
GAS LISTING /tmp/ccVT2ggL.s 			page 74


 2886 106c 23302101 		sd	s2,0(sp)
 2887              		.cfi_offset 1, -8
 2888              		.cfi_offset 8, -16
 2889              		.cfi_offset 9, -24
 2890              		.cfi_offset 18, -32
 2891 1070 13040102 		addi	s0,sp,32
 2892              		.cfi_def_cfa 8, 0
  99:src/Tests.cpp ****     t->start();
 2893              		.loc 2 99 5
  99:src/Tests.cpp ****     t->start();
 2894              		.loc 2 99 36 is_stmt 0
 2895 1074 13058002 		li	a0,40
 2896              	.LEHB52:
 2897 1078 97000000 		call	_Znwm@plt
 2897      E7800000 
 2898              	.LVL312:
 2899              	.LEHE52:
 2900 1080 13090500 		mv	s2,a0
 2901 1084 93052003 		li	a1,50
 2902              	.LEHB53:
 2903 1088 97000000 		call	_ZN12TestPeriodicC1Em
 2903      E7800000 
 2904              	.LVL313:
 2905              	.LEHE53:
 100:src/Tests.cpp ****     while(true)
 2906              		.loc 2 100 5 is_stmt 1 discriminator 2
 100:src/Tests.cpp ****     while(true)
 2907              		.loc 2 100 13 is_stmt 0 discriminator 2
 2908 1090 13050900 		mv	a0,s2
 2909              	.LEHB54:
 2910 1094 97000000 		call	_ZN6Thread5startEv@plt
 2910      E7800000 
 2911              	.LVL314:
 2912              	.LEHE54:
 2913              	.L177:
 101:src/Tests.cpp ****     {
 2914              		.loc 2 101 5 is_stmt 1 discriminator 1
 101:src/Tests.cpp ****     {
 2915              		.loc 2 101 5 discriminator 1
 2916 109c 6F000000 		j	.L177
 2917              	.LVL315:
 2918              	.L179:
 2919 10a0 93040500 		mv	s1,a0
  99:src/Tests.cpp ****     t->start();
 2920              		.loc 2 99 36 is_stmt 0
 2921 10a4 13050900 		mv	a0,s2
 2922 10a8 97000000 		call	_ZdlPv@plt
 2922      E7800000 
 2923              	.LVL316:
 2924 10b0 13850400 		mv	a0,s1
 2925              	.LEHB55:
 2926 10b4 97000000 		call	_Unwind_Resume@plt
 2926      E7800000 
 2927              	.LVL317:
 2928              	.LEHE55:
 2929              		.cfi_endproc
 2930              	.LFE29:
GAS LISTING /tmp/ccVT2ggL.s 			page 75


 2931              		.section	.gcc_except_table
 2932              	.LLSDA29:
 2933 02b7 FF       		.byte	0xff
 2934 02b8 FF       		.byte	0xff
 2935 02b9 03       		.byte	0x3
 2936 02ba 34       		.byte	0x34
 2937 02bb 00000000 		.4byte	.LEHB52-.LFB29
 2938 02bf 00000000 		.4byte	.LEHE52-.LEHB52
 2939 02c3 00000000 		.4byte	0
 2940 02c7 00       		.byte	0
 2941 02c8 00000000 		.4byte	.LEHB53-.LFB29
 2942 02cc 00000000 		.4byte	.LEHE53-.LEHB53
 2943 02d0 00000000 		.4byte	.L179-.LFB29
 2944 02d4 00       		.byte	0
 2945 02d5 00000000 		.4byte	.LEHB54-.LFB29
 2946 02d9 00000000 		.4byte	.LEHE54-.LEHB54
 2947 02dd 00000000 		.4byte	0
 2948 02e1 00       		.byte	0
 2949 02e2 00000000 		.4byte	.LEHB55-.LFB29
 2950 02e6 00000000 		.4byte	.LEHE55-.LEHB55
 2951 02ea 00000000 		.4byte	0
 2952 02ee 00       		.byte	0
 2953              		.text
 2955              		.align	2
 2956              		.globl	_Z11threadTestsv
 2958              	_Z11threadTestsv:
 2959              	.LFB30:
 108:src/Tests.cpp ****     //threadTest1();
 2960              		.loc 2 108 1 is_stmt 1
 2961              		.cfi_startproc
 2962 10bc 130101FF 		addi	sp,sp,-16
 2963              		.cfi_def_cfa_offset 16
 2964 10c0 23341100 		sd	ra,8(sp)
 2965 10c4 23308100 		sd	s0,0(sp)
 2966              		.cfi_offset 1, -8
 2967              		.cfi_offset 8, -16
 2968 10c8 13040101 		addi	s0,sp,16
 2969              		.cfi_def_cfa 8, 0
 111:src/Tests.cpp **** }
 2970              		.loc 2 111 5
 111:src/Tests.cpp **** }
 2971              		.loc 2 111 16 is_stmt 0
 2972 10cc 97000000 		call	_Z11threadTest3v
 2972      E7800000 
 2973              	.LVL318:
 2974              		.cfi_endproc
 2975              	.LFE30:
 2977              		.section	.rodata.str1.8
 2978 013c 00000000 		.align	3
 2979              	.LC22:
 2980 0140 54657374 		.string	"Testing a few mallocs and frees\n\n"
 2980      696E6720 
 2980      61206665 
 2980      77206D61 
 2980      6C6C6F63 
 2981 0162 00000000 		.align	3
 2981      0000
GAS LISTING /tmp/ccVT2ggL.s 			page 76


 2982              	.LC23:
 2983 0168 53554343 		.string	"SUCCESSFUL: Testing a few mallocs and frees\n\n"
 2983      45535346 
 2983      554C3A20 
 2983      54657374 
 2983      696E6720 
 2984              		.text
 2985              		.align	2
 2986              		.globl	_Z10mallocTestv
 2988              	_Z10mallocTestv:
 2989              	.LFB56:
 456:src/Tests.cpp **** 
 457:src/Tests.cpp **** void mallocTest(){
 2990              		.loc 2 457 18 is_stmt 1
 2991              		.cfi_startproc
 2992 10d4 130101FC 		addi	sp,sp,-64
 2993              		.cfi_def_cfa_offset 64
 2994 10d8 233C1102 		sd	ra,56(sp)
 2995 10dc 23388102 		sd	s0,48(sp)
 2996 10e0 23349102 		sd	s1,40(sp)
 2997 10e4 23302103 		sd	s2,32(sp)
 2998 10e8 233C3101 		sd	s3,24(sp)
 2999 10ec 23384101 		sd	s4,16(sp)
 3000 10f0 23345101 		sd	s5,8(sp)
 3001 10f4 23306101 		sd	s6,0(sp)
 3002              		.cfi_offset 1, -8
 3003              		.cfi_offset 8, -16
 3004              		.cfi_offset 9, -24
 3005              		.cfi_offset 18, -32
 3006              		.cfi_offset 19, -40
 3007              		.cfi_offset 20, -48
 3008              		.cfi_offset 21, -56
 3009              		.cfi_offset 22, -64
 3010 10f8 13040104 		addi	s0,sp,64
 3011              		.cfi_def_cfa 8, 0
 458:src/Tests.cpp ****     Riscv::printString("Testing a few mallocs and frees\n\n");
 3012              		.loc 2 458 5
 3013              		.loc 2 458 23 is_stmt 0
 3014 10fc 17050000 		lla	a0,.LC22
 3014      13050500 
 3015 1104 97000000 		call	_ZN5Riscv11printStringEPKc@plt
 3015      E7800000 
 3016              	.LVL319:
 459:src/Tests.cpp **** 
 460:src/Tests.cpp ****     object* o = new object;
 3017              		.loc 2 460 5 is_stmt 1
 3018              		.loc 2 460 21 is_stmt 0
 3019 110c 1305C002 		li	a0,44
 3020 1110 97000000 		call	_Znwm@plt
 3020      E7800000 
 3021              	.LVL320:
 3022 1118 93040500 		mv	s1,a0
 3023              	.LVL321:
 461:src/Tests.cpp ****     o->a = 3;
 3024              		.loc 2 461 5 is_stmt 1
 3025              		.loc 2 461 10 is_stmt 0
 3026 111c 93073000 		li	a5,3
GAS LISTING /tmp/ccVT2ggL.s 			page 77


 3027 1120 2320F500 		sw	a5,0(a0)
 462:src/Tests.cpp ****     void* m1 = mem_alloc(10);
 3028              		.loc 2 462 5 is_stmt 1
 3029              		.loc 2 462 25 is_stmt 0
 3030 1124 1305A000 		li	a0,10
 3031 1128 97000000 		call	mem_alloc@plt
 3031      E7800000 
 3032              	.LVL322:
 3033 1130 13090500 		mv	s2,a0
 3034              	.LVL323:
 463:src/Tests.cpp ****     void* m2 = mem_alloc(100);
 3035              		.loc 2 463 5 is_stmt 1
 3036              		.loc 2 463 25 is_stmt 0
 3037 1134 13054006 		li	a0,100
 3038              	.LVL324:
 3039 1138 97000000 		call	mem_alloc@plt
 3039      E7800000 
 3040              	.LVL325:
 3041 1140 93090500 		mv	s3,a0
 3042              	.LVL326:
 464:src/Tests.cpp ****     void* m3 = mem_alloc(1000);
 3043              		.loc 2 464 5 is_stmt 1
 3044              		.loc 2 464 25 is_stmt 0
 3045 1144 1305803E 		li	a0,1000
 3046              	.LVL327:
 3047 1148 97000000 		call	mem_alloc@plt
 3047      E7800000 
 3048              	.LVL328:
 3049 1150 130A0500 		mv	s4,a0
 3050              	.LVL329:
 465:src/Tests.cpp ****     void* m4 = mem_alloc(10000);
 3051              		.loc 2 465 5 is_stmt 1
 3052              		.loc 2 465 25 is_stmt 0
 3053 1154 37250000 		li	a0,8192
 3054              	.LVL330:
 3055 1158 13050571 		addi	a0,a0,1808
 3056 115c 97000000 		call	mem_alloc@plt
 3056      E7800000 
 3057              	.LVL331:
 3058 1164 930A0500 		mv	s5,a0
 3059              	.LVL332:
 466:src/Tests.cpp ****     void* m5 = mem_alloc(1);
 3060              		.loc 2 466 5 is_stmt 1
 3061              		.loc 2 466 25 is_stmt 0
 3062 1168 13051000 		li	a0,1
 3063              	.LVL333:
 3064 116c 97000000 		call	mem_alloc@plt
 3064      E7800000 
 3065              	.LVL334:
 467:src/Tests.cpp **** 
 468:src/Tests.cpp ****     if(!m1 || !m2 || !m3 || !m4 || !m5){
 3066              		.loc 2 468 5 is_stmt 1
 3067 1174 630C0906 		beqz	s2,.L184
 3068 1178 130B0500 		mv	s6,a0
 3069              		.loc 2 468 12 is_stmt 0 discriminator 1
 3070 117c 63880906 		beqz	s3,.L184
 3071              		.loc 2 468 19 discriminator 2
GAS LISTING /tmp/ccVT2ggL.s 			page 78


 3072 1180 63060A06 		beqz	s4,.L184
 3073              		.loc 2 468 26 discriminator 3
 3074 1184 63840A06 		beqz	s5,.L184
 3075              		.loc 2 468 33 discriminator 4
 3076 1188 63020506 		beqz	a0,.L184
 469:src/Tests.cpp ****         Riscv::printString("not OK\n");
 470:src/Tests.cpp ****         return;
 471:src/Tests.cpp ****     }
 472:src/Tests.cpp **** 
 473:src/Tests.cpp ****     delete (uint64*)m1;
 3077              		.loc 2 473 5 is_stmt 1 discriminator 1
 3078              		.loc 2 473 21 is_stmt 0 discriminator 1
 3079 118c 13050900 		mv	a0,s2
 3080              	.LVL335:
 3081 1190 97000000 		call	_ZdlPv@plt
 3081      E7800000 
 3082              	.LVL336:
 474:src/Tests.cpp ****     delete (uint64*)m3;
 3083              		.loc 2 474 5 is_stmt 1 discriminator 1
 3084              		.loc 2 474 21 is_stmt 0 discriminator 1
 3085 1198 13050A00 		mv	a0,s4
 3086 119c 97000000 		call	_ZdlPv@plt
 3086      E7800000 
 3087              	.LVL337:
 475:src/Tests.cpp ****     delete (uint64*)m4;
 3088              		.loc 2 475 5 is_stmt 1 discriminator 1
 3089              		.loc 2 475 21 is_stmt 0 discriminator 1
 3090 11a4 13850A00 		mv	a0,s5
 3091 11a8 97000000 		call	_ZdlPv@plt
 3091      E7800000 
 3092              	.LVL338:
 476:src/Tests.cpp ****     delete (uint64*)m2;
 3093              		.loc 2 476 5 is_stmt 1 discriminator 1
 3094              		.loc 2 476 21 is_stmt 0 discriminator 1
 3095 11b0 13850900 		mv	a0,s3
 3096 11b4 97000000 		call	_ZdlPv@plt
 3096      E7800000 
 3097              	.LVL339:
 477:src/Tests.cpp ****     delete (uint64*)m5;
 3098              		.loc 2 477 5 is_stmt 1 discriminator 1
 3099              		.loc 2 477 21 is_stmt 0 discriminator 1
 3100 11bc 13050B00 		mv	a0,s6
 3101 11c0 97000000 		call	_ZdlPv@plt
 3101      E7800000 
 3102              	.LVL340:
 478:src/Tests.cpp ****     delete o;
 3103              		.loc 2 478 5 is_stmt 1 discriminator 1
 3104              		.loc 2 478 13 is_stmt 0 discriminator 1
 3105 11c8 63880400 		beqz	s1,.L187
 3106              		.loc 2 478 12 discriminator 1
 3107 11cc 13850400 		mv	a0,s1
 3108 11d0 97000000 		call	_ZdlPv@plt
 3108      E7800000 
 3109              	.LVL341:
 3110              	.L187:
 479:src/Tests.cpp **** 
 480:src/Tests.cpp ****     Riscv::printString("SUCCESSFUL: Testing a few mallocs and frees\n\n");
GAS LISTING /tmp/ccVT2ggL.s 			page 79


 3111              		.loc 2 480 5 is_stmt 1
 3112              		.loc 2 480 23 is_stmt 0
 3113 11d8 17050000 		lla	a0,.LC23
 3113      13050500 
 3114 11e0 97000000 		call	_ZN5Riscv11printStringEPKc@plt
 3114      E7800000 
 3115              	.LVL342:
 3116 11e8 6F004001 		j	.L183
 3117              	.LVL343:
 3118              	.L184:
 469:src/Tests.cpp ****         return;
 3119              		.loc 2 469 9 is_stmt 1
 469:src/Tests.cpp ****         return;
 3120              		.loc 2 469 27 is_stmt 0
 3121 11ec 17050000 		lla	a0,.LC12
 3121      13050500 
 3122              	.LVL344:
 3123 11f4 97000000 		call	_ZN5Riscv11printStringEPKc@plt
 3123      E7800000 
 3124              	.LVL345:
 470:src/Tests.cpp ****     }
 3125              		.loc 2 470 9 is_stmt 1
 3126              	.L183:
 481:src/Tests.cpp **** }
 3127              		.loc 2 481 1 is_stmt 0
 3128 11fc 83308103 		ld	ra,56(sp)
 3129              		.cfi_restore 1
 3130 1200 03340103 		ld	s0,48(sp)
 3131              		.cfi_restore 8
 3132              		.cfi_def_cfa 2, 64
 3133 1204 83348102 		ld	s1,40(sp)
 3134              		.cfi_restore 9
 3135              	.LVL346:
 3136 1208 03390102 		ld	s2,32(sp)
 3137              		.cfi_restore 18
 3138              	.LVL347:
 3139 120c 83398101 		ld	s3,24(sp)
 3140              		.cfi_restore 19
 3141              	.LVL348:
 3142 1210 033A0101 		ld	s4,16(sp)
 3143              		.cfi_restore 20
 3144              	.LVL349:
 3145 1214 833A8100 		ld	s5,8(sp)
 3146              		.cfi_restore 21
 3147              	.LVL350:
 3148 1218 033B0100 		ld	s6,0(sp)
 3149              		.cfi_restore 22
 3150 121c 13010104 		addi	sp,sp,64
 3151              		.cfi_def_cfa_offset 0
 3152 1220 67800000 		jr	ra
 3153              		.cfi_endproc
 3154              	.LFE56:
 3156              		.section	.rodata.str1.8
 3157 0196 0000     		.align	3
 3158              	.LC24:
 3159 0198 54657374 		.string	"Testing allocating whole address space\n\n"
 3159      696E6720 
GAS LISTING /tmp/ccVT2ggL.s 			page 80


 3159      616C6C6F 
 3159      63617469 
 3159      6E672077 
 3160 01c1 00000000 		.align	3
 3160      000000
 3161              	.LC25:
 3162 01c8 53554343 		.string	"SUCCESSFUL: Testing allocating whole address space\n\n"
 3162      45535346 
 3162      554C3A20 
 3162      54657374 
 3162      696E6720 
 3163              		.text
 3164              		.align	2
 3165              		.globl	_Z16mallocEverythingv
 3167              	_Z16mallocEverythingv:
 3168              	.LFB57:
 482:src/Tests.cpp **** 
 483:src/Tests.cpp **** void mallocEverything()
 484:src/Tests.cpp **** {
 3169              		.loc 2 484 1 is_stmt 1
 3170              		.cfi_startproc
 3171 1224 130101FE 		addi	sp,sp,-32
 3172              		.cfi_def_cfa_offset 32
 3173 1228 233C1100 		sd	ra,24(sp)
 3174 122c 23388100 		sd	s0,16(sp)
 3175 1230 23349100 		sd	s1,8(sp)
 3176              		.cfi_offset 1, -8
 3177              		.cfi_offset 8, -16
 3178              		.cfi_offset 9, -24
 3179 1234 13040102 		addi	s0,sp,32
 3180              		.cfi_def_cfa 8, 0
 485:src/Tests.cpp ****     Riscv::printString("Testing allocating whole address space\n\n");
 3181              		.loc 2 485 5
 3182              		.loc 2 485 23 is_stmt 0
 3183 1238 17050000 		lla	a0,.LC24
 3183      13050500 
 3184 1240 97000000 		call	_ZN5Riscv11printStringEPKc@plt
 3184      E7800000 
 3185              	.LVL351:
 486:src/Tests.cpp **** 
 487:src/Tests.cpp ****     uint64 neg_size = (uint64)HEAP_START_ADDR - (uint64)HEAP_END_ADDR -sizeof(MemoryAllocator::Bloc
 3186              		.loc 2 487 5 is_stmt 1
 3187              		.loc 2 487 47 is_stmt 0
 3188 1248 97070000 		la	a5,HEAP_START_ADDR
 3188      83B70700 
 3189 1250 03B50700 		ld	a0,0(a5)
 3190 1254 97070000 		la	a5,HEAP_END_ADDR
 3190      83B70700 
 3191 125c 83B70700 		ld	a5,0(a5)
 3192 1260 3305F540 		sub	a0,a0,a5
 3193              	.LVL352:
 488:src/Tests.cpp **** 
 489:src/Tests.cpp ****     void* m = mem_alloc(neg_size);
 3194              		.loc 2 489 5 is_stmt 1
 3195              		.loc 2 489 24 is_stmt 0
 3196 1264 130505FF 		addi	a0,a0,-16
 3197              	.LVL353:
GAS LISTING /tmp/ccVT2ggL.s 			page 81


 3198 1268 97000000 		call	mem_alloc@plt
 3198      E7800000 
 3199              	.LVL354:
 490:src/Tests.cpp **** 
 491:src/Tests.cpp ****     if(m!=nullptr){
 3200              		.loc 2 491 5 is_stmt 1
 3201 1270 63040502 		beqz	a0,.L190
 492:src/Tests.cpp ****         Riscv::printString("not OK\n");
 3202              		.loc 2 492 9
 3203              		.loc 2 492 27 is_stmt 0
 3204 1274 17050000 		lla	a0,.LC12
 3204      13050500 
 3205              	.LVL355:
 3206 127c 97000000 		call	_ZN5Riscv11printStringEPKc@plt
 3206      E7800000 
 3207              	.LVL356:
 493:src/Tests.cpp ****         return;
 3208              		.loc 2 493 9 is_stmt 1
 3209              	.L189:
 494:src/Tests.cpp ****     }
 495:src/Tests.cpp **** 
 496:src/Tests.cpp ****     uint64 blockSize = (((uint64)HEAP_END_ADDR - (uint64)HEAP_START_ADDR - sizeof(MemoryAllocator::
 497:src/Tests.cpp **** 
 498:src/Tests.cpp ****     m = mem_alloc(blockSize<<6);
 499:src/Tests.cpp **** 
 500:src/Tests.cpp ****     if(m==nullptr){
 501:src/Tests.cpp ****         Riscv::printString("not OK\n");
 502:src/Tests.cpp ****         return;
 503:src/Tests.cpp ****     }
 504:src/Tests.cpp **** 
 505:src/Tests.cpp **** //    there should be some space left still, depending on source file size and output buffer size
 506:src/Tests.cpp **** //    excess allocation should fail and small_chunk should succeed
 507:src/Tests.cpp **** 
 508:src/Tests.cpp **** //    void *excess = mem_alloc(100);
 509:src/Tests.cpp **** //
 510:src/Tests.cpp **** //    if(excess!=nullptr){
 511:src/Tests.cpp **** //        Riscv::printString("not OK\n");
 512:src/Tests.cpp **** //        return;
 513:src/Tests.cpp **** //    }
 514:src/Tests.cpp **** //
 515:src/Tests.cpp ****     void *small_chunk = mem_alloc(1);
 516:src/Tests.cpp **** 
 517:src/Tests.cpp ****     if(small_chunk == nullptr){
 518:src/Tests.cpp ****         Riscv::printString("not OK\n");
 519:src/Tests.cpp ****         return;
 520:src/Tests.cpp ****     }
 521:src/Tests.cpp **** 
 522:src/Tests.cpp ****     delete (uint64*)m;
 523:src/Tests.cpp ****     //delete (uint64*)small_chunk;
 524:src/Tests.cpp **** 
 525:src/Tests.cpp ****     Riscv::printString("SUCCESSFUL: Testing allocating whole address space\n\n");
 526:src/Tests.cpp **** }
 3210              		.loc 2 526 1 is_stmt 0
 3211 1284 83308101 		ld	ra,24(sp)
 3212              		.cfi_remember_state
 3213              		.cfi_restore 1
 3214 1288 03340101 		ld	s0,16(sp)
GAS LISTING /tmp/ccVT2ggL.s 			page 82


 3215              		.cfi_restore 8
 3216              		.cfi_def_cfa 2, 32
 3217 128c 83348100 		ld	s1,8(sp)
 3218              		.cfi_restore 9
 3219 1290 13010102 		addi	sp,sp,32
 3220              		.cfi_def_cfa_offset 0
 3221 1294 67800000 		jr	ra
 3222              	.LVL357:
 3223              	.L190:
 3224              		.cfi_restore_state
 496:src/Tests.cpp **** 
 3225              		.loc 2 496 5 is_stmt 1
 496:src/Tests.cpp **** 
 3226              		.loc 2 496 48 is_stmt 0
 3227 1298 97070000 		la	a5,HEAP_END_ADDR
 3227      83B70700 
 3228 12a0 03B50700 		ld	a0,0(a5)
 3229              	.LVL358:
 3230 12a4 97070000 		la	a5,HEAP_START_ADDR
 3230      83B70700 
 3231 12ac 83B70700 		ld	a5,0(a5)
 3232 12b0 3305F540 		sub	a0,a0,a5
 496:src/Tests.cpp **** 
 3233              		.loc 2 496 74
 3234 12b4 130505FF 		addi	a0,a0,-16
 496:src/Tests.cpp **** 
 3235              		.loc 2 496 113
 3236 12b8 13556500 		srli	a0,a0,6
 496:src/Tests.cpp **** 
 3237              		.loc 2 496 12
 3238 12bc 130545ED 		addi	a0,a0,-300
 3239              	.LVL359:
 498:src/Tests.cpp **** 
 3240              		.loc 2 498 5 is_stmt 1
 498:src/Tests.cpp **** 
 3241              		.loc 2 498 18 is_stmt 0
 3242 12c0 13156500 		slli	a0,a0,6
 3243              	.LVL360:
 3244 12c4 97000000 		call	mem_alloc@plt
 3244      E7800000 
 3245              	.LVL361:
 3246 12cc 93040500 		mv	s1,a0
 3247              	.LVL362:
 500:src/Tests.cpp ****         Riscv::printString("not OK\n");
 3248              		.loc 2 500 5 is_stmt 1
 3249 12d0 630A0502 		beqz	a0,.L195
 515:src/Tests.cpp **** 
 3250              		.loc 2 515 5
 515:src/Tests.cpp **** 
 3251              		.loc 2 515 34 is_stmt 0
 3252 12d4 13051000 		li	a0,1
 3253 12d8 97000000 		call	mem_alloc@plt
 3253      E7800000 
 3254              	.LVL363:
 517:src/Tests.cpp ****         Riscv::printString("not OK\n");
 3255              		.loc 2 517 5 is_stmt 1
 3256 12e0 630C0502 		beqz	a0,.L196
GAS LISTING /tmp/ccVT2ggL.s 			page 83


 522:src/Tests.cpp ****     //delete (uint64*)small_chunk;
 3257              		.loc 2 522 5 discriminator 1
 522:src/Tests.cpp ****     //delete (uint64*)small_chunk;
 3258              		.loc 2 522 21 is_stmt 0 discriminator 1
 3259 12e4 13850400 		mv	a0,s1
 3260              	.LVL364:
 3261 12e8 97000000 		call	_ZdlPv@plt
 3261      E7800000 
 3262              	.LVL365:
 525:src/Tests.cpp **** }
 3263              		.loc 2 525 5 is_stmt 1 discriminator 1
 525:src/Tests.cpp **** }
 3264              		.loc 2 525 23 is_stmt 0 discriminator 1
 3265 12f0 17050000 		lla	a0,.LC25
 3265      13050500 
 3266 12f8 97000000 		call	_ZN5Riscv11printStringEPKc@plt
 3266      E7800000 
 3267              	.LVL366:
 3268 1300 6FF05FF8 		j	.L189
 3269              	.L195:
 501:src/Tests.cpp ****         return;
 3270              		.loc 2 501 9 is_stmt 1
 501:src/Tests.cpp ****         return;
 3271              		.loc 2 501 27 is_stmt 0
 3272 1304 17050000 		lla	a0,.LC12
 3272      13050500 
 3273 130c 97000000 		call	_ZN5Riscv11printStringEPKc@plt
 3273      E7800000 
 3274              	.LVL367:
 502:src/Tests.cpp ****     }
 3275              		.loc 2 502 9 is_stmt 1
 3276 1314 6FF01FF7 		j	.L189
 3277              	.LVL368:
 3278              	.L196:
 518:src/Tests.cpp ****         return;
 3279              		.loc 2 518 9
 518:src/Tests.cpp ****         return;
 3280              		.loc 2 518 27 is_stmt 0
 3281 1318 17050000 		lla	a0,.LC12
 3281      13050500 
 3282              	.LVL369:
 3283 1320 97000000 		call	_ZN5Riscv11printStringEPKc@plt
 3283      E7800000 
 3284              	.LVL370:
 519:src/Tests.cpp ****     }
 3285              		.loc 2 519 9 is_stmt 1
 3286 1328 6FF0DFF5 		j	.L189
 3287              		.cfi_endproc
 3288              	.LFE57:
 3290              		.section	.rodata.str1.8
 3291 01fd 000000   		.align	3
 3292              	.LC26:
 3293 0200 54657374 		.string	"Testing gap filling and chunk merge after multiple mallocs and frees\n\n"
 3293      696E6720 
 3293      67617020 
 3293      66696C6C 
 3293      696E6720 
GAS LISTING /tmp/ccVT2ggL.s 			page 84


 3294 0247 00       		.align	3
 3295              	.LC27:
 3296 0248 53554343 		.string	"SUCCESSFUL: Testing gap filling and chunk merge after multiple mallocs and frees\n\n"
 3296      45535346 
 3296      554C3A20 
 3296      54657374 
 3296      696E6720 
 3297              		.text
 3298              		.align	2
 3299              		.globl	_Z17mallocGapFillTestv
 3301              	_Z17mallocGapFillTestv:
 3302              	.LFB58:
 527:src/Tests.cpp **** 
 528:src/Tests.cpp **** void mallocGapFillTest()
 529:src/Tests.cpp **** {
 3303              		.loc 2 529 1
 3304              		.cfi_startproc
 3305 132c 130101F6 		addi	sp,sp,-160
 3306              		.cfi_def_cfa_offset 160
 3307 1330 233C1108 		sd	ra,152(sp)
 3308 1334 23388108 		sd	s0,144(sp)
 3309 1338 23349108 		sd	s1,136(sp)
 3310 133c 23302109 		sd	s2,128(sp)
 3311 1340 233C3107 		sd	s3,120(sp)
 3312 1344 23384107 		sd	s4,112(sp)
 3313 1348 23345107 		sd	s5,104(sp)
 3314 134c 23306107 		sd	s6,96(sp)
 3315 1350 233C7105 		sd	s7,88(sp)
 3316 1354 23388105 		sd	s8,80(sp)
 3317              		.cfi_offset 1, -8
 3318              		.cfi_offset 8, -16
 3319              		.cfi_offset 9, -24
 3320              		.cfi_offset 18, -32
 3321              		.cfi_offset 19, -40
 3322              		.cfi_offset 20, -48
 3323              		.cfi_offset 21, -56
 3324              		.cfi_offset 22, -64
 3325              		.cfi_offset 23, -72
 3326              		.cfi_offset 24, -80
 3327 1358 1304010A 		addi	s0,sp,160
 3328              		.cfi_def_cfa 8, 0
 530:src/Tests.cpp ****     Riscv::printString("Testing gap filling and chunk merge after multiple mallocs and frees\n\n");
 3329              		.loc 2 530 5
 3330              		.loc 2 530 23 is_stmt 0
 3331 135c 17050000 		lla	a0,.LC26
 3331      13050500 
 3332 1364 97000000 		call	_ZN5Riscv11printStringEPKc@plt
 3332      E7800000 
 3333              	.LVL371:
 3334              	.LBB65:
 531:src/Tests.cpp **** 
 532:src/Tests.cpp ****     const int N = 10;
 533:src/Tests.cpp **** 
 534:src/Tests.cpp ****     void *m[N];
 535:src/Tests.cpp **** 
 536:src/Tests.cpp ****     for(int i=0;i<N;i++)
 3335              		.loc 2 536 13
GAS LISTING /tmp/ccVT2ggL.s 			page 85


 3336 136c 93040000 		li	s1,0
 3337              	.L201:
 3338              	.LVL372:
 3339              		.loc 2 536 18 is_stmt 1 discriminator 1
 3340 1370 93079000 		li	a5,9
 3341 1374 63C89706 		bgt	s1,a5,.L198
 537:src/Tests.cpp ****     {
 538:src/Tests.cpp ****         m[i] = mem_alloc((i<<6)+1);
 3342              		.loc 2 538 9
 3343              		.loc 2 538 28 is_stmt 0
 3344 1378 1B956400 		slliw	a0,s1,6
 3345              		.loc 2 538 25
 3346 137c 1B051500 		addiw	a0,a0,1
 3347 1380 97000000 		call	mem_alloc@plt
 3347      E7800000 
 3348              	.LVL373:
 3349              		.loc 2 538 14
 3350 1388 93973400 		slli	a5,s1,3
 3351 138c 130704FB 		addi	a4,s0,-80
 3352 1390 B307F700 		add	a5,a4,a5
 3353 1394 23B8A7FA 		sd	a0,-80(a5)
 539:src/Tests.cpp ****         if(m[i] == nullptr){
 3354              		.loc 2 539 9 is_stmt 1
 3355 1398 63060500 		beqz	a0,.L218
 536:src/Tests.cpp ****     {
 3356              		.loc 2 536 5 discriminator 2
 3357 139c 9B841400 		addiw	s1,s1,1
 3358              	.LVL374:
 3359 13a0 6FF01FFD 		j	.L201
 3360              	.LVL375:
 3361              	.L218:
 540:src/Tests.cpp ****             Riscv::printString("not OK\n");
 3362              		.loc 2 540 13
 3363              		.loc 2 540 31 is_stmt 0
 3364 13a4 17050000 		lla	a0,.LC12
 3364      13050500 
 3365 13ac 97000000 		call	_ZN5Riscv11printStringEPKc@plt
 3365      E7800000 
 3366              	.LVL376:
 541:src/Tests.cpp ****             return;
 3367              		.loc 2 541 13 is_stmt 1
 3368              	.L197:
 3369              	.LBE65:
 542:src/Tests.cpp ****         }
 543:src/Tests.cpp ****     }
 544:src/Tests.cpp **** 
 545:src/Tests.cpp ****     delete (uint64*)m[2];
 546:src/Tests.cpp **** 
 547:src/Tests.cpp ****     void* tmp1 = mem_alloc(1);
 548:src/Tests.cpp ****     void* tmp2 = mem_alloc(1);
 549:src/Tests.cpp ****     void* tmp3 = mem_alloc(1);
 550:src/Tests.cpp **** 
 551:src/Tests.cpp ****     if(!tmp1 || !tmp2 || !tmp3)
 552:src/Tests.cpp ****     {
 553:src/Tests.cpp ****         Riscv::printString("not OK\n");
 554:src/Tests.cpp ****         return;
 555:src/Tests.cpp ****     }
GAS LISTING /tmp/ccVT2ggL.s 			page 86


 556:src/Tests.cpp **** 
 557:src/Tests.cpp ****     uint64 im1 = (uint64)m[1];
 558:src/Tests.cpp ****     uint64 im3 = (uint64)m[3];
 559:src/Tests.cpp ****     uint64 im5 = (uint64)m[5];
 560:src/Tests.cpp ****     uint64 imN = (uint64)m[N];
 561:src/Tests.cpp **** 
 562:src/Tests.cpp ****     uint64 itmp1 = (uint64)tmp1;
 563:src/Tests.cpp ****     uint64 itmp2 = (uint64)tmp2;
 564:src/Tests.cpp ****     uint64 itmp3 = (uint64)tmp3;
 565:src/Tests.cpp **** 
 566:src/Tests.cpp ****     if(!(im1<itmp1 && itmp1<im3 && im1<itmp2 && itmp2<im3 && itmp3>imN))
 567:src/Tests.cpp ****     {
 568:src/Tests.cpp ****         Riscv::printString("not OK\n");
 569:src/Tests.cpp ****         return;
 570:src/Tests.cpp ****     }
 571:src/Tests.cpp **** 
 572:src/Tests.cpp ****     delete (uint64*)m[3];
 573:src/Tests.cpp ****     delete (uint64*)m[4];
 574:src/Tests.cpp **** 
 575:src/Tests.cpp ****     void* tmp4 = mem_alloc(640);
 576:src/Tests.cpp ****     void* tmp5 = mem_alloc(576);
 577:src/Tests.cpp **** 
 578:src/Tests.cpp ****     if(!tmp4 || !tmp5){
 579:src/Tests.cpp ****         Riscv::printString("not OK\n");
 580:src/Tests.cpp ****         return;
 581:src/Tests.cpp ****     }
 582:src/Tests.cpp **** 
 583:src/Tests.cpp ****     uint64 itmp4 = (uint64)tmp4;
 584:src/Tests.cpp ****     uint64 itmp5 = (uint64)tmp5;
 585:src/Tests.cpp **** 
 586:src/Tests.cpp ****     if(!(itmp5>itmp2 && itmp5>im5 && itmp4<itmp3)){
 587:src/Tests.cpp ****         Riscv::printString("not OK\n");
 588:src/Tests.cpp ****         return;
 589:src/Tests.cpp ****     }
 590:src/Tests.cpp **** 
 591:src/Tests.cpp ****     for(int i=0;i<N;i++){
 592:src/Tests.cpp ****         delete (uint64*)m[i];
 593:src/Tests.cpp ****     }
 594:src/Tests.cpp **** 
 595:src/Tests.cpp ****     delete (uint64*)tmp1;
 596:src/Tests.cpp ****     delete (uint64*)tmp2;
 597:src/Tests.cpp ****     delete (uint64*)tmp3;
 598:src/Tests.cpp ****     delete (uint64*)tmp4;
 599:src/Tests.cpp ****     delete (uint64*)tmp5;
 600:src/Tests.cpp **** 
 601:src/Tests.cpp ****     Riscv::printString("SUCCESSFUL: Testing gap filling and chunk merge after multiple mallocs and 
 602:src/Tests.cpp **** }...
 3370              		.loc 2 602 1 is_stmt 0
 3371 13b4 83308109 		ld	ra,152(sp)
 3372              		.cfi_remember_state
 3373              		.cfi_restore 1
 3374 13b8 03340109 		ld	s0,144(sp)
 3375              		.cfi_restore 8
 3376              		.cfi_def_cfa 2, 160
 3377 13bc 83348108 		ld	s1,136(sp)
 3378              		.cfi_restore 9
 3379 13c0 03390108 		ld	s2,128(sp)
GAS LISTING /tmp/ccVT2ggL.s 			page 87


 3380              		.cfi_restore 18
 3381 13c4 83398107 		ld	s3,120(sp)
 3382              		.cfi_restore 19
 3383 13c8 033A0107 		ld	s4,112(sp)
 3384              		.cfi_restore 20
 3385 13cc 833A8106 		ld	s5,104(sp)
 3386              		.cfi_restore 21
 3387 13d0 033B0106 		ld	s6,96(sp)
 3388              		.cfi_restore 22
 3389 13d4 833B8105 		ld	s7,88(sp)
 3390              		.cfi_restore 23
 3391 13d8 033C0105 		ld	s8,80(sp)
 3392              		.cfi_restore 24
 3393 13dc 1301010A 		addi	sp,sp,160
 3394              		.cfi_def_cfa_offset 0
 3395 13e0 67800000 		jr	ra
 3396              	.LVL377:
 3397              	.L198:
 3398              		.cfi_restore_state
 545:src/Tests.cpp ****     delete (uint64*)m[2];
 3399              		.loc 2 545 5 is_stmt 1
 545:src/Tests.cpp ****     delete (uint64*)m[2];
 3400              		.loc 2 545 24 is_stmt 0
 3401 13e4 033504F7 		ld	a0,-144(s0)
 545:src/Tests.cpp ****     delete (uint64*)m[2];
 3402              		.loc 2 545 25
 3403 13e8 63060500 		beqz	a0,.L202
 545:src/Tests.cpp ****     delete (uint64*)m[2];
 3404              		.loc 2 545 24 discriminator 1
 3405 13ec 97000000 		call	_ZdlPv@plt
 3405      E7800000 
 3406              	.LVL378:
 3407              	.L202:
 547:src/Tests.cpp ****     void* tmp1 = mem_alloc(1);
 3408              		.loc 2 547 5 is_stmt 1
 547:src/Tests.cpp ****     void* tmp1 = mem_alloc(1);
 3409              		.loc 2 547 27 is_stmt 0
 3410 13f4 13051000 		li	a0,1
 3411 13f8 97000000 		call	mem_alloc@plt
 3411      E7800000 
 3412              	.LVL379:
 3413 1400 93040500 		mv	s1,a0
 3414              	.LVL380:
 548:src/Tests.cpp ****     void* tmp2 = mem_alloc(1);
 3415              		.loc 2 548 5 is_stmt 1
 548:src/Tests.cpp ****     void* tmp2 = mem_alloc(1);
 3416              		.loc 2 548 27 is_stmt 0
 3417 1404 13051000 		li	a0,1
 3418 1408 97000000 		call	mem_alloc@plt
 3418      E7800000 
 3419              	.LVL381:
 3420 1410 13090500 		mv	s2,a0
 3421              	.LVL382:
 549:src/Tests.cpp ****     void* tmp3 = mem_alloc(1);
 3422              		.loc 2 549 5 is_stmt 1
 549:src/Tests.cpp ****     void* tmp3 = mem_alloc(1);
 3423              		.loc 2 549 27 is_stmt 0
GAS LISTING /tmp/ccVT2ggL.s 			page 88


 3424 1414 13051000 		li	a0,1
 3425              	.LVL383:
 3426 1418 97000000 		call	mem_alloc@plt
 3426      E7800000 
 3427              	.LVL384:
 3428 1420 93090500 		mv	s3,a0
 3429              	.LVL385:
 551:src/Tests.cpp ****     if(!tmp1 || !tmp2 || !tmp3)
 3430              		.loc 2 551 5 is_stmt 1
 3431 1424 63880408 		beqz	s1,.L203
 551:src/Tests.cpp ****     if(!tmp1 || !tmp2 || !tmp3)
 3432              		.loc 2 551 14 is_stmt 0 discriminator 1
 3433 1428 63060908 		beqz	s2,.L203
 551:src/Tests.cpp ****     if(!tmp1 || !tmp2 || !tmp3)
 3434              		.loc 2 551 23 discriminator 2
 3435 142c 63040508 		beqz	a0,.L203
 557:src/Tests.cpp ****     uint64 im1 = (uint64)m[1];
 3436              		.loc 2 557 5 is_stmt 1
 557:src/Tests.cpp ****     uint64 im1 = (uint64)m[1];
 3437              		.loc 2 557 29 is_stmt 0
 3438 1430 833784F6 		ld	a5,-152(s0)
 3439              	.LVL386:
 558:src/Tests.cpp ****     uint64 im3 = (uint64)m[3];
 3440              		.loc 2 558 5 is_stmt 1
 558:src/Tests.cpp ****     uint64 im3 = (uint64)m[3];
 3441              		.loc 2 558 29 is_stmt 0
 3442 1434 033584F7 		ld	a0,-136(s0)
 3443              	.LVL387:
 559:src/Tests.cpp ****     uint64 im5 = (uint64)m[5];
 3444              		.loc 2 559 5 is_stmt 1
 559:src/Tests.cpp ****     uint64 im5 = (uint64)m[5];
 3445              		.loc 2 559 29 is_stmt 0
 3446 1438 033B84F8 		ld	s6,-120(s0)
 3447              	.LVL388:
 560:src/Tests.cpp ****     uint64 imN = (uint64)m[N];
 3448              		.loc 2 560 5 is_stmt 1
 560:src/Tests.cpp ****     uint64 imN = (uint64)m[N];
 3449              		.loc 2 560 29 is_stmt 0
 3450 143c 033604FB 		ld	a2,-80(s0)
 3451              	.LVL389:
 562:src/Tests.cpp ****     uint64 itmp1 = (uint64)tmp1;
 3452              		.loc 2 562 5 is_stmt 1
 563:src/Tests.cpp ****     uint64 itmp2 = (uint64)tmp2;
 3453              		.loc 2 563 5
 563:src/Tests.cpp ****     uint64 itmp2 = (uint64)tmp2;
 3454              		.loc 2 563 12 is_stmt 0
 3455 1440 130A0900 		mv	s4,s2
 3456              	.LVL390:
 564:src/Tests.cpp ****     uint64 itmp3 = (uint64)tmp3;
 3457              		.loc 2 564 5 is_stmt 1
 564:src/Tests.cpp ****     uint64 itmp3 = (uint64)tmp3;
 3458              		.loc 2 564 12 is_stmt 0
 3459 1444 938A0900 		mv	s5,s3
 3460              	.LVL391:
 566:src/Tests.cpp ****     if(!(im1<itmp1 && itmp1<im3 && im1<itmp2 && itmp2<im3 && itmp3>imN))
 3461              		.loc 2 566 5 is_stmt 1
 3462 1448 63F09708 		bgeu	a5,s1,.L205
GAS LISTING /tmp/ccVT2ggL.s 			page 89


 566:src/Tests.cpp ****     if(!(im1<itmp1 && itmp1<im3 && im1<itmp2 && itmp2<im3 && itmp3>imN))
 3463              		.loc 2 566 20 is_stmt 0 discriminator 1
 3464 144c 63FEA406 		bleu	a0,s1,.L205
 566:src/Tests.cpp ****     if(!(im1<itmp1 && itmp1<im3 && im1<itmp2 && itmp2<im3 && itmp3>imN))
 3465              		.loc 2 566 33 discriminator 2
 3466 1450 63FC2707 		bgeu	a5,s2,.L205
 566:src/Tests.cpp ****     if(!(im1<itmp1 && itmp1<im3 && im1<itmp2 && itmp2<im3 && itmp3>imN))
 3467              		.loc 2 566 46 discriminator 3
 3468 1454 637AA906 		bleu	a0,s2,.L205
 566:src/Tests.cpp ****     if(!(im1<itmp1 && itmp1<im3 && im1<itmp2 && itmp2<im3 && itmp3>imN))
 3469              		.loc 2 566 8 discriminator 4
 3470 1458 63783607 		bgeu	a2,s3,.L205
 572:src/Tests.cpp ****     delete (uint64*)m[3];
 3471              		.loc 2 572 5 is_stmt 1
 572:src/Tests.cpp ****     delete (uint64*)m[3];
 3472              		.loc 2 572 25 is_stmt 0
 3473 145c 63060500 		beqz	a0,.L207
 572:src/Tests.cpp ****     delete (uint64*)m[3];
 3474              		.loc 2 572 24 discriminator 1
 3475 1460 97000000 		call	_ZdlPv@plt
 3475      E7800000 
 3476              	.LVL392:
 3477              	.L207:
 573:src/Tests.cpp ****     delete (uint64*)m[4];
 3478              		.loc 2 573 5 is_stmt 1
 573:src/Tests.cpp ****     delete (uint64*)m[4];
 3479              		.loc 2 573 24 is_stmt 0
 3480 1468 033504F8 		ld	a0,-128(s0)
 573:src/Tests.cpp ****     delete (uint64*)m[4];
 3481              		.loc 2 573 25
 3482 146c 63060500 		beqz	a0,.L208
 573:src/Tests.cpp ****     delete (uint64*)m[4];
 3483              		.loc 2 573 24 discriminator 1
 3484 1470 97000000 		call	_ZdlPv@plt
 3484      E7800000 
 3485              	.LVL393:
 3486              	.L208:
 575:src/Tests.cpp ****     void* tmp4 = mem_alloc(640);
 3487              		.loc 2 575 5 is_stmt 1
 575:src/Tests.cpp ****     void* tmp4 = mem_alloc(640);
 3488              		.loc 2 575 27 is_stmt 0
 3489 1478 13050028 		li	a0,640
 3490 147c 97000000 		call	mem_alloc@plt
 3490      E7800000 
 3491              	.LVL394:
 3492 1484 130C0500 		mv	s8,a0
 3493              	.LVL395:
 576:src/Tests.cpp ****     void* tmp5 = mem_alloc(576);
 3494              		.loc 2 576 5 is_stmt 1
 576:src/Tests.cpp ****     void* tmp5 = mem_alloc(576);
 3495              		.loc 2 576 27 is_stmt 0
 3496 1488 13050024 		li	a0,576
 3497              	.LVL396:
 3498 148c 97000000 		call	mem_alloc@plt
 3498      E7800000 
 3499              	.LVL397:
 3500 1494 930B0500 		mv	s7,a0
GAS LISTING /tmp/ccVT2ggL.s 			page 90


 3501              	.LVL398:
 578:src/Tests.cpp ****     if(!tmp4 || !tmp5){
 3502              		.loc 2 578 5 is_stmt 1
 3503 1498 63020C04 		beqz	s8,.L209
 578:src/Tests.cpp ****     if(!tmp4 || !tmp5){
 3504              		.loc 2 578 14 is_stmt 0 discriminator 1
 3505 149c 63000504 		beqz	a0,.L209
 583:src/Tests.cpp ****     uint64 itmp4 = (uint64)tmp4;
 3506              		.loc 2 583 5 is_stmt 1
 3507              	.LVL399:
 584:src/Tests.cpp ****     uint64 itmp5 = (uint64)tmp5;
 3508              		.loc 2 584 5
 586:src/Tests.cpp ****     if(!(itmp5>itmp2 && itmp5>im5 && itmp4<itmp3)){
 3509              		.loc 2 586 5
 3510 14a0 6378AA04 		bgeu	s4,a0,.L211
 586:src/Tests.cpp ****     if(!(itmp5>itmp2 && itmp5>im5 && itmp4<itmp3)){
 3511              		.loc 2 586 22 is_stmt 0 discriminator 1
 3512 14a4 6376AB04 		bgeu	s6,a0,.L211
 586:src/Tests.cpp ****     if(!(itmp5>itmp2 && itmp5>im5 && itmp4<itmp3)){
 3513              		.loc 2 586 8 discriminator 2
 3514 14a8 63745C05 		bleu	s5,s8,.L211
 3515              	.LBB66:
 591:src/Tests.cpp ****     for(int i=0;i<N;i++){
 3516              		.loc 2 591 13
 3517 14ac 130A0000 		li	s4,0
 3518 14b0 6F008005 		j	.L212
 3519              	.LVL400:
 3520              	.L203:
 3521              	.LBE66:
 553:src/Tests.cpp ****         Riscv::printString("not OK\n");
 3522              		.loc 2 553 9 is_stmt 1
 553:src/Tests.cpp ****         Riscv::printString("not OK\n");
 3523              		.loc 2 553 27 is_stmt 0
 3524 14b4 17050000 		lla	a0,.LC12
 3524      13050500 
 3525              	.LVL401:
 3526 14bc 97000000 		call	_ZN5Riscv11printStringEPKc@plt
 3526      E7800000 
 3527              	.LVL402:
 554:src/Tests.cpp ****         return;
 3528              		.loc 2 554 9 is_stmt 1
 3529 14c4 6FF01FEF 		j	.L197
 3530              	.LVL403:
 3531              	.L205:
 568:src/Tests.cpp ****         Riscv::printString("not OK\n");
 3532              		.loc 2 568 9
 568:src/Tests.cpp ****         Riscv::printString("not OK\n");
 3533              		.loc 2 568 27 is_stmt 0
 3534 14c8 17050000 		lla	a0,.LC12
 3534      13050500 
 3535              	.LVL404:
 3536 14d0 97000000 		call	_ZN5Riscv11printStringEPKc@plt
 3536      E7800000 
 3537              	.LVL405:
 569:src/Tests.cpp ****         return;
 3538              		.loc 2 569 9 is_stmt 1
 3539 14d8 6FF0DFED 		j	.L197
GAS LISTING /tmp/ccVT2ggL.s 			page 91


 3540              	.LVL406:
 3541              	.L209:
 579:src/Tests.cpp ****         Riscv::printString("not OK\n");
 3542              		.loc 2 579 9
 579:src/Tests.cpp ****         Riscv::printString("not OK\n");
 3543              		.loc 2 579 27 is_stmt 0
 3544 14dc 17050000 		lla	a0,.LC12
 3544      13050500 
 3545              	.LVL407:
 3546 14e4 97000000 		call	_ZN5Riscv11printStringEPKc@plt
 3546      E7800000 
 3547              	.LVL408:
 580:src/Tests.cpp ****         return;
 3548              		.loc 2 580 9 is_stmt 1
 3549 14ec 6FF09FEC 		j	.L197
 3550              	.LVL409:
 3551              	.L211:
 587:src/Tests.cpp ****         Riscv::printString("not OK\n");
 3552              		.loc 2 587 9
 587:src/Tests.cpp ****         Riscv::printString("not OK\n");
 3553              		.loc 2 587 27 is_stmt 0
 3554 14f0 17050000 		lla	a0,.LC12
 3554      13050500 
 3555              	.LVL410:
 3556 14f8 97000000 		call	_ZN5Riscv11printStringEPKc@plt
 3556      E7800000 
 3557              	.LVL411:
 588:src/Tests.cpp ****         return;
 3558              		.loc 2 588 9 is_stmt 1
 3559 1500 6FF05FEB 		j	.L197
 3560              	.LVL412:
 3561              	.L214:
 3562              	.LBB67:
 591:src/Tests.cpp ****     for(int i=0;i<N;i++){
 3563              		.loc 2 591 5 discriminator 2
 3564 1504 1B0A1A00 		addiw	s4,s4,1
 3565              	.LVL413:
 3566              	.L212:
 591:src/Tests.cpp ****     for(int i=0;i<N;i++){
 3567              		.loc 2 591 18 discriminator 1
 3568 1508 93079000 		li	a5,9
 3569 150c 63C24703 		bgt	s4,a5,.L213
 592:src/Tests.cpp ****         delete (uint64*)m[i];
 3570              		.loc 2 592 9
 592:src/Tests.cpp ****         delete (uint64*)m[i];
 3571              		.loc 2 592 28 is_stmt 0
 3572 1510 93173A00 		slli	a5,s4,3
 3573 1514 130704FB 		addi	a4,s0,-80
 3574              	.LVL414:
 3575 1518 B307F700 		add	a5,a4,a5
 3576 151c 03B507FB 		ld	a0,-80(a5)
 592:src/Tests.cpp ****         delete (uint64*)m[i];
 3577              		.loc 2 592 29
 3578 1520 E30205FE 		beqz	a0,.L214
 592:src/Tests.cpp ****         delete (uint64*)m[i];
 3579              		.loc 2 592 28 discriminator 1
 3580 1524 97000000 		call	_ZdlPv@plt
GAS LISTING /tmp/ccVT2ggL.s 			page 92


 3580      E7800000 
 3581              	.LVL415:
 3582 152c 6FF09FFD 		j	.L214
 3583              	.L213:
 3584              	.LBE67:
 595:src/Tests.cpp ****     delete (uint64*)tmp1;
 3585              		.loc 2 595 5 is_stmt 1 discriminator 1
 595:src/Tests.cpp ****     delete (uint64*)tmp1;
 3586              		.loc 2 595 21 is_stmt 0 discriminator 1
 3587 1530 13850400 		mv	a0,s1
 3588 1534 97000000 		call	_ZdlPv@plt
 3588      E7800000 
 3589              	.LVL416:
 596:src/Tests.cpp ****     delete (uint64*)tmp2;
 3590              		.loc 2 596 5 is_stmt 1 discriminator 1
 596:src/Tests.cpp ****     delete (uint64*)tmp2;
 3591              		.loc 2 596 21 is_stmt 0 discriminator 1
 3592 153c 13050900 		mv	a0,s2
 3593 1540 97000000 		call	_ZdlPv@plt
 3593      E7800000 
 3594              	.LVL417:
 597:src/Tests.cpp ****     delete (uint64*)tmp3;
 3595              		.loc 2 597 5 is_stmt 1 discriminator 1
 597:src/Tests.cpp ****     delete (uint64*)tmp3;
 3596              		.loc 2 597 21 is_stmt 0 discriminator 1
 3597 1548 13850900 		mv	a0,s3
 3598 154c 97000000 		call	_ZdlPv@plt
 3598      E7800000 
 3599              	.LVL418:
 598:src/Tests.cpp ****     delete (uint64*)tmp4;
 3600              		.loc 2 598 5 is_stmt 1 discriminator 1
 598:src/Tests.cpp ****     delete (uint64*)tmp4;
 3601              		.loc 2 598 21 is_stmt 0 discriminator 1
 3602 1554 13050C00 		mv	a0,s8
 3603 1558 97000000 		call	_ZdlPv@plt
 3603      E7800000 
 3604              	.LVL419:
 599:src/Tests.cpp ****     delete (uint64*)tmp5;
 3605              		.loc 2 599 5 is_stmt 1 discriminator 1
 599:src/Tests.cpp ****     delete (uint64*)tmp5;
 3606              		.loc 2 599 21 is_stmt 0 discriminator 1
 3607 1560 13850B00 		mv	a0,s7
 3608 1564 97000000 		call	_ZdlPv@plt
 3608      E7800000 
 3609              	.LVL420:
 601:src/Tests.cpp ****     Riscv::printString("SUCCESSFUL: Testing gap filling and chunk merge after multiple mallocs and 
 3610              		.loc 2 601 5 is_stmt 1 discriminator 1
 601:src/Tests.cpp ****     Riscv::printString("SUCCESSFUL: Testing gap filling and chunk merge after multiple mallocs and 
 3611              		.loc 2 601 23 is_stmt 0 discriminator 1
 3612 156c 17050000 		lla	a0,.LC27
 3612      13050500 
 3613 1574 97000000 		call	_ZN5Riscv11printStringEPKc@plt
 3613      E7800000 
 3614              	.LVL421:
 3615 157c 6FF09FE3 		j	.L197
 3616              		.cfi_endproc
 3617              	.LFE58:
GAS LISTING /tmp/ccVT2ggL.s 			page 93


 3619              		.align	2
 3620              		.globl	_Z21memoryAllocationTestsv
 3622              	_Z21memoryAllocationTestsv:
 3623              	.LFB36:
 277:src/Tests.cpp **** {
 3624              		.loc 2 277 1 is_stmt 1
 3625              		.cfi_startproc
 3626 1580 130101FF 		addi	sp,sp,-16
 3627              		.cfi_def_cfa_offset 16
 3628 1584 23341100 		sd	ra,8(sp)
 3629 1588 23308100 		sd	s0,0(sp)
 3630              		.cfi_offset 1, -8
 3631              		.cfi_offset 8, -16
 3632 158c 13040101 		addi	s0,sp,16
 3633              		.cfi_def_cfa 8, 0
 285:src/Tests.cpp ****     mallocGapFillTest();
 3634              		.loc 2 285 5
 285:src/Tests.cpp ****     mallocGapFillTest();
 3635              		.loc 2 285 22 is_stmt 0
 3636 1590 97000000 		call	_Z17mallocGapFillTestv
 3636      E7800000 
 3637              	.LVL422:
 286:src/Tests.cpp **** }
 3638              		.loc 2 286 1
 3639 1598 83308100 		ld	ra,8(sp)
 3640              		.cfi_restore 1
 3641 159c 03340100 		ld	s0,0(sp)
 3642              		.cfi_restore 8
 3643              		.cfi_def_cfa 2, 16
 3644 15a0 13010101 		addi	sp,sp,16
 3645              		.cfi_def_cfa_offset 0
 3646 15a4 67800000 		jr	ra
 3647              		.cfi_endproc
 3648              	.LFE36:
 3650              		.align	2
 3651              		.globl	_Z7myTestsv
 3653              	_Z7myTestsv:
 3654              	.LFB47:
 437:src/Tests.cpp **** {
 3655              		.loc 2 437 1 is_stmt 1
 3656              		.cfi_startproc
 3657 15a8 130101FF 		addi	sp,sp,-16
 3658              		.cfi_def_cfa_offset 16
 3659 15ac 23341100 		sd	ra,8(sp)
 3660 15b0 23308100 		sd	s0,0(sp)
 3661              		.cfi_offset 1, -8
 3662              		.cfi_offset 8, -16
 3663 15b4 13040101 		addi	s0,sp,16
 3664              		.cfi_def_cfa 8, 0
 438:src/Tests.cpp ****     memoryAllocationTests();
 3665              		.loc 2 438 5
 438:src/Tests.cpp ****     memoryAllocationTests();
 3666              		.loc 2 438 26 is_stmt 0
 3667 15b8 97000000 		call	_Z21memoryAllocationTestsv
 3667      E7800000 
 3668              	.LVL423:
 442:src/Tests.cpp **** }
GAS LISTING /tmp/ccVT2ggL.s 			page 94


 3669              		.loc 2 442 1
 3670 15c0 83308100 		ld	ra,8(sp)
 3671              		.cfi_restore 1
 3672 15c4 03340100 		ld	s0,0(sp)
 3673              		.cfi_restore 8
 3674              		.cfi_def_cfa 2, 16
 3675 15c8 13010101 		addi	sp,sp,16
 3676              		.cfi_def_cfa_offset 0
 3677 15cc 67800000 		jr	ra
 3678              		.cfi_endproc
 3679              	.LFE47:
 3681              		.weak	_ZTV14PeriodicThread
 3682              		.section	.data.rel.ro.local._ZTV14PeriodicThread,"awG",@progbits,_ZTV14PeriodicThread,comdat
 3683              		.align	3
 3686              	_ZTV14PeriodicThread:
 3687 0000 00000000 		.dword	0
 3687      00000000 
 3688 0008 00000000 		.dword	0
 3688      00000000 
 3689 0010 00000000 		.dword	_ZN14PeriodicThreadD1Ev
 3689      00000000 
 3690 0018 00000000 		.dword	_ZN14PeriodicThreadD0Ev
 3690      00000000 
 3691 0020 00000000 		.dword	_ZN6Thread3runEv
 3691      00000000 
 3692 0028 00000000 		.dword	_ZN14PeriodicThread18periodicActivationEv
 3692      00000000 
 3693              		.weak	_ZTV12TestPeriodic
 3694              		.section	.data.rel.ro.local._ZTV12TestPeriodic,"awG",@progbits,_ZTV12TestPeriodic,comdat
 3695              		.align	3
 3698              	_ZTV12TestPeriodic:
 3699 0000 00000000 		.dword	0
 3699      00000000 
 3700 0008 00000000 		.dword	0
 3700      00000000 
 3701 0010 00000000 		.dword	_ZN12TestPeriodicD1Ev
 3701      00000000 
 3702 0018 00000000 		.dword	_ZN12TestPeriodicD0Ev
 3702      00000000 
 3703 0020 00000000 		.dword	_ZN6Thread3runEv
 3703      00000000 
 3704 0028 00000000 		.dword	_ZN12TestPeriodic18periodicActivationEv
 3704      00000000 
 3705              		.bss
 3706              		.align	3
 3707              		.set	.LANCHOR0,. + 0
 3710              	_ZL2s1:
 3711 0000 00000000 		.zero	8
 3711      00000000 
 3714              	_ZL2s2:
 3715 0008 00000000 		.zero	8
 3715      00000000 
 3718              	_ZL2s3:
 3719 0010 00000000 		.zero	8
 3719      00000000 
 3722              	_ZL3s11:
 3723 0018 00000000 		.zero	8
GAS LISTING /tmp/ccVT2ggL.s 			page 95


 3723      00000000 
 3726              	_ZL3s22:
 3727 0020 00000000 		.zero	8
 3727      00000000 
 3728              		.text
 3729              	.Letext0:
 3730              		.file 5 "src/../h/../lib/hw.h"
 3731              		.file 6 "src/../h/Riscv.hpp"
 3732              		.file 7 "src/../h/syscall_c.h"
 3733              		.file 8 "src/../lib/console.h"
 11953              		.align	3
 11956              	DW.ref.__gxx_personality_v0:
 11957 0000 00000000 		.dword	__gxx_personality_v0
 11957      00000000 
 11958              		.ident	"GCC: (Ubuntu 9.3.0-17ubuntu1~20.04) 9.3.0"
 11959              		.section	.note.GNU-stack,"",@progbits
GAS LISTING /tmp/ccVT2ggL.s 			page 96


DEFINED SYMBOLS
                            *ABS*:0000000000000000 Tests.cpp
     /tmp/ccVT2ggL.s:10     .text._ZN6Thread3runEv:0000000000000000 _ZN6Thread3runEv
     /tmp/ccVT2ggL.s:14     .text._ZN6Thread3runEv:0000000000000000 .L0 
     /tmp/ccVT2ggL.s:16     .text._ZN6Thread3runEv:0000000000000000 .L0 
     /tmp/ccVT2ggL.s:17     .text._ZN6Thread3runEv:0000000000000004 .L0 
     /tmp/ccVT2ggL.s:19     .text._ZN6Thread3runEv:0000000000000008 .L0 
     /tmp/ccVT2ggL.s:21     .text._ZN6Thread3runEv:000000000000000c .L0 
     /tmp/ccVT2ggL.s:23     .text._ZN6Thread3runEv:000000000000000c .L0 
     /tmp/ccVT2ggL.s:24     .text._ZN6Thread3runEv:0000000000000010 .L0 
     /tmp/ccVT2ggL.s:25     .text._ZN6Thread3runEv:0000000000000010 .L0 
     /tmp/ccVT2ggL.s:27     .text._ZN6Thread3runEv:0000000000000014 .L0 
     /tmp/ccVT2ggL.s:29     .text._ZN6Thread3runEv:0000000000000018 .L0 
     /tmp/ccVT2ggL.s:36     .text._ZN14PeriodicThread18periodicActivationEv:0000000000000000 _ZN14PeriodicThread18periodicActivationEv
     /tmp/ccVT2ggL.s:39     .text._ZN14PeriodicThread18periodicActivationEv:0000000000000000 .L0 
     /tmp/ccVT2ggL.s:41     .text._ZN14PeriodicThread18periodicActivationEv:0000000000000000 .L0 
     /tmp/ccVT2ggL.s:42     .text._ZN14PeriodicThread18periodicActivationEv:0000000000000004 .L0 
     /tmp/ccVT2ggL.s:44     .text._ZN14PeriodicThread18periodicActivationEv:0000000000000008 .L0 
     /tmp/ccVT2ggL.s:46     .text._ZN14PeriodicThread18periodicActivationEv:000000000000000c .L0 
     /tmp/ccVT2ggL.s:48     .text._ZN14PeriodicThread18periodicActivationEv:000000000000000c .L0 
     /tmp/ccVT2ggL.s:49     .text._ZN14PeriodicThread18periodicActivationEv:0000000000000010 .L0 
     /tmp/ccVT2ggL.s:50     .text._ZN14PeriodicThread18periodicActivationEv:0000000000000010 .L0 
     /tmp/ccVT2ggL.s:52     .text._ZN14PeriodicThread18periodicActivationEv:0000000000000014 .L0 
     /tmp/ccVT2ggL.s:54     .text._ZN14PeriodicThread18periodicActivationEv:0000000000000018 .L0 
     /tmp/ccVT2ggL.s:65     .text:0000000000000000 _Z4idlePv
     /tmp/ccVT2ggL.s:69     .text:0000000000000000 .L0 
     /tmp/ccVT2ggL.s:71     .text:0000000000000000 .L0 
     /tmp/ccVT2ggL.s:72     .text:0000000000000004 .L0 
     /tmp/ccVT2ggL.s:75     .text:000000000000000c .L0 
     /tmp/ccVT2ggL.s:76     .text:000000000000000c .L0 
     /tmp/ccVT2ggL.s:78     .text:0000000000000010 .L0 
     /tmp/ccVT2ggL.s:82     .text:0000000000000010 .L0 
     /tmp/ccVT2ggL.s:83     .text:0000000000000010 .L0 
     /tmp/ccVT2ggL.s:84     .text:0000000000000010 .L0 
     /tmp/ccVT2ggL.s:88     .text:0000000000000020 .L0 
     /tmp/ccVT2ggL.s:89     .text:0000000000000020 .L0 
     /tmp/ccVT2ggL.s:92     .text:0000000000000028 .L0 
     /tmp/ccVT2ggL.s:93     .text:000000000000002c .L0 
     /tmp/ccVT2ggL.s:110    .text:000000000000002c _Z15thread1FunctionPv
     /tmp/ccVT2ggL.s:113    .text:000000000000002c .L0 
     /tmp/ccVT2ggL.s:115    .text:000000000000002c .L0 
     /tmp/ccVT2ggL.s:116    .text:0000000000000030 .L0 
     /tmp/ccVT2ggL.s:120    .text:000000000000003c .L0 
     /tmp/ccVT2ggL.s:121    .text:000000000000003c .L0 
     /tmp/ccVT2ggL.s:122    .text:000000000000003c .L0 
     /tmp/ccVT2ggL.s:124    .text:0000000000000040 .L0 
     /tmp/ccVT2ggL.s:126    .text:0000000000000040 .L0 
     /tmp/ccVT2ggL.s:127    .text:0000000000000040 .L0 
     /tmp/ccVT2ggL.s:132    .text:0000000000000050 .L0 
     /tmp/ccVT2ggL.s:134    .text:0000000000000050 .L0 
     /tmp/ccVT2ggL.s:135    .text:0000000000000050 .L0 
     /tmp/ccVT2ggL.s:140    .text:0000000000000058 .L0 
     /tmp/ccVT2ggL.s:141    .text:0000000000000058 .L0 
     /tmp/ccVT2ggL.s:145    .text:0000000000000060 .L0 
     /tmp/ccVT2ggL.s:146    .text:0000000000000060 .L0 
     /tmp/ccVT2ggL.s:150    .text:0000000000000070 .L0 
     /tmp/ccVT2ggL.s:151    .text:0000000000000070 .L0 
GAS LISTING /tmp/ccVT2ggL.s 			page 97


     /tmp/ccVT2ggL.s:155    .text:000000000000007c .L0 
     /tmp/ccVT2ggL.s:156    .text:000000000000007c .L0 
     /tmp/ccVT2ggL.s:160    .text:000000000000008c .L0 
     /tmp/ccVT2ggL.s:164    .text:0000000000000090 .L0 
     /tmp/ccVT2ggL.s:168    .text:000000000000009c .L0 
     /tmp/ccVT2ggL.s:169    .text:000000000000009c .L0 
     /tmp/ccVT2ggL.s:172    .text:00000000000000a4 .L0 
     /tmp/ccVT2ggL.s:174    .text:00000000000000a8 .L0 
     /tmp/ccVT2ggL.s:179    .text:00000000000000b0 .L0 
     /tmp/ccVT2ggL.s:180    .text:00000000000000b4 .L0 
     /tmp/ccVT2ggL.s:182    .text:00000000000000b8 .L0 
     /tmp/ccVT2ggL.s:183    .text:00000000000000b8 .L0 
     /tmp/ccVT2ggL.s:185    .text:00000000000000bc .L0 
     /tmp/ccVT2ggL.s:188    .text:00000000000000c0 .L0 
     /tmp/ccVT2ggL.s:190    .text:00000000000000c4 .L0 
     /tmp/ccVT2ggL.s:204    .text:00000000000000c4 _Z15thread2FunctionPv
     /tmp/ccVT2ggL.s:207    .text:00000000000000c4 .L0 
     /tmp/ccVT2ggL.s:209    .text:00000000000000c4 .L0 
     /tmp/ccVT2ggL.s:210    .text:00000000000000c8 .L0 
     /tmp/ccVT2ggL.s:214    .text:00000000000000d4 .L0 
     /tmp/ccVT2ggL.s:215    .text:00000000000000d4 .L0 
     /tmp/ccVT2ggL.s:216    .text:00000000000000d4 .L0 
     /tmp/ccVT2ggL.s:218    .text:00000000000000d8 .L0 
     /tmp/ccVT2ggL.s:220    .text:00000000000000d8 .L0 
     /tmp/ccVT2ggL.s:221    .text:00000000000000d8 .L0 
     /tmp/ccVT2ggL.s:226    .text:00000000000000e8 .L0 
     /tmp/ccVT2ggL.s:228    .text:00000000000000e8 .L0 
     /tmp/ccVT2ggL.s:229    .text:00000000000000e8 .L0 
     /tmp/ccVT2ggL.s:234    .text:00000000000000f0 .L0 
     /tmp/ccVT2ggL.s:235    .text:00000000000000f0 .L0 
     /tmp/ccVT2ggL.s:239    .text:00000000000000f8 .L0 
     /tmp/ccVT2ggL.s:240    .text:00000000000000f8 .L0 
     /tmp/ccVT2ggL.s:244    .text:0000000000000108 .L0 
     /tmp/ccVT2ggL.s:245    .text:0000000000000108 .L0 
     /tmp/ccVT2ggL.s:249    .text:0000000000000114 .L0 
     /tmp/ccVT2ggL.s:250    .text:0000000000000114 .L0 
     /tmp/ccVT2ggL.s:254    .text:0000000000000124 .L0 
     /tmp/ccVT2ggL.s:258    .text:0000000000000128 .L0 
     /tmp/ccVT2ggL.s:262    .text:0000000000000134 .L0 
     /tmp/ccVT2ggL.s:263    .text:0000000000000134 .L0 
     /tmp/ccVT2ggL.s:266    .text:000000000000013c .L0 
     /tmp/ccVT2ggL.s:268    .text:0000000000000140 .L0 
     /tmp/ccVT2ggL.s:273    .text:0000000000000148 .L0 
     /tmp/ccVT2ggL.s:274    .text:000000000000014c .L0 
     /tmp/ccVT2ggL.s:276    .text:0000000000000150 .L0 
     /tmp/ccVT2ggL.s:277    .text:0000000000000150 .L0 
     /tmp/ccVT2ggL.s:279    .text:0000000000000154 .L0 
     /tmp/ccVT2ggL.s:282    .text:0000000000000158 .L0 
     /tmp/ccVT2ggL.s:284    .text:000000000000015c .L0 
     /tmp/ccVT2ggL.s:290    .text:000000000000015c _ZN12TestPeriodic18periodicActivationEv
     /tmp/ccVT2ggL.s:293    .text:000000000000015c .L0 
     /tmp/ccVT2ggL.s:295    .text:000000000000015c .L0 
     /tmp/ccVT2ggL.s:296    .text:0000000000000160 .L0 
     /tmp/ccVT2ggL.s:300    .text:000000000000016c .L0 
     /tmp/ccVT2ggL.s:301    .text:000000000000016c .L0 
     /tmp/ccVT2ggL.s:302    .text:000000000000016c .L0 
     /tmp/ccVT2ggL.s:304    .text:0000000000000170 .L0 
GAS LISTING /tmp/ccVT2ggL.s 			page 98


     /tmp/ccVT2ggL.s:308    .text:0000000000000170 .L0 
     /tmp/ccVT2ggL.s:309    .text:0000000000000170 .L0 
     /tmp/ccVT2ggL.s:313    .text:0000000000000174 .L0 
     /tmp/ccVT2ggL.s:317    .text:0000000000000180 .L0 
     /tmp/ccVT2ggL.s:318    .text:0000000000000180 .L0 
     /tmp/ccVT2ggL.s:322    .text:0000000000000190 .L0 
     /tmp/ccVT2ggL.s:323    .text:0000000000000190 .L0 
     /tmp/ccVT2ggL.s:327    .text:000000000000019c .L0 
     /tmp/ccVT2ggL.s:334    .text:00000000000001a4 .L0 
     /tmp/ccVT2ggL.s:335    .text:00000000000001a8 .L0 
     /tmp/ccVT2ggL.s:337    .text:00000000000001ac .L0 
     /tmp/ccVT2ggL.s:338    .text:00000000000001ac .L0 
     /tmp/ccVT2ggL.s:340    .text:00000000000001b0 .L0 
     /tmp/ccVT2ggL.s:343    .text:00000000000001b4 .L0 
     /tmp/ccVT2ggL.s:345    .text:00000000000001b8 .L0 
     /tmp/ccVT2ggL.s:351    .text:00000000000001b8 _Z20thread2FunctionTest2Pv
     /tmp/ccVT2ggL.s:354    .text:00000000000001b8 .L0 
     /tmp/ccVT2ggL.s:356    .text:00000000000001b8 .L0 
     /tmp/ccVT2ggL.s:357    .text:00000000000001bc .L0 
     /tmp/ccVT2ggL.s:361    .text:00000000000001c8 .L0 
     /tmp/ccVT2ggL.s:362    .text:00000000000001c8 .L0 
     /tmp/ccVT2ggL.s:363    .text:00000000000001c8 .L0 
     /tmp/ccVT2ggL.s:365    .text:00000000000001cc .L0 
     /tmp/ccVT2ggL.s:367    .text:00000000000001cc .L0 
     /tmp/ccVT2ggL.s:368    .text:00000000000001cc .L0 
     /tmp/ccVT2ggL.s:373    .text:00000000000001dc .L0 
     /tmp/ccVT2ggL.s:375    .text:00000000000001dc .L0 
     /tmp/ccVT2ggL.s:376    .text:00000000000001dc .L0 
     /tmp/ccVT2ggL.s:381    .text:00000000000001e4 .L0 
     /tmp/ccVT2ggL.s:382    .text:00000000000001e4 .L0 
     /tmp/ccVT2ggL.s:387    .text:00000000000001f0 .L0 
     /tmp/ccVT2ggL.s:388    .text:00000000000001f0 .L0 
     /tmp/ccVT2ggL.s:392    .text:00000000000001f8 .L0 
     /tmp/ccVT2ggL.s:393    .text:00000000000001f8 .L0 
     /tmp/ccVT2ggL.s:397    .text:0000000000000208 .L0 
     /tmp/ccVT2ggL.s:398    .text:0000000000000208 .L0 
     /tmp/ccVT2ggL.s:402    .text:0000000000000214 .L0 
     /tmp/ccVT2ggL.s:403    .text:0000000000000214 .L0 
     /tmp/ccVT2ggL.s:407    .text:0000000000000224 .L0 
     /tmp/ccVT2ggL.s:411    .text:0000000000000228 .L0 
     /tmp/ccVT2ggL.s:415    .text:0000000000000234 .L0 
     /tmp/ccVT2ggL.s:419    .text:000000000000023c .L0 
     /tmp/ccVT2ggL.s:420    .text:000000000000023c .L0 
     /tmp/ccVT2ggL.s:423    .text:0000000000000244 .L0 
     /tmp/ccVT2ggL.s:425    .text:0000000000000248 .L0 
     /tmp/ccVT2ggL.s:430    .text:0000000000000250 .L0 
     /tmp/ccVT2ggL.s:431    .text:0000000000000254 .L0 
     /tmp/ccVT2ggL.s:433    .text:0000000000000258 .L0 
     /tmp/ccVT2ggL.s:434    .text:0000000000000258 .L0 
     /tmp/ccVT2ggL.s:436    .text:000000000000025c .L0 
     /tmp/ccVT2ggL.s:439    .text:0000000000000260 .L0 
     /tmp/ccVT2ggL.s:441    .text:0000000000000264 .L0 
     /tmp/ccVT2ggL.s:452    .text:0000000000000264 _Z4f1_2Pv
     /tmp/ccVT2ggL.s:455    .text:0000000000000264 .L0 
     /tmp/ccVT2ggL.s:457    .text:0000000000000264 .L0 
     /tmp/ccVT2ggL.s:458    .text:0000000000000268 .L0 
     /tmp/ccVT2ggL.s:463    .text:0000000000000278 .L0 
GAS LISTING /tmp/ccVT2ggL.s 			page 99


     /tmp/ccVT2ggL.s:464    .text:0000000000000278 .L0 
     /tmp/ccVT2ggL.s:465    .text:0000000000000278 .L0 
     /tmp/ccVT2ggL.s:466    .text:0000000000000278 .L0 
     /tmp/ccVT2ggL.s:468    .text:000000000000027c .L0 
     /tmp/ccVT2ggL.s:470    .text:000000000000027c .L0 
     /tmp/ccVT2ggL.s:471    .text:000000000000027c .L0 
     /tmp/ccVT2ggL.s:476    .text:000000000000028c .L0 
     /tmp/ccVT2ggL.s:477    .text:000000000000028c .L0 
     /tmp/ccVT2ggL.s:482    .text:0000000000000294 .L0 
     /tmp/ccVT2ggL.s:483    .text:0000000000000294 .L0 
     /tmp/ccVT2ggL.s:487    .text:000000000000029c .L0 
     /tmp/ccVT2ggL.s:488    .text:000000000000029c .L0 
     /tmp/ccVT2ggL.s:489    .text:000000000000029c .L0 
     /tmp/ccVT2ggL.s:492    .text:00000000000002a0 .L0 
     /tmp/ccVT2ggL.s:493    .text:00000000000002a0 .L0 
     /tmp/ccVT2ggL.s:498    .text:00000000000002b4 .L0 
     /tmp/ccVT2ggL.s:499    .text:00000000000002b4 .L0 
     /tmp/ccVT2ggL.s:503    .text:00000000000002c0 .L0 
     /tmp/ccVT2ggL.s:504    .text:00000000000002c0 .L0 
     /tmp/ccVT2ggL.s:508    .text:00000000000002cc .L0 
     /tmp/ccVT2ggL.s:509    .text:00000000000002cc .L0 
     /tmp/ccVT2ggL.s:513    .text:00000000000002d8 .L0 
     /tmp/ccVT2ggL.s:517    .text:00000000000002e4 .L0 
     /tmp/ccVT2ggL.s:518    .text:00000000000002e4 .L0 
     /tmp/ccVT2ggL.s:521    .text:00000000000002f0 .L0 
     /tmp/ccVT2ggL.s:532    .text:00000000000002f0 _Z4f2_2Pv
     /tmp/ccVT2ggL.s:535    .text:00000000000002f0 .L0 
     /tmp/ccVT2ggL.s:537    .text:00000000000002f0 .L0 
     /tmp/ccVT2ggL.s:538    .text:00000000000002f4 .L0 
     /tmp/ccVT2ggL.s:543    .text:0000000000000304 .L0 
     /tmp/ccVT2ggL.s:544    .text:0000000000000304 .L0 
     /tmp/ccVT2ggL.s:545    .text:0000000000000304 .L0 
     /tmp/ccVT2ggL.s:546    .text:0000000000000304 .L0 
     /tmp/ccVT2ggL.s:548    .text:0000000000000308 .L0 
     /tmp/ccVT2ggL.s:550    .text:0000000000000308 .L0 
     /tmp/ccVT2ggL.s:551    .text:0000000000000308 .L0 
     /tmp/ccVT2ggL.s:556    .text:0000000000000318 .L0 
     /tmp/ccVT2ggL.s:557    .text:0000000000000318 .L0 
     /tmp/ccVT2ggL.s:562    .text:0000000000000320 .L0 
     /tmp/ccVT2ggL.s:563    .text:0000000000000320 .L0 
     /tmp/ccVT2ggL.s:567    .text:0000000000000328 .L0 
     /tmp/ccVT2ggL.s:568    .text:0000000000000328 .L0 
     /tmp/ccVT2ggL.s:569    .text:0000000000000328 .L0 
     /tmp/ccVT2ggL.s:572    .text:000000000000032c .L0 
     /tmp/ccVT2ggL.s:573    .text:000000000000032c .L0 
     /tmp/ccVT2ggL.s:578    .text:0000000000000340 .L0 
     /tmp/ccVT2ggL.s:579    .text:0000000000000340 .L0 
     /tmp/ccVT2ggL.s:583    .text:000000000000034c .L0 
     /tmp/ccVT2ggL.s:584    .text:000000000000034c .L0 
     /tmp/ccVT2ggL.s:588    .text:0000000000000358 .L0 
     /tmp/ccVT2ggL.s:589    .text:0000000000000358 .L0 
     /tmp/ccVT2ggL.s:593    .text:0000000000000364 .L0 
     /tmp/ccVT2ggL.s:597    .text:0000000000000370 .L0 
     /tmp/ccVT2ggL.s:598    .text:0000000000000370 .L0 
     /tmp/ccVT2ggL.s:601    .text:000000000000037c .L0 
     /tmp/ccVT2ggL.s:612    .text:000000000000037c _Z4f3_2Pv
     /tmp/ccVT2ggL.s:615    .text:000000000000037c .L0 
GAS LISTING /tmp/ccVT2ggL.s 			page 100


     /tmp/ccVT2ggL.s:617    .text:000000000000037c .L0 
     /tmp/ccVT2ggL.s:618    .text:0000000000000380 .L0 
     /tmp/ccVT2ggL.s:623    .text:0000000000000390 .L0 
     /tmp/ccVT2ggL.s:624    .text:0000000000000390 .L0 
     /tmp/ccVT2ggL.s:625    .text:0000000000000390 .L0 
     /tmp/ccVT2ggL.s:626    .text:0000000000000390 .L0 
     /tmp/ccVT2ggL.s:628    .text:0000000000000394 .L0 
     /tmp/ccVT2ggL.s:630    .text:0000000000000394 .L0 
     /tmp/ccVT2ggL.s:631    .text:0000000000000394 .L0 
     /tmp/ccVT2ggL.s:636    .text:00000000000003a4 .L0 
     /tmp/ccVT2ggL.s:637    .text:00000000000003a4 .L0 
     /tmp/ccVT2ggL.s:642    .text:00000000000003ac .L0 
     /tmp/ccVT2ggL.s:643    .text:00000000000003ac .L0 
     /tmp/ccVT2ggL.s:647    .text:00000000000003b4 .L0 
     /tmp/ccVT2ggL.s:648    .text:00000000000003b4 .L0 
     /tmp/ccVT2ggL.s:649    .text:00000000000003b4 .L0 
     /tmp/ccVT2ggL.s:652    .text:00000000000003b8 .L0 
     /tmp/ccVT2ggL.s:653    .text:00000000000003b8 .L0 
     /tmp/ccVT2ggL.s:658    .text:00000000000003cc .L0 
     /tmp/ccVT2ggL.s:659    .text:00000000000003cc .L0 
     /tmp/ccVT2ggL.s:663    .text:00000000000003d8 .L0 
     /tmp/ccVT2ggL.s:664    .text:00000000000003d8 .L0 
     /tmp/ccVT2ggL.s:668    .text:00000000000003e4 .L0 
     /tmp/ccVT2ggL.s:669    .text:00000000000003e4 .L0 
     /tmp/ccVT2ggL.s:673    .text:00000000000003f0 .L0 
     /tmp/ccVT2ggL.s:677    .text:00000000000003fc .L0 
     /tmp/ccVT2ggL.s:678    .text:00000000000003fc .L0 
     /tmp/ccVT2ggL.s:681    .text:0000000000000408 .L0 
     /tmp/ccVT2ggL.s:688    .text._ZN14PeriodicThreadD2Ev:0000000000000000 _ZN14PeriodicThreadD2Ev
     /tmp/ccVT2ggL.s:691    .text._ZN14PeriodicThreadD2Ev:0000000000000000 .L0 
     /tmp/ccVT2ggL.s:693    .text._ZN14PeriodicThreadD2Ev:0000000000000000 .L0 
     /tmp/ccVT2ggL.s:694    .text._ZN14PeriodicThreadD2Ev:0000000000000004 .L0 
     /tmp/ccVT2ggL.s:697    .text._ZN14PeriodicThreadD2Ev:000000000000000c .L0 
     /tmp/ccVT2ggL.s:698    .text._ZN14PeriodicThreadD2Ev:000000000000000c .L0 
     /tmp/ccVT2ggL.s:700    .text._ZN14PeriodicThreadD2Ev:0000000000000010 .L0 
     /tmp/ccVT2ggL.s:3686   .data.rel.ro.local._ZTV14PeriodicThread:0000000000000000 _ZTV14PeriodicThread
     /tmp/ccVT2ggL.s:703    .text._ZN14PeriodicThreadD2Ev:0000000000000010 .L0 
     /tmp/ccVT2ggL.s:709    .text._ZN14PeriodicThreadD2Ev:0000000000000028 .L0 
     /tmp/ccVT2ggL.s:711    .text._ZN14PeriodicThreadD2Ev:000000000000002c .L0 
     /tmp/ccVT2ggL.s:712    .text._ZN14PeriodicThreadD2Ev:000000000000002c .L0 
     /tmp/ccVT2ggL.s:714    .text._ZN14PeriodicThreadD2Ev:0000000000000030 .L0 
     /tmp/ccVT2ggL.s:716    .text._ZN14PeriodicThreadD2Ev:0000000000000034 .L0 
     /tmp/ccVT2ggL.s:688    .text._ZN14PeriodicThreadD2Ev:0000000000000000 _ZN14PeriodicThreadD1Ev
     /tmp/ccVT2ggL.s:725    .text._ZN14PeriodicThreadD0Ev:0000000000000000 _ZN14PeriodicThreadD0Ev
     /tmp/ccVT2ggL.s:728    .text._ZN14PeriodicThreadD0Ev:0000000000000000 .L0 
     /tmp/ccVT2ggL.s:730    .text._ZN14PeriodicThreadD0Ev:0000000000000000 .L0 
     /tmp/ccVT2ggL.s:731    .text._ZN14PeriodicThreadD0Ev:0000000000000004 .L0 
     /tmp/ccVT2ggL.s:735    .text._ZN14PeriodicThreadD0Ev:0000000000000010 .L0 
     /tmp/ccVT2ggL.s:736    .text._ZN14PeriodicThreadD0Ev:0000000000000010 .L0 
     /tmp/ccVT2ggL.s:737    .text._ZN14PeriodicThreadD0Ev:0000000000000010 .L0 
     /tmp/ccVT2ggL.s:739    .text._ZN14PeriodicThreadD0Ev:0000000000000014 .L0 
     /tmp/ccVT2ggL.s:745    .text._ZN14PeriodicThreadD0Ev:0000000000000018 .L0 
     /tmp/ccVT2ggL.s:755    .text._ZN14PeriodicThreadD0Ev:000000000000003c .L0 
     /tmp/ccVT2ggL.s:757    .text._ZN14PeriodicThreadD0Ev:0000000000000040 .L0 
     /tmp/ccVT2ggL.s:758    .text._ZN14PeriodicThreadD0Ev:0000000000000040 .L0 
     /tmp/ccVT2ggL.s:760    .text._ZN14PeriodicThreadD0Ev:0000000000000044 .L0 
     /tmp/ccVT2ggL.s:763    .text._ZN14PeriodicThreadD0Ev:0000000000000048 .L0 
GAS LISTING /tmp/ccVT2ggL.s 			page 101


     /tmp/ccVT2ggL.s:765    .text._ZN14PeriodicThreadD0Ev:000000000000004c .L0 
     /tmp/ccVT2ggL.s:772    .text._ZN12TestPeriodicD2Ev:0000000000000000 _ZN12TestPeriodicD2Ev
     /tmp/ccVT2ggL.s:776    .text._ZN12TestPeriodicD2Ev:0000000000000000 .L0 
     /tmp/ccVT2ggL.s:778    .text._ZN12TestPeriodicD2Ev:0000000000000000 .L0 
     /tmp/ccVT2ggL.s:779    .text._ZN12TestPeriodicD2Ev:0000000000000004 .L0 
     /tmp/ccVT2ggL.s:782    .text._ZN12TestPeriodicD2Ev:000000000000000c .L0 
     /tmp/ccVT2ggL.s:783    .text._ZN12TestPeriodicD2Ev:000000000000000c .L0 
     /tmp/ccVT2ggL.s:785    .text._ZN12TestPeriodicD2Ev:0000000000000010 .L0 
     /tmp/ccVT2ggL.s:790    .text._ZN12TestPeriodicD2Ev:0000000000000010 .L0 
     /tmp/ccVT2ggL.s:797    .text._ZN12TestPeriodicD2Ev:0000000000000024 .L0 
     /tmp/ccVT2ggL.s:798    .text._ZN12TestPeriodicD2Ev:0000000000000028 .L0 
     /tmp/ccVT2ggL.s:800    .text._ZN12TestPeriodicD2Ev:000000000000002c .L0 
     /tmp/ccVT2ggL.s:801    .text._ZN12TestPeriodicD2Ev:000000000000002c .L0 
     /tmp/ccVT2ggL.s:803    .text._ZN12TestPeriodicD2Ev:0000000000000030 .L0 
     /tmp/ccVT2ggL.s:805    .text._ZN12TestPeriodicD2Ev:0000000000000034 .L0 
     /tmp/ccVT2ggL.s:772    .text._ZN12TestPeriodicD2Ev:0000000000000000 _ZN12TestPeriodicD1Ev
     /tmp/ccVT2ggL.s:814    .text._ZN12TestPeriodicD0Ev:0000000000000000 _ZN12TestPeriodicD0Ev
     /tmp/ccVT2ggL.s:817    .text._ZN12TestPeriodicD0Ev:0000000000000000 .L0 
     /tmp/ccVT2ggL.s:819    .text._ZN12TestPeriodicD0Ev:0000000000000000 .L0 
     /tmp/ccVT2ggL.s:820    .text._ZN12TestPeriodicD0Ev:0000000000000004 .L0 
     /tmp/ccVT2ggL.s:824    .text._ZN12TestPeriodicD0Ev:0000000000000010 .L0 
     /tmp/ccVT2ggL.s:825    .text._ZN12TestPeriodicD0Ev:0000000000000010 .L0 
     /tmp/ccVT2ggL.s:826    .text._ZN12TestPeriodicD0Ev:0000000000000010 .L0 
     /tmp/ccVT2ggL.s:828    .text._ZN12TestPeriodicD0Ev:0000000000000014 .L0 
     /tmp/ccVT2ggL.s:835    .text._ZN12TestPeriodicD0Ev:0000000000000018 .L0 
     /tmp/ccVT2ggL.s:843    .text._ZN12TestPeriodicD0Ev:000000000000002c .L0 
     /tmp/ccVT2ggL.s:847    .text._ZN12TestPeriodicD0Ev:000000000000003c .L0 
     /tmp/ccVT2ggL.s:849    .text._ZN12TestPeriodicD0Ev:0000000000000040 .L0 
     /tmp/ccVT2ggL.s:850    .text._ZN12TestPeriodicD0Ev:0000000000000040 .L0 
     /tmp/ccVT2ggL.s:852    .text._ZN12TestPeriodicD0Ev:0000000000000044 .L0 
     /tmp/ccVT2ggL.s:855    .text._ZN12TestPeriodicD0Ev:0000000000000048 .L0 
     /tmp/ccVT2ggL.s:857    .text._ZN12TestPeriodicD0Ev:000000000000004c .L0 
     /tmp/ccVT2ggL.s:871    .text:0000000000000408 _Z11threadTest1v
     /tmp/ccVT2ggL.s:874    .text:0000000000000408 .L0 
     /tmp/ccVT2ggL.s:11956  .data.rel.local.DW.ref.__gxx_personality_v0:0000000000000000 DW.ref.__gxx_personality_v0
     /tmp/ccVT2ggL.s:877    .text:0000000000000408 .L0 
     /tmp/ccVT2ggL.s:878    .text:000000000000040c .L0 
     /tmp/ccVT2ggL.s:883    .text:000000000000041c .L0 
     /tmp/ccVT2ggL.s:884    .text:000000000000041c .L0 
     /tmp/ccVT2ggL.s:885    .text:000000000000041c .L0 
     /tmp/ccVT2ggL.s:886    .text:000000000000041c .L0 
     /tmp/ccVT2ggL.s:888    .text:0000000000000420 .L0 
     /tmp/ccVT2ggL.s:890    .text:0000000000000420 .L0 
     /tmp/ccVT2ggL.s:891    .text:0000000000000420 .L0 
     /tmp/ccVT2ggL.s:904    .text:0000000000000444 .L0 
     /tmp/ccVT2ggL.s:905    .text:0000000000000444 .L0 
     /tmp/ccVT2ggL.s:910    .text:0000000000000450 .L0 
     /tmp/ccVT2ggL.s:911    .text:0000000000000450 .L0 
     /tmp/ccVT2ggL.s:923    .text:0000000000000474 .L0 
     /tmp/ccVT2ggL.s:924    .text:0000000000000474 .L0 
     /tmp/ccVT2ggL.s:929    .text:0000000000000480 .L0 
     /tmp/ccVT2ggL.s:930    .text:0000000000000480 .L0 
     /tmp/ccVT2ggL.s:935    .text:000000000000048c .L0 
     /tmp/ccVT2ggL.s:936    .text:000000000000048c .L0 
     /tmp/ccVT2ggL.s:940    .text:000000000000049c .L0 
     /tmp/ccVT2ggL.s:941    .text:000000000000049c .L0 
     /tmp/ccVT2ggL.s:945    .text:00000000000004a4 .L0 
GAS LISTING /tmp/ccVT2ggL.s 			page 102


     /tmp/ccVT2ggL.s:946    .text:00000000000004a4 .L0 
     /tmp/ccVT2ggL.s:947    .text:00000000000004a4 .L0 
     /tmp/ccVT2ggL.s:953    .text:00000000000004a8 .L0 
     /tmp/ccVT2ggL.s:954    .text:00000000000004a8 .L0 
     /tmp/ccVT2ggL.s:959    .text:00000000000004ac .L0 
     /tmp/ccVT2ggL.s:962    .text:00000000000004b4 .L0 
     /tmp/ccVT2ggL.s:967    .text:00000000000004b8 .L0 
     /tmp/ccVT2ggL.s:968    .text:00000000000004b8 .L0 
     /tmp/ccVT2ggL.s:973    .text:00000000000004bc .L0 
     /tmp/ccVT2ggL.s:976    .text:00000000000004c4 .L0 
     /tmp/ccVT2ggL.s:977    .text:00000000000004c4 .L0 
     /tmp/ccVT2ggL.s:981    .text:00000000000004d4 .L0 
     /tmp/ccVT2ggL.s:982    .text:00000000000004d4 .L0 
     /tmp/ccVT2ggL.s:986    .text:00000000000004dc .L0 
     /tmp/ccVT2ggL.s:987    .text:00000000000004e0 .L0 
     /tmp/ccVT2ggL.s:988    .text:00000000000004e0 .L0 
     /tmp/ccVT2ggL.s:990    .text:00000000000004e4 .L0 
     /tmp/ccVT2ggL.s:991    .text:00000000000004e4 .L0 
     /tmp/ccVT2ggL.s:993    .text:00000000000004e8 .L0 
     /tmp/ccVT2ggL.s:996    .text:00000000000004ec .L0 
     /tmp/ccVT2ggL.s:999    .text:00000000000004f0 .L0 
     /tmp/ccVT2ggL.s:1002   .text:00000000000004f4 .L0 
     /tmp/ccVT2ggL.s:1005   .text:00000000000004f8 .L0 
     /tmp/ccVT2ggL.s:1017   .text:0000000000000514 .L0 
     /tmp/ccVT2ggL.s:1025   .text:000000000000052c .L0 
     /tmp/ccVT2ggL.s:1067   .text:000000000000052c _Z11threadTest2v
     /tmp/ccVT2ggL.s:1070   .text:000000000000052c .L0 
     /tmp/ccVT2ggL.s:1073   .text:000000000000052c .L0 
     /tmp/ccVT2ggL.s:1074   .text:0000000000000530 .L0 
     /tmp/ccVT2ggL.s:1079   .text:0000000000000540 .L0 
     /tmp/ccVT2ggL.s:1080   .text:0000000000000540 .L0 
     /tmp/ccVT2ggL.s:1081   .text:0000000000000540 .L0 
     /tmp/ccVT2ggL.s:1082   .text:0000000000000540 .L0 
     /tmp/ccVT2ggL.s:1084   .text:0000000000000544 .L0 
     /tmp/ccVT2ggL.s:1086   .text:0000000000000544 .L0 
     /tmp/ccVT2ggL.s:1087   .text:0000000000000544 .L0 
     /tmp/ccVT2ggL.s:1100   .text:0000000000000568 .L0 
     /tmp/ccVT2ggL.s:1101   .text:0000000000000568 .L0 
     /tmp/ccVT2ggL.s:1106   .text:0000000000000574 .L0 
     /tmp/ccVT2ggL.s:1107   .text:0000000000000574 .L0 
     /tmp/ccVT2ggL.s:1119   .text:0000000000000598 .L0 
     /tmp/ccVT2ggL.s:1120   .text:0000000000000598 .L0 
     /tmp/ccVT2ggL.s:1125   .text:00000000000005a4 .L0 
     /tmp/ccVT2ggL.s:1126   .text:00000000000005a4 .L0 
     /tmp/ccVT2ggL.s:1139   .text:00000000000005c8 .L0 
     /tmp/ccVT2ggL.s:1140   .text:00000000000005c8 .L0 
     /tmp/ccVT2ggL.s:1145   .text:00000000000005d4 .L0 
     /tmp/ccVT2ggL.s:1146   .text:00000000000005d4 .L0 
     /tmp/ccVT2ggL.s:1150   .text:00000000000005dc .L0 
     /tmp/ccVT2ggL.s:1151   .text:00000000000005dc .L0 
     /tmp/ccVT2ggL.s:1152   .text:00000000000005dc .L0 
     /tmp/ccVT2ggL.s:1157   .text:00000000000005e0 .L0 
     /tmp/ccVT2ggL.s:1158   .text:00000000000005e0 .L0 
     /tmp/ccVT2ggL.s:1163   .text:00000000000005e4 .L0 
     /tmp/ccVT2ggL.s:1166   .text:00000000000005ec .L0 
     /tmp/ccVT2ggL.s:1167   .text:00000000000005ec .L0 
     /tmp/ccVT2ggL.s:1171   .text:00000000000005fc .L0 
GAS LISTING /tmp/ccVT2ggL.s 			page 103


     /tmp/ccVT2ggL.s:1172   .text:00000000000005fc .L0 
     /tmp/ccVT2ggL.s:1176   .text:0000000000000604 .L0 
     /tmp/ccVT2ggL.s:1177   .text:0000000000000608 .L0 
     /tmp/ccVT2ggL.s:1178   .text:0000000000000608 .L0 
     /tmp/ccVT2ggL.s:1180   .text:000000000000060c .L0 
     /tmp/ccVT2ggL.s:1181   .text:000000000000060c .L0 
     /tmp/ccVT2ggL.s:1183   .text:0000000000000610 .L0 
     /tmp/ccVT2ggL.s:1186   .text:0000000000000614 .L0 
     /tmp/ccVT2ggL.s:1189   .text:0000000000000618 .L0 
     /tmp/ccVT2ggL.s:1192   .text:000000000000061c .L0 
     /tmp/ccVT2ggL.s:1195   .text:0000000000000620 .L0 
     /tmp/ccVT2ggL.s:1207   .text:000000000000063c .L0 
     /tmp/ccVT2ggL.s:1219   .text:0000000000000658 .L0 
     /tmp/ccVT2ggL.s:1227   .text:0000000000000670 .L0 
     /tmp/ccVT2ggL.s:1291   .text:0000000000000670 _Z10mallocFreev
     /tmp/ccVT2ggL.s:1294   .text:0000000000000670 .L0 
     /tmp/ccVT2ggL.s:1295   .text:0000000000000670 .L0 
     /tmp/ccVT2ggL.s:1296   .text:0000000000000674 .L0 
     /tmp/ccVT2ggL.s:1300   .text:0000000000000680 .L0 
     /tmp/ccVT2ggL.s:1301   .text:0000000000000680 .L0 
     /tmp/ccVT2ggL.s:1302   .text:0000000000000680 .L0 
     /tmp/ccVT2ggL.s:1304   .text:0000000000000684 .L0 
     /tmp/ccVT2ggL.s:1306   .text:0000000000000684 .L0 
     /tmp/ccVT2ggL.s:1307   .text:0000000000000684 .L0 
     /tmp/ccVT2ggL.s:1312   .text:0000000000000694 .L0 
     /tmp/ccVT2ggL.s:1317   .text:000000000000069c .L0 
     /tmp/ccVT2ggL.s:1321   .text:00000000000006a0 .L0 
     /tmp/ccVT2ggL.s:1324   .text:00000000000006a8 .L0 
     /tmp/ccVT2ggL.s:1325   .text:00000000000006a8 .L0 
     /tmp/ccVT2ggL.s:1329   .text:00000000000006b4 .L0 
     /tmp/ccVT2ggL.s:1334   .text:00000000000006c4 .L0 
     /tmp/ccVT2ggL.s:1336   .text:00000000000006c8 .L0 
     /tmp/ccVT2ggL.s:1337   .text:00000000000006c8 .L0 
     /tmp/ccVT2ggL.s:1343   .text:00000000000006d8 .L0 
     /tmp/ccVT2ggL.s:1344   .text:00000000000006d8 .L0 
     /tmp/ccVT2ggL.s:1345   .text:00000000000006dc .L0 
     /tmp/ccVT2ggL.s:1346   .text:00000000000006dc .L0 
     /tmp/ccVT2ggL.s:1348   .text:00000000000006e0 .L0 
     /tmp/ccVT2ggL.s:1349   .text:00000000000006e0 .L0 
     /tmp/ccVT2ggL.s:1351   .text:00000000000006e4 .L0 
     /tmp/ccVT2ggL.s:1353   .text:00000000000006e8 .L0 
     /tmp/ccVT2ggL.s:1357   .text:00000000000006ec .L0 
     /tmp/ccVT2ggL.s:1360   .text:00000000000006ec .L0 
     /tmp/ccVT2ggL.s:1364   .text:00000000000006f0 .L0 
     /tmp/ccVT2ggL.s:1368   .text:00000000000006f8 .L0 
     /tmp/ccVT2ggL.s:1369   .text:00000000000006f8 .L0 
     /tmp/ccVT2ggL.s:1376   .text:0000000000000710 .L0 
     /tmp/ccVT2ggL.s:1379   .text:0000000000000714 .L0 
     /tmp/ccVT2ggL.s:1380   .text:0000000000000714 .L0 
     /tmp/ccVT2ggL.s:1383   .text:0000000000000718 .L0 
     /tmp/ccVT2ggL.s:1388   .text:000000000000071c .L0 
     /tmp/ccVT2ggL.s:1389   .text:000000000000071c .L0 
     /tmp/ccVT2ggL.s:1394   .text:000000000000072c .L0 
     /tmp/ccVT2ggL.s:1400   .text:0000000000000730 .L0 
     /tmp/ccVT2ggL.s:1406   .text:0000000000000738 .L0 
     /tmp/ccVT2ggL.s:1407   .text:0000000000000738 .L0 
     /tmp/ccVT2ggL.s:1411   .text:000000000000073c .L0 
GAS LISTING /tmp/ccVT2ggL.s 			page 104


     /tmp/ccVT2ggL.s:1414   .text:0000000000000744 .L0 
     /tmp/ccVT2ggL.s:1415   .text:0000000000000744 .L0 
     /tmp/ccVT2ggL.s:1419   .text:0000000000000750 .L0 
     /tmp/ccVT2ggL.s:1424   .text:0000000000000760 .L0 
     /tmp/ccVT2ggL.s:1426   .text:0000000000000764 .L0 
     /tmp/ccVT2ggL.s:1427   .text:0000000000000764 .L0 
     /tmp/ccVT2ggL.s:1431   .text:0000000000000774 .L0 
     /tmp/ccVT2ggL.s:1436   .text:0000000000000778 .L0 
     /tmp/ccVT2ggL.s:1440   .text:000000000000077c .L0 
     /tmp/ccVT2ggL.s:1444   .text:0000000000000784 .L0 
     /tmp/ccVT2ggL.s:1445   .text:0000000000000784 .L0 
     /tmp/ccVT2ggL.s:1452   .text:000000000000079c .L0 
     /tmp/ccVT2ggL.s:1455   .text:00000000000007a0 .L0 
     /tmp/ccVT2ggL.s:1462   .text:00000000000007a8 .L0 
     /tmp/ccVT2ggL.s:1463   .text:00000000000007a8 .L0 
     /tmp/ccVT2ggL.s:1468   .text:00000000000007b8 .L0 
     /tmp/ccVT2ggL.s:1473   .text:00000000000007bc .L0 
     /tmp/ccVT2ggL.s:1474   .text:00000000000007bc .L0 
     /tmp/ccVT2ggL.s:1478   .text:00000000000007d0 .L0 
     /tmp/ccVT2ggL.s:1489   .text:00000000000007d0 _Z9bigMallocv
     /tmp/ccVT2ggL.s:1492   .text:00000000000007d0 .L0 
     /tmp/ccVT2ggL.s:1493   .text:00000000000007d0 .L0 
     /tmp/ccVT2ggL.s:1494   .text:00000000000007d4 .L0 
     /tmp/ccVT2ggL.s:1497   .text:00000000000007dc .L0 
     /tmp/ccVT2ggL.s:1498   .text:00000000000007dc .L0 
     /tmp/ccVT2ggL.s:1500   .text:00000000000007e0 .L0 
     /tmp/ccVT2ggL.s:1502   .text:00000000000007e0 .L0 
     /tmp/ccVT2ggL.s:1503   .text:00000000000007e0 .L0 
     /tmp/ccVT2ggL.s:1507   .text:00000000000007f0 .L0 
     /tmp/ccVT2ggL.s:1508   .text:00000000000007f0 .L0 
     /tmp/ccVT2ggL.s:1515   .text:000000000000080c .L0 
     /tmp/ccVT2ggL.s:1516   .text:000000000000080c .L0 
     /tmp/ccVT2ggL.s:1521   .text:0000000000000818 .L0 
     /tmp/ccVT2ggL.s:1523   .text:000000000000081c .L0 
     /tmp/ccVT2ggL.s:1524   .text:000000000000081c .L0 
     /tmp/ccVT2ggL.s:1530   .text:000000000000082c .L0 
     /tmp/ccVT2ggL.s:1531   .text:0000000000000830 .L0 
     /tmp/ccVT2ggL.s:1532   .text:0000000000000830 .L0 
     /tmp/ccVT2ggL.s:1534   .text:0000000000000834 .L0 
     /tmp/ccVT2ggL.s:1535   .text:0000000000000834 .L0 
     /tmp/ccVT2ggL.s:1537   .text:0000000000000838 .L0 
     /tmp/ccVT2ggL.s:1541   .text:000000000000083c .L0 
     /tmp/ccVT2ggL.s:1543   .text:000000000000083c .L0 
     /tmp/ccVT2ggL.s:1544   .text:000000000000083c .L0 
     /tmp/ccVT2ggL.s:1549   .text:0000000000000850 .L0 
     /tmp/ccVT2ggL.s:1560   .text:0000000000000850 _Z17lotOfSmallMallocsv
     /tmp/ccVT2ggL.s:1563   .text:0000000000000850 .L0 
     /tmp/ccVT2ggL.s:1564   .text:0000000000000850 .L0 
     /tmp/ccVT2ggL.s:1565   .text:0000000000000854 .L0 
     /tmp/ccVT2ggL.s:1571   .text:0000000000000868 .L0 
     /tmp/ccVT2ggL.s:1572   .text:0000000000000868 .L0 
     /tmp/ccVT2ggL.s:1573   .text:0000000000000868 .L0 
     /tmp/ccVT2ggL.s:1574   .text:0000000000000868 .L0 
     /tmp/ccVT2ggL.s:1575   .text:0000000000000868 .L0 
     /tmp/ccVT2ggL.s:1577   .text:000000000000086c .L0 
     /tmp/ccVT2ggL.s:1579   .text:000000000000086c .L0 
     /tmp/ccVT2ggL.s:1580   .text:000000000000086c .L0 
GAS LISTING /tmp/ccVT2ggL.s 			page 105


     /tmp/ccVT2ggL.s:1584   .text:000000000000087c .L0 
     /tmp/ccVT2ggL.s:1585   .text:000000000000087c .L0 
     /tmp/ccVT2ggL.s:1586   .text:000000000000087c .L0 
     /tmp/ccVT2ggL.s:1587   .text:000000000000087c .L0 
     /tmp/ccVT2ggL.s:1589   .text:000000000000087c .L0 
     /tmp/ccVT2ggL.s:1590   .text:000000000000087c .L0 
     /tmp/ccVT2ggL.s:1593   .text:0000000000000880 .L0 
     /tmp/ccVT2ggL.s:1595   .text:0000000000000884 .L0 
     /tmp/ccVT2ggL.s:1602   .text:000000000000088c .L0 
     /tmp/ccVT2ggL.s:1603   .text:000000000000088c .L0 
     /tmp/ccVT2ggL.s:1606   .text:0000000000000894 .L0 
     /tmp/ccVT2ggL.s:1607   .text:0000000000000894 .L0 
     /tmp/ccVT2ggL.s:1610   .text:0000000000000898 .L0 
     /tmp/ccVT2ggL.s:1611   .text:0000000000000898 .L0 
     /tmp/ccVT2ggL.s:1615   .text:000000000000089c .L0 
     /tmp/ccVT2ggL.s:1619   .text:00000000000008a0 .L0 
     /tmp/ccVT2ggL.s:1624   .text:00000000000008ac .L0 
     /tmp/ccVT2ggL.s:1625   .text:00000000000008ac .L0 
     /tmp/ccVT2ggL.s:1629   .text:00000000000008b8 .L0 
     /tmp/ccVT2ggL.s:1635   .text:00000000000008bc .L0 
     /tmp/ccVT2ggL.s:1636   .text:00000000000008bc .L0 
     /tmp/ccVT2ggL.s:1640   .text:00000000000008c8 .L0 
     /tmp/ccVT2ggL.s:1641   .text:00000000000008c8 .L0 
     /tmp/ccVT2ggL.s:1645   .text:00000000000008d8 .L0 
     /tmp/ccVT2ggL.s:1646   .text:00000000000008d8 .L0 
     /tmp/ccVT2ggL.s:1651   .text:00000000000008e4 .L0 
     /tmp/ccVT2ggL.s:1653   .text:00000000000008e8 .L0 
     /tmp/ccVT2ggL.s:1654   .text:00000000000008e8 .L0 
     /tmp/ccVT2ggL.s:1659   .text:00000000000008f8 .L0 
     /tmp/ccVT2ggL.s:1660   .text:00000000000008fc .L0 
     /tmp/ccVT2ggL.s:1661   .text:00000000000008fc .L0 
     /tmp/ccVT2ggL.s:1663   .text:0000000000000900 .L0 
     /tmp/ccVT2ggL.s:1664   .text:0000000000000900 .L0 
     /tmp/ccVT2ggL.s:1666   .text:0000000000000904 .L0 
     /tmp/ccVT2ggL.s:1669   .text:0000000000000908 .L0 
     /tmp/ccVT2ggL.s:1671   .text:000000000000090c .L0 
     /tmp/ccVT2ggL.s:1674   .text:0000000000000910 .L0 
     /tmp/ccVT2ggL.s:1678   .text:0000000000000914 .L0 
     /tmp/ccVT2ggL.s:1680   .text:0000000000000914 .L0 
     /tmp/ccVT2ggL.s:1681   .text:0000000000000914 .L0 
     /tmp/ccVT2ggL.s:1685   .text:0000000000000928 .L0 
     /tmp/ccVT2ggL.s:1696   .text:0000000000000928 _Z7badFreev
     /tmp/ccVT2ggL.s:1699   .text:0000000000000928 .L0 
     /tmp/ccVT2ggL.s:1700   .text:0000000000000928 .L0 
     /tmp/ccVT2ggL.s:1701   .text:000000000000092c .L0 
     /tmp/ccVT2ggL.s:1704   .text:0000000000000934 .L0 
     /tmp/ccVT2ggL.s:1705   .text:0000000000000934 .L0 
     /tmp/ccVT2ggL.s:1707   .text:0000000000000938 .L0 
     /tmp/ccVT2ggL.s:1709   .text:0000000000000938 .L0 
     /tmp/ccVT2ggL.s:1710   .text:0000000000000938 .L0 
     /tmp/ccVT2ggL.s:1714   .text:0000000000000948 .L0 
     /tmp/ccVT2ggL.s:1715   .text:0000000000000948 .L0 
     /tmp/ccVT2ggL.s:1719   .text:0000000000000954 .L0 
     /tmp/ccVT2ggL.s:1720   .text:0000000000000954 .L0 
     /tmp/ccVT2ggL.s:1725   .text:0000000000000960 .L0 
     /tmp/ccVT2ggL.s:1727   .text:0000000000000964 .L0 
     /tmp/ccVT2ggL.s:1728   .text:0000000000000964 .L0 
GAS LISTING /tmp/ccVT2ggL.s 			page 106


     /tmp/ccVT2ggL.s:1734   .text:0000000000000974 .L0 
     /tmp/ccVT2ggL.s:1735   .text:0000000000000978 .L0 
     /tmp/ccVT2ggL.s:1736   .text:0000000000000978 .L0 
     /tmp/ccVT2ggL.s:1738   .text:000000000000097c .L0 
     /tmp/ccVT2ggL.s:1739   .text:000000000000097c .L0 
     /tmp/ccVT2ggL.s:1741   .text:0000000000000980 .L0 
     /tmp/ccVT2ggL.s:1745   .text:0000000000000984 .L0 
     /tmp/ccVT2ggL.s:1747   .text:0000000000000984 .L0 
     /tmp/ccVT2ggL.s:1748   .text:0000000000000984 .L0 
     /tmp/ccVT2ggL.s:1753   .text:0000000000000994 .L0 
     /tmp/ccVT2ggL.s:1754   .text:0000000000000998 .L0 
     /tmp/ccVT2ggL.s:1765   .text:0000000000000998 _Z13stressTestingv
     /tmp/ccVT2ggL.s:1768   .text:0000000000000998 .L0 
     /tmp/ccVT2ggL.s:1769   .text:0000000000000998 .L0 
     /tmp/ccVT2ggL.s:1770   .text:000000000000099c .L0 
     /tmp/ccVT2ggL.s:1775   .text:00000000000009ac .L0 
     /tmp/ccVT2ggL.s:1776   .text:00000000000009ac .L0 
     /tmp/ccVT2ggL.s:1777   .text:00000000000009ac .L0 
     /tmp/ccVT2ggL.s:1778   .text:00000000000009ac .L0 
     /tmp/ccVT2ggL.s:1780   .text:00000000000009b0 .L0 
     /tmp/ccVT2ggL.s:1782   .text:00000000000009b0 .L0 
     /tmp/ccVT2ggL.s:1783   .text:00000000000009b0 .L0 
     /tmp/ccVT2ggL.s:1788   .text:00000000000009c0 .L0 
     /tmp/ccVT2ggL.s:1793   .text:00000000000009c8 .L0 
     /tmp/ccVT2ggL.s:1797   .text:00000000000009cc .L0 
     /tmp/ccVT2ggL.s:1800   .text:00000000000009d4 .L0 
     /tmp/ccVT2ggL.s:1801   .text:00000000000009d4 .L0 
     /tmp/ccVT2ggL.s:1805   .text:00000000000009e0 .L0 
     /tmp/ccVT2ggL.s:1810   .text:00000000000009f0 .L0 
     /tmp/ccVT2ggL.s:1815   .text:00000000000009f4 .L0 
     /tmp/ccVT2ggL.s:1816   .text:00000000000009f8 .L0 
     /tmp/ccVT2ggL.s:1817   .text:00000000000009f8 .L0 
     /tmp/ccVT2ggL.s:1819   .text:00000000000009fc .L0 
     /tmp/ccVT2ggL.s:1820   .text:00000000000009fc .L0 
     /tmp/ccVT2ggL.s:1822   .text:0000000000000a00 .L0 
     /tmp/ccVT2ggL.s:1824   .text:0000000000000a04 .L0 
     /tmp/ccVT2ggL.s:1826   .text:0000000000000a08 .L0 
     /tmp/ccVT2ggL.s:1830   .text:0000000000000a0c .L0 
     /tmp/ccVT2ggL.s:1832   .text:0000000000000a0c .L0 
     /tmp/ccVT2ggL.s:1836   .text:0000000000000a10 .L0 
     /tmp/ccVT2ggL.s:1837   .text:0000000000000a10 .L0 
     /tmp/ccVT2ggL.s:1841   .text:0000000000000a14 .L0 
     /tmp/ccVT2ggL.s:1845   .text:0000000000000a18 .L0 
     /tmp/ccVT2ggL.s:1849   .text:0000000000000a20 .L0 
     /tmp/ccVT2ggL.s:1850   .text:0000000000000a20 .L0 
     /tmp/ccVT2ggL.s:1857   .text:0000000000000a38 .L0 
     /tmp/ccVT2ggL.s:1859   .text:0000000000000a3c .L0 
     /tmp/ccVT2ggL.s:1860   .text:0000000000000a3c .L0 
     /tmp/ccVT2ggL.s:1864   .text:0000000000000a44 .L0 
     /tmp/ccVT2ggL.s:1868   .text:0000000000000a50 .L0 
     /tmp/ccVT2ggL.s:1873   .text:0000000000000a60 .L0 
     /tmp/ccVT2ggL.s:1876   .text:0000000000000a64 .L0 
     /tmp/ccVT2ggL.s:1877   .text:0000000000000a64 .L0 
     /tmp/ccVT2ggL.s:1880   .text:0000000000000a68 .L0 
     /tmp/ccVT2ggL.s:1886   .text:0000000000000a6c .L0 
     /tmp/ccVT2ggL.s:1890   .text:0000000000000a70 .L0 
     /tmp/ccVT2ggL.s:1894   .text:0000000000000a78 .L0 
GAS LISTING /tmp/ccVT2ggL.s 			page 107


     /tmp/ccVT2ggL.s:1895   .text:0000000000000a78 .L0 
     /tmp/ccVT2ggL.s:1902   .text:0000000000000a90 .L0 
     /tmp/ccVT2ggL.s:1904   .text:0000000000000a94 .L0 
     /tmp/ccVT2ggL.s:1905   .text:0000000000000a94 .L0 
     /tmp/ccVT2ggL.s:1910   .text:0000000000000aa0 .L0 
     /tmp/ccVT2ggL.s:1915   .text:0000000000000ab0 .L0 
     /tmp/ccVT2ggL.s:1918   .text:0000000000000ab4 .L0 
     /tmp/ccVT2ggL.s:1919   .text:0000000000000ab4 .L0 
     /tmp/ccVT2ggL.s:1922   .text:0000000000000ab8 .L0 
     /tmp/ccVT2ggL.s:1927   .text:0000000000000abc .L0 
     /tmp/ccVT2ggL.s:1928   .text:0000000000000abc .L0 
     /tmp/ccVT2ggL.s:1932   .text:0000000000000ac0 .L0 
     /tmp/ccVT2ggL.s:1936   .text:0000000000000ac4 .L0 
     /tmp/ccVT2ggL.s:1937   .text:0000000000000ac4 .L0 
     /tmp/ccVT2ggL.s:1941   .text:0000000000000ad8 .L0 
     /tmp/ccVT2ggL.s:1952   .text:0000000000000ad8 _Z3foov
     /tmp/ccVT2ggL.s:1955   .text:0000000000000ad8 .L0 
     /tmp/ccVT2ggL.s:1956   .text:0000000000000ad8 .L0 
     /tmp/ccVT2ggL.s:1957   .text:0000000000000adc .L0 
     /tmp/ccVT2ggL.s:1961   .text:0000000000000ae8 .L0 
     /tmp/ccVT2ggL.s:1962   .text:0000000000000ae8 .L0 
     /tmp/ccVT2ggL.s:1963   .text:0000000000000ae8 .L0 
     /tmp/ccVT2ggL.s:1965   .text:0000000000000aec .L0 
     /tmp/ccVT2ggL.s:1967   .text:0000000000000aec .L0 
     /tmp/ccVT2ggL.s:1968   .text:0000000000000aec .L0 
     /tmp/ccVT2ggL.s:1973   .text:0000000000000b00 .L0 
     /tmp/ccVT2ggL.s:1974   .text:0000000000000b00 .L0 
     /tmp/ccVT2ggL.s:1978   .text:0000000000000b10 .L0 
     /tmp/ccVT2ggL.s:1979   .text:0000000000000b10 .L0 
     /tmp/ccVT2ggL.s:1983   .text:0000000000000b1c .L0 
     /tmp/ccVT2ggL.s:1984   .text:0000000000000b20 .L0 
     /tmp/ccVT2ggL.s:1986   .text:0000000000000b24 .L0 
     /tmp/ccVT2ggL.s:1987   .text:0000000000000b24 .L0 
     /tmp/ccVT2ggL.s:1989   .text:0000000000000b28 .L0 
     /tmp/ccVT2ggL.s:1991   .text:0000000000000b2c .L0 
     /tmp/ccVT2ggL.s:1993   .text:0000000000000b30 .L0 
     /tmp/ccVT2ggL.s:2004   .text:0000000000000b30 _Z2f1Pv
     /tmp/ccVT2ggL.s:2007   .text:0000000000000b30 .L0 
     /tmp/ccVT2ggL.s:2009   .text:0000000000000b30 .L0 
     /tmp/ccVT2ggL.s:2010   .text:0000000000000b34 .L0 
     /tmp/ccVT2ggL.s:2015   .text:0000000000000b44 .L0 
     /tmp/ccVT2ggL.s:2016   .text:0000000000000b44 .L0 
     /tmp/ccVT2ggL.s:2017   .text:0000000000000b44 .L0 
     /tmp/ccVT2ggL.s:2018   .text:0000000000000b44 .L0 
     /tmp/ccVT2ggL.s:2020   .text:0000000000000b48 .L0 
     /tmp/ccVT2ggL.s:2022   .text:0000000000000b48 .L0 
     /tmp/ccVT2ggL.s:2023   .text:0000000000000b48 .L0 
     /tmp/ccVT2ggL.s:2029   .text:0000000000000b58 .L0 
     /tmp/ccVT2ggL.s:2030   .text:0000000000000b58 .L0 
     /tmp/ccVT2ggL.s:2036   .text:0000000000000b60 .L0 
     /tmp/ccVT2ggL.s:2041   .text:0000000000000b68 .L0 
     /tmp/ccVT2ggL.s:2045   .text:0000000000000b6c .L0 
     /tmp/ccVT2ggL.s:2050   .text:0000000000000b74 .L0 
     /tmp/ccVT2ggL.s:2054   .text:0000000000000b78 .L0 
     /tmp/ccVT2ggL.s:2057   .text:0000000000000b80 .L0 
     /tmp/ccVT2ggL.s:2058   .text:0000000000000b80 .L0 
     /tmp/ccVT2ggL.s:2061   .text:0000000000000b88 .L0 
GAS LISTING /tmp/ccVT2ggL.s 			page 108


     /tmp/ccVT2ggL.s:2068   .text:0000000000000b90 .L0 
     /tmp/ccVT2ggL.s:2069   .text:0000000000000b90 .L0 
     /tmp/ccVT2ggL.s:2077   .text:0000000000000b9c .L0 
     /tmp/ccVT2ggL.s:2078   .text:0000000000000ba0 .L0 
     /tmp/ccVT2ggL.s:2080   .text:0000000000000ba4 .L0 
     /tmp/ccVT2ggL.s:2081   .text:0000000000000ba4 .L0 
     /tmp/ccVT2ggL.s:2083   .text:0000000000000ba8 .L0 
     /tmp/ccVT2ggL.s:2085   .text:0000000000000bac .L0 
     /tmp/ccVT2ggL.s:2088   .text:0000000000000bb0 .L0 
     /tmp/ccVT2ggL.s:2090   .text:0000000000000bb4 .L0 
     /tmp/ccVT2ggL.s:2101   .text:0000000000000bb4 _Z4foo2v
     /tmp/ccVT2ggL.s:2104   .text:0000000000000bb4 .L0 
     /tmp/ccVT2ggL.s:2105   .text:0000000000000bb4 .L0 
     /tmp/ccVT2ggL.s:2106   .text:0000000000000bb8 .L0 
     /tmp/ccVT2ggL.s:2110   .text:0000000000000bc4 .L0 
     /tmp/ccVT2ggL.s:2111   .text:0000000000000bc4 .L0 
     /tmp/ccVT2ggL.s:2112   .text:0000000000000bc4 .L0 
     /tmp/ccVT2ggL.s:2114   .text:0000000000000bc8 .L0 
     /tmp/ccVT2ggL.s:2116   .text:0000000000000bc8 .L0 
     /tmp/ccVT2ggL.s:2117   .text:0000000000000bc8 .L0 
     /tmp/ccVT2ggL.s:2122   .text:0000000000000bdc .L0 
     /tmp/ccVT2ggL.s:2123   .text:0000000000000bdc .L0 
     /tmp/ccVT2ggL.s:2127   .text:0000000000000bec .L0 
     /tmp/ccVT2ggL.s:2128   .text:0000000000000bec .L0 
     /tmp/ccVT2ggL.s:2132   .text:0000000000000bf8 .L0 
     /tmp/ccVT2ggL.s:2133   .text:0000000000000bfc .L0 
     /tmp/ccVT2ggL.s:2135   .text:0000000000000c00 .L0 
     /tmp/ccVT2ggL.s:2136   .text:0000000000000c00 .L0 
     /tmp/ccVT2ggL.s:2138   .text:0000000000000c04 .L0 
     /tmp/ccVT2ggL.s:2140   .text:0000000000000c08 .L0 
     /tmp/ccVT2ggL.s:2142   .text:0000000000000c0c .L0 
     /tmp/ccVT2ggL.s:2153   .text:0000000000000c0c _Z2f2Pv
     /tmp/ccVT2ggL.s:2156   .text:0000000000000c0c .L0 
     /tmp/ccVT2ggL.s:2158   .text:0000000000000c0c .L0 
     /tmp/ccVT2ggL.s:2159   .text:0000000000000c10 .L0 
     /tmp/ccVT2ggL.s:2164   .text:0000000000000c20 .L0 
     /tmp/ccVT2ggL.s:2165   .text:0000000000000c20 .L0 
     /tmp/ccVT2ggL.s:2166   .text:0000000000000c20 .L0 
     /tmp/ccVT2ggL.s:2167   .text:0000000000000c20 .L0 
     /tmp/ccVT2ggL.s:2169   .text:0000000000000c24 .L0 
     /tmp/ccVT2ggL.s:2171   .text:0000000000000c24 .L0 
     /tmp/ccVT2ggL.s:2172   .text:0000000000000c24 .L0 
     /tmp/ccVT2ggL.s:2178   .text:0000000000000c34 .L0 
     /tmp/ccVT2ggL.s:2179   .text:0000000000000c34 .L0 
     /tmp/ccVT2ggL.s:2183   .text:0000000000000c38 .L0 
     /tmp/ccVT2ggL.s:2187   .text:0000000000000c3c .L0 
     /tmp/ccVT2ggL.s:2191   .text:0000000000000c40 .L0 
     /tmp/ccVT2ggL.s:2194   .text:0000000000000c48 .L0 
     /tmp/ccVT2ggL.s:2195   .text:0000000000000c48 .L0 
     /tmp/ccVT2ggL.s:2198   .text:0000000000000c50 .L0 
     /tmp/ccVT2ggL.s:2205   .text:0000000000000c58 .L0 
     /tmp/ccVT2ggL.s:2210   .text:0000000000000c60 .L0 
     /tmp/ccVT2ggL.s:2217   .text:0000000000000c68 .L0 
     /tmp/ccVT2ggL.s:2218   .text:0000000000000c68 .L0 
     /tmp/ccVT2ggL.s:2226   .text:0000000000000c74 .L0 
     /tmp/ccVT2ggL.s:2227   .text:0000000000000c78 .L0 
     /tmp/ccVT2ggL.s:2229   .text:0000000000000c7c .L0 
GAS LISTING /tmp/ccVT2ggL.s 			page 109


     /tmp/ccVT2ggL.s:2230   .text:0000000000000c7c .L0 
     /tmp/ccVT2ggL.s:2232   .text:0000000000000c80 .L0 
     /tmp/ccVT2ggL.s:2234   .text:0000000000000c84 .L0 
     /tmp/ccVT2ggL.s:2237   .text:0000000000000c88 .L0 
     /tmp/ccVT2ggL.s:2239   .text:0000000000000c8c .L0 
     /tmp/ccVT2ggL.s:2245   .text:0000000000000c8c _Z8semTest1v
     /tmp/ccVT2ggL.s:2248   .text:0000000000000c8c .L0 
     /tmp/ccVT2ggL.s:2251   .text:0000000000000c8c .L0 
     /tmp/ccVT2ggL.s:2252   .text:0000000000000c90 .L0 
     /tmp/ccVT2ggL.s:2258   .text:0000000000000ca4 .L0 
     /tmp/ccVT2ggL.s:2259   .text:0000000000000ca4 .L0 
     /tmp/ccVT2ggL.s:2260   .text:0000000000000ca4 .L0 
     /tmp/ccVT2ggL.s:2261   .text:0000000000000ca4 .L0 
     /tmp/ccVT2ggL.s:2262   .text:0000000000000ca4 .L0 
     /tmp/ccVT2ggL.s:2264   .text:0000000000000ca8 .L0 
     /tmp/ccVT2ggL.s:2266   .text:0000000000000ca8 .L0 
     /tmp/ccVT2ggL.s:2267   .text:0000000000000ca8 .L0 
     /tmp/ccVT2ggL.s:2279   .text:0000000000000cc4 .L0 
     /tmp/ccVT2ggL.s:2280   .text:0000000000000cc4 .L0 
     /tmp/ccVT2ggL.s:2292   .text:0000000000000ce0 .L0 
     /tmp/ccVT2ggL.s:2294   .text:0000000000000ce8 .L0 
     /tmp/ccVT2ggL.s:2295   .text:0000000000000ce8 .L0 
     /tmp/ccVT2ggL.s:2307   .text:0000000000000d04 .L0 
     /tmp/ccVT2ggL.s:2309   .text:0000000000000d0c .L0 
     /tmp/ccVT2ggL.s:2310   .text:0000000000000d0c .L0 
     /tmp/ccVT2ggL.s:2323   .text:0000000000000d30 .L0 
     /tmp/ccVT2ggL.s:2324   .text:0000000000000d30 .L0 
     /tmp/ccVT2ggL.s:2337   .text:0000000000000d54 .L0 
     /tmp/ccVT2ggL.s:2338   .text:0000000000000d54 .L0 
     /tmp/ccVT2ggL.s:2343   .text:0000000000000d60 .L0 
     /tmp/ccVT2ggL.s:2344   .text:0000000000000d60 .L0 
     /tmp/ccVT2ggL.s:2348   .text:0000000000000d6c .L0 
     /tmp/ccVT2ggL.s:2349   .text:0000000000000d6c .L0 
     /tmp/ccVT2ggL.s:2353   .text:0000000000000d74 .L0 
     /tmp/ccVT2ggL.s:2354   .text:0000000000000d74 .L0 
     /tmp/ccVT2ggL.s:2355   .text:0000000000000d74 .L0 
     /tmp/ccVT2ggL.s:2359   .text:0000000000000d7c .L0 
     /tmp/ccVT2ggL.s:2364   .text:0000000000000d84 .L0 
     /tmp/ccVT2ggL.s:2375   .text:0000000000000da0 .L0 
     /tmp/ccVT2ggL.s:2386   .text:0000000000000dbc .L0 
     /tmp/ccVT2ggL.s:2397   .text:0000000000000dd8 .L0 
     /tmp/ccVT2ggL.s:2408   .text:0000000000000df4 .L0 
     /tmp/ccVT2ggL.s:2416   .text:0000000000000e0c .L0 
     /tmp/ccVT2ggL.s:2493   .text:0000000000000e0c _Z8semTest2v
     /tmp/ccVT2ggL.s:2496   .text:0000000000000e0c .L0 
     /tmp/ccVT2ggL.s:2499   .text:0000000000000e0c .L0 
     /tmp/ccVT2ggL.s:2500   .text:0000000000000e10 .L0 
     /tmp/ccVT2ggL.s:2506   .text:0000000000000e24 .L0 
     /tmp/ccVT2ggL.s:2507   .text:0000000000000e24 .L0 
     /tmp/ccVT2ggL.s:2508   .text:0000000000000e24 .L0 
     /tmp/ccVT2ggL.s:2509   .text:0000000000000e24 .L0 
     /tmp/ccVT2ggL.s:2510   .text:0000000000000e24 .L0 
     /tmp/ccVT2ggL.s:2512   .text:0000000000000e28 .L0 
     /tmp/ccVT2ggL.s:2514   .text:0000000000000e28 .L0 
     /tmp/ccVT2ggL.s:2515   .text:0000000000000e28 .L0 
     /tmp/ccVT2ggL.s:2527   .text:0000000000000e44 .L0 
     /tmp/ccVT2ggL.s:2529   .text:0000000000000e4c .L0 
GAS LISTING /tmp/ccVT2ggL.s 			page 110


     /tmp/ccVT2ggL.s:2530   .text:0000000000000e4c .L0 
     /tmp/ccVT2ggL.s:2542   .text:0000000000000e68 .L0 
     /tmp/ccVT2ggL.s:2544   .text:0000000000000e70 .L0 
     /tmp/ccVT2ggL.s:2545   .text:0000000000000e70 .L0 
     /tmp/ccVT2ggL.s:2557   .text:0000000000000e8c .L0 
     /tmp/ccVT2ggL.s:2559   .text:0000000000000e94 .L0 
     /tmp/ccVT2ggL.s:2560   .text:0000000000000e94 .L0 
     /tmp/ccVT2ggL.s:2573   .text:0000000000000eb8 .L0 
     /tmp/ccVT2ggL.s:2574   .text:0000000000000eb8 .L0 
     /tmp/ccVT2ggL.s:2587   .text:0000000000000edc .L0 
     /tmp/ccVT2ggL.s:2588   .text:0000000000000edc .L0 
     /tmp/ccVT2ggL.s:2601   .text:0000000000000f00 .L0 
     /tmp/ccVT2ggL.s:2602   .text:0000000000000f00 .L0 
     /tmp/ccVT2ggL.s:2607   .text:0000000000000f0c .L0 
     /tmp/ccVT2ggL.s:2608   .text:0000000000000f0c .L0 
     /tmp/ccVT2ggL.s:2612   .text:0000000000000f18 .L0 
     /tmp/ccVT2ggL.s:2613   .text:0000000000000f18 .L0 
     /tmp/ccVT2ggL.s:2617   .text:0000000000000f24 .L0 
     /tmp/ccVT2ggL.s:2618   .text:0000000000000f24 .L0 
     /tmp/ccVT2ggL.s:2622   .text:0000000000000f28 .L0 
     /tmp/ccVT2ggL.s:2623   .text:0000000000000f28 .L0 
     /tmp/ccVT2ggL.s:2624   .text:0000000000000f28 .L0 
     /tmp/ccVT2ggL.s:2627   .text:0000000000000f2c .L0 
     /tmp/ccVT2ggL.s:2628   .text:0000000000000f2c .L0 
     /tmp/ccVT2ggL.s:2632   .text:0000000000000f34 .L0 
     /tmp/ccVT2ggL.s:2636   .text:0000000000000f40 .L0 
     /tmp/ccVT2ggL.s:2637   .text:0000000000000f44 .L0 
     /tmp/ccVT2ggL.s:2638   .text:0000000000000f44 .L0 
     /tmp/ccVT2ggL.s:2640   .text:0000000000000f48 .L0 
     /tmp/ccVT2ggL.s:2641   .text:0000000000000f48 .L0 
     /tmp/ccVT2ggL.s:2643   .text:0000000000000f4c .L0 
     /tmp/ccVT2ggL.s:2645   .text:0000000000000f50 .L0 
     /tmp/ccVT2ggL.s:2648   .text:0000000000000f54 .L0 
     /tmp/ccVT2ggL.s:2651   .text:0000000000000f58 .L0 
     /tmp/ccVT2ggL.s:2654   .text:0000000000000f5c .L0 
     /tmp/ccVT2ggL.s:2657   .text:0000000000000f60 .L0 
     /tmp/ccVT2ggL.s:2668   .text:0000000000000f7c .L0 
     /tmp/ccVT2ggL.s:2679   .text:0000000000000f98 .L0 
     /tmp/ccVT2ggL.s:2690   .text:0000000000000fb4 .L0 
     /tmp/ccVT2ggL.s:2701   .text:0000000000000fd0 .L0 
     /tmp/ccVT2ggL.s:2713   .text:0000000000000fec .L0 
     /tmp/ccVT2ggL.s:2721   .text:0000000000001004 .L0 
     /tmp/ccVT2ggL.s:2810   .text:0000000000001004 _Z14semaphoreTestsv
     /tmp/ccVT2ggL.s:2813   .text:0000000000001004 .L0 
     /tmp/ccVT2ggL.s:2814   .text:0000000000001004 .L0 
     /tmp/ccVT2ggL.s:2815   .text:0000000000001008 .L0 
     /tmp/ccVT2ggL.s:2818   .text:0000000000001010 .L0 
     /tmp/ccVT2ggL.s:2819   .text:0000000000001010 .L0 
     /tmp/ccVT2ggL.s:2821   .text:0000000000001014 .L0 
     /tmp/ccVT2ggL.s:2823   .text:0000000000001014 .L0 
     /tmp/ccVT2ggL.s:2824   .text:0000000000001014 .L0 
     /tmp/ccVT2ggL.s:2826   .text:000000000000101c .L0 
     /tmp/ccVT2ggL.s:2832   .text:000000000000101c _ZN12TestPeriodicC2Em
     /tmp/ccVT2ggL.s:2835   .text:000000000000101c .L0 
     /tmp/ccVT2ggL.s:2837   .text:000000000000101c .L0 
     /tmp/ccVT2ggL.s:2838   .text:0000000000001020 .L0 
     /tmp/ccVT2ggL.s:2842   .text:000000000000102c .L0 
GAS LISTING /tmp/ccVT2ggL.s 			page 111


     /tmp/ccVT2ggL.s:2843   .text:000000000000102c .L0 
     /tmp/ccVT2ggL.s:2844   .text:000000000000102c .L0 
     /tmp/ccVT2ggL.s:2846   .text:0000000000001030 .L0 
     /tmp/ccVT2ggL.s:2850   .text:0000000000001034 .L0 
     /tmp/ccVT2ggL.s:3698   .data.rel.ro.local._ZTV12TestPeriodic:0000000000000000 _ZTV12TestPeriodic
     /tmp/ccVT2ggL.s:2856   .text:0000000000001048 .L0 
     /tmp/ccVT2ggL.s:2857   .text:000000000000104c .L0 
     /tmp/ccVT2ggL.s:2859   .text:0000000000001050 .L0 
     /tmp/ccVT2ggL.s:2860   .text:0000000000001050 .L0 
     /tmp/ccVT2ggL.s:2862   .text:0000000000001054 .L0 
     /tmp/ccVT2ggL.s:2865   .text:0000000000001058 .L0 
     /tmp/ccVT2ggL.s:2867   .text:000000000000105c .L0 
     /tmp/ccVT2ggL.s:2832   .text:000000000000101c _ZN12TestPeriodicC1Em
     /tmp/ccVT2ggL.s:2875   .text:000000000000105c _Z11threadTest3v
     /tmp/ccVT2ggL.s:2878   .text:000000000000105c .L0 
     /tmp/ccVT2ggL.s:2881   .text:000000000000105c .L0 
     /tmp/ccVT2ggL.s:2882   .text:0000000000001060 .L0 
     /tmp/ccVT2ggL.s:2887   .text:0000000000001070 .L0 
     /tmp/ccVT2ggL.s:2888   .text:0000000000001070 .L0 
     /tmp/ccVT2ggL.s:2889   .text:0000000000001070 .L0 
     /tmp/ccVT2ggL.s:2890   .text:0000000000001070 .L0 
     /tmp/ccVT2ggL.s:2892   .text:0000000000001074 .L0 
     /tmp/ccVT2ggL.s:2894   .text:0000000000001074 .L0 
     /tmp/ccVT2ggL.s:2895   .text:0000000000001074 .L0 
     /tmp/ccVT2ggL.s:2907   .text:0000000000001090 .L0 
     /tmp/ccVT2ggL.s:2908   .text:0000000000001090 .L0 
     /tmp/ccVT2ggL.s:2915   .text:000000000000109c .L0 
     /tmp/ccVT2ggL.s:2916   .text:000000000000109c .L0 
     /tmp/ccVT2ggL.s:2921   .text:00000000000010a4 .L0 
     /tmp/ccVT2ggL.s:2929   .text:00000000000010bc .L0 
     /tmp/ccVT2ggL.s:2958   .text:00000000000010bc _Z11threadTestsv
     /tmp/ccVT2ggL.s:2961   .text:00000000000010bc .L0 
     /tmp/ccVT2ggL.s:2962   .text:00000000000010bc .L0 
     /tmp/ccVT2ggL.s:2963   .text:00000000000010c0 .L0 
     /tmp/ccVT2ggL.s:2966   .text:00000000000010c8 .L0 
     /tmp/ccVT2ggL.s:2967   .text:00000000000010c8 .L0 
     /tmp/ccVT2ggL.s:2969   .text:00000000000010cc .L0 
     /tmp/ccVT2ggL.s:2971   .text:00000000000010cc .L0 
     /tmp/ccVT2ggL.s:2972   .text:00000000000010cc .L0 
     /tmp/ccVT2ggL.s:2974   .text:00000000000010d4 .L0 
     /tmp/ccVT2ggL.s:2988   .text:00000000000010d4 _Z10mallocTestv
     /tmp/ccVT2ggL.s:2991   .text:00000000000010d4 .L0 
     /tmp/ccVT2ggL.s:2992   .text:00000000000010d4 .L0 
     /tmp/ccVT2ggL.s:2993   .text:00000000000010d8 .L0 
     /tmp/ccVT2ggL.s:3002   .text:00000000000010f8 .L0 
     /tmp/ccVT2ggL.s:3003   .text:00000000000010f8 .L0 
     /tmp/ccVT2ggL.s:3004   .text:00000000000010f8 .L0 
     /tmp/ccVT2ggL.s:3005   .text:00000000000010f8 .L0 
     /tmp/ccVT2ggL.s:3006   .text:00000000000010f8 .L0 
     /tmp/ccVT2ggL.s:3007   .text:00000000000010f8 .L0 
     /tmp/ccVT2ggL.s:3008   .text:00000000000010f8 .L0 
     /tmp/ccVT2ggL.s:3009   .text:00000000000010f8 .L0 
     /tmp/ccVT2ggL.s:3011   .text:00000000000010fc .L0 
     /tmp/ccVT2ggL.s:3013   .text:00000000000010fc .L0 
     /tmp/ccVT2ggL.s:3014   .text:00000000000010fc .L0 
     /tmp/ccVT2ggL.s:3018   .text:000000000000110c .L0 
     /tmp/ccVT2ggL.s:3019   .text:000000000000110c .L0 
GAS LISTING /tmp/ccVT2ggL.s 			page 112


     /tmp/ccVT2ggL.s:3025   .text:000000000000111c .L0 
     /tmp/ccVT2ggL.s:3026   .text:000000000000111c .L0 
     /tmp/ccVT2ggL.s:3029   .text:0000000000001124 .L0 
     /tmp/ccVT2ggL.s:3030   .text:0000000000001124 .L0 
     /tmp/ccVT2ggL.s:3036   .text:0000000000001134 .L0 
     /tmp/ccVT2ggL.s:3037   .text:0000000000001134 .L0 
     /tmp/ccVT2ggL.s:3044   .text:0000000000001144 .L0 
     /tmp/ccVT2ggL.s:3045   .text:0000000000001144 .L0 
     /tmp/ccVT2ggL.s:3052   .text:0000000000001154 .L0 
     /tmp/ccVT2ggL.s:3053   .text:0000000000001154 .L0 
     /tmp/ccVT2ggL.s:3061   .text:0000000000001168 .L0 
     /tmp/ccVT2ggL.s:3062   .text:0000000000001168 .L0 
     /tmp/ccVT2ggL.s:3067   .text:0000000000001174 .L0 
     /tmp/ccVT2ggL.s:3070   .text:000000000000117c .L0 
     /tmp/ccVT2ggL.s:3072   .text:0000000000001180 .L0 
     /tmp/ccVT2ggL.s:3074   .text:0000000000001184 .L0 
     /tmp/ccVT2ggL.s:3076   .text:0000000000001188 .L0 
     /tmp/ccVT2ggL.s:3078   .text:000000000000118c .L0 
     /tmp/ccVT2ggL.s:3079   .text:000000000000118c .L0 
     /tmp/ccVT2ggL.s:3084   .text:0000000000001198 .L0 
     /tmp/ccVT2ggL.s:3085   .text:0000000000001198 .L0 
     /tmp/ccVT2ggL.s:3089   .text:00000000000011a4 .L0 
     /tmp/ccVT2ggL.s:3090   .text:00000000000011a4 .L0 
     /tmp/ccVT2ggL.s:3094   .text:00000000000011b0 .L0 
     /tmp/ccVT2ggL.s:3095   .text:00000000000011b0 .L0 
     /tmp/ccVT2ggL.s:3099   .text:00000000000011bc .L0 
     /tmp/ccVT2ggL.s:3100   .text:00000000000011bc .L0 
     /tmp/ccVT2ggL.s:3104   .text:00000000000011c8 .L0 
     /tmp/ccVT2ggL.s:3105   .text:00000000000011c8 .L0 
     /tmp/ccVT2ggL.s:3107   .text:00000000000011cc .L0 
     /tmp/ccVT2ggL.s:3112   .text:00000000000011d8 .L0 
     /tmp/ccVT2ggL.s:3113   .text:00000000000011d8 .L0 
     /tmp/ccVT2ggL.s:3120   .text:00000000000011ec .L0 
     /tmp/ccVT2ggL.s:3121   .text:00000000000011ec .L0 
     /tmp/ccVT2ggL.s:3127   .text:00000000000011fc .L0 
     /tmp/ccVT2ggL.s:3128   .text:00000000000011fc .L0 
     /tmp/ccVT2ggL.s:3129   .text:0000000000001200 .L0 
     /tmp/ccVT2ggL.s:3131   .text:0000000000001204 .L0 
     /tmp/ccVT2ggL.s:3132   .text:0000000000001204 .L0 
     /tmp/ccVT2ggL.s:3134   .text:0000000000001208 .L0 
     /tmp/ccVT2ggL.s:3137   .text:000000000000120c .L0 
     /tmp/ccVT2ggL.s:3140   .text:0000000000001210 .L0 
     /tmp/ccVT2ggL.s:3143   .text:0000000000001214 .L0 
     /tmp/ccVT2ggL.s:3146   .text:0000000000001218 .L0 
     /tmp/ccVT2ggL.s:3149   .text:000000000000121c .L0 
     /tmp/ccVT2ggL.s:3151   .text:0000000000001220 .L0 
     /tmp/ccVT2ggL.s:3153   .text:0000000000001224 .L0 
     /tmp/ccVT2ggL.s:3167   .text:0000000000001224 _Z16mallocEverythingv
     /tmp/ccVT2ggL.s:3170   .text:0000000000001224 .L0 
     /tmp/ccVT2ggL.s:3171   .text:0000000000001224 .L0 
     /tmp/ccVT2ggL.s:3172   .text:0000000000001228 .L0 
     /tmp/ccVT2ggL.s:3176   .text:0000000000001234 .L0 
     /tmp/ccVT2ggL.s:3177   .text:0000000000001234 .L0 
     /tmp/ccVT2ggL.s:3178   .text:0000000000001234 .L0 
     /tmp/ccVT2ggL.s:3180   .text:0000000000001238 .L0 
     /tmp/ccVT2ggL.s:3182   .text:0000000000001238 .L0 
     /tmp/ccVT2ggL.s:3183   .text:0000000000001238 .L0 
GAS LISTING /tmp/ccVT2ggL.s 			page 113


     /tmp/ccVT2ggL.s:3187   .text:0000000000001248 .L0 
     /tmp/ccVT2ggL.s:3188   .text:0000000000001248 .L0 
     /tmp/ccVT2ggL.s:3195   .text:0000000000001264 .L0 
     /tmp/ccVT2ggL.s:3196   .text:0000000000001264 .L0 
     /tmp/ccVT2ggL.s:3201   .text:0000000000001270 .L0 
     /tmp/ccVT2ggL.s:3203   .text:0000000000001274 .L0 
     /tmp/ccVT2ggL.s:3204   .text:0000000000001274 .L0 
     /tmp/ccVT2ggL.s:3210   .text:0000000000001284 .L0 
     /tmp/ccVT2ggL.s:3211   .text:0000000000001284 .L0 
     /tmp/ccVT2ggL.s:3212   .text:0000000000001288 .L0 
     /tmp/ccVT2ggL.s:3213   .text:0000000000001288 .L0 
     /tmp/ccVT2ggL.s:3215   .text:000000000000128c .L0 
     /tmp/ccVT2ggL.s:3216   .text:000000000000128c .L0 
     /tmp/ccVT2ggL.s:3218   .text:0000000000001290 .L0 
     /tmp/ccVT2ggL.s:3220   .text:0000000000001294 .L0 
     /tmp/ccVT2ggL.s:3224   .text:0000000000001298 .L0 
     /tmp/ccVT2ggL.s:3226   .text:0000000000001298 .L0 
     /tmp/ccVT2ggL.s:3227   .text:0000000000001298 .L0 
     /tmp/ccVT2ggL.s:3234   .text:00000000000012b4 .L0 
     /tmp/ccVT2ggL.s:3236   .text:00000000000012b8 .L0 
     /tmp/ccVT2ggL.s:3238   .text:00000000000012bc .L0 
     /tmp/ccVT2ggL.s:3241   .text:00000000000012c0 .L0 
     /tmp/ccVT2ggL.s:3242   .text:00000000000012c0 .L0 
     /tmp/ccVT2ggL.s:3249   .text:00000000000012d0 .L0 
     /tmp/ccVT2ggL.s:3251   .text:00000000000012d4 .L0 
     /tmp/ccVT2ggL.s:3252   .text:00000000000012d4 .L0 
     /tmp/ccVT2ggL.s:3256   .text:00000000000012e0 .L0 
     /tmp/ccVT2ggL.s:3258   .text:00000000000012e4 .L0 
     /tmp/ccVT2ggL.s:3259   .text:00000000000012e4 .L0 
     /tmp/ccVT2ggL.s:3264   .text:00000000000012f0 .L0 
     /tmp/ccVT2ggL.s:3265   .text:00000000000012f0 .L0 
     /tmp/ccVT2ggL.s:3271   .text:0000000000001304 .L0 
     /tmp/ccVT2ggL.s:3272   .text:0000000000001304 .L0 
     /tmp/ccVT2ggL.s:3276   .text:0000000000001314 .L0 
     /tmp/ccVT2ggL.s:3280   .text:0000000000001318 .L0 
     /tmp/ccVT2ggL.s:3281   .text:0000000000001318 .L0 
     /tmp/ccVT2ggL.s:3286   .text:0000000000001328 .L0 
     /tmp/ccVT2ggL.s:3287   .text:000000000000132c .L0 
     /tmp/ccVT2ggL.s:3301   .text:000000000000132c _Z17mallocGapFillTestv
     /tmp/ccVT2ggL.s:3304   .text:000000000000132c .L0 
     /tmp/ccVT2ggL.s:3305   .text:000000000000132c .L0 
     /tmp/ccVT2ggL.s:3306   .text:0000000000001330 .L0 
     /tmp/ccVT2ggL.s:3317   .text:0000000000001358 .L0 
     /tmp/ccVT2ggL.s:3318   .text:0000000000001358 .L0 
     /tmp/ccVT2ggL.s:3319   .text:0000000000001358 .L0 
     /tmp/ccVT2ggL.s:3320   .text:0000000000001358 .L0 
     /tmp/ccVT2ggL.s:3321   .text:0000000000001358 .L0 
     /tmp/ccVT2ggL.s:3322   .text:0000000000001358 .L0 
     /tmp/ccVT2ggL.s:3323   .text:0000000000001358 .L0 
     /tmp/ccVT2ggL.s:3324   .text:0000000000001358 .L0 
     /tmp/ccVT2ggL.s:3325   .text:0000000000001358 .L0 
     /tmp/ccVT2ggL.s:3326   .text:0000000000001358 .L0 
     /tmp/ccVT2ggL.s:3328   .text:000000000000135c .L0 
     /tmp/ccVT2ggL.s:3330   .text:000000000000135c .L0 
     /tmp/ccVT2ggL.s:3331   .text:000000000000135c .L0 
     /tmp/ccVT2ggL.s:3336   .text:000000000000136c .L0 
     /tmp/ccVT2ggL.s:3340   .text:0000000000001370 .L0 
GAS LISTING /tmp/ccVT2ggL.s 			page 114


     /tmp/ccVT2ggL.s:3343   .text:0000000000001378 .L0 
     /tmp/ccVT2ggL.s:3344   .text:0000000000001378 .L0 
     /tmp/ccVT2ggL.s:3346   .text:000000000000137c .L0 
     /tmp/ccVT2ggL.s:3350   .text:0000000000001388 .L0 
     /tmp/ccVT2ggL.s:3355   .text:0000000000001398 .L0 
     /tmp/ccVT2ggL.s:3357   .text:000000000000139c .L0 
     /tmp/ccVT2ggL.s:3363   .text:00000000000013a4 .L0 
     /tmp/ccVT2ggL.s:3364   .text:00000000000013a4 .L0 
     /tmp/ccVT2ggL.s:3370   .text:00000000000013b4 .L0 
     /tmp/ccVT2ggL.s:3371   .text:00000000000013b4 .L0 
     /tmp/ccVT2ggL.s:3372   .text:00000000000013b8 .L0 
     /tmp/ccVT2ggL.s:3373   .text:00000000000013b8 .L0 
     /tmp/ccVT2ggL.s:3375   .text:00000000000013bc .L0 
     /tmp/ccVT2ggL.s:3376   .text:00000000000013bc .L0 
     /tmp/ccVT2ggL.s:3378   .text:00000000000013c0 .L0 
     /tmp/ccVT2ggL.s:3380   .text:00000000000013c4 .L0 
     /tmp/ccVT2ggL.s:3382   .text:00000000000013c8 .L0 
     /tmp/ccVT2ggL.s:3384   .text:00000000000013cc .L0 
     /tmp/ccVT2ggL.s:3386   .text:00000000000013d0 .L0 
     /tmp/ccVT2ggL.s:3388   .text:00000000000013d4 .L0 
     /tmp/ccVT2ggL.s:3390   .text:00000000000013d8 .L0 
     /tmp/ccVT2ggL.s:3392   .text:00000000000013dc .L0 
     /tmp/ccVT2ggL.s:3394   .text:00000000000013e0 .L0 
     /tmp/ccVT2ggL.s:3398   .text:00000000000013e4 .L0 
     /tmp/ccVT2ggL.s:3400   .text:00000000000013e4 .L0 
     /tmp/ccVT2ggL.s:3401   .text:00000000000013e4 .L0 
     /tmp/ccVT2ggL.s:3403   .text:00000000000013e8 .L0 
     /tmp/ccVT2ggL.s:3405   .text:00000000000013ec .L0 
     /tmp/ccVT2ggL.s:3409   .text:00000000000013f4 .L0 
     /tmp/ccVT2ggL.s:3410   .text:00000000000013f4 .L0 
     /tmp/ccVT2ggL.s:3416   .text:0000000000001404 .L0 
     /tmp/ccVT2ggL.s:3417   .text:0000000000001404 .L0 
     /tmp/ccVT2ggL.s:3423   .text:0000000000001414 .L0 
     /tmp/ccVT2ggL.s:3424   .text:0000000000001414 .L0 
     /tmp/ccVT2ggL.s:3431   .text:0000000000001424 .L0 
     /tmp/ccVT2ggL.s:3433   .text:0000000000001428 .L0 
     /tmp/ccVT2ggL.s:3435   .text:000000000000142c .L0 
     /tmp/ccVT2ggL.s:3437   .text:0000000000001430 .L0 
     /tmp/ccVT2ggL.s:3438   .text:0000000000001430 .L0 
     /tmp/ccVT2ggL.s:3441   .text:0000000000001434 .L0 
     /tmp/ccVT2ggL.s:3442   .text:0000000000001434 .L0 
     /tmp/ccVT2ggL.s:3445   .text:0000000000001438 .L0 
     /tmp/ccVT2ggL.s:3446   .text:0000000000001438 .L0 
     /tmp/ccVT2ggL.s:3449   .text:000000000000143c .L0 
     /tmp/ccVT2ggL.s:3450   .text:000000000000143c .L0 
     /tmp/ccVT2ggL.s:3453   .text:0000000000001440 .L0 
     /tmp/ccVT2ggL.s:3454   .text:0000000000001440 .L0 
     /tmp/ccVT2ggL.s:3455   .text:0000000000001440 .L0 
     /tmp/ccVT2ggL.s:3458   .text:0000000000001444 .L0 
     /tmp/ccVT2ggL.s:3459   .text:0000000000001444 .L0 
     /tmp/ccVT2ggL.s:3462   .text:0000000000001448 .L0 
     /tmp/ccVT2ggL.s:3464   .text:000000000000144c .L0 
     /tmp/ccVT2ggL.s:3466   .text:0000000000001450 .L0 
     /tmp/ccVT2ggL.s:3468   .text:0000000000001454 .L0 
     /tmp/ccVT2ggL.s:3470   .text:0000000000001458 .L0 
     /tmp/ccVT2ggL.s:3472   .text:000000000000145c .L0 
     /tmp/ccVT2ggL.s:3473   .text:000000000000145c .L0 
GAS LISTING /tmp/ccVT2ggL.s 			page 115


     /tmp/ccVT2ggL.s:3475   .text:0000000000001460 .L0 
     /tmp/ccVT2ggL.s:3479   .text:0000000000001468 .L0 
     /tmp/ccVT2ggL.s:3480   .text:0000000000001468 .L0 
     /tmp/ccVT2ggL.s:3482   .text:000000000000146c .L0 
     /tmp/ccVT2ggL.s:3484   .text:0000000000001470 .L0 
     /tmp/ccVT2ggL.s:3488   .text:0000000000001478 .L0 
     /tmp/ccVT2ggL.s:3489   .text:0000000000001478 .L0 
     /tmp/ccVT2ggL.s:3495   .text:0000000000001488 .L0 
     /tmp/ccVT2ggL.s:3496   .text:0000000000001488 .L0 
     /tmp/ccVT2ggL.s:3503   .text:0000000000001498 .L0 
     /tmp/ccVT2ggL.s:3505   .text:000000000000149c .L0 
     /tmp/ccVT2ggL.s:3508   .text:00000000000014a0 .L0 
     /tmp/ccVT2ggL.s:3509   .text:00000000000014a0 .L0 
     /tmp/ccVT2ggL.s:3510   .text:00000000000014a0 .L0 
     /tmp/ccVT2ggL.s:3512   .text:00000000000014a4 .L0 
     /tmp/ccVT2ggL.s:3514   .text:00000000000014a8 .L0 
     /tmp/ccVT2ggL.s:3517   .text:00000000000014ac .L0 
     /tmp/ccVT2ggL.s:3523   .text:00000000000014b4 .L0 
     /tmp/ccVT2ggL.s:3524   .text:00000000000014b4 .L0 
     /tmp/ccVT2ggL.s:3529   .text:00000000000014c4 .L0 
     /tmp/ccVT2ggL.s:3533   .text:00000000000014c8 .L0 
     /tmp/ccVT2ggL.s:3534   .text:00000000000014c8 .L0 
     /tmp/ccVT2ggL.s:3539   .text:00000000000014d8 .L0 
     /tmp/ccVT2ggL.s:3543   .text:00000000000014dc .L0 
     /tmp/ccVT2ggL.s:3544   .text:00000000000014dc .L0 
     /tmp/ccVT2ggL.s:3549   .text:00000000000014ec .L0 
     /tmp/ccVT2ggL.s:3553   .text:00000000000014f0 .L0 
     /tmp/ccVT2ggL.s:3554   .text:00000000000014f0 .L0 
     /tmp/ccVT2ggL.s:3559   .text:0000000000001500 .L0 
     /tmp/ccVT2ggL.s:3564   .text:0000000000001504 .L0 
     /tmp/ccVT2ggL.s:3568   .text:0000000000001508 .L0 
     /tmp/ccVT2ggL.s:3571   .text:0000000000001510 .L0 
     /tmp/ccVT2ggL.s:3572   .text:0000000000001510 .L0 
     /tmp/ccVT2ggL.s:3578   .text:0000000000001520 .L0 
     /tmp/ccVT2ggL.s:3580   .text:0000000000001524 .L0 
     /tmp/ccVT2ggL.s:3586   .text:0000000000001530 .L0 
     /tmp/ccVT2ggL.s:3587   .text:0000000000001530 .L0 
     /tmp/ccVT2ggL.s:3591   .text:000000000000153c .L0 
     /tmp/ccVT2ggL.s:3592   .text:000000000000153c .L0 
     /tmp/ccVT2ggL.s:3596   .text:0000000000001548 .L0 
     /tmp/ccVT2ggL.s:3597   .text:0000000000001548 .L0 
     /tmp/ccVT2ggL.s:3601   .text:0000000000001554 .L0 
     /tmp/ccVT2ggL.s:3602   .text:0000000000001554 .L0 
     /tmp/ccVT2ggL.s:3606   .text:0000000000001560 .L0 
     /tmp/ccVT2ggL.s:3607   .text:0000000000001560 .L0 
     /tmp/ccVT2ggL.s:3611   .text:000000000000156c .L0 
     /tmp/ccVT2ggL.s:3612   .text:000000000000156c .L0 
     /tmp/ccVT2ggL.s:3616   .text:0000000000001580 .L0 
     /tmp/ccVT2ggL.s:3622   .text:0000000000001580 _Z21memoryAllocationTestsv
     /tmp/ccVT2ggL.s:3625   .text:0000000000001580 .L0 
     /tmp/ccVT2ggL.s:3626   .text:0000000000001580 .L0 
     /tmp/ccVT2ggL.s:3627   .text:0000000000001584 .L0 
     /tmp/ccVT2ggL.s:3630   .text:000000000000158c .L0 
     /tmp/ccVT2ggL.s:3631   .text:000000000000158c .L0 
     /tmp/ccVT2ggL.s:3633   .text:0000000000001590 .L0 
     /tmp/ccVT2ggL.s:3635   .text:0000000000001590 .L0 
     /tmp/ccVT2ggL.s:3636   .text:0000000000001590 .L0 
GAS LISTING /tmp/ccVT2ggL.s 			page 116


     /tmp/ccVT2ggL.s:3639   .text:0000000000001598 .L0 
     /tmp/ccVT2ggL.s:3640   .text:000000000000159c .L0 
     /tmp/ccVT2ggL.s:3642   .text:00000000000015a0 .L0 
     /tmp/ccVT2ggL.s:3643   .text:00000000000015a0 .L0 
     /tmp/ccVT2ggL.s:3645   .text:00000000000015a4 .L0 
     /tmp/ccVT2ggL.s:3647   .text:00000000000015a8 .L0 
     /tmp/ccVT2ggL.s:3653   .text:00000000000015a8 _Z7myTestsv
     /tmp/ccVT2ggL.s:3656   .text:00000000000015a8 .L0 
     /tmp/ccVT2ggL.s:3657   .text:00000000000015a8 .L0 
     /tmp/ccVT2ggL.s:3658   .text:00000000000015ac .L0 
     /tmp/ccVT2ggL.s:3661   .text:00000000000015b4 .L0 
     /tmp/ccVT2ggL.s:3662   .text:00000000000015b4 .L0 
     /tmp/ccVT2ggL.s:3664   .text:00000000000015b8 .L0 
     /tmp/ccVT2ggL.s:3666   .text:00000000000015b8 .L0 
     /tmp/ccVT2ggL.s:3667   .text:00000000000015b8 .L0 
     /tmp/ccVT2ggL.s:3670   .text:00000000000015c0 .L0 
     /tmp/ccVT2ggL.s:3671   .text:00000000000015c4 .L0 
     /tmp/ccVT2ggL.s:3673   .text:00000000000015c8 .L0 
     /tmp/ccVT2ggL.s:3674   .text:00000000000015c8 .L0 
     /tmp/ccVT2ggL.s:3676   .text:00000000000015cc .L0 
     /tmp/ccVT2ggL.s:3678   .text:00000000000015d0 .L0 
     /tmp/ccVT2ggL.s:3707   .bss:0000000000000000 .LANCHOR0
     /tmp/ccVT2ggL.s:3710   .bss:0000000000000000 _ZL2s1
     /tmp/ccVT2ggL.s:3714   .bss:0000000000000008 _ZL2s2
     /tmp/ccVT2ggL.s:3718   .bss:0000000000000010 _ZL2s3
     /tmp/ccVT2ggL.s:3722   .bss:0000000000000018 _ZL3s11
     /tmp/ccVT2ggL.s:3726   .bss:0000000000000020 _ZL3s22
     /tmp/ccVT2ggL.s:32     .text._ZN6Thread3runEv:0000000000000018 .L0 
     /tmp/ccVT2ggL.s:57     .text._ZN14PeriodicThread18periodicActivationEv:0000000000000018 .L0 
     /tmp/ccVT2ggL.s:3734   .text:00000000000015d0 .L0 
     /tmp/ccVT2ggL.s:721    .text._ZN14PeriodicThreadD2Ev:0000000000000034 .L0 
     /tmp/ccVT2ggL.s:768    .text._ZN14PeriodicThreadD0Ev:000000000000004c .L0 
     /tmp/ccVT2ggL.s:810    .text._ZN12TestPeriodicD2Ev:0000000000000034 .L0 
     /tmp/ccVT2ggL.s:860    .text._ZN12TestPeriodicD0Ev:000000000000004c .L0 
     /tmp/ccVT2ggL.s:59     .rodata.str1.8:0000000000000000 .LC0
     /tmp/ccVT2ggL.s:84     .text:0000000000000010 .L0 
     /tmp/ccVT2ggL.s:98     .rodata.str1.8:0000000000000008 .LC1
     /tmp/ccVT2ggL.s:127    .text:0000000000000040 .L0 
     /tmp/ccVT2ggL.s:101    .rodata.str1.8:0000000000000020 .LC2
     /tmp/ccVT2ggL.s:146    .text:0000000000000060 .L0 
     /tmp/ccVT2ggL.s:104    .rodata.str1.8:0000000000000028 .LC3
     /tmp/ccVT2ggL.s:156    .text:000000000000007c .L0 
     /tmp/ccVT2ggL.s:195    .rodata.str1.8:0000000000000030 .LC4
     /tmp/ccVT2ggL.s:221    .text:00000000000000d8 .L0 
     /tmp/ccVT2ggL.s:198    .rodata.str1.8:0000000000000048 .LC5
     /tmp/ccVT2ggL.s:240    .text:00000000000000f8 .L0 
     /tmp/ccVT2ggL.s:250    .text:0000000000000114 .L0 
     /tmp/ccVT2ggL.s:318    .text:0000000000000180 .L0 
     /tmp/ccVT2ggL.s:368    .text:00000000000001cc .L0 
     /tmp/ccVT2ggL.s:393    .text:00000000000001f8 .L0 
     /tmp/ccVT2ggL.s:403    .text:0000000000000214 .L0 
     /tmp/ccVT2ggL.s:446    .rodata.str1.8:0000000000000050 .LC6
     /tmp/ccVT2ggL.s:471    .text:000000000000027c .L0 
     /tmp/ccVT2ggL.s:493    .text:00000000000002a0 .L0 
     /tmp/ccVT2ggL.s:526    .rodata.str1.8:0000000000000060 .LC7
     /tmp/ccVT2ggL.s:551    .text:0000000000000308 .L0 
     /tmp/ccVT2ggL.s:573    .text:000000000000032c .L0 
GAS LISTING /tmp/ccVT2ggL.s 			page 117


     /tmp/ccVT2ggL.s:606    .rodata.str1.8:0000000000000070 .LC8
     /tmp/ccVT2ggL.s:631    .text:0000000000000394 .L0 
     /tmp/ccVT2ggL.s:653    .text:00000000000003b8 .L0 
     /tmp/ccVT2ggL.s:898    .text:0000000000000434 .L0 
     /tmp/ccVT2ggL.s:917    .text:0000000000000464 .L0 
     /tmp/ccVT2ggL.s:862    .rodata.str1.8:0000000000000080 .LC9
     /tmp/ccVT2ggL.s:936    .text:000000000000048c .L0 
     /tmp/ccVT2ggL.s:865    .rodata.str1.8:0000000000000090 .LC10
     /tmp/ccVT2ggL.s:977    .text:00000000000004c4 .L0 
     /tmp/ccVT2ggL.s:1094   .text:0000000000000558 .L0 
     /tmp/ccVT2ggL.s:1113   .text:0000000000000588 .L0 
     /tmp/ccVT2ggL.s:1133   .text:00000000000005b8 .L0 
     /tmp/ccVT2ggL.s:1167   .text:00000000000005ec .L0 
     /tmp/ccVT2ggL.s:1279   .rodata.str1.8:0000000000000098 .LC11
     /tmp/ccVT2ggL.s:1307   .text:0000000000000684 .L0 
     /tmp/ccVT2ggL.s:1282   .rodata.str1.8:00000000000000a8 .LC12
     /tmp/ccVT2ggL.s:1337   .text:00000000000006c8 .L0 
     /tmp/ccVT2ggL.s:1389   .text:000000000000071c .L0 
     /tmp/ccVT2ggL.s:1427   .text:0000000000000764 .L0 
     /tmp/ccVT2ggL.s:1463   .text:00000000000007a8 .L0 
     /tmp/ccVT2ggL.s:1285   .rodata.str1.8:00000000000000b0 .LC13
     /tmp/ccVT2ggL.s:1474   .text:00000000000007bc .L0 
     /tmp/ccVT2ggL.s:1483   .rodata.str1.8:00000000000000b8 .LC14
     /tmp/ccVT2ggL.s:1503   .text:00000000000007e0 .L0 
     /tmp/ccVT2ggL.s:1508   .text:00000000000007f0 .L0 
     /tmp/ccVT2ggL.s:1510   .text:00000000000007fc .L0 
     /tmp/ccVT2ggL.s:1524   .text:000000000000081c .L0 
     /tmp/ccVT2ggL.s:1544   .text:000000000000083c .L0 
     /tmp/ccVT2ggL.s:1554   .rodata.str1.8:00000000000000c8 .LC15
     /tmp/ccVT2ggL.s:1580   .text:000000000000086c .L0 
     /tmp/ccVT2ggL.s:1641   .text:00000000000008c8 .L0 
     /tmp/ccVT2ggL.s:1654   .text:00000000000008e8 .L0 
     /tmp/ccVT2ggL.s:1681   .text:0000000000000914 .L0 
     /tmp/ccVT2ggL.s:1690   .rodata.str1.8:00000000000000e0 .LC16
     /tmp/ccVT2ggL.s:1710   .text:0000000000000938 .L0 
     /tmp/ccVT2ggL.s:1728   .text:0000000000000964 .L0 
     /tmp/ccVT2ggL.s:1748   .text:0000000000000984 .L0 
     /tmp/ccVT2ggL.s:1759   .rodata.str1.8:00000000000000f0 .LC17
     /tmp/ccVT2ggL.s:1783   .text:00000000000009b0 .L0 
     /tmp/ccVT2ggL.s:1937   .text:0000000000000ac4 .L0 
     /tmp/ccVT2ggL.s:1968   .text:0000000000000aec .L0 
     /tmp/ccVT2ggL.s:1946   .rodata.str1.8:0000000000000100 .LC18
     /tmp/ccVT2ggL.s:1974   .text:0000000000000b00 .L0 
     /tmp/ccVT2ggL.s:1998   .rodata.str1.8:0000000000000110 .LC19
     /tmp/ccVT2ggL.s:2023   .text:0000000000000b48 .L0 
     /tmp/ccVT2ggL.s:2117   .text:0000000000000bc8 .L0 
     /tmp/ccVT2ggL.s:2095   .rodata.str1.8:0000000000000120 .LC20
     /tmp/ccVT2ggL.s:2123   .text:0000000000000bdc .L0 
     /tmp/ccVT2ggL.s:2147   .rodata.str1.8:0000000000000130 .LC21
     /tmp/ccVT2ggL.s:2172   .text:0000000000000c24 .L0 
     /tmp/ccVT2ggL.s:2292   .text:0000000000000ce0 .L0 
     /tmp/ccVT2ggL.s:2307   .text:0000000000000d04 .L0 
     /tmp/ccVT2ggL.s:2317   .text:0000000000000d20 .L0 
     /tmp/ccVT2ggL.s:2331   .text:0000000000000d44 .L0 
     /tmp/ccVT2ggL.s:2527   .text:0000000000000e44 .L0 
     /tmp/ccVT2ggL.s:2542   .text:0000000000000e68 .L0 
     /tmp/ccVT2ggL.s:2557   .text:0000000000000e8c .L0 
GAS LISTING /tmp/ccVT2ggL.s 			page 118


     /tmp/ccVT2ggL.s:2567   .text:0000000000000ea8 .L0 
     /tmp/ccVT2ggL.s:2581   .text:0000000000000ecc .L0 
     /tmp/ccVT2ggL.s:2595   .text:0000000000000ef0 .L0 
     /tmp/ccVT2ggL.s:2852   .text:000000000000103c .L0 
     /tmp/ccVT2ggL.s:2979   .rodata.str1.8:0000000000000140 .LC22
     /tmp/ccVT2ggL.s:3014   .text:00000000000010fc .L0 
     /tmp/ccVT2ggL.s:2982   .rodata.str1.8:0000000000000168 .LC23
     /tmp/ccVT2ggL.s:3113   .text:00000000000011d8 .L0 
     /tmp/ccVT2ggL.s:3121   .text:00000000000011ec .L0 
     /tmp/ccVT2ggL.s:3158   .rodata.str1.8:0000000000000198 .LC24
     /tmp/ccVT2ggL.s:3183   .text:0000000000001238 .L0 
     /tmp/ccVT2ggL.s:3188   .text:0000000000001248 .L0 
     /tmp/ccVT2ggL.s:3190   .text:0000000000001254 .L0 
     /tmp/ccVT2ggL.s:3204   .text:0000000000001274 .L0 
     /tmp/ccVT2ggL.s:3227   .text:0000000000001298 .L0 
     /tmp/ccVT2ggL.s:3230   .text:00000000000012a4 .L0 
     /tmp/ccVT2ggL.s:3161   .rodata.str1.8:00000000000001c8 .LC25
     /tmp/ccVT2ggL.s:3265   .text:00000000000012f0 .L0 
     /tmp/ccVT2ggL.s:3272   .text:0000000000001304 .L0 
     /tmp/ccVT2ggL.s:3281   .text:0000000000001318 .L0 
     /tmp/ccVT2ggL.s:3292   .rodata.str1.8:0000000000000200 .LC26
     /tmp/ccVT2ggL.s:3331   .text:000000000000135c .L0 
     /tmp/ccVT2ggL.s:3364   .text:00000000000013a4 .L0 
     /tmp/ccVT2ggL.s:3524   .text:00000000000014b4 .L0 
     /tmp/ccVT2ggL.s:3534   .text:00000000000014c8 .L0 
     /tmp/ccVT2ggL.s:3544   .text:00000000000014dc .L0 
     /tmp/ccVT2ggL.s:3554   .text:00000000000014f0 .L0 
     /tmp/ccVT2ggL.s:3295   .rodata.str1.8:0000000000000248 .LC27
     /tmp/ccVT2ggL.s:3612   .text:000000000000156c .L0 
     /tmp/ccVT2ggL.s:80     .text:0000000000000010 .L6
     /tmp/ccVT2ggL.s:162    .text:0000000000000090 .L11
     /tmp/ccVT2ggL.s:176    .text:00000000000000b0 .L8
     /tmp/ccVT2ggL.s:143    .text:0000000000000060 .L10
     /tmp/ccVT2ggL.s:138    .text:0000000000000058 .L13
     /tmp/ccVT2ggL.s:256    .text:0000000000000128 .L17
     /tmp/ccVT2ggL.s:270    .text:0000000000000148 .L14
     /tmp/ccVT2ggL.s:237    .text:00000000000000f8 .L16
     /tmp/ccVT2ggL.s:232    .text:00000000000000f0 .L19
     /tmp/ccVT2ggL.s:331    .text:00000000000001a4 .L20
     /tmp/ccVT2ggL.s:311    .text:0000000000000174 .L22
     /tmp/ccVT2ggL.s:409    .text:0000000000000228 .L28
     /tmp/ccVT2ggL.s:417    .text:000000000000023c .L26
     /tmp/ccVT2ggL.s:427    .text:0000000000000250 .L24
     /tmp/ccVT2ggL.s:379    .text:00000000000001e4 .L30
     /tmp/ccVT2ggL.s:390    .text:00000000000001f8 .L27
     /tmp/ccVT2ggL.s:385    .text:00000000000001f0 .L31
     /tmp/ccVT2ggL.s:485    .text:000000000000029c .L33
     /tmp/ccVT2ggL.s:480    .text:0000000000000294 .L34
     /tmp/ccVT2ggL.s:565    .text:0000000000000328 .L38
     /tmp/ccVT2ggL.s:560    .text:0000000000000320 .L39
     /tmp/ccVT2ggL.s:645    .text:00000000000003b4 .L43
     /tmp/ccVT2ggL.s:640    .text:00000000000003ac .L44
     /tmp/ccVT2ggL.s:943    .text:00000000000004a4 .L58
     /tmp/ccVT2ggL.s:933    .text:000000000000048c .L56
     /tmp/ccVT2ggL.s:1148   .text:00000000000005dc .L66
     /tmp/ccVT2ggL.s:1319   .text:00000000000006a0 .L79
     /tmp/ccVT2ggL.s:1356   .text:00000000000006ec .L87
GAS LISTING /tmp/ccVT2ggL.s 			page 119


     /tmp/ccVT2ggL.s:1315   .text:000000000000069c .L77
     /tmp/ccVT2ggL.s:1395   .text:0000000000000730 .L88
     /tmp/ccVT2ggL.s:1385   .text:000000000000071c .L91
     /tmp/ccVT2ggL.s:1362   .text:00000000000006f0 .L76
     /tmp/ccVT2ggL.s:1341   .text:00000000000006d8 .L75
     /tmp/ccVT2ggL.s:1409   .text:000000000000073c .L80
     /tmp/ccVT2ggL.s:1432   .text:0000000000000778 .L89
     /tmp/ccVT2ggL.s:1404   .text:0000000000000738 .L83
     /tmp/ccVT2ggL.s:1469   .text:00000000000007bc .L84
     /tmp/ccVT2ggL.s:1459   .text:00000000000007a8 .L92
     /tmp/ccVT2ggL.s:1438   .text:000000000000077c .L82
     /tmp/ccVT2ggL.s:1540   .text:000000000000083c .L97
     /tmp/ccVT2ggL.s:1528   .text:000000000000082c .L93
     /tmp/ccVT2ggL.s:1617   .text:00000000000008a0 .L100
     /tmp/ccVT2ggL.s:1631   .text:00000000000008bc .L99
     /tmp/ccVT2ggL.s:1598   .text:000000000000088c .L104
     /tmp/ccVT2ggL.s:1677   .text:0000000000000914 .L105
     /tmp/ccVT2ggL.s:1657   .text:00000000000008f8 .L98
     /tmp/ccVT2ggL.s:1744   .text:0000000000000984 .L107
     /tmp/ccVT2ggL.s:1732   .text:0000000000000974 .L106
     /tmp/ccVT2ggL.s:1795   .text:00000000000009cc .L113
     /tmp/ccVT2ggL.s:1829   .text:0000000000000a0c .L119
     /tmp/ccVT2ggL.s:1791   .text:00000000000009c8 .L122
     /tmp/ccVT2ggL.s:1934   .text:0000000000000ac4 .L114
     /tmp/ccVT2ggL.s:1882   .text:0000000000000a6c .L120
     /tmp/ccVT2ggL.s:1812   .text:00000000000009f4 .L110
     /tmp/ccVT2ggL.s:1842   .text:0000000000000a18 .L116
     /tmp/ccVT2ggL.s:1924   .text:0000000000000abc .L117
     /tmp/ccVT2ggL.s:1888   .text:0000000000000a70 .L115
     /tmp/ccVT2ggL.s:1834   .text:0000000000000a10 .L111
     /tmp/ccVT2ggL.s:2043   .text:0000000000000b6c .L130
     /tmp/ccVT2ggL.s:2065   .text:0000000000000b90 .L132
     /tmp/ccVT2ggL.s:2073   .text:0000000000000b9c .L125
     /tmp/ccVT2ggL.s:2033   .text:0000000000000b60 .L127
     /tmp/ccVT2ggL.s:2051   .text:0000000000000b78 .L128
     /tmp/ccVT2ggL.s:2038   .text:0000000000000b68 .L129
     /tmp/ccVT2ggL.s:2222   .text:0000000000000c74 .L135
     /tmp/ccVT2ggL.s:2202   .text:0000000000000c58 .L137
     /tmp/ccVT2ggL.s:2188   .text:0000000000000c40 .L138
     /tmp/ccVT2ggL.s:2214   .text:0000000000000c68 .L142
     /tmp/ccVT2ggL.s:2181   .text:0000000000000c38 .L140
     /tmp/ccVT2ggL.s:2207   .text:0000000000000c60 .L139
     /tmp/ccVT2ggL.s:2351   .text:0000000000000d74 .L144
     /tmp/ccVT2ggL.s:2620   .text:0000000000000f28 .L157
     /tmp/ccVT2ggL.s:2913   .text:000000000000109c .L177
     /tmp/ccVT2ggL.s:3118   .text:00000000000011ec .L184
     /tmp/ccVT2ggL.s:3110   .text:00000000000011d8 .L187
     /tmp/ccVT2ggL.s:3126   .text:00000000000011fc .L183
     /tmp/ccVT2ggL.s:3223   .text:0000000000001298 .L190
     /tmp/ccVT2ggL.s:3269   .text:0000000000001304 .L195
     /tmp/ccVT2ggL.s:3278   .text:0000000000001318 .L196
     /tmp/ccVT2ggL.s:3209   .text:0000000000001284 .L189
     /tmp/ccVT2ggL.s:3397   .text:00000000000013e4 .L198
     /tmp/ccVT2ggL.s:3361   .text:00000000000013a4 .L218
     /tmp/ccVT2ggL.s:3337   .text:0000000000001370 .L201
     /tmp/ccVT2ggL.s:3407   .text:00000000000013f4 .L202
     /tmp/ccVT2ggL.s:3520   .text:00000000000014b4 .L203
GAS LISTING /tmp/ccVT2ggL.s 			page 120


     /tmp/ccVT2ggL.s:3531   .text:00000000000014c8 .L205
     /tmp/ccVT2ggL.s:3477   .text:0000000000001468 .L207
     /tmp/ccVT2ggL.s:3486   .text:0000000000001478 .L208
     /tmp/ccVT2ggL.s:3541   .text:00000000000014dc .L209
     /tmp/ccVT2ggL.s:3551   .text:00000000000014f0 .L211
     /tmp/ccVT2ggL.s:3566   .text:0000000000001508 .L212
     /tmp/ccVT2ggL.s:3368   .text:00000000000013b4 .L197
     /tmp/ccVT2ggL.s:3583   .text:0000000000001530 .L213
     /tmp/ccVT2ggL.s:3561   .text:0000000000001504 .L214
     /tmp/ccVT2ggL.s:703    .text._ZN14PeriodicThreadD2Ev:0000000000000010 .L0 
     /tmp/ccVT2ggL.s:745    .text._ZN14PeriodicThreadD0Ev:0000000000000018 .L0 
     /tmp/ccVT2ggL.s:790    .text._ZN12TestPeriodicD2Ev:0000000000000010 .L0 
     /tmp/ccVT2ggL.s:835    .text._ZN12TestPeriodicD0Ev:0000000000000018 .L0 
     /tmp/ccVT2ggL.s:892    .text:0000000000000424 .LEHB0
     /tmp/ccVT2ggL.s:872    .text:0000000000000408 .LFB27
     /tmp/ccVT2ggL.s:895    .text:000000000000042c .LEHE0
     /tmp/ccVT2ggL.s:899    .text:000000000000043c .LEHB1
     /tmp/ccVT2ggL.s:902    .text:0000000000000444 .LEHE1
     /tmp/ccVT2ggL.s:1001   .text:00000000000004f4 .L61
     /tmp/ccVT2ggL.s:906    .text:0000000000000448 .LEHB2
     /tmp/ccVT2ggL.s:914    .text:000000000000045c .LEHE2
     /tmp/ccVT2ggL.s:918    .text:000000000000046c .LEHB3
     /tmp/ccVT2ggL.s:921    .text:0000000000000474 .LEHE3
     /tmp/ccVT2ggL.s:1013   .text:0000000000000510 .L62
     /tmp/ccVT2ggL.s:925    .text:0000000000000478 .LEHB4
     /tmp/ccVT2ggL.s:984    .text:00000000000004dc .LEHE4
     /tmp/ccVT2ggL.s:1009   .text:0000000000000508 .LEHB5
     /tmp/ccVT2ggL.s:1012   .text:0000000000000510 .LEHE5
     /tmp/ccVT2ggL.s:1021   .text:0000000000000524 .LEHB6
     /tmp/ccVT2ggL.s:1024   .text:000000000000052c .LEHE6
     /tmp/ccVT2ggL.s:1088   .text:0000000000000548 .LEHB7
     /tmp/ccVT2ggL.s:1068   .text:000000000000052c .LFB28
     /tmp/ccVT2ggL.s:1091   .text:0000000000000550 .LEHE7
     /tmp/ccVT2ggL.s:1095   .text:0000000000000560 .LEHB8
     /tmp/ccVT2ggL.s:1098   .text:0000000000000568 .LEHE8
     /tmp/ccVT2ggL.s:1191   .text:000000000000061c .L70
     /tmp/ccVT2ggL.s:1102   .text:000000000000056c .LEHB9
     /tmp/ccVT2ggL.s:1110   .text:0000000000000580 .LEHE9
     /tmp/ccVT2ggL.s:1114   .text:0000000000000590 .LEHB10
     /tmp/ccVT2ggL.s:1117   .text:0000000000000598 .LEHE10
     /tmp/ccVT2ggL.s:1203   .text:0000000000000638 .L71
     /tmp/ccVT2ggL.s:1121   .text:000000000000059c .LEHB11
     /tmp/ccVT2ggL.s:1129   .text:00000000000005b0 .LEHE11
     /tmp/ccVT2ggL.s:1134   .text:00000000000005c0 .LEHB12
     /tmp/ccVT2ggL.s:1137   .text:00000000000005c8 .LEHE12
     /tmp/ccVT2ggL.s:1215   .text:0000000000000654 .L72
     /tmp/ccVT2ggL.s:1141   .text:00000000000005cc .LEHB13
     /tmp/ccVT2ggL.s:1174   .text:0000000000000604 .LEHE13
     /tmp/ccVT2ggL.s:1199   .text:0000000000000630 .LEHB14
     /tmp/ccVT2ggL.s:1202   .text:0000000000000638 .LEHE14
     /tmp/ccVT2ggL.s:1211   .text:000000000000064c .LEHB15
     /tmp/ccVT2ggL.s:1214   .text:0000000000000654 .LEHE15
     /tmp/ccVT2ggL.s:1223   .text:0000000000000668 .LEHB16
     /tmp/ccVT2ggL.s:1226   .text:0000000000000670 .LEHE16
     /tmp/ccVT2ggL.s:2268   .text:0000000000000cac .LEHB17
     /tmp/ccVT2ggL.s:2246   .text:0000000000000c8c .LFB41
     /tmp/ccVT2ggL.s:2271   .text:0000000000000cb4 .LEHE17
GAS LISTING /tmp/ccVT2ggL.s 			page 121


     /tmp/ccVT2ggL.s:2274   .text:0000000000000cbc .LEHB18
     /tmp/ccVT2ggL.s:2277   .text:0000000000000cc4 .LEHE18
     /tmp/ccVT2ggL.s:2361   .text:0000000000000d80 .L150
     /tmp/ccVT2ggL.s:2281   .text:0000000000000cc8 .LEHB19
     /tmp/ccVT2ggL.s:2284   .text:0000000000000cd0 .LEHE19
     /tmp/ccVT2ggL.s:2287   .text:0000000000000cd8 .LEHB20
     /tmp/ccVT2ggL.s:2290   .text:0000000000000ce0 .LEHE20
     /tmp/ccVT2ggL.s:2372   .text:0000000000000d9c .L151
     /tmp/ccVT2ggL.s:2296   .text:0000000000000cec .LEHB21
     /tmp/ccVT2ggL.s:2299   .text:0000000000000cf4 .LEHE21
     /tmp/ccVT2ggL.s:2302   .text:0000000000000cfc .LEHB22
     /tmp/ccVT2ggL.s:2305   .text:0000000000000d04 .LEHE22
     /tmp/ccVT2ggL.s:2383   .text:0000000000000db8 .L152
     /tmp/ccVT2ggL.s:2311   .text:0000000000000d10 .LEHB23
     /tmp/ccVT2ggL.s:2314   .text:0000000000000d18 .LEHE23
     /tmp/ccVT2ggL.s:2318   .text:0000000000000d28 .LEHB24
     /tmp/ccVT2ggL.s:2321   .text:0000000000000d30 .LEHE24
     /tmp/ccVT2ggL.s:2394   .text:0000000000000dd4 .L153
     /tmp/ccVT2ggL.s:2325   .text:0000000000000d34 .LEHB25
     /tmp/ccVT2ggL.s:2328   .text:0000000000000d3c .LEHE25
     /tmp/ccVT2ggL.s:2332   .text:0000000000000d4c .LEHB26
     /tmp/ccVT2ggL.s:2335   .text:0000000000000d54 .LEHE26
     /tmp/ccVT2ggL.s:2405   .text:0000000000000df0 .L154
     /tmp/ccVT2ggL.s:2339   .text:0000000000000d58 .LEHB27
     /tmp/ccVT2ggL.s:2357   .text:0000000000000d7c .LEHE27
     /tmp/ccVT2ggL.s:2368   .text:0000000000000d94 .LEHB28
     /tmp/ccVT2ggL.s:2371   .text:0000000000000d9c .LEHE28
     /tmp/ccVT2ggL.s:2379   .text:0000000000000db0 .LEHB29
     /tmp/ccVT2ggL.s:2382   .text:0000000000000db8 .LEHE29
     /tmp/ccVT2ggL.s:2390   .text:0000000000000dcc .LEHB30
     /tmp/ccVT2ggL.s:2393   .text:0000000000000dd4 .LEHE30
     /tmp/ccVT2ggL.s:2401   .text:0000000000000de8 .LEHB31
     /tmp/ccVT2ggL.s:2404   .text:0000000000000df0 .LEHE31
     /tmp/ccVT2ggL.s:2412   .text:0000000000000e04 .LEHB32
     /tmp/ccVT2ggL.s:2415   .text:0000000000000e0c .LEHE32
     /tmp/ccVT2ggL.s:2516   .text:0000000000000e2c .LEHB33
     /tmp/ccVT2ggL.s:2494   .text:0000000000000e0c .LFB45
     /tmp/ccVT2ggL.s:2519   .text:0000000000000e34 .LEHE33
     /tmp/ccVT2ggL.s:2522   .text:0000000000000e3c .LEHB34
     /tmp/ccVT2ggL.s:2525   .text:0000000000000e44 .LEHE34
     /tmp/ccVT2ggL.s:2653   .text:0000000000000f5c .L164
     /tmp/ccVT2ggL.s:2531   .text:0000000000000e50 .LEHB35
     /tmp/ccVT2ggL.s:2534   .text:0000000000000e58 .LEHE35
     /tmp/ccVT2ggL.s:2537   .text:0000000000000e60 .LEHB36
     /tmp/ccVT2ggL.s:2540   .text:0000000000000e68 .LEHE36
     /tmp/ccVT2ggL.s:2665   .text:0000000000000f78 .L165
     /tmp/ccVT2ggL.s:2546   .text:0000000000000e74 .LEHB37
     /tmp/ccVT2ggL.s:2549   .text:0000000000000e7c .LEHE37
     /tmp/ccVT2ggL.s:2552   .text:0000000000000e84 .LEHB38
     /tmp/ccVT2ggL.s:2555   .text:0000000000000e8c .LEHE38
     /tmp/ccVT2ggL.s:2676   .text:0000000000000f94 .L166
     /tmp/ccVT2ggL.s:2561   .text:0000000000000e98 .LEHB39
     /tmp/ccVT2ggL.s:2564   .text:0000000000000ea0 .LEHE39
     /tmp/ccVT2ggL.s:2568   .text:0000000000000eb0 .LEHB40
     /tmp/ccVT2ggL.s:2571   .text:0000000000000eb8 .LEHE40
     /tmp/ccVT2ggL.s:2687   .text:0000000000000fb0 .L167
     /tmp/ccVT2ggL.s:2575   .text:0000000000000ebc .LEHB41
GAS LISTING /tmp/ccVT2ggL.s 			page 122


     /tmp/ccVT2ggL.s:2578   .text:0000000000000ec4 .LEHE41
     /tmp/ccVT2ggL.s:2582   .text:0000000000000ed4 .LEHB42
     /tmp/ccVT2ggL.s:2585   .text:0000000000000edc .LEHE42
     /tmp/ccVT2ggL.s:2698   .text:0000000000000fcc .L168
     /tmp/ccVT2ggL.s:2589   .text:0000000000000ee0 .LEHB43
     /tmp/ccVT2ggL.s:2592   .text:0000000000000ee8 .LEHE43
     /tmp/ccVT2ggL.s:2596   .text:0000000000000ef8 .LEHB44
     /tmp/ccVT2ggL.s:2599   .text:0000000000000f00 .LEHE44
     /tmp/ccVT2ggL.s:2709   .text:0000000000000fe8 .L169
     /tmp/ccVT2ggL.s:2603   .text:0000000000000f04 .LEHB45
     /tmp/ccVT2ggL.s:2630   .text:0000000000000f34 .LEHE45
     /tmp/ccVT2ggL.s:2661   .text:0000000000000f70 .LEHB46
     /tmp/ccVT2ggL.s:2664   .text:0000000000000f78 .LEHE46
     /tmp/ccVT2ggL.s:2672   .text:0000000000000f8c .LEHB47
     /tmp/ccVT2ggL.s:2675   .text:0000000000000f94 .LEHE47
     /tmp/ccVT2ggL.s:2683   .text:0000000000000fa8 .LEHB48
     /tmp/ccVT2ggL.s:2686   .text:0000000000000fb0 .LEHE48
     /tmp/ccVT2ggL.s:2694   .text:0000000000000fc4 .LEHB49
     /tmp/ccVT2ggL.s:2697   .text:0000000000000fcc .LEHE49
     /tmp/ccVT2ggL.s:2705   .text:0000000000000fe0 .LEHB50
     /tmp/ccVT2ggL.s:2708   .text:0000000000000fe8 .LEHE50
     /tmp/ccVT2ggL.s:2717   .text:0000000000000ffc .LEHB51
     /tmp/ccVT2ggL.s:2720   .text:0000000000001004 .LEHE51
     /tmp/ccVT2ggL.s:2896   .text:0000000000001078 .LEHB52
     /tmp/ccVT2ggL.s:2876   .text:000000000000105c .LFB29
     /tmp/ccVT2ggL.s:2899   .text:0000000000001080 .LEHE52
     /tmp/ccVT2ggL.s:2902   .text:0000000000001088 .LEHB53
     /tmp/ccVT2ggL.s:2905   .text:0000000000001090 .LEHE53
     /tmp/ccVT2ggL.s:2918   .text:00000000000010a0 .L179
     /tmp/ccVT2ggL.s:2909   .text:0000000000001094 .LEHB54
     /tmp/ccVT2ggL.s:2912   .text:000000000000109c .LEHE54
     /tmp/ccVT2ggL.s:2925   .text:00000000000010b4 .LEHB55
     /tmp/ccVT2ggL.s:2928   .text:00000000000010bc .LEHE55
     /tmp/ccVT2ggL.s:8764   .debug_abbrev:0000000000000000 .Ldebug_abbrev0
     /tmp/ccVT2ggL.s:11758  .debug_str:0000000000000996 .LASF247
     /tmp/ccVT2ggL.s:11680  .debug_str:000000000000077e .LASF248
     /tmp/ccVT2ggL.s:11474  .debug_str:000000000000013a .LASF249
     /tmp/ccVT2ggL.s:11380  .debug_ranges:0000000000000000 .Ldebug_ranges0
     /tmp/ccVT2ggL.s:11428  .debug_line:0000000000000000 .Ldebug_line0
     /tmp/ccVT2ggL.s:11482  .debug_str:000000000000019c .LASF0
     /tmp/ccVT2ggL.s:11914  .debug_str:0000000000000e97 .LASF1
     /tmp/ccVT2ggL.s:11858  .debug_str:0000000000000cee .LASF2
     /tmp/ccVT2ggL.s:11828  .debug_str:0000000000000c36 .LASF4
     /tmp/ccVT2ggL.s:11838  .debug_str:0000000000000c72 .LASF3
     /tmp/ccVT2ggL.s:11584  .debug_str:00000000000004ad .LASF5
     /tmp/ccVT2ggL.s:11650  .debug_str:0000000000000681 .LASF6
     /tmp/ccVT2ggL.s:11628  .debug_str:00000000000005dd .LASF7
     /tmp/ccVT2ggL.s:11768  .debug_str:0000000000000a78 .LASF8
     /tmp/ccVT2ggL.s:11504  .debug_str:0000000000000231 .LASF9
     /tmp/ccVT2ggL.s:11898  .debug_str:0000000000000e2a .LASF10
     /tmp/ccVT2ggL.s:11592  .debug_str:00000000000004e2 .LASF11
     /tmp/ccVT2ggL.s:11540  .debug_str:0000000000000357 .LASF12
     /tmp/ccVT2ggL.s:11654  .debug_str:000000000000069d .LASF13
     /tmp/ccVT2ggL.s:11598  .debug_str:0000000000000507 .LASF14
     /tmp/ccVT2ggL.s:11814  .debug_str:0000000000000bf2 .LASF15
     /tmp/ccVT2ggL.s:11600  .debug_str:0000000000000517 .LASF16
     /tmp/ccVT2ggL.s:11572  .debug_str:0000000000000459 .LASF17
GAS LISTING /tmp/ccVT2ggL.s 			page 123


     /tmp/ccVT2ggL.s:11528  .debug_str:00000000000002f2 .LASF86
     /tmp/ccVT2ggL.s:11806  .debug_str:0000000000000bb2 .LASF18
     /tmp/ccVT2ggL.s:11476  .debug_str:000000000000015d .LASF20
     /tmp/ccVT2ggL.s:11766  .debug_str:0000000000000a6d .LASF19
     /tmp/ccVT2ggL.s:11876  .debug_str:0000000000000d7e .LASF21
     /tmp/ccVT2ggL.s:11878  .debug_str:0000000000000d96 .LASF22
     /tmp/ccVT2ggL.s:11586  .debug_str:00000000000004b4 .LASF23
     /tmp/ccVT2ggL.s:11564  .debug_str:0000000000000422 .LASF28
     /tmp/ccVT2ggL.s:11676  .debug_str:0000000000000757 .LASF30
     /tmp/ccVT2ggL.s:11948  .debug_str:0000000000000f86 .LASF24
     /tmp/ccVT2ggL.s:11780  .debug_str:0000000000000add .LASF25
     /tmp/ccVT2ggL.s:11622  .debug_str:00000000000005b9 .LASF26
     /tmp/ccVT2ggL.s:11674  .debug_str:0000000000000738 .LASF27
     /tmp/ccVT2ggL.s:11774  .debug_str:0000000000000ab8 .LASF29
     /tmp/ccVT2ggL.s:11762  .debug_str:0000000000000a4a .LASF31
     /tmp/ccVT2ggL.s:11940  .debug_str:0000000000000f53 .LASF32
     /tmp/ccVT2ggL.s:11734  .debug_str:00000000000008ea .LASF33
     /tmp/ccVT2ggL.s:11530  .debug_str:00000000000002f8 .LASF34
     /tmp/ccVT2ggL.s:11686  .debug_str:0000000000000799 .LASF35
     /tmp/ccVT2ggL.s:11646  .debug_str:0000000000000668 .LASF36
     /tmp/ccVT2ggL.s:11872  .debug_str:0000000000000d4e .LASF37
     /tmp/ccVT2ggL.s:11934  .debug_str:0000000000000f21 .LASF40
     /tmp/ccVT2ggL.s:11896  .debug_str:0000000000000e15 .LASF42
     /tmp/ccVT2ggL.s:11802  .debug_str:0000000000000b9d .LASF38
     /tmp/ccVT2ggL.s:11500  .debug_str:0000000000000210 .LASF39
     /tmp/ccVT2ggL.s:11558  .debug_str:00000000000003fa .LASF41
     /tmp/ccVT2ggL.s:11604  .debug_str:0000000000000532 .LASF43
     /tmp/ccVT2ggL.s:11582  .debug_str:00000000000004a6 .LASF44
     /tmp/ccVT2ggL.s:11494  .debug_str:00000000000001e5 .LASF45
     /tmp/ccVT2ggL.s:11916  .debug_str:0000000000000eaa .LASF46
     /tmp/ccVT2ggL.s:11810  .debug_str:0000000000000bc5 .LASF47
     /tmp/ccVT2ggL.s:11808  .debug_str:0000000000000bbd .LASF48
     /tmp/ccVT2ggL.s:11522  .debug_str:00000000000002c2 .LASF49
     /tmp/ccVT2ggL.s:11760  .debug_str:0000000000000a42 .LASF50
     /tmp/ccVT2ggL.s:11432  .debug_str:000000000000000a .LASF51
     /tmp/ccVT2ggL.s:11672  .debug_str:0000000000000730 .LASF52
     /tmp/ccVT2ggL.s:11636  .debug_str:0000000000000611 .LASF53
     /tmp/ccVT2ggL.s:11870  .debug_str:0000000000000d47 .LASF54
     /tmp/ccVT2ggL.s:11716  .debug_str:0000000000000865 .LASF55
     /tmp/ccVT2ggL.s:11630  .debug_str:00000000000005f0 .LASF56
     /tmp/ccVT2ggL.s:11856  .debug_str:0000000000000cdb .LASF57
     /tmp/ccVT2ggL.s:11696  .debug_str:00000000000007f0 .LASF58
     /tmp/ccVT2ggL.s:11926  .debug_str:0000000000000edf .LASF59
     /tmp/ccVT2ggL.s:11840  .debug_str:0000000000000c84 .LASF60
     /tmp/ccVT2ggL.s:11752  .debug_str:0000000000000967 .LASF61
     /tmp/ccVT2ggL.s:11784  .debug_str:0000000000000b0a .LASF62
     /tmp/ccVT2ggL.s:11538  .debug_str:000000000000033f .LASF63
     /tmp/ccVT2ggL.s:11496  .debug_str:00000000000001f8 .LASF64
     /tmp/ccVT2ggL.s:11942  .debug_str:0000000000000f60 .LASF65
     /tmp/ccVT2ggL.s:11596  .debug_str:00000000000004fd .LASF66
     /tmp/ccVT2ggL.s:11566  .debug_str:0000000000000432 .LASF67
     /tmp/ccVT2ggL.s:11826  .debug_str:0000000000000c2c .LASF68
     /tmp/ccVT2ggL.s:11642  .debug_str:000000000000064d .LASF69
     /tmp/ccVT2ggL.s:11772  .debug_str:0000000000000aad .LASF70
     /tmp/ccVT2ggL.s:11890  .debug_str:0000000000000de0 .LASF71
     /tmp/ccVT2ggL.s:11792  .debug_str:0000000000000b52 .LASF72
     /tmp/ccVT2ggL.s:11546  .debug_str:0000000000000394 .LASF73
GAS LISTING /tmp/ccVT2ggL.s 			page 124


     /tmp/ccVT2ggL.s:11484  .debug_str:00000000000001a9 .LASF74
     /tmp/ccVT2ggL.s:11770  .debug_str:0000000000000a8b .LASF75
     /tmp/ccVT2ggL.s:11454  .debug_str:0000000000000082 .LASF76
     /tmp/ccVT2ggL.s:11854  .debug_str:0000000000000cd3 .LASF77
     /tmp/ccVT2ggL.s:11720  .debug_str:000000000000087d .LASF78
     /tmp/ccVT2ggL.s:11754  .debug_str:0000000000000979 .LASF79
     /tmp/ccVT2ggL.s:11632  .debug_str:00000000000005f7 .LASF80
     /tmp/ccVT2ggL.s:11904  .debug_str:0000000000000e49 .LASF81
     /tmp/ccVT2ggL.s:11458  .debug_str:0000000000000099 .LASF82
     /tmp/ccVT2ggL.s:11552  .debug_str:00000000000003c3 .LASF83
     /tmp/ccVT2ggL.s:11514  .debug_str:000000000000028b .LASF84
     /tmp/ccVT2ggL.s:11624  .debug_str:00000000000005cb .LASF85
     /tmp/ccVT2ggL.s:11508  .debug_str:0000000000000246 .LASF250
     /tmp/ccVT2ggL.s:11682  .debug_str:000000000000078c .LASF87
     /tmp/ccVT2ggL.s:11726  .debug_str:00000000000008ac .LASF88
     /tmp/ccVT2ggL.s:11842  .debug_str:0000000000000c8a .LASF89
     /tmp/ccVT2ggL.s:11620  .debug_str:00000000000005b0 .LASF90
     /tmp/ccVT2ggL.s:11614  .debug_str:0000000000000586 .LASF91
     /tmp/ccVT2ggL.s:11944  .debug_str:0000000000000f78 .LASF92
     /tmp/ccVT2ggL.s:11764  .debug_str:0000000000000a65 .LASF136
     /tmp/ccVT2ggL.s:11570  .debug_str:0000000000000453 .LASF93
     /tmp/ccVT2ggL.s:11688  .debug_str:00000000000007b4 .LASF251
     /tmp/ccVT2ggL.s:11900  .debug_str:0000000000000e38 .LASF252
     /tmp/ccVT2ggL.s:11602  .debug_str:000000000000052d .LASF94
     /tmp/ccVT2ggL.s:11594  .debug_str:00000000000004f1 .LASF96
     /tmp/ccVT2ggL.s:11822  .debug_str:0000000000000c1c .LASF95
     /tmp/ccVT2ggL.s:11638  .debug_str:0000000000000625 .LASF97
     /tmp/ccVT2ggL.s:11666  .debug_str:0000000000000705 .LASF98
     /tmp/ccVT2ggL.s:11616  .debug_str:000000000000058e .LASF99
     /tmp/ccVT2ggL.s:11880  .debug_str:0000000000000da0 .LASF100
     /tmp/ccVT2ggL.s:11518  .debug_str:00000000000002a5 .LASF101
     /tmp/ccVT2ggL.s:11928  .debug_str:0000000000000ef1 .LASF102
     /tmp/ccVT2ggL.s:11866  .debug_str:0000000000000d2a .LASF103
     /tmp/ccVT2ggL.s:11520  .debug_str:00000000000002b5 .LASF108
     /tmp/ccVT2ggL.s:11640  .debug_str:0000000000000635 .LASF110
     /tmp/ccVT2ggL.s:11742  .debug_str:0000000000000934 .LASF104
     /tmp/ccVT2ggL.s:11502  .debug_str:0000000000000225 .LASF105
     /tmp/ccVT2ggL.s:11738  .debug_str:000000000000091f .LASF106
     /tmp/ccVT2ggL.s:11776  .debug_str:0000000000000ac4 .LASF107
     /tmp/ccVT2ggL.s:11746  .debug_str:000000000000094d .LASF109
     /tmp/ccVT2ggL.s:11512  .debug_str:0000000000000278 .LASF111
     /tmp/ccVT2ggL.s:11922  .debug_str:0000000000000ec8 .LASF112
     /tmp/ccVT2ggL.s:11462  .debug_str:00000000000000c4 .LASF113
     /tmp/ccVT2ggL.s:11660  .debug_str:00000000000006d1 .LASF114
     /tmp/ccVT2ggL.s:11610  .debug_str:0000000000000564 .LASF115
     /tmp/ccVT2ggL.s:11782  .debug_str:0000000000000afb .LASF116
     /tmp/ccVT2ggL.s:11694  .debug_str:00000000000007d6 .LASF117
     /tmp/ccVT2ggL.s:11864  .debug_str:0000000000000d1c .LASF118
     /tmp/ccVT2ggL.s:11868  .debug_str:0000000000000d3b .LASF119
     /tmp/ccVT2ggL.s:11796  .debug_str:0000000000000b69 .LASF120
     /tmp/ccVT2ggL.s:11438  .debug_str:000000000000002e .LASF121
     /tmp/ccVT2ggL.s:11626  .debug_str:00000000000005d0 .LASF124
     /tmp/ccVT2ggL.s:11790  .debug_str:0000000000000b47 .LASF122
     /tmp/ccVT2ggL.s:11882  .debug_str:0000000000000da6 .LASF123
     /tmp/ccVT2ggL.s:11886  .debug_str:0000000000000dc2 .LASF125
     /tmp/ccVT2ggL.s:11526  .debug_str:00000000000002e8 .LASF126
     /tmp/ccVT2ggL.s:11846  .debug_str:0000000000000c99 .LASF127
GAS LISTING /tmp/ccVT2ggL.s 			page 125


     /tmp/ccVT2ggL.s:11894  .debug_str:0000000000000e07 .LASF128
     /tmp/ccVT2ggL.s:11472  .debug_str:0000000000000112 .LASF130
     /tmp/ccVT2ggL.s:11608  .debug_str:000000000000054f .LASF129
     /tmp/ccVT2ggL.s:11510  .debug_str:000000000000024c .LASF131
     /tmp/ccVT2ggL.s:11700  .debug_str:00000000000007fd .LASF154
     /tmp/ccVT2ggL.s:11938  .debug_str:0000000000000f42 .LASF253
     /tmp/ccVT2ggL.s:11844  .debug_str:0000000000000c94 .LASF132
     /tmp/ccVT2ggL.s:11740  .debug_str:000000000000092f .LASF133
     /tmp/ccVT2ggL.s:11488  .debug_str:00000000000001c7 .LASF134
     /tmp/ccVT2ggL.s:11884  .debug_str:0000000000000dbc .LASF135
     /tmp/ccVT2ggL.s:11724  .debug_str:00000000000008a4 .LASF137
     /tmp/ccVT2ggL.s:11690  .debug_str:00000000000007cc .LASF138
     /tmp/ccVT2ggL.s:11816  .debug_str:0000000000000bfe .LASF139
     /tmp/ccVT2ggL.s:11470  .debug_str:000000000000010b .LASF140
     /tmp/ccVT2ggL.s:11708  .debug_str:0000000000000837 .LASF160
     /tmp/ccVT2ggL.s:11652  .debug_str:0000000000000688 .LASF141
     /tmp/ccVT2ggL.s:11718  .debug_str:0000000000000878 .LASF143
     /tmp/ccVT2ggL.s:11468  .debug_str:00000000000000f4 .LASF142
     /tmp/ccVT2ggL.s:11464  .debug_str:00000000000000e0 .LASF144
     /tmp/ccVT2ggL.s:11550  .debug_str:00000000000003bd .LASF168
     /tmp/ccVT2ggL.s:11548  .debug_str:00000000000003b0 .LASF145
     /tmp/ccVT2ggL.s:11722  .debug_str:000000000000088c .LASF146
     /tmp/ccVT2ggL.s:11812  .debug_str:0000000000000bd9 .LASF147
     /tmp/ccVT2ggL.s:11452  .debug_str:000000000000006c .LASF254
     /tmp/ccVT2ggL.s:11480  .debug_str:0000000000000189 .LASF153
     /tmp/ccVT2ggL.s:11786  .debug_str:0000000000000b15 .LASF255
     /tmp/ccVT2ggL.s:11706  .debug_str:0000000000000829 .LASF148
     /tmp/ccVT2ggL.s:11732  .debug_str:00000000000008d4 .LASF158
     /tmp/ccVT2ggL.s:11892  .debug_str:0000000000000df8 .LASF149
     /tmp/ccVT2ggL.s:11656  .debug_str:00000000000006ad .LASF150
     /tmp/ccVT2ggL.s:11662  .debug_str:00000000000006e0 .LASF151
     /tmp/ccVT2ggL.s:11536  .debug_str:0000000000000327 .LASF152
     /tmp/ccVT2ggL.s:11906  .debug_str:0000000000000e5b .LASF256
     /tmp/ccVT2ggL.s:11544  .debug_str:0000000000000376 .LASF155
     /tmp/ccVT2ggL.s:11574  .debug_str:000000000000046f .LASF156
     /tmp/ccVT2ggL.s:11490  .debug_str:00000000000001cf .LASF157
     /tmp/ccVT2ggL.s:11832  .debug_str:0000000000000c4d .LASF159
     /tmp/ccVT2ggL.s:11634  .debug_str:000000000000060a .LASF161
     /tmp/ccVT2ggL.s:11932  .debug_str:0000000000000f10 .LASF257
     /tmp/ccVT2ggL.s:11800  .debug_str:0000000000000b8a .LASF162
     /tmp/ccVT2ggL.s:11750  .debug_str:0000000000000962 .LASF163
     /tmp/ccVT2ggL.s:11824  .debug_str:0000000000000c22 .LASF164
     /tmp/ccVT2ggL.s:11450  .debug_str:0000000000000056 .LASF165
     /tmp/ccVT2ggL.s:815    .text._ZN12TestPeriodicD0Ev:0000000000000000 .LFB62
     /tmp/ccVT2ggL.s:858    .text._ZN12TestPeriodicD0Ev:000000000000004c .LFE62
     /tmp/ccVT2ggL.s:10238  .debug_loc:0000000000000000 .LLST20
     /tmp/ccVT2ggL.s:831    .text._ZN12TestPeriodicD0Ev:0000000000000018 .LBB29
     /tmp/ccVT2ggL.s:841    .text._ZN12TestPeriodicD0Ev:000000000000002c .LBE29
     /tmp/ccVT2ggL.s:10256  .debug_loc:000000000000004c .LLST21
     /tmp/ccVT2ggL.s:832    .text._ZN12TestPeriodicD0Ev:0000000000000018 .LBB30
     /tmp/ccVT2ggL.s:840    .text._ZN12TestPeriodicD0Ev:000000000000002c .LBE30
     /tmp/ccVT2ggL.s:838    .text._ZN12TestPeriodicD0Ev:000000000000002c .LVL90
     /tmp/ccVT2ggL.s:845    .text._ZN12TestPeriodicD0Ev:0000000000000038 .LVL91
     /tmp/ccVT2ggL.s:11848  .debug_str:0000000000000ca5 .LASF166
     /tmp/ccVT2ggL.s:773    .text._ZN12TestPeriodicD2Ev:0000000000000000 .LFB60
     /tmp/ccVT2ggL.s:806    .text._ZN12TestPeriodicD2Ev:0000000000000034 .LFE60
     /tmp/ccVT2ggL.s:10267  .debug_loc:0000000000000082 .LLST18
GAS LISTING /tmp/ccVT2ggL.s 			page 126


     /tmp/ccVT2ggL.s:787    .text._ZN12TestPeriodicD2Ev:0000000000000010 .LBB27
     /tmp/ccVT2ggL.s:795    .text._ZN12TestPeriodicD2Ev:0000000000000024 .LBE27
     /tmp/ccVT2ggL.s:10281  .debug_loc:00000000000000bb .LLST19
     /tmp/ccVT2ggL.s:793    .text._ZN12TestPeriodicD2Ev:0000000000000024 .LVL87
     /tmp/ccVT2ggL.s:11524  .debug_str:00000000000002d6 .LASF167
     /tmp/ccVT2ggL.s:11930  .debug_str:0000000000000ef9 .LASF180
     /tmp/ccVT2ggL.s:3302   .text:000000000000132c .LFB58
     /tmp/ccVT2ggL.s:3617   .text:0000000000001580 .LFE58
     /tmp/ccVT2ggL.s:11644  .debug_str:0000000000000663 .LASF169
     /tmp/ccVT2ggL.s:11440  .debug_str:0000000000000039 .LASF170
     /tmp/ccVT2ggL.s:10295  .debug_loc:00000000000000f4 .LLST76
     /tmp/ccVT2ggL.s:11442  .debug_str:000000000000003e .LASF171
     /tmp/ccVT2ggL.s:10306  .debug_loc:000000000000012a .LLST77
     /tmp/ccVT2ggL.s:10325  .debug_loc:0000000000000186 .LLST78
     /tmp/ccVT2ggL.s:10346  .debug_loc:00000000000001e6 .LLST79
     /tmp/ccVT2ggL.s:10367  .debug_loc:0000000000000246 .LLST80
     /tmp/ccVT2ggL.s:10378  .debug_loc:000000000000027c .LLST81
     /tmp/ccVT2ggL.s:11492  .debug_str:00000000000001df .LASF172
     /tmp/ccVT2ggL.s:10409  .debug_loc:0000000000000305 .LLST82
     /tmp/ccVT2ggL.s:11434  .debug_str:000000000000001e .LASF173
     /tmp/ccVT2ggL.s:10420  .debug_loc:000000000000033b .LLST83
     /tmp/ccVT2ggL.s:11908  .debug_str:0000000000000e85 .LASF174
     /tmp/ccVT2ggL.s:10431  .debug_loc:0000000000000371 .LLST84
     /tmp/ccVT2ggL.s:11444  .debug_str:0000000000000043 .LASF175
     /tmp/ccVT2ggL.s:10442  .debug_loc:00000000000003a7 .LLST85
     /tmp/ccVT2ggL.s:11446  .debug_str:0000000000000048 .LASF176
     /tmp/ccVT2ggL.s:10457  .debug_loc:00000000000003f0 .LLST86
     /tmp/ccVT2ggL.s:11910  .debug_str:0000000000000e8b .LASF177
     /tmp/ccVT2ggL.s:10480  .debug_loc:000000000000045f .LLST87
     /tmp/ccVT2ggL.s:11912  .debug_str:0000000000000e91 .LASF178
     /tmp/ccVT2ggL.s:10491  .debug_loc:0000000000000495 .LLST88
     /tmp/ccVT2ggL.s:3334   .text:000000000000136c .LBB65
     /tmp/ccVT2ggL.s:3369   .text:00000000000013b4 .LBE65
     /tmp/ccVT2ggL.s:10506  .debug_loc:00000000000004de .LLST89
     /tmp/ccVT2ggL.s:3348   .text:0000000000001388 .LVL373
     /tmp/ccVT2ggL.s:3366   .text:00000000000013b4 .LVL376
     /tmp/ccVT2ggL.s:3581   .text:000000000000152c .LVL415
     /tmp/ccVT2ggL.s:3333   .text:000000000000136c .LVL371
     /tmp/ccVT2ggL.s:3406   .text:00000000000013f4 .LVL378
     /tmp/ccVT2ggL.s:3412   .text:0000000000001400 .LVL379
     /tmp/ccVT2ggL.s:3419   .text:0000000000001410 .LVL381
     /tmp/ccVT2ggL.s:3427   .text:0000000000001420 .LVL384
     /tmp/ccVT2ggL.s:3476   .text:0000000000001468 .LVL392
     /tmp/ccVT2ggL.s:3485   .text:0000000000001478 .LVL393
     /tmp/ccVT2ggL.s:3491   .text:0000000000001484 .LVL394
     /tmp/ccVT2ggL.s:3499   .text:0000000000001494 .LVL397
     /tmp/ccVT2ggL.s:3527   .text:00000000000014c4 .LVL402
     /tmp/ccVT2ggL.s:3537   .text:00000000000014d8 .LVL405
     /tmp/ccVT2ggL.s:3547   .text:00000000000014ec .LVL408
     /tmp/ccVT2ggL.s:3557   .text:0000000000001500 .LVL411
     /tmp/ccVT2ggL.s:3589   .text:000000000000153c .LVL416
     /tmp/ccVT2ggL.s:3594   .text:0000000000001548 .LVL417
     /tmp/ccVT2ggL.s:3599   .text:0000000000001554 .LVL418
     /tmp/ccVT2ggL.s:3604   .text:0000000000001560 .LVL419
     /tmp/ccVT2ggL.s:3609   .text:000000000000156c .LVL420
     /tmp/ccVT2ggL.s:3614   .text:000000000000157c .LVL421
     /tmp/ccVT2ggL.s:11860  .debug_str:0000000000000cfc .LASF179
GAS LISTING /tmp/ccVT2ggL.s 			page 127


     /tmp/ccVT2ggL.s:11576  .debug_str:0000000000000474 .LASF181
     /tmp/ccVT2ggL.s:3168   .text:0000000000001224 .LFB57
     /tmp/ccVT2ggL.s:3288   .text:000000000000132c .LFE57
     /tmp/ccVT2ggL.s:11486  .debug_str:00000000000001be .LASF182
     /tmp/ccVT2ggL.s:10521  .debug_loc:0000000000000527 .LLST72
     /tmp/ccVT2ggL.s:10534  .debug_loc:000000000000055f .LLST73
     /tmp/ccVT2ggL.s:11710  .debug_str:0000000000000841 .LASF183
     /tmp/ccVT2ggL.s:10549  .debug_loc:00000000000005a8 .LLST74
     /tmp/ccVT2ggL.s:11804  .debug_str:0000000000000ba6 .LASF184
     /tmp/ccVT2ggL.s:10556  .debug_loc:00000000000005cb .LLST75
     /tmp/ccVT2ggL.s:3185   .text:0000000000001248 .LVL351
     /tmp/ccVT2ggL.s:3199   .text:0000000000001270 .LVL354
     /tmp/ccVT2ggL.s:3207   .text:0000000000001284 .LVL356
     /tmp/ccVT2ggL.s:3245   .text:00000000000012cc .LVL361
     /tmp/ccVT2ggL.s:3254   .text:00000000000012e0 .LVL363
     /tmp/ccVT2ggL.s:3262   .text:00000000000012f0 .LVL365
     /tmp/ccVT2ggL.s:3267   .text:0000000000001300 .LVL366
     /tmp/ccVT2ggL.s:3274   .text:0000000000001314 .LVL367
     /tmp/ccVT2ggL.s:3284   .text:0000000000001328 .LVL370
     /tmp/ccVT2ggL.s:11568  .debug_str:0000000000000448 .LASF185
     /tmp/ccVT2ggL.s:11850  .debug_str:0000000000000cbb .LASF186
     /tmp/ccVT2ggL.s:2989   .text:00000000000010d4 .LFB56
     /tmp/ccVT2ggL.s:3154   .text:0000000000001224 .LFE56
     /tmp/ccVT2ggL.s:10567  .debug_loc:0000000000000601 .LLST66
     /tmp/ccVT2ggL.s:10574  .debug_loc:0000000000000624 .LLST67
     /tmp/ccVT2ggL.s:10585  .debug_loc:000000000000065a .LLST68
     /tmp/ccVT2ggL.s:10596  .debug_loc:0000000000000690 .LLST69
     /tmp/ccVT2ggL.s:10607  .debug_loc:00000000000006c6 .LLST70
     /tmp/ccVT2ggL.s:10618  .debug_loc:00000000000006fc .LLST71
     /tmp/ccVT2ggL.s:3016   .text:000000000000110c .LVL319
     /tmp/ccVT2ggL.s:3021   .text:0000000000001118 .LVL320
     /tmp/ccVT2ggL.s:3032   .text:0000000000001130 .LVL322
     /tmp/ccVT2ggL.s:3040   .text:0000000000001140 .LVL325
     /tmp/ccVT2ggL.s:3048   .text:0000000000001150 .LVL328
     /tmp/ccVT2ggL.s:3057   .text:0000000000001164 .LVL331
     /tmp/ccVT2ggL.s:3065   .text:0000000000001174 .LVL334
     /tmp/ccVT2ggL.s:3082   .text:0000000000001198 .LVL336
     /tmp/ccVT2ggL.s:3087   .text:00000000000011a4 .LVL337
     /tmp/ccVT2ggL.s:3092   .text:00000000000011b0 .LVL338
     /tmp/ccVT2ggL.s:3097   .text:00000000000011bc .LVL339
     /tmp/ccVT2ggL.s:3102   .text:00000000000011c8 .LVL340
     /tmp/ccVT2ggL.s:3109   .text:00000000000011d8 .LVL341
     /tmp/ccVT2ggL.s:3115   .text:00000000000011e8 .LVL342
     /tmp/ccVT2ggL.s:3124   .text:00000000000011fc .LVL345
     /tmp/ccVT2ggL.s:291    .text:000000000000015c .LFB55
     /tmp/ccVT2ggL.s:346    .text:00000000000001b8 .LFE55
     /tmp/ccVT2ggL.s:10633  .debug_loc:0000000000000745 .LLST5
     /tmp/ccVT2ggL.s:307    .text:0000000000000170 .LBB22
     /tmp/ccVT2ggL.s:332    .text:00000000000001a4 .LBE22
     /tmp/ccVT2ggL.s:10647  .debug_loc:000000000000077e .LLST6
     /tmp/ccVT2ggL.s:320    .text:0000000000000190 .LVL29
     /tmp/ccVT2ggL.s:325    .text:000000000000019c .LVL30
     /tmp/ccVT2ggL.s:11560  .debug_str:0000000000000401 .LASF187
     /tmp/ccVT2ggL.s:2833   .text:000000000000101c .LFB53
     /tmp/ccVT2ggL.s:2868   .text:000000000000105c .LFE53
     /tmp/ccVT2ggL.s:10663  .debug_loc:00000000000007c8 .LLST63
     /tmp/ccVT2ggL.s:10681  .debug_loc:0000000000000814 .LLST64
GAS LISTING /tmp/ccVT2ggL.s 			page 128


     /tmp/ccVT2ggL.s:2851   .text:000000000000103c .LVL310
     /tmp/ccVT2ggL.s:11534  .debug_str:000000000000030f .LASF188
     /tmp/ccVT2ggL.s:726    .text._ZN14PeriodicThreadD0Ev:0000000000000000 .LFB52
     /tmp/ccVT2ggL.s:766    .text._ZN14PeriodicThreadD0Ev:000000000000004c .LFE52
     /tmp/ccVT2ggL.s:10695  .debug_loc:000000000000084d .LLST16
     /tmp/ccVT2ggL.s:742    .text._ZN14PeriodicThreadD0Ev:0000000000000018 .LBB25
     /tmp/ccVT2ggL.s:750    .text._ZN14PeriodicThreadD0Ev:000000000000002c .LBE25
     /tmp/ccVT2ggL.s:10713  .debug_loc:0000000000000899 .LLST17
     /tmp/ccVT2ggL.s:748    .text._ZN14PeriodicThreadD0Ev:000000000000002c .LVL82
     /tmp/ccVT2ggL.s:753    .text._ZN14PeriodicThreadD0Ev:0000000000000038 .LVL83
     /tmp/ccVT2ggL.s:11936  .debug_str:0000000000000f2a .LASF189
     /tmp/ccVT2ggL.s:689    .text._ZN14PeriodicThreadD2Ev:0000000000000000 .LFB50
     /tmp/ccVT2ggL.s:717    .text._ZN14PeriodicThreadD2Ev:0000000000000034 .LFE50
     /tmp/ccVT2ggL.s:10724  .debug_loc:00000000000008cf .LLST15
     /tmp/ccVT2ggL.s:706    .text._ZN14PeriodicThreadD2Ev:0000000000000024 .LVL79
     /tmp/ccVT2ggL.s:11852  .debug_str:0000000000000ccb .LASF190
     /tmp/ccVT2ggL.s:11588  .debug_str:00000000000004ca .LASF191
     /tmp/ccVT2ggL.s:3654   .text:00000000000015a8 .LFB47
     /tmp/ccVT2ggL.s:3679   .text:00000000000015d0 .LFE47
     /tmp/ccVT2ggL.s:3668   .text:00000000000015c0 .LVL423
     /tmp/ccVT2ggL.s:11618  .debug_str:00000000000005a1 .LASF192
     /tmp/ccVT2ggL.s:11478  .debug_str:0000000000000175 .LASF193
     /tmp/ccVT2ggL.s:2811   .text:0000000000001004 .LFB46
     /tmp/ccVT2ggL.s:2827   .text:000000000000101c .LFE46
     /tmp/ccVT2ggL.s:2825   .text:000000000000101c .LVL308
     /tmp/ccVT2ggL.s:11532  .debug_str:0000000000000306 .LASF194
     /tmp/ccVT2ggL.s:11498  .debug_str:0000000000000203 .LASF195
     /tmp/ccVT2ggL.s:2722   .text:0000000000001004 .LFE45
     /tmp/ccVT2ggL.s:10738  .debug_loc:0000000000000908 .LLST59
     /tmp/ccVT2ggL.s:10749  .debug_loc:000000000000093e .LLST60
     /tmp/ccVT2ggL.s:10760  .debug_loc:0000000000000974 .LLST61
     /tmp/ccVT2ggL.s:10767  .debug_loc:0000000000000997 .LLST62
     /tmp/ccVT2ggL.s:2518   .text:0000000000000e34 .LVL275
     /tmp/ccVT2ggL.s:2524   .text:0000000000000e44 .LVL276
     /tmp/ccVT2ggL.s:2533   .text:0000000000000e58 .LVL277
     /tmp/ccVT2ggL.s:2539   .text:0000000000000e68 .LVL278
     /tmp/ccVT2ggL.s:2548   .text:0000000000000e7c .LVL279
     /tmp/ccVT2ggL.s:2554   .text:0000000000000e8c .LVL280
     /tmp/ccVT2ggL.s:2563   .text:0000000000000ea0 .LVL281
     /tmp/ccVT2ggL.s:2570   .text:0000000000000eb8 .LVL282
     /tmp/ccVT2ggL.s:2577   .text:0000000000000ec4 .LVL283
     /tmp/ccVT2ggL.s:2584   .text:0000000000000edc .LVL284
     /tmp/ccVT2ggL.s:2591   .text:0000000000000ee8 .LVL285
     /tmp/ccVT2ggL.s:2598   .text:0000000000000f00 .LVL286
     /tmp/ccVT2ggL.s:2605   .text:0000000000000f0c .LVL287
     /tmp/ccVT2ggL.s:2610   .text:0000000000000f18 .LVL288
     /tmp/ccVT2ggL.s:2615   .text:0000000000000f24 .LVL289
     /tmp/ccVT2ggL.s:2629   .text:0000000000000f34 .LVL292
     /tmp/ccVT2ggL.s:2659   .text:0000000000000f6c .LVL295
     /tmp/ccVT2ggL.s:2663   .text:0000000000000f78 .LVL296
     /tmp/ccVT2ggL.s:2670   .text:0000000000000f88 .LVL297
     /tmp/ccVT2ggL.s:2674   .text:0000000000000f94 .LVL298
     /tmp/ccVT2ggL.s:2681   .text:0000000000000fa4 .LVL299
     /tmp/ccVT2ggL.s:2685   .text:0000000000000fb0 .LVL300
     /tmp/ccVT2ggL.s:2692   .text:0000000000000fc0 .LVL301
     /tmp/ccVT2ggL.s:2696   .text:0000000000000fcc .LVL302
     /tmp/ccVT2ggL.s:2703   .text:0000000000000fdc .LVL303
GAS LISTING /tmp/ccVT2ggL.s 			page 129


     /tmp/ccVT2ggL.s:2707   .text:0000000000000fe8 .LVL304
     /tmp/ccVT2ggL.s:2715   .text:0000000000000ff8 .LVL306
     /tmp/ccVT2ggL.s:2719   .text:0000000000001004 .LVL307
     /tmp/ccVT2ggL.s:11918  .debug_str:0000000000000eb2 .LASF196
     /tmp/ccVT2ggL.s:11664  .debug_str:00000000000006fb .LASF197
     /tmp/ccVT2ggL.s:613    .text:000000000000037c .LFB44
     /tmp/ccVT2ggL.s:682    .text:0000000000000408 .LFE44
     /tmp/ccVT2ggL.s:10779  .debug_loc:00000000000009ce .LLST13
     /tmp/ccVT2ggL.s:10793  .debug_loc:0000000000000a07 .LLST14
     /tmp/ccVT2ggL.s:634    .text:00000000000003a4 .LVL69
     /tmp/ccVT2ggL.s:644    .text:00000000000003b4 .LVL71
     /tmp/ccVT2ggL.s:656    .text:00000000000003cc .LVL73
     /tmp/ccVT2ggL.s:661    .text:00000000000003d8 .LVL74
     /tmp/ccVT2ggL.s:666    .text:00000000000003e4 .LVL75
     /tmp/ccVT2ggL.s:671    .text:00000000000003f0 .LVL76
     /tmp/ccVT2ggL.s:679    .text:0000000000000404 .LVL77
     /tmp/ccVT2ggL.s:11692  .debug_str:00000000000007d1 .LASF198
     /tmp/ccVT2ggL.s:11606  .debug_str:0000000000000545 .LASF199
     /tmp/ccVT2ggL.s:533    .text:00000000000002f0 .LFB43
     /tmp/ccVT2ggL.s:602    .text:000000000000037c .LFE43
     /tmp/ccVT2ggL.s:10805  .debug_loc:0000000000000a3e .LLST11
     /tmp/ccVT2ggL.s:10819  .debug_loc:0000000000000a77 .LLST12
     /tmp/ccVT2ggL.s:554    .text:0000000000000318 .LVL58
     /tmp/ccVT2ggL.s:564    .text:0000000000000328 .LVL60
     /tmp/ccVT2ggL.s:576    .text:0000000000000340 .LVL62
     /tmp/ccVT2ggL.s:581    .text:000000000000034c .LVL63
     /tmp/ccVT2ggL.s:586    .text:0000000000000358 .LVL64
     /tmp/ccVT2ggL.s:591    .text:0000000000000364 .LVL65
     /tmp/ccVT2ggL.s:599    .text:0000000000000378 .LVL66
     /tmp/ccVT2ggL.s:11506  .debug_str:0000000000000241 .LASF200
     /tmp/ccVT2ggL.s:11788  .debug_str:0000000000000b3d .LASF201
     /tmp/ccVT2ggL.s:453    .text:0000000000000264 .LFB42
     /tmp/ccVT2ggL.s:522    .text:00000000000002f0 .LFE42
     /tmp/ccVT2ggL.s:10831  .debug_loc:0000000000000aae .LLST9
     /tmp/ccVT2ggL.s:10845  .debug_loc:0000000000000ae7 .LLST10
     /tmp/ccVT2ggL.s:474    .text:000000000000028c .LVL47
     /tmp/ccVT2ggL.s:484    .text:000000000000029c .LVL49
     /tmp/ccVT2ggL.s:496    .text:00000000000002b4 .LVL51
     /tmp/ccVT2ggL.s:501    .text:00000000000002c0 .LVL52
     /tmp/ccVT2ggL.s:506    .text:00000000000002cc .LVL53
     /tmp/ccVT2ggL.s:511    .text:00000000000002d8 .LVL54
     /tmp/ccVT2ggL.s:519    .text:00000000000002ec .LVL55
     /tmp/ccVT2ggL.s:11820  .debug_str:0000000000000c13 .LASF202
     /tmp/ccVT2ggL.s:11466  .debug_str:00000000000000e7 .LASF203
     /tmp/ccVT2ggL.s:2417   .text:0000000000000e0c .LFE41
     /tmp/ccVT2ggL.s:10857  .debug_loc:0000000000000b1e .LLST57
     /tmp/ccVT2ggL.s:10868  .debug_loc:0000000000000b54 .LLST58
     /tmp/ccVT2ggL.s:2270   .text:0000000000000cb4 .LVL250
     /tmp/ccVT2ggL.s:2276   .text:0000000000000cc4 .LVL251
     /tmp/ccVT2ggL.s:2283   .text:0000000000000cd0 .LVL252
     /tmp/ccVT2ggL.s:2289   .text:0000000000000ce0 .LVL253
     /tmp/ccVT2ggL.s:2298   .text:0000000000000cf4 .LVL254
     /tmp/ccVT2ggL.s:2304   .text:0000000000000d04 .LVL255
     /tmp/ccVT2ggL.s:2313   .text:0000000000000d18 .LVL256
     /tmp/ccVT2ggL.s:2320   .text:0000000000000d30 .LVL257
     /tmp/ccVT2ggL.s:2327   .text:0000000000000d3c .LVL258
     /tmp/ccVT2ggL.s:2334   .text:0000000000000d54 .LVL259
GAS LISTING /tmp/ccVT2ggL.s 			page 130


     /tmp/ccVT2ggL.s:2341   .text:0000000000000d60 .LVL260
     /tmp/ccVT2ggL.s:2346   .text:0000000000000d6c .LVL261
     /tmp/ccVT2ggL.s:2350   .text:0000000000000d74 .LVL262
     /tmp/ccVT2ggL.s:2356   .text:0000000000000d7c .LVL263
     /tmp/ccVT2ggL.s:2366   .text:0000000000000d90 .LVL265
     /tmp/ccVT2ggL.s:2370   .text:0000000000000d9c .LVL266
     /tmp/ccVT2ggL.s:2377   .text:0000000000000dac .LVL267
     /tmp/ccVT2ggL.s:2381   .text:0000000000000db8 .LVL268
     /tmp/ccVT2ggL.s:2388   .text:0000000000000dc8 .LVL269
     /tmp/ccVT2ggL.s:2392   .text:0000000000000dd4 .LVL270
     /tmp/ccVT2ggL.s:2399   .text:0000000000000de4 .LVL271
     /tmp/ccVT2ggL.s:2403   .text:0000000000000df0 .LVL272
     /tmp/ccVT2ggL.s:2410   .text:0000000000000e00 .LVL273
     /tmp/ccVT2ggL.s:2414   .text:0000000000000e0c .LVL274
     /tmp/ccVT2ggL.s:11714  .debug_str:000000000000085d .LASF204
     /tmp/ccVT2ggL.s:2154   .text:0000000000000c0c .LFB40
     /tmp/ccVT2ggL.s:2240   .text:0000000000000c8c .LFE40
     /tmp/ccVT2ggL.s:10875  .debug_loc:0000000000000b77 .LLST54
     /tmp/ccVT2ggL.s:2177   .text:0000000000000c34 .LBB60
     /tmp/ccVT2ggL.s:2224   .text:0000000000000c74 .LBE60
     /tmp/ccVT2ggL.s:10889  .debug_loc:0000000000000bb0 .LLST55
     /tmp/ccVT2ggL.s:2185   .text:0000000000000c3c .LBB62
     /tmp/ccVT2ggL.s:2203   .text:0000000000000c58 .LBE62
     /tmp/ccVT2ggL.s:10905  .debug_loc:0000000000000bfa .LLST56
     /tmp/ccVT2ggL.s:2196   .text:0000000000000c50 .LVL242
     /tmp/ccVT2ggL.s:2219   .text:0000000000000c70 .LVL247
     /tmp/ccVT2ggL.s:2175   .text:0000000000000c34 .LVL239
     /tmp/ccVT2ggL.s:11794  .debug_str:0000000000000b61 .LASF205
     /tmp/ccVT2ggL.s:2005   .text:0000000000000b30 .LFB39
     /tmp/ccVT2ggL.s:2091   .text:0000000000000bb4 .LFE39
     /tmp/ccVT2ggL.s:10916  .debug_loc:0000000000000c30 .LLST51
     /tmp/ccVT2ggL.s:2028   .text:0000000000000b58 .LBB56
     /tmp/ccVT2ggL.s:2075   .text:0000000000000b9c .LBE56
     /tmp/ccVT2ggL.s:10930  .debug_loc:0000000000000c69 .LLST52
     /tmp/ccVT2ggL.s:2048   .text:0000000000000b74 .LBB58
     /tmp/ccVT2ggL.s:2066   .text:0000000000000b90 .LBE58
     /tmp/ccVT2ggL.s:10942  .debug_loc:0000000000000ca0 .LLST53
     /tmp/ccVT2ggL.s:2059   .text:0000000000000b88 .LVL228
     /tmp/ccVT2ggL.s:2070   .text:0000000000000b98 .LVL231
     /tmp/ccVT2ggL.s:2026   .text:0000000000000b58 .LVL224
     /tmp/ccVT2ggL.s:11834  .debug_str:0000000000000c65 .LASF206
     /tmp/ccVT2ggL.s:11678  .debug_str:0000000000000775 .LASF207
     /tmp/ccVT2ggL.s:2102   .text:0000000000000bb4 .LFB38
     /tmp/ccVT2ggL.s:2143   .text:0000000000000c0c .LFE38
     /tmp/ccVT2ggL.s:2120   .text:0000000000000bdc .LVL234
     /tmp/ccVT2ggL.s:2125   .text:0000000000000bec .LVL235
     /tmp/ccVT2ggL.s:2130   .text:0000000000000bf8 .LVL236
     /tmp/ccVT2ggL.s:11836  .debug_str:0000000000000c6a .LASF208
     /tmp/ccVT2ggL.s:1953   .text:0000000000000ad8 .LFB37
     /tmp/ccVT2ggL.s:1994   .text:0000000000000b30 .LFE37
     /tmp/ccVT2ggL.s:1971   .text:0000000000000b00 .LVL219
     /tmp/ccVT2ggL.s:1976   .text:0000000000000b10 .LVL220
     /tmp/ccVT2ggL.s:1981   .text:0000000000000b1c .LVL221
     /tmp/ccVT2ggL.s:11874  .debug_str:0000000000000d68 .LASF209
     /tmp/ccVT2ggL.s:11670  .debug_str:0000000000000715 .LASF210
     /tmp/ccVT2ggL.s:3623   .text:0000000000001580 .LFB36
     /tmp/ccVT2ggL.s:3648   .text:00000000000015a8 .LFE36
GAS LISTING /tmp/ccVT2ggL.s 			page 131


     /tmp/ccVT2ggL.s:3637   .text:0000000000001598 .LVL422
     /tmp/ccVT2ggL.s:11704  .debug_str:000000000000081b .LASF211
     /tmp/ccVT2ggL.s:11554  .debug_str:00000000000003d6 .LASF212
     /tmp/ccVT2ggL.s:1766   .text:0000000000000998 .LFB35
     /tmp/ccVT2ggL.s:1942   .text:0000000000000ad8 .LFE35
     /tmp/ccVT2ggL.s:11516  .debug_str:000000000000029f .LASF213
     /tmp/ccVT2ggL.s:10957  .debug_loc:0000000000000ce9 .LLST45
     /tmp/ccVT2ggL.s:1786   .text:00000000000009c0 .LBB50
     /tmp/ccVT2ggL.s:1813   .text:00000000000009f4 .LBE50
     /tmp/ccVT2ggL.s:10968  .debug_loc:0000000000000d1f .LLST46
     /tmp/ccVT2ggL.s:1803   .text:00000000000009e0 .LVL200
     /tmp/ccVT2ggL.s:1839   .text:0000000000000a14 .LBB52
     /tmp/ccVT2ggL.s:1883   .text:0000000000000a6c .LBE52
     /tmp/ccVT2ggL.s:10979  .debug_loc:0000000000000d55 .LLST47
     /tmp/ccVT2ggL.s:1847   .text:0000000000000a20 .LBB53
     /tmp/ccVT2ggL.s:1874   .text:0000000000000a64 .LBE53
     /tmp/ccVT2ggL.s:11668  .debug_str:000000000000070e .LASF214
     /tmp/ccVT2ggL.s:10990  .debug_loc:0000000000000d8b .LLST48
     /tmp/ccVT2ggL.s:1855   .text:0000000000000a38 .LVL205
     /tmp/ccVT2ggL.s:1866   .text:0000000000000a50 .LVL207
     /tmp/ccVT2ggL.s:1884   .text:0000000000000a6c .LBB54
     /tmp/ccVT2ggL.s:1925   .text:0000000000000abc .LBE54
     /tmp/ccVT2ggL.s:10997  .debug_loc:0000000000000dae .LLST49
     /tmp/ccVT2ggL.s:1892   .text:0000000000000a78 .LBB55
     /tmp/ccVT2ggL.s:1916   .text:0000000000000ab4 .LBE55
     /tmp/ccVT2ggL.s:11008  .debug_loc:0000000000000de4 .LLST50
     /tmp/ccVT2ggL.s:1900   .text:0000000000000a90 .LVL211
     /tmp/ccVT2ggL.s:1908   .text:0000000000000aa0 .LVL213
     /tmp/ccVT2ggL.s:1785   .text:00000000000009c0 .LVL197
     /tmp/ccVT2ggL.s:1939   .text:0000000000000ad4 .LVL218
     /tmp/ccVT2ggL.s:11612  .debug_str:000000000000057e .LASF215
     /tmp/ccVT2ggL.s:11902  .debug_str:0000000000000e3d .LASF216
     /tmp/ccVT2ggL.s:1697   .text:0000000000000928 .LFB34
     /tmp/ccVT2ggL.s:1755   .text:0000000000000998 .LFE34
     /tmp/ccVT2ggL.s:11015  .debug_loc:0000000000000e07 .LLST43
     /tmp/ccVT2ggL.s:11028  .debug_loc:0000000000000e3f .LLST44
     /tmp/ccVT2ggL.s:1712   .text:0000000000000948 .LVL188
     /tmp/ccVT2ggL.s:1717   .text:0000000000000954 .LVL189
     /tmp/ccVT2ggL.s:1723   .text:0000000000000960 .LVL191
     /tmp/ccVT2ggL.s:1731   .text:0000000000000974 .LVL193
     /tmp/ccVT2ggL.s:1751   .text:0000000000000994 .LVL196
     /tmp/ccVT2ggL.s:11712  .debug_str:000000000000084b .LASF217
     /tmp/ccVT2ggL.s:11702  .debug_str:0000000000000804 .LASF218
     /tmp/ccVT2ggL.s:1561   .text:0000000000000850 .LFB33
     /tmp/ccVT2ggL.s:1686   .text:0000000000000928 .LFE33
     /tmp/ccVT2ggL.s:11055  .debug_loc:0000000000000e85 .LLST39
     /tmp/ccVT2ggL.s:11067  .debug_loc:0000000000000ebc .LLST40
     /tmp/ccVT2ggL.s:11083  .debug_loc:0000000000000f06 .LLST41
     /tmp/ccVT2ggL.s:11099  .debug_loc:0000000000000f50 .LLST42
     /tmp/ccVT2ggL.s:1627   .text:00000000000008b8 .LVL178
     /tmp/ccVT2ggL.s:1582   .text:000000000000087c .LVL173
     /tmp/ccVT2ggL.s:1638   .text:00000000000008c8 .LVL180
     /tmp/ccVT2ggL.s:1643   .text:00000000000008d8 .LVL181
     /tmp/ccVT2ggL.s:1656   .text:00000000000008f8 .LVL183
     /tmp/ccVT2ggL.s:1683   .text:0000000000000924 .LVL187
     /tmp/ccVT2ggL.s:11430  .debug_str:0000000000000000 .LASF219
     /tmp/ccVT2ggL.s:11924  .debug_str:0000000000000ed1 .LASF220
GAS LISTING /tmp/ccVT2ggL.s 			page 132


     /tmp/ccVT2ggL.s:1490   .text:00000000000007d0 .LFB32
     /tmp/ccVT2ggL.s:1550   .text:0000000000000850 .LFE32
     /tmp/ccVT2ggL.s:11110  .debug_loc:0000000000000f86 .LLST37
     /tmp/ccVT2ggL.s:11123  .debug_loc:0000000000000fbf .LLST38
     /tmp/ccVT2ggL.s:1505   .text:00000000000007f0 .LVL164
     /tmp/ccVT2ggL.s:1519   .text:0000000000000818 .LVL167
     /tmp/ccVT2ggL.s:1527   .text:000000000000082c .LVL169
     /tmp/ccVT2ggL.s:1547   .text:000000000000084c .LVL172
     /tmp/ccVT2ggL.s:11730  .debug_str:00000000000008c9 .LASF221
     /tmp/ccVT2ggL.s:11542  .debug_str:0000000000000366 .LASF222
     /tmp/ccVT2ggL.s:1292   .text:0000000000000670 .LFB31
     /tmp/ccVT2ggL.s:1479   .text:00000000000007d0 .LFE31
     /tmp/ccVT2ggL.s:1310   .text:0000000000000694 .LBB38
     /tmp/ccVT2ggL.s:1342   .text:00000000000006d8 .LBE38
     /tmp/ccVT2ggL.s:11134  .debug_loc:0000000000000ff5 .LLST31
     /tmp/ccVT2ggL.s:1327   .text:00000000000006b4 .LVL143
     /tmp/ccVT2ggL.s:1339   .text:00000000000006d8 .LVL144
     /tmp/ccVT2ggL.s:1358   .text:00000000000006ec .LBB39
     /tmp/ccVT2ggL.s:1397   .text:0000000000000730 .LBE39
     /tmp/ccVT2ggL.s:11145  .debug_loc:000000000000102b .LLST32
     /tmp/ccVT2ggL.s:11156  .debug_loc:0000000000001061 .LLST33
     /tmp/ccVT2ggL.s:1374   .text:0000000000000710 .LVL147
     /tmp/ccVT2ggL.s:1392   .text:000000000000072c .LVL151
     /tmp/ccVT2ggL.s:1398   .text:0000000000000730 .LBB42
     /tmp/ccVT2ggL.s:1433   .text:0000000000000778 .LBE42
     /tmp/ccVT2ggL.s:11163  .debug_loc:0000000000001084 .LLST34
     /tmp/ccVT2ggL.s:1417   .text:0000000000000750 .LVL155
     /tmp/ccVT2ggL.s:1429   .text:0000000000000774 .LVL156
     /tmp/ccVT2ggL.s:1434   .text:0000000000000778 .LBB43
     /tmp/ccVT2ggL.s:1471   .text:00000000000007bc .LBE43
     /tmp/ccVT2ggL.s:11170  .debug_loc:00000000000010a7 .LLST35
     /tmp/ccVT2ggL.s:11181  .debug_loc:00000000000010dd .LLST36
     /tmp/ccVT2ggL.s:1450   .text:000000000000079c .LVL158
     /tmp/ccVT2ggL.s:1466   .text:00000000000007b8 .LVL162
     /tmp/ccVT2ggL.s:1309   .text:0000000000000694 .LVL140
     /tmp/ccVT2ggL.s:1476   .text:00000000000007cc .LVL163
     /tmp/ccVT2ggL.s:11778  .debug_str:0000000000000ad1 .LASF223
     /tmp/ccVT2ggL.s:11920  .debug_str:0000000000000eb7 .LASF224
     /tmp/ccVT2ggL.s:2959   .text:00000000000010bc .LFB30
     /tmp/ccVT2ggL.s:2975   .text:00000000000010d4 .LFE30
     /tmp/ccVT2ggL.s:2973   .text:00000000000010d4 .LVL318
     /tmp/ccVT2ggL.s:11748  .debug_str:0000000000000956 .LASF225
     /tmp/ccVT2ggL.s:11798  .debug_str:0000000000000b79 .LASF226
     /tmp/ccVT2ggL.s:2930   .text:00000000000010bc .LFE29
     /tmp/ccVT2ggL.s:11188  .debug_loc:0000000000001100 .LLST65
     /tmp/ccVT2ggL.s:2898   .text:0000000000001080 .LVL312
     /tmp/ccVT2ggL.s:2904   .text:0000000000001090 .LVL313
     /tmp/ccVT2ggL.s:2911   .text:000000000000109c .LVL314
     /tmp/ccVT2ggL.s:2923   .text:00000000000010b0 .LVL316
     /tmp/ccVT2ggL.s:2927   .text:00000000000010bc .LVL317
     /tmp/ccVT2ggL.s:11590  .debug_str:00000000000004d6 .LASF227
     /tmp/ccVT2ggL.s:11756  .debug_str:0000000000000985 .LASF228
     /tmp/ccVT2ggL.s:1228   .text:0000000000000670 .LFE28
     /tmp/ccVT2ggL.s:11562  .debug_str:0000000000000417 .LASF229
     /tmp/ccVT2ggL.s:11195  .debug_loc:0000000000001123 .LLST27
     /tmp/ccVT2ggL.s:11210  .debug_loc:000000000000116c .LLST28
     /tmp/ccVT2ggL.s:11217  .debug_loc:000000000000118f .LLST29
GAS LISTING /tmp/ccVT2ggL.s 			page 133


     /tmp/ccVT2ggL.s:1154   .text:00000000000005e0 .LBB36
     /tmp/ccVT2ggL.s:1161   .text:00000000000005e4 .LBE36
     /tmp/ccVT2ggL.s:11224  .debug_loc:00000000000011b2 .LLST30
     /tmp/ccVT2ggL.s:1090   .text:0000000000000550 .LVL115
     /tmp/ccVT2ggL.s:1097   .text:0000000000000568 .LVL116
     /tmp/ccVT2ggL.s:1104   .text:0000000000000574 .LVL117
     /tmp/ccVT2ggL.s:1109   .text:0000000000000580 .LVL118
     /tmp/ccVT2ggL.s:1116   .text:0000000000000598 .LVL119
     /tmp/ccVT2ggL.s:1123   .text:00000000000005a4 .LVL120
     /tmp/ccVT2ggL.s:1128   .text:00000000000005b0 .LVL121
     /tmp/ccVT2ggL.s:1136   .text:00000000000005c8 .LVL123
     /tmp/ccVT2ggL.s:1143   .text:00000000000005d4 .LVL124
     /tmp/ccVT2ggL.s:1147   .text:00000000000005dc .LVL125
     /tmp/ccVT2ggL.s:1169   .text:00000000000005fc .LVL128
     /tmp/ccVT2ggL.s:1173   .text:0000000000000604 .LVL129
     /tmp/ccVT2ggL.s:1197   .text:000000000000062c .LVL132
     /tmp/ccVT2ggL.s:1201   .text:0000000000000638 .LVL133
     /tmp/ccVT2ggL.s:1209   .text:0000000000000648 .LVL135
     /tmp/ccVT2ggL.s:1213   .text:0000000000000654 .LVL136
     /tmp/ccVT2ggL.s:1221   .text:0000000000000664 .LVL138
     /tmp/ccVT2ggL.s:1225   .text:0000000000000670 .LVL139
     /tmp/ccVT2ggL.s:11744  .debug_str:0000000000000941 .LASF230
     /tmp/ccVT2ggL.s:11556  .debug_str:00000000000003e9 .LASF231
     /tmp/ccVT2ggL.s:1026   .text:000000000000052c .LFE27
     /tmp/ccVT2ggL.s:11231  .debug_loc:00000000000011d5 .LLST23
     /tmp/ccVT2ggL.s:11242  .debug_loc:000000000000120b .LLST24
     /tmp/ccVT2ggL.s:949    .text:00000000000004a8 .LBB32
     /tmp/ccVT2ggL.s:957    .text:00000000000004ac .LBE32
     /tmp/ccVT2ggL.s:11249  .debug_loc:000000000000122e .LLST25
     /tmp/ccVT2ggL.s:964    .text:00000000000004b8 .LBB34
     /tmp/ccVT2ggL.s:971    .text:00000000000004bc .LBE34
     /tmp/ccVT2ggL.s:11256  .debug_loc:0000000000001251 .LLST26
     /tmp/ccVT2ggL.s:894    .text:000000000000042c .LVL93
     /tmp/ccVT2ggL.s:901    .text:0000000000000444 .LVL94
     /tmp/ccVT2ggL.s:908    .text:0000000000000450 .LVL95
     /tmp/ccVT2ggL.s:913    .text:000000000000045c .LVL96
     /tmp/ccVT2ggL.s:920    .text:0000000000000474 .LVL97
     /tmp/ccVT2ggL.s:927    .text:0000000000000480 .LVL98
     /tmp/ccVT2ggL.s:931    .text:0000000000000488 .LVL99
     /tmp/ccVT2ggL.s:938    .text:000000000000049c .LVL100
     /tmp/ccVT2ggL.s:942    .text:00000000000004a4 .LVL101
     /tmp/ccVT2ggL.s:979    .text:00000000000004d4 .LVL106
     /tmp/ccVT2ggL.s:983    .text:00000000000004dc .LVL107
     /tmp/ccVT2ggL.s:1007   .text:0000000000000504 .LVL110
     /tmp/ccVT2ggL.s:1011   .text:0000000000000510 .LVL111
     /tmp/ccVT2ggL.s:1019   .text:0000000000000520 .LVL113
     /tmp/ccVT2ggL.s:1023   .text:000000000000052c .LVL114
     /tmp/ccVT2ggL.s:11728  .debug_str:00000000000008b4 .LASF232
     /tmp/ccVT2ggL.s:11736  .debug_str:0000000000000904 .LASF233
     /tmp/ccVT2ggL.s:352    .text:00000000000001b8 .LFB26
     /tmp/ccVT2ggL.s:442    .text:0000000000000264 .LFE26
     /tmp/ccVT2ggL.s:11263  .debug_loc:0000000000001274 .LLST7
     /tmp/ccVT2ggL.s:374    .text:00000000000001dc .LBB23
     /tmp/ccVT2ggL.s:428    .text:0000000000000250 .LBE23
     /tmp/ccVT2ggL.s:11277  .debug_loc:00000000000012ad .LLST8
     /tmp/ccVT2ggL.s:383    .text:00000000000001ec .LVL38
     /tmp/ccVT2ggL.s:389    .text:00000000000001f8 .LVL39
GAS LISTING /tmp/ccVT2ggL.s 			page 134


     /tmp/ccVT2ggL.s:395    .text:0000000000000208 .LVL40
     /tmp/ccVT2ggL.s:400    .text:0000000000000214 .LVL41
     /tmp/ccVT2ggL.s:405    .text:0000000000000224 .LVL42
     /tmp/ccVT2ggL.s:371    .text:00000000000001dc .LVL36
     /tmp/ccVT2ggL.s:11456  .debug_str:0000000000000089 .LASF234
     /tmp/ccVT2ggL.s:11580  .debug_str:0000000000000490 .LASF235
     /tmp/ccVT2ggL.s:205    .text:00000000000000c4 .LFB25
     /tmp/ccVT2ggL.s:285    .text:000000000000015c .LFE25
     /tmp/ccVT2ggL.s:11289  .debug_loc:00000000000012e4 .LLST3
     /tmp/ccVT2ggL.s:227    .text:00000000000000e8 .LBB21
     /tmp/ccVT2ggL.s:271    .text:0000000000000148 .LBE21
     /tmp/ccVT2ggL.s:11303  .debug_loc:000000000000131d .LLST4
     /tmp/ccVT2ggL.s:236    .text:00000000000000f8 .LVL20
     /tmp/ccVT2ggL.s:242    .text:0000000000000108 .LVL21
     /tmp/ccVT2ggL.s:247    .text:0000000000000114 .LVL22
     /tmp/ccVT2ggL.s:252    .text:0000000000000124 .LVL23
     /tmp/ccVT2ggL.s:224    .text:00000000000000e8 .LVL18
     /tmp/ccVT2ggL.s:11818  .debug_str:0000000000000c03 .LASF236
     /tmp/ccVT2ggL.s:11888  .debug_str:0000000000000dca .LASF237
     /tmp/ccVT2ggL.s:111    .text:000000000000002c .LFB24
     /tmp/ccVT2ggL.s:191    .text:00000000000000c4 .LFE24
     /tmp/ccVT2ggL.s:11315  .debug_loc:0000000000001354 .LLST1
     /tmp/ccVT2ggL.s:133    .text:0000000000000050 .LBB20
     /tmp/ccVT2ggL.s:177    .text:00000000000000b0 .LBE20
     /tmp/ccVT2ggL.s:11329  .debug_loc:000000000000138d .LLST2
     /tmp/ccVT2ggL.s:142    .text:0000000000000060 .LVL10
     /tmp/ccVT2ggL.s:148    .text:0000000000000070 .LVL11
     /tmp/ccVT2ggL.s:153    .text:000000000000007c .LVL12
     /tmp/ccVT2ggL.s:158    .text:000000000000008c .LVL13
     /tmp/ccVT2ggL.s:130    .text:0000000000000050 .LVL8
     /tmp/ccVT2ggL.s:11946  .debug_str:0000000000000f81 .LASF238
     /tmp/ccVT2ggL.s:11658  .debug_str:00000000000006c7 .LASF239
     /tmp/ccVT2ggL.s:66     .text:0000000000000000 .LFB23
     /tmp/ccVT2ggL.s:94     .text:000000000000002c .LFE23
     /tmp/ccVT2ggL.s:11341  .debug_loc:00000000000013c4 .LLST0
     /tmp/ccVT2ggL.s:86     .text:0000000000000020 .LVL4
     /tmp/ccVT2ggL.s:90     .text:0000000000000028 .LVL5
     /tmp/ccVT2ggL.s:37     .text._ZN14PeriodicThread18periodicActivationEv:0000000000000000 .LFB22
     /tmp/ccVT2ggL.s:55     .text._ZN14PeriodicThread18periodicActivationEv:0000000000000018 .LFE22
     /tmp/ccVT2ggL.s:11     .text._ZN6Thread3runEv:0000000000000000 .LFB21
     /tmp/ccVT2ggL.s:30     .text._ZN6Thread3runEv:0000000000000018 .LFE21
     /tmp/ccVT2ggL.s:11684  .debug_str:0000000000000792 .LASF240
     /tmp/ccVT2ggL.s:11436  .debug_str:0000000000000024 .LASF241
     /tmp/ccVT2ggL.s:11578  .debug_str:000000000000048a .LASF242
     /tmp/ccVT2ggL.s:11830  .debug_str:0000000000000c3d .LASF243
     /tmp/ccVT2ggL.s:11862  .debug_str:0000000000000d0d .LASF258
     /tmp/ccVT2ggL.s:11460  .debug_str:00000000000000ac .LASF259
     /tmp/ccVT2ggL.s:11648  .debug_str:0000000000000675 .LASF244
     /tmp/ccVT2ggL.s:11698  .debug_str:00000000000007f6 .LASF245
     /tmp/ccVT2ggL.s:11448  .debug_str:000000000000004d .LASF246
     /tmp/ccVT2ggL.s:818    .text._ZN12TestPeriodicD0Ev:0000000000000000 .LVL88
     /tmp/ccVT2ggL.s:853    .text._ZN12TestPeriodicD0Ev:0000000000000044 .LVL92
     /tmp/ccVT2ggL.s:830    .text._ZN12TestPeriodicD0Ev:0000000000000018 .LVL89
     /tmp/ccVT2ggL.s:777    .text._ZN12TestPeriodicD2Ev:0000000000000000 .LVL85
     /tmp/ccVT2ggL.s:786    .text._ZN12TestPeriodicD2Ev:0000000000000010 .LVL86
     /tmp/ccVT2ggL.s:3421   .text:0000000000001414 .LVL382
     /tmp/ccVT2ggL.s:3425   .text:0000000000001418 .LVL383
GAS LISTING /tmp/ccVT2ggL.s 			page 135


     /tmp/ccVT2ggL.s:3429   .text:0000000000001424 .LVL385
     /tmp/ccVT2ggL.s:3443   .text:0000000000001438 .LVL387
     /tmp/ccVT2ggL.s:3519   .text:00000000000014b4 .LVL400
     /tmp/ccVT2ggL.s:3525   .text:00000000000014bc .LVL401
     /tmp/ccVT2ggL.s:3439   .text:0000000000001434 .LVL386
     /tmp/ccVT2ggL.s:3530   .text:00000000000014c8 .LVL403
     /tmp/ccVT2ggL.s:3535   .text:00000000000014d0 .LVL404
     /tmp/ccVT2ggL.s:3447   .text:000000000000143c .LVL388
     /tmp/ccVT2ggL.s:3451   .text:0000000000001440 .LVL389
     /tmp/ccVT2ggL.s:3574   .text:0000000000001518 .LVL414
     /tmp/ccVT2ggL.s:3456   .text:0000000000001444 .LVL390
     /tmp/ccVT2ggL.s:3460   .text:0000000000001448 .LVL391
     /tmp/ccVT2ggL.s:3493   .text:0000000000001488 .LVL395
     /tmp/ccVT2ggL.s:3497   .text:000000000000148c .LVL396
     /tmp/ccVT2ggL.s:3540   .text:00000000000014dc .LVL406
     /tmp/ccVT2ggL.s:3501   .text:0000000000001498 .LVL398
     /tmp/ccVT2ggL.s:3545   .text:00000000000014e4 .LVL407
     /tmp/ccVT2ggL.s:3550   .text:00000000000014f0 .LVL409
     /tmp/ccVT2ggL.s:3555   .text:00000000000014f8 .LVL410
     /tmp/ccVT2ggL.s:3507   .text:00000000000014a0 .LVL399
     /tmp/ccVT2ggL.s:3338   .text:0000000000001370 .LVL372
     /tmp/ccVT2ggL.s:3358   .text:00000000000013a0 .LVL374
     /tmp/ccVT2ggL.s:3360   .text:00000000000013a4 .LVL375
     /tmp/ccVT2ggL.s:3396   .text:00000000000013e4 .LVL377
     /tmp/ccVT2ggL.s:3414   .text:0000000000001404 .LVL380
     /tmp/ccVT2ggL.s:3193   .text:0000000000001264 .LVL352
     /tmp/ccVT2ggL.s:3197   .text:0000000000001268 .LVL353
     /tmp/ccVT2ggL.s:3205   .text:000000000000127c .LVL355
     /tmp/ccVT2ggL.s:3222   .text:0000000000001298 .LVL357
     /tmp/ccVT2ggL.s:3229   .text:00000000000012a4 .LVL358
     /tmp/ccVT2ggL.s:3247   .text:00000000000012d0 .LVL362
     /tmp/ccVT2ggL.s:3239   .text:00000000000012c0 .LVL359
     /tmp/ccVT2ggL.s:3243   .text:00000000000012c4 .LVL360
     /tmp/ccVT2ggL.s:3260   .text:00000000000012e8 .LVL364
     /tmp/ccVT2ggL.s:3277   .text:0000000000001318 .LVL368
     /tmp/ccVT2ggL.s:3282   .text:0000000000001320 .LVL369
     /tmp/ccVT2ggL.s:3023   .text:000000000000111c .LVL321
     /tmp/ccVT2ggL.s:3135   .text:0000000000001208 .LVL346
     /tmp/ccVT2ggL.s:3034   .text:0000000000001134 .LVL323
     /tmp/ccVT2ggL.s:3038   .text:0000000000001138 .LVL324
     /tmp/ccVT2ggL.s:3138   .text:000000000000120c .LVL347
     /tmp/ccVT2ggL.s:3042   .text:0000000000001144 .LVL326
     /tmp/ccVT2ggL.s:3046   .text:0000000000001148 .LVL327
     /tmp/ccVT2ggL.s:3141   .text:0000000000001210 .LVL348
     /tmp/ccVT2ggL.s:3050   .text:0000000000001154 .LVL329
     /tmp/ccVT2ggL.s:3054   .text:0000000000001158 .LVL330
     /tmp/ccVT2ggL.s:3144   .text:0000000000001214 .LVL349
     /tmp/ccVT2ggL.s:3059   .text:0000000000001168 .LVL332
     /tmp/ccVT2ggL.s:3063   .text:000000000000116c .LVL333
     /tmp/ccVT2ggL.s:3147   .text:0000000000001218 .LVL350
     /tmp/ccVT2ggL.s:3080   .text:0000000000001190 .LVL335
     /tmp/ccVT2ggL.s:3117   .text:00000000000011ec .LVL343
     /tmp/ccVT2ggL.s:3122   .text:00000000000011f4 .LVL344
     /tmp/ccVT2ggL.s:294    .text:000000000000015c .LVL26
     /tmp/ccVT2ggL.s:310    .text:0000000000000174 .LVL28
     /tmp/ccVT2ggL.s:306    .text:0000000000000170 .LVL27
     /tmp/ccVT2ggL.s:328    .text:00000000000001a0 .LVL31
GAS LISTING /tmp/ccVT2ggL.s 			page 136


     /tmp/ccVT2ggL.s:330    .text:00000000000001a4 .LVL32
     /tmp/ccVT2ggL.s:341    .text:00000000000001b0 .LVL33
     /tmp/ccVT2ggL.s:2836   .text:000000000000101c .LVL309
     /tmp/ccVT2ggL.s:2863   .text:0000000000001054 .LVL311
     /tmp/ccVT2ggL.s:729    .text._ZN14PeriodicThreadD0Ev:0000000000000000 .LVL80
     /tmp/ccVT2ggL.s:761    .text._ZN14PeriodicThreadD0Ev:0000000000000044 .LVL84
     /tmp/ccVT2ggL.s:741    .text._ZN14PeriodicThreadD0Ev:0000000000000018 .LVL81
     /tmp/ccVT2ggL.s:692    .text._ZN14PeriodicThreadD2Ev:0000000000000000 .LVL78
     /tmp/ccVT2ggL.s:2649   .text:0000000000000f54 .LVL294
     /tmp/ccVT2ggL.s:2646   .text:0000000000000f50 .LVL293
     /tmp/ccVT2ggL.s:2711   .text:0000000000000fec .LVL305
     /tmp/ccVT2ggL.s:2619   .text:0000000000000f28 .LVL290
     /tmp/ccVT2ggL.s:2625   .text:0000000000000f2c .LVL291
     /tmp/ccVT2ggL.s:616    .text:000000000000037c .LVL67
     /tmp/ccVT2ggL.s:632    .text:000000000000039c .LVL68
     /tmp/ccVT2ggL.s:639    .text:00000000000003ac .LVL70
     /tmp/ccVT2ggL.s:650    .text:00000000000003b8 .LVL72
     /tmp/ccVT2ggL.s:536    .text:00000000000002f0 .LVL56
     /tmp/ccVT2ggL.s:552    .text:0000000000000310 .LVL57
     /tmp/ccVT2ggL.s:559    .text:0000000000000320 .LVL59
     /tmp/ccVT2ggL.s:570    .text:000000000000032c .LVL61
     /tmp/ccVT2ggL.s:456    .text:0000000000000264 .LVL45
     /tmp/ccVT2ggL.s:472    .text:0000000000000284 .LVL46
     /tmp/ccVT2ggL.s:479    .text:0000000000000294 .LVL48
     /tmp/ccVT2ggL.s:490    .text:00000000000002a0 .LVL50
     /tmp/ccVT2ggL.s:2360   .text:0000000000000d80 .LVL264
     /tmp/ccVT2ggL.s:2157   .text:0000000000000c0c .LVL237
     /tmp/ccVT2ggL.s:2173   .text:0000000000000c2c .LVL238
     /tmp/ccVT2ggL.s:2180   .text:0000000000000c38 .LVL240
     /tmp/ccVT2ggL.s:2211   .text:0000000000000c64 .LVL245
     /tmp/ccVT2ggL.s:2213   .text:0000000000000c68 .LVL246
     /tmp/ccVT2ggL.s:2235   .text:0000000000000c84 .LVL249
     /tmp/ccVT2ggL.s:2189   .text:0000000000000c40 .LVL241
     /tmp/ccVT2ggL.s:2199   .text:0000000000000c54 .LVL243
     /tmp/ccVT2ggL.s:2201   .text:0000000000000c58 .LVL244
     /tmp/ccVT2ggL.s:2221   .text:0000000000000c74 .LVL248
     /tmp/ccVT2ggL.s:2008   .text:0000000000000b30 .LVL222
     /tmp/ccVT2ggL.s:2024   .text:0000000000000b50 .LVL223
     /tmp/ccVT2ggL.s:2032   .text:0000000000000b60 .LVL225
     /tmp/ccVT2ggL.s:2086   .text:0000000000000bac .LVL233
     /tmp/ccVT2ggL.s:2042   .text:0000000000000b6c .LVL226
     /tmp/ccVT2ggL.s:2052   .text:0000000000000b78 .LVL227
     /tmp/ccVT2ggL.s:2062   .text:0000000000000b8c .LVL229
     /tmp/ccVT2ggL.s:2064   .text:0000000000000b90 .LVL230
     /tmp/ccVT2ggL.s:2072   .text:0000000000000b9c .LVL232
     /tmp/ccVT2ggL.s:1833   .text:0000000000000a10 .LVL203
     /tmp/ccVT2ggL.s:1929   .text:0000000000000ac0 .LVL216
     /tmp/ccVT2ggL.s:1933   .text:0000000000000ac4 .LVL217
     /tmp/ccVT2ggL.s:1790   .text:00000000000009c8 .LVL198
     /tmp/ccVT2ggL.s:1811   .text:00000000000009f4 .LVL201
     /tmp/ccVT2ggL.s:1828   .text:0000000000000a0c .LVL202
     /tmp/ccVT2ggL.s:1843   .text:0000000000000a18 .LVL204
     /tmp/ccVT2ggL.s:1878   .text:0000000000000a68 .LVL208
     /tmp/ccVT2ggL.s:1881   .text:0000000000000a6c .LVL209
     /tmp/ccVT2ggL.s:1887   .text:0000000000000a70 .LVL210
     /tmp/ccVT2ggL.s:1861   .text:0000000000000a40 .LVL206
     /tmp/ccVT2ggL.s:1920   .text:0000000000000ab8 .LVL214
GAS LISTING /tmp/ccVT2ggL.s 			page 137


     /tmp/ccVT2ggL.s:1923   .text:0000000000000abc .LVL215
     /tmp/ccVT2ggL.s:1906   .text:0000000000000a98 .LVL212
     /tmp/ccVT2ggL.s:1721   .text:0000000000000958 .LVL190
     /tmp/ccVT2ggL.s:1729   .text:000000000000096c .LVL192
     /tmp/ccVT2ggL.s:1743   .text:0000000000000984 .LVL194
     /tmp/ccVT2ggL.s:1749   .text:000000000000098c .LVL195
     /tmp/ccVT2ggL.s:1597   .text:000000000000088c .LVL174
     /tmp/ccVT2ggL.s:1648   .text:00000000000008e0 .LVL182
     /tmp/ccVT2ggL.s:1672   .text:000000000000090c .LVL185
     /tmp/ccVT2ggL.s:1676   .text:0000000000000914 .LVL186
     /tmp/ccVT2ggL.s:1667   .text:0000000000000904 .LVL184
     /tmp/ccVT2ggL.s:1616   .text:00000000000008a0 .LVL177
     /tmp/ccVT2ggL.s:1630   .text:00000000000008bc .LVL179
     /tmp/ccVT2ggL.s:1513   .text:000000000000080c .LVL165
     /tmp/ccVT2ggL.s:1517   .text:0000000000000810 .LVL166
     /tmp/ccVT2ggL.s:1525   .text:0000000000000824 .LVL168
     /tmp/ccVT2ggL.s:1539   .text:000000000000083c .LVL170
     /tmp/ccVT2ggL.s:1545   .text:0000000000000844 .LVL171
     /tmp/ccVT2ggL.s:1314   .text:000000000000069c .LVL141
     /tmp/ccVT2ggL.s:1355   .text:00000000000006ec .LVL145
     /tmp/ccVT2ggL.s:1361   .text:00000000000006f0 .LVL146
     /tmp/ccVT2ggL.s:1381   .text:0000000000000718 .LVL148
     /tmp/ccVT2ggL.s:1384   .text:000000000000071c .LVL149
     /tmp/ccVT2ggL.s:1401   .text:0000000000000734 .LVL152
     /tmp/ccVT2ggL.s:1390   .text:0000000000000724 .LVL150
     /tmp/ccVT2ggL.s:1403   .text:0000000000000738 .LVL153
     /tmp/ccVT2ggL.s:1437   .text:000000000000077c .LVL157
     /tmp/ccVT2ggL.s:1456   .text:00000000000007a4 .LVL159
     /tmp/ccVT2ggL.s:1458   .text:00000000000007a8 .LVL160
     /tmp/ccVT2ggL.s:1464   .text:00000000000007b0 .LVL161
     /tmp/ccVT2ggL.s:2917   .text:00000000000010a0 .LVL315
     /tmp/ccVT2ggL.s:1184   .text:0000000000000610 .LVL130
     /tmp/ccVT2ggL.s:1205   .text:000000000000063c .LVL134
     /tmp/ccVT2ggL.s:1217   .text:0000000000000658 .LVL137
     /tmp/ccVT2ggL.s:1131   .text:00000000000005b4 .LVL122
     /tmp/ccVT2ggL.s:1187   .text:0000000000000614 .LVL131
     /tmp/ccVT2ggL.s:1153   .text:00000000000005e0 .LVL126
     /tmp/ccVT2ggL.s:1159   .text:00000000000005e4 .LVL127
     /tmp/ccVT2ggL.s:994    .text:00000000000004e8 .LVL108
     /tmp/ccVT2ggL.s:1015   .text:0000000000000514 .LVL112
     /tmp/ccVT2ggL.s:997    .text:00000000000004ec .LVL109
     /tmp/ccVT2ggL.s:948    .text:00000000000004a8 .LVL102
     /tmp/ccVT2ggL.s:955    .text:00000000000004ac .LVL103
     /tmp/ccVT2ggL.s:963    .text:00000000000004b8 .LVL104
     /tmp/ccVT2ggL.s:969    .text:00000000000004bc .LVL105
     /tmp/ccVT2ggL.s:355    .text:00000000000001b8 .LVL34
     /tmp/ccVT2ggL.s:369    .text:00000000000001d4 .LVL35
     /tmp/ccVT2ggL.s:378    .text:00000000000001e4 .LVL37
     /tmp/ccVT2ggL.s:437    .text:000000000000025c .LVL44
     /tmp/ccVT2ggL.s:208    .text:00000000000000c4 .LVL16
     /tmp/ccVT2ggL.s:222    .text:00000000000000e0 .LVL17
     /tmp/ccVT2ggL.s:231    .text:00000000000000f0 .LVL19
     /tmp/ccVT2ggL.s:280    .text:0000000000000154 .LVL25
     /tmp/ccVT2ggL.s:114    .text:000000000000002c .LVL6
     /tmp/ccVT2ggL.s:128    .text:0000000000000048 .LVL7
     /tmp/ccVT2ggL.s:137    .text:0000000000000058 .LVL9
     /tmp/ccVT2ggL.s:186    .text:00000000000000bc .LVL15
GAS LISTING /tmp/ccVT2ggL.s 			page 138


     /tmp/ccVT2ggL.s:70     .text:0000000000000000 .LVL2
     /tmp/ccVT2ggL.s:79     .text:0000000000000010 .LVL3
     /tmp/ccVT2ggL.s:3735   .debug_info:0000000000000000 .Ldebug_info0
     /tmp/ccVT2ggL.s:5      .text:0000000000000000 .Ltext0
     /tmp/ccVT2ggL.s:3729   .text:00000000000015d0 .Letext0
     /tmp/ccVT2ggL.s:1366   .text:00000000000006f8 .LBB40
     /tmp/ccVT2ggL.s:1377   .text:0000000000000714 .LBE40
     /tmp/ccVT2ggL.s:1386   .text:000000000000071c .LBB41
     /tmp/ccVT2ggL.s:1396   .text:0000000000000730 .LBE41
     /tmp/ccVT2ggL.s:1442   .text:0000000000000784 .LBB44
     /tmp/ccVT2ggL.s:1453   .text:00000000000007a0 .LBE44
     /tmp/ccVT2ggL.s:1460   .text:00000000000007a8 .LBB45
     /tmp/ccVT2ggL.s:1470   .text:00000000000007bc .LBE45
     /tmp/ccVT2ggL.s:1588   .text:000000000000087c .LBB46
     /tmp/ccVT2ggL.s:1591   .text:0000000000000880 .LBE46
     /tmp/ccVT2ggL.s:1599   .text:000000000000088c .LBB49
     /tmp/ccVT2ggL.s:1633   .text:00000000000008bc .LBE49
     /tmp/ccVT2ggL.s:1600   .text:000000000000088c .LBB47
     /tmp/ccVT2ggL.s:1613   .text:000000000000089c .LBE47
     /tmp/ccVT2ggL.s:1622   .text:00000000000008ac .LBB48
     /tmp/ccVT2ggL.s:1632   .text:00000000000008bc .LBE48
     /tmp/ccVT2ggL.s:3515   .text:00000000000014ac .LBB66
     /tmp/ccVT2ggL.s:3521   .text:00000000000014b4 .LBE66
     /tmp/ccVT2ggL.s:3562   .text:0000000000001504 .LBB67
     /tmp/ccVT2ggL.s:3584   .text:0000000000001530 .LBE67
     /tmp/ccVT2ggL.s:1029   .gcc_except_table:0000000000000000 .LLSDA27
     /tmp/ccVT2ggL.s:1230   .gcc_except_table:000000000000005f .LLSDA28
     /tmp/ccVT2ggL.s:2419   .gcc_except_table:00000000000000e6 .LLSDA41
     /tmp/ccVT2ggL.s:2724   .gcc_except_table:00000000000001bb .LLSDA45
     /tmp/ccVT2ggL.s:2932   .gcc_except_table:00000000000002b7 .LLSDA29
                           .group:0000000000000000 _ZN14PeriodicThreadD5Ev
                           .group:0000000000000000 _ZN12TestPeriodicD5Ev

UNDEFINED SYMBOLS
_ZN5Riscv11printStringEPKc
thread_dispatch
_ZN5Riscv12printIntegerEm
thread_exit
_ZN9Semaphore4waitEv
__putc
_ZN9Semaphore6signalEv
_ZN6ThreadD2Ev
_ZdlPv
_Znwm
_ZN6ThreadC1EPFvPvES0_
_ZN6Thread5startEv
_ZN5Riscv16enableInterruptsEv
_ZN5Riscv17disableInterruptsEv
_Unwind_Resume
__gxx_personality_v0
mem_alloc
mem_free
HEAP_END_ADDR
HEAP_START_ADDR
_ZN9SemaphoreC1Ej
_ZN14PeriodicThreadC2Em
