GAS LISTING /tmp/cchyCMA1.s 			page 1


   1              		.file	"Tests.cpp"
   2              		.option pic
   3              		.option norelax
   4              		.text
   5              	.Ltext0:
   6              		.section	.text._ZN6Thread3runEv,"axG",@progbits,_ZN6Thread3runEv,comdat
   7              		.align	2
   8              		.weak	_ZN6Thread3runEv
  10              	_ZN6Thread3runEv:
  11              	.LFB0:
  12              		.file 1 "src/../h/syscall_cpp.hpp"
   1:src/../h/syscall_cpp.hpp **** //
   2:src/../h/syscall_cpp.hpp **** // Created by os on 4/8/22.
   3:src/../h/syscall_cpp.hpp **** //
   4:src/../h/syscall_cpp.hpp **** 
   5:src/../h/syscall_cpp.hpp **** #ifndef PROJECT_BASE_V1_0_SYSCALL_CPP_HPP
   6:src/../h/syscall_cpp.hpp **** #define PROJECT_BASE_V1_0_SYSCALL_CPP_HPP
   7:src/../h/syscall_cpp.hpp **** 
   8:src/../h/syscall_cpp.hpp **** #include "syscall_c.hpp"
   9:src/../h/syscall_cpp.hpp **** 
  10:src/../h/syscall_cpp.hpp **** void * operator new(size_t size);
  11:src/../h/syscall_cpp.hpp **** 
  12:src/../h/syscall_cpp.hpp **** void operator delete(void * p);
  13:src/../h/syscall_cpp.hpp **** 
  14:src/../h/syscall_cpp.hpp **** class Thread
  15:src/../h/syscall_cpp.hpp **** {
  16:src/../h/syscall_cpp.hpp **** public:
  17:src/../h/syscall_cpp.hpp ****     Thread(void (*body)(void*), void* args);
  18:src/../h/syscall_cpp.hpp **** 
  19:src/../h/syscall_cpp.hpp ****     virtual ~Thread();
  20:src/../h/syscall_cpp.hpp **** 
  21:src/../h/syscall_cpp.hpp ****     int start();
  22:src/../h/syscall_cpp.hpp **** 
  23:src/../h/syscall_cpp.hpp ****     static void dispatch();
  24:src/../h/syscall_cpp.hpp **** 
  25:src/../h/syscall_cpp.hpp ****     static void sleep(time_t);
  26:src/../h/syscall_cpp.hpp **** 
  27:src/../h/syscall_cpp.hpp **** protected:
  28:src/../h/syscall_cpp.hpp ****     Thread();
  29:src/../h/syscall_cpp.hpp **** 
  30:src/../h/syscall_cpp.hpp ****     virtual void run() {}
  13              		.loc 1 30 18
  14              		.cfi_startproc
  15              	.LVL0:
  16 0000 130101FF 		addi	sp,sp,-16
  17              		.cfi_def_cfa_offset 16
  18 0004 23348100 		sd	s0,8(sp)
  19              		.cfi_offset 8, -8
  20 0008 13040101 		addi	s0,sp,16
  21              		.cfi_def_cfa 8, 0
  22              		.loc 1 30 25 is_stmt 0
  23 000c 03348100 		ld	s0,8(sp)
  24              		.cfi_restore 8
  25              		.cfi_def_cfa 2, 16
  26 0010 13010101 		addi	sp,sp,16
  27              		.cfi_def_cfa_offset 0
  28 0014 67800000 		jr	ra
GAS LISTING /tmp/cchyCMA1.s 			page 2


  29              		.cfi_endproc
  30              	.LFE0:
  32              		.section	.text._ZN14PeriodicThread18periodicActivationEv,"axG",@progbits,_ZN14PeriodicThread18peri
  33              		.align	2
  34              		.weak	_ZN14PeriodicThread18periodicActivationEv
  36              	_ZN14PeriodicThread18periodicActivationEv:
  37              	.LFB1:
  31:src/../h/syscall_cpp.hpp **** private:
  32:src/../h/syscall_cpp.hpp ****     thread_t myHandle;
  33:src/../h/syscall_cpp.hpp ****     static void runner(void* t);
  34:src/../h/syscall_cpp.hpp **** };
  35:src/../h/syscall_cpp.hpp **** 
  36:src/../h/syscall_cpp.hpp **** class Semaphore
  37:src/../h/syscall_cpp.hpp **** {
  38:src/../h/syscall_cpp.hpp **** public:
  39:src/../h/syscall_cpp.hpp ****     Semaphore(unsigned init = 1);
  40:src/../h/syscall_cpp.hpp **** 
  41:src/../h/syscall_cpp.hpp ****     virtual ~Semaphore();
  42:src/../h/syscall_cpp.hpp **** 
  43:src/../h/syscall_cpp.hpp ****     int wait();
  44:src/../h/syscall_cpp.hpp ****     int signal();
  45:src/../h/syscall_cpp.hpp **** 
  46:src/../h/syscall_cpp.hpp **** private:
  47:src/../h/syscall_cpp.hpp ****     sem_t myHandle;
  48:src/../h/syscall_cpp.hpp **** };
  49:src/../h/syscall_cpp.hpp **** 
  50:src/../h/syscall_cpp.hpp **** class Console
  51:src/../h/syscall_cpp.hpp **** {
  52:src/../h/syscall_cpp.hpp **** public:
  53:src/../h/syscall_cpp.hpp ****     static char getc();
  54:src/../h/syscall_cpp.hpp ****     static void putc(char);
  55:src/../h/syscall_cpp.hpp **** };
  56:src/../h/syscall_cpp.hpp **** 
  57:src/../h/syscall_cpp.hpp **** class PeriodicThread : public Thread
  58:src/../h/syscall_cpp.hpp **** {
  59:src/../h/syscall_cpp.hpp **** protected:
  60:src/../h/syscall_cpp.hpp ****     PeriodicThread(time_t period);
  61:src/../h/syscall_cpp.hpp ****     virtual void periodicActivation() {};
  38              		.loc 1 61 18 is_stmt 1
  39              		.cfi_startproc
  40              	.LVL1:
  41 0000 130101FF 		addi	sp,sp,-16
  42              		.cfi_def_cfa_offset 16
  43 0004 23348100 		sd	s0,8(sp)
  44              		.cfi_offset 8, -8
  45 0008 13040101 		addi	s0,sp,16
  46              		.cfi_def_cfa 8, 0
  47              		.loc 1 61 40 is_stmt 0
  48 000c 03348100 		ld	s0,8(sp)
  49              		.cfi_restore 8
  50              		.cfi_def_cfa 2, 16
  51 0010 13010101 		addi	sp,sp,16
  52              		.cfi_def_cfa_offset 0
  53 0014 67800000 		jr	ra
  54              		.cfi_endproc
  55              	.LFE1:
  57              		.section	.rodata.str1.8,"aMS",@progbits,1
GAS LISTING /tmp/cchyCMA1.s 			page 3


  58              		.align	3
  59              	.LC0:
  60 0000 69203A20 		.string	"i : "
  60      00
  61 0005 000000   		.align	3
  62              	.LC1:
  63 0008 0A00     		.string	"\n"
  64              		.text
  65              		.align	2
  66              		.globl	_ZN12TestPeriodic18periodicActivationEv
  68              	_ZN12TestPeriodic18periodicActivationEv:
  69              	.LFB50:
  70              		.file 2 "src/Tests.cpp"
   1:src/Tests.cpp **** //
   2:src/Tests.cpp **** // Created by os on 5/5/22.
   3:src/Tests.cpp **** //
   4:src/Tests.cpp **** 
   5:src/Tests.cpp **** #include "../h/Tests.hpp"
   6:src/Tests.cpp **** #include "../test/printing.hpp"
   7:src/Tests.cpp **** #include "../h/Riscv.hpp"
   8:src/Tests.cpp **** #include "../h/PCB.hpp"
   9:src/Tests.cpp **** 
  10:src/Tests.cpp **** void idle(void* args)
  11:src/Tests.cpp **** {
  12:src/Tests.cpp ****     while(true)
  13:src/Tests.cpp ****     {
  14:src/Tests.cpp ****         printString("Idle\n");
  15:src/Tests.cpp ****         thread_dispatch();
  16:src/Tests.cpp ****     }
  17:src/Tests.cpp **** }
  18:src/Tests.cpp **** 
  19:src/Tests.cpp **** void thread1Function(void* p)
  20:src/Tests.cpp **** {
  21:src/Tests.cpp ****     printString("Thread 1 started...\n");
  22:src/Tests.cpp ****     uint64 num = 10000;
  23:src/Tests.cpp ****     for(uint64 i = 0; i < num;i++)
  24:src/Tests.cpp ****     {
  25:src/Tests.cpp ****         if(i % 150 == 0 && i > 0)
  26:src/Tests.cpp ****             thread_dispatch();
  27:src/Tests.cpp ****         printString("i : ");
  28:src/Tests.cpp ****         printInt(i);
  29:src/Tests.cpp ****         printString("\n");
  30:src/Tests.cpp ****     }
  31:src/Tests.cpp **** }
  32:src/Tests.cpp **** 
  33:src/Tests.cpp **** void thread2Function(void* p)
  34:src/Tests.cpp **** {
  35:src/Tests.cpp ****     printString("Thread 2 started...\n");
  36:src/Tests.cpp ****     uint64 num = 10000;
  37:src/Tests.cpp ****     for(uint64 j = 0; j < num;j++)
  38:src/Tests.cpp ****     {
  39:src/Tests.cpp ****         if(j % 50 == 0 && j > 0)
  40:src/Tests.cpp ****             thread_dispatch();
  41:src/Tests.cpp ****         printString("j : ");
  42:src/Tests.cpp ****         printInt(j);
  43:src/Tests.cpp ****         printString("\n");
  44:src/Tests.cpp ****     }
GAS LISTING /tmp/cchyCMA1.s 			page 4


  45:src/Tests.cpp **** }
  46:src/Tests.cpp **** 
  47:src/Tests.cpp **** void thread2FunctionTest2(void* p)
  48:src/Tests.cpp **** {
  49:src/Tests.cpp ****     printString("Thread 2 started...\n");
  50:src/Tests.cpp ****     uint64 num = 10000;
  51:src/Tests.cpp ****     for(uint64 j = 0; j < num;j++)
  52:src/Tests.cpp ****     {
  53:src/Tests.cpp ****         if(j == 200)
  54:src/Tests.cpp ****             thread_exit();
  55:src/Tests.cpp ****         if(j % 50 == 0 && j > 0)
  56:src/Tests.cpp ****             thread_dispatch();
  57:src/Tests.cpp ****         printString("j : ");
  58:src/Tests.cpp ****         printInt(j);
  59:src/Tests.cpp ****         printString("\n");
  60:src/Tests.cpp ****     }
  61:src/Tests.cpp **** }
  62:src/Tests.cpp **** 
  63:src/Tests.cpp **** void threadTest1()
  64:src/Tests.cpp **** {
  65:src/Tests.cpp ****     /*Thread* t1 = new Thread(&thread1Function, 0);
  66:src/Tests.cpp ****     t1->start();
  67:src/Tests.cpp ****     Thread* t2 = new Thread(&thread2Function, 0);
  68:src/Tests.cpp ****     t2->start();
  69:src/Tests.cpp ****     Riscv::enableInterrupts();
  70:src/Tests.cpp ****     //while(((PCB*)(t1->myHandle))->getState() != PCB::FINISHED || ((PCB*)(t2->myHandle))->getState
  71:src/Tests.cpp ****     //{
  72:src/Tests.cpp ****     //    Riscv::printString("Main thread\n");
  73:src/Tests.cpp ****     //    thread_dispatch();
  74:src/Tests.cpp ****     //}
  75:src/Tests.cpp **** 
  76:src/Tests.cpp ****     printString("End...\n");
  77:src/Tests.cpp ****     Riscv::disableInterrupts();*/
  78:src/Tests.cpp **** }
  79:src/Tests.cpp **** 
  80:src/Tests.cpp **** void threadTest2()
  81:src/Tests.cpp **** {
  82:src/Tests.cpp ****     /*Thread* idleThread = new Thread(&idle, 0);
  83:src/Tests.cpp ****     idleThread->start();
  84:src/Tests.cpp ****     Thread* t1 = new Thread(&thread1Function, 0);
  85:src/Tests.cpp ****     t1->start();
  86:src/Tests.cpp ****     Thread* t2  = new Thread(&thread2FunctionTest2, 0);
  87:src/Tests.cpp ****     t2->start();
  88:src/Tests.cpp **** 
  89:src/Tests.cpp ****     Riscv::enableInterrupts();
  90:src/Tests.cpp **** 
  91:src/Tests.cpp ****     //while(((PCB*)idleThread->myHandle)->getState() != PCB::FINISHED);
  92:src/Tests.cpp **** 
  93:src/Tests.cpp ****     printString("End...\n");
  94:src/Tests.cpp **** 
  95:src/Tests.cpp ****     Riscv::disableInterrupts();*/
  96:src/Tests.cpp **** }
  97:src/Tests.cpp **** 
  98:src/Tests.cpp **** 
  99:src/Tests.cpp **** void threadTest3()
 100:src/Tests.cpp **** {
 101:src/Tests.cpp ****     Thread* t = new TestPeriodic(50);
GAS LISTING /tmp/cchyCMA1.s 			page 5


 102:src/Tests.cpp ****     t->start();
 103:src/Tests.cpp ****     while(true)
 104:src/Tests.cpp ****     {
 105:src/Tests.cpp ****         thread_dispatch();
 106:src/Tests.cpp ****     }
 107:src/Tests.cpp **** }
 108:src/Tests.cpp **** 
 109:src/Tests.cpp **** void threadTests()
 110:src/Tests.cpp **** {
 111:src/Tests.cpp ****     //threadTest1();
 112:src/Tests.cpp ****     //threadTest2();
 113:src/Tests.cpp ****     threadTest3();
 114:src/Tests.cpp **** }
 115:src/Tests.cpp **** 
 116:src/Tests.cpp **** 
 117:src/Tests.cpp **** //memory (de)allocation tests
 118:src/Tests.cpp **** void mallocFree()
 119:src/Tests.cpp **** {
 120:src/Tests.cpp ****     printString("mallocFree\n");
 121:src/Tests.cpp ****     constexpr int num = 100;
 122:src/Tests.cpp ****     void* addrs[num];
 123:src/Tests.cpp ****     for(int i = 0; i < num;i++)
 124:src/Tests.cpp ****     {
 125:src/Tests.cpp ****         addrs[i] = mem_alloc(100);
 126:src/Tests.cpp ****         if(addrs[i] == 0)
 127:src/Tests.cpp ****         {
 128:src/Tests.cpp ****             printString("not OK\n");
 129:src/Tests.cpp ****             return;
 130:src/Tests.cpp ****         }
 131:src/Tests.cpp **** 
 132:src/Tests.cpp ****     }
 133:src/Tests.cpp **** 
 134:src/Tests.cpp ****     for(int i = 0 ; i < num;i+=2)
 135:src/Tests.cpp ****     {
 136:src/Tests.cpp ****         int retval = mem_free(addrs[i]);
 137:src/Tests.cpp ****         if(retval != 0)
 138:src/Tests.cpp ****         {
 139:src/Tests.cpp ****             printString("not OK\n");
 140:src/Tests.cpp ****             return;
 141:src/Tests.cpp ****         }
 142:src/Tests.cpp ****     }
 143:src/Tests.cpp **** 
 144:src/Tests.cpp ****     for(int i = 0 ; i < num;i+=2)
 145:src/Tests.cpp ****     {
 146:src/Tests.cpp ****         addrs[i] = mem_alloc(20);
 147:src/Tests.cpp ****         if(addrs[i] == 0)
 148:src/Tests.cpp ****         {
 149:src/Tests.cpp ****             printString("not OK\n");
 150:src/Tests.cpp ****             return;
 151:src/Tests.cpp ****         }
 152:src/Tests.cpp ****     }
 153:src/Tests.cpp **** 
 154:src/Tests.cpp ****     for(int i = 0; i < num;i++)
 155:src/Tests.cpp ****     {
 156:src/Tests.cpp ****         int retval = mem_free(addrs[i]);
 157:src/Tests.cpp ****         if(retval != 0)
 158:src/Tests.cpp ****         {
GAS LISTING /tmp/cchyCMA1.s 			page 6


 159:src/Tests.cpp ****             printString("not OK\n");
 160:src/Tests.cpp ****             return;
 161:src/Tests.cpp ****         }
 162:src/Tests.cpp ****     }
 163:src/Tests.cpp **** 
 164:src/Tests.cpp ****     printString("OK\n");
 165:src/Tests.cpp **** }
 166:src/Tests.cpp **** void bigMalloc()
 167:src/Tests.cpp **** {
 168:src/Tests.cpp ****     printString("bigMalloc\n");
 169:src/Tests.cpp ****     uint64 x = (uint64)HEAP_END_ADDR - (uint64)HEAP_START_ADDR + 100UL;
 170:src/Tests.cpp ****     void* p = mem_alloc(x);
 171:src/Tests.cpp ****     if(p == 0)
 172:src/Tests.cpp ****         printString("OK\n");
 173:src/Tests.cpp ****     else
 174:src/Tests.cpp ****         printString("not OK\n");
 175:src/Tests.cpp **** }
 176:src/Tests.cpp **** 
 177:src/Tests.cpp **** void lotOfSmallMallocs()
 178:src/Tests.cpp **** {
 179:src/Tests.cpp ****     for(int i=0;;i++){
 180:src/Tests.cpp ****         void *x = mem_alloc(1);
 181:src/Tests.cpp ****         void *y = mem_alloc(1);
 182:src/Tests.cpp ****         if(x == nullptr){
 183:src/Tests.cpp ****             printString("alloc\n");
 184:src/Tests.cpp ****             printInt(i);
 185:src/Tests.cpp ****             break;
 186:src/Tests.cpp ****         }
 187:src/Tests.cpp ****         int status = mem_free(x);
 188:src/Tests.cpp ****         if(status == -1){
 189:src/Tests.cpp ****             printString("free\n");
 190:src/Tests.cpp ****             printInt(i);
 191:src/Tests.cpp ****             break;
 192:src/Tests.cpp ****         }
 193:src/Tests.cpp ****         if(i%10000==0){
 194:src/Tests.cpp ****             printInt(i);
 195:src/Tests.cpp ****             putc('\n');
 196:src/Tests.cpp ****         }
 197:src/Tests.cpp ****         if(y);
 198:src/Tests.cpp ****     }
 199:src/Tests.cpp ****     /*
 200:src/Tests.cpp ****     for(int i=0;i<200000;i++)
 201:src/Tests.cpp ****     {
 202:src/Tests.cpp ****         int *x = (int*) mem_alloc(1);
 203:src/Tests.cpp ****         if(x == nullptr)
 204:src/Tests.cpp ****         {
 205:src/Tests.cpp ****             printString("not OK\n");
 206:src/Tests.cpp ****             break;
 207:src/Tests.cpp ****         }
 208:src/Tests.cpp ****     }*/
 209:src/Tests.cpp ****     printString("OK\n");
 210:src/Tests.cpp **** }
 211:src/Tests.cpp **** void badFree()
 212:src/Tests.cpp **** {
 213:src/Tests.cpp ****     printString("badFree\n");
 214:src/Tests.cpp ****     Test* t = (Test*)mem_alloc(sizeof(Test));
 215:src/Tests.cpp ****     uint64 retval = mem_free((char*)t + 2);
GAS LISTING /tmp/cchyCMA1.s 			page 7


 216:src/Tests.cpp ****     if(retval == 0)
 217:src/Tests.cpp ****         printString("not OK\n");
 218:src/Tests.cpp ****     else
 219:src/Tests.cpp ****          printString("OK\n");
 220:src/Tests.cpp **** }
 221:src/Tests.cpp **** 
 222:src/Tests.cpp **** void stressTesting()
 223:src/Tests.cpp **** {
 224:src/Tests.cpp ****     printString("stressTesting\n");
 225:src/Tests.cpp ****     constexpr int num = 100;
 226:src/Tests.cpp ****     void* addrs[num];
 227:src/Tests.cpp ****     for(int i = 0; i < num;i++)
 228:src/Tests.cpp ****     {
 229:src/Tests.cpp ****         addrs[i] = mem_alloc(1);
 230:src/Tests.cpp ****         if(addrs[i] == 0)
 231:src/Tests.cpp ****         {
 232:src/Tests.cpp ****             printString("not OK\n");
 233:src/Tests.cpp ****             return;
 234:src/Tests.cpp ****         }
 235:src/Tests.cpp **** 
 236:src/Tests.cpp ****     }
 237:src/Tests.cpp ****     int sz = 300;
 238:src/Tests.cpp ****     while(sz > 0)
 239:src/Tests.cpp ****     {
 240:src/Tests.cpp ****         for(int i = 0 ; i < num;i+=2)
 241:src/Tests.cpp ****         {
 242:src/Tests.cpp ****             int retval = mem_free(addrs[i]);
 243:src/Tests.cpp ****             if(retval != 0)
 244:src/Tests.cpp ****             {
 245:src/Tests.cpp ****                 printString("not OK\n");
 246:src/Tests.cpp ****                 return;
 247:src/Tests.cpp ****             }
 248:src/Tests.cpp ****             addrs[i] = mem_alloc(sz/2);
 249:src/Tests.cpp ****             if(addrs[i] == 0)
 250:src/Tests.cpp ****             {
 251:src/Tests.cpp ****                 printString("not Ok\n");
 252:src/Tests.cpp ****                 return;
 253:src/Tests.cpp ****             }
 254:src/Tests.cpp **** 
 255:src/Tests.cpp ****         }
 256:src/Tests.cpp **** 
 257:src/Tests.cpp ****         for(int i = 1 ; i < num;i+=2)
 258:src/Tests.cpp ****         {
 259:src/Tests.cpp ****             int retval = mem_free(addrs[i]);
 260:src/Tests.cpp ****             if(retval != 0)
 261:src/Tests.cpp ****             {
 262:src/Tests.cpp ****                 printString("not OK\n");
 263:src/Tests.cpp ****                 return;
 264:src/Tests.cpp ****             }
 265:src/Tests.cpp ****             addrs[i] = mem_alloc(sz);
 266:src/Tests.cpp ****             if(addrs[i] == 0)
 267:src/Tests.cpp ****             {
 268:src/Tests.cpp ****                 printString("not Ok\n");
 269:src/Tests.cpp ****                 return;
 270:src/Tests.cpp ****             }
 271:src/Tests.cpp **** 
 272:src/Tests.cpp ****         }
GAS LISTING /tmp/cchyCMA1.s 			page 8


 273:src/Tests.cpp ****         sz-=10;
 274:src/Tests.cpp ****     }
 275:src/Tests.cpp **** 
 276:src/Tests.cpp ****     printString("OK\n");
 277:src/Tests.cpp **** }
 278:src/Tests.cpp **** 
 279:src/Tests.cpp **** void memoryAllocationTests()
 280:src/Tests.cpp **** {
 281:src/Tests.cpp ****     //bigMalloc();
 282:src/Tests.cpp ****     //lotOfSmallMallocs();
 283:src/Tests.cpp ****     //mallocFree();
 284:src/Tests.cpp ****     //badFree();
 285:src/Tests.cpp ****     //stressTesting();
 286:src/Tests.cpp ****     //mallocTest();
 287:src/Tests.cpp ****     //mallocEverything();
 288:src/Tests.cpp ****     //mallocGapFillTest();
 289:src/Tests.cpp **** }
 290:src/Tests.cpp **** 
 291:src/Tests.cpp **** void semaphoreTests()
 292:src/Tests.cpp **** {
 293:src/Tests.cpp ****     semTest1();
 294:src/Tests.cpp **** }
 295:src/Tests.cpp **** 
 296:src/Tests.cpp **** void myTests()
 297:src/Tests.cpp **** {
 298:src/Tests.cpp ****     //memoryAllocationTests();
 299:src/Tests.cpp ****     threadTests();
 300:src/Tests.cpp ****     //semaphoreTests();
 301:src/Tests.cpp ****     //consoleTests();
 302:src/Tests.cpp ****     //changeModeTests();
 303:src/Tests.cpp **** }
 304:src/Tests.cpp **** 
 305:src/Tests.cpp **** TestPeriodic::TestPeriodic(time_t time) : PeriodicThread(time) {
 306:src/Tests.cpp **** 
 307:src/Tests.cpp **** }
 308:src/Tests.cpp **** 
 309:src/Tests.cpp **** void TestPeriodic::periodicActivation()
 310:src/Tests.cpp **** {
  71              		.loc 2 310 1 is_stmt 1
  72              		.cfi_startproc
  73              	.LVL2:
  74 0000 130101FE 		addi	sp,sp,-32
  75              		.cfi_def_cfa_offset 32
  76 0004 233C1100 		sd	ra,24(sp)
  77 0008 23388100 		sd	s0,16(sp)
  78 000c 23349100 		sd	s1,8(sp)
  79              		.cfi_offset 1, -8
  80              		.cfi_offset 8, -16
  81              		.cfi_offset 9, -24
  82 0010 13040102 		addi	s0,sp,32
  83              		.cfi_def_cfa 8, 0
 311:src/Tests.cpp ****     for(int i = 0 ; i < 10;i++)
  84              		.loc 2 311 5
  85              	.LVL3:
  86              	.LBB14:
  87              		.loc 2 311 13 is_stmt 0
  88 0014 93040000 		li	s1,0
GAS LISTING /tmp/cchyCMA1.s 			page 9


  89              	.LVL4:
  90              	.L7:
  91              		.loc 2 311 23 is_stmt 1 discriminator 3
  92 0018 93079000 		li	a5,9
  93 001c 63C09704 		bgt	s1,a5,.L5
 312:src/Tests.cpp ****     {
 313:src/Tests.cpp ****         printString("i : ");
  94              		.loc 2 313 9 discriminator 2
  95              		.loc 2 313 20 is_stmt 0 discriminator 2
  96 0020 17050000 		lla	a0,.LC0
  96      13050500 
  97 0028 97000000 		call	_Z11printStringPKc@plt
  97      E7800000 
  98              	.LVL5:
 314:src/Tests.cpp ****         printInt(i);
  99              		.loc 2 314 9 is_stmt 1 discriminator 2
 100              		.loc 2 314 17 is_stmt 0 discriminator 2
 101 0030 13060000 		li	a2,0
 102 0034 9305A000 		li	a1,10
 103 0038 13850400 		mv	a0,s1
 104 003c 97000000 		call	_Z8printIntiii@plt
 104      E7800000 
 105              	.LVL6:
 315:src/Tests.cpp ****         printString("\n");
 106              		.loc 2 315 9 is_stmt 1 discriminator 2
 107              		.loc 2 315 20 is_stmt 0 discriminator 2
 108 0044 17050000 		lla	a0,.LC1
 108      13050500 
 109 004c 97000000 		call	_Z11printStringPKc@plt
 109      E7800000 
 110              	.LVL7:
 311:src/Tests.cpp ****     {
 111              		.loc 2 311 5 is_stmt 1 discriminator 2
 112 0054 9B841400 		addiw	s1,s1,1
 113              	.LVL8:
 114 0058 6FF01FFC 		j	.L7
 115              	.LVL9:
 116              	.L5:
 117              	.LBE14:
 316:src/Tests.cpp ****     }
 317:src/Tests.cpp **** }
 118              		.loc 2 317 1 is_stmt 0
 119 005c 83308101 		ld	ra,24(sp)
 120              		.cfi_restore 1
 121 0060 03340101 		ld	s0,16(sp)
 122              		.cfi_restore 8
 123              		.cfi_def_cfa 2, 32
 124 0064 83348100 		ld	s1,8(sp)
 125              		.cfi_restore 9
 126              	.LVL10:
 127 0068 13010102 		addi	sp,sp,32
 128              		.cfi_def_cfa_offset 0
 129 006c 67800000 		jr	ra
 130              		.cfi_endproc
 131              	.LFE50:
 133              		.section	.text._ZN14PeriodicThreadD2Ev,"axG",@progbits,_ZN14PeriodicThreadD5Ev,comdat
 134              		.align	2
GAS LISTING /tmp/cchyCMA1.s 			page 10


 135              		.weak	_ZN14PeriodicThreadD2Ev
 137              	_ZN14PeriodicThreadD2Ev:
 138              	.LFB45:
  57:src/../h/syscall_cpp.hpp **** {
 139              		.loc 1 57 7 is_stmt 1
 140              		.cfi_startproc
 141              	.LVL11:
 142 0000 130101FF 		addi	sp,sp,-16
 143              		.cfi_def_cfa_offset 16
 144 0004 23341100 		sd	ra,8(sp)
 145 0008 23308100 		sd	s0,0(sp)
 146              		.cfi_offset 1, -8
 147              		.cfi_offset 8, -16
 148 000c 13040101 		addi	s0,sp,16
 149              		.cfi_def_cfa 8, 0
 150              	.LBB15:
  57:src/../h/syscall_cpp.hpp **** {
 151              		.loc 1 57 7 is_stmt 0
 152 0010 97070000 		lla	a5,_ZTV14PeriodicThread+16
 152      93870700 
 153 0018 2330F500 		sd	a5,0(a0)
 154 001c 97000000 		call	_ZN6ThreadD2Ev@plt
 154      E7800000 
 155              	.LVL12:
 156              	.LBE15:
 157 0024 83308100 		ld	ra,8(sp)
 158              		.cfi_restore 1
 159 0028 03340100 		ld	s0,0(sp)
 160              		.cfi_restore 8
 161              		.cfi_def_cfa 2, 16
 162 002c 13010101 		addi	sp,sp,16
 163              		.cfi_def_cfa_offset 0
 164 0030 67800000 		jr	ra
 165              		.cfi_endproc
 166              	.LFE45:
 168              		.weak	_ZN14PeriodicThreadD1Ev
 169              		.set	_ZN14PeriodicThreadD1Ev,_ZN14PeriodicThreadD2Ev
 170              		.section	.text._ZN14PeriodicThreadD0Ev,"axG",@progbits,_ZN14PeriodicThreadD5Ev,comdat
 171              		.align	2
 172              		.weak	_ZN14PeriodicThreadD0Ev
 174              	_ZN14PeriodicThreadD0Ev:
 175              	.LFB47:
  57:src/../h/syscall_cpp.hpp **** {
 176              		.loc 1 57 7 is_stmt 1
 177              		.cfi_startproc
 178              	.LVL13:
 179 0000 130101FE 		addi	sp,sp,-32
 180              		.cfi_def_cfa_offset 32
 181 0004 233C1100 		sd	ra,24(sp)
 182 0008 23388100 		sd	s0,16(sp)
 183 000c 23349100 		sd	s1,8(sp)
 184              		.cfi_offset 1, -8
 185              		.cfi_offset 8, -16
 186              		.cfi_offset 9, -24
 187 0010 13040102 		addi	s0,sp,32
 188              		.cfi_def_cfa 8, 0
 189 0014 93040500 		mv	s1,a0
GAS LISTING /tmp/cchyCMA1.s 			page 11


 190              	.LVL14:
 191              	.LBB16:
 192              	.LBB17:
  57:src/../h/syscall_cpp.hpp **** {
 193              		.loc 1 57 7 is_stmt 0
 194 0018 97070000 		lla	a5,_ZTV14PeriodicThread+16
 194      93870700 
 195 0020 2330F500 		sd	a5,0(a0)
 196 0024 97000000 		call	_ZN6ThreadD2Ev@plt
 196      E7800000 
 197              	.LVL15:
 198              	.LBE17:
 199              	.LBE16:
 200 002c 13850400 		mv	a0,s1
 201 0030 97000000 		call	_ZdlPv@plt
 201      E7800000 
 202              	.LVL16:
 203 0038 83308101 		ld	ra,24(sp)
 204              		.cfi_restore 1
 205 003c 03340101 		ld	s0,16(sp)
 206              		.cfi_restore 8
 207              		.cfi_def_cfa 2, 32
 208 0040 83348100 		ld	s1,8(sp)
 209              		.cfi_restore 9
 210              	.LVL17:
 211 0044 13010102 		addi	sp,sp,32
 212              		.cfi_def_cfa_offset 0
 213 0048 67800000 		jr	ra
 214              		.cfi_endproc
 215              	.LFE47:
 217              		.section	.text._ZN12TestPeriodicD2Ev,"axG",@progbits,_ZN12TestPeriodicD5Ev,comdat
 218              		.align	2
 219              		.weak	_ZN12TestPeriodicD2Ev
 221              	_ZN12TestPeriodicD2Ev:
 222              	.LFB62:
 223              		.file 3 "src/../h/Tests.hpp"
   1:src/../h/Tests.hpp **** //
   2:src/../h/Tests.hpp **** // Created by os on 5/5/22.
   3:src/../h/Tests.hpp **** //
   4:src/../h/Tests.hpp **** 
   5:src/../h/Tests.hpp **** #ifndef PROJECT_BASE_V1_0_TESTS_HPP
   6:src/../h/Tests.hpp **** #define PROJECT_BASE_V1_0_TESTS_HPP
   7:src/../h/Tests.hpp **** 
   8:src/../h/Tests.hpp **** #include "syscall_cpp.hpp"
   9:src/../h/Tests.hpp **** 
  10:src/../h/Tests.hpp **** class Test
  11:src/../h/Tests.hpp **** {
  12:src/../h/Tests.hpp **** public:
  13:src/../h/Tests.hpp ****     uint64 a;
  14:src/../h/Tests.hpp **** };
  15:src/../h/Tests.hpp **** struct object{
  16:src/../h/Tests.hpp ****     int a,b,c,d,e,f,g,h,i,j,k;
  17:src/../h/Tests.hpp **** };
  18:src/../h/Tests.hpp **** struct node{
  19:src/../h/Tests.hpp ****     object o1, o2, o3;
  20:src/../h/Tests.hpp ****     char id;
  21:src/../h/Tests.hpp ****     node *next, *prev;
GAS LISTING /tmp/cchyCMA1.s 			page 12


  22:src/../h/Tests.hpp **** };
  23:src/../h/Tests.hpp **** 
  24:src/../h/Tests.hpp **** //memory (de)allocation tests
  25:src/../h/Tests.hpp **** void mallocFree();
  26:src/../h/Tests.hpp **** void bigMalloc();
  27:src/../h/Tests.hpp **** void lotOfSmallMallocs();
  28:src/../h/Tests.hpp **** void badFree();
  29:src/../h/Tests.hpp **** void stressTesting();
  30:src/../h/Tests.hpp **** void mallocTest();
  31:src/../h/Tests.hpp **** void mallocEverything();
  32:src/../h/Tests.hpp **** void mallocGapFillTest();
  33:src/../h/Tests.hpp **** void memoryAllocationTests();
  34:src/../h/Tests.hpp **** 
  35:src/../h/Tests.hpp **** //thread tests
  36:src/../h/Tests.hpp **** void thread1Function();
  37:src/../h/Tests.hpp **** void thread2Function();
  38:src/../h/Tests.hpp **** 
  39:src/../h/Tests.hpp **** void threadFunction3();
  40:src/../h/Tests.hpp **** 
  41:src/../h/Tests.hpp **** void threadTest1();
  42:src/../h/Tests.hpp **** void threadTest2();
  43:src/../h/Tests.hpp **** void threadTest3();
  44:src/../h/Tests.hpp **** 
  45:src/../h/Tests.hpp **** void threadTests();
  46:src/../h/Tests.hpp **** 
  47:src/../h/Tests.hpp **** class TestPeriodic : public PeriodicThread
 224              		.loc 3 47 7 is_stmt 1
 225              		.cfi_startproc
 226              	.LVL18:
 227 0000 130101FF 		addi	sp,sp,-16
 228              		.cfi_def_cfa_offset 16
 229 0004 23341100 		sd	ra,8(sp)
 230 0008 23308100 		sd	s0,0(sp)
 231              		.cfi_offset 1, -8
 232              		.cfi_offset 8, -16
 233 000c 13040101 		addi	s0,sp,16
 234              		.cfi_def_cfa 8, 0
 235              	.LVL19:
 236              	.LBB18:
 237              	.LBB19:
  57:src/../h/syscall_cpp.hpp **** {
 238              		.loc 1 57 7 is_stmt 0
 239 0010 97070000 		lla	a5,_ZTV14PeriodicThread+16
 239      93870700 
 240 0018 2330F500 		sd	a5,0(a0)
 241 001c 97000000 		call	_ZN6ThreadD2Ev@plt
 241      E7800000 
 242              	.LVL20:
 243              	.LBE19:
 244              	.LBE18:
 245              		.loc 3 47 7
 246 0024 83308100 		ld	ra,8(sp)
 247              		.cfi_restore 1
 248 0028 03340100 		ld	s0,0(sp)
 249              		.cfi_restore 8
 250              		.cfi_def_cfa 2, 16
 251 002c 13010101 		addi	sp,sp,16
GAS LISTING /tmp/cchyCMA1.s 			page 13


 252              		.cfi_def_cfa_offset 0
 253 0030 67800000 		jr	ra
 254              		.cfi_endproc
 255              	.LFE62:
 257              		.weak	_ZN12TestPeriodicD1Ev
 258              		.set	_ZN12TestPeriodicD1Ev,_ZN12TestPeriodicD2Ev
 259              		.section	.text._ZN12TestPeriodicD0Ev,"axG",@progbits,_ZN12TestPeriodicD5Ev,comdat
 260              		.align	2
 261              		.weak	_ZN12TestPeriodicD0Ev
 263              	_ZN12TestPeriodicD0Ev:
 264              	.LFB64:
 265              		.loc 3 47 7 is_stmt 1
 266              		.cfi_startproc
 267              	.LVL21:
 268 0000 130101FE 		addi	sp,sp,-32
 269              		.cfi_def_cfa_offset 32
 270 0004 233C1100 		sd	ra,24(sp)
 271 0008 23388100 		sd	s0,16(sp)
 272 000c 23349100 		sd	s1,8(sp)
 273              		.cfi_offset 1, -8
 274              		.cfi_offset 8, -16
 275              		.cfi_offset 9, -24
 276 0010 13040102 		addi	s0,sp,32
 277              		.cfi_def_cfa 8, 0
 278 0014 93040500 		mv	s1,a0
 279              	.LVL22:
 280              	.LBB20:
 281              	.LBB21:
 282              	.LBB22:
  57:src/../h/syscall_cpp.hpp **** {
 283              		.loc 1 57 7 is_stmt 0
 284 0018 97070000 		lla	a5,_ZTV14PeriodicThread+16
 284      93870700 
 285 0020 2330F500 		sd	a5,0(a0)
 286 0024 97000000 		call	_ZN6ThreadD2Ev@plt
 286      E7800000 
 287              	.LVL23:
 288              	.LBE22:
 289              	.LBE21:
 290              	.LBE20:
 291              		.loc 3 47 7
 292 002c 13850400 		mv	a0,s1
 293 0030 97000000 		call	_ZdlPv@plt
 293      E7800000 
 294              	.LVL24:
 295 0038 83308101 		ld	ra,24(sp)
 296              		.cfi_restore 1
 297 003c 03340101 		ld	s0,16(sp)
 298              		.cfi_restore 8
 299              		.cfi_def_cfa 2, 32
 300 0040 83348100 		ld	s1,8(sp)
 301              		.cfi_restore 9
 302              	.LVL25:
 303 0044 13010102 		addi	sp,sp,32
 304              		.cfi_def_cfa_offset 0
 305 0048 67800000 		jr	ra
 306              		.cfi_endproc
GAS LISTING /tmp/cchyCMA1.s 			page 14


 307              	.LFE64:
 309              		.section	.rodata.str1.8
 310 000a 00000000 		.align	3
 310      0000
 311              	.LC2:
 312 0010 49646C65 		.string	"Idle\n"
 312      0A00
 313              		.text
 314              		.align	2
 315              		.globl	_Z4idlePv
 317              	_Z4idlePv:
 318              	.LFB27:
  11:src/Tests.cpp ****     while(true)
 319              		.loc 2 11 1 is_stmt 1
 320              		.cfi_startproc
 321              	.LVL26:
 322 0070 130101FF 		addi	sp,sp,-16
 323              		.cfi_def_cfa_offset 16
 324 0074 23341100 		sd	ra,8(sp)
 325 0078 23308100 		sd	s0,0(sp)
 326              		.cfi_offset 1, -8
 327              		.cfi_offset 8, -16
 328 007c 13040101 		addi	s0,sp,16
 329              		.cfi_def_cfa 8, 0
 330              	.LVL27:
 331              	.L18:
  12:src/Tests.cpp ****     {
 332              		.loc 2 12 5 discriminator 1
  14:src/Tests.cpp ****         thread_dispatch();
 333              		.loc 2 14 9 discriminator 1
  14:src/Tests.cpp ****         thread_dispatch();
 334              		.loc 2 14 20 is_stmt 0 discriminator 1
 335 0080 17050000 		lla	a0,.LC2
 335      13050500 
 336 0088 97000000 		call	_Z11printStringPKc@plt
 336      E7800000 
 337              	.LVL28:
  15:src/Tests.cpp ****     }
 338              		.loc 2 15 9 is_stmt 1 discriminator 1
  15:src/Tests.cpp ****     }
 339              		.loc 2 15 24 is_stmt 0 discriminator 1
 340 0090 97000000 		call	_Z15thread_dispatchv@plt
 340      E7800000 
 341              	.LVL29:
  12:src/Tests.cpp ****     {
 342              		.loc 2 12 5 is_stmt 1 discriminator 1
 343 0098 6FF09FFE 		j	.L18
 344              		.cfi_endproc
 345              	.LFE27:
 347              		.section	.rodata.str1.8
 348 0016 0000     		.align	3
 349              	.LC3:
 350 0018 54687265 		.string	"Thread 1 started...\n"
 350      61642031 
 350      20737461 
 350      72746564 
 350      2E2E2E0A 
GAS LISTING /tmp/cchyCMA1.s 			page 15


 351              		.text
 352              		.align	2
 353              		.globl	_Z15thread1FunctionPv
 355              	_Z15thread1FunctionPv:
 356              	.LFB28:
  20:src/Tests.cpp ****     printString("Thread 1 started...\n");
 357              		.loc 2 20 1
 358              		.cfi_startproc
 359              	.LVL30:
 360 009c 130101FE 		addi	sp,sp,-32
 361              		.cfi_def_cfa_offset 32
 362 00a0 233C1100 		sd	ra,24(sp)
 363 00a4 23388100 		sd	s0,16(sp)
 364 00a8 23349100 		sd	s1,8(sp)
 365              		.cfi_offset 1, -8
 366              		.cfi_offset 8, -16
 367              		.cfi_offset 9, -24
 368 00ac 13040102 		addi	s0,sp,32
 369              		.cfi_def_cfa 8, 0
  21:src/Tests.cpp ****     uint64 num = 10000;
 370              		.loc 2 21 5
  21:src/Tests.cpp ****     uint64 num = 10000;
 371              		.loc 2 21 16 is_stmt 0
 372 00b0 17050000 		lla	a0,.LC3
 372      13050500 
 373              	.LVL31:
 374 00b8 97000000 		call	_Z11printStringPKc@plt
 374      E7800000 
 375              	.LVL32:
  22:src/Tests.cpp ****     for(uint64 i = 0; i < num;i++)
 376              		.loc 2 22 5 is_stmt 1
  23:src/Tests.cpp ****     {
 377              		.loc 2 23 5
 378              	.LBB23:
  23:src/Tests.cpp ****     {
 379              		.loc 2 23 16 is_stmt 0
 380 00c0 93040000 		li	s1,0
 381 00c4 6F004004 		j	.L23
 382              	.LVL33:
 383              	.L25:
  26:src/Tests.cpp ****         printString("i : ");
 384              		.loc 2 26 13 is_stmt 1
  26:src/Tests.cpp ****         printString("i : ");
 385              		.loc 2 26 28 is_stmt 0
 386 00c8 97000000 		call	_Z15thread_dispatchv@plt
 386      E7800000 
 387              	.LVL34:
 388              	.L22:
  27:src/Tests.cpp ****         printInt(i);
 389              		.loc 2 27 9 is_stmt 1 discriminator 2
  27:src/Tests.cpp ****         printInt(i);
 390              		.loc 2 27 20 is_stmt 0 discriminator 2
 391 00d0 17050000 		lla	a0,.LC0
 391      13050500 
 392 00d8 97000000 		call	_Z11printStringPKc@plt
 392      E7800000 
 393              	.LVL35:
GAS LISTING /tmp/cchyCMA1.s 			page 16


  28:src/Tests.cpp ****         printString("\n");
 394              		.loc 2 28 9 is_stmt 1 discriminator 2
  28:src/Tests.cpp ****         printString("\n");
 395              		.loc 2 28 17 is_stmt 0 discriminator 2
 396 00e0 13060000 		li	a2,0
 397 00e4 9305A000 		li	a1,10
 398 00e8 1B850400 		sext.w	a0,s1
 399 00ec 97000000 		call	_Z8printIntiii@plt
 399      E7800000 
 400              	.LVL36:
  29:src/Tests.cpp ****     }
 401              		.loc 2 29 9 is_stmt 1 discriminator 2
  29:src/Tests.cpp ****     }
 402              		.loc 2 29 20 is_stmt 0 discriminator 2
 403 00f4 17050000 		lla	a0,.LC1
 403      13050500 
 404 00fc 97000000 		call	_Z11printStringPKc@plt
 404      E7800000 
 405              	.LVL37:
  23:src/Tests.cpp ****     {
 406              		.loc 2 23 5 is_stmt 1 discriminator 2
 407 0104 93841400 		addi	s1,s1,1
 408              	.LVL38:
 409              	.L23:
  23:src/Tests.cpp ****     {
 410              		.loc 2 23 25 discriminator 1
 411 0108 B7270000 		li	a5,8192
 412 010c 9387F770 		addi	a5,a5,1807
 413 0110 63EC9700 		bgtu	s1,a5,.L20
  25:src/Tests.cpp ****             thread_dispatch();
 414              		.loc 2 25 9
  25:src/Tests.cpp ****             thread_dispatch();
 415              		.loc 2 25 14 is_stmt 0
 416 0114 93076009 		li	a5,150
 417 0118 B3F7F402 		remu	a5,s1,a5
  25:src/Tests.cpp ****             thread_dispatch();
 418              		.loc 2 25 9
 419 011c E39A07FA 		bnez	a5,.L22
  25:src/Tests.cpp ****             thread_dispatch();
 420              		.loc 2 25 25 discriminator 1
 421 0120 E38804FA 		beqz	s1,.L22
 422 0124 6FF05FFA 		j	.L25
 423              	.L20:
 424              	.LBE23:
  31:src/Tests.cpp **** 
 425              		.loc 2 31 1
 426 0128 83308101 		ld	ra,24(sp)
 427              		.cfi_restore 1
 428 012c 03340101 		ld	s0,16(sp)
 429              		.cfi_restore 8
 430              		.cfi_def_cfa 2, 32
 431 0130 83348100 		ld	s1,8(sp)
 432              		.cfi_restore 9
 433              	.LVL39:
 434 0134 13010102 		addi	sp,sp,32
 435              		.cfi_def_cfa_offset 0
 436 0138 67800000 		jr	ra
GAS LISTING /tmp/cchyCMA1.s 			page 17


 437              		.cfi_endproc
 438              	.LFE28:
 440              		.section	.rodata.str1.8
 441 002d 000000   		.align	3
 442              	.LC4:
 443 0030 54687265 		.string	"Thread 2 started...\n"
 443      61642032 
 443      20737461 
 443      72746564 
 443      2E2E2E0A 
 444 0045 000000   		.align	3
 445              	.LC5:
 446 0048 6A203A20 		.string	"j : "
 446      00
 447              		.text
 448              		.align	2
 449              		.globl	_Z15thread2FunctionPv
 451              	_Z15thread2FunctionPv:
 452              	.LFB29:
  34:src/Tests.cpp ****     printString("Thread 2 started...\n");
 453              		.loc 2 34 1 is_stmt 1
 454              		.cfi_startproc
 455              	.LVL40:
 456 013c 130101FE 		addi	sp,sp,-32
 457              		.cfi_def_cfa_offset 32
 458 0140 233C1100 		sd	ra,24(sp)
 459 0144 23388100 		sd	s0,16(sp)
 460 0148 23349100 		sd	s1,8(sp)
 461              		.cfi_offset 1, -8
 462              		.cfi_offset 8, -16
 463              		.cfi_offset 9, -24
 464 014c 13040102 		addi	s0,sp,32
 465              		.cfi_def_cfa 8, 0
  35:src/Tests.cpp ****     uint64 num = 10000;
 466              		.loc 2 35 5
  35:src/Tests.cpp ****     uint64 num = 10000;
 467              		.loc 2 35 16 is_stmt 0
 468 0150 17050000 		lla	a0,.LC4
 468      13050500 
 469              	.LVL41:
 470 0158 97000000 		call	_Z11printStringPKc@plt
 470      E7800000 
 471              	.LVL42:
  36:src/Tests.cpp ****     for(uint64 j = 0; j < num;j++)
 472              		.loc 2 36 5 is_stmt 1
  37:src/Tests.cpp ****     {
 473              		.loc 2 37 5
 474              	.LBB24:
  37:src/Tests.cpp ****     {
 475              		.loc 2 37 16 is_stmt 0
 476 0160 93040000 		li	s1,0
 477 0164 6F004004 		j	.L29
 478              	.LVL43:
 479              	.L31:
  40:src/Tests.cpp ****         printString("j : ");
 480              		.loc 2 40 13 is_stmt 1
  40:src/Tests.cpp ****         printString("j : ");
GAS LISTING /tmp/cchyCMA1.s 			page 18


 481              		.loc 2 40 28 is_stmt 0
 482 0168 97000000 		call	_Z15thread_dispatchv@plt
 482      E7800000 
 483              	.LVL44:
 484              	.L28:
  41:src/Tests.cpp ****         printInt(j);
 485              		.loc 2 41 9 is_stmt 1 discriminator 2
  41:src/Tests.cpp ****         printInt(j);
 486              		.loc 2 41 20 is_stmt 0 discriminator 2
 487 0170 17050000 		lla	a0,.LC5
 487      13050500 
 488 0178 97000000 		call	_Z11printStringPKc@plt
 488      E7800000 
 489              	.LVL45:
  42:src/Tests.cpp ****         printString("\n");
 490              		.loc 2 42 9 is_stmt 1 discriminator 2
  42:src/Tests.cpp ****         printString("\n");
 491              		.loc 2 42 17 is_stmt 0 discriminator 2
 492 0180 13060000 		li	a2,0
 493 0184 9305A000 		li	a1,10
 494 0188 1B850400 		sext.w	a0,s1
 495 018c 97000000 		call	_Z8printIntiii@plt
 495      E7800000 
 496              	.LVL46:
  43:src/Tests.cpp ****     }
 497              		.loc 2 43 9 is_stmt 1 discriminator 2
  43:src/Tests.cpp ****     }
 498              		.loc 2 43 20 is_stmt 0 discriminator 2
 499 0194 17050000 		lla	a0,.LC1
 499      13050500 
 500 019c 97000000 		call	_Z11printStringPKc@plt
 500      E7800000 
 501              	.LVL47:
  37:src/Tests.cpp ****     {
 502              		.loc 2 37 5 is_stmt 1 discriminator 2
 503 01a4 93841400 		addi	s1,s1,1
 504              	.LVL48:
 505              	.L29:
  37:src/Tests.cpp ****     {
 506              		.loc 2 37 25 discriminator 1
 507 01a8 B7270000 		li	a5,8192
 508 01ac 9387F770 		addi	a5,a5,1807
 509 01b0 63EC9700 		bgtu	s1,a5,.L26
  39:src/Tests.cpp ****             thread_dispatch();
 510              		.loc 2 39 9
  39:src/Tests.cpp ****             thread_dispatch();
 511              		.loc 2 39 14 is_stmt 0
 512 01b4 93072003 		li	a5,50
 513 01b8 B3F7F402 		remu	a5,s1,a5
  39:src/Tests.cpp ****             thread_dispatch();
 514              		.loc 2 39 9
 515 01bc E39A07FA 		bnez	a5,.L28
  39:src/Tests.cpp ****             thread_dispatch();
 516              		.loc 2 39 24 discriminator 1
 517 01c0 E38804FA 		beqz	s1,.L28
 518 01c4 6FF05FFA 		j	.L31
 519              	.L26:
GAS LISTING /tmp/cchyCMA1.s 			page 19


 520              	.LBE24:
  45:src/Tests.cpp **** 
 521              		.loc 2 45 1
 522 01c8 83308101 		ld	ra,24(sp)
 523              		.cfi_restore 1
 524 01cc 03340101 		ld	s0,16(sp)
 525              		.cfi_restore 8
 526              		.cfi_def_cfa 2, 32
 527 01d0 83348100 		ld	s1,8(sp)
 528              		.cfi_restore 9
 529              	.LVL49:
 530 01d4 13010102 		addi	sp,sp,32
 531              		.cfi_def_cfa_offset 0
 532 01d8 67800000 		jr	ra
 533              		.cfi_endproc
 534              	.LFE29:
 536              		.align	2
 537              		.globl	_Z20thread2FunctionTest2Pv
 539              	_Z20thread2FunctionTest2Pv:
 540              	.LFB30:
  48:src/Tests.cpp ****     printString("Thread 2 started...\n");
 541              		.loc 2 48 1 is_stmt 1
 542              		.cfi_startproc
 543              	.LVL50:
 544 01dc 130101FE 		addi	sp,sp,-32
 545              		.cfi_def_cfa_offset 32
 546 01e0 233C1100 		sd	ra,24(sp)
 547 01e4 23388100 		sd	s0,16(sp)
 548 01e8 23349100 		sd	s1,8(sp)
 549              		.cfi_offset 1, -8
 550              		.cfi_offset 8, -16
 551              		.cfi_offset 9, -24
 552 01ec 13040102 		addi	s0,sp,32
 553              		.cfi_def_cfa 8, 0
  49:src/Tests.cpp ****     uint64 num = 10000;
 554              		.loc 2 49 5
  49:src/Tests.cpp ****     uint64 num = 10000;
 555              		.loc 2 49 16 is_stmt 0
 556 01f0 17050000 		lla	a0,.LC4
 556      13050500 
 557              	.LVL51:
 558 01f8 97000000 		call	_Z11printStringPKc@plt
 558      E7800000 
 559              	.LVL52:
  50:src/Tests.cpp ****     for(uint64 j = 0; j < num;j++)
 560              		.loc 2 50 5 is_stmt 1
  51:src/Tests.cpp ****     {
 561              		.loc 2 51 5
 562              	.LBB25:
  51:src/Tests.cpp ****     {
 563              		.loc 2 51 16 is_stmt 0
 564 0200 93040000 		li	s1,0
 565 0204 6F000005 		j	.L36
 566              	.LVL53:
 567              	.L38:
  54:src/Tests.cpp ****         if(j % 50 == 0 && j > 0)
 568              		.loc 2 54 13 is_stmt 1
GAS LISTING /tmp/cchyCMA1.s 			page 20


  54:src/Tests.cpp ****         if(j % 50 == 0 && j > 0)
 569              		.loc 2 54 24 is_stmt 0
 570 0208 97000000 		call	_Z11thread_exitv@plt
 570      E7800000 
 571              	.LVL54:
 572 0210 6F008005 		j	.L34
 573              	.L39:
  56:src/Tests.cpp ****         printString("j : ");
 574              		.loc 2 56 13 is_stmt 1
  56:src/Tests.cpp ****         printString("j : ");
 575              		.loc 2 56 28 is_stmt 0
 576 0214 97000000 		call	_Z15thread_dispatchv@plt
 576      E7800000 
 577              	.LVL55:
 578              	.L35:
  57:src/Tests.cpp ****         printInt(j);
 579              		.loc 2 57 9 is_stmt 1 discriminator 2
  57:src/Tests.cpp ****         printInt(j);
 580              		.loc 2 57 20 is_stmt 0 discriminator 2
 581 021c 17050000 		lla	a0,.LC5
 581      13050500 
 582 0224 97000000 		call	_Z11printStringPKc@plt
 582      E7800000 
 583              	.LVL56:
  58:src/Tests.cpp ****         printString("\n");
 584              		.loc 2 58 9 is_stmt 1 discriminator 2
  58:src/Tests.cpp ****         printString("\n");
 585              		.loc 2 58 17 is_stmt 0 discriminator 2
 586 022c 13060000 		li	a2,0
 587 0230 9305A000 		li	a1,10
 588 0234 1B850400 		sext.w	a0,s1
 589 0238 97000000 		call	_Z8printIntiii@plt
 589      E7800000 
 590              	.LVL57:
  59:src/Tests.cpp ****     }
 591              		.loc 2 59 9 is_stmt 1 discriminator 2
  59:src/Tests.cpp ****     }
 592              		.loc 2 59 20 is_stmt 0 discriminator 2
 593 0240 17050000 		lla	a0,.LC1
 593      13050500 
 594 0248 97000000 		call	_Z11printStringPKc@plt
 594      E7800000 
 595              	.LVL58:
  51:src/Tests.cpp ****     {
 596              		.loc 2 51 5 is_stmt 1 discriminator 2
 597 0250 93841400 		addi	s1,s1,1
 598              	.LVL59:
 599              	.L36:
  51:src/Tests.cpp ****     {
 600              		.loc 2 51 25 discriminator 1
 601 0254 B7270000 		li	a5,8192
 602 0258 9387F770 		addi	a5,a5,1807
 603 025c 63E09702 		bgtu	s1,a5,.L32
  53:src/Tests.cpp ****             thread_exit();
 604              		.loc 2 53 9
 605 0260 9307800C 		li	a5,200
 606 0264 E382F4FA 		beq	s1,a5,.L38
GAS LISTING /tmp/cchyCMA1.s 			page 21


 607              	.L34:
  55:src/Tests.cpp ****             thread_dispatch();
 608              		.loc 2 55 9
  55:src/Tests.cpp ****             thread_dispatch();
 609              		.loc 2 55 14 is_stmt 0
 610 0268 93072003 		li	a5,50
 611 026c B3F7F402 		remu	a5,s1,a5
  55:src/Tests.cpp ****             thread_dispatch();
 612              		.loc 2 55 9
 613 0270 E39607FA 		bnez	a5,.L35
  55:src/Tests.cpp ****             thread_dispatch();
 614              		.loc 2 55 24 discriminator 1
 615 0274 E38404FA 		beqz	s1,.L35
 616 0278 6FF0DFF9 		j	.L39
 617              	.L32:
 618              	.LBE25:
  61:src/Tests.cpp **** 
 619              		.loc 2 61 1
 620 027c 83308101 		ld	ra,24(sp)
 621              		.cfi_restore 1
 622 0280 03340101 		ld	s0,16(sp)
 623              		.cfi_restore 8
 624              		.cfi_def_cfa 2, 32
 625 0284 83348100 		ld	s1,8(sp)
 626              		.cfi_restore 9
 627              	.LVL60:
 628 0288 13010102 		addi	sp,sp,32
 629              		.cfi_def_cfa_offset 0
 630 028c 67800000 		jr	ra
 631              		.cfi_endproc
 632              	.LFE30:
 634              		.align	2
 635              		.globl	_Z11threadTest1v
 637              	_Z11threadTest1v:
 638              	.LFB31:
  64:src/Tests.cpp ****     /*Thread* t1 = new Thread(&thread1Function, 0);
 639              		.loc 2 64 1 is_stmt 1
 640              		.cfi_startproc
 641 0290 130101FF 		addi	sp,sp,-16
 642              		.cfi_def_cfa_offset 16
 643 0294 23348100 		sd	s0,8(sp)
 644              		.cfi_offset 8, -8
 645 0298 13040101 		addi	s0,sp,16
 646              		.cfi_def_cfa 8, 0
  78:src/Tests.cpp **** 
 647              		.loc 2 78 1 is_stmt 0
 648 029c 03348100 		ld	s0,8(sp)
 649              		.cfi_restore 8
 650              		.cfi_def_cfa 2, 16
 651 02a0 13010101 		addi	sp,sp,16
 652              		.cfi_def_cfa_offset 0
 653 02a4 67800000 		jr	ra
 654              		.cfi_endproc
 655              	.LFE31:
 657              		.align	2
 658              		.globl	_Z11threadTest2v
 660              	_Z11threadTest2v:
GAS LISTING /tmp/cchyCMA1.s 			page 22


 661              	.LFB32:
  81:src/Tests.cpp ****     /*Thread* idleThread = new Thread(&idle, 0);
 662              		.loc 2 81 1 is_stmt 1
 663              		.cfi_startproc
 664 02a8 130101FF 		addi	sp,sp,-16
 665              		.cfi_def_cfa_offset 16
 666 02ac 23348100 		sd	s0,8(sp)
 667              		.cfi_offset 8, -8
 668 02b0 13040101 		addi	s0,sp,16
 669              		.cfi_def_cfa 8, 0
  96:src/Tests.cpp **** 
 670              		.loc 2 96 1 is_stmt 0
 671 02b4 03348100 		ld	s0,8(sp)
 672              		.cfi_restore 8
 673              		.cfi_def_cfa 2, 16
 674 02b8 13010101 		addi	sp,sp,16
 675              		.cfi_def_cfa_offset 0
 676 02bc 67800000 		jr	ra
 677              		.cfi_endproc
 678              	.LFE32:
 680              		.section	.rodata.str1.8
 681 004d 000000   		.align	3
 682              	.LC6:
 683 0050 6D616C6C 		.string	"mallocFree\n"
 683      6F634672 
 683      65650A00 
 684 005c 00000000 		.align	3
 685              	.LC7:
 686 0060 6E6F7420 		.string	"not OK\n"
 686      4F4B0A00 
 687              		.align	3
 688              	.LC8:
 689 0068 4F4B0A00 		.string	"OK\n"
 690              		.text
 691              		.align	2
 692              		.globl	_Z10mallocFreev
 694              	_Z10mallocFreev:
 695              	.LFB35:
 119:src/Tests.cpp ****     printString("mallocFree\n");
 696              		.loc 2 119 1 is_stmt 1
 697              		.cfi_startproc
 698 02c0 130101CC 		addi	sp,sp,-832
 699              		.cfi_def_cfa_offset 832
 700 02c4 233C1132 		sd	ra,824(sp)
 701 02c8 23388132 		sd	s0,816(sp)
 702 02cc 23349132 		sd	s1,808(sp)
 703              		.cfi_offset 1, -8
 704              		.cfi_offset 8, -16
 705              		.cfi_offset 9, -24
 706 02d0 13040134 		addi	s0,sp,832
 707              		.cfi_def_cfa 8, 0
 120:src/Tests.cpp ****     constexpr int num = 100;
 708              		.loc 2 120 5
 120:src/Tests.cpp ****     constexpr int num = 100;
 709              		.loc 2 120 16 is_stmt 0
 710 02d4 17050000 		lla	a0,.LC6
 710      13050500 
GAS LISTING /tmp/cchyCMA1.s 			page 23


 711 02dc 97000000 		call	_Z11printStringPKc@plt
 711      E7800000 
 712              	.LVL61:
 713              	.LBB26:
 123:src/Tests.cpp ****     {
 714              		.loc 2 123 13
 715 02e4 93040000 		li	s1,0
 716 02e8 6F008000 		j	.L48
 717              	.LVL62:
 718              	.L46:
 123:src/Tests.cpp ****     {
 719              		.loc 2 123 5 is_stmt 1 discriminator 2
 720 02ec 9B841400 		addiw	s1,s1,1
 721              	.LVL63:
 722              	.L48:
 123:src/Tests.cpp ****     {
 723              		.loc 2 123 22 discriminator 1
 724 02f0 93073006 		li	a5,99
 725 02f4 63C49704 		bgt	s1,a5,.L56
 125:src/Tests.cpp ****         if(addrs[i] == 0)
 726              		.loc 2 125 9
 125:src/Tests.cpp ****         if(addrs[i] == 0)
 727              		.loc 2 125 29 is_stmt 0
 728 02f8 13054006 		li	a0,100
 729 02fc 97000000 		call	_Z9mem_allocm@plt
 729      E7800000 
 730              	.LVL64:
 125:src/Tests.cpp ****         if(addrs[i] == 0)
 731              		.loc 2 125 18
 732 0304 93973400 		slli	a5,s1,3
 733 0308 130704FE 		addi	a4,s0,-32
 734 030c B307F700 		add	a5,a4,a5
 735 0310 23B0A7CE 		sd	a0,-800(a5)
 126:src/Tests.cpp ****         {
 736              		.loc 2 126 9 is_stmt 1
 737 0314 E31C05FC 		bnez	a0,.L46
 128:src/Tests.cpp ****             return;
 738              		.loc 2 128 13
 128:src/Tests.cpp ****             return;
 739              		.loc 2 128 24 is_stmt 0
 740 0318 17050000 		lla	a0,.LC7
 740      13050500 
 741 0320 97000000 		call	_Z11printStringPKc@plt
 741      E7800000 
 742              	.LVL65:
 129:src/Tests.cpp ****         }
 743              		.loc 2 129 13 is_stmt 1
 744              	.L44:
 745              	.LBE26:
 165:src/Tests.cpp **** void bigMalloc()
 746              		.loc 2 165 1 is_stmt 0
 747 0328 83308133 		ld	ra,824(sp)
 748              		.cfi_remember_state
 749              		.cfi_restore 1
 750 032c 03340133 		ld	s0,816(sp)
 751              		.cfi_restore 8
 752              		.cfi_def_cfa 2, 832
GAS LISTING /tmp/cchyCMA1.s 			page 24


 753 0330 83348132 		ld	s1,808(sp)
 754              		.cfi_restore 9
 755 0334 13010134 		addi	sp,sp,832
 756              		.cfi_def_cfa_offset 0
 757 0338 67800000 		jr	ra
 758              	.LVL66:
 759              	.L56:
 760              		.cfi_restore_state
 761              	.LBB27:
 134:src/Tests.cpp ****     {
 762              		.loc 2 134 13
 763 033c 93040000 		li	s1,0
 764              	.LVL67:
 765              	.L45:
 134:src/Tests.cpp ****     {
 766              		.loc 2 134 23 is_stmt 1 discriminator 1
 767 0340 93073006 		li	a5,99
 768 0344 63CE9702 		bgt	s1,a5,.L57
 769              	.LBB28:
 136:src/Tests.cpp ****         if(retval != 0)
 770              		.loc 2 136 9
 136:src/Tests.cpp ****         if(retval != 0)
 771              		.loc 2 136 30 is_stmt 0
 772 0348 93973400 		slli	a5,s1,3
 773 034c 130704FE 		addi	a4,s0,-32
 774 0350 B307F700 		add	a5,a4,a5
 775 0354 03B507CE 		ld	a0,-800(a5)
 776 0358 97000000 		call	_Z8mem_freePv@plt
 776      E7800000 
 777              	.LVL68:
 137:src/Tests.cpp ****         {
 778              		.loc 2 137 9 is_stmt 1
 779 0360 63160500 		bnez	a0,.L60
 780              	.LBE28:
 134:src/Tests.cpp ****     {
 781              		.loc 2 134 5 discriminator 2
 134:src/Tests.cpp ****     {
 782              		.loc 2 134 30 is_stmt 0 discriminator 2
 783 0364 9B842400 		addiw	s1,s1,2
 784              	.LVL69:
 134:src/Tests.cpp ****     {
 785              		.loc 2 134 5 discriminator 2
 786 0368 6FF09FFD 		j	.L45
 787              	.LVL70:
 788              	.L60:
 789              	.LBB29:
 139:src/Tests.cpp ****             return;
 790              		.loc 2 139 13 is_stmt 1
 139:src/Tests.cpp ****             return;
 791              		.loc 2 139 24 is_stmt 0
 792 036c 17050000 		lla	a0,.LC7
 792      13050500 
 793              	.LVL71:
 794 0374 97000000 		call	_Z11printStringPKc@plt
 794      E7800000 
 795              	.LVL72:
 140:src/Tests.cpp ****         }
GAS LISTING /tmp/cchyCMA1.s 			page 25


 796              		.loc 2 140 13 is_stmt 1
 797 037c 6FF0DFFA 		j	.L44
 798              	.L57:
 799              	.LBE29:
 800              	.LBE27:
 801              	.LBB30:
 144:src/Tests.cpp ****     {
 802              		.loc 2 144 13 is_stmt 0
 803 0380 93040000 		li	s1,0
 804              	.LVL73:
 805 0384 6F008000 		j	.L49
 806              	.LVL74:
 807              	.L52:
 144:src/Tests.cpp ****     {
 808              		.loc 2 144 5 is_stmt 1 discriminator 2
 144:src/Tests.cpp ****     {
 809              		.loc 2 144 30 is_stmt 0 discriminator 2
 810 0388 9B842400 		addiw	s1,s1,2
 811              	.LVL75:
 812              	.L49:
 144:src/Tests.cpp ****     {
 813              		.loc 2 144 23 is_stmt 1 discriminator 1
 814 038c 93073006 		li	a5,99
 815 0390 63CC9702 		bgt	s1,a5,.L58
 146:src/Tests.cpp ****         if(addrs[i] == 0)
 816              		.loc 2 146 9
 146:src/Tests.cpp ****         if(addrs[i] == 0)
 817              		.loc 2 146 29 is_stmt 0
 818 0394 13054001 		li	a0,20
 819 0398 97000000 		call	_Z9mem_allocm@plt
 819      E7800000 
 820              	.LVL76:
 146:src/Tests.cpp ****         if(addrs[i] == 0)
 821              		.loc 2 146 18
 822 03a0 93973400 		slli	a5,s1,3
 823 03a4 130704FE 		addi	a4,s0,-32
 824 03a8 B307F700 		add	a5,a4,a5
 825 03ac 23B0A7CE 		sd	a0,-800(a5)
 147:src/Tests.cpp ****         {
 826              		.loc 2 147 9 is_stmt 1
 827 03b0 E31C05FC 		bnez	a0,.L52
 149:src/Tests.cpp ****             return;
 828              		.loc 2 149 13
 149:src/Tests.cpp ****             return;
 829              		.loc 2 149 24 is_stmt 0
 830 03b4 17050000 		lla	a0,.LC7
 830      13050500 
 831 03bc 97000000 		call	_Z11printStringPKc@plt
 831      E7800000 
 832              	.LVL77:
 150:src/Tests.cpp ****         }
 833              		.loc 2 150 13 is_stmt 1
 834 03c4 6FF05FF6 		j	.L44
 835              	.L58:
 836              	.LBE30:
 837              	.LBB31:
 154:src/Tests.cpp ****     {
GAS LISTING /tmp/cchyCMA1.s 			page 26


 838              		.loc 2 154 13 is_stmt 0
 839 03c8 93040000 		li	s1,0
 840              	.LVL78:
 841              	.L51:
 154:src/Tests.cpp ****     {
 842              		.loc 2 154 22 is_stmt 1 discriminator 1
 843 03cc 93073006 		li	a5,99
 844 03d0 63CE9702 		bgt	s1,a5,.L53
 845              	.LBB32:
 156:src/Tests.cpp ****         if(retval != 0)
 846              		.loc 2 156 9
 156:src/Tests.cpp ****         if(retval != 0)
 847              		.loc 2 156 30 is_stmt 0
 848 03d4 93973400 		slli	a5,s1,3
 849 03d8 130704FE 		addi	a4,s0,-32
 850 03dc B307F700 		add	a5,a4,a5
 851 03e0 03B507CE 		ld	a0,-800(a5)
 852 03e4 97000000 		call	_Z8mem_freePv@plt
 852      E7800000 
 853              	.LVL79:
 157:src/Tests.cpp ****         {
 854              		.loc 2 157 9 is_stmt 1
 855 03ec 63160500 		bnez	a0,.L61
 856              	.LBE32:
 154:src/Tests.cpp ****     {
 857              		.loc 2 154 5 discriminator 2
 858 03f0 9B841400 		addiw	s1,s1,1
 859              	.LVL80:
 860 03f4 6FF09FFD 		j	.L51
 861              	.LVL81:
 862              	.L61:
 863              	.LBB33:
 159:src/Tests.cpp ****             return;
 864              		.loc 2 159 13
 159:src/Tests.cpp ****             return;
 865              		.loc 2 159 24 is_stmt 0
 866 03f8 17050000 		lla	a0,.LC7
 866      13050500 
 867              	.LVL82:
 868 0400 97000000 		call	_Z11printStringPKc@plt
 868      E7800000 
 869              	.LVL83:
 160:src/Tests.cpp ****         }
 870              		.loc 2 160 13 is_stmt 1
 871 0408 6FF01FF2 		j	.L44
 872              	.L53:
 873              	.LBE33:
 874              	.LBE31:
 164:src/Tests.cpp **** }
 875              		.loc 2 164 5
 164:src/Tests.cpp **** }
 876              		.loc 2 164 16 is_stmt 0
 877 040c 17050000 		lla	a0,.LC8
 877      13050500 
 878 0414 97000000 		call	_Z11printStringPKc@plt
 878      E7800000 
 879              	.LVL84:
GAS LISTING /tmp/cchyCMA1.s 			page 27


 880 041c 6FF0DFF0 		j	.L44
 881              		.cfi_endproc
 882              	.LFE35:
 884              		.section	.rodata.str1.8
 885 006c 00000000 		.align	3
 886              	.LC9:
 887 0070 6269674D 		.string	"bigMalloc\n"
 887      616C6C6F 
 887      630A00
 888              		.text
 889              		.align	2
 890              		.globl	_Z9bigMallocv
 892              	_Z9bigMallocv:
 893              	.LFB36:
 167:src/Tests.cpp ****     printString("bigMalloc\n");
 894              		.loc 2 167 1 is_stmt 1
 895              		.cfi_startproc
 896 0420 130101FF 		addi	sp,sp,-16
 897              		.cfi_def_cfa_offset 16
 898 0424 23341100 		sd	ra,8(sp)
 899 0428 23308100 		sd	s0,0(sp)
 900              		.cfi_offset 1, -8
 901              		.cfi_offset 8, -16
 902 042c 13040101 		addi	s0,sp,16
 903              		.cfi_def_cfa 8, 0
 168:src/Tests.cpp ****     uint64 x = (uint64)HEAP_END_ADDR - (uint64)HEAP_START_ADDR + 100UL;
 904              		.loc 2 168 5
 168:src/Tests.cpp ****     uint64 x = (uint64)HEAP_END_ADDR - (uint64)HEAP_START_ADDR + 100UL;
 905              		.loc 2 168 16 is_stmt 0
 906 0430 17050000 		lla	a0,.LC9
 906      13050500 
 907 0438 97000000 		call	_Z11printStringPKc@plt
 907      E7800000 
 908              	.LVL85:
 169:src/Tests.cpp ****     void* p = mem_alloc(x);
 909              		.loc 2 169 5 is_stmt 1
 169:src/Tests.cpp ****     void* p = mem_alloc(x);
 910              		.loc 2 169 38 is_stmt 0
 911 0440 97070000 		la	a5,HEAP_END_ADDR
 911      83B70700 
 912 0448 03B50700 		ld	a0,0(a5)
 913 044c 97070000 		la	a5,HEAP_START_ADDR
 913      83B70700 
 914 0454 83B70700 		ld	a5,0(a5)
 915 0458 3305F540 		sub	a0,a0,a5
 916              	.LVL86:
 170:src/Tests.cpp ****     if(p == 0)
 917              		.loc 2 170 5 is_stmt 1
 170:src/Tests.cpp ****     if(p == 0)
 918              		.loc 2 170 24 is_stmt 0
 919 045c 13054506 		addi	a0,a0,100
 920              	.LVL87:
 921 0460 97000000 		call	_Z9mem_allocm@plt
 921      E7800000 
 922              	.LVL88:
 171:src/Tests.cpp ****         printString("OK\n");
 923              		.loc 2 171 5 is_stmt 1
GAS LISTING /tmp/cchyCMA1.s 			page 28


 924 0468 63020502 		beqz	a0,.L66
 174:src/Tests.cpp **** }
 925              		.loc 2 174 9
 174:src/Tests.cpp **** }
 926              		.loc 2 174 20 is_stmt 0
 927 046c 17050000 		lla	a0,.LC7
 927      13050500 
 928              	.LVL89:
 929 0474 97000000 		call	_Z11printStringPKc@plt
 929      E7800000 
 930              	.LVL90:
 931              	.L62:
 175:src/Tests.cpp **** 
 932              		.loc 2 175 1
 933 047c 83308100 		ld	ra,8(sp)
 934              		.cfi_remember_state
 935              		.cfi_restore 1
 936 0480 03340100 		ld	s0,0(sp)
 937              		.cfi_restore 8
 938              		.cfi_def_cfa 2, 16
 939 0484 13010101 		addi	sp,sp,16
 940              		.cfi_def_cfa_offset 0
 941 0488 67800000 		jr	ra
 942              	.LVL91:
 943              	.L66:
 944              		.cfi_restore_state
 172:src/Tests.cpp ****     else
 945              		.loc 2 172 9 is_stmt 1
 172:src/Tests.cpp ****     else
 946              		.loc 2 172 20 is_stmt 0
 947 048c 17050000 		lla	a0,.LC8
 947      13050500 
 948              	.LVL92:
 949 0494 97000000 		call	_Z11printStringPKc@plt
 949      E7800000 
 950              	.LVL93:
 951 049c 6FF01FFE 		j	.L62
 952              		.cfi_endproc
 953              	.LFE36:
 955              		.section	.rodata.str1.8
 956 007b 00000000 		.align	3
 956      00
 957              	.LC10:
 958 0080 616C6C6F 		.string	"alloc\n"
 958      630A00
 959 0087 00       		.align	3
 960              	.LC11:
 961 0088 66726565 		.string	"free\n"
 961      0A00
 962              		.text
 963              		.align	2
 964              		.globl	_Z17lotOfSmallMallocsv
 966              	_Z17lotOfSmallMallocsv:
 967              	.LFB37:
 178:src/Tests.cpp ****     for(int i=0;;i++){
 968              		.loc 2 178 1 is_stmt 1
 969              		.cfi_startproc
GAS LISTING /tmp/cchyCMA1.s 			page 29


 970 04a0 130101FE 		addi	sp,sp,-32
 971              		.cfi_def_cfa_offset 32
 972 04a4 233C1100 		sd	ra,24(sp)
 973 04a8 23388100 		sd	s0,16(sp)
 974 04ac 23349100 		sd	s1,8(sp)
 975 04b0 23302101 		sd	s2,0(sp)
 976              		.cfi_offset 1, -8
 977              		.cfi_offset 8, -16
 978              		.cfi_offset 9, -24
 979              		.cfi_offset 18, -32
 980 04b4 13040102 		addi	s0,sp,32
 981              		.cfi_def_cfa 8, 0
 179:src/Tests.cpp ****         void *x = mem_alloc(1);
 982              		.loc 2 179 5
 983              	.LVL94:
 984              	.LBB34:
 179:src/Tests.cpp ****         void *x = mem_alloc(1);
 985              		.loc 2 179 13 is_stmt 0
 986 04b8 13090000 		li	s2,0
 987 04bc 6F00C009 		j	.L72
 988              	.LVL95:
 989              	.L74:
 990              	.LBB35:
 183:src/Tests.cpp ****             printInt(i);
 991              		.loc 2 183 13 is_stmt 1
 183:src/Tests.cpp ****             printInt(i);
 992              		.loc 2 183 24 is_stmt 0
 993 04c0 17050000 		lla	a0,.LC10
 993      13050500 
 994 04c8 97000000 		call	_Z11printStringPKc@plt
 994      E7800000 
 995              	.LVL96:
 184:src/Tests.cpp ****             break;
 996              		.loc 2 184 13 is_stmt 1
 184:src/Tests.cpp ****             break;
 997              		.loc 2 184 21 is_stmt 0
 998 04d0 13060000 		li	a2,0
 999 04d4 9305A000 		li	a1,10
 1000 04d8 13050900 		mv	a0,s2
 1001 04dc 97000000 		call	_Z8printIntiii@plt
 1001      E7800000 
 1002              	.LVL97:
 185:src/Tests.cpp ****         }
 1003              		.loc 2 185 13 is_stmt 1
 1004              	.L69:
 1005              	.LBE35:
 1006              	.LBE34:
 209:src/Tests.cpp **** }
 1007              		.loc 2 209 5
 209:src/Tests.cpp **** }
 1008              		.loc 2 209 16 is_stmt 0
 1009 04e4 17050000 		lla	a0,.LC8
 1009      13050500 
 1010 04ec 97000000 		call	_Z11printStringPKc@plt
 1010      E7800000 
 1011              	.LVL98:
 210:src/Tests.cpp **** void badFree()
GAS LISTING /tmp/cchyCMA1.s 			page 30


 1012              		.loc 2 210 1
 1013 04f4 83308101 		ld	ra,24(sp)
 1014              		.cfi_remember_state
 1015              		.cfi_restore 1
 1016 04f8 03340101 		ld	s0,16(sp)
 1017              		.cfi_restore 8
 1018              		.cfi_def_cfa 2, 32
 1019 04fc 83348100 		ld	s1,8(sp)
 1020              		.cfi_restore 9
 1021              	.LVL99:
 1022 0500 03390100 		ld	s2,0(sp)
 1023              		.cfi_restore 18
 1024              	.LVL100:
 1025 0504 13010102 		addi	sp,sp,32
 1026              		.cfi_def_cfa_offset 0
 1027 0508 67800000 		jr	ra
 1028              	.LVL101:
 1029              	.L75:
 1030              		.cfi_restore_state
 1031              	.LBB38:
 1032              	.LBB36:
 189:src/Tests.cpp ****             printInt(i);
 1033              		.loc 2 189 13 is_stmt 1
 189:src/Tests.cpp ****             printInt(i);
 1034              		.loc 2 189 24 is_stmt 0
 1035 050c 17050000 		lla	a0,.LC11
 1035      13050500 
 1036              	.LVL102:
 1037 0514 97000000 		call	_Z11printStringPKc@plt
 1037      E7800000 
 1038              	.LVL103:
 190:src/Tests.cpp ****             break;
 1039              		.loc 2 190 13 is_stmt 1
 190:src/Tests.cpp ****             break;
 1040              		.loc 2 190 21 is_stmt 0
 1041 051c 13060000 		li	a2,0
 1042 0520 9305A000 		li	a1,10
 1043 0524 13050900 		mv	a0,s2
 1044 0528 97000000 		call	_Z8printIntiii@plt
 1044      E7800000 
 1045              	.LVL104:
 191:src/Tests.cpp ****         }
 1046              		.loc 2 191 13 is_stmt 1
 1047 0530 6FF05FFB 		j	.L69
 1048              	.LVL105:
 1049              	.L76:
 194:src/Tests.cpp ****             putc('\n');
 1050              		.loc 2 194 13
 194:src/Tests.cpp ****             putc('\n');
 1051              		.loc 2 194 21 is_stmt 0
 1052 0534 13060000 		li	a2,0
 1053 0538 9305A000 		li	a1,10
 1054 053c 13050900 		mv	a0,s2
 1055              	.LVL106:
 1056 0540 97000000 		call	_Z8printIntiii@plt
 1056      E7800000 
 1057              	.LVL107:
GAS LISTING /tmp/cchyCMA1.s 			page 31


 195:src/Tests.cpp ****         }
 1058              		.loc 2 195 13 is_stmt 1
 195:src/Tests.cpp ****         }
 1059              		.loc 2 195 17 is_stmt 0
 1060 0548 1305A000 		li	a0,10
 1061 054c 97000000 		call	_Z4putcc@plt
 1061      E7800000 
 1062              	.LVL108:
 1063              	.L71:
 197:src/Tests.cpp ****     }
 1064              		.loc 2 197 9 is_stmt 1
 1065              	.LBE36:
 179:src/Tests.cpp ****         void *x = mem_alloc(1);
 1066              		.loc 2 179 5
 1067 0554 1B091900 		addiw	s2,s2,1
 1068              	.LVL109:
 179:src/Tests.cpp ****         void *x = mem_alloc(1);
 1069              		.loc 2 179 5
 1070              	.L72:
 1071              	.LBB37:
 180:src/Tests.cpp ****         void *y = mem_alloc(1);
 1072              		.loc 2 180 9
 180:src/Tests.cpp ****         void *y = mem_alloc(1);
 1073              		.loc 2 180 28 is_stmt 0
 1074 0558 13051000 		li	a0,1
 1075 055c 97000000 		call	_Z9mem_allocm@plt
 1075      E7800000 
 1076              	.LVL110:
 1077 0564 93040500 		mv	s1,a0
 1078              	.LVL111:
 181:src/Tests.cpp ****         if(x == nullptr){
 1079              		.loc 2 181 9 is_stmt 1
 181:src/Tests.cpp ****         if(x == nullptr){
 1080              		.loc 2 181 28 is_stmt 0
 1081 0568 13051000 		li	a0,1
 1082 056c 97000000 		call	_Z9mem_allocm@plt
 1082      E7800000 
 1083              	.LVL112:
 182:src/Tests.cpp ****             printString("alloc\n");
 1084              		.loc 2 182 9 is_stmt 1
 1085 0574 E38604F4 		beqz	s1,.L74
 187:src/Tests.cpp ****         if(status == -1){
 1086              		.loc 2 187 9
 187:src/Tests.cpp ****         if(status == -1){
 1087              		.loc 2 187 30 is_stmt 0
 1088 0578 13850400 		mv	a0,s1
 1089 057c 97000000 		call	_Z8mem_freePv@plt
 1089      E7800000 
 1090              	.LVL113:
 188:src/Tests.cpp ****             printString("free\n");
 1091              		.loc 2 188 9 is_stmt 1
 1092 0584 9307F0FF 		li	a5,-1
 1093 0588 E302F5F8 		beq	a0,a5,.L75
 193:src/Tests.cpp ****             printInt(i);
 1094              		.loc 2 193 9
 193:src/Tests.cpp ****             printInt(i);
 1095              		.loc 2 193 13 is_stmt 0
GAS LISTING /tmp/cchyCMA1.s 			page 32


 1096 058c B7270000 		li	a5,8192
 1097 0590 9B870771 		addiw	a5,a5,1808
 1098 0594 BB67F902 		remw	a5,s2,a5
 193:src/Tests.cpp ****             printInt(i);
 1099              		.loc 2 193 9
 1100 0598 E39E07FA 		bnez	a5,.L71
 1101 059c 6FF09FF9 		j	.L76
 1102              	.LBE37:
 1103              	.LBE38:
 1104              		.cfi_endproc
 1105              	.LFE37:
 1107              		.section	.rodata.str1.8
 1108 008e 0000     		.align	3
 1109              	.LC12:
 1110 0090 62616446 		.string	"badFree\n"
 1110      7265650A 
 1110      00
 1111              		.text
 1112              		.align	2
 1113              		.globl	_Z7badFreev
 1115              	_Z7badFreev:
 1116              	.LFB38:
 212:src/Tests.cpp ****     printString("badFree\n");
 1117              		.loc 2 212 1 is_stmt 1
 1118              		.cfi_startproc
 1119 05a0 130101FF 		addi	sp,sp,-16
 1120              		.cfi_def_cfa_offset 16
 1121 05a4 23341100 		sd	ra,8(sp)
 1122 05a8 23308100 		sd	s0,0(sp)
 1123              		.cfi_offset 1, -8
 1124              		.cfi_offset 8, -16
 1125 05ac 13040101 		addi	s0,sp,16
 1126              		.cfi_def_cfa 8, 0
 213:src/Tests.cpp ****     Test* t = (Test*)mem_alloc(sizeof(Test));
 1127              		.loc 2 213 5
 213:src/Tests.cpp ****     Test* t = (Test*)mem_alloc(sizeof(Test));
 1128              		.loc 2 213 16 is_stmt 0
 1129 05b0 17050000 		lla	a0,.LC12
 1129      13050500 
 1130 05b8 97000000 		call	_Z11printStringPKc@plt
 1130      E7800000 
 1131              	.LVL114:
 214:src/Tests.cpp ****     uint64 retval = mem_free((char*)t + 2);
 1132              		.loc 2 214 5 is_stmt 1
 214:src/Tests.cpp ****     uint64 retval = mem_free((char*)t + 2);
 1133              		.loc 2 214 31 is_stmt 0
 1134 05c0 13058000 		li	a0,8
 1135 05c4 97000000 		call	_Z9mem_allocm@plt
 1135      E7800000 
 1136              	.LVL115:
 215:src/Tests.cpp ****     if(retval == 0)
 1137              		.loc 2 215 5 is_stmt 1
 215:src/Tests.cpp ****     if(retval == 0)
 1138              		.loc 2 215 29 is_stmt 0
 1139 05cc 13052500 		addi	a0,a0,2
 1140              	.LVL116:
 1141 05d0 97000000 		call	_Z8mem_freePv@plt
GAS LISTING /tmp/cchyCMA1.s 			page 33


 1141      E7800000 
 1142              	.LVL117:
 216:src/Tests.cpp ****         printString("not OK\n");
 1143              		.loc 2 216 5 is_stmt 1
 1144 05d8 63120502 		bnez	a0,.L78
 217:src/Tests.cpp ****     else
 1145              		.loc 2 217 9
 217:src/Tests.cpp ****     else
 1146              		.loc 2 217 20 is_stmt 0
 1147 05dc 17050000 		lla	a0,.LC7
 1147      13050500 
 1148              	.LVL118:
 1149 05e4 97000000 		call	_Z11printStringPKc@plt
 1149      E7800000 
 1150              	.LVL119:
 1151              	.L77:
 220:src/Tests.cpp **** 
 1152              		.loc 2 220 1
 1153 05ec 83308100 		ld	ra,8(sp)
 1154              		.cfi_remember_state
 1155              		.cfi_restore 1
 1156 05f0 03340100 		ld	s0,0(sp)
 1157              		.cfi_restore 8
 1158              		.cfi_def_cfa 2, 16
 1159 05f4 13010101 		addi	sp,sp,16
 1160              		.cfi_def_cfa_offset 0
 1161 05f8 67800000 		jr	ra
 1162              	.LVL120:
 1163              	.L78:
 1164              		.cfi_restore_state
 219:src/Tests.cpp **** }
 1165              		.loc 2 219 10 is_stmt 1
 219:src/Tests.cpp **** }
 1166              		.loc 2 219 21 is_stmt 0
 1167 05fc 17050000 		lla	a0,.LC8
 1167      13050500 
 1168              	.LVL121:
 1169 0604 97000000 		call	_Z11printStringPKc@plt
 1169      E7800000 
 1170              	.LVL122:
 220:src/Tests.cpp **** 
 1171              		.loc 2 220 1
 1172 060c 6FF01FFE 		j	.L77
 1173              		.cfi_endproc
 1174              	.LFE38:
 1176              		.section	.rodata.str1.8
 1177 0099 00000000 		.align	3
 1177      000000
 1178              	.LC13:
 1179 00a0 73747265 		.string	"stressTesting\n"
 1179      73735465 
 1179      7374696E 
 1179      670A00
 1180 00af 00       		.align	3
 1181              	.LC14:
 1182 00b0 6E6F7420 		.string	"not Ok\n"
 1182      4F6B0A00 
GAS LISTING /tmp/cchyCMA1.s 			page 34


 1183              		.text
 1184              		.align	2
 1185              		.globl	_Z13stressTestingv
 1187              	_Z13stressTestingv:
 1188              	.LFB39:
 223:src/Tests.cpp ****     printString("stressTesting\n");
 1189              		.loc 2 223 1 is_stmt 1
 1190              		.cfi_startproc
 1191 0610 130101CC 		addi	sp,sp,-832
 1192              		.cfi_def_cfa_offset 832
 1193 0614 233C1132 		sd	ra,824(sp)
 1194 0618 23388132 		sd	s0,816(sp)
 1195 061c 23349132 		sd	s1,808(sp)
 1196 0620 23302133 		sd	s2,800(sp)
 1197              		.cfi_offset 1, -8
 1198              		.cfi_offset 8, -16
 1199              		.cfi_offset 9, -24
 1200              		.cfi_offset 18, -32
 1201 0624 13040134 		addi	s0,sp,832
 1202              		.cfi_def_cfa 8, 0
 224:src/Tests.cpp ****     constexpr int num = 100;
 1203              		.loc 2 224 5
 224:src/Tests.cpp ****     constexpr int num = 100;
 1204              		.loc 2 224 16 is_stmt 0
 1205 0628 17050000 		lla	a0,.LC13
 1205      13050500 
 1206 0630 97000000 		call	_Z11printStringPKc@plt
 1206      E7800000 
 1207              	.LVL123:
 1208              	.LBB39:
 227:src/Tests.cpp ****     {
 1209              		.loc 2 227 13
 1210 0638 93040000 		li	s1,0
 1211 063c 6F008000 		j	.L85
 1212              	.LVL124:
 1213              	.L83:
 227:src/Tests.cpp ****     {
 1214              		.loc 2 227 5 is_stmt 1 discriminator 2
 1215 0640 9B841400 		addiw	s1,s1,1
 1216              	.LVL125:
 1217              	.L85:
 227:src/Tests.cpp ****     {
 1218              		.loc 2 227 22 discriminator 1
 1219 0644 93073006 		li	a5,99
 1220 0648 63C69704 		bgt	s1,a5,.L95
 229:src/Tests.cpp ****         if(addrs[i] == 0)
 1221              		.loc 2 229 9
 229:src/Tests.cpp ****         if(addrs[i] == 0)
 1222              		.loc 2 229 29 is_stmt 0
 1223 064c 13051000 		li	a0,1
 1224 0650 97000000 		call	_Z9mem_allocm@plt
 1224      E7800000 
 1225              	.LVL126:
 229:src/Tests.cpp ****         if(addrs[i] == 0)
 1226              		.loc 2 229 18
 1227 0658 93973400 		slli	a5,s1,3
 1228 065c 130704FE 		addi	a4,s0,-32
GAS LISTING /tmp/cchyCMA1.s 			page 35


 1229 0660 B307F700 		add	a5,a4,a5
 1230 0664 23B0A7CE 		sd	a0,-800(a5)
 230:src/Tests.cpp ****         {
 1231              		.loc 2 230 9 is_stmt 1
 1232 0668 E31C05FC 		bnez	a0,.L83
 232:src/Tests.cpp ****             return;
 1233              		.loc 2 232 13
 232:src/Tests.cpp ****             return;
 1234              		.loc 2 232 24 is_stmt 0
 1235 066c 17050000 		lla	a0,.LC7
 1235      13050500 
 1236 0674 97000000 		call	_Z11printStringPKc@plt
 1236      E7800000 
 1237              	.LVL127:
 233:src/Tests.cpp ****         }
 1238              		.loc 2 233 13 is_stmt 1
 1239              	.L81:
 1240              	.LBE39:
 277:src/Tests.cpp **** 
 1241              		.loc 2 277 1 is_stmt 0
 1242 067c 83308133 		ld	ra,824(sp)
 1243              		.cfi_remember_state
 1244              		.cfi_restore 1
 1245 0680 03340133 		ld	s0,816(sp)
 1246              		.cfi_restore 8
 1247              		.cfi_def_cfa 2, 832
 1248 0684 83348132 		ld	s1,808(sp)
 1249              		.cfi_restore 9
 1250 0688 03390132 		ld	s2,800(sp)
 1251              		.cfi_restore 18
 1252 068c 13010134 		addi	sp,sp,832
 1253              		.cfi_def_cfa_offset 0
 1254 0690 67800000 		jr	ra
 1255              	.LVL128:
 1256              	.L95:
 1257              		.cfi_restore_state
 237:src/Tests.cpp ****     while(sz > 0)
 1258              		.loc 2 237 9
 1259 0694 1309C012 		li	s2,300
 1260              	.LVL129:
 1261              	.L82:
 238:src/Tests.cpp ****     {
 1262              		.loc 2 238 5 is_stmt 1
 238:src/Tests.cpp ****     {
 1263              		.loc 2 238 14
 1264 0698 63522011 		blez	s2,.L86
 1265              	.LBB40:
 1266              	.LBB41:
 240:src/Tests.cpp ****         {
 1267              		.loc 2 240 17 is_stmt 0
 1268 069c 93040000 		li	s1,0
 1269              	.L90:
 1270              	.LVL130:
 240:src/Tests.cpp ****         {
 1271              		.loc 2 240 27 is_stmt 1 discriminator 1
 1272 06a0 93073006 		li	a5,99
 1273 06a4 63CC9706 		bgt	s1,a5,.L96
GAS LISTING /tmp/cchyCMA1.s 			page 36


 1274              	.LBB42:
 242:src/Tests.cpp ****             if(retval != 0)
 1275              		.loc 2 242 13
 242:src/Tests.cpp ****             if(retval != 0)
 1276              		.loc 2 242 34 is_stmt 0
 1277 06a8 93973400 		slli	a5,s1,3
 1278 06ac 130704FE 		addi	a4,s0,-32
 1279 06b0 B307F700 		add	a5,a4,a5
 1280 06b4 03B507CE 		ld	a0,-800(a5)
 1281 06b8 97000000 		call	_Z8mem_freePv@plt
 1281      E7800000 
 1282              	.LVL131:
 243:src/Tests.cpp ****             {
 1283              		.loc 2 243 13 is_stmt 1
 1284 06c0 631A0502 		bnez	a0,.L98
 248:src/Tests.cpp ****             if(addrs[i] == 0)
 1285              		.loc 2 248 13
 248:src/Tests.cpp ****             if(addrs[i] == 0)
 1286              		.loc 2 248 36 is_stmt 0
 1287 06c4 1B55F901 		srliw	a0,s2,31
 1288              	.LVL132:
 1289 06c8 3B052501 		addw	a0,a0,s2
 248:src/Tests.cpp ****             if(addrs[i] == 0)
 1290              		.loc 2 248 33
 1291 06cc 1B551540 		sraiw	a0,a0,1
 1292 06d0 97000000 		call	_Z9mem_allocm@plt
 1292      E7800000 
 1293              	.LVL133:
 248:src/Tests.cpp ****             if(addrs[i] == 0)
 1294              		.loc 2 248 22
 1295 06d8 93973400 		slli	a5,s1,3
 1296 06dc 130704FE 		addi	a4,s0,-32
 1297 06e0 B307F700 		add	a5,a4,a5
 1298 06e4 23B0A7CE 		sd	a0,-800(a5)
 249:src/Tests.cpp ****             {
 1299              		.loc 2 249 13 is_stmt 1
 1300 06e8 63000502 		beqz	a0,.L99
 1301              	.LBE42:
 240:src/Tests.cpp ****         {
 1302              		.loc 2 240 9 discriminator 2
 240:src/Tests.cpp ****         {
 1303              		.loc 2 240 34 is_stmt 0 discriminator 2
 1304 06ec 9B842400 		addiw	s1,s1,2
 1305              	.LVL134:
 240:src/Tests.cpp ****         {
 1306              		.loc 2 240 9 discriminator 2
 1307 06f0 6FF01FFB 		j	.L90
 1308              	.LVL135:
 1309              	.L98:
 1310              	.LBB43:
 245:src/Tests.cpp ****                 return;
 1311              		.loc 2 245 17 is_stmt 1
 245:src/Tests.cpp ****                 return;
 1312              		.loc 2 245 28 is_stmt 0
 1313 06f4 17050000 		lla	a0,.LC7
 1313      13050500 
 1314              	.LVL136:
GAS LISTING /tmp/cchyCMA1.s 			page 37


 1315 06fc 97000000 		call	_Z11printStringPKc@plt
 1315      E7800000 
 1316              	.LVL137:
 246:src/Tests.cpp ****             }
 1317              		.loc 2 246 17 is_stmt 1
 1318 0704 6FF09FF7 		j	.L81
 1319              	.L99:
 251:src/Tests.cpp ****                 return;
 1320              		.loc 2 251 17
 251:src/Tests.cpp ****                 return;
 1321              		.loc 2 251 28 is_stmt 0
 1322 0708 17050000 		lla	a0,.LC14
 1322      13050500 
 1323 0710 97000000 		call	_Z11printStringPKc@plt
 1323      E7800000 
 1324              	.LVL138:
 252:src/Tests.cpp ****             }
 1325              		.loc 2 252 17 is_stmt 1
 1326 0718 6FF05FF6 		j	.L81
 1327              	.L96:
 1328              	.LBE43:
 1329              	.LBE41:
 1330              	.LBB44:
 257:src/Tests.cpp ****         {
 1331              		.loc 2 257 17 is_stmt 0
 1332 071c 93041000 		li	s1,1
 1333              	.LVL139:
 1334              	.L87:
 257:src/Tests.cpp ****         {
 1335              		.loc 2 257 27 is_stmt 1 discriminator 1
 1336 0720 93073006 		li	a5,99
 1337 0724 63C89706 		bgt	s1,a5,.L91
 1338              	.LBB45:
 259:src/Tests.cpp ****             if(retval != 0)
 1339              		.loc 2 259 13
 259:src/Tests.cpp ****             if(retval != 0)
 1340              		.loc 2 259 34 is_stmt 0
 1341 0728 93973400 		slli	a5,s1,3
 1342 072c 130704FE 		addi	a4,s0,-32
 1343 0730 B307F700 		add	a5,a4,a5
 1344 0734 03B507CE 		ld	a0,-800(a5)
 1345 0738 97000000 		call	_Z8mem_freePv@plt
 1345      E7800000 
 1346              	.LVL140:
 260:src/Tests.cpp ****             {
 1347              		.loc 2 260 13 is_stmt 1
 1348 0740 63160502 		bnez	a0,.L100
 265:src/Tests.cpp ****             if(addrs[i] == 0)
 1349              		.loc 2 265 13
 265:src/Tests.cpp ****             if(addrs[i] == 0)
 1350              		.loc 2 265 33 is_stmt 0
 1351 0744 13050900 		mv	a0,s2
 1352              	.LVL141:
 1353 0748 97000000 		call	_Z9mem_allocm@plt
 1353      E7800000 
 1354              	.LVL142:
 265:src/Tests.cpp ****             if(addrs[i] == 0)
GAS LISTING /tmp/cchyCMA1.s 			page 38


 1355              		.loc 2 265 22
 1356 0750 93973400 		slli	a5,s1,3
 1357 0754 130704FE 		addi	a4,s0,-32
 1358 0758 B307F700 		add	a5,a4,a5
 1359 075c 23B0A7CE 		sd	a0,-800(a5)
 266:src/Tests.cpp ****             {
 1360              		.loc 2 266 13 is_stmt 1
 1361 0760 63000502 		beqz	a0,.L101
 1362              	.LBE45:
 257:src/Tests.cpp ****         {
 1363              		.loc 2 257 9 discriminator 2
 257:src/Tests.cpp ****         {
 1364              		.loc 2 257 34 is_stmt 0 discriminator 2
 1365 0764 9B842400 		addiw	s1,s1,2
 1366              	.LVL143:
 257:src/Tests.cpp ****         {
 1367              		.loc 2 257 9 discriminator 2
 1368 0768 6FF09FFB 		j	.L87
 1369              	.LVL144:
 1370              	.L100:
 1371              	.LBB46:
 262:src/Tests.cpp ****                 return;
 1372              		.loc 2 262 17 is_stmt 1
 262:src/Tests.cpp ****                 return;
 1373              		.loc 2 262 28 is_stmt 0
 1374 076c 17050000 		lla	a0,.LC7
 1374      13050500 
 1375              	.LVL145:
 1376 0774 97000000 		call	_Z11printStringPKc@plt
 1376      E7800000 
 1377              	.LVL146:
 263:src/Tests.cpp ****             }
 1378              		.loc 2 263 17 is_stmt 1
 1379 077c 6FF01FF0 		j	.L81
 1380              	.L101:
 268:src/Tests.cpp ****                 return;
 1381              		.loc 2 268 17
 268:src/Tests.cpp ****                 return;
 1382              		.loc 2 268 28 is_stmt 0
 1383 0780 17050000 		lla	a0,.LC14
 1383      13050500 
 1384 0788 97000000 		call	_Z11printStringPKc@plt
 1384      E7800000 
 1385              	.LVL147:
 269:src/Tests.cpp ****             }
 1386              		.loc 2 269 17 is_stmt 1
 1387 0790 6FF0DFEE 		j	.L81
 1388              	.L91:
 1389              	.LBE46:
 1390              	.LBE44:
 273:src/Tests.cpp ****     }
 1391              		.loc 2 273 9
 273:src/Tests.cpp ****     }
 1392              		.loc 2 273 11 is_stmt 0
 1393 0794 1B0969FF 		addiw	s2,s2,-10
 1394              	.LVL148:
 1395              	.LBE40:
GAS LISTING /tmp/cchyCMA1.s 			page 39


 238:src/Tests.cpp ****     {
 1396              		.loc 2 238 5
 1397 0798 6FF01FF0 		j	.L82
 1398              	.LVL149:
 1399              	.L86:
 276:src/Tests.cpp **** }
 1400              		.loc 2 276 5 is_stmt 1
 276:src/Tests.cpp **** }
 1401              		.loc 2 276 16 is_stmt 0
 1402 079c 17050000 		lla	a0,.LC8
 1402      13050500 
 1403 07a4 97000000 		call	_Z11printStringPKc@plt
 1403      E7800000 
 1404              	.LVL150:
 1405 07ac 6FF01FED 		j	.L81
 1406              		.cfi_endproc
 1407              	.LFE39:
 1409              		.align	2
 1410              		.globl	_Z21memoryAllocationTestsv
 1412              	_Z21memoryAllocationTestsv:
 1413              	.LFB40:
 280:src/Tests.cpp ****     //bigMalloc();
 1414              		.loc 2 280 1 is_stmt 1
 1415              		.cfi_startproc
 1416 07b0 130101FF 		addi	sp,sp,-16
 1417              		.cfi_def_cfa_offset 16
 1418 07b4 23348100 		sd	s0,8(sp)
 1419              		.cfi_offset 8, -8
 1420 07b8 13040101 		addi	s0,sp,16
 1421              		.cfi_def_cfa 8, 0
 289:src/Tests.cpp **** 
 1422              		.loc 2 289 1 is_stmt 0
 1423 07bc 03348100 		ld	s0,8(sp)
 1424              		.cfi_restore 8
 1425              		.cfi_def_cfa 2, 16
 1426 07c0 13010101 		addi	sp,sp,16
 1427              		.cfi_def_cfa_offset 0
 1428 07c4 67800000 		jr	ra
 1429              		.cfi_endproc
 1430              	.LFE40:
 1432              		.align	2
 1433              		.globl	_Z14semaphoreTestsv
 1435              	_Z14semaphoreTestsv:
 1436              	.LFB41:
 292:src/Tests.cpp ****     semTest1();
 1437              		.loc 2 292 1 is_stmt 1
 1438              		.cfi_startproc
 1439 07c8 130101FF 		addi	sp,sp,-16
 1440              		.cfi_def_cfa_offset 16
 1441 07cc 23348100 		sd	s0,8(sp)
 1442              		.cfi_offset 8, -8
 1443 07d0 13040101 		addi	s0,sp,16
 1444              		.cfi_def_cfa 8, 0
 293:src/Tests.cpp **** }
 1445              		.loc 2 293 5
 294:src/Tests.cpp **** 
 1446              		.loc 2 294 1 is_stmt 0
GAS LISTING /tmp/cchyCMA1.s 			page 40


 1447 07d4 03348100 		ld	s0,8(sp)
 1448              		.cfi_restore 8
 1449              		.cfi_def_cfa 2, 16
 1450 07d8 13010101 		addi	sp,sp,16
 1451              		.cfi_def_cfa_offset 0
 1452 07dc 67800000 		jr	ra
 1453              		.cfi_endproc
 1454              	.LFE41:
 1456              		.align	2
 1457              		.globl	_ZN12TestPeriodicC2Em
 1459              	_ZN12TestPeriodicC2Em:
 1460              	.LFB48:
 305:src/Tests.cpp **** 
 1461              		.loc 2 305 1 is_stmt 1
 1462              		.cfi_startproc
 1463              	.LVL151:
 1464 07e0 130101FE 		addi	sp,sp,-32
 1465              		.cfi_def_cfa_offset 32
 1466 07e4 233C1100 		sd	ra,24(sp)
 1467 07e8 23388100 		sd	s0,16(sp)
 1468 07ec 23349100 		sd	s1,8(sp)
 1469              		.cfi_offset 1, -8
 1470              		.cfi_offset 8, -16
 1471              		.cfi_offset 9, -24
 1472 07f0 13040102 		addi	s0,sp,32
 1473              		.cfi_def_cfa 8, 0
 1474 07f4 93040500 		mv	s1,a0
 1475              	.LBB47:
 305:src/Tests.cpp **** 
 1476              		.loc 2 305 62 is_stmt 0
 1477 07f8 97000000 		call	_ZN14PeriodicThreadC2Em@plt
 1477      E7800000 
 1478              	.LVL152:
 1479 0800 97070000 		lla	a5,_ZTV12TestPeriodic+16
 1479      93870700 
 1480 0808 23B0F400 		sd	a5,0(s1)
 1481              	.LBE47:
 307:src/Tests.cpp **** 
 1482              		.loc 2 307 1
 1483 080c 83308101 		ld	ra,24(sp)
 1484              		.cfi_restore 1
 1485 0810 03340101 		ld	s0,16(sp)
 1486              		.cfi_restore 8
 1487              		.cfi_def_cfa 2, 32
 1488 0814 83348100 		ld	s1,8(sp)
 1489              		.cfi_restore 9
 1490              	.LVL153:
 1491 0818 13010102 		addi	sp,sp,32
 1492              		.cfi_def_cfa_offset 0
 1493 081c 67800000 		jr	ra
 1494              		.cfi_endproc
 1495              	.LFE48:
 1497              		.globl	_ZN12TestPeriodicC1Em
 1498              		.set	_ZN12TestPeriodicC1Em,_ZN12TestPeriodicC2Em
 1499              		.align	2
 1500              		.globl	_Z11threadTest3v
 1502              	_Z11threadTest3v:
GAS LISTING /tmp/cchyCMA1.s 			page 41


 1503              	.LFB33:
 100:src/Tests.cpp ****     Thread* t = new TestPeriodic(50);
 1504              		.loc 2 100 1 is_stmt 1
 1505              		.cfi_startproc
 1506              		.cfi_personality 0x9b,DW.ref.__gxx_personality_v0
 1507              		.cfi_lsda 0x1b,.LLSDA33
 1508 0820 130101FE 		addi	sp,sp,-32
 1509              		.cfi_def_cfa_offset 32
 1510 0824 233C1100 		sd	ra,24(sp)
 1511 0828 23388100 		sd	s0,16(sp)
 1512 082c 23349100 		sd	s1,8(sp)
 1513 0830 23302101 		sd	s2,0(sp)
 1514              		.cfi_offset 1, -8
 1515              		.cfi_offset 8, -16
 1516              		.cfi_offset 9, -24
 1517              		.cfi_offset 18, -32
 1518 0834 13040102 		addi	s0,sp,32
 1519              		.cfi_def_cfa 8, 0
 101:src/Tests.cpp ****     t->start();
 1520              		.loc 2 101 5
 101:src/Tests.cpp ****     t->start();
 1521              		.loc 2 101 36 is_stmt 0
 1522 0838 13050001 		li	a0,16
 1523              	.LEHB0:
 1524 083c 97000000 		call	_Znwm@plt
 1524      E7800000 
 1525              	.LVL154:
 1526              	.LEHE0:
 1527 0844 13090500 		mv	s2,a0
 1528 0848 93052003 		li	a1,50
 1529              	.LEHB1:
 1530 084c 97000000 		call	_ZN12TestPeriodicC1Em
 1530      E7800000 
 1531              	.LVL155:
 1532              	.LEHE1:
 102:src/Tests.cpp ****     while(true)
 1533              		.loc 2 102 5 is_stmt 1 discriminator 2
 102:src/Tests.cpp ****     while(true)
 1534              		.loc 2 102 13 is_stmt 0 discriminator 2
 1535 0854 13050900 		mv	a0,s2
 1536              	.LEHB2:
 1537 0858 97000000 		call	_ZN6Thread5startEv@plt
 1537      E7800000 
 1538              	.LVL156:
 1539              	.L109:
 103:src/Tests.cpp ****     {
 1540              		.loc 2 103 5 is_stmt 1 discriminator 1
 105:src/Tests.cpp ****     }
 1541              		.loc 2 105 9 discriminator 1
 105:src/Tests.cpp ****     }
 1542              		.loc 2 105 24 is_stmt 0 discriminator 1
 1543 0860 97000000 		call	_Z15thread_dispatchv@plt
 1543      E7800000 
 1544              	.LVL157:
 1545              	.LEHE2:
 103:src/Tests.cpp ****     {
 1546              		.loc 2 103 5 is_stmt 1 discriminator 1
GAS LISTING /tmp/cchyCMA1.s 			page 42


 1547 0868 6FF09FFF 		j	.L109
 1548              	.LVL158:
 1549              	.L111:
 1550 086c 93040500 		mv	s1,a0
 101:src/Tests.cpp ****     t->start();
 1551              		.loc 2 101 36 is_stmt 0
 1552 0870 13050900 		mv	a0,s2
 1553 0874 97000000 		call	_ZdlPv@plt
 1553      E7800000 
 1554              	.LVL159:
 1555 087c 13850400 		mv	a0,s1
 1556              	.LEHB3:
 1557 0880 97000000 		call	_Unwind_Resume@plt
 1557      E7800000 
 1558              	.LVL160:
 1559              	.LEHE3:
 1560              		.cfi_endproc
 1561              	.LFE33:
 1562              		.globl	__gxx_personality_v0
 1563              		.section	.gcc_except_table,"a",@progbits
 1564              	.LLSDA33:
 1565 0000 FF       		.byte	0xff
 1566 0001 FF       		.byte	0xff
 1567 0002 03       		.byte	0x3
 1568 0003 34       		.byte	0x34
 1569 0004 00000000 		.4byte	.LEHB0-.LFB33
 1570 0008 00000000 		.4byte	.LEHE0-.LEHB0
 1571 000c 00000000 		.4byte	0
 1572 0010 00       		.byte	0
 1573 0011 00000000 		.4byte	.LEHB1-.LFB33
 1574 0015 00000000 		.4byte	.LEHE1-.LEHB1
 1575 0019 00000000 		.4byte	.L111-.LFB33
 1576 001d 00       		.byte	0
 1577 001e 00000000 		.4byte	.LEHB2-.LFB33
 1578 0022 00000000 		.4byte	.LEHE2-.LEHB2
 1579 0026 00000000 		.4byte	0
 1580 002a 00       		.byte	0
 1581 002b 00000000 		.4byte	.LEHB3-.LFB33
 1582 002f 00000000 		.4byte	.LEHE3-.LEHB3
 1583 0033 00000000 		.4byte	0
 1584 0037 00       		.byte	0
 1585              		.text
 1587              		.align	2
 1588              		.globl	_Z11threadTestsv
 1590              	_Z11threadTestsv:
 1591              	.LFB34:
 110:src/Tests.cpp ****     //threadTest1();
 1592              		.loc 2 110 1 is_stmt 1
 1593              		.cfi_startproc
 1594 0888 130101FF 		addi	sp,sp,-16
 1595              		.cfi_def_cfa_offset 16
 1596 088c 23341100 		sd	ra,8(sp)
 1597 0890 23308100 		sd	s0,0(sp)
 1598              		.cfi_offset 1, -8
 1599              		.cfi_offset 8, -16
 1600 0894 13040101 		addi	s0,sp,16
 1601              		.cfi_def_cfa 8, 0
GAS LISTING /tmp/cchyCMA1.s 			page 43


 113:src/Tests.cpp **** }
 1602              		.loc 2 113 5
 113:src/Tests.cpp **** }
 1603              		.loc 2 113 16 is_stmt 0
 1604 0898 97000000 		call	_Z11threadTest3v
 1604      E7800000 
 1605              	.LVL161:
 1606              		.cfi_endproc
 1607              	.LFE34:
 1609              		.align	2
 1610              		.globl	_Z7myTestsv
 1612              	_Z7myTestsv:
 1613              	.LFB42:
 297:src/Tests.cpp ****     //memoryAllocationTests();
 1614              		.loc 2 297 1 is_stmt 1
 1615              		.cfi_startproc
 1616 08a0 130101FF 		addi	sp,sp,-16
 1617              		.cfi_def_cfa_offset 16
 1618 08a4 23341100 		sd	ra,8(sp)
 1619 08a8 23308100 		sd	s0,0(sp)
 1620              		.cfi_offset 1, -8
 1621              		.cfi_offset 8, -16
 1622 08ac 13040101 		addi	s0,sp,16
 1623              		.cfi_def_cfa 8, 0
 299:src/Tests.cpp ****     //semaphoreTests();
 1624              		.loc 2 299 5
 299:src/Tests.cpp ****     //semaphoreTests();
 1625              		.loc 2 299 16 is_stmt 0
 1626 08b0 97000000 		call	_Z11threadTestsv
 1626      E7800000 
 1627              	.LVL162:
 1628              		.cfi_endproc
 1629              	.LFE42:
 1631              		.section	.rodata.str1.8
 1632              		.align	3
 1633              	.LC15:
 1634 00b8 54657374 		.string	"Testing a few mallocs and frees\n\n"
 1634      696E6720 
 1634      61206665 
 1634      77206D61 
 1634      6C6C6F63 
 1635 00da 00000000 		.align	3
 1635      0000
 1636              	.LC16:
 1637 00e0 53554343 		.string	"SUCCESSFUL: Testing a few mallocs and frees\n\n"
 1637      45535346 
 1637      554C3A20 
 1637      54657374 
 1637      696E6720 
 1638              		.text
 1639              		.align	2
 1640              		.globl	_Z10mallocTestv
 1642              	_Z10mallocTestv:
 1643              	.LFB51:
 318:src/Tests.cpp **** 
 319:src/Tests.cpp **** void mallocTest()
 320:src/Tests.cpp **** {
GAS LISTING /tmp/cchyCMA1.s 			page 44


 1644              		.loc 2 320 1 is_stmt 1
 1645              		.cfi_startproc
 1646 08b8 130101FC 		addi	sp,sp,-64
 1647              		.cfi_def_cfa_offset 64
 1648 08bc 233C1102 		sd	ra,56(sp)
 1649 08c0 23388102 		sd	s0,48(sp)
 1650 08c4 23349102 		sd	s1,40(sp)
 1651 08c8 23302103 		sd	s2,32(sp)
 1652 08cc 233C3101 		sd	s3,24(sp)
 1653 08d0 23384101 		sd	s4,16(sp)
 1654 08d4 23345101 		sd	s5,8(sp)
 1655 08d8 23306101 		sd	s6,0(sp)
 1656              		.cfi_offset 1, -8
 1657              		.cfi_offset 8, -16
 1658              		.cfi_offset 9, -24
 1659              		.cfi_offset 18, -32
 1660              		.cfi_offset 19, -40
 1661              		.cfi_offset 20, -48
 1662              		.cfi_offset 21, -56
 1663              		.cfi_offset 22, -64
 1664 08dc 13040104 		addi	s0,sp,64
 1665              		.cfi_def_cfa 8, 0
 321:src/Tests.cpp ****     printString("Testing a few mallocs and frees\n\n");
 1666              		.loc 2 321 5
 1667              		.loc 2 321 16 is_stmt 0
 1668 08e0 17050000 		lla	a0,.LC15
 1668      13050500 
 1669 08e8 97000000 		call	_Z11printStringPKc@plt
 1669      E7800000 
 1670              	.LVL163:
 322:src/Tests.cpp **** 
 323:src/Tests.cpp ****     object* o = new object;
 1671              		.loc 2 323 5 is_stmt 1
 1672              		.loc 2 323 21 is_stmt 0
 1673 08f0 1305C002 		li	a0,44
 1674 08f4 97000000 		call	_Znwm@plt
 1674      E7800000 
 1675              	.LVL164:
 1676 08fc 93040500 		mv	s1,a0
 1677              	.LVL165:
 324:src/Tests.cpp ****     o->a = 3;
 1678              		.loc 2 324 5 is_stmt 1
 1679              		.loc 2 324 10 is_stmt 0
 1680 0900 93073000 		li	a5,3
 1681 0904 2320F500 		sw	a5,0(a0)
 325:src/Tests.cpp ****     void* m1 = mem_alloc(10);
 1682              		.loc 2 325 5 is_stmt 1
 1683              		.loc 2 325 25 is_stmt 0
 1684 0908 1305A000 		li	a0,10
 1685 090c 97000000 		call	_Z9mem_allocm@plt
 1685      E7800000 
 1686              	.LVL166:
 1687 0914 13090500 		mv	s2,a0
 1688              	.LVL167:
 326:src/Tests.cpp ****     void* m2 = mem_alloc(100);
 1689              		.loc 2 326 5 is_stmt 1
 1690              		.loc 2 326 25 is_stmt 0
GAS LISTING /tmp/cchyCMA1.s 			page 45


 1691 0918 13054006 		li	a0,100
 1692              	.LVL168:
 1693 091c 97000000 		call	_Z9mem_allocm@plt
 1693      E7800000 
 1694              	.LVL169:
 1695 0924 93090500 		mv	s3,a0
 1696              	.LVL170:
 327:src/Tests.cpp ****     void* m3 = mem_alloc(1000);
 1697              		.loc 2 327 5 is_stmt 1
 1698              		.loc 2 327 25 is_stmt 0
 1699 0928 1305803E 		li	a0,1000
 1700              	.LVL171:
 1701 092c 97000000 		call	_Z9mem_allocm@plt
 1701      E7800000 
 1702              	.LVL172:
 1703 0934 130A0500 		mv	s4,a0
 1704              	.LVL173:
 328:src/Tests.cpp ****     void* m4 = mem_alloc(10000);
 1705              		.loc 2 328 5 is_stmt 1
 1706              		.loc 2 328 25 is_stmt 0
 1707 0938 37250000 		li	a0,8192
 1708              	.LVL174:
 1709 093c 13050571 		addi	a0,a0,1808
 1710 0940 97000000 		call	_Z9mem_allocm@plt
 1710      E7800000 
 1711              	.LVL175:
 1712 0948 930A0500 		mv	s5,a0
 1713              	.LVL176:
 329:src/Tests.cpp ****     void* m5 = mem_alloc(1);
 1714              		.loc 2 329 5 is_stmt 1
 1715              		.loc 2 329 25 is_stmt 0
 1716 094c 13051000 		li	a0,1
 1717              	.LVL177:
 1718 0950 97000000 		call	_Z9mem_allocm@plt
 1718      E7800000 
 1719              	.LVL178:
 330:src/Tests.cpp **** 
 331:src/Tests.cpp ****     if(!m1 || !m2 || !m3 || !m4 || !m5){
 1720              		.loc 2 331 5 is_stmt 1
 1721 0958 630C0906 		beqz	s2,.L118
 1722 095c 130B0500 		mv	s6,a0
 1723              		.loc 2 331 12 is_stmt 0 discriminator 1
 1724 0960 63880906 		beqz	s3,.L118
 1725              		.loc 2 331 19 discriminator 2
 1726 0964 63060A06 		beqz	s4,.L118
 1727              		.loc 2 331 26 discriminator 3
 1728 0968 63840A06 		beqz	s5,.L118
 1729              		.loc 2 331 33 discriminator 4
 1730 096c 63020506 		beqz	a0,.L118
 332:src/Tests.cpp ****         printString("not OK\n");
 333:src/Tests.cpp ****         return;
 334:src/Tests.cpp ****     }
 335:src/Tests.cpp **** 
 336:src/Tests.cpp ****     delete (uint64*)m1;
 1731              		.loc 2 336 5 is_stmt 1 discriminator 1
 1732              		.loc 2 336 21 is_stmt 0 discriminator 1
 1733 0970 13050900 		mv	a0,s2
GAS LISTING /tmp/cchyCMA1.s 			page 46


 1734              	.LVL179:
 1735 0974 97000000 		call	_ZdlPv@plt
 1735      E7800000 
 1736              	.LVL180:
 337:src/Tests.cpp ****     delete (uint64*)m3;
 1737              		.loc 2 337 5 is_stmt 1 discriminator 1
 1738              		.loc 2 337 21 is_stmt 0 discriminator 1
 1739 097c 13050A00 		mv	a0,s4
 1740 0980 97000000 		call	_ZdlPv@plt
 1740      E7800000 
 1741              	.LVL181:
 338:src/Tests.cpp ****     delete (uint64*)m4;
 1742              		.loc 2 338 5 is_stmt 1 discriminator 1
 1743              		.loc 2 338 21 is_stmt 0 discriminator 1
 1744 0988 13850A00 		mv	a0,s5
 1745 098c 97000000 		call	_ZdlPv@plt
 1745      E7800000 
 1746              	.LVL182:
 339:src/Tests.cpp ****     delete (uint64*)m2;
 1747              		.loc 2 339 5 is_stmt 1 discriminator 1
 1748              		.loc 2 339 21 is_stmt 0 discriminator 1
 1749 0994 13850900 		mv	a0,s3
 1750 0998 97000000 		call	_ZdlPv@plt
 1750      E7800000 
 1751              	.LVL183:
 340:src/Tests.cpp ****     delete (uint64*)m5;
 1752              		.loc 2 340 5 is_stmt 1 discriminator 1
 1753              		.loc 2 340 21 is_stmt 0 discriminator 1
 1754 09a0 13050B00 		mv	a0,s6
 1755 09a4 97000000 		call	_ZdlPv@plt
 1755      E7800000 
 1756              	.LVL184:
 341:src/Tests.cpp ****     delete o;
 1757              		.loc 2 341 5 is_stmt 1 discriminator 1
 1758              		.loc 2 341 13 is_stmt 0 discriminator 1
 1759 09ac 63880400 		beqz	s1,.L121
 1760              		.loc 2 341 12 discriminator 1
 1761 09b0 13850400 		mv	a0,s1
 1762 09b4 97000000 		call	_ZdlPv@plt
 1762      E7800000 
 1763              	.LVL185:
 1764              	.L121:
 342:src/Tests.cpp **** 
 343:src/Tests.cpp ****     printString("SUCCESSFUL: Testing a few mallocs and frees\n\n");
 1765              		.loc 2 343 5 is_stmt 1
 1766              		.loc 2 343 16 is_stmt 0
 1767 09bc 17050000 		lla	a0,.LC16
 1767      13050500 
 1768 09c4 97000000 		call	_Z11printStringPKc@plt
 1768      E7800000 
 1769              	.LVL186:
 1770 09cc 6F004001 		j	.L117
 1771              	.LVL187:
 1772              	.L118:
 332:src/Tests.cpp ****         return;
 1773              		.loc 2 332 9 is_stmt 1
 332:src/Tests.cpp ****         return;
GAS LISTING /tmp/cchyCMA1.s 			page 47


 1774              		.loc 2 332 20 is_stmt 0
 1775 09d0 17050000 		lla	a0,.LC7
 1775      13050500 
 1776              	.LVL188:
 1777 09d8 97000000 		call	_Z11printStringPKc@plt
 1777      E7800000 
 1778              	.LVL189:
 333:src/Tests.cpp ****     }
 1779              		.loc 2 333 9 is_stmt 1
 1780              	.L117:
 344:src/Tests.cpp **** }
 1781              		.loc 2 344 1 is_stmt 0
 1782 09e0 83308103 		ld	ra,56(sp)
 1783              		.cfi_restore 1
 1784 09e4 03340103 		ld	s0,48(sp)
 1785              		.cfi_restore 8
 1786              		.cfi_def_cfa 2, 64
 1787 09e8 83348102 		ld	s1,40(sp)
 1788              		.cfi_restore 9
 1789              	.LVL190:
 1790 09ec 03390102 		ld	s2,32(sp)
 1791              		.cfi_restore 18
 1792              	.LVL191:
 1793 09f0 83398101 		ld	s3,24(sp)
 1794              		.cfi_restore 19
 1795              	.LVL192:
 1796 09f4 033A0101 		ld	s4,16(sp)
 1797              		.cfi_restore 20
 1798              	.LVL193:
 1799 09f8 833A8100 		ld	s5,8(sp)
 1800              		.cfi_restore 21
 1801              	.LVL194:
 1802 09fc 033B0100 		ld	s6,0(sp)
 1803              		.cfi_restore 22
 1804 0a00 13010104 		addi	sp,sp,64
 1805              		.cfi_def_cfa_offset 0
 1806 0a04 67800000 		jr	ra
 1807              		.cfi_endproc
 1808              	.LFE51:
 1810              		.align	2
 1811              		.globl	_Z16mallocEverythingv
 1813              	_Z16mallocEverythingv:
 1814              	.LFB52:
 345:src/Tests.cpp **** 
 346:src/Tests.cpp **** void mallocEverything()
 347:src/Tests.cpp **** {
 1815              		.loc 2 347 1 is_stmt 1
 1816              		.cfi_startproc
 1817 0a08 130101FF 		addi	sp,sp,-16
 1818              		.cfi_def_cfa_offset 16
 1819 0a0c 23348100 		sd	s0,8(sp)
 1820              		.cfi_offset 8, -8
 1821 0a10 13040101 		addi	s0,sp,16
 1822              		.cfi_def_cfa 8, 0
 348:src/Tests.cpp ****     /*printString("Testing allocating whole address space\n\n");
 349:src/Tests.cpp **** 
 350:src/Tests.cpp ****     uint64 neg_size = (uint64)HEAP_START_ADDR - (uint64)HEAP_END_ADDR -sizeof(MemoryAllocator::Bloc
GAS LISTING /tmp/cchyCMA1.s 			page 48


 351:src/Tests.cpp **** 
 352:src/Tests.cpp ****     void* m = mem_alloc(neg_size);
 353:src/Tests.cpp **** 
 354:src/Tests.cpp ****     if(m!=nullptr){
 355:src/Tests.cpp ****         printString("not OK\n");
 356:src/Tests.cpp ****         return;
 357:src/Tests.cpp ****     }
 358:src/Tests.cpp **** 
 359:src/Tests.cpp ****     uint64 blockSize = (((uint64)HEAP_END_ADDR - (uint64)HEAP_START_ADDR - sizeof(MemoryAllocator::
 360:src/Tests.cpp **** 
 361:src/Tests.cpp ****     m = mem_alloc(blockSize<<6);
 362:src/Tests.cpp **** 
 363:src/Tests.cpp ****     if(m==nullptr){
 364:src/Tests.cpp ****         printString("not OK\n");
 365:src/Tests.cpp ****         return;
 366:src/Tests.cpp ****     }
 367:src/Tests.cpp **** 
 368:src/Tests.cpp **** //    there should be some space left still, depending on source file size and output buffer size
 369:src/Tests.cpp **** //    excess allocation should fail and small_chunk should succeed
 370:src/Tests.cpp **** 
 371:src/Tests.cpp **** //    void *excess = mem_alloc(100);
 372:src/Tests.cpp **** //
 373:src/Tests.cpp **** //    if(excess!=nullptr){
 374:src/Tests.cpp **** //        Riscv::printString("not OK\n");
 375:src/Tests.cpp **** //        return;
 376:src/Tests.cpp **** //    }
 377:src/Tests.cpp **** //
 378:src/Tests.cpp ****     void *small_chunk = mem_alloc(1);
 379:src/Tests.cpp **** 
 380:src/Tests.cpp ****     if(small_chunk == nullptr){
 381:src/Tests.cpp ****         printString("not OK\n");
 382:src/Tests.cpp ****         return;
 383:src/Tests.cpp ****     }
 384:src/Tests.cpp **** 
 385:src/Tests.cpp ****     delete (uint64*)m;
 386:src/Tests.cpp ****     //delete (uint64*)small_chunk;
 387:src/Tests.cpp **** 
 388:src/Tests.cpp ****     printString("SUCCESSFUL: Testing allocating whole address space\n\n");*/
 389:src/Tests.cpp **** }
 1823              		.loc 2 389 1 is_stmt 0
 1824 0a14 03348100 		ld	s0,8(sp)
 1825              		.cfi_restore 8
 1826              		.cfi_def_cfa 2, 16
 1827 0a18 13010101 		addi	sp,sp,16
 1828              		.cfi_def_cfa_offset 0
 1829 0a1c 67800000 		jr	ra
 1830              		.cfi_endproc
 1831              	.LFE52:
 1833              		.section	.rodata.str1.8
 1834 010e 0000     		.align	3
 1835              	.LC17:
 1836 0110 54657374 		.string	"Testing gap filling and chunk merge after multiple mallocs and frees\n\n"
 1836      696E6720 
 1836      67617020 
 1836      66696C6C 
 1836      696E6720 
 1837 0157 00       		.align	3
GAS LISTING /tmp/cchyCMA1.s 			page 49


 1838              	.LC18:
 1839 0158 53554343 		.string	"SUCCESSFUL: Testing gap filling and chunk merge after multiple mallocs and frees\n\n"
 1839      45535346 
 1839      554C3A20 
 1839      54657374 
 1839      696E6720 
 1840              		.text
 1841              		.align	2
 1842              		.globl	_Z17mallocGapFillTestv
 1844              	_Z17mallocGapFillTestv:
 1845              	.LFB53:
 390:src/Tests.cpp **** 
 391:src/Tests.cpp **** void mallocGapFillTest()
 392:src/Tests.cpp **** {
 1846              		.loc 2 392 1 is_stmt 1
 1847              		.cfi_startproc
 1848 0a20 130101F6 		addi	sp,sp,-160
 1849              		.cfi_def_cfa_offset 160
 1850 0a24 233C1108 		sd	ra,152(sp)
 1851 0a28 23388108 		sd	s0,144(sp)
 1852 0a2c 23349108 		sd	s1,136(sp)
 1853 0a30 23302109 		sd	s2,128(sp)
 1854 0a34 233C3107 		sd	s3,120(sp)
 1855 0a38 23384107 		sd	s4,112(sp)
 1856 0a3c 23345107 		sd	s5,104(sp)
 1857 0a40 23306107 		sd	s6,96(sp)
 1858 0a44 233C7105 		sd	s7,88(sp)
 1859 0a48 23388105 		sd	s8,80(sp)
 1860              		.cfi_offset 1, -8
 1861              		.cfi_offset 8, -16
 1862              		.cfi_offset 9, -24
 1863              		.cfi_offset 18, -32
 1864              		.cfi_offset 19, -40
 1865              		.cfi_offset 20, -48
 1866              		.cfi_offset 21, -56
 1867              		.cfi_offset 22, -64
 1868              		.cfi_offset 23, -72
 1869              		.cfi_offset 24, -80
 1870 0a4c 1304010A 		addi	s0,sp,160
 1871              		.cfi_def_cfa 8, 0
 393:src/Tests.cpp ****     printString("Testing gap filling and chunk merge after multiple mallocs and frees\n\n");
 1872              		.loc 2 393 5
 1873              		.loc 2 393 16 is_stmt 0
 1874 0a50 17050000 		lla	a0,.LC17
 1874      13050500 
 1875 0a58 97000000 		call	_Z11printStringPKc@plt
 1875      E7800000 
 1876              	.LVL195:
 1877              	.LBB48:
 394:src/Tests.cpp **** 
 395:src/Tests.cpp ****     const int N = 10;
 396:src/Tests.cpp **** 
 397:src/Tests.cpp ****     void *m[N];
 398:src/Tests.cpp **** 
 399:src/Tests.cpp ****     for(int i=0;i<N;i++)
 1878              		.loc 2 399 13
 1879 0a60 93040000 		li	s1,0
GAS LISTING /tmp/cchyCMA1.s 			page 50


 1880              	.L129:
 1881              	.LVL196:
 1882              		.loc 2 399 18 is_stmt 1 discriminator 1
 1883 0a64 93079000 		li	a5,9
 1884 0a68 63C89706 		bgt	s1,a5,.L126
 400:src/Tests.cpp ****     {
 401:src/Tests.cpp ****         m[i] = mem_alloc((i<<6)+1);
 1885              		.loc 2 401 9
 1886              		.loc 2 401 28 is_stmt 0
 1887 0a6c 1B956400 		slliw	a0,s1,6
 1888              		.loc 2 401 25
 1889 0a70 1B051500 		addiw	a0,a0,1
 1890 0a74 97000000 		call	_Z9mem_allocm@plt
 1890      E7800000 
 1891              	.LVL197:
 1892              		.loc 2 401 14
 1893 0a7c 93973400 		slli	a5,s1,3
 1894 0a80 130704FB 		addi	a4,s0,-80
 1895 0a84 B307F700 		add	a5,a4,a5
 1896 0a88 23B8A7FA 		sd	a0,-80(a5)
 402:src/Tests.cpp ****         if(m[i] == nullptr){
 1897              		.loc 2 402 9 is_stmt 1
 1898 0a8c 63060500 		beqz	a0,.L146
 399:src/Tests.cpp ****     {
 1899              		.loc 2 399 5 discriminator 2
 1900 0a90 9B841400 		addiw	s1,s1,1
 1901              	.LVL198:
 1902 0a94 6FF01FFD 		j	.L129
 1903              	.LVL199:
 1904              	.L146:
 403:src/Tests.cpp ****             printString("not OK\n");
 1905              		.loc 2 403 13
 1906              		.loc 2 403 24 is_stmt 0
 1907 0a98 17050000 		lla	a0,.LC7
 1907      13050500 
 1908 0aa0 97000000 		call	_Z11printStringPKc@plt
 1908      E7800000 
 1909              	.LVL200:
 404:src/Tests.cpp ****             return;
 1910              		.loc 2 404 13 is_stmt 1
 1911              	.L125:
 1912              	.LBE48:
 405:src/Tests.cpp ****         }
 406:src/Tests.cpp ****     }
 407:src/Tests.cpp **** 
 408:src/Tests.cpp ****     delete (uint64*)m[2];
 409:src/Tests.cpp **** 
 410:src/Tests.cpp ****     void* tmp1 = mem_alloc(1);
 411:src/Tests.cpp ****     void* tmp2 = mem_alloc(1);
 412:src/Tests.cpp ****     void* tmp3 = mem_alloc(1);
 413:src/Tests.cpp **** 
 414:src/Tests.cpp ****     if(!tmp1 || !tmp2 || !tmp3)
 415:src/Tests.cpp ****     {
 416:src/Tests.cpp ****         printString("not OK\n");
 417:src/Tests.cpp ****         return;
 418:src/Tests.cpp ****     }
 419:src/Tests.cpp **** 
GAS LISTING /tmp/cchyCMA1.s 			page 51


 420:src/Tests.cpp ****     uint64 im1 = (uint64)m[1];
 421:src/Tests.cpp ****     uint64 im3 = (uint64)m[3];
 422:src/Tests.cpp ****     uint64 im5 = (uint64)m[5];
 423:src/Tests.cpp ****     uint64 imN = (uint64)m[N];
 424:src/Tests.cpp **** 
 425:src/Tests.cpp ****     uint64 itmp1 = (uint64)tmp1;
 426:src/Tests.cpp ****     uint64 itmp2 = (uint64)tmp2;
 427:src/Tests.cpp ****     uint64 itmp3 = (uint64)tmp3;
 428:src/Tests.cpp **** 
 429:src/Tests.cpp ****     if(!(im1<itmp1 && itmp1<im3 && im1<itmp2 && itmp2<im3 && itmp3>imN))
 430:src/Tests.cpp ****     {
 431:src/Tests.cpp ****         printString("not OK\n");
 432:src/Tests.cpp ****         return;
 433:src/Tests.cpp ****     }
 434:src/Tests.cpp **** 
 435:src/Tests.cpp ****     delete (uint64*)m[3];
 436:src/Tests.cpp ****     delete (uint64*)m[4];
 437:src/Tests.cpp **** 
 438:src/Tests.cpp ****     void* tmp4 = mem_alloc(640);
 439:src/Tests.cpp ****     void* tmp5 = mem_alloc(576);
 440:src/Tests.cpp **** 
 441:src/Tests.cpp ****     if(!tmp4 || !tmp5){
 442:src/Tests.cpp ****         printString("not OK\n");
 443:src/Tests.cpp ****         return;
 444:src/Tests.cpp ****     }
 445:src/Tests.cpp **** 
 446:src/Tests.cpp ****     uint64 itmp4 = (uint64)tmp4;
 447:src/Tests.cpp ****     uint64 itmp5 = (uint64)tmp5;
 448:src/Tests.cpp **** 
 449:src/Tests.cpp ****     if(!(itmp5>itmp2 && itmp5>im5 && itmp4<itmp3)){
 450:src/Tests.cpp ****         printString("not OK\n");
 451:src/Tests.cpp ****         return;
 452:src/Tests.cpp ****     }
 453:src/Tests.cpp **** 
 454:src/Tests.cpp ****     for(int i=0;i<N;i++){
 455:src/Tests.cpp ****         delete (uint64*)m[i];
 456:src/Tests.cpp ****     }
 457:src/Tests.cpp **** 
 458:src/Tests.cpp ****     delete (uint64*)tmp1;
 459:src/Tests.cpp ****     delete (uint64*)tmp2;
 460:src/Tests.cpp ****     delete (uint64*)tmp3;
 461:src/Tests.cpp ****     delete (uint64*)tmp4;
 462:src/Tests.cpp ****     delete (uint64*)tmp5;
 463:src/Tests.cpp **** 
 464:src/Tests.cpp ****     printString("SUCCESSFUL: Testing gap filling and chunk merge after multiple mallocs and frees\n
 465:src/Tests.cpp **** }
 1913              		.loc 2 465 1 is_stmt 0
 1914 0aa8 83308109 		ld	ra,152(sp)
 1915              		.cfi_remember_state
 1916              		.cfi_restore 1
 1917 0aac 03340109 		ld	s0,144(sp)
 1918              		.cfi_restore 8
 1919              		.cfi_def_cfa 2, 160
 1920 0ab0 83348108 		ld	s1,136(sp)
 1921              		.cfi_restore 9
 1922 0ab4 03390108 		ld	s2,128(sp)
 1923              		.cfi_restore 18
GAS LISTING /tmp/cchyCMA1.s 			page 52


 1924 0ab8 83398107 		ld	s3,120(sp)
 1925              		.cfi_restore 19
 1926 0abc 033A0107 		ld	s4,112(sp)
 1927              		.cfi_restore 20
 1928 0ac0 833A8106 		ld	s5,104(sp)
 1929              		.cfi_restore 21
 1930 0ac4 033B0106 		ld	s6,96(sp)
 1931              		.cfi_restore 22
 1932 0ac8 833B8105 		ld	s7,88(sp)
 1933              		.cfi_restore 23
 1934 0acc 033C0105 		ld	s8,80(sp)
 1935              		.cfi_restore 24
 1936 0ad0 1301010A 		addi	sp,sp,160
 1937              		.cfi_def_cfa_offset 0
 1938 0ad4 67800000 		jr	ra
 1939              	.LVL201:
 1940              	.L126:
 1941              		.cfi_restore_state
 408:src/Tests.cpp **** 
 1942              		.loc 2 408 5 is_stmt 1
 408:src/Tests.cpp **** 
 1943              		.loc 2 408 24 is_stmt 0
 1944 0ad8 033504F7 		ld	a0,-144(s0)
 408:src/Tests.cpp **** 
 1945              		.loc 2 408 25
 1946 0adc 63060500 		beqz	a0,.L130
 408:src/Tests.cpp **** 
 1947              		.loc 2 408 24 discriminator 1
 1948 0ae0 97000000 		call	_ZdlPv@plt
 1948      E7800000 
 1949              	.LVL202:
 1950              	.L130:
 410:src/Tests.cpp ****     void* tmp2 = mem_alloc(1);
 1951              		.loc 2 410 5 is_stmt 1
 410:src/Tests.cpp ****     void* tmp2 = mem_alloc(1);
 1952              		.loc 2 410 27 is_stmt 0
 1953 0ae8 13051000 		li	a0,1
 1954 0aec 97000000 		call	_Z9mem_allocm@plt
 1954      E7800000 
 1955              	.LVL203:
 1956 0af4 93040500 		mv	s1,a0
 1957              	.LVL204:
 411:src/Tests.cpp ****     void* tmp3 = mem_alloc(1);
 1958              		.loc 2 411 5 is_stmt 1
 411:src/Tests.cpp ****     void* tmp3 = mem_alloc(1);
 1959              		.loc 2 411 27 is_stmt 0
 1960 0af8 13051000 		li	a0,1
 1961 0afc 97000000 		call	_Z9mem_allocm@plt
 1961      E7800000 
 1962              	.LVL205:
 1963 0b04 13090500 		mv	s2,a0
 1964              	.LVL206:
 412:src/Tests.cpp **** 
 1965              		.loc 2 412 5 is_stmt 1
 412:src/Tests.cpp **** 
 1966              		.loc 2 412 27 is_stmt 0
 1967 0b08 13051000 		li	a0,1
GAS LISTING /tmp/cchyCMA1.s 			page 53


 1968              	.LVL207:
 1969 0b0c 97000000 		call	_Z9mem_allocm@plt
 1969      E7800000 
 1970              	.LVL208:
 1971 0b14 93090500 		mv	s3,a0
 1972              	.LVL209:
 414:src/Tests.cpp ****     {
 1973              		.loc 2 414 5 is_stmt 1
 1974 0b18 63880408 		beqz	s1,.L131
 414:src/Tests.cpp ****     {
 1975              		.loc 2 414 14 is_stmt 0 discriminator 1
 1976 0b1c 63060908 		beqz	s2,.L131
 414:src/Tests.cpp ****     {
 1977              		.loc 2 414 23 discriminator 2
 1978 0b20 63040508 		beqz	a0,.L131
 420:src/Tests.cpp ****     uint64 im3 = (uint64)m[3];
 1979              		.loc 2 420 5 is_stmt 1
 420:src/Tests.cpp ****     uint64 im3 = (uint64)m[3];
 1980              		.loc 2 420 29 is_stmt 0
 1981 0b24 833784F6 		ld	a5,-152(s0)
 1982              	.LVL210:
 421:src/Tests.cpp ****     uint64 im5 = (uint64)m[5];
 1983              		.loc 2 421 5 is_stmt 1
 421:src/Tests.cpp ****     uint64 im5 = (uint64)m[5];
 1984              		.loc 2 421 29 is_stmt 0
 1985 0b28 033584F7 		ld	a0,-136(s0)
 1986              	.LVL211:
 422:src/Tests.cpp ****     uint64 imN = (uint64)m[N];
 1987              		.loc 2 422 5 is_stmt 1
 422:src/Tests.cpp ****     uint64 imN = (uint64)m[N];
 1988              		.loc 2 422 29 is_stmt 0
 1989 0b2c 033B84F8 		ld	s6,-120(s0)
 1990              	.LVL212:
 423:src/Tests.cpp **** 
 1991              		.loc 2 423 5 is_stmt 1
 423:src/Tests.cpp **** 
 1992              		.loc 2 423 29 is_stmt 0
 1993 0b30 033604FB 		ld	a2,-80(s0)
 1994              	.LVL213:
 425:src/Tests.cpp ****     uint64 itmp2 = (uint64)tmp2;
 1995              		.loc 2 425 5 is_stmt 1
 426:src/Tests.cpp ****     uint64 itmp3 = (uint64)tmp3;
 1996              		.loc 2 426 5
 426:src/Tests.cpp ****     uint64 itmp3 = (uint64)tmp3;
 1997              		.loc 2 426 12 is_stmt 0
 1998 0b34 130A0900 		mv	s4,s2
 1999              	.LVL214:
 427:src/Tests.cpp **** 
 2000              		.loc 2 427 5 is_stmt 1
 427:src/Tests.cpp **** 
 2001              		.loc 2 427 12 is_stmt 0
 2002 0b38 938A0900 		mv	s5,s3
 2003              	.LVL215:
 429:src/Tests.cpp ****     {
 2004              		.loc 2 429 5 is_stmt 1
 2005 0b3c 63F09708 		bgeu	a5,s1,.L133
 429:src/Tests.cpp ****     {
GAS LISTING /tmp/cchyCMA1.s 			page 54


 2006              		.loc 2 429 20 is_stmt 0 discriminator 1
 2007 0b40 63FEA406 		bleu	a0,s1,.L133
 429:src/Tests.cpp ****     {
 2008              		.loc 2 429 33 discriminator 2
 2009 0b44 63FC2707 		bgeu	a5,s2,.L133
 429:src/Tests.cpp ****     {
 2010              		.loc 2 429 46 discriminator 3
 2011 0b48 637AA906 		bleu	a0,s2,.L133
 429:src/Tests.cpp ****     {
 2012              		.loc 2 429 8 discriminator 4
 2013 0b4c 63783607 		bgeu	a2,s3,.L133
 435:src/Tests.cpp ****     delete (uint64*)m[4];
 2014              		.loc 2 435 5 is_stmt 1
 435:src/Tests.cpp ****     delete (uint64*)m[4];
 2015              		.loc 2 435 25 is_stmt 0
 2016 0b50 63060500 		beqz	a0,.L135
 435:src/Tests.cpp ****     delete (uint64*)m[4];
 2017              		.loc 2 435 24 discriminator 1
 2018 0b54 97000000 		call	_ZdlPv@plt
 2018      E7800000 
 2019              	.LVL216:
 2020              	.L135:
 436:src/Tests.cpp **** 
 2021              		.loc 2 436 5 is_stmt 1
 436:src/Tests.cpp **** 
 2022              		.loc 2 436 24 is_stmt 0
 2023 0b5c 033504F8 		ld	a0,-128(s0)
 436:src/Tests.cpp **** 
 2024              		.loc 2 436 25
 2025 0b60 63060500 		beqz	a0,.L136
 436:src/Tests.cpp **** 
 2026              		.loc 2 436 24 discriminator 1
 2027 0b64 97000000 		call	_ZdlPv@plt
 2027      E7800000 
 2028              	.LVL217:
 2029              	.L136:
 438:src/Tests.cpp ****     void* tmp5 = mem_alloc(576);
 2030              		.loc 2 438 5 is_stmt 1
 438:src/Tests.cpp ****     void* tmp5 = mem_alloc(576);
 2031              		.loc 2 438 27 is_stmt 0
 2032 0b6c 13050028 		li	a0,640
 2033 0b70 97000000 		call	_Z9mem_allocm@plt
 2033      E7800000 
 2034              	.LVL218:
 2035 0b78 130C0500 		mv	s8,a0
 2036              	.LVL219:
 439:src/Tests.cpp **** 
 2037              		.loc 2 439 5 is_stmt 1
 439:src/Tests.cpp **** 
 2038              		.loc 2 439 27 is_stmt 0
 2039 0b7c 13050024 		li	a0,576
 2040              	.LVL220:
 2041 0b80 97000000 		call	_Z9mem_allocm@plt
 2041      E7800000 
 2042              	.LVL221:
 2043 0b88 930B0500 		mv	s7,a0
 2044              	.LVL222:
GAS LISTING /tmp/cchyCMA1.s 			page 55


 441:src/Tests.cpp ****         printString("not OK\n");
 2045              		.loc 2 441 5 is_stmt 1
 2046 0b8c 63020C04 		beqz	s8,.L137
 441:src/Tests.cpp ****         printString("not OK\n");
 2047              		.loc 2 441 14 is_stmt 0 discriminator 1
 2048 0b90 63000504 		beqz	a0,.L137
 446:src/Tests.cpp ****     uint64 itmp5 = (uint64)tmp5;
 2049              		.loc 2 446 5 is_stmt 1
 2050              	.LVL223:
 447:src/Tests.cpp **** 
 2051              		.loc 2 447 5
 449:src/Tests.cpp ****         printString("not OK\n");
 2052              		.loc 2 449 5
 2053 0b94 6378AA04 		bgeu	s4,a0,.L139
 449:src/Tests.cpp ****         printString("not OK\n");
 2054              		.loc 2 449 22 is_stmt 0 discriminator 1
 2055 0b98 6376AB04 		bgeu	s6,a0,.L139
 449:src/Tests.cpp ****         printString("not OK\n");
 2056              		.loc 2 449 8 discriminator 2
 2057 0b9c 63745C05 		bleu	s5,s8,.L139
 2058              	.LBB49:
 454:src/Tests.cpp ****         delete (uint64*)m[i];
 2059              		.loc 2 454 13
 2060 0ba0 130A0000 		li	s4,0
 2061 0ba4 6F008005 		j	.L140
 2062              	.LVL224:
 2063              	.L131:
 2064              	.LBE49:
 416:src/Tests.cpp ****         return;
 2065              		.loc 2 416 9 is_stmt 1
 416:src/Tests.cpp ****         return;
 2066              		.loc 2 416 20 is_stmt 0
 2067 0ba8 17050000 		lla	a0,.LC7
 2067      13050500 
 2068              	.LVL225:
 2069 0bb0 97000000 		call	_Z11printStringPKc@plt
 2069      E7800000 
 2070              	.LVL226:
 417:src/Tests.cpp ****     }
 2071              		.loc 2 417 9 is_stmt 1
 2072 0bb8 6FF01FEF 		j	.L125
 2073              	.LVL227:
 2074              	.L133:
 431:src/Tests.cpp ****         return;
 2075              		.loc 2 431 9
 431:src/Tests.cpp ****         return;
 2076              		.loc 2 431 20 is_stmt 0
 2077 0bbc 17050000 		lla	a0,.LC7
 2077      13050500 
 2078              	.LVL228:
 2079 0bc4 97000000 		call	_Z11printStringPKc@plt
 2079      E7800000 
 2080              	.LVL229:
 432:src/Tests.cpp ****     }
 2081              		.loc 2 432 9 is_stmt 1
 2082 0bcc 6FF0DFED 		j	.L125
 2083              	.LVL230:
GAS LISTING /tmp/cchyCMA1.s 			page 56


 2084              	.L137:
 442:src/Tests.cpp ****         return;
 2085              		.loc 2 442 9
 442:src/Tests.cpp ****         return;
 2086              		.loc 2 442 20 is_stmt 0
 2087 0bd0 17050000 		lla	a0,.LC7
 2087      13050500 
 2088              	.LVL231:
 2089 0bd8 97000000 		call	_Z11printStringPKc@plt
 2089      E7800000 
 2090              	.LVL232:
 443:src/Tests.cpp ****     }
 2091              		.loc 2 443 9 is_stmt 1
 2092 0be0 6FF09FEC 		j	.L125
 2093              	.LVL233:
 2094              	.L139:
 450:src/Tests.cpp ****         return;
 2095              		.loc 2 450 9
 450:src/Tests.cpp ****         return;
 2096              		.loc 2 450 20 is_stmt 0
 2097 0be4 17050000 		lla	a0,.LC7
 2097      13050500 
 2098              	.LVL234:
 2099 0bec 97000000 		call	_Z11printStringPKc@plt
 2099      E7800000 
 2100              	.LVL235:
 451:src/Tests.cpp ****     }
 2101              		.loc 2 451 9 is_stmt 1
 2102 0bf4 6FF05FEB 		j	.L125
 2103              	.LVL236:
 2104              	.L142:
 2105              	.LBB50:
 454:src/Tests.cpp ****         delete (uint64*)m[i];
 2106              		.loc 2 454 5 discriminator 2
 2107 0bf8 1B0A1A00 		addiw	s4,s4,1
 2108              	.LVL237:
 2109              	.L140:
 454:src/Tests.cpp ****         delete (uint64*)m[i];
 2110              		.loc 2 454 18 discriminator 1
 2111 0bfc 93079000 		li	a5,9
 2112 0c00 63C24703 		bgt	s4,a5,.L141
 455:src/Tests.cpp ****     }
 2113              		.loc 2 455 9
 455:src/Tests.cpp ****     }
 2114              		.loc 2 455 28 is_stmt 0
 2115 0c04 93173A00 		slli	a5,s4,3
 2116 0c08 130704FB 		addi	a4,s0,-80
 2117              	.LVL238:
 2118 0c0c B307F700 		add	a5,a4,a5
 2119 0c10 03B507FB 		ld	a0,-80(a5)
 455:src/Tests.cpp ****     }
 2120              		.loc 2 455 29
 2121 0c14 E30205FE 		beqz	a0,.L142
 455:src/Tests.cpp ****     }
 2122              		.loc 2 455 28 discriminator 1
 2123 0c18 97000000 		call	_ZdlPv@plt
 2123      E7800000 
GAS LISTING /tmp/cchyCMA1.s 			page 57


 2124              	.LVL239:
 2125 0c20 6FF09FFD 		j	.L142
 2126              	.L141:
 2127              	.LBE50:
 458:src/Tests.cpp ****     delete (uint64*)tmp2;
 2128              		.loc 2 458 5 is_stmt 1 discriminator 1
 458:src/Tests.cpp ****     delete (uint64*)tmp2;
 2129              		.loc 2 458 21 is_stmt 0 discriminator 1
 2130 0c24 13850400 		mv	a0,s1
 2131 0c28 97000000 		call	_ZdlPv@plt
 2131      E7800000 
 2132              	.LVL240:
 459:src/Tests.cpp ****     delete (uint64*)tmp3;
 2133              		.loc 2 459 5 is_stmt 1 discriminator 1
 459:src/Tests.cpp ****     delete (uint64*)tmp3;
 2134              		.loc 2 459 21 is_stmt 0 discriminator 1
 2135 0c30 13050900 		mv	a0,s2
 2136 0c34 97000000 		call	_ZdlPv@plt
 2136      E7800000 
 2137              	.LVL241:
 460:src/Tests.cpp ****     delete (uint64*)tmp4;
 2138              		.loc 2 460 5 is_stmt 1 discriminator 1
 460:src/Tests.cpp ****     delete (uint64*)tmp4;
 2139              		.loc 2 460 21 is_stmt 0 discriminator 1
 2140 0c3c 13850900 		mv	a0,s3
 2141 0c40 97000000 		call	_ZdlPv@plt
 2141      E7800000 
 2142              	.LVL242:
 461:src/Tests.cpp ****     delete (uint64*)tmp5;
 2143              		.loc 2 461 5 is_stmt 1 discriminator 1
 461:src/Tests.cpp ****     delete (uint64*)tmp5;
 2144              		.loc 2 461 21 is_stmt 0 discriminator 1
 2145 0c48 13050C00 		mv	a0,s8
 2146 0c4c 97000000 		call	_ZdlPv@plt
 2146      E7800000 
 2147              	.LVL243:
 462:src/Tests.cpp **** 
 2148              		.loc 2 462 5 is_stmt 1 discriminator 1
 462:src/Tests.cpp **** 
 2149              		.loc 2 462 21 is_stmt 0 discriminator 1
 2150 0c54 13850B00 		mv	a0,s7
 2151 0c58 97000000 		call	_ZdlPv@plt
 2151      E7800000 
 2152              	.LVL244:
 464:src/Tests.cpp **** }
 2153              		.loc 2 464 5 is_stmt 1 discriminator 1
 464:src/Tests.cpp **** }
 2154              		.loc 2 464 16 is_stmt 0 discriminator 1
 2155 0c60 17050000 		lla	a0,.LC18
 2155      13050500 
 2156 0c68 97000000 		call	_Z11printStringPKc@plt
 2156      E7800000 
 2157              	.LVL245:
 2158 0c70 6FF09FE3 		j	.L125
 2159              		.cfi_endproc
 2160              	.LFE53:
 2162              		.align	2
GAS LISTING /tmp/cchyCMA1.s 			page 58


 2163              		.globl	_Z9consumerAPv
 2165              	_Z9consumerAPv:
 2166              	.LFB54:
 466:src/Tests.cpp **** 
 467:src/Tests.cpp **** char buffer[10];
 468:src/Tests.cpp **** int head = 0;
 469:src/Tests.cpp **** int tail = 0;
 470:src/Tests.cpp **** sem_t spaceAvailable, itemAvailable;
 471:src/Tests.cpp **** char string[11] = "this is ni";
 472:src/Tests.cpp **** 
 473:src/Tests.cpp **** void consumerA(void *arg)
 474:src/Tests.cpp **** {
 2167              		.loc 2 474 1 is_stmt 1
 2168              		.cfi_startproc
 2169              	.LVL246:
 475:src/Tests.cpp ****     while(head!=10)
 2170              		.loc 2 475 5
 2171              		.loc 2 475 15
 2172 0c74 17070000 		lw	a4,.LANCHOR0
 2172      03270700 
 2173 0c7c 9307A000 		li	a5,10
 2174 0c80 630CF706 		beq	a4,a5,.L155
 474:src/Tests.cpp ****     while(head!=10)
 2175              		.loc 2 474 1 is_stmt 0
 2176 0c84 130101FE 		addi	sp,sp,-32
 2177              		.cfi_def_cfa_offset 32
 2178 0c88 233C1100 		sd	ra,24(sp)
 2179 0c8c 23388100 		sd	s0,16(sp)
 2180 0c90 23349100 		sd	s1,8(sp)
 2181              		.cfi_offset 1, -8
 2182              		.cfi_offset 8, -16
 2183              		.cfi_offset 9, -24
 2184 0c94 13040102 		addi	s0,sp,32
 2185              		.cfi_def_cfa 8, 0
 2186              	.LVL247:
 2187              	.L152:
 476:src/Tests.cpp ****     {
 477:src/Tests.cpp ****         sem_wait(itemAvailable);
 2188              		.loc 2 477 9 is_stmt 1
 2189              		.loc 2 477 17 is_stmt 0
 2190 0c98 97040000 		lla	s1,.LANCHOR0
 2190      93840400 
 2191 0ca0 03B58400 		ld	a0,8(s1)
 2192 0ca4 97000000 		call	_Z8sem_waitP4_sem@plt
 2192      E7800000 
 2193              	.LVL248:
 478:src/Tests.cpp ****         putc(buffer[head++]);
 2194              		.loc 2 478 9 is_stmt 1
 2195              		.loc 2 478 25 is_stmt 0
 2196 0cac 83A70400 		lw	a5,0(s1)
 2197 0cb0 1B871700 		addiw	a4,a5,1
 2198 0cb4 23A0E400 		sw	a4,0(s1)
 2199              		.loc 2 478 13
 2200 0cb8 B387F400 		add	a5,s1,a5
 2201 0cbc 03C50701 		lbu	a0,16(a5)
 2202 0cc0 97000000 		call	_Z4putcc@plt
 2202      E7800000 
GAS LISTING /tmp/cchyCMA1.s 			page 59


 2203              	.LVL249:
 479:src/Tests.cpp ****         sem_signal(spaceAvailable);
 2204              		.loc 2 479 9 is_stmt 1
 2205              		.loc 2 479 19 is_stmt 0
 2206 0cc8 03B50402 		ld	a0,32(s1)
 2207 0ccc 97000000 		call	_Z10sem_signalP4_sem@plt
 2207      E7800000 
 2208              	.LVL250:
 475:src/Tests.cpp ****     {
 2209              		.loc 2 475 5 is_stmt 1
 475:src/Tests.cpp ****     {
 2210              		.loc 2 475 15
 2211 0cd4 17070000 		lw	a4,.LANCHOR0
 2211      03270700 
 2212 0cdc 9307A000 		li	a5,10
 2213 0ce0 E31CF7FA 		bne	a4,a5,.L152
 480:src/Tests.cpp ****     }
 481:src/Tests.cpp **** }
 2214              		.loc 2 481 1 is_stmt 0
 2215 0ce4 83308101 		ld	ra,24(sp)
 2216              		.cfi_restore 1
 2217 0ce8 03340101 		ld	s0,16(sp)
 2218              		.cfi_restore 8
 2219              		.cfi_def_cfa 2, 32
 2220 0cec 83348100 		ld	s1,8(sp)
 2221              		.cfi_restore 9
 2222 0cf0 13010102 		addi	sp,sp,32
 2223              		.cfi_def_cfa_offset 0
 2224 0cf4 67800000 		jr	ra
 2225              	.LVL251:
 2226              	.L155:
 2227 0cf8 67800000 		ret
 2228              		.cfi_endproc
 2229              	.LFE54:
 2231              		.align	2
 2232              		.globl	_Z9producerAPv
 2234              	_Z9producerAPv:
 2235              	.LFB55:
 482:src/Tests.cpp **** 
 483:src/Tests.cpp **** void producerA(void *arg)
 484:src/Tests.cpp **** {
 2236              		.loc 2 484 1 is_stmt 1
 2237              		.cfi_startproc
 2238              	.LVL252:
 485:src/Tests.cpp ****     while(tail!=10)
 2239              		.loc 2 485 5
 2240              		.loc 2 485 15
 2241 0cfc 17070000 		lw	a4,.LANCHOR0+40
 2241      03270700 
 2242 0d04 9307A000 		li	a5,10
 2243 0d08 6300F708 		beq	a4,a5,.L164
 484:src/Tests.cpp ****     while(tail!=10)
 2244              		.loc 2 484 1 is_stmt 0
 2245 0d0c 130101FE 		addi	sp,sp,-32
 2246              		.cfi_def_cfa_offset 32
 2247 0d10 233C1100 		sd	ra,24(sp)
 2248 0d14 23388100 		sd	s0,16(sp)
GAS LISTING /tmp/cchyCMA1.s 			page 60


 2249 0d18 23349100 		sd	s1,8(sp)
 2250              		.cfi_offset 1, -8
 2251              		.cfi_offset 8, -16
 2252              		.cfi_offset 9, -24
 2253 0d1c 13040102 		addi	s0,sp,32
 2254              		.cfi_def_cfa 8, 0
 2255              	.LVL253:
 2256              	.L161:
 486:src/Tests.cpp ****     {
 487:src/Tests.cpp ****         sem_wait(spaceAvailable);
 2257              		.loc 2 487 9 is_stmt 1
 2258              		.loc 2 487 17 is_stmt 0
 2259 0d20 97040000 		lla	s1,.LANCHOR0
 2259      93840400 
 2260 0d28 03B50402 		ld	a0,32(s1)
 2261 0d2c 97000000 		call	_Z8sem_waitP4_sem@plt
 2261      E7800000 
 2262              	.LVL254:
 488:src/Tests.cpp ****         buffer[tail] = string[tail];
 2263              		.loc 2 488 9 is_stmt 1
 2264              		.loc 2 488 35 is_stmt 0
 2265 0d34 83A78402 		lw	a5,40(s1)
 2266 0d38 17070000 		lla	a4,.LANCHOR1
 2266      13070700 
 2267 0d40 3307F700 		add	a4,a4,a5
 2268 0d44 83460700 		lbu	a3,0(a4)
 2269              		.loc 2 488 22
 2270 0d48 3387F400 		add	a4,s1,a5
 2271 0d4c 2308D700 		sb	a3,16(a4)
 489:src/Tests.cpp ****         tail++;
 2272              		.loc 2 489 9 is_stmt 1
 2273              		.loc 2 489 13 is_stmt 0
 2274 0d50 9B871700 		addiw	a5,a5,1
 2275 0d54 23A4F402 		sw	a5,40(s1)
 490:src/Tests.cpp ****         sem_signal(itemAvailable);
 2276              		.loc 2 490 9 is_stmt 1
 2277              		.loc 2 490 19 is_stmt 0
 2278 0d58 03B58400 		ld	a0,8(s1)
 2279 0d5c 97000000 		call	_Z10sem_signalP4_sem@plt
 2279      E7800000 
 2280              	.LVL255:
 485:src/Tests.cpp ****     {
 2281              		.loc 2 485 5 is_stmt 1
 485:src/Tests.cpp ****     {
 2282              		.loc 2 485 15
 2283 0d64 17070000 		lw	a4,.LANCHOR0+40
 2283      03270700 
 2284 0d6c 9307A000 		li	a5,10
 2285 0d70 E318F7FA 		bne	a4,a5,.L161
 491:src/Tests.cpp ****     }
 492:src/Tests.cpp **** }
 2286              		.loc 2 492 1 is_stmt 0
 2287 0d74 83308101 		ld	ra,24(sp)
 2288              		.cfi_restore 1
 2289 0d78 03340101 		ld	s0,16(sp)
 2290              		.cfi_restore 8
 2291              		.cfi_def_cfa 2, 32
GAS LISTING /tmp/cchyCMA1.s 			page 61


 2292 0d7c 83348100 		ld	s1,8(sp)
 2293              		.cfi_restore 9
 2294 0d80 13010102 		addi	sp,sp,32
 2295              		.cfi_def_cfa_offset 0
 2296 0d84 67800000 		jr	ra
 2297              	.LVL256:
 2298              	.L164:
 2299 0d88 67800000 		ret
 2300              		.cfi_endproc
 2301              	.LFE55:
 2303              		.align	2
 2304              		.globl	_Z8semTest1v
 2306              	_Z8semTest1v:
 2307              	.LFB56:
 493:src/Tests.cpp **** 
 494:src/Tests.cpp **** void semTest1()
 495:src/Tests.cpp **** {
 2308              		.loc 2 495 1 is_stmt 1
 2309              		.cfi_startproc
 2310 0d8c 130101FF 		addi	sp,sp,-16
 2311              		.cfi_def_cfa_offset 16
 2312 0d90 23348100 		sd	s0,8(sp)
 2313              		.cfi_offset 8, -8
 2314 0d94 13040101 		addi	s0,sp,16
 2315              		.cfi_def_cfa 8, 0
 496:src/Tests.cpp ****     /*sem_open(&spaceAvailable, 10);
 497:src/Tests.cpp **** 
 498:src/Tests.cpp ****     sem_open(&itemAvailable, 0);
 499:src/Tests.cpp **** 
 500:src/Tests.cpp ****     thread_t threadA, threadB;
 501:src/Tests.cpp **** 
 502:src/Tests.cpp ****     thread_create(&threadA, producerA, nullptr);
 503:src/Tests.cpp **** 
 504:src/Tests.cpp ****     thread_create(&threadB, consumerA, nullptr);
 505:src/Tests.cpp **** 
 506:src/Tests.cpp ****     while(!((PCB*)threadA)->isFinished() || !((PCB*)threadA)->isFinished())
 507:src/Tests.cpp ****         thread_dispatch();*/
 508:src/Tests.cpp **** }
 2316              		.loc 2 508 1 is_stmt 0
 2317 0d98 03348100 		ld	s0,8(sp)
 2318              		.cfi_restore 8
 2319              		.cfi_def_cfa 2, 16
 2320 0d9c 13010101 		addi	sp,sp,16
 2321              		.cfi_def_cfa_offset 0
 2322 0da0 67800000 		jr	ra
 2323              		.cfi_endproc
 2324              	.LFE56:
 2326              		.align	2
 2327              		.globl	_Z12consoleTest1v
 2329              	_Z12consoleTest1v:
 2330              	.LFB57:
 509:src/Tests.cpp **** 
 510:src/Tests.cpp **** void consoleTest1()
 511:src/Tests.cpp **** {
 2331              		.loc 2 511 1 is_stmt 1
 2332              		.cfi_startproc
 2333 0da4 130101FE 		addi	sp,sp,-32
GAS LISTING /tmp/cchyCMA1.s 			page 62


 2334              		.cfi_def_cfa_offset 32
 2335 0da8 233C1100 		sd	ra,24(sp)
 2336 0dac 23388100 		sd	s0,16(sp)
 2337 0db0 23349100 		sd	s1,8(sp)
 2338              		.cfi_offset 1, -8
 2339              		.cfi_offset 8, -16
 2340              		.cfi_offset 9, -24
 2341 0db4 13040102 		addi	s0,sp,32
 2342              		.cfi_def_cfa 8, 0
 512:src/Tests.cpp ****     for(int i = 0; i < 100;i++)
 2343              		.loc 2 512 5
 2344              	.LVL257:
 2345              	.LBB51:
 2346              		.loc 2 512 13 is_stmt 0
 2347 0db8 93040000 		li	s1,0
 2348              	.LVL258:
 2349              	.L169:
 2350              		.loc 2 512 22 is_stmt 1 discriminator 3
 2351 0dbc 93073006 		li	a5,99
 2352 0dc0 63CA9700 		bgt	s1,a5,.L167
 513:src/Tests.cpp ****     {
 514:src/Tests.cpp ****         getc();
 2353              		.loc 2 514 9 discriminator 2
 2354              		.loc 2 514 13 is_stmt 0 discriminator 2
 2355 0dc4 97000000 		call	_Z4getcv@plt
 2355      E7800000 
 2356              	.LVL259:
 512:src/Tests.cpp ****     for(int i = 0; i < 100;i++)
 2357              		.loc 2 512 5 is_stmt 1 discriminator 2
 2358 0dcc 9B841400 		addiw	s1,s1,1
 2359              	.LVL260:
 2360 0dd0 6FF0DFFE 		j	.L169
 2361              	.LVL261:
 2362              	.L167:
 2363              	.LBE51:
 515:src/Tests.cpp ****     }
 516:src/Tests.cpp **** }
 2364              		.loc 2 516 1 is_stmt 0
 2365 0dd4 83308101 		ld	ra,24(sp)
 2366              		.cfi_restore 1
 2367 0dd8 03340101 		ld	s0,16(sp)
 2368              		.cfi_restore 8
 2369              		.cfi_def_cfa 2, 32
 2370 0ddc 83348100 		ld	s1,8(sp)
 2371              		.cfi_restore 9
 2372              	.LVL262:
 2373 0de0 13010102 		addi	sp,sp,32
 2374              		.cfi_def_cfa_offset 0
 2375 0de4 67800000 		jr	ra
 2376              		.cfi_endproc
 2377              	.LFE57:
 2379              		.align	2
 2380              		.globl	_Z12consoleTestsv
 2382              	_Z12consoleTestsv:
 2383              	.LFB58:
 517:src/Tests.cpp **** 
 518:src/Tests.cpp **** void consoleTests()
GAS LISTING /tmp/cchyCMA1.s 			page 63


 519:src/Tests.cpp **** {
 2384              		.loc 2 519 1 is_stmt 1
 2385              		.cfi_startproc
 2386 0de8 130101FF 		addi	sp,sp,-16
 2387              		.cfi_def_cfa_offset 16
 2388 0dec 23341100 		sd	ra,8(sp)
 2389 0df0 23308100 		sd	s0,0(sp)
 2390              		.cfi_offset 1, -8
 2391              		.cfi_offset 8, -16
 2392 0df4 13040101 		addi	s0,sp,16
 2393              		.cfi_def_cfa 8, 0
 520:src/Tests.cpp ****     consoleTest1();
 2394              		.loc 2 520 5
 2395              		.loc 2 520 17 is_stmt 0
 2396 0df8 97000000 		call	_Z12consoleTest1v
 2396      E7800000 
 2397              	.LVL263:
 521:src/Tests.cpp **** }
 2398              		.loc 2 521 1
 2399 0e00 83308100 		ld	ra,8(sp)
 2400              		.cfi_restore 1
 2401 0e04 03340100 		ld	s0,0(sp)
 2402              		.cfi_restore 8
 2403              		.cfi_def_cfa 2, 16
 2404 0e08 13010101 		addi	sp,sp,16
 2405              		.cfi_def_cfa_offset 0
 2406 0e0c 67800000 		jr	ra
 2407              		.cfi_endproc
 2408              	.LFE58:
 2410              		.align	2
 2411              		.globl	_Z15changeModeTest1v
 2413              	_Z15changeModeTest1v:
 2414              	.LFB59:
 522:src/Tests.cpp **** 
 523:src/Tests.cpp **** 
 524:src/Tests.cpp **** void changeModeTest1()
 525:src/Tests.cpp **** {
 2415              		.loc 2 525 1 is_stmt 1
 2416              		.cfi_startproc
 2417 0e10 130101FF 		addi	sp,sp,-16
 2418              		.cfi_def_cfa_offset 16
 2419 0e14 23348100 		sd	s0,8(sp)
 2420              		.cfi_offset 8, -8
 2421 0e18 13040101 		addi	s0,sp,16
 2422              		.cfi_def_cfa 8, 0
 526:src/Tests.cpp ****     // u user niti smo
 527:src/Tests.cpp ****     __asm__ volatile("csrr a0, sstatus"); //treba da pukne
 2423              		.loc 2 527 5
 2424              		.loc 2 527 41 is_stmt 0
 2425              	#APP
 2426              	# 527 "src/Tests.cpp" 1
 528              	}
 2427              		csrr a0, sstatus
 2428              	# 0 "" 2
 2429              		.loc 2 528 1
 2430              	#NO_APP
 2431 0e20 03348100 		ld	s0,8(sp)
GAS LISTING /tmp/cchyCMA1.s 			page 64


 2432              		.cfi_restore 8
 2433              		.cfi_def_cfa 2, 16
 2434 0e24 13010101 		addi	sp,sp,16
 2435              		.cfi_def_cfa_offset 0
 2436 0e28 67800000 		jr	ra
 2437              		.cfi_endproc
 2438              	.LFE59:
 2440              		.align	2
 2441              		.globl	_Z15changeModeTestsv
 2443              	_Z15changeModeTestsv:
 2444              	.LFB60:
 529:src/Tests.cpp **** 
 530:src/Tests.cpp **** void changeModeTests()
 531:src/Tests.cpp **** {
 2445              		.loc 2 531 1 is_stmt 1
 2446              		.cfi_startproc
 2447 0e2c 130101FF 		addi	sp,sp,-16
 2448              		.cfi_def_cfa_offset 16
 2449 0e30 23341100 		sd	ra,8(sp)
 2450 0e34 23308100 		sd	s0,0(sp)
 2451              		.cfi_offset 1, -8
 2452              		.cfi_offset 8, -16
 2453 0e38 13040101 		addi	s0,sp,16
 2454              		.cfi_def_cfa 8, 0
 532:src/Tests.cpp ****     changeModeTest1();
 2455              		.loc 2 532 5
 2456              		.loc 2 532 20 is_stmt 0
 2457 0e3c 97000000 		call	_Z15changeModeTest1v
 2457      E7800000 
 2458              	.LVL264:
 533:src/Tests.cpp **** }
 2459              		.loc 2 533 1
 2460 0e44 83308100 		ld	ra,8(sp)
 2461              		.cfi_restore 1
 2462 0e48 03340100 		ld	s0,0(sp)
 2463              		.cfi_restore 8
 2464              		.cfi_def_cfa 2, 16
 2465 0e4c 13010101 		addi	sp,sp,16
 2466              		.cfi_def_cfa_offset 0
 2467 0e50 67800000 		jr	ra
 2468              		.cfi_endproc
 2469              	.LFE60:
 2471              		.weak	_ZTV14PeriodicThread
 2472              		.section	.data.rel.ro.local._ZTV14PeriodicThread,"awG",@progbits,_ZTV14PeriodicThread,comdat
 2473              		.align	3
 2476              	_ZTV14PeriodicThread:
 2477 0000 00000000 		.dword	0
 2477      00000000 
 2478 0008 00000000 		.dword	0
 2478      00000000 
 2479 0010 00000000 		.dword	_ZN14PeriodicThreadD1Ev
 2479      00000000 
 2480 0018 00000000 		.dword	_ZN14PeriodicThreadD0Ev
 2480      00000000 
 2481 0020 00000000 		.dword	_ZN6Thread3runEv
 2481      00000000 
 2482 0028 00000000 		.dword	_ZN14PeriodicThread18periodicActivationEv
GAS LISTING /tmp/cchyCMA1.s 			page 65


 2482      00000000 
 2483              		.weak	_ZTV12TestPeriodic
 2484              		.section	.data.rel.ro.local._ZTV12TestPeriodic,"awG",@progbits,_ZTV12TestPeriodic,comdat
 2485              		.align	3
 2488              	_ZTV12TestPeriodic:
 2489 0000 00000000 		.dword	0
 2489      00000000 
 2490 0008 00000000 		.dword	0
 2490      00000000 
 2491 0010 00000000 		.dword	_ZN12TestPeriodicD1Ev
 2491      00000000 
 2492 0018 00000000 		.dword	_ZN12TestPeriodicD0Ev
 2492      00000000 
 2493 0020 00000000 		.dword	_ZN6Thread3runEv
 2493      00000000 
 2494 0028 00000000 		.dword	_ZN12TestPeriodic18periodicActivationEv
 2494      00000000 
 2495              		.globl	string
 2496              		.globl	itemAvailable
 2497              		.globl	spaceAvailable
 2498              		.globl	tail
 2499              		.globl	head
 2500              		.globl	buffer
 2501              		.data
 2502              		.align	3
 2503              		.set	.LANCHOR1,. + 0
 2506              	string:
 2507 0000 74686973 		.string	"this is ni"
 2507      20697320 
 2507      6E6900
 2508              		.bss
 2509              		.align	3
 2510              		.set	.LANCHOR0,. + 0
 2513              	head:
 2514 0000 00000000 		.zero	4
 2515 0004 00000000 		.zero	4
 2518              	itemAvailable:
 2519 0008 00000000 		.zero	8
 2519      00000000 
 2522              	buffer:
 2523 0010 00000000 		.zero	10
 2523      00000000 
 2523      0000
 2524 001a 00000000 		.zero	6
 2524      0000
 2527              	spaceAvailable:
 2528 0020 00000000 		.zero	8
 2528      00000000 
 2531              	tail:
 2532 0028 00000000 		.zero	4
 2533              		.text
 2534              	.Letext0:
 2535              		.file 4 "src/../h/../lib/hw.h"
 2536              		.file 5 "src/../h/syscall_c.hpp"
 2537              		.file 6 "src/../h/_sem.hpp"
 2538              		.file 7 "src/../test/printing.hpp"
 7951              		.align	3
GAS LISTING /tmp/cchyCMA1.s 			page 66


 7954              	DW.ref.__gxx_personality_v0:
 7955 0000 00000000 		.dword	__gxx_personality_v0
 7955      00000000 
 7956              		.ident	"GCC: (Ubuntu 9.3.0-17ubuntu1~20.04) 9.3.0"
 7957              		.section	.note.GNU-stack,"",@progbits
GAS LISTING /tmp/cchyCMA1.s 			page 67


DEFINED SYMBOLS
                            *ABS*:0000000000000000 Tests.cpp
     /tmp/cchyCMA1.s:10     .text._ZN6Thread3runEv:0000000000000000 _ZN6Thread3runEv
     /tmp/cchyCMA1.s:14     .text._ZN6Thread3runEv:0000000000000000 .L0 
     /tmp/cchyCMA1.s:16     .text._ZN6Thread3runEv:0000000000000000 .L0 
     /tmp/cchyCMA1.s:17     .text._ZN6Thread3runEv:0000000000000004 .L0 
     /tmp/cchyCMA1.s:19     .text._ZN6Thread3runEv:0000000000000008 .L0 
     /tmp/cchyCMA1.s:21     .text._ZN6Thread3runEv:000000000000000c .L0 
     /tmp/cchyCMA1.s:23     .text._ZN6Thread3runEv:000000000000000c .L0 
     /tmp/cchyCMA1.s:24     .text._ZN6Thread3runEv:0000000000000010 .L0 
     /tmp/cchyCMA1.s:25     .text._ZN6Thread3runEv:0000000000000010 .L0 
     /tmp/cchyCMA1.s:27     .text._ZN6Thread3runEv:0000000000000014 .L0 
     /tmp/cchyCMA1.s:29     .text._ZN6Thread3runEv:0000000000000018 .L0 
     /tmp/cchyCMA1.s:36     .text._ZN14PeriodicThread18periodicActivationEv:0000000000000000 _ZN14PeriodicThread18periodicActivationEv
     /tmp/cchyCMA1.s:39     .text._ZN14PeriodicThread18periodicActivationEv:0000000000000000 .L0 
     /tmp/cchyCMA1.s:41     .text._ZN14PeriodicThread18periodicActivationEv:0000000000000000 .L0 
     /tmp/cchyCMA1.s:42     .text._ZN14PeriodicThread18periodicActivationEv:0000000000000004 .L0 
     /tmp/cchyCMA1.s:44     .text._ZN14PeriodicThread18periodicActivationEv:0000000000000008 .L0 
     /tmp/cchyCMA1.s:46     .text._ZN14PeriodicThread18periodicActivationEv:000000000000000c .L0 
     /tmp/cchyCMA1.s:48     .text._ZN14PeriodicThread18periodicActivationEv:000000000000000c .L0 
     /tmp/cchyCMA1.s:49     .text._ZN14PeriodicThread18periodicActivationEv:0000000000000010 .L0 
     /tmp/cchyCMA1.s:50     .text._ZN14PeriodicThread18periodicActivationEv:0000000000000010 .L0 
     /tmp/cchyCMA1.s:52     .text._ZN14PeriodicThread18periodicActivationEv:0000000000000014 .L0 
     /tmp/cchyCMA1.s:54     .text._ZN14PeriodicThread18periodicActivationEv:0000000000000018 .L0 
     /tmp/cchyCMA1.s:68     .text:0000000000000000 _ZN12TestPeriodic18periodicActivationEv
     /tmp/cchyCMA1.s:72     .text:0000000000000000 .L0 
     /tmp/cchyCMA1.s:74     .text:0000000000000000 .L0 
     /tmp/cchyCMA1.s:75     .text:0000000000000004 .L0 
     /tmp/cchyCMA1.s:79     .text:0000000000000010 .L0 
     /tmp/cchyCMA1.s:80     .text:0000000000000010 .L0 
     /tmp/cchyCMA1.s:81     .text:0000000000000010 .L0 
     /tmp/cchyCMA1.s:83     .text:0000000000000014 .L0 
     /tmp/cchyCMA1.s:87     .text:0000000000000014 .L0 
     /tmp/cchyCMA1.s:88     .text:0000000000000014 .L0 
     /tmp/cchyCMA1.s:92     .text:0000000000000018 .L0 
     /tmp/cchyCMA1.s:95     .text:0000000000000020 .L0 
     /tmp/cchyCMA1.s:96     .text:0000000000000020 .L0 
     /tmp/cchyCMA1.s:100    .text:0000000000000030 .L0 
     /tmp/cchyCMA1.s:101    .text:0000000000000030 .L0 
     /tmp/cchyCMA1.s:107    .text:0000000000000044 .L0 
     /tmp/cchyCMA1.s:108    .text:0000000000000044 .L0 
     /tmp/cchyCMA1.s:112    .text:0000000000000054 .L0 
     /tmp/cchyCMA1.s:119    .text:000000000000005c .L0 
     /tmp/cchyCMA1.s:120    .text:0000000000000060 .L0 
     /tmp/cchyCMA1.s:122    .text:0000000000000064 .L0 
     /tmp/cchyCMA1.s:123    .text:0000000000000064 .L0 
     /tmp/cchyCMA1.s:125    .text:0000000000000068 .L0 
     /tmp/cchyCMA1.s:128    .text:000000000000006c .L0 
     /tmp/cchyCMA1.s:130    .text:0000000000000070 .L0 
     /tmp/cchyCMA1.s:137    .text._ZN14PeriodicThreadD2Ev:0000000000000000 _ZN14PeriodicThreadD2Ev
     /tmp/cchyCMA1.s:140    .text._ZN14PeriodicThreadD2Ev:0000000000000000 .L0 
     /tmp/cchyCMA1.s:142    .text._ZN14PeriodicThreadD2Ev:0000000000000000 .L0 
     /tmp/cchyCMA1.s:143    .text._ZN14PeriodicThreadD2Ev:0000000000000004 .L0 
     /tmp/cchyCMA1.s:146    .text._ZN14PeriodicThreadD2Ev:000000000000000c .L0 
     /tmp/cchyCMA1.s:147    .text._ZN14PeriodicThreadD2Ev:000000000000000c .L0 
     /tmp/cchyCMA1.s:149    .text._ZN14PeriodicThreadD2Ev:0000000000000010 .L0 
     /tmp/cchyCMA1.s:2476   .data.rel.ro.local._ZTV14PeriodicThread:0000000000000000 _ZTV14PeriodicThread
GAS LISTING /tmp/cchyCMA1.s 			page 68


     /tmp/cchyCMA1.s:152    .text._ZN14PeriodicThreadD2Ev:0000000000000010 .L0 
     /tmp/cchyCMA1.s:158    .text._ZN14PeriodicThreadD2Ev:0000000000000028 .L0 
     /tmp/cchyCMA1.s:160    .text._ZN14PeriodicThreadD2Ev:000000000000002c .L0 
     /tmp/cchyCMA1.s:161    .text._ZN14PeriodicThreadD2Ev:000000000000002c .L0 
     /tmp/cchyCMA1.s:163    .text._ZN14PeriodicThreadD2Ev:0000000000000030 .L0 
     /tmp/cchyCMA1.s:165    .text._ZN14PeriodicThreadD2Ev:0000000000000034 .L0 
     /tmp/cchyCMA1.s:137    .text._ZN14PeriodicThreadD2Ev:0000000000000000 _ZN14PeriodicThreadD1Ev
     /tmp/cchyCMA1.s:174    .text._ZN14PeriodicThreadD0Ev:0000000000000000 _ZN14PeriodicThreadD0Ev
     /tmp/cchyCMA1.s:177    .text._ZN14PeriodicThreadD0Ev:0000000000000000 .L0 
     /tmp/cchyCMA1.s:179    .text._ZN14PeriodicThreadD0Ev:0000000000000000 .L0 
     /tmp/cchyCMA1.s:180    .text._ZN14PeriodicThreadD0Ev:0000000000000004 .L0 
     /tmp/cchyCMA1.s:184    .text._ZN14PeriodicThreadD0Ev:0000000000000010 .L0 
     /tmp/cchyCMA1.s:185    .text._ZN14PeriodicThreadD0Ev:0000000000000010 .L0 
     /tmp/cchyCMA1.s:186    .text._ZN14PeriodicThreadD0Ev:0000000000000010 .L0 
     /tmp/cchyCMA1.s:188    .text._ZN14PeriodicThreadD0Ev:0000000000000014 .L0 
     /tmp/cchyCMA1.s:194    .text._ZN14PeriodicThreadD0Ev:0000000000000018 .L0 
     /tmp/cchyCMA1.s:204    .text._ZN14PeriodicThreadD0Ev:000000000000003c .L0 
     /tmp/cchyCMA1.s:206    .text._ZN14PeriodicThreadD0Ev:0000000000000040 .L0 
     /tmp/cchyCMA1.s:207    .text._ZN14PeriodicThreadD0Ev:0000000000000040 .L0 
     /tmp/cchyCMA1.s:209    .text._ZN14PeriodicThreadD0Ev:0000000000000044 .L0 
     /tmp/cchyCMA1.s:212    .text._ZN14PeriodicThreadD0Ev:0000000000000048 .L0 
     /tmp/cchyCMA1.s:214    .text._ZN14PeriodicThreadD0Ev:000000000000004c .L0 
     /tmp/cchyCMA1.s:221    .text._ZN12TestPeriodicD2Ev:0000000000000000 _ZN12TestPeriodicD2Ev
     /tmp/cchyCMA1.s:225    .text._ZN12TestPeriodicD2Ev:0000000000000000 .L0 
     /tmp/cchyCMA1.s:227    .text._ZN12TestPeriodicD2Ev:0000000000000000 .L0 
     /tmp/cchyCMA1.s:228    .text._ZN12TestPeriodicD2Ev:0000000000000004 .L0 
     /tmp/cchyCMA1.s:231    .text._ZN12TestPeriodicD2Ev:000000000000000c .L0 
     /tmp/cchyCMA1.s:232    .text._ZN12TestPeriodicD2Ev:000000000000000c .L0 
     /tmp/cchyCMA1.s:234    .text._ZN12TestPeriodicD2Ev:0000000000000010 .L0 
     /tmp/cchyCMA1.s:239    .text._ZN12TestPeriodicD2Ev:0000000000000010 .L0 
     /tmp/cchyCMA1.s:246    .text._ZN12TestPeriodicD2Ev:0000000000000024 .L0 
     /tmp/cchyCMA1.s:247    .text._ZN12TestPeriodicD2Ev:0000000000000028 .L0 
     /tmp/cchyCMA1.s:249    .text._ZN12TestPeriodicD2Ev:000000000000002c .L0 
     /tmp/cchyCMA1.s:250    .text._ZN12TestPeriodicD2Ev:000000000000002c .L0 
     /tmp/cchyCMA1.s:252    .text._ZN12TestPeriodicD2Ev:0000000000000030 .L0 
     /tmp/cchyCMA1.s:254    .text._ZN12TestPeriodicD2Ev:0000000000000034 .L0 
     /tmp/cchyCMA1.s:221    .text._ZN12TestPeriodicD2Ev:0000000000000000 _ZN12TestPeriodicD1Ev
     /tmp/cchyCMA1.s:263    .text._ZN12TestPeriodicD0Ev:0000000000000000 _ZN12TestPeriodicD0Ev
     /tmp/cchyCMA1.s:266    .text._ZN12TestPeriodicD0Ev:0000000000000000 .L0 
     /tmp/cchyCMA1.s:268    .text._ZN12TestPeriodicD0Ev:0000000000000000 .L0 
     /tmp/cchyCMA1.s:269    .text._ZN12TestPeriodicD0Ev:0000000000000004 .L0 
     /tmp/cchyCMA1.s:273    .text._ZN12TestPeriodicD0Ev:0000000000000010 .L0 
     /tmp/cchyCMA1.s:274    .text._ZN12TestPeriodicD0Ev:0000000000000010 .L0 
     /tmp/cchyCMA1.s:275    .text._ZN12TestPeriodicD0Ev:0000000000000010 .L0 
     /tmp/cchyCMA1.s:277    .text._ZN12TestPeriodicD0Ev:0000000000000014 .L0 
     /tmp/cchyCMA1.s:284    .text._ZN12TestPeriodicD0Ev:0000000000000018 .L0 
     /tmp/cchyCMA1.s:292    .text._ZN12TestPeriodicD0Ev:000000000000002c .L0 
     /tmp/cchyCMA1.s:296    .text._ZN12TestPeriodicD0Ev:000000000000003c .L0 
     /tmp/cchyCMA1.s:298    .text._ZN12TestPeriodicD0Ev:0000000000000040 .L0 
     /tmp/cchyCMA1.s:299    .text._ZN12TestPeriodicD0Ev:0000000000000040 .L0 
     /tmp/cchyCMA1.s:301    .text._ZN12TestPeriodicD0Ev:0000000000000044 .L0 
     /tmp/cchyCMA1.s:304    .text._ZN12TestPeriodicD0Ev:0000000000000048 .L0 
     /tmp/cchyCMA1.s:306    .text._ZN12TestPeriodicD0Ev:000000000000004c .L0 
     /tmp/cchyCMA1.s:317    .text:0000000000000070 _Z4idlePv
     /tmp/cchyCMA1.s:320    .text:0000000000000070 .L0 
     /tmp/cchyCMA1.s:322    .text:0000000000000070 .L0 
     /tmp/cchyCMA1.s:323    .text:0000000000000074 .L0 
GAS LISTING /tmp/cchyCMA1.s 			page 69


     /tmp/cchyCMA1.s:326    .text:000000000000007c .L0 
     /tmp/cchyCMA1.s:327    .text:000000000000007c .L0 
     /tmp/cchyCMA1.s:329    .text:0000000000000080 .L0 
     /tmp/cchyCMA1.s:333    .text:0000000000000080 .L0 
     /tmp/cchyCMA1.s:334    .text:0000000000000080 .L0 
     /tmp/cchyCMA1.s:335    .text:0000000000000080 .L0 
     /tmp/cchyCMA1.s:339    .text:0000000000000090 .L0 
     /tmp/cchyCMA1.s:340    .text:0000000000000090 .L0 
     /tmp/cchyCMA1.s:343    .text:0000000000000098 .L0 
     /tmp/cchyCMA1.s:344    .text:000000000000009c .L0 
     /tmp/cchyCMA1.s:355    .text:000000000000009c _Z15thread1FunctionPv
     /tmp/cchyCMA1.s:358    .text:000000000000009c .L0 
     /tmp/cchyCMA1.s:360    .text:000000000000009c .L0 
     /tmp/cchyCMA1.s:361    .text:00000000000000a0 .L0 
     /tmp/cchyCMA1.s:365    .text:00000000000000ac .L0 
     /tmp/cchyCMA1.s:366    .text:00000000000000ac .L0 
     /tmp/cchyCMA1.s:367    .text:00000000000000ac .L0 
     /tmp/cchyCMA1.s:369    .text:00000000000000b0 .L0 
     /tmp/cchyCMA1.s:371    .text:00000000000000b0 .L0 
     /tmp/cchyCMA1.s:372    .text:00000000000000b0 .L0 
     /tmp/cchyCMA1.s:377    .text:00000000000000c0 .L0 
     /tmp/cchyCMA1.s:379    .text:00000000000000c0 .L0 
     /tmp/cchyCMA1.s:380    .text:00000000000000c0 .L0 
     /tmp/cchyCMA1.s:385    .text:00000000000000c8 .L0 
     /tmp/cchyCMA1.s:386    .text:00000000000000c8 .L0 
     /tmp/cchyCMA1.s:390    .text:00000000000000d0 .L0 
     /tmp/cchyCMA1.s:391    .text:00000000000000d0 .L0 
     /tmp/cchyCMA1.s:395    .text:00000000000000e0 .L0 
     /tmp/cchyCMA1.s:396    .text:00000000000000e0 .L0 
     /tmp/cchyCMA1.s:402    .text:00000000000000f4 .L0 
     /tmp/cchyCMA1.s:403    .text:00000000000000f4 .L0 
     /tmp/cchyCMA1.s:407    .text:0000000000000104 .L0 
     /tmp/cchyCMA1.s:411    .text:0000000000000108 .L0 
     /tmp/cchyCMA1.s:415    .text:0000000000000114 .L0 
     /tmp/cchyCMA1.s:416    .text:0000000000000114 .L0 
     /tmp/cchyCMA1.s:419    .text:000000000000011c .L0 
     /tmp/cchyCMA1.s:421    .text:0000000000000120 .L0 
     /tmp/cchyCMA1.s:426    .text:0000000000000128 .L0 
     /tmp/cchyCMA1.s:427    .text:000000000000012c .L0 
     /tmp/cchyCMA1.s:429    .text:0000000000000130 .L0 
     /tmp/cchyCMA1.s:430    .text:0000000000000130 .L0 
     /tmp/cchyCMA1.s:432    .text:0000000000000134 .L0 
     /tmp/cchyCMA1.s:435    .text:0000000000000138 .L0 
     /tmp/cchyCMA1.s:437    .text:000000000000013c .L0 
     /tmp/cchyCMA1.s:451    .text:000000000000013c _Z15thread2FunctionPv
     /tmp/cchyCMA1.s:454    .text:000000000000013c .L0 
     /tmp/cchyCMA1.s:456    .text:000000000000013c .L0 
     /tmp/cchyCMA1.s:457    .text:0000000000000140 .L0 
     /tmp/cchyCMA1.s:461    .text:000000000000014c .L0 
     /tmp/cchyCMA1.s:462    .text:000000000000014c .L0 
     /tmp/cchyCMA1.s:463    .text:000000000000014c .L0 
     /tmp/cchyCMA1.s:465    .text:0000000000000150 .L0 
     /tmp/cchyCMA1.s:467    .text:0000000000000150 .L0 
     /tmp/cchyCMA1.s:468    .text:0000000000000150 .L0 
     /tmp/cchyCMA1.s:473    .text:0000000000000160 .L0 
     /tmp/cchyCMA1.s:475    .text:0000000000000160 .L0 
     /tmp/cchyCMA1.s:476    .text:0000000000000160 .L0 
GAS LISTING /tmp/cchyCMA1.s 			page 70


     /tmp/cchyCMA1.s:481    .text:0000000000000168 .L0 
     /tmp/cchyCMA1.s:482    .text:0000000000000168 .L0 
     /tmp/cchyCMA1.s:486    .text:0000000000000170 .L0 
     /tmp/cchyCMA1.s:487    .text:0000000000000170 .L0 
     /tmp/cchyCMA1.s:491    .text:0000000000000180 .L0 
     /tmp/cchyCMA1.s:492    .text:0000000000000180 .L0 
     /tmp/cchyCMA1.s:498    .text:0000000000000194 .L0 
     /tmp/cchyCMA1.s:499    .text:0000000000000194 .L0 
     /tmp/cchyCMA1.s:503    .text:00000000000001a4 .L0 
     /tmp/cchyCMA1.s:507    .text:00000000000001a8 .L0 
     /tmp/cchyCMA1.s:511    .text:00000000000001b4 .L0 
     /tmp/cchyCMA1.s:512    .text:00000000000001b4 .L0 
     /tmp/cchyCMA1.s:515    .text:00000000000001bc .L0 
     /tmp/cchyCMA1.s:517    .text:00000000000001c0 .L0 
     /tmp/cchyCMA1.s:522    .text:00000000000001c8 .L0 
     /tmp/cchyCMA1.s:523    .text:00000000000001cc .L0 
     /tmp/cchyCMA1.s:525    .text:00000000000001d0 .L0 
     /tmp/cchyCMA1.s:526    .text:00000000000001d0 .L0 
     /tmp/cchyCMA1.s:528    .text:00000000000001d4 .L0 
     /tmp/cchyCMA1.s:531    .text:00000000000001d8 .L0 
     /tmp/cchyCMA1.s:533    .text:00000000000001dc .L0 
     /tmp/cchyCMA1.s:539    .text:00000000000001dc _Z20thread2FunctionTest2Pv
     /tmp/cchyCMA1.s:542    .text:00000000000001dc .L0 
     /tmp/cchyCMA1.s:544    .text:00000000000001dc .L0 
     /tmp/cchyCMA1.s:545    .text:00000000000001e0 .L0 
     /tmp/cchyCMA1.s:549    .text:00000000000001ec .L0 
     /tmp/cchyCMA1.s:550    .text:00000000000001ec .L0 
     /tmp/cchyCMA1.s:551    .text:00000000000001ec .L0 
     /tmp/cchyCMA1.s:553    .text:00000000000001f0 .L0 
     /tmp/cchyCMA1.s:555    .text:00000000000001f0 .L0 
     /tmp/cchyCMA1.s:556    .text:00000000000001f0 .L0 
     /tmp/cchyCMA1.s:561    .text:0000000000000200 .L0 
     /tmp/cchyCMA1.s:563    .text:0000000000000200 .L0 
     /tmp/cchyCMA1.s:564    .text:0000000000000200 .L0 
     /tmp/cchyCMA1.s:569    .text:0000000000000208 .L0 
     /tmp/cchyCMA1.s:570    .text:0000000000000208 .L0 
     /tmp/cchyCMA1.s:575    .text:0000000000000214 .L0 
     /tmp/cchyCMA1.s:576    .text:0000000000000214 .L0 
     /tmp/cchyCMA1.s:580    .text:000000000000021c .L0 
     /tmp/cchyCMA1.s:581    .text:000000000000021c .L0 
     /tmp/cchyCMA1.s:585    .text:000000000000022c .L0 
     /tmp/cchyCMA1.s:586    .text:000000000000022c .L0 
     /tmp/cchyCMA1.s:592    .text:0000000000000240 .L0 
     /tmp/cchyCMA1.s:593    .text:0000000000000240 .L0 
     /tmp/cchyCMA1.s:597    .text:0000000000000250 .L0 
     /tmp/cchyCMA1.s:601    .text:0000000000000254 .L0 
     /tmp/cchyCMA1.s:605    .text:0000000000000260 .L0 
     /tmp/cchyCMA1.s:609    .text:0000000000000268 .L0 
     /tmp/cchyCMA1.s:610    .text:0000000000000268 .L0 
     /tmp/cchyCMA1.s:613    .text:0000000000000270 .L0 
     /tmp/cchyCMA1.s:615    .text:0000000000000274 .L0 
     /tmp/cchyCMA1.s:620    .text:000000000000027c .L0 
     /tmp/cchyCMA1.s:621    .text:0000000000000280 .L0 
     /tmp/cchyCMA1.s:623    .text:0000000000000284 .L0 
     /tmp/cchyCMA1.s:624    .text:0000000000000284 .L0 
     /tmp/cchyCMA1.s:626    .text:0000000000000288 .L0 
     /tmp/cchyCMA1.s:629    .text:000000000000028c .L0 
GAS LISTING /tmp/cchyCMA1.s 			page 71


     /tmp/cchyCMA1.s:631    .text:0000000000000290 .L0 
     /tmp/cchyCMA1.s:637    .text:0000000000000290 _Z11threadTest1v
     /tmp/cchyCMA1.s:640    .text:0000000000000290 .L0 
     /tmp/cchyCMA1.s:641    .text:0000000000000290 .L0 
     /tmp/cchyCMA1.s:642    .text:0000000000000294 .L0 
     /tmp/cchyCMA1.s:644    .text:0000000000000298 .L0 
     /tmp/cchyCMA1.s:646    .text:000000000000029c .L0 
     /tmp/cchyCMA1.s:648    .text:000000000000029c .L0 
     /tmp/cchyCMA1.s:649    .text:00000000000002a0 .L0 
     /tmp/cchyCMA1.s:650    .text:00000000000002a0 .L0 
     /tmp/cchyCMA1.s:652    .text:00000000000002a4 .L0 
     /tmp/cchyCMA1.s:654    .text:00000000000002a8 .L0 
     /tmp/cchyCMA1.s:660    .text:00000000000002a8 _Z11threadTest2v
     /tmp/cchyCMA1.s:663    .text:00000000000002a8 .L0 
     /tmp/cchyCMA1.s:664    .text:00000000000002a8 .L0 
     /tmp/cchyCMA1.s:665    .text:00000000000002ac .L0 
     /tmp/cchyCMA1.s:667    .text:00000000000002b0 .L0 
     /tmp/cchyCMA1.s:669    .text:00000000000002b4 .L0 
     /tmp/cchyCMA1.s:671    .text:00000000000002b4 .L0 
     /tmp/cchyCMA1.s:672    .text:00000000000002b8 .L0 
     /tmp/cchyCMA1.s:673    .text:00000000000002b8 .L0 
     /tmp/cchyCMA1.s:675    .text:00000000000002bc .L0 
     /tmp/cchyCMA1.s:677    .text:00000000000002c0 .L0 
     /tmp/cchyCMA1.s:694    .text:00000000000002c0 _Z10mallocFreev
     /tmp/cchyCMA1.s:697    .text:00000000000002c0 .L0 
     /tmp/cchyCMA1.s:698    .text:00000000000002c0 .L0 
     /tmp/cchyCMA1.s:699    .text:00000000000002c4 .L0 
     /tmp/cchyCMA1.s:703    .text:00000000000002d0 .L0 
     /tmp/cchyCMA1.s:704    .text:00000000000002d0 .L0 
     /tmp/cchyCMA1.s:705    .text:00000000000002d0 .L0 
     /tmp/cchyCMA1.s:707    .text:00000000000002d4 .L0 
     /tmp/cchyCMA1.s:709    .text:00000000000002d4 .L0 
     /tmp/cchyCMA1.s:710    .text:00000000000002d4 .L0 
     /tmp/cchyCMA1.s:715    .text:00000000000002e4 .L0 
     /tmp/cchyCMA1.s:720    .text:00000000000002ec .L0 
     /tmp/cchyCMA1.s:724    .text:00000000000002f0 .L0 
     /tmp/cchyCMA1.s:727    .text:00000000000002f8 .L0 
     /tmp/cchyCMA1.s:728    .text:00000000000002f8 .L0 
     /tmp/cchyCMA1.s:732    .text:0000000000000304 .L0 
     /tmp/cchyCMA1.s:737    .text:0000000000000314 .L0 
     /tmp/cchyCMA1.s:739    .text:0000000000000318 .L0 
     /tmp/cchyCMA1.s:740    .text:0000000000000318 .L0 
     /tmp/cchyCMA1.s:746    .text:0000000000000328 .L0 
     /tmp/cchyCMA1.s:747    .text:0000000000000328 .L0 
     /tmp/cchyCMA1.s:748    .text:000000000000032c .L0 
     /tmp/cchyCMA1.s:749    .text:000000000000032c .L0 
     /tmp/cchyCMA1.s:751    .text:0000000000000330 .L0 
     /tmp/cchyCMA1.s:752    .text:0000000000000330 .L0 
     /tmp/cchyCMA1.s:754    .text:0000000000000334 .L0 
     /tmp/cchyCMA1.s:756    .text:0000000000000338 .L0 
     /tmp/cchyCMA1.s:760    .text:000000000000033c .L0 
     /tmp/cchyCMA1.s:763    .text:000000000000033c .L0 
     /tmp/cchyCMA1.s:767    .text:0000000000000340 .L0 
     /tmp/cchyCMA1.s:771    .text:0000000000000348 .L0 
     /tmp/cchyCMA1.s:772    .text:0000000000000348 .L0 
     /tmp/cchyCMA1.s:779    .text:0000000000000360 .L0 
     /tmp/cchyCMA1.s:782    .text:0000000000000364 .L0 
GAS LISTING /tmp/cchyCMA1.s 			page 72


     /tmp/cchyCMA1.s:783    .text:0000000000000364 .L0 
     /tmp/cchyCMA1.s:786    .text:0000000000000368 .L0 
     /tmp/cchyCMA1.s:791    .text:000000000000036c .L0 
     /tmp/cchyCMA1.s:792    .text:000000000000036c .L0 
     /tmp/cchyCMA1.s:797    .text:000000000000037c .L0 
     /tmp/cchyCMA1.s:803    .text:0000000000000380 .L0 
     /tmp/cchyCMA1.s:809    .text:0000000000000388 .L0 
     /tmp/cchyCMA1.s:810    .text:0000000000000388 .L0 
     /tmp/cchyCMA1.s:814    .text:000000000000038c .L0 
     /tmp/cchyCMA1.s:817    .text:0000000000000394 .L0 
     /tmp/cchyCMA1.s:818    .text:0000000000000394 .L0 
     /tmp/cchyCMA1.s:822    .text:00000000000003a0 .L0 
     /tmp/cchyCMA1.s:827    .text:00000000000003b0 .L0 
     /tmp/cchyCMA1.s:829    .text:00000000000003b4 .L0 
     /tmp/cchyCMA1.s:830    .text:00000000000003b4 .L0 
     /tmp/cchyCMA1.s:834    .text:00000000000003c4 .L0 
     /tmp/cchyCMA1.s:839    .text:00000000000003c8 .L0 
     /tmp/cchyCMA1.s:843    .text:00000000000003cc .L0 
     /tmp/cchyCMA1.s:847    .text:00000000000003d4 .L0 
     /tmp/cchyCMA1.s:848    .text:00000000000003d4 .L0 
     /tmp/cchyCMA1.s:855    .text:00000000000003ec .L0 
     /tmp/cchyCMA1.s:858    .text:00000000000003f0 .L0 
     /tmp/cchyCMA1.s:865    .text:00000000000003f8 .L0 
     /tmp/cchyCMA1.s:866    .text:00000000000003f8 .L0 
     /tmp/cchyCMA1.s:871    .text:0000000000000408 .L0 
     /tmp/cchyCMA1.s:876    .text:000000000000040c .L0 
     /tmp/cchyCMA1.s:877    .text:000000000000040c .L0 
     /tmp/cchyCMA1.s:881    .text:0000000000000420 .L0 
     /tmp/cchyCMA1.s:892    .text:0000000000000420 _Z9bigMallocv
     /tmp/cchyCMA1.s:895    .text:0000000000000420 .L0 
     /tmp/cchyCMA1.s:896    .text:0000000000000420 .L0 
     /tmp/cchyCMA1.s:897    .text:0000000000000424 .L0 
     /tmp/cchyCMA1.s:900    .text:000000000000042c .L0 
     /tmp/cchyCMA1.s:901    .text:000000000000042c .L0 
     /tmp/cchyCMA1.s:903    .text:0000000000000430 .L0 
     /tmp/cchyCMA1.s:905    .text:0000000000000430 .L0 
     /tmp/cchyCMA1.s:906    .text:0000000000000430 .L0 
     /tmp/cchyCMA1.s:910    .text:0000000000000440 .L0 
     /tmp/cchyCMA1.s:911    .text:0000000000000440 .L0 
     /tmp/cchyCMA1.s:918    .text:000000000000045c .L0 
     /tmp/cchyCMA1.s:919    .text:000000000000045c .L0 
     /tmp/cchyCMA1.s:924    .text:0000000000000468 .L0 
     /tmp/cchyCMA1.s:926    .text:000000000000046c .L0 
     /tmp/cchyCMA1.s:927    .text:000000000000046c .L0 
     /tmp/cchyCMA1.s:933    .text:000000000000047c .L0 
     /tmp/cchyCMA1.s:934    .text:0000000000000480 .L0 
     /tmp/cchyCMA1.s:935    .text:0000000000000480 .L0 
     /tmp/cchyCMA1.s:937    .text:0000000000000484 .L0 
     /tmp/cchyCMA1.s:938    .text:0000000000000484 .L0 
     /tmp/cchyCMA1.s:940    .text:0000000000000488 .L0 
     /tmp/cchyCMA1.s:944    .text:000000000000048c .L0 
     /tmp/cchyCMA1.s:946    .text:000000000000048c .L0 
     /tmp/cchyCMA1.s:947    .text:000000000000048c .L0 
     /tmp/cchyCMA1.s:952    .text:00000000000004a0 .L0 
     /tmp/cchyCMA1.s:966    .text:00000000000004a0 _Z17lotOfSmallMallocsv
     /tmp/cchyCMA1.s:969    .text:00000000000004a0 .L0 
     /tmp/cchyCMA1.s:970    .text:00000000000004a0 .L0 
GAS LISTING /tmp/cchyCMA1.s 			page 73


     /tmp/cchyCMA1.s:971    .text:00000000000004a4 .L0 
     /tmp/cchyCMA1.s:976    .text:00000000000004b4 .L0 
     /tmp/cchyCMA1.s:977    .text:00000000000004b4 .L0 
     /tmp/cchyCMA1.s:978    .text:00000000000004b4 .L0 
     /tmp/cchyCMA1.s:979    .text:00000000000004b4 .L0 
     /tmp/cchyCMA1.s:981    .text:00000000000004b8 .L0 
     /tmp/cchyCMA1.s:985    .text:00000000000004b8 .L0 
     /tmp/cchyCMA1.s:986    .text:00000000000004b8 .L0 
     /tmp/cchyCMA1.s:992    .text:00000000000004c0 .L0 
     /tmp/cchyCMA1.s:993    .text:00000000000004c0 .L0 
     /tmp/cchyCMA1.s:997    .text:00000000000004d0 .L0 
     /tmp/cchyCMA1.s:998    .text:00000000000004d0 .L0 
     /tmp/cchyCMA1.s:1007   .text:00000000000004e4 .L0 
     /tmp/cchyCMA1.s:1008   .text:00000000000004e4 .L0 
     /tmp/cchyCMA1.s:1009   .text:00000000000004e4 .L0 
     /tmp/cchyCMA1.s:1013   .text:00000000000004f4 .L0 
     /tmp/cchyCMA1.s:1014   .text:00000000000004f8 .L0 
     /tmp/cchyCMA1.s:1015   .text:00000000000004f8 .L0 
     /tmp/cchyCMA1.s:1017   .text:00000000000004fc .L0 
     /tmp/cchyCMA1.s:1018   .text:00000000000004fc .L0 
     /tmp/cchyCMA1.s:1020   .text:0000000000000500 .L0 
     /tmp/cchyCMA1.s:1023   .text:0000000000000504 .L0 
     /tmp/cchyCMA1.s:1026   .text:0000000000000508 .L0 
     /tmp/cchyCMA1.s:1030   .text:000000000000050c .L0 
     /tmp/cchyCMA1.s:1034   .text:000000000000050c .L0 
     /tmp/cchyCMA1.s:1035   .text:000000000000050c .L0 
     /tmp/cchyCMA1.s:1040   .text:000000000000051c .L0 
     /tmp/cchyCMA1.s:1041   .text:000000000000051c .L0 
     /tmp/cchyCMA1.s:1047   .text:0000000000000530 .L0 
     /tmp/cchyCMA1.s:1051   .text:0000000000000534 .L0 
     /tmp/cchyCMA1.s:1052   .text:0000000000000534 .L0 
     /tmp/cchyCMA1.s:1059   .text:0000000000000548 .L0 
     /tmp/cchyCMA1.s:1060   .text:0000000000000548 .L0 
     /tmp/cchyCMA1.s:1066   .text:0000000000000554 .L0 
     /tmp/cchyCMA1.s:1067   .text:0000000000000554 .L0 
     /tmp/cchyCMA1.s:1072   .text:0000000000000558 .L0 
     /tmp/cchyCMA1.s:1073   .text:0000000000000558 .L0 
     /tmp/cchyCMA1.s:1074   .text:0000000000000558 .L0 
     /tmp/cchyCMA1.s:1080   .text:0000000000000568 .L0 
     /tmp/cchyCMA1.s:1081   .text:0000000000000568 .L0 
     /tmp/cchyCMA1.s:1085   .text:0000000000000574 .L0 
     /tmp/cchyCMA1.s:1087   .text:0000000000000578 .L0 
     /tmp/cchyCMA1.s:1088   .text:0000000000000578 .L0 
     /tmp/cchyCMA1.s:1092   .text:0000000000000584 .L0 
     /tmp/cchyCMA1.s:1095   .text:000000000000058c .L0 
     /tmp/cchyCMA1.s:1096   .text:000000000000058c .L0 
     /tmp/cchyCMA1.s:1100   .text:0000000000000598 .L0 
     /tmp/cchyCMA1.s:1104   .text:00000000000005a0 .L0 
     /tmp/cchyCMA1.s:1115   .text:00000000000005a0 _Z7badFreev
     /tmp/cchyCMA1.s:1118   .text:00000000000005a0 .L0 
     /tmp/cchyCMA1.s:1119   .text:00000000000005a0 .L0 
     /tmp/cchyCMA1.s:1120   .text:00000000000005a4 .L0 
     /tmp/cchyCMA1.s:1123   .text:00000000000005ac .L0 
     /tmp/cchyCMA1.s:1124   .text:00000000000005ac .L0 
     /tmp/cchyCMA1.s:1126   .text:00000000000005b0 .L0 
     /tmp/cchyCMA1.s:1128   .text:00000000000005b0 .L0 
     /tmp/cchyCMA1.s:1129   .text:00000000000005b0 .L0 
GAS LISTING /tmp/cchyCMA1.s 			page 74


     /tmp/cchyCMA1.s:1133   .text:00000000000005c0 .L0 
     /tmp/cchyCMA1.s:1134   .text:00000000000005c0 .L0 
     /tmp/cchyCMA1.s:1138   .text:00000000000005cc .L0 
     /tmp/cchyCMA1.s:1139   .text:00000000000005cc .L0 
     /tmp/cchyCMA1.s:1144   .text:00000000000005d8 .L0 
     /tmp/cchyCMA1.s:1146   .text:00000000000005dc .L0 
     /tmp/cchyCMA1.s:1147   .text:00000000000005dc .L0 
     /tmp/cchyCMA1.s:1153   .text:00000000000005ec .L0 
     /tmp/cchyCMA1.s:1154   .text:00000000000005f0 .L0 
     /tmp/cchyCMA1.s:1155   .text:00000000000005f0 .L0 
     /tmp/cchyCMA1.s:1157   .text:00000000000005f4 .L0 
     /tmp/cchyCMA1.s:1158   .text:00000000000005f4 .L0 
     /tmp/cchyCMA1.s:1160   .text:00000000000005f8 .L0 
     /tmp/cchyCMA1.s:1164   .text:00000000000005fc .L0 
     /tmp/cchyCMA1.s:1166   .text:00000000000005fc .L0 
     /tmp/cchyCMA1.s:1167   .text:00000000000005fc .L0 
     /tmp/cchyCMA1.s:1172   .text:000000000000060c .L0 
     /tmp/cchyCMA1.s:1173   .text:0000000000000610 .L0 
     /tmp/cchyCMA1.s:1187   .text:0000000000000610 _Z13stressTestingv
     /tmp/cchyCMA1.s:1190   .text:0000000000000610 .L0 
     /tmp/cchyCMA1.s:1191   .text:0000000000000610 .L0 
     /tmp/cchyCMA1.s:1192   .text:0000000000000614 .L0 
     /tmp/cchyCMA1.s:1197   .text:0000000000000624 .L0 
     /tmp/cchyCMA1.s:1198   .text:0000000000000624 .L0 
     /tmp/cchyCMA1.s:1199   .text:0000000000000624 .L0 
     /tmp/cchyCMA1.s:1200   .text:0000000000000624 .L0 
     /tmp/cchyCMA1.s:1202   .text:0000000000000628 .L0 
     /tmp/cchyCMA1.s:1204   .text:0000000000000628 .L0 
     /tmp/cchyCMA1.s:1205   .text:0000000000000628 .L0 
     /tmp/cchyCMA1.s:1210   .text:0000000000000638 .L0 
     /tmp/cchyCMA1.s:1215   .text:0000000000000640 .L0 
     /tmp/cchyCMA1.s:1219   .text:0000000000000644 .L0 
     /tmp/cchyCMA1.s:1222   .text:000000000000064c .L0 
     /tmp/cchyCMA1.s:1223   .text:000000000000064c .L0 
     /tmp/cchyCMA1.s:1227   .text:0000000000000658 .L0 
     /tmp/cchyCMA1.s:1232   .text:0000000000000668 .L0 
     /tmp/cchyCMA1.s:1234   .text:000000000000066c .L0 
     /tmp/cchyCMA1.s:1235   .text:000000000000066c .L0 
     /tmp/cchyCMA1.s:1241   .text:000000000000067c .L0 
     /tmp/cchyCMA1.s:1242   .text:000000000000067c .L0 
     /tmp/cchyCMA1.s:1243   .text:0000000000000680 .L0 
     /tmp/cchyCMA1.s:1244   .text:0000000000000680 .L0 
     /tmp/cchyCMA1.s:1246   .text:0000000000000684 .L0 
     /tmp/cchyCMA1.s:1247   .text:0000000000000684 .L0 
     /tmp/cchyCMA1.s:1249   .text:0000000000000688 .L0 
     /tmp/cchyCMA1.s:1251   .text:000000000000068c .L0 
     /tmp/cchyCMA1.s:1253   .text:0000000000000690 .L0 
     /tmp/cchyCMA1.s:1257   .text:0000000000000694 .L0 
     /tmp/cchyCMA1.s:1259   .text:0000000000000694 .L0 
     /tmp/cchyCMA1.s:1263   .text:0000000000000698 .L0 
     /tmp/cchyCMA1.s:1264   .text:0000000000000698 .L0 
     /tmp/cchyCMA1.s:1268   .text:000000000000069c .L0 
     /tmp/cchyCMA1.s:1272   .text:00000000000006a0 .L0 
     /tmp/cchyCMA1.s:1276   .text:00000000000006a8 .L0 
     /tmp/cchyCMA1.s:1277   .text:00000000000006a8 .L0 
     /tmp/cchyCMA1.s:1284   .text:00000000000006c0 .L0 
     /tmp/cchyCMA1.s:1286   .text:00000000000006c4 .L0 
GAS LISTING /tmp/cchyCMA1.s 			page 75


     /tmp/cchyCMA1.s:1287   .text:00000000000006c4 .L0 
     /tmp/cchyCMA1.s:1291   .text:00000000000006cc .L0 
     /tmp/cchyCMA1.s:1295   .text:00000000000006d8 .L0 
     /tmp/cchyCMA1.s:1300   .text:00000000000006e8 .L0 
     /tmp/cchyCMA1.s:1303   .text:00000000000006ec .L0 
     /tmp/cchyCMA1.s:1304   .text:00000000000006ec .L0 
     /tmp/cchyCMA1.s:1307   .text:00000000000006f0 .L0 
     /tmp/cchyCMA1.s:1312   .text:00000000000006f4 .L0 
     /tmp/cchyCMA1.s:1313   .text:00000000000006f4 .L0 
     /tmp/cchyCMA1.s:1318   .text:0000000000000704 .L0 
     /tmp/cchyCMA1.s:1321   .text:0000000000000708 .L0 
     /tmp/cchyCMA1.s:1322   .text:0000000000000708 .L0 
     /tmp/cchyCMA1.s:1326   .text:0000000000000718 .L0 
     /tmp/cchyCMA1.s:1332   .text:000000000000071c .L0 
     /tmp/cchyCMA1.s:1336   .text:0000000000000720 .L0 
     /tmp/cchyCMA1.s:1340   .text:0000000000000728 .L0 
     /tmp/cchyCMA1.s:1341   .text:0000000000000728 .L0 
     /tmp/cchyCMA1.s:1348   .text:0000000000000740 .L0 
     /tmp/cchyCMA1.s:1350   .text:0000000000000744 .L0 
     /tmp/cchyCMA1.s:1351   .text:0000000000000744 .L0 
     /tmp/cchyCMA1.s:1356   .text:0000000000000750 .L0 
     /tmp/cchyCMA1.s:1361   .text:0000000000000760 .L0 
     /tmp/cchyCMA1.s:1364   .text:0000000000000764 .L0 
     /tmp/cchyCMA1.s:1365   .text:0000000000000764 .L0 
     /tmp/cchyCMA1.s:1368   .text:0000000000000768 .L0 
     /tmp/cchyCMA1.s:1373   .text:000000000000076c .L0 
     /tmp/cchyCMA1.s:1374   .text:000000000000076c .L0 
     /tmp/cchyCMA1.s:1379   .text:000000000000077c .L0 
     /tmp/cchyCMA1.s:1382   .text:0000000000000780 .L0 
     /tmp/cchyCMA1.s:1383   .text:0000000000000780 .L0 
     /tmp/cchyCMA1.s:1387   .text:0000000000000790 .L0 
     /tmp/cchyCMA1.s:1392   .text:0000000000000794 .L0 
     /tmp/cchyCMA1.s:1393   .text:0000000000000794 .L0 
     /tmp/cchyCMA1.s:1397   .text:0000000000000798 .L0 
     /tmp/cchyCMA1.s:1401   .text:000000000000079c .L0 
     /tmp/cchyCMA1.s:1402   .text:000000000000079c .L0 
     /tmp/cchyCMA1.s:1406   .text:00000000000007b0 .L0 
     /tmp/cchyCMA1.s:1412   .text:00000000000007b0 _Z21memoryAllocationTestsv
     /tmp/cchyCMA1.s:1415   .text:00000000000007b0 .L0 
     /tmp/cchyCMA1.s:1416   .text:00000000000007b0 .L0 
     /tmp/cchyCMA1.s:1417   .text:00000000000007b4 .L0 
     /tmp/cchyCMA1.s:1419   .text:00000000000007b8 .L0 
     /tmp/cchyCMA1.s:1421   .text:00000000000007bc .L0 
     /tmp/cchyCMA1.s:1423   .text:00000000000007bc .L0 
     /tmp/cchyCMA1.s:1424   .text:00000000000007c0 .L0 
     /tmp/cchyCMA1.s:1425   .text:00000000000007c0 .L0 
     /tmp/cchyCMA1.s:1427   .text:00000000000007c4 .L0 
     /tmp/cchyCMA1.s:1429   .text:00000000000007c8 .L0 
     /tmp/cchyCMA1.s:1435   .text:00000000000007c8 _Z14semaphoreTestsv
     /tmp/cchyCMA1.s:1438   .text:00000000000007c8 .L0 
     /tmp/cchyCMA1.s:1439   .text:00000000000007c8 .L0 
     /tmp/cchyCMA1.s:1440   .text:00000000000007cc .L0 
     /tmp/cchyCMA1.s:1442   .text:00000000000007d0 .L0 
     /tmp/cchyCMA1.s:1444   .text:00000000000007d4 .L0 
     /tmp/cchyCMA1.s:1446   .text:00000000000007d4 .L0 
     /tmp/cchyCMA1.s:1447   .text:00000000000007d4 .L0 
     /tmp/cchyCMA1.s:1448   .text:00000000000007d8 .L0 
GAS LISTING /tmp/cchyCMA1.s 			page 76


     /tmp/cchyCMA1.s:1449   .text:00000000000007d8 .L0 
     /tmp/cchyCMA1.s:1451   .text:00000000000007dc .L0 
     /tmp/cchyCMA1.s:1453   .text:00000000000007e0 .L0 
     /tmp/cchyCMA1.s:1459   .text:00000000000007e0 _ZN12TestPeriodicC2Em
     /tmp/cchyCMA1.s:1462   .text:00000000000007e0 .L0 
     /tmp/cchyCMA1.s:1464   .text:00000000000007e0 .L0 
     /tmp/cchyCMA1.s:1465   .text:00000000000007e4 .L0 
     /tmp/cchyCMA1.s:1469   .text:00000000000007f0 .L0 
     /tmp/cchyCMA1.s:1470   .text:00000000000007f0 .L0 
     /tmp/cchyCMA1.s:1471   .text:00000000000007f0 .L0 
     /tmp/cchyCMA1.s:1473   .text:00000000000007f4 .L0 
     /tmp/cchyCMA1.s:1477   .text:00000000000007f8 .L0 
     /tmp/cchyCMA1.s:2488   .data.rel.ro.local._ZTV12TestPeriodic:0000000000000000 _ZTV12TestPeriodic
     /tmp/cchyCMA1.s:1483   .text:000000000000080c .L0 
     /tmp/cchyCMA1.s:1484   .text:0000000000000810 .L0 
     /tmp/cchyCMA1.s:1486   .text:0000000000000814 .L0 
     /tmp/cchyCMA1.s:1487   .text:0000000000000814 .L0 
     /tmp/cchyCMA1.s:1489   .text:0000000000000818 .L0 
     /tmp/cchyCMA1.s:1492   .text:000000000000081c .L0 
     /tmp/cchyCMA1.s:1494   .text:0000000000000820 .L0 
     /tmp/cchyCMA1.s:1459   .text:00000000000007e0 _ZN12TestPeriodicC1Em
     /tmp/cchyCMA1.s:1502   .text:0000000000000820 _Z11threadTest3v
     /tmp/cchyCMA1.s:1505   .text:0000000000000820 .L0 
     /tmp/cchyCMA1.s:7954   .data.rel.local.DW.ref.__gxx_personality_v0:0000000000000000 DW.ref.__gxx_personality_v0
     /tmp/cchyCMA1.s:1508   .text:0000000000000820 .L0 
     /tmp/cchyCMA1.s:1509   .text:0000000000000824 .L0 
     /tmp/cchyCMA1.s:1514   .text:0000000000000834 .L0 
     /tmp/cchyCMA1.s:1515   .text:0000000000000834 .L0 
     /tmp/cchyCMA1.s:1516   .text:0000000000000834 .L0 
     /tmp/cchyCMA1.s:1517   .text:0000000000000834 .L0 
     /tmp/cchyCMA1.s:1519   .text:0000000000000838 .L0 
     /tmp/cchyCMA1.s:1521   .text:0000000000000838 .L0 
     /tmp/cchyCMA1.s:1522   .text:0000000000000838 .L0 
     /tmp/cchyCMA1.s:1534   .text:0000000000000854 .L0 
     /tmp/cchyCMA1.s:1535   .text:0000000000000854 .L0 
     /tmp/cchyCMA1.s:1541   .text:0000000000000860 .L0 
     /tmp/cchyCMA1.s:1542   .text:0000000000000860 .L0 
     /tmp/cchyCMA1.s:1543   .text:0000000000000860 .L0 
     /tmp/cchyCMA1.s:1547   .text:0000000000000868 .L0 
     /tmp/cchyCMA1.s:1552   .text:0000000000000870 .L0 
     /tmp/cchyCMA1.s:1560   .text:0000000000000888 .L0 
     /tmp/cchyCMA1.s:1590   .text:0000000000000888 _Z11threadTestsv
     /tmp/cchyCMA1.s:1593   .text:0000000000000888 .L0 
     /tmp/cchyCMA1.s:1594   .text:0000000000000888 .L0 
     /tmp/cchyCMA1.s:1595   .text:000000000000088c .L0 
     /tmp/cchyCMA1.s:1598   .text:0000000000000894 .L0 
     /tmp/cchyCMA1.s:1599   .text:0000000000000894 .L0 
     /tmp/cchyCMA1.s:1601   .text:0000000000000898 .L0 
     /tmp/cchyCMA1.s:1603   .text:0000000000000898 .L0 
     /tmp/cchyCMA1.s:1604   .text:0000000000000898 .L0 
     /tmp/cchyCMA1.s:1606   .text:00000000000008a0 .L0 
     /tmp/cchyCMA1.s:1612   .text:00000000000008a0 _Z7myTestsv
     /tmp/cchyCMA1.s:1615   .text:00000000000008a0 .L0 
     /tmp/cchyCMA1.s:1616   .text:00000000000008a0 .L0 
     /tmp/cchyCMA1.s:1617   .text:00000000000008a4 .L0 
     /tmp/cchyCMA1.s:1620   .text:00000000000008ac .L0 
     /tmp/cchyCMA1.s:1621   .text:00000000000008ac .L0 
GAS LISTING /tmp/cchyCMA1.s 			page 77


     /tmp/cchyCMA1.s:1623   .text:00000000000008b0 .L0 
     /tmp/cchyCMA1.s:1625   .text:00000000000008b0 .L0 
     /tmp/cchyCMA1.s:1626   .text:00000000000008b0 .L0 
     /tmp/cchyCMA1.s:1628   .text:00000000000008b8 .L0 
     /tmp/cchyCMA1.s:1642   .text:00000000000008b8 _Z10mallocTestv
     /tmp/cchyCMA1.s:1645   .text:00000000000008b8 .L0 
     /tmp/cchyCMA1.s:1646   .text:00000000000008b8 .L0 
     /tmp/cchyCMA1.s:1647   .text:00000000000008bc .L0 
     /tmp/cchyCMA1.s:1656   .text:00000000000008dc .L0 
     /tmp/cchyCMA1.s:1657   .text:00000000000008dc .L0 
     /tmp/cchyCMA1.s:1658   .text:00000000000008dc .L0 
     /tmp/cchyCMA1.s:1659   .text:00000000000008dc .L0 
     /tmp/cchyCMA1.s:1660   .text:00000000000008dc .L0 
     /tmp/cchyCMA1.s:1661   .text:00000000000008dc .L0 
     /tmp/cchyCMA1.s:1662   .text:00000000000008dc .L0 
     /tmp/cchyCMA1.s:1663   .text:00000000000008dc .L0 
     /tmp/cchyCMA1.s:1665   .text:00000000000008e0 .L0 
     /tmp/cchyCMA1.s:1667   .text:00000000000008e0 .L0 
     /tmp/cchyCMA1.s:1668   .text:00000000000008e0 .L0 
     /tmp/cchyCMA1.s:1672   .text:00000000000008f0 .L0 
     /tmp/cchyCMA1.s:1673   .text:00000000000008f0 .L0 
     /tmp/cchyCMA1.s:1679   .text:0000000000000900 .L0 
     /tmp/cchyCMA1.s:1680   .text:0000000000000900 .L0 
     /tmp/cchyCMA1.s:1683   .text:0000000000000908 .L0 
     /tmp/cchyCMA1.s:1684   .text:0000000000000908 .L0 
     /tmp/cchyCMA1.s:1690   .text:0000000000000918 .L0 
     /tmp/cchyCMA1.s:1691   .text:0000000000000918 .L0 
     /tmp/cchyCMA1.s:1698   .text:0000000000000928 .L0 
     /tmp/cchyCMA1.s:1699   .text:0000000000000928 .L0 
     /tmp/cchyCMA1.s:1706   .text:0000000000000938 .L0 
     /tmp/cchyCMA1.s:1707   .text:0000000000000938 .L0 
     /tmp/cchyCMA1.s:1715   .text:000000000000094c .L0 
     /tmp/cchyCMA1.s:1716   .text:000000000000094c .L0 
     /tmp/cchyCMA1.s:1721   .text:0000000000000958 .L0 
     /tmp/cchyCMA1.s:1724   .text:0000000000000960 .L0 
     /tmp/cchyCMA1.s:1726   .text:0000000000000964 .L0 
     /tmp/cchyCMA1.s:1728   .text:0000000000000968 .L0 
     /tmp/cchyCMA1.s:1730   .text:000000000000096c .L0 
     /tmp/cchyCMA1.s:1732   .text:0000000000000970 .L0 
     /tmp/cchyCMA1.s:1733   .text:0000000000000970 .L0 
     /tmp/cchyCMA1.s:1738   .text:000000000000097c .L0 
     /tmp/cchyCMA1.s:1739   .text:000000000000097c .L0 
     /tmp/cchyCMA1.s:1743   .text:0000000000000988 .L0 
     /tmp/cchyCMA1.s:1744   .text:0000000000000988 .L0 
     /tmp/cchyCMA1.s:1748   .text:0000000000000994 .L0 
     /tmp/cchyCMA1.s:1749   .text:0000000000000994 .L0 
     /tmp/cchyCMA1.s:1753   .text:00000000000009a0 .L0 
     /tmp/cchyCMA1.s:1754   .text:00000000000009a0 .L0 
     /tmp/cchyCMA1.s:1758   .text:00000000000009ac .L0 
     /tmp/cchyCMA1.s:1759   .text:00000000000009ac .L0 
     /tmp/cchyCMA1.s:1761   .text:00000000000009b0 .L0 
     /tmp/cchyCMA1.s:1766   .text:00000000000009bc .L0 
     /tmp/cchyCMA1.s:1767   .text:00000000000009bc .L0 
     /tmp/cchyCMA1.s:1774   .text:00000000000009d0 .L0 
     /tmp/cchyCMA1.s:1775   .text:00000000000009d0 .L0 
     /tmp/cchyCMA1.s:1781   .text:00000000000009e0 .L0 
     /tmp/cchyCMA1.s:1782   .text:00000000000009e0 .L0 
GAS LISTING /tmp/cchyCMA1.s 			page 78


     /tmp/cchyCMA1.s:1783   .text:00000000000009e4 .L0 
     /tmp/cchyCMA1.s:1785   .text:00000000000009e8 .L0 
     /tmp/cchyCMA1.s:1786   .text:00000000000009e8 .L0 
     /tmp/cchyCMA1.s:1788   .text:00000000000009ec .L0 
     /tmp/cchyCMA1.s:1791   .text:00000000000009f0 .L0 
     /tmp/cchyCMA1.s:1794   .text:00000000000009f4 .L0 
     /tmp/cchyCMA1.s:1797   .text:00000000000009f8 .L0 
     /tmp/cchyCMA1.s:1800   .text:00000000000009fc .L0 
     /tmp/cchyCMA1.s:1803   .text:0000000000000a00 .L0 
     /tmp/cchyCMA1.s:1805   .text:0000000000000a04 .L0 
     /tmp/cchyCMA1.s:1807   .text:0000000000000a08 .L0 
     /tmp/cchyCMA1.s:1813   .text:0000000000000a08 _Z16mallocEverythingv
     /tmp/cchyCMA1.s:1816   .text:0000000000000a08 .L0 
     /tmp/cchyCMA1.s:1817   .text:0000000000000a08 .L0 
     /tmp/cchyCMA1.s:1818   .text:0000000000000a0c .L0 
     /tmp/cchyCMA1.s:1820   .text:0000000000000a10 .L0 
     /tmp/cchyCMA1.s:1822   .text:0000000000000a14 .L0 
     /tmp/cchyCMA1.s:1824   .text:0000000000000a14 .L0 
     /tmp/cchyCMA1.s:1825   .text:0000000000000a18 .L0 
     /tmp/cchyCMA1.s:1826   .text:0000000000000a18 .L0 
     /tmp/cchyCMA1.s:1828   .text:0000000000000a1c .L0 
     /tmp/cchyCMA1.s:1830   .text:0000000000000a20 .L0 
     /tmp/cchyCMA1.s:1844   .text:0000000000000a20 _Z17mallocGapFillTestv
     /tmp/cchyCMA1.s:1847   .text:0000000000000a20 .L0 
     /tmp/cchyCMA1.s:1848   .text:0000000000000a20 .L0 
     /tmp/cchyCMA1.s:1849   .text:0000000000000a24 .L0 
     /tmp/cchyCMA1.s:1860   .text:0000000000000a4c .L0 
     /tmp/cchyCMA1.s:1861   .text:0000000000000a4c .L0 
     /tmp/cchyCMA1.s:1862   .text:0000000000000a4c .L0 
     /tmp/cchyCMA1.s:1863   .text:0000000000000a4c .L0 
     /tmp/cchyCMA1.s:1864   .text:0000000000000a4c .L0 
     /tmp/cchyCMA1.s:1865   .text:0000000000000a4c .L0 
     /tmp/cchyCMA1.s:1866   .text:0000000000000a4c .L0 
     /tmp/cchyCMA1.s:1867   .text:0000000000000a4c .L0 
     /tmp/cchyCMA1.s:1868   .text:0000000000000a4c .L0 
     /tmp/cchyCMA1.s:1869   .text:0000000000000a4c .L0 
     /tmp/cchyCMA1.s:1871   .text:0000000000000a50 .L0 
     /tmp/cchyCMA1.s:1873   .text:0000000000000a50 .L0 
     /tmp/cchyCMA1.s:1874   .text:0000000000000a50 .L0 
     /tmp/cchyCMA1.s:1879   .text:0000000000000a60 .L0 
     /tmp/cchyCMA1.s:1883   .text:0000000000000a64 .L0 
     /tmp/cchyCMA1.s:1886   .text:0000000000000a6c .L0 
     /tmp/cchyCMA1.s:1887   .text:0000000000000a6c .L0 
     /tmp/cchyCMA1.s:1889   .text:0000000000000a70 .L0 
     /tmp/cchyCMA1.s:1893   .text:0000000000000a7c .L0 
     /tmp/cchyCMA1.s:1898   .text:0000000000000a8c .L0 
     /tmp/cchyCMA1.s:1900   .text:0000000000000a90 .L0 
     /tmp/cchyCMA1.s:1906   .text:0000000000000a98 .L0 
     /tmp/cchyCMA1.s:1907   .text:0000000000000a98 .L0 
     /tmp/cchyCMA1.s:1913   .text:0000000000000aa8 .L0 
     /tmp/cchyCMA1.s:1914   .text:0000000000000aa8 .L0 
     /tmp/cchyCMA1.s:1915   .text:0000000000000aac .L0 
     /tmp/cchyCMA1.s:1916   .text:0000000000000aac .L0 
     /tmp/cchyCMA1.s:1918   .text:0000000000000ab0 .L0 
     /tmp/cchyCMA1.s:1919   .text:0000000000000ab0 .L0 
     /tmp/cchyCMA1.s:1921   .text:0000000000000ab4 .L0 
     /tmp/cchyCMA1.s:1923   .text:0000000000000ab8 .L0 
GAS LISTING /tmp/cchyCMA1.s 			page 79


     /tmp/cchyCMA1.s:1925   .text:0000000000000abc .L0 
     /tmp/cchyCMA1.s:1927   .text:0000000000000ac0 .L0 
     /tmp/cchyCMA1.s:1929   .text:0000000000000ac4 .L0 
     /tmp/cchyCMA1.s:1931   .text:0000000000000ac8 .L0 
     /tmp/cchyCMA1.s:1933   .text:0000000000000acc .L0 
     /tmp/cchyCMA1.s:1935   .text:0000000000000ad0 .L0 
     /tmp/cchyCMA1.s:1937   .text:0000000000000ad4 .L0 
     /tmp/cchyCMA1.s:1941   .text:0000000000000ad8 .L0 
     /tmp/cchyCMA1.s:1943   .text:0000000000000ad8 .L0 
     /tmp/cchyCMA1.s:1944   .text:0000000000000ad8 .L0 
     /tmp/cchyCMA1.s:1946   .text:0000000000000adc .L0 
     /tmp/cchyCMA1.s:1948   .text:0000000000000ae0 .L0 
     /tmp/cchyCMA1.s:1952   .text:0000000000000ae8 .L0 
     /tmp/cchyCMA1.s:1953   .text:0000000000000ae8 .L0 
     /tmp/cchyCMA1.s:1959   .text:0000000000000af8 .L0 
     /tmp/cchyCMA1.s:1960   .text:0000000000000af8 .L0 
     /tmp/cchyCMA1.s:1966   .text:0000000000000b08 .L0 
     /tmp/cchyCMA1.s:1967   .text:0000000000000b08 .L0 
     /tmp/cchyCMA1.s:1974   .text:0000000000000b18 .L0 
     /tmp/cchyCMA1.s:1976   .text:0000000000000b1c .L0 
     /tmp/cchyCMA1.s:1978   .text:0000000000000b20 .L0 
     /tmp/cchyCMA1.s:1980   .text:0000000000000b24 .L0 
     /tmp/cchyCMA1.s:1981   .text:0000000000000b24 .L0 
     /tmp/cchyCMA1.s:1984   .text:0000000000000b28 .L0 
     /tmp/cchyCMA1.s:1985   .text:0000000000000b28 .L0 
     /tmp/cchyCMA1.s:1988   .text:0000000000000b2c .L0 
     /tmp/cchyCMA1.s:1989   .text:0000000000000b2c .L0 
     /tmp/cchyCMA1.s:1992   .text:0000000000000b30 .L0 
     /tmp/cchyCMA1.s:1993   .text:0000000000000b30 .L0 
     /tmp/cchyCMA1.s:1996   .text:0000000000000b34 .L0 
     /tmp/cchyCMA1.s:1997   .text:0000000000000b34 .L0 
     /tmp/cchyCMA1.s:1998   .text:0000000000000b34 .L0 
     /tmp/cchyCMA1.s:2001   .text:0000000000000b38 .L0 
     /tmp/cchyCMA1.s:2002   .text:0000000000000b38 .L0 
     /tmp/cchyCMA1.s:2005   .text:0000000000000b3c .L0 
     /tmp/cchyCMA1.s:2007   .text:0000000000000b40 .L0 
     /tmp/cchyCMA1.s:2009   .text:0000000000000b44 .L0 
     /tmp/cchyCMA1.s:2011   .text:0000000000000b48 .L0 
     /tmp/cchyCMA1.s:2013   .text:0000000000000b4c .L0 
     /tmp/cchyCMA1.s:2015   .text:0000000000000b50 .L0 
     /tmp/cchyCMA1.s:2016   .text:0000000000000b50 .L0 
     /tmp/cchyCMA1.s:2018   .text:0000000000000b54 .L0 
     /tmp/cchyCMA1.s:2022   .text:0000000000000b5c .L0 
     /tmp/cchyCMA1.s:2023   .text:0000000000000b5c .L0 
     /tmp/cchyCMA1.s:2025   .text:0000000000000b60 .L0 
     /tmp/cchyCMA1.s:2027   .text:0000000000000b64 .L0 
     /tmp/cchyCMA1.s:2031   .text:0000000000000b6c .L0 
     /tmp/cchyCMA1.s:2032   .text:0000000000000b6c .L0 
     /tmp/cchyCMA1.s:2038   .text:0000000000000b7c .L0 
     /tmp/cchyCMA1.s:2039   .text:0000000000000b7c .L0 
     /tmp/cchyCMA1.s:2046   .text:0000000000000b8c .L0 
     /tmp/cchyCMA1.s:2048   .text:0000000000000b90 .L0 
     /tmp/cchyCMA1.s:2051   .text:0000000000000b94 .L0 
     /tmp/cchyCMA1.s:2052   .text:0000000000000b94 .L0 
     /tmp/cchyCMA1.s:2053   .text:0000000000000b94 .L0 
     /tmp/cchyCMA1.s:2055   .text:0000000000000b98 .L0 
     /tmp/cchyCMA1.s:2057   .text:0000000000000b9c .L0 
GAS LISTING /tmp/cchyCMA1.s 			page 80


     /tmp/cchyCMA1.s:2060   .text:0000000000000ba0 .L0 
     /tmp/cchyCMA1.s:2066   .text:0000000000000ba8 .L0 
     /tmp/cchyCMA1.s:2067   .text:0000000000000ba8 .L0 
     /tmp/cchyCMA1.s:2072   .text:0000000000000bb8 .L0 
     /tmp/cchyCMA1.s:2076   .text:0000000000000bbc .L0 
     /tmp/cchyCMA1.s:2077   .text:0000000000000bbc .L0 
     /tmp/cchyCMA1.s:2082   .text:0000000000000bcc .L0 
     /tmp/cchyCMA1.s:2086   .text:0000000000000bd0 .L0 
     /tmp/cchyCMA1.s:2087   .text:0000000000000bd0 .L0 
     /tmp/cchyCMA1.s:2092   .text:0000000000000be0 .L0 
     /tmp/cchyCMA1.s:2096   .text:0000000000000be4 .L0 
     /tmp/cchyCMA1.s:2097   .text:0000000000000be4 .L0 
     /tmp/cchyCMA1.s:2102   .text:0000000000000bf4 .L0 
     /tmp/cchyCMA1.s:2107   .text:0000000000000bf8 .L0 
     /tmp/cchyCMA1.s:2111   .text:0000000000000bfc .L0 
     /tmp/cchyCMA1.s:2114   .text:0000000000000c04 .L0 
     /tmp/cchyCMA1.s:2115   .text:0000000000000c04 .L0 
     /tmp/cchyCMA1.s:2121   .text:0000000000000c14 .L0 
     /tmp/cchyCMA1.s:2123   .text:0000000000000c18 .L0 
     /tmp/cchyCMA1.s:2129   .text:0000000000000c24 .L0 
     /tmp/cchyCMA1.s:2130   .text:0000000000000c24 .L0 
     /tmp/cchyCMA1.s:2134   .text:0000000000000c30 .L0 
     /tmp/cchyCMA1.s:2135   .text:0000000000000c30 .L0 
     /tmp/cchyCMA1.s:2139   .text:0000000000000c3c .L0 
     /tmp/cchyCMA1.s:2140   .text:0000000000000c3c .L0 
     /tmp/cchyCMA1.s:2144   .text:0000000000000c48 .L0 
     /tmp/cchyCMA1.s:2145   .text:0000000000000c48 .L0 
     /tmp/cchyCMA1.s:2149   .text:0000000000000c54 .L0 
     /tmp/cchyCMA1.s:2150   .text:0000000000000c54 .L0 
     /tmp/cchyCMA1.s:2154   .text:0000000000000c60 .L0 
     /tmp/cchyCMA1.s:2155   .text:0000000000000c60 .L0 
     /tmp/cchyCMA1.s:2159   .text:0000000000000c74 .L0 
     /tmp/cchyCMA1.s:2165   .text:0000000000000c74 _Z9consumerAPv
     /tmp/cchyCMA1.s:2168   .text:0000000000000c74 .L0 
     /tmp/cchyCMA1.s:2170   .text:0000000000000c74 .L0 
     /tmp/cchyCMA1.s:2171   .text:0000000000000c74 .L0 
     /tmp/cchyCMA1.s:2172   .text:0000000000000c74 .L0 
     /tmp/cchyCMA1.s:2176   .text:0000000000000c84 .L0 
     /tmp/cchyCMA1.s:2177   .text:0000000000000c88 .L0 
     /tmp/cchyCMA1.s:2181   .text:0000000000000c94 .L0 
     /tmp/cchyCMA1.s:2182   .text:0000000000000c94 .L0 
     /tmp/cchyCMA1.s:2183   .text:0000000000000c94 .L0 
     /tmp/cchyCMA1.s:2185   .text:0000000000000c98 .L0 
     /tmp/cchyCMA1.s:2189   .text:0000000000000c98 .L0 
     /tmp/cchyCMA1.s:2190   .text:0000000000000c98 .L0 
     /tmp/cchyCMA1.s:2195   .text:0000000000000cac .L0 
     /tmp/cchyCMA1.s:2196   .text:0000000000000cac .L0 
     /tmp/cchyCMA1.s:2200   .text:0000000000000cb8 .L0 
     /tmp/cchyCMA1.s:2205   .text:0000000000000cc8 .L0 
     /tmp/cchyCMA1.s:2206   .text:0000000000000cc8 .L0 
     /tmp/cchyCMA1.s:2210   .text:0000000000000cd4 .L0 
     /tmp/cchyCMA1.s:2211   .text:0000000000000cd4 .L0 
     /tmp/cchyCMA1.s:2215   .text:0000000000000ce4 .L0 
     /tmp/cchyCMA1.s:2216   .text:0000000000000ce8 .L0 
     /tmp/cchyCMA1.s:2218   .text:0000000000000cec .L0 
     /tmp/cchyCMA1.s:2219   .text:0000000000000cec .L0 
     /tmp/cchyCMA1.s:2221   .text:0000000000000cf0 .L0 
GAS LISTING /tmp/cchyCMA1.s 			page 81


     /tmp/cchyCMA1.s:2223   .text:0000000000000cf4 .L0 
     /tmp/cchyCMA1.s:2228   .text:0000000000000cfc .L0 
     /tmp/cchyCMA1.s:2234   .text:0000000000000cfc _Z9producerAPv
     /tmp/cchyCMA1.s:2237   .text:0000000000000cfc .L0 
     /tmp/cchyCMA1.s:2239   .text:0000000000000cfc .L0 
     /tmp/cchyCMA1.s:2240   .text:0000000000000cfc .L0 
     /tmp/cchyCMA1.s:2241   .text:0000000000000cfc .L0 
     /tmp/cchyCMA1.s:2245   .text:0000000000000d0c .L0 
     /tmp/cchyCMA1.s:2246   .text:0000000000000d10 .L0 
     /tmp/cchyCMA1.s:2250   .text:0000000000000d1c .L0 
     /tmp/cchyCMA1.s:2251   .text:0000000000000d1c .L0 
     /tmp/cchyCMA1.s:2252   .text:0000000000000d1c .L0 
     /tmp/cchyCMA1.s:2254   .text:0000000000000d20 .L0 
     /tmp/cchyCMA1.s:2258   .text:0000000000000d20 .L0 
     /tmp/cchyCMA1.s:2259   .text:0000000000000d20 .L0 
     /tmp/cchyCMA1.s:2264   .text:0000000000000d34 .L0 
     /tmp/cchyCMA1.s:2265   .text:0000000000000d34 .L0 
     /tmp/cchyCMA1.s:2270   .text:0000000000000d48 .L0 
     /tmp/cchyCMA1.s:2273   .text:0000000000000d50 .L0 
     /tmp/cchyCMA1.s:2274   .text:0000000000000d50 .L0 
     /tmp/cchyCMA1.s:2277   .text:0000000000000d58 .L0 
     /tmp/cchyCMA1.s:2278   .text:0000000000000d58 .L0 
     /tmp/cchyCMA1.s:2282   .text:0000000000000d64 .L0 
     /tmp/cchyCMA1.s:2283   .text:0000000000000d64 .L0 
     /tmp/cchyCMA1.s:2287   .text:0000000000000d74 .L0 
     /tmp/cchyCMA1.s:2288   .text:0000000000000d78 .L0 
     /tmp/cchyCMA1.s:2290   .text:0000000000000d7c .L0 
     /tmp/cchyCMA1.s:2291   .text:0000000000000d7c .L0 
     /tmp/cchyCMA1.s:2293   .text:0000000000000d80 .L0 
     /tmp/cchyCMA1.s:2295   .text:0000000000000d84 .L0 
     /tmp/cchyCMA1.s:2300   .text:0000000000000d8c .L0 
     /tmp/cchyCMA1.s:2306   .text:0000000000000d8c _Z8semTest1v
     /tmp/cchyCMA1.s:2309   .text:0000000000000d8c .L0 
     /tmp/cchyCMA1.s:2310   .text:0000000000000d8c .L0 
     /tmp/cchyCMA1.s:2311   .text:0000000000000d90 .L0 
     /tmp/cchyCMA1.s:2313   .text:0000000000000d94 .L0 
     /tmp/cchyCMA1.s:2315   .text:0000000000000d98 .L0 
     /tmp/cchyCMA1.s:2317   .text:0000000000000d98 .L0 
     /tmp/cchyCMA1.s:2318   .text:0000000000000d9c .L0 
     /tmp/cchyCMA1.s:2319   .text:0000000000000d9c .L0 
     /tmp/cchyCMA1.s:2321   .text:0000000000000da0 .L0 
     /tmp/cchyCMA1.s:2323   .text:0000000000000da4 .L0 
     /tmp/cchyCMA1.s:2329   .text:0000000000000da4 _Z12consoleTest1v
     /tmp/cchyCMA1.s:2332   .text:0000000000000da4 .L0 
     /tmp/cchyCMA1.s:2333   .text:0000000000000da4 .L0 
     /tmp/cchyCMA1.s:2334   .text:0000000000000da8 .L0 
     /tmp/cchyCMA1.s:2338   .text:0000000000000db4 .L0 
     /tmp/cchyCMA1.s:2339   .text:0000000000000db4 .L0 
     /tmp/cchyCMA1.s:2340   .text:0000000000000db4 .L0 
     /tmp/cchyCMA1.s:2342   .text:0000000000000db8 .L0 
     /tmp/cchyCMA1.s:2346   .text:0000000000000db8 .L0 
     /tmp/cchyCMA1.s:2347   .text:0000000000000db8 .L0 
     /tmp/cchyCMA1.s:2351   .text:0000000000000dbc .L0 
     /tmp/cchyCMA1.s:2354   .text:0000000000000dc4 .L0 
     /tmp/cchyCMA1.s:2355   .text:0000000000000dc4 .L0 
     /tmp/cchyCMA1.s:2358   .text:0000000000000dcc .L0 
     /tmp/cchyCMA1.s:2365   .text:0000000000000dd4 .L0 
GAS LISTING /tmp/cchyCMA1.s 			page 82


     /tmp/cchyCMA1.s:2366   .text:0000000000000dd8 .L0 
     /tmp/cchyCMA1.s:2368   .text:0000000000000ddc .L0 
     /tmp/cchyCMA1.s:2369   .text:0000000000000ddc .L0 
     /tmp/cchyCMA1.s:2371   .text:0000000000000de0 .L0 
     /tmp/cchyCMA1.s:2374   .text:0000000000000de4 .L0 
     /tmp/cchyCMA1.s:2376   .text:0000000000000de8 .L0 
     /tmp/cchyCMA1.s:2382   .text:0000000000000de8 _Z12consoleTestsv
     /tmp/cchyCMA1.s:2385   .text:0000000000000de8 .L0 
     /tmp/cchyCMA1.s:2386   .text:0000000000000de8 .L0 
     /tmp/cchyCMA1.s:2387   .text:0000000000000dec .L0 
     /tmp/cchyCMA1.s:2390   .text:0000000000000df4 .L0 
     /tmp/cchyCMA1.s:2391   .text:0000000000000df4 .L0 
     /tmp/cchyCMA1.s:2393   .text:0000000000000df8 .L0 
     /tmp/cchyCMA1.s:2395   .text:0000000000000df8 .L0 
     /tmp/cchyCMA1.s:2396   .text:0000000000000df8 .L0 
     /tmp/cchyCMA1.s:2399   .text:0000000000000e00 .L0 
     /tmp/cchyCMA1.s:2400   .text:0000000000000e04 .L0 
     /tmp/cchyCMA1.s:2402   .text:0000000000000e08 .L0 
     /tmp/cchyCMA1.s:2403   .text:0000000000000e08 .L0 
     /tmp/cchyCMA1.s:2405   .text:0000000000000e0c .L0 
     /tmp/cchyCMA1.s:2407   .text:0000000000000e10 .L0 
     /tmp/cchyCMA1.s:2413   .text:0000000000000e10 _Z15changeModeTest1v
     /tmp/cchyCMA1.s:2416   .text:0000000000000e10 .L0 
     /tmp/cchyCMA1.s:2417   .text:0000000000000e10 .L0 
     /tmp/cchyCMA1.s:2418   .text:0000000000000e14 .L0 
     /tmp/cchyCMA1.s:2420   .text:0000000000000e18 .L0 
     /tmp/cchyCMA1.s:2422   .text:0000000000000e1c .L0 
     /tmp/cchyCMA1.s:2424   .text:0000000000000e1c .L0 
       src/Tests.cpp:527    .text:0000000000000e1c .L0 
     /tmp/cchyCMA1.s:2431   .text:0000000000000e20 .L0 
     /tmp/cchyCMA1.s:2432   .text:0000000000000e24 .L0 
     /tmp/cchyCMA1.s:2433   .text:0000000000000e24 .L0 
     /tmp/cchyCMA1.s:2435   .text:0000000000000e28 .L0 
     /tmp/cchyCMA1.s:2437   .text:0000000000000e2c .L0 
     /tmp/cchyCMA1.s:2443   .text:0000000000000e2c _Z15changeModeTestsv
     /tmp/cchyCMA1.s:2446   .text:0000000000000e2c .L0 
     /tmp/cchyCMA1.s:2447   .text:0000000000000e2c .L0 
     /tmp/cchyCMA1.s:2448   .text:0000000000000e30 .L0 
     /tmp/cchyCMA1.s:2451   .text:0000000000000e38 .L0 
     /tmp/cchyCMA1.s:2452   .text:0000000000000e38 .L0 
     /tmp/cchyCMA1.s:2454   .text:0000000000000e3c .L0 
     /tmp/cchyCMA1.s:2456   .text:0000000000000e3c .L0 
     /tmp/cchyCMA1.s:2457   .text:0000000000000e3c .L0 
     /tmp/cchyCMA1.s:2460   .text:0000000000000e44 .L0 
     /tmp/cchyCMA1.s:2461   .text:0000000000000e48 .L0 
     /tmp/cchyCMA1.s:2463   .text:0000000000000e4c .L0 
     /tmp/cchyCMA1.s:2464   .text:0000000000000e4c .L0 
     /tmp/cchyCMA1.s:2466   .text:0000000000000e50 .L0 
     /tmp/cchyCMA1.s:2468   .text:0000000000000e54 .L0 
     /tmp/cchyCMA1.s:2506   .data:0000000000000000 string
     /tmp/cchyCMA1.s:2518   .bss:0000000000000008 itemAvailable
     /tmp/cchyCMA1.s:2527   .bss:0000000000000020 spaceAvailable
     /tmp/cchyCMA1.s:2531   .bss:0000000000000028 tail
     /tmp/cchyCMA1.s:2513   .bss:0000000000000000 head
     /tmp/cchyCMA1.s:2522   .bss:0000000000000010 buffer
     /tmp/cchyCMA1.s:2503   .data:0000000000000000 .LANCHOR1
     /tmp/cchyCMA1.s:2510   .bss:0000000000000000 .LANCHOR0
GAS LISTING /tmp/cchyCMA1.s 			page 83


     /tmp/cchyCMA1.s:32     .text._ZN6Thread3runEv:0000000000000018 .L0 
     /tmp/cchyCMA1.s:57     .text._ZN14PeriodicThread18periodicActivationEv:0000000000000018 .L0 
     /tmp/cchyCMA1.s:2539   .text:0000000000000e54 .L0 
     /tmp/cchyCMA1.s:170    .text._ZN14PeriodicThreadD2Ev:0000000000000034 .L0 
     /tmp/cchyCMA1.s:217    .text._ZN14PeriodicThreadD0Ev:000000000000004c .L0 
     /tmp/cchyCMA1.s:259    .text._ZN12TestPeriodicD2Ev:0000000000000034 .L0 
     /tmp/cchyCMA1.s:309    .text._ZN12TestPeriodicD0Ev:000000000000004c .L0 
     /tmp/cchyCMA1.s:59     .rodata.str1.8:0000000000000000 .LC0
     /tmp/cchyCMA1.s:96     .text:0000000000000020 .L0 
     /tmp/cchyCMA1.s:62     .rodata.str1.8:0000000000000008 .LC1
     /tmp/cchyCMA1.s:108    .text:0000000000000044 .L0 
     /tmp/cchyCMA1.s:311    .rodata.str1.8:0000000000000010 .LC2
     /tmp/cchyCMA1.s:335    .text:0000000000000080 .L0 
     /tmp/cchyCMA1.s:349    .rodata.str1.8:0000000000000018 .LC3
     /tmp/cchyCMA1.s:372    .text:00000000000000b0 .L0 
     /tmp/cchyCMA1.s:391    .text:00000000000000d0 .L0 
     /tmp/cchyCMA1.s:403    .text:00000000000000f4 .L0 
     /tmp/cchyCMA1.s:442    .rodata.str1.8:0000000000000030 .LC4
     /tmp/cchyCMA1.s:468    .text:0000000000000150 .L0 
     /tmp/cchyCMA1.s:445    .rodata.str1.8:0000000000000048 .LC5
     /tmp/cchyCMA1.s:487    .text:0000000000000170 .L0 
     /tmp/cchyCMA1.s:499    .text:0000000000000194 .L0 
     /tmp/cchyCMA1.s:556    .text:00000000000001f0 .L0 
     /tmp/cchyCMA1.s:581    .text:000000000000021c .L0 
     /tmp/cchyCMA1.s:593    .text:0000000000000240 .L0 
     /tmp/cchyCMA1.s:682    .rodata.str1.8:0000000000000050 .LC6
     /tmp/cchyCMA1.s:710    .text:00000000000002d4 .L0 
     /tmp/cchyCMA1.s:685    .rodata.str1.8:0000000000000060 .LC7
     /tmp/cchyCMA1.s:740    .text:0000000000000318 .L0 
     /tmp/cchyCMA1.s:792    .text:000000000000036c .L0 
     /tmp/cchyCMA1.s:830    .text:00000000000003b4 .L0 
     /tmp/cchyCMA1.s:866    .text:00000000000003f8 .L0 
     /tmp/cchyCMA1.s:688    .rodata.str1.8:0000000000000068 .LC8
     /tmp/cchyCMA1.s:877    .text:000000000000040c .L0 
     /tmp/cchyCMA1.s:886    .rodata.str1.8:0000000000000070 .LC9
     /tmp/cchyCMA1.s:906    .text:0000000000000430 .L0 
     /tmp/cchyCMA1.s:911    .text:0000000000000440 .L0 
     /tmp/cchyCMA1.s:913    .text:000000000000044c .L0 
     /tmp/cchyCMA1.s:927    .text:000000000000046c .L0 
     /tmp/cchyCMA1.s:947    .text:000000000000048c .L0 
     /tmp/cchyCMA1.s:957    .rodata.str1.8:0000000000000080 .LC10
     /tmp/cchyCMA1.s:993    .text:00000000000004c0 .L0 
     /tmp/cchyCMA1.s:1009   .text:00000000000004e4 .L0 
     /tmp/cchyCMA1.s:960    .rodata.str1.8:0000000000000088 .LC11
     /tmp/cchyCMA1.s:1035   .text:000000000000050c .L0 
     /tmp/cchyCMA1.s:1109   .rodata.str1.8:0000000000000090 .LC12
     /tmp/cchyCMA1.s:1129   .text:00000000000005b0 .L0 
     /tmp/cchyCMA1.s:1147   .text:00000000000005dc .L0 
     /tmp/cchyCMA1.s:1167   .text:00000000000005fc .L0 
     /tmp/cchyCMA1.s:1178   .rodata.str1.8:00000000000000a0 .LC13
     /tmp/cchyCMA1.s:1205   .text:0000000000000628 .L0 
     /tmp/cchyCMA1.s:1235   .text:000000000000066c .L0 
     /tmp/cchyCMA1.s:1313   .text:00000000000006f4 .L0 
     /tmp/cchyCMA1.s:1181   .rodata.str1.8:00000000000000b0 .LC14
     /tmp/cchyCMA1.s:1322   .text:0000000000000708 .L0 
     /tmp/cchyCMA1.s:1374   .text:000000000000076c .L0 
     /tmp/cchyCMA1.s:1383   .text:0000000000000780 .L0 
GAS LISTING /tmp/cchyCMA1.s 			page 84


     /tmp/cchyCMA1.s:1402   .text:000000000000079c .L0 
     /tmp/cchyCMA1.s:1479   .text:0000000000000800 .L0 
     /tmp/cchyCMA1.s:1633   .rodata.str1.8:00000000000000b8 .LC15
     /tmp/cchyCMA1.s:1668   .text:00000000000008e0 .L0 
     /tmp/cchyCMA1.s:1636   .rodata.str1.8:00000000000000e0 .LC16
     /tmp/cchyCMA1.s:1767   .text:00000000000009bc .L0 
     /tmp/cchyCMA1.s:1775   .text:00000000000009d0 .L0 
     /tmp/cchyCMA1.s:1835   .rodata.str1.8:0000000000000110 .LC17
     /tmp/cchyCMA1.s:1874   .text:0000000000000a50 .L0 
     /tmp/cchyCMA1.s:1907   .text:0000000000000a98 .L0 
     /tmp/cchyCMA1.s:2067   .text:0000000000000ba8 .L0 
     /tmp/cchyCMA1.s:2077   .text:0000000000000bbc .L0 
     /tmp/cchyCMA1.s:2087   .text:0000000000000bd0 .L0 
     /tmp/cchyCMA1.s:2097   .text:0000000000000be4 .L0 
     /tmp/cchyCMA1.s:1838   .rodata.str1.8:0000000000000158 .LC18
     /tmp/cchyCMA1.s:2155   .text:0000000000000c60 .L0 
     /tmp/cchyCMA1.s:2172   .text:0000000000000c74 .L0 
     /tmp/cchyCMA1.s:2190   .text:0000000000000c98 .L0 
     /tmp/cchyCMA1.s:2211   .text:0000000000000cd4 .L0 
     /tmp/cchyCMA1.s:2241   .text:0000000000000cfc .L0 
     /tmp/cchyCMA1.s:2259   .text:0000000000000d20 .L0 
     /tmp/cchyCMA1.s:2266   .text:0000000000000d38 .L0 
     /tmp/cchyCMA1.s:2283   .text:0000000000000d64 .L0 
     /tmp/cchyCMA1.s:116    .text:000000000000005c .L5
     /tmp/cchyCMA1.s:90     .text:0000000000000018 .L7
     /tmp/cchyCMA1.s:331    .text:0000000000000080 .L18
     /tmp/cchyCMA1.s:409    .text:0000000000000108 .L23
     /tmp/cchyCMA1.s:423    .text:0000000000000128 .L20
     /tmp/cchyCMA1.s:388    .text:00000000000000d0 .L22
     /tmp/cchyCMA1.s:383    .text:00000000000000c8 .L25
     /tmp/cchyCMA1.s:505    .text:00000000000001a8 .L29
     /tmp/cchyCMA1.s:519    .text:00000000000001c8 .L26
     /tmp/cchyCMA1.s:484    .text:0000000000000170 .L28
     /tmp/cchyCMA1.s:479    .text:0000000000000168 .L31
     /tmp/cchyCMA1.s:599    .text:0000000000000254 .L36
     /tmp/cchyCMA1.s:607    .text:0000000000000268 .L34
     /tmp/cchyCMA1.s:617    .text:000000000000027c .L32
     /tmp/cchyCMA1.s:567    .text:0000000000000208 .L38
     /tmp/cchyCMA1.s:578    .text:000000000000021c .L35
     /tmp/cchyCMA1.s:573    .text:0000000000000214 .L39
     /tmp/cchyCMA1.s:722    .text:00000000000002f0 .L48
     /tmp/cchyCMA1.s:759    .text:000000000000033c .L56
     /tmp/cchyCMA1.s:718    .text:00000000000002ec .L46
     /tmp/cchyCMA1.s:798    .text:0000000000000380 .L57
     /tmp/cchyCMA1.s:788    .text:000000000000036c .L60
     /tmp/cchyCMA1.s:765    .text:0000000000000340 .L45
     /tmp/cchyCMA1.s:744    .text:0000000000000328 .L44
     /tmp/cchyCMA1.s:812    .text:000000000000038c .L49
     /tmp/cchyCMA1.s:835    .text:00000000000003c8 .L58
     /tmp/cchyCMA1.s:807    .text:0000000000000388 .L52
     /tmp/cchyCMA1.s:872    .text:000000000000040c .L53
     /tmp/cchyCMA1.s:862    .text:00000000000003f8 .L61
     /tmp/cchyCMA1.s:841    .text:00000000000003cc .L51
     /tmp/cchyCMA1.s:943    .text:000000000000048c .L66
     /tmp/cchyCMA1.s:931    .text:000000000000047c .L62
     /tmp/cchyCMA1.s:1070   .text:0000000000000558 .L72
     /tmp/cchyCMA1.s:1004   .text:00000000000004e4 .L69
GAS LISTING /tmp/cchyCMA1.s 			page 85


     /tmp/cchyCMA1.s:989    .text:00000000000004c0 .L74
     /tmp/cchyCMA1.s:1029   .text:000000000000050c .L75
     /tmp/cchyCMA1.s:1063   .text:0000000000000554 .L71
     /tmp/cchyCMA1.s:1049   .text:0000000000000534 .L76
     /tmp/cchyCMA1.s:1163   .text:00000000000005fc .L78
     /tmp/cchyCMA1.s:1151   .text:00000000000005ec .L77
     /tmp/cchyCMA1.s:1217   .text:0000000000000644 .L85
     /tmp/cchyCMA1.s:1256   .text:0000000000000694 .L95
     /tmp/cchyCMA1.s:1213   .text:0000000000000640 .L83
     /tmp/cchyCMA1.s:1399   .text:000000000000079c .L86
     /tmp/cchyCMA1.s:1327   .text:000000000000071c .L96
     /tmp/cchyCMA1.s:1309   .text:00000000000006f4 .L98
     /tmp/cchyCMA1.s:1319   .text:0000000000000708 .L99
     /tmp/cchyCMA1.s:1269   .text:00000000000006a0 .L90
     /tmp/cchyCMA1.s:1239   .text:000000000000067c .L81
     /tmp/cchyCMA1.s:1388   .text:0000000000000794 .L91
     /tmp/cchyCMA1.s:1370   .text:000000000000076c .L100
     /tmp/cchyCMA1.s:1380   .text:0000000000000780 .L101
     /tmp/cchyCMA1.s:1334   .text:0000000000000720 .L87
     /tmp/cchyCMA1.s:1261   .text:0000000000000698 .L82
     /tmp/cchyCMA1.s:1539   .text:0000000000000860 .L109
     /tmp/cchyCMA1.s:1772   .text:00000000000009d0 .L118
     /tmp/cchyCMA1.s:1764   .text:00000000000009bc .L121
     /tmp/cchyCMA1.s:1780   .text:00000000000009e0 .L117
     /tmp/cchyCMA1.s:1940   .text:0000000000000ad8 .L126
     /tmp/cchyCMA1.s:1904   .text:0000000000000a98 .L146
     /tmp/cchyCMA1.s:1880   .text:0000000000000a64 .L129
     /tmp/cchyCMA1.s:1950   .text:0000000000000ae8 .L130
     /tmp/cchyCMA1.s:2063   .text:0000000000000ba8 .L131
     /tmp/cchyCMA1.s:2074   .text:0000000000000bbc .L133
     /tmp/cchyCMA1.s:2020   .text:0000000000000b5c .L135
     /tmp/cchyCMA1.s:2029   .text:0000000000000b6c .L136
     /tmp/cchyCMA1.s:2084   .text:0000000000000bd0 .L137
     /tmp/cchyCMA1.s:2094   .text:0000000000000be4 .L139
     /tmp/cchyCMA1.s:2109   .text:0000000000000bfc .L140
     /tmp/cchyCMA1.s:1911   .text:0000000000000aa8 .L125
     /tmp/cchyCMA1.s:2126   .text:0000000000000c24 .L141
     /tmp/cchyCMA1.s:2104   .text:0000000000000bf8 .L142
     /tmp/cchyCMA1.s:2226   .text:0000000000000cf8 .L155
     /tmp/cchyCMA1.s:2187   .text:0000000000000c98 .L152
     /tmp/cchyCMA1.s:2298   .text:0000000000000d88 .L164
     /tmp/cchyCMA1.s:2256   .text:0000000000000d20 .L161
     /tmp/cchyCMA1.s:2362   .text:0000000000000dd4 .L167
     /tmp/cchyCMA1.s:2349   .text:0000000000000dbc .L169
     /tmp/cchyCMA1.s:152    .text._ZN14PeriodicThreadD2Ev:0000000000000010 .L0 
     /tmp/cchyCMA1.s:194    .text._ZN14PeriodicThreadD0Ev:0000000000000018 .L0 
     /tmp/cchyCMA1.s:239    .text._ZN12TestPeriodicD2Ev:0000000000000010 .L0 
     /tmp/cchyCMA1.s:284    .text._ZN12TestPeriodicD0Ev:0000000000000018 .L0 
     /tmp/cchyCMA1.s:1523   .text:000000000000083c .LEHB0
     /tmp/cchyCMA1.s:1503   .text:0000000000000820 .LFB33
     /tmp/cchyCMA1.s:1526   .text:0000000000000844 .LEHE0
     /tmp/cchyCMA1.s:1529   .text:000000000000084c .LEHB1
     /tmp/cchyCMA1.s:1532   .text:0000000000000854 .LEHE1
     /tmp/cchyCMA1.s:1549   .text:000000000000086c .L111
     /tmp/cchyCMA1.s:1536   .text:0000000000000858 .LEHB2
     /tmp/cchyCMA1.s:1545   .text:0000000000000868 .LEHE2
     /tmp/cchyCMA1.s:1556   .text:0000000000000880 .LEHB3
GAS LISTING /tmp/cchyCMA1.s 			page 86


     /tmp/cchyCMA1.s:1559   .text:0000000000000888 .LEHE3
     /tmp/cchyCMA1.s:5533   .debug_abbrev:0000000000000000 .Ldebug_abbrev0
     /tmp/cchyCMA1.s:7856   .debug_str:0000000000000656 .LASF142
     /tmp/cchyCMA1.s:7758   .debug_str:0000000000000364 .LASF143
     /tmp/cchyCMA1.s:7882   .debug_str:0000000000000795 .LASF144
     /tmp/cchyCMA1.s:7574   .debug_ranges:0000000000000000 .Ldebug_ranges0
     /tmp/cchyCMA1.s:7636   .debug_line:0000000000000000 .Ldebug_line0
     /tmp/cchyCMA1.s:7748   .debug_str:00000000000002fe .LASF0
     /tmp/cchyCMA1.s:7770   .debug_str:00000000000003c8 .LASF1
     /tmp/cchyCMA1.s:7842   .debug_str:00000000000005e9 .LASF2
     /tmp/cchyCMA1.s:7848   .debug_str:000000000000061a .LASF4
     /tmp/cchyCMA1.s:7756   .debug_str:0000000000000352 .LASF3
     /tmp/cchyCMA1.s:7650   .debug_str:0000000000000072 .LASF5
     /tmp/cchyCMA1.s:7826   .debug_str:000000000000055c .LASF6
     /tmp/cchyCMA1.s:7818   .debug_str:000000000000051c .LASF7
     /tmp/cchyCMA1.s:7766   .debug_str:00000000000003ab .LASF8
     /tmp/cchyCMA1.s:7730   .debug_str:0000000000000277 .LASF9
     /tmp/cchyCMA1.s:7738   .debug_str:00000000000002ca .LASF10
     /tmp/cchyCMA1.s:7670   .debug_str:0000000000000108 .LASF11
     /tmp/cchyCMA1.s:7718   .debug_str:000000000000022c .LASF12
     /tmp/cchyCMA1.s:7692   .debug_str:0000000000000166 .LASF13
     /tmp/cchyCMA1.s:7668   .debug_str:00000000000000f8 .LASF14
     /tmp/cchyCMA1.s:7860   .debug_str:000000000000071f .LASF15
     /tmp/cchyCMA1.s:7704   .debug_str:00000000000001c5 .LASF16
     /tmp/cchyCMA1.s:7852   .debug_str:000000000000062f .LASF17
     /tmp/cchyCMA1.s:7858   .debug_str:000000000000071a .LASF20
     /tmp/cchyCMA1.s:7642   .debug_str:0000000000000034 .LASF29
     /tmp/cchyCMA1.s:7714   .debug_str:0000000000000219 .LASF38
     /tmp/cchyCMA1.s:7922   .debug_str:00000000000008ad .LASF18
     /tmp/cchyCMA1.s:7874   .debug_str:000000000000076b .LASF19
     /tmp/cchyCMA1.s:7892   .debug_str:00000000000007dd .LASF21
     /tmp/cchyCMA1.s:7674   .debug_str:000000000000011c .LASF145
     /tmp/cchyCMA1.s:7774   .debug_str:00000000000003eb .LASF22
     /tmp/cchyCMA1.s:7876   .debug_str:0000000000000770 .LASF23
     /tmp/cchyCMA1.s:7716   .debug_str:0000000000000227 .LASF24
     /tmp/cchyCMA1.s:7804   .debug_str:00000000000004c6 .LASF25
     /tmp/cchyCMA1.s:7890   .debug_str:00000000000007ce .LASF26
     /tmp/cchyCMA1.s:7784   .debug_str:0000000000000431 .LASF27
     /tmp/cchyCMA1.s:7658   .debug_str:00000000000000a3 .LASF28
     /tmp/cchyCMA1.s:7932   .debug_str:00000000000008e9 .LASF30
     /tmp/cchyCMA1.s:7878   .debug_str:0000000000000777 .LASF31
     /tmp/cchyCMA1.s:7776   .debug_str:00000000000003f0 .LASF32
     /tmp/cchyCMA1.s:7938   .debug_str:0000000000000919 .LASF146
     /tmp/cchyCMA1.s:7734   .debug_str:000000000000029f .LASF36
     /tmp/cchyCMA1.s:7664   .debug_str:00000000000000c4 .LASF147
     /tmp/cchyCMA1.s:7850   .debug_str:0000000000000621 .LASF40
     /tmp/cchyCMA1.s:7914   .debug_str:0000000000000873 .LASF42
     /tmp/cchyCMA1.s:7678   .debug_str:0000000000000139 .LASF33
     /tmp/cchyCMA1.s:7896   .debug_str:00000000000007f1 .LASF34
     /tmp/cchyCMA1.s:7900   .debug_str:000000000000081b .LASF35
     /tmp/cchyCMA1.s:7764   .debug_str:0000000000000393 .LASF148
     /tmp/cchyCMA1.s:7640   .debug_str:000000000000000a .LASF149
     /tmp/cchyCMA1.s:7920   .debug_str:00000000000008a6 .LASF37
     /tmp/cchyCMA1.s:7754   .debug_str:0000000000000334 .LASF39
     /tmp/cchyCMA1.s:7810   .debug_str:00000000000004ee .LASF41
     /tmp/cchyCMA1.s:7732   .debug_str:0000000000000287 .LASF43
     /tmp/cchyCMA1.s:7746   .debug_str:00000000000002f7 .LASF150
GAS LISTING /tmp/cchyCMA1.s 			page 87


     /tmp/cchyCMA1.s:7814   .debug_str:0000000000000505 .LASF151
     /tmp/cchyCMA1.s:7646   .debug_str:0000000000000055 .LASF117
     /tmp/cchyCMA1.s:7930   .debug_str:00000000000008e3 .LASF119
     /tmp/cchyCMA1.s:7724   .debug_str:000000000000024f .LASF44
     /tmp/cchyCMA1.s:7648   .debug_str:0000000000000068 .LASF45
     /tmp/cchyCMA1.s:7832   .debug_str:0000000000000580 .LASF46
     /tmp/cchyCMA1.s:264    .text._ZN12TestPeriodicD0Ev:0000000000000000 .LFB64
     /tmp/cchyCMA1.s:307    .text._ZN12TestPeriodicD0Ev:000000000000004c .LFE64
     /tmp/cchyCMA1.s:6714   .debug_loc:0000000000000000 .LLST7
     /tmp/cchyCMA1.s:280    .text._ZN12TestPeriodicD0Ev:0000000000000018 .LBB20
     /tmp/cchyCMA1.s:290    .text._ZN12TestPeriodicD0Ev:000000000000002c .LBE20
     /tmp/cchyCMA1.s:6732   .debug_loc:000000000000004c .LLST8
     /tmp/cchyCMA1.s:281    .text._ZN12TestPeriodicD0Ev:0000000000000018 .LBB21
     /tmp/cchyCMA1.s:289    .text._ZN12TestPeriodicD0Ev:000000000000002c .LBE21
     /tmp/cchyCMA1.s:287    .text._ZN12TestPeriodicD0Ev:000000000000002c .LVL23
     /tmp/cchyCMA1.s:294    .text._ZN12TestPeriodicD0Ev:0000000000000038 .LVL24
     /tmp/cchyCMA1.s:7726   .debug_str:0000000000000254 .LASF47
     /tmp/cchyCMA1.s:222    .text._ZN12TestPeriodicD2Ev:0000000000000000 .LFB62
     /tmp/cchyCMA1.s:255    .text._ZN12TestPeriodicD2Ev:0000000000000034 .LFE62
     /tmp/cchyCMA1.s:6743   .debug_loc:0000000000000082 .LLST5
     /tmp/cchyCMA1.s:236    .text._ZN12TestPeriodicD2Ev:0000000000000010 .LBB18
     /tmp/cchyCMA1.s:244    .text._ZN12TestPeriodicD2Ev:0000000000000024 .LBE18
     /tmp/cchyCMA1.s:6757   .debug_loc:00000000000000bb .LLST6
     /tmp/cchyCMA1.s:242    .text._ZN12TestPeriodicD2Ev:0000000000000024 .LVL20
     /tmp/cchyCMA1.s:7702   .debug_str:00000000000001b5 .LASF48
     /tmp/cchyCMA1.s:7838   .debug_str:00000000000005bf .LASF50
     /tmp/cchyCMA1.s:2444   .text:0000000000000e2c .LFB60
     /tmp/cchyCMA1.s:2469   .text:0000000000000e54 .LFE60
     /tmp/cchyCMA1.s:2458   .text:0000000000000e44 .LVL264
     /tmp/cchyCMA1.s:7660   .debug_str:00000000000000aa .LASF54
     /tmp/cchyCMA1.s:7926   .debug_str:00000000000008bf .LASF56
     /tmp/cchyCMA1.s:2414   .text:0000000000000e10 .LFB59
     /tmp/cchyCMA1.s:2438   .text:0000000000000e2c .LFE59
     /tmp/cchyCMA1.s:7762   .debug_str:0000000000000386 .LASF49
     /tmp/cchyCMA1.s:7698   .debug_str:000000000000019b .LASF51
     /tmp/cchyCMA1.s:2383   .text:0000000000000de8 .LFB58
     /tmp/cchyCMA1.s:2408   .text:0000000000000e10 .LFE58
     /tmp/cchyCMA1.s:2397   .text:0000000000000e00 .LVL263
     /tmp/cchyCMA1.s:7728   .debug_str:000000000000026a .LASF52
     /tmp/cchyCMA1.s:7800   .debug_str:00000000000004a4 .LASF53
     /tmp/cchyCMA1.s:2330   .text:0000000000000da4 .LFB57
     /tmp/cchyCMA1.s:2377   .text:0000000000000de8 .LFE57
     /tmp/cchyCMA1.s:2345   .text:0000000000000db8 .LBB51
     /tmp/cchyCMA1.s:2363   .text:0000000000000dd4 .LBE51
     /tmp/cchyCMA1.s:6771   .debug_loc:00000000000000f4 .LLST61
     /tmp/cchyCMA1.s:2356   .text:0000000000000dcc .LVL259
     /tmp/cchyCMA1.s:7862   .debug_str:000000000000072b .LASF55
     /tmp/cchyCMA1.s:7796   .debug_str:0000000000000485 .LASF57
     /tmp/cchyCMA1.s:2307   .text:0000000000000d8c .LFB56
     /tmp/cchyCMA1.s:2324   .text:0000000000000da4 .LFE56
     /tmp/cchyCMA1.s:7638   .debug_str:0000000000000000 .LASF58
     /tmp/cchyCMA1.s:7894   .debug_str:00000000000007e2 .LASF59
     /tmp/cchyCMA1.s:2235   .text:0000000000000cfc .LFB55
     /tmp/cchyCMA1.s:2301   .text:0000000000000d8c .LFE55
     /tmp/cchyCMA1.s:6787   .debug_loc:000000000000013e .LLST60
     /tmp/cchyCMA1.s:2262   .text:0000000000000d34 .LVL254
     /tmp/cchyCMA1.s:2280   .text:0000000000000d64 .LVL255
GAS LISTING /tmp/cchyCMA1.s 			page 88


     /tmp/cchyCMA1.s:7768   .debug_str:00000000000003be .LASF60
     /tmp/cchyCMA1.s:7720   .debug_str:000000000000023b .LASF61
     /tmp/cchyCMA1.s:2166   .text:0000000000000c74 .LFB54
     /tmp/cchyCMA1.s:2229   .text:0000000000000cfc .LFE54
     /tmp/cchyCMA1.s:6805   .debug_loc:000000000000018a .LLST59
     /tmp/cchyCMA1.s:2193   .text:0000000000000cac .LVL248
     /tmp/cchyCMA1.s:2203   .text:0000000000000cc8 .LVL249
     /tmp/cchyCMA1.s:2208   .text:0000000000000cd4 .LVL250
     /tmp/cchyCMA1.s:7794   .debug_str:0000000000000473 .LASF62
     /tmp/cchyCMA1.s:7708   .debug_str:00000000000001ec .LASF63
     /tmp/cchyCMA1.s:1845   .text:0000000000000a20 .LFB53
     /tmp/cchyCMA1.s:2160   .text:0000000000000c74 .LFE53
     /tmp/cchyCMA1.s:7682   .debug_str:000000000000014d .LASF64
     /tmp/cchyCMA1.s:7684   .debug_str:0000000000000152 .LASF65
     /tmp/cchyCMA1.s:6823   .debug_loc:00000000000001d6 .LLST45
     /tmp/cchyCMA1.s:7686   .debug_str:0000000000000157 .LASF66
     /tmp/cchyCMA1.s:6834   .debug_loc:000000000000020c .LLST46
     /tmp/cchyCMA1.s:6853   .debug_loc:0000000000000268 .LLST47
     /tmp/cchyCMA1.s:6874   .debug_loc:00000000000002c8 .LLST48
     /tmp/cchyCMA1.s:6895   .debug_loc:0000000000000328 .LLST49
     /tmp/cchyCMA1.s:6906   .debug_loc:000000000000035e .LLST50
     /tmp/cchyCMA1.s:7866   .debug_str:0000000000000744 .LASF67
     /tmp/cchyCMA1.s:6937   .debug_loc:00000000000003e7 .LLST51
     /tmp/cchyCMA1.s:7880   .debug_str:000000000000078f .LASF68
     /tmp/cchyCMA1.s:6948   .debug_loc:000000000000041d .LLST52
     /tmp/cchyCMA1.s:7740   .debug_str:00000000000002d8 .LASF69
     /tmp/cchyCMA1.s:6959   .debug_loc:0000000000000453 .LLST53
     /tmp/cchyCMA1.s:7688   .debug_str:000000000000015c .LASF70
     /tmp/cchyCMA1.s:6970   .debug_loc:0000000000000489 .LLST54
     /tmp/cchyCMA1.s:7690   .debug_str:0000000000000161 .LASF71
     /tmp/cchyCMA1.s:6985   .debug_loc:00000000000004d2 .LLST55
     /tmp/cchyCMA1.s:7884   .debug_str:00000000000007b8 .LASF72
     /tmp/cchyCMA1.s:7008   .debug_loc:0000000000000541 .LLST56
     /tmp/cchyCMA1.s:7886   .debug_str:00000000000007be .LASF73
     /tmp/cchyCMA1.s:7019   .debug_loc:0000000000000577 .LLST57
     /tmp/cchyCMA1.s:1877   .text:0000000000000a60 .LBB48
     /tmp/cchyCMA1.s:1912   .text:0000000000000aa8 .LBE48
     /tmp/cchyCMA1.s:7034   .debug_loc:00000000000005c0 .LLST58
     /tmp/cchyCMA1.s:1891   .text:0000000000000a7c .LVL197
     /tmp/cchyCMA1.s:1909   .text:0000000000000aa8 .LVL200
     /tmp/cchyCMA1.s:2124   .text:0000000000000c20 .LVL239
     /tmp/cchyCMA1.s:1876   .text:0000000000000a60 .LVL195
     /tmp/cchyCMA1.s:1949   .text:0000000000000ae8 .LVL202
     /tmp/cchyCMA1.s:1955   .text:0000000000000af4 .LVL203
     /tmp/cchyCMA1.s:1962   .text:0000000000000b04 .LVL205
     /tmp/cchyCMA1.s:1970   .text:0000000000000b14 .LVL208
     /tmp/cchyCMA1.s:2019   .text:0000000000000b5c .LVL216
     /tmp/cchyCMA1.s:2028   .text:0000000000000b6c .LVL217
     /tmp/cchyCMA1.s:2034   .text:0000000000000b78 .LVL218
     /tmp/cchyCMA1.s:2042   .text:0000000000000b88 .LVL221
     /tmp/cchyCMA1.s:2070   .text:0000000000000bb8 .LVL226
     /tmp/cchyCMA1.s:2080   .text:0000000000000bcc .LVL229
     /tmp/cchyCMA1.s:2090   .text:0000000000000be0 .LVL232
     /tmp/cchyCMA1.s:2100   .text:0000000000000bf4 .LVL235
     /tmp/cchyCMA1.s:2132   .text:0000000000000c30 .LVL240
     /tmp/cchyCMA1.s:2137   .text:0000000000000c3c .LVL241
     /tmp/cchyCMA1.s:2142   .text:0000000000000c48 .LVL242
GAS LISTING /tmp/cchyCMA1.s 			page 89


     /tmp/cchyCMA1.s:2147   .text:0000000000000c54 .LVL243
     /tmp/cchyCMA1.s:2152   .text:0000000000000c60 .LVL244
     /tmp/cchyCMA1.s:2157   .text:0000000000000c70 .LVL245
     /tmp/cchyCMA1.s:7824   .debug_str:000000000000054b .LASF74
     /tmp/cchyCMA1.s:7940   .debug_str:000000000000092f .LASF75
     /tmp/cchyCMA1.s:1814   .text:0000000000000a08 .LFB52
     /tmp/cchyCMA1.s:1831   .text:0000000000000a20 .LFE52
     /tmp/cchyCMA1.s:7808   .debug_str:00000000000004e3 .LASF76
     /tmp/cchyCMA1.s:7898   .debug_str:000000000000080b .LASF77
     /tmp/cchyCMA1.s:1643   .text:00000000000008b8 .LFB51
     /tmp/cchyCMA1.s:1808   .text:0000000000000a08 .LFE51
     /tmp/cchyCMA1.s:7049   .debug_loc:0000000000000609 .LLST39
     /tmp/cchyCMA1.s:7056   .debug_loc:000000000000062c .LLST40
     /tmp/cchyCMA1.s:7067   .debug_loc:0000000000000662 .LLST41
     /tmp/cchyCMA1.s:7078   .debug_loc:0000000000000698 .LLST42
     /tmp/cchyCMA1.s:7089   .debug_loc:00000000000006ce .LLST43
     /tmp/cchyCMA1.s:7100   .debug_loc:0000000000000704 .LLST44
     /tmp/cchyCMA1.s:1670   .text:00000000000008f0 .LVL163
     /tmp/cchyCMA1.s:1675   .text:00000000000008fc .LVL164
     /tmp/cchyCMA1.s:1686   .text:0000000000000914 .LVL166
     /tmp/cchyCMA1.s:1694   .text:0000000000000924 .LVL169
     /tmp/cchyCMA1.s:1702   .text:0000000000000934 .LVL172
     /tmp/cchyCMA1.s:1711   .text:0000000000000948 .LVL175
     /tmp/cchyCMA1.s:1719   .text:0000000000000958 .LVL178
     /tmp/cchyCMA1.s:1736   .text:000000000000097c .LVL180
     /tmp/cchyCMA1.s:1741   .text:0000000000000988 .LVL181
     /tmp/cchyCMA1.s:1746   .text:0000000000000994 .LVL182
     /tmp/cchyCMA1.s:1751   .text:00000000000009a0 .LVL183
     /tmp/cchyCMA1.s:1756   .text:00000000000009ac .LVL184
     /tmp/cchyCMA1.s:1763   .text:00000000000009bc .LVL185
     /tmp/cchyCMA1.s:1769   .text:00000000000009cc .LVL186
     /tmp/cchyCMA1.s:1778   .text:00000000000009e0 .LVL189
     /tmp/cchyCMA1.s:69     .text:0000000000000000 .LFB50
     /tmp/cchyCMA1.s:131    .text:0000000000000070 .LFE50
     /tmp/cchyCMA1.s:7115   .debug_loc:000000000000074d .LLST0
     /tmp/cchyCMA1.s:86     .text:0000000000000014 .LBB14
     /tmp/cchyCMA1.s:117    .text:000000000000005c .LBE14
     /tmp/cchyCMA1.s:7129   .debug_loc:0000000000000786 .LLST1
     /tmp/cchyCMA1.s:98     .text:0000000000000030 .LVL5
     /tmp/cchyCMA1.s:105    .text:0000000000000044 .LVL6
     /tmp/cchyCMA1.s:110    .text:0000000000000054 .LVL7
     /tmp/cchyCMA1.s:7672   .debug_str:0000000000000117 .LASF152
     /tmp/cchyCMA1.s:7752   .debug_str:000000000000031e .LASF78
     /tmp/cchyCMA1.s:1460   .text:00000000000007e0 .LFB48
     /tmp/cchyCMA1.s:1495   .text:0000000000000820 .LFE48
     /tmp/cchyCMA1.s:7145   .debug_loc:00000000000007d0 .LLST36
     /tmp/cchyCMA1.s:7163   .debug_loc:000000000000081c .LLST37
     /tmp/cchyCMA1.s:1478   .text:0000000000000800 .LVL152
     /tmp/cchyCMA1.s:7946   .debug_str:0000000000000960 .LASF79
     /tmp/cchyCMA1.s:175    .text._ZN14PeriodicThreadD0Ev:0000000000000000 .LFB47
     /tmp/cchyCMA1.s:215    .text._ZN14PeriodicThreadD0Ev:000000000000004c .LFE47
     /tmp/cchyCMA1.s:7177   .debug_loc:0000000000000855 .LLST3
     /tmp/cchyCMA1.s:191    .text._ZN14PeriodicThreadD0Ev:0000000000000018 .LBB16
     /tmp/cchyCMA1.s:199    .text._ZN14PeriodicThreadD0Ev:000000000000002c .LBE16
     /tmp/cchyCMA1.s:7195   .debug_loc:00000000000008a1 .LLST4
     /tmp/cchyCMA1.s:197    .text._ZN14PeriodicThreadD0Ev:000000000000002c .LVL15
     /tmp/cchyCMA1.s:202    .text._ZN14PeriodicThreadD0Ev:0000000000000038 .LVL16
GAS LISTING /tmp/cchyCMA1.s 			page 90


     /tmp/cchyCMA1.s:7806   .debug_str:00000000000004cb .LASF80
     /tmp/cchyCMA1.s:138    .text._ZN14PeriodicThreadD2Ev:0000000000000000 .LFB45
     /tmp/cchyCMA1.s:166    .text._ZN14PeriodicThreadD2Ev:0000000000000034 .LFE45
     /tmp/cchyCMA1.s:7206   .debug_loc:00000000000008d7 .LLST2
     /tmp/cchyCMA1.s:155    .text._ZN14PeriodicThreadD2Ev:0000000000000024 .LVL12
     /tmp/cchyCMA1.s:7844   .debug_str:00000000000005f7 .LASF81
     /tmp/cchyCMA1.s:7666   .debug_str:00000000000000ec .LASF82
     /tmp/cchyCMA1.s:1613   .text:00000000000008a0 .LFB42
     /tmp/cchyCMA1.s:1629   .text:00000000000008b8 .LFE42
     /tmp/cchyCMA1.s:1627   .text:00000000000008b8 .LVL162
     /tmp/cchyCMA1.s:7830   .debug_str:0000000000000571 .LASF83
     /tmp/cchyCMA1.s:7760   .debug_str:0000000000000372 .LASF84
     /tmp/cchyCMA1.s:1436   .text:00000000000007c8 .LFB41
     /tmp/cchyCMA1.s:1454   .text:00000000000007e0 .LFE41
     /tmp/cchyCMA1.s:7934   .debug_str:00000000000008f6 .LASF85
     /tmp/cchyCMA1.s:7834   .debug_str:0000000000000596 .LASF86
     /tmp/cchyCMA1.s:1413   .text:00000000000007b0 .LFB40
     /tmp/cchyCMA1.s:1430   .text:00000000000007c8 .LFE40
     /tmp/cchyCMA1.s:7786   .debug_str:000000000000043f .LASF87
     /tmp/cchyCMA1.s:7750   .debug_str:000000000000030b .LASF91
     /tmp/cchyCMA1.s:1188   .text:0000000000000610 .LFB39
     /tmp/cchyCMA1.s:1407   .text:00000000000007b0 .LFE39
     /tmp/cchyCMA1.s:7816   .debug_str:0000000000000516 .LASF88
     /tmp/cchyCMA1.s:7220   .debug_loc:0000000000000910 .LLST30
     /tmp/cchyCMA1.s:1208   .text:0000000000000638 .LBB39
     /tmp/cchyCMA1.s:1240   .text:000000000000067c .LBE39
     /tmp/cchyCMA1.s:7231   .debug_loc:0000000000000946 .LLST31
     /tmp/cchyCMA1.s:1225   .text:0000000000000658 .LVL126
     /tmp/cchyCMA1.s:1237   .text:000000000000067c .LVL127
     /tmp/cchyCMA1.s:1266   .text:000000000000069c .LBB41
     /tmp/cchyCMA1.s:1329   .text:000000000000071c .LBE41
     /tmp/cchyCMA1.s:7242   .debug_loc:000000000000097c .LLST32
     /tmp/cchyCMA1.s:7712   .debug_str:0000000000000212 .LASF89
     /tmp/cchyCMA1.s:7253   .debug_loc:00000000000009b2 .LLST33
     /tmp/cchyCMA1.s:1282   .text:00000000000006c0 .LVL131
     /tmp/cchyCMA1.s:1293   .text:00000000000006d8 .LVL133
     /tmp/cchyCMA1.s:1316   .text:0000000000000704 .LVL137
     /tmp/cchyCMA1.s:1324   .text:0000000000000718 .LVL138
     /tmp/cchyCMA1.s:1330   .text:000000000000071c .LBB44
     /tmp/cchyCMA1.s:1390   .text:0000000000000794 .LBE44
     /tmp/cchyCMA1.s:7264   .debug_loc:00000000000009e8 .LLST34
     /tmp/cchyCMA1.s:7275   .debug_loc:0000000000000a1e .LLST35
     /tmp/cchyCMA1.s:1346   .text:0000000000000740 .LVL140
     /tmp/cchyCMA1.s:1354   .text:0000000000000750 .LVL142
     /tmp/cchyCMA1.s:1377   .text:000000000000077c .LVL146
     /tmp/cchyCMA1.s:1385   .text:0000000000000790 .LVL147
     /tmp/cchyCMA1.s:1207   .text:0000000000000638 .LVL123
     /tmp/cchyCMA1.s:1404   .text:00000000000007ac .LVL150
     /tmp/cchyCMA1.s:7700   .debug_str:00000000000001ad .LASF90
     /tmp/cchyCMA1.s:7652   .debug_str:0000000000000079 .LASF92
     /tmp/cchyCMA1.s:1116   .text:00000000000005a0 .LFB38
     /tmp/cchyCMA1.s:1174   .text:0000000000000610 .LFE38
     /tmp/cchyCMA1.s:7286   .debug_loc:0000000000000a54 .LLST28
     /tmp/cchyCMA1.s:7299   .debug_loc:0000000000000a8c .LLST29
     /tmp/cchyCMA1.s:1131   .text:00000000000005c0 .LVL114
     /tmp/cchyCMA1.s:1136   .text:00000000000005cc .LVL115
     /tmp/cchyCMA1.s:1142   .text:00000000000005d8 .LVL117
GAS LISTING /tmp/cchyCMA1.s 			page 91


     /tmp/cchyCMA1.s:1150   .text:00000000000005ec .LVL119
     /tmp/cchyCMA1.s:1170   .text:000000000000060c .LVL122
     /tmp/cchyCMA1.s:7798   .debug_str:0000000000000492 .LASF93
     /tmp/cchyCMA1.s:7778   .debug_str:0000000000000409 .LASF94
     /tmp/cchyCMA1.s:967    .text:00000000000004a0 .LFB37
     /tmp/cchyCMA1.s:1105   .text:00000000000005a0 .LFE37
     /tmp/cchyCMA1.s:7326   .debug_loc:0000000000000ad2 .LLST25
     /tmp/cchyCMA1.s:7342   .debug_loc:0000000000000b1c .LLST26
     /tmp/cchyCMA1.s:7908   .debug_str:000000000000084a .LASF95
     /tmp/cchyCMA1.s:7357   .debug_loc:0000000000000b65 .LLST27
     /tmp/cchyCMA1.s:995    .text:00000000000004d0 .LVL96
     /tmp/cchyCMA1.s:1002   .text:00000000000004e4 .LVL97
     /tmp/cchyCMA1.s:1038   .text:000000000000051c .LVL103
     /tmp/cchyCMA1.s:1045   .text:0000000000000530 .LVL104
     /tmp/cchyCMA1.s:1057   .text:0000000000000548 .LVL107
     /tmp/cchyCMA1.s:1062   .text:0000000000000554 .LVL108
     /tmp/cchyCMA1.s:1076   .text:0000000000000564 .LVL110
     /tmp/cchyCMA1.s:1083   .text:0000000000000574 .LVL112
     /tmp/cchyCMA1.s:1090   .text:0000000000000584 .LVL113
     /tmp/cchyCMA1.s:1011   .text:00000000000004f4 .LVL98
     /tmp/cchyCMA1.s:7888   .debug_str:00000000000007c4 .LASF96
     /tmp/cchyCMA1.s:7828   .debug_str:0000000000000563 .LASF97
     /tmp/cchyCMA1.s:893    .text:0000000000000420 .LFB36
     /tmp/cchyCMA1.s:953    .text:00000000000004a0 .LFE36
     /tmp/cchyCMA1.s:7372   .debug_loc:0000000000000bae .LLST23
     /tmp/cchyCMA1.s:7385   .debug_loc:0000000000000be7 .LLST24
     /tmp/cchyCMA1.s:908    .text:0000000000000440 .LVL85
     /tmp/cchyCMA1.s:922    .text:0000000000000468 .LVL88
     /tmp/cchyCMA1.s:930    .text:000000000000047c .LVL90
     /tmp/cchyCMA1.s:950    .text:000000000000049c .LVL93
     /tmp/cchyCMA1.s:7790   .debug_str:000000000000045e .LASF98
     /tmp/cchyCMA1.s:7696   .debug_str:000000000000018b .LASF99
     /tmp/cchyCMA1.s:695    .text:00000000000002c0 .LFB35
     /tmp/cchyCMA1.s:882    .text:0000000000000420 .LFE35
     /tmp/cchyCMA1.s:713    .text:00000000000002e4 .LBB26
     /tmp/cchyCMA1.s:745    .text:0000000000000328 .LBE26
     /tmp/cchyCMA1.s:7396   .debug_loc:0000000000000c1d .LLST17
     /tmp/cchyCMA1.s:730    .text:0000000000000304 .LVL64
     /tmp/cchyCMA1.s:742    .text:0000000000000328 .LVL65
     /tmp/cchyCMA1.s:761    .text:000000000000033c .LBB27
     /tmp/cchyCMA1.s:800    .text:0000000000000380 .LBE27
     /tmp/cchyCMA1.s:7407   .debug_loc:0000000000000c53 .LLST18
     /tmp/cchyCMA1.s:7418   .debug_loc:0000000000000c89 .LLST19
     /tmp/cchyCMA1.s:777    .text:0000000000000360 .LVL68
     /tmp/cchyCMA1.s:795    .text:000000000000037c .LVL72
     /tmp/cchyCMA1.s:801    .text:0000000000000380 .LBB30
     /tmp/cchyCMA1.s:836    .text:00000000000003c8 .LBE30
     /tmp/cchyCMA1.s:7425   .debug_loc:0000000000000cac .LLST20
     /tmp/cchyCMA1.s:820    .text:00000000000003a0 .LVL76
     /tmp/cchyCMA1.s:832    .text:00000000000003c4 .LVL77
     /tmp/cchyCMA1.s:837    .text:00000000000003c8 .LBB31
     /tmp/cchyCMA1.s:874    .text:000000000000040c .LBE31
     /tmp/cchyCMA1.s:7432   .debug_loc:0000000000000ccf .LLST21
     /tmp/cchyCMA1.s:7443   .debug_loc:0000000000000d05 .LLST22
     /tmp/cchyCMA1.s:853    .text:00000000000003ec .LVL79
     /tmp/cchyCMA1.s:869    .text:0000000000000408 .LVL83
     /tmp/cchyCMA1.s:712    .text:00000000000002e4 .LVL61
GAS LISTING /tmp/cchyCMA1.s 			page 92


     /tmp/cchyCMA1.s:879    .text:000000000000041c .LVL84
     /tmp/cchyCMA1.s:7912   .debug_str:0000000000000867 .LASF100
     /tmp/cchyCMA1.s:7916   .debug_str:0000000000000889 .LASF101
     /tmp/cchyCMA1.s:1591   .text:0000000000000888 .LFB34
     /tmp/cchyCMA1.s:1607   .text:00000000000008a0 .LFE34
     /tmp/cchyCMA1.s:1605   .text:00000000000008a0 .LVL161
     /tmp/cchyCMA1.s:7872   .debug_str:000000000000075f .LASF102
     /tmp/cchyCMA1.s:7788   .debug_str:000000000000044d .LASF103
     /tmp/cchyCMA1.s:1561   .text:0000000000000888 .LFE33
     /tmp/cchyCMA1.s:7450   .debug_loc:0000000000000d28 .LLST38
     /tmp/cchyCMA1.s:1525   .text:0000000000000844 .LVL154
     /tmp/cchyCMA1.s:1531   .text:0000000000000854 .LVL155
     /tmp/cchyCMA1.s:1538   .text:0000000000000860 .LVL156
     /tmp/cchyCMA1.s:1544   .text:0000000000000868 .LVL157
     /tmp/cchyCMA1.s:1554   .text:000000000000087c .LVL159
     /tmp/cchyCMA1.s:1558   .text:0000000000000888 .LVL160
     /tmp/cchyCMA1.s:7918   .debug_str:000000000000089a .LASF104
     /tmp/cchyCMA1.s:7644   .debug_str:0000000000000044 .LASF106
     /tmp/cchyCMA1.s:661    .text:00000000000002a8 .LFB32
     /tmp/cchyCMA1.s:678    .text:00000000000002c0 .LFE32
     /tmp/cchyCMA1.s:7870   .debug_str:0000000000000753 .LASF105
     /tmp/cchyCMA1.s:7706   .debug_str:00000000000001db .LASF107
     /tmp/cchyCMA1.s:638    .text:0000000000000290 .LFB31
     /tmp/cchyCMA1.s:655    .text:00000000000002a8 .LFE31
     /tmp/cchyCMA1.s:7694   .debug_str:0000000000000176 .LASF108
     /tmp/cchyCMA1.s:7846   .debug_str:00000000000005ff .LASF109
     /tmp/cchyCMA1.s:540    .text:00000000000001dc .LFB30
     /tmp/cchyCMA1.s:632    .text:0000000000000290 .LFE30
     /tmp/cchyCMA1.s:7457   .debug_loc:0000000000000d4b .LLST15
     /tmp/cchyCMA1.s:562    .text:0000000000000200 .LBB25
     /tmp/cchyCMA1.s:618    .text:000000000000027c .LBE25
     /tmp/cchyCMA1.s:7471   .debug_loc:0000000000000d84 .LLST16
     /tmp/cchyCMA1.s:571    .text:0000000000000210 .LVL54
     /tmp/cchyCMA1.s:577    .text:000000000000021c .LVL55
     /tmp/cchyCMA1.s:583    .text:000000000000022c .LVL56
     /tmp/cchyCMA1.s:590    .text:0000000000000240 .LVL57
     /tmp/cchyCMA1.s:595    .text:0000000000000250 .LVL58
     /tmp/cchyCMA1.s:559    .text:0000000000000200 .LVL52
     /tmp/cchyCMA1.s:7772   .debug_str:00000000000003db .LASF110
     /tmp/cchyCMA1.s:7910   .debug_str:0000000000000851 .LASF111
     /tmp/cchyCMA1.s:452    .text:000000000000013c .LFB29
     /tmp/cchyCMA1.s:534    .text:00000000000001dc .LFE29
     /tmp/cchyCMA1.s:7483   .debug_loc:0000000000000dbb .LLST13
     /tmp/cchyCMA1.s:474    .text:0000000000000160 .LBB24
     /tmp/cchyCMA1.s:520    .text:00000000000001c8 .LBE24
     /tmp/cchyCMA1.s:7497   .debug_loc:0000000000000df4 .LLST14
     /tmp/cchyCMA1.s:483    .text:0000000000000170 .LVL44
     /tmp/cchyCMA1.s:489    .text:0000000000000180 .LVL45
     /tmp/cchyCMA1.s:496    .text:0000000000000194 .LVL46
     /tmp/cchyCMA1.s:501    .text:00000000000001a4 .LVL47
     /tmp/cchyCMA1.s:471    .text:0000000000000160 .LVL42
     /tmp/cchyCMA1.s:7802   .debug_str:00000000000004b6 .LASF112
     /tmp/cchyCMA1.s:7676   .debug_str:0000000000000123 .LASF113
     /tmp/cchyCMA1.s:356    .text:000000000000009c .LFB28
     /tmp/cchyCMA1.s:438    .text:000000000000013c .LFE28
     /tmp/cchyCMA1.s:7509   .debug_loc:0000000000000e2b .LLST11
     /tmp/cchyCMA1.s:378    .text:00000000000000c0 .LBB23
GAS LISTING /tmp/cchyCMA1.s 			page 93


     /tmp/cchyCMA1.s:424    .text:0000000000000128 .LBE23
     /tmp/cchyCMA1.s:7523   .debug_loc:0000000000000e64 .LLST12
     /tmp/cchyCMA1.s:387    .text:00000000000000d0 .LVL34
     /tmp/cchyCMA1.s:393    .text:00000000000000e0 .LVL35
     /tmp/cchyCMA1.s:400    .text:00000000000000f4 .LVL36
     /tmp/cchyCMA1.s:405    .text:0000000000000104 .LVL37
     /tmp/cchyCMA1.s:375    .text:00000000000000c0 .LVL32
     /tmp/cchyCMA1.s:7722   .debug_str:000000000000024a .LASF114
     /tmp/cchyCMA1.s:7662   .debug_str:00000000000000ba .LASF115
     /tmp/cchyCMA1.s:318    .text:0000000000000070 .LFB27
     /tmp/cchyCMA1.s:345    .text:000000000000009c .LFE27
     /tmp/cchyCMA1.s:7904   .debug_str:000000000000083c .LASF116
     /tmp/cchyCMA1.s:7535   .debug_loc:0000000000000e9b .LLST10
     /tmp/cchyCMA1.s:337    .text:0000000000000090 .LVL28
     /tmp/cchyCMA1.s:341    .text:0000000000000098 .LVL29
     /tmp/cchyCMA1.s:37     .text._ZN14PeriodicThread18periodicActivationEv:0000000000000000 .LFB1
     /tmp/cchyCMA1.s:55     .text._ZN14PeriodicThread18periodicActivationEv:0000000000000018 .LFE1
     /tmp/cchyCMA1.s:11     .text._ZN6Thread3runEv:0000000000000000 .LFB0
     /tmp/cchyCMA1.s:30     .text._ZN6Thread3runEv:0000000000000018 .LFE0
     /tmp/cchyCMA1.s:7812   .debug_str:00000000000004fe .LASF118
     /tmp/cchyCMA1.s:7906   .debug_str:0000000000000841 .LASF120
     /tmp/cchyCMA1.s:7680   .debug_str:0000000000000148 .LASF121
     /tmp/cchyCMA1.s:7942   .debug_str:0000000000000945 .LASF122
     /tmp/cchyCMA1.s:7944   .debug_str:0000000000000957 .LASF123
     /tmp/cchyCMA1.s:7840   .debug_str:00000000000005d4 .LASF124
     /tmp/cchyCMA1.s:7744   .debug_str:00000000000002ec .LASF125
     /tmp/cchyCMA1.s:7656   .debug_str:000000000000009a .LASF126
     /tmp/cchyCMA1.s:7782   .debug_str:000000000000042c .LASF127
     /tmp/cchyCMA1.s:7742   .debug_str:00000000000002de .LASF128
     /tmp/cchyCMA1.s:7792   .debug_str:0000000000000469 .LASF129
     /tmp/cchyCMA1.s:7822   .debug_str:0000000000000538 .LASF130
     /tmp/cchyCMA1.s:7924   .debug_str:00000000000008b3 .LASF131
     /tmp/cchyCMA1.s:7902   .debug_str:0000000000000836 .LASF132
     /tmp/cchyCMA1.s:7936   .debug_str:000000000000090c .LASF133
     /tmp/cchyCMA1.s:7710   .debug_str:0000000000000203 .LASF134
     /tmp/cchyCMA1.s:7820   .debug_str:000000000000052f .LASF135
     /tmp/cchyCMA1.s:7836   .debug_str:00000000000005b1 .LASF136
     /tmp/cchyCMA1.s:7868   .debug_str:000000000000074a .LASF137
     /tmp/cchyCMA1.s:7654   .debug_str:0000000000000085 .LASF138
     /tmp/cchyCMA1.s:7864   .debug_str:0000000000000734 .LASF139
     /tmp/cchyCMA1.s:7928   .debug_str:00000000000008d4 .LASF153
     /tmp/cchyCMA1.s:7736   .debug_str:00000000000002b2 .LASF154
     /tmp/cchyCMA1.s:7854   .debug_str:0000000000000645 .LASF140
     /tmp/cchyCMA1.s:7780   .debug_str:0000000000000420 .LASF141
     /tmp/cchyCMA1.s:267    .text._ZN12TestPeriodicD0Ev:0000000000000000 .LVL21
     /tmp/cchyCMA1.s:302    .text._ZN12TestPeriodicD0Ev:0000000000000044 .LVL25
     /tmp/cchyCMA1.s:279    .text._ZN12TestPeriodicD0Ev:0000000000000018 .LVL22
     /tmp/cchyCMA1.s:226    .text._ZN12TestPeriodicD2Ev:0000000000000000 .LVL18
     /tmp/cchyCMA1.s:235    .text._ZN12TestPeriodicD2Ev:0000000000000010 .LVL19
     /tmp/cchyCMA1.s:2344   .text:0000000000000db8 .LVL257
     /tmp/cchyCMA1.s:2348   .text:0000000000000dbc .LVL258
     /tmp/cchyCMA1.s:2359   .text:0000000000000dd0 .LVL260
     /tmp/cchyCMA1.s:2361   .text:0000000000000dd4 .LVL261
     /tmp/cchyCMA1.s:2372   .text:0000000000000de0 .LVL262
     /tmp/cchyCMA1.s:2238   .text:0000000000000cfc .LVL252
     /tmp/cchyCMA1.s:2255   .text:0000000000000d20 .LVL253
     /tmp/cchyCMA1.s:2297   .text:0000000000000d88 .LVL256
GAS LISTING /tmp/cchyCMA1.s 			page 94


     /tmp/cchyCMA1.s:2169   .text:0000000000000c74 .LVL246
     /tmp/cchyCMA1.s:2186   .text:0000000000000c98 .LVL247
     /tmp/cchyCMA1.s:2225   .text:0000000000000cf8 .LVL251
     /tmp/cchyCMA1.s:1964   .text:0000000000000b08 .LVL206
     /tmp/cchyCMA1.s:1968   .text:0000000000000b0c .LVL207
     /tmp/cchyCMA1.s:1972   .text:0000000000000b18 .LVL209
     /tmp/cchyCMA1.s:1986   .text:0000000000000b2c .LVL211
     /tmp/cchyCMA1.s:2062   .text:0000000000000ba8 .LVL224
     /tmp/cchyCMA1.s:2068   .text:0000000000000bb0 .LVL225
     /tmp/cchyCMA1.s:1982   .text:0000000000000b28 .LVL210
     /tmp/cchyCMA1.s:2073   .text:0000000000000bbc .LVL227
     /tmp/cchyCMA1.s:2078   .text:0000000000000bc4 .LVL228
     /tmp/cchyCMA1.s:1990   .text:0000000000000b30 .LVL212
     /tmp/cchyCMA1.s:1994   .text:0000000000000b34 .LVL213
     /tmp/cchyCMA1.s:2117   .text:0000000000000c0c .LVL238
     /tmp/cchyCMA1.s:1999   .text:0000000000000b38 .LVL214
     /tmp/cchyCMA1.s:2003   .text:0000000000000b3c .LVL215
     /tmp/cchyCMA1.s:2036   .text:0000000000000b7c .LVL219
     /tmp/cchyCMA1.s:2040   .text:0000000000000b80 .LVL220
     /tmp/cchyCMA1.s:2083   .text:0000000000000bd0 .LVL230
     /tmp/cchyCMA1.s:2044   .text:0000000000000b8c .LVL222
     /tmp/cchyCMA1.s:2088   .text:0000000000000bd8 .LVL231
     /tmp/cchyCMA1.s:2093   .text:0000000000000be4 .LVL233
     /tmp/cchyCMA1.s:2098   .text:0000000000000bec .LVL234
     /tmp/cchyCMA1.s:2050   .text:0000000000000b94 .LVL223
     /tmp/cchyCMA1.s:1881   .text:0000000000000a64 .LVL196
     /tmp/cchyCMA1.s:1901   .text:0000000000000a94 .LVL198
     /tmp/cchyCMA1.s:1903   .text:0000000000000a98 .LVL199
     /tmp/cchyCMA1.s:1939   .text:0000000000000ad8 .LVL201
     /tmp/cchyCMA1.s:1957   .text:0000000000000af8 .LVL204
     /tmp/cchyCMA1.s:1677   .text:0000000000000900 .LVL165
     /tmp/cchyCMA1.s:1789   .text:00000000000009ec .LVL190
     /tmp/cchyCMA1.s:1688   .text:0000000000000918 .LVL167
     /tmp/cchyCMA1.s:1692   .text:000000000000091c .LVL168
     /tmp/cchyCMA1.s:1792   .text:00000000000009f0 .LVL191
     /tmp/cchyCMA1.s:1696   .text:0000000000000928 .LVL170
     /tmp/cchyCMA1.s:1700   .text:000000000000092c .LVL171
     /tmp/cchyCMA1.s:1795   .text:00000000000009f4 .LVL192
     /tmp/cchyCMA1.s:1704   .text:0000000000000938 .LVL173
     /tmp/cchyCMA1.s:1708   .text:000000000000093c .LVL174
     /tmp/cchyCMA1.s:1798   .text:00000000000009f8 .LVL193
     /tmp/cchyCMA1.s:1713   .text:000000000000094c .LVL176
     /tmp/cchyCMA1.s:1717   .text:0000000000000950 .LVL177
     /tmp/cchyCMA1.s:1801   .text:00000000000009fc .LVL194
     /tmp/cchyCMA1.s:1734   .text:0000000000000974 .LVL179
     /tmp/cchyCMA1.s:1771   .text:00000000000009d0 .LVL187
     /tmp/cchyCMA1.s:1776   .text:00000000000009d8 .LVL188
     /tmp/cchyCMA1.s:73     .text:0000000000000000 .LVL2
     /tmp/cchyCMA1.s:89     .text:0000000000000018 .LVL4
     /tmp/cchyCMA1.s:85     .text:0000000000000014 .LVL3
     /tmp/cchyCMA1.s:113    .text:0000000000000058 .LVL8
     /tmp/cchyCMA1.s:115    .text:000000000000005c .LVL9
     /tmp/cchyCMA1.s:126    .text:0000000000000068 .LVL10
     /tmp/cchyCMA1.s:1463   .text:00000000000007e0 .LVL151
     /tmp/cchyCMA1.s:1490   .text:0000000000000818 .LVL153
     /tmp/cchyCMA1.s:178    .text._ZN14PeriodicThreadD0Ev:0000000000000000 .LVL13
     /tmp/cchyCMA1.s:210    .text._ZN14PeriodicThreadD0Ev:0000000000000044 .LVL17
GAS LISTING /tmp/cchyCMA1.s 			page 95


     /tmp/cchyCMA1.s:190    .text._ZN14PeriodicThreadD0Ev:0000000000000018 .LVL14
     /tmp/cchyCMA1.s:141    .text._ZN14PeriodicThreadD2Ev:0000000000000000 .LVL11
     /tmp/cchyCMA1.s:1260   .text:0000000000000698 .LVL129
     /tmp/cchyCMA1.s:1394   .text:0000000000000798 .LVL148
     /tmp/cchyCMA1.s:1398   .text:000000000000079c .LVL149
     /tmp/cchyCMA1.s:1212   .text:0000000000000640 .LVL124
     /tmp/cchyCMA1.s:1255   .text:0000000000000694 .LVL128
     /tmp/cchyCMA1.s:1270   .text:00000000000006a0 .LVL130
     /tmp/cchyCMA1.s:1305   .text:00000000000006f0 .LVL134
     /tmp/cchyCMA1.s:1308   .text:00000000000006f4 .LVL135
     /tmp/cchyCMA1.s:1333   .text:0000000000000720 .LVL139
     /tmp/cchyCMA1.s:1288   .text:00000000000006c8 .LVL132
     /tmp/cchyCMA1.s:1314   .text:00000000000006fc .LVL136
     /tmp/cchyCMA1.s:1366   .text:0000000000000768 .LVL143
     /tmp/cchyCMA1.s:1369   .text:000000000000076c .LVL144
     /tmp/cchyCMA1.s:1352   .text:0000000000000748 .LVL141
     /tmp/cchyCMA1.s:1375   .text:0000000000000774 .LVL145
     /tmp/cchyCMA1.s:1140   .text:00000000000005d0 .LVL116
     /tmp/cchyCMA1.s:1148   .text:00000000000005e4 .LVL118
     /tmp/cchyCMA1.s:1162   .text:00000000000005fc .LVL120
     /tmp/cchyCMA1.s:1168   .text:0000000000000604 .LVL121
     /tmp/cchyCMA1.s:983    .text:00000000000004b8 .LVL94
     /tmp/cchyCMA1.s:988    .text:00000000000004c0 .LVL95
     /tmp/cchyCMA1.s:1024   .text:0000000000000504 .LVL100
     /tmp/cchyCMA1.s:1028   .text:000000000000050c .LVL101
     /tmp/cchyCMA1.s:1021   .text:0000000000000500 .LVL99
     /tmp/cchyCMA1.s:1068   .text:0000000000000558 .LVL109
     /tmp/cchyCMA1.s:1078   .text:0000000000000568 .LVL111
     /tmp/cchyCMA1.s:1036   .text:0000000000000514 .LVL102
     /tmp/cchyCMA1.s:1048   .text:0000000000000534 .LVL105
     /tmp/cchyCMA1.s:1055   .text:0000000000000540 .LVL106
     /tmp/cchyCMA1.s:916    .text:000000000000045c .LVL86
     /tmp/cchyCMA1.s:920    .text:0000000000000460 .LVL87
     /tmp/cchyCMA1.s:928    .text:0000000000000474 .LVL89
     /tmp/cchyCMA1.s:942    .text:000000000000048c .LVL91
     /tmp/cchyCMA1.s:948    .text:0000000000000494 .LVL92
     /tmp/cchyCMA1.s:717    .text:00000000000002ec .LVL62
     /tmp/cchyCMA1.s:758    .text:000000000000033c .LVL66
     /tmp/cchyCMA1.s:764    .text:0000000000000340 .LVL67
     /tmp/cchyCMA1.s:784    .text:0000000000000368 .LVL69
     /tmp/cchyCMA1.s:787    .text:000000000000036c .LVL70
     /tmp/cchyCMA1.s:804    .text:0000000000000384 .LVL73
     /tmp/cchyCMA1.s:793    .text:0000000000000374 .LVL71
     /tmp/cchyCMA1.s:806    .text:0000000000000388 .LVL74
     /tmp/cchyCMA1.s:840    .text:00000000000003cc .LVL78
     /tmp/cchyCMA1.s:859    .text:00000000000003f4 .LVL80
     /tmp/cchyCMA1.s:861    .text:00000000000003f8 .LVL81
     /tmp/cchyCMA1.s:867    .text:0000000000000400 .LVL82
     /tmp/cchyCMA1.s:1548   .text:000000000000086c .LVL158
     /tmp/cchyCMA1.s:543    .text:00000000000001dc .LVL50
     /tmp/cchyCMA1.s:557    .text:00000000000001f8 .LVL51
     /tmp/cchyCMA1.s:566    .text:0000000000000208 .LVL53
     /tmp/cchyCMA1.s:627    .text:0000000000000288 .LVL60
     /tmp/cchyCMA1.s:455    .text:000000000000013c .LVL40
     /tmp/cchyCMA1.s:469    .text:0000000000000158 .LVL41
     /tmp/cchyCMA1.s:478    .text:0000000000000168 .LVL43
     /tmp/cchyCMA1.s:529    .text:00000000000001d4 .LVL49
GAS LISTING /tmp/cchyCMA1.s 			page 96


     /tmp/cchyCMA1.s:359    .text:000000000000009c .LVL30
     /tmp/cchyCMA1.s:373    .text:00000000000000b8 .LVL31
     /tmp/cchyCMA1.s:382    .text:00000000000000c8 .LVL33
     /tmp/cchyCMA1.s:433    .text:0000000000000134 .LVL39
     /tmp/cchyCMA1.s:321    .text:0000000000000070 .LVL26
     /tmp/cchyCMA1.s:330    .text:0000000000000080 .LVL27
     /tmp/cchyCMA1.s:2540   .debug_info:0000000000000000 .Ldebug_info0
     /tmp/cchyCMA1.s:5      .text:0000000000000000 .Ltext0
     /tmp/cchyCMA1.s:2534   .text:0000000000000e54 .Letext0
     /tmp/cchyCMA1.s:769    .text:0000000000000348 .LBB28
     /tmp/cchyCMA1.s:780    .text:0000000000000364 .LBE28
     /tmp/cchyCMA1.s:789    .text:000000000000036c .LBB29
     /tmp/cchyCMA1.s:799    .text:0000000000000380 .LBE29
     /tmp/cchyCMA1.s:845    .text:00000000000003d4 .LBB32
     /tmp/cchyCMA1.s:856    .text:00000000000003f0 .LBE32
     /tmp/cchyCMA1.s:863    .text:00000000000003f8 .LBB33
     /tmp/cchyCMA1.s:873    .text:000000000000040c .LBE33
     /tmp/cchyCMA1.s:984    .text:00000000000004b8 .LBB34
     /tmp/cchyCMA1.s:1006   .text:00000000000004e4 .LBE34
     /tmp/cchyCMA1.s:1031   .text:000000000000050c .LBB38
     /tmp/cchyCMA1.s:1103   .text:00000000000005a0 .LBE38
     /tmp/cchyCMA1.s:990    .text:00000000000004c0 .LBB35
     /tmp/cchyCMA1.s:1005   .text:00000000000004e4 .LBE35
     /tmp/cchyCMA1.s:1032   .text:000000000000050c .LBB36
     /tmp/cchyCMA1.s:1065   .text:0000000000000554 .LBE36
     /tmp/cchyCMA1.s:1071   .text:0000000000000558 .LBB37
     /tmp/cchyCMA1.s:1102   .text:00000000000005a0 .LBE37
     /tmp/cchyCMA1.s:1274   .text:00000000000006a8 .LBB42
     /tmp/cchyCMA1.s:1301   .text:00000000000006ec .LBE42
     /tmp/cchyCMA1.s:1310   .text:00000000000006f4 .LBB43
     /tmp/cchyCMA1.s:1328   .text:000000000000071c .LBE43
     /tmp/cchyCMA1.s:1338   .text:0000000000000728 .LBB45
     /tmp/cchyCMA1.s:1362   .text:0000000000000764 .LBE45
     /tmp/cchyCMA1.s:1371   .text:000000000000076c .LBB46
     /tmp/cchyCMA1.s:1389   .text:0000000000000794 .LBE46
     /tmp/cchyCMA1.s:2058   .text:0000000000000ba0 .LBB49
     /tmp/cchyCMA1.s:2064   .text:0000000000000ba8 .LBE49
     /tmp/cchyCMA1.s:2105   .text:0000000000000bf8 .LBB50
     /tmp/cchyCMA1.s:2127   .text:0000000000000c24 .LBE50
     /tmp/cchyCMA1.s:1564   .gcc_except_table:0000000000000000 .LLSDA33
                           .group:0000000000000000 _ZN14PeriodicThreadD5Ev
                           .group:0000000000000000 _ZN12TestPeriodicD5Ev

UNDEFINED SYMBOLS
_Z11printStringPKc
_Z8printIntiii
_ZN6ThreadD2Ev
_ZdlPv
_Z15thread_dispatchv
_Z11thread_exitv
_Z9mem_allocm
_Z8mem_freePv
HEAP_END_ADDR
HEAP_START_ADDR
_Z4putcc
_ZN14PeriodicThreadC2Em
_Znwm
GAS LISTING /tmp/cchyCMA1.s 			page 97


_ZN6Thread5startEv
_Unwind_Resume
__gxx_personality_v0
_Z8sem_waitP4_sem
_Z10sem_signalP4_sem
_Z4getcv
