GAS LISTING /tmp/ccO13uu5.s 			page 1


   1              		.file	"Tests.cpp"
   2              		.option pic
   3              		.option norelax
   4              		.text
   5              	.Ltext0:
   6              		.section	.rodata.str1.8,"aMS",@progbits,1
   7              		.align	3
   8              	.LC0:
   9 0000 49646C65 		.string	"Idle\n"
   9      0A00
  10              		.text
  11              		.align	2
  12              		.globl	_Z4idlePv
  14              	_Z4idlePv:
  15              	.LFB22:
  16              		.file 1 "src/Tests.cpp"
   1:src/Tests.cpp **** //
   2:src/Tests.cpp **** // Created by os on 5/5/22.
   3:src/Tests.cpp **** //
   4:src/Tests.cpp **** 
   5:src/Tests.cpp **** #include "../h/Tests.hpp"
   6:src/Tests.cpp **** #include "../lib/console.h"
   7:src/Tests.cpp **** 
   8:src/Tests.cpp **** void idle(void* args)
   9:src/Tests.cpp **** {
  17              		.loc 1 9 1
  18              		.cfi_startproc
  19              	.LVL0:
  20 0000 130101FF 		addi	sp,sp,-16
  21              		.cfi_def_cfa_offset 16
  22 0004 23341100 		sd	ra,8(sp)
  23 0008 23308100 		sd	s0,0(sp)
  24              		.cfi_offset 1, -8
  25              		.cfi_offset 8, -16
  26 000c 13040101 		addi	s0,sp,16
  27              		.cfi_def_cfa 8, 0
  28              	.LVL1:
  29              	.L2:
  10:src/Tests.cpp ****     while(true)
  30              		.loc 1 10 5 discriminator 1
  11:src/Tests.cpp ****     {
  12:src/Tests.cpp ****         Riscv::printString("Idle\n");
  31              		.loc 1 12 9 discriminator 1
  32              		.loc 1 12 27 is_stmt 0 discriminator 1
  33 0010 17050000 		lla	a0,.LC0
  33      13050500 
  34 0018 97000000 		call	_ZN5Riscv11printStringEPKc@plt
  34      E7800000 
  35              	.LVL2:
  13:src/Tests.cpp ****         thread_dispatch();
  36              		.loc 1 13 9 is_stmt 1 discriminator 1
  37              		.loc 1 13 24 is_stmt 0 discriminator 1
  38 0020 97000000 		call	thread_dispatch@plt
  38      E7800000 
  39              	.LVL3:
  10:src/Tests.cpp ****     while(true)
  40              		.loc 1 10 5 is_stmt 1 discriminator 1
GAS LISTING /tmp/ccO13uu5.s 			page 2


  41 0028 6FF09FFE 		j	.L2
  42              		.cfi_endproc
  43              	.LFE22:
  45              		.section	.rodata.str1.8
  46 0006 0000     		.align	3
  47              	.LC1:
  48 0008 54687265 		.string	"Thread 1 started...\n"
  48      61642031 
  48      20737461 
  48      72746564 
  48      2E2E2E0A 
  49 001d 000000   		.align	3
  50              	.LC2:
  51 0020 69203A20 		.string	"i : "
  51      00
  52 0025 000000   		.align	3
  53              	.LC3:
  54 0028 0A00     		.string	"\n"
  55              		.text
  56              		.align	2
  57              		.globl	_Z15thread1FunctionPv
  59              	_Z15thread1FunctionPv:
  60              	.LFB23:
  14:src/Tests.cpp ****     }
  15:src/Tests.cpp **** }
  16:src/Tests.cpp **** 
  17:src/Tests.cpp **** void thread1Function(void* p)
  18:src/Tests.cpp **** {
  61              		.loc 1 18 1
  62              		.cfi_startproc
  63              	.LVL4:
  64 002c 130101FE 		addi	sp,sp,-32
  65              		.cfi_def_cfa_offset 32
  66 0030 233C1100 		sd	ra,24(sp)
  67 0034 23388100 		sd	s0,16(sp)
  68 0038 23349100 		sd	s1,8(sp)
  69              		.cfi_offset 1, -8
  70              		.cfi_offset 8, -16
  71              		.cfi_offset 9, -24
  72 003c 13040102 		addi	s0,sp,32
  73              		.cfi_def_cfa 8, 0
  19:src/Tests.cpp ****     Riscv::printString("Thread 1 started...\n");
  74              		.loc 1 19 5
  75              		.loc 1 19 23 is_stmt 0
  76 0040 17050000 		lla	a0,.LC1
  76      13050500 
  77              	.LVL5:
  78 0048 97000000 		call	_ZN5Riscv11printStringEPKc@plt
  78      E7800000 
  79              	.LVL6:
  20:src/Tests.cpp ****     uint64 num = 10000;
  80              		.loc 1 20 5 is_stmt 1
  21:src/Tests.cpp ****     for(uint64 i = 0; i < num;i++)
  81              		.loc 1 21 5
  82              	.LBB8:
  83              		.loc 1 21 16 is_stmt 0
  84 0050 93040000 		li	s1,0
GAS LISTING /tmp/ccO13uu5.s 			page 3


  85 0054 6F00C003 		j	.L7
  86              	.LVL7:
  87              	.L9:
  22:src/Tests.cpp ****     {
  23:src/Tests.cpp ****         if(i % 150 == 0 && i > 0)
  24:src/Tests.cpp ****             thread_dispatch();
  88              		.loc 1 24 13 is_stmt 1
  89              		.loc 1 24 28 is_stmt 0
  90 0058 97000000 		call	thread_dispatch@plt
  90      E7800000 
  91              	.LVL8:
  92              	.L6:
  25:src/Tests.cpp ****         Riscv::printString("i : ");
  93              		.loc 1 25 9 is_stmt 1 discriminator 2
  94              		.loc 1 25 27 is_stmt 0 discriminator 2
  95 0060 17050000 		lla	a0,.LC2
  95      13050500 
  96 0068 97000000 		call	_ZN5Riscv11printStringEPKc@plt
  96      E7800000 
  97              	.LVL9:
  26:src/Tests.cpp ****         Riscv::printInteger(i);
  98              		.loc 1 26 9 is_stmt 1 discriminator 2
  99              		.loc 1 26 28 is_stmt 0 discriminator 2
 100 0070 13850400 		mv	a0,s1
 101 0074 97000000 		call	_ZN5Riscv12printIntegerEm@plt
 101      E7800000 
 102              	.LVL10:
  27:src/Tests.cpp ****         Riscv::printString("\n");
 103              		.loc 1 27 9 is_stmt 1 discriminator 2
 104              		.loc 1 27 27 is_stmt 0 discriminator 2
 105 007c 17050000 		lla	a0,.LC3
 105      13050500 
 106 0084 97000000 		call	_ZN5Riscv11printStringEPKc@plt
 106      E7800000 
 107              	.LVL11:
  21:src/Tests.cpp ****     {
 108              		.loc 1 21 5 is_stmt 1 discriminator 2
 109 008c 93841400 		addi	s1,s1,1
 110              	.LVL12:
 111              	.L7:
  21:src/Tests.cpp ****     {
 112              		.loc 1 21 25 discriminator 1
 113 0090 B7270000 		li	a5,8192
 114 0094 9387F770 		addi	a5,a5,1807
 115 0098 63EC9700 		bgtu	s1,a5,.L4
  23:src/Tests.cpp ****             thread_dispatch();
 116              		.loc 1 23 9
  23:src/Tests.cpp ****             thread_dispatch();
 117              		.loc 1 23 14 is_stmt 0
 118 009c 93076009 		li	a5,150
 119 00a0 B3F7F402 		remu	a5,s1,a5
  23:src/Tests.cpp ****             thread_dispatch();
 120              		.loc 1 23 9
 121 00a4 E39E07FA 		bnez	a5,.L6
  23:src/Tests.cpp ****             thread_dispatch();
 122              		.loc 1 23 25 discriminator 1
 123 00a8 E38C04FA 		beqz	s1,.L6
GAS LISTING /tmp/ccO13uu5.s 			page 4


 124 00ac 6FF0DFFA 		j	.L9
 125              	.L4:
 126              	.LBE8:
  28:src/Tests.cpp ****     }
  29:src/Tests.cpp **** }
 127              		.loc 1 29 1
 128 00b0 83308101 		ld	ra,24(sp)
 129              		.cfi_restore 1
 130 00b4 03340101 		ld	s0,16(sp)
 131              		.cfi_restore 8
 132              		.cfi_def_cfa 2, 32
 133 00b8 83348100 		ld	s1,8(sp)
 134              		.cfi_restore 9
 135              	.LVL13:
 136 00bc 13010102 		addi	sp,sp,32
 137              		.cfi_def_cfa_offset 0
 138 00c0 67800000 		jr	ra
 139              		.cfi_endproc
 140              	.LFE23:
 142              		.section	.rodata.str1.8
 143 002a 00000000 		.align	3
 143      0000
 144              	.LC4:
 145 0030 54687265 		.string	"Thread 2 started...\n"
 145      61642032 
 145      20737461 
 145      72746564 
 145      2E2E2E0A 
 146 0045 000000   		.align	3
 147              	.LC5:
 148 0048 6A203A20 		.string	"j : "
 148      00
 149              		.text
 150              		.align	2
 151              		.globl	_Z15thread2FunctionPv
 153              	_Z15thread2FunctionPv:
 154              	.LFB24:
  30:src/Tests.cpp **** 
  31:src/Tests.cpp **** void thread2Function(void* p)
  32:src/Tests.cpp **** {
 155              		.loc 1 32 1 is_stmt 1
 156              		.cfi_startproc
 157              	.LVL14:
 158 00c4 130101FE 		addi	sp,sp,-32
 159              		.cfi_def_cfa_offset 32
 160 00c8 233C1100 		sd	ra,24(sp)
 161 00cc 23388100 		sd	s0,16(sp)
 162 00d0 23349100 		sd	s1,8(sp)
 163              		.cfi_offset 1, -8
 164              		.cfi_offset 8, -16
 165              		.cfi_offset 9, -24
 166 00d4 13040102 		addi	s0,sp,32
 167              		.cfi_def_cfa 8, 0
  33:src/Tests.cpp ****     Riscv::printString("Thread 2 started...\n");
 168              		.loc 1 33 5
 169              		.loc 1 33 23 is_stmt 0
 170 00d8 17050000 		lla	a0,.LC4
GAS LISTING /tmp/ccO13uu5.s 			page 5


 170      13050500 
 171              	.LVL15:
 172 00e0 97000000 		call	_ZN5Riscv11printStringEPKc@plt
 172      E7800000 
 173              	.LVL16:
  34:src/Tests.cpp ****     uint64 num = 10000;
 174              		.loc 1 34 5 is_stmt 1
  35:src/Tests.cpp ****     for(uint64 j = 0; j < num;j++)
 175              		.loc 1 35 5
 176              	.LBB9:
 177              		.loc 1 35 16 is_stmt 0
 178 00e8 93040000 		li	s1,0
 179 00ec 6F00C003 		j	.L13
 180              	.LVL17:
 181              	.L15:
  36:src/Tests.cpp ****     {
  37:src/Tests.cpp ****         if(j % 50 == 0 && j > 0)
  38:src/Tests.cpp ****             thread_dispatch();
 182              		.loc 1 38 13 is_stmt 1
 183              		.loc 1 38 28 is_stmt 0
 184 00f0 97000000 		call	thread_dispatch@plt
 184      E7800000 
 185              	.LVL18:
 186              	.L12:
  39:src/Tests.cpp ****         Riscv::printString("j : ");
 187              		.loc 1 39 9 is_stmt 1 discriminator 2
 188              		.loc 1 39 27 is_stmt 0 discriminator 2
 189 00f8 17050000 		lla	a0,.LC5
 189      13050500 
 190 0100 97000000 		call	_ZN5Riscv11printStringEPKc@plt
 190      E7800000 
 191              	.LVL19:
  40:src/Tests.cpp ****         Riscv::printInteger(j);
 192              		.loc 1 40 9 is_stmt 1 discriminator 2
 193              		.loc 1 40 28 is_stmt 0 discriminator 2
 194 0108 13850400 		mv	a0,s1
 195 010c 97000000 		call	_ZN5Riscv12printIntegerEm@plt
 195      E7800000 
 196              	.LVL20:
  41:src/Tests.cpp ****         Riscv::printString("\n");
 197              		.loc 1 41 9 is_stmt 1 discriminator 2
 198              		.loc 1 41 27 is_stmt 0 discriminator 2
 199 0114 17050000 		lla	a0,.LC3
 199      13050500 
 200 011c 97000000 		call	_ZN5Riscv11printStringEPKc@plt
 200      E7800000 
 201              	.LVL21:
  35:src/Tests.cpp ****     {
 202              		.loc 1 35 5 is_stmt 1 discriminator 2
 203 0124 93841400 		addi	s1,s1,1
 204              	.LVL22:
 205              	.L13:
  35:src/Tests.cpp ****     {
 206              		.loc 1 35 25 discriminator 1
 207 0128 B7270000 		li	a5,8192
 208 012c 9387F770 		addi	a5,a5,1807
 209 0130 63EC9700 		bgtu	s1,a5,.L10
GAS LISTING /tmp/ccO13uu5.s 			page 6


  37:src/Tests.cpp ****             thread_dispatch();
 210              		.loc 1 37 9
  37:src/Tests.cpp ****             thread_dispatch();
 211              		.loc 1 37 14 is_stmt 0
 212 0134 93072003 		li	a5,50
 213 0138 B3F7F402 		remu	a5,s1,a5
  37:src/Tests.cpp ****             thread_dispatch();
 214              		.loc 1 37 9
 215 013c E39E07FA 		bnez	a5,.L12
  37:src/Tests.cpp ****             thread_dispatch();
 216              		.loc 1 37 24 discriminator 1
 217 0140 E38C04FA 		beqz	s1,.L12
 218 0144 6FF0DFFA 		j	.L15
 219              	.L10:
 220              	.LBE9:
  42:src/Tests.cpp ****     }
  43:src/Tests.cpp **** }
 221              		.loc 1 43 1
 222 0148 83308101 		ld	ra,24(sp)
 223              		.cfi_restore 1
 224 014c 03340101 		ld	s0,16(sp)
 225              		.cfi_restore 8
 226              		.cfi_def_cfa 2, 32
 227 0150 83348100 		ld	s1,8(sp)
 228              		.cfi_restore 9
 229              	.LVL23:
 230 0154 13010102 		addi	sp,sp,32
 231              		.cfi_def_cfa_offset 0
 232 0158 67800000 		jr	ra
 233              		.cfi_endproc
 234              	.LFE24:
 236              		.align	2
 237              		.globl	_Z20thread2FunctionTest2Pv
 239              	_Z20thread2FunctionTest2Pv:
 240              	.LFB25:
  44:src/Tests.cpp **** 
  45:src/Tests.cpp **** void thread2FunctionTest2(void* p)
  46:src/Tests.cpp **** {
 241              		.loc 1 46 1 is_stmt 1
 242              		.cfi_startproc
 243              	.LVL24:
 244 015c 130101FE 		addi	sp,sp,-32
 245              		.cfi_def_cfa_offset 32
 246 0160 233C1100 		sd	ra,24(sp)
 247 0164 23388100 		sd	s0,16(sp)
 248 0168 23349100 		sd	s1,8(sp)
 249              		.cfi_offset 1, -8
 250              		.cfi_offset 8, -16
 251              		.cfi_offset 9, -24
 252 016c 13040102 		addi	s0,sp,32
 253              		.cfi_def_cfa 8, 0
  47:src/Tests.cpp ****     Riscv::printString("Thread 2 started...\n");
 254              		.loc 1 47 5
 255              		.loc 1 47 23 is_stmt 0
 256 0170 17050000 		lla	a0,.LC4
 256      13050500 
 257              	.LVL25:
GAS LISTING /tmp/ccO13uu5.s 			page 7


 258 0178 97000000 		call	_ZN5Riscv11printStringEPKc@plt
 258      E7800000 
 259              	.LVL26:
  48:src/Tests.cpp ****     uint64 num = 10000;
 260              		.loc 1 48 5 is_stmt 1
  49:src/Tests.cpp ****     for(uint64 j = 0; j < num;j++)
 261              		.loc 1 49 5
 262              	.LBB10:
 263              		.loc 1 49 16 is_stmt 0
 264 0180 93040000 		li	s1,0
 265 0184 6F008004 		j	.L20
 266              	.LVL27:
 267              	.L22:
  50:src/Tests.cpp ****     {
  51:src/Tests.cpp ****         if(j == 200)
  52:src/Tests.cpp ****             thread_exit();
 268              		.loc 1 52 13 is_stmt 1
 269              		.loc 1 52 24 is_stmt 0
 270 0188 97000000 		call	thread_exit@plt
 270      E7800000 
 271              	.LVL28:
 272 0190 6F000005 		j	.L18
 273              	.L23:
  53:src/Tests.cpp ****         if(j % 50 == 0 && j > 0)
  54:src/Tests.cpp ****             thread_dispatch();
 274              		.loc 1 54 13 is_stmt 1
 275              		.loc 1 54 28 is_stmt 0
 276 0194 97000000 		call	thread_dispatch@plt
 276      E7800000 
 277              	.LVL29:
 278              	.L19:
  55:src/Tests.cpp ****         Riscv::printString("j : ");
 279              		.loc 1 55 9 is_stmt 1 discriminator 2
 280              		.loc 1 55 27 is_stmt 0 discriminator 2
 281 019c 17050000 		lla	a0,.LC5
 281      13050500 
 282 01a4 97000000 		call	_ZN5Riscv11printStringEPKc@plt
 282      E7800000 
 283              	.LVL30:
  56:src/Tests.cpp ****         Riscv::printInteger(j);
 284              		.loc 1 56 9 is_stmt 1 discriminator 2
 285              		.loc 1 56 28 is_stmt 0 discriminator 2
 286 01ac 13850400 		mv	a0,s1
 287 01b0 97000000 		call	_ZN5Riscv12printIntegerEm@plt
 287      E7800000 
 288              	.LVL31:
  57:src/Tests.cpp ****         Riscv::printString("\n");
 289              		.loc 1 57 9 is_stmt 1 discriminator 2
 290              		.loc 1 57 27 is_stmt 0 discriminator 2
 291 01b8 17050000 		lla	a0,.LC3
 291      13050500 
 292 01c0 97000000 		call	_ZN5Riscv11printStringEPKc@plt
 292      E7800000 
 293              	.LVL32:
  49:src/Tests.cpp ****     {
 294              		.loc 1 49 5 is_stmt 1 discriminator 2
 295 01c8 93841400 		addi	s1,s1,1
GAS LISTING /tmp/ccO13uu5.s 			page 8


 296              	.LVL33:
 297              	.L20:
  49:src/Tests.cpp ****     {
 298              		.loc 1 49 25 discriminator 1
 299 01cc B7270000 		li	a5,8192
 300 01d0 9387F770 		addi	a5,a5,1807
 301 01d4 63E09702 		bgtu	s1,a5,.L16
  51:src/Tests.cpp ****             thread_exit();
 302              		.loc 1 51 9
 303 01d8 9307800C 		li	a5,200
 304 01dc E386F4FA 		beq	s1,a5,.L22
 305              	.L18:
  53:src/Tests.cpp ****             thread_dispatch();
 306              		.loc 1 53 9
  53:src/Tests.cpp ****             thread_dispatch();
 307              		.loc 1 53 14 is_stmt 0
 308 01e0 93072003 		li	a5,50
 309 01e4 B3F7F402 		remu	a5,s1,a5
  53:src/Tests.cpp ****             thread_dispatch();
 310              		.loc 1 53 9
 311 01e8 E39A07FA 		bnez	a5,.L19
  53:src/Tests.cpp ****             thread_dispatch();
 312              		.loc 1 53 24 discriminator 1
 313 01ec E38804FA 		beqz	s1,.L19
 314 01f0 6FF05FFA 		j	.L23
 315              	.L16:
 316              	.LBE10:
  58:src/Tests.cpp ****     }
  59:src/Tests.cpp **** }
 317              		.loc 1 59 1
 318 01f4 83308101 		ld	ra,24(sp)
 319              		.cfi_restore 1
 320 01f8 03340101 		ld	s0,16(sp)
 321              		.cfi_restore 8
 322              		.cfi_def_cfa 2, 32
 323 01fc 83348100 		ld	s1,8(sp)
 324              		.cfi_restore 9
 325              	.LVL34:
 326 0200 13010102 		addi	sp,sp,32
 327              		.cfi_def_cfa_offset 0
 328 0204 67800000 		jr	ra
 329              		.cfi_endproc
 330              	.LFE25:
 332              		.section	.rodata.str1.8
 333 004d 000000   		.align	3
 334              	.LC6:
 335 0050 66312073 		.string	"f1 started\n"
 335      74617274 
 335      65640A00 
 336              		.text
 337              		.align	2
 338              		.globl	_Z2f1Pv
 340              	_Z2f1Pv:
 341              	.LFB35:
  60:src/Tests.cpp **** 
  61:src/Tests.cpp **** void threadTest1()
  62:src/Tests.cpp **** {
GAS LISTING /tmp/ccO13uu5.s 			page 9


  63:src/Tests.cpp ****     Thread* t1 = new Thread(&thread1Function, 0);
  64:src/Tests.cpp ****     t1->start();
  65:src/Tests.cpp ****     Thread* t2 = new Thread(&thread2Function, 0);
  66:src/Tests.cpp ****     t2->start();
  67:src/Tests.cpp ****     Riscv::enableInterrupts();
  68:src/Tests.cpp ****     while(t1->myHandle->getState() != PCB::FINISHED || t2->myHandle->getState() != PCB::FINISHED)
  69:src/Tests.cpp ****     {
  70:src/Tests.cpp ****         Riscv::printString("Main thread\n");
  71:src/Tests.cpp ****         thread_dispatch();
  72:src/Tests.cpp ****     }
  73:src/Tests.cpp **** 
  74:src/Tests.cpp ****     Riscv::printString("End...\n");
  75:src/Tests.cpp ****     Riscv::disableInterrupts();
  76:src/Tests.cpp **** }
  77:src/Tests.cpp **** 
  78:src/Tests.cpp **** void threadTest2()
  79:src/Tests.cpp **** {
  80:src/Tests.cpp ****     Thread* idleThread = new Thread(&idle, 0);
  81:src/Tests.cpp ****     idleThread->start();
  82:src/Tests.cpp ****     Thread* t1 = new Thread(&thread1Function, 0);
  83:src/Tests.cpp ****     t1->start();
  84:src/Tests.cpp ****     Thread* t2  = new Thread(&thread2FunctionTest2, 0);
  85:src/Tests.cpp ****     t2->start();
  86:src/Tests.cpp **** 
  87:src/Tests.cpp ****     Riscv::enableInterrupts();
  88:src/Tests.cpp **** 
  89:src/Tests.cpp ****     while(idleThread->myHandle->getState() != PCB::FINISHED);
  90:src/Tests.cpp **** 
  91:src/Tests.cpp ****     Riscv::printString("End...\n");
  92:src/Tests.cpp **** 
  93:src/Tests.cpp ****     Riscv::disableInterrupts();
  94:src/Tests.cpp **** }
  95:src/Tests.cpp **** 
  96:src/Tests.cpp **** void threadTests()
  97:src/Tests.cpp **** {
  98:src/Tests.cpp ****     //threadTest1();
  99:src/Tests.cpp ****     threadTest2();
 100:src/Tests.cpp **** }
 101:src/Tests.cpp **** 
 102:src/Tests.cpp **** 
 103:src/Tests.cpp **** //memory (de)allocation tests
 104:src/Tests.cpp **** void mallocFree()
 105:src/Tests.cpp **** {
 106:src/Tests.cpp ****     Riscv::printString("mallocFree\n");
 107:src/Tests.cpp ****     constexpr int num = 100;
 108:src/Tests.cpp ****     void* addrs[num];
 109:src/Tests.cpp ****     for(int i = 0; i < num;i++)
 110:src/Tests.cpp ****     {
 111:src/Tests.cpp ****         addrs[i] = mem_alloc(100);
 112:src/Tests.cpp ****         if(addrs[i] == 0)
 113:src/Tests.cpp ****         {
 114:src/Tests.cpp ****             Riscv::printString("not OK\n");
 115:src/Tests.cpp ****             return;
 116:src/Tests.cpp ****         }
 117:src/Tests.cpp **** 
 118:src/Tests.cpp ****     }
 119:src/Tests.cpp **** 
GAS LISTING /tmp/ccO13uu5.s 			page 10


 120:src/Tests.cpp ****     for(int i = 0 ; i < num;i+=2)
 121:src/Tests.cpp ****     {
 122:src/Tests.cpp ****         int retval = mem_free(addrs[i]);
 123:src/Tests.cpp ****         if(retval != 0)
 124:src/Tests.cpp ****         {
 125:src/Tests.cpp ****             Riscv::printString("not OK\n");
 126:src/Tests.cpp ****             return;
 127:src/Tests.cpp ****         }
 128:src/Tests.cpp ****     }
 129:src/Tests.cpp **** 
 130:src/Tests.cpp ****     for(int i = 0 ; i < num;i+=2)
 131:src/Tests.cpp ****     {
 132:src/Tests.cpp ****         addrs[i] = mem_alloc(20);
 133:src/Tests.cpp ****         if(addrs[i] == 0)
 134:src/Tests.cpp ****         {
 135:src/Tests.cpp ****             Riscv::printString("not OK\n");
 136:src/Tests.cpp ****             return;
 137:src/Tests.cpp ****         }
 138:src/Tests.cpp ****     }
 139:src/Tests.cpp **** 
 140:src/Tests.cpp ****     for(int i = 0; i < num;i++)
 141:src/Tests.cpp ****     {
 142:src/Tests.cpp ****         int retval = mem_free(addrs[i]);
 143:src/Tests.cpp ****         if(retval != 0)
 144:src/Tests.cpp ****         {
 145:src/Tests.cpp ****             Riscv::printString("not OK\n");
 146:src/Tests.cpp ****             return;
 147:src/Tests.cpp ****         }
 148:src/Tests.cpp ****     }
 149:src/Tests.cpp **** 
 150:src/Tests.cpp ****     Riscv::printString("OK\n");
 151:src/Tests.cpp **** }
 152:src/Tests.cpp **** void bigMalloc()
 153:src/Tests.cpp **** {
 154:src/Tests.cpp ****     Riscv::printString("bigMalloc\n");
 155:src/Tests.cpp ****     uint64 x = (uint64)HEAP_END_ADDR - (uint64)HEAP_START_ADDR + 100UL;
 156:src/Tests.cpp ****     void* p = mem_alloc(x);
 157:src/Tests.cpp ****     if(p == 0)
 158:src/Tests.cpp ****         Riscv::printString("OK\n");
 159:src/Tests.cpp ****     else
 160:src/Tests.cpp ****         Riscv::printString("not OK\n");
 161:src/Tests.cpp **** }
 162:src/Tests.cpp **** 
 163:src/Tests.cpp **** void lotOfSmallMallocs()
 164:src/Tests.cpp **** {
 165:src/Tests.cpp ****     Riscv::printString("lotOfSmallMallocs\n");
 166:src/Tests.cpp ****     uint64 cnt = 0;
 167:src/Tests.cpp ****     uint64 sum = 0;
 168:src/Tests.cpp ****     uint64 N = 10000UL;
 169:src/Tests.cpp ****     uint64 X = 10UL;
 170:src/Tests.cpp ****     for(uint64 i = 0; i < N;i++)
 171:src/Tests.cpp ****     {
 172:src/Tests.cpp ****         Test* t = (Test*)mem_alloc(sizeof(Test));
 173:src/Tests.cpp ****         if(t == 0)
 174:src/Tests.cpp ****             break;
 175:src/Tests.cpp ****         t->a = X;
 176:src/Tests.cpp ****         sum+=t->a;
GAS LISTING /tmp/ccO13uu5.s 			page 11


 177:src/Tests.cpp ****         cnt++;
 178:src/Tests.cpp ****     }
 179:src/Tests.cpp ****     Riscv::printInteger(cnt);
 180:src/Tests.cpp ****     Riscv::printString("\n");
 181:src/Tests.cpp ****     if(sum == X*cnt)
 182:src/Tests.cpp ****         Riscv::printString("OK\n");
 183:src/Tests.cpp ****     else
 184:src/Tests.cpp ****         Riscv::printString("not OK\n");
 185:src/Tests.cpp **** }
 186:src/Tests.cpp **** void badFree()
 187:src/Tests.cpp **** {
 188:src/Tests.cpp ****     Riscv::printString("badFree\n");
 189:src/Tests.cpp ****     Test* t = (Test*)mem_alloc(sizeof(Test));
 190:src/Tests.cpp ****     uint64 retval = mem_free((char*)t + 2);
 191:src/Tests.cpp ****     if(retval == 0)
 192:src/Tests.cpp ****         Riscv::printString("not OK\n");
 193:src/Tests.cpp ****     else
 194:src/Tests.cpp ****         Riscv::printString("OK\n");
 195:src/Tests.cpp **** }
 196:src/Tests.cpp **** 
 197:src/Tests.cpp **** void stressTesting()
 198:src/Tests.cpp **** {
 199:src/Tests.cpp ****     Riscv::printString("stressTesting\n");
 200:src/Tests.cpp ****     constexpr int num = 100;
 201:src/Tests.cpp ****     void* addrs[num];
 202:src/Tests.cpp ****     for(int i = 0; i < num;i++)
 203:src/Tests.cpp ****     {
 204:src/Tests.cpp ****         addrs[i] = mem_alloc(1);
 205:src/Tests.cpp ****         if(addrs[i] == 0)
 206:src/Tests.cpp ****         {
 207:src/Tests.cpp ****             //Riscv::printString("not OK\n");
 208:src/Tests.cpp ****             return;
 209:src/Tests.cpp ****         }
 210:src/Tests.cpp **** 
 211:src/Tests.cpp ****     }
 212:src/Tests.cpp ****     int sz = 300;
 213:src/Tests.cpp ****     while(sz > 0)
 214:src/Tests.cpp ****     {
 215:src/Tests.cpp ****         //Riscv::printString("sz : ");
 216:src/Tests.cpp ****         //Riscv::printInteger(sz);
 217:src/Tests.cpp ****         for(int i = 0 ; i < num;i+=2)
 218:src/Tests.cpp ****         {
 219:src/Tests.cpp ****             //Riscv::printString("i : ");
 220:src/Tests.cpp ****             //Riscv::printInteger(i);
 221:src/Tests.cpp ****             //Riscv::printString("free\n");
 222:src/Tests.cpp ****             int retval = mem_free(addrs[i]);
 223:src/Tests.cpp ****             if(retval != 0)
 224:src/Tests.cpp ****             {
 225:src/Tests.cpp ****                 //Riscv::printString("not OK\n");
 226:src/Tests.cpp ****                 return;
 227:src/Tests.cpp ****             }
 228:src/Tests.cpp ****             //Riscv::printString("alloc\n");
 229:src/Tests.cpp ****             addrs[i] = mem_alloc(sz/2);
 230:src/Tests.cpp ****             if(addrs[i] == 0)
 231:src/Tests.cpp ****             {
 232:src/Tests.cpp ****                 //Riscv::printString("not Ok\n");
 233:src/Tests.cpp ****                 return;
GAS LISTING /tmp/ccO13uu5.s 			page 12


 234:src/Tests.cpp ****             }
 235:src/Tests.cpp **** 
 236:src/Tests.cpp ****         }
 237:src/Tests.cpp **** 
 238:src/Tests.cpp ****         for(int i = 1 ; i < num;i+=2)
 239:src/Tests.cpp ****         {
 240:src/Tests.cpp ****             //Riscv::printString("i : ");
 241:src/Tests.cpp ****             //Riscv::printInteger(i);
 242:src/Tests.cpp ****             //Riscv::printString("free\n");
 243:src/Tests.cpp ****             int retval = mem_free(addrs[i]);
 244:src/Tests.cpp ****             if(retval != 0)
 245:src/Tests.cpp ****             {
 246:src/Tests.cpp ****                 //Riscv::printString("not OK\n");
 247:src/Tests.cpp ****                 return;
 248:src/Tests.cpp ****             }
 249:src/Tests.cpp ****             //Riscv::printString("alloc\n");
 250:src/Tests.cpp ****             addrs[i] = mem_alloc(sz);
 251:src/Tests.cpp ****             if(addrs[i] == 0)
 252:src/Tests.cpp ****             {
 253:src/Tests.cpp ****                 //Riscv::printString("not Ok\n");
 254:src/Tests.cpp ****                 return;
 255:src/Tests.cpp ****             }
 256:src/Tests.cpp **** 
 257:src/Tests.cpp ****         }
 258:src/Tests.cpp ****         sz-=10;
 259:src/Tests.cpp ****     }
 260:src/Tests.cpp **** 
 261:src/Tests.cpp ****     Riscv::printString("OK\n");
 262:src/Tests.cpp **** }
 263:src/Tests.cpp **** 
 264:src/Tests.cpp **** void memoryAllocationTests()
 265:src/Tests.cpp **** {
 266:src/Tests.cpp ****     //bigMalloc();
 267:src/Tests.cpp ****     //lotOfSmallMallocs();
 268:src/Tests.cpp ****     //mallocFree();
 269:src/Tests.cpp ****     //badFree();
 270:src/Tests.cpp ****     stressTesting();
 271:src/Tests.cpp **** }
 272:src/Tests.cpp **** 
 273:src/Tests.cpp **** //semaphore tests
 274:src/Tests.cpp **** static Semaphore* mutex;
 275:src/Tests.cpp **** 
 276:src/Tests.cpp **** void f1(void* p)
 277:src/Tests.cpp **** {
 342              		.loc 1 277 1 is_stmt 1
 343              		.cfi_startproc
 344              	.LVL35:
 345 0208 130101FE 		addi	sp,sp,-32
 346              		.cfi_def_cfa_offset 32
 347 020c 233C1100 		sd	ra,24(sp)
 348 0210 23388100 		sd	s0,16(sp)
 349 0214 23349100 		sd	s1,8(sp)
 350 0218 23302101 		sd	s2,0(sp)
 351              		.cfi_offset 1, -8
 352              		.cfi_offset 8, -16
 353              		.cfi_offset 9, -24
 354              		.cfi_offset 18, -32
GAS LISTING /tmp/ccO13uu5.s 			page 13


 355 021c 13040102 		addi	s0,sp,32
 356              		.cfi_def_cfa 8, 0
 278:src/Tests.cpp ****     Riscv::printString("f1 started\n");
 357              		.loc 1 278 5
 358              		.loc 1 278 23 is_stmt 0
 359 0220 17050000 		lla	a0,.LC6
 359      13050500 
 360              	.LVL36:
 361 0228 97000000 		call	_ZN5Riscv11printStringEPKc@plt
 361      E7800000 
 362              	.LVL37:
 279:src/Tests.cpp ****     int x = 0;
 363              		.loc 1 279 5 is_stmt 1
 364              		.loc 1 279 9 is_stmt 0
 365 0230 93040000 		li	s1,0
 366 0234 6F00C000 		j	.L25
 367              	.LVL38:
 368              	.L26:
 280:src/Tests.cpp ****     while(true)
 281:src/Tests.cpp ****     {
 282:src/Tests.cpp ****         x++;
 283:src/Tests.cpp ****         mutex->wait();
 284:src/Tests.cpp ****         //__putc('1');
 285:src/Tests.cpp ****         //__putc('\n');
 286:src/Tests.cpp ****         mutex->signal();
 287:src/Tests.cpp ****         if(x < 50000)
 288:src/Tests.cpp ****             thread_dispatch();
 289:src/Tests.cpp ****         else
 290:src/Tests.cpp ****             thread_exit();
 369              		.loc 1 290 13 is_stmt 1
 370              		.loc 1 290 24 is_stmt 0
 371 0238 97000000 		call	thread_exit@plt
 371      E7800000 
 372              	.LVL39:
 373              	.L25:
 280:src/Tests.cpp ****     while(true)
 374              		.loc 1 280 5 is_stmt 1
 282:src/Tests.cpp ****         mutex->wait();
 375              		.loc 1 282 9
 282:src/Tests.cpp ****         mutex->wait();
 376              		.loc 1 282 10 is_stmt 0
 377 0240 9B841400 		addiw	s1,s1,1
 378              	.LVL40:
 283:src/Tests.cpp ****         //__putc('1');
 379              		.loc 1 283 9 is_stmt 1
 283:src/Tests.cpp ****         //__putc('1');
 380              		.loc 1 283 20 is_stmt 0
 381 0244 17090000 		lla	s2,.LANCHOR0
 381      13090900 
 382 024c 03350900 		ld	a0,0(s2)
 383 0250 97000000 		call	_ZN9Semaphore4waitEv@plt
 383      E7800000 
 384              	.LVL41:
 286:src/Tests.cpp ****         if(x < 50000)
 385              		.loc 1 286 9 is_stmt 1
 286:src/Tests.cpp ****         if(x < 50000)
 386              		.loc 1 286 22 is_stmt 0
GAS LISTING /tmp/ccO13uu5.s 			page 14


 387 0258 03350900 		ld	a0,0(s2)
 388 025c 97000000 		call	_ZN9Semaphore6signalEv@plt
 388      E7800000 
 389              	.LVL42:
 287:src/Tests.cpp ****             thread_dispatch();
 390              		.loc 1 287 9 is_stmt 1
 391 0264 B7C70000 		li	a5,49152
 392 0268 9387F734 		addi	a5,a5,847
 393 026c E3C697FC 		bgt	s1,a5,.L26
 288:src/Tests.cpp ****         else
 394              		.loc 1 288 13
 288:src/Tests.cpp ****         else
 395              		.loc 1 288 28 is_stmt 0
 396 0270 97000000 		call	thread_dispatch@plt
 396      E7800000 
 397              	.LVL43:
 398 0278 6FF09FFC 		j	.L25
 399              		.cfi_endproc
 400              	.LFE35:
 402              		.section	.rodata.str1.8
 403 005c 00000000 		.align	3
 404              	.LC7:
 405 0060 66322073 		.string	"f2 started\n"
 405      74617274 
 405      65640A00 
 406              		.text
 407              		.align	2
 408              		.globl	_Z2f2Pv
 410              	_Z2f2Pv:
 411              	.LFB36:
 291:src/Tests.cpp ****     }
 292:src/Tests.cpp **** }
 293:src/Tests.cpp **** 
 294:src/Tests.cpp **** void f2(void* p)
 295:src/Tests.cpp **** {
 412              		.loc 1 295 1 is_stmt 1
 413              		.cfi_startproc
 414              	.LVL44:
 415 027c 130101FE 		addi	sp,sp,-32
 416              		.cfi_def_cfa_offset 32
 417 0280 233C1100 		sd	ra,24(sp)
 418 0284 23388100 		sd	s0,16(sp)
 419 0288 23349100 		sd	s1,8(sp)
 420              		.cfi_offset 1, -8
 421              		.cfi_offset 8, -16
 422              		.cfi_offset 9, -24
 423 028c 13040102 		addi	s0,sp,32
 424              		.cfi_def_cfa 8, 0
 296:src/Tests.cpp ****     Riscv::printString("f2 started\n");
 425              		.loc 1 296 5
 426              		.loc 1 296 23 is_stmt 0
 427 0290 17050000 		lla	a0,.LC7
 427      13050500 
 428              	.LVL45:
 429 0298 97000000 		call	_ZN5Riscv11printStringEPKc@plt
 429      E7800000 
 430              	.LVL46:
GAS LISTING /tmp/ccO13uu5.s 			page 15


 297:src/Tests.cpp ****     int x = 0;
 431              		.loc 1 297 5 is_stmt 1
 432              	.L30:
 298:src/Tests.cpp ****     while(true)
 433              		.loc 1 298 5
 299:src/Tests.cpp ****     {
 300:src/Tests.cpp ****         mutex->wait();
 434              		.loc 1 300 9
 435              		.loc 1 300 20 is_stmt 0
 436 02a0 97040000 		lla	s1,.LANCHOR0
 436      93840400 
 437 02a8 03B50400 		ld	a0,0(s1)
 438 02ac 97000000 		call	_ZN9Semaphore4waitEv@plt
 438      E7800000 
 439              	.LVL47:
 301:src/Tests.cpp ****         //__putc('2');
 302:src/Tests.cpp ****         //__putc('\n');
 303:src/Tests.cpp ****         mutex->signal();
 440              		.loc 1 303 9 is_stmt 1
 441              		.loc 1 303 22 is_stmt 0
 442 02b4 03B50400 		ld	a0,0(s1)
 443 02b8 97000000 		call	_ZN9Semaphore6signalEv@plt
 443      E7800000 
 444              	.LVL48:
 304:src/Tests.cpp ****         if(x < 50000)
 445              		.loc 1 304 9 is_stmt 1
 305:src/Tests.cpp ****             thread_dispatch();
 446              		.loc 1 305 13
 447              		.loc 1 305 28 is_stmt 0
 448 02c0 97000000 		call	thread_dispatch@plt
 448      E7800000 
 449              	.LVL49:
 450 02c8 6FF09FFD 		j	.L30
 451              		.cfi_endproc
 452              	.LFE36:
 454              		.section	.rodata.str1.8
 455 006c 00000000 		.align	3
 456              	.LC8:
 457 0070 66315F32 		.string	"f1_2 started\n"
 457      20737461 
 457      72746564 
 457      0A00
 458              		.text
 459              		.align	2
 460              		.globl	_Z4f1_2Pv
 462              	_Z4f1_2Pv:
 463              	.LFB38:
 306:src/Tests.cpp ****         else
 307:src/Tests.cpp ****             thread_exit();
 308:src/Tests.cpp ****     }
 309:src/Tests.cpp **** }
 310:src/Tests.cpp **** 
 311:src/Tests.cpp **** void semTest1()
 312:src/Tests.cpp **** {
 313:src/Tests.cpp ****     mutex = new Semaphore(1);
 314:src/Tests.cpp ****     Thread* t1 = new Thread(&f1, 0);
 315:src/Tests.cpp ****     Thread* t2 = new Thread(&f2, 0);
GAS LISTING /tmp/ccO13uu5.s 			page 16


 316:src/Tests.cpp ****     t1->start();
 317:src/Tests.cpp ****     t2->start();
 318:src/Tests.cpp **** 
 319:src/Tests.cpp ****     int y = 0;
 320:src/Tests.cpp ****     while(true)
 321:src/Tests.cpp ****     {
 322:src/Tests.cpp ****         y++;
 323:src/Tests.cpp ****         thread_dispatch();
 324:src/Tests.cpp ****         if(y == 200000)
 325:src/Tests.cpp ****             break;
 326:src/Tests.cpp ****     }
 327:src/Tests.cpp **** }
 328:src/Tests.cpp **** 
 329:src/Tests.cpp **** static Semaphore* s1;
 330:src/Tests.cpp **** static Semaphore* s2;
 331:src/Tests.cpp **** static Semaphore* s3;
 332:src/Tests.cpp **** 
 333:src/Tests.cpp **** void f1_2(void* p)
 334:src/Tests.cpp **** {
 464              		.loc 1 334 1 is_stmt 1
 465              		.cfi_startproc
 466              	.LVL50:
 467 02cc 130101FE 		addi	sp,sp,-32
 468              		.cfi_def_cfa_offset 32
 469 02d0 233C1100 		sd	ra,24(sp)
 470 02d4 23388100 		sd	s0,16(sp)
 471 02d8 23349100 		sd	s1,8(sp)
 472 02dc 23302101 		sd	s2,0(sp)
 473              		.cfi_offset 1, -8
 474              		.cfi_offset 8, -16
 475              		.cfi_offset 9, -24
 476              		.cfi_offset 18, -32
 477 02e0 13040102 		addi	s0,sp,32
 478              		.cfi_def_cfa 8, 0
 335:src/Tests.cpp ****     Riscv::printString("f1_2 started\n");
 479              		.loc 1 335 5
 480              		.loc 1 335 23 is_stmt 0
 481 02e4 17050000 		lla	a0,.LC8
 481      13050500 
 482              	.LVL51:
 483 02ec 97000000 		call	_ZN5Riscv11printStringEPKc@plt
 483      E7800000 
 484              	.LVL52:
 336:src/Tests.cpp ****     int x = 0;
 485              		.loc 1 336 5 is_stmt 1
 486              		.loc 1 336 9 is_stmt 0
 487 02f4 93040000 		li	s1,0
 488 02f8 6F00C000 		j	.L33
 489              	.LVL53:
 490              	.L34:
 337:src/Tests.cpp ****     while(true)
 338:src/Tests.cpp ****     {
 339:src/Tests.cpp ****         x++;
 340:src/Tests.cpp ****         s1->wait();
 341:src/Tests.cpp ****         __putc('1');
 342:src/Tests.cpp ****         __putc('\n');
 343:src/Tests.cpp ****         s2->signal();
GAS LISTING /tmp/ccO13uu5.s 			page 17


 344:src/Tests.cpp ****         if(x < 5000)
 345:src/Tests.cpp ****             thread_dispatch();
 346:src/Tests.cpp ****         else
 347:src/Tests.cpp ****             thread_exit();
 491              		.loc 1 347 13 is_stmt 1
 492              		.loc 1 347 24 is_stmt 0
 493 02fc 97000000 		call	thread_exit@plt
 493      E7800000 
 494              	.LVL54:
 495              	.L33:
 337:src/Tests.cpp ****     while(true)
 496              		.loc 1 337 5 is_stmt 1
 339:src/Tests.cpp ****         s1->wait();
 497              		.loc 1 339 9
 339:src/Tests.cpp ****         s1->wait();
 498              		.loc 1 339 10 is_stmt 0
 499 0304 9B841400 		addiw	s1,s1,1
 500              	.LVL55:
 340:src/Tests.cpp ****         __putc('1');
 501              		.loc 1 340 9 is_stmt 1
 340:src/Tests.cpp ****         __putc('1');
 502              		.loc 1 340 17 is_stmt 0
 503 0308 17090000 		lla	s2,.LANCHOR0
 503      13090900 
 504 0310 03358900 		ld	a0,8(s2)
 505 0314 97000000 		call	_ZN9Semaphore4waitEv@plt
 505      E7800000 
 506              	.LVL56:
 341:src/Tests.cpp ****         __putc('\n');
 507              		.loc 1 341 9 is_stmt 1
 341:src/Tests.cpp ****         __putc('\n');
 508              		.loc 1 341 15 is_stmt 0
 509 031c 13051003 		li	a0,49
 510 0320 97000000 		call	__putc@plt
 510      E7800000 
 511              	.LVL57:
 342:src/Tests.cpp ****         s2->signal();
 512              		.loc 1 342 9 is_stmt 1
 342:src/Tests.cpp ****         s2->signal();
 513              		.loc 1 342 15 is_stmt 0
 514 0328 1305A000 		li	a0,10
 515 032c 97000000 		call	__putc@plt
 515      E7800000 
 516              	.LVL58:
 343:src/Tests.cpp ****         if(x < 5000)
 517              		.loc 1 343 9 is_stmt 1
 343:src/Tests.cpp ****         if(x < 5000)
 518              		.loc 1 343 19 is_stmt 0
 519 0334 03350901 		ld	a0,16(s2)
 520 0338 97000000 		call	_ZN9Semaphore6signalEv@plt
 520      E7800000 
 521              	.LVL59:
 344:src/Tests.cpp ****             thread_dispatch();
 522              		.loc 1 344 9 is_stmt 1
 523 0340 B7170000 		li	a5,4096
 524 0344 93877738 		addi	a5,a5,903
 525 0348 E3CA97FA 		bgt	s1,a5,.L34
GAS LISTING /tmp/ccO13uu5.s 			page 18


 345:src/Tests.cpp ****         else
 526              		.loc 1 345 13
 345:src/Tests.cpp ****         else
 527              		.loc 1 345 28 is_stmt 0
 528 034c 97000000 		call	thread_dispatch@plt
 528      E7800000 
 529              	.LVL60:
 530 0354 6FF01FFB 		j	.L33
 531              		.cfi_endproc
 532              	.LFE38:
 534              		.section	.rodata.str1.8
 535 007e 0000     		.align	3
 536              	.LC9:
 537 0080 66325F32 		.string	"f2_2 started\n"
 537      20737461 
 537      72746564 
 537      0A00
 538              		.text
 539              		.align	2
 540              		.globl	_Z4f2_2Pv
 542              	_Z4f2_2Pv:
 543              	.LFB39:
 348:src/Tests.cpp ****     }
 349:src/Tests.cpp **** }
 350:src/Tests.cpp **** 
 351:src/Tests.cpp **** void f2_2(void* p)
 352:src/Tests.cpp **** {
 544              		.loc 1 352 1 is_stmt 1
 545              		.cfi_startproc
 546              	.LVL61:
 547 0358 130101FE 		addi	sp,sp,-32
 548              		.cfi_def_cfa_offset 32
 549 035c 233C1100 		sd	ra,24(sp)
 550 0360 23388100 		sd	s0,16(sp)
 551 0364 23349100 		sd	s1,8(sp)
 552 0368 23302101 		sd	s2,0(sp)
 553              		.cfi_offset 1, -8
 554              		.cfi_offset 8, -16
 555              		.cfi_offset 9, -24
 556              		.cfi_offset 18, -32
 557 036c 13040102 		addi	s0,sp,32
 558              		.cfi_def_cfa 8, 0
 353:src/Tests.cpp ****     Riscv::printString("f2_2 started\n");
 559              		.loc 1 353 5
 560              		.loc 1 353 23 is_stmt 0
 561 0370 17050000 		lla	a0,.LC9
 561      13050500 
 562              	.LVL62:
 563 0378 97000000 		call	_ZN5Riscv11printStringEPKc@plt
 563      E7800000 
 564              	.LVL63:
 354:src/Tests.cpp ****     int x = 0;
 565              		.loc 1 354 5 is_stmt 1
 566              		.loc 1 354 9 is_stmt 0
 567 0380 93040000 		li	s1,0
 568 0384 6F00C000 		j	.L38
 569              	.LVL64:
GAS LISTING /tmp/ccO13uu5.s 			page 19


 570              	.L39:
 355:src/Tests.cpp ****     while(true)
 356:src/Tests.cpp ****     {
 357:src/Tests.cpp ****         x++;
 358:src/Tests.cpp ****         s2->wait();
 359:src/Tests.cpp ****         __putc('2');
 360:src/Tests.cpp ****         __putc('\n');
 361:src/Tests.cpp ****         s3->signal();
 362:src/Tests.cpp ****         if(x < 5000)
 363:src/Tests.cpp ****             thread_dispatch();
 364:src/Tests.cpp ****         else
 365:src/Tests.cpp ****             thread_exit();
 571              		.loc 1 365 13 is_stmt 1
 572              		.loc 1 365 24 is_stmt 0
 573 0388 97000000 		call	thread_exit@plt
 573      E7800000 
 574              	.LVL65:
 575              	.L38:
 355:src/Tests.cpp ****     while(true)
 576              		.loc 1 355 5 is_stmt 1
 357:src/Tests.cpp ****         s2->wait();
 577              		.loc 1 357 9
 357:src/Tests.cpp ****         s2->wait();
 578              		.loc 1 357 10 is_stmt 0
 579 0390 9B841400 		addiw	s1,s1,1
 580              	.LVL66:
 358:src/Tests.cpp ****         __putc('2');
 581              		.loc 1 358 9 is_stmt 1
 358:src/Tests.cpp ****         __putc('2');
 582              		.loc 1 358 17 is_stmt 0
 583 0394 17090000 		lla	s2,.LANCHOR0
 583      13090900 
 584 039c 03350901 		ld	a0,16(s2)
 585 03a0 97000000 		call	_ZN9Semaphore4waitEv@plt
 585      E7800000 
 586              	.LVL67:
 359:src/Tests.cpp ****         __putc('\n');
 587              		.loc 1 359 9 is_stmt 1
 359:src/Tests.cpp ****         __putc('\n');
 588              		.loc 1 359 15 is_stmt 0
 589 03a8 13052003 		li	a0,50
 590 03ac 97000000 		call	__putc@plt
 590      E7800000 
 591              	.LVL68:
 360:src/Tests.cpp ****         s3->signal();
 592              		.loc 1 360 9 is_stmt 1
 360:src/Tests.cpp ****         s3->signal();
 593              		.loc 1 360 15 is_stmt 0
 594 03b4 1305A000 		li	a0,10
 595 03b8 97000000 		call	__putc@plt
 595      E7800000 
 596              	.LVL69:
 361:src/Tests.cpp ****         if(x < 5000)
 597              		.loc 1 361 9 is_stmt 1
 361:src/Tests.cpp ****         if(x < 5000)
 598              		.loc 1 361 19 is_stmt 0
 599 03c0 03358901 		ld	a0,24(s2)
GAS LISTING /tmp/ccO13uu5.s 			page 20


 600 03c4 97000000 		call	_ZN9Semaphore6signalEv@plt
 600      E7800000 
 601              	.LVL70:
 362:src/Tests.cpp ****             thread_dispatch();
 602              		.loc 1 362 9 is_stmt 1
 603 03cc B7170000 		li	a5,4096
 604 03d0 93877738 		addi	a5,a5,903
 605 03d4 E3CA97FA 		bgt	s1,a5,.L39
 363:src/Tests.cpp ****         else
 606              		.loc 1 363 13
 363:src/Tests.cpp ****         else
 607              		.loc 1 363 28 is_stmt 0
 608 03d8 97000000 		call	thread_dispatch@plt
 608      E7800000 
 609              	.LVL71:
 610 03e0 6FF01FFB 		j	.L38
 611              		.cfi_endproc
 612              	.LFE39:
 614              		.section	.rodata.str1.8
 615 008e 0000     		.align	3
 616              	.LC10:
 617 0090 66335F32 		.string	"f3_2 started\n"
 617      20737461 
 617      72746564 
 617      0A00
 618              		.text
 619              		.align	2
 620              		.globl	_Z4f3_2Pv
 622              	_Z4f3_2Pv:
 623              	.LFB40:
 366:src/Tests.cpp ****     }
 367:src/Tests.cpp **** }
 368:src/Tests.cpp **** 
 369:src/Tests.cpp **** void f3_2(void* p)
 370:src/Tests.cpp **** {
 624              		.loc 1 370 1 is_stmt 1
 625              		.cfi_startproc
 626              	.LVL72:
 627 03e4 130101FE 		addi	sp,sp,-32
 628              		.cfi_def_cfa_offset 32
 629 03e8 233C1100 		sd	ra,24(sp)
 630 03ec 23388100 		sd	s0,16(sp)
 631 03f0 23349100 		sd	s1,8(sp)
 632 03f4 23302101 		sd	s2,0(sp)
 633              		.cfi_offset 1, -8
 634              		.cfi_offset 8, -16
 635              		.cfi_offset 9, -24
 636              		.cfi_offset 18, -32
 637 03f8 13040102 		addi	s0,sp,32
 638              		.cfi_def_cfa 8, 0
 371:src/Tests.cpp ****     Riscv::printString("f3_2 started\n");
 639              		.loc 1 371 5
 640              		.loc 1 371 23 is_stmt 0
 641 03fc 17050000 		lla	a0,.LC10
 641      13050500 
 642              	.LVL73:
 643 0404 97000000 		call	_ZN5Riscv11printStringEPKc@plt
GAS LISTING /tmp/ccO13uu5.s 			page 21


 643      E7800000 
 644              	.LVL74:
 372:src/Tests.cpp ****     int x = 0;
 645              		.loc 1 372 5 is_stmt 1
 646              		.loc 1 372 9 is_stmt 0
 647 040c 93040000 		li	s1,0
 648 0410 6F00C000 		j	.L43
 649              	.LVL75:
 650              	.L44:
 373:src/Tests.cpp ****     while(true)
 374:src/Tests.cpp ****     {
 375:src/Tests.cpp ****         x++;
 376:src/Tests.cpp ****         s3->wait();
 377:src/Tests.cpp ****         __putc('3');
 378:src/Tests.cpp ****         __putc('\n');
 379:src/Tests.cpp ****         s1->signal();
 380:src/Tests.cpp ****         if(x < 5000)
 381:src/Tests.cpp ****             thread_dispatch();
 382:src/Tests.cpp ****         else
 383:src/Tests.cpp ****             thread_exit();
 651              		.loc 1 383 13 is_stmt 1
 652              		.loc 1 383 24 is_stmt 0
 653 0414 97000000 		call	thread_exit@plt
 653      E7800000 
 654              	.LVL76:
 655              	.L43:
 373:src/Tests.cpp ****     while(true)
 656              		.loc 1 373 5 is_stmt 1
 375:src/Tests.cpp ****         s3->wait();
 657              		.loc 1 375 9
 375:src/Tests.cpp ****         s3->wait();
 658              		.loc 1 375 10 is_stmt 0
 659 041c 9B841400 		addiw	s1,s1,1
 660              	.LVL77:
 376:src/Tests.cpp ****         __putc('3');
 661              		.loc 1 376 9 is_stmt 1
 376:src/Tests.cpp ****         __putc('3');
 662              		.loc 1 376 17 is_stmt 0
 663 0420 17090000 		lla	s2,.LANCHOR0
 663      13090900 
 664 0428 03358901 		ld	a0,24(s2)
 665 042c 97000000 		call	_ZN9Semaphore4waitEv@plt
 665      E7800000 
 666              	.LVL78:
 377:src/Tests.cpp ****         __putc('\n');
 667              		.loc 1 377 9 is_stmt 1
 377:src/Tests.cpp ****         __putc('\n');
 668              		.loc 1 377 15 is_stmt 0
 669 0434 13053003 		li	a0,51
 670 0438 97000000 		call	__putc@plt
 670      E7800000 
 671              	.LVL79:
 378:src/Tests.cpp ****         s1->signal();
 672              		.loc 1 378 9 is_stmt 1
 378:src/Tests.cpp ****         s1->signal();
 673              		.loc 1 378 15 is_stmt 0
 674 0440 1305A000 		li	a0,10
GAS LISTING /tmp/ccO13uu5.s 			page 22


 675 0444 97000000 		call	__putc@plt
 675      E7800000 
 676              	.LVL80:
 379:src/Tests.cpp ****         if(x < 5000)
 677              		.loc 1 379 9 is_stmt 1
 379:src/Tests.cpp ****         if(x < 5000)
 678              		.loc 1 379 19 is_stmt 0
 679 044c 03358900 		ld	a0,8(s2)
 680 0450 97000000 		call	_ZN9Semaphore6signalEv@plt
 680      E7800000 
 681              	.LVL81:
 380:src/Tests.cpp ****             thread_dispatch();
 682              		.loc 1 380 9 is_stmt 1
 683 0458 B7170000 		li	a5,4096
 684 045c 93877738 		addi	a5,a5,903
 685 0460 E3CA97FA 		bgt	s1,a5,.L44
 381:src/Tests.cpp ****         else
 686              		.loc 1 381 13
 381:src/Tests.cpp ****         else
 687              		.loc 1 381 28 is_stmt 0
 688 0464 97000000 		call	thread_dispatch@plt
 688      E7800000 
 689              	.LVL82:
 690 046c 6FF01FFB 		j	.L43
 691              		.cfi_endproc
 692              	.LFE40:
 694              		.section	.rodata.str1.8
 695 009e 0000     		.align	3
 696              	.LC11:
 697 00a0 4D61696E 		.string	"Main thread\n"
 697      20746872 
 697      6561640A 
 697      00
 698 00ad 000000   		.align	3
 699              	.LC12:
 700 00b0 456E642E 		.string	"End...\n"
 700      2E2E0A00 
 701              		.text
 702              		.align	2
 703              		.globl	_Z11threadTest1v
 705              	_Z11threadTest1v:
 706              	.LFB26:
  62:src/Tests.cpp ****     Thread* t1 = new Thread(&thread1Function, 0);
 707              		.loc 1 62 1 is_stmt 1
 708              		.cfi_startproc
 709              		.cfi_personality 0x9b,DW.ref.__gxx_personality_v0
 710              		.cfi_lsda 0x1b,.LLSDA26
 711 0470 130101FE 		addi	sp,sp,-32
 712              		.cfi_def_cfa_offset 32
 713 0474 233C1100 		sd	ra,24(sp)
 714 0478 23388100 		sd	s0,16(sp)
 715 047c 23349100 		sd	s1,8(sp)
 716 0480 23302101 		sd	s2,0(sp)
 717              		.cfi_offset 1, -8
 718              		.cfi_offset 8, -16
 719              		.cfi_offset 9, -24
 720              		.cfi_offset 18, -32
GAS LISTING /tmp/ccO13uu5.s 			page 23


 721 0484 13040102 		addi	s0,sp,32
 722              		.cfi_def_cfa 8, 0
  63:src/Tests.cpp ****     t1->start();
 723              		.loc 1 63 5
  63:src/Tests.cpp ****     t1->start();
 724              		.loc 1 63 48 is_stmt 0
 725 0488 13050002 		li	a0,32
 726              	.LEHB0:
 727 048c 97000000 		call	_Znwm@plt
 727      E7800000 
 728              	.LVL83:
 729              	.LEHE0:
 730 0494 93040500 		mv	s1,a0
 731 0498 13060000 		li	a2,0
 732 049c 97050000 		lla	a1,_Z15thread1FunctionPv
 732      93850500 
 733              	.LEHB1:
 734 04a4 97000000 		call	_ZN6ThreadC1EPFvPvES0_@plt
 734      E7800000 
 735              	.LVL84:
 736              	.LEHE1:
  64:src/Tests.cpp ****     Thread* t2 = new Thread(&thread2Function, 0);
 737              		.loc 1 64 5 is_stmt 1 discriminator 2
  64:src/Tests.cpp ****     Thread* t2 = new Thread(&thread2Function, 0);
 738              		.loc 1 64 14 is_stmt 0 discriminator 2
 739 04ac 13850400 		mv	a0,s1
 740              	.LEHB2:
 741 04b0 97000000 		call	_ZN6Thread5startEv@plt
 741      E7800000 
 742              	.LVL85:
  65:src/Tests.cpp ****     t2->start();
 743              		.loc 1 65 5 is_stmt 1 discriminator 2
  65:src/Tests.cpp ****     t2->start();
 744              		.loc 1 65 48 is_stmt 0 discriminator 2
 745 04b8 13050002 		li	a0,32
 746 04bc 97000000 		call	_Znwm@plt
 746      E7800000 
 747              	.LVL86:
 748              	.LEHE2:
 749 04c4 13090500 		mv	s2,a0
 750 04c8 13060000 		li	a2,0
 751 04cc 97050000 		lla	a1,_Z15thread2FunctionPv
 751      93850500 
 752              	.LEHB3:
 753 04d4 97000000 		call	_ZN6ThreadC1EPFvPvES0_@plt
 753      E7800000 
 754              	.LVL87:
 755              	.LEHE3:
  66:src/Tests.cpp ****     Riscv::enableInterrupts();
 756              		.loc 1 66 5 is_stmt 1 discriminator 2
  66:src/Tests.cpp ****     Riscv::enableInterrupts();
 757              		.loc 1 66 14 is_stmt 0 discriminator 2
 758 04dc 13050900 		mv	a0,s2
 759              	.LEHB4:
 760 04e0 97000000 		call	_ZN6Thread5startEv@plt
 760      E7800000 
 761              	.LVL88:
GAS LISTING /tmp/ccO13uu5.s 			page 24


  67:src/Tests.cpp ****     while(t1->myHandle->getState() != PCB::FINISHED || t2->myHandle->getState() != PCB::FINISHED)
 762              		.loc 1 67 5 is_stmt 1 discriminator 2
  67:src/Tests.cpp ****     while(t1->myHandle->getState() != PCB::FINISHED || t2->myHandle->getState() != PCB::FINISHED)
 763              		.loc 1 67 28 is_stmt 0 discriminator 2
 764 04e8 97000000 		call	_ZN5Riscv16enableInterruptsEv@plt
 764      E7800000 
 765              	.LVL89:
 766 04f0 6F00C001 		j	.L50
 767              	.L48:
  70:src/Tests.cpp ****         thread_dispatch();
 768              		.loc 1 70 9 is_stmt 1 discriminator 3
  70:src/Tests.cpp ****         thread_dispatch();
 769              		.loc 1 70 27 is_stmt 0 discriminator 3
 770 04f4 17050000 		lla	a0,.LC11
 770      13050500 
 771 04fc 97000000 		call	_ZN5Riscv11printStringEPKc@plt
 771      E7800000 
 772              	.LVL90:
  71:src/Tests.cpp ****     }
 773              		.loc 1 71 9 is_stmt 1 discriminator 3
  71:src/Tests.cpp ****     }
 774              		.loc 1 71 24 is_stmt 0 discriminator 3
 775 0504 97000000 		call	thread_dispatch@plt
 775      E7800000 
 776              	.LVL91:
 777              	.L50:
  68:src/Tests.cpp ****     {
 778              		.loc 1 68 5 is_stmt 1
  68:src/Tests.cpp ****     {
 779              		.loc 1 68 53
  68:src/Tests.cpp ****     {
 780              		.loc 1 68 15 is_stmt 0
 781 050c 83B78400 		ld	a5,8(s1)
 782              	.LVL92:
 783              	.LBB11:
 784              	.LBB12:
 785              		.file 2 "src/../h/PCB.hpp"
   1:src/../h/PCB.hpp **** //
   2:src/../h/PCB.hpp **** // Created by os on 4/27/22.
   3:src/../h/PCB.hpp **** //
   4:src/../h/PCB.hpp **** 
   5:src/../h/PCB.hpp **** #ifndef PROJECT_BASE_V1_0_PCB_HPP
   6:src/../h/PCB.hpp **** #define PROJECT_BASE_V1_0_PCB_HPP
   7:src/../h/PCB.hpp **** 
   8:src/../h/PCB.hpp **** #include "../lib/hw.h"
   9:src/../h/PCB.hpp **** #include "Scheduler.hpp"
  10:src/../h/PCB.hpp **** #include "Riscv.hpp"
  11:src/../h/PCB.hpp **** 
  12:src/../h/PCB.hpp **** class PCB
  13:src/../h/PCB.hpp **** {
  14:src/../h/PCB.hpp **** public:
  15:src/../h/PCB.hpp ****     using Body = void (*)(void*);
  16:src/../h/PCB.hpp **** 
  17:src/../h/PCB.hpp ****     PCB(Body body,  void* args, void* stack_space, uint64 timeSlice);
  18:src/../h/PCB.hpp ****     ~PCB();
  19:src/../h/PCB.hpp **** 
  20:src/../h/PCB.hpp ****     void start();
GAS LISTING /tmp/ccO13uu5.s 			page 25


  21:src/../h/PCB.hpp ****     static void dispatch();
  22:src/../h/PCB.hpp ****     static void sleep(time_t);
  23:src/../h/PCB.hpp **** 
  24:src/../h/PCB.hpp ****     static PCB* running;
  25:src/../h/PCB.hpp ****     static PCB* exitingPCB;
  26:src/../h/PCB.hpp **** 
  27:src/../h/PCB.hpp ****     static uint64 timeSliceCounter;
  28:src/../h/PCB.hpp ****     uint64 getTimeSlice() { return timeSlice;}
  29:src/../h/PCB.hpp **** 
  30:src/../h/PCB.hpp ****     void* operator new(size_t size);
  31:src/../h/PCB.hpp ****     void operator delete(void *p);
  32:src/../h/PCB.hpp **** 
  33:src/../h/PCB.hpp ****     enum State{READY, RUNNING, SUSPENDED, FINISHED, EXITING, SLEEPING};
  34:src/../h/PCB.hpp ****     State getState() {return state;}
 786              		.loc 2 34 23 is_stmt 1
 787              		.loc 2 34 30 is_stmt 0
 788 0510 03A70703 		lw	a4,48(a5)
 789              	.LVL93:
 790              	.LBE12:
 791              	.LBE11:
  68:src/Tests.cpp ****     {
 792              		.loc 1 68 53
 793 0514 93073000 		li	a5,3
 794 0518 E31EF7FC 		bne	a4,a5,.L48
  68:src/Tests.cpp ****     {
 795              		.loc 1 68 60 discriminator 2
 796 051c 83378900 		ld	a5,8(s2)
 797              	.LVL94:
 798              	.LBB13:
 799              	.LBB14:
 800              		.loc 2 34 23 is_stmt 1 discriminator 2
 801              		.loc 2 34 30 is_stmt 0 discriminator 2
 802 0520 03A70703 		lw	a4,48(a5)
 803              	.LVL95:
 804              	.LBE14:
 805              	.LBE13:
  68:src/Tests.cpp ****     {
 806              		.loc 1 68 53 discriminator 2
 807 0524 93073000 		li	a5,3
 808 0528 E316F7FC 		bne	a4,a5,.L48
  74:src/Tests.cpp ****     Riscv::disableInterrupts();
 809              		.loc 1 74 5 is_stmt 1
  74:src/Tests.cpp ****     Riscv::disableInterrupts();
 810              		.loc 1 74 23 is_stmt 0
 811 052c 17050000 		lla	a0,.LC12
 811      13050500 
 812 0534 97000000 		call	_ZN5Riscv11printStringEPKc@plt
 812      E7800000 
 813              	.LVL96:
  75:src/Tests.cpp **** }
 814              		.loc 1 75 5 is_stmt 1
  75:src/Tests.cpp **** }
 815              		.loc 1 75 29 is_stmt 0
 816 053c 97000000 		call	_ZN5Riscv17disableInterruptsEv@plt
 816      E7800000 
 817              	.LVL97:
 818              	.LEHE4:
GAS LISTING /tmp/ccO13uu5.s 			page 26


  76:src/Tests.cpp **** 
 819              		.loc 1 76 1
 820 0544 83308101 		ld	ra,24(sp)
 821              		.cfi_remember_state
 822              		.cfi_restore 1
 823 0548 03340101 		ld	s0,16(sp)
 824              		.cfi_restore 8
 825              		.cfi_def_cfa 2, 32
 826 054c 83348100 		ld	s1,8(sp)
 827              		.cfi_restore 9
 828              	.LVL98:
 829 0550 03390100 		ld	s2,0(sp)
 830              		.cfi_restore 18
 831              	.LVL99:
 832 0554 13010102 		addi	sp,sp,32
 833              		.cfi_def_cfa_offset 0
 834 0558 67800000 		jr	ra
 835              	.L53:
 836              		.cfi_restore_state
 837 055c 13090500 		mv	s2,a0
  63:src/Tests.cpp ****     t1->start();
 838              		.loc 1 63 48
 839 0560 13850400 		mv	a0,s1
 840 0564 97000000 		call	_ZdlPv@plt
 840      E7800000 
 841              	.LVL100:
 842 056c 13050900 		mv	a0,s2
 843              	.LEHB5:
 844 0570 97000000 		call	_Unwind_Resume@plt
 844      E7800000 
 845              	.LVL101:
 846              	.LEHE5:
 847              	.L54:
 848 0578 93040500 		mv	s1,a0
 849              	.LVL102:
  65:src/Tests.cpp ****     t2->start();
 850              		.loc 1 65 48
 851 057c 13050900 		mv	a0,s2
 852 0580 97000000 		call	_ZdlPv@plt
 852      E7800000 
 853              	.LVL103:
 854 0588 13850400 		mv	a0,s1
 855              	.LEHB6:
 856 058c 97000000 		call	_Unwind_Resume@plt
 856      E7800000 
 857              	.LVL104:
 858              	.LEHE6:
 859              		.cfi_endproc
 860              	.LFE26:
 861              		.globl	__gxx_personality_v0
 862              		.section	.gcc_except_table,"a",@progbits
 863              	.LLSDA26:
 864 0000 FF       		.byte	0xff
 865 0001 FF       		.byte	0xff
 866 0002 03       		.byte	0x3
 867 0003 5B       		.byte	0x5b
 868 0004 00000000 		.4byte	.LEHB0-.LFB26
GAS LISTING /tmp/ccO13uu5.s 			page 27


 869 0008 00000000 		.4byte	.LEHE0-.LEHB0
 870 000c 00000000 		.4byte	0
 871 0010 00       		.byte	0
 872 0011 00000000 		.4byte	.LEHB1-.LFB26
 873 0015 00000000 		.4byte	.LEHE1-.LEHB1
 874 0019 00000000 		.4byte	.L53-.LFB26
 875 001d 00       		.byte	0
 876 001e 00000000 		.4byte	.LEHB2-.LFB26
 877 0022 00000000 		.4byte	.LEHE2-.LEHB2
 878 0026 00000000 		.4byte	0
 879 002a 00       		.byte	0
 880 002b 00000000 		.4byte	.LEHB3-.LFB26
 881 002f 00000000 		.4byte	.LEHE3-.LEHB3
 882 0033 00000000 		.4byte	.L54-.LFB26
 883 0037 00       		.byte	0
 884 0038 00000000 		.4byte	.LEHB4-.LFB26
 885 003c 00000000 		.4byte	.LEHE4-.LEHB4
 886 0040 00000000 		.4byte	0
 887 0044 00       		.byte	0
 888 0045 00000000 		.4byte	.LEHB5-.LFB26
 889 0049 00000000 		.4byte	.LEHE5-.LEHB5
 890 004d 00000000 		.4byte	0
 891 0051 00       		.byte	0
 892 0052 00000000 		.4byte	.LEHB6-.LFB26
 893 0056 00000000 		.4byte	.LEHE6-.LEHB6
 894 005a 00000000 		.4byte	0
 895 005e 00       		.byte	0
 896              		.text
 898              		.align	2
 899              		.globl	_Z11threadTest2v
 901              	_Z11threadTest2v:
 902              	.LFB27:
  79:src/Tests.cpp ****     Thread* idleThread = new Thread(&idle, 0);
 903              		.loc 1 79 1 is_stmt 1
 904              		.cfi_startproc
 905              		.cfi_personality 0x9b,DW.ref.__gxx_personality_v0
 906              		.cfi_lsda 0x1b,.LLSDA27
 907 0594 130101FE 		addi	sp,sp,-32
 908              		.cfi_def_cfa_offset 32
 909 0598 233C1100 		sd	ra,24(sp)
 910 059c 23388100 		sd	s0,16(sp)
 911 05a0 23349100 		sd	s1,8(sp)
 912 05a4 23302101 		sd	s2,0(sp)
 913              		.cfi_offset 1, -8
 914              		.cfi_offset 8, -16
 915              		.cfi_offset 9, -24
 916              		.cfi_offset 18, -32
 917 05a8 13040102 		addi	s0,sp,32
 918              		.cfi_def_cfa 8, 0
  80:src/Tests.cpp ****     idleThread->start();
 919              		.loc 1 80 5
  80:src/Tests.cpp ****     idleThread->start();
 920              		.loc 1 80 45 is_stmt 0
 921 05ac 13050002 		li	a0,32
 922              	.LEHB7:
 923 05b0 97000000 		call	_Znwm@plt
 923      E7800000 
GAS LISTING /tmp/ccO13uu5.s 			page 28


 924              	.LVL105:
 925              	.LEHE7:
 926 05b8 93040500 		mv	s1,a0
 927 05bc 13060000 		li	a2,0
 928 05c0 97050000 		lla	a1,_Z4idlePv
 928      93850500 
 929              	.LEHB8:
 930 05c8 97000000 		call	_ZN6ThreadC1EPFvPvES0_@plt
 930      E7800000 
 931              	.LVL106:
 932              	.LEHE8:
  81:src/Tests.cpp ****     Thread* t1 = new Thread(&thread1Function, 0);
 933              		.loc 1 81 5 is_stmt 1 discriminator 2
  81:src/Tests.cpp ****     Thread* t1 = new Thread(&thread1Function, 0);
 934              		.loc 1 81 22 is_stmt 0 discriminator 2
 935 05d0 13850400 		mv	a0,s1
 936              	.LEHB9:
 937 05d4 97000000 		call	_ZN6Thread5startEv@plt
 937      E7800000 
 938              	.LVL107:
  82:src/Tests.cpp ****     t1->start();
 939              		.loc 1 82 5 is_stmt 1 discriminator 2
  82:src/Tests.cpp ****     t1->start();
 940              		.loc 1 82 48 is_stmt 0 discriminator 2
 941 05dc 13050002 		li	a0,32
 942 05e0 97000000 		call	_Znwm@plt
 942      E7800000 
 943              	.LVL108:
 944              	.LEHE9:
 945 05e8 13090500 		mv	s2,a0
 946 05ec 13060000 		li	a2,0
 947 05f0 97050000 		lla	a1,_Z15thread1FunctionPv
 947      93850500 
 948              	.LEHB10:
 949 05f8 97000000 		call	_ZN6ThreadC1EPFvPvES0_@plt
 949      E7800000 
 950              	.LVL109:
 951              	.LEHE10:
  83:src/Tests.cpp ****     Thread* t2  = new Thread(&thread2FunctionTest2, 0);
 952              		.loc 1 83 5 is_stmt 1 discriminator 2
  83:src/Tests.cpp ****     Thread* t2  = new Thread(&thread2FunctionTest2, 0);
 953              		.loc 1 83 14 is_stmt 0 discriminator 2
 954 0600 13050900 		mv	a0,s2
 955              	.LEHB11:
 956 0604 97000000 		call	_ZN6Thread5startEv@plt
 956      E7800000 
 957              	.LVL110:
  84:src/Tests.cpp ****     t2->start();
 958              		.loc 1 84 5 is_stmt 1 discriminator 2
  84:src/Tests.cpp ****     t2->start();
 959              		.loc 1 84 54 is_stmt 0 discriminator 2
 960 060c 13050002 		li	a0,32
 961 0610 97000000 		call	_Znwm@plt
 961      E7800000 
 962              	.LVL111:
 963              	.LEHE11:
 964 0618 13090500 		mv	s2,a0
GAS LISTING /tmp/ccO13uu5.s 			page 29


 965              	.LVL112:
 966 061c 13060000 		li	a2,0
 967 0620 97050000 		lla	a1,_Z20thread2FunctionTest2Pv
 967      93850500 
 968              	.LEHB12:
 969 0628 97000000 		call	_ZN6ThreadC1EPFvPvES0_@plt
 969      E7800000 
 970              	.LVL113:
 971              	.LEHE12:
  85:src/Tests.cpp **** 
 972              		.loc 1 85 5 is_stmt 1 discriminator 2
  85:src/Tests.cpp **** 
 973              		.loc 1 85 14 is_stmt 0 discriminator 2
 974 0630 13050900 		mv	a0,s2
 975              	.LEHB13:
 976 0634 97000000 		call	_ZN6Thread5startEv@plt
 976      E7800000 
 977              	.LVL114:
  87:src/Tests.cpp **** 
 978              		.loc 1 87 5 is_stmt 1 discriminator 2
  87:src/Tests.cpp **** 
 979              		.loc 1 87 28 is_stmt 0 discriminator 2
 980 063c 97000000 		call	_ZN5Riscv16enableInterruptsEv@plt
 980      E7800000 
 981              	.LVL115:
 982              	.L58:
  89:src/Tests.cpp **** 
 983              		.loc 1 89 5 is_stmt 1
  89:src/Tests.cpp **** 
 984              		.loc 1 89 44
  89:src/Tests.cpp **** 
 985              		.loc 1 89 23 is_stmt 0
 986 0644 83B78400 		ld	a5,8(s1)
 987              	.LVL116:
 988              	.LBB15:
 989              	.LBB16:
 990              		.loc 2 34 23 is_stmt 1
 991              		.loc 2 34 30 is_stmt 0
 992 0648 03A70703 		lw	a4,48(a5)
 993              	.LVL117:
 994              	.LBE16:
 995              	.LBE15:
  89:src/Tests.cpp **** 
 996              		.loc 1 89 44
 997 064c 93073000 		li	a5,3
 998 0650 E31AF7FE 		bne	a4,a5,.L58
  91:src/Tests.cpp **** 
 999              		.loc 1 91 5 is_stmt 1
  91:src/Tests.cpp **** 
 1000              		.loc 1 91 23 is_stmt 0
 1001 0654 17050000 		lla	a0,.LC12
 1001      13050500 
 1002 065c 97000000 		call	_ZN5Riscv11printStringEPKc@plt
 1002      E7800000 
 1003              	.LVL118:
  93:src/Tests.cpp **** }
 1004              		.loc 1 93 5 is_stmt 1
GAS LISTING /tmp/ccO13uu5.s 			page 30


  93:src/Tests.cpp **** }
 1005              		.loc 1 93 29 is_stmt 0
 1006 0664 97000000 		call	_ZN5Riscv17disableInterruptsEv@plt
 1006      E7800000 
 1007              	.LVL119:
 1008              	.LEHE13:
  94:src/Tests.cpp **** 
 1009              		.loc 1 94 1
 1010 066c 83308101 		ld	ra,24(sp)
 1011              		.cfi_remember_state
 1012              		.cfi_restore 1
 1013 0670 03340101 		ld	s0,16(sp)
 1014              		.cfi_restore 8
 1015              		.cfi_def_cfa 2, 32
 1016 0674 83348100 		ld	s1,8(sp)
 1017              		.cfi_restore 9
 1018              	.LVL120:
 1019 0678 03390100 		ld	s2,0(sp)
 1020              		.cfi_restore 18
 1021              	.LVL121:
 1022 067c 13010102 		addi	sp,sp,32
 1023              		.cfi_def_cfa_offset 0
 1024 0680 67800000 		jr	ra
 1025              	.L62:
 1026              		.cfi_restore_state
 1027 0684 13090500 		mv	s2,a0
  80:src/Tests.cpp ****     idleThread->start();
 1028              		.loc 1 80 45
 1029 0688 13850400 		mv	a0,s1
 1030 068c 97000000 		call	_ZdlPv@plt
 1030      E7800000 
 1031              	.LVL122:
 1032 0694 13050900 		mv	a0,s2
 1033              	.LEHB14:
 1034 0698 97000000 		call	_Unwind_Resume@plt
 1034      E7800000 
 1035              	.LVL123:
 1036              	.LEHE14:
 1037              	.L63:
 1038 06a0 93040500 		mv	s1,a0
 1039              	.LVL124:
  82:src/Tests.cpp ****     t1->start();
 1040              		.loc 1 82 48
 1041 06a4 13050900 		mv	a0,s2
 1042 06a8 97000000 		call	_ZdlPv@plt
 1042      E7800000 
 1043              	.LVL125:
 1044 06b0 13850400 		mv	a0,s1
 1045              	.LEHB15:
 1046 06b4 97000000 		call	_Unwind_Resume@plt
 1046      E7800000 
 1047              	.LVL126:
 1048              	.LEHE15:
 1049              	.L64:
 1050 06bc 93040500 		mv	s1,a0
 1051              	.LVL127:
  84:src/Tests.cpp ****     t2->start();
GAS LISTING /tmp/ccO13uu5.s 			page 31


 1052              		.loc 1 84 54
 1053 06c0 13050900 		mv	a0,s2
 1054 06c4 97000000 		call	_ZdlPv@plt
 1054      E7800000 
 1055              	.LVL128:
 1056 06cc 13850400 		mv	a0,s1
 1057              	.LEHB16:
 1058 06d0 97000000 		call	_Unwind_Resume@plt
 1058      E7800000 
 1059              	.LVL129:
 1060              	.LEHE16:
 1061              		.cfi_endproc
 1062              	.LFE27:
 1063              		.section	.gcc_except_table
 1064              	.LLSDA27:
 1065 005f FF       		.byte	0xff
 1066 0060 FF       		.byte	0xff
 1067 0061 03       		.byte	0x3
 1068 0062 8201     		.byte	0x82,0x1
 1069 0064 00000000 		.4byte	.LEHB7-.LFB27
 1070 0068 00000000 		.4byte	.LEHE7-.LEHB7
 1071 006c 00000000 		.4byte	0
 1072 0070 00       		.byte	0
 1073 0071 00000000 		.4byte	.LEHB8-.LFB27
 1074 0075 00000000 		.4byte	.LEHE8-.LEHB8
 1075 0079 00000000 		.4byte	.L62-.LFB27
 1076 007d 00       		.byte	0
 1077 007e 00000000 		.4byte	.LEHB9-.LFB27
 1078 0082 00000000 		.4byte	.LEHE9-.LEHB9
 1079 0086 00000000 		.4byte	0
 1080 008a 00       		.byte	0
 1081 008b 00000000 		.4byte	.LEHB10-.LFB27
 1082 008f 00000000 		.4byte	.LEHE10-.LEHB10
 1083 0093 00000000 		.4byte	.L63-.LFB27
 1084 0097 00       		.byte	0
 1085 0098 00000000 		.4byte	.LEHB11-.LFB27
 1086 009c 00000000 		.4byte	.LEHE11-.LEHB11
 1087 00a0 00000000 		.4byte	0
 1088 00a4 00       		.byte	0
 1089 00a5 00000000 		.4byte	.LEHB12-.LFB27
 1090 00a9 00000000 		.4byte	.LEHE12-.LEHB12
 1091 00ad 00000000 		.4byte	.L64-.LFB27
 1092 00b1 00       		.byte	0
 1093 00b2 00000000 		.4byte	.LEHB13-.LFB27
 1094 00b6 00000000 		.4byte	.LEHE13-.LEHB13
 1095 00ba 00000000 		.4byte	0
 1096 00be 00       		.byte	0
 1097 00bf 00000000 		.4byte	.LEHB14-.LFB27
 1098 00c3 00000000 		.4byte	.LEHE14-.LEHB14
 1099 00c7 00000000 		.4byte	0
 1100 00cb 00       		.byte	0
 1101 00cc 00000000 		.4byte	.LEHB15-.LFB27
 1102 00d0 00000000 		.4byte	.LEHE15-.LEHB15
 1103 00d4 00000000 		.4byte	0
 1104 00d8 00       		.byte	0
 1105 00d9 00000000 		.4byte	.LEHB16-.LFB27
 1106 00dd 00000000 		.4byte	.LEHE16-.LEHB16
GAS LISTING /tmp/ccO13uu5.s 			page 32


 1107 00e1 00000000 		.4byte	0
 1108 00e5 00       		.byte	0
 1109              		.text
 1111              		.align	2
 1112              		.globl	_Z11threadTestsv
 1114              	_Z11threadTestsv:
 1115              	.LFB28:
  97:src/Tests.cpp ****     //threadTest1();
 1116              		.loc 1 97 1 is_stmt 1
 1117              		.cfi_startproc
 1118 06d8 130101FF 		addi	sp,sp,-16
 1119              		.cfi_def_cfa_offset 16
 1120 06dc 23341100 		sd	ra,8(sp)
 1121 06e0 23308100 		sd	s0,0(sp)
 1122              		.cfi_offset 1, -8
 1123              		.cfi_offset 8, -16
 1124 06e4 13040101 		addi	s0,sp,16
 1125              		.cfi_def_cfa 8, 0
  99:src/Tests.cpp **** }
 1126              		.loc 1 99 5
  99:src/Tests.cpp **** }
 1127              		.loc 1 99 16 is_stmt 0
 1128 06e8 97000000 		call	_Z11threadTest2v
 1128      E7800000 
 1129              	.LVL130:
 100:src/Tests.cpp **** 
 1130              		.loc 1 100 1
 1131 06f0 83308100 		ld	ra,8(sp)
 1132              		.cfi_restore 1
 1133 06f4 03340100 		ld	s0,0(sp)
 1134              		.cfi_restore 8
 1135              		.cfi_def_cfa 2, 16
 1136 06f8 13010101 		addi	sp,sp,16
 1137              		.cfi_def_cfa_offset 0
 1138 06fc 67800000 		jr	ra
 1139              		.cfi_endproc
 1140              	.LFE28:
 1142              		.section	.rodata.str1.8
 1143              		.align	3
 1144              	.LC13:
 1145 00b8 6D616C6C 		.string	"mallocFree\n"
 1145      6F634672 
 1145      65650A00 
 1146 00c4 00000000 		.align	3
 1147              	.LC14:
 1148 00c8 6E6F7420 		.string	"not OK\n"
 1148      4F4B0A00 
 1149              		.align	3
 1150              	.LC15:
 1151 00d0 4F4B0A00 		.string	"OK\n"
 1152              		.text
 1153              		.align	2
 1154              		.globl	_Z10mallocFreev
 1156              	_Z10mallocFreev:
 1157              	.LFB29:
 105:src/Tests.cpp ****     Riscv::printString("mallocFree\n");
 1158              		.loc 1 105 1 is_stmt 1
GAS LISTING /tmp/ccO13uu5.s 			page 33


 1159              		.cfi_startproc
 1160 0700 130101CC 		addi	sp,sp,-832
 1161              		.cfi_def_cfa_offset 832
 1162 0704 233C1132 		sd	ra,824(sp)
 1163 0708 23388132 		sd	s0,816(sp)
 1164 070c 23349132 		sd	s1,808(sp)
 1165              		.cfi_offset 1, -8
 1166              		.cfi_offset 8, -16
 1167              		.cfi_offset 9, -24
 1168 0710 13040134 		addi	s0,sp,832
 1169              		.cfi_def_cfa 8, 0
 106:src/Tests.cpp ****     constexpr int num = 100;
 1170              		.loc 1 106 5
 106:src/Tests.cpp ****     constexpr int num = 100;
 1171              		.loc 1 106 23 is_stmt 0
 1172 0714 17050000 		lla	a0,.LC13
 1172      13050500 
 1173 071c 97000000 		call	_ZN5Riscv11printStringEPKc@plt
 1173      E7800000 
 1174              	.LVL131:
 1175              	.LBB17:
 109:src/Tests.cpp ****     {
 1176              		.loc 1 109 13
 1177 0724 93040000 		li	s1,0
 1178 0728 6F008000 		j	.L73
 1179              	.LVL132:
 1180              	.L71:
 109:src/Tests.cpp ****     {
 1181              		.loc 1 109 5 is_stmt 1 discriminator 2
 1182 072c 9B841400 		addiw	s1,s1,1
 1183              	.LVL133:
 1184              	.L73:
 109:src/Tests.cpp ****     {
 1185              		.loc 1 109 22 discriminator 1
 1186 0730 93073006 		li	a5,99
 1187 0734 63C49704 		bgt	s1,a5,.L81
 111:src/Tests.cpp ****         if(addrs[i] == 0)
 1188              		.loc 1 111 9
 111:src/Tests.cpp ****         if(addrs[i] == 0)
 1189              		.loc 1 111 29 is_stmt 0
 1190 0738 13054006 		li	a0,100
 1191 073c 97000000 		call	mem_alloc@plt
 1191      E7800000 
 1192              	.LVL134:
 111:src/Tests.cpp ****         if(addrs[i] == 0)
 1193              		.loc 1 111 18
 1194 0744 93973400 		slli	a5,s1,3
 1195 0748 130704FE 		addi	a4,s0,-32
 1196 074c B307F700 		add	a5,a4,a5
 1197 0750 23B0A7CE 		sd	a0,-800(a5)
 112:src/Tests.cpp ****         {
 1198              		.loc 1 112 9 is_stmt 1
 1199 0754 E31C05FC 		bnez	a0,.L71
 114:src/Tests.cpp ****             return;
 1200              		.loc 1 114 13
 114:src/Tests.cpp ****             return;
 1201              		.loc 1 114 31 is_stmt 0
GAS LISTING /tmp/ccO13uu5.s 			page 34


 1202 0758 17050000 		lla	a0,.LC14
 1202      13050500 
 1203 0760 97000000 		call	_ZN5Riscv11printStringEPKc@plt
 1203      E7800000 
 1204              	.LVL135:
 115:src/Tests.cpp ****         }
 1205              		.loc 1 115 13 is_stmt 1
 1206              	.L69:
 1207              	.LBE17:
 151:src/Tests.cpp **** void bigMalloc()
 1208              		.loc 1 151 1 is_stmt 0
 1209 0768 83308133 		ld	ra,824(sp)
 1210              		.cfi_remember_state
 1211              		.cfi_restore 1
 1212 076c 03340133 		ld	s0,816(sp)
 1213              		.cfi_restore 8
 1214              		.cfi_def_cfa 2, 832
 1215 0770 83348132 		ld	s1,808(sp)
 1216              		.cfi_restore 9
 1217 0774 13010134 		addi	sp,sp,832
 1218              		.cfi_def_cfa_offset 0
 1219 0778 67800000 		jr	ra
 1220              	.LVL136:
 1221              	.L81:
 1222              		.cfi_restore_state
 1223              	.LBB18:
 120:src/Tests.cpp ****     {
 1224              		.loc 1 120 13
 1225 077c 93040000 		li	s1,0
 1226              	.LVL137:
 1227              	.L70:
 120:src/Tests.cpp ****     {
 1228              		.loc 1 120 23 is_stmt 1 discriminator 1
 1229 0780 93073006 		li	a5,99
 1230 0784 63CE9702 		bgt	s1,a5,.L82
 1231              	.LBB19:
 122:src/Tests.cpp ****         if(retval != 0)
 1232              		.loc 1 122 9
 122:src/Tests.cpp ****         if(retval != 0)
 1233              		.loc 1 122 30 is_stmt 0
 1234 0788 93973400 		slli	a5,s1,3
 1235 078c 130704FE 		addi	a4,s0,-32
 1236 0790 B307F700 		add	a5,a4,a5
 1237 0794 03B507CE 		ld	a0,-800(a5)
 1238 0798 97000000 		call	mem_free@plt
 1238      E7800000 
 1239              	.LVL138:
 123:src/Tests.cpp ****         {
 1240              		.loc 1 123 9 is_stmt 1
 1241 07a0 63160500 		bnez	a0,.L85
 1242              	.LBE19:
 120:src/Tests.cpp ****     {
 1243              		.loc 1 120 5 discriminator 2
 120:src/Tests.cpp ****     {
 1244              		.loc 1 120 30 is_stmt 0 discriminator 2
 1245 07a4 9B842400 		addiw	s1,s1,2
 1246              	.LVL139:
GAS LISTING /tmp/ccO13uu5.s 			page 35


 120:src/Tests.cpp ****     {
 1247              		.loc 1 120 5 discriminator 2
 1248 07a8 6FF09FFD 		j	.L70
 1249              	.LVL140:
 1250              	.L85:
 1251              	.LBB20:
 125:src/Tests.cpp ****             return;
 1252              		.loc 1 125 13 is_stmt 1
 125:src/Tests.cpp ****             return;
 1253              		.loc 1 125 31 is_stmt 0
 1254 07ac 17050000 		lla	a0,.LC14
 1254      13050500 
 1255              	.LVL141:
 1256 07b4 97000000 		call	_ZN5Riscv11printStringEPKc@plt
 1256      E7800000 
 1257              	.LVL142:
 126:src/Tests.cpp ****         }
 1258              		.loc 1 126 13 is_stmt 1
 1259 07bc 6FF0DFFA 		j	.L69
 1260              	.L82:
 1261              	.LBE20:
 1262              	.LBE18:
 1263              	.LBB21:
 130:src/Tests.cpp ****     {
 1264              		.loc 1 130 13 is_stmt 0
 1265 07c0 93040000 		li	s1,0
 1266              	.LVL143:
 1267 07c4 6F008000 		j	.L74
 1268              	.LVL144:
 1269              	.L77:
 130:src/Tests.cpp ****     {
 1270              		.loc 1 130 5 is_stmt 1 discriminator 2
 130:src/Tests.cpp ****     {
 1271              		.loc 1 130 30 is_stmt 0 discriminator 2
 1272 07c8 9B842400 		addiw	s1,s1,2
 1273              	.LVL145:
 1274              	.L74:
 130:src/Tests.cpp ****     {
 1275              		.loc 1 130 23 is_stmt 1 discriminator 1
 1276 07cc 93073006 		li	a5,99
 1277 07d0 63CC9702 		bgt	s1,a5,.L83
 132:src/Tests.cpp ****         if(addrs[i] == 0)
 1278              		.loc 1 132 9
 132:src/Tests.cpp ****         if(addrs[i] == 0)
 1279              		.loc 1 132 29 is_stmt 0
 1280 07d4 13054001 		li	a0,20
 1281 07d8 97000000 		call	mem_alloc@plt
 1281      E7800000 
 1282              	.LVL146:
 132:src/Tests.cpp ****         if(addrs[i] == 0)
 1283              		.loc 1 132 18
 1284 07e0 93973400 		slli	a5,s1,3
 1285 07e4 130704FE 		addi	a4,s0,-32
 1286 07e8 B307F700 		add	a5,a4,a5
 1287 07ec 23B0A7CE 		sd	a0,-800(a5)
 133:src/Tests.cpp ****         {
 1288              		.loc 1 133 9 is_stmt 1
GAS LISTING /tmp/ccO13uu5.s 			page 36


 1289 07f0 E31C05FC 		bnez	a0,.L77
 135:src/Tests.cpp ****             return;
 1290              		.loc 1 135 13
 135:src/Tests.cpp ****             return;
 1291              		.loc 1 135 31 is_stmt 0
 1292 07f4 17050000 		lla	a0,.LC14
 1292      13050500 
 1293 07fc 97000000 		call	_ZN5Riscv11printStringEPKc@plt
 1293      E7800000 
 1294              	.LVL147:
 136:src/Tests.cpp ****         }
 1295              		.loc 1 136 13 is_stmt 1
 1296 0804 6FF05FF6 		j	.L69
 1297              	.L83:
 1298              	.LBE21:
 1299              	.LBB22:
 140:src/Tests.cpp ****     {
 1300              		.loc 1 140 13 is_stmt 0
 1301 0808 93040000 		li	s1,0
 1302              	.LVL148:
 1303              	.L76:
 140:src/Tests.cpp ****     {
 1304              		.loc 1 140 22 is_stmt 1 discriminator 1
 1305 080c 93073006 		li	a5,99
 1306 0810 63CE9702 		bgt	s1,a5,.L78
 1307              	.LBB23:
 142:src/Tests.cpp ****         if(retval != 0)
 1308              		.loc 1 142 9
 142:src/Tests.cpp ****         if(retval != 0)
 1309              		.loc 1 142 30 is_stmt 0
 1310 0814 93973400 		slli	a5,s1,3
 1311 0818 130704FE 		addi	a4,s0,-32
 1312 081c B307F700 		add	a5,a4,a5
 1313 0820 03B507CE 		ld	a0,-800(a5)
 1314 0824 97000000 		call	mem_free@plt
 1314      E7800000 
 1315              	.LVL149:
 143:src/Tests.cpp ****         {
 1316              		.loc 1 143 9 is_stmt 1
 1317 082c 63160500 		bnez	a0,.L86
 1318              	.LBE23:
 140:src/Tests.cpp ****     {
 1319              		.loc 1 140 5 discriminator 2
 1320 0830 9B841400 		addiw	s1,s1,1
 1321              	.LVL150:
 1322 0834 6FF09FFD 		j	.L76
 1323              	.LVL151:
 1324              	.L86:
 1325              	.LBB24:
 145:src/Tests.cpp ****             return;
 1326              		.loc 1 145 13
 145:src/Tests.cpp ****             return;
 1327              		.loc 1 145 31 is_stmt 0
 1328 0838 17050000 		lla	a0,.LC14
 1328      13050500 
 1329              	.LVL152:
 1330 0840 97000000 		call	_ZN5Riscv11printStringEPKc@plt
GAS LISTING /tmp/ccO13uu5.s 			page 37


 1330      E7800000 
 1331              	.LVL153:
 146:src/Tests.cpp ****         }
 1332              		.loc 1 146 13 is_stmt 1
 1333 0848 6FF01FF2 		j	.L69
 1334              	.L78:
 1335              	.LBE24:
 1336              	.LBE22:
 150:src/Tests.cpp **** }
 1337              		.loc 1 150 5
 150:src/Tests.cpp **** }
 1338              		.loc 1 150 23 is_stmt 0
 1339 084c 17050000 		lla	a0,.LC15
 1339      13050500 
 1340 0854 97000000 		call	_ZN5Riscv11printStringEPKc@plt
 1340      E7800000 
 1341              	.LVL154:
 1342 085c 6FF0DFF0 		j	.L69
 1343              		.cfi_endproc
 1344              	.LFE29:
 1346              		.section	.rodata.str1.8
 1347 00d4 00000000 		.align	3
 1348              	.LC16:
 1349 00d8 6269674D 		.string	"bigMalloc\n"
 1349      616C6C6F 
 1349      630A00
 1350              		.text
 1351              		.align	2
 1352              		.globl	_Z9bigMallocv
 1354              	_Z9bigMallocv:
 1355              	.LFB30:
 153:src/Tests.cpp ****     Riscv::printString("bigMalloc\n");
 1356              		.loc 1 153 1 is_stmt 1
 1357              		.cfi_startproc
 1358 0860 130101FF 		addi	sp,sp,-16
 1359              		.cfi_def_cfa_offset 16
 1360 0864 23341100 		sd	ra,8(sp)
 1361 0868 23308100 		sd	s0,0(sp)
 1362              		.cfi_offset 1, -8
 1363              		.cfi_offset 8, -16
 1364 086c 13040101 		addi	s0,sp,16
 1365              		.cfi_def_cfa 8, 0
 154:src/Tests.cpp ****     uint64 x = (uint64)HEAP_END_ADDR - (uint64)HEAP_START_ADDR + 100UL;
 1366              		.loc 1 154 5
 154:src/Tests.cpp ****     uint64 x = (uint64)HEAP_END_ADDR - (uint64)HEAP_START_ADDR + 100UL;
 1367              		.loc 1 154 23 is_stmt 0
 1368 0870 17050000 		lla	a0,.LC16
 1368      13050500 
 1369 0878 97000000 		call	_ZN5Riscv11printStringEPKc@plt
 1369      E7800000 
 1370              	.LVL155:
 155:src/Tests.cpp ****     void* p = mem_alloc(x);
 1371              		.loc 1 155 5 is_stmt 1
 155:src/Tests.cpp ****     void* p = mem_alloc(x);
 1372              		.loc 1 155 38 is_stmt 0
 1373 0880 97070000 		la	a5,HEAP_END_ADDR
 1373      83B70700 
GAS LISTING /tmp/ccO13uu5.s 			page 38


 1374 0888 03B50700 		ld	a0,0(a5)
 1375 088c 97070000 		la	a5,HEAP_START_ADDR
 1375      83B70700 
 1376 0894 83B70700 		ld	a5,0(a5)
 1377 0898 3305F540 		sub	a0,a0,a5
 1378              	.LVL156:
 156:src/Tests.cpp ****     if(p == 0)
 1379              		.loc 1 156 5 is_stmt 1
 156:src/Tests.cpp ****     if(p == 0)
 1380              		.loc 1 156 24 is_stmt 0
 1381 089c 13054506 		addi	a0,a0,100
 1382              	.LVL157:
 1383 08a0 97000000 		call	mem_alloc@plt
 1383      E7800000 
 1384              	.LVL158:
 157:src/Tests.cpp ****         Riscv::printString("OK\n");
 1385              		.loc 1 157 5 is_stmt 1
 1386 08a8 63020502 		beqz	a0,.L91
 160:src/Tests.cpp **** }
 1387              		.loc 1 160 9
 160:src/Tests.cpp **** }
 1388              		.loc 1 160 27 is_stmt 0
 1389 08ac 17050000 		lla	a0,.LC14
 1389      13050500 
 1390              	.LVL159:
 1391 08b4 97000000 		call	_ZN5Riscv11printStringEPKc@plt
 1391      E7800000 
 1392              	.LVL160:
 1393              	.L87:
 161:src/Tests.cpp **** 
 1394              		.loc 1 161 1
 1395 08bc 83308100 		ld	ra,8(sp)
 1396              		.cfi_remember_state
 1397              		.cfi_restore 1
 1398 08c0 03340100 		ld	s0,0(sp)
 1399              		.cfi_restore 8
 1400              		.cfi_def_cfa 2, 16
 1401 08c4 13010101 		addi	sp,sp,16
 1402              		.cfi_def_cfa_offset 0
 1403 08c8 67800000 		jr	ra
 1404              	.LVL161:
 1405              	.L91:
 1406              		.cfi_restore_state
 158:src/Tests.cpp ****     else
 1407              		.loc 1 158 9 is_stmt 1
 158:src/Tests.cpp ****     else
 1408              		.loc 1 158 27 is_stmt 0
 1409 08cc 17050000 		lla	a0,.LC15
 1409      13050500 
 1410              	.LVL162:
 1411 08d4 97000000 		call	_ZN5Riscv11printStringEPKc@plt
 1411      E7800000 
 1412              	.LVL163:
 1413 08dc 6FF01FFE 		j	.L87
 1414              		.cfi_endproc
 1415              	.LFE30:
 1417              		.section	.rodata.str1.8
GAS LISTING /tmp/ccO13uu5.s 			page 39


 1418 00e3 00000000 		.align	3
 1418      00
 1419              	.LC17:
 1420 00e8 6C6F744F 		.string	"lotOfSmallMallocs\n"
 1420      66536D61 
 1420      6C6C4D61 
 1420      6C6C6F63 
 1420      730A00
 1421              		.text
 1422              		.align	2
 1423              		.globl	_Z17lotOfSmallMallocsv
 1425              	_Z17lotOfSmallMallocsv:
 1426              	.LFB31:
 164:src/Tests.cpp ****     Riscv::printString("lotOfSmallMallocs\n");
 1427              		.loc 1 164 1 is_stmt 1
 1428              		.cfi_startproc
 1429 08e0 130101FD 		addi	sp,sp,-48
 1430              		.cfi_def_cfa_offset 48
 1431 08e4 23341102 		sd	ra,40(sp)
 1432 08e8 23308102 		sd	s0,32(sp)
 1433 08ec 233C9100 		sd	s1,24(sp)
 1434 08f0 23382101 		sd	s2,16(sp)
 1435 08f4 23343101 		sd	s3,8(sp)
 1436              		.cfi_offset 1, -8
 1437              		.cfi_offset 8, -16
 1438              		.cfi_offset 9, -24
 1439              		.cfi_offset 18, -32
 1440              		.cfi_offset 19, -40
 1441 08f8 13040103 		addi	s0,sp,48
 1442              		.cfi_def_cfa 8, 0
 165:src/Tests.cpp ****     uint64 cnt = 0;
 1443              		.loc 1 165 5
 165:src/Tests.cpp ****     uint64 cnt = 0;
 1444              		.loc 1 165 23 is_stmt 0
 1445 08fc 17050000 		lla	a0,.LC17
 1445      13050500 
 1446 0904 97000000 		call	_ZN5Riscv11printStringEPKc@plt
 1446      E7800000 
 1447              	.LVL164:
 166:src/Tests.cpp ****     uint64 sum = 0;
 1448              		.loc 1 166 5 is_stmt 1
 167:src/Tests.cpp ****     uint64 N = 10000UL;
 1449              		.loc 1 167 5
 168:src/Tests.cpp ****     uint64 X = 10UL;
 1450              		.loc 1 168 5
 169:src/Tests.cpp ****     for(uint64 i = 0; i < N;i++)
 1451              		.loc 1 169 5
 170:src/Tests.cpp ****     {
 1452              		.loc 1 170 5
 1453              	.LBB25:
 170:src/Tests.cpp ****     {
 1454              		.loc 1 170 16 is_stmt 0
 1455 090c 93040000 		li	s1,0
 1456              	.LBE25:
 167:src/Tests.cpp ****     uint64 N = 10000UL;
 1457              		.loc 1 167 12
 1458 0910 93090000 		li	s3,0
GAS LISTING /tmp/ccO13uu5.s 			page 40


 166:src/Tests.cpp ****     uint64 sum = 0;
 1459              		.loc 1 166 12
 1460 0914 13090000 		li	s2,0
 1461 0918 6F008001 		j	.L94
 1462              	.LVL165:
 1463              	.L98:
 1464              	.LBB28:
 1465              	.LBB26:
 175:src/Tests.cpp ****         sum+=t->a;
 1466              		.loc 1 175 9 is_stmt 1 discriminator 2
 175:src/Tests.cpp ****         sum+=t->a;
 1467              		.loc 1 175 14 is_stmt 0 discriminator 2
 1468 091c 9307A000 		li	a5,10
 1469 0920 2330F500 		sd	a5,0(a0)
 176:src/Tests.cpp ****         cnt++;
 1470              		.loc 1 176 9 is_stmt 1 discriminator 2
 176:src/Tests.cpp ****         cnt++;
 1471              		.loc 1 176 12 is_stmt 0 discriminator 2
 1472 0924 9389A900 		addi	s3,s3,10
 1473              	.LVL166:
 177:src/Tests.cpp ****     }
 1474              		.loc 1 177 9 is_stmt 1 discriminator 2
 177:src/Tests.cpp ****     }
 1475              		.loc 1 177 12 is_stmt 0 discriminator 2
 1476 0928 13091900 		addi	s2,s2,1
 1477              	.LVL167:
 1478              	.LBE26:
 170:src/Tests.cpp ****     {
 1479              		.loc 1 170 5 is_stmt 1 discriminator 2
 1480 092c 93841400 		addi	s1,s1,1
 1481              	.LVL168:
 1482              	.L94:
 170:src/Tests.cpp ****     {
 1483              		.loc 1 170 25 discriminator 1
 1484 0930 B7270000 		li	a5,8192
 1485 0934 9387F770 		addi	a5,a5,1807
 1486 0938 63EA9700 		bgtu	s1,a5,.L93
 1487              	.LBB27:
 172:src/Tests.cpp ****         if(t == 0)
 1488              		.loc 1 172 9
 172:src/Tests.cpp ****         if(t == 0)
 1489              		.loc 1 172 35 is_stmt 0
 1490 093c 13058000 		li	a0,8
 1491 0940 97000000 		call	mem_alloc@plt
 1491      E7800000 
 1492              	.LVL169:
 173:src/Tests.cpp ****             break;
 1493              		.loc 1 173 9 is_stmt 1
 1494 0948 E31A05FC 		bnez	a0,.L98
 1495              	.LVL170:
 1496              	.L93:
 1497              	.LBE27:
 1498              	.LBE28:
 179:src/Tests.cpp ****     Riscv::printString("\n");
 1499              		.loc 1 179 5
 179:src/Tests.cpp ****     Riscv::printString("\n");
 1500              		.loc 1 179 24 is_stmt 0
GAS LISTING /tmp/ccO13uu5.s 			page 41


 1501 094c 13050900 		mv	a0,s2
 1502 0950 97000000 		call	_ZN5Riscv12printIntegerEm@plt
 1502      E7800000 
 1503              	.LVL171:
 180:src/Tests.cpp ****     if(sum == X*cnt)
 1504              		.loc 1 180 5 is_stmt 1
 180:src/Tests.cpp ****     if(sum == X*cnt)
 1505              		.loc 1 180 23 is_stmt 0
 1506 0958 17050000 		lla	a0,.LC3
 1506      13050500 
 1507 0960 97000000 		call	_ZN5Riscv11printStringEPKc@plt
 1507      E7800000 
 1508              	.LVL172:
 181:src/Tests.cpp ****         Riscv::printString("OK\n");
 1509              		.loc 1 181 5 is_stmt 1
 181:src/Tests.cpp ****         Riscv::printString("OK\n");
 1510              		.loc 1 181 16 is_stmt 0
 1511 0968 93172900 		slli	a5,s2,2
 1512 096c 33892701 		add	s2,a5,s2
 1513              	.LVL173:
 1514 0970 13191900 		slli	s2,s2,1
 181:src/Tests.cpp ****         Riscv::printString("OK\n");
 1515              		.loc 1 181 5
 1516 0974 63083903 		beq	s2,s3,.L99
 184:src/Tests.cpp **** }
 1517              		.loc 1 184 9 is_stmt 1
 184:src/Tests.cpp **** }
 1518              		.loc 1 184 27 is_stmt 0
 1519 0978 17050000 		lla	a0,.LC14
 1519      13050500 
 1520 0980 97000000 		call	_ZN5Riscv11printStringEPKc@plt
 1520      E7800000 
 1521              	.LVL174:
 1522              	.L92:
 185:src/Tests.cpp **** void badFree()
 1523              		.loc 1 185 1
 1524 0988 83308102 		ld	ra,40(sp)
 1525              		.cfi_remember_state
 1526              		.cfi_restore 1
 1527 098c 03340102 		ld	s0,32(sp)
 1528              		.cfi_restore 8
 1529              		.cfi_def_cfa 2, 48
 1530 0990 83348101 		ld	s1,24(sp)
 1531              		.cfi_restore 9
 1532              	.LVL175:
 1533 0994 03390101 		ld	s2,16(sp)
 1534              		.cfi_restore 18
 1535 0998 83398100 		ld	s3,8(sp)
 1536              		.cfi_restore 19
 1537              	.LVL176:
 1538 099c 13010103 		addi	sp,sp,48
 1539              		.cfi_def_cfa_offset 0
 1540 09a0 67800000 		jr	ra
 1541              	.LVL177:
 1542              	.L99:
 1543              		.cfi_restore_state
 182:src/Tests.cpp ****     else
GAS LISTING /tmp/ccO13uu5.s 			page 42


 1544              		.loc 1 182 9 is_stmt 1
 182:src/Tests.cpp ****     else
 1545              		.loc 1 182 27 is_stmt 0
 1546 09a4 17050000 		lla	a0,.LC15
 1546      13050500 
 1547 09ac 97000000 		call	_ZN5Riscv11printStringEPKc@plt
 1547      E7800000 
 1548              	.LVL178:
 1549 09b4 6FF05FFD 		j	.L92
 1550              		.cfi_endproc
 1551              	.LFE31:
 1553              		.section	.rodata.str1.8
 1554 00fb 00000000 		.align	3
 1554      00
 1555              	.LC18:
 1556 0100 62616446 		.string	"badFree\n"
 1556      7265650A 
 1556      00
 1557              		.text
 1558              		.align	2
 1559              		.globl	_Z7badFreev
 1561              	_Z7badFreev:
 1562              	.LFB32:
 187:src/Tests.cpp ****     Riscv::printString("badFree\n");
 1563              		.loc 1 187 1 is_stmt 1
 1564              		.cfi_startproc
 1565 09b8 130101FF 		addi	sp,sp,-16
 1566              		.cfi_def_cfa_offset 16
 1567 09bc 23341100 		sd	ra,8(sp)
 1568 09c0 23308100 		sd	s0,0(sp)
 1569              		.cfi_offset 1, -8
 1570              		.cfi_offset 8, -16
 1571 09c4 13040101 		addi	s0,sp,16
 1572              		.cfi_def_cfa 8, 0
 188:src/Tests.cpp ****     Test* t = (Test*)mem_alloc(sizeof(Test));
 1573              		.loc 1 188 5
 188:src/Tests.cpp ****     Test* t = (Test*)mem_alloc(sizeof(Test));
 1574              		.loc 1 188 23 is_stmt 0
 1575 09c8 17050000 		lla	a0,.LC18
 1575      13050500 
 1576 09d0 97000000 		call	_ZN5Riscv11printStringEPKc@plt
 1576      E7800000 
 1577              	.LVL179:
 189:src/Tests.cpp ****     uint64 retval = mem_free((char*)t + 2);
 1578              		.loc 1 189 5 is_stmt 1
 189:src/Tests.cpp ****     uint64 retval = mem_free((char*)t + 2);
 1579              		.loc 1 189 31 is_stmt 0
 1580 09d8 13058000 		li	a0,8
 1581 09dc 97000000 		call	mem_alloc@plt
 1581      E7800000 
 1582              	.LVL180:
 190:src/Tests.cpp ****     if(retval == 0)
 1583              		.loc 1 190 5 is_stmt 1
 190:src/Tests.cpp ****     if(retval == 0)
 1584              		.loc 1 190 29 is_stmt 0
 1585 09e4 13052500 		addi	a0,a0,2
 1586              	.LVL181:
GAS LISTING /tmp/ccO13uu5.s 			page 43


 1587 09e8 97000000 		call	mem_free@plt
 1587      E7800000 
 1588              	.LVL182:
 191:src/Tests.cpp ****         Riscv::printString("not OK\n");
 1589              		.loc 1 191 5 is_stmt 1
 1590 09f0 63120502 		bnez	a0,.L101
 192:src/Tests.cpp ****     else
 1591              		.loc 1 192 9
 192:src/Tests.cpp ****     else
 1592              		.loc 1 192 27 is_stmt 0
 1593 09f4 17050000 		lla	a0,.LC14
 1593      13050500 
 1594              	.LVL183:
 1595 09fc 97000000 		call	_ZN5Riscv11printStringEPKc@plt
 1595      E7800000 
 1596              	.LVL184:
 1597              	.L100:
 195:src/Tests.cpp **** 
 1598              		.loc 1 195 1
 1599 0a04 83308100 		ld	ra,8(sp)
 1600              		.cfi_remember_state
 1601              		.cfi_restore 1
 1602 0a08 03340100 		ld	s0,0(sp)
 1603              		.cfi_restore 8
 1604              		.cfi_def_cfa 2, 16
 1605 0a0c 13010101 		addi	sp,sp,16
 1606              		.cfi_def_cfa_offset 0
 1607 0a10 67800000 		jr	ra
 1608              	.LVL185:
 1609              	.L101:
 1610              		.cfi_restore_state
 194:src/Tests.cpp **** }
 1611              		.loc 1 194 9 is_stmt 1
 194:src/Tests.cpp **** }
 1612              		.loc 1 194 27 is_stmt 0
 1613 0a14 17050000 		lla	a0,.LC15
 1613      13050500 
 1614              	.LVL186:
 1615 0a1c 97000000 		call	_ZN5Riscv11printStringEPKc@plt
 1615      E7800000 
 1616              	.LVL187:
 195:src/Tests.cpp **** 
 1617              		.loc 1 195 1
 1618 0a24 6FF01FFE 		j	.L100
 1619              		.cfi_endproc
 1620              	.LFE32:
 1622              		.section	.rodata.str1.8
 1623 0109 00000000 		.align	3
 1623      000000
 1624              	.LC19:
 1625 0110 73747265 		.string	"stressTesting\n"
 1625      73735465 
 1625      7374696E 
 1625      670A00
 1626              		.text
 1627              		.align	2
 1628              		.globl	_Z13stressTestingv
GAS LISTING /tmp/ccO13uu5.s 			page 44


 1630              	_Z13stressTestingv:
 1631              	.LFB33:
 198:src/Tests.cpp ****     Riscv::printString("stressTesting\n");
 1632              		.loc 1 198 1 is_stmt 1
 1633              		.cfi_startproc
 1634 0a28 130101CC 		addi	sp,sp,-832
 1635              		.cfi_def_cfa_offset 832
 1636 0a2c 233C1132 		sd	ra,824(sp)
 1637 0a30 23388132 		sd	s0,816(sp)
 1638 0a34 23349132 		sd	s1,808(sp)
 1639 0a38 23302133 		sd	s2,800(sp)
 1640              		.cfi_offset 1, -8
 1641              		.cfi_offset 8, -16
 1642              		.cfi_offset 9, -24
 1643              		.cfi_offset 18, -32
 1644 0a3c 13040134 		addi	s0,sp,832
 1645              		.cfi_def_cfa 8, 0
 199:src/Tests.cpp ****     constexpr int num = 100;
 1646              		.loc 1 199 5
 199:src/Tests.cpp ****     constexpr int num = 100;
 1647              		.loc 1 199 23 is_stmt 0
 1648 0a40 17050000 		lla	a0,.LC19
 1648      13050500 
 1649 0a48 97000000 		call	_ZN5Riscv11printStringEPKc@plt
 1649      E7800000 
 1650              	.LVL188:
 1651              	.LBB29:
 202:src/Tests.cpp ****     {
 1652              		.loc 1 202 13
 1653 0a50 93040000 		li	s1,0
 1654 0a54 6F008000 		j	.L107
 1655              	.LVL189:
 1656              	.L116:
 202:src/Tests.cpp ****     {
 1657              		.loc 1 202 5 is_stmt 1 discriminator 2
 1658 0a58 9B841400 		addiw	s1,s1,1
 1659              	.LVL190:
 1660              	.L107:
 202:src/Tests.cpp ****     {
 1661              		.loc 1 202 22 discriminator 1
 1662 0a5c 93073006 		li	a5,99
 1663 0a60 63CE9702 		bgt	s1,a5,.L113
 204:src/Tests.cpp ****         if(addrs[i] == 0)
 1664              		.loc 1 204 9
 204:src/Tests.cpp ****         if(addrs[i] == 0)
 1665              		.loc 1 204 29 is_stmt 0
 1666 0a64 13051000 		li	a0,1
 1667 0a68 97000000 		call	mem_alloc@plt
 1667      E7800000 
 1668              	.LVL191:
 204:src/Tests.cpp ****         if(addrs[i] == 0)
 1669              		.loc 1 204 18
 1670 0a70 93973400 		slli	a5,s1,3
 1671 0a74 130704FE 		addi	a4,s0,-32
 1672 0a78 B307F700 		add	a5,a4,a5
 1673 0a7c 23B0A7CE 		sd	a0,-800(a5)
 205:src/Tests.cpp ****         {
GAS LISTING /tmp/ccO13uu5.s 			page 45


 1674              		.loc 1 205 9 is_stmt 1
 1675 0a80 E31C05FC 		bnez	a0,.L116
 1676              	.LVL192:
 1677              	.L104:
 1678              	.LBE29:
 262:src/Tests.cpp **** 
 1679              		.loc 1 262 1 is_stmt 0
 1680 0a84 83308133 		ld	ra,824(sp)
 1681              		.cfi_remember_state
 1682              		.cfi_restore 1
 1683 0a88 03340133 		ld	s0,816(sp)
 1684              		.cfi_restore 8
 1685              		.cfi_def_cfa 2, 832
 1686 0a8c 83348132 		ld	s1,808(sp)
 1687              		.cfi_restore 9
 1688 0a90 03390132 		ld	s2,800(sp)
 1689              		.cfi_restore 18
 1690 0a94 13010134 		addi	sp,sp,832
 1691              		.cfi_def_cfa_offset 0
 1692 0a98 67800000 		jr	ra
 1693              	.LVL193:
 1694              	.L113:
 1695              		.cfi_restore_state
 212:src/Tests.cpp ****     while(sz > 0)
 1696              		.loc 1 212 9
 1697 0a9c 1309C012 		li	s2,300
 1698              	.LVL194:
 1699              	.L105:
 213:src/Tests.cpp ****     {
 1700              		.loc 1 213 5 is_stmt 1
 213:src/Tests.cpp ****     {
 1701              		.loc 1 213 14
 1702 0aa0 635A200B 		blez	s2,.L108
 1703              	.LBB30:
 1704              	.LBB31:
 217:src/Tests.cpp ****         {
 1705              		.loc 1 217 17 is_stmt 0
 1706 0aa4 93040000 		li	s1,0
 1707              	.L110:
 1708              	.LVL195:
 217:src/Tests.cpp ****         {
 1709              		.loc 1 217 27 is_stmt 1 discriminator 1
 1710 0aa8 93073006 		li	a5,99
 1711 0aac 63C89704 		bgt	s1,a5,.L114
 1712              	.LBB32:
 222:src/Tests.cpp ****             if(retval != 0)
 1713              		.loc 1 222 13
 222:src/Tests.cpp ****             if(retval != 0)
 1714              		.loc 1 222 34 is_stmt 0
 1715 0ab0 93973400 		slli	a5,s1,3
 1716 0ab4 130704FE 		addi	a4,s0,-32
 1717 0ab8 B307F700 		add	a5,a4,a5
 1718 0abc 03B507CE 		ld	a0,-800(a5)
 1719 0ac0 97000000 		call	mem_free@plt
 1719      E7800000 
 1720              	.LVL196:
 223:src/Tests.cpp ****             {
GAS LISTING /tmp/ccO13uu5.s 			page 46


 1721              		.loc 1 223 13 is_stmt 1
 1722 0ac8 E31E05FA 		bnez	a0,.L104
 229:src/Tests.cpp ****             if(addrs[i] == 0)
 1723              		.loc 1 229 13
 229:src/Tests.cpp ****             if(addrs[i] == 0)
 1724              		.loc 1 229 36 is_stmt 0
 1725 0acc 1B55F901 		srliw	a0,s2,31
 1726              	.LVL197:
 1727 0ad0 3B052501 		addw	a0,a0,s2
 229:src/Tests.cpp ****             if(addrs[i] == 0)
 1728              		.loc 1 229 33
 1729 0ad4 1B551540 		sraiw	a0,a0,1
 1730 0ad8 97000000 		call	mem_alloc@plt
 1730      E7800000 
 1731              	.LVL198:
 229:src/Tests.cpp ****             if(addrs[i] == 0)
 1732              		.loc 1 229 22
 1733 0ae0 93973400 		slli	a5,s1,3
 1734 0ae4 130704FE 		addi	a4,s0,-32
 1735 0ae8 B307F700 		add	a5,a4,a5
 1736 0aec 23B0A7CE 		sd	a0,-800(a5)
 230:src/Tests.cpp ****             {
 1737              		.loc 1 230 13 is_stmt 1
 1738 0af0 E30A05F8 		beqz	a0,.L104
 1739              	.LBE32:
 217:src/Tests.cpp ****         {
 1740              		.loc 1 217 9 discriminator 2
 217:src/Tests.cpp ****         {
 1741              		.loc 1 217 34 is_stmt 0 discriminator 2
 1742 0af4 9B842400 		addiw	s1,s1,2
 1743              	.LVL199:
 217:src/Tests.cpp ****         {
 1744              		.loc 1 217 9 discriminator 2
 1745 0af8 6FF01FFB 		j	.L110
 1746              	.LVL200:
 1747              	.L114:
 1748              	.LBE31:
 1749              	.LBB33:
 238:src/Tests.cpp ****         {
 1750              		.loc 1 238 17
 1751 0afc 93041000 		li	s1,1
 1752              	.LVL201:
 1753              	.L109:
 238:src/Tests.cpp ****         {
 1754              		.loc 1 238 27 is_stmt 1 discriminator 1
 1755 0b00 93073006 		li	a5,99
 1756 0b04 63C49704 		bgt	s1,a5,.L111
 1757              	.LBB34:
 243:src/Tests.cpp ****             if(retval != 0)
 1758              		.loc 1 243 13
 243:src/Tests.cpp ****             if(retval != 0)
 1759              		.loc 1 243 34 is_stmt 0
 1760 0b08 93973400 		slli	a5,s1,3
 1761 0b0c 130704FE 		addi	a4,s0,-32
 1762 0b10 B307F700 		add	a5,a4,a5
 1763 0b14 03B507CE 		ld	a0,-800(a5)
 1764 0b18 97000000 		call	mem_free@plt
GAS LISTING /tmp/ccO13uu5.s 			page 47


 1764      E7800000 
 1765              	.LVL202:
 244:src/Tests.cpp ****             {
 1766              		.loc 1 244 13 is_stmt 1
 1767 0b20 E31205F6 		bnez	a0,.L104
 250:src/Tests.cpp ****             if(addrs[i] == 0)
 1768              		.loc 1 250 13
 250:src/Tests.cpp ****             if(addrs[i] == 0)
 1769              		.loc 1 250 33 is_stmt 0
 1770 0b24 13050900 		mv	a0,s2
 1771              	.LVL203:
 1772 0b28 97000000 		call	mem_alloc@plt
 1772      E7800000 
 1773              	.LVL204:
 250:src/Tests.cpp ****             if(addrs[i] == 0)
 1774              		.loc 1 250 22
 1775 0b30 93973400 		slli	a5,s1,3
 1776 0b34 130704FE 		addi	a4,s0,-32
 1777 0b38 B307F700 		add	a5,a4,a5
 1778 0b3c 23B0A7CE 		sd	a0,-800(a5)
 251:src/Tests.cpp ****             {
 1779              		.loc 1 251 13 is_stmt 1
 1780 0b40 E30205F4 		beqz	a0,.L104
 1781              	.LBE34:
 238:src/Tests.cpp ****         {
 1782              		.loc 1 238 9 discriminator 2
 238:src/Tests.cpp ****         {
 1783              		.loc 1 238 34 is_stmt 0 discriminator 2
 1784 0b44 9B842400 		addiw	s1,s1,2
 1785              	.LVL205:
 238:src/Tests.cpp ****         {
 1786              		.loc 1 238 9 discriminator 2
 1787 0b48 6FF09FFB 		j	.L109
 1788              	.LVL206:
 1789              	.L111:
 1790              	.LBE33:
 258:src/Tests.cpp ****     }
 1791              		.loc 1 258 9 is_stmt 1
 258:src/Tests.cpp ****     }
 1792              		.loc 1 258 11 is_stmt 0
 1793 0b4c 1B0969FF 		addiw	s2,s2,-10
 1794              	.LVL207:
 1795              	.LBE30:
 213:src/Tests.cpp ****     {
 1796              		.loc 1 213 5
 1797 0b50 6FF01FF5 		j	.L105
 1798              	.LVL208:
 1799              	.L108:
 261:src/Tests.cpp **** }
 1800              		.loc 1 261 5 is_stmt 1
 261:src/Tests.cpp **** }
 1801              		.loc 1 261 23 is_stmt 0
 1802 0b54 17050000 		lla	a0,.LC15
 1802      13050500 
 1803 0b5c 97000000 		call	_ZN5Riscv11printStringEPKc@plt
 1803      E7800000 
 1804              	.LVL209:
GAS LISTING /tmp/ccO13uu5.s 			page 48


 1805 0b64 6FF01FF2 		j	.L104
 1806              		.cfi_endproc
 1807              	.LFE33:
 1809              		.align	2
 1810              		.globl	_Z21memoryAllocationTestsv
 1812              	_Z21memoryAllocationTestsv:
 1813              	.LFB34:
 265:src/Tests.cpp ****     //bigMalloc();
 1814              		.loc 1 265 1 is_stmt 1
 1815              		.cfi_startproc
 1816 0b68 130101FF 		addi	sp,sp,-16
 1817              		.cfi_def_cfa_offset 16
 1818 0b6c 23341100 		sd	ra,8(sp)
 1819 0b70 23308100 		sd	s0,0(sp)
 1820              		.cfi_offset 1, -8
 1821              		.cfi_offset 8, -16
 1822 0b74 13040101 		addi	s0,sp,16
 1823              		.cfi_def_cfa 8, 0
 270:src/Tests.cpp **** }
 1824              		.loc 1 270 5
 270:src/Tests.cpp **** }
 1825              		.loc 1 270 18 is_stmt 0
 1826 0b78 97000000 		call	_Z13stressTestingv
 1826      E7800000 
 1827              	.LVL210:
 271:src/Tests.cpp **** 
 1828              		.loc 1 271 1
 1829 0b80 83308100 		ld	ra,8(sp)
 1830              		.cfi_restore 1
 1831 0b84 03340100 		ld	s0,0(sp)
 1832              		.cfi_restore 8
 1833              		.cfi_def_cfa 2, 16
 1834 0b88 13010101 		addi	sp,sp,16
 1835              		.cfi_def_cfa_offset 0
 1836 0b8c 67800000 		jr	ra
 1837              		.cfi_endproc
 1838              	.LFE34:
 1840              		.align	2
 1841              		.globl	_Z8semTest1v
 1843              	_Z8semTest1v:
 1844              	.LFB37:
 312:src/Tests.cpp ****     mutex = new Semaphore(1);
 1845              		.loc 1 312 1 is_stmt 1
 1846              		.cfi_startproc
 1847              		.cfi_personality 0x9b,DW.ref.__gxx_personality_v0
 1848              		.cfi_lsda 0x1b,.LLSDA37
 1849 0b90 130101FE 		addi	sp,sp,-32
 1850              		.cfi_def_cfa_offset 32
 1851 0b94 233C1100 		sd	ra,24(sp)
 1852 0b98 23388100 		sd	s0,16(sp)
 1853 0b9c 23349100 		sd	s1,8(sp)
 1854 0ba0 23302101 		sd	s2,0(sp)
 1855              		.cfi_offset 1, -8
 1856              		.cfi_offset 8, -16
 1857              		.cfi_offset 9, -24
 1858              		.cfi_offset 18, -32
 1859 0ba4 13040102 		addi	s0,sp,32
GAS LISTING /tmp/ccO13uu5.s 			page 49


 1860              		.cfi_def_cfa 8, 0
 313:src/Tests.cpp ****     Thread* t1 = new Thread(&f1, 0);
 1861              		.loc 1 313 5
 313:src/Tests.cpp ****     Thread* t1 = new Thread(&f1, 0);
 1862              		.loc 1 313 28 is_stmt 0
 1863 0ba8 13050001 		li	a0,16
 1864              	.LEHB17:
 1865 0bac 97000000 		call	_Znwm@plt
 1865      E7800000 
 1866              	.LVL211:
 1867              	.LEHE17:
 1868 0bb4 93040500 		mv	s1,a0
 1869 0bb8 93051000 		li	a1,1
 1870              	.LEHB18:
 1871 0bbc 97000000 		call	_ZN9SemaphoreC1Ej@plt
 1871      E7800000 
 1872              	.LVL212:
 1873              	.LEHE18:
 313:src/Tests.cpp ****     Thread* t1 = new Thread(&f1, 0);
 1874              		.loc 1 313 11 discriminator 2
 1875 0bc4 97070000 		sd	s1,.LANCHOR0,a5
 1875      23B09700 
 314:src/Tests.cpp ****     Thread* t2 = new Thread(&f2, 0);
 1876              		.loc 1 314 5 is_stmt 1 discriminator 2
 314:src/Tests.cpp ****     Thread* t2 = new Thread(&f2, 0);
 1877              		.loc 1 314 35 is_stmt 0 discriminator 2
 1878 0bcc 13050002 		li	a0,32
 1879              	.LEHB19:
 1880 0bd0 97000000 		call	_Znwm@plt
 1880      E7800000 
 1881              	.LVL213:
 1882              	.LEHE19:
 1883 0bd8 13090500 		mv	s2,a0
 1884 0bdc 13060000 		li	a2,0
 1885 0be0 97050000 		lla	a1,_Z2f1Pv
 1885      93850500 
 1886              	.LEHB20:
 1887 0be8 97000000 		call	_ZN6ThreadC1EPFvPvES0_@plt
 1887      E7800000 
 1888              	.LVL214:
 1889              	.LEHE20:
 315:src/Tests.cpp ****     t1->start();
 1890              		.loc 1 315 5 is_stmt 1 discriminator 2
 315:src/Tests.cpp ****     t1->start();
 1891              		.loc 1 315 35 is_stmt 0 discriminator 2
 1892 0bf0 13050002 		li	a0,32
 1893              	.LEHB21:
 1894 0bf4 97000000 		call	_Znwm@plt
 1894      E7800000 
 1895              	.LVL215:
 1896              	.LEHE21:
 1897 0bfc 93040500 		mv	s1,a0
 1898 0c00 13060000 		li	a2,0
 1899 0c04 97050000 		lla	a1,_Z2f2Pv
 1899      93850500 
 1900              	.LEHB22:
 1901 0c0c 97000000 		call	_ZN6ThreadC1EPFvPvES0_@plt
GAS LISTING /tmp/ccO13uu5.s 			page 50


 1901      E7800000 
 1902              	.LVL216:
 1903              	.LEHE22:
 316:src/Tests.cpp ****     t2->start();
 1904              		.loc 1 316 5 is_stmt 1 discriminator 2
 316:src/Tests.cpp ****     t2->start();
 1905              		.loc 1 316 14 is_stmt 0 discriminator 2
 1906 0c14 13050900 		mv	a0,s2
 1907              	.LEHB23:
 1908 0c18 97000000 		call	_ZN6Thread5startEv@plt
 1908      E7800000 
 1909              	.LVL217:
 317:src/Tests.cpp **** 
 1910              		.loc 1 317 5 is_stmt 1 discriminator 2
 317:src/Tests.cpp **** 
 1911              		.loc 1 317 14 is_stmt 0 discriminator 2
 1912 0c20 13850400 		mv	a0,s1
 1913 0c24 97000000 		call	_ZN6Thread5startEv@plt
 1913      E7800000 
 1914              	.LVL218:
 319:src/Tests.cpp ****     while(true)
 1915              		.loc 1 319 5 is_stmt 1 discriminator 2
 319:src/Tests.cpp ****     while(true)
 1916              		.loc 1 319 9 is_stmt 0 discriminator 2
 1917 0c2c 93040000 		li	s1,0
 1918              	.LVL219:
 1919              	.L120:
 320:src/Tests.cpp ****     {
 1920              		.loc 1 320 5 is_stmt 1
 322:src/Tests.cpp ****         thread_dispatch();
 1921              		.loc 1 322 9
 322:src/Tests.cpp ****         thread_dispatch();
 1922              		.loc 1 322 10 is_stmt 0
 1923 0c30 9B841400 		addiw	s1,s1,1
 1924              	.LVL220:
 323:src/Tests.cpp ****         if(y == 200000)
 1925              		.loc 1 323 9 is_stmt 1
 323:src/Tests.cpp ****         if(y == 200000)
 1926              		.loc 1 323 24 is_stmt 0
 1927 0c34 97000000 		call	thread_dispatch@plt
 1927      E7800000 
 1928              	.LVL221:
 1929              	.LEHE23:
 324:src/Tests.cpp ****             break;
 1930              		.loc 1 324 9 is_stmt 1
 1931 0c3c B7170300 		li	a5,200704
 1932 0c40 938707D4 		addi	a5,a5,-704
 1933 0c44 E396F4FE 		bne	s1,a5,.L120
 327:src/Tests.cpp **** 
 1934              		.loc 1 327 1 is_stmt 0
 1935 0c48 83308101 		ld	ra,24(sp)
 1936              		.cfi_remember_state
 1937              		.cfi_restore 1
 1938 0c4c 03340101 		ld	s0,16(sp)
 1939              		.cfi_restore 8
 1940              		.cfi_def_cfa 2, 32
 1941 0c50 83348100 		ld	s1,8(sp)
GAS LISTING /tmp/ccO13uu5.s 			page 51


 1942              		.cfi_restore 9
 1943 0c54 03390100 		ld	s2,0(sp)
 1944              		.cfi_restore 18
 1945              	.LVL222:
 1946 0c58 13010102 		addi	sp,sp,32
 1947              		.cfi_def_cfa_offset 0
 1948 0c5c 67800000 		jr	ra
 1949              	.L124:
 1950              		.cfi_restore_state
 1951 0c60 13090500 		mv	s2,a0
 313:src/Tests.cpp ****     Thread* t1 = new Thread(&f1, 0);
 1952              		.loc 1 313 28
 1953 0c64 13850400 		mv	a0,s1
 1954 0c68 97000000 		call	_ZdlPv@plt
 1954      E7800000 
 1955              	.LVL223:
 1956 0c70 13050900 		mv	a0,s2
 1957              	.LEHB24:
 1958 0c74 97000000 		call	_Unwind_Resume@plt
 1958      E7800000 
 1959              	.LVL224:
 1960              	.LEHE24:
 1961              	.L125:
 1962 0c7c 93040500 		mv	s1,a0
 314:src/Tests.cpp ****     Thread* t2 = new Thread(&f2, 0);
 1963              		.loc 1 314 35
 1964 0c80 13050900 		mv	a0,s2
 1965 0c84 97000000 		call	_ZdlPv@plt
 1965      E7800000 
 1966              	.LVL225:
 1967 0c8c 13850400 		mv	a0,s1
 1968              	.LEHB25:
 1969 0c90 97000000 		call	_Unwind_Resume@plt
 1969      E7800000 
 1970              	.LVL226:
 1971              	.LEHE25:
 1972              	.L126:
 1973 0c98 13090500 		mv	s2,a0
 1974              	.LVL227:
 315:src/Tests.cpp ****     t1->start();
 1975              		.loc 1 315 35
 1976 0c9c 13850400 		mv	a0,s1
 1977 0ca0 97000000 		call	_ZdlPv@plt
 1977      E7800000 
 1978              	.LVL228:
 1979 0ca8 13050900 		mv	a0,s2
 1980              	.LEHB26:
 1981 0cac 97000000 		call	_Unwind_Resume@plt
 1981      E7800000 
 1982              	.LVL229:
 1983              	.LEHE26:
 1984              		.cfi_endproc
 1985              	.LFE37:
 1986              		.section	.gcc_except_table
 1987              	.LLSDA37:
 1988 00e6 FF       		.byte	0xff
 1989 00e7 FF       		.byte	0xff
GAS LISTING /tmp/ccO13uu5.s 			page 52


 1990 00e8 03       		.byte	0x3
 1991 00e9 8201     		.byte	0x82,0x1
 1992 00eb 00000000 		.4byte	.LEHB17-.LFB37
 1993 00ef 00000000 		.4byte	.LEHE17-.LEHB17
 1994 00f3 00000000 		.4byte	0
 1995 00f7 00       		.byte	0
 1996 00f8 00000000 		.4byte	.LEHB18-.LFB37
 1997 00fc 00000000 		.4byte	.LEHE18-.LEHB18
 1998 0100 00000000 		.4byte	.L124-.LFB37
 1999 0104 00       		.byte	0
 2000 0105 00000000 		.4byte	.LEHB19-.LFB37
 2001 0109 00000000 		.4byte	.LEHE19-.LEHB19
 2002 010d 00000000 		.4byte	0
 2003 0111 00       		.byte	0
 2004 0112 00000000 		.4byte	.LEHB20-.LFB37
 2005 0116 00000000 		.4byte	.LEHE20-.LEHB20
 2006 011a 00000000 		.4byte	.L125-.LFB37
 2007 011e 00       		.byte	0
 2008 011f 00000000 		.4byte	.LEHB21-.LFB37
 2009 0123 00000000 		.4byte	.LEHE21-.LEHB21
 2010 0127 00000000 		.4byte	0
 2011 012b 00       		.byte	0
 2012 012c 00000000 		.4byte	.LEHB22-.LFB37
 2013 0130 00000000 		.4byte	.LEHE22-.LEHB22
 2014 0134 00000000 		.4byte	.L126-.LFB37
 2015 0138 00       		.byte	0
 2016 0139 00000000 		.4byte	.LEHB23-.LFB37
 2017 013d 00000000 		.4byte	.LEHE23-.LEHB23
 2018 0141 00000000 		.4byte	0
 2019 0145 00       		.byte	0
 2020 0146 00000000 		.4byte	.LEHB24-.LFB37
 2021 014a 00000000 		.4byte	.LEHE24-.LEHB24
 2022 014e 00000000 		.4byte	0
 2023 0152 00       		.byte	0
 2024 0153 00000000 		.4byte	.LEHB25-.LFB37
 2025 0157 00000000 		.4byte	.LEHE25-.LEHB25
 2026 015b 00000000 		.4byte	0
 2027 015f 00       		.byte	0
 2028 0160 00000000 		.4byte	.LEHB26-.LFB37
 2029 0164 00000000 		.4byte	.LEHE26-.LEHB26
 2030 0168 00000000 		.4byte	0
 2031 016c 00       		.byte	0
 2032              		.text
 2034              		.align	2
 2035              		.globl	_Z8semTest2v
 2037              	_Z8semTest2v:
 2038              	.LFB41:
 384:src/Tests.cpp ****     }
 385:src/Tests.cpp **** }
 386:src/Tests.cpp **** 
 387:src/Tests.cpp **** void semTest2()
 388:src/Tests.cpp **** {
 2039              		.loc 1 388 1 is_stmt 1
 2040              		.cfi_startproc
 2041              		.cfi_personality 0x9b,DW.ref.__gxx_personality_v0
 2042              		.cfi_lsda 0x1b,.LLSDA41
 2043 0cb4 130101FD 		addi	sp,sp,-48
GAS LISTING /tmp/ccO13uu5.s 			page 53


 2044              		.cfi_def_cfa_offset 48
 2045 0cb8 23341102 		sd	ra,40(sp)
 2046 0cbc 23308102 		sd	s0,32(sp)
 2047 0cc0 233C9100 		sd	s1,24(sp)
 2048 0cc4 23382101 		sd	s2,16(sp)
 2049 0cc8 23343101 		sd	s3,8(sp)
 2050              		.cfi_offset 1, -8
 2051              		.cfi_offset 8, -16
 2052              		.cfi_offset 9, -24
 2053              		.cfi_offset 18, -32
 2054              		.cfi_offset 19, -40
 2055 0ccc 13040103 		addi	s0,sp,48
 2056              		.cfi_def_cfa 8, 0
 389:src/Tests.cpp ****     s1 = new Semaphore(1);
 2057              		.loc 1 389 5
 2058              		.loc 1 389 25 is_stmt 0
 2059 0cd0 13050001 		li	a0,16
 2060              	.LEHB27:
 2061 0cd4 97000000 		call	_Znwm@plt
 2061      E7800000 
 2062              	.LVL230:
 2063              	.LEHE27:
 2064 0cdc 93040500 		mv	s1,a0
 2065 0ce0 93051000 		li	a1,1
 2066              	.LEHB28:
 2067 0ce4 97000000 		call	_ZN9SemaphoreC1Ej@plt
 2067      E7800000 
 2068              	.LVL231:
 2069              	.LEHE28:
 2070              		.loc 1 389 8 discriminator 2
 2071 0cec 97070000 		sd	s1,.LANCHOR0+8,a5
 2071      23B09700 
 390:src/Tests.cpp ****     s2 = new Semaphore(0);
 2072              		.loc 1 390 5 is_stmt 1 discriminator 2
 2073              		.loc 1 390 25 is_stmt 0 discriminator 2
 2074 0cf4 13050001 		li	a0,16
 2075              	.LEHB29:
 2076 0cf8 97000000 		call	_Znwm@plt
 2076      E7800000 
 2077              	.LVL232:
 2078              	.LEHE29:
 2079 0d00 93040500 		mv	s1,a0
 2080 0d04 93050000 		li	a1,0
 2081              	.LEHB30:
 2082 0d08 97000000 		call	_ZN9SemaphoreC1Ej@plt
 2082      E7800000 
 2083              	.LVL233:
 2084              	.LEHE30:
 2085              		.loc 1 390 8 discriminator 2
 2086 0d10 97070000 		sd	s1,.LANCHOR0+16,a5
 2086      23B09700 
 391:src/Tests.cpp ****     s3 = new Semaphore(0);
 2087              		.loc 1 391 5 is_stmt 1 discriminator 2
 2088              		.loc 1 391 25 is_stmt 0 discriminator 2
 2089 0d18 13050001 		li	a0,16
 2090              	.LEHB31:
 2091 0d1c 97000000 		call	_Znwm@plt
GAS LISTING /tmp/ccO13uu5.s 			page 54


 2091      E7800000 
 2092              	.LVL234:
 2093              	.LEHE31:
 2094 0d24 93040500 		mv	s1,a0
 2095 0d28 93050000 		li	a1,0
 2096              	.LEHB32:
 2097 0d2c 97000000 		call	_ZN9SemaphoreC1Ej@plt
 2097      E7800000 
 2098              	.LVL235:
 2099              	.LEHE32:
 2100              		.loc 1 391 8 discriminator 2
 2101 0d34 97070000 		sd	s1,.LANCHOR0+24,a5
 2101      23B09700 
 392:src/Tests.cpp ****     Thread* t1 = new Thread(&f1_2, 0);
 2102              		.loc 1 392 5 is_stmt 1 discriminator 2
 2103              		.loc 1 392 37 is_stmt 0 discriminator 2
 2104 0d3c 13050002 		li	a0,32
 2105              	.LEHB33:
 2106 0d40 97000000 		call	_Znwm@plt
 2106      E7800000 
 2107              	.LVL236:
 2108              	.LEHE33:
 2109 0d48 93090500 		mv	s3,a0
 2110 0d4c 13060000 		li	a2,0
 2111 0d50 97050000 		lla	a1,_Z4f1_2Pv
 2111      93850500 
 2112              	.LEHB34:
 2113 0d58 97000000 		call	_ZN6ThreadC1EPFvPvES0_@plt
 2113      E7800000 
 2114              	.LVL237:
 2115              	.LEHE34:
 393:src/Tests.cpp ****     Thread* t2 = new Thread(&f2_2, 0);
 2116              		.loc 1 393 5 is_stmt 1 discriminator 2
 2117              		.loc 1 393 37 is_stmt 0 discriminator 2
 2118 0d60 13050002 		li	a0,32
 2119              	.LEHB35:
 2120 0d64 97000000 		call	_Znwm@plt
 2120      E7800000 
 2121              	.LVL238:
 2122              	.LEHE35:
 2123 0d6c 13090500 		mv	s2,a0
 2124 0d70 13060000 		li	a2,0
 2125 0d74 97050000 		lla	a1,_Z4f2_2Pv
 2125      93850500 
 2126              	.LEHB36:
 2127 0d7c 97000000 		call	_ZN6ThreadC1EPFvPvES0_@plt
 2127      E7800000 
 2128              	.LVL239:
 2129              	.LEHE36:
 394:src/Tests.cpp ****     Thread* t3 = new Thread(&f3_2, 0);
 2130              		.loc 1 394 5 is_stmt 1 discriminator 2
 2131              		.loc 1 394 37 is_stmt 0 discriminator 2
 2132 0d84 13050002 		li	a0,32
 2133              	.LEHB37:
 2134 0d88 97000000 		call	_Znwm@plt
 2134      E7800000 
 2135              	.LVL240:
GAS LISTING /tmp/ccO13uu5.s 			page 55


 2136              	.LEHE37:
 2137 0d90 93040500 		mv	s1,a0
 2138 0d94 13060000 		li	a2,0
 2139 0d98 97050000 		lla	a1,_Z4f3_2Pv
 2139      93850500 
 2140              	.LEHB38:
 2141 0da0 97000000 		call	_ZN6ThreadC1EPFvPvES0_@plt
 2141      E7800000 
 2142              	.LVL241:
 2143              	.LEHE38:
 395:src/Tests.cpp ****     t3->start();
 2144              		.loc 1 395 5 is_stmt 1 discriminator 2
 2145              		.loc 1 395 14 is_stmt 0 discriminator 2
 2146 0da8 13850400 		mv	a0,s1
 2147              	.LEHB39:
 2148 0dac 97000000 		call	_ZN6Thread5startEv@plt
 2148      E7800000 
 2149              	.LVL242:
 396:src/Tests.cpp ****     t2->start();
 2150              		.loc 1 396 5 is_stmt 1 discriminator 2
 2151              		.loc 1 396 14 is_stmt 0 discriminator 2
 2152 0db4 13050900 		mv	a0,s2
 2153 0db8 97000000 		call	_ZN6Thread5startEv@plt
 2153      E7800000 
 2154              	.LVL243:
 397:src/Tests.cpp ****     t1->start();
 2155              		.loc 1 397 5 is_stmt 1 discriminator 2
 2156              		.loc 1 397 14 is_stmt 0 discriminator 2
 2157 0dc0 13850900 		mv	a0,s3
 2158 0dc4 97000000 		call	_ZN6Thread5startEv@plt
 2158      E7800000 
 2159              	.LVL244:
 398:src/Tests.cpp **** 
 399:src/Tests.cpp ****     int y = 0;
 2160              		.loc 1 399 5 is_stmt 1 discriminator 2
 2161              		.loc 1 399 9 is_stmt 0 discriminator 2
 2162 0dcc 93040000 		li	s1,0
 2163              	.LVL245:
 2164              	.L130:
 400:src/Tests.cpp ****     while(true)
 2165              		.loc 1 400 5 is_stmt 1
 401:src/Tests.cpp ****     {
 402:src/Tests.cpp ****         y++;
 2166              		.loc 1 402 9
 2167              		.loc 1 402 10 is_stmt 0
 2168 0dd0 9B841400 		addiw	s1,s1,1
 2169              	.LVL246:
 403:src/Tests.cpp ****         thread_dispatch();
 2170              		.loc 1 403 9 is_stmt 1
 2171              		.loc 1 403 24 is_stmt 0
 2172 0dd4 97000000 		call	thread_dispatch@plt
 2172      E7800000 
 2173              	.LVL247:
 2174              	.LEHE39:
 404:src/Tests.cpp ****         if(y == 200000)
 2175              		.loc 1 404 9 is_stmt 1
 2176 0ddc B7170300 		li	a5,200704
GAS LISTING /tmp/ccO13uu5.s 			page 56


 2177 0de0 938707D4 		addi	a5,a5,-704
 2178 0de4 E396F4FE 		bne	s1,a5,.L130
 405:src/Tests.cpp ****             break;
 406:src/Tests.cpp ****     }
 407:src/Tests.cpp **** 
 408:src/Tests.cpp **** }
 2179              		.loc 1 408 1 is_stmt 0
 2180 0de8 83308102 		ld	ra,40(sp)
 2181              		.cfi_remember_state
 2182              		.cfi_restore 1
 2183 0dec 03340102 		ld	s0,32(sp)
 2184              		.cfi_restore 8
 2185              		.cfi_def_cfa 2, 48
 2186 0df0 83348101 		ld	s1,24(sp)
 2187              		.cfi_restore 9
 2188 0df4 03390101 		ld	s2,16(sp)
 2189              		.cfi_restore 18
 2190              	.LVL248:
 2191 0df8 83398100 		ld	s3,8(sp)
 2192              		.cfi_restore 19
 2193              	.LVL249:
 2194 0dfc 13010103 		addi	sp,sp,48
 2195              		.cfi_def_cfa_offset 0
 2196 0e00 67800000 		jr	ra
 2197              	.L137:
 2198              		.cfi_restore_state
 2199 0e04 13090500 		mv	s2,a0
 389:src/Tests.cpp ****     s2 = new Semaphore(0);
 2200              		.loc 1 389 25
 2201 0e08 13850400 		mv	a0,s1
 2202 0e0c 97000000 		call	_ZdlPv@plt
 2202      E7800000 
 2203              	.LVL250:
 2204 0e14 13050900 		mv	a0,s2
 2205              	.LEHB40:
 2206 0e18 97000000 		call	_Unwind_Resume@plt
 2206      E7800000 
 2207              	.LVL251:
 2208              	.LEHE40:
 2209              	.L138:
 2210 0e20 13090500 		mv	s2,a0
 390:src/Tests.cpp ****     s3 = new Semaphore(0);
 2211              		.loc 1 390 25
 2212 0e24 13850400 		mv	a0,s1
 2213 0e28 97000000 		call	_ZdlPv@plt
 2213      E7800000 
 2214              	.LVL252:
 2215 0e30 13050900 		mv	a0,s2
 2216              	.LEHB41:
 2217 0e34 97000000 		call	_Unwind_Resume@plt
 2217      E7800000 
 2218              	.LVL253:
 2219              	.LEHE41:
 2220              	.L139:
 2221 0e3c 13090500 		mv	s2,a0
 391:src/Tests.cpp ****     Thread* t1 = new Thread(&f1_2, 0);
 2222              		.loc 1 391 25
GAS LISTING /tmp/ccO13uu5.s 			page 57


 2223 0e40 13850400 		mv	a0,s1
 2224 0e44 97000000 		call	_ZdlPv@plt
 2224      E7800000 
 2225              	.LVL254:
 2226 0e4c 13050900 		mv	a0,s2
 2227              	.LEHB42:
 2228 0e50 97000000 		call	_Unwind_Resume@plt
 2228      E7800000 
 2229              	.LVL255:
 2230              	.LEHE42:
 2231              	.L140:
 2232 0e58 93040500 		mv	s1,a0
 392:src/Tests.cpp ****     Thread* t2 = new Thread(&f2_2, 0);
 2233              		.loc 1 392 37
 2234 0e5c 13850900 		mv	a0,s3
 2235 0e60 97000000 		call	_ZdlPv@plt
 2235      E7800000 
 2236              	.LVL256:
 2237 0e68 13850400 		mv	a0,s1
 2238              	.LEHB43:
 2239 0e6c 97000000 		call	_Unwind_Resume@plt
 2239      E7800000 
 2240              	.LVL257:
 2241              	.LEHE43:
 2242              	.L141:
 2243 0e74 93040500 		mv	s1,a0
 393:src/Tests.cpp ****     Thread* t3 = new Thread(&f3_2, 0);
 2244              		.loc 1 393 37
 2245 0e78 13050900 		mv	a0,s2
 2246 0e7c 97000000 		call	_ZdlPv@plt
 2246      E7800000 
 2247              	.LVL258:
 2248 0e84 13850400 		mv	a0,s1
 2249              	.LEHB44:
 2250 0e88 97000000 		call	_Unwind_Resume@plt
 2250      E7800000 
 2251              	.LVL259:
 2252              	.LEHE44:
 2253              	.L142:
 2254 0e90 13090500 		mv	s2,a0
 2255              	.LVL260:
 394:src/Tests.cpp ****     t3->start();
 2256              		.loc 1 394 37
 2257 0e94 13850400 		mv	a0,s1
 2258 0e98 97000000 		call	_ZdlPv@plt
 2258      E7800000 
 2259              	.LVL261:
 2260 0ea0 13050900 		mv	a0,s2
 2261              	.LEHB45:
 2262 0ea4 97000000 		call	_Unwind_Resume@plt
 2262      E7800000 
 2263              	.LVL262:
 2264              	.LEHE45:
 2265              		.cfi_endproc
 2266              	.LFE41:
 2267              		.section	.gcc_except_table
 2268              	.LLSDA41:
GAS LISTING /tmp/ccO13uu5.s 			page 58


 2269 016d FF       		.byte	0xff
 2270 016e FF       		.byte	0xff
 2271 016f 03       		.byte	0x3
 2272 0170 F701     		.byte	0xf7,0x1
 2273 0172 00000000 		.4byte	.LEHB27-.LFB41
 2274 0176 00000000 		.4byte	.LEHE27-.LEHB27
 2275 017a 00000000 		.4byte	0
 2276 017e 00       		.byte	0
 2277 017f 00000000 		.4byte	.LEHB28-.LFB41
 2278 0183 00000000 		.4byte	.LEHE28-.LEHB28
 2279 0187 00000000 		.4byte	.L137-.LFB41
 2280 018b 00       		.byte	0
 2281 018c 00000000 		.4byte	.LEHB29-.LFB41
 2282 0190 00000000 		.4byte	.LEHE29-.LEHB29
 2283 0194 00000000 		.4byte	0
 2284 0198 00       		.byte	0
 2285 0199 00000000 		.4byte	.LEHB30-.LFB41
 2286 019d 00000000 		.4byte	.LEHE30-.LEHB30
 2287 01a1 00000000 		.4byte	.L138-.LFB41
 2288 01a5 00       		.byte	0
 2289 01a6 00000000 		.4byte	.LEHB31-.LFB41
 2290 01aa 00000000 		.4byte	.LEHE31-.LEHB31
 2291 01ae 00000000 		.4byte	0
 2292 01b2 00       		.byte	0
 2293 01b3 00000000 		.4byte	.LEHB32-.LFB41
 2294 01b7 00000000 		.4byte	.LEHE32-.LEHB32
 2295 01bb 00000000 		.4byte	.L139-.LFB41
 2296 01bf 00       		.byte	0
 2297 01c0 00000000 		.4byte	.LEHB33-.LFB41
 2298 01c4 00000000 		.4byte	.LEHE33-.LEHB33
 2299 01c8 00000000 		.4byte	0
 2300 01cc 00       		.byte	0
 2301 01cd 00000000 		.4byte	.LEHB34-.LFB41
 2302 01d1 00000000 		.4byte	.LEHE34-.LEHB34
 2303 01d5 00000000 		.4byte	.L140-.LFB41
 2304 01d9 00       		.byte	0
 2305 01da 00000000 		.4byte	.LEHB35-.LFB41
 2306 01de 00000000 		.4byte	.LEHE35-.LEHB35
 2307 01e2 00000000 		.4byte	0
 2308 01e6 00       		.byte	0
 2309 01e7 00000000 		.4byte	.LEHB36-.LFB41
 2310 01eb 00000000 		.4byte	.LEHE36-.LEHB36
 2311 01ef 00000000 		.4byte	.L141-.LFB41
 2312 01f3 00       		.byte	0
 2313 01f4 00000000 		.4byte	.LEHB37-.LFB41
 2314 01f8 00000000 		.4byte	.LEHE37-.LEHB37
 2315 01fc 00000000 		.4byte	0
 2316 0200 00       		.byte	0
 2317 0201 00000000 		.4byte	.LEHB38-.LFB41
 2318 0205 00000000 		.4byte	.LEHE38-.LEHB38
 2319 0209 00000000 		.4byte	.L142-.LFB41
 2320 020d 00       		.byte	0
 2321 020e 00000000 		.4byte	.LEHB39-.LFB41
 2322 0212 00000000 		.4byte	.LEHE39-.LEHB39
 2323 0216 00000000 		.4byte	0
 2324 021a 00       		.byte	0
 2325 021b 00000000 		.4byte	.LEHB40-.LFB41
GAS LISTING /tmp/ccO13uu5.s 			page 59


 2326 021f 00000000 		.4byte	.LEHE40-.LEHB40
 2327 0223 00000000 		.4byte	0
 2328 0227 00       		.byte	0
 2329 0228 00000000 		.4byte	.LEHB41-.LFB41
 2330 022c 00000000 		.4byte	.LEHE41-.LEHB41
 2331 0230 00000000 		.4byte	0
 2332 0234 00       		.byte	0
 2333 0235 00000000 		.4byte	.LEHB42-.LFB41
 2334 0239 00000000 		.4byte	.LEHE42-.LEHB42
 2335 023d 00000000 		.4byte	0
 2336 0241 00       		.byte	0
 2337 0242 00000000 		.4byte	.LEHB43-.LFB41
 2338 0246 00000000 		.4byte	.LEHE43-.LEHB43
 2339 024a 00000000 		.4byte	0
 2340 024e 00       		.byte	0
 2341 024f 00000000 		.4byte	.LEHB44-.LFB41
 2342 0253 00000000 		.4byte	.LEHE44-.LEHB44
 2343 0257 00000000 		.4byte	0
 2344 025b 00       		.byte	0
 2345 025c 00000000 		.4byte	.LEHB45-.LFB41
 2346 0260 00000000 		.4byte	.LEHE45-.LEHB45
 2347 0264 00000000 		.4byte	0
 2348 0268 00       		.byte	0
 2349              		.text
 2351              		.align	2
 2352              		.globl	_Z14semaphoreTestsv
 2354              	_Z14semaphoreTestsv:
 2355              	.LFB42:
 409:src/Tests.cpp **** 
 410:src/Tests.cpp **** void semaphoreTests()
 411:src/Tests.cpp **** {
 2356              		.loc 1 411 1 is_stmt 1
 2357              		.cfi_startproc
 2358 0eac 130101FF 		addi	sp,sp,-16
 2359              		.cfi_def_cfa_offset 16
 2360 0eb0 23341100 		sd	ra,8(sp)
 2361 0eb4 23308100 		sd	s0,0(sp)
 2362              		.cfi_offset 1, -8
 2363              		.cfi_offset 8, -16
 2364 0eb8 13040101 		addi	s0,sp,16
 2365              		.cfi_def_cfa 8, 0
 412:src/Tests.cpp ****     //semTest1();
 413:src/Tests.cpp ****     semTest2();
 2366              		.loc 1 413 5
 2367              		.loc 1 413 13 is_stmt 0
 2368 0ebc 97000000 		call	_Z8semTest2v
 2368      E7800000 
 2369              	.LVL263:
 414:src/Tests.cpp **** }
 2370              		.loc 1 414 1
 2371 0ec4 83308100 		ld	ra,8(sp)
 2372              		.cfi_restore 1
 2373 0ec8 03340100 		ld	s0,0(sp)
 2374              		.cfi_restore 8
 2375              		.cfi_def_cfa 2, 16
 2376 0ecc 13010101 		addi	sp,sp,16
 2377              		.cfi_def_cfa_offset 0
GAS LISTING /tmp/ccO13uu5.s 			page 60


 2378 0ed0 67800000 		jr	ra
 2379              		.cfi_endproc
 2380              	.LFE42:
 2382              		.align	2
 2383              		.globl	_Z7myTestsv
 2385              	_Z7myTestsv:
 2386              	.LFB43:
 415:src/Tests.cpp **** 
 416:src/Tests.cpp **** void myTests()
 417:src/Tests.cpp **** {
 2387              		.loc 1 417 1 is_stmt 1
 2388              		.cfi_startproc
 2389 0ed4 130101FF 		addi	sp,sp,-16
 2390              		.cfi_def_cfa_offset 16
 2391 0ed8 23341100 		sd	ra,8(sp)
 2392 0edc 23308100 		sd	s0,0(sp)
 2393              		.cfi_offset 1, -8
 2394              		.cfi_offset 8, -16
 2395 0ee0 13040101 		addi	s0,sp,16
 2396              		.cfi_def_cfa 8, 0
 418:src/Tests.cpp ****     //memoryAllocationTests();
 419:src/Tests.cpp ****     //threadTests();
 420:src/Tests.cpp ****     //testQueue();
 421:src/Tests.cpp ****     semaphoreTests();
 2397              		.loc 1 421 5
 2398              		.loc 1 421 19 is_stmt 0
 2399 0ee4 97000000 		call	_Z14semaphoreTestsv
 2399      E7800000 
 2400              	.LVL264:
 422:src/Tests.cpp **** }
 2401              		.loc 1 422 1
 2402 0eec 83308100 		ld	ra,8(sp)
 2403              		.cfi_restore 1
 2404 0ef0 03340100 		ld	s0,0(sp)
 2405              		.cfi_restore 8
 2406              		.cfi_def_cfa 2, 16
 2407 0ef4 13010101 		addi	sp,sp,16
 2408              		.cfi_def_cfa_offset 0
 2409 0ef8 67800000 		jr	ra
 2410              		.cfi_endproc
 2411              	.LFE43:
 2413              		.bss
 2414              		.align	3
 2415              		.set	.LANCHOR0,. + 0
 2418              	_ZL5mutex:
 2419 0000 00000000 		.zero	8
 2419      00000000 
 2422              	_ZL2s1:
 2423 0008 00000000 		.zero	8
 2423      00000000 
 2426              	_ZL2s2:
 2427 0010 00000000 		.zero	8
 2427      00000000 
 2430              	_ZL2s3:
 2431 0018 00000000 		.zero	8
 2431      00000000 
 2432              		.text
GAS LISTING /tmp/ccO13uu5.s 			page 61


 2433              	.Letext0:
 2434              		.file 3 "src/../h/../lib/hw.h"
 2435              		.file 4 "src/../h/Riscv.hpp"
 2436              		.file 5 "src/../h/Tests.hpp"
 2437              		.file 6 "src/../h/syscall_cpp.hpp"
 2438              		.file 7 "src/../h/syscall_c.h"
 2439              		.file 8 "src/../lib/console.h"
 7963              		.align	3
 7966              	DW.ref.__gxx_personality_v0:
 7967 0000 00000000 		.dword	__gxx_personality_v0
 7967      00000000 
 7968              		.ident	"GCC: (Ubuntu 9.3.0-17ubuntu1~20.04) 9.3.0"
 7969              		.section	.note.GNU-stack,"",@progbits
GAS LISTING /tmp/ccO13uu5.s 			page 62


DEFINED SYMBOLS
                            *ABS*:0000000000000000 Tests.cpp
     /tmp/ccO13uu5.s:14     .text:0000000000000000 _Z4idlePv
     /tmp/ccO13uu5.s:18     .text:0000000000000000 .L0 
     /tmp/ccO13uu5.s:20     .text:0000000000000000 .L0 
     /tmp/ccO13uu5.s:21     .text:0000000000000004 .L0 
     /tmp/ccO13uu5.s:24     .text:000000000000000c .L0 
     /tmp/ccO13uu5.s:25     .text:000000000000000c .L0 
     /tmp/ccO13uu5.s:27     .text:0000000000000010 .L0 
     /tmp/ccO13uu5.s:31     .text:0000000000000010 .L0 
     /tmp/ccO13uu5.s:32     .text:0000000000000010 .L0 
     /tmp/ccO13uu5.s:33     .text:0000000000000010 .L0 
     /tmp/ccO13uu5.s:37     .text:0000000000000020 .L0 
     /tmp/ccO13uu5.s:38     .text:0000000000000020 .L0 
     /tmp/ccO13uu5.s:41     .text:0000000000000028 .L0 
     /tmp/ccO13uu5.s:42     .text:000000000000002c .L0 
     /tmp/ccO13uu5.s:59     .text:000000000000002c _Z15thread1FunctionPv
     /tmp/ccO13uu5.s:62     .text:000000000000002c .L0 
     /tmp/ccO13uu5.s:64     .text:000000000000002c .L0 
     /tmp/ccO13uu5.s:65     .text:0000000000000030 .L0 
     /tmp/ccO13uu5.s:69     .text:000000000000003c .L0 
     /tmp/ccO13uu5.s:70     .text:000000000000003c .L0 
     /tmp/ccO13uu5.s:71     .text:000000000000003c .L0 
     /tmp/ccO13uu5.s:73     .text:0000000000000040 .L0 
     /tmp/ccO13uu5.s:75     .text:0000000000000040 .L0 
     /tmp/ccO13uu5.s:76     .text:0000000000000040 .L0 
     /tmp/ccO13uu5.s:81     .text:0000000000000050 .L0 
     /tmp/ccO13uu5.s:83     .text:0000000000000050 .L0 
     /tmp/ccO13uu5.s:84     .text:0000000000000050 .L0 
     /tmp/ccO13uu5.s:89     .text:0000000000000058 .L0 
     /tmp/ccO13uu5.s:90     .text:0000000000000058 .L0 
     /tmp/ccO13uu5.s:94     .text:0000000000000060 .L0 
     /tmp/ccO13uu5.s:95     .text:0000000000000060 .L0 
     /tmp/ccO13uu5.s:99     .text:0000000000000070 .L0 
     /tmp/ccO13uu5.s:100    .text:0000000000000070 .L0 
     /tmp/ccO13uu5.s:104    .text:000000000000007c .L0 
     /tmp/ccO13uu5.s:105    .text:000000000000007c .L0 
     /tmp/ccO13uu5.s:109    .text:000000000000008c .L0 
     /tmp/ccO13uu5.s:113    .text:0000000000000090 .L0 
     /tmp/ccO13uu5.s:117    .text:000000000000009c .L0 
     /tmp/ccO13uu5.s:118    .text:000000000000009c .L0 
     /tmp/ccO13uu5.s:121    .text:00000000000000a4 .L0 
     /tmp/ccO13uu5.s:123    .text:00000000000000a8 .L0 
     /tmp/ccO13uu5.s:128    .text:00000000000000b0 .L0 
     /tmp/ccO13uu5.s:129    .text:00000000000000b4 .L0 
     /tmp/ccO13uu5.s:131    .text:00000000000000b8 .L0 
     /tmp/ccO13uu5.s:132    .text:00000000000000b8 .L0 
     /tmp/ccO13uu5.s:134    .text:00000000000000bc .L0 
     /tmp/ccO13uu5.s:137    .text:00000000000000c0 .L0 
     /tmp/ccO13uu5.s:139    .text:00000000000000c4 .L0 
     /tmp/ccO13uu5.s:153    .text:00000000000000c4 _Z15thread2FunctionPv
     /tmp/ccO13uu5.s:156    .text:00000000000000c4 .L0 
     /tmp/ccO13uu5.s:158    .text:00000000000000c4 .L0 
     /tmp/ccO13uu5.s:159    .text:00000000000000c8 .L0 
     /tmp/ccO13uu5.s:163    .text:00000000000000d4 .L0 
     /tmp/ccO13uu5.s:164    .text:00000000000000d4 .L0 
     /tmp/ccO13uu5.s:165    .text:00000000000000d4 .L0 
GAS LISTING /tmp/ccO13uu5.s 			page 63


     /tmp/ccO13uu5.s:167    .text:00000000000000d8 .L0 
     /tmp/ccO13uu5.s:169    .text:00000000000000d8 .L0 
     /tmp/ccO13uu5.s:170    .text:00000000000000d8 .L0 
     /tmp/ccO13uu5.s:175    .text:00000000000000e8 .L0 
     /tmp/ccO13uu5.s:177    .text:00000000000000e8 .L0 
     /tmp/ccO13uu5.s:178    .text:00000000000000e8 .L0 
     /tmp/ccO13uu5.s:183    .text:00000000000000f0 .L0 
     /tmp/ccO13uu5.s:184    .text:00000000000000f0 .L0 
     /tmp/ccO13uu5.s:188    .text:00000000000000f8 .L0 
     /tmp/ccO13uu5.s:189    .text:00000000000000f8 .L0 
     /tmp/ccO13uu5.s:193    .text:0000000000000108 .L0 
     /tmp/ccO13uu5.s:194    .text:0000000000000108 .L0 
     /tmp/ccO13uu5.s:198    .text:0000000000000114 .L0 
     /tmp/ccO13uu5.s:199    .text:0000000000000114 .L0 
     /tmp/ccO13uu5.s:203    .text:0000000000000124 .L0 
     /tmp/ccO13uu5.s:207    .text:0000000000000128 .L0 
     /tmp/ccO13uu5.s:211    .text:0000000000000134 .L0 
     /tmp/ccO13uu5.s:212    .text:0000000000000134 .L0 
     /tmp/ccO13uu5.s:215    .text:000000000000013c .L0 
     /tmp/ccO13uu5.s:217    .text:0000000000000140 .L0 
     /tmp/ccO13uu5.s:222    .text:0000000000000148 .L0 
     /tmp/ccO13uu5.s:223    .text:000000000000014c .L0 
     /tmp/ccO13uu5.s:225    .text:0000000000000150 .L0 
     /tmp/ccO13uu5.s:226    .text:0000000000000150 .L0 
     /tmp/ccO13uu5.s:228    .text:0000000000000154 .L0 
     /tmp/ccO13uu5.s:231    .text:0000000000000158 .L0 
     /tmp/ccO13uu5.s:233    .text:000000000000015c .L0 
     /tmp/ccO13uu5.s:239    .text:000000000000015c _Z20thread2FunctionTest2Pv
     /tmp/ccO13uu5.s:242    .text:000000000000015c .L0 
     /tmp/ccO13uu5.s:244    .text:000000000000015c .L0 
     /tmp/ccO13uu5.s:245    .text:0000000000000160 .L0 
     /tmp/ccO13uu5.s:249    .text:000000000000016c .L0 
     /tmp/ccO13uu5.s:250    .text:000000000000016c .L0 
     /tmp/ccO13uu5.s:251    .text:000000000000016c .L0 
     /tmp/ccO13uu5.s:253    .text:0000000000000170 .L0 
     /tmp/ccO13uu5.s:255    .text:0000000000000170 .L0 
     /tmp/ccO13uu5.s:256    .text:0000000000000170 .L0 
     /tmp/ccO13uu5.s:261    .text:0000000000000180 .L0 
     /tmp/ccO13uu5.s:263    .text:0000000000000180 .L0 
     /tmp/ccO13uu5.s:264    .text:0000000000000180 .L0 
     /tmp/ccO13uu5.s:269    .text:0000000000000188 .L0 
     /tmp/ccO13uu5.s:270    .text:0000000000000188 .L0 
     /tmp/ccO13uu5.s:275    .text:0000000000000194 .L0 
     /tmp/ccO13uu5.s:276    .text:0000000000000194 .L0 
     /tmp/ccO13uu5.s:280    .text:000000000000019c .L0 
     /tmp/ccO13uu5.s:281    .text:000000000000019c .L0 
     /tmp/ccO13uu5.s:285    .text:00000000000001ac .L0 
     /tmp/ccO13uu5.s:286    .text:00000000000001ac .L0 
     /tmp/ccO13uu5.s:290    .text:00000000000001b8 .L0 
     /tmp/ccO13uu5.s:291    .text:00000000000001b8 .L0 
     /tmp/ccO13uu5.s:295    .text:00000000000001c8 .L0 
     /tmp/ccO13uu5.s:299    .text:00000000000001cc .L0 
     /tmp/ccO13uu5.s:303    .text:00000000000001d8 .L0 
     /tmp/ccO13uu5.s:307    .text:00000000000001e0 .L0 
     /tmp/ccO13uu5.s:308    .text:00000000000001e0 .L0 
     /tmp/ccO13uu5.s:311    .text:00000000000001e8 .L0 
     /tmp/ccO13uu5.s:313    .text:00000000000001ec .L0 
GAS LISTING /tmp/ccO13uu5.s 			page 64


     /tmp/ccO13uu5.s:318    .text:00000000000001f4 .L0 
     /tmp/ccO13uu5.s:319    .text:00000000000001f8 .L0 
     /tmp/ccO13uu5.s:321    .text:00000000000001fc .L0 
     /tmp/ccO13uu5.s:322    .text:00000000000001fc .L0 
     /tmp/ccO13uu5.s:324    .text:0000000000000200 .L0 
     /tmp/ccO13uu5.s:327    .text:0000000000000204 .L0 
     /tmp/ccO13uu5.s:329    .text:0000000000000208 .L0 
     /tmp/ccO13uu5.s:340    .text:0000000000000208 _Z2f1Pv
     /tmp/ccO13uu5.s:343    .text:0000000000000208 .L0 
     /tmp/ccO13uu5.s:345    .text:0000000000000208 .L0 
     /tmp/ccO13uu5.s:346    .text:000000000000020c .L0 
     /tmp/ccO13uu5.s:351    .text:000000000000021c .L0 
     /tmp/ccO13uu5.s:352    .text:000000000000021c .L0 
     /tmp/ccO13uu5.s:353    .text:000000000000021c .L0 
     /tmp/ccO13uu5.s:354    .text:000000000000021c .L0 
     /tmp/ccO13uu5.s:356    .text:0000000000000220 .L0 
     /tmp/ccO13uu5.s:358    .text:0000000000000220 .L0 
     /tmp/ccO13uu5.s:359    .text:0000000000000220 .L0 
     /tmp/ccO13uu5.s:364    .text:0000000000000230 .L0 
     /tmp/ccO13uu5.s:365    .text:0000000000000230 .L0 
     /tmp/ccO13uu5.s:370    .text:0000000000000238 .L0 
     /tmp/ccO13uu5.s:371    .text:0000000000000238 .L0 
     /tmp/ccO13uu5.s:375    .text:0000000000000240 .L0 
     /tmp/ccO13uu5.s:376    .text:0000000000000240 .L0 
     /tmp/ccO13uu5.s:377    .text:0000000000000240 .L0 
     /tmp/ccO13uu5.s:380    .text:0000000000000244 .L0 
     /tmp/ccO13uu5.s:381    .text:0000000000000244 .L0 
     /tmp/ccO13uu5.s:386    .text:0000000000000258 .L0 
     /tmp/ccO13uu5.s:387    .text:0000000000000258 .L0 
     /tmp/ccO13uu5.s:391    .text:0000000000000264 .L0 
     /tmp/ccO13uu5.s:395    .text:0000000000000270 .L0 
     /tmp/ccO13uu5.s:396    .text:0000000000000270 .L0 
     /tmp/ccO13uu5.s:399    .text:000000000000027c .L0 
     /tmp/ccO13uu5.s:410    .text:000000000000027c _Z2f2Pv
     /tmp/ccO13uu5.s:413    .text:000000000000027c .L0 
     /tmp/ccO13uu5.s:415    .text:000000000000027c .L0 
     /tmp/ccO13uu5.s:416    .text:0000000000000280 .L0 
     /tmp/ccO13uu5.s:420    .text:000000000000028c .L0 
     /tmp/ccO13uu5.s:421    .text:000000000000028c .L0 
     /tmp/ccO13uu5.s:422    .text:000000000000028c .L0 
     /tmp/ccO13uu5.s:424    .text:0000000000000290 .L0 
     /tmp/ccO13uu5.s:426    .text:0000000000000290 .L0 
     /tmp/ccO13uu5.s:427    .text:0000000000000290 .L0 
     /tmp/ccO13uu5.s:433    .text:00000000000002a0 .L0 
     /tmp/ccO13uu5.s:434    .text:00000000000002a0 .L0 
     /tmp/ccO13uu5.s:435    .text:00000000000002a0 .L0 
     /tmp/ccO13uu5.s:436    .text:00000000000002a0 .L0 
     /tmp/ccO13uu5.s:441    .text:00000000000002b4 .L0 
     /tmp/ccO13uu5.s:442    .text:00000000000002b4 .L0 
     /tmp/ccO13uu5.s:446    .text:00000000000002c0 .L0 
     /tmp/ccO13uu5.s:447    .text:00000000000002c0 .L0 
     /tmp/ccO13uu5.s:448    .text:00000000000002c0 .L0 
     /tmp/ccO13uu5.s:451    .text:00000000000002cc .L0 
     /tmp/ccO13uu5.s:462    .text:00000000000002cc _Z4f1_2Pv
     /tmp/ccO13uu5.s:465    .text:00000000000002cc .L0 
     /tmp/ccO13uu5.s:467    .text:00000000000002cc .L0 
     /tmp/ccO13uu5.s:468    .text:00000000000002d0 .L0 
GAS LISTING /tmp/ccO13uu5.s 			page 65


     /tmp/ccO13uu5.s:473    .text:00000000000002e0 .L0 
     /tmp/ccO13uu5.s:474    .text:00000000000002e0 .L0 
     /tmp/ccO13uu5.s:475    .text:00000000000002e0 .L0 
     /tmp/ccO13uu5.s:476    .text:00000000000002e0 .L0 
     /tmp/ccO13uu5.s:478    .text:00000000000002e4 .L0 
     /tmp/ccO13uu5.s:480    .text:00000000000002e4 .L0 
     /tmp/ccO13uu5.s:481    .text:00000000000002e4 .L0 
     /tmp/ccO13uu5.s:486    .text:00000000000002f4 .L0 
     /tmp/ccO13uu5.s:487    .text:00000000000002f4 .L0 
     /tmp/ccO13uu5.s:492    .text:00000000000002fc .L0 
     /tmp/ccO13uu5.s:493    .text:00000000000002fc .L0 
     /tmp/ccO13uu5.s:497    .text:0000000000000304 .L0 
     /tmp/ccO13uu5.s:498    .text:0000000000000304 .L0 
     /tmp/ccO13uu5.s:499    .text:0000000000000304 .L0 
     /tmp/ccO13uu5.s:502    .text:0000000000000308 .L0 
     /tmp/ccO13uu5.s:503    .text:0000000000000308 .L0 
     /tmp/ccO13uu5.s:508    .text:000000000000031c .L0 
     /tmp/ccO13uu5.s:509    .text:000000000000031c .L0 
     /tmp/ccO13uu5.s:513    .text:0000000000000328 .L0 
     /tmp/ccO13uu5.s:514    .text:0000000000000328 .L0 
     /tmp/ccO13uu5.s:518    .text:0000000000000334 .L0 
     /tmp/ccO13uu5.s:519    .text:0000000000000334 .L0 
     /tmp/ccO13uu5.s:523    .text:0000000000000340 .L0 
     /tmp/ccO13uu5.s:527    .text:000000000000034c .L0 
     /tmp/ccO13uu5.s:528    .text:000000000000034c .L0 
     /tmp/ccO13uu5.s:531    .text:0000000000000358 .L0 
     /tmp/ccO13uu5.s:542    .text:0000000000000358 _Z4f2_2Pv
     /tmp/ccO13uu5.s:545    .text:0000000000000358 .L0 
     /tmp/ccO13uu5.s:547    .text:0000000000000358 .L0 
     /tmp/ccO13uu5.s:548    .text:000000000000035c .L0 
     /tmp/ccO13uu5.s:553    .text:000000000000036c .L0 
     /tmp/ccO13uu5.s:554    .text:000000000000036c .L0 
     /tmp/ccO13uu5.s:555    .text:000000000000036c .L0 
     /tmp/ccO13uu5.s:556    .text:000000000000036c .L0 
     /tmp/ccO13uu5.s:558    .text:0000000000000370 .L0 
     /tmp/ccO13uu5.s:560    .text:0000000000000370 .L0 
     /tmp/ccO13uu5.s:561    .text:0000000000000370 .L0 
     /tmp/ccO13uu5.s:566    .text:0000000000000380 .L0 
     /tmp/ccO13uu5.s:567    .text:0000000000000380 .L0 
     /tmp/ccO13uu5.s:572    .text:0000000000000388 .L0 
     /tmp/ccO13uu5.s:573    .text:0000000000000388 .L0 
     /tmp/ccO13uu5.s:577    .text:0000000000000390 .L0 
     /tmp/ccO13uu5.s:578    .text:0000000000000390 .L0 
     /tmp/ccO13uu5.s:579    .text:0000000000000390 .L0 
     /tmp/ccO13uu5.s:582    .text:0000000000000394 .L0 
     /tmp/ccO13uu5.s:583    .text:0000000000000394 .L0 
     /tmp/ccO13uu5.s:588    .text:00000000000003a8 .L0 
     /tmp/ccO13uu5.s:589    .text:00000000000003a8 .L0 
     /tmp/ccO13uu5.s:593    .text:00000000000003b4 .L0 
     /tmp/ccO13uu5.s:594    .text:00000000000003b4 .L0 
     /tmp/ccO13uu5.s:598    .text:00000000000003c0 .L0 
     /tmp/ccO13uu5.s:599    .text:00000000000003c0 .L0 
     /tmp/ccO13uu5.s:603    .text:00000000000003cc .L0 
     /tmp/ccO13uu5.s:607    .text:00000000000003d8 .L0 
     /tmp/ccO13uu5.s:608    .text:00000000000003d8 .L0 
     /tmp/ccO13uu5.s:611    .text:00000000000003e4 .L0 
     /tmp/ccO13uu5.s:622    .text:00000000000003e4 _Z4f3_2Pv
GAS LISTING /tmp/ccO13uu5.s 			page 66


     /tmp/ccO13uu5.s:625    .text:00000000000003e4 .L0 
     /tmp/ccO13uu5.s:627    .text:00000000000003e4 .L0 
     /tmp/ccO13uu5.s:628    .text:00000000000003e8 .L0 
     /tmp/ccO13uu5.s:633    .text:00000000000003f8 .L0 
     /tmp/ccO13uu5.s:634    .text:00000000000003f8 .L0 
     /tmp/ccO13uu5.s:635    .text:00000000000003f8 .L0 
     /tmp/ccO13uu5.s:636    .text:00000000000003f8 .L0 
     /tmp/ccO13uu5.s:638    .text:00000000000003fc .L0 
     /tmp/ccO13uu5.s:640    .text:00000000000003fc .L0 
     /tmp/ccO13uu5.s:641    .text:00000000000003fc .L0 
     /tmp/ccO13uu5.s:646    .text:000000000000040c .L0 
     /tmp/ccO13uu5.s:647    .text:000000000000040c .L0 
     /tmp/ccO13uu5.s:652    .text:0000000000000414 .L0 
     /tmp/ccO13uu5.s:653    .text:0000000000000414 .L0 
     /tmp/ccO13uu5.s:657    .text:000000000000041c .L0 
     /tmp/ccO13uu5.s:658    .text:000000000000041c .L0 
     /tmp/ccO13uu5.s:659    .text:000000000000041c .L0 
     /tmp/ccO13uu5.s:662    .text:0000000000000420 .L0 
     /tmp/ccO13uu5.s:663    .text:0000000000000420 .L0 
     /tmp/ccO13uu5.s:668    .text:0000000000000434 .L0 
     /tmp/ccO13uu5.s:669    .text:0000000000000434 .L0 
     /tmp/ccO13uu5.s:673    .text:0000000000000440 .L0 
     /tmp/ccO13uu5.s:674    .text:0000000000000440 .L0 
     /tmp/ccO13uu5.s:678    .text:000000000000044c .L0 
     /tmp/ccO13uu5.s:679    .text:000000000000044c .L0 
     /tmp/ccO13uu5.s:683    .text:0000000000000458 .L0 
     /tmp/ccO13uu5.s:687    .text:0000000000000464 .L0 
     /tmp/ccO13uu5.s:688    .text:0000000000000464 .L0 
     /tmp/ccO13uu5.s:691    .text:0000000000000470 .L0 
     /tmp/ccO13uu5.s:705    .text:0000000000000470 _Z11threadTest1v
     /tmp/ccO13uu5.s:708    .text:0000000000000470 .L0 
     /tmp/ccO13uu5.s:7966   .data.rel.local.DW.ref.__gxx_personality_v0:0000000000000000 DW.ref.__gxx_personality_v0
     /tmp/ccO13uu5.s:711    .text:0000000000000470 .L0 
     /tmp/ccO13uu5.s:712    .text:0000000000000474 .L0 
     /tmp/ccO13uu5.s:717    .text:0000000000000484 .L0 
     /tmp/ccO13uu5.s:718    .text:0000000000000484 .L0 
     /tmp/ccO13uu5.s:719    .text:0000000000000484 .L0 
     /tmp/ccO13uu5.s:720    .text:0000000000000484 .L0 
     /tmp/ccO13uu5.s:722    .text:0000000000000488 .L0 
     /tmp/ccO13uu5.s:724    .text:0000000000000488 .L0 
     /tmp/ccO13uu5.s:725    .text:0000000000000488 .L0 
     /tmp/ccO13uu5.s:738    .text:00000000000004ac .L0 
     /tmp/ccO13uu5.s:739    .text:00000000000004ac .L0 
     /tmp/ccO13uu5.s:744    .text:00000000000004b8 .L0 
     /tmp/ccO13uu5.s:745    .text:00000000000004b8 .L0 
     /tmp/ccO13uu5.s:757    .text:00000000000004dc .L0 
     /tmp/ccO13uu5.s:758    .text:00000000000004dc .L0 
     /tmp/ccO13uu5.s:763    .text:00000000000004e8 .L0 
     /tmp/ccO13uu5.s:764    .text:00000000000004e8 .L0 
     /tmp/ccO13uu5.s:769    .text:00000000000004f4 .L0 
     /tmp/ccO13uu5.s:770    .text:00000000000004f4 .L0 
     /tmp/ccO13uu5.s:774    .text:0000000000000504 .L0 
     /tmp/ccO13uu5.s:775    .text:0000000000000504 .L0 
     /tmp/ccO13uu5.s:779    .text:000000000000050c .L0 
     /tmp/ccO13uu5.s:780    .text:000000000000050c .L0 
     /tmp/ccO13uu5.s:781    .text:000000000000050c .L0 
     /tmp/ccO13uu5.s:787    .text:0000000000000510 .L0 
GAS LISTING /tmp/ccO13uu5.s 			page 67


     /tmp/ccO13uu5.s:788    .text:0000000000000510 .L0 
     /tmp/ccO13uu5.s:793    .text:0000000000000514 .L0 
     /tmp/ccO13uu5.s:796    .text:000000000000051c .L0 
     /tmp/ccO13uu5.s:801    .text:0000000000000520 .L0 
     /tmp/ccO13uu5.s:802    .text:0000000000000520 .L0 
     /tmp/ccO13uu5.s:807    .text:0000000000000524 .L0 
     /tmp/ccO13uu5.s:810    .text:000000000000052c .L0 
     /tmp/ccO13uu5.s:811    .text:000000000000052c .L0 
     /tmp/ccO13uu5.s:815    .text:000000000000053c .L0 
     /tmp/ccO13uu5.s:816    .text:000000000000053c .L0 
     /tmp/ccO13uu5.s:820    .text:0000000000000544 .L0 
     /tmp/ccO13uu5.s:821    .text:0000000000000548 .L0 
     /tmp/ccO13uu5.s:822    .text:0000000000000548 .L0 
     /tmp/ccO13uu5.s:824    .text:000000000000054c .L0 
     /tmp/ccO13uu5.s:825    .text:000000000000054c .L0 
     /tmp/ccO13uu5.s:827    .text:0000000000000550 .L0 
     /tmp/ccO13uu5.s:830    .text:0000000000000554 .L0 
     /tmp/ccO13uu5.s:833    .text:0000000000000558 .L0 
     /tmp/ccO13uu5.s:836    .text:000000000000055c .L0 
     /tmp/ccO13uu5.s:839    .text:0000000000000560 .L0 
     /tmp/ccO13uu5.s:851    .text:000000000000057c .L0 
     /tmp/ccO13uu5.s:859    .text:0000000000000594 .L0 
     /tmp/ccO13uu5.s:901    .text:0000000000000594 _Z11threadTest2v
     /tmp/ccO13uu5.s:904    .text:0000000000000594 .L0 
     /tmp/ccO13uu5.s:907    .text:0000000000000594 .L0 
     /tmp/ccO13uu5.s:908    .text:0000000000000598 .L0 
     /tmp/ccO13uu5.s:913    .text:00000000000005a8 .L0 
     /tmp/ccO13uu5.s:914    .text:00000000000005a8 .L0 
     /tmp/ccO13uu5.s:915    .text:00000000000005a8 .L0 
     /tmp/ccO13uu5.s:916    .text:00000000000005a8 .L0 
     /tmp/ccO13uu5.s:918    .text:00000000000005ac .L0 
     /tmp/ccO13uu5.s:920    .text:00000000000005ac .L0 
     /tmp/ccO13uu5.s:921    .text:00000000000005ac .L0 
     /tmp/ccO13uu5.s:934    .text:00000000000005d0 .L0 
     /tmp/ccO13uu5.s:935    .text:00000000000005d0 .L0 
     /tmp/ccO13uu5.s:940    .text:00000000000005dc .L0 
     /tmp/ccO13uu5.s:941    .text:00000000000005dc .L0 
     /tmp/ccO13uu5.s:953    .text:0000000000000600 .L0 
     /tmp/ccO13uu5.s:954    .text:0000000000000600 .L0 
     /tmp/ccO13uu5.s:959    .text:000000000000060c .L0 
     /tmp/ccO13uu5.s:960    .text:000000000000060c .L0 
     /tmp/ccO13uu5.s:973    .text:0000000000000630 .L0 
     /tmp/ccO13uu5.s:974    .text:0000000000000630 .L0 
     /tmp/ccO13uu5.s:979    .text:000000000000063c .L0 
     /tmp/ccO13uu5.s:980    .text:000000000000063c .L0 
     /tmp/ccO13uu5.s:984    .text:0000000000000644 .L0 
     /tmp/ccO13uu5.s:985    .text:0000000000000644 .L0 
     /tmp/ccO13uu5.s:986    .text:0000000000000644 .L0 
     /tmp/ccO13uu5.s:991    .text:0000000000000648 .L0 
     /tmp/ccO13uu5.s:992    .text:0000000000000648 .L0 
     /tmp/ccO13uu5.s:997    .text:000000000000064c .L0 
     /tmp/ccO13uu5.s:1000   .text:0000000000000654 .L0 
     /tmp/ccO13uu5.s:1001   .text:0000000000000654 .L0 
     /tmp/ccO13uu5.s:1005   .text:0000000000000664 .L0 
     /tmp/ccO13uu5.s:1006   .text:0000000000000664 .L0 
     /tmp/ccO13uu5.s:1010   .text:000000000000066c .L0 
     /tmp/ccO13uu5.s:1011   .text:0000000000000670 .L0 
GAS LISTING /tmp/ccO13uu5.s 			page 68


     /tmp/ccO13uu5.s:1012   .text:0000000000000670 .L0 
     /tmp/ccO13uu5.s:1014   .text:0000000000000674 .L0 
     /tmp/ccO13uu5.s:1015   .text:0000000000000674 .L0 
     /tmp/ccO13uu5.s:1017   .text:0000000000000678 .L0 
     /tmp/ccO13uu5.s:1020   .text:000000000000067c .L0 
     /tmp/ccO13uu5.s:1023   .text:0000000000000680 .L0 
     /tmp/ccO13uu5.s:1026   .text:0000000000000684 .L0 
     /tmp/ccO13uu5.s:1029   .text:0000000000000688 .L0 
     /tmp/ccO13uu5.s:1041   .text:00000000000006a4 .L0 
     /tmp/ccO13uu5.s:1053   .text:00000000000006c0 .L0 
     /tmp/ccO13uu5.s:1061   .text:00000000000006d8 .L0 
     /tmp/ccO13uu5.s:1114   .text:00000000000006d8 _Z11threadTestsv
     /tmp/ccO13uu5.s:1117   .text:00000000000006d8 .L0 
     /tmp/ccO13uu5.s:1118   .text:00000000000006d8 .L0 
     /tmp/ccO13uu5.s:1119   .text:00000000000006dc .L0 
     /tmp/ccO13uu5.s:1122   .text:00000000000006e4 .L0 
     /tmp/ccO13uu5.s:1123   .text:00000000000006e4 .L0 
     /tmp/ccO13uu5.s:1125   .text:00000000000006e8 .L0 
     /tmp/ccO13uu5.s:1127   .text:00000000000006e8 .L0 
     /tmp/ccO13uu5.s:1128   .text:00000000000006e8 .L0 
     /tmp/ccO13uu5.s:1131   .text:00000000000006f0 .L0 
     /tmp/ccO13uu5.s:1132   .text:00000000000006f4 .L0 
     /tmp/ccO13uu5.s:1134   .text:00000000000006f8 .L0 
     /tmp/ccO13uu5.s:1135   .text:00000000000006f8 .L0 
     /tmp/ccO13uu5.s:1137   .text:00000000000006fc .L0 
     /tmp/ccO13uu5.s:1139   .text:0000000000000700 .L0 
     /tmp/ccO13uu5.s:1156   .text:0000000000000700 _Z10mallocFreev
     /tmp/ccO13uu5.s:1159   .text:0000000000000700 .L0 
     /tmp/ccO13uu5.s:1160   .text:0000000000000700 .L0 
     /tmp/ccO13uu5.s:1161   .text:0000000000000704 .L0 
     /tmp/ccO13uu5.s:1165   .text:0000000000000710 .L0 
     /tmp/ccO13uu5.s:1166   .text:0000000000000710 .L0 
     /tmp/ccO13uu5.s:1167   .text:0000000000000710 .L0 
     /tmp/ccO13uu5.s:1169   .text:0000000000000714 .L0 
     /tmp/ccO13uu5.s:1171   .text:0000000000000714 .L0 
     /tmp/ccO13uu5.s:1172   .text:0000000000000714 .L0 
     /tmp/ccO13uu5.s:1177   .text:0000000000000724 .L0 
     /tmp/ccO13uu5.s:1182   .text:000000000000072c .L0 
     /tmp/ccO13uu5.s:1186   .text:0000000000000730 .L0 
     /tmp/ccO13uu5.s:1189   .text:0000000000000738 .L0 
     /tmp/ccO13uu5.s:1190   .text:0000000000000738 .L0 
     /tmp/ccO13uu5.s:1194   .text:0000000000000744 .L0 
     /tmp/ccO13uu5.s:1199   .text:0000000000000754 .L0 
     /tmp/ccO13uu5.s:1201   .text:0000000000000758 .L0 
     /tmp/ccO13uu5.s:1202   .text:0000000000000758 .L0 
     /tmp/ccO13uu5.s:1208   .text:0000000000000768 .L0 
     /tmp/ccO13uu5.s:1209   .text:0000000000000768 .L0 
     /tmp/ccO13uu5.s:1210   .text:000000000000076c .L0 
     /tmp/ccO13uu5.s:1211   .text:000000000000076c .L0 
     /tmp/ccO13uu5.s:1213   .text:0000000000000770 .L0 
     /tmp/ccO13uu5.s:1214   .text:0000000000000770 .L0 
     /tmp/ccO13uu5.s:1216   .text:0000000000000774 .L0 
     /tmp/ccO13uu5.s:1218   .text:0000000000000778 .L0 
     /tmp/ccO13uu5.s:1222   .text:000000000000077c .L0 
     /tmp/ccO13uu5.s:1225   .text:000000000000077c .L0 
     /tmp/ccO13uu5.s:1229   .text:0000000000000780 .L0 
     /tmp/ccO13uu5.s:1233   .text:0000000000000788 .L0 
GAS LISTING /tmp/ccO13uu5.s 			page 69


     /tmp/ccO13uu5.s:1234   .text:0000000000000788 .L0 
     /tmp/ccO13uu5.s:1241   .text:00000000000007a0 .L0 
     /tmp/ccO13uu5.s:1244   .text:00000000000007a4 .L0 
     /tmp/ccO13uu5.s:1245   .text:00000000000007a4 .L0 
     /tmp/ccO13uu5.s:1248   .text:00000000000007a8 .L0 
     /tmp/ccO13uu5.s:1253   .text:00000000000007ac .L0 
     /tmp/ccO13uu5.s:1254   .text:00000000000007ac .L0 
     /tmp/ccO13uu5.s:1259   .text:00000000000007bc .L0 
     /tmp/ccO13uu5.s:1265   .text:00000000000007c0 .L0 
     /tmp/ccO13uu5.s:1271   .text:00000000000007c8 .L0 
     /tmp/ccO13uu5.s:1272   .text:00000000000007c8 .L0 
     /tmp/ccO13uu5.s:1276   .text:00000000000007cc .L0 
     /tmp/ccO13uu5.s:1279   .text:00000000000007d4 .L0 
     /tmp/ccO13uu5.s:1280   .text:00000000000007d4 .L0 
     /tmp/ccO13uu5.s:1284   .text:00000000000007e0 .L0 
     /tmp/ccO13uu5.s:1289   .text:00000000000007f0 .L0 
     /tmp/ccO13uu5.s:1291   .text:00000000000007f4 .L0 
     /tmp/ccO13uu5.s:1292   .text:00000000000007f4 .L0 
     /tmp/ccO13uu5.s:1296   .text:0000000000000804 .L0 
     /tmp/ccO13uu5.s:1301   .text:0000000000000808 .L0 
     /tmp/ccO13uu5.s:1305   .text:000000000000080c .L0 
     /tmp/ccO13uu5.s:1309   .text:0000000000000814 .L0 
     /tmp/ccO13uu5.s:1310   .text:0000000000000814 .L0 
     /tmp/ccO13uu5.s:1317   .text:000000000000082c .L0 
     /tmp/ccO13uu5.s:1320   .text:0000000000000830 .L0 
     /tmp/ccO13uu5.s:1327   .text:0000000000000838 .L0 
     /tmp/ccO13uu5.s:1328   .text:0000000000000838 .L0 
     /tmp/ccO13uu5.s:1333   .text:0000000000000848 .L0 
     /tmp/ccO13uu5.s:1338   .text:000000000000084c .L0 
     /tmp/ccO13uu5.s:1339   .text:000000000000084c .L0 
     /tmp/ccO13uu5.s:1343   .text:0000000000000860 .L0 
     /tmp/ccO13uu5.s:1354   .text:0000000000000860 _Z9bigMallocv
     /tmp/ccO13uu5.s:1357   .text:0000000000000860 .L0 
     /tmp/ccO13uu5.s:1358   .text:0000000000000860 .L0 
     /tmp/ccO13uu5.s:1359   .text:0000000000000864 .L0 
     /tmp/ccO13uu5.s:1362   .text:000000000000086c .L0 
     /tmp/ccO13uu5.s:1363   .text:000000000000086c .L0 
     /tmp/ccO13uu5.s:1365   .text:0000000000000870 .L0 
     /tmp/ccO13uu5.s:1367   .text:0000000000000870 .L0 
     /tmp/ccO13uu5.s:1368   .text:0000000000000870 .L0 
     /tmp/ccO13uu5.s:1372   .text:0000000000000880 .L0 
     /tmp/ccO13uu5.s:1373   .text:0000000000000880 .L0 
     /tmp/ccO13uu5.s:1380   .text:000000000000089c .L0 
     /tmp/ccO13uu5.s:1381   .text:000000000000089c .L0 
     /tmp/ccO13uu5.s:1386   .text:00000000000008a8 .L0 
     /tmp/ccO13uu5.s:1388   .text:00000000000008ac .L0 
     /tmp/ccO13uu5.s:1389   .text:00000000000008ac .L0 
     /tmp/ccO13uu5.s:1395   .text:00000000000008bc .L0 
     /tmp/ccO13uu5.s:1396   .text:00000000000008c0 .L0 
     /tmp/ccO13uu5.s:1397   .text:00000000000008c0 .L0 
     /tmp/ccO13uu5.s:1399   .text:00000000000008c4 .L0 
     /tmp/ccO13uu5.s:1400   .text:00000000000008c4 .L0 
     /tmp/ccO13uu5.s:1402   .text:00000000000008c8 .L0 
     /tmp/ccO13uu5.s:1406   .text:00000000000008cc .L0 
     /tmp/ccO13uu5.s:1408   .text:00000000000008cc .L0 
     /tmp/ccO13uu5.s:1409   .text:00000000000008cc .L0 
     /tmp/ccO13uu5.s:1414   .text:00000000000008e0 .L0 
GAS LISTING /tmp/ccO13uu5.s 			page 70


     /tmp/ccO13uu5.s:1425   .text:00000000000008e0 _Z17lotOfSmallMallocsv
     /tmp/ccO13uu5.s:1428   .text:00000000000008e0 .L0 
     /tmp/ccO13uu5.s:1429   .text:00000000000008e0 .L0 
     /tmp/ccO13uu5.s:1430   .text:00000000000008e4 .L0 
     /tmp/ccO13uu5.s:1436   .text:00000000000008f8 .L0 
     /tmp/ccO13uu5.s:1437   .text:00000000000008f8 .L0 
     /tmp/ccO13uu5.s:1438   .text:00000000000008f8 .L0 
     /tmp/ccO13uu5.s:1439   .text:00000000000008f8 .L0 
     /tmp/ccO13uu5.s:1440   .text:00000000000008f8 .L0 
     /tmp/ccO13uu5.s:1442   .text:00000000000008fc .L0 
     /tmp/ccO13uu5.s:1444   .text:00000000000008fc .L0 
     /tmp/ccO13uu5.s:1445   .text:00000000000008fc .L0 
     /tmp/ccO13uu5.s:1449   .text:000000000000090c .L0 
     /tmp/ccO13uu5.s:1450   .text:000000000000090c .L0 
     /tmp/ccO13uu5.s:1451   .text:000000000000090c .L0 
     /tmp/ccO13uu5.s:1452   .text:000000000000090c .L0 
     /tmp/ccO13uu5.s:1454   .text:000000000000090c .L0 
     /tmp/ccO13uu5.s:1455   .text:000000000000090c .L0 
     /tmp/ccO13uu5.s:1458   .text:0000000000000910 .L0 
     /tmp/ccO13uu5.s:1460   .text:0000000000000914 .L0 
     /tmp/ccO13uu5.s:1467   .text:000000000000091c .L0 
     /tmp/ccO13uu5.s:1468   .text:000000000000091c .L0 
     /tmp/ccO13uu5.s:1471   .text:0000000000000924 .L0 
     /tmp/ccO13uu5.s:1472   .text:0000000000000924 .L0 
     /tmp/ccO13uu5.s:1475   .text:0000000000000928 .L0 
     /tmp/ccO13uu5.s:1476   .text:0000000000000928 .L0 
     /tmp/ccO13uu5.s:1480   .text:000000000000092c .L0 
     /tmp/ccO13uu5.s:1484   .text:0000000000000930 .L0 
     /tmp/ccO13uu5.s:1489   .text:000000000000093c .L0 
     /tmp/ccO13uu5.s:1490   .text:000000000000093c .L0 
     /tmp/ccO13uu5.s:1494   .text:0000000000000948 .L0 
     /tmp/ccO13uu5.s:1500   .text:000000000000094c .L0 
     /tmp/ccO13uu5.s:1501   .text:000000000000094c .L0 
     /tmp/ccO13uu5.s:1505   .text:0000000000000958 .L0 
     /tmp/ccO13uu5.s:1506   .text:0000000000000958 .L0 
     /tmp/ccO13uu5.s:1510   .text:0000000000000968 .L0 
     /tmp/ccO13uu5.s:1511   .text:0000000000000968 .L0 
     /tmp/ccO13uu5.s:1516   .text:0000000000000974 .L0 
     /tmp/ccO13uu5.s:1518   .text:0000000000000978 .L0 
     /tmp/ccO13uu5.s:1519   .text:0000000000000978 .L0 
     /tmp/ccO13uu5.s:1524   .text:0000000000000988 .L0 
     /tmp/ccO13uu5.s:1525   .text:000000000000098c .L0 
     /tmp/ccO13uu5.s:1526   .text:000000000000098c .L0 
     /tmp/ccO13uu5.s:1528   .text:0000000000000990 .L0 
     /tmp/ccO13uu5.s:1529   .text:0000000000000990 .L0 
     /tmp/ccO13uu5.s:1531   .text:0000000000000994 .L0 
     /tmp/ccO13uu5.s:1534   .text:0000000000000998 .L0 
     /tmp/ccO13uu5.s:1536   .text:000000000000099c .L0 
     /tmp/ccO13uu5.s:1539   .text:00000000000009a0 .L0 
     /tmp/ccO13uu5.s:1543   .text:00000000000009a4 .L0 
     /tmp/ccO13uu5.s:1545   .text:00000000000009a4 .L0 
     /tmp/ccO13uu5.s:1546   .text:00000000000009a4 .L0 
     /tmp/ccO13uu5.s:1550   .text:00000000000009b8 .L0 
     /tmp/ccO13uu5.s:1561   .text:00000000000009b8 _Z7badFreev
     /tmp/ccO13uu5.s:1564   .text:00000000000009b8 .L0 
     /tmp/ccO13uu5.s:1565   .text:00000000000009b8 .L0 
     /tmp/ccO13uu5.s:1566   .text:00000000000009bc .L0 
GAS LISTING /tmp/ccO13uu5.s 			page 71


     /tmp/ccO13uu5.s:1569   .text:00000000000009c4 .L0 
     /tmp/ccO13uu5.s:1570   .text:00000000000009c4 .L0 
     /tmp/ccO13uu5.s:1572   .text:00000000000009c8 .L0 
     /tmp/ccO13uu5.s:1574   .text:00000000000009c8 .L0 
     /tmp/ccO13uu5.s:1575   .text:00000000000009c8 .L0 
     /tmp/ccO13uu5.s:1579   .text:00000000000009d8 .L0 
     /tmp/ccO13uu5.s:1580   .text:00000000000009d8 .L0 
     /tmp/ccO13uu5.s:1584   .text:00000000000009e4 .L0 
     /tmp/ccO13uu5.s:1585   .text:00000000000009e4 .L0 
     /tmp/ccO13uu5.s:1590   .text:00000000000009f0 .L0 
     /tmp/ccO13uu5.s:1592   .text:00000000000009f4 .L0 
     /tmp/ccO13uu5.s:1593   .text:00000000000009f4 .L0 
     /tmp/ccO13uu5.s:1599   .text:0000000000000a04 .L0 
     /tmp/ccO13uu5.s:1600   .text:0000000000000a08 .L0 
     /tmp/ccO13uu5.s:1601   .text:0000000000000a08 .L0 
     /tmp/ccO13uu5.s:1603   .text:0000000000000a0c .L0 
     /tmp/ccO13uu5.s:1604   .text:0000000000000a0c .L0 
     /tmp/ccO13uu5.s:1606   .text:0000000000000a10 .L0 
     /tmp/ccO13uu5.s:1610   .text:0000000000000a14 .L0 
     /tmp/ccO13uu5.s:1612   .text:0000000000000a14 .L0 
     /tmp/ccO13uu5.s:1613   .text:0000000000000a14 .L0 
     /tmp/ccO13uu5.s:1618   .text:0000000000000a24 .L0 
     /tmp/ccO13uu5.s:1619   .text:0000000000000a28 .L0 
     /tmp/ccO13uu5.s:1630   .text:0000000000000a28 _Z13stressTestingv
     /tmp/ccO13uu5.s:1633   .text:0000000000000a28 .L0 
     /tmp/ccO13uu5.s:1634   .text:0000000000000a28 .L0 
     /tmp/ccO13uu5.s:1635   .text:0000000000000a2c .L0 
     /tmp/ccO13uu5.s:1640   .text:0000000000000a3c .L0 
     /tmp/ccO13uu5.s:1641   .text:0000000000000a3c .L0 
     /tmp/ccO13uu5.s:1642   .text:0000000000000a3c .L0 
     /tmp/ccO13uu5.s:1643   .text:0000000000000a3c .L0 
     /tmp/ccO13uu5.s:1645   .text:0000000000000a40 .L0 
     /tmp/ccO13uu5.s:1647   .text:0000000000000a40 .L0 
     /tmp/ccO13uu5.s:1648   .text:0000000000000a40 .L0 
     /tmp/ccO13uu5.s:1653   .text:0000000000000a50 .L0 
     /tmp/ccO13uu5.s:1658   .text:0000000000000a58 .L0 
     /tmp/ccO13uu5.s:1662   .text:0000000000000a5c .L0 
     /tmp/ccO13uu5.s:1665   .text:0000000000000a64 .L0 
     /tmp/ccO13uu5.s:1666   .text:0000000000000a64 .L0 
     /tmp/ccO13uu5.s:1670   .text:0000000000000a70 .L0 
     /tmp/ccO13uu5.s:1675   .text:0000000000000a80 .L0 
     /tmp/ccO13uu5.s:1680   .text:0000000000000a84 .L0 
     /tmp/ccO13uu5.s:1681   .text:0000000000000a88 .L0 
     /tmp/ccO13uu5.s:1682   .text:0000000000000a88 .L0 
     /tmp/ccO13uu5.s:1684   .text:0000000000000a8c .L0 
     /tmp/ccO13uu5.s:1685   .text:0000000000000a8c .L0 
     /tmp/ccO13uu5.s:1687   .text:0000000000000a90 .L0 
     /tmp/ccO13uu5.s:1689   .text:0000000000000a94 .L0 
     /tmp/ccO13uu5.s:1691   .text:0000000000000a98 .L0 
     /tmp/ccO13uu5.s:1695   .text:0000000000000a9c .L0 
     /tmp/ccO13uu5.s:1697   .text:0000000000000a9c .L0 
     /tmp/ccO13uu5.s:1701   .text:0000000000000aa0 .L0 
     /tmp/ccO13uu5.s:1702   .text:0000000000000aa0 .L0 
     /tmp/ccO13uu5.s:1706   .text:0000000000000aa4 .L0 
     /tmp/ccO13uu5.s:1710   .text:0000000000000aa8 .L0 
     /tmp/ccO13uu5.s:1714   .text:0000000000000ab0 .L0 
     /tmp/ccO13uu5.s:1715   .text:0000000000000ab0 .L0 
GAS LISTING /tmp/ccO13uu5.s 			page 72


     /tmp/ccO13uu5.s:1722   .text:0000000000000ac8 .L0 
     /tmp/ccO13uu5.s:1724   .text:0000000000000acc .L0 
     /tmp/ccO13uu5.s:1725   .text:0000000000000acc .L0 
     /tmp/ccO13uu5.s:1729   .text:0000000000000ad4 .L0 
     /tmp/ccO13uu5.s:1733   .text:0000000000000ae0 .L0 
     /tmp/ccO13uu5.s:1738   .text:0000000000000af0 .L0 
     /tmp/ccO13uu5.s:1741   .text:0000000000000af4 .L0 
     /tmp/ccO13uu5.s:1742   .text:0000000000000af4 .L0 
     /tmp/ccO13uu5.s:1745   .text:0000000000000af8 .L0 
     /tmp/ccO13uu5.s:1751   .text:0000000000000afc .L0 
     /tmp/ccO13uu5.s:1755   .text:0000000000000b00 .L0 
     /tmp/ccO13uu5.s:1759   .text:0000000000000b08 .L0 
     /tmp/ccO13uu5.s:1760   .text:0000000000000b08 .L0 
     /tmp/ccO13uu5.s:1767   .text:0000000000000b20 .L0 
     /tmp/ccO13uu5.s:1769   .text:0000000000000b24 .L0 
     /tmp/ccO13uu5.s:1770   .text:0000000000000b24 .L0 
     /tmp/ccO13uu5.s:1775   .text:0000000000000b30 .L0 
     /tmp/ccO13uu5.s:1780   .text:0000000000000b40 .L0 
     /tmp/ccO13uu5.s:1783   .text:0000000000000b44 .L0 
     /tmp/ccO13uu5.s:1784   .text:0000000000000b44 .L0 
     /tmp/ccO13uu5.s:1787   .text:0000000000000b48 .L0 
     /tmp/ccO13uu5.s:1792   .text:0000000000000b4c .L0 
     /tmp/ccO13uu5.s:1793   .text:0000000000000b4c .L0 
     /tmp/ccO13uu5.s:1797   .text:0000000000000b50 .L0 
     /tmp/ccO13uu5.s:1801   .text:0000000000000b54 .L0 
     /tmp/ccO13uu5.s:1802   .text:0000000000000b54 .L0 
     /tmp/ccO13uu5.s:1806   .text:0000000000000b68 .L0 
     /tmp/ccO13uu5.s:1812   .text:0000000000000b68 _Z21memoryAllocationTestsv
     /tmp/ccO13uu5.s:1815   .text:0000000000000b68 .L0 
     /tmp/ccO13uu5.s:1816   .text:0000000000000b68 .L0 
     /tmp/ccO13uu5.s:1817   .text:0000000000000b6c .L0 
     /tmp/ccO13uu5.s:1820   .text:0000000000000b74 .L0 
     /tmp/ccO13uu5.s:1821   .text:0000000000000b74 .L0 
     /tmp/ccO13uu5.s:1823   .text:0000000000000b78 .L0 
     /tmp/ccO13uu5.s:1825   .text:0000000000000b78 .L0 
     /tmp/ccO13uu5.s:1826   .text:0000000000000b78 .L0 
     /tmp/ccO13uu5.s:1829   .text:0000000000000b80 .L0 
     /tmp/ccO13uu5.s:1830   .text:0000000000000b84 .L0 
     /tmp/ccO13uu5.s:1832   .text:0000000000000b88 .L0 
     /tmp/ccO13uu5.s:1833   .text:0000000000000b88 .L0 
     /tmp/ccO13uu5.s:1835   .text:0000000000000b8c .L0 
     /tmp/ccO13uu5.s:1837   .text:0000000000000b90 .L0 
     /tmp/ccO13uu5.s:1843   .text:0000000000000b90 _Z8semTest1v
     /tmp/ccO13uu5.s:1846   .text:0000000000000b90 .L0 
     /tmp/ccO13uu5.s:1849   .text:0000000000000b90 .L0 
     /tmp/ccO13uu5.s:1850   .text:0000000000000b94 .L0 
     /tmp/ccO13uu5.s:1855   .text:0000000000000ba4 .L0 
     /tmp/ccO13uu5.s:1856   .text:0000000000000ba4 .L0 
     /tmp/ccO13uu5.s:1857   .text:0000000000000ba4 .L0 
     /tmp/ccO13uu5.s:1858   .text:0000000000000ba4 .L0 
     /tmp/ccO13uu5.s:1860   .text:0000000000000ba8 .L0 
     /tmp/ccO13uu5.s:1862   .text:0000000000000ba8 .L0 
     /tmp/ccO13uu5.s:1863   .text:0000000000000ba8 .L0 
     /tmp/ccO13uu5.s:1875   .text:0000000000000bc4 .L0 
     /tmp/ccO13uu5.s:1877   .text:0000000000000bcc .L0 
     /tmp/ccO13uu5.s:1878   .text:0000000000000bcc .L0 
     /tmp/ccO13uu5.s:1891   .text:0000000000000bf0 .L0 
GAS LISTING /tmp/ccO13uu5.s 			page 73


     /tmp/ccO13uu5.s:1892   .text:0000000000000bf0 .L0 
     /tmp/ccO13uu5.s:1905   .text:0000000000000c14 .L0 
     /tmp/ccO13uu5.s:1906   .text:0000000000000c14 .L0 
     /tmp/ccO13uu5.s:1911   .text:0000000000000c20 .L0 
     /tmp/ccO13uu5.s:1912   .text:0000000000000c20 .L0 
     /tmp/ccO13uu5.s:1916   .text:0000000000000c2c .L0 
     /tmp/ccO13uu5.s:1917   .text:0000000000000c2c .L0 
     /tmp/ccO13uu5.s:1921   .text:0000000000000c30 .L0 
     /tmp/ccO13uu5.s:1922   .text:0000000000000c30 .L0 
     /tmp/ccO13uu5.s:1923   .text:0000000000000c30 .L0 
     /tmp/ccO13uu5.s:1926   .text:0000000000000c34 .L0 
     /tmp/ccO13uu5.s:1927   .text:0000000000000c34 .L0 
     /tmp/ccO13uu5.s:1931   .text:0000000000000c3c .L0 
     /tmp/ccO13uu5.s:1935   .text:0000000000000c48 .L0 
     /tmp/ccO13uu5.s:1936   .text:0000000000000c4c .L0 
     /tmp/ccO13uu5.s:1937   .text:0000000000000c4c .L0 
     /tmp/ccO13uu5.s:1939   .text:0000000000000c50 .L0 
     /tmp/ccO13uu5.s:1940   .text:0000000000000c50 .L0 
     /tmp/ccO13uu5.s:1942   .text:0000000000000c54 .L0 
     /tmp/ccO13uu5.s:1944   .text:0000000000000c58 .L0 
     /tmp/ccO13uu5.s:1947   .text:0000000000000c5c .L0 
     /tmp/ccO13uu5.s:1950   .text:0000000000000c60 .L0 
     /tmp/ccO13uu5.s:1953   .text:0000000000000c64 .L0 
     /tmp/ccO13uu5.s:1964   .text:0000000000000c80 .L0 
     /tmp/ccO13uu5.s:1976   .text:0000000000000c9c .L0 
     /tmp/ccO13uu5.s:1984   .text:0000000000000cb4 .L0 
     /tmp/ccO13uu5.s:2037   .text:0000000000000cb4 _Z8semTest2v
     /tmp/ccO13uu5.s:2040   .text:0000000000000cb4 .L0 
     /tmp/ccO13uu5.s:2043   .text:0000000000000cb4 .L0 
     /tmp/ccO13uu5.s:2044   .text:0000000000000cb8 .L0 
     /tmp/ccO13uu5.s:2050   .text:0000000000000ccc .L0 
     /tmp/ccO13uu5.s:2051   .text:0000000000000ccc .L0 
     /tmp/ccO13uu5.s:2052   .text:0000000000000ccc .L0 
     /tmp/ccO13uu5.s:2053   .text:0000000000000ccc .L0 
     /tmp/ccO13uu5.s:2054   .text:0000000000000ccc .L0 
     /tmp/ccO13uu5.s:2056   .text:0000000000000cd0 .L0 
     /tmp/ccO13uu5.s:2058   .text:0000000000000cd0 .L0 
     /tmp/ccO13uu5.s:2059   .text:0000000000000cd0 .L0 
     /tmp/ccO13uu5.s:2071   .text:0000000000000cec .L0 
     /tmp/ccO13uu5.s:2073   .text:0000000000000cf4 .L0 
     /tmp/ccO13uu5.s:2074   .text:0000000000000cf4 .L0 
     /tmp/ccO13uu5.s:2086   .text:0000000000000d10 .L0 
     /tmp/ccO13uu5.s:2088   .text:0000000000000d18 .L0 
     /tmp/ccO13uu5.s:2089   .text:0000000000000d18 .L0 
     /tmp/ccO13uu5.s:2101   .text:0000000000000d34 .L0 
     /tmp/ccO13uu5.s:2103   .text:0000000000000d3c .L0 
     /tmp/ccO13uu5.s:2104   .text:0000000000000d3c .L0 
     /tmp/ccO13uu5.s:2117   .text:0000000000000d60 .L0 
     /tmp/ccO13uu5.s:2118   .text:0000000000000d60 .L0 
     /tmp/ccO13uu5.s:2131   .text:0000000000000d84 .L0 
     /tmp/ccO13uu5.s:2132   .text:0000000000000d84 .L0 
     /tmp/ccO13uu5.s:2145   .text:0000000000000da8 .L0 
     /tmp/ccO13uu5.s:2146   .text:0000000000000da8 .L0 
     /tmp/ccO13uu5.s:2151   .text:0000000000000db4 .L0 
     /tmp/ccO13uu5.s:2152   .text:0000000000000db4 .L0 
     /tmp/ccO13uu5.s:2156   .text:0000000000000dc0 .L0 
     /tmp/ccO13uu5.s:2157   .text:0000000000000dc0 .L0 
GAS LISTING /tmp/ccO13uu5.s 			page 74


     /tmp/ccO13uu5.s:2161   .text:0000000000000dcc .L0 
     /tmp/ccO13uu5.s:2162   .text:0000000000000dcc .L0 
     /tmp/ccO13uu5.s:2166   .text:0000000000000dd0 .L0 
     /tmp/ccO13uu5.s:2167   .text:0000000000000dd0 .L0 
     /tmp/ccO13uu5.s:2168   .text:0000000000000dd0 .L0 
     /tmp/ccO13uu5.s:2171   .text:0000000000000dd4 .L0 
     /tmp/ccO13uu5.s:2172   .text:0000000000000dd4 .L0 
     /tmp/ccO13uu5.s:2176   .text:0000000000000ddc .L0 
     /tmp/ccO13uu5.s:2180   .text:0000000000000de8 .L0 
     /tmp/ccO13uu5.s:2181   .text:0000000000000dec .L0 
     /tmp/ccO13uu5.s:2182   .text:0000000000000dec .L0 
     /tmp/ccO13uu5.s:2184   .text:0000000000000df0 .L0 
     /tmp/ccO13uu5.s:2185   .text:0000000000000df0 .L0 
     /tmp/ccO13uu5.s:2187   .text:0000000000000df4 .L0 
     /tmp/ccO13uu5.s:2189   .text:0000000000000df8 .L0 
     /tmp/ccO13uu5.s:2192   .text:0000000000000dfc .L0 
     /tmp/ccO13uu5.s:2195   .text:0000000000000e00 .L0 
     /tmp/ccO13uu5.s:2198   .text:0000000000000e04 .L0 
     /tmp/ccO13uu5.s:2201   .text:0000000000000e08 .L0 
     /tmp/ccO13uu5.s:2212   .text:0000000000000e24 .L0 
     /tmp/ccO13uu5.s:2223   .text:0000000000000e40 .L0 
     /tmp/ccO13uu5.s:2234   .text:0000000000000e5c .L0 
     /tmp/ccO13uu5.s:2245   .text:0000000000000e78 .L0 
     /tmp/ccO13uu5.s:2257   .text:0000000000000e94 .L0 
     /tmp/ccO13uu5.s:2265   .text:0000000000000eac .L0 
     /tmp/ccO13uu5.s:2354   .text:0000000000000eac _Z14semaphoreTestsv
     /tmp/ccO13uu5.s:2357   .text:0000000000000eac .L0 
     /tmp/ccO13uu5.s:2358   .text:0000000000000eac .L0 
     /tmp/ccO13uu5.s:2359   .text:0000000000000eb0 .L0 
     /tmp/ccO13uu5.s:2362   .text:0000000000000eb8 .L0 
     /tmp/ccO13uu5.s:2363   .text:0000000000000eb8 .L0 
     /tmp/ccO13uu5.s:2365   .text:0000000000000ebc .L0 
     /tmp/ccO13uu5.s:2367   .text:0000000000000ebc .L0 
     /tmp/ccO13uu5.s:2368   .text:0000000000000ebc .L0 
     /tmp/ccO13uu5.s:2371   .text:0000000000000ec4 .L0 
     /tmp/ccO13uu5.s:2372   .text:0000000000000ec8 .L0 
     /tmp/ccO13uu5.s:2374   .text:0000000000000ecc .L0 
     /tmp/ccO13uu5.s:2375   .text:0000000000000ecc .L0 
     /tmp/ccO13uu5.s:2377   .text:0000000000000ed0 .L0 
     /tmp/ccO13uu5.s:2379   .text:0000000000000ed4 .L0 
     /tmp/ccO13uu5.s:2385   .text:0000000000000ed4 _Z7myTestsv
     /tmp/ccO13uu5.s:2388   .text:0000000000000ed4 .L0 
     /tmp/ccO13uu5.s:2389   .text:0000000000000ed4 .L0 
     /tmp/ccO13uu5.s:2390   .text:0000000000000ed8 .L0 
     /tmp/ccO13uu5.s:2393   .text:0000000000000ee0 .L0 
     /tmp/ccO13uu5.s:2394   .text:0000000000000ee0 .L0 
     /tmp/ccO13uu5.s:2396   .text:0000000000000ee4 .L0 
     /tmp/ccO13uu5.s:2398   .text:0000000000000ee4 .L0 
     /tmp/ccO13uu5.s:2399   .text:0000000000000ee4 .L0 
     /tmp/ccO13uu5.s:2402   .text:0000000000000eec .L0 
     /tmp/ccO13uu5.s:2403   .text:0000000000000ef0 .L0 
     /tmp/ccO13uu5.s:2405   .text:0000000000000ef4 .L0 
     /tmp/ccO13uu5.s:2406   .text:0000000000000ef4 .L0 
     /tmp/ccO13uu5.s:2408   .text:0000000000000ef8 .L0 
     /tmp/ccO13uu5.s:2410   .text:0000000000000efc .L0 
     /tmp/ccO13uu5.s:2415   .bss:0000000000000000 .LANCHOR0
     /tmp/ccO13uu5.s:2418   .bss:0000000000000000 _ZL5mutex
GAS LISTING /tmp/ccO13uu5.s 			page 75


     /tmp/ccO13uu5.s:2422   .bss:0000000000000008 _ZL2s1
     /tmp/ccO13uu5.s:2426   .bss:0000000000000010 _ZL2s2
     /tmp/ccO13uu5.s:2430   .bss:0000000000000018 _ZL2s3
     /tmp/ccO13uu5.s:2440   .text:0000000000000efc .L0 
     /tmp/ccO13uu5.s:8      .rodata.str1.8:0000000000000000 .LC0
     /tmp/ccO13uu5.s:33     .text:0000000000000010 .L0 
     /tmp/ccO13uu5.s:47     .rodata.str1.8:0000000000000008 .LC1
     /tmp/ccO13uu5.s:76     .text:0000000000000040 .L0 
     /tmp/ccO13uu5.s:50     .rodata.str1.8:0000000000000020 .LC2
     /tmp/ccO13uu5.s:95     .text:0000000000000060 .L0 
     /tmp/ccO13uu5.s:53     .rodata.str1.8:0000000000000028 .LC3
     /tmp/ccO13uu5.s:105    .text:000000000000007c .L0 
     /tmp/ccO13uu5.s:144    .rodata.str1.8:0000000000000030 .LC4
     /tmp/ccO13uu5.s:170    .text:00000000000000d8 .L0 
     /tmp/ccO13uu5.s:147    .rodata.str1.8:0000000000000048 .LC5
     /tmp/ccO13uu5.s:189    .text:00000000000000f8 .L0 
     /tmp/ccO13uu5.s:199    .text:0000000000000114 .L0 
     /tmp/ccO13uu5.s:256    .text:0000000000000170 .L0 
     /tmp/ccO13uu5.s:281    .text:000000000000019c .L0 
     /tmp/ccO13uu5.s:291    .text:00000000000001b8 .L0 
     /tmp/ccO13uu5.s:334    .rodata.str1.8:0000000000000050 .LC6
     /tmp/ccO13uu5.s:359    .text:0000000000000220 .L0 
     /tmp/ccO13uu5.s:381    .text:0000000000000244 .L0 
     /tmp/ccO13uu5.s:404    .rodata.str1.8:0000000000000060 .LC7
     /tmp/ccO13uu5.s:427    .text:0000000000000290 .L0 
     /tmp/ccO13uu5.s:436    .text:00000000000002a0 .L0 
     /tmp/ccO13uu5.s:456    .rodata.str1.8:0000000000000070 .LC8
     /tmp/ccO13uu5.s:481    .text:00000000000002e4 .L0 
     /tmp/ccO13uu5.s:503    .text:0000000000000308 .L0 
     /tmp/ccO13uu5.s:536    .rodata.str1.8:0000000000000080 .LC9
     /tmp/ccO13uu5.s:561    .text:0000000000000370 .L0 
     /tmp/ccO13uu5.s:583    .text:0000000000000394 .L0 
     /tmp/ccO13uu5.s:616    .rodata.str1.8:0000000000000090 .LC10
     /tmp/ccO13uu5.s:641    .text:00000000000003fc .L0 
     /tmp/ccO13uu5.s:663    .text:0000000000000420 .L0 
     /tmp/ccO13uu5.s:732    .text:000000000000049c .L0 
     /tmp/ccO13uu5.s:751    .text:00000000000004cc .L0 
     /tmp/ccO13uu5.s:696    .rodata.str1.8:00000000000000a0 .LC11
     /tmp/ccO13uu5.s:770    .text:00000000000004f4 .L0 
     /tmp/ccO13uu5.s:699    .rodata.str1.8:00000000000000b0 .LC12
     /tmp/ccO13uu5.s:811    .text:000000000000052c .L0 
     /tmp/ccO13uu5.s:928    .text:00000000000005c0 .L0 
     /tmp/ccO13uu5.s:947    .text:00000000000005f0 .L0 
     /tmp/ccO13uu5.s:967    .text:0000000000000620 .L0 
     /tmp/ccO13uu5.s:1001   .text:0000000000000654 .L0 
     /tmp/ccO13uu5.s:1144   .rodata.str1.8:00000000000000b8 .LC13
     /tmp/ccO13uu5.s:1172   .text:0000000000000714 .L0 
     /tmp/ccO13uu5.s:1147   .rodata.str1.8:00000000000000c8 .LC14
     /tmp/ccO13uu5.s:1202   .text:0000000000000758 .L0 
     /tmp/ccO13uu5.s:1254   .text:00000000000007ac .L0 
     /tmp/ccO13uu5.s:1292   .text:00000000000007f4 .L0 
     /tmp/ccO13uu5.s:1328   .text:0000000000000838 .L0 
     /tmp/ccO13uu5.s:1150   .rodata.str1.8:00000000000000d0 .LC15
     /tmp/ccO13uu5.s:1339   .text:000000000000084c .L0 
     /tmp/ccO13uu5.s:1348   .rodata.str1.8:00000000000000d8 .LC16
     /tmp/ccO13uu5.s:1368   .text:0000000000000870 .L0 
     /tmp/ccO13uu5.s:1373   .text:0000000000000880 .L0 
GAS LISTING /tmp/ccO13uu5.s 			page 76


     /tmp/ccO13uu5.s:1375   .text:000000000000088c .L0 
     /tmp/ccO13uu5.s:1389   .text:00000000000008ac .L0 
     /tmp/ccO13uu5.s:1409   .text:00000000000008cc .L0 
     /tmp/ccO13uu5.s:1419   .rodata.str1.8:00000000000000e8 .LC17
     /tmp/ccO13uu5.s:1445   .text:00000000000008fc .L0 
     /tmp/ccO13uu5.s:1506   .text:0000000000000958 .L0 
     /tmp/ccO13uu5.s:1519   .text:0000000000000978 .L0 
     /tmp/ccO13uu5.s:1546   .text:00000000000009a4 .L0 
     /tmp/ccO13uu5.s:1555   .rodata.str1.8:0000000000000100 .LC18
     /tmp/ccO13uu5.s:1575   .text:00000000000009c8 .L0 
     /tmp/ccO13uu5.s:1593   .text:00000000000009f4 .L0 
     /tmp/ccO13uu5.s:1613   .text:0000000000000a14 .L0 
     /tmp/ccO13uu5.s:1624   .rodata.str1.8:0000000000000110 .LC19
     /tmp/ccO13uu5.s:1648   .text:0000000000000a40 .L0 
     /tmp/ccO13uu5.s:1802   .text:0000000000000b54 .L0 
     /tmp/ccO13uu5.s:1875   .text:0000000000000bc4 .L0 
     /tmp/ccO13uu5.s:1885   .text:0000000000000be0 .L0 
     /tmp/ccO13uu5.s:1899   .text:0000000000000c04 .L0 
     /tmp/ccO13uu5.s:2071   .text:0000000000000cec .L0 
     /tmp/ccO13uu5.s:2086   .text:0000000000000d10 .L0 
     /tmp/ccO13uu5.s:2101   .text:0000000000000d34 .L0 
     /tmp/ccO13uu5.s:2111   .text:0000000000000d50 .L0 
     /tmp/ccO13uu5.s:2125   .text:0000000000000d74 .L0 
     /tmp/ccO13uu5.s:2139   .text:0000000000000d98 .L0 
     /tmp/ccO13uu5.s:29     .text:0000000000000010 .L2
     /tmp/ccO13uu5.s:111    .text:0000000000000090 .L7
     /tmp/ccO13uu5.s:125    .text:00000000000000b0 .L4
     /tmp/ccO13uu5.s:92     .text:0000000000000060 .L6
     /tmp/ccO13uu5.s:87     .text:0000000000000058 .L9
     /tmp/ccO13uu5.s:205    .text:0000000000000128 .L13
     /tmp/ccO13uu5.s:219    .text:0000000000000148 .L10
     /tmp/ccO13uu5.s:186    .text:00000000000000f8 .L12
     /tmp/ccO13uu5.s:181    .text:00000000000000f0 .L15
     /tmp/ccO13uu5.s:297    .text:00000000000001cc .L20
     /tmp/ccO13uu5.s:305    .text:00000000000001e0 .L18
     /tmp/ccO13uu5.s:315    .text:00000000000001f4 .L16
     /tmp/ccO13uu5.s:267    .text:0000000000000188 .L22
     /tmp/ccO13uu5.s:278    .text:000000000000019c .L19
     /tmp/ccO13uu5.s:273    .text:0000000000000194 .L23
     /tmp/ccO13uu5.s:373    .text:0000000000000240 .L25
     /tmp/ccO13uu5.s:368    .text:0000000000000238 .L26
     /tmp/ccO13uu5.s:432    .text:00000000000002a0 .L30
     /tmp/ccO13uu5.s:495    .text:0000000000000304 .L33
     /tmp/ccO13uu5.s:490    .text:00000000000002fc .L34
     /tmp/ccO13uu5.s:575    .text:0000000000000390 .L38
     /tmp/ccO13uu5.s:570    .text:0000000000000388 .L39
     /tmp/ccO13uu5.s:655    .text:000000000000041c .L43
     /tmp/ccO13uu5.s:650    .text:0000000000000414 .L44
     /tmp/ccO13uu5.s:777    .text:000000000000050c .L50
     /tmp/ccO13uu5.s:767    .text:00000000000004f4 .L48
     /tmp/ccO13uu5.s:982    .text:0000000000000644 .L58
     /tmp/ccO13uu5.s:1184   .text:0000000000000730 .L73
     /tmp/ccO13uu5.s:1221   .text:000000000000077c .L81
     /tmp/ccO13uu5.s:1180   .text:000000000000072c .L71
     /tmp/ccO13uu5.s:1260   .text:00000000000007c0 .L82
     /tmp/ccO13uu5.s:1250   .text:00000000000007ac .L85
     /tmp/ccO13uu5.s:1227   .text:0000000000000780 .L70
GAS LISTING /tmp/ccO13uu5.s 			page 77


     /tmp/ccO13uu5.s:1206   .text:0000000000000768 .L69
     /tmp/ccO13uu5.s:1274   .text:00000000000007cc .L74
     /tmp/ccO13uu5.s:1297   .text:0000000000000808 .L83
     /tmp/ccO13uu5.s:1269   .text:00000000000007c8 .L77
     /tmp/ccO13uu5.s:1334   .text:000000000000084c .L78
     /tmp/ccO13uu5.s:1324   .text:0000000000000838 .L86
     /tmp/ccO13uu5.s:1303   .text:000000000000080c .L76
     /tmp/ccO13uu5.s:1405   .text:00000000000008cc .L91
     /tmp/ccO13uu5.s:1393   .text:00000000000008bc .L87
     /tmp/ccO13uu5.s:1482   .text:0000000000000930 .L94
     /tmp/ccO13uu5.s:1496   .text:000000000000094c .L93
     /tmp/ccO13uu5.s:1463   .text:000000000000091c .L98
     /tmp/ccO13uu5.s:1542   .text:00000000000009a4 .L99
     /tmp/ccO13uu5.s:1522   .text:0000000000000988 .L92
     /tmp/ccO13uu5.s:1609   .text:0000000000000a14 .L101
     /tmp/ccO13uu5.s:1597   .text:0000000000000a04 .L100
     /tmp/ccO13uu5.s:1660   .text:0000000000000a5c .L107
     /tmp/ccO13uu5.s:1694   .text:0000000000000a9c .L113
     /tmp/ccO13uu5.s:1656   .text:0000000000000a58 .L116
     /tmp/ccO13uu5.s:1799   .text:0000000000000b54 .L108
     /tmp/ccO13uu5.s:1747   .text:0000000000000afc .L114
     /tmp/ccO13uu5.s:1677   .text:0000000000000a84 .L104
     /tmp/ccO13uu5.s:1707   .text:0000000000000aa8 .L110
     /tmp/ccO13uu5.s:1789   .text:0000000000000b4c .L111
     /tmp/ccO13uu5.s:1753   .text:0000000000000b00 .L109
     /tmp/ccO13uu5.s:1699   .text:0000000000000aa0 .L105
     /tmp/ccO13uu5.s:1919   .text:0000000000000c30 .L120
     /tmp/ccO13uu5.s:2164   .text:0000000000000dd0 .L130
     /tmp/ccO13uu5.s:726    .text:000000000000048c .LEHB0
     /tmp/ccO13uu5.s:706    .text:0000000000000470 .LFB26
     /tmp/ccO13uu5.s:729    .text:0000000000000494 .LEHE0
     /tmp/ccO13uu5.s:733    .text:00000000000004a4 .LEHB1
     /tmp/ccO13uu5.s:736    .text:00000000000004ac .LEHE1
     /tmp/ccO13uu5.s:835    .text:000000000000055c .L53
     /tmp/ccO13uu5.s:740    .text:00000000000004b0 .LEHB2
     /tmp/ccO13uu5.s:748    .text:00000000000004c4 .LEHE2
     /tmp/ccO13uu5.s:752    .text:00000000000004d4 .LEHB3
     /tmp/ccO13uu5.s:755    .text:00000000000004dc .LEHE3
     /tmp/ccO13uu5.s:847    .text:0000000000000578 .L54
     /tmp/ccO13uu5.s:759    .text:00000000000004e0 .LEHB4
     /tmp/ccO13uu5.s:818    .text:0000000000000544 .LEHE4
     /tmp/ccO13uu5.s:843    .text:0000000000000570 .LEHB5
     /tmp/ccO13uu5.s:846    .text:0000000000000578 .LEHE5
     /tmp/ccO13uu5.s:855    .text:000000000000058c .LEHB6
     /tmp/ccO13uu5.s:858    .text:0000000000000594 .LEHE6
     /tmp/ccO13uu5.s:922    .text:00000000000005b0 .LEHB7
     /tmp/ccO13uu5.s:902    .text:0000000000000594 .LFB27
     /tmp/ccO13uu5.s:925    .text:00000000000005b8 .LEHE7
     /tmp/ccO13uu5.s:929    .text:00000000000005c8 .LEHB8
     /tmp/ccO13uu5.s:932    .text:00000000000005d0 .LEHE8
     /tmp/ccO13uu5.s:1025   .text:0000000000000684 .L62
     /tmp/ccO13uu5.s:936    .text:00000000000005d4 .LEHB9
     /tmp/ccO13uu5.s:944    .text:00000000000005e8 .LEHE9
     /tmp/ccO13uu5.s:948    .text:00000000000005f8 .LEHB10
     /tmp/ccO13uu5.s:951    .text:0000000000000600 .LEHE10
     /tmp/ccO13uu5.s:1037   .text:00000000000006a0 .L63
     /tmp/ccO13uu5.s:955    .text:0000000000000604 .LEHB11
GAS LISTING /tmp/ccO13uu5.s 			page 78


     /tmp/ccO13uu5.s:963    .text:0000000000000618 .LEHE11
     /tmp/ccO13uu5.s:968    .text:0000000000000628 .LEHB12
     /tmp/ccO13uu5.s:971    .text:0000000000000630 .LEHE12
     /tmp/ccO13uu5.s:1049   .text:00000000000006bc .L64
     /tmp/ccO13uu5.s:975    .text:0000000000000634 .LEHB13
     /tmp/ccO13uu5.s:1008   .text:000000000000066c .LEHE13
     /tmp/ccO13uu5.s:1033   .text:0000000000000698 .LEHB14
     /tmp/ccO13uu5.s:1036   .text:00000000000006a0 .LEHE14
     /tmp/ccO13uu5.s:1045   .text:00000000000006b4 .LEHB15
     /tmp/ccO13uu5.s:1048   .text:00000000000006bc .LEHE15
     /tmp/ccO13uu5.s:1057   .text:00000000000006d0 .LEHB16
     /tmp/ccO13uu5.s:1060   .text:00000000000006d8 .LEHE16
     /tmp/ccO13uu5.s:1864   .text:0000000000000bac .LEHB17
     /tmp/ccO13uu5.s:1844   .text:0000000000000b90 .LFB37
     /tmp/ccO13uu5.s:1867   .text:0000000000000bb4 .LEHE17
     /tmp/ccO13uu5.s:1870   .text:0000000000000bbc .LEHB18
     /tmp/ccO13uu5.s:1873   .text:0000000000000bc4 .LEHE18
     /tmp/ccO13uu5.s:1949   .text:0000000000000c60 .L124
     /tmp/ccO13uu5.s:1879   .text:0000000000000bd0 .LEHB19
     /tmp/ccO13uu5.s:1882   .text:0000000000000bd8 .LEHE19
     /tmp/ccO13uu5.s:1886   .text:0000000000000be8 .LEHB20
     /tmp/ccO13uu5.s:1889   .text:0000000000000bf0 .LEHE20
     /tmp/ccO13uu5.s:1961   .text:0000000000000c7c .L125
     /tmp/ccO13uu5.s:1893   .text:0000000000000bf4 .LEHB21
     /tmp/ccO13uu5.s:1896   .text:0000000000000bfc .LEHE21
     /tmp/ccO13uu5.s:1900   .text:0000000000000c0c .LEHB22
     /tmp/ccO13uu5.s:1903   .text:0000000000000c14 .LEHE22
     /tmp/ccO13uu5.s:1972   .text:0000000000000c98 .L126
     /tmp/ccO13uu5.s:1907   .text:0000000000000c18 .LEHB23
     /tmp/ccO13uu5.s:1929   .text:0000000000000c3c .LEHE23
     /tmp/ccO13uu5.s:1957   .text:0000000000000c74 .LEHB24
     /tmp/ccO13uu5.s:1960   .text:0000000000000c7c .LEHE24
     /tmp/ccO13uu5.s:1968   .text:0000000000000c90 .LEHB25
     /tmp/ccO13uu5.s:1971   .text:0000000000000c98 .LEHE25
     /tmp/ccO13uu5.s:1980   .text:0000000000000cac .LEHB26
     /tmp/ccO13uu5.s:1983   .text:0000000000000cb4 .LEHE26
     /tmp/ccO13uu5.s:2060   .text:0000000000000cd4 .LEHB27
     /tmp/ccO13uu5.s:2038   .text:0000000000000cb4 .LFB41
     /tmp/ccO13uu5.s:2063   .text:0000000000000cdc .LEHE27
     /tmp/ccO13uu5.s:2066   .text:0000000000000ce4 .LEHB28
     /tmp/ccO13uu5.s:2069   .text:0000000000000cec .LEHE28
     /tmp/ccO13uu5.s:2197   .text:0000000000000e04 .L137
     /tmp/ccO13uu5.s:2075   .text:0000000000000cf8 .LEHB29
     /tmp/ccO13uu5.s:2078   .text:0000000000000d00 .LEHE29
     /tmp/ccO13uu5.s:2081   .text:0000000000000d08 .LEHB30
     /tmp/ccO13uu5.s:2084   .text:0000000000000d10 .LEHE30
     /tmp/ccO13uu5.s:2209   .text:0000000000000e20 .L138
     /tmp/ccO13uu5.s:2090   .text:0000000000000d1c .LEHB31
     /tmp/ccO13uu5.s:2093   .text:0000000000000d24 .LEHE31
     /tmp/ccO13uu5.s:2096   .text:0000000000000d2c .LEHB32
     /tmp/ccO13uu5.s:2099   .text:0000000000000d34 .LEHE32
     /tmp/ccO13uu5.s:2220   .text:0000000000000e3c .L139
     /tmp/ccO13uu5.s:2105   .text:0000000000000d40 .LEHB33
     /tmp/ccO13uu5.s:2108   .text:0000000000000d48 .LEHE33
     /tmp/ccO13uu5.s:2112   .text:0000000000000d58 .LEHB34
     /tmp/ccO13uu5.s:2115   .text:0000000000000d60 .LEHE34
     /tmp/ccO13uu5.s:2231   .text:0000000000000e58 .L140
GAS LISTING /tmp/ccO13uu5.s 			page 79


     /tmp/ccO13uu5.s:2119   .text:0000000000000d64 .LEHB35
     /tmp/ccO13uu5.s:2122   .text:0000000000000d6c .LEHE35
     /tmp/ccO13uu5.s:2126   .text:0000000000000d7c .LEHB36
     /tmp/ccO13uu5.s:2129   .text:0000000000000d84 .LEHE36
     /tmp/ccO13uu5.s:2242   .text:0000000000000e74 .L141
     /tmp/ccO13uu5.s:2133   .text:0000000000000d88 .LEHB37
     /tmp/ccO13uu5.s:2136   .text:0000000000000d90 .LEHE37
     /tmp/ccO13uu5.s:2140   .text:0000000000000da0 .LEHB38
     /tmp/ccO13uu5.s:2143   .text:0000000000000da8 .LEHE38
     /tmp/ccO13uu5.s:2253   .text:0000000000000e90 .L142
     /tmp/ccO13uu5.s:2147   .text:0000000000000dac .LEHB39
     /tmp/ccO13uu5.s:2174   .text:0000000000000ddc .LEHE39
     /tmp/ccO13uu5.s:2205   .text:0000000000000e18 .LEHB40
     /tmp/ccO13uu5.s:2208   .text:0000000000000e20 .LEHE40
     /tmp/ccO13uu5.s:2216   .text:0000000000000e34 .LEHB41
     /tmp/ccO13uu5.s:2219   .text:0000000000000e3c .LEHE41
     /tmp/ccO13uu5.s:2227   .text:0000000000000e50 .LEHB42
     /tmp/ccO13uu5.s:2230   .text:0000000000000e58 .LEHE42
     /tmp/ccO13uu5.s:2238   .text:0000000000000e6c .LEHB43
     /tmp/ccO13uu5.s:2241   .text:0000000000000e74 .LEHE43
     /tmp/ccO13uu5.s:2249   .text:0000000000000e88 .LEHB44
     /tmp/ccO13uu5.s:2252   .text:0000000000000e90 .LEHE44
     /tmp/ccO13uu5.s:2261   .text:0000000000000ea4 .LEHB45
     /tmp/ccO13uu5.s:2264   .text:0000000000000eac .LEHE45
     /tmp/ccO13uu5.s:5819   .debug_abbrev:0000000000000000 .Ldebug_abbrev0
     /tmp/ccO13uu5.s:7596   .debug_str:0000000000000159 .LASF194
     /tmp/ccO13uu5.s:7704   .debug_str:000000000000052a .LASF195
     /tmp/ccO13uu5.s:7880   .debug_str:0000000000000a04 .LASF196
     /tmp/ccO13uu5.s:5      .text:0000000000000000 .Ltext0
     /tmp/ccO13uu5.s:2433   .text:0000000000000efc .Letext0
     /tmp/ccO13uu5.s:7548   .debug_line:0000000000000000 .Ldebug_line0
     /tmp/ccO13uu5.s:7684   .debug_str:0000000000000498 .LASF0
     /tmp/ccO13uu5.s:7718   .debug_str:00000000000005a2 .LASF1
     /tmp/ccO13uu5.s:7816   .debug_str:000000000000086d .LASF2
     /tmp/ccO13uu5.s:7824   .debug_str:00000000000008a4 .LASF4
     /tmp/ccO13uu5.s:7702   .debug_str:0000000000000518 .LASF3
     /tmp/ccO13uu5.s:7562   .debug_str:0000000000000057 .LASF5
     /tmp/ccO13uu5.s:7786   .debug_str:00000000000007a7 .LASF6
     /tmp/ccO13uu5.s:7778   .debug_str:000000000000076a .LASF7
     /tmp/ccO13uu5.s:7710   .debug_str:000000000000056e .LASF8
     /tmp/ccO13uu5.s:7664   .debug_str:0000000000000400 .LASF9
     /tmp/ccO13uu5.s:7668   .debug_str:000000000000042c .LASF10
     /tmp/ccO13uu5.s:7608   .debug_str:000000000000026c .LASF11
     /tmp/ccO13uu5.s:7656   .debug_str:00000000000003d2 .LASF12
     /tmp/ccO13uu5.s:7616   .debug_str:00000000000002a1 .LASF13
     /tmp/ccO13uu5.s:7606   .debug_str:000000000000025c .LASF14
     /tmp/ccO13uu5.s:7852   .debug_str:000000000000095b .LASF15
     /tmp/ccO13uu5.s:7644   .debug_str:0000000000000369 .LASF16
     /tmp/ccO13uu5.s:7846   .debug_str:0000000000000922 .LASF17
     /tmp/ccO13uu5.s:7912   .debug_str:0000000000000ade .LASF82
     /tmp/ccO13uu5.s:7748   .debug_str:0000000000000699 .LASF18
     /tmp/ccO13uu5.s:7738   .debug_str:0000000000000647 .LASF20
     /tmp/ccO13uu5.s:7642   .debug_str:000000000000035f .LASF19
     /tmp/ccO13uu5.s:7558   .debug_str:0000000000000039 .LASF21
     /tmp/ccO13uu5.s:7900   .debug_str:0000000000000a86 .LASF22
     /tmp/ccO13uu5.s:7728   .debug_str:00000000000005eb .LASF23
     /tmp/ccO13uu5.s:7696   .debug_str:00000000000004ed .LASF24
GAS LISTING /tmp/ccO13uu5.s 			page 80


     /tmp/ccO13uu5.s:7618   .debug_str:00000000000002b1 .LASF25
     /tmp/ccO13uu5.s:7934   .debug_str:0000000000000b74 .LASF26
     /tmp/ccO13uu5.s:7570   .debug_str:0000000000000084 .LASF28
     /tmp/ccO13uu5.s:7784   .debug_str:000000000000079a .LASF27
     /tmp/ccO13uu5.s:7572   .debug_str:000000000000009f .LASF29
     /tmp/ccO13uu5.s:7832   .debug_str:00000000000008cd .LASF30
     /tmp/ccO13uu5.s:7650   .debug_str:000000000000039c .LASF31
     /tmp/ccO13uu5.s:7688   .debug_str:00000000000004b5 .LASF32
     /tmp/ccO13uu5.s:7924   .debug_str:0000000000000b26 .LASF33
     /tmp/ccO13uu5.s:7894   .debug_str:0000000000000a6e .LASF36
     /tmp/ccO13uu5.s:7886   .debug_str:0000000000000a39 .LASF38
     /tmp/ccO13uu5.s:7812   .debug_str:0000000000000859 .LASF34
     /tmp/ccO13uu5.s:7766   .debug_str:0000000000000713 .LASF35
     /tmp/ccO13uu5.s:7794   .debug_str:00000000000007df .LASF37
     /tmp/ccO13uu5.s:7798   .debug_str:00000000000007f5 .LASF39
     /tmp/ccO13uu5.s:7760   .debug_str:00000000000006f2 .LASF40
     /tmp/ccO13uu5.s:7712   .debug_str:0000000000000581 .LASF41
     /tmp/ccO13uu5.s:7926   .debug_str:0000000000000b40 .LASF42
     /tmp/ccO13uu5.s:7874   .debug_str:00000000000009d1 .LASF43
     /tmp/ccO13uu5.s:7758   .debug_str:00000000000006ea .LASF44
     /tmp/ccO13uu5.s:7764   .debug_str:00000000000006ff .LASF45
     /tmp/ccO13uu5.s:7744   .debug_str:000000000000067f .LASF46
     /tmp/ccO13uu5.s:7800   .debug_str:0000000000000808 .LASF47
     /tmp/ccO13uu5.s:7958   .debug_str:0000000000000c14 .LASF48
     /tmp/ccO13uu5.s:7692   .debug_str:00000000000004c8 .LASF49
     /tmp/ccO13uu5.s:7850   .debug_str:0000000000000954 .LASF50
     /tmp/ccO13uu5.s:7826   .debug_str:00000000000008ab .LASF51
     /tmp/ccO13uu5.s:7828   .debug_str:00000000000008be .LASF52
     /tmp/ccO13uu5.s:7612   .debug_str:0000000000000284 .LASF53
     /tmp/ccO13uu5.s:7640   .debug_str:0000000000000359 .LASF54
     /tmp/ccO13uu5.s:7678   .debug_str:0000000000000465 .LASF55
     /tmp/ccO13uu5.s:7690   .debug_str:00000000000004c2 .LASF56
     /tmp/ccO13uu5.s:7630   .debug_str:000000000000031d .LASF57
     /tmp/ccO13uu5.s:7564   .debug_str:000000000000005e .LASF58
     /tmp/ccO13uu5.s:7820   .debug_str:0000000000000883 .LASF59
     /tmp/ccO13uu5.s:7814   .debug_str:0000000000000862 .LASF60
     /tmp/ccO13uu5.s:7950   .debug_str:0000000000000be2 .LASF61
     /tmp/ccO13uu5.s:7916   .debug_str:0000000000000af5 .LASF62
     /tmp/ccO13uu5.s:7932   .debug_str:0000000000000b5e .LASF63
     /tmp/ccO13uu5.s:7910   .debug_str:0000000000000ad4 .LASF64
     /tmp/ccO13uu5.s:7740   .debug_str:000000000000065f .LASF65
     /tmp/ccO13uu5.s:7674   .debug_str:0000000000000454 .LASF66
     /tmp/ccO13uu5.s:7682   .debug_str:0000000000000480 .LASF67
     /tmp/ccO13uu5.s:7892   .debug_str:0000000000000a5f .LASF68
     /tmp/ccO13uu5.s:7666   .debug_str:0000000000000410 .LASF69
     /tmp/ccO13uu5.s:7782   .debug_str:0000000000000785 .LASF70
     /tmp/ccO13uu5.s:7708   .debug_str:000000000000054c .LASF71
     /tmp/ccO13uu5.s:7626   .debug_str:0000000000000303 .LASF72
     /tmp/ccO13uu5.s:7560   .debug_str:000000000000004f .LASF73
     /tmp/ccO13uu5.s:7586   .debug_str:000000000000011f .LASF74
     /tmp/ccO13uu5.s:7890   .debug_str:0000000000000a53 .LASF75
     /tmp/ccO13uu5.s:7588   .debug_str:000000000000012e .LASF76
     /tmp/ccO13uu5.s:7746   .debug_str:0000000000000687 .LASF77
     /tmp/ccO13uu5.s:7670   .debug_str:000000000000043a .LASF78
     /tmp/ccO13uu5.s:7908   .debug_str:0000000000000ac1 .LASF79
     /tmp/ccO13uu5.s:7604   .debug_str:0000000000000248 .LASF80
     /tmp/ccO13uu5.s:7864   .debug_str:000000000000099b .LASF81
GAS LISTING /tmp/ccO13uu5.s 			page 81


     /tmp/ccO13uu5.s:7868   .debug_str:00000000000009b3 .LASF197
     /tmp/ccO13uu5.s:7602   .debug_str:0000000000000242 .LASF83
     /tmp/ccO13uu5.s:7840   .debug_str:0000000000000900 .LASF84
     /tmp/ccO13uu5.s:7614   .debug_str:0000000000000297 .LASF85
     /tmp/ccO13uu5.s:7592   .debug_str:0000000000000146 .LASF86
     /tmp/ccO13uu5.s:7780   .debug_str:000000000000077d .LASF87
     /tmp/ccO13uu5.s:7714   .debug_str:0000000000000594 .LASF88
     /tmp/ccO13uu5.s:7860   .debug_str:0000000000000987 .LASF129
     /tmp/ccO13uu5.s:7676   .debug_str:000000000000045f .LASF89
     /tmp/ccO13uu5.s:7756   .debug_str:00000000000006d2 .LASF198
     /tmp/ccO13uu5.s:7770   .debug_str:000000000000072f .LASF199
     /tmp/ccO13uu5.s:7716   .debug_str:000000000000059d .LASF90
     /tmp/ccO13uu5.s:7946   .debug_str:0000000000000bc0 .LASF92
     /tmp/ccO13uu5.s:7944   .debug_str:0000000000000bba .LASF91
     /tmp/ccO13uu5.s:7872   .debug_str:00000000000009c1 .LASF93
     /tmp/ccO13uu5.s:7632   .debug_str:000000000000032f .LASF94
     /tmp/ccO13uu5.s:7568   .debug_str:0000000000000071 .LASF95
     /tmp/ccO13uu5.s:7720   .debug_str:00000000000005b5 .LASF96
     /tmp/ccO13uu5.s:7772   .debug_str:0000000000000734 .LASF97
     /tmp/ccO13uu5.s:7870   .debug_str:00000000000009b9 .LASF98
     /tmp/ccO13uu5.s:7922   .debug_str:0000000000000b1b .LASF99
     /tmp/ccO13uu5.s:7834   .debug_str:00000000000008db .LASF100
     /tmp/ccO13uu5.s:7724   .debug_str:00000000000005ce .LASF105
     /tmp/ccO13uu5.s:7730   .debug_str:0000000000000609 .LASF107
     /tmp/ccO13uu5.s:7952   .debug_str:0000000000000bfa .LASF101
     /tmp/ccO13uu5.s:7660   .debug_str:00000000000003e6 .LASF102
     /tmp/ccO13uu5.s:7686   .debug_str:00000000000004a5 .LASF103
     /tmp/ccO13uu5.s:7698   .debug_str:00000000000004ff .LASF104
     /tmp/ccO13uu5.s:7836   .debug_str:00000000000008ec .LASF106
     /tmp/ccO13uu5.s:7628   .debug_str:000000000000030a .LASF108
     /tmp/ccO13uu5.s:7822   .debug_str:000000000000089b .LASF109
     /tmp/ccO13uu5.s:7848   .debug_str:0000000000000938 .LASF110
     /tmp/ccO13uu5.s:7754   .debug_str:00000000000006c3 .LASF111
     /tmp/ccO13uu5.s:7554   .debug_str:000000000000001a .LASF112
     /tmp/ccO13uu5.s:7930   .debug_str:0000000000000b4f .LASF113
     /tmp/ccO13uu5.s:7776   .debug_str:0000000000000750 .LASF114
     /tmp/ccO13uu5.s:7844   .debug_str:0000000000000914 .LASF115
     /tmp/ccO13uu5.s:7792   .debug_str:00000000000007d3 .LASF116
     /tmp/ccO13uu5.s:7552   .debug_str:000000000000000a .LASF117
     /tmp/ccO13uu5.s:7936   .debug_str:0000000000000b80 .LASF118
     /tmp/ccO13uu5.s:7830   .debug_str:00000000000008c5 .LASF133
     /tmp/ccO13uu5.s:7876   .debug_str:00000000000009e5 .LASF119
     /tmp/ccO13uu5.s:7774   .debug_str:0000000000000744 .LASF120
     /tmp/ccO13uu5.s:7620   .debug_str:00000000000002d0 .LASF121
     /tmp/ccO13uu5.s:7576   .debug_str:00000000000000d1 .LASF123
     /tmp/ccO13uu5.s:7652   .debug_str:00000000000003b7 .LASF122
     /tmp/ccO13uu5.s:7600   .debug_str:0000000000000216 .LASF124
     /tmp/ccO13uu5.s:7928   .debug_str:0000000000000b48 .LASF200
     /tmp/ccO13uu5.s:7598   .debug_str:0000000000000205 .LASF201
     /tmp/ccO13uu5.s:7556   .debug_str:0000000000000034 .LASF125
     /tmp/ccO13uu5.s:7896   .debug_str:0000000000000a77 .LASF126
     /tmp/ccO13uu5.s:7732   .debug_str:0000000000000621 .LASF127
     /tmp/ccO13uu5.s:7638   .debug_str:0000000000000353 .LASF128
     /tmp/ccO13uu5.s:7884   .debug_str:0000000000000a31 .LASF130
     /tmp/ccO13uu5.s:7582   .debug_str:000000000000010b .LASF131
     /tmp/ccO13uu5.s:7888   .debug_str:0000000000000a4e .LASF132
     /tmp/ccO13uu5.s:7898   .debug_str:0000000000000a7c .LASF145
GAS LISTING /tmp/ccO13uu5.s 			page 82


     /tmp/ccO13uu5.s:7878   .debug_str:00000000000009ef .LASF134
     /tmp/ccO13uu5.s:7634   .debug_str:0000000000000338 .LASF136
     /tmp/ccO13uu5.s:7788   .debug_str:00000000000007ae .LASF135
     /tmp/ccO13uu5.s:7858   .debug_str:0000000000000980 .LASF137
     /tmp/ccO13uu5.s:7810   .debug_str:0000000000000853 .LASF138
     /tmp/ccO13uu5.s:7818   .debug_str:000000000000087b .LASF139
     /tmp/ccO13uu5.s:7648   .debug_str:0000000000000390 .LASF141
     /tmp/ccO13uu5.s:2386   .text:0000000000000ed4 .LFB43
     /tmp/ccO13uu5.s:2411   .text:0000000000000efc .LFE43
     /tmp/ccO13uu5.s:2400   .text:0000000000000eec .LVL264
     /tmp/ccO13uu5.s:7796   .debug_str:00000000000007e6 .LASF140
     /tmp/ccO13uu5.s:7706   .debug_str:0000000000000538 .LASF142
     /tmp/ccO13uu5.s:2355   .text:0000000000000eac .LFB42
     /tmp/ccO13uu5.s:2380   .text:0000000000000ed4 .LFE42
     /tmp/ccO13uu5.s:2369   .text:0000000000000ec4 .LVL263
     /tmp/ccO13uu5.s:7610   .debug_str:000000000000027b .LASF143
     /tmp/ccO13uu5.s:7804   .debug_str:0000000000000837 .LASF144
     /tmp/ccO13uu5.s:2266   .text:0000000000000eac .LFE41
     /tmp/ccO13uu5.s:6929   .debug_loc:0000000000000000 .LLST47
     /tmp/ccO13uu5.s:6940   .debug_loc:0000000000000036 .LLST48
     /tmp/ccO13uu5.s:6951   .debug_loc:000000000000006c .LLST49
     /tmp/ccO13uu5.s:6958   .debug_loc:000000000000008f .LLST50
     /tmp/ccO13uu5.s:2062   .text:0000000000000cdc .LVL230
     /tmp/ccO13uu5.s:2068   .text:0000000000000cec .LVL231
     /tmp/ccO13uu5.s:2077   .text:0000000000000d00 .LVL232
     /tmp/ccO13uu5.s:2083   .text:0000000000000d10 .LVL233
     /tmp/ccO13uu5.s:2092   .text:0000000000000d24 .LVL234
     /tmp/ccO13uu5.s:2098   .text:0000000000000d34 .LVL235
     /tmp/ccO13uu5.s:2107   .text:0000000000000d48 .LVL236
     /tmp/ccO13uu5.s:2114   .text:0000000000000d60 .LVL237
     /tmp/ccO13uu5.s:2121   .text:0000000000000d6c .LVL238
     /tmp/ccO13uu5.s:2128   .text:0000000000000d84 .LVL239
     /tmp/ccO13uu5.s:2135   .text:0000000000000d90 .LVL240
     /tmp/ccO13uu5.s:2142   .text:0000000000000da8 .LVL241
     /tmp/ccO13uu5.s:2149   .text:0000000000000db4 .LVL242
     /tmp/ccO13uu5.s:2154   .text:0000000000000dc0 .LVL243
     /tmp/ccO13uu5.s:2159   .text:0000000000000dcc .LVL244
     /tmp/ccO13uu5.s:2173   .text:0000000000000ddc .LVL247
     /tmp/ccO13uu5.s:2203   .text:0000000000000e14 .LVL250
     /tmp/ccO13uu5.s:2207   .text:0000000000000e20 .LVL251
     /tmp/ccO13uu5.s:2214   .text:0000000000000e30 .LVL252
     /tmp/ccO13uu5.s:2218   .text:0000000000000e3c .LVL253
     /tmp/ccO13uu5.s:2225   .text:0000000000000e4c .LVL254
     /tmp/ccO13uu5.s:2229   .text:0000000000000e58 .LVL255
     /tmp/ccO13uu5.s:2236   .text:0000000000000e68 .LVL256
     /tmp/ccO13uu5.s:2240   .text:0000000000000e74 .LVL257
     /tmp/ccO13uu5.s:2247   .text:0000000000000e84 .LVL258
     /tmp/ccO13uu5.s:2251   .text:0000000000000e90 .LVL259
     /tmp/ccO13uu5.s:2259   .text:0000000000000ea0 .LVL261
     /tmp/ccO13uu5.s:2263   .text:0000000000000eac .LVL262
     /tmp/ccO13uu5.s:7672   .debug_str:000000000000044d .LASF146
     /tmp/ccO13uu5.s:7722   .debug_str:00000000000005bb .LASF147
     /tmp/ccO13uu5.s:7806   .debug_str:0000000000000844 .LASF148
     /tmp/ccO13uu5.s:7594   .debug_str:000000000000014f .LASF149
     /tmp/ccO13uu5.s:623    .text:00000000000003e4 .LFB40
     /tmp/ccO13uu5.s:692    .text:0000000000000470 .LFE40
     /tmp/ccO13uu5.s:6970   .debug_loc:00000000000000c6 .LLST14
GAS LISTING /tmp/ccO13uu5.s 			page 83


     /tmp/ccO13uu5.s:6984   .debug_loc:00000000000000ff .LLST15
     /tmp/ccO13uu5.s:644    .text:000000000000040c .LVL74
     /tmp/ccO13uu5.s:654    .text:000000000000041c .LVL76
     /tmp/ccO13uu5.s:666    .text:0000000000000434 .LVL78
     /tmp/ccO13uu5.s:671    .text:0000000000000440 .LVL79
     /tmp/ccO13uu5.s:676    .text:000000000000044c .LVL80
     /tmp/ccO13uu5.s:681    .text:0000000000000458 .LVL81
     /tmp/ccO13uu5.s:689    .text:000000000000046c .LVL82
     /tmp/ccO13uu5.s:7942   .debug_str:0000000000000bb5 .LASF150
     /tmp/ccO13uu5.s:7808   .debug_str:0000000000000849 .LASF151
     /tmp/ccO13uu5.s:543    .text:0000000000000358 .LFB39
     /tmp/ccO13uu5.s:612    .text:00000000000003e4 .LFE39
     /tmp/ccO13uu5.s:6996   .debug_loc:0000000000000136 .LLST12
     /tmp/ccO13uu5.s:7010   .debug_loc:000000000000016f .LLST13
     /tmp/ccO13uu5.s:564    .text:0000000000000380 .LVL63
     /tmp/ccO13uu5.s:574    .text:0000000000000390 .LVL65
     /tmp/ccO13uu5.s:586    .text:00000000000003a8 .LVL67
     /tmp/ccO13uu5.s:591    .text:00000000000003b4 .LVL68
     /tmp/ccO13uu5.s:596    .text:00000000000003c0 .LVL69
     /tmp/ccO13uu5.s:601    .text:00000000000003cc .LVL70
     /tmp/ccO13uu5.s:609    .text:00000000000003e0 .LVL71
     /tmp/ccO13uu5.s:7954   .debug_str:0000000000000c07 .LASF152
     /tmp/ccO13uu5.s:7550   .debug_str:0000000000000000 .LASF153
     /tmp/ccO13uu5.s:463    .text:00000000000002cc .LFB38
     /tmp/ccO13uu5.s:532    .text:0000000000000358 .LFE38
     /tmp/ccO13uu5.s:7022   .debug_loc:00000000000001a6 .LLST10
     /tmp/ccO13uu5.s:7036   .debug_loc:00000000000001df .LLST11
     /tmp/ccO13uu5.s:484    .text:00000000000002f4 .LVL52
     /tmp/ccO13uu5.s:494    .text:0000000000000304 .LVL54
     /tmp/ccO13uu5.s:506    .text:000000000000031c .LVL56
     /tmp/ccO13uu5.s:511    .text:0000000000000328 .LVL57
     /tmp/ccO13uu5.s:516    .text:0000000000000334 .LVL58
     /tmp/ccO13uu5.s:521    .text:0000000000000340 .LVL59
     /tmp/ccO13uu5.s:529    .text:0000000000000354 .LVL60
     /tmp/ccO13uu5.s:7854   .debug_str:0000000000000967 .LASF154
     /tmp/ccO13uu5.s:7750   .debug_str:00000000000006a4 .LASF155
     /tmp/ccO13uu5.s:1985   .text:0000000000000cb4 .LFE37
     /tmp/ccO13uu5.s:7048   .debug_loc:0000000000000216 .LLST44
     /tmp/ccO13uu5.s:7059   .debug_loc:000000000000024c .LLST45
     /tmp/ccO13uu5.s:7066   .debug_loc:000000000000026f .LLST46
     /tmp/ccO13uu5.s:1866   .text:0000000000000bb4 .LVL211
     /tmp/ccO13uu5.s:1872   .text:0000000000000bc4 .LVL212
     /tmp/ccO13uu5.s:1881   .text:0000000000000bd8 .LVL213
     /tmp/ccO13uu5.s:1888   .text:0000000000000bf0 .LVL214
     /tmp/ccO13uu5.s:1895   .text:0000000000000bfc .LVL215
     /tmp/ccO13uu5.s:1902   .text:0000000000000c14 .LVL216
     /tmp/ccO13uu5.s:1909   .text:0000000000000c20 .LVL217
     /tmp/ccO13uu5.s:1914   .text:0000000000000c2c .LVL218
     /tmp/ccO13uu5.s:1928   .text:0000000000000c3c .LVL221
     /tmp/ccO13uu5.s:1955   .text:0000000000000c70 .LVL223
     /tmp/ccO13uu5.s:1959   .text:0000000000000c7c .LVL224
     /tmp/ccO13uu5.s:1966   .text:0000000000000c8c .LVL225
     /tmp/ccO13uu5.s:1970   .text:0000000000000c98 .LVL226
     /tmp/ccO13uu5.s:1978   .text:0000000000000ca8 .LVL228
     /tmp/ccO13uu5.s:1982   .text:0000000000000cb4 .LVL229
     /tmp/ccO13uu5.s:7902   .debug_str:0000000000000a97 .LASF156
     /tmp/ccO13uu5.s:411    .text:000000000000027c .LFB36
GAS LISTING /tmp/ccO13uu5.s 			page 84


     /tmp/ccO13uu5.s:452    .text:00000000000002cc .LFE36
     /tmp/ccO13uu5.s:7078   .debug_loc:00000000000002a6 .LLST9
     /tmp/ccO13uu5.s:430    .text:00000000000002a0 .LVL46
     /tmp/ccO13uu5.s:439    .text:00000000000002b4 .LVL47
     /tmp/ccO13uu5.s:444    .text:00000000000002c0 .LVL48
     /tmp/ccO13uu5.s:449    .text:00000000000002c8 .LVL49
     /tmp/ccO13uu5.s:7566   .debug_str:0000000000000069 .LASF157
     /tmp/ccO13uu5.s:341    .text:0000000000000208 .LFB35
     /tmp/ccO13uu5.s:400    .text:000000000000027c .LFE35
     /tmp/ccO13uu5.s:7092   .debug_loc:00000000000002df .LLST7
     /tmp/ccO13uu5.s:7106   .debug_loc:0000000000000318 .LLST8
     /tmp/ccO13uu5.s:362    .text:0000000000000230 .LVL37
     /tmp/ccO13uu5.s:372    .text:0000000000000240 .LVL39
     /tmp/ccO13uu5.s:384    .text:0000000000000258 .LVL41
     /tmp/ccO13uu5.s:389    .text:0000000000000264 .LVL42
     /tmp/ccO13uu5.s:397    .text:0000000000000278 .LVL43
     /tmp/ccO13uu5.s:7948   .debug_str:0000000000000bcc .LASF158
     /tmp/ccO13uu5.s:7802   .debug_str:000000000000081c .LASF159
     /tmp/ccO13uu5.s:1813   .text:0000000000000b68 .LFB34
     /tmp/ccO13uu5.s:1838   .text:0000000000000b90 .LFE34
     /tmp/ccO13uu5.s:1827   .text:0000000000000b80 .LVL210
     /tmp/ccO13uu5.s:7662   .debug_str:00000000000003f2 .LASF160
     /tmp/ccO13uu5.s:7866   .debug_str:00000000000009a0 .LASF161
     /tmp/ccO13uu5.s:1631   .text:0000000000000a28 .LFB33
     /tmp/ccO13uu5.s:1807   .text:0000000000000b68 .LFE33
     /tmp/ccO13uu5.s:7762   .debug_str:00000000000006f9 .LASF162
     /tmp/ccO13uu5.s:7118   .debug_loc:000000000000034f .LLST38
     /tmp/ccO13uu5.s:1651   .text:0000000000000a50 .LBB29
     /tmp/ccO13uu5.s:1678   .text:0000000000000a84 .LBE29
     /tmp/ccO13uu5.s:7129   .debug_loc:0000000000000385 .LLST39
     /tmp/ccO13uu5.s:1668   .text:0000000000000a70 .LVL191
     /tmp/ccO13uu5.s:1704   .text:0000000000000aa4 .LBB31
     /tmp/ccO13uu5.s:1748   .text:0000000000000afc .LBE31
     /tmp/ccO13uu5.s:7140   .debug_loc:00000000000003bb .LLST40
     /tmp/ccO13uu5.s:1712   .text:0000000000000ab0 .LBB32
     /tmp/ccO13uu5.s:1739   .text:0000000000000af4 .LBE32
     /tmp/ccO13uu5.s:7580   .debug_str:0000000000000104 .LASF163
     /tmp/ccO13uu5.s:7151   .debug_loc:00000000000003f1 .LLST41
     /tmp/ccO13uu5.s:1720   .text:0000000000000ac8 .LVL196
     /tmp/ccO13uu5.s:1731   .text:0000000000000ae0 .LVL198
     /tmp/ccO13uu5.s:1749   .text:0000000000000afc .LBB33
     /tmp/ccO13uu5.s:1790   .text:0000000000000b4c .LBE33
     /tmp/ccO13uu5.s:7158   .debug_loc:0000000000000414 .LLST42
     /tmp/ccO13uu5.s:1757   .text:0000000000000b08 .LBB34
     /tmp/ccO13uu5.s:1781   .text:0000000000000b44 .LBE34
     /tmp/ccO13uu5.s:7169   .debug_loc:000000000000044a .LLST43
     /tmp/ccO13uu5.s:1765   .text:0000000000000b20 .LVL202
     /tmp/ccO13uu5.s:1773   .text:0000000000000b30 .LVL204
     /tmp/ccO13uu5.s:1650   .text:0000000000000a50 .LVL188
     /tmp/ccO13uu5.s:1804   .text:0000000000000b64 .LVL209
     /tmp/ccO13uu5.s:7956   .debug_str:0000000000000c0c .LASF164
     /tmp/ccO13uu5.s:7842   .debug_str:0000000000000908 .LASF165
     /tmp/ccO13uu5.s:1562   .text:00000000000009b8 .LFB32
     /tmp/ccO13uu5.s:1620   .text:0000000000000a28 .LFE32
     /tmp/ccO13uu5.s:7176   .debug_loc:000000000000046d .LLST36
     /tmp/ccO13uu5.s:7189   .debug_loc:00000000000004a5 .LLST37
     /tmp/ccO13uu5.s:1577   .text:00000000000009d8 .LVL179
GAS LISTING /tmp/ccO13uu5.s 			page 85


     /tmp/ccO13uu5.s:1582   .text:00000000000009e4 .LVL180
     /tmp/ccO13uu5.s:1588   .text:00000000000009f0 .LVL182
     /tmp/ccO13uu5.s:1596   .text:0000000000000a04 .LVL184
     /tmp/ccO13uu5.s:1616   .text:0000000000000a24 .LVL187
     /tmp/ccO13uu5.s:7752   .debug_str:00000000000006b1 .LASF166
     /tmp/ccO13uu5.s:7736   .debug_str:0000000000000630 .LASF167
     /tmp/ccO13uu5.s:1426   .text:00000000000008e0 .LFB31
     /tmp/ccO13uu5.s:1551   .text:00000000000009b8 .LFE31
     /tmp/ccO13uu5.s:7216   .debug_loc:00000000000004eb .LLST32
     /tmp/ccO13uu5.s:7228   .debug_loc:0000000000000522 .LLST33
     /tmp/ccO13uu5.s:7522   .debug_ranges:0000000000000000 .Ldebug_ranges0
     /tmp/ccO13uu5.s:7244   .debug_loc:000000000000056c .LLST34
     /tmp/ccO13uu5.s:7260   .debug_loc:00000000000005b6 .LLST35
     /tmp/ccO13uu5.s:1492   .text:0000000000000948 .LVL169
     /tmp/ccO13uu5.s:1447   .text:000000000000090c .LVL164
     /tmp/ccO13uu5.s:1503   .text:0000000000000958 .LVL171
     /tmp/ccO13uu5.s:1508   .text:0000000000000968 .LVL172
     /tmp/ccO13uu5.s:1521   .text:0000000000000988 .LVL174
     /tmp/ccO13uu5.s:1548   .text:00000000000009b4 .LVL178
     /tmp/ccO13uu5.s:7882   .debug_str:0000000000000a27 .LASF168
     /tmp/ccO13uu5.s:7790   .debug_str:00000000000007c5 .LASF169
     /tmp/ccO13uu5.s:1355   .text:0000000000000860 .LFB30
     /tmp/ccO13uu5.s:1415   .text:00000000000008e0 .LFE30
     /tmp/ccO13uu5.s:7271   .debug_loc:00000000000005ec .LLST30
     /tmp/ccO13uu5.s:7284   .debug_loc:0000000000000625 .LLST31
     /tmp/ccO13uu5.s:1370   .text:0000000000000880 .LVL155
     /tmp/ccO13uu5.s:1384   .text:00000000000008a8 .LVL158
     /tmp/ccO13uu5.s:1392   .text:00000000000008bc .LVL160
     /tmp/ccO13uu5.s:1412   .text:00000000000008dc .LVL163
     /tmp/ccO13uu5.s:7838   .debug_str:00000000000008f5 .LASF170
     /tmp/ccO13uu5.s:7624   .debug_str:00000000000002f3 .LASF171
     /tmp/ccO13uu5.s:1157   .text:0000000000000700 .LFB29
     /tmp/ccO13uu5.s:1344   .text:0000000000000860 .LFE29
     /tmp/ccO13uu5.s:1175   .text:0000000000000724 .LBB17
     /tmp/ccO13uu5.s:1207   .text:0000000000000768 .LBE17
     /tmp/ccO13uu5.s:7295   .debug_loc:000000000000065b .LLST24
     /tmp/ccO13uu5.s:1192   .text:0000000000000744 .LVL134
     /tmp/ccO13uu5.s:1204   .text:0000000000000768 .LVL135
     /tmp/ccO13uu5.s:1223   .text:000000000000077c .LBB18
     /tmp/ccO13uu5.s:1262   .text:00000000000007c0 .LBE18
     /tmp/ccO13uu5.s:7306   .debug_loc:0000000000000691 .LLST25
     /tmp/ccO13uu5.s:7317   .debug_loc:00000000000006c7 .LLST26
     /tmp/ccO13uu5.s:1239   .text:00000000000007a0 .LVL138
     /tmp/ccO13uu5.s:1257   .text:00000000000007bc .LVL142
     /tmp/ccO13uu5.s:1263   .text:00000000000007c0 .LBB21
     /tmp/ccO13uu5.s:1298   .text:0000000000000808 .LBE21
     /tmp/ccO13uu5.s:7324   .debug_loc:00000000000006ea .LLST27
     /tmp/ccO13uu5.s:1282   .text:00000000000007e0 .LVL146
     /tmp/ccO13uu5.s:1294   .text:0000000000000804 .LVL147
     /tmp/ccO13uu5.s:1299   .text:0000000000000808 .LBB22
     /tmp/ccO13uu5.s:1336   .text:000000000000084c .LBE22
     /tmp/ccO13uu5.s:7331   .debug_loc:000000000000070d .LLST28
     /tmp/ccO13uu5.s:7342   .debug_loc:0000000000000743 .LLST29
     /tmp/ccO13uu5.s:1315   .text:000000000000082c .LVL149
     /tmp/ccO13uu5.s:1331   .text:0000000000000848 .LVL153
     /tmp/ccO13uu5.s:1174   .text:0000000000000724 .LVL131
     /tmp/ccO13uu5.s:1341   .text:000000000000085c .LVL154
GAS LISTING /tmp/ccO13uu5.s 			page 86


     /tmp/ccO13uu5.s:7906   .debug_str:0000000000000ab5 .LASF172
     /tmp/ccO13uu5.s:7914   .debug_str:0000000000000ae4 .LASF173
     /tmp/ccO13uu5.s:1115   .text:00000000000006d8 .LFB28
     /tmp/ccO13uu5.s:1140   .text:0000000000000700 .LFE28
     /tmp/ccO13uu5.s:1129   .text:00000000000006f0 .LVL130
     /tmp/ccO13uu5.s:7918   .debug_str:0000000000000aff .LASF174
     /tmp/ccO13uu5.s:7694   .debug_str:00000000000004dc .LASF175
     /tmp/ccO13uu5.s:1062   .text:00000000000006d8 .LFE27
     /tmp/ccO13uu5.s:7578   .debug_str:00000000000000f9 .LASF176
     /tmp/ccO13uu5.s:7349   .debug_loc:0000000000000766 .LLST20
     /tmp/ccO13uu5.s:7364   .debug_loc:00000000000007af .LLST21
     /tmp/ccO13uu5.s:7371   .debug_loc:00000000000007d2 .LLST22
     /tmp/ccO13uu5.s:988    .text:0000000000000648 .LBB15
     /tmp/ccO13uu5.s:995    .text:000000000000064c .LBE15
     /tmp/ccO13uu5.s:7378   .debug_loc:00000000000007f5 .LLST23
     /tmp/ccO13uu5.s:924    .text:00000000000005b8 .LVL105
     /tmp/ccO13uu5.s:931    .text:00000000000005d0 .LVL106
     /tmp/ccO13uu5.s:938    .text:00000000000005dc .LVL107
     /tmp/ccO13uu5.s:943    .text:00000000000005e8 .LVL108
     /tmp/ccO13uu5.s:950    .text:0000000000000600 .LVL109
     /tmp/ccO13uu5.s:957    .text:000000000000060c .LVL110
     /tmp/ccO13uu5.s:962    .text:0000000000000618 .LVL111
     /tmp/ccO13uu5.s:970    .text:0000000000000630 .LVL113
     /tmp/ccO13uu5.s:977    .text:000000000000063c .LVL114
     /tmp/ccO13uu5.s:981    .text:0000000000000644 .LVL115
     /tmp/ccO13uu5.s:1003   .text:0000000000000664 .LVL118
     /tmp/ccO13uu5.s:1007   .text:000000000000066c .LVL119
     /tmp/ccO13uu5.s:1031   .text:0000000000000694 .LVL122
     /tmp/ccO13uu5.s:1035   .text:00000000000006a0 .LVL123
     /tmp/ccO13uu5.s:1043   .text:00000000000006b0 .LVL125
     /tmp/ccO13uu5.s:1047   .text:00000000000006bc .LVL126
     /tmp/ccO13uu5.s:1055   .text:00000000000006cc .LVL128
     /tmp/ccO13uu5.s:1059   .text:00000000000006d8 .LVL129
     /tmp/ccO13uu5.s:7862   .debug_str:000000000000098f .LASF177
     /tmp/ccO13uu5.s:7646   .debug_str:000000000000037f .LASF178
     /tmp/ccO13uu5.s:860    .text:0000000000000594 .LFE26
     /tmp/ccO13uu5.s:7385   .debug_loc:0000000000000818 .LLST16
     /tmp/ccO13uu5.s:7396   .debug_loc:000000000000084e .LLST17
     /tmp/ccO13uu5.s:783    .text:0000000000000510 .LBB11
     /tmp/ccO13uu5.s:791    .text:0000000000000514 .LBE11
     /tmp/ccO13uu5.s:7403   .debug_loc:0000000000000871 .LLST18
     /tmp/ccO13uu5.s:798    .text:0000000000000520 .LBB13
     /tmp/ccO13uu5.s:805    .text:0000000000000524 .LBE13
     /tmp/ccO13uu5.s:7410   .debug_loc:0000000000000894 .LLST19
     /tmp/ccO13uu5.s:728    .text:0000000000000494 .LVL83
     /tmp/ccO13uu5.s:735    .text:00000000000004ac .LVL84
     /tmp/ccO13uu5.s:742    .text:00000000000004b8 .LVL85
     /tmp/ccO13uu5.s:747    .text:00000000000004c4 .LVL86
     /tmp/ccO13uu5.s:754    .text:00000000000004dc .LVL87
     /tmp/ccO13uu5.s:761    .text:00000000000004e8 .LVL88
     /tmp/ccO13uu5.s:765    .text:00000000000004f0 .LVL89
     /tmp/ccO13uu5.s:772    .text:0000000000000504 .LVL90
     /tmp/ccO13uu5.s:776    .text:000000000000050c .LVL91
     /tmp/ccO13uu5.s:813    .text:000000000000053c .LVL96
     /tmp/ccO13uu5.s:817    .text:0000000000000544 .LVL97
     /tmp/ccO13uu5.s:841    .text:000000000000056c .LVL100
     /tmp/ccO13uu5.s:845    .text:0000000000000578 .LVL101
GAS LISTING /tmp/ccO13uu5.s 			page 87


     /tmp/ccO13uu5.s:853    .text:0000000000000588 .LVL103
     /tmp/ccO13uu5.s:857    .text:0000000000000594 .LVL104
     /tmp/ccO13uu5.s:7622   .debug_str:00000000000002de .LASF179
     /tmp/ccO13uu5.s:7938   .debug_str:0000000000000b8b .LASF180
     /tmp/ccO13uu5.s:240    .text:000000000000015c .LFB25
     /tmp/ccO13uu5.s:330    .text:0000000000000208 .LFE25
     /tmp/ccO13uu5.s:7417   .debug_loc:00000000000008b7 .LLST5
     /tmp/ccO13uu5.s:262    .text:0000000000000180 .LBB10
     /tmp/ccO13uu5.s:316    .text:00000000000001f4 .LBE10
     /tmp/ccO13uu5.s:7431   .debug_loc:00000000000008f0 .LLST6
     /tmp/ccO13uu5.s:271    .text:0000000000000190 .LVL28
     /tmp/ccO13uu5.s:277    .text:000000000000019c .LVL29
     /tmp/ccO13uu5.s:283    .text:00000000000001ac .LVL30
     /tmp/ccO13uu5.s:288    .text:00000000000001b8 .LVL31
     /tmp/ccO13uu5.s:293    .text:00000000000001c8 .LVL32
     /tmp/ccO13uu5.s:259    .text:0000000000000180 .LVL26
     /tmp/ccO13uu5.s:7726   .debug_str:00000000000005db .LASF181
     /tmp/ccO13uu5.s:7904   .debug_str:0000000000000a9f .LASF182
     /tmp/ccO13uu5.s:154    .text:00000000000000c4 .LFB24
     /tmp/ccO13uu5.s:234    .text:000000000000015c .LFE24
     /tmp/ccO13uu5.s:7443   .debug_loc:0000000000000927 .LLST3
     /tmp/ccO13uu5.s:176    .text:00000000000000e8 .LBB9
     /tmp/ccO13uu5.s:220    .text:0000000000000148 .LBE9
     /tmp/ccO13uu5.s:7457   .debug_loc:0000000000000960 .LLST4
     /tmp/ccO13uu5.s:185    .text:00000000000000f8 .LVL18
     /tmp/ccO13uu5.s:191    .text:0000000000000108 .LVL19
     /tmp/ccO13uu5.s:196    .text:0000000000000114 .LVL20
     /tmp/ccO13uu5.s:201    .text:0000000000000124 .LVL21
     /tmp/ccO13uu5.s:173    .text:00000000000000e8 .LVL16
     /tmp/ccO13uu5.s:7920   .debug_str:0000000000000b0b .LASF183
     /tmp/ccO13uu5.s:7636   .debug_str:000000000000033d .LASF184
     /tmp/ccO13uu5.s:60     .text:000000000000002c .LFB23
     /tmp/ccO13uu5.s:140    .text:00000000000000c4 .LFE23
     /tmp/ccO13uu5.s:7469   .debug_loc:0000000000000997 .LLST1
     /tmp/ccO13uu5.s:82     .text:0000000000000050 .LBB8
     /tmp/ccO13uu5.s:126    .text:00000000000000b0 .LBE8
     /tmp/ccO13uu5.s:7483   .debug_loc:00000000000009d0 .LLST2
     /tmp/ccO13uu5.s:91     .text:0000000000000060 .LVL8
     /tmp/ccO13uu5.s:97     .text:0000000000000070 .LVL9
     /tmp/ccO13uu5.s:102    .text:000000000000007c .LVL10
     /tmp/ccO13uu5.s:107    .text:000000000000008c .LVL11
     /tmp/ccO13uu5.s:79     .text:0000000000000050 .LVL6
     /tmp/ccO13uu5.s:7658   .debug_str:00000000000003e1 .LASF185
     /tmp/ccO13uu5.s:7584   .debug_str:0000000000000115 .LASF186
     /tmp/ccO13uu5.s:15     .text:0000000000000000 .LFB22
     /tmp/ccO13uu5.s:43     .text:000000000000002c .LFE22
     /tmp/ccO13uu5.s:7495   .debug_loc:0000000000000a07 .LLST0
     /tmp/ccO13uu5.s:35     .text:0000000000000020 .LVL2
     /tmp/ccO13uu5.s:39     .text:0000000000000028 .LVL3
     /tmp/ccO13uu5.s:7590   .debug_str:0000000000000141 .LASF202
     /tmp/ccO13uu5.s:7654   .debug_str:00000000000003cc .LASF187
     /tmp/ccO13uu5.s:7856   .debug_str:0000000000000970 .LASF188
     /tmp/ccO13uu5.s:7768   .debug_str:0000000000000728 .LASF189
     /tmp/ccO13uu5.s:7940   .debug_str:0000000000000ba6 .LASF203
     /tmp/ccO13uu5.s:7574   .debug_str:00000000000000b9 .LASF204
     /tmp/ccO13uu5.s:7700   .debug_str:000000000000050c .LASF190
     /tmp/ccO13uu5.s:7734   .debug_str:0000000000000629 .LASF191
GAS LISTING /tmp/ccO13uu5.s 			page 88


     /tmp/ccO13uu5.s:7742   .debug_str:0000000000000675 .LASF192
     /tmp/ccO13uu5.s:7680   .debug_str:0000000000000477 .LASF193
     /tmp/ccO13uu5.s:2193   .text:0000000000000dfc .LVL249
     /tmp/ccO13uu5.s:2190   .text:0000000000000df8 .LVL248
     /tmp/ccO13uu5.s:2255   .text:0000000000000e94 .LVL260
     /tmp/ccO13uu5.s:2163   .text:0000000000000dd0 .LVL245
     /tmp/ccO13uu5.s:2169   .text:0000000000000dd4 .LVL246
     /tmp/ccO13uu5.s:626    .text:00000000000003e4 .LVL72
     /tmp/ccO13uu5.s:642    .text:0000000000000404 .LVL73
     /tmp/ccO13uu5.s:649    .text:0000000000000414 .LVL75
     /tmp/ccO13uu5.s:660    .text:0000000000000420 .LVL77
     /tmp/ccO13uu5.s:546    .text:0000000000000358 .LVL61
     /tmp/ccO13uu5.s:562    .text:0000000000000378 .LVL62
     /tmp/ccO13uu5.s:569    .text:0000000000000388 .LVL64
     /tmp/ccO13uu5.s:580    .text:0000000000000394 .LVL66
     /tmp/ccO13uu5.s:466    .text:00000000000002cc .LVL50
     /tmp/ccO13uu5.s:482    .text:00000000000002ec .LVL51
     /tmp/ccO13uu5.s:489    .text:00000000000002fc .LVL53
     /tmp/ccO13uu5.s:500    .text:0000000000000308 .LVL55
     /tmp/ccO13uu5.s:1945   .text:0000000000000c58 .LVL222
     /tmp/ccO13uu5.s:1974   .text:0000000000000c9c .LVL227
     /tmp/ccO13uu5.s:1918   .text:0000000000000c30 .LVL219
     /tmp/ccO13uu5.s:1924   .text:0000000000000c34 .LVL220
     /tmp/ccO13uu5.s:414    .text:000000000000027c .LVL44
     /tmp/ccO13uu5.s:428    .text:0000000000000298 .LVL45
     /tmp/ccO13uu5.s:344    .text:0000000000000208 .LVL35
     /tmp/ccO13uu5.s:360    .text:0000000000000228 .LVL36
     /tmp/ccO13uu5.s:367    .text:0000000000000238 .LVL38
     /tmp/ccO13uu5.s:378    .text:0000000000000244 .LVL40
     /tmp/ccO13uu5.s:1698   .text:0000000000000aa0 .LVL194
     /tmp/ccO13uu5.s:1794   .text:0000000000000b50 .LVL207
     /tmp/ccO13uu5.s:1798   .text:0000000000000b54 .LVL208
     /tmp/ccO13uu5.s:1655   .text:0000000000000a58 .LVL189
     /tmp/ccO13uu5.s:1676   .text:0000000000000a84 .LVL192
     /tmp/ccO13uu5.s:1693   .text:0000000000000a9c .LVL193
     /tmp/ccO13uu5.s:1708   .text:0000000000000aa8 .LVL195
     /tmp/ccO13uu5.s:1743   .text:0000000000000af8 .LVL199
     /tmp/ccO13uu5.s:1746   .text:0000000000000afc .LVL200
     /tmp/ccO13uu5.s:1752   .text:0000000000000b00 .LVL201
     /tmp/ccO13uu5.s:1726   .text:0000000000000ad0 .LVL197
     /tmp/ccO13uu5.s:1785   .text:0000000000000b48 .LVL205
     /tmp/ccO13uu5.s:1788   .text:0000000000000b4c .LVL206
     /tmp/ccO13uu5.s:1771   .text:0000000000000b28 .LVL203
     /tmp/ccO13uu5.s:1586   .text:00000000000009e8 .LVL181
     /tmp/ccO13uu5.s:1594   .text:00000000000009fc .LVL183
     /tmp/ccO13uu5.s:1608   .text:0000000000000a14 .LVL185
     /tmp/ccO13uu5.s:1614   .text:0000000000000a1c .LVL186
     /tmp/ccO13uu5.s:1462   .text:000000000000091c .LVL165
     /tmp/ccO13uu5.s:1513   .text:0000000000000970 .LVL173
     /tmp/ccO13uu5.s:1537   .text:000000000000099c .LVL176
     /tmp/ccO13uu5.s:1541   .text:00000000000009a4 .LVL177
     /tmp/ccO13uu5.s:1532   .text:0000000000000994 .LVL175
     /tmp/ccO13uu5.s:1481   .text:0000000000000930 .LVL168
     /tmp/ccO13uu5.s:1495   .text:000000000000094c .LVL170
     /tmp/ccO13uu5.s:1378   .text:000000000000089c .LVL156
     /tmp/ccO13uu5.s:1382   .text:00000000000008a0 .LVL157
     /tmp/ccO13uu5.s:1390   .text:00000000000008b4 .LVL159
GAS LISTING /tmp/ccO13uu5.s 			page 89


     /tmp/ccO13uu5.s:1404   .text:00000000000008cc .LVL161
     /tmp/ccO13uu5.s:1410   .text:00000000000008d4 .LVL162
     /tmp/ccO13uu5.s:1179   .text:000000000000072c .LVL132
     /tmp/ccO13uu5.s:1220   .text:000000000000077c .LVL136
     /tmp/ccO13uu5.s:1226   .text:0000000000000780 .LVL137
     /tmp/ccO13uu5.s:1246   .text:00000000000007a8 .LVL139
     /tmp/ccO13uu5.s:1249   .text:00000000000007ac .LVL140
     /tmp/ccO13uu5.s:1266   .text:00000000000007c4 .LVL143
     /tmp/ccO13uu5.s:1255   .text:00000000000007b4 .LVL141
     /tmp/ccO13uu5.s:1268   .text:00000000000007c8 .LVL144
     /tmp/ccO13uu5.s:1302   .text:000000000000080c .LVL148
     /tmp/ccO13uu5.s:1321   .text:0000000000000834 .LVL150
     /tmp/ccO13uu5.s:1323   .text:0000000000000838 .LVL151
     /tmp/ccO13uu5.s:1329   .text:0000000000000840 .LVL152
     /tmp/ccO13uu5.s:1018   .text:0000000000000678 .LVL120
     /tmp/ccO13uu5.s:1039   .text:00000000000006a4 .LVL124
     /tmp/ccO13uu5.s:1051   .text:00000000000006c0 .LVL127
     /tmp/ccO13uu5.s:965    .text:000000000000061c .LVL112
     /tmp/ccO13uu5.s:1021   .text:000000000000067c .LVL121
     /tmp/ccO13uu5.s:987    .text:0000000000000648 .LVL116
     /tmp/ccO13uu5.s:993    .text:000000000000064c .LVL117
     /tmp/ccO13uu5.s:828    .text:0000000000000550 .LVL98
     /tmp/ccO13uu5.s:849    .text:000000000000057c .LVL102
     /tmp/ccO13uu5.s:831    .text:0000000000000554 .LVL99
     /tmp/ccO13uu5.s:782    .text:0000000000000510 .LVL92
     /tmp/ccO13uu5.s:789    .text:0000000000000514 .LVL93
     /tmp/ccO13uu5.s:797    .text:0000000000000520 .LVL94
     /tmp/ccO13uu5.s:803    .text:0000000000000524 .LVL95
     /tmp/ccO13uu5.s:243    .text:000000000000015c .LVL24
     /tmp/ccO13uu5.s:257    .text:0000000000000178 .LVL25
     /tmp/ccO13uu5.s:266    .text:0000000000000188 .LVL27
     /tmp/ccO13uu5.s:325    .text:0000000000000200 .LVL34
     /tmp/ccO13uu5.s:157    .text:00000000000000c4 .LVL14
     /tmp/ccO13uu5.s:171    .text:00000000000000e0 .LVL15
     /tmp/ccO13uu5.s:180    .text:00000000000000f0 .LVL17
     /tmp/ccO13uu5.s:229    .text:0000000000000154 .LVL23
     /tmp/ccO13uu5.s:63     .text:000000000000002c .LVL4
     /tmp/ccO13uu5.s:77     .text:0000000000000048 .LVL5
     /tmp/ccO13uu5.s:86     .text:0000000000000058 .LVL7
     /tmp/ccO13uu5.s:135    .text:00000000000000bc .LVL13
     /tmp/ccO13uu5.s:19     .text:0000000000000000 .LVL0
     /tmp/ccO13uu5.s:28     .text:0000000000000010 .LVL1
     /tmp/ccO13uu5.s:2441   .debug_info:0000000000000000 .Ldebug_info0
     /tmp/ccO13uu5.s:1231   .text:0000000000000788 .LBB19
     /tmp/ccO13uu5.s:1242   .text:00000000000007a4 .LBE19
     /tmp/ccO13uu5.s:1251   .text:00000000000007ac .LBB20
     /tmp/ccO13uu5.s:1261   .text:00000000000007c0 .LBE20
     /tmp/ccO13uu5.s:1307   .text:0000000000000814 .LBB23
     /tmp/ccO13uu5.s:1318   .text:0000000000000830 .LBE23
     /tmp/ccO13uu5.s:1325   .text:0000000000000838 .LBB24
     /tmp/ccO13uu5.s:1335   .text:000000000000084c .LBE24
     /tmp/ccO13uu5.s:1453   .text:000000000000090c .LBB25
     /tmp/ccO13uu5.s:1456   .text:0000000000000910 .LBE25
     /tmp/ccO13uu5.s:1464   .text:000000000000091c .LBB28
     /tmp/ccO13uu5.s:1498   .text:000000000000094c .LBE28
     /tmp/ccO13uu5.s:1465   .text:000000000000091c .LBB26
     /tmp/ccO13uu5.s:1478   .text:000000000000092c .LBE26
GAS LISTING /tmp/ccO13uu5.s 			page 90


     /tmp/ccO13uu5.s:1487   .text:000000000000093c .LBB27
     /tmp/ccO13uu5.s:1497   .text:000000000000094c .LBE27
     /tmp/ccO13uu5.s:863    .gcc_except_table:0000000000000000 .LLSDA26
     /tmp/ccO13uu5.s:1064   .gcc_except_table:000000000000005f .LLSDA27
     /tmp/ccO13uu5.s:1987   .gcc_except_table:00000000000000e6 .LLSDA37
     /tmp/ccO13uu5.s:2268   .gcc_except_table:000000000000016d .LLSDA41

UNDEFINED SYMBOLS
_ZN5Riscv11printStringEPKc
thread_dispatch
_ZN5Riscv12printIntegerEm
thread_exit
_ZN9Semaphore4waitEv
_ZN9Semaphore6signalEv
__putc
_Znwm
_ZN6ThreadC1EPFvPvES0_
_ZN6Thread5startEv
_ZN5Riscv16enableInterruptsEv
_ZN5Riscv17disableInterruptsEv
_ZdlPv
_Unwind_Resume
__gxx_personality_v0
mem_alloc
mem_free
HEAP_END_ADDR
HEAP_START_ADDR
_ZN9SemaphoreC1Ej
