GAS LISTING /tmp/cckkWbmy.s 			page 1


   1              		.file	"Tests.cpp"
   2              		.option pic
   3              		.option norelax
   4              		.text
   5              	.Ltext0:
   6              		.section	.rodata.str1.8,"aMS",@progbits,1
   7              		.align	3
   8              	.LC0:
   9 0000 49646C65 		.string	"Idle\n"
   9      0A00
  10              		.text
  11              		.align	2
  12              		.globl	_Z4idlePv
  14              	_Z4idlePv:
  15              	.LFB21:
  16              		.file 1 "src/Tests.cpp"
   1:src/Tests.cpp **** //
   2:src/Tests.cpp **** // Created by os on 5/5/22.
   3:src/Tests.cpp **** //
   4:src/Tests.cpp **** 
   5:src/Tests.cpp **** #include "../h/Tests.h"
   6:src/Tests.cpp **** 
   7:src/Tests.cpp **** void idle(void* args)
   8:src/Tests.cpp **** {
  17              		.loc 1 8 1
  18              		.cfi_startproc
  19              	.LVL0:
  20 0000 130101FF 		addi	sp,sp,-16
  21              		.cfi_def_cfa_offset 16
  22 0004 23341100 		sd	ra,8(sp)
  23 0008 23308100 		sd	s0,0(sp)
  24              		.cfi_offset 1, -8
  25              		.cfi_offset 8, -16
  26 000c 13040101 		addi	s0,sp,16
  27              		.cfi_def_cfa 8, 0
  28              	.LVL1:
  29              	.L2:
   9:src/Tests.cpp ****     while(true)
  30              		.loc 1 9 5 discriminator 1
  10:src/Tests.cpp ****     {
  11:src/Tests.cpp ****         Riscv::printString("Idle\n");
  31              		.loc 1 11 9 discriminator 1
  32              		.loc 1 11 27 is_stmt 0 discriminator 1
  33 0010 17050000 		lla	a0,.LC0
  33      13050500 
  34 0018 97000000 		call	_ZN5Riscv11printStringEPKc@plt
  34      E7800000 
  35              	.LVL2:
  12:src/Tests.cpp ****         thread_dispatch();
  36              		.loc 1 12 9 is_stmt 1 discriminator 1
  37              		.loc 1 12 24 is_stmt 0 discriminator 1
  38 0020 97000000 		call	thread_dispatch@plt
  38      E7800000 
  39              	.LVL3:
   9:src/Tests.cpp ****     while(true)
  40              		.loc 1 9 5 is_stmt 1 discriminator 1
  41 0028 6FF09FFE 		j	.L2
GAS LISTING /tmp/cckkWbmy.s 			page 2


  42              		.cfi_endproc
  43              	.LFE21:
  45              		.section	.rodata.str1.8
  46 0006 0000     		.align	3
  47              	.LC1:
  48 0008 54687265 		.string	"Thread 1 started...\n"
  48      61642031 
  48      20737461 
  48      72746564 
  48      2E2E2E0A 
  49 001d 000000   		.align	3
  50              	.LC2:
  51 0020 69203A20 		.string	"i : "
  51      00
  52 0025 000000   		.align	3
  53              	.LC3:
  54 0028 0A00     		.string	"\n"
  55              		.text
  56              		.align	2
  57              		.globl	_Z15thread1FunctionPv
  59              	_Z15thread1FunctionPv:
  60              	.LFB22:
  13:src/Tests.cpp ****     }
  14:src/Tests.cpp **** }
  15:src/Tests.cpp **** 
  16:src/Tests.cpp **** void thread1Function(void* p)
  17:src/Tests.cpp **** {
  61              		.loc 1 17 1
  62              		.cfi_startproc
  63              	.LVL4:
  64 002c 130101FE 		addi	sp,sp,-32
  65              		.cfi_def_cfa_offset 32
  66 0030 233C1100 		sd	ra,24(sp)
  67 0034 23388100 		sd	s0,16(sp)
  68 0038 23349100 		sd	s1,8(sp)
  69              		.cfi_offset 1, -8
  70              		.cfi_offset 8, -16
  71              		.cfi_offset 9, -24
  72 003c 13040102 		addi	s0,sp,32
  73              		.cfi_def_cfa 8, 0
  18:src/Tests.cpp ****     Riscv::printString("Thread 1 started...\n");
  74              		.loc 1 18 5
  75              		.loc 1 18 23 is_stmt 0
  76 0040 17050000 		lla	a0,.LC1
  76      13050500 
  77              	.LVL5:
  78 0048 97000000 		call	_ZN5Riscv11printStringEPKc@plt
  78      E7800000 
  79              	.LVL6:
  19:src/Tests.cpp ****     uint64 num = 1000;
  80              		.loc 1 19 5 is_stmt 1
  20:src/Tests.cpp ****     for(uint64 i = 0; i < num;i++)
  81              		.loc 1 20 5
  82              	.LBB8:
  83              		.loc 1 20 16 is_stmt 0
  84 0050 93040000 		li	s1,0
  85 0054 6F00C003 		j	.L7
GAS LISTING /tmp/cckkWbmy.s 			page 3


  86              	.LVL7:
  87              	.L9:
  21:src/Tests.cpp ****     {
  22:src/Tests.cpp ****         if(i % 150 == 0 && i > 0)
  23:src/Tests.cpp ****             thread_dispatch();
  88              		.loc 1 23 13 is_stmt 1
  89              		.loc 1 23 28 is_stmt 0
  90 0058 97000000 		call	thread_dispatch@plt
  90      E7800000 
  91              	.LVL8:
  92              	.L6:
  24:src/Tests.cpp ****         Riscv::printString("i : ");
  93              		.loc 1 24 9 is_stmt 1 discriminator 2
  94              		.loc 1 24 27 is_stmt 0 discriminator 2
  95 0060 17050000 		lla	a0,.LC2
  95      13050500 
  96 0068 97000000 		call	_ZN5Riscv11printStringEPKc@plt
  96      E7800000 
  97              	.LVL9:
  25:src/Tests.cpp ****         Riscv::printInteger(i);
  98              		.loc 1 25 9 is_stmt 1 discriminator 2
  99              		.loc 1 25 28 is_stmt 0 discriminator 2
 100 0070 13850400 		mv	a0,s1
 101 0074 97000000 		call	_ZN5Riscv12printIntegerEm@plt
 101      E7800000 
 102              	.LVL10:
  26:src/Tests.cpp ****         Riscv::printString("\n");
 103              		.loc 1 26 9 is_stmt 1 discriminator 2
 104              		.loc 1 26 27 is_stmt 0 discriminator 2
 105 007c 17050000 		lla	a0,.LC3
 105      13050500 
 106 0084 97000000 		call	_ZN5Riscv11printStringEPKc@plt
 106      E7800000 
 107              	.LVL11:
  20:src/Tests.cpp ****     {
 108              		.loc 1 20 5 is_stmt 1 discriminator 2
 109 008c 93841400 		addi	s1,s1,1
 110              	.LVL12:
 111              	.L7:
  20:src/Tests.cpp ****     {
 112              		.loc 1 20 25 discriminator 1
 113 0090 9307703E 		li	a5,999
 114 0094 63EC9700 		bgtu	s1,a5,.L4
  22:src/Tests.cpp ****             thread_dispatch();
 115              		.loc 1 22 9
  22:src/Tests.cpp ****             thread_dispatch();
 116              		.loc 1 22 14 is_stmt 0
 117 0098 93076009 		li	a5,150
 118 009c B3F7F402 		remu	a5,s1,a5
  22:src/Tests.cpp ****             thread_dispatch();
 119              		.loc 1 22 9
 120 00a0 E39007FC 		bnez	a5,.L6
  22:src/Tests.cpp ****             thread_dispatch();
 121              		.loc 1 22 25 discriminator 1
 122 00a4 E38E04FA 		beqz	s1,.L6
 123 00a8 6FF01FFB 		j	.L9
 124              	.L4:
GAS LISTING /tmp/cckkWbmy.s 			page 4


 125              	.LBE8:
  27:src/Tests.cpp ****     }
  28:src/Tests.cpp **** }
 126              		.loc 1 28 1
 127 00ac 83308101 		ld	ra,24(sp)
 128              		.cfi_restore 1
 129 00b0 03340101 		ld	s0,16(sp)
 130              		.cfi_restore 8
 131              		.cfi_def_cfa 2, 32
 132 00b4 83348100 		ld	s1,8(sp)
 133              		.cfi_restore 9
 134              	.LVL13:
 135 00b8 13010102 		addi	sp,sp,32
 136              		.cfi_def_cfa_offset 0
 137 00bc 67800000 		jr	ra
 138              		.cfi_endproc
 139              	.LFE22:
 141              		.section	.rodata.str1.8
 142 002a 00000000 		.align	3
 142      0000
 143              	.LC4:
 144 0030 54687265 		.string	"Thread 2 started...\n"
 144      61642032 
 144      20737461 
 144      72746564 
 144      2E2E2E0A 
 145 0045 000000   		.align	3
 146              	.LC5:
 147 0048 6A203A20 		.string	"j : "
 147      00
 148              		.text
 149              		.align	2
 150              		.globl	_Z15thread2FunctionPv
 152              	_Z15thread2FunctionPv:
 153              	.LFB23:
  29:src/Tests.cpp **** 
  30:src/Tests.cpp **** void thread2Function(void* p)
  31:src/Tests.cpp **** {
 154              		.loc 1 31 1 is_stmt 1
 155              		.cfi_startproc
 156              	.LVL14:
 157 00c0 130101FE 		addi	sp,sp,-32
 158              		.cfi_def_cfa_offset 32
 159 00c4 233C1100 		sd	ra,24(sp)
 160 00c8 23388100 		sd	s0,16(sp)
 161 00cc 23349100 		sd	s1,8(sp)
 162              		.cfi_offset 1, -8
 163              		.cfi_offset 8, -16
 164              		.cfi_offset 9, -24
 165 00d0 13040102 		addi	s0,sp,32
 166              		.cfi_def_cfa 8, 0
  32:src/Tests.cpp ****     Riscv::printString("Thread 2 started...\n");
 167              		.loc 1 32 5
 168              		.loc 1 32 23 is_stmt 0
 169 00d4 17050000 		lla	a0,.LC4
 169      13050500 
 170              	.LVL15:
GAS LISTING /tmp/cckkWbmy.s 			page 5


 171 00dc 97000000 		call	_ZN5Riscv11printStringEPKc@plt
 171      E7800000 
 172              	.LVL16:
  33:src/Tests.cpp ****     uint64 num = 1000;
 173              		.loc 1 33 5 is_stmt 1
  34:src/Tests.cpp ****     for(uint64 j = 0; j < num;j++)
 174              		.loc 1 34 5
 175              	.LBB9:
 176              		.loc 1 34 16 is_stmt 0
 177 00e4 93040000 		li	s1,0
 178 00e8 6F00C003 		j	.L13
 179              	.LVL17:
 180              	.L15:
  35:src/Tests.cpp ****     {
  36:src/Tests.cpp ****         if(j % 50 == 0 && j > 0)
  37:src/Tests.cpp ****             thread_dispatch();
 181              		.loc 1 37 13 is_stmt 1
 182              		.loc 1 37 28 is_stmt 0
 183 00ec 97000000 		call	thread_dispatch@plt
 183      E7800000 
 184              	.LVL18:
 185              	.L12:
  38:src/Tests.cpp ****         Riscv::printString("j : ");
 186              		.loc 1 38 9 is_stmt 1 discriminator 2
 187              		.loc 1 38 27 is_stmt 0 discriminator 2
 188 00f4 17050000 		lla	a0,.LC5
 188      13050500 
 189 00fc 97000000 		call	_ZN5Riscv11printStringEPKc@plt
 189      E7800000 
 190              	.LVL19:
  39:src/Tests.cpp ****         Riscv::printInteger(j);
 191              		.loc 1 39 9 is_stmt 1 discriminator 2
 192              		.loc 1 39 28 is_stmt 0 discriminator 2
 193 0104 13850400 		mv	a0,s1
 194 0108 97000000 		call	_ZN5Riscv12printIntegerEm@plt
 194      E7800000 
 195              	.LVL20:
  40:src/Tests.cpp ****         Riscv::printString("\n");
 196              		.loc 1 40 9 is_stmt 1 discriminator 2
 197              		.loc 1 40 27 is_stmt 0 discriminator 2
 198 0110 17050000 		lla	a0,.LC3
 198      13050500 
 199 0118 97000000 		call	_ZN5Riscv11printStringEPKc@plt
 199      E7800000 
 200              	.LVL21:
  34:src/Tests.cpp ****     {
 201              		.loc 1 34 5 is_stmt 1 discriminator 2
 202 0120 93841400 		addi	s1,s1,1
 203              	.LVL22:
 204              	.L13:
  34:src/Tests.cpp ****     {
 205              		.loc 1 34 25 discriminator 1
 206 0124 9307703E 		li	a5,999
 207 0128 63EC9700 		bgtu	s1,a5,.L10
  36:src/Tests.cpp ****             thread_dispatch();
 208              		.loc 1 36 9
  36:src/Tests.cpp ****             thread_dispatch();
GAS LISTING /tmp/cckkWbmy.s 			page 6


 209              		.loc 1 36 14 is_stmt 0
 210 012c 93072003 		li	a5,50
 211 0130 B3F7F402 		remu	a5,s1,a5
  36:src/Tests.cpp ****             thread_dispatch();
 212              		.loc 1 36 9
 213 0134 E39007FC 		bnez	a5,.L12
  36:src/Tests.cpp ****             thread_dispatch();
 214              		.loc 1 36 24 discriminator 1
 215 0138 E38E04FA 		beqz	s1,.L12
 216 013c 6FF01FFB 		j	.L15
 217              	.L10:
 218              	.LBE9:
  41:src/Tests.cpp ****     }
  42:src/Tests.cpp **** }
 219              		.loc 1 42 1
 220 0140 83308101 		ld	ra,24(sp)
 221              		.cfi_restore 1
 222 0144 03340101 		ld	s0,16(sp)
 223              		.cfi_restore 8
 224              		.cfi_def_cfa 2, 32
 225 0148 83348100 		ld	s1,8(sp)
 226              		.cfi_restore 9
 227              	.LVL23:
 228 014c 13010102 		addi	sp,sp,32
 229              		.cfi_def_cfa_offset 0
 230 0150 67800000 		jr	ra
 231              		.cfi_endproc
 232              	.LFE23:
 234              		.align	2
 235              		.globl	_Z20thread2FunctionTest2Pv
 237              	_Z20thread2FunctionTest2Pv:
 238              	.LFB24:
  43:src/Tests.cpp **** 
  44:src/Tests.cpp **** void thread2FunctionTest2(void* p)
  45:src/Tests.cpp **** {
 239              		.loc 1 45 1 is_stmt 1
 240              		.cfi_startproc
 241              	.LVL24:
 242 0154 130101FE 		addi	sp,sp,-32
 243              		.cfi_def_cfa_offset 32
 244 0158 233C1100 		sd	ra,24(sp)
 245 015c 23388100 		sd	s0,16(sp)
 246 0160 23349100 		sd	s1,8(sp)
 247              		.cfi_offset 1, -8
 248              		.cfi_offset 8, -16
 249              		.cfi_offset 9, -24
 250 0164 13040102 		addi	s0,sp,32
 251              		.cfi_def_cfa 8, 0
  46:src/Tests.cpp ****     Riscv::printString("Thread 2 started...\n");
 252              		.loc 1 46 5
 253              		.loc 1 46 23 is_stmt 0
 254 0168 17050000 		lla	a0,.LC4
 254      13050500 
 255              	.LVL25:
 256 0170 97000000 		call	_ZN5Riscv11printStringEPKc@plt
 256      E7800000 
 257              	.LVL26:
GAS LISTING /tmp/cckkWbmy.s 			page 7


  47:src/Tests.cpp ****     uint64 num = 1000;
 258              		.loc 1 47 5 is_stmt 1
  48:src/Tests.cpp ****     for(uint64 j = 0; j < num;j++)
 259              		.loc 1 48 5
 260              	.LBB10:
 261              		.loc 1 48 16 is_stmt 0
 262 0178 93040000 		li	s1,0
 263 017c 6F008005 		j	.L21
 264              	.LVL27:
 265              	.L23:
  49:src/Tests.cpp ****     {
  50:src/Tests.cpp ****         if(j == 100)
  51:src/Tests.cpp ****             time_sleep(1000);
 266              		.loc 1 51 13 is_stmt 1
 267              		.loc 1 51 23 is_stmt 0
 268 0180 1305803E 		li	a0,1000
 269 0184 97000000 		call	time_sleep@plt
 269      E7800000 
 270              	.LVL28:
 271 018c 6F008005 		j	.L18
 272              	.L24:
  52:src/Tests.cpp ****         if(j == 200)
  53:src/Tests.cpp ****             thread_exit();
 273              		.loc 1 53 13 is_stmt 1
 274              		.loc 1 53 24 is_stmt 0
 275 0190 97000000 		call	thread_exit@plt
 275      E7800000 
 276              	.LVL29:
 277 0198 6F004005 		j	.L19
 278              	.L25:
  54:src/Tests.cpp ****         if(j!=100 && j!= 200 && j % 50 == 0 && j > 0)
  55:src/Tests.cpp ****             thread_dispatch();
 279              		.loc 1 55 13 is_stmt 1
 280              		.loc 1 55 28 is_stmt 0
 281 019c 97000000 		call	thread_dispatch@plt
 281      E7800000 
 282              	.LVL30:
 283              	.L20:
  56:src/Tests.cpp ****         Riscv::printString("j : ");
 284              		.loc 1 56 9 is_stmt 1 discriminator 2
 285              		.loc 1 56 27 is_stmt 0 discriminator 2
 286 01a4 17050000 		lla	a0,.LC5
 286      13050500 
 287 01ac 97000000 		call	_ZN5Riscv11printStringEPKc@plt
 287      E7800000 
 288              	.LVL31:
  57:src/Tests.cpp ****         Riscv::printInteger(j);
 289              		.loc 1 57 9 is_stmt 1 discriminator 2
 290              		.loc 1 57 28 is_stmt 0 discriminator 2
 291 01b4 13850400 		mv	a0,s1
 292 01b8 97000000 		call	_ZN5Riscv12printIntegerEm@plt
 292      E7800000 
 293              	.LVL32:
  58:src/Tests.cpp ****         Riscv::printString("\n");
 294              		.loc 1 58 9 is_stmt 1 discriminator 2
 295              		.loc 1 58 27 is_stmt 0 discriminator 2
 296 01c0 17050000 		lla	a0,.LC3
GAS LISTING /tmp/cckkWbmy.s 			page 8


 296      13050500 
 297 01c8 97000000 		call	_ZN5Riscv11printStringEPKc@plt
 297      E7800000 
 298              	.LVL33:
  48:src/Tests.cpp ****     {
 299              		.loc 1 48 5 is_stmt 1 discriminator 2
 300 01d0 93841400 		addi	s1,s1,1
 301              	.LVL34:
 302              	.L21:
  48:src/Tests.cpp ****     {
 303              		.loc 1 48 25 discriminator 1
 304 01d4 9307703E 		li	a5,999
 305 01d8 63EC9702 		bgtu	s1,a5,.L16
  50:src/Tests.cpp ****             time_sleep(1000);
 306              		.loc 1 50 9
 307 01dc 93074006 		li	a5,100
 308 01e0 E380F4FA 		beq	s1,a5,.L23
 309              	.L18:
  52:src/Tests.cpp ****             thread_exit();
 310              		.loc 1 52 9
 311 01e4 9307800C 		li	a5,200
 312 01e8 E384F4FA 		beq	s1,a5,.L24
 313              	.L19:
  54:src/Tests.cpp ****             thread_dispatch();
 314              		.loc 1 54 9
 315 01ec 93074006 		li	a5,100
 316 01f0 E38AF4FA 		beq	s1,a5,.L20
  54:src/Tests.cpp ****             thread_dispatch();
 317              		.loc 1 54 19 is_stmt 0 discriminator 1
 318 01f4 9307800C 		li	a5,200
 319 01f8 E386F4FA 		beq	s1,a5,.L20
  54:src/Tests.cpp ****             thread_dispatch();
 320              		.loc 1 54 35 discriminator 2
 321 01fc 93072003 		li	a5,50
 322 0200 B3F7F402 		remu	a5,s1,a5
  54:src/Tests.cpp ****             thread_dispatch();
 323              		.loc 1 54 30 discriminator 2
 324 0204 E39007FA 		bnez	a5,.L20
  54:src/Tests.cpp ****             thread_dispatch();
 325              		.loc 1 54 45 discriminator 3
 326 0208 E38E04F8 		beqz	s1,.L20
 327 020c 6FF01FF9 		j	.L25
 328              	.L16:
 329              	.LBE10:
  59:src/Tests.cpp ****     }
  60:src/Tests.cpp **** }
 330              		.loc 1 60 1
 331 0210 83308101 		ld	ra,24(sp)
 332              		.cfi_restore 1
 333 0214 03340101 		ld	s0,16(sp)
 334              		.cfi_restore 8
 335              		.cfi_def_cfa 2, 32
 336 0218 83348100 		ld	s1,8(sp)
 337              		.cfi_restore 9
 338              	.LVL35:
 339 021c 13010102 		addi	sp,sp,32
 340              		.cfi_def_cfa_offset 0
GAS LISTING /tmp/cckkWbmy.s 			page 9


 341 0220 67800000 		jr	ra
 342              		.cfi_endproc
 343              	.LFE24:
 345              		.section	.rodata.str1.8
 346 004d 000000   		.align	3
 347              	.LC6:
 348 0050 456E642E 		.string	"End...\n"
 348      2E2E0A00 
 349              		.text
 350              		.align	2
 351              		.globl	_Z11threadTest1v
 353              	_Z11threadTest1v:
 354              	.LFB25:
  61:src/Tests.cpp **** 
  62:src/Tests.cpp **** 
  63:src/Tests.cpp **** void threadTest1()
  64:src/Tests.cpp **** {
 355              		.loc 1 64 1 is_stmt 1
 356              		.cfi_startproc
 357              		.cfi_personality 0x9b,DW.ref.__gxx_personality_v0
 358              		.cfi_lsda 0x1b,.LLSDA25
 359 0224 130101FE 		addi	sp,sp,-32
 360              		.cfi_def_cfa_offset 32
 361 0228 233C1100 		sd	ra,24(sp)
 362 022c 23388100 		sd	s0,16(sp)
 363 0230 23349100 		sd	s1,8(sp)
 364 0234 23302101 		sd	s2,0(sp)
 365              		.cfi_offset 1, -8
 366              		.cfi_offset 8, -16
 367              		.cfi_offset 9, -24
 368              		.cfi_offset 18, -32
 369 0238 13040102 		addi	s0,sp,32
 370              		.cfi_def_cfa 8, 0
  65:src/Tests.cpp ****     Thread* t1 = new Thread(&thread1Function, 0);
 371              		.loc 1 65 5
 372              		.loc 1 65 48 is_stmt 0
 373 023c 13058001 		li	a0,24
 374              	.LEHB0:
 375 0240 97000000 		call	_Znwm@plt
 375      E7800000 
 376              	.LVL36:
 377              	.LEHE0:
 378 0248 93040500 		mv	s1,a0
 379 024c 13060000 		li	a2,0
 380 0250 97050000 		lla	a1,_Z15thread1FunctionPv
 380      93850500 
 381              	.LEHB1:
 382 0258 97000000 		call	_ZN6ThreadC1EPFvPvES0_@plt
 382      E7800000 
 383              	.LVL37:
 384              	.LEHE1:
  66:src/Tests.cpp ****     t1->start();
 385              		.loc 1 66 5 is_stmt 1 discriminator 2
 386              		.loc 1 66 14 is_stmt 0 discriminator 2
 387 0260 13850400 		mv	a0,s1
 388              	.LEHB2:
 389 0264 97000000 		call	_ZN6Thread5startEv@plt
GAS LISTING /tmp/cckkWbmy.s 			page 10


 389      E7800000 
 390              	.LVL38:
  67:src/Tests.cpp ****     Thread* t2 = new Thread(&thread2Function, 0);
 391              		.loc 1 67 5 is_stmt 1 discriminator 2
 392              		.loc 1 67 48 is_stmt 0 discriminator 2
 393 026c 13058001 		li	a0,24
 394 0270 97000000 		call	_Znwm@plt
 394      E7800000 
 395              	.LVL39:
 396              	.LEHE2:
 397 0278 13090500 		mv	s2,a0
 398 027c 13060000 		li	a2,0
 399 0280 97050000 		lla	a1,_Z15thread2FunctionPv
 399      93850500 
 400              	.LEHB3:
 401 0288 97000000 		call	_ZN6ThreadC1EPFvPvES0_@plt
 401      E7800000 
 402              	.LVL40:
 403              	.LEHE3:
  68:src/Tests.cpp ****     t2->start();
 404              		.loc 1 68 5 is_stmt 1 discriminator 2
 405              		.loc 1 68 14 is_stmt 0 discriminator 2
 406 0290 13050900 		mv	a0,s2
 407              	.LEHB4:
 408 0294 97000000 		call	_ZN6Thread5startEv@plt
 408      E7800000 
 409              	.LVL41:
 410 029c 6F00C000 		j	.L29
 411              	.L27:
  69:src/Tests.cpp **** 
  70:src/Tests.cpp ****     while(t1->myHandle->getState() != PCB::FINISHED || t2->myHandle->getState() != PCB::FINISHED)
  71:src/Tests.cpp ****     {
  72:src/Tests.cpp ****         thread_dispatch();
 412              		.loc 1 72 9 is_stmt 1 discriminator 3
 413              		.loc 1 72 24 is_stmt 0 discriminator 3
 414 02a0 97000000 		call	thread_dispatch@plt
 414      E7800000 
 415              	.LVL42:
 416              	.L29:
  70:src/Tests.cpp ****     {
 417              		.loc 1 70 5 is_stmt 1
  70:src/Tests.cpp ****     {
 418              		.loc 1 70 53
  70:src/Tests.cpp ****     {
 419              		.loc 1 70 15 is_stmt 0
 420 02a8 83B70400 		ld	a5,0(s1)
 421              	.LVL43:
 422              	.LBB11:
 423              	.LBB12:
 424              		.file 2 "src/../h/PCB.h"
   1:src/../h/PCB.h **** //
   2:src/../h/PCB.h **** // Created by os on 4/27/22.
   3:src/../h/PCB.h **** //
   4:src/../h/PCB.h **** 
   5:src/../h/PCB.h **** #ifndef PROJECT_BASE_V1_0_PCB_H
   6:src/../h/PCB.h **** #define PROJECT_BASE_V1_0_PCB_H
   7:src/../h/PCB.h **** 
GAS LISTING /tmp/cckkWbmy.s 			page 11


   8:src/../h/PCB.h **** #include "../lib/hw.h"
   9:src/../h/PCB.h **** #include "Scheduler.h"
  10:src/../h/PCB.h **** #include "Riscv.h"
  11:src/../h/PCB.h **** 
  12:src/../h/PCB.h **** class PCB
  13:src/../h/PCB.h **** {
  14:src/../h/PCB.h **** public:
  15:src/../h/PCB.h ****     using Body = void (*)(void*);
  16:src/../h/PCB.h **** 
  17:src/../h/PCB.h ****     PCB(Body body,  void* args, void* stack_space, uint64 timeSlice);
  18:src/../h/PCB.h ****     ~PCB();
  19:src/../h/PCB.h **** 
  20:src/../h/PCB.h ****     void start();
  21:src/../h/PCB.h ****     static void dispatch();
  22:src/../h/PCB.h ****     static void sleep(time_t);
  23:src/../h/PCB.h **** 
  24:src/../h/PCB.h ****     static PCB* running;
  25:src/../h/PCB.h ****     static PCB* exitingPCB;
  26:src/../h/PCB.h **** 
  27:src/../h/PCB.h ****     static uint64 timeSliceCounter;
  28:src/../h/PCB.h ****     uint64 getTimeSlice() { return timeSlice;}
  29:src/../h/PCB.h **** 
  30:src/../h/PCB.h ****     void* operator new(size_t size);
  31:src/../h/PCB.h ****     void operator delete(void *p);
  32:src/../h/PCB.h **** 
  33:src/../h/PCB.h ****     enum State{READY, RUNNING, SUSPENDED, FINISHED, EXITING, SLEEPING};
  34:src/../h/PCB.h ****     State getState() {return state;}
 425              		.loc 2 34 23 is_stmt 1
 426              		.loc 2 34 30 is_stmt 0
 427 02ac 03A70703 		lw	a4,48(a5)
 428              	.LVL44:
 429              	.LBE12:
 430              	.LBE11:
  70:src/Tests.cpp ****     {
 431              		.loc 1 70 53
 432 02b0 93073000 		li	a5,3
 433 02b4 E316F7FE 		bne	a4,a5,.L27
  70:src/Tests.cpp ****     {
 434              		.loc 1 70 60 discriminator 2
 435 02b8 83370900 		ld	a5,0(s2)
 436              	.LVL45:
 437              	.LBB13:
 438              	.LBB14:
 439              		.loc 2 34 23 is_stmt 1 discriminator 2
 440              		.loc 2 34 30 is_stmt 0 discriminator 2
 441 02bc 03A70703 		lw	a4,48(a5)
 442              	.LVL46:
 443              	.LBE14:
 444              	.LBE13:
  70:src/Tests.cpp ****     {
 445              		.loc 1 70 53 discriminator 2
 446 02c0 93073000 		li	a5,3
 447 02c4 E31EF7FC 		bne	a4,a5,.L27
  73:src/Tests.cpp ****     }
  74:src/Tests.cpp **** 
  75:src/Tests.cpp ****     Riscv::printString("End...\n");
 448              		.loc 1 75 5 is_stmt 1
GAS LISTING /tmp/cckkWbmy.s 			page 12


 449              		.loc 1 75 23 is_stmt 0
 450 02c8 17050000 		lla	a0,.LC6
 450      13050500 
 451 02d0 97000000 		call	_ZN5Riscv11printStringEPKc@plt
 451      E7800000 
 452              	.LVL47:
 453              	.LEHE4:
  76:src/Tests.cpp **** }
 454              		.loc 1 76 1
 455 02d8 83308101 		ld	ra,24(sp)
 456              		.cfi_remember_state
 457              		.cfi_restore 1
 458 02dc 03340101 		ld	s0,16(sp)
 459              		.cfi_restore 8
 460              		.cfi_def_cfa 2, 32
 461 02e0 83348100 		ld	s1,8(sp)
 462              		.cfi_restore 9
 463              	.LVL48:
 464 02e4 03390100 		ld	s2,0(sp)
 465              		.cfi_restore 18
 466              	.LVL49:
 467 02e8 13010102 		addi	sp,sp,32
 468              		.cfi_def_cfa_offset 0
 469 02ec 67800000 		jr	ra
 470              	.L32:
 471              		.cfi_restore_state
 472 02f0 13090500 		mv	s2,a0
  65:src/Tests.cpp ****     t1->start();
 473              		.loc 1 65 48
 474 02f4 13850400 		mv	a0,s1
 475 02f8 97000000 		call	_ZdlPv@plt
 475      E7800000 
 476              	.LVL50:
 477 0300 13050900 		mv	a0,s2
 478              	.LEHB5:
 479 0304 97000000 		call	_Unwind_Resume@plt
 479      E7800000 
 480              	.LVL51:
 481              	.LEHE5:
 482              	.L33:
 483 030c 93040500 		mv	s1,a0
 484              	.LVL52:
  67:src/Tests.cpp ****     t2->start();
 485              		.loc 1 67 48
 486 0310 13050900 		mv	a0,s2
 487 0314 97000000 		call	_ZdlPv@plt
 487      E7800000 
 488              	.LVL53:
 489 031c 13850400 		mv	a0,s1
 490              	.LEHB6:
 491 0320 97000000 		call	_Unwind_Resume@plt
 491      E7800000 
 492              	.LVL54:
 493              	.LEHE6:
 494              		.cfi_endproc
 495              	.LFE25:
 496              		.globl	__gxx_personality_v0
GAS LISTING /tmp/cckkWbmy.s 			page 13


 497              		.section	.gcc_except_table,"a",@progbits
 498              	.LLSDA25:
 499 0000 FF       		.byte	0xff
 500 0001 FF       		.byte	0xff
 501 0002 03       		.byte	0x3
 502 0003 5B       		.byte	0x5b
 503 0004 00000000 		.4byte	.LEHB0-.LFB25
 504 0008 00000000 		.4byte	.LEHE0-.LEHB0
 505 000c 00000000 		.4byte	0
 506 0010 00       		.byte	0
 507 0011 00000000 		.4byte	.LEHB1-.LFB25
 508 0015 00000000 		.4byte	.LEHE1-.LEHB1
 509 0019 00000000 		.4byte	.L32-.LFB25
 510 001d 00       		.byte	0
 511 001e 00000000 		.4byte	.LEHB2-.LFB25
 512 0022 00000000 		.4byte	.LEHE2-.LEHB2
 513 0026 00000000 		.4byte	0
 514 002a 00       		.byte	0
 515 002b 00000000 		.4byte	.LEHB3-.LFB25
 516 002f 00000000 		.4byte	.LEHE3-.LEHB3
 517 0033 00000000 		.4byte	.L33-.LFB25
 518 0037 00       		.byte	0
 519 0038 00000000 		.4byte	.LEHB4-.LFB25
 520 003c 00000000 		.4byte	.LEHE4-.LEHB4
 521 0040 00000000 		.4byte	0
 522 0044 00       		.byte	0
 523 0045 00000000 		.4byte	.LEHB5-.LFB25
 524 0049 00000000 		.4byte	.LEHE5-.LEHB5
 525 004d 00000000 		.4byte	0
 526 0051 00       		.byte	0
 527 0052 00000000 		.4byte	.LEHB6-.LFB25
 528 0056 00000000 		.4byte	.LEHE6-.LEHB6
 529 005a 00000000 		.4byte	0
 530 005e 00       		.byte	0
 531              		.text
 533              		.align	2
 534              		.globl	_Z11threadTest2v
 536              	_Z11threadTest2v:
 537              	.LFB26:
  77:src/Tests.cpp **** 
  78:src/Tests.cpp **** void threadTest2()
  79:src/Tests.cpp **** {
 538              		.loc 1 79 1 is_stmt 1
 539              		.cfi_startproc
 540              		.cfi_personality 0x9b,DW.ref.__gxx_personality_v0
 541              		.cfi_lsda 0x1b,.LLSDA26
 542 0328 130101FE 		addi	sp,sp,-32
 543              		.cfi_def_cfa_offset 32
 544 032c 233C1100 		sd	ra,24(sp)
 545 0330 23388100 		sd	s0,16(sp)
 546 0334 23349100 		sd	s1,8(sp)
 547 0338 23302101 		sd	s2,0(sp)
 548              		.cfi_offset 1, -8
 549              		.cfi_offset 8, -16
 550              		.cfi_offset 9, -24
 551              		.cfi_offset 18, -32
 552 033c 13040102 		addi	s0,sp,32
GAS LISTING /tmp/cckkWbmy.s 			page 14


 553              		.cfi_def_cfa 8, 0
  80:src/Tests.cpp ****     Thread* idleThread = new Thread(&idle, 0);
 554              		.loc 1 80 5
 555              		.loc 1 80 45 is_stmt 0
 556 0340 13058001 		li	a0,24
 557              	.LEHB7:
 558 0344 97000000 		call	_Znwm@plt
 558      E7800000 
 559              	.LVL55:
 560              	.LEHE7:
 561 034c 93040500 		mv	s1,a0
 562 0350 13060000 		li	a2,0
 563 0354 97050000 		lla	a1,_Z4idlePv
 563      93850500 
 564              	.LEHB8:
 565 035c 97000000 		call	_ZN6ThreadC1EPFvPvES0_@plt
 565      E7800000 
 566              	.LVL56:
 567              	.LEHE8:
  81:src/Tests.cpp ****     idleThread->start();
 568              		.loc 1 81 5 is_stmt 1 discriminator 2
 569              		.loc 1 81 22 is_stmt 0 discriminator 2
 570 0364 13850400 		mv	a0,s1
 571              	.LEHB9:
 572 0368 97000000 		call	_ZN6Thread5startEv@plt
 572      E7800000 
 573              	.LVL57:
  82:src/Tests.cpp ****     Thread* t1 = new Thread(&thread1Function, 0);
 574              		.loc 1 82 5 is_stmt 1 discriminator 2
 575              		.loc 1 82 48 is_stmt 0 discriminator 2
 576 0370 13058001 		li	a0,24
 577 0374 97000000 		call	_Znwm@plt
 577      E7800000 
 578              	.LVL58:
 579              	.LEHE9:
 580 037c 13090500 		mv	s2,a0
 581 0380 13060000 		li	a2,0
 582 0384 97050000 		lla	a1,_Z15thread1FunctionPv
 582      93850500 
 583              	.LEHB10:
 584 038c 97000000 		call	_ZN6ThreadC1EPFvPvES0_@plt
 584      E7800000 
 585              	.LVL59:
 586              	.LEHE10:
  83:src/Tests.cpp ****     t1->start();
 587              		.loc 1 83 5 is_stmt 1 discriminator 2
 588              		.loc 1 83 14 is_stmt 0 discriminator 2
 589 0394 13050900 		mv	a0,s2
 590              	.LEHB11:
 591 0398 97000000 		call	_ZN6Thread5startEv@plt
 591      E7800000 
 592              	.LVL60:
  84:src/Tests.cpp ****     Thread* t2  = new Thread(&thread2FunctionTest2, 0);
 593              		.loc 1 84 5 is_stmt 1 discriminator 2
 594              		.loc 1 84 54 is_stmt 0 discriminator 2
 595 03a0 13058001 		li	a0,24
 596 03a4 97000000 		call	_Znwm@plt
GAS LISTING /tmp/cckkWbmy.s 			page 15


 596      E7800000 
 597              	.LVL61:
 598              	.LEHE11:
 599 03ac 13090500 		mv	s2,a0
 600              	.LVL62:
 601 03b0 13060000 		li	a2,0
 602 03b4 97050000 		lla	a1,_Z20thread2FunctionTest2Pv
 602      93850500 
 603              	.LEHB12:
 604 03bc 97000000 		call	_ZN6ThreadC1EPFvPvES0_@plt
 604      E7800000 
 605              	.LVL63:
 606              	.LEHE12:
  85:src/Tests.cpp ****     t2->start();
 607              		.loc 1 85 5 is_stmt 1 discriminator 2
 608              		.loc 1 85 14 is_stmt 0 discriminator 2
 609 03c4 13050900 		mv	a0,s2
 610              	.LEHB13:
 611 03c8 97000000 		call	_ZN6Thread5startEv@plt
 611      E7800000 
 612              	.LVL64:
  86:src/Tests.cpp **** 
  87:src/Tests.cpp ****     Riscv::enableInterrupts();
 613              		.loc 1 87 5 is_stmt 1 discriminator 2
 614              		.loc 1 87 28 is_stmt 0 discriminator 2
 615 03d0 97000000 		call	_ZN5Riscv16enableInterruptsEv@plt
 615      E7800000 
 616              	.LVL65:
 617              	.L37:
  88:src/Tests.cpp **** 
  89:src/Tests.cpp ****     while(idleThread->myHandle->getState() != PCB::FINISHED);
 618              		.loc 1 89 5 is_stmt 1
 619              		.loc 1 89 44
 620              		.loc 1 89 23 is_stmt 0
 621 03d8 83B70400 		ld	a5,0(s1)
 622              	.LVL66:
 623              	.LBB15:
 624              	.LBB16:
 625              		.loc 2 34 23 is_stmt 1
 626              		.loc 2 34 30 is_stmt 0
 627 03dc 03A70703 		lw	a4,48(a5)
 628              	.LVL67:
 629              	.LBE16:
 630              	.LBE15:
 631              		.loc 1 89 44
 632 03e0 93073000 		li	a5,3
 633 03e4 E31AF7FE 		bne	a4,a5,.L37
  90:src/Tests.cpp **** 
  91:src/Tests.cpp ****     Riscv::printString("End...\n");
 634              		.loc 1 91 5 is_stmt 1
 635              		.loc 1 91 23 is_stmt 0
 636 03e8 17050000 		lla	a0,.LC6
 636      13050500 
 637 03f0 97000000 		call	_ZN5Riscv11printStringEPKc@plt
 637      E7800000 
 638              	.LVL68:
  92:src/Tests.cpp **** 
GAS LISTING /tmp/cckkWbmy.s 			page 16


  93:src/Tests.cpp ****     Riscv::disableInterrupts();
 639              		.loc 1 93 5 is_stmt 1
 640              		.loc 1 93 29 is_stmt 0
 641 03f8 97000000 		call	_ZN5Riscv17disableInterruptsEv@plt
 641      E7800000 
 642              	.LVL69:
 643              	.LEHE13:
  94:src/Tests.cpp **** }
 644              		.loc 1 94 1
 645 0400 83308101 		ld	ra,24(sp)
 646              		.cfi_remember_state
 647              		.cfi_restore 1
 648 0404 03340101 		ld	s0,16(sp)
 649              		.cfi_restore 8
 650              		.cfi_def_cfa 2, 32
 651 0408 83348100 		ld	s1,8(sp)
 652              		.cfi_restore 9
 653              	.LVL70:
 654 040c 03390100 		ld	s2,0(sp)
 655              		.cfi_restore 18
 656              	.LVL71:
 657 0410 13010102 		addi	sp,sp,32
 658              		.cfi_def_cfa_offset 0
 659 0414 67800000 		jr	ra
 660              	.L41:
 661              		.cfi_restore_state
 662 0418 13090500 		mv	s2,a0
  80:src/Tests.cpp ****     idleThread->start();
 663              		.loc 1 80 45
 664 041c 13850400 		mv	a0,s1
 665 0420 97000000 		call	_ZdlPv@plt
 665      E7800000 
 666              	.LVL72:
 667 0428 13050900 		mv	a0,s2
 668              	.LEHB14:
 669 042c 97000000 		call	_Unwind_Resume@plt
 669      E7800000 
 670              	.LVL73:
 671              	.LEHE14:
 672              	.L42:
 673 0434 93040500 		mv	s1,a0
 674              	.LVL74:
  82:src/Tests.cpp ****     t1->start();
 675              		.loc 1 82 48
 676 0438 13050900 		mv	a0,s2
 677 043c 97000000 		call	_ZdlPv@plt
 677      E7800000 
 678              	.LVL75:
 679 0444 13850400 		mv	a0,s1
 680              	.LEHB15:
 681 0448 97000000 		call	_Unwind_Resume@plt
 681      E7800000 
 682              	.LVL76:
 683              	.LEHE15:
 684              	.L43:
 685 0450 93040500 		mv	s1,a0
 686              	.LVL77:
GAS LISTING /tmp/cckkWbmy.s 			page 17


  84:src/Tests.cpp ****     t2->start();
 687              		.loc 1 84 54
 688 0454 13050900 		mv	a0,s2
 689 0458 97000000 		call	_ZdlPv@plt
 689      E7800000 
 690              	.LVL78:
 691 0460 13850400 		mv	a0,s1
 692              	.LEHB16:
 693 0464 97000000 		call	_Unwind_Resume@plt
 693      E7800000 
 694              	.LVL79:
 695              	.LEHE16:
 696              		.cfi_endproc
 697              	.LFE26:
 698              		.section	.gcc_except_table
 699              	.LLSDA26:
 700 005f FF       		.byte	0xff
 701 0060 FF       		.byte	0xff
 702 0061 03       		.byte	0x3
 703 0062 8201     		.byte	0x82,0x1
 704 0064 00000000 		.4byte	.LEHB7-.LFB26
 705 0068 00000000 		.4byte	.LEHE7-.LEHB7
 706 006c 00000000 		.4byte	0
 707 0070 00       		.byte	0
 708 0071 00000000 		.4byte	.LEHB8-.LFB26
 709 0075 00000000 		.4byte	.LEHE8-.LEHB8
 710 0079 00000000 		.4byte	.L41-.LFB26
 711 007d 00       		.byte	0
 712 007e 00000000 		.4byte	.LEHB9-.LFB26
 713 0082 00000000 		.4byte	.LEHE9-.LEHB9
 714 0086 00000000 		.4byte	0
 715 008a 00       		.byte	0
 716 008b 00000000 		.4byte	.LEHB10-.LFB26
 717 008f 00000000 		.4byte	.LEHE10-.LEHB10
 718 0093 00000000 		.4byte	.L42-.LFB26
 719 0097 00       		.byte	0
 720 0098 00000000 		.4byte	.LEHB11-.LFB26
 721 009c 00000000 		.4byte	.LEHE11-.LEHB11
 722 00a0 00000000 		.4byte	0
 723 00a4 00       		.byte	0
 724 00a5 00000000 		.4byte	.LEHB12-.LFB26
 725 00a9 00000000 		.4byte	.LEHE12-.LEHB12
 726 00ad 00000000 		.4byte	.L43-.LFB26
 727 00b1 00       		.byte	0
 728 00b2 00000000 		.4byte	.LEHB13-.LFB26
 729 00b6 00000000 		.4byte	.LEHE13-.LEHB13
 730 00ba 00000000 		.4byte	0
 731 00be 00       		.byte	0
 732 00bf 00000000 		.4byte	.LEHB14-.LFB26
 733 00c3 00000000 		.4byte	.LEHE14-.LEHB14
 734 00c7 00000000 		.4byte	0
 735 00cb 00       		.byte	0
 736 00cc 00000000 		.4byte	.LEHB15-.LFB26
 737 00d0 00000000 		.4byte	.LEHE15-.LEHB15
 738 00d4 00000000 		.4byte	0
 739 00d8 00       		.byte	0
 740 00d9 00000000 		.4byte	.LEHB16-.LFB26
GAS LISTING /tmp/cckkWbmy.s 			page 18


 741 00dd 00000000 		.4byte	.LEHE16-.LEHB16
 742 00e1 00000000 		.4byte	0
 743 00e5 00       		.byte	0
 744              		.text
 746              		.align	2
 747              		.globl	_Z11threadTestsv
 749              	_Z11threadTestsv:
 750              	.LFB27:
  95:src/Tests.cpp **** 
  96:src/Tests.cpp **** void threadTests()
  97:src/Tests.cpp **** {
 751              		.loc 1 97 1 is_stmt 1
 752              		.cfi_startproc
 753 046c 130101FF 		addi	sp,sp,-16
 754              		.cfi_def_cfa_offset 16
 755 0470 23341100 		sd	ra,8(sp)
 756 0474 23308100 		sd	s0,0(sp)
 757              		.cfi_offset 1, -8
 758              		.cfi_offset 8, -16
 759 0478 13040101 		addi	s0,sp,16
 760              		.cfi_def_cfa 8, 0
  98:src/Tests.cpp ****     threadTest1();
 761              		.loc 1 98 5
 762              		.loc 1 98 16 is_stmt 0
 763 047c 97000000 		call	_Z11threadTest1v
 763      E7800000 
 764              	.LVL80:
  99:src/Tests.cpp ****     //threadTest2();
 100:src/Tests.cpp **** }
 765              		.loc 1 100 1
 766 0484 83308100 		ld	ra,8(sp)
 767              		.cfi_restore 1
 768 0488 03340100 		ld	s0,0(sp)
 769              		.cfi_restore 8
 770              		.cfi_def_cfa 2, 16
 771 048c 13010101 		addi	sp,sp,16
 772              		.cfi_def_cfa_offset 0
 773 0490 67800000 		jr	ra
 774              		.cfi_endproc
 775              	.LFE27:
 777              		.section	.rodata.str1.8
 778              		.align	3
 779              	.LC7:
 780 0058 6D616C6C 		.string	"mallocFree\n"
 780      6F634672 
 780      65650A00 
 781 0064 00000000 		.align	3
 782              	.LC8:
 783 0068 6E6F7420 		.string	"not OK\n"
 783      4F4B0A00 
 784              		.align	3
 785              	.LC9:
 786 0070 4F4B0A00 		.string	"OK\n"
 787              		.text
 788              		.align	2
 789              		.globl	_Z10mallocFreev
 791              	_Z10mallocFreev:
GAS LISTING /tmp/cckkWbmy.s 			page 19


 792              	.LFB28:
 101:src/Tests.cpp **** 
 102:src/Tests.cpp **** 
 103:src/Tests.cpp **** //memory (de)allocation tests
 104:src/Tests.cpp **** void mallocFree()
 105:src/Tests.cpp **** {
 793              		.loc 1 105 1 is_stmt 1
 794              		.cfi_startproc
 795 0494 130101CC 		addi	sp,sp,-832
 796              		.cfi_def_cfa_offset 832
 797 0498 233C1132 		sd	ra,824(sp)
 798 049c 23388132 		sd	s0,816(sp)
 799 04a0 23349132 		sd	s1,808(sp)
 800              		.cfi_offset 1, -8
 801              		.cfi_offset 8, -16
 802              		.cfi_offset 9, -24
 803 04a4 13040134 		addi	s0,sp,832
 804              		.cfi_def_cfa 8, 0
 106:src/Tests.cpp ****     Riscv::printString("mallocFree\n");
 805              		.loc 1 106 5
 806              		.loc 1 106 23 is_stmt 0
 807 04a8 17050000 		lla	a0,.LC7
 807      13050500 
 808 04b0 97000000 		call	_ZN5Riscv11printStringEPKc@plt
 808      E7800000 
 809              	.LVL81:
 810              	.LBB17:
 107:src/Tests.cpp ****     constexpr int num = 100;
 108:src/Tests.cpp ****     void* addrs[num];
 109:src/Tests.cpp ****     for(int i = 0; i < num;i++)
 811              		.loc 1 109 13
 812 04b8 93040000 		li	s1,0
 813 04bc 6F008000 		j	.L52
 814              	.LVL82:
 815              	.L50:
 816              		.loc 1 109 5 is_stmt 1 discriminator 2
 817 04c0 9B841400 		addiw	s1,s1,1
 818              	.LVL83:
 819              	.L52:
 820              		.loc 1 109 22 discriminator 1
 821 04c4 93073006 		li	a5,99
 822 04c8 63C49704 		bgt	s1,a5,.L60
 110:src/Tests.cpp ****     {
 111:src/Tests.cpp ****         addrs[i] = mem_alloc(100);
 823              		.loc 1 111 9
 824              		.loc 1 111 29 is_stmt 0
 825 04cc 13054006 		li	a0,100
 826 04d0 97000000 		call	mem_alloc@plt
 826      E7800000 
 827              	.LVL84:
 828              		.loc 1 111 18
 829 04d8 93973400 		slli	a5,s1,3
 830 04dc 130704FE 		addi	a4,s0,-32
 831 04e0 B307F700 		add	a5,a4,a5
 832 04e4 23B0A7CE 		sd	a0,-800(a5)
 112:src/Tests.cpp ****         if(addrs[i] == 0)
 833              		.loc 1 112 9 is_stmt 1
GAS LISTING /tmp/cckkWbmy.s 			page 20


 834 04e8 E31C05FC 		bnez	a0,.L50
 113:src/Tests.cpp ****         {
 114:src/Tests.cpp ****             Riscv::printString("not OK\n");
 835              		.loc 1 114 13
 836              		.loc 1 114 31 is_stmt 0
 837 04ec 17050000 		lla	a0,.LC8
 837      13050500 
 838 04f4 97000000 		call	_ZN5Riscv11printStringEPKc@plt
 838      E7800000 
 839              	.LVL85:
 115:src/Tests.cpp ****             return;
 840              		.loc 1 115 13 is_stmt 1
 841              	.L48:
 842              	.LBE17:
 116:src/Tests.cpp ****         }
 117:src/Tests.cpp **** 
 118:src/Tests.cpp ****     }
 119:src/Tests.cpp **** 
 120:src/Tests.cpp ****     for(int i = 0 ; i < num;i+=2)
 121:src/Tests.cpp ****     {
 122:src/Tests.cpp ****         int retval = mem_free(addrs[i]);
 123:src/Tests.cpp ****         if(retval != 0)
 124:src/Tests.cpp ****         {
 125:src/Tests.cpp ****             Riscv::printString("not OK\n");
 126:src/Tests.cpp ****             return;
 127:src/Tests.cpp ****         }
 128:src/Tests.cpp ****     }
 129:src/Tests.cpp **** 
 130:src/Tests.cpp ****     for(int i = 0 ; i < num;i+=2)
 131:src/Tests.cpp ****     {
 132:src/Tests.cpp ****         addrs[i] = mem_alloc(20);
 133:src/Tests.cpp ****         if(addrs[i] == 0)
 134:src/Tests.cpp ****         {
 135:src/Tests.cpp ****             Riscv::printString("not OK\n");
 136:src/Tests.cpp ****             return;
 137:src/Tests.cpp ****         }
 138:src/Tests.cpp ****     }
 139:src/Tests.cpp **** 
 140:src/Tests.cpp ****     for(int i = 0; i < num;i++)
 141:src/Tests.cpp ****     {
 142:src/Tests.cpp ****         int retval = mem_free(addrs[i]);
 143:src/Tests.cpp ****         if(retval != 0)
 144:src/Tests.cpp ****         {
 145:src/Tests.cpp ****             Riscv::printString("not OK\n");
 146:src/Tests.cpp ****             return;
 147:src/Tests.cpp ****         }
 148:src/Tests.cpp ****     }
 149:src/Tests.cpp **** 
 150:src/Tests.cpp ****     Riscv::printString("OK\n");
 151:src/Tests.cpp **** }
 843              		.loc 1 151 1 is_stmt 0
 844 04fc 83308133 		ld	ra,824(sp)
 845              		.cfi_remember_state
 846              		.cfi_restore 1
 847 0500 03340133 		ld	s0,816(sp)
 848              		.cfi_restore 8
 849              		.cfi_def_cfa 2, 832
GAS LISTING /tmp/cckkWbmy.s 			page 21


 850 0504 83348132 		ld	s1,808(sp)
 851              		.cfi_restore 9
 852 0508 13010134 		addi	sp,sp,832
 853              		.cfi_def_cfa_offset 0
 854 050c 67800000 		jr	ra
 855              	.LVL86:
 856              	.L60:
 857              		.cfi_restore_state
 858              	.LBB18:
 120:src/Tests.cpp ****     {
 859              		.loc 1 120 13
 860 0510 93040000 		li	s1,0
 861              	.LVL87:
 862              	.L49:
 120:src/Tests.cpp ****     {
 863              		.loc 1 120 23 is_stmt 1 discriminator 1
 864 0514 93073006 		li	a5,99
 865 0518 63CE9702 		bgt	s1,a5,.L61
 866              	.LBB19:
 122:src/Tests.cpp ****         if(retval != 0)
 867              		.loc 1 122 9
 122:src/Tests.cpp ****         if(retval != 0)
 868              		.loc 1 122 30 is_stmt 0
 869 051c 93973400 		slli	a5,s1,3
 870 0520 130704FE 		addi	a4,s0,-32
 871 0524 B307F700 		add	a5,a4,a5
 872 0528 03B507CE 		ld	a0,-800(a5)
 873 052c 97000000 		call	mem_free@plt
 873      E7800000 
 874              	.LVL88:
 123:src/Tests.cpp ****         {
 875              		.loc 1 123 9 is_stmt 1
 876 0534 63160500 		bnez	a0,.L64
 877              	.LBE19:
 120:src/Tests.cpp ****     {
 878              		.loc 1 120 5 discriminator 2
 120:src/Tests.cpp ****     {
 879              		.loc 1 120 30 is_stmt 0 discriminator 2
 880 0538 9B842400 		addiw	s1,s1,2
 881              	.LVL89:
 120:src/Tests.cpp ****     {
 882              		.loc 1 120 5 discriminator 2
 883 053c 6FF09FFD 		j	.L49
 884              	.LVL90:
 885              	.L64:
 886              	.LBB20:
 125:src/Tests.cpp ****             return;
 887              		.loc 1 125 13 is_stmt 1
 125:src/Tests.cpp ****             return;
 888              		.loc 1 125 31 is_stmt 0
 889 0540 17050000 		lla	a0,.LC8
 889      13050500 
 890              	.LVL91:
 891 0548 97000000 		call	_ZN5Riscv11printStringEPKc@plt
 891      E7800000 
 892              	.LVL92:
 126:src/Tests.cpp ****         }
GAS LISTING /tmp/cckkWbmy.s 			page 22


 893              		.loc 1 126 13 is_stmt 1
 894 0550 6FF0DFFA 		j	.L48
 895              	.L61:
 896              	.LBE20:
 897              	.LBE18:
 898              	.LBB21:
 130:src/Tests.cpp ****     {
 899              		.loc 1 130 13 is_stmt 0
 900 0554 93040000 		li	s1,0
 901              	.LVL93:
 902 0558 6F008000 		j	.L53
 903              	.LVL94:
 904              	.L56:
 130:src/Tests.cpp ****     {
 905              		.loc 1 130 5 is_stmt 1 discriminator 2
 130:src/Tests.cpp ****     {
 906              		.loc 1 130 30 is_stmt 0 discriminator 2
 907 055c 9B842400 		addiw	s1,s1,2
 908              	.LVL95:
 909              	.L53:
 130:src/Tests.cpp ****     {
 910              		.loc 1 130 23 is_stmt 1 discriminator 1
 911 0560 93073006 		li	a5,99
 912 0564 63CC9702 		bgt	s1,a5,.L62
 132:src/Tests.cpp ****         if(addrs[i] == 0)
 913              		.loc 1 132 9
 132:src/Tests.cpp ****         if(addrs[i] == 0)
 914              		.loc 1 132 29 is_stmt 0
 915 0568 13054001 		li	a0,20
 916 056c 97000000 		call	mem_alloc@plt
 916      E7800000 
 917              	.LVL96:
 132:src/Tests.cpp ****         if(addrs[i] == 0)
 918              		.loc 1 132 18
 919 0574 93973400 		slli	a5,s1,3
 920 0578 130704FE 		addi	a4,s0,-32
 921 057c B307F700 		add	a5,a4,a5
 922 0580 23B0A7CE 		sd	a0,-800(a5)
 133:src/Tests.cpp ****         {
 923              		.loc 1 133 9 is_stmt 1
 924 0584 E31C05FC 		bnez	a0,.L56
 135:src/Tests.cpp ****             return;
 925              		.loc 1 135 13
 135:src/Tests.cpp ****             return;
 926              		.loc 1 135 31 is_stmt 0
 927 0588 17050000 		lla	a0,.LC8
 927      13050500 
 928 0590 97000000 		call	_ZN5Riscv11printStringEPKc@plt
 928      E7800000 
 929              	.LVL97:
 136:src/Tests.cpp ****         }
 930              		.loc 1 136 13 is_stmt 1
 931 0598 6FF05FF6 		j	.L48
 932              	.L62:
 933              	.LBE21:
 934              	.LBB22:
 140:src/Tests.cpp ****     {
GAS LISTING /tmp/cckkWbmy.s 			page 23


 935              		.loc 1 140 13 is_stmt 0
 936 059c 93040000 		li	s1,0
 937              	.LVL98:
 938              	.L55:
 140:src/Tests.cpp ****     {
 939              		.loc 1 140 22 is_stmt 1 discriminator 1
 940 05a0 93073006 		li	a5,99
 941 05a4 63CE9702 		bgt	s1,a5,.L57
 942              	.LBB23:
 142:src/Tests.cpp ****         if(retval != 0)
 943              		.loc 1 142 9
 142:src/Tests.cpp ****         if(retval != 0)
 944              		.loc 1 142 30 is_stmt 0
 945 05a8 93973400 		slli	a5,s1,3
 946 05ac 130704FE 		addi	a4,s0,-32
 947 05b0 B307F700 		add	a5,a4,a5
 948 05b4 03B507CE 		ld	a0,-800(a5)
 949 05b8 97000000 		call	mem_free@plt
 949      E7800000 
 950              	.LVL99:
 143:src/Tests.cpp ****         {
 951              		.loc 1 143 9 is_stmt 1
 952 05c0 63160500 		bnez	a0,.L65
 953              	.LBE23:
 140:src/Tests.cpp ****     {
 954              		.loc 1 140 5 discriminator 2
 955 05c4 9B841400 		addiw	s1,s1,1
 956              	.LVL100:
 957 05c8 6FF09FFD 		j	.L55
 958              	.LVL101:
 959              	.L65:
 960              	.LBB24:
 145:src/Tests.cpp ****             return;
 961              		.loc 1 145 13
 145:src/Tests.cpp ****             return;
 962              		.loc 1 145 31 is_stmt 0
 963 05cc 17050000 		lla	a0,.LC8
 963      13050500 
 964              	.LVL102:
 965 05d4 97000000 		call	_ZN5Riscv11printStringEPKc@plt
 965      E7800000 
 966              	.LVL103:
 146:src/Tests.cpp ****         }
 967              		.loc 1 146 13 is_stmt 1
 968 05dc 6FF01FF2 		j	.L48
 969              	.L57:
 970              	.LBE24:
 971              	.LBE22:
 150:src/Tests.cpp **** }
 972              		.loc 1 150 5
 150:src/Tests.cpp **** }
 973              		.loc 1 150 23 is_stmt 0
 974 05e0 17050000 		lla	a0,.LC9
 974      13050500 
 975 05e8 97000000 		call	_ZN5Riscv11printStringEPKc@plt
 975      E7800000 
 976              	.LVL104:
GAS LISTING /tmp/cckkWbmy.s 			page 24


 977 05f0 6FF0DFF0 		j	.L48
 978              		.cfi_endproc
 979              	.LFE28:
 981              		.section	.rodata.str1.8
 982 0074 00000000 		.align	3
 983              	.LC10:
 984 0078 6269674D 		.string	"bigMalloc\n"
 984      616C6C6F 
 984      630A00
 985              		.text
 986              		.align	2
 987              		.globl	_Z9bigMallocv
 989              	_Z9bigMallocv:
 990              	.LFB29:
 152:src/Tests.cpp **** void bigMalloc()
 153:src/Tests.cpp **** {
 991              		.loc 1 153 1 is_stmt 1
 992              		.cfi_startproc
 993 05f4 130101FF 		addi	sp,sp,-16
 994              		.cfi_def_cfa_offset 16
 995 05f8 23341100 		sd	ra,8(sp)
 996 05fc 23308100 		sd	s0,0(sp)
 997              		.cfi_offset 1, -8
 998              		.cfi_offset 8, -16
 999 0600 13040101 		addi	s0,sp,16
 1000              		.cfi_def_cfa 8, 0
 154:src/Tests.cpp ****     Riscv::printString("bigMalloc\n");
 1001              		.loc 1 154 5
 1002              		.loc 1 154 23 is_stmt 0
 1003 0604 17050000 		lla	a0,.LC10
 1003      13050500 
 1004 060c 97000000 		call	_ZN5Riscv11printStringEPKc@plt
 1004      E7800000 
 1005              	.LVL105:
 155:src/Tests.cpp ****     uint64 x = (uint64)HEAP_END_ADDR - (uint64)HEAP_START_ADDR + 100UL;
 1006              		.loc 1 155 5 is_stmt 1
 1007              		.loc 1 155 38 is_stmt 0
 1008 0614 97070000 		la	a5,HEAP_END_ADDR
 1008      83B70700 
 1009 061c 03B50700 		ld	a0,0(a5)
 1010 0620 97070000 		la	a5,HEAP_START_ADDR
 1010      83B70700 
 1011 0628 83B70700 		ld	a5,0(a5)
 1012 062c 3305F540 		sub	a0,a0,a5
 1013              	.LVL106:
 156:src/Tests.cpp ****     void* p = mem_alloc(x);
 1014              		.loc 1 156 5 is_stmt 1
 1015              		.loc 1 156 24 is_stmt 0
 1016 0630 13054506 		addi	a0,a0,100
 1017              	.LVL107:
 1018 0634 97000000 		call	mem_alloc@plt
 1018      E7800000 
 1019              	.LVL108:
 157:src/Tests.cpp ****     if(p == 0)
 1020              		.loc 1 157 5 is_stmt 1
 1021 063c 63020502 		beqz	a0,.L70
 158:src/Tests.cpp ****         Riscv::printString("OK\n");
GAS LISTING /tmp/cckkWbmy.s 			page 25


 159:src/Tests.cpp ****     else
 160:src/Tests.cpp ****         Riscv::printString("not OK\n");
 1022              		.loc 1 160 9
 1023              		.loc 1 160 27 is_stmt 0
 1024 0640 17050000 		lla	a0,.LC8
 1024      13050500 
 1025              	.LVL109:
 1026 0648 97000000 		call	_ZN5Riscv11printStringEPKc@plt
 1026      E7800000 
 1027              	.LVL110:
 1028              	.L66:
 161:src/Tests.cpp **** }
 1029              		.loc 1 161 1
 1030 0650 83308100 		ld	ra,8(sp)
 1031              		.cfi_remember_state
 1032              		.cfi_restore 1
 1033 0654 03340100 		ld	s0,0(sp)
 1034              		.cfi_restore 8
 1035              		.cfi_def_cfa 2, 16
 1036 0658 13010101 		addi	sp,sp,16
 1037              		.cfi_def_cfa_offset 0
 1038 065c 67800000 		jr	ra
 1039              	.LVL111:
 1040              	.L70:
 1041              		.cfi_restore_state
 158:src/Tests.cpp ****         Riscv::printString("OK\n");
 1042              		.loc 1 158 9 is_stmt 1
 158:src/Tests.cpp ****         Riscv::printString("OK\n");
 1043              		.loc 1 158 27 is_stmt 0
 1044 0660 17050000 		lla	a0,.LC9
 1044      13050500 
 1045              	.LVL112:
 1046 0668 97000000 		call	_ZN5Riscv11printStringEPKc@plt
 1046      E7800000 
 1047              	.LVL113:
 1048 0670 6FF01FFE 		j	.L66
 1049              		.cfi_endproc
 1050              	.LFE29:
 1052              		.section	.rodata.str1.8
 1053 0083 00000000 		.align	3
 1053      00
 1054              	.LC11:
 1055 0088 6C6F744F 		.string	"lotOfSmallMallocs\n"
 1055      66536D61 
 1055      6C6C4D61 
 1055      6C6C6F63 
 1055      730A00
 1056              		.text
 1057              		.align	2
 1058              		.globl	_Z17lotOfSmallMallocsv
 1060              	_Z17lotOfSmallMallocsv:
 1061              	.LFB30:
 162:src/Tests.cpp **** 
 163:src/Tests.cpp **** void lotOfSmallMallocs()
 164:src/Tests.cpp **** {
 1062              		.loc 1 164 1 is_stmt 1
 1063              		.cfi_startproc
GAS LISTING /tmp/cckkWbmy.s 			page 26


 1064 0674 130101FD 		addi	sp,sp,-48
 1065              		.cfi_def_cfa_offset 48
 1066 0678 23341102 		sd	ra,40(sp)
 1067 067c 23308102 		sd	s0,32(sp)
 1068 0680 233C9100 		sd	s1,24(sp)
 1069 0684 23382101 		sd	s2,16(sp)
 1070 0688 23343101 		sd	s3,8(sp)
 1071              		.cfi_offset 1, -8
 1072              		.cfi_offset 8, -16
 1073              		.cfi_offset 9, -24
 1074              		.cfi_offset 18, -32
 1075              		.cfi_offset 19, -40
 1076 068c 13040103 		addi	s0,sp,48
 1077              		.cfi_def_cfa 8, 0
 165:src/Tests.cpp ****     Riscv::printString("lotOfSmallMallocs\n");
 1078              		.loc 1 165 5
 1079              		.loc 1 165 23 is_stmt 0
 1080 0690 17050000 		lla	a0,.LC11
 1080      13050500 
 1081 0698 97000000 		call	_ZN5Riscv11printStringEPKc@plt
 1081      E7800000 
 1082              	.LVL114:
 166:src/Tests.cpp ****     uint64 cnt = 0;
 1083              		.loc 1 166 5 is_stmt 1
 167:src/Tests.cpp ****     uint64 sum = 0;
 1084              		.loc 1 167 5
 168:src/Tests.cpp ****     uint64 N = 10000UL;
 1085              		.loc 1 168 5
 169:src/Tests.cpp ****     uint64 X = 10UL;
 1086              		.loc 1 169 5
 170:src/Tests.cpp ****     for(uint64 i = 0; i < N;i++)
 1087              		.loc 1 170 5
 1088              	.LBB25:
 1089              		.loc 1 170 16 is_stmt 0
 1090 06a0 93040000 		li	s1,0
 1091              	.LBE25:
 167:src/Tests.cpp ****     uint64 N = 10000UL;
 1092              		.loc 1 167 12
 1093 06a4 93090000 		li	s3,0
 166:src/Tests.cpp ****     uint64 sum = 0;
 1094              		.loc 1 166 12
 1095 06a8 13090000 		li	s2,0
 1096 06ac 6F008001 		j	.L73
 1097              	.LVL115:
 1098              	.L77:
 1099              	.LBB28:
 1100              	.LBB26:
 171:src/Tests.cpp ****     {
 172:src/Tests.cpp ****         Test* t = (Test*)mem_alloc(sizeof(Test));
 173:src/Tests.cpp ****         if(t == 0)
 174:src/Tests.cpp ****             break;
 175:src/Tests.cpp ****         t->a = X;
 1101              		.loc 1 175 9 is_stmt 1 discriminator 2
 1102              		.loc 1 175 14 is_stmt 0 discriminator 2
 1103 06b0 9307A000 		li	a5,10
 1104 06b4 2330F500 		sd	a5,0(a0)
 176:src/Tests.cpp ****         sum+=t->a;
GAS LISTING /tmp/cckkWbmy.s 			page 27


 1105              		.loc 1 176 9 is_stmt 1 discriminator 2
 1106              		.loc 1 176 12 is_stmt 0 discriminator 2
 1107 06b8 9389A900 		addi	s3,s3,10
 1108              	.LVL116:
 177:src/Tests.cpp ****         cnt++;
 1109              		.loc 1 177 9 is_stmt 1 discriminator 2
 1110              		.loc 1 177 12 is_stmt 0 discriminator 2
 1111 06bc 13091900 		addi	s2,s2,1
 1112              	.LVL117:
 1113              	.LBE26:
 170:src/Tests.cpp ****     {
 1114              		.loc 1 170 5 is_stmt 1 discriminator 2
 1115 06c0 93841400 		addi	s1,s1,1
 1116              	.LVL118:
 1117              	.L73:
 170:src/Tests.cpp ****     {
 1118              		.loc 1 170 25 discriminator 1
 1119 06c4 B7270000 		li	a5,8192
 1120 06c8 9387F770 		addi	a5,a5,1807
 1121 06cc 63EA9700 		bgtu	s1,a5,.L72
 1122              	.LBB27:
 172:src/Tests.cpp ****         if(t == 0)
 1123              		.loc 1 172 9
 172:src/Tests.cpp ****         if(t == 0)
 1124              		.loc 1 172 35 is_stmt 0
 1125 06d0 13058000 		li	a0,8
 1126 06d4 97000000 		call	mem_alloc@plt
 1126      E7800000 
 1127              	.LVL119:
 173:src/Tests.cpp ****             break;
 1128              		.loc 1 173 9 is_stmt 1
 1129 06dc E31A05FC 		bnez	a0,.L77
 1130              	.LVL120:
 1131              	.L72:
 1132              	.LBE27:
 1133              	.LBE28:
 178:src/Tests.cpp ****     }
 179:src/Tests.cpp ****     Riscv::printInteger(cnt);
 1134              		.loc 1 179 5
 1135              		.loc 1 179 24 is_stmt 0
 1136 06e0 13050900 		mv	a0,s2
 1137 06e4 97000000 		call	_ZN5Riscv12printIntegerEm@plt
 1137      E7800000 
 1138              	.LVL121:
 180:src/Tests.cpp ****     Riscv::printString("\n");
 1139              		.loc 1 180 5 is_stmt 1
 1140              		.loc 1 180 23 is_stmt 0
 1141 06ec 17050000 		lla	a0,.LC3
 1141      13050500 
 1142 06f4 97000000 		call	_ZN5Riscv11printStringEPKc@plt
 1142      E7800000 
 1143              	.LVL122:
 181:src/Tests.cpp ****     if(sum == X*cnt)
 1144              		.loc 1 181 5 is_stmt 1
 1145              		.loc 1 181 16 is_stmt 0
 1146 06fc 93172900 		slli	a5,s2,2
 1147 0700 33892701 		add	s2,a5,s2
GAS LISTING /tmp/cckkWbmy.s 			page 28


 1148              	.LVL123:
 1149 0704 13191900 		slli	s2,s2,1
 1150              		.loc 1 181 5
 1151 0708 63083903 		beq	s2,s3,.L78
 182:src/Tests.cpp ****         Riscv::printString("OK\n");
 183:src/Tests.cpp ****     else
 184:src/Tests.cpp ****         Riscv::printString("not OK\n");
 1152              		.loc 1 184 9 is_stmt 1
 1153              		.loc 1 184 27 is_stmt 0
 1154 070c 17050000 		lla	a0,.LC8
 1154      13050500 
 1155 0714 97000000 		call	_ZN5Riscv11printStringEPKc@plt
 1155      E7800000 
 1156              	.LVL124:
 1157              	.L71:
 185:src/Tests.cpp **** }
 1158              		.loc 1 185 1
 1159 071c 83308102 		ld	ra,40(sp)
 1160              		.cfi_remember_state
 1161              		.cfi_restore 1
 1162 0720 03340102 		ld	s0,32(sp)
 1163              		.cfi_restore 8
 1164              		.cfi_def_cfa 2, 48
 1165 0724 83348101 		ld	s1,24(sp)
 1166              		.cfi_restore 9
 1167              	.LVL125:
 1168 0728 03390101 		ld	s2,16(sp)
 1169              		.cfi_restore 18
 1170 072c 83398100 		ld	s3,8(sp)
 1171              		.cfi_restore 19
 1172              	.LVL126:
 1173 0730 13010103 		addi	sp,sp,48
 1174              		.cfi_def_cfa_offset 0
 1175 0734 67800000 		jr	ra
 1176              	.LVL127:
 1177              	.L78:
 1178              		.cfi_restore_state
 182:src/Tests.cpp ****         Riscv::printString("OK\n");
 1179              		.loc 1 182 9 is_stmt 1
 182:src/Tests.cpp ****         Riscv::printString("OK\n");
 1180              		.loc 1 182 27 is_stmt 0
 1181 0738 17050000 		lla	a0,.LC9
 1181      13050500 
 1182 0740 97000000 		call	_ZN5Riscv11printStringEPKc@plt
 1182      E7800000 
 1183              	.LVL128:
 1184 0748 6FF05FFD 		j	.L71
 1185              		.cfi_endproc
 1186              	.LFE30:
 1188              		.section	.rodata.str1.8
 1189 009b 00000000 		.align	3
 1189      00
 1190              	.LC12:
 1191 00a0 62616446 		.string	"badFree\n"
 1191      7265650A 
 1191      00
 1192              		.text
GAS LISTING /tmp/cckkWbmy.s 			page 29


 1193              		.align	2
 1194              		.globl	_Z7badFreev
 1196              	_Z7badFreev:
 1197              	.LFB31:
 186:src/Tests.cpp **** void badFree()
 187:src/Tests.cpp **** {
 1198              		.loc 1 187 1 is_stmt 1
 1199              		.cfi_startproc
 1200 074c 130101FF 		addi	sp,sp,-16
 1201              		.cfi_def_cfa_offset 16
 1202 0750 23341100 		sd	ra,8(sp)
 1203 0754 23308100 		sd	s0,0(sp)
 1204              		.cfi_offset 1, -8
 1205              		.cfi_offset 8, -16
 1206 0758 13040101 		addi	s0,sp,16
 1207              		.cfi_def_cfa 8, 0
 188:src/Tests.cpp ****     Riscv::printString("badFree\n");
 1208              		.loc 1 188 5
 1209              		.loc 1 188 23 is_stmt 0
 1210 075c 17050000 		lla	a0,.LC12
 1210      13050500 
 1211 0764 97000000 		call	_ZN5Riscv11printStringEPKc@plt
 1211      E7800000 
 1212              	.LVL129:
 189:src/Tests.cpp ****     Test* t = (Test*)mem_alloc(sizeof(Test));
 1213              		.loc 1 189 5 is_stmt 1
 1214              		.loc 1 189 31 is_stmt 0
 1215 076c 13058000 		li	a0,8
 1216 0770 97000000 		call	mem_alloc@plt
 1216      E7800000 
 1217              	.LVL130:
 190:src/Tests.cpp ****     uint64 retval = mem_free((char*)t + 2);
 1218              		.loc 1 190 5 is_stmt 1
 1219              		.loc 1 190 29 is_stmt 0
 1220 0778 13052500 		addi	a0,a0,2
 1221              	.LVL131:
 1222 077c 97000000 		call	mem_free@plt
 1222      E7800000 
 1223              	.LVL132:
 191:src/Tests.cpp ****     if(retval == 0)
 1224              		.loc 1 191 5 is_stmt 1
 1225 0784 63120502 		bnez	a0,.L80
 192:src/Tests.cpp ****         Riscv::printString("not OK\n");
 1226              		.loc 1 192 9
 1227              		.loc 1 192 27 is_stmt 0
 1228 0788 17050000 		lla	a0,.LC8
 1228      13050500 
 1229              	.LVL133:
 1230 0790 97000000 		call	_ZN5Riscv11printStringEPKc@plt
 1230      E7800000 
 1231              	.LVL134:
 1232              	.L79:
 193:src/Tests.cpp ****     else
 194:src/Tests.cpp ****         Riscv::printString("OK\n");
 195:src/Tests.cpp **** }
 1233              		.loc 1 195 1
 1234 0798 83308100 		ld	ra,8(sp)
GAS LISTING /tmp/cckkWbmy.s 			page 30


 1235              		.cfi_remember_state
 1236              		.cfi_restore 1
 1237 079c 03340100 		ld	s0,0(sp)
 1238              		.cfi_restore 8
 1239              		.cfi_def_cfa 2, 16
 1240 07a0 13010101 		addi	sp,sp,16
 1241              		.cfi_def_cfa_offset 0
 1242 07a4 67800000 		jr	ra
 1243              	.LVL135:
 1244              	.L80:
 1245              		.cfi_restore_state
 194:src/Tests.cpp **** }
 1246              		.loc 1 194 9 is_stmt 1
 194:src/Tests.cpp **** }
 1247              		.loc 1 194 27 is_stmt 0
 1248 07a8 17050000 		lla	a0,.LC9
 1248      13050500 
 1249              	.LVL136:
 1250 07b0 97000000 		call	_ZN5Riscv11printStringEPKc@plt
 1250      E7800000 
 1251              	.LVL137:
 1252              		.loc 1 195 1
 1253 07b8 6FF01FFE 		j	.L79
 1254              		.cfi_endproc
 1255              	.LFE31:
 1257              		.section	.rodata.str1.8
 1258 00a9 00000000 		.align	3
 1258      000000
 1259              	.LC13:
 1260 00b0 73747265 		.string	"stressTesting\n"
 1260      73735465 
 1260      7374696E 
 1260      670A00
 1261 00bf 00       		.align	3
 1262              	.LC14:
 1263 00c0 737A203A 		.string	"sz : "
 1263      2000
 1264 00c6 0000     		.align	3
 1265              	.LC15:
 1266 00c8 66726565 		.string	"free\n"
 1266      0A00
 1267 00ce 0000     		.align	3
 1268              	.LC16:
 1269 00d0 616C6C6F 		.string	"alloc\n"
 1269      630A00
 1270 00d7 00       		.align	3
 1271              	.LC17:
 1272 00d8 6E6F7420 		.string	"not Ok\n"
 1272      4F6B0A00 
 1273              		.text
 1274              		.align	2
 1275              		.globl	_Z13stressTestingv
 1277              	_Z13stressTestingv:
 1278              	.LFB32:
 196:src/Tests.cpp **** 
 197:src/Tests.cpp **** void stressTesting()
 198:src/Tests.cpp **** {
GAS LISTING /tmp/cckkWbmy.s 			page 31


 1279              		.loc 1 198 1 is_stmt 1
 1280              		.cfi_startproc
 1281 07bc 130101CB 		addi	sp,sp,-848
 1282              		.cfi_def_cfa_offset 848
 1283 07c0 23341134 		sd	ra,840(sp)
 1284 07c4 23308134 		sd	s0,832(sp)
 1285 07c8 233C9132 		sd	s1,824(sp)
 1286 07cc 23382133 		sd	s2,816(sp)
 1287 07d0 23343133 		sd	s3,808(sp)
 1288              		.cfi_offset 1, -8
 1289              		.cfi_offset 8, -16
 1290              		.cfi_offset 9, -24
 1291              		.cfi_offset 18, -32
 1292              		.cfi_offset 19, -40
 1293 07d4 13040135 		addi	s0,sp,848
 1294              		.cfi_def_cfa 8, 0
 199:src/Tests.cpp ****     Riscv::printString("stressTesting\n");
 1295              		.loc 1 199 5
 1296              		.loc 1 199 23 is_stmt 0
 1297 07d8 17050000 		lla	a0,.LC13
 1297      13050500 
 1298 07e0 97000000 		call	_ZN5Riscv11printStringEPKc@plt
 1298      E7800000 
 1299              	.LVL138:
 1300              	.LBB29:
 200:src/Tests.cpp ****     constexpr int num = 100;
 201:src/Tests.cpp ****     void* addrs[num];
 202:src/Tests.cpp ****     for(int i = 0; i < num;i++)
 1301              		.loc 1 202 13
 1302 07e8 93040000 		li	s1,0
 1303 07ec 6F008000 		j	.L87
 1304              	.LVL139:
 1305              	.L85:
 1306              		.loc 1 202 5 is_stmt 1 discriminator 2
 1307 07f0 9B841400 		addiw	s1,s1,1
 1308              	.LVL140:
 1309              	.L87:
 1310              		.loc 1 202 22 discriminator 1
 1311 07f4 93073006 		li	a5,99
 1312 07f8 63C89704 		bgt	s1,a5,.L97
 203:src/Tests.cpp ****     {
 204:src/Tests.cpp ****         addrs[i] = mem_alloc(1);
 1313              		.loc 1 204 9
 1314              		.loc 1 204 29 is_stmt 0
 1315 07fc 13051000 		li	a0,1
 1316 0800 97000000 		call	mem_alloc@plt
 1316      E7800000 
 1317              	.LVL141:
 1318              		.loc 1 204 18
 1319 0808 93973400 		slli	a5,s1,3
 1320 080c 130704FD 		addi	a4,s0,-48
 1321 0810 B307F700 		add	a5,a4,a5
 1322 0814 23B0A7CE 		sd	a0,-800(a5)
 205:src/Tests.cpp ****         if(addrs[i] == 0)
 1323              		.loc 1 205 9 is_stmt 1
 1324 0818 E31C05FC 		bnez	a0,.L85
 206:src/Tests.cpp ****         {
GAS LISTING /tmp/cckkWbmy.s 			page 32


 207:src/Tests.cpp ****             Riscv::printString("not OK\n");
 1325              		.loc 1 207 13
 1326              		.loc 1 207 31 is_stmt 0
 1327 081c 17050000 		lla	a0,.LC8
 1327      13050500 
 1328 0824 97000000 		call	_ZN5Riscv11printStringEPKc@plt
 1328      E7800000 
 1329              	.LVL142:
 208:src/Tests.cpp ****             return;
 1330              		.loc 1 208 13 is_stmt 1
 1331              	.L83:
 1332              	.LBE29:
 209:src/Tests.cpp ****         }
 210:src/Tests.cpp **** 
 211:src/Tests.cpp ****     }
 212:src/Tests.cpp ****     int sz = 5;
 213:src/Tests.cpp ****     while(sz > 0)
 214:src/Tests.cpp ****     {
 215:src/Tests.cpp ****         Riscv::printString("sz : ");
 216:src/Tests.cpp ****         Riscv::printInteger(sz);
 217:src/Tests.cpp ****         for(int i = 0 ; i < num;i+=2)
 218:src/Tests.cpp ****         {
 219:src/Tests.cpp ****             Riscv::printString("i : ");
 220:src/Tests.cpp ****             Riscv::printInteger(i);
 221:src/Tests.cpp ****             Riscv::printString("free\n");
 222:src/Tests.cpp ****             int retval = mem_free(addrs[i]);
 223:src/Tests.cpp ****             if(retval != 0)
 224:src/Tests.cpp ****             {
 225:src/Tests.cpp ****                 Riscv::printString("not OK\n");
 226:src/Tests.cpp ****                 return;
 227:src/Tests.cpp ****             }
 228:src/Tests.cpp ****             Riscv::printString("alloc\n");
 229:src/Tests.cpp ****             addrs[i] = mem_alloc(sz/2);
 230:src/Tests.cpp ****             if(addrs[i] == 0)
 231:src/Tests.cpp ****             {
 232:src/Tests.cpp ****                 Riscv::printString("not Ok\n");
 233:src/Tests.cpp ****                 return;
 234:src/Tests.cpp ****             }
 235:src/Tests.cpp **** 
 236:src/Tests.cpp ****         }
 237:src/Tests.cpp **** 
 238:src/Tests.cpp ****         for(int i = 1 ; i < num;i+=2)
 239:src/Tests.cpp ****         {
 240:src/Tests.cpp ****             Riscv::printString("i : ");
 241:src/Tests.cpp ****             Riscv::printInteger(i);
 242:src/Tests.cpp ****             Riscv::printString("free\n");
 243:src/Tests.cpp ****             int retval = mem_free(addrs[i]);
 244:src/Tests.cpp ****             if(retval != 0)
 245:src/Tests.cpp ****             {
 246:src/Tests.cpp ****                 Riscv::printString("not OK\n");
 247:src/Tests.cpp ****                 return;
 248:src/Tests.cpp ****             }
 249:src/Tests.cpp ****             Riscv::printString("alloc\n");
 250:src/Tests.cpp ****             addrs[i] = mem_alloc(sz);
 251:src/Tests.cpp ****             if(addrs[i] == 0)
 252:src/Tests.cpp ****             {
 253:src/Tests.cpp ****                 Riscv::printString("not Ok\n");
GAS LISTING /tmp/cckkWbmy.s 			page 33


 254:src/Tests.cpp ****                 return;
 255:src/Tests.cpp ****             }
 256:src/Tests.cpp **** 
 257:src/Tests.cpp ****         }
 258:src/Tests.cpp ****         sz-=10;
 259:src/Tests.cpp ****     }
 260:src/Tests.cpp **** 
 261:src/Tests.cpp ****     Riscv::printString("OK\n");
 262:src/Tests.cpp **** }
 1333              		.loc 1 262 1 is_stmt 0
 1334 082c 83308134 		ld	ra,840(sp)
 1335              		.cfi_remember_state
 1336              		.cfi_restore 1
 1337 0830 03340134 		ld	s0,832(sp)
 1338              		.cfi_restore 8
 1339              		.cfi_def_cfa 2, 848
 1340 0834 83348133 		ld	s1,824(sp)
 1341              		.cfi_restore 9
 1342 0838 03390133 		ld	s2,816(sp)
 1343              		.cfi_restore 18
 1344 083c 83398132 		ld	s3,808(sp)
 1345              		.cfi_restore 19
 1346 0840 13010135 		addi	sp,sp,848
 1347              		.cfi_def_cfa_offset 0
 1348 0844 67800000 		jr	ra
 1349              	.LVL143:
 1350              	.L97:
 1351              		.cfi_restore_state
 212:src/Tests.cpp ****     while(sz > 0)
 1352              		.loc 1 212 9
 1353 0848 13095000 		li	s2,5
 1354              	.LVL144:
 1355              	.L84:
 213:src/Tests.cpp ****     {
 1356              		.loc 1 213 5 is_stmt 1
 213:src/Tests.cpp ****     {
 1357              		.loc 1 213 14
 1358 084c 635E2019 		blez	s2,.L88
 1359              	.LBB30:
 215:src/Tests.cpp ****         Riscv::printInteger(sz);
 1360              		.loc 1 215 9
 215:src/Tests.cpp ****         Riscv::printInteger(sz);
 1361              		.loc 1 215 27 is_stmt 0
 1362 0850 17050000 		lla	a0,.LC14
 1362      13050500 
 1363 0858 97000000 		call	_ZN5Riscv11printStringEPKc@plt
 1363      E7800000 
 1364              	.LVL145:
 216:src/Tests.cpp ****         for(int i = 0 ; i < num;i+=2)
 1365              		.loc 1 216 9 is_stmt 1
 216:src/Tests.cpp ****         for(int i = 0 ; i < num;i+=2)
 1366              		.loc 1 216 28 is_stmt 0
 1367 0860 93090900 		mv	s3,s2
 1368 0864 13050900 		mv	a0,s2
 1369 0868 97000000 		call	_ZN5Riscv12printIntegerEm@plt
 1369      E7800000 
 1370              	.LVL146:
GAS LISTING /tmp/cckkWbmy.s 			page 34


 1371              	.LBB31:
 217:src/Tests.cpp ****         {
 1372              		.loc 1 217 17
 1373 0870 93040000 		li	s1,0
 1374              	.L92:
 1375              	.LVL147:
 217:src/Tests.cpp ****         {
 1376              		.loc 1 217 27 is_stmt 1 discriminator 1
 1377 0874 93073006 		li	a5,99
 1378 0878 63CA970A 		bgt	s1,a5,.L98
 1379              	.LBB32:
 219:src/Tests.cpp ****             Riscv::printInteger(i);
 1380              		.loc 1 219 13
 219:src/Tests.cpp ****             Riscv::printInteger(i);
 1381              		.loc 1 219 31 is_stmt 0
 1382 087c 17050000 		lla	a0,.LC2
 1382      13050500 
 1383 0884 97000000 		call	_ZN5Riscv11printStringEPKc@plt
 1383      E7800000 
 1384              	.LVL148:
 220:src/Tests.cpp ****             Riscv::printString("free\n");
 1385              		.loc 1 220 13 is_stmt 1
 220:src/Tests.cpp ****             Riscv::printString("free\n");
 1386              		.loc 1 220 32 is_stmt 0
 1387 088c 13850400 		mv	a0,s1
 1388 0890 97000000 		call	_ZN5Riscv12printIntegerEm@plt
 1388      E7800000 
 1389              	.LVL149:
 221:src/Tests.cpp ****             int retval = mem_free(addrs[i]);
 1390              		.loc 1 221 13 is_stmt 1
 221:src/Tests.cpp ****             int retval = mem_free(addrs[i]);
 1391              		.loc 1 221 31 is_stmt 0
 1392 0898 17050000 		lla	a0,.LC15
 1392      13050500 
 1393 08a0 97000000 		call	_ZN5Riscv11printStringEPKc@plt
 1393      E7800000 
 1394              	.LVL150:
 222:src/Tests.cpp ****             if(retval != 0)
 1395              		.loc 1 222 13 is_stmt 1
 222:src/Tests.cpp ****             if(retval != 0)
 1396              		.loc 1 222 34 is_stmt 0
 1397 08a8 93973400 		slli	a5,s1,3
 1398 08ac 130704FD 		addi	a4,s0,-48
 1399 08b0 B307F700 		add	a5,a4,a5
 1400 08b4 03B507CE 		ld	a0,-800(a5)
 1401 08b8 97000000 		call	mem_free@plt
 1401      E7800000 
 1402              	.LVL151:
 223:src/Tests.cpp ****             {
 1403              		.loc 1 223 13 is_stmt 1
 1404 08c0 63120504 		bnez	a0,.L100
 228:src/Tests.cpp ****             addrs[i] = mem_alloc(sz/2);
 1405              		.loc 1 228 13
 228:src/Tests.cpp ****             addrs[i] = mem_alloc(sz/2);
 1406              		.loc 1 228 31 is_stmt 0
 1407 08c4 17050000 		lla	a0,.LC16
 1407      13050500 
GAS LISTING /tmp/cckkWbmy.s 			page 35


 1408              	.LVL152:
 1409 08cc 97000000 		call	_ZN5Riscv11printStringEPKc@plt
 1409      E7800000 
 1410              	.LVL153:
 229:src/Tests.cpp ****             if(addrs[i] == 0)
 1411              		.loc 1 229 13 is_stmt 1
 229:src/Tests.cpp ****             if(addrs[i] == 0)
 1412              		.loc 1 229 36 is_stmt 0
 1413 08d4 1B55F901 		srliw	a0,s2,31
 1414 08d8 3B052501 		addw	a0,a0,s2
 229:src/Tests.cpp ****             if(addrs[i] == 0)
 1415              		.loc 1 229 33
 1416 08dc 1B551540 		sraiw	a0,a0,1
 1417 08e0 97000000 		call	mem_alloc@plt
 1417      E7800000 
 1418              	.LVL154:
 229:src/Tests.cpp ****             if(addrs[i] == 0)
 1419              		.loc 1 229 22
 1420 08e8 93973400 		slli	a5,s1,3
 1421 08ec 130704FD 		addi	a4,s0,-48
 1422 08f0 B307F700 		add	a5,a4,a5
 1423 08f4 23B0A7CE 		sd	a0,-800(a5)
 230:src/Tests.cpp ****             {
 1424              		.loc 1 230 13 is_stmt 1
 1425 08f8 63000502 		beqz	a0,.L101
 1426              	.LBE32:
 217:src/Tests.cpp ****         {
 1427              		.loc 1 217 9 discriminator 2
 217:src/Tests.cpp ****         {
 1428              		.loc 1 217 34 is_stmt 0 discriminator 2
 1429 08fc 9B842400 		addiw	s1,s1,2
 1430              	.LVL155:
 217:src/Tests.cpp ****         {
 1431              		.loc 1 217 9 discriminator 2
 1432 0900 6FF05FF7 		j	.L92
 1433              	.LVL156:
 1434              	.L100:
 1435              	.LBB33:
 225:src/Tests.cpp ****                 return;
 1436              		.loc 1 225 17 is_stmt 1
 225:src/Tests.cpp ****                 return;
 1437              		.loc 1 225 35 is_stmt 0
 1438 0904 17050000 		lla	a0,.LC8
 1438      13050500 
 1439              	.LVL157:
 1440 090c 97000000 		call	_ZN5Riscv11printStringEPKc@plt
 1440      E7800000 
 1441              	.LVL158:
 226:src/Tests.cpp ****             }
 1442              		.loc 1 226 17 is_stmt 1
 1443 0914 6FF09FF1 		j	.L83
 1444              	.L101:
 232:src/Tests.cpp ****                 return;
 1445              		.loc 1 232 17
 232:src/Tests.cpp ****                 return;
 1446              		.loc 1 232 35 is_stmt 0
 1447 0918 17050000 		lla	a0,.LC17
GAS LISTING /tmp/cckkWbmy.s 			page 36


 1447      13050500 
 1448 0920 97000000 		call	_ZN5Riscv11printStringEPKc@plt
 1448      E7800000 
 1449              	.LVL159:
 233:src/Tests.cpp ****             }
 1450              		.loc 1 233 17 is_stmt 1
 1451 0928 6FF05FF0 		j	.L83
 1452              	.L98:
 1453              	.LBE33:
 1454              	.LBE31:
 1455              	.LBB34:
 238:src/Tests.cpp ****         {
 1456              		.loc 1 238 17 is_stmt 0
 1457 092c 93041000 		li	s1,1
 1458              	.LVL160:
 1459              	.L89:
 238:src/Tests.cpp ****         {
 1460              		.loc 1 238 27 is_stmt 1 discriminator 1
 1461 0930 93073006 		li	a5,99
 1462 0934 63C6970A 		bgt	s1,a5,.L93
 1463              	.LBB35:
 240:src/Tests.cpp ****             Riscv::printInteger(i);
 1464              		.loc 1 240 13
 240:src/Tests.cpp ****             Riscv::printInteger(i);
 1465              		.loc 1 240 31 is_stmt 0
 1466 0938 17050000 		lla	a0,.LC2
 1466      13050500 
 1467 0940 97000000 		call	_ZN5Riscv11printStringEPKc@plt
 1467      E7800000 
 1468              	.LVL161:
 241:src/Tests.cpp ****             Riscv::printString("free\n");
 1469              		.loc 1 241 13 is_stmt 1
 241:src/Tests.cpp ****             Riscv::printString("free\n");
 1470              		.loc 1 241 32 is_stmt 0
 1471 0948 13850400 		mv	a0,s1
 1472 094c 97000000 		call	_ZN5Riscv12printIntegerEm@plt
 1472      E7800000 
 1473              	.LVL162:
 242:src/Tests.cpp ****             int retval = mem_free(addrs[i]);
 1474              		.loc 1 242 13 is_stmt 1
 242:src/Tests.cpp ****             int retval = mem_free(addrs[i]);
 1475              		.loc 1 242 31 is_stmt 0
 1476 0954 17050000 		lla	a0,.LC15
 1476      13050500 
 1477 095c 97000000 		call	_ZN5Riscv11printStringEPKc@plt
 1477      E7800000 
 1478              	.LVL163:
 243:src/Tests.cpp ****             if(retval != 0)
 1479              		.loc 1 243 13 is_stmt 1
 243:src/Tests.cpp ****             if(retval != 0)
 1480              		.loc 1 243 34 is_stmt 0
 1481 0964 93973400 		slli	a5,s1,3
 1482 0968 130704FD 		addi	a4,s0,-48
 1483 096c B307F700 		add	a5,a4,a5
 1484 0970 03B507CE 		ld	a0,-800(a5)
 1485 0974 97000000 		call	mem_free@plt
 1485      E7800000 
GAS LISTING /tmp/cckkWbmy.s 			page 37


 1486              	.LVL164:
 244:src/Tests.cpp ****             {
 1487              		.loc 1 244 13 is_stmt 1
 1488 097c 631E0502 		bnez	a0,.L102
 249:src/Tests.cpp ****             addrs[i] = mem_alloc(sz);
 1489              		.loc 1 249 13
 249:src/Tests.cpp ****             addrs[i] = mem_alloc(sz);
 1490              		.loc 1 249 31 is_stmt 0
 1491 0980 17050000 		lla	a0,.LC16
 1491      13050500 
 1492              	.LVL165:
 1493 0988 97000000 		call	_ZN5Riscv11printStringEPKc@plt
 1493      E7800000 
 1494              	.LVL166:
 250:src/Tests.cpp ****             if(addrs[i] == 0)
 1495              		.loc 1 250 13 is_stmt 1
 250:src/Tests.cpp ****             if(addrs[i] == 0)
 1496              		.loc 1 250 33 is_stmt 0
 1497 0990 13850900 		mv	a0,s3
 1498 0994 97000000 		call	mem_alloc@plt
 1498      E7800000 
 1499              	.LVL167:
 250:src/Tests.cpp ****             if(addrs[i] == 0)
 1500              		.loc 1 250 22
 1501 099c 93973400 		slli	a5,s1,3
 1502 09a0 130704FD 		addi	a4,s0,-48
 1503 09a4 B307F700 		add	a5,a4,a5
 1504 09a8 23B0A7CE 		sd	a0,-800(a5)
 251:src/Tests.cpp ****             {
 1505              		.loc 1 251 13 is_stmt 1
 1506 09ac 63000502 		beqz	a0,.L103
 1507              	.LBE35:
 238:src/Tests.cpp ****         {
 1508              		.loc 1 238 9 discriminator 2
 238:src/Tests.cpp ****         {
 1509              		.loc 1 238 34 is_stmt 0 discriminator 2
 1510 09b0 9B842400 		addiw	s1,s1,2
 1511              	.LVL168:
 238:src/Tests.cpp ****         {
 1512              		.loc 1 238 9 discriminator 2
 1513 09b4 6FF0DFF7 		j	.L89
 1514              	.LVL169:
 1515              	.L102:
 1516              	.LBB36:
 246:src/Tests.cpp ****                 return;
 1517              		.loc 1 246 17 is_stmt 1
 246:src/Tests.cpp ****                 return;
 1518              		.loc 1 246 35 is_stmt 0
 1519 09b8 17050000 		lla	a0,.LC8
 1519      13050500 
 1520              	.LVL170:
 1521 09c0 97000000 		call	_ZN5Riscv11printStringEPKc@plt
 1521      E7800000 
 1522              	.LVL171:
 247:src/Tests.cpp ****             }
 1523              		.loc 1 247 17 is_stmt 1
 1524 09c8 6FF05FE6 		j	.L83
GAS LISTING /tmp/cckkWbmy.s 			page 38


 1525              	.L103:
 253:src/Tests.cpp ****                 return;
 1526              		.loc 1 253 17
 253:src/Tests.cpp ****                 return;
 1527              		.loc 1 253 35 is_stmt 0
 1528 09cc 17050000 		lla	a0,.LC17
 1528      13050500 
 1529 09d4 97000000 		call	_ZN5Riscv11printStringEPKc@plt
 1529      E7800000 
 1530              	.LVL172:
 254:src/Tests.cpp ****             }
 1531              		.loc 1 254 17 is_stmt 1
 1532 09dc 6FF01FE5 		j	.L83
 1533              	.L93:
 1534              	.LBE36:
 1535              	.LBE34:
 258:src/Tests.cpp ****     }
 1536              		.loc 1 258 9
 258:src/Tests.cpp ****     }
 1537              		.loc 1 258 11 is_stmt 0
 1538 09e0 1B0969FF 		addiw	s2,s2,-10
 1539              	.LVL173:
 1540              	.LBE30:
 213:src/Tests.cpp ****     {
 1541              		.loc 1 213 5
 1542 09e4 6FF09FE6 		j	.L84
 1543              	.LVL174:
 1544              	.L88:
 261:src/Tests.cpp **** }
 1545              		.loc 1 261 5 is_stmt 1
 261:src/Tests.cpp **** }
 1546              		.loc 1 261 23 is_stmt 0
 1547 09e8 17050000 		lla	a0,.LC9
 1547      13050500 
 1548 09f0 97000000 		call	_ZN5Riscv11printStringEPKc@plt
 1548      E7800000 
 1549              	.LVL175:
 1550 09f8 6FF05FE3 		j	.L83
 1551              		.cfi_endproc
 1552              	.LFE32:
 1554              		.align	2
 1555              		.globl	_Z21memoryAllocationTestsv
 1557              	_Z21memoryAllocationTestsv:
 1558              	.LFB33:
 263:src/Tests.cpp **** 
 264:src/Tests.cpp **** void memoryAllocationTests()
 265:src/Tests.cpp **** {
 1559              		.loc 1 265 1 is_stmt 1
 1560              		.cfi_startproc
 1561 09fc 130101FF 		addi	sp,sp,-16
 1562              		.cfi_def_cfa_offset 16
 1563 0a00 23341100 		sd	ra,8(sp)
 1564 0a04 23308100 		sd	s0,0(sp)
 1565              		.cfi_offset 1, -8
 1566              		.cfi_offset 8, -16
 1567 0a08 13040101 		addi	s0,sp,16
 1568              		.cfi_def_cfa 8, 0
GAS LISTING /tmp/cckkWbmy.s 			page 39


 266:src/Tests.cpp ****     //bigMalloc();
 267:src/Tests.cpp ****     //lotOfSmallMallocs();
 268:src/Tests.cpp ****     //mallocFree();
 269:src/Tests.cpp ****     //badFree();
 270:src/Tests.cpp ****     stressTesting();
 1569              		.loc 1 270 5
 1570              		.loc 1 270 18 is_stmt 0
 1571 0a0c 97000000 		call	_Z13stressTestingv
 1571      E7800000 
 1572              	.LVL176:
 271:src/Tests.cpp **** }
 1573              		.loc 1 271 1
 1574 0a14 83308100 		ld	ra,8(sp)
 1575              		.cfi_restore 1
 1576 0a18 03340100 		ld	s0,0(sp)
 1577              		.cfi_restore 8
 1578              		.cfi_def_cfa 2, 16
 1579 0a1c 13010101 		addi	sp,sp,16
 1580              		.cfi_def_cfa_offset 0
 1581 0a20 67800000 		jr	ra
 1582              		.cfi_endproc
 1583              	.LFE33:
 1585              	.Letext0:
 1586              		.file 3 "src/../h/../lib/hw.h"
 1587              		.file 4 "src/../h/Riscv.h"
 1588              		.file 5 "src/../h/syscall_cpp.h"
 1589              		.file 6 "src/../h/Tests.h"
 1590              		.file 7 "src/../h/syscall_c.h"
 6067              		.align	3
 6070              	DW.ref.__gxx_personality_v0:
 6071 0000 00000000 		.dword	__gxx_personality_v0
 6071      00000000 
 6072              		.ident	"GCC: (Ubuntu 9.3.0-17ubuntu1~20.04) 9.3.0"
 6073              		.section	.note.GNU-stack,"",@progbits
GAS LISTING /tmp/cckkWbmy.s 			page 40


DEFINED SYMBOLS
                            *ABS*:0000000000000000 Tests.cpp
     /tmp/cckkWbmy.s:14     .text:0000000000000000 _Z4idlePv
     /tmp/cckkWbmy.s:18     .text:0000000000000000 .L0 
     /tmp/cckkWbmy.s:20     .text:0000000000000000 .L0 
     /tmp/cckkWbmy.s:21     .text:0000000000000004 .L0 
     /tmp/cckkWbmy.s:24     .text:000000000000000c .L0 
     /tmp/cckkWbmy.s:25     .text:000000000000000c .L0 
     /tmp/cckkWbmy.s:27     .text:0000000000000010 .L0 
     /tmp/cckkWbmy.s:31     .text:0000000000000010 .L0 
     /tmp/cckkWbmy.s:32     .text:0000000000000010 .L0 
     /tmp/cckkWbmy.s:33     .text:0000000000000010 .L0 
     /tmp/cckkWbmy.s:37     .text:0000000000000020 .L0 
     /tmp/cckkWbmy.s:38     .text:0000000000000020 .L0 
     /tmp/cckkWbmy.s:41     .text:0000000000000028 .L0 
     /tmp/cckkWbmy.s:42     .text:000000000000002c .L0 
     /tmp/cckkWbmy.s:59     .text:000000000000002c _Z15thread1FunctionPv
     /tmp/cckkWbmy.s:62     .text:000000000000002c .L0 
     /tmp/cckkWbmy.s:64     .text:000000000000002c .L0 
     /tmp/cckkWbmy.s:65     .text:0000000000000030 .L0 
     /tmp/cckkWbmy.s:69     .text:000000000000003c .L0 
     /tmp/cckkWbmy.s:70     .text:000000000000003c .L0 
     /tmp/cckkWbmy.s:71     .text:000000000000003c .L0 
     /tmp/cckkWbmy.s:73     .text:0000000000000040 .L0 
     /tmp/cckkWbmy.s:75     .text:0000000000000040 .L0 
     /tmp/cckkWbmy.s:76     .text:0000000000000040 .L0 
     /tmp/cckkWbmy.s:81     .text:0000000000000050 .L0 
     /tmp/cckkWbmy.s:83     .text:0000000000000050 .L0 
     /tmp/cckkWbmy.s:84     .text:0000000000000050 .L0 
     /tmp/cckkWbmy.s:89     .text:0000000000000058 .L0 
     /tmp/cckkWbmy.s:90     .text:0000000000000058 .L0 
     /tmp/cckkWbmy.s:94     .text:0000000000000060 .L0 
     /tmp/cckkWbmy.s:95     .text:0000000000000060 .L0 
     /tmp/cckkWbmy.s:99     .text:0000000000000070 .L0 
     /tmp/cckkWbmy.s:100    .text:0000000000000070 .L0 
     /tmp/cckkWbmy.s:104    .text:000000000000007c .L0 
     /tmp/cckkWbmy.s:105    .text:000000000000007c .L0 
     /tmp/cckkWbmy.s:109    .text:000000000000008c .L0 
     /tmp/cckkWbmy.s:113    .text:0000000000000090 .L0 
     /tmp/cckkWbmy.s:116    .text:0000000000000098 .L0 
     /tmp/cckkWbmy.s:117    .text:0000000000000098 .L0 
     /tmp/cckkWbmy.s:120    .text:00000000000000a0 .L0 
     /tmp/cckkWbmy.s:122    .text:00000000000000a4 .L0 
     /tmp/cckkWbmy.s:127    .text:00000000000000ac .L0 
     /tmp/cckkWbmy.s:128    .text:00000000000000b0 .L0 
     /tmp/cckkWbmy.s:130    .text:00000000000000b4 .L0 
     /tmp/cckkWbmy.s:131    .text:00000000000000b4 .L0 
     /tmp/cckkWbmy.s:133    .text:00000000000000b8 .L0 
     /tmp/cckkWbmy.s:136    .text:00000000000000bc .L0 
     /tmp/cckkWbmy.s:138    .text:00000000000000c0 .L0 
     /tmp/cckkWbmy.s:152    .text:00000000000000c0 _Z15thread2FunctionPv
     /tmp/cckkWbmy.s:155    .text:00000000000000c0 .L0 
     /tmp/cckkWbmy.s:157    .text:00000000000000c0 .L0 
     /tmp/cckkWbmy.s:158    .text:00000000000000c4 .L0 
     /tmp/cckkWbmy.s:162    .text:00000000000000d0 .L0 
     /tmp/cckkWbmy.s:163    .text:00000000000000d0 .L0 
     /tmp/cckkWbmy.s:164    .text:00000000000000d0 .L0 
GAS LISTING /tmp/cckkWbmy.s 			page 41


     /tmp/cckkWbmy.s:166    .text:00000000000000d4 .L0 
     /tmp/cckkWbmy.s:168    .text:00000000000000d4 .L0 
     /tmp/cckkWbmy.s:169    .text:00000000000000d4 .L0 
     /tmp/cckkWbmy.s:174    .text:00000000000000e4 .L0 
     /tmp/cckkWbmy.s:176    .text:00000000000000e4 .L0 
     /tmp/cckkWbmy.s:177    .text:00000000000000e4 .L0 
     /tmp/cckkWbmy.s:182    .text:00000000000000ec .L0 
     /tmp/cckkWbmy.s:183    .text:00000000000000ec .L0 
     /tmp/cckkWbmy.s:187    .text:00000000000000f4 .L0 
     /tmp/cckkWbmy.s:188    .text:00000000000000f4 .L0 
     /tmp/cckkWbmy.s:192    .text:0000000000000104 .L0 
     /tmp/cckkWbmy.s:193    .text:0000000000000104 .L0 
     /tmp/cckkWbmy.s:197    .text:0000000000000110 .L0 
     /tmp/cckkWbmy.s:198    .text:0000000000000110 .L0 
     /tmp/cckkWbmy.s:202    .text:0000000000000120 .L0 
     /tmp/cckkWbmy.s:206    .text:0000000000000124 .L0 
     /tmp/cckkWbmy.s:209    .text:000000000000012c .L0 
     /tmp/cckkWbmy.s:210    .text:000000000000012c .L0 
     /tmp/cckkWbmy.s:213    .text:0000000000000134 .L0 
     /tmp/cckkWbmy.s:215    .text:0000000000000138 .L0 
     /tmp/cckkWbmy.s:220    .text:0000000000000140 .L0 
     /tmp/cckkWbmy.s:221    .text:0000000000000144 .L0 
     /tmp/cckkWbmy.s:223    .text:0000000000000148 .L0 
     /tmp/cckkWbmy.s:224    .text:0000000000000148 .L0 
     /tmp/cckkWbmy.s:226    .text:000000000000014c .L0 
     /tmp/cckkWbmy.s:229    .text:0000000000000150 .L0 
     /tmp/cckkWbmy.s:231    .text:0000000000000154 .L0 
     /tmp/cckkWbmy.s:237    .text:0000000000000154 _Z20thread2FunctionTest2Pv
     /tmp/cckkWbmy.s:240    .text:0000000000000154 .L0 
     /tmp/cckkWbmy.s:242    .text:0000000000000154 .L0 
     /tmp/cckkWbmy.s:243    .text:0000000000000158 .L0 
     /tmp/cckkWbmy.s:247    .text:0000000000000164 .L0 
     /tmp/cckkWbmy.s:248    .text:0000000000000164 .L0 
     /tmp/cckkWbmy.s:249    .text:0000000000000164 .L0 
     /tmp/cckkWbmy.s:251    .text:0000000000000168 .L0 
     /tmp/cckkWbmy.s:253    .text:0000000000000168 .L0 
     /tmp/cckkWbmy.s:254    .text:0000000000000168 .L0 
     /tmp/cckkWbmy.s:259    .text:0000000000000178 .L0 
     /tmp/cckkWbmy.s:261    .text:0000000000000178 .L0 
     /tmp/cckkWbmy.s:262    .text:0000000000000178 .L0 
     /tmp/cckkWbmy.s:267    .text:0000000000000180 .L0 
     /tmp/cckkWbmy.s:268    .text:0000000000000180 .L0 
     /tmp/cckkWbmy.s:274    .text:0000000000000190 .L0 
     /tmp/cckkWbmy.s:275    .text:0000000000000190 .L0 
     /tmp/cckkWbmy.s:280    .text:000000000000019c .L0 
     /tmp/cckkWbmy.s:281    .text:000000000000019c .L0 
     /tmp/cckkWbmy.s:285    .text:00000000000001a4 .L0 
     /tmp/cckkWbmy.s:286    .text:00000000000001a4 .L0 
     /tmp/cckkWbmy.s:290    .text:00000000000001b4 .L0 
     /tmp/cckkWbmy.s:291    .text:00000000000001b4 .L0 
     /tmp/cckkWbmy.s:295    .text:00000000000001c0 .L0 
     /tmp/cckkWbmy.s:296    .text:00000000000001c0 .L0 
     /tmp/cckkWbmy.s:300    .text:00000000000001d0 .L0 
     /tmp/cckkWbmy.s:304    .text:00000000000001d4 .L0 
     /tmp/cckkWbmy.s:307    .text:00000000000001dc .L0 
     /tmp/cckkWbmy.s:311    .text:00000000000001e4 .L0 
     /tmp/cckkWbmy.s:315    .text:00000000000001ec .L0 
GAS LISTING /tmp/cckkWbmy.s 			page 42


     /tmp/cckkWbmy.s:318    .text:00000000000001f4 .L0 
     /tmp/cckkWbmy.s:321    .text:00000000000001fc .L0 
     /tmp/cckkWbmy.s:324    .text:0000000000000204 .L0 
     /tmp/cckkWbmy.s:326    .text:0000000000000208 .L0 
     /tmp/cckkWbmy.s:331    .text:0000000000000210 .L0 
     /tmp/cckkWbmy.s:332    .text:0000000000000214 .L0 
     /tmp/cckkWbmy.s:334    .text:0000000000000218 .L0 
     /tmp/cckkWbmy.s:335    .text:0000000000000218 .L0 
     /tmp/cckkWbmy.s:337    .text:000000000000021c .L0 
     /tmp/cckkWbmy.s:340    .text:0000000000000220 .L0 
     /tmp/cckkWbmy.s:342    .text:0000000000000224 .L0 
     /tmp/cckkWbmy.s:353    .text:0000000000000224 _Z11threadTest1v
     /tmp/cckkWbmy.s:356    .text:0000000000000224 .L0 
     /tmp/cckkWbmy.s:6070   .data.rel.local.DW.ref.__gxx_personality_v0:0000000000000000 DW.ref.__gxx_personality_v0
     /tmp/cckkWbmy.s:359    .text:0000000000000224 .L0 
     /tmp/cckkWbmy.s:360    .text:0000000000000228 .L0 
     /tmp/cckkWbmy.s:365    .text:0000000000000238 .L0 
     /tmp/cckkWbmy.s:366    .text:0000000000000238 .L0 
     /tmp/cckkWbmy.s:367    .text:0000000000000238 .L0 
     /tmp/cckkWbmy.s:368    .text:0000000000000238 .L0 
     /tmp/cckkWbmy.s:370    .text:000000000000023c .L0 
     /tmp/cckkWbmy.s:372    .text:000000000000023c .L0 
     /tmp/cckkWbmy.s:373    .text:000000000000023c .L0 
     /tmp/cckkWbmy.s:386    .text:0000000000000260 .L0 
     /tmp/cckkWbmy.s:387    .text:0000000000000260 .L0 
     /tmp/cckkWbmy.s:392    .text:000000000000026c .L0 
     /tmp/cckkWbmy.s:393    .text:000000000000026c .L0 
     /tmp/cckkWbmy.s:405    .text:0000000000000290 .L0 
     /tmp/cckkWbmy.s:406    .text:0000000000000290 .L0 
     /tmp/cckkWbmy.s:413    .text:00000000000002a0 .L0 
     /tmp/cckkWbmy.s:414    .text:00000000000002a0 .L0 
     /tmp/cckkWbmy.s:418    .text:00000000000002a8 .L0 
     /tmp/cckkWbmy.s:419    .text:00000000000002a8 .L0 
     /tmp/cckkWbmy.s:420    .text:00000000000002a8 .L0 
     /tmp/cckkWbmy.s:426    .text:00000000000002ac .L0 
     /tmp/cckkWbmy.s:427    .text:00000000000002ac .L0 
     /tmp/cckkWbmy.s:432    .text:00000000000002b0 .L0 
     /tmp/cckkWbmy.s:435    .text:00000000000002b8 .L0 
     /tmp/cckkWbmy.s:440    .text:00000000000002bc .L0 
     /tmp/cckkWbmy.s:441    .text:00000000000002bc .L0 
     /tmp/cckkWbmy.s:446    .text:00000000000002c0 .L0 
     /tmp/cckkWbmy.s:449    .text:00000000000002c8 .L0 
     /tmp/cckkWbmy.s:450    .text:00000000000002c8 .L0 
     /tmp/cckkWbmy.s:455    .text:00000000000002d8 .L0 
     /tmp/cckkWbmy.s:456    .text:00000000000002dc .L0 
     /tmp/cckkWbmy.s:457    .text:00000000000002dc .L0 
     /tmp/cckkWbmy.s:459    .text:00000000000002e0 .L0 
     /tmp/cckkWbmy.s:460    .text:00000000000002e0 .L0 
     /tmp/cckkWbmy.s:462    .text:00000000000002e4 .L0 
     /tmp/cckkWbmy.s:465    .text:00000000000002e8 .L0 
     /tmp/cckkWbmy.s:468    .text:00000000000002ec .L0 
     /tmp/cckkWbmy.s:471    .text:00000000000002f0 .L0 
     /tmp/cckkWbmy.s:474    .text:00000000000002f4 .L0 
     /tmp/cckkWbmy.s:486    .text:0000000000000310 .L0 
     /tmp/cckkWbmy.s:494    .text:0000000000000328 .L0 
     /tmp/cckkWbmy.s:536    .text:0000000000000328 _Z11threadTest2v
     /tmp/cckkWbmy.s:539    .text:0000000000000328 .L0 
GAS LISTING /tmp/cckkWbmy.s 			page 43


     /tmp/cckkWbmy.s:542    .text:0000000000000328 .L0 
     /tmp/cckkWbmy.s:543    .text:000000000000032c .L0 
     /tmp/cckkWbmy.s:548    .text:000000000000033c .L0 
     /tmp/cckkWbmy.s:549    .text:000000000000033c .L0 
     /tmp/cckkWbmy.s:550    .text:000000000000033c .L0 
     /tmp/cckkWbmy.s:551    .text:000000000000033c .L0 
     /tmp/cckkWbmy.s:553    .text:0000000000000340 .L0 
     /tmp/cckkWbmy.s:555    .text:0000000000000340 .L0 
     /tmp/cckkWbmy.s:556    .text:0000000000000340 .L0 
     /tmp/cckkWbmy.s:569    .text:0000000000000364 .L0 
     /tmp/cckkWbmy.s:570    .text:0000000000000364 .L0 
     /tmp/cckkWbmy.s:575    .text:0000000000000370 .L0 
     /tmp/cckkWbmy.s:576    .text:0000000000000370 .L0 
     /tmp/cckkWbmy.s:588    .text:0000000000000394 .L0 
     /tmp/cckkWbmy.s:589    .text:0000000000000394 .L0 
     /tmp/cckkWbmy.s:594    .text:00000000000003a0 .L0 
     /tmp/cckkWbmy.s:595    .text:00000000000003a0 .L0 
     /tmp/cckkWbmy.s:608    .text:00000000000003c4 .L0 
     /tmp/cckkWbmy.s:609    .text:00000000000003c4 .L0 
     /tmp/cckkWbmy.s:614    .text:00000000000003d0 .L0 
     /tmp/cckkWbmy.s:615    .text:00000000000003d0 .L0 
     /tmp/cckkWbmy.s:619    .text:00000000000003d8 .L0 
     /tmp/cckkWbmy.s:620    .text:00000000000003d8 .L0 
     /tmp/cckkWbmy.s:621    .text:00000000000003d8 .L0 
     /tmp/cckkWbmy.s:626    .text:00000000000003dc .L0 
     /tmp/cckkWbmy.s:627    .text:00000000000003dc .L0 
     /tmp/cckkWbmy.s:632    .text:00000000000003e0 .L0 
     /tmp/cckkWbmy.s:635    .text:00000000000003e8 .L0 
     /tmp/cckkWbmy.s:636    .text:00000000000003e8 .L0 
     /tmp/cckkWbmy.s:640    .text:00000000000003f8 .L0 
     /tmp/cckkWbmy.s:641    .text:00000000000003f8 .L0 
     /tmp/cckkWbmy.s:645    .text:0000000000000400 .L0 
     /tmp/cckkWbmy.s:646    .text:0000000000000404 .L0 
     /tmp/cckkWbmy.s:647    .text:0000000000000404 .L0 
     /tmp/cckkWbmy.s:649    .text:0000000000000408 .L0 
     /tmp/cckkWbmy.s:650    .text:0000000000000408 .L0 
     /tmp/cckkWbmy.s:652    .text:000000000000040c .L0 
     /tmp/cckkWbmy.s:655    .text:0000000000000410 .L0 
     /tmp/cckkWbmy.s:658    .text:0000000000000414 .L0 
     /tmp/cckkWbmy.s:661    .text:0000000000000418 .L0 
     /tmp/cckkWbmy.s:664    .text:000000000000041c .L0 
     /tmp/cckkWbmy.s:676    .text:0000000000000438 .L0 
     /tmp/cckkWbmy.s:688    .text:0000000000000454 .L0 
     /tmp/cckkWbmy.s:696    .text:000000000000046c .L0 
     /tmp/cckkWbmy.s:749    .text:000000000000046c _Z11threadTestsv
     /tmp/cckkWbmy.s:752    .text:000000000000046c .L0 
     /tmp/cckkWbmy.s:753    .text:000000000000046c .L0 
     /tmp/cckkWbmy.s:754    .text:0000000000000470 .L0 
     /tmp/cckkWbmy.s:757    .text:0000000000000478 .L0 
     /tmp/cckkWbmy.s:758    .text:0000000000000478 .L0 
     /tmp/cckkWbmy.s:760    .text:000000000000047c .L0 
     /tmp/cckkWbmy.s:762    .text:000000000000047c .L0 
     /tmp/cckkWbmy.s:763    .text:000000000000047c .L0 
     /tmp/cckkWbmy.s:766    .text:0000000000000484 .L0 
     /tmp/cckkWbmy.s:767    .text:0000000000000488 .L0 
     /tmp/cckkWbmy.s:769    .text:000000000000048c .L0 
     /tmp/cckkWbmy.s:770    .text:000000000000048c .L0 
GAS LISTING /tmp/cckkWbmy.s 			page 44


     /tmp/cckkWbmy.s:772    .text:0000000000000490 .L0 
     /tmp/cckkWbmy.s:774    .text:0000000000000494 .L0 
     /tmp/cckkWbmy.s:791    .text:0000000000000494 _Z10mallocFreev
     /tmp/cckkWbmy.s:794    .text:0000000000000494 .L0 
     /tmp/cckkWbmy.s:795    .text:0000000000000494 .L0 
     /tmp/cckkWbmy.s:796    .text:0000000000000498 .L0 
     /tmp/cckkWbmy.s:800    .text:00000000000004a4 .L0 
     /tmp/cckkWbmy.s:801    .text:00000000000004a4 .L0 
     /tmp/cckkWbmy.s:802    .text:00000000000004a4 .L0 
     /tmp/cckkWbmy.s:804    .text:00000000000004a8 .L0 
     /tmp/cckkWbmy.s:806    .text:00000000000004a8 .L0 
     /tmp/cckkWbmy.s:807    .text:00000000000004a8 .L0 
     /tmp/cckkWbmy.s:812    .text:00000000000004b8 .L0 
     /tmp/cckkWbmy.s:817    .text:00000000000004c0 .L0 
     /tmp/cckkWbmy.s:821    .text:00000000000004c4 .L0 
     /tmp/cckkWbmy.s:824    .text:00000000000004cc .L0 
     /tmp/cckkWbmy.s:825    .text:00000000000004cc .L0 
     /tmp/cckkWbmy.s:829    .text:00000000000004d8 .L0 
     /tmp/cckkWbmy.s:834    .text:00000000000004e8 .L0 
     /tmp/cckkWbmy.s:836    .text:00000000000004ec .L0 
     /tmp/cckkWbmy.s:837    .text:00000000000004ec .L0 
     /tmp/cckkWbmy.s:843    .text:00000000000004fc .L0 
     /tmp/cckkWbmy.s:844    .text:00000000000004fc .L0 
     /tmp/cckkWbmy.s:845    .text:0000000000000500 .L0 
     /tmp/cckkWbmy.s:846    .text:0000000000000500 .L0 
     /tmp/cckkWbmy.s:848    .text:0000000000000504 .L0 
     /tmp/cckkWbmy.s:849    .text:0000000000000504 .L0 
     /tmp/cckkWbmy.s:851    .text:0000000000000508 .L0 
     /tmp/cckkWbmy.s:853    .text:000000000000050c .L0 
     /tmp/cckkWbmy.s:857    .text:0000000000000510 .L0 
     /tmp/cckkWbmy.s:860    .text:0000000000000510 .L0 
     /tmp/cckkWbmy.s:864    .text:0000000000000514 .L0 
     /tmp/cckkWbmy.s:868    .text:000000000000051c .L0 
     /tmp/cckkWbmy.s:869    .text:000000000000051c .L0 
     /tmp/cckkWbmy.s:876    .text:0000000000000534 .L0 
     /tmp/cckkWbmy.s:879    .text:0000000000000538 .L0 
     /tmp/cckkWbmy.s:880    .text:0000000000000538 .L0 
     /tmp/cckkWbmy.s:883    .text:000000000000053c .L0 
     /tmp/cckkWbmy.s:888    .text:0000000000000540 .L0 
     /tmp/cckkWbmy.s:889    .text:0000000000000540 .L0 
     /tmp/cckkWbmy.s:894    .text:0000000000000550 .L0 
     /tmp/cckkWbmy.s:900    .text:0000000000000554 .L0 
     /tmp/cckkWbmy.s:906    .text:000000000000055c .L0 
     /tmp/cckkWbmy.s:907    .text:000000000000055c .L0 
     /tmp/cckkWbmy.s:911    .text:0000000000000560 .L0 
     /tmp/cckkWbmy.s:914    .text:0000000000000568 .L0 
     /tmp/cckkWbmy.s:915    .text:0000000000000568 .L0 
     /tmp/cckkWbmy.s:919    .text:0000000000000574 .L0 
     /tmp/cckkWbmy.s:924    .text:0000000000000584 .L0 
     /tmp/cckkWbmy.s:926    .text:0000000000000588 .L0 
     /tmp/cckkWbmy.s:927    .text:0000000000000588 .L0 
     /tmp/cckkWbmy.s:931    .text:0000000000000598 .L0 
     /tmp/cckkWbmy.s:936    .text:000000000000059c .L0 
     /tmp/cckkWbmy.s:940    .text:00000000000005a0 .L0 
     /tmp/cckkWbmy.s:944    .text:00000000000005a8 .L0 
     /tmp/cckkWbmy.s:945    .text:00000000000005a8 .L0 
     /tmp/cckkWbmy.s:952    .text:00000000000005c0 .L0 
GAS LISTING /tmp/cckkWbmy.s 			page 45


     /tmp/cckkWbmy.s:955    .text:00000000000005c4 .L0 
     /tmp/cckkWbmy.s:962    .text:00000000000005cc .L0 
     /tmp/cckkWbmy.s:963    .text:00000000000005cc .L0 
     /tmp/cckkWbmy.s:968    .text:00000000000005dc .L0 
     /tmp/cckkWbmy.s:973    .text:00000000000005e0 .L0 
     /tmp/cckkWbmy.s:974    .text:00000000000005e0 .L0 
     /tmp/cckkWbmy.s:978    .text:00000000000005f4 .L0 
     /tmp/cckkWbmy.s:989    .text:00000000000005f4 _Z9bigMallocv
     /tmp/cckkWbmy.s:992    .text:00000000000005f4 .L0 
     /tmp/cckkWbmy.s:993    .text:00000000000005f4 .L0 
     /tmp/cckkWbmy.s:994    .text:00000000000005f8 .L0 
     /tmp/cckkWbmy.s:997    .text:0000000000000600 .L0 
     /tmp/cckkWbmy.s:998    .text:0000000000000600 .L0 
     /tmp/cckkWbmy.s:1000   .text:0000000000000604 .L0 
     /tmp/cckkWbmy.s:1002   .text:0000000000000604 .L0 
     /tmp/cckkWbmy.s:1003   .text:0000000000000604 .L0 
     /tmp/cckkWbmy.s:1007   .text:0000000000000614 .L0 
     /tmp/cckkWbmy.s:1008   .text:0000000000000614 .L0 
     /tmp/cckkWbmy.s:1015   .text:0000000000000630 .L0 
     /tmp/cckkWbmy.s:1016   .text:0000000000000630 .L0 
     /tmp/cckkWbmy.s:1021   .text:000000000000063c .L0 
     /tmp/cckkWbmy.s:1023   .text:0000000000000640 .L0 
     /tmp/cckkWbmy.s:1024   .text:0000000000000640 .L0 
     /tmp/cckkWbmy.s:1030   .text:0000000000000650 .L0 
     /tmp/cckkWbmy.s:1031   .text:0000000000000654 .L0 
     /tmp/cckkWbmy.s:1032   .text:0000000000000654 .L0 
     /tmp/cckkWbmy.s:1034   .text:0000000000000658 .L0 
     /tmp/cckkWbmy.s:1035   .text:0000000000000658 .L0 
     /tmp/cckkWbmy.s:1037   .text:000000000000065c .L0 
     /tmp/cckkWbmy.s:1041   .text:0000000000000660 .L0 
     /tmp/cckkWbmy.s:1043   .text:0000000000000660 .L0 
     /tmp/cckkWbmy.s:1044   .text:0000000000000660 .L0 
     /tmp/cckkWbmy.s:1049   .text:0000000000000674 .L0 
     /tmp/cckkWbmy.s:1060   .text:0000000000000674 _Z17lotOfSmallMallocsv
     /tmp/cckkWbmy.s:1063   .text:0000000000000674 .L0 
     /tmp/cckkWbmy.s:1064   .text:0000000000000674 .L0 
     /tmp/cckkWbmy.s:1065   .text:0000000000000678 .L0 
     /tmp/cckkWbmy.s:1071   .text:000000000000068c .L0 
     /tmp/cckkWbmy.s:1072   .text:000000000000068c .L0 
     /tmp/cckkWbmy.s:1073   .text:000000000000068c .L0 
     /tmp/cckkWbmy.s:1074   .text:000000000000068c .L0 
     /tmp/cckkWbmy.s:1075   .text:000000000000068c .L0 
     /tmp/cckkWbmy.s:1077   .text:0000000000000690 .L0 
     /tmp/cckkWbmy.s:1079   .text:0000000000000690 .L0 
     /tmp/cckkWbmy.s:1080   .text:0000000000000690 .L0 
     /tmp/cckkWbmy.s:1084   .text:00000000000006a0 .L0 
     /tmp/cckkWbmy.s:1085   .text:00000000000006a0 .L0 
     /tmp/cckkWbmy.s:1086   .text:00000000000006a0 .L0 
     /tmp/cckkWbmy.s:1087   .text:00000000000006a0 .L0 
     /tmp/cckkWbmy.s:1089   .text:00000000000006a0 .L0 
     /tmp/cckkWbmy.s:1090   .text:00000000000006a0 .L0 
     /tmp/cckkWbmy.s:1093   .text:00000000000006a4 .L0 
     /tmp/cckkWbmy.s:1095   .text:00000000000006a8 .L0 
     /tmp/cckkWbmy.s:1102   .text:00000000000006b0 .L0 
     /tmp/cckkWbmy.s:1103   .text:00000000000006b0 .L0 
     /tmp/cckkWbmy.s:1106   .text:00000000000006b8 .L0 
     /tmp/cckkWbmy.s:1107   .text:00000000000006b8 .L0 
GAS LISTING /tmp/cckkWbmy.s 			page 46


     /tmp/cckkWbmy.s:1110   .text:00000000000006bc .L0 
     /tmp/cckkWbmy.s:1111   .text:00000000000006bc .L0 
     /tmp/cckkWbmy.s:1115   .text:00000000000006c0 .L0 
     /tmp/cckkWbmy.s:1119   .text:00000000000006c4 .L0 
     /tmp/cckkWbmy.s:1124   .text:00000000000006d0 .L0 
     /tmp/cckkWbmy.s:1125   .text:00000000000006d0 .L0 
     /tmp/cckkWbmy.s:1129   .text:00000000000006dc .L0 
     /tmp/cckkWbmy.s:1135   .text:00000000000006e0 .L0 
     /tmp/cckkWbmy.s:1136   .text:00000000000006e0 .L0 
     /tmp/cckkWbmy.s:1140   .text:00000000000006ec .L0 
     /tmp/cckkWbmy.s:1141   .text:00000000000006ec .L0 
     /tmp/cckkWbmy.s:1145   .text:00000000000006fc .L0 
     /tmp/cckkWbmy.s:1146   .text:00000000000006fc .L0 
     /tmp/cckkWbmy.s:1151   .text:0000000000000708 .L0 
     /tmp/cckkWbmy.s:1153   .text:000000000000070c .L0 
     /tmp/cckkWbmy.s:1154   .text:000000000000070c .L0 
     /tmp/cckkWbmy.s:1159   .text:000000000000071c .L0 
     /tmp/cckkWbmy.s:1160   .text:0000000000000720 .L0 
     /tmp/cckkWbmy.s:1161   .text:0000000000000720 .L0 
     /tmp/cckkWbmy.s:1163   .text:0000000000000724 .L0 
     /tmp/cckkWbmy.s:1164   .text:0000000000000724 .L0 
     /tmp/cckkWbmy.s:1166   .text:0000000000000728 .L0 
     /tmp/cckkWbmy.s:1169   .text:000000000000072c .L0 
     /tmp/cckkWbmy.s:1171   .text:0000000000000730 .L0 
     /tmp/cckkWbmy.s:1174   .text:0000000000000734 .L0 
     /tmp/cckkWbmy.s:1178   .text:0000000000000738 .L0 
     /tmp/cckkWbmy.s:1180   .text:0000000000000738 .L0 
     /tmp/cckkWbmy.s:1181   .text:0000000000000738 .L0 
     /tmp/cckkWbmy.s:1185   .text:000000000000074c .L0 
     /tmp/cckkWbmy.s:1196   .text:000000000000074c _Z7badFreev
     /tmp/cckkWbmy.s:1199   .text:000000000000074c .L0 
     /tmp/cckkWbmy.s:1200   .text:000000000000074c .L0 
     /tmp/cckkWbmy.s:1201   .text:0000000000000750 .L0 
     /tmp/cckkWbmy.s:1204   .text:0000000000000758 .L0 
     /tmp/cckkWbmy.s:1205   .text:0000000000000758 .L0 
     /tmp/cckkWbmy.s:1207   .text:000000000000075c .L0 
     /tmp/cckkWbmy.s:1209   .text:000000000000075c .L0 
     /tmp/cckkWbmy.s:1210   .text:000000000000075c .L0 
     /tmp/cckkWbmy.s:1214   .text:000000000000076c .L0 
     /tmp/cckkWbmy.s:1215   .text:000000000000076c .L0 
     /tmp/cckkWbmy.s:1219   .text:0000000000000778 .L0 
     /tmp/cckkWbmy.s:1220   .text:0000000000000778 .L0 
     /tmp/cckkWbmy.s:1225   .text:0000000000000784 .L0 
     /tmp/cckkWbmy.s:1227   .text:0000000000000788 .L0 
     /tmp/cckkWbmy.s:1228   .text:0000000000000788 .L0 
     /tmp/cckkWbmy.s:1234   .text:0000000000000798 .L0 
     /tmp/cckkWbmy.s:1235   .text:000000000000079c .L0 
     /tmp/cckkWbmy.s:1236   .text:000000000000079c .L0 
     /tmp/cckkWbmy.s:1238   .text:00000000000007a0 .L0 
     /tmp/cckkWbmy.s:1239   .text:00000000000007a0 .L0 
     /tmp/cckkWbmy.s:1241   .text:00000000000007a4 .L0 
     /tmp/cckkWbmy.s:1245   .text:00000000000007a8 .L0 
     /tmp/cckkWbmy.s:1247   .text:00000000000007a8 .L0 
     /tmp/cckkWbmy.s:1248   .text:00000000000007a8 .L0 
     /tmp/cckkWbmy.s:1253   .text:00000000000007b8 .L0 
     /tmp/cckkWbmy.s:1254   .text:00000000000007bc .L0 
     /tmp/cckkWbmy.s:1277   .text:00000000000007bc _Z13stressTestingv
GAS LISTING /tmp/cckkWbmy.s 			page 47


     /tmp/cckkWbmy.s:1280   .text:00000000000007bc .L0 
     /tmp/cckkWbmy.s:1281   .text:00000000000007bc .L0 
     /tmp/cckkWbmy.s:1282   .text:00000000000007c0 .L0 
     /tmp/cckkWbmy.s:1288   .text:00000000000007d4 .L0 
     /tmp/cckkWbmy.s:1289   .text:00000000000007d4 .L0 
     /tmp/cckkWbmy.s:1290   .text:00000000000007d4 .L0 
     /tmp/cckkWbmy.s:1291   .text:00000000000007d4 .L0 
     /tmp/cckkWbmy.s:1292   .text:00000000000007d4 .L0 
     /tmp/cckkWbmy.s:1294   .text:00000000000007d8 .L0 
     /tmp/cckkWbmy.s:1296   .text:00000000000007d8 .L0 
     /tmp/cckkWbmy.s:1297   .text:00000000000007d8 .L0 
     /tmp/cckkWbmy.s:1302   .text:00000000000007e8 .L0 
     /tmp/cckkWbmy.s:1307   .text:00000000000007f0 .L0 
     /tmp/cckkWbmy.s:1311   .text:00000000000007f4 .L0 
     /tmp/cckkWbmy.s:1314   .text:00000000000007fc .L0 
     /tmp/cckkWbmy.s:1315   .text:00000000000007fc .L0 
     /tmp/cckkWbmy.s:1319   .text:0000000000000808 .L0 
     /tmp/cckkWbmy.s:1324   .text:0000000000000818 .L0 
     /tmp/cckkWbmy.s:1326   .text:000000000000081c .L0 
     /tmp/cckkWbmy.s:1327   .text:000000000000081c .L0 
     /tmp/cckkWbmy.s:1333   .text:000000000000082c .L0 
     /tmp/cckkWbmy.s:1334   .text:000000000000082c .L0 
     /tmp/cckkWbmy.s:1335   .text:0000000000000830 .L0 
     /tmp/cckkWbmy.s:1336   .text:0000000000000830 .L0 
     /tmp/cckkWbmy.s:1338   .text:0000000000000834 .L0 
     /tmp/cckkWbmy.s:1339   .text:0000000000000834 .L0 
     /tmp/cckkWbmy.s:1341   .text:0000000000000838 .L0 
     /tmp/cckkWbmy.s:1343   .text:000000000000083c .L0 
     /tmp/cckkWbmy.s:1345   .text:0000000000000840 .L0 
     /tmp/cckkWbmy.s:1347   .text:0000000000000844 .L0 
     /tmp/cckkWbmy.s:1351   .text:0000000000000848 .L0 
     /tmp/cckkWbmy.s:1353   .text:0000000000000848 .L0 
     /tmp/cckkWbmy.s:1357   .text:000000000000084c .L0 
     /tmp/cckkWbmy.s:1358   .text:000000000000084c .L0 
     /tmp/cckkWbmy.s:1361   .text:0000000000000850 .L0 
     /tmp/cckkWbmy.s:1362   .text:0000000000000850 .L0 
     /tmp/cckkWbmy.s:1366   .text:0000000000000860 .L0 
     /tmp/cckkWbmy.s:1367   .text:0000000000000860 .L0 
     /tmp/cckkWbmy.s:1373   .text:0000000000000870 .L0 
     /tmp/cckkWbmy.s:1377   .text:0000000000000874 .L0 
     /tmp/cckkWbmy.s:1381   .text:000000000000087c .L0 
     /tmp/cckkWbmy.s:1382   .text:000000000000087c .L0 
     /tmp/cckkWbmy.s:1386   .text:000000000000088c .L0 
     /tmp/cckkWbmy.s:1387   .text:000000000000088c .L0 
     /tmp/cckkWbmy.s:1391   .text:0000000000000898 .L0 
     /tmp/cckkWbmy.s:1392   .text:0000000000000898 .L0 
     /tmp/cckkWbmy.s:1396   .text:00000000000008a8 .L0 
     /tmp/cckkWbmy.s:1397   .text:00000000000008a8 .L0 
     /tmp/cckkWbmy.s:1404   .text:00000000000008c0 .L0 
     /tmp/cckkWbmy.s:1406   .text:00000000000008c4 .L0 
     /tmp/cckkWbmy.s:1407   .text:00000000000008c4 .L0 
     /tmp/cckkWbmy.s:1412   .text:00000000000008d4 .L0 
     /tmp/cckkWbmy.s:1413   .text:00000000000008d4 .L0 
     /tmp/cckkWbmy.s:1416   .text:00000000000008dc .L0 
     /tmp/cckkWbmy.s:1420   .text:00000000000008e8 .L0 
     /tmp/cckkWbmy.s:1425   .text:00000000000008f8 .L0 
     /tmp/cckkWbmy.s:1428   .text:00000000000008fc .L0 
GAS LISTING /tmp/cckkWbmy.s 			page 48


     /tmp/cckkWbmy.s:1429   .text:00000000000008fc .L0 
     /tmp/cckkWbmy.s:1432   .text:0000000000000900 .L0 
     /tmp/cckkWbmy.s:1437   .text:0000000000000904 .L0 
     /tmp/cckkWbmy.s:1438   .text:0000000000000904 .L0 
     /tmp/cckkWbmy.s:1443   .text:0000000000000914 .L0 
     /tmp/cckkWbmy.s:1446   .text:0000000000000918 .L0 
     /tmp/cckkWbmy.s:1447   .text:0000000000000918 .L0 
     /tmp/cckkWbmy.s:1451   .text:0000000000000928 .L0 
     /tmp/cckkWbmy.s:1457   .text:000000000000092c .L0 
     /tmp/cckkWbmy.s:1461   .text:0000000000000930 .L0 
     /tmp/cckkWbmy.s:1465   .text:0000000000000938 .L0 
     /tmp/cckkWbmy.s:1466   .text:0000000000000938 .L0 
     /tmp/cckkWbmy.s:1470   .text:0000000000000948 .L0 
     /tmp/cckkWbmy.s:1471   .text:0000000000000948 .L0 
     /tmp/cckkWbmy.s:1475   .text:0000000000000954 .L0 
     /tmp/cckkWbmy.s:1476   .text:0000000000000954 .L0 
     /tmp/cckkWbmy.s:1480   .text:0000000000000964 .L0 
     /tmp/cckkWbmy.s:1481   .text:0000000000000964 .L0 
     /tmp/cckkWbmy.s:1488   .text:000000000000097c .L0 
     /tmp/cckkWbmy.s:1490   .text:0000000000000980 .L0 
     /tmp/cckkWbmy.s:1491   .text:0000000000000980 .L0 
     /tmp/cckkWbmy.s:1496   .text:0000000000000990 .L0 
     /tmp/cckkWbmy.s:1497   .text:0000000000000990 .L0 
     /tmp/cckkWbmy.s:1501   .text:000000000000099c .L0 
     /tmp/cckkWbmy.s:1506   .text:00000000000009ac .L0 
     /tmp/cckkWbmy.s:1509   .text:00000000000009b0 .L0 
     /tmp/cckkWbmy.s:1510   .text:00000000000009b0 .L0 
     /tmp/cckkWbmy.s:1513   .text:00000000000009b4 .L0 
     /tmp/cckkWbmy.s:1518   .text:00000000000009b8 .L0 
     /tmp/cckkWbmy.s:1519   .text:00000000000009b8 .L0 
     /tmp/cckkWbmy.s:1524   .text:00000000000009c8 .L0 
     /tmp/cckkWbmy.s:1527   .text:00000000000009cc .L0 
     /tmp/cckkWbmy.s:1528   .text:00000000000009cc .L0 
     /tmp/cckkWbmy.s:1532   .text:00000000000009dc .L0 
     /tmp/cckkWbmy.s:1537   .text:00000000000009e0 .L0 
     /tmp/cckkWbmy.s:1538   .text:00000000000009e0 .L0 
     /tmp/cckkWbmy.s:1542   .text:00000000000009e4 .L0 
     /tmp/cckkWbmy.s:1546   .text:00000000000009e8 .L0 
     /tmp/cckkWbmy.s:1547   .text:00000000000009e8 .L0 
     /tmp/cckkWbmy.s:1551   .text:00000000000009fc .L0 
     /tmp/cckkWbmy.s:1557   .text:00000000000009fc _Z21memoryAllocationTestsv
     /tmp/cckkWbmy.s:1560   .text:00000000000009fc .L0 
     /tmp/cckkWbmy.s:1561   .text:00000000000009fc .L0 
     /tmp/cckkWbmy.s:1562   .text:0000000000000a00 .L0 
     /tmp/cckkWbmy.s:1565   .text:0000000000000a08 .L0 
     /tmp/cckkWbmy.s:1566   .text:0000000000000a08 .L0 
     /tmp/cckkWbmy.s:1568   .text:0000000000000a0c .L0 
     /tmp/cckkWbmy.s:1570   .text:0000000000000a0c .L0 
     /tmp/cckkWbmy.s:1571   .text:0000000000000a0c .L0 
     /tmp/cckkWbmy.s:1574   .text:0000000000000a14 .L0 
     /tmp/cckkWbmy.s:1575   .text:0000000000000a18 .L0 
     /tmp/cckkWbmy.s:1577   .text:0000000000000a1c .L0 
     /tmp/cckkWbmy.s:1578   .text:0000000000000a1c .L0 
     /tmp/cckkWbmy.s:1580   .text:0000000000000a20 .L0 
     /tmp/cckkWbmy.s:1582   .text:0000000000000a24 .L0 
     /tmp/cckkWbmy.s:1591   .text:0000000000000a24 .L0 
     /tmp/cckkWbmy.s:8      .rodata.str1.8:0000000000000000 .LC0
GAS LISTING /tmp/cckkWbmy.s 			page 49


     /tmp/cckkWbmy.s:33     .text:0000000000000010 .L0 
     /tmp/cckkWbmy.s:47     .rodata.str1.8:0000000000000008 .LC1
     /tmp/cckkWbmy.s:76     .text:0000000000000040 .L0 
     /tmp/cckkWbmy.s:50     .rodata.str1.8:0000000000000020 .LC2
     /tmp/cckkWbmy.s:95     .text:0000000000000060 .L0 
     /tmp/cckkWbmy.s:53     .rodata.str1.8:0000000000000028 .LC3
     /tmp/cckkWbmy.s:105    .text:000000000000007c .L0 
     /tmp/cckkWbmy.s:143    .rodata.str1.8:0000000000000030 .LC4
     /tmp/cckkWbmy.s:169    .text:00000000000000d4 .L0 
     /tmp/cckkWbmy.s:146    .rodata.str1.8:0000000000000048 .LC5
     /tmp/cckkWbmy.s:188    .text:00000000000000f4 .L0 
     /tmp/cckkWbmy.s:198    .text:0000000000000110 .L0 
     /tmp/cckkWbmy.s:254    .text:0000000000000168 .L0 
     /tmp/cckkWbmy.s:286    .text:00000000000001a4 .L0 
     /tmp/cckkWbmy.s:296    .text:00000000000001c0 .L0 
     /tmp/cckkWbmy.s:380    .text:0000000000000250 .L0 
     /tmp/cckkWbmy.s:399    .text:0000000000000280 .L0 
     /tmp/cckkWbmy.s:347    .rodata.str1.8:0000000000000050 .LC6
     /tmp/cckkWbmy.s:450    .text:00000000000002c8 .L0 
     /tmp/cckkWbmy.s:563    .text:0000000000000354 .L0 
     /tmp/cckkWbmy.s:582    .text:0000000000000384 .L0 
     /tmp/cckkWbmy.s:602    .text:00000000000003b4 .L0 
     /tmp/cckkWbmy.s:636    .text:00000000000003e8 .L0 
     /tmp/cckkWbmy.s:779    .rodata.str1.8:0000000000000058 .LC7
     /tmp/cckkWbmy.s:807    .text:00000000000004a8 .L0 
     /tmp/cckkWbmy.s:782    .rodata.str1.8:0000000000000068 .LC8
     /tmp/cckkWbmy.s:837    .text:00000000000004ec .L0 
     /tmp/cckkWbmy.s:889    .text:0000000000000540 .L0 
     /tmp/cckkWbmy.s:927    .text:0000000000000588 .L0 
     /tmp/cckkWbmy.s:963    .text:00000000000005cc .L0 
     /tmp/cckkWbmy.s:785    .rodata.str1.8:0000000000000070 .LC9
     /tmp/cckkWbmy.s:974    .text:00000000000005e0 .L0 
     /tmp/cckkWbmy.s:983    .rodata.str1.8:0000000000000078 .LC10
     /tmp/cckkWbmy.s:1003   .text:0000000000000604 .L0 
     /tmp/cckkWbmy.s:1008   .text:0000000000000614 .L0 
     /tmp/cckkWbmy.s:1010   .text:0000000000000620 .L0 
     /tmp/cckkWbmy.s:1024   .text:0000000000000640 .L0 
     /tmp/cckkWbmy.s:1044   .text:0000000000000660 .L0 
     /tmp/cckkWbmy.s:1054   .rodata.str1.8:0000000000000088 .LC11
     /tmp/cckkWbmy.s:1080   .text:0000000000000690 .L0 
     /tmp/cckkWbmy.s:1141   .text:00000000000006ec .L0 
     /tmp/cckkWbmy.s:1154   .text:000000000000070c .L0 
     /tmp/cckkWbmy.s:1181   .text:0000000000000738 .L0 
     /tmp/cckkWbmy.s:1190   .rodata.str1.8:00000000000000a0 .LC12
     /tmp/cckkWbmy.s:1210   .text:000000000000075c .L0 
     /tmp/cckkWbmy.s:1228   .text:0000000000000788 .L0 
     /tmp/cckkWbmy.s:1248   .text:00000000000007a8 .L0 
     /tmp/cckkWbmy.s:1259   .rodata.str1.8:00000000000000b0 .LC13
     /tmp/cckkWbmy.s:1297   .text:00000000000007d8 .L0 
     /tmp/cckkWbmy.s:1327   .text:000000000000081c .L0 
     /tmp/cckkWbmy.s:1262   .rodata.str1.8:00000000000000c0 .LC14
     /tmp/cckkWbmy.s:1362   .text:0000000000000850 .L0 
     /tmp/cckkWbmy.s:1382   .text:000000000000087c .L0 
     /tmp/cckkWbmy.s:1265   .rodata.str1.8:00000000000000c8 .LC15
     /tmp/cckkWbmy.s:1392   .text:0000000000000898 .L0 
     /tmp/cckkWbmy.s:1268   .rodata.str1.8:00000000000000d0 .LC16
     /tmp/cckkWbmy.s:1407   .text:00000000000008c4 .L0 
GAS LISTING /tmp/cckkWbmy.s 			page 50


     /tmp/cckkWbmy.s:1438   .text:0000000000000904 .L0 
     /tmp/cckkWbmy.s:1271   .rodata.str1.8:00000000000000d8 .LC17
     /tmp/cckkWbmy.s:1447   .text:0000000000000918 .L0 
     /tmp/cckkWbmy.s:1466   .text:0000000000000938 .L0 
     /tmp/cckkWbmy.s:1476   .text:0000000000000954 .L0 
     /tmp/cckkWbmy.s:1491   .text:0000000000000980 .L0 
     /tmp/cckkWbmy.s:1519   .text:00000000000009b8 .L0 
     /tmp/cckkWbmy.s:1528   .text:00000000000009cc .L0 
     /tmp/cckkWbmy.s:1547   .text:00000000000009e8 .L0 
     /tmp/cckkWbmy.s:29     .text:0000000000000010 .L2
     /tmp/cckkWbmy.s:111    .text:0000000000000090 .L7
     /tmp/cckkWbmy.s:124    .text:00000000000000ac .L4
     /tmp/cckkWbmy.s:92     .text:0000000000000060 .L6
     /tmp/cckkWbmy.s:87     .text:0000000000000058 .L9
     /tmp/cckkWbmy.s:204    .text:0000000000000124 .L13
     /tmp/cckkWbmy.s:217    .text:0000000000000140 .L10
     /tmp/cckkWbmy.s:185    .text:00000000000000f4 .L12
     /tmp/cckkWbmy.s:180    .text:00000000000000ec .L15
     /tmp/cckkWbmy.s:302    .text:00000000000001d4 .L21
     /tmp/cckkWbmy.s:309    .text:00000000000001e4 .L18
     /tmp/cckkWbmy.s:313    .text:00000000000001ec .L19
     /tmp/cckkWbmy.s:328    .text:0000000000000210 .L16
     /tmp/cckkWbmy.s:265    .text:0000000000000180 .L23
     /tmp/cckkWbmy.s:272    .text:0000000000000190 .L24
     /tmp/cckkWbmy.s:283    .text:00000000000001a4 .L20
     /tmp/cckkWbmy.s:278    .text:000000000000019c .L25
     /tmp/cckkWbmy.s:416    .text:00000000000002a8 .L29
     /tmp/cckkWbmy.s:411    .text:00000000000002a0 .L27
     /tmp/cckkWbmy.s:617    .text:00000000000003d8 .L37
     /tmp/cckkWbmy.s:819    .text:00000000000004c4 .L52
     /tmp/cckkWbmy.s:856    .text:0000000000000510 .L60
     /tmp/cckkWbmy.s:815    .text:00000000000004c0 .L50
     /tmp/cckkWbmy.s:895    .text:0000000000000554 .L61
     /tmp/cckkWbmy.s:885    .text:0000000000000540 .L64
     /tmp/cckkWbmy.s:862    .text:0000000000000514 .L49
     /tmp/cckkWbmy.s:841    .text:00000000000004fc .L48
     /tmp/cckkWbmy.s:909    .text:0000000000000560 .L53
     /tmp/cckkWbmy.s:932    .text:000000000000059c .L62
     /tmp/cckkWbmy.s:904    .text:000000000000055c .L56
     /tmp/cckkWbmy.s:969    .text:00000000000005e0 .L57
     /tmp/cckkWbmy.s:959    .text:00000000000005cc .L65
     /tmp/cckkWbmy.s:938    .text:00000000000005a0 .L55
     /tmp/cckkWbmy.s:1040   .text:0000000000000660 .L70
     /tmp/cckkWbmy.s:1028   .text:0000000000000650 .L66
     /tmp/cckkWbmy.s:1117   .text:00000000000006c4 .L73
     /tmp/cckkWbmy.s:1131   .text:00000000000006e0 .L72
     /tmp/cckkWbmy.s:1098   .text:00000000000006b0 .L77
     /tmp/cckkWbmy.s:1177   .text:0000000000000738 .L78
     /tmp/cckkWbmy.s:1157   .text:000000000000071c .L71
     /tmp/cckkWbmy.s:1244   .text:00000000000007a8 .L80
     /tmp/cckkWbmy.s:1232   .text:0000000000000798 .L79
     /tmp/cckkWbmy.s:1309   .text:00000000000007f4 .L87
     /tmp/cckkWbmy.s:1350   .text:0000000000000848 .L97
     /tmp/cckkWbmy.s:1305   .text:00000000000007f0 .L85
     /tmp/cckkWbmy.s:1544   .text:00000000000009e8 .L88
     /tmp/cckkWbmy.s:1452   .text:000000000000092c .L98
     /tmp/cckkWbmy.s:1434   .text:0000000000000904 .L100
GAS LISTING /tmp/cckkWbmy.s 			page 51


     /tmp/cckkWbmy.s:1444   .text:0000000000000918 .L101
     /tmp/cckkWbmy.s:1374   .text:0000000000000874 .L92
     /tmp/cckkWbmy.s:1331   .text:000000000000082c .L83
     /tmp/cckkWbmy.s:1533   .text:00000000000009e0 .L93
     /tmp/cckkWbmy.s:1515   .text:00000000000009b8 .L102
     /tmp/cckkWbmy.s:1525   .text:00000000000009cc .L103
     /tmp/cckkWbmy.s:1459   .text:0000000000000930 .L89
     /tmp/cckkWbmy.s:1355   .text:000000000000084c .L84
     /tmp/cckkWbmy.s:374    .text:0000000000000240 .LEHB0
     /tmp/cckkWbmy.s:354    .text:0000000000000224 .LFB25
     /tmp/cckkWbmy.s:377    .text:0000000000000248 .LEHE0
     /tmp/cckkWbmy.s:381    .text:0000000000000258 .LEHB1
     /tmp/cckkWbmy.s:384    .text:0000000000000260 .LEHE1
     /tmp/cckkWbmy.s:470    .text:00000000000002f0 .L32
     /tmp/cckkWbmy.s:388    .text:0000000000000264 .LEHB2
     /tmp/cckkWbmy.s:396    .text:0000000000000278 .LEHE2
     /tmp/cckkWbmy.s:400    .text:0000000000000288 .LEHB3
     /tmp/cckkWbmy.s:403    .text:0000000000000290 .LEHE3
     /tmp/cckkWbmy.s:482    .text:000000000000030c .L33
     /tmp/cckkWbmy.s:407    .text:0000000000000294 .LEHB4
     /tmp/cckkWbmy.s:453    .text:00000000000002d8 .LEHE4
     /tmp/cckkWbmy.s:478    .text:0000000000000304 .LEHB5
     /tmp/cckkWbmy.s:481    .text:000000000000030c .LEHE5
     /tmp/cckkWbmy.s:490    .text:0000000000000320 .LEHB6
     /tmp/cckkWbmy.s:493    .text:0000000000000328 .LEHE6
     /tmp/cckkWbmy.s:557    .text:0000000000000344 .LEHB7
     /tmp/cckkWbmy.s:537    .text:0000000000000328 .LFB26
     /tmp/cckkWbmy.s:560    .text:000000000000034c .LEHE7
     /tmp/cckkWbmy.s:564    .text:000000000000035c .LEHB8
     /tmp/cckkWbmy.s:567    .text:0000000000000364 .LEHE8
     /tmp/cckkWbmy.s:660    .text:0000000000000418 .L41
     /tmp/cckkWbmy.s:571    .text:0000000000000368 .LEHB9
     /tmp/cckkWbmy.s:579    .text:000000000000037c .LEHE9
     /tmp/cckkWbmy.s:583    .text:000000000000038c .LEHB10
     /tmp/cckkWbmy.s:586    .text:0000000000000394 .LEHE10
     /tmp/cckkWbmy.s:672    .text:0000000000000434 .L42
     /tmp/cckkWbmy.s:590    .text:0000000000000398 .LEHB11
     /tmp/cckkWbmy.s:598    .text:00000000000003ac .LEHE11
     /tmp/cckkWbmy.s:603    .text:00000000000003bc .LEHB12
     /tmp/cckkWbmy.s:606    .text:00000000000003c4 .LEHE12
     /tmp/cckkWbmy.s:684    .text:0000000000000450 .L43
     /tmp/cckkWbmy.s:610    .text:00000000000003c8 .LEHB13
     /tmp/cckkWbmy.s:643    .text:0000000000000400 .LEHE13
     /tmp/cckkWbmy.s:668    .text:000000000000042c .LEHB14
     /tmp/cckkWbmy.s:671    .text:0000000000000434 .LEHE14
     /tmp/cckkWbmy.s:680    .text:0000000000000448 .LEHB15
     /tmp/cckkWbmy.s:683    .text:0000000000000450 .LEHE15
     /tmp/cckkWbmy.s:692    .text:0000000000000464 .LEHB16
     /tmp/cckkWbmy.s:695    .text:000000000000046c .LEHE16
     /tmp/cckkWbmy.s:4248   .debug_abbrev:0000000000000000 .Ldebug_abbrev0
     /tmp/cckkWbmy.s:5862   .debug_str:00000000000005b1 .LASF181
     /tmp/cckkWbmy.s:5826   .debug_str:0000000000000477 .LASF182
     /tmp/cckkWbmy.s:5984   .debug_str:0000000000000994 .LASF183
     /tmp/cckkWbmy.s:5      .text:0000000000000000 .Ltext0
     /tmp/cckkWbmy.s:1585   .text:0000000000000a24 .Letext0
     /tmp/cckkWbmy.s:5676   .debug_line:0000000000000000 .Ldebug_line0
     /tmp/cckkWbmy.s:5806   .debug_str:00000000000003ed .LASF0
GAS LISTING /tmp/cckkWbmy.s 			page 52


     /tmp/cckkWbmy.s:5838   .debug_str:00000000000004db .LASF1
     /tmp/cckkWbmy.s:5924   .debug_str:0000000000000807 .LASF2
     /tmp/cckkWbmy.s:5932   .debug_str:0000000000000846 .LASF4
     /tmp/cckkWbmy.s:5824   .debug_str:0000000000000465 .LASF3
     /tmp/cckkWbmy.s:5690   .debug_str:000000000000005e .LASF5
     /tmp/cckkWbmy.s:5904   .debug_str:000000000000077e .LASF6
     /tmp/cckkWbmy.s:5896   .debug_str:0000000000000741 .LASF7
     /tmp/cckkWbmy.s:5830   .debug_str:00000000000004a7 .LASF8
     /tmp/cckkWbmy.s:5786   .debug_str:0000000000000355 .LASF9
     /tmp/cckkWbmy.s:5790   .debug_str:0000000000000381 .LASF10
     /tmp/cckkWbmy.s:5736   .debug_str:00000000000001d7 .LASF11
     /tmp/cckkWbmy.s:5780   .debug_str:0000000000000335 .LASF12
     /tmp/cckkWbmy.s:5742   .debug_str:0000000000000203 .LASF13
     /tmp/cckkWbmy.s:5734   .debug_str:00000000000001c7 .LASF14
     /tmp/cckkWbmy.s:5960   .debug_str:00000000000008fd .LASF15
     /tmp/cckkWbmy.s:5770   .debug_str:00000000000002d8 .LASF16
     /tmp/cckkWbmy.s:5954   .debug_str:00000000000008c4 .LASF17
     /tmp/cckkWbmy.s:6016   .debug_str:0000000000000a92 .LASF82
     /tmp/cckkWbmy.s:5868   .debug_str:000000000000066d .LASF18
     /tmp/cckkWbmy.s:5854   .debug_str:0000000000000569 .LASF20
     /tmp/cckkWbmy.s:5768   .debug_str:00000000000002ce .LASF19
     /tmp/cckkWbmy.s:5684   .debug_str:000000000000002f .LASF21
     /tmp/cckkWbmy.s:6006   .debug_str:0000000000000a42 .LASF22
     /tmp/cckkWbmy.s:5846   .debug_str:0000000000000514 .LASF23
     /tmp/cckkWbmy.s:5818   .debug_str:000000000000043a .LASF24
     /tmp/cckkWbmy.s:5744   .debug_str:0000000000000213 .LASF25
     /tmp/cckkWbmy.s:6038   .debug_str:0000000000000b28 .LASF26
     /tmp/cckkWbmy.s:5700   .debug_str:0000000000000097 .LASF28
     /tmp/cckkWbmy.s:5902   .debug_str:0000000000000771 .LASF27
     /tmp/cckkWbmy.s:5702   .debug_str:00000000000000b2 .LASF29
     /tmp/cckkWbmy.s:5940   .debug_str:000000000000086f .LASF30
     /tmp/cckkWbmy.s:5774   .debug_str:00000000000002ff .LASF31
     /tmp/cckkWbmy.s:5810   .debug_str:000000000000040a .LASF32
     /tmp/cckkWbmy.s:6028   .debug_str:0000000000000ada .LASF33
     /tmp/cckkWbmy.s:6000   .debug_str:0000000000000a17 .LASF36
     /tmp/cckkWbmy.s:5992   .debug_str:00000000000009e2 .LASF38
     /tmp/cckkWbmy.s:5920   .debug_str:00000000000007f3 .LASF34
     /tmp/cckkWbmy.s:5882   .debug_str:00000000000006d4 .LASF35
     /tmp/cckkWbmy.s:5910   .debug_str:000000000000079f .LASF37
     /tmp/cckkWbmy.s:5912   .debug_str:00000000000007a6 .LASF39
     /tmp/cckkWbmy.s:5878   .debug_str:00000000000006b9 .LASF40
     /tmp/cckkWbmy.s:5832   .debug_str:00000000000004ba .LASF41
     /tmp/cckkWbmy.s:6030   .debug_str:0000000000000af4 .LASF42
     /tmp/cckkWbmy.s:5980   .debug_str:0000000000000976 .LASF43
     /tmp/cckkWbmy.s:5876   .debug_str:00000000000006b1 .LASF44
     /tmp/cckkWbmy.s:5880   .debug_str:00000000000006c0 .LASF45
     /tmp/cckkWbmy.s:5864   .debug_str:0000000000000653 .LASF46
     /tmp/cckkWbmy.s:5914   .debug_str:00000000000007b9 .LASF47
     /tmp/cckkWbmy.s:6058   .debug_str:0000000000000bbe .LASF48
     /tmp/cckkWbmy.s:5814   .debug_str:000000000000041d .LASF49
     /tmp/cckkWbmy.s:5958   .debug_str:00000000000008f6 .LASF50
     /tmp/cckkWbmy.s:5934   .debug_str:000000000000084d .LASF51
     /tmp/cckkWbmy.s:5936   .debug_str:0000000000000860 .LASF52
     /tmp/cckkWbmy.s:5738   .debug_str:00000000000001e6 .LASF53
     /tmp/cckkWbmy.s:5764   .debug_str:00000000000002b6 .LASF54
     /tmp/cckkWbmy.s:5800   .debug_str:00000000000003ba .LASF55
     /tmp/cckkWbmy.s:5812   .debug_str:0000000000000417 .LASF56
GAS LISTING /tmp/cckkWbmy.s 			page 53


     /tmp/cckkWbmy.s:5756   .debug_str:000000000000027f .LASF57
     /tmp/cckkWbmy.s:5692   .debug_str:0000000000000065 .LASF58
     /tmp/cckkWbmy.s:5928   .debug_str:0000000000000825 .LASF59
     /tmp/cckkWbmy.s:5922   .debug_str:00000000000007fc .LASF60
     /tmp/cckkWbmy.s:6052   .debug_str:0000000000000b91 .LASF61
     /tmp/cckkWbmy.s:6020   .debug_str:0000000000000aa9 .LASF62
     /tmp/cckkWbmy.s:6036   .debug_str:0000000000000b12 .LASF63
     /tmp/cckkWbmy.s:6014   .debug_str:0000000000000a88 .LASF64
     /tmp/cckkWbmy.s:5856   .debug_str:0000000000000581 .LASF65
     /tmp/cckkWbmy.s:5796   .debug_str:00000000000003a9 .LASF66
     /tmp/cckkWbmy.s:5804   .debug_str:00000000000003d5 .LASF67
     /tmp/cckkWbmy.s:5998   .debug_str:0000000000000a08 .LASF68
     /tmp/cckkWbmy.s:5788   .debug_str:0000000000000365 .LASF69
     /tmp/cckkWbmy.s:5900   .debug_str:000000000000075c .LASF70
     /tmp/cckkWbmy.s:5828   .debug_str:0000000000000485 .LASF71
     /tmp/cckkWbmy.s:5752   .debug_str:0000000000000265 .LASF72
     /tmp/cckkWbmy.s:5688   .debug_str:0000000000000056 .LASF73
     /tmp/cckkWbmy.s:5716   .debug_str:0000000000000132 .LASF74
     /tmp/cckkWbmy.s:5996   .debug_str:00000000000009fc .LASF75
     /tmp/cckkWbmy.s:5718   .debug_str:0000000000000141 .LASF76
     /tmp/cckkWbmy.s:5866   .debug_str:000000000000065b .LASF77
     /tmp/cckkWbmy.s:5792   .debug_str:000000000000038f .LASF78
     /tmp/cckkWbmy.s:6012   .debug_str:0000000000000a75 .LASF79
     /tmp/cckkWbmy.s:5732   .debug_str:00000000000001b3 .LASF80
     /tmp/cckkWbmy.s:5968   .debug_str:000000000000092d .LASF81
     /tmp/cckkWbmy.s:5972   .debug_str:0000000000000945 .LASF184
     /tmp/cckkWbmy.s:5730   .debug_str:00000000000001ad .LASF83
     /tmp/cckkWbmy.s:5948   .debug_str:00000000000008a2 .LASF84
     /tmp/cckkWbmy.s:5740   .debug_str:00000000000001f9 .LASF85
     /tmp/cckkWbmy.s:5722   .debug_str:0000000000000159 .LASF86
     /tmp/cckkWbmy.s:5898   .debug_str:0000000000000754 .LASF87
     /tmp/cckkWbmy.s:5834   .debug_str:00000000000004cd .LASF88
     /tmp/cckkWbmy.s:5964   .debug_str:0000000000000919 .LASF134
     /tmp/cckkWbmy.s:5798   .debug_str:00000000000003b4 .LASF89
     /tmp/cckkWbmy.s:5874   .debug_str:0000000000000699 .LASF185
     /tmp/cckkWbmy.s:5886   .debug_str:00000000000006f0 .LASF186
     /tmp/cckkWbmy.s:5836   .debug_str:00000000000004d6 .LASF90
     /tmp/cckkWbmy.s:6048   .debug_str:0000000000000b6f .LASF92
     /tmp/cckkWbmy.s:6046   .debug_str:0000000000000b69 .LASF91
     /tmp/cckkWbmy.s:5978   .debug_str:0000000000000966 .LASF93
     /tmp/cckkWbmy.s:5758   .debug_str:0000000000000291 .LASF94
     /tmp/cckkWbmy.s:5698   .debug_str:0000000000000084 .LASF95
     /tmp/cckkWbmy.s:5840   .debug_str:00000000000004ee .LASF96
     /tmp/cckkWbmy.s:5890   .debug_str:000000000000070b .LASF97
     /tmp/cckkWbmy.s:5974   .debug_str:000000000000094b .LASF98
     /tmp/cckkWbmy.s:6026   .debug_str:0000000000000acf .LASF99
     /tmp/cckkWbmy.s:5942   .debug_str:000000000000087d .LASF100
     /tmp/cckkWbmy.s:5844   .debug_str:0000000000000507 .LASF105
     /tmp/cckkWbmy.s:5848   .debug_str:0000000000000532 .LASF107
     /tmp/cckkWbmy.s:6054   .debug_str:0000000000000ba9 .LASF101
     /tmp/cckkWbmy.s:5784   .debug_str:0000000000000349 .LASF102
     /tmp/cckkWbmy.s:5808   .debug_str:00000000000003fa .LASF103
     /tmp/cckkWbmy.s:5820   .debug_str:000000000000044c .LASF104
     /tmp/cckkWbmy.s:5944   .debug_str:000000000000088e .LASF106
     /tmp/cckkWbmy.s:5754   .debug_str:000000000000026c .LASF108
     /tmp/cckkWbmy.s:5930   .debug_str:000000000000083d .LASF109
     /tmp/cckkWbmy.s:5956   .debug_str:00000000000008da .LASF110
GAS LISTING /tmp/cckkWbmy.s 			page 54


     /tmp/cckkWbmy.s:5872   .debug_str:000000000000068a .LASF111
     /tmp/cckkWbmy.s:5680   .debug_str:0000000000000010 .LASF112
     /tmp/cckkWbmy.s:6034   .debug_str:0000000000000b03 .LASF113
     /tmp/cckkWbmy.s:5894   .debug_str:0000000000000727 .LASF114
     /tmp/cckkWbmy.s:5952   .debug_str:00000000000008b6 .LASF115
     /tmp/cckkWbmy.s:5908   .debug_str:0000000000000793 .LASF116
     /tmp/cckkWbmy.s:5678   .debug_str:0000000000000000 .LASF117
     /tmp/cckkWbmy.s:6040   .debug_str:0000000000000b34 .LASF118
     /tmp/cckkWbmy.s:5860   .debug_str:00000000000005a1 .LASF119
     /tmp/cckkWbmy.s:5766   .debug_str:00000000000002bc .LASF120
     /tmp/cckkWbmy.s:6004   .debug_str:0000000000000a25 .LASF121
     /tmp/cckkWbmy.s:5724   .debug_str:0000000000000162 .LASF122
     /tmp/cckkWbmy.s:5986   .debug_str:00000000000009b7 .LASF123
     /tmp/cckkWbmy.s:5938   .debug_str:0000000000000867 .LASF142
     /tmp/cckkWbmy.s:5982   .debug_str:000000000000098a .LASF124
     /tmp/cckkWbmy.s:5892   .debug_str:000000000000071b .LASF125
     /tmp/cckkWbmy.s:5746   .debug_str:0000000000000232 .LASF126
     /tmp/cckkWbmy.s:5706   .debug_str:00000000000000e4 .LASF128
     /tmp/cckkWbmy.s:5776   .debug_str:000000000000031a .LASF127
     /tmp/cckkWbmy.s:5728   .debug_str:0000000000000181 .LASF129
     /tmp/cckkWbmy.s:6032   .debug_str:0000000000000afc .LASF187
     /tmp/cckkWbmy.s:5726   .debug_str:0000000000000170 .LASF188
     /tmp/cckkWbmy.s:5682   .debug_str:000000000000002a .LASF130
     /tmp/cckkWbmy.s:6002   .debug_str:0000000000000a20 .LASF131
     /tmp/cckkWbmy.s:5850   .debug_str:000000000000054a .LASF132
     /tmp/cckkWbmy.s:5762   .debug_str:00000000000002b0 .LASF133
     /tmp/cckkWbmy.s:5990   .debug_str:00000000000009da .LASF135
     /tmp/cckkWbmy.s:5712   .debug_str:000000000000011e .LASF136
     /tmp/cckkWbmy.s:5794   .debug_str:00000000000003a2 .LASF137
     /tmp/cckkWbmy.s:6062   .debug_str:0000000000000bd5 .LASF138
     /tmp/cckkWbmy.s:5842   .debug_str:00000000000004f4 .LASF139
     /tmp/cckkWbmy.s:5888   .debug_str:00000000000006f5 .LASF140
     /tmp/cckkWbmy.s:5976   .debug_str:0000000000000953 .LASF141
     /tmp/cckkWbmy.s:5816   .debug_str:0000000000000431 .LASF143
     /tmp/cckkWbmy.s:6060   .debug_str:0000000000000bc6 .LASF144
     /tmp/cckkWbmy.s:5994   .debug_str:00000000000009f7 .LASF145
     /tmp/cckkWbmy.s:6050   .debug_str:0000000000000b7b .LASF146
     /tmp/cckkWbmy.s:5916   .debug_str:00000000000007cd .LASF189
     /tmp/cckkWbmy.s:1558   .text:00000000000009fc .LFB33
     /tmp/cckkWbmy.s:1583   .text:0000000000000a24 .LFE33
     /tmp/cckkWbmy.s:1572   .text:0000000000000a14 .LVL176
     /tmp/cckkWbmy.s:5696   .debug_str:0000000000000076 .LASF147
     /tmp/cckkWbmy.s:5970   .debug_str:0000000000000932 .LASF148
     /tmp/cckkWbmy.s:1278   .text:00000000000007bc .LFB32
     /tmp/cckkWbmy.s:1552   .text:00000000000009fc .LFE32
     /tmp/cckkWbmy.s:5694   .debug_str:0000000000000070 .LASF149
     /tmp/cckkWbmy.s:5226   .debug_loc:0000000000000000 .LLST29
     /tmp/cckkWbmy.s:1300   .text:00000000000007e8 .LBB29
     /tmp/cckkWbmy.s:1332   .text:000000000000082c .LBE29
     /tmp/cckkWbmy.s:5237   .debug_loc:0000000000000036 .LLST30
     /tmp/cckkWbmy.s:1317   .text:0000000000000808 .LVL141
     /tmp/cckkWbmy.s:1329   .text:000000000000082c .LVL142
     /tmp/cckkWbmy.s:1371   .text:0000000000000870 .LBB31
     /tmp/cckkWbmy.s:1454   .text:000000000000092c .LBE31
     /tmp/cckkWbmy.s:5248   .debug_loc:000000000000006c .LLST31
     /tmp/cckkWbmy.s:5638   .debug_ranges:0000000000000000 .Ldebug_ranges0
     /tmp/cckkWbmy.s:5710   .debug_str:0000000000000117 .LASF150
GAS LISTING /tmp/cckkWbmy.s 			page 55


     /tmp/cckkWbmy.s:5259   .debug_loc:00000000000000a2 .LLST32
     /tmp/cckkWbmy.s:1384   .text:000000000000088c .LVL148
     /tmp/cckkWbmy.s:1389   .text:0000000000000898 .LVL149
     /tmp/cckkWbmy.s:1394   .text:00000000000008a8 .LVL150
     /tmp/cckkWbmy.s:1402   .text:00000000000008c0 .LVL151
     /tmp/cckkWbmy.s:1410   .text:00000000000008d4 .LVL153
     /tmp/cckkWbmy.s:1418   .text:00000000000008e8 .LVL154
     /tmp/cckkWbmy.s:1441   .text:0000000000000914 .LVL158
     /tmp/cckkWbmy.s:1449   .text:0000000000000928 .LVL159
     /tmp/cckkWbmy.s:1455   .text:000000000000092c .LBB34
     /tmp/cckkWbmy.s:1535   .text:00000000000009e0 .LBE34
     /tmp/cckkWbmy.s:5270   .debug_loc:00000000000000d8 .LLST33
     /tmp/cckkWbmy.s:5281   .debug_loc:000000000000010e .LLST34
     /tmp/cckkWbmy.s:1468   .text:0000000000000948 .LVL161
     /tmp/cckkWbmy.s:1473   .text:0000000000000954 .LVL162
     /tmp/cckkWbmy.s:1478   .text:0000000000000964 .LVL163
     /tmp/cckkWbmy.s:1486   .text:000000000000097c .LVL164
     /tmp/cckkWbmy.s:1494   .text:0000000000000990 .LVL166
     /tmp/cckkWbmy.s:1499   .text:000000000000099c .LVL167
     /tmp/cckkWbmy.s:1522   .text:00000000000009c8 .LVL171
     /tmp/cckkWbmy.s:1530   .text:00000000000009dc .LVL172
     /tmp/cckkWbmy.s:1299   .text:00000000000007e8 .LVL138
     /tmp/cckkWbmy.s:1364   .text:0000000000000860 .LVL145
     /tmp/cckkWbmy.s:1370   .text:0000000000000870 .LVL146
     /tmp/cckkWbmy.s:1549   .text:00000000000009f8 .LVL175
     /tmp/cckkWbmy.s:6056   .debug_str:0000000000000bb6 .LASF151
     /tmp/cckkWbmy.s:5950   .debug_str:00000000000008aa .LASF152
     /tmp/cckkWbmy.s:1197   .text:000000000000074c .LFB31
     /tmp/cckkWbmy.s:1255   .text:00000000000007bc .LFE31
     /tmp/cckkWbmy.s:5292   .debug_loc:0000000000000144 .LLST27
     /tmp/cckkWbmy.s:5305   .debug_loc:000000000000017c .LLST28
     /tmp/cckkWbmy.s:1212   .text:000000000000076c .LVL129
     /tmp/cckkWbmy.s:1217   .text:0000000000000778 .LVL130
     /tmp/cckkWbmy.s:1223   .text:0000000000000784 .LVL132
     /tmp/cckkWbmy.s:1231   .text:0000000000000798 .LVL134
     /tmp/cckkWbmy.s:1251   .text:00000000000007b8 .LVL137
     /tmp/cckkWbmy.s:5870   .debug_str:0000000000000678 .LASF153
     /tmp/cckkWbmy.s:5852   .debug_str:0000000000000552 .LASF154
     /tmp/cckkWbmy.s:1061   .text:0000000000000674 .LFB30
     /tmp/cckkWbmy.s:1186   .text:000000000000074c .LFE30
     /tmp/cckkWbmy.s:5332   .debug_loc:00000000000001c2 .LLST23
     /tmp/cckkWbmy.s:5344   .debug_loc:00000000000001f9 .LLST24
     /tmp/cckkWbmy.s:5360   .debug_loc:0000000000000243 .LLST25
     /tmp/cckkWbmy.s:5376   .debug_loc:000000000000028d .LLST26
     /tmp/cckkWbmy.s:1127   .text:00000000000006dc .LVL119
     /tmp/cckkWbmy.s:1082   .text:00000000000006a0 .LVL114
     /tmp/cckkWbmy.s:1138   .text:00000000000006ec .LVL121
     /tmp/cckkWbmy.s:1143   .text:00000000000006fc .LVL122
     /tmp/cckkWbmy.s:1156   .text:000000000000071c .LVL124
     /tmp/cckkWbmy.s:1183   .text:0000000000000748 .LVL128
     /tmp/cckkWbmy.s:5988   .debug_str:00000000000009d0 .LASF155
     /tmp/cckkWbmy.s:5906   .debug_str:0000000000000785 .LASF156
     /tmp/cckkWbmy.s:990    .text:00000000000005f4 .LFB29
     /tmp/cckkWbmy.s:1050   .text:0000000000000674 .LFE29
     /tmp/cckkWbmy.s:5387   .debug_loc:00000000000002c3 .LLST21
     /tmp/cckkWbmy.s:5400   .debug_loc:00000000000002fc .LLST22
     /tmp/cckkWbmy.s:1005   .text:0000000000000614 .LVL105
GAS LISTING /tmp/cckkWbmy.s 			page 56


     /tmp/cckkWbmy.s:1019   .text:000000000000063c .LVL108
     /tmp/cckkWbmy.s:1027   .text:0000000000000650 .LVL110
     /tmp/cckkWbmy.s:1047   .text:0000000000000670 .LVL113
     /tmp/cckkWbmy.s:5946   .debug_str:0000000000000897 .LASF157
     /tmp/cckkWbmy.s:5750   .debug_str:0000000000000255 .LASF158
     /tmp/cckkWbmy.s:792    .text:0000000000000494 .LFB28
     /tmp/cckkWbmy.s:979    .text:00000000000005f4 .LFE28
     /tmp/cckkWbmy.s:810    .text:00000000000004b8 .LBB17
     /tmp/cckkWbmy.s:842    .text:00000000000004fc .LBE17
     /tmp/cckkWbmy.s:5411   .debug_loc:0000000000000332 .LLST15
     /tmp/cckkWbmy.s:827    .text:00000000000004d8 .LVL84
     /tmp/cckkWbmy.s:839    .text:00000000000004fc .LVL85
     /tmp/cckkWbmy.s:858    .text:0000000000000510 .LBB18
     /tmp/cckkWbmy.s:897    .text:0000000000000554 .LBE18
     /tmp/cckkWbmy.s:5422   .debug_loc:0000000000000368 .LLST16
     /tmp/cckkWbmy.s:5433   .debug_loc:000000000000039e .LLST17
     /tmp/cckkWbmy.s:874    .text:0000000000000534 .LVL88
     /tmp/cckkWbmy.s:892    .text:0000000000000550 .LVL92
     /tmp/cckkWbmy.s:898    .text:0000000000000554 .LBB21
     /tmp/cckkWbmy.s:933    .text:000000000000059c .LBE21
     /tmp/cckkWbmy.s:5440   .debug_loc:00000000000003c1 .LLST18
     /tmp/cckkWbmy.s:917    .text:0000000000000574 .LVL96
     /tmp/cckkWbmy.s:929    .text:0000000000000598 .LVL97
     /tmp/cckkWbmy.s:934    .text:000000000000059c .LBB22
     /tmp/cckkWbmy.s:971    .text:00000000000005e0 .LBE22
     /tmp/cckkWbmy.s:5447   .debug_loc:00000000000003e4 .LLST19
     /tmp/cckkWbmy.s:5458   .debug_loc:000000000000041a .LLST20
     /tmp/cckkWbmy.s:950    .text:00000000000005c0 .LVL99
     /tmp/cckkWbmy.s:966    .text:00000000000005dc .LVL103
     /tmp/cckkWbmy.s:809    .text:00000000000004b8 .LVL81
     /tmp/cckkWbmy.s:976    .text:00000000000005f0 .LVL104
     /tmp/cckkWbmy.s:6010   .debug_str:0000000000000a69 .LASF159
     /tmp/cckkWbmy.s:6018   .debug_str:0000000000000a98 .LASF160
     /tmp/cckkWbmy.s:750    .text:000000000000046c .LFB27
     /tmp/cckkWbmy.s:775    .text:0000000000000494 .LFE27
     /tmp/cckkWbmy.s:764    .text:0000000000000484 .LVL80
     /tmp/cckkWbmy.s:6022   .debug_str:0000000000000ab3 .LASF161
     /tmp/cckkWbmy.s:5686   .debug_str:0000000000000045 .LASF162
     /tmp/cckkWbmy.s:697    .text:000000000000046c .LFE26
     /tmp/cckkWbmy.s:5708   .debug_str:000000000000010c .LASF163
     /tmp/cckkWbmy.s:5465   .debug_loc:000000000000043d .LLST11
     /tmp/cckkWbmy.s:5480   .debug_loc:0000000000000486 .LLST12
     /tmp/cckkWbmy.s:5487   .debug_loc:00000000000004a9 .LLST13
     /tmp/cckkWbmy.s:623    .text:00000000000003dc .LBB15
     /tmp/cckkWbmy.s:630    .text:00000000000003e0 .LBE15
     /tmp/cckkWbmy.s:5494   .debug_loc:00000000000004cc .LLST14
     /tmp/cckkWbmy.s:559    .text:000000000000034c .LVL55
     /tmp/cckkWbmy.s:566    .text:0000000000000364 .LVL56
     /tmp/cckkWbmy.s:573    .text:0000000000000370 .LVL57
     /tmp/cckkWbmy.s:578    .text:000000000000037c .LVL58
     /tmp/cckkWbmy.s:585    .text:0000000000000394 .LVL59
     /tmp/cckkWbmy.s:592    .text:00000000000003a0 .LVL60
     /tmp/cckkWbmy.s:597    .text:00000000000003ac .LVL61
     /tmp/cckkWbmy.s:605    .text:00000000000003c4 .LVL63
     /tmp/cckkWbmy.s:612    .text:00000000000003d0 .LVL64
     /tmp/cckkWbmy.s:616    .text:00000000000003d8 .LVL65
     /tmp/cckkWbmy.s:638    .text:00000000000003f8 .LVL68
GAS LISTING /tmp/cckkWbmy.s 			page 57


     /tmp/cckkWbmy.s:642    .text:0000000000000400 .LVL69
     /tmp/cckkWbmy.s:666    .text:0000000000000428 .LVL72
     /tmp/cckkWbmy.s:670    .text:0000000000000434 .LVL73
     /tmp/cckkWbmy.s:678    .text:0000000000000444 .LVL75
     /tmp/cckkWbmy.s:682    .text:0000000000000450 .LVL76
     /tmp/cckkWbmy.s:690    .text:0000000000000460 .LVL78
     /tmp/cckkWbmy.s:694    .text:000000000000046c .LVL79
     /tmp/cckkWbmy.s:5966   .debug_str:0000000000000921 .LASF164
     /tmp/cckkWbmy.s:5772   .debug_str:00000000000002ee .LASF165
     /tmp/cckkWbmy.s:495    .text:0000000000000328 .LFE25
     /tmp/cckkWbmy.s:5501   .debug_loc:00000000000004ef .LLST7
     /tmp/cckkWbmy.s:5512   .debug_loc:0000000000000525 .LLST8
     /tmp/cckkWbmy.s:422    .text:00000000000002ac .LBB11
     /tmp/cckkWbmy.s:430    .text:00000000000002b0 .LBE11
     /tmp/cckkWbmy.s:5519   .debug_loc:0000000000000548 .LLST9
     /tmp/cckkWbmy.s:437    .text:00000000000002bc .LBB13
     /tmp/cckkWbmy.s:444    .text:00000000000002c0 .LBE13
     /tmp/cckkWbmy.s:5526   .debug_loc:000000000000056b .LLST10
     /tmp/cckkWbmy.s:376    .text:0000000000000248 .LVL36
     /tmp/cckkWbmy.s:383    .text:0000000000000260 .LVL37
     /tmp/cckkWbmy.s:390    .text:000000000000026c .LVL38
     /tmp/cckkWbmy.s:395    .text:0000000000000278 .LVL39
     /tmp/cckkWbmy.s:402    .text:0000000000000290 .LVL40
     /tmp/cckkWbmy.s:409    .text:000000000000029c .LVL41
     /tmp/cckkWbmy.s:415    .text:00000000000002a8 .LVL42
     /tmp/cckkWbmy.s:452    .text:00000000000002d8 .LVL47
     /tmp/cckkWbmy.s:476    .text:0000000000000300 .LVL50
     /tmp/cckkWbmy.s:480    .text:000000000000030c .LVL51
     /tmp/cckkWbmy.s:488    .text:000000000000031c .LVL53
     /tmp/cckkWbmy.s:492    .text:0000000000000328 .LVL54
     /tmp/cckkWbmy.s:5748   .debug_str:0000000000000240 .LASF166
     /tmp/cckkWbmy.s:6042   .debug_str:0000000000000b3f .LASF167
     /tmp/cckkWbmy.s:238    .text:0000000000000154 .LFB24
     /tmp/cckkWbmy.s:343    .text:0000000000000224 .LFE24
     /tmp/cckkWbmy.s:5533   .debug_loc:000000000000058e .LLST5
     /tmp/cckkWbmy.s:260    .text:0000000000000178 .LBB10
     /tmp/cckkWbmy.s:329    .text:0000000000000210 .LBE10
     /tmp/cckkWbmy.s:5547   .debug_loc:00000000000005c7 .LLST6
     /tmp/cckkWbmy.s:270    .text:000000000000018c .LVL28
     /tmp/cckkWbmy.s:276    .text:0000000000000198 .LVL29
     /tmp/cckkWbmy.s:282    .text:00000000000001a4 .LVL30
     /tmp/cckkWbmy.s:288    .text:00000000000001b4 .LVL31
     /tmp/cckkWbmy.s:293    .text:00000000000001c0 .LVL32
     /tmp/cckkWbmy.s:298    .text:00000000000001d0 .LVL33
     /tmp/cckkWbmy.s:257    .text:0000000000000178 .LVL26
     /tmp/cckkWbmy.s:5926   .debug_str:0000000000000815 .LASF168
     /tmp/cckkWbmy.s:6008   .debug_str:0000000000000a53 .LASF169
     /tmp/cckkWbmy.s:153    .text:00000000000000c0 .LFB23
     /tmp/cckkWbmy.s:232    .text:0000000000000154 .LFE23
     /tmp/cckkWbmy.s:5559   .debug_loc:00000000000005fe .LLST3
     /tmp/cckkWbmy.s:175    .text:00000000000000e4 .LBB9
     /tmp/cckkWbmy.s:218    .text:0000000000000140 .LBE9
     /tmp/cckkWbmy.s:5573   .debug_loc:0000000000000637 .LLST4
     /tmp/cckkWbmy.s:184    .text:00000000000000f4 .LVL18
     /tmp/cckkWbmy.s:190    .text:0000000000000104 .LVL19
     /tmp/cckkWbmy.s:195    .text:0000000000000110 .LVL20
     /tmp/cckkWbmy.s:200    .text:0000000000000120 .LVL21
GAS LISTING /tmp/cckkWbmy.s 			page 58


     /tmp/cckkWbmy.s:172    .text:00000000000000e4 .LVL16
     /tmp/cckkWbmy.s:6024   .debug_str:0000000000000abf .LASF170
     /tmp/cckkWbmy.s:5760   .debug_str:000000000000029a .LASF171
     /tmp/cckkWbmy.s:60     .text:000000000000002c .LFB22
     /tmp/cckkWbmy.s:139    .text:00000000000000c0 .LFE22
     /tmp/cckkWbmy.s:5585   .debug_loc:000000000000066e .LLST1
     /tmp/cckkWbmy.s:82     .text:0000000000000050 .LBB8
     /tmp/cckkWbmy.s:125    .text:00000000000000ac .LBE8
     /tmp/cckkWbmy.s:5599   .debug_loc:00000000000006a7 .LLST2
     /tmp/cckkWbmy.s:91     .text:0000000000000060 .LVL8
     /tmp/cckkWbmy.s:97     .text:0000000000000070 .LVL9
     /tmp/cckkWbmy.s:102    .text:000000000000007c .LVL10
     /tmp/cckkWbmy.s:107    .text:000000000000008c .LVL11
     /tmp/cckkWbmy.s:79     .text:0000000000000050 .LVL6
     /tmp/cckkWbmy.s:5782   .debug_str:0000000000000344 .LASF172
     /tmp/cckkWbmy.s:5714   .debug_str:0000000000000128 .LASF173
     /tmp/cckkWbmy.s:15     .text:0000000000000000 .LFB21
     /tmp/cckkWbmy.s:43     .text:000000000000002c .LFE21
     /tmp/cckkWbmy.s:5611   .debug_loc:00000000000006de .LLST0
     /tmp/cckkWbmy.s:35     .text:0000000000000020 .LVL2
     /tmp/cckkWbmy.s:39     .text:0000000000000028 .LVL3
     /tmp/cckkWbmy.s:5720   .debug_str:0000000000000154 .LASF190
     /tmp/cckkWbmy.s:5858   .debug_str:0000000000000597 .LASF174
     /tmp/cckkWbmy.s:5802   .debug_str:00000000000003cc .LASF175
     /tmp/cckkWbmy.s:5778   .debug_str:000000000000032f .LASF176
     /tmp/cckkWbmy.s:5884   .debug_str:00000000000006e9 .LASF177
     /tmp/cckkWbmy.s:6044   .debug_str:0000000000000b5a .LASF191
     /tmp/cckkWbmy.s:5704   .debug_str:00000000000000cc .LASF192
     /tmp/cckkWbmy.s:5962   .debug_str:0000000000000909 .LASF178
     /tmp/cckkWbmy.s:5918   .debug_str:00000000000007e8 .LASF179
     /tmp/cckkWbmy.s:5822   .debug_str:0000000000000459 .LASF180
     /tmp/cckkWbmy.s:1354   .text:000000000000084c .LVL144
     /tmp/cckkWbmy.s:1539   .text:00000000000009e4 .LVL173
     /tmp/cckkWbmy.s:1543   .text:00000000000009e8 .LVL174
     /tmp/cckkWbmy.s:1304   .text:00000000000007f0 .LVL139
     /tmp/cckkWbmy.s:1349   .text:0000000000000848 .LVL143
     /tmp/cckkWbmy.s:1375   .text:0000000000000874 .LVL147
     /tmp/cckkWbmy.s:1430   .text:0000000000000900 .LVL155
     /tmp/cckkWbmy.s:1433   .text:0000000000000904 .LVL156
     /tmp/cckkWbmy.s:1458   .text:0000000000000930 .LVL160
     /tmp/cckkWbmy.s:1408   .text:00000000000008cc .LVL152
     /tmp/cckkWbmy.s:1439   .text:000000000000090c .LVL157
     /tmp/cckkWbmy.s:1511   .text:00000000000009b4 .LVL168
     /tmp/cckkWbmy.s:1514   .text:00000000000009b8 .LVL169
     /tmp/cckkWbmy.s:1492   .text:0000000000000988 .LVL165
     /tmp/cckkWbmy.s:1520   .text:00000000000009c0 .LVL170
     /tmp/cckkWbmy.s:1221   .text:000000000000077c .LVL131
     /tmp/cckkWbmy.s:1229   .text:0000000000000790 .LVL133
     /tmp/cckkWbmy.s:1243   .text:00000000000007a8 .LVL135
     /tmp/cckkWbmy.s:1249   .text:00000000000007b0 .LVL136
     /tmp/cckkWbmy.s:1097   .text:00000000000006b0 .LVL115
     /tmp/cckkWbmy.s:1148   .text:0000000000000704 .LVL123
     /tmp/cckkWbmy.s:1172   .text:0000000000000730 .LVL126
     /tmp/cckkWbmy.s:1176   .text:0000000000000738 .LVL127
     /tmp/cckkWbmy.s:1167   .text:0000000000000728 .LVL125
     /tmp/cckkWbmy.s:1116   .text:00000000000006c4 .LVL118
     /tmp/cckkWbmy.s:1130   .text:00000000000006e0 .LVL120
GAS LISTING /tmp/cckkWbmy.s 			page 59


     /tmp/cckkWbmy.s:1013   .text:0000000000000630 .LVL106
     /tmp/cckkWbmy.s:1017   .text:0000000000000634 .LVL107
     /tmp/cckkWbmy.s:1025   .text:0000000000000648 .LVL109
     /tmp/cckkWbmy.s:1039   .text:0000000000000660 .LVL111
     /tmp/cckkWbmy.s:1045   .text:0000000000000668 .LVL112
     /tmp/cckkWbmy.s:814    .text:00000000000004c0 .LVL82
     /tmp/cckkWbmy.s:855    .text:0000000000000510 .LVL86
     /tmp/cckkWbmy.s:861    .text:0000000000000514 .LVL87
     /tmp/cckkWbmy.s:881    .text:000000000000053c .LVL89
     /tmp/cckkWbmy.s:884    .text:0000000000000540 .LVL90
     /tmp/cckkWbmy.s:901    .text:0000000000000558 .LVL93
     /tmp/cckkWbmy.s:890    .text:0000000000000548 .LVL91
     /tmp/cckkWbmy.s:903    .text:000000000000055c .LVL94
     /tmp/cckkWbmy.s:937    .text:00000000000005a0 .LVL98
     /tmp/cckkWbmy.s:956    .text:00000000000005c8 .LVL100
     /tmp/cckkWbmy.s:958    .text:00000000000005cc .LVL101
     /tmp/cckkWbmy.s:964    .text:00000000000005d4 .LVL102
     /tmp/cckkWbmy.s:653    .text:000000000000040c .LVL70
     /tmp/cckkWbmy.s:674    .text:0000000000000438 .LVL74
     /tmp/cckkWbmy.s:686    .text:0000000000000454 .LVL77
     /tmp/cckkWbmy.s:600    .text:00000000000003b0 .LVL62
     /tmp/cckkWbmy.s:656    .text:0000000000000410 .LVL71
     /tmp/cckkWbmy.s:622    .text:00000000000003dc .LVL66
     /tmp/cckkWbmy.s:628    .text:00000000000003e0 .LVL67
     /tmp/cckkWbmy.s:463    .text:00000000000002e4 .LVL48
     /tmp/cckkWbmy.s:484    .text:0000000000000310 .LVL52
     /tmp/cckkWbmy.s:466    .text:00000000000002e8 .LVL49
     /tmp/cckkWbmy.s:421    .text:00000000000002ac .LVL43
     /tmp/cckkWbmy.s:428    .text:00000000000002b0 .LVL44
     /tmp/cckkWbmy.s:436    .text:00000000000002bc .LVL45
     /tmp/cckkWbmy.s:442    .text:00000000000002c0 .LVL46
     /tmp/cckkWbmy.s:241    .text:0000000000000154 .LVL24
     /tmp/cckkWbmy.s:255    .text:0000000000000170 .LVL25
     /tmp/cckkWbmy.s:264    .text:0000000000000180 .LVL27
     /tmp/cckkWbmy.s:338    .text:000000000000021c .LVL35
     /tmp/cckkWbmy.s:156    .text:00000000000000c0 .LVL14
     /tmp/cckkWbmy.s:170    .text:00000000000000dc .LVL15
     /tmp/cckkWbmy.s:179    .text:00000000000000ec .LVL17
     /tmp/cckkWbmy.s:227    .text:000000000000014c .LVL23
     /tmp/cckkWbmy.s:63     .text:000000000000002c .LVL4
     /tmp/cckkWbmy.s:77     .text:0000000000000048 .LVL5
     /tmp/cckkWbmy.s:86     .text:0000000000000058 .LVL7
     /tmp/cckkWbmy.s:134    .text:00000000000000b8 .LVL13
     /tmp/cckkWbmy.s:19     .text:0000000000000000 .LVL0
     /tmp/cckkWbmy.s:28     .text:0000000000000010 .LVL1
     /tmp/cckkWbmy.s:1592   .debug_info:0000000000000000 .Ldebug_info0
     /tmp/cckkWbmy.s:866    .text:000000000000051c .LBB19
     /tmp/cckkWbmy.s:877    .text:0000000000000538 .LBE19
     /tmp/cckkWbmy.s:886    .text:0000000000000540 .LBB20
     /tmp/cckkWbmy.s:896    .text:0000000000000554 .LBE20
     /tmp/cckkWbmy.s:942    .text:00000000000005a8 .LBB23
     /tmp/cckkWbmy.s:953    .text:00000000000005c4 .LBE23
     /tmp/cckkWbmy.s:960    .text:00000000000005cc .LBB24
     /tmp/cckkWbmy.s:970    .text:00000000000005e0 .LBE24
     /tmp/cckkWbmy.s:1088   .text:00000000000006a0 .LBB25
     /tmp/cckkWbmy.s:1091   .text:00000000000006a4 .LBE25
     /tmp/cckkWbmy.s:1099   .text:00000000000006b0 .LBB28
GAS LISTING /tmp/cckkWbmy.s 			page 60


     /tmp/cckkWbmy.s:1133   .text:00000000000006e0 .LBE28
     /tmp/cckkWbmy.s:1100   .text:00000000000006b0 .LBB26
     /tmp/cckkWbmy.s:1113   .text:00000000000006c0 .LBE26
     /tmp/cckkWbmy.s:1122   .text:00000000000006d0 .LBB27
     /tmp/cckkWbmy.s:1132   .text:00000000000006e0 .LBE27
     /tmp/cckkWbmy.s:1379   .text:000000000000087c .LBB32
     /tmp/cckkWbmy.s:1426   .text:00000000000008fc .LBE32
     /tmp/cckkWbmy.s:1435   .text:0000000000000904 .LBB33
     /tmp/cckkWbmy.s:1453   .text:000000000000092c .LBE33
     /tmp/cckkWbmy.s:1463   .text:0000000000000938 .LBB35
     /tmp/cckkWbmy.s:1507   .text:00000000000009b0 .LBE35
     /tmp/cckkWbmy.s:1516   .text:00000000000009b8 .LBB36
     /tmp/cckkWbmy.s:1534   .text:00000000000009e0 .LBE36
     /tmp/cckkWbmy.s:498    .gcc_except_table:0000000000000000 .LLSDA25
     /tmp/cckkWbmy.s:699    .gcc_except_table:000000000000005f .LLSDA26

UNDEFINED SYMBOLS
_ZN5Riscv11printStringEPKc
thread_dispatch
_ZN5Riscv12printIntegerEm
time_sleep
thread_exit
_Znwm
_ZN6ThreadC1EPFvPvES0_
_ZN6Thread5startEv
_ZdlPv
_Unwind_Resume
__gxx_personality_v0
_ZN5Riscv16enableInterruptsEv
_ZN5Riscv17disableInterruptsEv
mem_alloc
mem_free
HEAP_END_ADDR
HEAP_START_ADDR
