GAS LISTING /tmp/cckkWbmy.s 			page 1


   1              		.file	"Tests.cpp"
   2              		.option pic
   3              		.option norelax
   4              		.text
   5              	.Ltext0:
   6              		.section	.rodata.str1.8,"aMS",@progbits,1
   7              		.align	3
   8              	.LC0:
   9 0000 49646C65 		.string	"Idle\n"
   9      0A00
  10              		.text
  11              		.align	2
  12              		.globl	_Z4idlePv
  14              	_Z4idlePv:
  15              	.LFB21:
  16              		.file 1 "src/Tests.cpp"
   1:src/Tests.cpp **** //
   2:src/Tests.cpp **** // Created by os on 5/5/22.
   3:src/Tests.cpp **** //
   4:src/Tests.cpp **** 
   5:src/Tests.cpp **** #include "../h/Tests.h"
   6:src/Tests.cpp **** 
   7:src/Tests.cpp **** void idle(void* args)
   8:src/Tests.cpp **** {
  17              		.loc 1 8 1
  18              		.cfi_startproc
  19              	.LVL0:
  20 0000 130101FF 		addi	sp,sp,-16
  21              		.cfi_def_cfa_offset 16
  22 0004 23341100 		sd	ra,8(sp)
  23 0008 23308100 		sd	s0,0(sp)
  24              		.cfi_offset 1, -8
  25              		.cfi_offset 8, -16
  26 000c 13040101 		addi	s0,sp,16
  27              		.cfi_def_cfa 8, 0
  28              	.LVL1:
  29              	.L2:
   9:src/Tests.cpp ****     while(true)
  30              		.loc 1 9 5 discriminator 1
  10:src/Tests.cpp ****     {
  11:src/Tests.cpp ****         Riscv::printString("Idle\n");
  31              		.loc 1 11 9 discriminator 1
  32              		.loc 1 11 27 is_stmt 0 discriminator 1
  33 0010 17050000 		lla	a0,.LC0
  33      13050500 
  34 0018 97000000 		call	_ZN5Riscv11printStringEPKc@plt
  34      E7800000 
  35              	.LVL2:
  12:src/Tests.cpp ****         thread_dispatch();
  36              		.loc 1 12 9 is_stmt 1 discriminator 1
  37              		.loc 1 12 24 is_stmt 0 discriminator 1
  38 0020 97000000 		call	thread_dispatch@plt
  38      E7800000 
  39              	.LVL3:
   9:src/Tests.cpp ****     while(true)
  40              		.loc 1 9 5 is_stmt 1 discriminator 1
  41 0028 6FF09FFE 		j	.L2
GAS LISTING /tmp/cckkWbmy.s 			page 2


  42              		.cfi_endproc
  43              	.LFE21:
  45              		.section	.rodata.str1.8
  46 0006 0000     		.align	3
  47              	.LC1:
  48 0008 54687265 		.string	"Thread 1 started...\n"
  48      61642031 
  48      20737461 
  48      72746564 
  48      2E2E2E0A 
  49 001d 000000   		.align	3
  50              	.LC2:
  51 0020 69203A20 		.string	"i : "
  51      00
  52 0025 000000   		.align	3
  53              	.LC3:
  54 0028 0A00     		.string	"\n"
  55              		.text
  56              		.align	2
  57              		.globl	_Z15thread1FunctionPv
  59              	_Z15thread1FunctionPv:
  60              	.LFB22:
  13:src/Tests.cpp ****     }
  14:src/Tests.cpp **** }
  15:src/Tests.cpp **** 
  16:src/Tests.cpp **** void thread1Function(void* p)
  17:src/Tests.cpp **** {
  61              		.loc 1 17 1
  62              		.cfi_startproc
  63              	.LVL4:
  64 002c 130101FE 		addi	sp,sp,-32
  65              		.cfi_def_cfa_offset 32
  66 0030 233C1100 		sd	ra,24(sp)
  67 0034 23388100 		sd	s0,16(sp)
  68 0038 23349100 		sd	s1,8(sp)
  69              		.cfi_offset 1, -8
  70              		.cfi_offset 8, -16
  71              		.cfi_offset 9, -24
  72 003c 13040102 		addi	s0,sp,32
  73              		.cfi_def_cfa 8, 0
  18:src/Tests.cpp ****     Riscv::printString("Thread 1 started...\n");
  74              		.loc 1 18 5
  75              		.loc 1 18 23 is_stmt 0
  76 0040 17050000 		lla	a0,.LC1
  76      13050500 
  77              	.LVL5:
  78 0048 97000000 		call	_ZN5Riscv11printStringEPKc@plt
  78      E7800000 
  79              	.LVL6:
  19:src/Tests.cpp ****     uint64 num = 1000;
  80              		.loc 1 19 5 is_stmt 1
  20:src/Tests.cpp ****     for(uint64 i = 0; i < num;i++)
  81              		.loc 1 20 5
  82              	.LBB8:
  83              		.loc 1 20 16 is_stmt 0
  84 0050 93040000 		li	s1,0
  85 0054 6F00C003 		j	.L7
GAS LISTING /tmp/cckkWbmy.s 			page 3


  86              	.LVL7:
  87              	.L9:
  21:src/Tests.cpp ****     {
  22:src/Tests.cpp ****         if(i % 150 == 0 && i > 0)
  23:src/Tests.cpp ****             thread_dispatch();
  88              		.loc 1 23 13 is_stmt 1
  89              		.loc 1 23 28 is_stmt 0
  90 0058 97000000 		call	thread_dispatch@plt
  90      E7800000 
  91              	.LVL8:
  92              	.L6:
  24:src/Tests.cpp ****         Riscv::printString("i : ");
  93              		.loc 1 24 9 is_stmt 1 discriminator 2
  94              		.loc 1 24 27 is_stmt 0 discriminator 2
  95 0060 17050000 		lla	a0,.LC2
  95      13050500 
  96 0068 97000000 		call	_ZN5Riscv11printStringEPKc@plt
  96      E7800000 
  97              	.LVL9:
  25:src/Tests.cpp ****         Riscv::printInteger(i);
  98              		.loc 1 25 9 is_stmt 1 discriminator 2
  99              		.loc 1 25 28 is_stmt 0 discriminator 2
 100 0070 13850400 		mv	a0,s1
 101 0074 97000000 		call	_ZN5Riscv12printIntegerEm@plt
 101      E7800000 
 102              	.LVL10:
  26:src/Tests.cpp ****         Riscv::printString("\n");
 103              		.loc 1 26 9 is_stmt 1 discriminator 2
 104              		.loc 1 26 27 is_stmt 0 discriminator 2
 105 007c 17050000 		lla	a0,.LC3
 105      13050500 
 106 0084 97000000 		call	_ZN5Riscv11printStringEPKc@plt
 106      E7800000 
 107              	.LVL11:
  20:src/Tests.cpp ****     {
 108              		.loc 1 20 5 is_stmt 1 discriminator 2
 109 008c 93841400 		addi	s1,s1,1
 110              	.LVL12:
 111              	.L7:
  20:src/Tests.cpp ****     {
 112              		.loc 1 20 25 discriminator 1
 113 0090 9307703E 		li	a5,999
 114 0094 63EC9700 		bgtu	s1,a5,.L4
  22:src/Tests.cpp ****             thread_dispatch();
 115              		.loc 1 22 9
  22:src/Tests.cpp ****             thread_dispatch();
 116              		.loc 1 22 14 is_stmt 0
 117 0098 93076009 		li	a5,150
 118 009c B3F7F402 		remu	a5,s1,a5
  22:src/Tests.cpp ****             thread_dispatch();
 119              		.loc 1 22 9
 120 00a0 E39007FC 		bnez	a5,.L6
  22:src/Tests.cpp ****             thread_dispatch();
 121              		.loc 1 22 25 discriminator 1
 122 00a4 E38E04FA 		beqz	s1,.L6
 123 00a8 6FF01FFB 		j	.L9
 124              	.L4:
GAS LISTING /tmp/cckkWbmy.s 			page 4


 125              	.LBE8:
  27:src/Tests.cpp ****     }
  28:src/Tests.cpp **** }
 126              		.loc 1 28 1
 127 00ac 83308101 		ld	ra,24(sp)
 128              		.cfi_restore 1
 129 00b0 03340101 		ld	s0,16(sp)
 130              		.cfi_restore 8
 131              		.cfi_def_cfa 2, 32
 132 00b4 83348100 		ld	s1,8(sp)
 133              		.cfi_restore 9
 134              	.LVL13:
 135 00b8 13010102 		addi	sp,sp,32
 136              		.cfi_def_cfa_offset 0
 137 00bc 67800000 		jr	ra
 138              		.cfi_endproc
 139              	.LFE22:
 141              		.section	.rodata.str1.8
 142 002a 00000000 		.align	3
 142      0000
 143              	.LC4:
 144 0030 54687265 		.string	"Thread 2 started...\n"
 144      61642032 
 144      20737461 
 144      72746564 
 144      2E2E2E0A 
 145 0045 000000   		.align	3
 146              	.LC5:
 147 0048 6A203A20 		.string	"j : "
 147      00
 148              		.text
 149              		.align	2
 150              		.globl	_Z15thread2FunctionPv
 152              	_Z15thread2FunctionPv:
 153              	.LFB23:
  29:src/Tests.cpp **** 
  30:src/Tests.cpp **** void thread2Function(void* p)
  31:src/Tests.cpp **** {
 154              		.loc 1 31 1 is_stmt 1
 155              		.cfi_startproc
 156              	.LVL14:
 157 00c0 130101FE 		addi	sp,sp,-32
 158              		.cfi_def_cfa_offset 32
 159 00c4 233C1100 		sd	ra,24(sp)
 160 00c8 23388100 		sd	s0,16(sp)
 161 00cc 23349100 		sd	s1,8(sp)
 162              		.cfi_offset 1, -8
 163              		.cfi_offset 8, -16
 164              		.cfi_offset 9, -24
 165 00d0 13040102 		addi	s0,sp,32
 166              		.cfi_def_cfa 8, 0
  32:src/Tests.cpp ****     Riscv::printString("Thread 2 started...\n");
 167              		.loc 1 32 5
 168              		.loc 1 32 23 is_stmt 0
 169 00d4 17050000 		lla	a0,.LC4
 169      13050500 
 170              	.LVL15:
GAS LISTING /tmp/cckkWbmy.s 			page 5


 171 00dc 97000000 		call	_ZN5Riscv11printStringEPKc@plt
 171      E7800000 
 172              	.LVL16:
  33:src/Tests.cpp ****     uint64 num = 1000;
 173              		.loc 1 33 5 is_stmt 1
  34:src/Tests.cpp ****     for(uint64 j = 0; j < num;j++)
 174              		.loc 1 34 5
 175              	.LBB9:
 176              		.loc 1 34 16 is_stmt 0
 177 00e4 93040000 		li	s1,0
 178 00e8 6F00C003 		j	.L13
 179              	.LVL17:
 180              	.L15:
  35:src/Tests.cpp ****     {
  36:src/Tests.cpp ****         if(j % 50 == 0 && j > 0)
  37:src/Tests.cpp ****             thread_dispatch();
 181              		.loc 1 37 13 is_stmt 1
 182              		.loc 1 37 28 is_stmt 0
 183 00ec 97000000 		call	thread_dispatch@plt
 183      E7800000 
 184              	.LVL18:
 185              	.L12:
  38:src/Tests.cpp ****         Riscv::printString("j : ");
 186              		.loc 1 38 9 is_stmt 1 discriminator 2
 187              		.loc 1 38 27 is_stmt 0 discriminator 2
 188 00f4 17050000 		lla	a0,.LC5
 188      13050500 
 189 00fc 97000000 		call	_ZN5Riscv11printStringEPKc@plt
 189      E7800000 
 190              	.LVL19:
  39:src/Tests.cpp ****         Riscv::printInteger(j);
 191              		.loc 1 39 9 is_stmt 1 discriminator 2
 192              		.loc 1 39 28 is_stmt 0 discriminator 2
 193 0104 13850400 		mv	a0,s1
 194 0108 97000000 		call	_ZN5Riscv12printIntegerEm@plt
 194      E7800000 
 195              	.LVL20:
  40:src/Tests.cpp ****         Riscv::printString("\n");
 196              		.loc 1 40 9 is_stmt 1 discriminator 2
 197              		.loc 1 40 27 is_stmt 0 discriminator 2
 198 0110 17050000 		lla	a0,.LC3
 198      13050500 
 199 0118 97000000 		call	_ZN5Riscv11printStringEPKc@plt
 199      E7800000 
 200              	.LVL21:
  34:src/Tests.cpp ****     {
 201              		.loc 1 34 5 is_stmt 1 discriminator 2
 202 0120 93841400 		addi	s1,s1,1
 203              	.LVL22:
 204              	.L13:
  34:src/Tests.cpp ****     {
 205              		.loc 1 34 25 discriminator 1
 206 0124 9307703E 		li	a5,999
 207 0128 63EC9700 		bgtu	s1,a5,.L10
  36:src/Tests.cpp ****             thread_dispatch();
 208              		.loc 1 36 9
  36:src/Tests.cpp ****             thread_dispatch();
GAS LISTING /tmp/cckkWbmy.s 			page 6


 209              		.loc 1 36 14 is_stmt 0
 210 012c 93072003 		li	a5,50
 211 0130 B3F7F402 		remu	a5,s1,a5
  36:src/Tests.cpp ****             thread_dispatch();
 212              		.loc 1 36 9
 213 0134 E39007FC 		bnez	a5,.L12
  36:src/Tests.cpp ****             thread_dispatch();
 214              		.loc 1 36 24 discriminator 1
 215 0138 E38E04FA 		beqz	s1,.L12
 216 013c 6FF01FFB 		j	.L15
 217              	.L10:
 218              	.LBE9:
  41:src/Tests.cpp ****     }
  42:src/Tests.cpp **** }
 219              		.loc 1 42 1
 220 0140 83308101 		ld	ra,24(sp)
 221              		.cfi_restore 1
 222 0144 03340101 		ld	s0,16(sp)
 223              		.cfi_restore 8
 224              		.cfi_def_cfa 2, 32
 225 0148 83348100 		ld	s1,8(sp)
 226              		.cfi_restore 9
 227              	.LVL23:
 228 014c 13010102 		addi	sp,sp,32
 229              		.cfi_def_cfa_offset 0
 230 0150 67800000 		jr	ra
 231              		.cfi_endproc
 232              	.LFE23:
 234              		.align	2
 235              		.globl	_Z20thread2FunctionTest2Pv
 237              	_Z20thread2FunctionTest2Pv:
 238              	.LFB24:
  43:src/Tests.cpp **** 
  44:src/Tests.cpp **** void thread2FunctionTest2(void* p)
  45:src/Tests.cpp **** {
 239              		.loc 1 45 1 is_stmt 1
 240              		.cfi_startproc
 241              	.LVL24:
 242 0154 130101FE 		addi	sp,sp,-32
 243              		.cfi_def_cfa_offset 32
 244 0158 233C1100 		sd	ra,24(sp)
 245 015c 23388100 		sd	s0,16(sp)
 246 0160 23349100 		sd	s1,8(sp)
 247              		.cfi_offset 1, -8
 248              		.cfi_offset 8, -16
 249              		.cfi_offset 9, -24
 250 0164 13040102 		addi	s0,sp,32
 251              		.cfi_def_cfa 8, 0
  46:src/Tests.cpp ****     Riscv::printString("Thread 2 started...\n");
 252              		.loc 1 46 5
 253              		.loc 1 46 23 is_stmt 0
 254 0168 17050000 		lla	a0,.LC4
 254      13050500 
 255              	.LVL25:
 256 0170 97000000 		call	_ZN5Riscv11printStringEPKc@plt
 256      E7800000 
 257              	.LVL26:
GAS LISTING /tmp/cckkWbmy.s 			page 7


  47:src/Tests.cpp ****     uint64 num = 1000;
 258              		.loc 1 47 5 is_stmt 1
  48:src/Tests.cpp ****     for(uint64 j = 0; j < num;j++)
 259              		.loc 1 48 5
 260              	.LBB10:
 261              		.loc 1 48 16 is_stmt 0
 262 0178 93040000 		li	s1,0
 263 017c 6F008005 		j	.L21
 264              	.LVL27:
 265              	.L23:
  49:src/Tests.cpp ****     {
  50:src/Tests.cpp ****         if(j == 100)
  51:src/Tests.cpp ****             time_sleep(1000);
 266              		.loc 1 51 13 is_stmt 1
 267              		.loc 1 51 23 is_stmt 0
 268 0180 1305803E 		li	a0,1000
 269 0184 97000000 		call	time_sleep@plt
 269      E7800000 
 270              	.LVL28:
 271 018c 6F008005 		j	.L18
 272              	.L24:
  52:src/Tests.cpp ****         if(j == 200)
  53:src/Tests.cpp ****             thread_exit();
 273              		.loc 1 53 13 is_stmt 1
 274              		.loc 1 53 24 is_stmt 0
 275 0190 97000000 		call	thread_exit@plt
 275      E7800000 
 276              	.LVL29:
 277 0198 6F004005 		j	.L19
 278              	.L25:
  54:src/Tests.cpp ****         if(j!=100 && j!= 200 && j % 50 == 0 && j > 0)
  55:src/Tests.cpp ****             thread_dispatch();
 279              		.loc 1 55 13 is_stmt 1
 280              		.loc 1 55 28 is_stmt 0
 281 019c 97000000 		call	thread_dispatch@plt
 281      E7800000 
 282              	.LVL30:
 283              	.L20:
  56:src/Tests.cpp ****         Riscv::printString("j : ");
 284              		.loc 1 56 9 is_stmt 1 discriminator 2
 285              		.loc 1 56 27 is_stmt 0 discriminator 2
 286 01a4 17050000 		lla	a0,.LC5
 286      13050500 
 287 01ac 97000000 		call	_ZN5Riscv11printStringEPKc@plt
 287      E7800000 
 288              	.LVL31:
  57:src/Tests.cpp ****         Riscv::printInteger(j);
 289              		.loc 1 57 9 is_stmt 1 discriminator 2
 290              		.loc 1 57 28 is_stmt 0 discriminator 2
 291 01b4 13850400 		mv	a0,s1
 292 01b8 97000000 		call	_ZN5Riscv12printIntegerEm@plt
 292      E7800000 
 293              	.LVL32:
  58:src/Tests.cpp ****         Riscv::printString("\n");
 294              		.loc 1 58 9 is_stmt 1 discriminator 2
 295              		.loc 1 58 27 is_stmt 0 discriminator 2
 296 01c0 17050000 		lla	a0,.LC3
GAS LISTING /tmp/cckkWbmy.s 			page 8


 296      13050500 
 297 01c8 97000000 		call	_ZN5Riscv11printStringEPKc@plt
 297      E7800000 
 298              	.LVL33:
  48:src/Tests.cpp ****     {
 299              		.loc 1 48 5 is_stmt 1 discriminator 2
 300 01d0 93841400 		addi	s1,s1,1
 301              	.LVL34:
 302              	.L21:
  48:src/Tests.cpp ****     {
 303              		.loc 1 48 25 discriminator 1
 304 01d4 9307703E 		li	a5,999
 305 01d8 63EC9702 		bgtu	s1,a5,.L16
  50:src/Tests.cpp ****             time_sleep(1000);
 306              		.loc 1 50 9
 307 01dc 93074006 		li	a5,100
 308 01e0 E380F4FA 		beq	s1,a5,.L23
 309              	.L18:
  52:src/Tests.cpp ****             thread_exit();
 310              		.loc 1 52 9
 311 01e4 9307800C 		li	a5,200
 312 01e8 E384F4FA 		beq	s1,a5,.L24
 313              	.L19:
  54:src/Tests.cpp ****             thread_dispatch();
 314              		.loc 1 54 9
 315 01ec 93074006 		li	a5,100
 316 01f0 E38AF4FA 		beq	s1,a5,.L20
  54:src/Tests.cpp ****             thread_dispatch();
 317              		.loc 1 54 19 is_stmt 0 discriminator 1
 318 01f4 9307800C 		li	a5,200
 319 01f8 E386F4FA 		beq	s1,a5,.L20
  54:src/Tests.cpp ****             thread_dispatch();
 320              		.loc 1 54 35 discriminator 2
 321 01fc 93072003 		li	a5,50
 322 0200 B3F7F402 		remu	a5,s1,a5
  54:src/Tests.cpp ****             thread_dispatch();
 323              		.loc 1 54 30 discriminator 2
 324 0204 E39007FA 		bnez	a5,.L20
  54:src/Tests.cpp ****             thread_dispatch();
 325              		.loc 1 54 45 discriminator 3
 326 0208 E38E04F8 		beqz	s1,.L20
 327 020c 6FF01FF9 		j	.L25
 328              	.L16:
 329              	.LBE10:
  59:src/Tests.cpp ****     }
  60:src/Tests.cpp **** }
 330              		.loc 1 60 1
 331 0210 83308101 		ld	ra,24(sp)
 332              		.cfi_restore 1
 333 0214 03340101 		ld	s0,16(sp)
 334              		.cfi_restore 8
 335              		.cfi_def_cfa 2, 32
 336 0218 83348100 		ld	s1,8(sp)
 337              		.cfi_restore 9
 338              	.LVL35:
 339 021c 13010102 		addi	sp,sp,32
 340              		.cfi_def_cfa_offset 0
GAS LISTING /tmp/cckkWbmy.s 			page 9


 341 0220 67800000 		jr	ra
 342              		.cfi_endproc
 343              	.LFE24:
 345              		.section	.rodata.str1.8
 346 004d 000000   		.align	3
 347              	.LC6:
 348 0050 456E642E 		.string	"End...\n"
 348      2E2E0A00 
 349              		.text
 350              		.align	2
 351              		.globl	_Z11threadTest1v
 353              	_Z11threadTest1v:
 354              	.LFB25:
  61:src/Tests.cpp **** 
  62:src/Tests.cpp **** 
  63:src/Tests.cpp **** void threadTest1()
  64:src/Tests.cpp **** {
 355              		.loc 1 64 1 is_stmt 1
 356              		.cfi_startproc
 357              		.cfi_personality 0x9b,DW.ref.__gxx_personality_v0
 358              		.cfi_lsda 0x1b,.LLSDA25
 359 0224 130101FE 		addi	sp,sp,-32
 360              		.cfi_def_cfa_offset 32
 361 0228 233C1100 		sd	ra,24(sp)
 362 022c 23388100 		sd	s0,16(sp)
 363 0230 23349100 		sd	s1,8(sp)
 364 0234 23302101 		sd	s2,0(sp)
 365              		.cfi_offset 1, -8
 366              		.cfi_offset 8, -16
 367              		.cfi_offset 9, -24
 368              		.cfi_offset 18, -32
 369 0238 13040102 		addi	s0,sp,32
 370              		.cfi_def_cfa 8, 0
  65:src/Tests.cpp ****     Thread* t1 = new Thread(&thread1Function, 0);
 371              		.loc 1 65 5
 372              		.loc 1 65 48 is_stmt 0
 373 023c 13058001 		li	a0,24
 374              	.LEHB0:
 375 0240 97000000 		call	_Znwm@plt
 375      E7800000 
 376              	.LVL36:
 377              	.LEHE0:
 378 0248 93040500 		mv	s1,a0
 379 024c 13060000 		li	a2,0
 380 0250 97050000 		lla	a1,_Z15thread1FunctionPv
 380      93850500 
 381              	.LEHB1:
 382 0258 97000000 		call	_ZN6ThreadC1EPFvPvES0_@plt
 382      E7800000 
 383              	.LVL37:
 384              	.LEHE1:
  66:src/Tests.cpp ****     t1->start();
 385              		.loc 1 66 5 is_stmt 1 discriminator 2
 386              		.loc 1 66 14 is_stmt 0 discriminator 2
 387 0260 13850400 		mv	a0,s1
 388              	.LEHB2:
 389 0264 97000000 		call	_ZN6Thread5startEv@plt
GAS LISTING /tmp/cckkWbmy.s 			page 10


 389      E7800000 
 390              	.LVL38:
  67:src/Tests.cpp ****     Thread* t2 = new Thread(&thread2Function, 0);
 391              		.loc 1 67 5 is_stmt 1 discriminator 2
 392              		.loc 1 67 48 is_stmt 0 discriminator 2
 393 026c 13058001 		li	a0,24
 394 0270 97000000 		call	_Znwm@plt
 394      E7800000 
 395              	.LVL39:
 396              	.LEHE2:
 397 0278 13090500 		mv	s2,a0
 398 027c 13060000 		li	a2,0
 399 0280 97050000 		lla	a1,_Z15thread2FunctionPv
 399      93850500 
 400              	.LEHB3:
 401 0288 97000000 		call	_ZN6ThreadC1EPFvPvES0_@plt
 401      E7800000 
 402              	.LVL40:
 403              	.LEHE3:
  68:src/Tests.cpp ****     t2->start();
 404              		.loc 1 68 5 is_stmt 1 discriminator 2
 405              		.loc 1 68 14 is_stmt 0 discriminator 2
 406 0290 13050900 		mv	a0,s2
 407              	.LEHB4:
 408 0294 97000000 		call	_ZN6Thread5startEv@plt
 408      E7800000 
 409              	.LVL41:
 410 029c 6F00C000 		j	.L29
 411              	.L27:
  69:src/Tests.cpp **** 
  70:src/Tests.cpp ****     while(t1->myHandle->getState() != PCB::FINISHED || t2->myHandle->getState() != PCB::FINISHED)
  71:src/Tests.cpp ****     {
  72:src/Tests.cpp ****         thread_dispatch();
 412              		.loc 1 72 9 is_stmt 1 discriminator 3
 413              		.loc 1 72 24 is_stmt 0 discriminator 3
 414 02a0 97000000 		call	thread_dispatch@plt
 414      E7800000 
 415              	.LVL42:
 416              	.L29:
  70:src/Tests.cpp ****     {
 417              		.loc 1 70 5 is_stmt 1
  70:src/Tests.cpp ****     {
 418              		.loc 1 70 53
  70:src/Tests.cpp ****     {
 419              		.loc 1 70 15 is_stmt 0
 420 02a8 83B70400 		ld	a5,0(s1)
 421              	.LVL43:
 422              	.LBB11:
 423              	.LBB12:
 424              		.file 2 "src/../h/PCB.h"
   1:src/../h/PCB.h **** //
   2:src/../h/PCB.h **** // Created by os on 4/27/22.
   3:src/../h/PCB.h **** //
   4:src/../h/PCB.h **** 
   5:src/../h/PCB.h **** #ifndef PROJECT_BASE_V1_0_PCB_H
   6:src/../h/PCB.h **** #define PROJECT_BASE_V1_0_PCB_H
   7:src/../h/PCB.h **** 
GAS LISTING /tmp/cckkWbmy.s 			page 11


   8:src/../h/PCB.h **** #include "../lib/hw.h"
   9:src/../h/PCB.h **** #include "Scheduler.h"
  10:src/../h/PCB.h **** #include "Riscv.h"
  11:src/../h/PCB.h **** 
  12:src/../h/PCB.h **** class PCB
  13:src/../h/PCB.h **** {
  14:src/../h/PCB.h **** public:
  15:src/../h/PCB.h ****     using Body = void (*)(void*);
  16:src/../h/PCB.h **** 
  17:src/../h/PCB.h ****     PCB(Body body,  void* args, void* stack_space, uint64 timeSlice);
  18:src/../h/PCB.h ****     ~PCB();
  19:src/../h/PCB.h **** 
  20:src/../h/PCB.h ****     void start();
  21:src/../h/PCB.h ****     static void dispatch();
  22:src/../h/PCB.h ****     static void sleep(time_t);
  23:src/../h/PCB.h **** 
  24:src/../h/PCB.h ****     static PCB* running;
  25:src/../h/PCB.h ****     static PCB* exitingPCB;
  26:src/../h/PCB.h **** 
  27:src/../h/PCB.h ****     static uint64 timeSliceCounter;
  28:src/../h/PCB.h ****     uint64 getTimeSlice() { return timeSlice;}
  29:src/../h/PCB.h **** 
  30:src/../h/PCB.h ****     void* operator new(size_t size);
  31:src/../h/PCB.h ****     void operator delete(void *p);
  32:src/../h/PCB.h **** 
  33:src/../h/PCB.h ****     enum State{READY, RUNNING, SUSPENDED, FINISHED, EXITING, SLEEPING};
  34:src/../h/PCB.h ****     State getState() {return state;}
 425              		.loc 2 34 23 is_stmt 1
 426              		.loc 2 34 30 is_stmt 0
 427 02ac 03A70703 		lw	a4,48(a5)
 428              	.LVL44:
 429              	.LBE12:
 430              	.LBE11:
  70:src/Tests.cpp ****     {
 431              		.loc 1 70 53
 432 02b0 93073000 		li	a5,3
 433 02b4 E316F7FE 		bne	a4,a5,.L27
  70:src/Tests.cpp ****     {
 434              		.loc 1 70 60 discriminator 2
 435 02b8 83370900 		ld	a5,0(s2)
 436              	.LVL45:
 437              	.LBB13:
 438              	.LBB14:
 439              		.loc 2 34 23 is_stmt 1 discriminator 2
 440              		.loc 2 34 30 is_stmt 0 discriminator 2
 441 02bc 03A70703 		lw	a4,48(a5)
 442              	.LVL46:
 443              	.LBE14:
 444              	.LBE13:
  70:src/Tests.cpp ****     {
 445              		.loc 1 70 53 discriminator 2
 446 02c0 93073000 		li	a5,3
 447 02c4 E31EF7FC 		bne	a4,a5,.L27
  73:src/Tests.cpp ****     }
  74:src/Tests.cpp **** 
  75:src/Tests.cpp ****     Riscv::printString("End...\n");
 448              		.loc 1 75 5 is_stmt 1
GAS LISTING /tmp/cckkWbmy.s 			page 12


 449              		.loc 1 75 23 is_stmt 0
 450 02c8 17050000 		lla	a0,.LC6
 450      13050500 
 451 02d0 97000000 		call	_ZN5Riscv11printStringEPKc@plt
 451      E7800000 
 452              	.LVL47:
 453              	.LEHE4:
  76:src/Tests.cpp **** }
 454              		.loc 1 76 1
 455 02d8 83308101 		ld	ra,24(sp)
 456              		.cfi_remember_state
 457              		.cfi_restore 1
 458 02dc 03340101 		ld	s0,16(sp)
 459              		.cfi_restore 8
 460              		.cfi_def_cfa 2, 32
 461 02e0 83348100 		ld	s1,8(sp)
 462              		.cfi_restore 9
 463              	.LVL48:
 464 02e4 03390100 		ld	s2,0(sp)
 465              		.cfi_restore 18
 466              	.LVL49:
 467 02e8 13010102 		addi	sp,sp,32
 468              		.cfi_def_cfa_offset 0
 469 02ec 67800000 		jr	ra
 470              	.L32:
 471              		.cfi_restore_state
 472 02f0 13090500 		mv	s2,a0
  65:src/Tests.cpp ****     t1->start();
 473              		.loc 1 65 48
 474 02f4 13850400 		mv	a0,s1
 475 02f8 97000000 		call	_ZdlPv@plt
 475      E7800000 
 476              	.LVL50:
 477 0300 13050900 		mv	a0,s2
 478              	.LEHB5:
 479 0304 97000000 		call	_Unwind_Resume@plt
 479      E7800000 
 480              	.LVL51:
 481              	.LEHE5:
 482              	.L33:
 483 030c 93040500 		mv	s1,a0
 484              	.LVL52:
  67:src/Tests.cpp ****     t2->start();
 485              		.loc 1 67 48
 486 0310 13050900 		mv	a0,s2
 487 0314 97000000 		call	_ZdlPv@plt
 487      E7800000 
 488              	.LVL53:
 489 031c 13850400 		mv	a0,s1
 490              	.LEHB6:
 491 0320 97000000 		call	_Unwind_Resume@plt
 491      E7800000 
 492              	.LVL54:
 493              	.LEHE6:
 494              		.cfi_endproc
 495              	.LFE25:
 496              		.globl	__gxx_personality_v0
GAS LISTING /tmp/cckkWbmy.s 			page 13


 497              		.section	.gcc_except_table,"a",@progbits
 498              	.LLSDA25:
 499 0000 FF       		.byte	0xff
 500 0001 FF       		.byte	0xff
 501 0002 03       		.byte	0x3
 502 0003 5B       		.byte	0x5b
 503 0004 00000000 		.4byte	.LEHB0-.LFB25
 504 0008 00000000 		.4byte	.LEHE0-.LEHB0
 505 000c 00000000 		.4byte	0
 506 0010 00       		.byte	0
 507 0011 00000000 		.4byte	.LEHB1-.LFB25
 508 0015 00000000 		.4byte	.LEHE1-.LEHB1
 509 0019 00000000 		.4byte	.L32-.LFB25
 510 001d 00       		.byte	0
 511 001e 00000000 		.4byte	.LEHB2-.LFB25
 512 0022 00000000 		.4byte	.LEHE2-.LEHB2
 513 0026 00000000 		.4byte	0
 514 002a 00       		.byte	0
 515 002b 00000000 		.4byte	.LEHB3-.LFB25
 516 002f 00000000 		.4byte	.LEHE3-.LEHB3
 517 0033 00000000 		.4byte	.L33-.LFB25
 518 0037 00       		.byte	0
 519 0038 00000000 		.4byte	.LEHB4-.LFB25
 520 003c 00000000 		.4byte	.LEHE4-.LEHB4
 521 0040 00000000 		.4byte	0
 522 0044 00       		.byte	0
 523 0045 00000000 		.4byte	.LEHB5-.LFB25
 524 0049 00000000 		.4byte	.LEHE5-.LEHB5
 525 004d 00000000 		.4byte	0
 526 0051 00       		.byte	0
 527 0052 00000000 		.4byte	.LEHB6-.LFB25
 528 0056 00000000 		.4byte	.LEHE6-.LEHB6
 529 005a 00000000 		.4byte	0
 530 005e 00       		.byte	0
 531              		.text
 533              		.align	2
 534              		.globl	_Z11threadTest2v
 536              	_Z11threadTest2v:
 537              	.LFB26:
  77:src/Tests.cpp **** 
  78:src/Tests.cpp **** void threadTest2()
  79:src/Tests.cpp **** {
 538              		.loc 1 79 1 is_stmt 1
 539              		.cfi_startproc
 540              		.cfi_personality 0x9b,DW.ref.__gxx_personality_v0
 541              		.cfi_lsda 0x1b,.LLSDA26
 542 0328 130101FE 		addi	sp,sp,-32
 543              		.cfi_def_cfa_offset 32
 544 032c 233C1100 		sd	ra,24(sp)
 545 0330 23388100 		sd	s0,16(sp)
 546 0334 23349100 		sd	s1,8(sp)
 547 0338 23302101 		sd	s2,0(sp)
 548              		.cfi_offset 1, -8
 549              		.cfi_offset 8, -16
 550              		.cfi_offset 9, -24
 551              		.cfi_offset 18, -32
 552 033c 13040102 		addi	s0,sp,32
GAS LISTING /tmp/cckkWbmy.s 			page 14


 553              		.cfi_def_cfa 8, 0
  80:src/Tests.cpp ****     Thread* idleThread = new Thread(&idle, 0);
 554              		.loc 1 80 5
 555              		.loc 1 80 45 is_stmt 0
 556 0340 13058001 		li	a0,24
 557              	.LEHB7:
 558 0344 97000000 		call	_Znwm@plt
 558      E7800000 
 559              	.LVL55:
 560              	.LEHE7:
 561 034c 93040500 		mv	s1,a0
 562 0350 13060000 		li	a2,0
 563 0354 97050000 		lla	a1,_Z4idlePv
 563      93850500 
 564              	.LEHB8:
 565 035c 97000000 		call	_ZN6ThreadC1EPFvPvES0_@plt
 565      E7800000 
 566              	.LVL56:
 567              	.LEHE8:
  81:src/Tests.cpp ****     idleThread->start();
 568              		.loc 1 81 5 is_stmt 1 discriminator 2
 569              		.loc 1 81 22 is_stmt 0 discriminator 2
 570 0364 13850400 		mv	a0,s1
 571              	.LEHB9:
 572 0368 97000000 		call	_ZN6Thread5startEv@plt
 572      E7800000 
 573              	.LVL57:
  82:src/Tests.cpp ****     Thread* t1 = new Thread(&thread1Function, 0);
 574              		.loc 1 82 5 is_stmt 1 discriminator 2
 575              		.loc 1 82 48 is_stmt 0 discriminator 2
 576 0370 13058001 		li	a0,24
 577 0374 97000000 		call	_Znwm@plt
 577      E7800000 
 578              	.LVL58:
 579              	.LEHE9:
 580 037c 13090500 		mv	s2,a0
 581 0380 13060000 		li	a2,0
 582 0384 97050000 		lla	a1,_Z15thread1FunctionPv
 582      93850500 
 583              	.LEHB10:
 584 038c 97000000 		call	_ZN6ThreadC1EPFvPvES0_@plt
 584      E7800000 
 585              	.LVL59:
 586              	.LEHE10:
  83:src/Tests.cpp ****     t1->start();
 587              		.loc 1 83 5 is_stmt 1 discriminator 2
 588              		.loc 1 83 14 is_stmt 0 discriminator 2
 589 0394 13050900 		mv	a0,s2
 590              	.LEHB11:
 591 0398 97000000 		call	_ZN6Thread5startEv@plt
 591      E7800000 
 592              	.LVL60:
  84:src/Tests.cpp ****     Thread* t2  = new Thread(&thread2FunctionTest2, 0);
 593              		.loc 1 84 5 is_stmt 1 discriminator 2
 594              		.loc 1 84 54 is_stmt 0 discriminator 2
 595 03a0 13058001 		li	a0,24
 596 03a4 97000000 		call	_Znwm@plt
GAS LISTING /tmp/cckkWbmy.s 			page 15


 596      E7800000 
 597              	.LVL61:
 598              	.LEHE11:
 599 03ac 13090500 		mv	s2,a0
 600              	.LVL62:
 601 03b0 13060000 		li	a2,0
 602 03b4 97050000 		lla	a1,_Z20thread2FunctionTest2Pv
 602      93850500 
 603              	.LEHB12:
 604 03bc 97000000 		call	_ZN6ThreadC1EPFvPvES0_@plt
 604      E7800000 
 605              	.LVL63:
 606              	.LEHE12:
  85:src/Tests.cpp ****     t2->start();
 607              		.loc 1 85 5 is_stmt 1 discriminator 2
 608              		.loc 1 85 14 is_stmt 0 discriminator 2
 609 03c4 13050900 		mv	a0,s2
 610              	.LEHB13:
 611 03c8 97000000 		call	_ZN6Thread5startEv@plt
 611      E7800000 
 612              	.LVL64:
  86:src/Tests.cpp **** 
  87:src/Tests.cpp ****     Riscv::enableInterrupts();
 613              		.loc 1 87 5 is_stmt 1 discriminator 2
 614              		.loc 1 87 28 is_stmt 0 discriminator 2
 615 03d0 97000000 		call	_ZN5Riscv16enableInterruptsEv@plt
 615      E7800000 
 616              	.LVL65:
 617              	.L37:
  88:src/Tests.cpp **** 
  89:src/Tests.cpp ****     while(idleThread->myHandle->getState() != PCB::FINISHED);
 618              		.loc 1 89 5 is_stmt 1
 619              		.loc 1 89 44
 620              		.loc 1 89 23 is_stmt 0
 621 03d8 83B70400 		ld	a5,0(s1)
 622              	.LVL66:
 623              	.LBB15:
 624              	.LBB16:
 625              		.loc 2 34 23 is_stmt 1
 626              		.loc 2 34 30 is_stmt 0
 627 03dc 03A70703 		lw	a4,48(a5)
 628              	.LVL67:
 629              	.LBE16:
 630              	.LBE15:
 631              		.loc 1 89 44
 632 03e0 93073000 		li	a5,3
 633 03e4 E31AF7FE 		bne	a4,a5,.L37
  90:src/Tests.cpp **** 
  91:src/Tests.cpp ****     Riscv::printString("End...\n");
 634              		.loc 1 91 5 is_stmt 1
 635              		.loc 1 91 23 is_stmt 0
 636 03e8 17050000 		lla	a0,.LC6
 636      13050500 
 637 03f0 97000000 		call	_ZN5Riscv11printStringEPKc@plt
 637      E7800000 
 638              	.LVL68:
  92:src/Tests.cpp **** 
GAS LISTING /tmp/cckkWbmy.s 			page 16


  93:src/Tests.cpp ****     Riscv::disableInterrupts();
 639              		.loc 1 93 5 is_stmt 1
 640              		.loc 1 93 29 is_stmt 0
 641 03f8 97000000 		call	_ZN5Riscv17disableInterruptsEv@plt
 641      E7800000 
 642              	.LVL69:
 643              	.LEHE13:
  94:src/Tests.cpp **** }
 644              		.loc 1 94 1
 645 0400 83308101 		ld	ra,24(sp)
 646              		.cfi_remember_state
 647              		.cfi_restore 1
 648 0404 03340101 		ld	s0,16(sp)
 649              		.cfi_restore 8
 650              		.cfi_def_cfa 2, 32
 651 0408 83348100 		ld	s1,8(sp)
 652              		.cfi_restore 9
 653              	.LVL70:
 654 040c 03390100 		ld	s2,0(sp)
 655              		.cfi_restore 18
 656              	.LVL71:
 657 0410 13010102 		addi	sp,sp,32
 658              		.cfi_def_cfa_offset 0
 659 0414 67800000 		jr	ra
 660              	.L41:
 661              		.cfi_restore_state
 662 0418 13090500 		mv	s2,a0
  80:src/Tests.cpp ****     idleThread->start();
 663              		.loc 1 80 45
 664 041c 13850400 		mv	a0,s1
 665 0420 97000000 		call	_ZdlPv@plt
 665      E7800000 
 666              	.LVL72:
 667 0428 13050900 		mv	a0,s2
 668              	.LEHB14:
 669 042c 97000000 		call	_Unwind_Resume@plt
 669      E7800000 
 670              	.LVL73:
 671              	.LEHE14:
 672              	.L42:
 673 0434 93040500 		mv	s1,a0
 674              	.LVL74:
  82:src/Tests.cpp ****     t1->start();
 675              		.loc 1 82 48
 676 0438 13050900 		mv	a0,s2
 677 043c 97000000 		call	_ZdlPv@plt
 677      E7800000 
 678              	.LVL75:
 679 0444 13850400 		mv	a0,s1
 680              	.LEHB15:
 681 0448 97000000 		call	_Unwind_Resume@plt
 681      E7800000 
 682              	.LVL76:
 683              	.LEHE15:
 684              	.L43:
 685 0450 93040500 		mv	s1,a0
 686              	.LVL77:
GAS LISTING /tmp/cckkWbmy.s 			page 17


  84:src/Tests.cpp ****     t2->start();
 687              		.loc 1 84 54
 688 0454 13050900 		mv	a0,s2
 689 0458 97000000 		call	_ZdlPv@plt
 689      E7800000 
 690              	.LVL78:
 691 0460 13850400 		mv	a0,s1
 692              	.LEHB16:
 693 0464 97000000 		call	_Unwind_Resume@plt
 693      E7800000 
 694              	.LVL79:
 695              	.LEHE16:
 696              		.cfi_endproc
 697              	.LFE26:
 698              		.section	.gcc_except_table
 699              	.LLSDA26:
 700 005f FF       		.byte	0xff
 701 0060 FF       		.byte	0xff
 702 0061 03       		.byte	0x3
 703 0062 8201     		.byte	0x82,0x1
 704 0064 00000000 		.4byte	.LEHB7-.LFB26
 705 0068 00000000 		.4byte	.LEHE7-.LEHB7
 706 006c 00000000 		.4byte	0
 707 0070 00       		.byte	0
 708 0071 00000000 		.4byte	.LEHB8-.LFB26
 709 0075 00000000 		.4byte	.LEHE8-.LEHB8
 710 0079 00000000 		.4byte	.L41-.LFB26
 711 007d 00       		.byte	0
 712 007e 00000000 		.4byte	.LEHB9-.LFB26
 713 0082 00000000 		.4byte	.LEHE9-.LEHB9
 714 0086 00000000 		.4byte	0
 715 008a 00       		.byte	0
 716 008b 00000000 		.4byte	.LEHB10-.LFB26
 717 008f 00000000 		.4byte	.LEHE10-.LEHB10
 718 0093 00000000 		.4byte	.L42-.LFB26
 719 0097 00       		.byte	0
 720 0098 00000000 		.4byte	.LEHB11-.LFB26
 721 009c 00000000 		.4byte	.LEHE11-.LEHB11
 722 00a0 00000000 		.4byte	0
 723 00a4 00       		.byte	0
 724 00a5 00000000 		.4byte	.LEHB12-.LFB26
 725 00a9 00000000 		.4byte	.LEHE12-.LEHB12
 726 00ad 00000000 		.4byte	.L43-.LFB26
 727 00b1 00       		.byte	0
 728 00b2 00000000 		.4byte	.LEHB13-.LFB26
 729 00b6 00000000 		.4byte	.LEHE13-.LEHB13
 730 00ba 00000000 		.4byte	0
 731 00be 00       		.byte	0
 732 00bf 00000000 		.4byte	.LEHB14-.LFB26
 733 00c3 00000000 		.4byte	.LEHE14-.LEHB14
 734 00c7 00000000 		.4byte	0
 735 00cb 00       		.byte	0
 736 00cc 00000000 		.4byte	.LEHB15-.LFB26
 737 00d0 00000000 		.4byte	.LEHE15-.LEHB15
 738 00d4 00000000 		.4byte	0
 739 00d8 00       		.byte	0
 740 00d9 00000000 		.4byte	.LEHB16-.LFB26
GAS LISTING /tmp/cckkWbmy.s 			page 18


 741 00dd 00000000 		.4byte	.LEHE16-.LEHB16
 742 00e1 00000000 		.4byte	0
 743 00e5 00       		.byte	0
 744              		.text
 746              		.align	2
 747              		.globl	_Z11threadTestsv
 749              	_Z11threadTestsv:
 750              	.LFB27:
  95:src/Tests.cpp **** 
  96:src/Tests.cpp **** void threadTests()
  97:src/Tests.cpp **** {
 751              		.loc 1 97 1 is_stmt 1
 752              		.cfi_startproc
 753 046c 130101FF 		addi	sp,sp,-16
 754              		.cfi_def_cfa_offset 16
 755 0470 23341100 		sd	ra,8(sp)
 756 0474 23308100 		sd	s0,0(sp)
 757              		.cfi_offset 1, -8
 758              		.cfi_offset 8, -16
 759 0478 13040101 		addi	s0,sp,16
 760              		.cfi_def_cfa 8, 0
  98:src/Tests.cpp ****     threadTest1();
 761              		.loc 1 98 5
 762              		.loc 1 98 16 is_stmt 0
 763 047c 97000000 		call	_Z11threadTest1v
 763      E7800000 
 764              	.LVL80:
  99:src/Tests.cpp ****     //threadTest2();
 100:src/Tests.cpp **** }
 765              		.loc 1 100 1
 766 0484 83308100 		ld	ra,8(sp)
 767              		.cfi_restore 1
 768 0488 03340100 		ld	s0,0(sp)
 769              		.cfi_restore 8
 770              		.cfi_def_cfa 2, 16
 771 048c 13010101 		addi	sp,sp,16
 772              		.cfi_def_cfa_offset 0
 773 0490 67800000 		jr	ra
 774              		.cfi_endproc
 775              	.LFE27:
 777              		.section	.rodata.str1.8
 778              		.align	3
 779              	.LC7:
 780 0058 6D616C6C 		.string	"mallocFree\n"
 780      6F634672 
 780      65650A00 
 781 0064 00000000 		.align	3
 782              	.LC8:
 783 0068 6E6F7420 		.string	"not OK\n"
 783      4F4B0A00 
 784              		.align	3
 785              	.LC9:
 786 0070 4F4B0A00 		.string	"OK\n"
 787              		.text
 788              		.align	2
 789              		.globl	_Z10mallocFreev
 791              	_Z10mallocFreev:
GAS LISTING /tmp/cckkWbmy.s 			page 19


 792              	.LFB28:
 101:src/Tests.cpp **** 
 102:src/Tests.cpp **** 
 103:src/Tests.cpp **** //memory (de)allocation tests
 104:src/Tests.cpp **** void mallocFree()
 105:src/Tests.cpp **** {
 793              		.loc 1 105 1 is_stmt 1
 794              		.cfi_startproc
 795 0494 130101CC 		addi	sp,sp,-832
 796              		.cfi_def_cfa_offset 832
 797 0498 233C1132 		sd	ra,824(sp)
 798 049c 23388132 		sd	s0,816(sp)
 799 04a0 23349132 		sd	s1,808(sp)
 800              		.cfi_offset 1, -8
 801              		.cfi_offset 8, -16
 802              		.cfi_offset 9, -24
 803 04a4 13040134 		addi	s0,sp,832
 804              		.cfi_def_cfa 8, 0
 106:src/Tests.cpp ****     Riscv::printString("mallocFree\n");
 805              		.loc 1 106 5
 806              		.loc 1 106 23 is_stmt 0
 807 04a8 17050000 		lla	a0,.LC7
 807      13050500 
 808 04b0 97000000 		call	_ZN5Riscv11printStringEPKc@plt
 808      E7800000 
 809              	.LVL81:
 810              	.LBB17:
 107:src/Tests.cpp ****     constexpr int num = 100;
 108:src/Tests.cpp ****     void* addrs[num];
 109:src/Tests.cpp ****     for(int i = 0; i < num;i++)
 811              		.loc 1 109 13
 812 04b8 93040000 		li	s1,0
 813 04bc 6F008000 		j	.L52
 814              	.LVL82:
 815              	.L50:
 816              		.loc 1 109 5 is_stmt 1 discriminator 2
 817 04c0 9B841400 		addiw	s1,s1,1
 818              	.LVL83:
 819              	.L52:
 820              		.loc 1 109 22 discriminator 1
 821 04c4 93073006 		li	a5,99
 822 04c8 63C49704 		bgt	s1,a5,.L60
 110:src/Tests.cpp ****     {
 111:src/Tests.cpp ****         addrs[i] = mem_alloc(100);
 823              		.loc 1 111 9
 824              		.loc 1 111 29 is_stmt 0
 825 04cc 13054006 		li	a0,100
 826 04d0 97000000 		call	mem_alloc@plt
 826      E7800000 
 827              	.LVL84:
 828              		.loc 1 111 18
 829 04d8 93973400 		slli	a5,s1,3
 830 04dc 130704FE 		addi	a4,s0,-32
 831 04e0 B307F700 		add	a5,a4,a5
 832 04e4 23B0A7CE 		sd	a0,-800(a5)
 112:src/Tests.cpp ****         if(addrs[i] == 0)
 833              		.loc 1 112 9 is_stmt 1
GAS LISTING /tmp/cckkWbmy.s 			page 20


 834 04e8 E31C05FC 		bnez	a0,.L50
 113:src/Tests.cpp ****         {
 114:src/Tests.cpp ****             Riscv::printString("not OK\n");
 835              		.loc 1 114 13
 836              		.loc 1 114 31 is_stmt 0
 837 04ec 17050000 		lla	a0,.LC8
 837      13050500 
 838 04f4 97000000 		call	_ZN5Riscv11printStringEPKc@plt
 838      E7800000 
 839              	.LVL85:
 115:src/Tests.cpp ****             return;
 840              		.loc 1 115 13 is_stmt 1
 841              	.L48:
 842              	.LBE17:
 116:src/Tests.cpp ****         }
 117:src/Tests.cpp **** 
 118:src/Tests.cpp ****     }
 119:src/Tests.cpp **** 
 120:src/Tests.cpp ****     for(int i = 0 ; i < num;i+=2)
 121:src/Tests.cpp ****     {
 122:src/Tests.cpp ****         int retval = mem_free(addrs[i]);
 123:src/Tests.cpp ****         if(retval != 0)
 124:src/Tests.cpp ****         {
 125:src/Tests.cpp ****             Riscv::printString("not OK\n");
 126:src/Tests.cpp ****             return;
 127:src/Tests.cpp ****         }
 128:src/Tests.cpp ****     }
 129:src/Tests.cpp **** 
 130:src/Tests.cpp ****     for(int i = 0 ; i < num;i+=2)
 131:src/Tests.cpp ****     {
 132:src/Tests.cpp ****         addrs[i] = mem_alloc(20);
 133:src/Tests.cpp ****         if(addrs[i] == 0)
 134:src/Tests.cpp ****         {
 135:src/Tests.cpp ****             Riscv::printString("not OK\n");
 136:src/Tests.cpp ****             return;
 137:src/Tests.cpp ****         }
 138:src/Tests.cpp ****     }
 139:src/Tests.cpp **** 
 140:src/Tests.cpp ****     for(int i = 0; i < num;i++)
 141:src/Tests.cpp ****     {
 142:src/Tests.cpp ****         int retval = mem_free(addrs[i]);
 143:src/Tests.cpp ****         if(retval != 0)
 144:src/Tests.cpp ****         {
 145:src/Tests.cpp ****             Riscv::printString("not OK\n");
 146:src/Tests.cpp ****             return;
 147:src/Tests.cpp ****         }
 148:src/Tests.cpp ****     }
 149:src/Tests.cpp **** 
 150:src/Tests.cpp ****     Riscv::printString("OK\n");
 151:src/Tests.cpp **** }
 843              		.loc 1 151 1 is_stmt 0
 844 04fc 83308133 		ld	ra,824(sp)
 845              		.cfi_remember_state
 846              		.cfi_restore 1
 847 0500 03340133 		ld	s0,816(sp)
 848              		.cfi_restore 8
 849              		.cfi_def_cfa 2, 832
GAS LISTING /tmp/cckkWbmy.s 			page 21


 850 0504 83348132 		ld	s1,808(sp)
 851              		.cfi_restore 9
 852 0508 13010134 		addi	sp,sp,832
 853              		.cfi_def_cfa_offset 0
 854 050c 67800000 		jr	ra
 855              	.LVL86:
 856              	.L60:
 857              		.cfi_restore_state
 858              	.LBB18:
 120:src/Tests.cpp ****     {
 859              		.loc 1 120 13
 860 0510 93040000 		li	s1,0
 861              	.LVL87:
 862              	.L49:
 120:src/Tests.cpp ****     {
 863              		.loc 1 120 23 is_stmt 1 discriminator 1
 864 0514 93073006 		li	a5,99
 865 0518 63CE9702 		bgt	s1,a5,.L61
 866              	.LBB19:
 122:src/Tests.cpp ****         if(retval != 0)
 867              		.loc 1 122 9
 122:src/Tests.cpp ****         if(retval != 0)
 868              		.loc 1 122 30 is_stmt 0
 869 051c 93973400 		slli	a5,s1,3
 870 0520 130704FE 		addi	a4,s0,-32
 871 0524 B307F700 		add	a5,a4,a5
 872 0528 03B507CE 		ld	a0,-800(a5)
 873 052c 97000000 		call	mem_free@plt
 873      E7800000 
 874              	.LVL88:
 123:src/Tests.cpp ****         {
 875              		.loc 1 123 9 is_stmt 1
 876 0534 63160500 		bnez	a0,.L64
 877              	.LBE19:
 120:src/Tests.cpp ****     {
 878              		.loc 1 120 5 discriminator 2
 120:src/Tests.cpp ****     {
 879              		.loc 1 120 30 is_stmt 0 discriminator 2
 880 0538 9B842400 		addiw	s1,s1,2
 881              	.LVL89:
 120:src/Tests.cpp ****     {
 882              		.loc 1 120 5 discriminator 2
 883 053c 6FF09FFD 		j	.L49
 884              	.LVL90:
 885              	.L64:
 886              	.LBB20:
 125:src/Tests.cpp ****             return;
 887              		.loc 1 125 13 is_stmt 1
 125:src/Tests.cpp ****             return;
 888              		.loc 1 125 31 is_stmt 0
 889 0540 17050000 		lla	a0,.LC8
 889      13050500 
 890              	.LVL91:
 891 0548 97000000 		call	_ZN5Riscv11printStringEPKc@plt
 891      E7800000 
 892              	.LVL92:
 126:src/Tests.cpp ****         }
GAS LISTING /tmp/cckkWbmy.s 			page 22


 893              		.loc 1 126 13 is_stmt 1
 894 0550 6FF0DFFA 		j	.L48
 895              	.L61:
 896              	.LBE20:
 897              	.LBE18:
 898              	.LBB21:
 130:src/Tests.cpp ****     {
 899              		.loc 1 130 13 is_stmt 0
 900 0554 93040000 		li	s1,0
 901              	.LVL93:
 902 0558 6F008000 		j	.L53
 903              	.LVL94:
 904              	.L56:
 130:src/Tests.cpp ****     {
 905              		.loc 1 130 5 is_stmt 1 discriminator 2
 130:src/Tests.cpp ****     {
 906              		.loc 1 130 30 is_stmt 0 discriminator 2
 907 055c 9B842400 		addiw	s1,s1,2
 908              	.LVL95:
 909              	.L53:
 130:src/Tests.cpp ****     {
 910              		.loc 1 130 23 is_stmt 1 discriminator 1
 911 0560 93073006 		li	a5,99
 912 0564 63CC9702 		bgt	s1,a5,.L62
 132:src/Tests.cpp ****         if(addrs[i] == 0)
 913              		.loc 1 132 9
 132:src/Tests.cpp ****         if(addrs[i] == 0)
 914              		.loc 1 132 29 is_stmt 0
 915 0568 13054001 		li	a0,20
 916 056c 97000000 		call	mem_alloc@plt
 916      E7800000 
 917              	.LVL96:
 132:src/Tests.cpp ****         if(addrs[i] == 0)
 918              		.loc 1 132 18
 919 0574 93973400 		slli	a5,s1,3
 920 0578 130704FE 		addi	a4,s0,-32
 921 057c B307F700 		add	a5,a4,a5
 922 0580 23B0A7CE 		sd	a0,-800(a5)
 133:src/Tests.cpp ****         {
 923              		.loc 1 133 9 is_stmt 1
 924 0584 E31C05FC 		bnez	a0,.L56
 135:src/Tests.cpp ****             return;
 925              		.loc 1 135 13
 135:src/Tests.cpp ****             return;
 926              		.loc 1 135 31 is_stmt 0
 927 0588 17050000 		lla	a0,.LC8
 927      13050500 
 928 0590 97000000 		call	_ZN5Riscv11printStringEPKc@plt
 928      E7800000 
 929              	.LVL97:
 136:src/Tests.cpp ****         }
 930              		.loc 1 136 13 is_stmt 1
 931 0598 6FF05FF6 		j	.L48
 932              	.L62:
 933              	.LBE21:
 934              	.LBB22:
 140:src/Tests.cpp ****     {
GAS LISTING /tmp/cckkWbmy.s 			page 23


 935              		.loc 1 140 13 is_stmt 0
 936 059c 93040000 		li	s1,0
 937              	.LVL98:
 938              	.L55:
 140:src/Tests.cpp ****     {
 939              		.loc 1 140 22 is_stmt 1 discriminator 1
 940 05a0 93073006 		li	a5,99
 941 05a4 63CE9702 		bgt	s1,a5,.L57
 942              	.LBB23:
 142:src/Tests.cpp ****         if(retval != 0)
 943              		.loc 1 142 9
 142:src/Tests.cpp ****         if(retval != 0)
 944              		.loc 1 142 30 is_stmt 0
 945 05a8 93973400 		slli	a5,s1,3
 946 05ac 130704FE 		addi	a4,s0,-32
 947 05b0 B307F700 		add	a5,a4,a5
 948 05b4 03B507CE 		ld	a0,-800(a5)
 949 05b8 97000000 		call	mem_free@plt
 949      E7800000 
 950              	.LVL99:
 143:src/Tests.cpp ****         {
 951              		.loc 1 143 9 is_stmt 1
 952 05c0 63160500 		bnez	a0,.L65
 953              	.LBE23:
 140:src/Tests.cpp ****     {
 954              		.loc 1 140 5 discriminator 2
 955 05c4 9B841400 		addiw	s1,s1,1
 956              	.LVL100:
 957 05c8 6FF09FFD 		j	.L55
 958              	.LVL101:
 959              	.L65:
 960              	.LBB24:
 145:src/Tests.cpp ****             return;
 961              		.loc 1 145 13
 145:src/Tests.cpp ****             return;
 962              		.loc 1 145 31 is_stmt 0
 963 05cc 17050000 		lla	a0,.LC8
 963      13050500 
 964              	.LVL102:
 965 05d4 97000000 		call	_ZN5Riscv11printStringEPKc@plt
 965      E7800000 
 966              	.LVL103:
 146:src/Tests.cpp ****         }
 967              		.loc 1 146 13 is_stmt 1
 968 05dc 6FF01FF2 		j	.L48
 969              	.L57:
 970              	.LBE24:
 971              	.LBE22:
 150:src/Tests.cpp **** }
 972              		.loc 1 150 5
 150:src/Tests.cpp **** }
 973              		.loc 1 150 23 is_stmt 0
 974 05e0 17050000 		lla	a0,.LC9
 974      13050500 
 975 05e8 97000000 		call	_ZN5Riscv11printStringEPKc@plt
 975      E7800000 
 976              	.LVL104:
GAS LISTING /tmp/cckkWbmy.s 			page 24


 977 05f0 6FF0DFF0 		j	.L48
 978              		.cfi_endproc
 979              	.LFE28:
 981              		.section	.rodata.str1.8
 982 0074 00000000 		.align	3
 983              	.LC10:
 984 0078 6269674D 		.string	"bigMalloc\n"
 984      616C6C6F 
 984      630A00
 985              		.text
 986              		.align	2
 987              		.globl	_Z9bigMallocv
 989              	_Z9bigMallocv:
 990              	.LFB29:
 152:src/Tests.cpp **** void bigMalloc()
 153:src/Tests.cpp **** {
 991              		.loc 1 153 1 is_stmt 1
 992              		.cfi_startproc
 993 05f4 130101FF 		addi	sp,sp,-16
 994              		.cfi_def_cfa_offset 16
 995 05f8 23341100 		sd	ra,8(sp)
 996 05fc 23308100 		sd	s0,0(sp)
 997              		.cfi_offset 1, -8
 998              		.cfi_offset 8, -16
 999 0600 13040101 		addi	s0,sp,16
 1000              		.cfi_def_cfa 8, 0
 154:src/Tests.cpp ****     Riscv::printString("bigMalloc\n");
 1001              		.loc 1 154 5
 1002              		.loc 1 154 23 is_stmt 0
 1003 0604 17050000 		lla	a0,.LC10
 1003      13050500 
 1004 060c 97000000 		call	_ZN5Riscv11printStringEPKc@plt
 1004      E7800000 
 1005              	.LVL105:
 155:src/Tests.cpp ****     uint64 x = (uint64)HEAP_END_ADDR - (uint64)HEAP_START_ADDR + 100UL;
 1006              		.loc 1 155 5 is_stmt 1
 1007              		.loc 1 155 38 is_stmt 0
 1008 0614 97070000 		la	a5,HEAP_END_ADDR
 1008      83B70700 
 1009 061c 03B50700 		ld	a0,0(a5)
 1010 0620 97070000 		la	a5,HEAP_START_ADDR
 1010      83B70700 
 1011 0628 83B70700 		ld	a5,0(a5)
 1012 062c 3305F540 		sub	a0,a0,a5
 1013              	.LVL106:
 156:src/Tests.cpp ****     void* p = mem_alloc(x);
 1014              		.loc 1 156 5 is_stmt 1
 1015              		.loc 1 156 24 is_stmt 0
 1016 0630 13054506 		addi	a0,a0,100
 1017              	.LVL107:
 1018 0634 97000000 		call	mem_alloc@plt
 1018      E7800000 
 1019              	.LVL108:
 157:src/Tests.cpp ****     if(p == 0)
 1020              		.loc 1 157 5 is_stmt 1
 1021 063c 63020502 		beqz	a0,.L70
 158:src/Tests.cpp ****         Riscv::printString("OK\n");
GAS LISTING /tmp/cckkWbmy.s 			page 25


 159:src/Tests.cpp ****     else
 160:src/Tests.cpp ****         Riscv::printString("not OK\n");
 1022              		.loc 1 160 9
 1023              		.loc 1 160 27 is_stmt 0
 1024 0640 17050000 		lla	a0,.LC8
 1024      13050500 
 1025              	.LVL109:
 1026 0648 97000000 		call	_ZN5Riscv11printStringEPKc@plt
 1026      E7800000 
 1027              	.LVL110:
 1028              	.L66:
 161:src/Tests.cpp **** }
 1029              		.loc 1 161 1
 1030 0650 83308100 		ld	ra,8(sp)
 1031              		.cfi_remember_state
 1032              		.cfi_restore 1
 1033 0654 03340100 		ld	s0,0(sp)
 1034              		.cfi_restore 8
 1035              		.cfi_def_cfa 2, 16
 1036 0658 13010101 		addi	sp,sp,16
 1037              		.cfi_def_cfa_offset 0
 1038 065c 67800000 		jr	ra
 1039              	.LVL111:
 1040              	.L70:
 1041              		.cfi_restore_state
 158:src/Tests.cpp ****         Riscv::printString("OK\n");
 1042              		.loc 1 158 9 is_stmt 1
 158:src/Tests.cpp ****         Riscv::printString("OK\n");
 1043              		.loc 1 158 27 is_stmt 0
 1044 0660 17050000 		lla	a0,.LC9
 1044      13050500 
 1045              	.LVL112:
 1046 0668 97000000 		call	_ZN5Riscv11printStringEPKc@plt
 1046      E7800000 
 1047              	.LVL113:
 1048 0670 6FF01FFE 		j	.L66
 1049              		.cfi_endproc
 1050              	.LFE29:
 1052              		.section	.rodata.str1.8
 1053 0083 00000000 		.align	3
 1053      00
 1054              	.LC11:
 1055 0088 6C6F744F 		.string	"lotOfSmallMallocs\n"
 1055      66536D61 
 1055      6C6C4D61 
 1055      6C6C6F63 
 1055      730A00
 1056              		.text
 1057              		.align	2
 1058              		.globl	_Z17lotOfSmallMallocsv
 1060              	_Z17lotOfSmallMallocsv:
 1061              	.LFB30:
 162:src/Tests.cpp **** 
 163:src/Tests.cpp **** void lotOfSmallMallocs()
 164:src/Tests.cpp **** {
 1062              		.loc 1 164 1 is_stmt 1
 1063              		.cfi_startproc
GAS LISTING /tmp/cckkWbmy.s 			page 26


 1064 0674 130101FD 		addi	sp,sp,-48
 1065              		.cfi_def_cfa_offset 48
 1066 0678 23341102 		sd	ra,40(sp)
 1067 067c 23308102 		sd	s0,32(sp)
 1068 0680 233C9100 		sd	s1,24(sp)
 1069 0684 23382101 		sd	s2,16(sp)
 1070 0688 23343101 		sd	s3,8(sp)
 1071              		.cfi_offset 1, -8
 1072              		.cfi_offset 8, -16
 1073              		.cfi_offset 9, -24
 1074              		.cfi_offset 18, -32
 1075              		.cfi_offset 19, -40
 1076 068c 13040103 		addi	s0,sp,48
 1077              		.cfi_def_cfa 8, 0
 165:src/Tests.cpp ****     Riscv::printString("lotOfSmallMallocs\n");
 1078              		.loc 1 165 5
 1079              		.loc 1 165 23 is_stmt 0
 1080 0690 17050000 		lla	a0,.LC11
 1080      13050500 
 1081 0698 97000000 		call	_ZN5Riscv11printStringEPKc@plt
 1081      E7800000 
 1082              	.LVL114:
 166:src/Tests.cpp ****     uint64 cnt = 0;
 1083              		.loc 1 166 5 is_stmt 1
 167:src/Tests.cpp ****     uint64 sum = 0;
 1084              		.loc 1 167 5
 168:src/Tests.cpp ****     uint64 N = 10000UL;
 1085              		.loc 1 168 5
 169:src/Tests.cpp ****     uint64 X = 10UL;
 1086              		.loc 1 169 5
 170:src/Tests.cpp ****     for(uint64 i = 0; i < N;i++)
 1087              		.loc 1 170 5
 1088              	.LBB25:
 1089              		.loc 1 170 16 is_stmt 0
 1090 06a0 93040000 		li	s1,0
 1091              	.LBE25:
 167:src/Tests.cpp ****     uint64 N = 10000UL;
 1092              		.loc 1 167 12
 1093 06a4 93090000 		li	s3,0
 166:src/Tests.cpp ****     uint64 sum = 0;
 1094              		.loc 1 166 12
 1095 06a8 13090000 		li	s2,0
 1096 06ac 6F008001 		j	.L73
 1097              	.LVL115:
 1098              	.L77:
 1099              	.LBB28:
 1100              	.LBB26:
 171:src/Tests.cpp ****     {
 172:src/Tests.cpp ****         Test* t = (Test*)mem_alloc(sizeof(Test));
 173:src/Tests.cpp ****         if(t == 0)
 174:src/Tests.cpp ****             break;
 175:src/Tests.cpp ****         t->a = X;
 1101              		.loc 1 175 9 is_stmt 1 discriminator 2
 1102              		.loc 1 175 14 is_stmt 0 discriminator 2
 1103 06b0 9307A000 		li	a5,10
 1104 06b4 2330F500 		sd	a5,0(a0)
 176:src/Tests.cpp ****         sum+=t->a;
GAS LISTING /tmp/cckkWbmy.s 			page 27


 1105              		.loc 1 176 9 is_stmt 1 discriminator 2
 1106              		.loc 1 176 12 is_stmt 0 discriminator 2
 1107 06b8 9389A900 		addi	s3,s3,10
 1108              	.LVL116:
 177:src/Tests.cpp ****         cnt++;
 1109              		.loc 1 177 9 is_stmt 1 discriminator 2
 1110              		.loc 1 177 12 is_stmt 0 discriminator 2
 1111 06bc 13091900 		addi	s2,s2,1
 1112              	.LVL117:
 1113              	.LBE26:
 170:src/Tests.cpp ****     {
 1114              		.loc 1 170 5 is_stmt 1 discriminator 2
 1115 06c0 93841400 		addi	s1,s1,1
 1116              	.LVL118:
 1117              	.L73:
 170:src/Tests.cpp ****     {
 1118              		.loc 1 170 25 discriminator 1
 1119 06c4 B7270000 		li	a5,8192
 1120 06c8 9387F770 		addi	a5,a5,1807
 1121 06cc 63EA9700 		bgtu	s1,a5,.L72
 1122              	.LBB27:
 172:src/Tests.cpp ****         if(t == 0)
 1123              		.loc 1 172 9
 172:src/Tests.cpp ****         if(t == 0)
 1124              		.loc 1 172 35 is_stmt 0
 1125 06d0 13058000 		li	a0,8
 1126 06d4 97000000 		call	mem_alloc@plt
 1126      E7800000 
 1127              	.LVL119:
 173:src/Tests.cpp ****             break;
 1128              		.loc 1 173 9 is_stmt 1
 1129 06dc E31A05FC 		bnez	a0,.L77
 1130              	.LVL120:
 1131              	.L72:
 1132              	.LBE27:
 1133              	.LBE28:
 178:src/Tests.cpp ****     }
 179:src/Tests.cpp ****     Riscv::printInteger(cnt);
 1134              		.loc 1 179 5
 1135              		.loc 1 179 24 is_stmt 0
 1136 06e0 13050900 		mv	a0,s2
 1137 06e4 97000000 		call	_ZN5Riscv12printIntegerEm@plt
 1137      E7800000 
 1138              	.LVL121:
 180:src/Tests.cpp ****     Riscv::printString("\n");
 1139              		.loc 1 180 5 is_stmt 1
 1140              		.loc 1 180 23 is_stmt 0
 1141 06ec 17050000 		lla	a0,.LC3
 1141      13050500 
 1142 06f4 97000000 		call	_ZN5Riscv11printStringEPKc@plt
 1142      E7800000 
 1143              	.LVL122:
 181:src/Tests.cpp ****     if(sum == X*cnt)
 1144              		.loc 1 181 5 is_stmt 1
 1145              		.loc 1 181 16 is_stmt 0
 1146 06fc 93172900 		slli	a5,s2,2
 1147 0700 33892701 		add	s2,a5,s2
GAS LISTING /tmp/cckkWbmy.s 			page 28


 1148              	.LVL123:
 1149 0704 13191900 		slli	s2,s2,1
 1150              		.loc 1 181 5
 1151 0708 63083903 		beq	s2,s3,.L78
 182:src/Tests.cpp ****         Riscv::printString("OK\n");
 183:src/Tests.cpp ****     else
 184:src/Tests.cpp ****         Riscv::printString("not OK\n");
 1152              		.loc 1 184 9 is_stmt 1
 1153              		.loc 1 184 27 is_stmt 0
 1154 070c 17050000 		lla	a0,.LC8
 1154      13050500 
 1155 0714 97000000 		call	_ZN5Riscv11printStringEPKc@plt
 1155      E7800000 
 1156              	.LVL124:
 1157              	.L71:
 185:src/Tests.cpp **** }
 1158              		.loc 1 185 1
 1159 071c 83308102 		ld	ra,40(sp)
 1160              		.cfi_remember_state
 1161              		.cfi_restore 1
 1162 0720 03340102 		ld	s0,32(sp)
 1163              		.cfi_restore 8
 1164              		.cfi_def_cfa 2, 48
 1165 0724 83348101 		ld	s1,24(sp)
 1166              		.cfi_restore 9
 1167              	.LVL125:
 1168 0728 03390101 		ld	s2,16(sp)
 1169              		.cfi_restore 18
 1170 072c 83398100 		ld	s3,8(sp)
 1171              		.cfi_restore 19
 1172              	.LVL126:
 1173 0730 13010103 		addi	sp,sp,48
 1174              		.cfi_def_cfa_offset 0
 1175 0734 67800000 		jr	ra
 1176              	.LVL127:
 1177              	.L78:
 1178              		.cfi_restore_state
 182:src/Tests.cpp ****         Riscv::printString("OK\n");
 1179              		.loc 1 182 9 is_stmt 1
 182:src/Tests.cpp ****         Riscv::printString("OK\n");
 1180              		.loc 1 182 27 is_stmt 0
 1181 0738 17050000 		lla	a0,.LC9
 1181      13050500 
 1182 0740 97000000 		call	_ZN5Riscv11printStringEPKc@plt
 1182      E7800000 
 1183              	.LVL128:
 1184 0748 6FF05FFD 		j	.L71
 1185              		.cfi_endproc
 1186              	.LFE30:
 1188              		.section	.rodata.str1.8
 1189 009b 00000000 		.align	3
 1189      00
 1190              	.LC12:
 1191 00a0 62616446 		.string	"badFree\n"
 1191      7265650A 
 1191      00
 1192              		.text
GAS LISTING /tmp/cckkWbmy.s 			page 29


 1193              		.align	2
 1194              		.globl	_Z7badFreev
 1196              	_Z7badFreev:
 1197              	.LFB31:
 186:src/Tests.cpp **** void badFree()
 187:src/Tests.cpp **** {
 1198              		.loc 1 187 1 is_stmt 1
 1199              		.cfi_startproc
 1200 074c 130101FF 		addi	sp,sp,-16
 1201              		.cfi_def_cfa_offset 16
 1202 0750 23341100 		sd	ra,8(sp)
 1203 0754 23308100 		sd	s0,0(sp)
 1204              		.cfi_offset 1, -8
 1205              		.cfi_offset 8, -16
 1206 0758 13040101 		addi	s0,sp,16
 1207              		.cfi_def_cfa 8, 0
 188:src/Tests.cpp ****     Riscv::printString("badFree\n");
 1208              		.loc 1 188 5
 1209              		.loc 1 188 23 is_stmt 0
 1210 075c 17050000 		lla	a0,.LC12
 1210      13050500 
 1211 0764 97000000 		call	_ZN5Riscv11printStringEPKc@plt
 1211      E7800000 
 1212              	.LVL129:
 189:src/Tests.cpp ****     Test* t = (Test*)mem_alloc(sizeof(Test));
 1213              		.loc 1 189 5 is_stmt 1
 1214              		.loc 1 189 31 is_stmt 0
 1215 076c 13058000 		li	a0,8
 1216 0770 97000000 		call	mem_alloc@plt
 1216      E7800000 
 1217              	.LVL130:
 190:src/Tests.cpp ****     uint64 retval = mem_free((char*)t + 2);
 1218              		.loc 1 190 5 is_stmt 1
 1219              		.loc 1 190 29 is_stmt 0
 1220 0778 13052500 		addi	a0,a0,2
 1221              	.LVL131:
 1222 077c 97000000 		call	mem_free@plt
 1222      E7800000 
 1223              	.LVL132:
 191:src/Tests.cpp ****     if(retval == 0)
 1224              		.loc 1 191 5 is_stmt 1
 1225 0784 63120502 		bnez	a0,.L80
 192:src/Tests.cpp ****         Riscv::printString("not OK\n");
 1226              		.loc 1 192 9
 1227              		.loc 1 192 27 is_stmt 0
 1228 0788 17050000 		lla	a0,.LC8
 1228      13050500 
 1229              	.LVL133:
 1230 0790 97000000 		call	_ZN5Riscv11printStringEPKc@plt
 1230      E7800000 
 1231              	.LVL134:
 1232              	.L79:
 193:src/Tests.cpp ****     else
 194:src/Tests.cpp ****         Riscv::printString("OK\n");
 195:src/Tests.cpp **** }
 1233              		.loc 1 195 1
 1234 0798 83308100 		ld	ra,8(sp)
GAS LISTING /tmp/cckkWbmy.s 			page 30


 1235              		.cfi_remember_state
 1236              		.cfi_restore 1
 1237 079c 03340100 		ld	s0,0(sp)
 1238              		.cfi_restore 8
 1239              		.cfi_def_cfa 2, 16
 1240 07a0 13010101 		addi	sp,sp,16
 1241              		.cfi_def_cfa_offset 0
 1242 07a4 67800000 		jr	ra
 1243              	.LVL135:
 1244              	.L80:
 1245              		.cfi_restore_state
 194:src/Tests.cpp **** }
 1246              		.loc 1 194 9 is_stmt 1
 194:src/Tests.cpp **** }
 1247              		.loc 1 194 27 is_stmt 0
 1248 07a8 17050000 		lla	a0,.LC9
 1248      13050500 
 1249              	.LVL136:
 1250 07b0 97000000 		call	_ZN5Riscv11printStringEPKc@plt
 1250      E7800000 
 1251              	.LVL137:
 1252              		.loc 1 195 1
 1253 07b8 6FF01FFE 		j	.L79
 1254              		.cfi_endproc
 1255              	.LFE31:
 1257              		.section	.rodata.str1.8
 1258 00a9 00000000 		.align	3
 1258      000000
 1259              	.LC13:
 1260 00b0 73747265 		.string	"stressTesting\n"
 1260      73735465 
 1260      7374696E 
 1260      670A00
 1261 00bf 00       		.align	3
 1262              	.LC14:
 1263 00c0 737A203A 		.string	"sz : "
 1263      2000
 1264 00c6 0000     		.align	3
 1265              	.LC15:
 1266 00c8 66726565 		.string	"free\n"
 1266      0A00
 1267 00ce 0000     		.align	3
 1268              	.LC16:
 1269 00d0 616C6C6F 		.string	"alloc\n"
 1269      630A00
 1270 00d7 00       		.align	3
 1271              	.LC17:
 1272 00d8 6E6F7420 		.string	"not Ok\n"
 1272      4F6B0A00 
 1273              		.text
 1274              		.align	2
 1275              		.globl	_Z13stressTestingv
 1277              	_Z13stressTestingv:
 1278              	.LFB32:
 196:src/Tests.cpp **** 
 197:src/Tests.cpp **** void stressTesting()
 198:src/Tests.cpp **** {
GAS LISTING /tmp/cckkWbmy.s 			page 31


 1279              		.loc 1 198 1 is_stmt 1
 1280              		.cfi_startproc
 1281 07bc 130101CB 		addi	sp,sp,-848
 1282              		.cfi_def_cfa_offset 848
 1283 07c0 23341134 		sd	ra,840(sp)
 1284 07c4 23308134 		sd	s0,832(sp)
 1285 07c8 233C9132 		sd	s1,824(sp)
 1286 07cc 23382133 		sd	s2,816(sp)
 1287 07d0 23343133 		sd	s3,808(sp)
 1288              		.cfi_offset 1, -8
 1289              		.cfi_offset 8, -16
 1290              		.cfi_offset 9, -24
 1291              		.cfi_offset 18, -32
 1292              		.cfi_offset 19, -40
 1293 07d4 13040135 		addi	s0,sp,848
 1294              		.cfi_def_cfa 8, 0
 199:src/Tests.cpp ****     Riscv::printString("stressTesting\n");
 1295              		.loc 1 199 5
 1296              		.loc 1 199 23 is_stmt 0
 1297 07d8 17050000 		lla	a0,.LC13
 1297      13050500 
 1298 07e0 97000000 		call	_ZN5Riscv11printStringEPKc@plt
 1298      E7800000 
 1299              	.LVL138:
 1300              	.LBB29:
 200:src/Tests.cpp ****     constexpr int num = 100;
 201:src/Tests.cpp ****     void* addrs[num];
 202:src/Tests.cpp ****     for(int i = 0; i < num;i++)
 1301              		.loc 1 202 13
 1302 07e8 93040000 		li	s1,0
 1303 07ec 6F008000 		j	.L87
 1304              	.LVL139:
 1305              	.L85:
 1306              		.loc 1 202 5 is_stmt 1 discriminator 2
 1307 07f0 9B841400 		addiw	s1,s1,1
 1308              	.LVL140:
 1309              	.L87:
 1310              		.loc 1 202 22 discriminator 1
 1311 07f4 93073006 		li	a5,99
 1312 07f8 63C89704 		bgt	s1,a5,.L97
 203:src/Tests.cpp ****     {
 204:src/Tests.cpp ****         addrs[i] = mem_alloc(1);
 1313              		.loc 1 204 9
 1314              		.loc 1 204 29 is_stmt 0
 1315 07fc 13051000 		li	a0,1
 1316 0800 97000000 		call	mem_alloc@plt
 1316      E7800000 
 1317              	.LVL141:
 1318              		.loc 1 204 18
 1319 0808 93973400 		slli	a5,s1,3
 1320 080c 130704FD 		addi	a4,s0,-48
 1321 0810 B307F700 		add	a5,a4,a5
 1322 0814 23B0A7CE 		sd	a0,-800(a5)
 205:src/Tests.cpp ****         if(addrs[i] == 0)
 1323              		.loc 1 205 9 is_stmt 1
 1324 0818 E31C05FC 		bnez	a0,.L85
 206:src/Tests.cpp ****         {
GAS LISTING /tmp/cckkWbmy.s 			page 32


 207:src/Tests.cpp ****             Riscv::printString("not OK\n");
 1325              		.loc 1 207 13
 1326              		.loc 1 207 31 is_stmt 0
 1327 081c 17050000 		lla	a0,.LC8
 1327      13050500 
 1328 0824 97000000 		call	_ZN5Riscv11printStringEPKc@plt
 1328      E7800000 
 1329              	.LVL142:
 208:src/Tests.cpp ****             return;
 1330              		.loc 1 208 13 is_stmt 1
 1331              	.L83:
 1332              	.LBE29:
 209:src/Tests.cpp ****         }
 210:src/Tests.cpp **** 
 211:src/Tests.cpp ****     }
 212:src/Tests.cpp ****     int sz = 5;
 213:src/Tests.cpp ****     while(sz > 0)
 214:src/Tests.cpp ****     {
 215:src/Tests.cpp ****         Riscv::printString("sz : ");
 216:src/Tests.cpp ****         Riscv::printInteger(sz);
 217:src/Tests.cpp ****         for(int i = 0 ; i < num;i+=2)
 218:src/Tests.cpp ****         {
 219:src/Tests.cpp ****             Riscv::printString("i : ");
 220:src/Tests.cpp ****             Riscv::printInteger(i);
 221:src/Tests.cpp ****             Riscv::printString("free\n");
 222:src/Tests.cpp ****             int retval = mem_free(addrs[i]);
 223:src/Tests.cpp ****             if(retval != 0)
 224:src/Tests.cpp ****             {
 225:src/Tests.cpp ****                 Riscv::printString("not OK\n");
 226:src/Tests.cpp ****                 return;
 227:src/Tests.cpp ****             }
 228:src/Tests.cpp ****             Riscv::printString("alloc\n");
 229:src/Tests.cpp ****             addrs[i] = mem_alloc(sz/2);
 230:src/Tests.cpp ****             if(addrs[i] == 0)
 231:src/Tests.cpp ****             {
 232:src/Tests.cpp ****                 Riscv::printString("not Ok\n");
 233:src/Tests.cpp ****                 return;
 234:src/Tests.cpp ****             }
 235:src/Tests.cpp **** 
 236:src/Tests.cpp ****         }
 237:src/Tests.cpp **** 
 238:src/Tests.cpp ****         for(int i = 1 ; i < num;i+=2)
 239:src/Tests.cpp ****         {
 240:src/Tests.cpp ****             Riscv::printString("i : ");
 241:src/Tests.cpp ****             Riscv::printInteger(i);
 242:src/Tests.cpp ****             Riscv::printString("free\n");
 243:src/Tests.cpp ****             int retval = mem_free(addrs[i]);
 244:src/Tests.cpp ****             if(retval != 0)
 245:src/Tests.cpp ****             {
 246:src/Tests.cpp ****                 Riscv::printString("not OK\n");
 247:src/Tests.cpp ****                 return;
 248:src/Tests.cpp ****             }
 249:src/Tests.cpp ****             Riscv::printString("alloc\n");
 250:src/Tests.cpp ****             addrs[i] = mem_alloc(sz);
 251:src/Tests.cpp ****             if(addrs[i] == 0)
 252:src/Tests.cpp ****             {
 253:src/Tests.cpp ****                 Riscv::printString("not Ok\n");
GAS LISTING /tmp/cckkWbmy.s 			page 33


 254:src/Tests.cpp ****                 return;
 255:src/Tests.cpp ****             }
 256:src/Tests.cpp **** 
 257:src/Tests.cpp ****         }
 258:src/Tests.cpp ****         sz-=10;
 259:src/Tests.cpp ****     }
 260:src/Tests.cpp **** 
 261:src/Tests.cpp ****     Riscv::printString("OK\n");
 262:src/Tests.cpp **** }
 1333              		.loc 1 262 1 is_stmt 0
 1334 082c 83308134 		ld	ra,840(sp)
 1335              		.cfi_remember_state
 1336              		.cfi_restore 1
 1337 0830 03340134 		ld	s0,832(sp)
 1338              		.cfi_restore 8
 1339              		.cfi_def_cfa 2, 848
 1340 0834 83348133 		ld	s1,824(sp)
 1341              		.cfi_restore 9
 1342 0838 03390133 		ld	s2,816(sp)
 1343              		.cfi_restore 18
 1344 083c 83398132 		ld	s3,808(sp)
 1345              		.cfi_restore 19
 1346 0840 13010135 		addi	sp,sp,848
 1347              		.cfi_def_cfa_offset 0
 1348 0844 67800000 		jr	ra
 1349              	.LVL143:
 1350              	.L97:
 1351              		.cfi_restore_state
 212:src/Tests.cpp ****     while(sz > 0)
 1352              		.loc 1 212 9
 1353 0848 13095000 		li	s2,5
 1354              	.LVL144:
 1355              	.L84:
 213:src/Tests.cpp ****     {
 1356              		.loc 1 213 5 is_stmt 1
 213:src/Tests.cpp ****     {
 1357              		.loc 1 213 14
 1358 084c 635E2019 		blez	s2,.L88
 1359              	.LBB30:
 215:src/Tests.cpp ****         Riscv::printInteger(sz);
 1360              		.loc 1 215 9
 215:src/Tests.cpp ****         Riscv::printInteger(sz);
 1361              		.loc 1 215 27 is_stmt 0
 1362 0850 17050000 		lla	a0,.LC14
 1362      13050500 
 1363 0858 97000000 		call	_ZN5Riscv11printStringEPKc@plt
 1363      E7800000 
 1364              	.LVL145:
 216:src/Tests.cpp ****         for(int i = 0 ; i < num;i+=2)
 1365              		.loc 1 216 9 is_stmt 1
 216:src/Tests.cpp ****         for(int i = 0 ; i < num;i+=2)
 1366              		.loc 1 216 28 is_stmt 0
 1367 0860 93090900 		mv	s3,s2
 1368 0864 13050900 		mv	a0,s2
 1369 0868 97000000 		call	_ZN5Riscv12printIntegerEm@plt
 1369      E7800000 
 1370              	.LVL146:
GAS LISTING /tmp/cckkWbmy.s 			page 34


 1371              	.LBB31:
 217:src/Tests.cpp ****         {
 1372              		.loc 1 217 17
 1373 0870 93040000 		li	s1,0
 1374              	.L92:
 1375              	.LVL147:
 217:src/Tests.cpp ****         {
 1376              		.loc 1 217 27 is_stmt 1 discriminator 1
 1377 0874 93073006 		li	a5,99
 1378 0878 63CA970A 		bgt	s1,a5,.L98
 1379              	.LBB32:
 219:src/Tests.cpp ****             Riscv::printInteger(i);
 1380              		.loc 1 219 13
 219:src/Tests.cpp ****             Riscv::printInteger(i);
 1381              		.loc 1 219 31 is_stmt 0
 1382 087c 17050000 		lla	a0,.LC2
 1382      13050500 
 1383 0884 97000000 		call	_ZN5Riscv11printStringEPKc@plt
 1383      E7800000 
 1384              	.LVL148:
 220:src/Tests.cpp ****             Riscv::printString("free\n");
 1385              		.loc 1 220 13 is_stmt 1
 220:src/Tests.cpp ****             Riscv::printString("free\n");
 1386              		.loc 1 220 32 is_stmt 0
 1387 088c 13850400 		mv	a0,s1
 1388 0890 97000000 		call	_ZN5Riscv12printIntegerEm@plt
 1388      E7800000 
 1389              	.LVL149:
 221:src/Tests.cpp ****             int retval = mem_free(addrs[i]);
 1390              		.loc 1 221 13 is_stmt 1
 221:src/Tests.cpp ****             int retval = mem_free(addrs[i]);
 1391              		.loc 1 221 31 is_stmt 0
 1392 0898 17050000 		lla	a0,.LC15
 1392      13050500 
 1393 08a0 97000000 		call	_ZN5Riscv11printStringEPKc@plt
 1393      E7800000 
 1394              	.LVL150:
 222:src/Tests.cpp ****             if(retval != 0)
 1395              		.loc 1 222 13 is_stmt 1
 222:src/Tests.cpp ****             if(retval != 0)
 1396              		.loc 1 222 34 is_stmt 0
 1397 08a8 93973400 		slli	a5,s1,3
 1398 08ac 130704FD 		addi	a4,s0,-48
 1399 08b0 B307F700 		add	a5,a4,a5
 1400 08b4 03B507CE 		ld	a0,-800(a5)
 1401 08b8 97000000 		call	mem_free@plt
 1401      E7800000 
 1402              	.LVL151:
 223:src/Tests.cpp ****             {
 1403              		.loc 1 223 13 is_stmt 1
 1404 08c0 63120504 		bnez	a0,.L100
 228:src/Tests.cpp ****             addrs[i] = mem_alloc(sz/2);
 1405              		.loc 1 228 13
 228:src/Tests.cpp ****             addrs[i] = mem_alloc(sz/2);
 1406              		.loc 1 228 31 is_stmt 0
 1407 08c4 17050000 		lla	a0,.LC16
 1407      13050500 
GAS LISTING /tmp/cckkWbmy.s 			page 35


 1408              	.LVL152:
 1409 08cc 97000000 		call	_ZN5Riscv11printStringEPKc@plt
 1409      E7800000 
 1410              	.LVL153:
 229:src/Tests.cpp ****             if(addrs[i] == 0)
 1411              		.loc 1 229 13 is_stmt 1
 229:src/Tests.cpp ****             if(addrs[i] == 0)
 1412              		.loc 1 229 36 is_stmt 0
 1413 08d4 1B55F901 		srliw	a0,s2,31
 1414 08d8 3B052501 		addw	a0,a0,s2
 229:src/Tests.cpp ****             if(addrs[i] == 0)
 1415              		.loc 1 229 33
 1416 08dc 1B551540 		sraiw	a0,a0,1
 1417 08e0 97000000 		call	mem_alloc@plt
 1417      E7800000 
 1418              	.LVL154:
 229:src/Tests.cpp ****             if(addrs[i] == 0)
 1419              		.loc 1 229 22
 1420 08e8 93973400 		slli	a5,s1,3
 1421 08ec 130704FD 		addi	a4,s0,-48
 1422 08f0 B307F700 		add	a5,a4,a5
 1423 08f4 23B0A7CE 		sd	a0,-800(a5)
 230:src/Tests.cpp ****             {
 1424              		.loc 1 230 13 is_stmt 1
 1425 08f8 63000502 		beqz	a0,.L101
 1426              	.LBE32:
 217:src/Tests.cpp ****         {
 1427              		.loc 1 217 9 discriminator 2
 217:src/Tests.cpp ****         {
 1428              		.loc 1 217 34 is_stmt 0 discriminator 2
 1429 08fc 9B842400 		addiw	s1,s1,2
 1430              	.LVL155:
 217:src/Tests.cpp ****         {
 1431              		.loc 1 217 9 discriminator 2
 1432 0900 6FF05FF7 		j	.L92
 1433              	.LVL156:
 1434              	.L100:
 1435              	.LBB33:
 225:src/Tests.cpp ****                 return;
 1436              		.loc 1 225 17 is_stmt 1
 225:src/Tests.cpp ****                 return;
 1437              		.loc 1 225 35 is_stmt 0
 1438 0904 17050000 		lla	a0,.LC8
 1438      13050500 
 1439              	.LVL157:
 1440 090c 97000000 		call	_ZN5Riscv11printStringEPKc@plt
 1440      E7800000 
 1441              	.LVL158:
 226:src/Tests.cpp ****             }
 1442              		.loc 1 226 17 is_stmt 1
 1443 0914 6FF09FF1 		j	.L83
 1444              	.L101:
 232:src/Tests.cpp ****                 return;
 1445              		.loc 1 232 17
 232:src/Tests.cpp ****                 return;
 1446              		.loc 1 232 35 is_stmt 0
 1447 0918 17050000 		lla	a0,.LC17
GAS LISTING /tmp/cckkWbmy.s 			page 36


 1447      13050500 
 1448 0920 97000000 		call	_ZN5Riscv11printStringEPKc@plt
 1448      E7800000 
 1449              	.LVL159:
 233:src/Tests.cpp ****             }
 1450              		.loc 1 233 17 is_stmt 1
 1451 0928 6FF05FF0 		j	.L83
 1452              	.L98:
 1453              	.LBE33:
 1454              	.LBE31:
 1455              	.LBB34:
 238:src/Tests.cpp ****         {
 1456              		.loc 1 238 17 is_stmt 0
 1457 092c 93041000 		li	s1,1
 1458              	.LVL160:
 1459              	.L89:
 238:src/Tests.cpp ****         {
 1460              		.loc 1 238 27 is_stmt 1 discriminator 1
 1461 0930 93073006 		li	a5,99
 1462 0934 63C6970A 		bgt	s1,a5,.L93
 1463              	.LBB35:
 240:src/Tests.cpp ****             Riscv::printInteger(i);
 1464              		.loc 1 240 13
 240:src/Tests.cpp ****             Riscv::printInteger(i);
 1465              		.loc 1 240 31 is_stmt 0
 1466 0938 17050000 		lla	a0,.LC2
 1466      13050500 
 1467 0940 97000000 		call	_ZN5Riscv11printStringEPKc@plt
 1467      E7800000 
 1468              	.LVL161:
 241:src/Tests.cpp ****             Riscv::printString("free\n");
 1469              		.loc 1 241 13 is_stmt 1
 241:src/Tests.cpp ****             Riscv::printString("free\n");
 1470              		.loc 1 241 32 is_stmt 0
 1471 0948 13850400 		mv	a0,s1
 1472 094c 97000000 		call	_ZN5Riscv12printIntegerEm@plt
 1472      E7800000 
 1473              	.LVL162:
 242:src/Tests.cpp ****             int retval = mem_free(addrs[i]);
 1474              		.loc 1 242 13 is_stmt 1
 242:src/Tests.cpp ****             int retval = mem_free(addrs[i]);
 1475              		.loc 1 242 31 is_stmt 0
 1476 0954 17050000 		lla	a0,.LC15
 1476      13050500 
 1477 095c 97000000 		call	_ZN5Riscv11printStringEPKc@plt
 1477      E7800000 
 1478              	.LVL163:
 243:src/Tests.cpp ****             if(retval != 0)
 1479              		.loc 1 243 13 is_stmt 1
 243:src/Tests.cpp ****             if(retval != 0)
 1480              		.loc 1 243 34 is_stmt 0
 1481 0964 93973400 		slli	a5,s1,3
 1482 0968 130704FD 		addi	a4,s0,-48
 1483 096c B307F700 		add	a5,a4,a5
 1484 0970 03B507CE 		ld	a0,-800(a5)
 1485 0974 97000000 		call	mem_free@plt
 1485      E7800000 
GAS LISTING /tmp/cckkWbmy.s 			page 37


 1486              	.LVL164:
 244:src/Tests.cpp ****             {
 1487              		.loc 1 244 13 is_stmt 1
 1488 097c 631E0502 		bnez	a0,.L102
 249:src/Tests.cpp ****             addrs[i] = mem_alloc(sz);
 1489              		.loc 1 249 13
 249:src/Tests.cpp ****             addrs[i] = mem_alloc(sz);
 1490              		.loc 1 249 31 is_stmt 0
 1491 0980 17050000 		lla	a0,.LC16
 1491      13050500 
 1492              	.LVL165:
 1493 0988 97000000 		call	_ZN5Riscv11printStringEPKc@plt
 1493      E7800000 
 1494              	.LVL166:
 250:src/Tests.cpp ****             if(addrs[i] == 0)
 1495              		.loc 1 250 13 is_stmt 1
 250:src/Tests.cpp ****             if(addrs[i] == 0)
 1496              		.loc 1 250 33 is_stmt 0
 1497 0990 13850900 		mv	a0,s3
 1498 0994 97000000 		call	mem_alloc@plt
 1498      E7800000 
 1499              	.LVL167:
 250:src/Tests.cpp ****             if(addrs[i] == 0)
 1500              		.loc 1 250 22
 1501 099c 93973400 		slli	a5,s1,3
 1502 09a0 130704FD 		addi	a4,s0,-48
 1503 09a4 B307F700 		add	a5,a4,a5
 1504 09a8 23B0A7CE 		sd	a0,-800(a5)
 251:src/Tests.cpp ****             {
 1505              		.loc 1 251 13 is_stmt 1
 1506 09ac 63000502 		beqz	a0,.L103
 1507              	.LBE35:
 238:src/Tests.cpp ****         {
 1508              		.loc 1 238 9 discriminator 2
 238:src/Tests.cpp ****         {
 1509              		.loc 1 238 34 is_stmt 0 discriminator 2
 1510 09b0 9B842400 		addiw	s1,s1,2
 1511              	.LVL168:
 238:src/Tests.cpp ****         {
 1512              		.loc 1 238 9 discriminator 2
 1513 09b4 6FF0DFF7 		j	.L89
 1514              	.LVL169:
 1515              	.L102:
 1516              	.LBB36:
 246:src/Tests.cpp ****                 return;
 1517              		.loc 1 246 17 is_stmt 1
 246:src/Tests.cpp ****                 return;
 1518              		.loc 1 246 35 is_stmt 0
 1519 09b8 17050000 		lla	a0,.LC8
 1519      13050500 
 1520              	.LVL170:
 1521 09c0 97000000 		call	_ZN5Riscv11printStringEPKc@plt
 1521      E7800000 
 1522              	.LVL171:
 247:src/Tests.cpp ****             }
 1523              		.loc 1 247 17 is_stmt 1
 1524 09c8 6FF05FE6 		j	.L83
GAS LISTING /tmp/cckkWbmy.s 			page 38


 1525              	.L103:
 253:src/Tests.cpp ****                 return;
 1526              		.loc 1 253 17
 253:src/Tests.cpp ****                 return;
 1527              		.loc 1 253 35 is_stmt 0
 1528 09cc 17050000 		lla	a0,.LC17
 1528      13050500 
 1529 09d4 97000000 		call	_ZN5Riscv11printStringEPKc@plt
 1529      E7800000 
 1530              	.LVL172:
 254:src/Tests.cpp ****             }
 1531              		.loc 1 254 17 is_stmt 1
 1532 09dc 6FF01FE5 		j	.L83
 1533              	.L93:
 1534              	.LBE36:
 1535              	.LBE34:
 258:src/Tests.cpp ****     }
 1536              		.loc 1 258 9
 258:src/Tests.cpp ****     }
 1537              		.loc 1 258 11 is_stmt 0
 1538 09e0 1B0969FF 		addiw	s2,s2,-10
 1539              	.LVL173:
 1540              	.LBE30:
 213:src/Tests.cpp ****     {
 1541              		.loc 1 213 5
 1542 09e4 6FF09FE6 		j	.L84
 1543              	.LVL174:
 1544              	.L88:
 261:src/Tests.cpp **** }
 1545              		.loc 1 261 5 is_stmt 1
 261:src/Tests.cpp **** }
 1546              		.loc 1 261 23 is_stmt 0
 1547 09e8 17050000 		lla	a0,.LC9
 1547      13050500 
 1548 09f0 97000000 		call	_ZN5Riscv11printStringEPKc@plt
 1548      E7800000 
 1549              	.LVL175:
 1550 09f8 6FF05FE3 		j	.L83
 1551              		.cfi_endproc
 1552              	.LFE32:
 1554              		.align	2
 1555              		.globl	_Z21memoryAllocationTestsv
 1557              	_Z21memoryAllocationTestsv:
 1558              	.LFB33:
 263:src/Tests.cpp **** 
 264:src/Tests.cpp **** void memoryAllocationTests()
 265:src/Tests.cpp **** {
 1559              		.loc 1 265 1 is_stmt 1
 1560              		.cfi_startproc
 1561 09fc 130101FF 		addi	sp,sp,-16
 1562              		.cfi_def_cfa_offset 16
 1563 0a00 23341100 		sd	ra,8(sp)
 1564 0a04 23308100 		sd	s0,0(sp)
 1565              		.cfi_offset 1, -8
 1566              		.cfi_offset 8, -16
 1567 0a08 13040101 		addi	s0,sp,16
 1568              		.cfi_def_cfa 8, 0
GAS LISTING /tmp/cckkWbmy.s 			page 39


 266:src/Tests.cpp ****     //bigMalloc();
 267:src/Tests.cpp ****     //lotOfSmallMallocs();
 268:src/Tests.cpp ****     //mallocFree();
 269:src/Tests.cpp ****     //badFree();
 270:src/Tests.cpp ****     stressTesting();
 1569              		.loc 1 270 5
 1570              		.loc 1 270 18 is_stmt 0
 1571 0a0c 97000000 		call	_Z13stressTestingv
 1571      E7800000 
 1572              	.LVL176:
 271:src/Tests.cpp **** }
 1573              		.loc 1 271 1
 1574 0a14 83308100 		ld	ra,8(sp)
 1575              		.cfi_restore 1
 1576 0a18 03340100 		ld	s0,0(sp)
 1577              		.cfi_restore 8
 1578              		.cfi_def_cfa 2, 16
 1579 0a1c 13010101 		addi	sp,sp,16
 1580              		.cfi_def_cfa_offset 0
 1581 0a20 67800000 		jr	ra
 1582              		.cfi_endproc
 1583              	.LFE33:
 1585              	.Letext0:
 1586              		.file 3 "src/../h/../lib/hw.h"
 1587              		.file 4 "src/../h/Riscv.h"
 1588              		.file 5 "src/../h/syscall_cpp.h"
 1589              		.file 6 "src/../h/Tests.h"
 1590              		.file 7 "src/../h/syscall_c.h"
 6067              		.align	3
 6070              	DW.ref.__gxx_personality_v0:
 6071 0000 00000000 		.dword	__gxx_personality_v0
 6071      00000000 
 6072              		.ident	"GCC: (Ubuntu 9.3.0-17ubuntu1~20.04) 9.3.0"
 6073              		.section	.note.GNU-stack,"",@progbits
GAS LISTING /tmp/cckkWbmy.s 			page 40

