GAS LISTING /tmp/ccDWEfAB.s 			page 1


   1              		.file	"Tests.cpp"
   2              		.option pic
   3              		.option norelax
   4              		.text
   5              	.Ltext0:
   6              		.section	.text._ZN6Thread3runEv,"axG",@progbits,_ZN6Thread3runEv,comdat
   7              		.align	2
   8              		.weak	_ZN6Thread3runEv
  10              	_ZN6Thread3runEv:
  11              	.LFB21:
  12              		.file 1 "src/../h/syscall_cpp.hpp"
   1:src/../h/syscall_cpp.hpp **** //
   2:src/../h/syscall_cpp.hpp **** // Created by os on 4/8/22.
   3:src/../h/syscall_cpp.hpp **** //
   4:src/../h/syscall_cpp.hpp **** 
   5:src/../h/syscall_cpp.hpp **** #ifndef PROJECT_BASE_V1_0_SYSCALL_CPP_HPP
   6:src/../h/syscall_cpp.hpp **** #define PROJECT_BASE_V1_0_SYSCALL_CPP_HPP
   7:src/../h/syscall_cpp.hpp **** 
   8:src/../h/syscall_cpp.hpp **** #include "syscall_c.h"
   9:src/../h/syscall_cpp.hpp **** #include "PCB.hpp"
  10:src/../h/syscall_cpp.hpp **** #include "KSemaphore.hpp"
  11:src/../h/syscall_cpp.hpp **** 
  12:src/../h/syscall_cpp.hpp **** void * operator new(size_t size);
  13:src/../h/syscall_cpp.hpp **** 
  14:src/../h/syscall_cpp.hpp **** void operator delete(void * p);
  15:src/../h/syscall_cpp.hpp **** 
  16:src/../h/syscall_cpp.hpp **** class Thread
  17:src/../h/syscall_cpp.hpp **** {
  18:src/../h/syscall_cpp.hpp **** public:
  19:src/../h/syscall_cpp.hpp ****     Thread(void (*body)(void*), void* args);
  20:src/../h/syscall_cpp.hpp **** 
  21:src/../h/syscall_cpp.hpp ****     //todo
  22:src/../h/syscall_cpp.hpp ****     virtual ~Thread();
  23:src/../h/syscall_cpp.hpp **** 
  24:src/../h/syscall_cpp.hpp ****     int start();
  25:src/../h/syscall_cpp.hpp **** 
  26:src/../h/syscall_cpp.hpp ****     static void dispatch();
  27:src/../h/syscall_cpp.hpp **** 
  28:src/../h/syscall_cpp.hpp ****     static void sleep(time_t);
  29:src/../h/syscall_cpp.hpp **** 
  30:src/../h/syscall_cpp.hpp ****     //todo
  31:src/../h/syscall_cpp.hpp ****     //vrati u private
  32:src/../h/syscall_cpp.hpp ****     //ovde je samo za potrebe testiranja
  33:src/../h/syscall_cpp.hpp ****     PCB* myHandle;
  34:src/../h/syscall_cpp.hpp **** protected:
  35:src/../h/syscall_cpp.hpp ****     Thread();
  36:src/../h/syscall_cpp.hpp **** 
  37:src/../h/syscall_cpp.hpp ****     virtual void run() {}
  13              		.loc 1 37 18
  14              		.cfi_startproc
  15              	.LVL0:
  16 0000 130101FF 		addi	sp,sp,-16
  17              		.cfi_def_cfa_offset 16
  18 0004 23348100 		sd	s0,8(sp)
  19              		.cfi_offset 8, -8
  20 0008 13040101 		addi	s0,sp,16
  21              		.cfi_def_cfa 8, 0
GAS LISTING /tmp/ccDWEfAB.s 			page 2


  22              		.loc 1 37 25 is_stmt 0
  23 000c 03348100 		ld	s0,8(sp)
  24              		.cfi_restore 8
  25              		.cfi_def_cfa 2, 16
  26 0010 13010101 		addi	sp,sp,16
  27              		.cfi_def_cfa_offset 0
  28 0014 67800000 		jr	ra
  29              		.cfi_endproc
  30              	.LFE21:
  32              		.section	.text._ZN14PeriodicThread18periodicActivationEv,"axG",@progbits,_ZN14PeriodicThread18peri
  33              		.align	2
  34              		.weak	_ZN14PeriodicThread18periodicActivationEv
  36              	_ZN14PeriodicThread18periodicActivationEv:
  37              	.LFB22:
  38:src/../h/syscall_cpp.hpp **** private:
  39:src/../h/syscall_cpp.hpp ****     void (*f)(void*);
  40:src/../h/syscall_cpp.hpp ****     void* args;
  41:src/../h/syscall_cpp.hpp ****     static void runner(void* t);
  42:src/../h/syscall_cpp.hpp **** };
  43:src/../h/syscall_cpp.hpp **** 
  44:src/../h/syscall_cpp.hpp **** class Semaphore
  45:src/../h/syscall_cpp.hpp **** {
  46:src/../h/syscall_cpp.hpp **** public:
  47:src/../h/syscall_cpp.hpp ****     Semaphore(unsigned init = 1);
  48:src/../h/syscall_cpp.hpp **** 
  49:src/../h/syscall_cpp.hpp ****     virtual ~Semaphore();
  50:src/../h/syscall_cpp.hpp **** 
  51:src/../h/syscall_cpp.hpp ****     int wait();
  52:src/../h/syscall_cpp.hpp ****     int signal();
  53:src/../h/syscall_cpp.hpp **** 
  54:src/../h/syscall_cpp.hpp **** private:
  55:src/../h/syscall_cpp.hpp ****     KSemaphore* myHandle;
  56:src/../h/syscall_cpp.hpp **** };
  57:src/../h/syscall_cpp.hpp **** 
  58:src/../h/syscall_cpp.hpp **** class Console
  59:src/../h/syscall_cpp.hpp **** {
  60:src/../h/syscall_cpp.hpp **** public:
  61:src/../h/syscall_cpp.hpp ****     static char getc();
  62:src/../h/syscall_cpp.hpp ****     static void putc(char);
  63:src/../h/syscall_cpp.hpp **** };
  64:src/../h/syscall_cpp.hpp **** 
  65:src/../h/syscall_cpp.hpp **** class PeriodicThread : public Thread
  66:src/../h/syscall_cpp.hpp **** {
  67:src/../h/syscall_cpp.hpp **** protected:
  68:src/../h/syscall_cpp.hpp ****     PeriodicThread(time_t period);
  69:src/../h/syscall_cpp.hpp ****     virtual void periodicActivation() {};
  38              		.loc 1 69 18 is_stmt 1
  39              		.cfi_startproc
  40              	.LVL1:
  41 0000 130101FF 		addi	sp,sp,-16
  42              		.cfi_def_cfa_offset 16
  43 0004 23348100 		sd	s0,8(sp)
  44              		.cfi_offset 8, -8
  45 0008 13040101 		addi	s0,sp,16
  46              		.cfi_def_cfa 8, 0
  47              		.loc 1 69 40 is_stmt 0
  48 000c 03348100 		ld	s0,8(sp)
GAS LISTING /tmp/ccDWEfAB.s 			page 3


  49              		.cfi_restore 8
  50              		.cfi_def_cfa 2, 16
  51 0010 13010101 		addi	sp,sp,16
  52              		.cfi_def_cfa_offset 0
  53 0014 67800000 		jr	ra
  54              		.cfi_endproc
  55              	.LFE22:
  57              		.section	.rodata.str1.8,"aMS",@progbits,1
  58              		.align	3
  59              	.LC0:
  60 0000 49646C65 		.string	"Idle\n"
  60      0A00
  61              		.text
  62              		.align	2
  63              		.globl	_Z4idlePv
  65              	_Z4idlePv:
  66              	.LFB23:
  67              		.file 2 "src/Tests.cpp"
   1:src/Tests.cpp **** //
   2:src/Tests.cpp **** // Created by os on 5/5/22.
   3:src/Tests.cpp **** //
   4:src/Tests.cpp **** 
   5:src/Tests.cpp **** #include "../h/Tests.hpp"
   6:src/Tests.cpp **** #include "../lib/console.h"
   7:src/Tests.cpp **** 
   8:src/Tests.cpp **** void idle(void* args)
   9:src/Tests.cpp **** {
  68              		.loc 2 9 1 is_stmt 1
  69              		.cfi_startproc
  70              	.LVL2:
  71 0000 130101FF 		addi	sp,sp,-16
  72              		.cfi_def_cfa_offset 16
  73 0004 23341100 		sd	ra,8(sp)
  74 0008 23308100 		sd	s0,0(sp)
  75              		.cfi_offset 1, -8
  76              		.cfi_offset 8, -16
  77 000c 13040101 		addi	s0,sp,16
  78              		.cfi_def_cfa 8, 0
  79              	.LVL3:
  80              	.L6:
  10:src/Tests.cpp ****     while(true)
  81              		.loc 2 10 5 discriminator 1
  11:src/Tests.cpp ****     {
  12:src/Tests.cpp ****         Riscv::printString("Idle\n");
  82              		.loc 2 12 9 discriminator 1
  83              		.loc 2 12 27 is_stmt 0 discriminator 1
  84 0010 17050000 		lla	a0,.LC0
  84      13050500 
  85 0018 97000000 		call	_ZN5Riscv11printStringEPKc@plt
  85      E7800000 
  86              	.LVL4:
  13:src/Tests.cpp ****         thread_dispatch();
  87              		.loc 2 13 9 is_stmt 1 discriminator 1
  88              		.loc 2 13 24 is_stmt 0 discriminator 1
  89 0020 97000000 		call	thread_dispatch@plt
  89      E7800000 
  90              	.LVL5:
GAS LISTING /tmp/ccDWEfAB.s 			page 4


  10:src/Tests.cpp ****     while(true)
  91              		.loc 2 10 5 is_stmt 1 discriminator 1
  92 0028 6FF09FFE 		j	.L6
  93              		.cfi_endproc
  94              	.LFE23:
  96              		.section	.rodata.str1.8
  97 0006 0000     		.align	3
  98              	.LC1:
  99 0008 54687265 		.string	"Thread 1 started...\n"
  99      61642031 
  99      20737461 
  99      72746564 
  99      2E2E2E0A 
 100 001d 000000   		.align	3
 101              	.LC2:
 102 0020 69203A20 		.string	"i : "
 102      00
 103 0025 000000   		.align	3
 104              	.LC3:
 105 0028 0A00     		.string	"\n"
 106              		.text
 107              		.align	2
 108              		.globl	_Z15thread1FunctionPv
 110              	_Z15thread1FunctionPv:
 111              	.LFB24:
  14:src/Tests.cpp ****     }
  15:src/Tests.cpp **** }
  16:src/Tests.cpp **** 
  17:src/Tests.cpp **** void thread1Function(void* p)
  18:src/Tests.cpp **** {
 112              		.loc 2 18 1
 113              		.cfi_startproc
 114              	.LVL6:
 115 002c 130101FE 		addi	sp,sp,-32
 116              		.cfi_def_cfa_offset 32
 117 0030 233C1100 		sd	ra,24(sp)
 118 0034 23388100 		sd	s0,16(sp)
 119 0038 23349100 		sd	s1,8(sp)
 120              		.cfi_offset 1, -8
 121              		.cfi_offset 8, -16
 122              		.cfi_offset 9, -24
 123 003c 13040102 		addi	s0,sp,32
 124              		.cfi_def_cfa 8, 0
  19:src/Tests.cpp ****     Riscv::printString("Thread 1 started...\n");
 125              		.loc 2 19 5
 126              		.loc 2 19 23 is_stmt 0
 127 0040 17050000 		lla	a0,.LC1
 127      13050500 
 128              	.LVL7:
 129 0048 97000000 		call	_ZN5Riscv11printStringEPKc@plt
 129      E7800000 
 130              	.LVL8:
  20:src/Tests.cpp ****     uint64 num = 10000;
 131              		.loc 2 20 5 is_stmt 1
  21:src/Tests.cpp ****     for(uint64 i = 0; i < num;i++)
 132              		.loc 2 21 5
 133              	.LBB20:
GAS LISTING /tmp/ccDWEfAB.s 			page 5


 134              		.loc 2 21 16 is_stmt 0
 135 0050 93040000 		li	s1,0
 136 0054 6F00C003 		j	.L11
 137              	.LVL9:
 138              	.L13:
  22:src/Tests.cpp ****     {
  23:src/Tests.cpp ****         if(i % 150 == 0 && i > 0)
  24:src/Tests.cpp ****             thread_dispatch();
 139              		.loc 2 24 13 is_stmt 1
 140              		.loc 2 24 28 is_stmt 0
 141 0058 97000000 		call	thread_dispatch@plt
 141      E7800000 
 142              	.LVL10:
 143              	.L10:
  25:src/Tests.cpp ****         Riscv::printString("i : ");
 144              		.loc 2 25 9 is_stmt 1 discriminator 2
 145              		.loc 2 25 27 is_stmt 0 discriminator 2
 146 0060 17050000 		lla	a0,.LC2
 146      13050500 
 147 0068 97000000 		call	_ZN5Riscv11printStringEPKc@plt
 147      E7800000 
 148              	.LVL11:
  26:src/Tests.cpp ****         Riscv::printInteger(i);
 149              		.loc 2 26 9 is_stmt 1 discriminator 2
 150              		.loc 2 26 28 is_stmt 0 discriminator 2
 151 0070 13850400 		mv	a0,s1
 152 0074 97000000 		call	_ZN5Riscv12printIntegerEm@plt
 152      E7800000 
 153              	.LVL12:
  27:src/Tests.cpp ****         Riscv::printString("\n");
 154              		.loc 2 27 9 is_stmt 1 discriminator 2
 155              		.loc 2 27 27 is_stmt 0 discriminator 2
 156 007c 17050000 		lla	a0,.LC3
 156      13050500 
 157 0084 97000000 		call	_ZN5Riscv11printStringEPKc@plt
 157      E7800000 
 158              	.LVL13:
  21:src/Tests.cpp ****     {
 159              		.loc 2 21 5 is_stmt 1 discriminator 2
 160 008c 93841400 		addi	s1,s1,1
 161              	.LVL14:
 162              	.L11:
  21:src/Tests.cpp ****     {
 163              		.loc 2 21 25 discriminator 1
 164 0090 B7270000 		li	a5,8192
 165 0094 9387F770 		addi	a5,a5,1807
 166 0098 63EC9700 		bgtu	s1,a5,.L8
  23:src/Tests.cpp ****             thread_dispatch();
 167              		.loc 2 23 9
  23:src/Tests.cpp ****             thread_dispatch();
 168              		.loc 2 23 14 is_stmt 0
 169 009c 93076009 		li	a5,150
 170 00a0 B3F7F402 		remu	a5,s1,a5
  23:src/Tests.cpp ****             thread_dispatch();
 171              		.loc 2 23 9
 172 00a4 E39E07FA 		bnez	a5,.L10
  23:src/Tests.cpp ****             thread_dispatch();
GAS LISTING /tmp/ccDWEfAB.s 			page 6


 173              		.loc 2 23 25 discriminator 1
 174 00a8 E38C04FA 		beqz	s1,.L10
 175 00ac 6FF0DFFA 		j	.L13
 176              	.L8:
 177              	.LBE20:
  28:src/Tests.cpp ****     }
  29:src/Tests.cpp **** }
 178              		.loc 2 29 1
 179 00b0 83308101 		ld	ra,24(sp)
 180              		.cfi_restore 1
 181 00b4 03340101 		ld	s0,16(sp)
 182              		.cfi_restore 8
 183              		.cfi_def_cfa 2, 32
 184 00b8 83348100 		ld	s1,8(sp)
 185              		.cfi_restore 9
 186              	.LVL15:
 187 00bc 13010102 		addi	sp,sp,32
 188              		.cfi_def_cfa_offset 0
 189 00c0 67800000 		jr	ra
 190              		.cfi_endproc
 191              	.LFE24:
 193              		.section	.rodata.str1.8
 194 002a 00000000 		.align	3
 194      0000
 195              	.LC4:
 196 0030 54687265 		.string	"Thread 2 started...\n"
 196      61642032 
 196      20737461 
 196      72746564 
 196      2E2E2E0A 
 197 0045 000000   		.align	3
 198              	.LC5:
 199 0048 6A203A20 		.string	"j : "
 199      00
 200              		.text
 201              		.align	2
 202              		.globl	_Z15thread2FunctionPv
 204              	_Z15thread2FunctionPv:
 205              	.LFB25:
  30:src/Tests.cpp **** 
  31:src/Tests.cpp **** void thread2Function(void* p)
  32:src/Tests.cpp **** {
 206              		.loc 2 32 1 is_stmt 1
 207              		.cfi_startproc
 208              	.LVL16:
 209 00c4 130101FE 		addi	sp,sp,-32
 210              		.cfi_def_cfa_offset 32
 211 00c8 233C1100 		sd	ra,24(sp)
 212 00cc 23388100 		sd	s0,16(sp)
 213 00d0 23349100 		sd	s1,8(sp)
 214              		.cfi_offset 1, -8
 215              		.cfi_offset 8, -16
 216              		.cfi_offset 9, -24
 217 00d4 13040102 		addi	s0,sp,32
 218              		.cfi_def_cfa 8, 0
  33:src/Tests.cpp ****     Riscv::printString("Thread 2 started...\n");
 219              		.loc 2 33 5
GAS LISTING /tmp/ccDWEfAB.s 			page 7


 220              		.loc 2 33 23 is_stmt 0
 221 00d8 17050000 		lla	a0,.LC4
 221      13050500 
 222              	.LVL17:
 223 00e0 97000000 		call	_ZN5Riscv11printStringEPKc@plt
 223      E7800000 
 224              	.LVL18:
  34:src/Tests.cpp ****     uint64 num = 10000;
 225              		.loc 2 34 5 is_stmt 1
  35:src/Tests.cpp ****     for(uint64 j = 0; j < num;j++)
 226              		.loc 2 35 5
 227              	.LBB21:
 228              		.loc 2 35 16 is_stmt 0
 229 00e8 93040000 		li	s1,0
 230 00ec 6F00C003 		j	.L17
 231              	.LVL19:
 232              	.L19:
  36:src/Tests.cpp ****     {
  37:src/Tests.cpp ****         if(j % 50 == 0 && j > 0)
  38:src/Tests.cpp ****             thread_dispatch();
 233              		.loc 2 38 13 is_stmt 1
 234              		.loc 2 38 28 is_stmt 0
 235 00f0 97000000 		call	thread_dispatch@plt
 235      E7800000 
 236              	.LVL20:
 237              	.L16:
  39:src/Tests.cpp ****         Riscv::printString("j : ");
 238              		.loc 2 39 9 is_stmt 1 discriminator 2
 239              		.loc 2 39 27 is_stmt 0 discriminator 2
 240 00f8 17050000 		lla	a0,.LC5
 240      13050500 
 241 0100 97000000 		call	_ZN5Riscv11printStringEPKc@plt
 241      E7800000 
 242              	.LVL21:
  40:src/Tests.cpp ****         Riscv::printInteger(j);
 243              		.loc 2 40 9 is_stmt 1 discriminator 2
 244              		.loc 2 40 28 is_stmt 0 discriminator 2
 245 0108 13850400 		mv	a0,s1
 246 010c 97000000 		call	_ZN5Riscv12printIntegerEm@plt
 246      E7800000 
 247              	.LVL22:
  41:src/Tests.cpp ****         Riscv::printString("\n");
 248              		.loc 2 41 9 is_stmt 1 discriminator 2
 249              		.loc 2 41 27 is_stmt 0 discriminator 2
 250 0114 17050000 		lla	a0,.LC3
 250      13050500 
 251 011c 97000000 		call	_ZN5Riscv11printStringEPKc@plt
 251      E7800000 
 252              	.LVL23:
  35:src/Tests.cpp ****     {
 253              		.loc 2 35 5 is_stmt 1 discriminator 2
 254 0124 93841400 		addi	s1,s1,1
 255              	.LVL24:
 256              	.L17:
  35:src/Tests.cpp ****     {
 257              		.loc 2 35 25 discriminator 1
 258 0128 B7270000 		li	a5,8192
GAS LISTING /tmp/ccDWEfAB.s 			page 8


 259 012c 9387F770 		addi	a5,a5,1807
 260 0130 63EC9700 		bgtu	s1,a5,.L14
  37:src/Tests.cpp ****             thread_dispatch();
 261              		.loc 2 37 9
  37:src/Tests.cpp ****             thread_dispatch();
 262              		.loc 2 37 14 is_stmt 0
 263 0134 93072003 		li	a5,50
 264 0138 B3F7F402 		remu	a5,s1,a5
  37:src/Tests.cpp ****             thread_dispatch();
 265              		.loc 2 37 9
 266 013c E39E07FA 		bnez	a5,.L16
  37:src/Tests.cpp ****             thread_dispatch();
 267              		.loc 2 37 24 discriminator 1
 268 0140 E38C04FA 		beqz	s1,.L16
 269 0144 6FF0DFFA 		j	.L19
 270              	.L14:
 271              	.LBE21:
  42:src/Tests.cpp ****     }
  43:src/Tests.cpp **** }
 272              		.loc 2 43 1
 273 0148 83308101 		ld	ra,24(sp)
 274              		.cfi_restore 1
 275 014c 03340101 		ld	s0,16(sp)
 276              		.cfi_restore 8
 277              		.cfi_def_cfa 2, 32
 278 0150 83348100 		ld	s1,8(sp)
 279              		.cfi_restore 9
 280              	.LVL25:
 281 0154 13010102 		addi	sp,sp,32
 282              		.cfi_def_cfa_offset 0
 283 0158 67800000 		jr	ra
 284              		.cfi_endproc
 285              	.LFE25:
 287              		.align	2
 288              		.globl	_ZN12TestPeriodic18periodicActivationEv
 290              	_ZN12TestPeriodic18periodicActivationEv:
 291              	.LFB53:
  44:src/Tests.cpp **** 
  45:src/Tests.cpp **** void thread2FunctionTest2(void* p)
  46:src/Tests.cpp **** {
  47:src/Tests.cpp ****     Riscv::printString("Thread 2 started...\n");
  48:src/Tests.cpp ****     uint64 num = 10000;
  49:src/Tests.cpp ****     for(uint64 j = 0; j < num;j++)
  50:src/Tests.cpp ****     {
  51:src/Tests.cpp ****         if(j == 200)
  52:src/Tests.cpp ****             thread_exit();
  53:src/Tests.cpp ****         if(j % 50 == 0 && j > 0)
  54:src/Tests.cpp ****             thread_dispatch();
  55:src/Tests.cpp ****         Riscv::printString("j : ");
  56:src/Tests.cpp ****         Riscv::printInteger(j);
  57:src/Tests.cpp ****         Riscv::printString("\n");
  58:src/Tests.cpp ****     }
  59:src/Tests.cpp **** }
  60:src/Tests.cpp **** 
  61:src/Tests.cpp **** void threadTest1()
  62:src/Tests.cpp **** {
  63:src/Tests.cpp ****     Thread* t1 = new Thread(&thread1Function, 0);
GAS LISTING /tmp/ccDWEfAB.s 			page 9


  64:src/Tests.cpp ****     t1->start();
  65:src/Tests.cpp ****     Thread* t2 = new Thread(&thread2Function, 0);
  66:src/Tests.cpp ****     t2->start();
  67:src/Tests.cpp ****     Riscv::enableInterrupts();
  68:src/Tests.cpp ****     while(t1->myHandle->getState() != PCB::FINISHED || t2->myHandle->getState() != PCB::FINISHED)
  69:src/Tests.cpp ****     {
  70:src/Tests.cpp ****         Riscv::printString("Main thread\n");
  71:src/Tests.cpp ****         thread_dispatch();
  72:src/Tests.cpp ****     }
  73:src/Tests.cpp **** 
  74:src/Tests.cpp ****     Riscv::printString("End...\n");
  75:src/Tests.cpp ****     Riscv::disableInterrupts();
  76:src/Tests.cpp **** }
  77:src/Tests.cpp **** 
  78:src/Tests.cpp **** void threadTest2()
  79:src/Tests.cpp **** {
  80:src/Tests.cpp ****     Thread* idleThread = new Thread(&idle, 0);
  81:src/Tests.cpp ****     idleThread->start();
  82:src/Tests.cpp ****     Thread* t1 = new Thread(&thread1Function, 0);
  83:src/Tests.cpp ****     t1->start();
  84:src/Tests.cpp ****     Thread* t2  = new Thread(&thread2FunctionTest2, 0);
  85:src/Tests.cpp ****     t2->start();
  86:src/Tests.cpp **** 
  87:src/Tests.cpp ****     Riscv::enableInterrupts();
  88:src/Tests.cpp **** 
  89:src/Tests.cpp ****     while(idleThread->myHandle->getState() != PCB::FINISHED);
  90:src/Tests.cpp **** 
  91:src/Tests.cpp ****     Riscv::printString("End...\n");
  92:src/Tests.cpp **** 
  93:src/Tests.cpp ****     Riscv::disableInterrupts();
  94:src/Tests.cpp **** }
  95:src/Tests.cpp **** 
  96:src/Tests.cpp **** 
  97:src/Tests.cpp **** void threadTest3()
  98:src/Tests.cpp **** {
  99:src/Tests.cpp ****     Thread* t = new TestPeriodic(5);
 100:src/Tests.cpp ****     t->start();
 101:src/Tests.cpp ****     while(true)
 102:src/Tests.cpp ****     {
 103:src/Tests.cpp ****         thread_dispatch();
 104:src/Tests.cpp ****     }
 105:src/Tests.cpp **** }
 106:src/Tests.cpp **** 
 107:src/Tests.cpp **** void threadTests()
 108:src/Tests.cpp **** {
 109:src/Tests.cpp ****     //threadTest1();
 110:src/Tests.cpp ****     //threadTest2();
 111:src/Tests.cpp ****     //threadTest3();
 112:src/Tests.cpp **** }
 113:src/Tests.cpp **** 
 114:src/Tests.cpp **** 
 115:src/Tests.cpp **** //memory (de)allocation tests
 116:src/Tests.cpp **** void mallocFree()
 117:src/Tests.cpp **** {
 118:src/Tests.cpp ****     Riscv::printString("mallocFree\n");
 119:src/Tests.cpp ****     constexpr int num = 100;
 120:src/Tests.cpp ****     void* addrs[num];
GAS LISTING /tmp/ccDWEfAB.s 			page 10


 121:src/Tests.cpp ****     for(int i = 0; i < num;i++)
 122:src/Tests.cpp ****     {
 123:src/Tests.cpp ****         addrs[i] = mem_alloc(100);
 124:src/Tests.cpp ****         if(addrs[i] == 0)
 125:src/Tests.cpp ****         {
 126:src/Tests.cpp ****             Riscv::printString("not OK\n");
 127:src/Tests.cpp ****             return;
 128:src/Tests.cpp ****         }
 129:src/Tests.cpp **** 
 130:src/Tests.cpp ****     }
 131:src/Tests.cpp **** 
 132:src/Tests.cpp ****     for(int i = 0 ; i < num;i+=2)
 133:src/Tests.cpp ****     {
 134:src/Tests.cpp ****         int retval = mem_free(addrs[i]);
 135:src/Tests.cpp ****         if(retval != 0)
 136:src/Tests.cpp ****         {
 137:src/Tests.cpp ****             Riscv::printString("not OK\n");
 138:src/Tests.cpp ****             return;
 139:src/Tests.cpp ****         }
 140:src/Tests.cpp ****     }
 141:src/Tests.cpp **** 
 142:src/Tests.cpp ****     for(int i = 0 ; i < num;i+=2)
 143:src/Tests.cpp ****     {
 144:src/Tests.cpp ****         addrs[i] = mem_alloc(20);
 145:src/Tests.cpp ****         if(addrs[i] == 0)
 146:src/Tests.cpp ****         {
 147:src/Tests.cpp ****             Riscv::printString("not OK\n");
 148:src/Tests.cpp ****             return;
 149:src/Tests.cpp ****         }
 150:src/Tests.cpp ****     }
 151:src/Tests.cpp **** 
 152:src/Tests.cpp ****     for(int i = 0; i < num;i++)
 153:src/Tests.cpp ****     {
 154:src/Tests.cpp ****         int retval = mem_free(addrs[i]);
 155:src/Tests.cpp ****         if(retval != 0)
 156:src/Tests.cpp ****         {
 157:src/Tests.cpp ****             Riscv::printString("not OK\n");
 158:src/Tests.cpp ****             return;
 159:src/Tests.cpp ****         }
 160:src/Tests.cpp ****     }
 161:src/Tests.cpp **** 
 162:src/Tests.cpp ****     Riscv::printString("OK\n");
 163:src/Tests.cpp **** }
 164:src/Tests.cpp **** void bigMalloc()
 165:src/Tests.cpp **** {
 166:src/Tests.cpp ****     Riscv::printString("bigMalloc\n");
 167:src/Tests.cpp ****     uint64 x = (uint64)HEAP_END_ADDR - (uint64)HEAP_START_ADDR + 100UL;
 168:src/Tests.cpp ****     void* p = mem_alloc(x);
 169:src/Tests.cpp ****     if(p == 0)
 170:src/Tests.cpp ****         Riscv::printString("OK\n");
 171:src/Tests.cpp ****     else
 172:src/Tests.cpp ****         Riscv::printString("not OK\n");
 173:src/Tests.cpp **** }
 174:src/Tests.cpp **** 
 175:src/Tests.cpp **** void lotOfSmallMallocs()
 176:src/Tests.cpp **** {
 177:src/Tests.cpp ****     Riscv::printString("lotOfSmallMallocs\n");
GAS LISTING /tmp/ccDWEfAB.s 			page 11


 178:src/Tests.cpp ****     uint64 cnt = 0;
 179:src/Tests.cpp ****     uint64 sum = 0;
 180:src/Tests.cpp ****     uint64 N = 10000UL;
 181:src/Tests.cpp ****     uint64 X = 10UL;
 182:src/Tests.cpp ****     for(uint64 i = 0; i < N;i++)
 183:src/Tests.cpp ****     {
 184:src/Tests.cpp ****         Test* t = (Test*)mem_alloc(sizeof(Test));
 185:src/Tests.cpp ****         if(t == 0)
 186:src/Tests.cpp ****             break;
 187:src/Tests.cpp ****         t->a = X;
 188:src/Tests.cpp ****         sum+=t->a;
 189:src/Tests.cpp ****         cnt++;
 190:src/Tests.cpp ****     }
 191:src/Tests.cpp ****     Riscv::printInteger(cnt);
 192:src/Tests.cpp ****     Riscv::printString("\n");
 193:src/Tests.cpp ****     if(sum == X*cnt)
 194:src/Tests.cpp ****         Riscv::printString("OK\n");
 195:src/Tests.cpp ****     else
 196:src/Tests.cpp ****         Riscv::printString("not OK\n");
 197:src/Tests.cpp **** }
 198:src/Tests.cpp **** void badFree()
 199:src/Tests.cpp **** {
 200:src/Tests.cpp ****     Riscv::printString("badFree\n");
 201:src/Tests.cpp ****     Test* t = (Test*)mem_alloc(sizeof(Test));
 202:src/Tests.cpp ****     uint64 retval = mem_free((char*)t + 2);
 203:src/Tests.cpp ****     if(retval == 0)
 204:src/Tests.cpp ****         Riscv::printString("not OK\n");
 205:src/Tests.cpp ****     else
 206:src/Tests.cpp ****         Riscv::printString("OK\n");
 207:src/Tests.cpp **** }
 208:src/Tests.cpp **** 
 209:src/Tests.cpp **** void stressTesting()
 210:src/Tests.cpp **** {
 211:src/Tests.cpp ****     Riscv::printString("stressTesting\n");
 212:src/Tests.cpp ****     constexpr int num = 100;
 213:src/Tests.cpp ****     void* addrs[num];
 214:src/Tests.cpp ****     for(int i = 0; i < num;i++)
 215:src/Tests.cpp ****     {
 216:src/Tests.cpp ****         addrs[i] = mem_alloc(1);
 217:src/Tests.cpp ****         if(addrs[i] == 0)
 218:src/Tests.cpp ****         {
 219:src/Tests.cpp ****             //Riscv::printString("not OK\n");
 220:src/Tests.cpp ****             return;
 221:src/Tests.cpp ****         }
 222:src/Tests.cpp **** 
 223:src/Tests.cpp ****     }
 224:src/Tests.cpp ****     int sz = 300;
 225:src/Tests.cpp ****     while(sz > 0)
 226:src/Tests.cpp ****     {
 227:src/Tests.cpp ****         //Riscv::printString("sz : ");
 228:src/Tests.cpp ****         //Riscv::printInteger(sz);
 229:src/Tests.cpp ****         for(int i = 0 ; i < num;i+=2)
 230:src/Tests.cpp ****         {
 231:src/Tests.cpp ****             //Riscv::printString("i : ");
 232:src/Tests.cpp ****             //Riscv::printInteger(i);
 233:src/Tests.cpp ****             //Riscv::printString("free\n");
 234:src/Tests.cpp ****             int retval = mem_free(addrs[i]);
GAS LISTING /tmp/ccDWEfAB.s 			page 12


 235:src/Tests.cpp ****             if(retval != 0)
 236:src/Tests.cpp ****             {
 237:src/Tests.cpp ****                 //Riscv::printString("not OK\n");
 238:src/Tests.cpp ****                 return;
 239:src/Tests.cpp ****             }
 240:src/Tests.cpp ****             //Riscv::printString("alloc\n");
 241:src/Tests.cpp ****             addrs[i] = mem_alloc(sz/2);
 242:src/Tests.cpp ****             if(addrs[i] == 0)
 243:src/Tests.cpp ****             {
 244:src/Tests.cpp ****                 //Riscv::printString("not Ok\n");
 245:src/Tests.cpp ****                 return;
 246:src/Tests.cpp ****             }
 247:src/Tests.cpp **** 
 248:src/Tests.cpp ****         }
 249:src/Tests.cpp **** 
 250:src/Tests.cpp ****         for(int i = 1 ; i < num;i+=2)
 251:src/Tests.cpp ****         {
 252:src/Tests.cpp ****             //Riscv::printString("i : ");
 253:src/Tests.cpp ****             //Riscv::printInteger(i);
 254:src/Tests.cpp ****             //Riscv::printString("free\n");
 255:src/Tests.cpp ****             int retval = mem_free(addrs[i]);
 256:src/Tests.cpp ****             if(retval != 0)
 257:src/Tests.cpp ****             {
 258:src/Tests.cpp ****                 //Riscv::printString("not OK\n");
 259:src/Tests.cpp ****                 return;
 260:src/Tests.cpp ****             }
 261:src/Tests.cpp ****             //Riscv::printString("alloc\n");
 262:src/Tests.cpp ****             addrs[i] = mem_alloc(sz);
 263:src/Tests.cpp ****             if(addrs[i] == 0)
 264:src/Tests.cpp ****             {
 265:src/Tests.cpp ****                 //Riscv::printString("not Ok\n");
 266:src/Tests.cpp ****                 return;
 267:src/Tests.cpp ****             }
 268:src/Tests.cpp **** 
 269:src/Tests.cpp ****         }
 270:src/Tests.cpp ****         sz-=10;
 271:src/Tests.cpp ****     }
 272:src/Tests.cpp **** 
 273:src/Tests.cpp ****     Riscv::printString("OK\n");
 274:src/Tests.cpp **** }
 275:src/Tests.cpp **** 
 276:src/Tests.cpp **** void memoryAllocationTests()
 277:src/Tests.cpp **** {
 278:src/Tests.cpp ****     //bigMalloc();
 279:src/Tests.cpp ****     //lotOfSmallMallocs();
 280:src/Tests.cpp ****     //mallocFree();
 281:src/Tests.cpp ****     //badFree();
 282:src/Tests.cpp ****     stressTesting();
 283:src/Tests.cpp **** }
 284:src/Tests.cpp **** 
 285:src/Tests.cpp **** //semaphore tests
 286:src/Tests.cpp **** static Semaphore* mutex;
 287:src/Tests.cpp **** 
 288:src/Tests.cpp **** void f1(void* p)
 289:src/Tests.cpp **** {
 290:src/Tests.cpp ****     Riscv::printString("f1 started\n");
 291:src/Tests.cpp ****     int x = 0;
GAS LISTING /tmp/ccDWEfAB.s 			page 13


 292:src/Tests.cpp ****     while(true)
 293:src/Tests.cpp ****     {
 294:src/Tests.cpp ****         x++;
 295:src/Tests.cpp ****         mutex->wait();
 296:src/Tests.cpp ****         //__putc('1');
 297:src/Tests.cpp ****         //__putc('\n');
 298:src/Tests.cpp ****         mutex->signal();
 299:src/Tests.cpp ****         if(x < 50000)
 300:src/Tests.cpp ****             thread_dispatch();
 301:src/Tests.cpp ****         else
 302:src/Tests.cpp ****             thread_exit();
 303:src/Tests.cpp ****     }
 304:src/Tests.cpp **** }
 305:src/Tests.cpp **** 
 306:src/Tests.cpp **** void f2(void* p)
 307:src/Tests.cpp **** {
 308:src/Tests.cpp ****     Riscv::printString("f2 started\n");
 309:src/Tests.cpp ****     int x = 0;
 310:src/Tests.cpp ****     while(true)
 311:src/Tests.cpp ****     {
 312:src/Tests.cpp ****         mutex->wait();
 313:src/Tests.cpp ****         //__putc('2');
 314:src/Tests.cpp ****         //__putc('\n');
 315:src/Tests.cpp ****         mutex->signal();
 316:src/Tests.cpp ****         if(x < 50000)
 317:src/Tests.cpp ****             thread_dispatch();
 318:src/Tests.cpp ****         else
 319:src/Tests.cpp ****             thread_exit();
 320:src/Tests.cpp ****     }
 321:src/Tests.cpp **** }
 322:src/Tests.cpp **** 
 323:src/Tests.cpp **** void semTest1()
 324:src/Tests.cpp **** {
 325:src/Tests.cpp ****     mutex = new Semaphore(1);
 326:src/Tests.cpp ****     Thread* t1 = new Thread(&f1, 0);
 327:src/Tests.cpp ****     Thread* t2 = new Thread(&f2, 0);
 328:src/Tests.cpp ****     t1->start();
 329:src/Tests.cpp ****     t2->start();
 330:src/Tests.cpp **** 
 331:src/Tests.cpp ****     int y = 0;
 332:src/Tests.cpp ****     while(true)
 333:src/Tests.cpp ****     {
 334:src/Tests.cpp ****         y++;
 335:src/Tests.cpp ****         thread_dispatch();
 336:src/Tests.cpp ****         if(y == 200000)
 337:src/Tests.cpp ****             break;
 338:src/Tests.cpp ****     }
 339:src/Tests.cpp **** }
 340:src/Tests.cpp **** 
 341:src/Tests.cpp **** static Semaphore* s1;
 342:src/Tests.cpp **** static Semaphore* s2;
 343:src/Tests.cpp **** static Semaphore* s3;
 344:src/Tests.cpp **** 
 345:src/Tests.cpp **** void f1_2(void* p)
 346:src/Tests.cpp **** {
 347:src/Tests.cpp ****     Riscv::printString("f1_2 started\n");
 348:src/Tests.cpp ****     int x = 0;
GAS LISTING /tmp/ccDWEfAB.s 			page 14


 349:src/Tests.cpp ****     while(true)
 350:src/Tests.cpp ****     {
 351:src/Tests.cpp ****         x++;
 352:src/Tests.cpp ****         s1->wait();
 353:src/Tests.cpp ****         __putc('1');
 354:src/Tests.cpp ****         __putc('\n');
 355:src/Tests.cpp ****         s2->signal();
 356:src/Tests.cpp ****         if(x < 5000)
 357:src/Tests.cpp ****             thread_dispatch();
 358:src/Tests.cpp ****         else
 359:src/Tests.cpp ****             thread_exit();
 360:src/Tests.cpp ****     }
 361:src/Tests.cpp **** }
 362:src/Tests.cpp **** 
 363:src/Tests.cpp **** void f2_2(void* p)
 364:src/Tests.cpp **** {
 365:src/Tests.cpp ****     Riscv::printString("f2_2 started\n");
 366:src/Tests.cpp ****     int x = 0;
 367:src/Tests.cpp ****     while(true)
 368:src/Tests.cpp ****     {
 369:src/Tests.cpp ****         x++;
 370:src/Tests.cpp ****         s2->wait();
 371:src/Tests.cpp ****         __putc('2');
 372:src/Tests.cpp ****         __putc('\n');
 373:src/Tests.cpp ****         s3->signal();
 374:src/Tests.cpp ****         if(x < 5000)
 375:src/Tests.cpp ****             thread_dispatch();
 376:src/Tests.cpp ****         else
 377:src/Tests.cpp ****             thread_exit();
 378:src/Tests.cpp ****     }
 379:src/Tests.cpp **** }
 380:src/Tests.cpp **** 
 381:src/Tests.cpp **** void f3_2(void* p)
 382:src/Tests.cpp **** {
 383:src/Tests.cpp ****     Riscv::printString("f3_2 started\n");
 384:src/Tests.cpp ****     int x = 0;
 385:src/Tests.cpp ****     while(true)
 386:src/Tests.cpp ****     {
 387:src/Tests.cpp ****         x++;
 388:src/Tests.cpp ****         s3->wait();
 389:src/Tests.cpp ****         __putc('3');
 390:src/Tests.cpp ****         __putc('\n');
 391:src/Tests.cpp ****         s1->signal();
 392:src/Tests.cpp ****         if(x < 5000)
 393:src/Tests.cpp ****             thread_dispatch();
 394:src/Tests.cpp ****         else
 395:src/Tests.cpp ****             thread_exit();
 396:src/Tests.cpp ****     }
 397:src/Tests.cpp **** }
 398:src/Tests.cpp **** 
 399:src/Tests.cpp **** void semTest2()
 400:src/Tests.cpp **** {
 401:src/Tests.cpp ****     s1 = new Semaphore(1);
 402:src/Tests.cpp ****     s2 = new Semaphore(0);
 403:src/Tests.cpp ****     s3 = new Semaphore(0);
 404:src/Tests.cpp ****     Thread* t1 = new Thread(&f1_2, 0);
 405:src/Tests.cpp ****     Thread* t2 = new Thread(&f2_2, 0);
GAS LISTING /tmp/ccDWEfAB.s 			page 15


 406:src/Tests.cpp ****     Thread* t3 = new Thread(&f3_2, 0);
 407:src/Tests.cpp ****     t3->start();
 408:src/Tests.cpp ****     t2->start();
 409:src/Tests.cpp ****     t1->start();
 410:src/Tests.cpp **** 
 411:src/Tests.cpp ****     int y = 0;
 412:src/Tests.cpp ****     while(true)
 413:src/Tests.cpp ****     {
 414:src/Tests.cpp ****         y++;
 415:src/Tests.cpp ****         thread_dispatch();
 416:src/Tests.cpp ****         if(y == 200000)
 417:src/Tests.cpp ****             break;
 418:src/Tests.cpp ****     }
 419:src/Tests.cpp **** 
 420:src/Tests.cpp **** }
 421:src/Tests.cpp **** 
 422:src/Tests.cpp **** void semaphoreTests()
 423:src/Tests.cpp **** {
 424:src/Tests.cpp ****     //semTest1();
 425:src/Tests.cpp ****     semTest2();
 426:src/Tests.cpp **** }
 427:src/Tests.cpp **** 
 428:src/Tests.cpp **** void myTests()
 429:src/Tests.cpp **** {
 430:src/Tests.cpp ****     //memoryAllocationTests();
 431:src/Tests.cpp ****     threadTests();
 432:src/Tests.cpp ****     //testQueue();
 433:src/Tests.cpp ****     //semaphoreTests();
 434:src/Tests.cpp **** }
 435:src/Tests.cpp **** 
 436:src/Tests.cpp **** TestPeriodic::TestPeriodic(time_t time) : PeriodicThread(time) {
 437:src/Tests.cpp **** 
 438:src/Tests.cpp **** }
 439:src/Tests.cpp **** 
 440:src/Tests.cpp **** void TestPeriodic::periodicActivation()
 441:src/Tests.cpp **** {
 292              		.loc 2 441 1 is_stmt 1
 293              		.cfi_startproc
 294              	.LVL26:
 295 015c 130101FE 		addi	sp,sp,-32
 296              		.cfi_def_cfa_offset 32
 297 0160 233C1100 		sd	ra,24(sp)
 298 0164 23388100 		sd	s0,16(sp)
 299 0168 23349100 		sd	s1,8(sp)
 300              		.cfi_offset 1, -8
 301              		.cfi_offset 8, -16
 302              		.cfi_offset 9, -24
 303 016c 13040102 		addi	s0,sp,32
 304              		.cfi_def_cfa 8, 0
 442:src/Tests.cpp ****     for(int i = 0 ; i < 100;i++)
 305              		.loc 2 442 5
 306              	.LVL27:
 307              	.LBB22:
 308              		.loc 2 442 13 is_stmt 0
 309 0170 93040000 		li	s1,0
 310              	.LVL28:
 311              	.L22:
GAS LISTING /tmp/ccDWEfAB.s 			page 16


 312              		.loc 2 442 23 is_stmt 1 discriminator 3
 313 0174 93073006 		li	a5,99
 314 0178 63C49702 		bgt	s1,a5,.L20
 443:src/Tests.cpp ****     {
 444:src/Tests.cpp ****         Riscv::printString("i : ");
 315              		.loc 2 444 9 discriminator 2
 316              		.loc 2 444 27 is_stmt 0 discriminator 2
 317 017c 17050000 		lla	a0,.LC2
 317      13050500 
 318 0184 97000000 		call	_ZN5Riscv11printStringEPKc@plt
 318      E7800000 
 319              	.LVL29:
 445:src/Tests.cpp ****         Riscv::printInteger(i);
 320              		.loc 2 445 9 is_stmt 1 discriminator 2
 321              		.loc 2 445 28 is_stmt 0 discriminator 2
 322 018c 13850400 		mv	a0,s1
 323 0190 97000000 		call	_ZN5Riscv12printIntegerEm@plt
 323      E7800000 
 324              	.LVL30:
 442:src/Tests.cpp ****     for(int i = 0 ; i < 100;i++)
 325              		.loc 2 442 5 is_stmt 1 discriminator 2
 326 0198 9B841400 		addiw	s1,s1,1
 327              	.LVL31:
 328 019c 6FF09FFD 		j	.L22
 329              	.LVL32:
 330              	.L20:
 331              	.LBE22:
 446:src/Tests.cpp ****     }
 447:src/Tests.cpp **** }...
 332              		.loc 2 447 1 is_stmt 0
 333 01a0 83308101 		ld	ra,24(sp)
 334              		.cfi_restore 1
 335 01a4 03340101 		ld	s0,16(sp)
 336              		.cfi_restore 8
 337              		.cfi_def_cfa 2, 32
 338 01a8 83348100 		ld	s1,8(sp)
 339              		.cfi_restore 9
 340              	.LVL33:
 341 01ac 13010102 		addi	sp,sp,32
 342              		.cfi_def_cfa_offset 0
 343 01b0 67800000 		jr	ra
 344              		.cfi_endproc
 345              	.LFE53:
 347              		.align	2
 348              		.globl	_Z20thread2FunctionTest2Pv
 350              	_Z20thread2FunctionTest2Pv:
 351              	.LFB26:
  46:src/Tests.cpp **** {
 352              		.loc 2 46 1 is_stmt 1
 353              		.cfi_startproc
 354              	.LVL34:
 355 01b4 130101FE 		addi	sp,sp,-32
 356              		.cfi_def_cfa_offset 32
 357 01b8 233C1100 		sd	ra,24(sp)
 358 01bc 23388100 		sd	s0,16(sp)
 359 01c0 23349100 		sd	s1,8(sp)
 360              		.cfi_offset 1, -8
GAS LISTING /tmp/ccDWEfAB.s 			page 17


 361              		.cfi_offset 8, -16
 362              		.cfi_offset 9, -24
 363 01c4 13040102 		addi	s0,sp,32
 364              		.cfi_def_cfa 8, 0
  47:src/Tests.cpp ****     Riscv::printString("Thread 2 started...\n");
 365              		.loc 2 47 5
  47:src/Tests.cpp ****     Riscv::printString("Thread 2 started...\n");
 366              		.loc 2 47 23 is_stmt 0
 367 01c8 17050000 		lla	a0,.LC4
 367      13050500 
 368              	.LVL35:
 369 01d0 97000000 		call	_ZN5Riscv11printStringEPKc@plt
 369      E7800000 
 370              	.LVL36:
  48:src/Tests.cpp ****     uint64 num = 10000;
 371              		.loc 2 48 5 is_stmt 1
  49:src/Tests.cpp ****     for(uint64 j = 0; j < num;j++)
 372              		.loc 2 49 5
 373              	.LBB23:
  49:src/Tests.cpp ****     for(uint64 j = 0; j < num;j++)
 374              		.loc 2 49 16 is_stmt 0
 375 01d8 93040000 		li	s1,0
 376 01dc 6F008004 		j	.L28
 377              	.LVL37:
 378              	.L30:
  52:src/Tests.cpp ****             thread_exit();
 379              		.loc 2 52 13 is_stmt 1
  52:src/Tests.cpp ****             thread_exit();
 380              		.loc 2 52 24 is_stmt 0
 381 01e0 97000000 		call	thread_exit@plt
 381      E7800000 
 382              	.LVL38:
 383 01e8 6F000005 		j	.L26
 384              	.L31:
  54:src/Tests.cpp ****             thread_dispatch();
 385              		.loc 2 54 13 is_stmt 1
  54:src/Tests.cpp ****             thread_dispatch();
 386              		.loc 2 54 28 is_stmt 0
 387 01ec 97000000 		call	thread_dispatch@plt
 387      E7800000 
 388              	.LVL39:
 389              	.L27:
  55:src/Tests.cpp ****         Riscv::printString("j : ");
 390              		.loc 2 55 9 is_stmt 1 discriminator 2
  55:src/Tests.cpp ****         Riscv::printString("j : ");
 391              		.loc 2 55 27 is_stmt 0 discriminator 2
 392 01f4 17050000 		lla	a0,.LC5
 392      13050500 
 393 01fc 97000000 		call	_ZN5Riscv11printStringEPKc@plt
 393      E7800000 
 394              	.LVL40:
  56:src/Tests.cpp ****         Riscv::printInteger(j);
 395              		.loc 2 56 9 is_stmt 1 discriminator 2
  56:src/Tests.cpp ****         Riscv::printInteger(j);
 396              		.loc 2 56 28 is_stmt 0 discriminator 2
 397 0204 13850400 		mv	a0,s1
 398 0208 97000000 		call	_ZN5Riscv12printIntegerEm@plt
GAS LISTING /tmp/ccDWEfAB.s 			page 18


 398      E7800000 
 399              	.LVL41:
  57:src/Tests.cpp ****         Riscv::printString("\n");
 400              		.loc 2 57 9 is_stmt 1 discriminator 2
  57:src/Tests.cpp ****         Riscv::printString("\n");
 401              		.loc 2 57 27 is_stmt 0 discriminator 2
 402 0210 17050000 		lla	a0,.LC3
 402      13050500 
 403 0218 97000000 		call	_ZN5Riscv11printStringEPKc@plt
 403      E7800000 
 404              	.LVL42:
  49:src/Tests.cpp ****     for(uint64 j = 0; j < num;j++)
 405              		.loc 2 49 5 is_stmt 1 discriminator 2
 406 0220 93841400 		addi	s1,s1,1
 407              	.LVL43:
 408              	.L28:
  49:src/Tests.cpp ****     for(uint64 j = 0; j < num;j++)
 409              		.loc 2 49 25 discriminator 1
 410 0224 B7270000 		li	a5,8192
 411 0228 9387F770 		addi	a5,a5,1807
 412 022c 63E09702 		bgtu	s1,a5,.L24
  51:src/Tests.cpp ****         if(j == 200)
 413              		.loc 2 51 9
 414 0230 9307800C 		li	a5,200
 415 0234 E386F4FA 		beq	s1,a5,.L30
 416              	.L26:
  53:src/Tests.cpp ****         if(j % 50 == 0 && j > 0)
 417              		.loc 2 53 9
  53:src/Tests.cpp ****         if(j % 50 == 0 && j > 0)
 418              		.loc 2 53 14 is_stmt 0
 419 0238 93072003 		li	a5,50
 420 023c B3F7F402 		remu	a5,s1,a5
  53:src/Tests.cpp ****         if(j % 50 == 0 && j > 0)
 421              		.loc 2 53 9
 422 0240 E39A07FA 		bnez	a5,.L27
  53:src/Tests.cpp ****         if(j % 50 == 0 && j > 0)
 423              		.loc 2 53 24 discriminator 1
 424 0244 E38804FA 		beqz	s1,.L27
 425 0248 6FF05FFA 		j	.L31
 426              	.L24:
 427              	.LBE23:
  59:src/Tests.cpp **** }
 428              		.loc 2 59 1
 429 024c 83308101 		ld	ra,24(sp)
 430              		.cfi_restore 1
 431 0250 03340101 		ld	s0,16(sp)
 432              		.cfi_restore 8
 433              		.cfi_def_cfa 2, 32
 434 0254 83348100 		ld	s1,8(sp)
 435              		.cfi_restore 9
 436              	.LVL44:
 437 0258 13010102 		addi	sp,sp,32
 438              		.cfi_def_cfa_offset 0
 439 025c 67800000 		jr	ra
 440              		.cfi_endproc
 441              	.LFE26:
 443              		.section	.rodata.str1.8
GAS LISTING /tmp/ccDWEfAB.s 			page 19


 444 004d 000000   		.align	3
 445              	.LC6:
 446 0050 66312073 		.string	"f1 started\n"
 446      74617274 
 446      65640A00 
 447              		.text
 448              		.align	2
 449              		.globl	_Z2f1Pv
 451              	_Z2f1Pv:
 452              	.LFB37:
 289:src/Tests.cpp **** {
 453              		.loc 2 289 1 is_stmt 1
 454              		.cfi_startproc
 455              	.LVL45:
 456 0260 130101FE 		addi	sp,sp,-32
 457              		.cfi_def_cfa_offset 32
 458 0264 233C1100 		sd	ra,24(sp)
 459 0268 23388100 		sd	s0,16(sp)
 460 026c 23349100 		sd	s1,8(sp)
 461 0270 23302101 		sd	s2,0(sp)
 462              		.cfi_offset 1, -8
 463              		.cfi_offset 8, -16
 464              		.cfi_offset 9, -24
 465              		.cfi_offset 18, -32
 466 0274 13040102 		addi	s0,sp,32
 467              		.cfi_def_cfa 8, 0
 290:src/Tests.cpp ****     Riscv::printString("f1 started\n");
 468              		.loc 2 290 5
 290:src/Tests.cpp ****     Riscv::printString("f1 started\n");
 469              		.loc 2 290 23 is_stmt 0
 470 0278 17050000 		lla	a0,.LC6
 470      13050500 
 471              	.LVL46:
 472 0280 97000000 		call	_ZN5Riscv11printStringEPKc@plt
 472      E7800000 
 473              	.LVL47:
 291:src/Tests.cpp ****     int x = 0;
 474              		.loc 2 291 5 is_stmt 1
 291:src/Tests.cpp ****     int x = 0;
 475              		.loc 2 291 9 is_stmt 0
 476 0288 93040000 		li	s1,0
 477 028c 6F00C000 		j	.L33
 478              	.LVL48:
 479              	.L34:
 302:src/Tests.cpp ****             thread_exit();
 480              		.loc 2 302 13 is_stmt 1
 302:src/Tests.cpp ****             thread_exit();
 481              		.loc 2 302 24 is_stmt 0
 482 0290 97000000 		call	thread_exit@plt
 482      E7800000 
 483              	.LVL49:
 484              	.L33:
 292:src/Tests.cpp ****     while(true)
 485              		.loc 2 292 5 is_stmt 1
 294:src/Tests.cpp ****         x++;
 486              		.loc 2 294 9
 294:src/Tests.cpp ****         x++;
GAS LISTING /tmp/ccDWEfAB.s 			page 20


 487              		.loc 2 294 10 is_stmt 0
 488 0298 9B841400 		addiw	s1,s1,1
 489              	.LVL50:
 295:src/Tests.cpp ****         mutex->wait();
 490              		.loc 2 295 9 is_stmt 1
 295:src/Tests.cpp ****         mutex->wait();
 491              		.loc 2 295 20 is_stmt 0
 492 029c 17090000 		lla	s2,.LANCHOR0
 492      13090900 
 493 02a4 03350900 		ld	a0,0(s2)
 494 02a8 97000000 		call	_ZN9Semaphore4waitEv@plt
 494      E7800000 
 495              	.LVL51:
 298:src/Tests.cpp ****         mutex->signal();
 496              		.loc 2 298 9 is_stmt 1
 298:src/Tests.cpp ****         mutex->signal();
 497              		.loc 2 298 22 is_stmt 0
 498 02b0 03350900 		ld	a0,0(s2)
 499 02b4 97000000 		call	_ZN9Semaphore6signalEv@plt
 499      E7800000 
 500              	.LVL52:
 299:src/Tests.cpp ****         if(x < 50000)
 501              		.loc 2 299 9 is_stmt 1
 502 02bc B7C70000 		li	a5,49152
 503 02c0 9387F734 		addi	a5,a5,847
 504 02c4 E3C697FC 		bgt	s1,a5,.L34
 300:src/Tests.cpp ****             thread_dispatch();
 505              		.loc 2 300 13
 300:src/Tests.cpp ****             thread_dispatch();
 506              		.loc 2 300 28 is_stmt 0
 507 02c8 97000000 		call	thread_dispatch@plt
 507      E7800000 
 508              	.LVL53:
 509 02d0 6FF09FFC 		j	.L33
 510              		.cfi_endproc
 511              	.LFE37:
 513              		.section	.rodata.str1.8
 514 005c 00000000 		.align	3
 515              	.LC7:
 516 0060 66322073 		.string	"f2 started\n"
 516      74617274 
 516      65640A00 
 517              		.text
 518              		.align	2
 519              		.globl	_Z2f2Pv
 521              	_Z2f2Pv:
 522              	.LFB38:
 307:src/Tests.cpp **** {
 523              		.loc 2 307 1 is_stmt 1
 524              		.cfi_startproc
 525              	.LVL54:
 526 02d4 130101FE 		addi	sp,sp,-32
 527              		.cfi_def_cfa_offset 32
 528 02d8 233C1100 		sd	ra,24(sp)
 529 02dc 23388100 		sd	s0,16(sp)
 530 02e0 23349100 		sd	s1,8(sp)
 531              		.cfi_offset 1, -8
GAS LISTING /tmp/ccDWEfAB.s 			page 21


 532              		.cfi_offset 8, -16
 533              		.cfi_offset 9, -24
 534 02e4 13040102 		addi	s0,sp,32
 535              		.cfi_def_cfa 8, 0
 308:src/Tests.cpp ****     Riscv::printString("f2 started\n");
 536              		.loc 2 308 5
 308:src/Tests.cpp ****     Riscv::printString("f2 started\n");
 537              		.loc 2 308 23 is_stmt 0
 538 02e8 17050000 		lla	a0,.LC7
 538      13050500 
 539              	.LVL55:
 540 02f0 97000000 		call	_ZN5Riscv11printStringEPKc@plt
 540      E7800000 
 541              	.LVL56:
 309:src/Tests.cpp ****     int x = 0;
 542              		.loc 2 309 5 is_stmt 1
 543              	.L38:
 310:src/Tests.cpp ****     while(true)
 544              		.loc 2 310 5
 312:src/Tests.cpp ****         mutex->wait();
 545              		.loc 2 312 9
 312:src/Tests.cpp ****         mutex->wait();
 546              		.loc 2 312 20 is_stmt 0
 547 02f8 97040000 		lla	s1,.LANCHOR0
 547      93840400 
 548 0300 03B50400 		ld	a0,0(s1)
 549 0304 97000000 		call	_ZN9Semaphore4waitEv@plt
 549      E7800000 
 550              	.LVL57:
 315:src/Tests.cpp ****         mutex->signal();
 551              		.loc 2 315 9 is_stmt 1
 315:src/Tests.cpp ****         mutex->signal();
 552              		.loc 2 315 22 is_stmt 0
 553 030c 03B50400 		ld	a0,0(s1)
 554 0310 97000000 		call	_ZN9Semaphore6signalEv@plt
 554      E7800000 
 555              	.LVL58:
 316:src/Tests.cpp ****         if(x < 50000)
 556              		.loc 2 316 9 is_stmt 1
 317:src/Tests.cpp ****             thread_dispatch();
 557              		.loc 2 317 13
 317:src/Tests.cpp ****             thread_dispatch();
 558              		.loc 2 317 28 is_stmt 0
 559 0318 97000000 		call	thread_dispatch@plt
 559      E7800000 
 560              	.LVL59:
 561 0320 6FF09FFD 		j	.L38
 562              		.cfi_endproc
 563              	.LFE38:
 565              		.section	.rodata.str1.8
 566 006c 00000000 		.align	3
 567              	.LC8:
 568 0070 66315F32 		.string	"f1_2 started\n"
 568      20737461 
 568      72746564 
 568      0A00
 569              		.text
GAS LISTING /tmp/ccDWEfAB.s 			page 22


 570              		.align	2
 571              		.globl	_Z4f1_2Pv
 573              	_Z4f1_2Pv:
 574              	.LFB40:
 346:src/Tests.cpp **** {
 575              		.loc 2 346 1 is_stmt 1
 576              		.cfi_startproc
 577              	.LVL60:
 578 0324 130101FE 		addi	sp,sp,-32
 579              		.cfi_def_cfa_offset 32
 580 0328 233C1100 		sd	ra,24(sp)
 581 032c 23388100 		sd	s0,16(sp)
 582 0330 23349100 		sd	s1,8(sp)
 583 0334 23302101 		sd	s2,0(sp)
 584              		.cfi_offset 1, -8
 585              		.cfi_offset 8, -16
 586              		.cfi_offset 9, -24
 587              		.cfi_offset 18, -32
 588 0338 13040102 		addi	s0,sp,32
 589              		.cfi_def_cfa 8, 0
 347:src/Tests.cpp ****     Riscv::printString("f1_2 started\n");
 590              		.loc 2 347 5
 347:src/Tests.cpp ****     Riscv::printString("f1_2 started\n");
 591              		.loc 2 347 23 is_stmt 0
 592 033c 17050000 		lla	a0,.LC8
 592      13050500 
 593              	.LVL61:
 594 0344 97000000 		call	_ZN5Riscv11printStringEPKc@plt
 594      E7800000 
 595              	.LVL62:
 348:src/Tests.cpp ****     int x = 0;
 596              		.loc 2 348 5 is_stmt 1
 348:src/Tests.cpp ****     int x = 0;
 597              		.loc 2 348 9 is_stmt 0
 598 034c 93040000 		li	s1,0
 599 0350 6F00C000 		j	.L41
 600              	.LVL63:
 601              	.L42:
 359:src/Tests.cpp ****             thread_exit();
 602              		.loc 2 359 13 is_stmt 1
 359:src/Tests.cpp ****             thread_exit();
 603              		.loc 2 359 24 is_stmt 0
 604 0354 97000000 		call	thread_exit@plt
 604      E7800000 
 605              	.LVL64:
 606              	.L41:
 349:src/Tests.cpp ****     while(true)
 607              		.loc 2 349 5 is_stmt 1
 351:src/Tests.cpp ****         x++;
 608              		.loc 2 351 9
 351:src/Tests.cpp ****         x++;
 609              		.loc 2 351 10 is_stmt 0
 610 035c 9B841400 		addiw	s1,s1,1
 611              	.LVL65:
 352:src/Tests.cpp ****         s1->wait();
 612              		.loc 2 352 9 is_stmt 1
 352:src/Tests.cpp ****         s1->wait();
GAS LISTING /tmp/ccDWEfAB.s 			page 23


 613              		.loc 2 352 17 is_stmt 0
 614 0360 17090000 		lla	s2,.LANCHOR0
 614      13090900 
 615 0368 03358900 		ld	a0,8(s2)
 616 036c 97000000 		call	_ZN9Semaphore4waitEv@plt
 616      E7800000 
 617              	.LVL66:
 353:src/Tests.cpp ****         __putc('1');
 618              		.loc 2 353 9 is_stmt 1
 353:src/Tests.cpp ****         __putc('1');
 619              		.loc 2 353 15 is_stmt 0
 620 0374 13051003 		li	a0,49
 621 0378 97000000 		call	__putc@plt
 621      E7800000 
 622              	.LVL67:
 354:src/Tests.cpp ****         __putc('\n');
 623              		.loc 2 354 9 is_stmt 1
 354:src/Tests.cpp ****         __putc('\n');
 624              		.loc 2 354 15 is_stmt 0
 625 0380 1305A000 		li	a0,10
 626 0384 97000000 		call	__putc@plt
 626      E7800000 
 627              	.LVL68:
 355:src/Tests.cpp ****         s2->signal();
 628              		.loc 2 355 9 is_stmt 1
 355:src/Tests.cpp ****         s2->signal();
 629              		.loc 2 355 19 is_stmt 0
 630 038c 03350901 		ld	a0,16(s2)
 631 0390 97000000 		call	_ZN9Semaphore6signalEv@plt
 631      E7800000 
 632              	.LVL69:
 356:src/Tests.cpp ****         if(x < 5000)
 633              		.loc 2 356 9 is_stmt 1
 634 0398 B7170000 		li	a5,4096
 635 039c 93877738 		addi	a5,a5,903
 636 03a0 E3CA97FA 		bgt	s1,a5,.L42
 357:src/Tests.cpp ****             thread_dispatch();
 637              		.loc 2 357 13
 357:src/Tests.cpp ****             thread_dispatch();
 638              		.loc 2 357 28 is_stmt 0
 639 03a4 97000000 		call	thread_dispatch@plt
 639      E7800000 
 640              	.LVL70:
 641 03ac 6FF01FFB 		j	.L41
 642              		.cfi_endproc
 643              	.LFE40:
 645              		.section	.rodata.str1.8
 646 007e 0000     		.align	3
 647              	.LC9:
 648 0080 66325F32 		.string	"f2_2 started\n"
 648      20737461 
 648      72746564 
 648      0A00
 649              		.text
 650              		.align	2
 651              		.globl	_Z4f2_2Pv
 653              	_Z4f2_2Pv:
GAS LISTING /tmp/ccDWEfAB.s 			page 24


 654              	.LFB41:
 364:src/Tests.cpp **** {
 655              		.loc 2 364 1 is_stmt 1
 656              		.cfi_startproc
 657              	.LVL71:
 658 03b0 130101FE 		addi	sp,sp,-32
 659              		.cfi_def_cfa_offset 32
 660 03b4 233C1100 		sd	ra,24(sp)
 661 03b8 23388100 		sd	s0,16(sp)
 662 03bc 23349100 		sd	s1,8(sp)
 663 03c0 23302101 		sd	s2,0(sp)
 664              		.cfi_offset 1, -8
 665              		.cfi_offset 8, -16
 666              		.cfi_offset 9, -24
 667              		.cfi_offset 18, -32
 668 03c4 13040102 		addi	s0,sp,32
 669              		.cfi_def_cfa 8, 0
 365:src/Tests.cpp ****     Riscv::printString("f2_2 started\n");
 670              		.loc 2 365 5
 365:src/Tests.cpp ****     Riscv::printString("f2_2 started\n");
 671              		.loc 2 365 23 is_stmt 0
 672 03c8 17050000 		lla	a0,.LC9
 672      13050500 
 673              	.LVL72:
 674 03d0 97000000 		call	_ZN5Riscv11printStringEPKc@plt
 674      E7800000 
 675              	.LVL73:
 366:src/Tests.cpp ****     int x = 0;
 676              		.loc 2 366 5 is_stmt 1
 366:src/Tests.cpp ****     int x = 0;
 677              		.loc 2 366 9 is_stmt 0
 678 03d8 93040000 		li	s1,0
 679 03dc 6F00C000 		j	.L46
 680              	.LVL74:
 681              	.L47:
 377:src/Tests.cpp ****             thread_exit();
 682              		.loc 2 377 13 is_stmt 1
 377:src/Tests.cpp ****             thread_exit();
 683              		.loc 2 377 24 is_stmt 0
 684 03e0 97000000 		call	thread_exit@plt
 684      E7800000 
 685              	.LVL75:
 686              	.L46:
 367:src/Tests.cpp ****     while(true)
 687              		.loc 2 367 5 is_stmt 1
 369:src/Tests.cpp ****         x++;
 688              		.loc 2 369 9
 369:src/Tests.cpp ****         x++;
 689              		.loc 2 369 10 is_stmt 0
 690 03e8 9B841400 		addiw	s1,s1,1
 691              	.LVL76:
 370:src/Tests.cpp ****         s2->wait();
 692              		.loc 2 370 9 is_stmt 1
 370:src/Tests.cpp ****         s2->wait();
 693              		.loc 2 370 17 is_stmt 0
 694 03ec 17090000 		lla	s2,.LANCHOR0
 694      13090900 
GAS LISTING /tmp/ccDWEfAB.s 			page 25


 695 03f4 03350901 		ld	a0,16(s2)
 696 03f8 97000000 		call	_ZN9Semaphore4waitEv@plt
 696      E7800000 
 697              	.LVL77:
 371:src/Tests.cpp ****         __putc('2');
 698              		.loc 2 371 9 is_stmt 1
 371:src/Tests.cpp ****         __putc('2');
 699              		.loc 2 371 15 is_stmt 0
 700 0400 13052003 		li	a0,50
 701 0404 97000000 		call	__putc@plt
 701      E7800000 
 702              	.LVL78:
 372:src/Tests.cpp ****         __putc('\n');
 703              		.loc 2 372 9 is_stmt 1
 372:src/Tests.cpp ****         __putc('\n');
 704              		.loc 2 372 15 is_stmt 0
 705 040c 1305A000 		li	a0,10
 706 0410 97000000 		call	__putc@plt
 706      E7800000 
 707              	.LVL79:
 373:src/Tests.cpp ****         s3->signal();
 708              		.loc 2 373 9 is_stmt 1
 373:src/Tests.cpp ****         s3->signal();
 709              		.loc 2 373 19 is_stmt 0
 710 0418 03358901 		ld	a0,24(s2)
 711 041c 97000000 		call	_ZN9Semaphore6signalEv@plt
 711      E7800000 
 712              	.LVL80:
 374:src/Tests.cpp ****         if(x < 5000)
 713              		.loc 2 374 9 is_stmt 1
 714 0424 B7170000 		li	a5,4096
 715 0428 93877738 		addi	a5,a5,903
 716 042c E3CA97FA 		bgt	s1,a5,.L47
 375:src/Tests.cpp ****             thread_dispatch();
 717              		.loc 2 375 13
 375:src/Tests.cpp ****             thread_dispatch();
 718              		.loc 2 375 28 is_stmt 0
 719 0430 97000000 		call	thread_dispatch@plt
 719      E7800000 
 720              	.LVL81:
 721 0438 6FF01FFB 		j	.L46
 722              		.cfi_endproc
 723              	.LFE41:
 725              		.section	.rodata.str1.8
 726 008e 0000     		.align	3
 727              	.LC10:
 728 0090 66335F32 		.string	"f3_2 started\n"
 728      20737461 
 728      72746564 
 728      0A00
 729              		.text
 730              		.align	2
 731              		.globl	_Z4f3_2Pv
 733              	_Z4f3_2Pv:
 734              	.LFB42:
 382:src/Tests.cpp **** {
 735              		.loc 2 382 1 is_stmt 1
GAS LISTING /tmp/ccDWEfAB.s 			page 26


 736              		.cfi_startproc
 737              	.LVL82:
 738 043c 130101FE 		addi	sp,sp,-32
 739              		.cfi_def_cfa_offset 32
 740 0440 233C1100 		sd	ra,24(sp)
 741 0444 23388100 		sd	s0,16(sp)
 742 0448 23349100 		sd	s1,8(sp)
 743 044c 23302101 		sd	s2,0(sp)
 744              		.cfi_offset 1, -8
 745              		.cfi_offset 8, -16
 746              		.cfi_offset 9, -24
 747              		.cfi_offset 18, -32
 748 0450 13040102 		addi	s0,sp,32
 749              		.cfi_def_cfa 8, 0
 383:src/Tests.cpp ****     Riscv::printString("f3_2 started\n");
 750              		.loc 2 383 5
 383:src/Tests.cpp ****     Riscv::printString("f3_2 started\n");
 751              		.loc 2 383 23 is_stmt 0
 752 0454 17050000 		lla	a0,.LC10
 752      13050500 
 753              	.LVL83:
 754 045c 97000000 		call	_ZN5Riscv11printStringEPKc@plt
 754      E7800000 
 755              	.LVL84:
 384:src/Tests.cpp ****     int x = 0;
 756              		.loc 2 384 5 is_stmt 1
 384:src/Tests.cpp ****     int x = 0;
 757              		.loc 2 384 9 is_stmt 0
 758 0464 93040000 		li	s1,0
 759 0468 6F00C000 		j	.L51
 760              	.LVL85:
 761              	.L52:
 395:src/Tests.cpp ****             thread_exit();
 762              		.loc 2 395 13 is_stmt 1
 395:src/Tests.cpp ****             thread_exit();
 763              		.loc 2 395 24 is_stmt 0
 764 046c 97000000 		call	thread_exit@plt
 764      E7800000 
 765              	.LVL86:
 766              	.L51:
 385:src/Tests.cpp ****     while(true)
 767              		.loc 2 385 5 is_stmt 1
 387:src/Tests.cpp ****         x++;
 768              		.loc 2 387 9
 387:src/Tests.cpp ****         x++;
 769              		.loc 2 387 10 is_stmt 0
 770 0474 9B841400 		addiw	s1,s1,1
 771              	.LVL87:
 388:src/Tests.cpp ****         s3->wait();
 772              		.loc 2 388 9 is_stmt 1
 388:src/Tests.cpp ****         s3->wait();
 773              		.loc 2 388 17 is_stmt 0
 774 0478 17090000 		lla	s2,.LANCHOR0
 774      13090900 
 775 0480 03358901 		ld	a0,24(s2)
 776 0484 97000000 		call	_ZN9Semaphore4waitEv@plt
 776      E7800000 
GAS LISTING /tmp/ccDWEfAB.s 			page 27


 777              	.LVL88:
 389:src/Tests.cpp ****         __putc('3');
 778              		.loc 2 389 9 is_stmt 1
 389:src/Tests.cpp ****         __putc('3');
 779              		.loc 2 389 15 is_stmt 0
 780 048c 13053003 		li	a0,51
 781 0490 97000000 		call	__putc@plt
 781      E7800000 
 782              	.LVL89:
 390:src/Tests.cpp ****         __putc('\n');
 783              		.loc 2 390 9 is_stmt 1
 390:src/Tests.cpp ****         __putc('\n');
 784              		.loc 2 390 15 is_stmt 0
 785 0498 1305A000 		li	a0,10
 786 049c 97000000 		call	__putc@plt
 786      E7800000 
 787              	.LVL90:
 391:src/Tests.cpp ****         s1->signal();
 788              		.loc 2 391 9 is_stmt 1
 391:src/Tests.cpp ****         s1->signal();
 789              		.loc 2 391 19 is_stmt 0
 790 04a4 03358900 		ld	a0,8(s2)
 791 04a8 97000000 		call	_ZN9Semaphore6signalEv@plt
 791      E7800000 
 792              	.LVL91:
 392:src/Tests.cpp ****         if(x < 5000)
 793              		.loc 2 392 9 is_stmt 1
 794 04b0 B7170000 		li	a5,4096
 795 04b4 93877738 		addi	a5,a5,903
 796 04b8 E3CA97FA 		bgt	s1,a5,.L52
 393:src/Tests.cpp ****             thread_dispatch();
 797              		.loc 2 393 13
 393:src/Tests.cpp ****             thread_dispatch();
 798              		.loc 2 393 28 is_stmt 0
 799 04bc 97000000 		call	thread_dispatch@plt
 799      E7800000 
 800              	.LVL92:
 801 04c4 6FF01FFB 		j	.L51
 802              		.cfi_endproc
 803              	.LFE42:
 805              		.section	.text._ZN14PeriodicThreadD2Ev,"axG",@progbits,_ZN14PeriodicThreadD5Ev,comdat
 806              		.align	2
 807              		.weak	_ZN14PeriodicThreadD2Ev
 809              	_ZN14PeriodicThreadD2Ev:
 810              	.LFB48:
  65:src/../h/syscall_cpp.hpp **** {
 811              		.loc 1 65 7 is_stmt 1
 812              		.cfi_startproc
 813              	.LVL93:
 814 0000 130101FF 		addi	sp,sp,-16
 815              		.cfi_def_cfa_offset 16
 816 0004 23341100 		sd	ra,8(sp)
 817 0008 23308100 		sd	s0,0(sp)
 818              		.cfi_offset 1, -8
 819              		.cfi_offset 8, -16
 820 000c 13040101 		addi	s0,sp,16
 821              		.cfi_def_cfa 8, 0
GAS LISTING /tmp/ccDWEfAB.s 			page 28


 822              	.LBB24:
  65:src/../h/syscall_cpp.hpp **** {
 823              		.loc 1 65 7 is_stmt 0
 824 0010 97070000 		lla	a5,_ZTV14PeriodicThread+16
 824      93870700 
 825 0018 2330F500 		sd	a5,0(a0)
 826 001c 97000000 		call	_ZN6ThreadD2Ev@plt
 826      E7800000 
 827              	.LVL94:
 828              	.LBE24:
 829 0024 83308100 		ld	ra,8(sp)
 830              		.cfi_restore 1
 831 0028 03340100 		ld	s0,0(sp)
 832              		.cfi_restore 8
 833              		.cfi_def_cfa 2, 16
 834 002c 13010101 		addi	sp,sp,16
 835              		.cfi_def_cfa_offset 0
 836 0030 67800000 		jr	ra
 837              		.cfi_endproc
 838              	.LFE48:
 840              		.weak	_ZN14PeriodicThreadD1Ev
 841              		.set	_ZN14PeriodicThreadD1Ev,_ZN14PeriodicThreadD2Ev
 842              		.section	.text._ZN14PeriodicThreadD0Ev,"axG",@progbits,_ZN14PeriodicThreadD5Ev,comdat
 843              		.align	2
 844              		.weak	_ZN14PeriodicThreadD0Ev
 846              	_ZN14PeriodicThreadD0Ev:
 847              	.LFB50:
  65:src/../h/syscall_cpp.hpp **** {
 848              		.loc 1 65 7 is_stmt 1
 849              		.cfi_startproc
 850              	.LVL95:
 851 0000 130101FE 		addi	sp,sp,-32
 852              		.cfi_def_cfa_offset 32
 853 0004 233C1100 		sd	ra,24(sp)
 854 0008 23388100 		sd	s0,16(sp)
 855 000c 23349100 		sd	s1,8(sp)
 856              		.cfi_offset 1, -8
 857              		.cfi_offset 8, -16
 858              		.cfi_offset 9, -24
 859 0010 13040102 		addi	s0,sp,32
 860              		.cfi_def_cfa 8, 0
 861 0014 93040500 		mv	s1,a0
 862              	.LVL96:
 863              	.LBB25:
 864              	.LBB26:
  65:src/../h/syscall_cpp.hpp **** {
 865              		.loc 1 65 7 is_stmt 0
 866 0018 97070000 		lla	a5,_ZTV14PeriodicThread+16
 866      93870700 
 867 0020 2330F500 		sd	a5,0(a0)
 868 0024 97000000 		call	_ZN6ThreadD2Ev@plt
 868      E7800000 
 869              	.LVL97:
 870              	.LBE26:
 871              	.LBE25:
 872 002c 13850400 		mv	a0,s1
 873 0030 97000000 		call	_ZdlPv@plt
GAS LISTING /tmp/ccDWEfAB.s 			page 29


 873      E7800000 
 874              	.LVL98:
 875 0038 83308101 		ld	ra,24(sp)
 876              		.cfi_restore 1
 877 003c 03340101 		ld	s0,16(sp)
 878              		.cfi_restore 8
 879              		.cfi_def_cfa 2, 32
 880 0040 83348100 		ld	s1,8(sp)
 881              		.cfi_restore 9
 882              	.LVL99:
 883 0044 13010102 		addi	sp,sp,32
 884              		.cfi_def_cfa_offset 0
 885 0048 67800000 		jr	ra
 886              		.cfi_endproc
 887              	.LFE50:
 889              		.section	.text._ZN12TestPeriodicD2Ev,"axG",@progbits,_ZN12TestPeriodicD5Ev,comdat
 890              		.align	2
 891              		.weak	_ZN12TestPeriodicD2Ev
 893              	_ZN12TestPeriodicD2Ev:
 894              	.LFB55:
 895              		.file 3 "src/../h/Tests.hpp"
   1:src/../h/Tests.hpp **** //
   2:src/../h/Tests.hpp **** // Created by os on 5/5/22.
   3:src/../h/Tests.hpp **** //
   4:src/../h/Tests.hpp **** 
   5:src/../h/Tests.hpp **** #ifndef PROJECT_BASE_V1_0_TESTS_HPP
   6:src/../h/Tests.hpp **** #define PROJECT_BASE_V1_0_TESTS_HPP
   7:src/../h/Tests.hpp **** 
   8:src/../h/Tests.hpp **** #include "Riscv.hpp"
   9:src/../h/Tests.hpp **** #include "PCB.hpp"
  10:src/../h/Tests.hpp **** #include "syscall_cpp.hpp"
  11:src/../h/Tests.hpp **** 
  12:src/../h/Tests.hpp **** class Test
  13:src/../h/Tests.hpp **** {
  14:src/../h/Tests.hpp **** public:
  15:src/../h/Tests.hpp ****     uint64 a;
  16:src/../h/Tests.hpp **** };
  17:src/../h/Tests.hpp **** 
  18:src/../h/Tests.hpp **** //memory (de)allocation tests
  19:src/../h/Tests.hpp **** void mallocFree();
  20:src/../h/Tests.hpp **** void bigMalloc();
  21:src/../h/Tests.hpp **** void lotOfSmallMallocs();
  22:src/../h/Tests.hpp **** void badFree();
  23:src/../h/Tests.hpp **** void stressTesting();
  24:src/../h/Tests.hpp **** void memoryAllocationTests();
  25:src/../h/Tests.hpp **** 
  26:src/../h/Tests.hpp **** //thread tests
  27:src/../h/Tests.hpp **** void thread1Function();
  28:src/../h/Tests.hpp **** void thread2Function();
  29:src/../h/Tests.hpp **** 
  30:src/../h/Tests.hpp **** void threadFunction3();
  31:src/../h/Tests.hpp **** 
  32:src/../h/Tests.hpp **** void threadTest1();
  33:src/../h/Tests.hpp **** void threadTest2();
  34:src/../h/Tests.hpp **** void threadTest3();
  35:src/../h/Tests.hpp **** 
  36:src/../h/Tests.hpp **** void threadTests();
GAS LISTING /tmp/ccDWEfAB.s 			page 30


  37:src/../h/Tests.hpp **** 
  38:src/../h/Tests.hpp **** class TestPeriodic : public PeriodicThread
 896              		.loc 3 38 7 is_stmt 1
 897              		.cfi_startproc
 898              	.LVL100:
 899 0000 130101FF 		addi	sp,sp,-16
 900              		.cfi_def_cfa_offset 16
 901 0004 23341100 		sd	ra,8(sp)
 902 0008 23308100 		sd	s0,0(sp)
 903              		.cfi_offset 1, -8
 904              		.cfi_offset 8, -16
 905 000c 13040101 		addi	s0,sp,16
 906              		.cfi_def_cfa 8, 0
 907              	.LVL101:
 908              	.LBB27:
 909              	.LBB28:
  65:src/../h/syscall_cpp.hpp **** {
 910              		.loc 1 65 7 is_stmt 0
 911 0010 97070000 		lla	a5,_ZTV14PeriodicThread+16
 911      93870700 
 912 0018 2330F500 		sd	a5,0(a0)
 913 001c 97000000 		call	_ZN6ThreadD2Ev@plt
 913      E7800000 
 914              	.LVL102:
 915              	.LBE28:
 916              	.LBE27:
 917              		.loc 3 38 7
 918 0024 83308100 		ld	ra,8(sp)
 919              		.cfi_restore 1
 920 0028 03340100 		ld	s0,0(sp)
 921              		.cfi_restore 8
 922              		.cfi_def_cfa 2, 16
 923 002c 13010101 		addi	sp,sp,16
 924              		.cfi_def_cfa_offset 0
 925 0030 67800000 		jr	ra
 926              		.cfi_endproc
 927              	.LFE55:
 929              		.weak	_ZN12TestPeriodicD1Ev
 930              		.set	_ZN12TestPeriodicD1Ev,_ZN12TestPeriodicD2Ev
 931              		.section	.text._ZN12TestPeriodicD0Ev,"axG",@progbits,_ZN12TestPeriodicD5Ev,comdat
 932              		.align	2
 933              		.weak	_ZN12TestPeriodicD0Ev
 935              	_ZN12TestPeriodicD0Ev:
 936              	.LFB57:
 937              		.loc 3 38 7 is_stmt 1
 938              		.cfi_startproc
 939              	.LVL103:
 940 0000 130101FE 		addi	sp,sp,-32
 941              		.cfi_def_cfa_offset 32
 942 0004 233C1100 		sd	ra,24(sp)
 943 0008 23388100 		sd	s0,16(sp)
 944 000c 23349100 		sd	s1,8(sp)
 945              		.cfi_offset 1, -8
 946              		.cfi_offset 8, -16
 947              		.cfi_offset 9, -24
 948 0010 13040102 		addi	s0,sp,32
 949              		.cfi_def_cfa 8, 0
GAS LISTING /tmp/ccDWEfAB.s 			page 31


 950 0014 93040500 		mv	s1,a0
 951              	.LVL104:
 952              	.LBB29:
 953              	.LBB30:
 954              	.LBB31:
  65:src/../h/syscall_cpp.hpp **** {
 955              		.loc 1 65 7 is_stmt 0
 956 0018 97070000 		lla	a5,_ZTV14PeriodicThread+16
 956      93870700 
 957 0020 2330F500 		sd	a5,0(a0)
 958 0024 97000000 		call	_ZN6ThreadD2Ev@plt
 958      E7800000 
 959              	.LVL105:
 960              	.LBE31:
 961              	.LBE30:
 962              	.LBE29:
 963              		.loc 3 38 7
 964 002c 13850400 		mv	a0,s1
 965 0030 97000000 		call	_ZdlPv@plt
 965      E7800000 
 966              	.LVL106:
 967 0038 83308101 		ld	ra,24(sp)
 968              		.cfi_restore 1
 969 003c 03340101 		ld	s0,16(sp)
 970              		.cfi_restore 8
 971              		.cfi_def_cfa 2, 32
 972 0040 83348100 		ld	s1,8(sp)
 973              		.cfi_restore 9
 974              	.LVL107:
 975 0044 13010102 		addi	sp,sp,32
 976              		.cfi_def_cfa_offset 0
 977 0048 67800000 		jr	ra
 978              		.cfi_endproc
 979              	.LFE57:
 981              		.section	.rodata.str1.8
 982 009e 0000     		.align	3
 983              	.LC11:
 984 00a0 4D61696E 		.string	"Main thread\n"
 984      20746872 
 984      6561640A 
 984      00
 985 00ad 000000   		.align	3
 986              	.LC12:
 987 00b0 456E642E 		.string	"End...\n"
 987      2E2E0A00 
 988              		.text
 989              		.align	2
 990              		.globl	_Z11threadTest1v
 992              	_Z11threadTest1v:
 993              	.LFB27:
  62:src/Tests.cpp **** {
 994              		.loc 2 62 1 is_stmt 1
 995              		.cfi_startproc
 996              		.cfi_personality 0x9b,DW.ref.__gxx_personality_v0
 997              		.cfi_lsda 0x1b,.LLSDA27
 998 04c8 130101FE 		addi	sp,sp,-32
 999              		.cfi_def_cfa_offset 32
GAS LISTING /tmp/ccDWEfAB.s 			page 32


 1000 04cc 233C1100 		sd	ra,24(sp)
 1001 04d0 23388100 		sd	s0,16(sp)
 1002 04d4 23349100 		sd	s1,8(sp)
 1003 04d8 23302101 		sd	s2,0(sp)
 1004              		.cfi_offset 1, -8
 1005              		.cfi_offset 8, -16
 1006              		.cfi_offset 9, -24
 1007              		.cfi_offset 18, -32
 1008 04dc 13040102 		addi	s0,sp,32
 1009              		.cfi_def_cfa 8, 0
  63:src/Tests.cpp ****     Thread* t1 = new Thread(&thread1Function, 0);
 1010              		.loc 2 63 5
  63:src/Tests.cpp ****     Thread* t1 = new Thread(&thread1Function, 0);
 1011              		.loc 2 63 48 is_stmt 0
 1012 04e0 13050002 		li	a0,32
 1013              	.LEHB0:
 1014 04e4 97000000 		call	_Znwm@plt
 1014      E7800000 
 1015              	.LVL108:
 1016              	.LEHE0:
 1017 04ec 93040500 		mv	s1,a0
 1018 04f0 13060000 		li	a2,0
 1019 04f4 97050000 		lla	a1,_Z15thread1FunctionPv
 1019      93850500 
 1020              	.LEHB1:
 1021 04fc 97000000 		call	_ZN6ThreadC1EPFvPvES0_@plt
 1021      E7800000 
 1022              	.LVL109:
 1023              	.LEHE1:
  64:src/Tests.cpp ****     t1->start();
 1024              		.loc 2 64 5 is_stmt 1 discriminator 2
  64:src/Tests.cpp ****     t1->start();
 1025              		.loc 2 64 14 is_stmt 0 discriminator 2
 1026 0504 13850400 		mv	a0,s1
 1027              	.LEHB2:
 1028 0508 97000000 		call	_ZN6Thread5startEv@plt
 1028      E7800000 
 1029              	.LVL110:
  65:src/Tests.cpp ****     Thread* t2 = new Thread(&thread2Function, 0);
 1030              		.loc 2 65 5 is_stmt 1 discriminator 2
  65:src/Tests.cpp ****     Thread* t2 = new Thread(&thread2Function, 0);
 1031              		.loc 2 65 48 is_stmt 0 discriminator 2
 1032 0510 13050002 		li	a0,32
 1033 0514 97000000 		call	_Znwm@plt
 1033      E7800000 
 1034              	.LVL111:
 1035              	.LEHE2:
 1036 051c 13090500 		mv	s2,a0
 1037 0520 13060000 		li	a2,0
 1038 0524 97050000 		lla	a1,_Z15thread2FunctionPv
 1038      93850500 
 1039              	.LEHB3:
 1040 052c 97000000 		call	_ZN6ThreadC1EPFvPvES0_@plt
 1040      E7800000 
 1041              	.LVL112:
 1042              	.LEHE3:
  66:src/Tests.cpp ****     t2->start();
GAS LISTING /tmp/ccDWEfAB.s 			page 33


 1043              		.loc 2 66 5 is_stmt 1 discriminator 2
  66:src/Tests.cpp ****     t2->start();
 1044              		.loc 2 66 14 is_stmt 0 discriminator 2
 1045 0534 13050900 		mv	a0,s2
 1046              	.LEHB4:
 1047 0538 97000000 		call	_ZN6Thread5startEv@plt
 1047      E7800000 
 1048              	.LVL113:
  67:src/Tests.cpp ****     Riscv::enableInterrupts();
 1049              		.loc 2 67 5 is_stmt 1 discriminator 2
  67:src/Tests.cpp ****     Riscv::enableInterrupts();
 1050              		.loc 2 67 28 is_stmt 0 discriminator 2
 1051 0540 97000000 		call	_ZN5Riscv16enableInterruptsEv@plt
 1051      E7800000 
 1052              	.LVL114:
 1053 0548 6F00C001 		j	.L66
 1054              	.L64:
  70:src/Tests.cpp ****         Riscv::printString("Main thread\n");
 1055              		.loc 2 70 9 is_stmt 1 discriminator 3
  70:src/Tests.cpp ****         Riscv::printString("Main thread\n");
 1056              		.loc 2 70 27 is_stmt 0 discriminator 3
 1057 054c 17050000 		lla	a0,.LC11
 1057      13050500 
 1058 0554 97000000 		call	_ZN5Riscv11printStringEPKc@plt
 1058      E7800000 
 1059              	.LVL115:
  71:src/Tests.cpp ****         thread_dispatch();
 1060              		.loc 2 71 9 is_stmt 1 discriminator 3
  71:src/Tests.cpp ****         thread_dispatch();
 1061              		.loc 2 71 24 is_stmt 0 discriminator 3
 1062 055c 97000000 		call	thread_dispatch@plt
 1062      E7800000 
 1063              	.LVL116:
 1064              	.L66:
  68:src/Tests.cpp ****     while(t1->myHandle->getState() != PCB::FINISHED || t2->myHandle->getState() != PCB::FINISHED)
 1065              		.loc 2 68 5 is_stmt 1
  68:src/Tests.cpp ****     while(t1->myHandle->getState() != PCB::FINISHED || t2->myHandle->getState() != PCB::FINISHED)
 1066              		.loc 2 68 53
  68:src/Tests.cpp ****     while(t1->myHandle->getState() != PCB::FINISHED || t2->myHandle->getState() != PCB::FINISHED)
 1067              		.loc 2 68 15 is_stmt 0
 1068 0564 83B78400 		ld	a5,8(s1)
 1069              	.LVL117:
 1070              	.LBB32:
 1071              	.LBB33:
 1072              		.file 4 "src/../h/PCB.hpp"
   1:src/../h/PCB.hpp **** //
   2:src/../h/PCB.hpp **** // Created by os on 4/27/22.
   3:src/../h/PCB.hpp **** //
   4:src/../h/PCB.hpp **** 
   5:src/../h/PCB.hpp **** #ifndef PROJECT_BASE_V1_0_PCB_HPP
   6:src/../h/PCB.hpp **** #define PROJECT_BASE_V1_0_PCB_HPP
   7:src/../h/PCB.hpp **** 
   8:src/../h/PCB.hpp **** #include "../lib/hw.h"
   9:src/../h/PCB.hpp **** #include "Scheduler.hpp"
  10:src/../h/PCB.hpp **** #include "Riscv.hpp"
  11:src/../h/PCB.hpp **** 
  12:src/../h/PCB.hpp **** class PCB
GAS LISTING /tmp/ccDWEfAB.s 			page 34


  13:src/../h/PCB.hpp **** {
  14:src/../h/PCB.hpp **** public:
  15:src/../h/PCB.hpp ****     using Body = void (*)(void*);
  16:src/../h/PCB.hpp **** 
  17:src/../h/PCB.hpp ****     PCB(Body body,  void* args, void* stack_space, uint64 timeSlice);
  18:src/../h/PCB.hpp ****     ~PCB();
  19:src/../h/PCB.hpp **** 
  20:src/../h/PCB.hpp ****     void start();
  21:src/../h/PCB.hpp ****     static void dispatch();
  22:src/../h/PCB.hpp ****     static void sleep(time_t);
  23:src/../h/PCB.hpp **** 
  24:src/../h/PCB.hpp ****     static PCB* running;
  25:src/../h/PCB.hpp ****     static PCB* exitingPCB;
  26:src/../h/PCB.hpp **** 
  27:src/../h/PCB.hpp ****     static uint64 timeSliceCounter;
  28:src/../h/PCB.hpp ****     uint64 getTimeSlice() { return timeSlice;}
  29:src/../h/PCB.hpp **** 
  30:src/../h/PCB.hpp ****     void* operator new(size_t size);
  31:src/../h/PCB.hpp ****     void operator delete(void *p);
  32:src/../h/PCB.hpp **** 
  33:src/../h/PCB.hpp ****     enum State{READY, RUNNING, SUSPENDED, FINISHED, EXITING, SLEEPING};
  34:src/../h/PCB.hpp ****     State getState() {return state;}
 1073              		.loc 4 34 23 is_stmt 1
 1074              		.loc 4 34 30 is_stmt 0
 1075 0568 03A70703 		lw	a4,48(a5)
 1076              	.LVL118:
 1077              	.LBE33:
 1078              	.LBE32:
  68:src/Tests.cpp ****     while(t1->myHandle->getState() != PCB::FINISHED || t2->myHandle->getState() != PCB::FINISHED)
 1079              		.loc 2 68 53
 1080 056c 93073000 		li	a5,3
 1081 0570 E31EF7FC 		bne	a4,a5,.L64
  68:src/Tests.cpp ****     while(t1->myHandle->getState() != PCB::FINISHED || t2->myHandle->getState() != PCB::FINISHED)
 1082              		.loc 2 68 60 discriminator 2
 1083 0574 83378900 		ld	a5,8(s2)
 1084              	.LVL119:
 1085              	.LBB34:
 1086              	.LBB35:
 1087              		.loc 4 34 23 is_stmt 1 discriminator 2
 1088              		.loc 4 34 30 is_stmt 0 discriminator 2
 1089 0578 03A70703 		lw	a4,48(a5)
 1090              	.LVL120:
 1091              	.LBE35:
 1092              	.LBE34:
  68:src/Tests.cpp ****     while(t1->myHandle->getState() != PCB::FINISHED || t2->myHandle->getState() != PCB::FINISHED)
 1093              		.loc 2 68 53 discriminator 2
 1094 057c 93073000 		li	a5,3
 1095 0580 E316F7FC 		bne	a4,a5,.L64
  74:src/Tests.cpp ****     Riscv::printString("End...\n");
 1096              		.loc 2 74 5 is_stmt 1
  74:src/Tests.cpp ****     Riscv::printString("End...\n");
 1097              		.loc 2 74 23 is_stmt 0
 1098 0584 17050000 		lla	a0,.LC12
 1098      13050500 
 1099 058c 97000000 		call	_ZN5Riscv11printStringEPKc@plt
 1099      E7800000 
 1100              	.LVL121:
GAS LISTING /tmp/ccDWEfAB.s 			page 35


  75:src/Tests.cpp ****     Riscv::disableInterrupts();
 1101              		.loc 2 75 5 is_stmt 1
  75:src/Tests.cpp ****     Riscv::disableInterrupts();
 1102              		.loc 2 75 29 is_stmt 0
 1103 0594 97000000 		call	_ZN5Riscv17disableInterruptsEv@plt
 1103      E7800000 
 1104              	.LVL122:
 1105              	.LEHE4:
  76:src/Tests.cpp **** }
 1106              		.loc 2 76 1
 1107 059c 83308101 		ld	ra,24(sp)
 1108              		.cfi_remember_state
 1109              		.cfi_restore 1
 1110 05a0 03340101 		ld	s0,16(sp)
 1111              		.cfi_restore 8
 1112              		.cfi_def_cfa 2, 32
 1113 05a4 83348100 		ld	s1,8(sp)
 1114              		.cfi_restore 9
 1115              	.LVL123:
 1116 05a8 03390100 		ld	s2,0(sp)
 1117              		.cfi_restore 18
 1118              	.LVL124:
 1119 05ac 13010102 		addi	sp,sp,32
 1120              		.cfi_def_cfa_offset 0
 1121 05b0 67800000 		jr	ra
 1122              	.L69:
 1123              		.cfi_restore_state
 1124 05b4 13090500 		mv	s2,a0
  63:src/Tests.cpp ****     Thread* t1 = new Thread(&thread1Function, 0);
 1125              		.loc 2 63 48
 1126 05b8 13850400 		mv	a0,s1
 1127 05bc 97000000 		call	_ZdlPv@plt
 1127      E7800000 
 1128              	.LVL125:
 1129 05c4 13050900 		mv	a0,s2
 1130              	.LEHB5:
 1131 05c8 97000000 		call	_Unwind_Resume@plt
 1131      E7800000 
 1132              	.LVL126:
 1133              	.LEHE5:
 1134              	.L70:
 1135 05d0 93040500 		mv	s1,a0
 1136              	.LVL127:
  65:src/Tests.cpp ****     Thread* t2 = new Thread(&thread2Function, 0);
 1137              		.loc 2 65 48
 1138 05d4 13050900 		mv	a0,s2
 1139 05d8 97000000 		call	_ZdlPv@plt
 1139      E7800000 
 1140              	.LVL128:
 1141 05e0 13850400 		mv	a0,s1
 1142              	.LEHB6:
 1143 05e4 97000000 		call	_Unwind_Resume@plt
 1143      E7800000 
 1144              	.LVL129:
 1145              	.LEHE6:
 1146              		.cfi_endproc
 1147              	.LFE27:
GAS LISTING /tmp/ccDWEfAB.s 			page 36


 1148              		.globl	__gxx_personality_v0
 1149              		.section	.gcc_except_table,"a",@progbits
 1150              	.LLSDA27:
 1151 0000 FF       		.byte	0xff
 1152 0001 FF       		.byte	0xff
 1153 0002 03       		.byte	0x3
 1154 0003 5B       		.byte	0x5b
 1155 0004 00000000 		.4byte	.LEHB0-.LFB27
 1156 0008 00000000 		.4byte	.LEHE0-.LEHB0
 1157 000c 00000000 		.4byte	0
 1158 0010 00       		.byte	0
 1159 0011 00000000 		.4byte	.LEHB1-.LFB27
 1160 0015 00000000 		.4byte	.LEHE1-.LEHB1
 1161 0019 00000000 		.4byte	.L69-.LFB27
 1162 001d 00       		.byte	0
 1163 001e 00000000 		.4byte	.LEHB2-.LFB27
 1164 0022 00000000 		.4byte	.LEHE2-.LEHB2
 1165 0026 00000000 		.4byte	0
 1166 002a 00       		.byte	0
 1167 002b 00000000 		.4byte	.LEHB3-.LFB27
 1168 002f 00000000 		.4byte	.LEHE3-.LEHB3
 1169 0033 00000000 		.4byte	.L70-.LFB27
 1170 0037 00       		.byte	0
 1171 0038 00000000 		.4byte	.LEHB4-.LFB27
 1172 003c 00000000 		.4byte	.LEHE4-.LEHB4
 1173 0040 00000000 		.4byte	0
 1174 0044 00       		.byte	0
 1175 0045 00000000 		.4byte	.LEHB5-.LFB27
 1176 0049 00000000 		.4byte	.LEHE5-.LEHB5
 1177 004d 00000000 		.4byte	0
 1178 0051 00       		.byte	0
 1179 0052 00000000 		.4byte	.LEHB6-.LFB27
 1180 0056 00000000 		.4byte	.LEHE6-.LEHB6
 1181 005a 00000000 		.4byte	0
 1182 005e 00       		.byte	0
 1183              		.text
 1185              		.align	2
 1186              		.globl	_Z11threadTest2v
 1188              	_Z11threadTest2v:
 1189              	.LFB28:
  79:src/Tests.cpp **** {
 1190              		.loc 2 79 1 is_stmt 1
 1191              		.cfi_startproc
 1192              		.cfi_personality 0x9b,DW.ref.__gxx_personality_v0
 1193              		.cfi_lsda 0x1b,.LLSDA28
 1194 05ec 130101FE 		addi	sp,sp,-32
 1195              		.cfi_def_cfa_offset 32
 1196 05f0 233C1100 		sd	ra,24(sp)
 1197 05f4 23388100 		sd	s0,16(sp)
 1198 05f8 23349100 		sd	s1,8(sp)
 1199 05fc 23302101 		sd	s2,0(sp)
 1200              		.cfi_offset 1, -8
 1201              		.cfi_offset 8, -16
 1202              		.cfi_offset 9, -24
 1203              		.cfi_offset 18, -32
 1204 0600 13040102 		addi	s0,sp,32
 1205              		.cfi_def_cfa 8, 0
GAS LISTING /tmp/ccDWEfAB.s 			page 37


  80:src/Tests.cpp ****     Thread* idleThread = new Thread(&idle, 0);
 1206              		.loc 2 80 5
  80:src/Tests.cpp ****     Thread* idleThread = new Thread(&idle, 0);
 1207              		.loc 2 80 45 is_stmt 0
 1208 0604 13050002 		li	a0,32
 1209              	.LEHB7:
 1210 0608 97000000 		call	_Znwm@plt
 1210      E7800000 
 1211              	.LVL130:
 1212              	.LEHE7:
 1213 0610 93040500 		mv	s1,a0
 1214 0614 13060000 		li	a2,0
 1215 0618 97050000 		lla	a1,_Z4idlePv
 1215      93850500 
 1216              	.LEHB8:
 1217 0620 97000000 		call	_ZN6ThreadC1EPFvPvES0_@plt
 1217      E7800000 
 1218              	.LVL131:
 1219              	.LEHE8:
  81:src/Tests.cpp ****     idleThread->start();
 1220              		.loc 2 81 5 is_stmt 1 discriminator 2
  81:src/Tests.cpp ****     idleThread->start();
 1221              		.loc 2 81 22 is_stmt 0 discriminator 2
 1222 0628 13850400 		mv	a0,s1
 1223              	.LEHB9:
 1224 062c 97000000 		call	_ZN6Thread5startEv@plt
 1224      E7800000 
 1225              	.LVL132:
  82:src/Tests.cpp ****     Thread* t1 = new Thread(&thread1Function, 0);
 1226              		.loc 2 82 5 is_stmt 1 discriminator 2
  82:src/Tests.cpp ****     Thread* t1 = new Thread(&thread1Function, 0);
 1227              		.loc 2 82 48 is_stmt 0 discriminator 2
 1228 0634 13050002 		li	a0,32
 1229 0638 97000000 		call	_Znwm@plt
 1229      E7800000 
 1230              	.LVL133:
 1231              	.LEHE9:
 1232 0640 13090500 		mv	s2,a0
 1233 0644 13060000 		li	a2,0
 1234 0648 97050000 		lla	a1,_Z15thread1FunctionPv
 1234      93850500 
 1235              	.LEHB10:
 1236 0650 97000000 		call	_ZN6ThreadC1EPFvPvES0_@plt
 1236      E7800000 
 1237              	.LVL134:
 1238              	.LEHE10:
  83:src/Tests.cpp ****     t1->start();
 1239              		.loc 2 83 5 is_stmt 1 discriminator 2
  83:src/Tests.cpp ****     t1->start();
 1240              		.loc 2 83 14 is_stmt 0 discriminator 2
 1241 0658 13050900 		mv	a0,s2
 1242              	.LEHB11:
 1243 065c 97000000 		call	_ZN6Thread5startEv@plt
 1243      E7800000 
 1244              	.LVL135:
  84:src/Tests.cpp ****     Thread* t2  = new Thread(&thread2FunctionTest2, 0);
 1245              		.loc 2 84 5 is_stmt 1 discriminator 2
GAS LISTING /tmp/ccDWEfAB.s 			page 38


  84:src/Tests.cpp ****     Thread* t2  = new Thread(&thread2FunctionTest2, 0);
 1246              		.loc 2 84 54 is_stmt 0 discriminator 2
 1247 0664 13050002 		li	a0,32
 1248 0668 97000000 		call	_Znwm@plt
 1248      E7800000 
 1249              	.LVL136:
 1250              	.LEHE11:
 1251 0670 13090500 		mv	s2,a0
 1252              	.LVL137:
 1253 0674 13060000 		li	a2,0
 1254 0678 97050000 		lla	a1,_Z20thread2FunctionTest2Pv
 1254      93850500 
 1255              	.LEHB12:
 1256 0680 97000000 		call	_ZN6ThreadC1EPFvPvES0_@plt
 1256      E7800000 
 1257              	.LVL138:
 1258              	.LEHE12:
  85:src/Tests.cpp ****     t2->start();
 1259              		.loc 2 85 5 is_stmt 1 discriminator 2
  85:src/Tests.cpp ****     t2->start();
 1260              		.loc 2 85 14 is_stmt 0 discriminator 2
 1261 0688 13050900 		mv	a0,s2
 1262              	.LEHB13:
 1263 068c 97000000 		call	_ZN6Thread5startEv@plt
 1263      E7800000 
 1264              	.LVL139:
  87:src/Tests.cpp ****     Riscv::enableInterrupts();
 1265              		.loc 2 87 5 is_stmt 1 discriminator 2
  87:src/Tests.cpp ****     Riscv::enableInterrupts();
 1266              		.loc 2 87 28 is_stmt 0 discriminator 2
 1267 0694 97000000 		call	_ZN5Riscv16enableInterruptsEv@plt
 1267      E7800000 
 1268              	.LVL140:
 1269              	.L74:
  89:src/Tests.cpp ****     while(idleThread->myHandle->getState() != PCB::FINISHED);
 1270              		.loc 2 89 5 is_stmt 1
  89:src/Tests.cpp ****     while(idleThread->myHandle->getState() != PCB::FINISHED);
 1271              		.loc 2 89 44
  89:src/Tests.cpp ****     while(idleThread->myHandle->getState() != PCB::FINISHED);
 1272              		.loc 2 89 23 is_stmt 0
 1273 069c 83B78400 		ld	a5,8(s1)
 1274              	.LVL141:
 1275              	.LBB36:
 1276              	.LBB37:
 1277              		.loc 4 34 23 is_stmt 1
 1278              		.loc 4 34 30 is_stmt 0
 1279 06a0 03A70703 		lw	a4,48(a5)
 1280              	.LVL142:
 1281              	.LBE37:
 1282              	.LBE36:
  89:src/Tests.cpp ****     while(idleThread->myHandle->getState() != PCB::FINISHED);
 1283              		.loc 2 89 44
 1284 06a4 93073000 		li	a5,3
 1285 06a8 E31AF7FE 		bne	a4,a5,.L74
  91:src/Tests.cpp ****     Riscv::printString("End...\n");
 1286              		.loc 2 91 5 is_stmt 1
  91:src/Tests.cpp ****     Riscv::printString("End...\n");
GAS LISTING /tmp/ccDWEfAB.s 			page 39


 1287              		.loc 2 91 23 is_stmt 0
 1288 06ac 17050000 		lla	a0,.LC12
 1288      13050500 
 1289 06b4 97000000 		call	_ZN5Riscv11printStringEPKc@plt
 1289      E7800000 
 1290              	.LVL143:
  93:src/Tests.cpp ****     Riscv::disableInterrupts();
 1291              		.loc 2 93 5 is_stmt 1
  93:src/Tests.cpp ****     Riscv::disableInterrupts();
 1292              		.loc 2 93 29 is_stmt 0
 1293 06bc 97000000 		call	_ZN5Riscv17disableInterruptsEv@plt
 1293      E7800000 
 1294              	.LVL144:
 1295              	.LEHE13:
  94:src/Tests.cpp **** }
 1296              		.loc 2 94 1
 1297 06c4 83308101 		ld	ra,24(sp)
 1298              		.cfi_remember_state
 1299              		.cfi_restore 1
 1300 06c8 03340101 		ld	s0,16(sp)
 1301              		.cfi_restore 8
 1302              		.cfi_def_cfa 2, 32
 1303 06cc 83348100 		ld	s1,8(sp)
 1304              		.cfi_restore 9
 1305              	.LVL145:
 1306 06d0 03390100 		ld	s2,0(sp)
 1307              		.cfi_restore 18
 1308              	.LVL146:
 1309 06d4 13010102 		addi	sp,sp,32
 1310              		.cfi_def_cfa_offset 0
 1311 06d8 67800000 		jr	ra
 1312              	.L78:
 1313              		.cfi_restore_state
 1314 06dc 13090500 		mv	s2,a0
  80:src/Tests.cpp ****     Thread* idleThread = new Thread(&idle, 0);
 1315              		.loc 2 80 45
 1316 06e0 13850400 		mv	a0,s1
 1317 06e4 97000000 		call	_ZdlPv@plt
 1317      E7800000 
 1318              	.LVL147:
 1319 06ec 13050900 		mv	a0,s2
 1320              	.LEHB14:
 1321 06f0 97000000 		call	_Unwind_Resume@plt
 1321      E7800000 
 1322              	.LVL148:
 1323              	.LEHE14:
 1324              	.L79:
 1325 06f8 93040500 		mv	s1,a0
 1326              	.LVL149:
  82:src/Tests.cpp ****     Thread* t1 = new Thread(&thread1Function, 0);
 1327              		.loc 2 82 48
 1328 06fc 13050900 		mv	a0,s2
 1329 0700 97000000 		call	_ZdlPv@plt
 1329      E7800000 
 1330              	.LVL150:
 1331 0708 13850400 		mv	a0,s1
 1332              	.LEHB15:
GAS LISTING /tmp/ccDWEfAB.s 			page 40


 1333 070c 97000000 		call	_Unwind_Resume@plt
 1333      E7800000 
 1334              	.LVL151:
 1335              	.LEHE15:
 1336              	.L80:
 1337 0714 93040500 		mv	s1,a0
 1338              	.LVL152:
  84:src/Tests.cpp ****     Thread* t2  = new Thread(&thread2FunctionTest2, 0);
 1339              		.loc 2 84 54
 1340 0718 13050900 		mv	a0,s2
 1341 071c 97000000 		call	_ZdlPv@plt
 1341      E7800000 
 1342              	.LVL153:
 1343 0724 13850400 		mv	a0,s1
 1344              	.LEHB16:
 1345 0728 97000000 		call	_Unwind_Resume@plt
 1345      E7800000 
 1346              	.LVL154:
 1347              	.LEHE16:
 1348              		.cfi_endproc
 1349              	.LFE28:
 1350              		.section	.gcc_except_table
 1351              	.LLSDA28:
 1352 005f FF       		.byte	0xff
 1353 0060 FF       		.byte	0xff
 1354 0061 03       		.byte	0x3
 1355 0062 8201     		.byte	0x82,0x1
 1356 0064 00000000 		.4byte	.LEHB7-.LFB28
 1357 0068 00000000 		.4byte	.LEHE7-.LEHB7
 1358 006c 00000000 		.4byte	0
 1359 0070 00       		.byte	0
 1360 0071 00000000 		.4byte	.LEHB8-.LFB28
 1361 0075 00000000 		.4byte	.LEHE8-.LEHB8
 1362 0079 00000000 		.4byte	.L78-.LFB28
 1363 007d 00       		.byte	0
 1364 007e 00000000 		.4byte	.LEHB9-.LFB28
 1365 0082 00000000 		.4byte	.LEHE9-.LEHB9
 1366 0086 00000000 		.4byte	0
 1367 008a 00       		.byte	0
 1368 008b 00000000 		.4byte	.LEHB10-.LFB28
 1369 008f 00000000 		.4byte	.LEHE10-.LEHB10
 1370 0093 00000000 		.4byte	.L79-.LFB28
 1371 0097 00       		.byte	0
 1372 0098 00000000 		.4byte	.LEHB11-.LFB28
 1373 009c 00000000 		.4byte	.LEHE11-.LEHB11
 1374 00a0 00000000 		.4byte	0
 1375 00a4 00       		.byte	0
 1376 00a5 00000000 		.4byte	.LEHB12-.LFB28
 1377 00a9 00000000 		.4byte	.LEHE12-.LEHB12
 1378 00ad 00000000 		.4byte	.L80-.LFB28
 1379 00b1 00       		.byte	0
 1380 00b2 00000000 		.4byte	.LEHB13-.LFB28
 1381 00b6 00000000 		.4byte	.LEHE13-.LEHB13
 1382 00ba 00000000 		.4byte	0
 1383 00be 00       		.byte	0
 1384 00bf 00000000 		.4byte	.LEHB14-.LFB28
 1385 00c3 00000000 		.4byte	.LEHE14-.LEHB14
GAS LISTING /tmp/ccDWEfAB.s 			page 41


 1386 00c7 00000000 		.4byte	0
 1387 00cb 00       		.byte	0
 1388 00cc 00000000 		.4byte	.LEHB15-.LFB28
 1389 00d0 00000000 		.4byte	.LEHE15-.LEHB15
 1390 00d4 00000000 		.4byte	0
 1391 00d8 00       		.byte	0
 1392 00d9 00000000 		.4byte	.LEHB16-.LFB28
 1393 00dd 00000000 		.4byte	.LEHE16-.LEHB16
 1394 00e1 00000000 		.4byte	0
 1395 00e5 00       		.byte	0
 1396              		.text
 1398              		.align	2
 1399              		.globl	_Z11threadTestsv
 1401              	_Z11threadTestsv:
 1402              	.LFB30:
 108:src/Tests.cpp **** {
 1403              		.loc 2 108 1 is_stmt 1
 1404              		.cfi_startproc
 1405 0730 130101FF 		addi	sp,sp,-16
 1406              		.cfi_def_cfa_offset 16
 1407 0734 23348100 		sd	s0,8(sp)
 1408              		.cfi_offset 8, -8
 1409 0738 13040101 		addi	s0,sp,16
 1410              		.cfi_def_cfa 8, 0
 112:src/Tests.cpp **** }
 1411              		.loc 2 112 1 is_stmt 0
 1412 073c 03348100 		ld	s0,8(sp)
 1413              		.cfi_restore 8
 1414              		.cfi_def_cfa 2, 16
 1415 0740 13010101 		addi	sp,sp,16
 1416              		.cfi_def_cfa_offset 0
 1417 0744 67800000 		jr	ra
 1418              		.cfi_endproc
 1419              	.LFE30:
 1421              		.section	.rodata.str1.8
 1422              		.align	3
 1423              	.LC13:
 1424 00b8 6D616C6C 		.string	"mallocFree\n"
 1424      6F634672 
 1424      65650A00 
 1425 00c4 00000000 		.align	3
 1426              	.LC14:
 1427 00c8 6E6F7420 		.string	"not OK\n"
 1427      4F4B0A00 
 1428              		.align	3
 1429              	.LC15:
 1430 00d0 4F4B0A00 		.string	"OK\n"
 1431              		.text
 1432              		.align	2
 1433              		.globl	_Z10mallocFreev
 1435              	_Z10mallocFreev:
 1436              	.LFB31:
 117:src/Tests.cpp **** {
 1437              		.loc 2 117 1 is_stmt 1
 1438              		.cfi_startproc
 1439 0748 130101CC 		addi	sp,sp,-832
 1440              		.cfi_def_cfa_offset 832
GAS LISTING /tmp/ccDWEfAB.s 			page 42


 1441 074c 233C1132 		sd	ra,824(sp)
 1442 0750 23388132 		sd	s0,816(sp)
 1443 0754 23349132 		sd	s1,808(sp)
 1444              		.cfi_offset 1, -8
 1445              		.cfi_offset 8, -16
 1446              		.cfi_offset 9, -24
 1447 0758 13040134 		addi	s0,sp,832
 1448              		.cfi_def_cfa 8, 0
 118:src/Tests.cpp ****     Riscv::printString("mallocFree\n");
 1449              		.loc 2 118 5
 118:src/Tests.cpp ****     Riscv::printString("mallocFree\n");
 1450              		.loc 2 118 23 is_stmt 0
 1451 075c 17050000 		lla	a0,.LC13
 1451      13050500 
 1452 0764 97000000 		call	_ZN5Riscv11printStringEPKc@plt
 1452      E7800000 
 1453              	.LVL155:
 1454              	.LBB38:
 121:src/Tests.cpp ****     for(int i = 0; i < num;i++)
 1455              		.loc 2 121 13
 1456 076c 93040000 		li	s1,0
 1457 0770 6F008000 		j	.L89
 1458              	.LVL156:
 1459              	.L87:
 121:src/Tests.cpp ****     for(int i = 0; i < num;i++)
 1460              		.loc 2 121 5 is_stmt 1 discriminator 2
 1461 0774 9B841400 		addiw	s1,s1,1
 1462              	.LVL157:
 1463              	.L89:
 121:src/Tests.cpp ****     for(int i = 0; i < num;i++)
 1464              		.loc 2 121 22 discriminator 1
 1465 0778 93073006 		li	a5,99
 1466 077c 63C49704 		bgt	s1,a5,.L97
 123:src/Tests.cpp ****         addrs[i] = mem_alloc(100);
 1467              		.loc 2 123 9
 123:src/Tests.cpp ****         addrs[i] = mem_alloc(100);
 1468              		.loc 2 123 29 is_stmt 0
 1469 0780 13054006 		li	a0,100
 1470 0784 97000000 		call	mem_alloc@plt
 1470      E7800000 
 1471              	.LVL158:
 123:src/Tests.cpp ****         addrs[i] = mem_alloc(100);
 1472              		.loc 2 123 18
 1473 078c 93973400 		slli	a5,s1,3
 1474 0790 130704FE 		addi	a4,s0,-32
 1475 0794 B307F700 		add	a5,a4,a5
 1476 0798 23B0A7CE 		sd	a0,-800(a5)
 124:src/Tests.cpp ****         if(addrs[i] == 0)
 1477              		.loc 2 124 9 is_stmt 1
 1478 079c E31C05FC 		bnez	a0,.L87
 126:src/Tests.cpp ****             Riscv::printString("not OK\n");
 1479              		.loc 2 126 13
 126:src/Tests.cpp ****             Riscv::printString("not OK\n");
 1480              		.loc 2 126 31 is_stmt 0
 1481 07a0 17050000 		lla	a0,.LC14
 1481      13050500 
 1482 07a8 97000000 		call	_ZN5Riscv11printStringEPKc@plt
GAS LISTING /tmp/ccDWEfAB.s 			page 43


 1482      E7800000 
 1483              	.LVL159:
 127:src/Tests.cpp ****             return;
 1484              		.loc 2 127 13 is_stmt 1
 1485              	.L85:
 1486              	.LBE38:
 163:src/Tests.cpp **** }
 1487              		.loc 2 163 1 is_stmt 0
 1488 07b0 83308133 		ld	ra,824(sp)
 1489              		.cfi_remember_state
 1490              		.cfi_restore 1
 1491 07b4 03340133 		ld	s0,816(sp)
 1492              		.cfi_restore 8
 1493              		.cfi_def_cfa 2, 832
 1494 07b8 83348132 		ld	s1,808(sp)
 1495              		.cfi_restore 9
 1496 07bc 13010134 		addi	sp,sp,832
 1497              		.cfi_def_cfa_offset 0
 1498 07c0 67800000 		jr	ra
 1499              	.LVL160:
 1500              	.L97:
 1501              		.cfi_restore_state
 1502              	.LBB39:
 132:src/Tests.cpp ****     for(int i = 0 ; i < num;i+=2)
 1503              		.loc 2 132 13
 1504 07c4 93040000 		li	s1,0
 1505              	.LVL161:
 1506              	.L86:
 132:src/Tests.cpp ****     for(int i = 0 ; i < num;i+=2)
 1507              		.loc 2 132 23 is_stmt 1 discriminator 1
 1508 07c8 93073006 		li	a5,99
 1509 07cc 63CE9702 		bgt	s1,a5,.L98
 1510              	.LBB40:
 134:src/Tests.cpp ****         int retval = mem_free(addrs[i]);
 1511              		.loc 2 134 9
 134:src/Tests.cpp ****         int retval = mem_free(addrs[i]);
 1512              		.loc 2 134 30 is_stmt 0
 1513 07d0 93973400 		slli	a5,s1,3
 1514 07d4 130704FE 		addi	a4,s0,-32
 1515 07d8 B307F700 		add	a5,a4,a5
 1516 07dc 03B507CE 		ld	a0,-800(a5)
 1517 07e0 97000000 		call	mem_free@plt
 1517      E7800000 
 1518              	.LVL162:
 135:src/Tests.cpp ****         if(retval != 0)
 1519              		.loc 2 135 9 is_stmt 1
 1520 07e8 63160500 		bnez	a0,.L101
 1521              	.LBE40:
 132:src/Tests.cpp ****     for(int i = 0 ; i < num;i+=2)
 1522              		.loc 2 132 5 discriminator 2
 132:src/Tests.cpp ****     for(int i = 0 ; i < num;i+=2)
 1523              		.loc 2 132 30 is_stmt 0 discriminator 2
 1524 07ec 9B842400 		addiw	s1,s1,2
 1525              	.LVL163:
 132:src/Tests.cpp ****     for(int i = 0 ; i < num;i+=2)
 1526              		.loc 2 132 5 discriminator 2
 1527 07f0 6FF09FFD 		j	.L86
GAS LISTING /tmp/ccDWEfAB.s 			page 44


 1528              	.LVL164:
 1529              	.L101:
 1530              	.LBB41:
 137:src/Tests.cpp ****             Riscv::printString("not OK\n");
 1531              		.loc 2 137 13 is_stmt 1
 137:src/Tests.cpp ****             Riscv::printString("not OK\n");
 1532              		.loc 2 137 31 is_stmt 0
 1533 07f4 17050000 		lla	a0,.LC14
 1533      13050500 
 1534              	.LVL165:
 1535 07fc 97000000 		call	_ZN5Riscv11printStringEPKc@plt
 1535      E7800000 
 1536              	.LVL166:
 138:src/Tests.cpp ****             return;
 1537              		.loc 2 138 13 is_stmt 1
 1538 0804 6FF0DFFA 		j	.L85
 1539              	.L98:
 1540              	.LBE41:
 1541              	.LBE39:
 1542              	.LBB42:
 142:src/Tests.cpp ****     for(int i = 0 ; i < num;i+=2)
 1543              		.loc 2 142 13 is_stmt 0
 1544 0808 93040000 		li	s1,0
 1545              	.LVL167:
 1546 080c 6F008000 		j	.L90
 1547              	.LVL168:
 1548              	.L93:
 142:src/Tests.cpp ****     for(int i = 0 ; i < num;i+=2)
 1549              		.loc 2 142 5 is_stmt 1 discriminator 2
 142:src/Tests.cpp ****     for(int i = 0 ; i < num;i+=2)
 1550              		.loc 2 142 30 is_stmt 0 discriminator 2
 1551 0810 9B842400 		addiw	s1,s1,2
 1552              	.LVL169:
 1553              	.L90:
 142:src/Tests.cpp ****     for(int i = 0 ; i < num;i+=2)
 1554              		.loc 2 142 23 is_stmt 1 discriminator 1
 1555 0814 93073006 		li	a5,99
 1556 0818 63CC9702 		bgt	s1,a5,.L99
 144:src/Tests.cpp ****         addrs[i] = mem_alloc(20);
 1557              		.loc 2 144 9
 144:src/Tests.cpp ****         addrs[i] = mem_alloc(20);
 1558              		.loc 2 144 29 is_stmt 0
 1559 081c 13054001 		li	a0,20
 1560 0820 97000000 		call	mem_alloc@plt
 1560      E7800000 
 1561              	.LVL170:
 144:src/Tests.cpp ****         addrs[i] = mem_alloc(20);
 1562              		.loc 2 144 18
 1563 0828 93973400 		slli	a5,s1,3
 1564 082c 130704FE 		addi	a4,s0,-32
 1565 0830 B307F700 		add	a5,a4,a5
 1566 0834 23B0A7CE 		sd	a0,-800(a5)
 145:src/Tests.cpp ****         if(addrs[i] == 0)
 1567              		.loc 2 145 9 is_stmt 1
 1568 0838 E31C05FC 		bnez	a0,.L93
 147:src/Tests.cpp ****             Riscv::printString("not OK\n");
 1569              		.loc 2 147 13
GAS LISTING /tmp/ccDWEfAB.s 			page 45


 147:src/Tests.cpp ****             Riscv::printString("not OK\n");
 1570              		.loc 2 147 31 is_stmt 0
 1571 083c 17050000 		lla	a0,.LC14
 1571      13050500 
 1572 0844 97000000 		call	_ZN5Riscv11printStringEPKc@plt
 1572      E7800000 
 1573              	.LVL171:
 148:src/Tests.cpp ****             return;
 1574              		.loc 2 148 13 is_stmt 1
 1575 084c 6FF05FF6 		j	.L85
 1576              	.L99:
 1577              	.LBE42:
 1578              	.LBB43:
 152:src/Tests.cpp ****     for(int i = 0; i < num;i++)
 1579              		.loc 2 152 13 is_stmt 0
 1580 0850 93040000 		li	s1,0
 1581              	.LVL172:
 1582              	.L92:
 152:src/Tests.cpp ****     for(int i = 0; i < num;i++)
 1583              		.loc 2 152 22 is_stmt 1 discriminator 1
 1584 0854 93073006 		li	a5,99
 1585 0858 63CE9702 		bgt	s1,a5,.L94
 1586              	.LBB44:
 154:src/Tests.cpp ****         int retval = mem_free(addrs[i]);
 1587              		.loc 2 154 9
 154:src/Tests.cpp ****         int retval = mem_free(addrs[i]);
 1588              		.loc 2 154 30 is_stmt 0
 1589 085c 93973400 		slli	a5,s1,3
 1590 0860 130704FE 		addi	a4,s0,-32
 1591 0864 B307F700 		add	a5,a4,a5
 1592 0868 03B507CE 		ld	a0,-800(a5)
 1593 086c 97000000 		call	mem_free@plt
 1593      E7800000 
 1594              	.LVL173:
 155:src/Tests.cpp ****         if(retval != 0)
 1595              		.loc 2 155 9 is_stmt 1
 1596 0874 63160500 		bnez	a0,.L102
 1597              	.LBE44:
 152:src/Tests.cpp ****     for(int i = 0; i < num;i++)
 1598              		.loc 2 152 5 discriminator 2
 1599 0878 9B841400 		addiw	s1,s1,1
 1600              	.LVL174:
 1601 087c 6FF09FFD 		j	.L92
 1602              	.LVL175:
 1603              	.L102:
 1604              	.LBB45:
 157:src/Tests.cpp ****             Riscv::printString("not OK\n");
 1605              		.loc 2 157 13
 157:src/Tests.cpp ****             Riscv::printString("not OK\n");
 1606              		.loc 2 157 31 is_stmt 0
 1607 0880 17050000 		lla	a0,.LC14
 1607      13050500 
 1608              	.LVL176:
 1609 0888 97000000 		call	_ZN5Riscv11printStringEPKc@plt
 1609      E7800000 
 1610              	.LVL177:
 158:src/Tests.cpp ****             return;
GAS LISTING /tmp/ccDWEfAB.s 			page 46


 1611              		.loc 2 158 13 is_stmt 1
 1612 0890 6FF01FF2 		j	.L85
 1613              	.L94:
 1614              	.LBE45:
 1615              	.LBE43:
 162:src/Tests.cpp ****     Riscv::printString("OK\n");
 1616              		.loc 2 162 5
 162:src/Tests.cpp ****     Riscv::printString("OK\n");
 1617              		.loc 2 162 23 is_stmt 0
 1618 0894 17050000 		lla	a0,.LC15
 1618      13050500 
 1619 089c 97000000 		call	_ZN5Riscv11printStringEPKc@plt
 1619      E7800000 
 1620              	.LVL178:
 1621 08a4 6FF0DFF0 		j	.L85
 1622              		.cfi_endproc
 1623              	.LFE31:
 1625              		.section	.rodata.str1.8
 1626 00d4 00000000 		.align	3
 1627              	.LC16:
 1628 00d8 6269674D 		.string	"bigMalloc\n"
 1628      616C6C6F 
 1628      630A00
 1629              		.text
 1630              		.align	2
 1631              		.globl	_Z9bigMallocv
 1633              	_Z9bigMallocv:
 1634              	.LFB32:
 165:src/Tests.cpp **** {
 1635              		.loc 2 165 1 is_stmt 1
 1636              		.cfi_startproc
 1637 08a8 130101FF 		addi	sp,sp,-16
 1638              		.cfi_def_cfa_offset 16
 1639 08ac 23341100 		sd	ra,8(sp)
 1640 08b0 23308100 		sd	s0,0(sp)
 1641              		.cfi_offset 1, -8
 1642              		.cfi_offset 8, -16
 1643 08b4 13040101 		addi	s0,sp,16
 1644              		.cfi_def_cfa 8, 0
 166:src/Tests.cpp ****     Riscv::printString("bigMalloc\n");
 1645              		.loc 2 166 5
 166:src/Tests.cpp ****     Riscv::printString("bigMalloc\n");
 1646              		.loc 2 166 23 is_stmt 0
 1647 08b8 17050000 		lla	a0,.LC16
 1647      13050500 
 1648 08c0 97000000 		call	_ZN5Riscv11printStringEPKc@plt
 1648      E7800000 
 1649              	.LVL179:
 167:src/Tests.cpp ****     uint64 x = (uint64)HEAP_END_ADDR - (uint64)HEAP_START_ADDR + 100UL;
 1650              		.loc 2 167 5 is_stmt 1
 167:src/Tests.cpp ****     uint64 x = (uint64)HEAP_END_ADDR - (uint64)HEAP_START_ADDR + 100UL;
 1651              		.loc 2 167 38 is_stmt 0
 1652 08c8 97070000 		la	a5,HEAP_END_ADDR
 1652      83B70700 
 1653 08d0 03B50700 		ld	a0,0(a5)
 1654 08d4 97070000 		la	a5,HEAP_START_ADDR
 1654      83B70700 
GAS LISTING /tmp/ccDWEfAB.s 			page 47


 1655 08dc 83B70700 		ld	a5,0(a5)
 1656 08e0 3305F540 		sub	a0,a0,a5
 1657              	.LVL180:
 168:src/Tests.cpp ****     void* p = mem_alloc(x);
 1658              		.loc 2 168 5 is_stmt 1
 168:src/Tests.cpp ****     void* p = mem_alloc(x);
 1659              		.loc 2 168 24 is_stmt 0
 1660 08e4 13054506 		addi	a0,a0,100
 1661              	.LVL181:
 1662 08e8 97000000 		call	mem_alloc@plt
 1662      E7800000 
 1663              	.LVL182:
 169:src/Tests.cpp ****     if(p == 0)
 1664              		.loc 2 169 5 is_stmt 1
 1665 08f0 63020502 		beqz	a0,.L107
 172:src/Tests.cpp ****         Riscv::printString("not OK\n");
 1666              		.loc 2 172 9
 172:src/Tests.cpp ****         Riscv::printString("not OK\n");
 1667              		.loc 2 172 27 is_stmt 0
 1668 08f4 17050000 		lla	a0,.LC14
 1668      13050500 
 1669              	.LVL183:
 1670 08fc 97000000 		call	_ZN5Riscv11printStringEPKc@plt
 1670      E7800000 
 1671              	.LVL184:
 1672              	.L103:
 173:src/Tests.cpp **** }
 1673              		.loc 2 173 1
 1674 0904 83308100 		ld	ra,8(sp)
 1675              		.cfi_remember_state
 1676              		.cfi_restore 1
 1677 0908 03340100 		ld	s0,0(sp)
 1678              		.cfi_restore 8
 1679              		.cfi_def_cfa 2, 16
 1680 090c 13010101 		addi	sp,sp,16
 1681              		.cfi_def_cfa_offset 0
 1682 0910 67800000 		jr	ra
 1683              	.LVL185:
 1684              	.L107:
 1685              		.cfi_restore_state
 170:src/Tests.cpp ****         Riscv::printString("OK\n");
 1686              		.loc 2 170 9 is_stmt 1
 170:src/Tests.cpp ****         Riscv::printString("OK\n");
 1687              		.loc 2 170 27 is_stmt 0
 1688 0914 17050000 		lla	a0,.LC15
 1688      13050500 
 1689              	.LVL186:
 1690 091c 97000000 		call	_ZN5Riscv11printStringEPKc@plt
 1690      E7800000 
 1691              	.LVL187:
 1692 0924 6FF01FFE 		j	.L103
 1693              		.cfi_endproc
 1694              	.LFE32:
 1696              		.section	.rodata.str1.8
 1697 00e3 00000000 		.align	3
 1697      00
 1698              	.LC17:
GAS LISTING /tmp/ccDWEfAB.s 			page 48


 1699 00e8 6C6F744F 		.string	"lotOfSmallMallocs\n"
 1699      66536D61 
 1699      6C6C4D61 
 1699      6C6C6F63 
 1699      730A00
 1700              		.text
 1701              		.align	2
 1702              		.globl	_Z17lotOfSmallMallocsv
 1704              	_Z17lotOfSmallMallocsv:
 1705              	.LFB33:
 176:src/Tests.cpp **** {
 1706              		.loc 2 176 1 is_stmt 1
 1707              		.cfi_startproc
 1708 0928 130101FD 		addi	sp,sp,-48
 1709              		.cfi_def_cfa_offset 48
 1710 092c 23341102 		sd	ra,40(sp)
 1711 0930 23308102 		sd	s0,32(sp)
 1712 0934 233C9100 		sd	s1,24(sp)
 1713 0938 23382101 		sd	s2,16(sp)
 1714 093c 23343101 		sd	s3,8(sp)
 1715              		.cfi_offset 1, -8
 1716              		.cfi_offset 8, -16
 1717              		.cfi_offset 9, -24
 1718              		.cfi_offset 18, -32
 1719              		.cfi_offset 19, -40
 1720 0940 13040103 		addi	s0,sp,48
 1721              		.cfi_def_cfa 8, 0
 177:src/Tests.cpp ****     Riscv::printString("lotOfSmallMallocs\n");
 1722              		.loc 2 177 5
 177:src/Tests.cpp ****     Riscv::printString("lotOfSmallMallocs\n");
 1723              		.loc 2 177 23 is_stmt 0
 1724 0944 17050000 		lla	a0,.LC17
 1724      13050500 
 1725 094c 97000000 		call	_ZN5Riscv11printStringEPKc@plt
 1725      E7800000 
 1726              	.LVL188:
 178:src/Tests.cpp ****     uint64 cnt = 0;
 1727              		.loc 2 178 5 is_stmt 1
 179:src/Tests.cpp ****     uint64 sum = 0;
 1728              		.loc 2 179 5
 180:src/Tests.cpp ****     uint64 N = 10000UL;
 1729              		.loc 2 180 5
 181:src/Tests.cpp ****     uint64 X = 10UL;
 1730              		.loc 2 181 5
 182:src/Tests.cpp ****     for(uint64 i = 0; i < N;i++)
 1731              		.loc 2 182 5
 1732              	.LBB46:
 182:src/Tests.cpp ****     for(uint64 i = 0; i < N;i++)
 1733              		.loc 2 182 16 is_stmt 0
 1734 0954 93040000 		li	s1,0
 1735              	.LBE46:
 179:src/Tests.cpp ****     uint64 sum = 0;
 1736              		.loc 2 179 12
 1737 0958 93090000 		li	s3,0
 178:src/Tests.cpp ****     uint64 cnt = 0;
 1738              		.loc 2 178 12
 1739 095c 13090000 		li	s2,0
GAS LISTING /tmp/ccDWEfAB.s 			page 49


 1740 0960 6F008001 		j	.L110
 1741              	.LVL189:
 1742              	.L114:
 1743              	.LBB49:
 1744              	.LBB47:
 187:src/Tests.cpp ****         t->a = X;
 1745              		.loc 2 187 9 is_stmt 1 discriminator 2
 187:src/Tests.cpp ****         t->a = X;
 1746              		.loc 2 187 14 is_stmt 0 discriminator 2
 1747 0964 9307A000 		li	a5,10
 1748 0968 2330F500 		sd	a5,0(a0)
 188:src/Tests.cpp ****         sum+=t->a;
 1749              		.loc 2 188 9 is_stmt 1 discriminator 2
 188:src/Tests.cpp ****         sum+=t->a;
 1750              		.loc 2 188 12 is_stmt 0 discriminator 2
 1751 096c 9389A900 		addi	s3,s3,10
 1752              	.LVL190:
 189:src/Tests.cpp ****         cnt++;
 1753              		.loc 2 189 9 is_stmt 1 discriminator 2
 189:src/Tests.cpp ****         cnt++;
 1754              		.loc 2 189 12 is_stmt 0 discriminator 2
 1755 0970 13091900 		addi	s2,s2,1
 1756              	.LVL191:
 1757              	.LBE47:
 182:src/Tests.cpp ****     for(uint64 i = 0; i < N;i++)
 1758              		.loc 2 182 5 is_stmt 1 discriminator 2
 1759 0974 93841400 		addi	s1,s1,1
 1760              	.LVL192:
 1761              	.L110:
 182:src/Tests.cpp ****     for(uint64 i = 0; i < N;i++)
 1762              		.loc 2 182 25 discriminator 1
 1763 0978 B7270000 		li	a5,8192
 1764 097c 9387F770 		addi	a5,a5,1807
 1765 0980 63EA9700 		bgtu	s1,a5,.L109
 1766              	.LBB48:
 184:src/Tests.cpp ****         Test* t = (Test*)mem_alloc(sizeof(Test));
 1767              		.loc 2 184 9
 184:src/Tests.cpp ****         Test* t = (Test*)mem_alloc(sizeof(Test));
 1768              		.loc 2 184 35 is_stmt 0
 1769 0984 13058000 		li	a0,8
 1770 0988 97000000 		call	mem_alloc@plt
 1770      E7800000 
 1771              	.LVL193:
 185:src/Tests.cpp ****         if(t == 0)
 1772              		.loc 2 185 9 is_stmt 1
 1773 0990 E31A05FC 		bnez	a0,.L114
 1774              	.LVL194:
 1775              	.L109:
 1776              	.LBE48:
 1777              	.LBE49:
 191:src/Tests.cpp ****     Riscv::printInteger(cnt);
 1778              		.loc 2 191 5
 191:src/Tests.cpp ****     Riscv::printInteger(cnt);
 1779              		.loc 2 191 24 is_stmt 0
 1780 0994 13050900 		mv	a0,s2
 1781 0998 97000000 		call	_ZN5Riscv12printIntegerEm@plt
 1781      E7800000 
GAS LISTING /tmp/ccDWEfAB.s 			page 50


 1782              	.LVL195:
 192:src/Tests.cpp ****     Riscv::printString("\n");
 1783              		.loc 2 192 5 is_stmt 1
 192:src/Tests.cpp ****     Riscv::printString("\n");
 1784              		.loc 2 192 23 is_stmt 0
 1785 09a0 17050000 		lla	a0,.LC3
 1785      13050500 
 1786 09a8 97000000 		call	_ZN5Riscv11printStringEPKc@plt
 1786      E7800000 
 1787              	.LVL196:
 193:src/Tests.cpp ****     if(sum == X*cnt)
 1788              		.loc 2 193 5 is_stmt 1
 193:src/Tests.cpp ****     if(sum == X*cnt)
 1789              		.loc 2 193 16 is_stmt 0
 1790 09b0 93172900 		slli	a5,s2,2
 1791 09b4 33892701 		add	s2,a5,s2
 1792              	.LVL197:
 1793 09b8 13191900 		slli	s2,s2,1
 193:src/Tests.cpp ****     if(sum == X*cnt)
 1794              		.loc 2 193 5
 1795 09bc 63083903 		beq	s2,s3,.L115
 196:src/Tests.cpp ****         Riscv::printString("not OK\n");
 1796              		.loc 2 196 9 is_stmt 1
 196:src/Tests.cpp ****         Riscv::printString("not OK\n");
 1797              		.loc 2 196 27 is_stmt 0
 1798 09c0 17050000 		lla	a0,.LC14
 1798      13050500 
 1799 09c8 97000000 		call	_ZN5Riscv11printStringEPKc@plt
 1799      E7800000 
 1800              	.LVL198:
 1801              	.L108:
 197:src/Tests.cpp **** }
 1802              		.loc 2 197 1
 1803 09d0 83308102 		ld	ra,40(sp)
 1804              		.cfi_remember_state
 1805              		.cfi_restore 1
 1806 09d4 03340102 		ld	s0,32(sp)
 1807              		.cfi_restore 8
 1808              		.cfi_def_cfa 2, 48
 1809 09d8 83348101 		ld	s1,24(sp)
 1810              		.cfi_restore 9
 1811              	.LVL199:
 1812 09dc 03390101 		ld	s2,16(sp)
 1813              		.cfi_restore 18
 1814 09e0 83398100 		ld	s3,8(sp)
 1815              		.cfi_restore 19
 1816              	.LVL200:
 1817 09e4 13010103 		addi	sp,sp,48
 1818              		.cfi_def_cfa_offset 0
 1819 09e8 67800000 		jr	ra
 1820              	.LVL201:
 1821              	.L115:
 1822              		.cfi_restore_state
 194:src/Tests.cpp ****         Riscv::printString("OK\n");
 1823              		.loc 2 194 9 is_stmt 1
 194:src/Tests.cpp ****         Riscv::printString("OK\n");
 1824              		.loc 2 194 27 is_stmt 0
GAS LISTING /tmp/ccDWEfAB.s 			page 51


 1825 09ec 17050000 		lla	a0,.LC15
 1825      13050500 
 1826 09f4 97000000 		call	_ZN5Riscv11printStringEPKc@plt
 1826      E7800000 
 1827              	.LVL202:
 1828 09fc 6FF05FFD 		j	.L108
 1829              		.cfi_endproc
 1830              	.LFE33:
 1832              		.section	.rodata.str1.8
 1833 00fb 00000000 		.align	3
 1833      00
 1834              	.LC18:
 1835 0100 62616446 		.string	"badFree\n"
 1835      7265650A 
 1835      00
 1836              		.text
 1837              		.align	2
 1838              		.globl	_Z7badFreev
 1840              	_Z7badFreev:
 1841              	.LFB34:
 199:src/Tests.cpp **** {
 1842              		.loc 2 199 1 is_stmt 1
 1843              		.cfi_startproc
 1844 0a00 130101FF 		addi	sp,sp,-16
 1845              		.cfi_def_cfa_offset 16
 1846 0a04 23341100 		sd	ra,8(sp)
 1847 0a08 23308100 		sd	s0,0(sp)
 1848              		.cfi_offset 1, -8
 1849              		.cfi_offset 8, -16
 1850 0a0c 13040101 		addi	s0,sp,16
 1851              		.cfi_def_cfa 8, 0
 200:src/Tests.cpp ****     Riscv::printString("badFree\n");
 1852              		.loc 2 200 5
 200:src/Tests.cpp ****     Riscv::printString("badFree\n");
 1853              		.loc 2 200 23 is_stmt 0
 1854 0a10 17050000 		lla	a0,.LC18
 1854      13050500 
 1855 0a18 97000000 		call	_ZN5Riscv11printStringEPKc@plt
 1855      E7800000 
 1856              	.LVL203:
 201:src/Tests.cpp ****     Test* t = (Test*)mem_alloc(sizeof(Test));
 1857              		.loc 2 201 5 is_stmt 1
 201:src/Tests.cpp ****     Test* t = (Test*)mem_alloc(sizeof(Test));
 1858              		.loc 2 201 31 is_stmt 0
 1859 0a20 13058000 		li	a0,8
 1860 0a24 97000000 		call	mem_alloc@plt
 1860      E7800000 
 1861              	.LVL204:
 202:src/Tests.cpp ****     uint64 retval = mem_free((char*)t + 2);
 1862              		.loc 2 202 5 is_stmt 1
 202:src/Tests.cpp ****     uint64 retval = mem_free((char*)t + 2);
 1863              		.loc 2 202 29 is_stmt 0
 1864 0a2c 13052500 		addi	a0,a0,2
 1865              	.LVL205:
 1866 0a30 97000000 		call	mem_free@plt
 1866      E7800000 
 1867              	.LVL206:
GAS LISTING /tmp/ccDWEfAB.s 			page 52


 203:src/Tests.cpp ****     if(retval == 0)
 1868              		.loc 2 203 5 is_stmt 1
 1869 0a38 63120502 		bnez	a0,.L117
 204:src/Tests.cpp ****         Riscv::printString("not OK\n");
 1870              		.loc 2 204 9
 204:src/Tests.cpp ****         Riscv::printString("not OK\n");
 1871              		.loc 2 204 27 is_stmt 0
 1872 0a3c 17050000 		lla	a0,.LC14
 1872      13050500 
 1873              	.LVL207:
 1874 0a44 97000000 		call	_ZN5Riscv11printStringEPKc@plt
 1874      E7800000 
 1875              	.LVL208:
 1876              	.L116:
 207:src/Tests.cpp **** }
 1877              		.loc 2 207 1
 1878 0a4c 83308100 		ld	ra,8(sp)
 1879              		.cfi_remember_state
 1880              		.cfi_restore 1
 1881 0a50 03340100 		ld	s0,0(sp)
 1882              		.cfi_restore 8
 1883              		.cfi_def_cfa 2, 16
 1884 0a54 13010101 		addi	sp,sp,16
 1885              		.cfi_def_cfa_offset 0
 1886 0a58 67800000 		jr	ra
 1887              	.LVL209:
 1888              	.L117:
 1889              		.cfi_restore_state
 206:src/Tests.cpp ****         Riscv::printString("OK\n");
 1890              		.loc 2 206 9 is_stmt 1
 206:src/Tests.cpp ****         Riscv::printString("OK\n");
 1891              		.loc 2 206 27 is_stmt 0
 1892 0a5c 17050000 		lla	a0,.LC15
 1892      13050500 
 1893              	.LVL210:
 1894 0a64 97000000 		call	_ZN5Riscv11printStringEPKc@plt
 1894      E7800000 
 1895              	.LVL211:
 207:src/Tests.cpp **** }
 1896              		.loc 2 207 1
 1897 0a6c 6FF01FFE 		j	.L116
 1898              		.cfi_endproc
 1899              	.LFE34:
 1901              		.section	.rodata.str1.8
 1902 0109 00000000 		.align	3
 1902      000000
 1903              	.LC19:
 1904 0110 73747265 		.string	"stressTesting\n"
 1904      73735465 
 1904      7374696E 
 1904      670A00
 1905              		.text
 1906              		.align	2
 1907              		.globl	_Z13stressTestingv
 1909              	_Z13stressTestingv:
 1910              	.LFB35:
 210:src/Tests.cpp **** {
GAS LISTING /tmp/ccDWEfAB.s 			page 53


 1911              		.loc 2 210 1 is_stmt 1
 1912              		.cfi_startproc
 1913 0a70 130101CC 		addi	sp,sp,-832
 1914              		.cfi_def_cfa_offset 832
 1915 0a74 233C1132 		sd	ra,824(sp)
 1916 0a78 23388132 		sd	s0,816(sp)
 1917 0a7c 23349132 		sd	s1,808(sp)
 1918 0a80 23302133 		sd	s2,800(sp)
 1919              		.cfi_offset 1, -8
 1920              		.cfi_offset 8, -16
 1921              		.cfi_offset 9, -24
 1922              		.cfi_offset 18, -32
 1923 0a84 13040134 		addi	s0,sp,832
 1924              		.cfi_def_cfa 8, 0
 211:src/Tests.cpp ****     Riscv::printString("stressTesting\n");
 1925              		.loc 2 211 5
 211:src/Tests.cpp ****     Riscv::printString("stressTesting\n");
 1926              		.loc 2 211 23 is_stmt 0
 1927 0a88 17050000 		lla	a0,.LC19
 1927      13050500 
 1928 0a90 97000000 		call	_ZN5Riscv11printStringEPKc@plt
 1928      E7800000 
 1929              	.LVL212:
 1930              	.LBB50:
 214:src/Tests.cpp ****     for(int i = 0; i < num;i++)
 1931              		.loc 2 214 13
 1932 0a98 93040000 		li	s1,0
 1933 0a9c 6F008000 		j	.L123
 1934              	.LVL213:
 1935              	.L132:
 214:src/Tests.cpp ****     for(int i = 0; i < num;i++)
 1936              		.loc 2 214 5 is_stmt 1 discriminator 2
 1937 0aa0 9B841400 		addiw	s1,s1,1
 1938              	.LVL214:
 1939              	.L123:
 214:src/Tests.cpp ****     for(int i = 0; i < num;i++)
 1940              		.loc 2 214 22 discriminator 1
 1941 0aa4 93073006 		li	a5,99
 1942 0aa8 63CE9702 		bgt	s1,a5,.L129
 216:src/Tests.cpp ****         addrs[i] = mem_alloc(1);
 1943              		.loc 2 216 9
 216:src/Tests.cpp ****         addrs[i] = mem_alloc(1);
 1944              		.loc 2 216 29 is_stmt 0
 1945 0aac 13051000 		li	a0,1
 1946 0ab0 97000000 		call	mem_alloc@plt
 1946      E7800000 
 1947              	.LVL215:
 216:src/Tests.cpp ****         addrs[i] = mem_alloc(1);
 1948              		.loc 2 216 18
 1949 0ab8 93973400 		slli	a5,s1,3
 1950 0abc 130704FE 		addi	a4,s0,-32
 1951 0ac0 B307F700 		add	a5,a4,a5
 1952 0ac4 23B0A7CE 		sd	a0,-800(a5)
 217:src/Tests.cpp ****         if(addrs[i] == 0)
 1953              		.loc 2 217 9 is_stmt 1
 1954 0ac8 E31C05FC 		bnez	a0,.L132
 1955              	.LVL216:
GAS LISTING /tmp/ccDWEfAB.s 			page 54


 1956              	.L120:
 1957              	.LBE50:
 274:src/Tests.cpp **** }
 1958              		.loc 2 274 1 is_stmt 0
 1959 0acc 83308133 		ld	ra,824(sp)
 1960              		.cfi_remember_state
 1961              		.cfi_restore 1
 1962 0ad0 03340133 		ld	s0,816(sp)
 1963              		.cfi_restore 8
 1964              		.cfi_def_cfa 2, 832
 1965 0ad4 83348132 		ld	s1,808(sp)
 1966              		.cfi_restore 9
 1967 0ad8 03390132 		ld	s2,800(sp)
 1968              		.cfi_restore 18
 1969 0adc 13010134 		addi	sp,sp,832
 1970              		.cfi_def_cfa_offset 0
 1971 0ae0 67800000 		jr	ra
 1972              	.LVL217:
 1973              	.L129:
 1974              		.cfi_restore_state
 224:src/Tests.cpp ****     int sz = 300;
 1975              		.loc 2 224 9
 1976 0ae4 1309C012 		li	s2,300
 1977              	.LVL218:
 1978              	.L121:
 225:src/Tests.cpp ****     while(sz > 0)
 1979              		.loc 2 225 5 is_stmt 1
 225:src/Tests.cpp ****     while(sz > 0)
 1980              		.loc 2 225 14
 1981 0ae8 635A200B 		blez	s2,.L124
 1982              	.LBB51:
 1983              	.LBB52:
 229:src/Tests.cpp ****         for(int i = 0 ; i < num;i+=2)
 1984              		.loc 2 229 17 is_stmt 0
 1985 0aec 93040000 		li	s1,0
 1986              	.L126:
 1987              	.LVL219:
 229:src/Tests.cpp ****         for(int i = 0 ; i < num;i+=2)
 1988              		.loc 2 229 27 is_stmt 1 discriminator 1
 1989 0af0 93073006 		li	a5,99
 1990 0af4 63C89704 		bgt	s1,a5,.L130
 1991              	.LBB53:
 234:src/Tests.cpp ****             int retval = mem_free(addrs[i]);
 1992              		.loc 2 234 13
 234:src/Tests.cpp ****             int retval = mem_free(addrs[i]);
 1993              		.loc 2 234 34 is_stmt 0
 1994 0af8 93973400 		slli	a5,s1,3
 1995 0afc 130704FE 		addi	a4,s0,-32
 1996 0b00 B307F700 		add	a5,a4,a5
 1997 0b04 03B507CE 		ld	a0,-800(a5)
 1998 0b08 97000000 		call	mem_free@plt
 1998      E7800000 
 1999              	.LVL220:
 235:src/Tests.cpp ****             if(retval != 0)
 2000              		.loc 2 235 13 is_stmt 1
 2001 0b10 E31E05FA 		bnez	a0,.L120
 241:src/Tests.cpp ****             addrs[i] = mem_alloc(sz/2);
GAS LISTING /tmp/ccDWEfAB.s 			page 55


 2002              		.loc 2 241 13
 241:src/Tests.cpp ****             addrs[i] = mem_alloc(sz/2);
 2003              		.loc 2 241 36 is_stmt 0
 2004 0b14 1B55F901 		srliw	a0,s2,31
 2005              	.LVL221:
 2006 0b18 3B052501 		addw	a0,a0,s2
 241:src/Tests.cpp ****             addrs[i] = mem_alloc(sz/2);
 2007              		.loc 2 241 33
 2008 0b1c 1B551540 		sraiw	a0,a0,1
 2009 0b20 97000000 		call	mem_alloc@plt
 2009      E7800000 
 2010              	.LVL222:
 241:src/Tests.cpp ****             addrs[i] = mem_alloc(sz/2);
 2011              		.loc 2 241 22
 2012 0b28 93973400 		slli	a5,s1,3
 2013 0b2c 130704FE 		addi	a4,s0,-32
 2014 0b30 B307F700 		add	a5,a4,a5
 2015 0b34 23B0A7CE 		sd	a0,-800(a5)
 242:src/Tests.cpp ****             if(addrs[i] == 0)
 2016              		.loc 2 242 13 is_stmt 1
 2017 0b38 E30A05F8 		beqz	a0,.L120
 2018              	.LBE53:
 229:src/Tests.cpp ****         for(int i = 0 ; i < num;i+=2)
 2019              		.loc 2 229 9 discriminator 2
 229:src/Tests.cpp ****         for(int i = 0 ; i < num;i+=2)
 2020              		.loc 2 229 34 is_stmt 0 discriminator 2
 2021 0b3c 9B842400 		addiw	s1,s1,2
 2022              	.LVL223:
 229:src/Tests.cpp ****         for(int i = 0 ; i < num;i+=2)
 2023              		.loc 2 229 9 discriminator 2
 2024 0b40 6FF01FFB 		j	.L126
 2025              	.LVL224:
 2026              	.L130:
 2027              	.LBE52:
 2028              	.LBB54:
 250:src/Tests.cpp ****         for(int i = 1 ; i < num;i+=2)
 2029              		.loc 2 250 17
 2030 0b44 93041000 		li	s1,1
 2031              	.LVL225:
 2032              	.L125:
 250:src/Tests.cpp ****         for(int i = 1 ; i < num;i+=2)
 2033              		.loc 2 250 27 is_stmt 1 discriminator 1
 2034 0b48 93073006 		li	a5,99
 2035 0b4c 63C49704 		bgt	s1,a5,.L127
 2036              	.LBB55:
 255:src/Tests.cpp ****             int retval = mem_free(addrs[i]);
 2037              		.loc 2 255 13
 255:src/Tests.cpp ****             int retval = mem_free(addrs[i]);
 2038              		.loc 2 255 34 is_stmt 0
 2039 0b50 93973400 		slli	a5,s1,3
 2040 0b54 130704FE 		addi	a4,s0,-32
 2041 0b58 B307F700 		add	a5,a4,a5
 2042 0b5c 03B507CE 		ld	a0,-800(a5)
 2043 0b60 97000000 		call	mem_free@plt
 2043      E7800000 
 2044              	.LVL226:
 256:src/Tests.cpp ****             if(retval != 0)
GAS LISTING /tmp/ccDWEfAB.s 			page 56


 2045              		.loc 2 256 13 is_stmt 1
 2046 0b68 E31205F6 		bnez	a0,.L120
 262:src/Tests.cpp ****             addrs[i] = mem_alloc(sz);
 2047              		.loc 2 262 13
 262:src/Tests.cpp ****             addrs[i] = mem_alloc(sz);
 2048              		.loc 2 262 33 is_stmt 0
 2049 0b6c 13050900 		mv	a0,s2
 2050              	.LVL227:
 2051 0b70 97000000 		call	mem_alloc@plt
 2051      E7800000 
 2052              	.LVL228:
 262:src/Tests.cpp ****             addrs[i] = mem_alloc(sz);
 2053              		.loc 2 262 22
 2054 0b78 93973400 		slli	a5,s1,3
 2055 0b7c 130704FE 		addi	a4,s0,-32
 2056 0b80 B307F700 		add	a5,a4,a5
 2057 0b84 23B0A7CE 		sd	a0,-800(a5)
 263:src/Tests.cpp ****             if(addrs[i] == 0)
 2058              		.loc 2 263 13 is_stmt 1
 2059 0b88 E30205F4 		beqz	a0,.L120
 2060              	.LBE55:
 250:src/Tests.cpp ****         for(int i = 1 ; i < num;i+=2)
 2061              		.loc 2 250 9 discriminator 2
 250:src/Tests.cpp ****         for(int i = 1 ; i < num;i+=2)
 2062              		.loc 2 250 34 is_stmt 0 discriminator 2
 2063 0b8c 9B842400 		addiw	s1,s1,2
 2064              	.LVL229:
 250:src/Tests.cpp ****         for(int i = 1 ; i < num;i+=2)
 2065              		.loc 2 250 9 discriminator 2
 2066 0b90 6FF09FFB 		j	.L125
 2067              	.LVL230:
 2068              	.L127:
 2069              	.LBE54:
 270:src/Tests.cpp ****         sz-=10;
 2070              		.loc 2 270 9 is_stmt 1
 270:src/Tests.cpp ****         sz-=10;
 2071              		.loc 2 270 11 is_stmt 0
 2072 0b94 1B0969FF 		addiw	s2,s2,-10
 2073              	.LVL231:
 2074              	.LBE51:
 225:src/Tests.cpp ****     while(sz > 0)
 2075              		.loc 2 225 5
 2076 0b98 6FF01FF5 		j	.L121
 2077              	.LVL232:
 2078              	.L124:
 273:src/Tests.cpp ****     Riscv::printString("OK\n");
 2079              		.loc 2 273 5 is_stmt 1
 273:src/Tests.cpp ****     Riscv::printString("OK\n");
 2080              		.loc 2 273 23 is_stmt 0
 2081 0b9c 17050000 		lla	a0,.LC15
 2081      13050500 
 2082 0ba4 97000000 		call	_ZN5Riscv11printStringEPKc@plt
 2082      E7800000 
 2083              	.LVL233:
 2084 0bac 6FF01FF2 		j	.L120
 2085              		.cfi_endproc
 2086              	.LFE35:
GAS LISTING /tmp/ccDWEfAB.s 			page 57


 2088              		.align	2
 2089              		.globl	_Z21memoryAllocationTestsv
 2091              	_Z21memoryAllocationTestsv:
 2092              	.LFB36:
 277:src/Tests.cpp **** {
 2093              		.loc 2 277 1 is_stmt 1
 2094              		.cfi_startproc
 2095 0bb0 130101FF 		addi	sp,sp,-16
 2096              		.cfi_def_cfa_offset 16
 2097 0bb4 23341100 		sd	ra,8(sp)
 2098 0bb8 23308100 		sd	s0,0(sp)
 2099              		.cfi_offset 1, -8
 2100              		.cfi_offset 8, -16
 2101 0bbc 13040101 		addi	s0,sp,16
 2102              		.cfi_def_cfa 8, 0
 282:src/Tests.cpp ****     stressTesting();
 2103              		.loc 2 282 5
 282:src/Tests.cpp ****     stressTesting();
 2104              		.loc 2 282 18 is_stmt 0
 2105 0bc0 97000000 		call	_Z13stressTestingv
 2105      E7800000 
 2106              	.LVL234:
 283:src/Tests.cpp **** }
 2107              		.loc 2 283 1
 2108 0bc8 83308100 		ld	ra,8(sp)
 2109              		.cfi_restore 1
 2110 0bcc 03340100 		ld	s0,0(sp)
 2111              		.cfi_restore 8
 2112              		.cfi_def_cfa 2, 16
 2113 0bd0 13010101 		addi	sp,sp,16
 2114              		.cfi_def_cfa_offset 0
 2115 0bd4 67800000 		jr	ra
 2116              		.cfi_endproc
 2117              	.LFE36:
 2119              		.align	2
 2120              		.globl	_Z8semTest1v
 2122              	_Z8semTest1v:
 2123              	.LFB39:
 324:src/Tests.cpp **** {
 2124              		.loc 2 324 1 is_stmt 1
 2125              		.cfi_startproc
 2126              		.cfi_personality 0x9b,DW.ref.__gxx_personality_v0
 2127              		.cfi_lsda 0x1b,.LLSDA39
 2128 0bd8 130101FE 		addi	sp,sp,-32
 2129              		.cfi_def_cfa_offset 32
 2130 0bdc 233C1100 		sd	ra,24(sp)
 2131 0be0 23388100 		sd	s0,16(sp)
 2132 0be4 23349100 		sd	s1,8(sp)
 2133 0be8 23302101 		sd	s2,0(sp)
 2134              		.cfi_offset 1, -8
 2135              		.cfi_offset 8, -16
 2136              		.cfi_offset 9, -24
 2137              		.cfi_offset 18, -32
 2138 0bec 13040102 		addi	s0,sp,32
 2139              		.cfi_def_cfa 8, 0
 325:src/Tests.cpp ****     mutex = new Semaphore(1);
 2140              		.loc 2 325 5
GAS LISTING /tmp/ccDWEfAB.s 			page 58


 325:src/Tests.cpp ****     mutex = new Semaphore(1);
 2141              		.loc 2 325 28 is_stmt 0
 2142 0bf0 13050001 		li	a0,16
 2143              	.LEHB17:
 2144 0bf4 97000000 		call	_Znwm@plt
 2144      E7800000 
 2145              	.LVL235:
 2146              	.LEHE17:
 2147 0bfc 93040500 		mv	s1,a0
 2148 0c00 93051000 		li	a1,1
 2149              	.LEHB18:
 2150 0c04 97000000 		call	_ZN9SemaphoreC1Ej@plt
 2150      E7800000 
 2151              	.LVL236:
 2152              	.LEHE18:
 325:src/Tests.cpp ****     mutex = new Semaphore(1);
 2153              		.loc 2 325 11 discriminator 2
 2154 0c0c 97070000 		sd	s1,.LANCHOR0,a5
 2154      23B09700 
 326:src/Tests.cpp ****     Thread* t1 = new Thread(&f1, 0);
 2155              		.loc 2 326 5 is_stmt 1 discriminator 2
 326:src/Tests.cpp ****     Thread* t1 = new Thread(&f1, 0);
 2156              		.loc 2 326 35 is_stmt 0 discriminator 2
 2157 0c14 13050002 		li	a0,32
 2158              	.LEHB19:
 2159 0c18 97000000 		call	_Znwm@plt
 2159      E7800000 
 2160              	.LVL237:
 2161              	.LEHE19:
 2162 0c20 13090500 		mv	s2,a0
 2163 0c24 13060000 		li	a2,0
 2164 0c28 97050000 		lla	a1,_Z2f1Pv
 2164      93850500 
 2165              	.LEHB20:
 2166 0c30 97000000 		call	_ZN6ThreadC1EPFvPvES0_@plt
 2166      E7800000 
 2167              	.LVL238:
 2168              	.LEHE20:
 327:src/Tests.cpp ****     Thread* t2 = new Thread(&f2, 0);
 2169              		.loc 2 327 5 is_stmt 1 discriminator 2
 327:src/Tests.cpp ****     Thread* t2 = new Thread(&f2, 0);
 2170              		.loc 2 327 35 is_stmt 0 discriminator 2
 2171 0c38 13050002 		li	a0,32
 2172              	.LEHB21:
 2173 0c3c 97000000 		call	_Znwm@plt
 2173      E7800000 
 2174              	.LVL239:
 2175              	.LEHE21:
 2176 0c44 93040500 		mv	s1,a0
 2177 0c48 13060000 		li	a2,0
 2178 0c4c 97050000 		lla	a1,_Z2f2Pv
 2178      93850500 
 2179              	.LEHB22:
 2180 0c54 97000000 		call	_ZN6ThreadC1EPFvPvES0_@plt
 2180      E7800000 
 2181              	.LVL240:
 2182              	.LEHE22:
GAS LISTING /tmp/ccDWEfAB.s 			page 59


 328:src/Tests.cpp ****     t1->start();
 2183              		.loc 2 328 5 is_stmt 1 discriminator 2
 328:src/Tests.cpp ****     t1->start();
 2184              		.loc 2 328 14 is_stmt 0 discriminator 2
 2185 0c5c 13050900 		mv	a0,s2
 2186              	.LEHB23:
 2187 0c60 97000000 		call	_ZN6Thread5startEv@plt
 2187      E7800000 
 2188              	.LVL241:
 329:src/Tests.cpp ****     t2->start();
 2189              		.loc 2 329 5 is_stmt 1 discriminator 2
 329:src/Tests.cpp ****     t2->start();
 2190              		.loc 2 329 14 is_stmt 0 discriminator 2
 2191 0c68 13850400 		mv	a0,s1
 2192 0c6c 97000000 		call	_ZN6Thread5startEv@plt
 2192      E7800000 
 2193              	.LVL242:
 331:src/Tests.cpp ****     int y = 0;
 2194              		.loc 2 331 5 is_stmt 1 discriminator 2
 331:src/Tests.cpp ****     int y = 0;
 2195              		.loc 2 331 9 is_stmt 0 discriminator 2
 2196 0c74 93040000 		li	s1,0
 2197              	.LVL243:
 2198              	.L136:
 332:src/Tests.cpp ****     while(true)
 2199              		.loc 2 332 5 is_stmt 1
 334:src/Tests.cpp ****         y++;
 2200              		.loc 2 334 9
 334:src/Tests.cpp ****         y++;
 2201              		.loc 2 334 10 is_stmt 0
 2202 0c78 9B841400 		addiw	s1,s1,1
 2203              	.LVL244:
 335:src/Tests.cpp ****         thread_dispatch();
 2204              		.loc 2 335 9 is_stmt 1
 335:src/Tests.cpp ****         thread_dispatch();
 2205              		.loc 2 335 24 is_stmt 0
 2206 0c7c 97000000 		call	thread_dispatch@plt
 2206      E7800000 
 2207              	.LVL245:
 2208              	.LEHE23:
 336:src/Tests.cpp ****         if(y == 200000)
 2209              		.loc 2 336 9 is_stmt 1
 2210 0c84 B7170300 		li	a5,200704
 2211 0c88 938707D4 		addi	a5,a5,-704
 2212 0c8c E396F4FE 		bne	s1,a5,.L136
 339:src/Tests.cpp **** }
 2213              		.loc 2 339 1 is_stmt 0
 2214 0c90 83308101 		ld	ra,24(sp)
 2215              		.cfi_remember_state
 2216              		.cfi_restore 1
 2217 0c94 03340101 		ld	s0,16(sp)
 2218              		.cfi_restore 8
 2219              		.cfi_def_cfa 2, 32
 2220 0c98 83348100 		ld	s1,8(sp)
 2221              		.cfi_restore 9
 2222 0c9c 03390100 		ld	s2,0(sp)
 2223              		.cfi_restore 18
GAS LISTING /tmp/ccDWEfAB.s 			page 60


 2224              	.LVL246:
 2225 0ca0 13010102 		addi	sp,sp,32
 2226              		.cfi_def_cfa_offset 0
 2227 0ca4 67800000 		jr	ra
 2228              	.L140:
 2229              		.cfi_restore_state
 2230 0ca8 13090500 		mv	s2,a0
 325:src/Tests.cpp ****     mutex = new Semaphore(1);
 2231              		.loc 2 325 28
 2232 0cac 13850400 		mv	a0,s1
 2233 0cb0 97000000 		call	_ZdlPv@plt
 2233      E7800000 
 2234              	.LVL247:
 2235 0cb8 13050900 		mv	a0,s2
 2236              	.LEHB24:
 2237 0cbc 97000000 		call	_Unwind_Resume@plt
 2237      E7800000 
 2238              	.LVL248:
 2239              	.LEHE24:
 2240              	.L141:
 2241 0cc4 93040500 		mv	s1,a0
 326:src/Tests.cpp ****     Thread* t1 = new Thread(&f1, 0);
 2242              		.loc 2 326 35
 2243 0cc8 13050900 		mv	a0,s2
 2244 0ccc 97000000 		call	_ZdlPv@plt
 2244      E7800000 
 2245              	.LVL249:
 2246 0cd4 13850400 		mv	a0,s1
 2247              	.LEHB25:
 2248 0cd8 97000000 		call	_Unwind_Resume@plt
 2248      E7800000 
 2249              	.LVL250:
 2250              	.LEHE25:
 2251              	.L142:
 2252 0ce0 13090500 		mv	s2,a0
 2253              	.LVL251:
 327:src/Tests.cpp ****     Thread* t2 = new Thread(&f2, 0);
 2254              		.loc 2 327 35
 2255 0ce4 13850400 		mv	a0,s1
 2256 0ce8 97000000 		call	_ZdlPv@plt
 2256      E7800000 
 2257              	.LVL252:
 2258 0cf0 13050900 		mv	a0,s2
 2259              	.LEHB26:
 2260 0cf4 97000000 		call	_Unwind_Resume@plt
 2260      E7800000 
 2261              	.LVL253:
 2262              	.LEHE26:
 2263              		.cfi_endproc
 2264              	.LFE39:
 2265              		.section	.gcc_except_table
 2266              	.LLSDA39:
 2267 00e6 FF       		.byte	0xff
 2268 00e7 FF       		.byte	0xff
 2269 00e8 03       		.byte	0x3
 2270 00e9 8201     		.byte	0x82,0x1
 2271 00eb 00000000 		.4byte	.LEHB17-.LFB39
GAS LISTING /tmp/ccDWEfAB.s 			page 61


 2272 00ef 00000000 		.4byte	.LEHE17-.LEHB17
 2273 00f3 00000000 		.4byte	0
 2274 00f7 00       		.byte	0
 2275 00f8 00000000 		.4byte	.LEHB18-.LFB39
 2276 00fc 00000000 		.4byte	.LEHE18-.LEHB18
 2277 0100 00000000 		.4byte	.L140-.LFB39
 2278 0104 00       		.byte	0
 2279 0105 00000000 		.4byte	.LEHB19-.LFB39
 2280 0109 00000000 		.4byte	.LEHE19-.LEHB19
 2281 010d 00000000 		.4byte	0
 2282 0111 00       		.byte	0
 2283 0112 00000000 		.4byte	.LEHB20-.LFB39
 2284 0116 00000000 		.4byte	.LEHE20-.LEHB20
 2285 011a 00000000 		.4byte	.L141-.LFB39
 2286 011e 00       		.byte	0
 2287 011f 00000000 		.4byte	.LEHB21-.LFB39
 2288 0123 00000000 		.4byte	.LEHE21-.LEHB21
 2289 0127 00000000 		.4byte	0
 2290 012b 00       		.byte	0
 2291 012c 00000000 		.4byte	.LEHB22-.LFB39
 2292 0130 00000000 		.4byte	.LEHE22-.LEHB22
 2293 0134 00000000 		.4byte	.L142-.LFB39
 2294 0138 00       		.byte	0
 2295 0139 00000000 		.4byte	.LEHB23-.LFB39
 2296 013d 00000000 		.4byte	.LEHE23-.LEHB23
 2297 0141 00000000 		.4byte	0
 2298 0145 00       		.byte	0
 2299 0146 00000000 		.4byte	.LEHB24-.LFB39
 2300 014a 00000000 		.4byte	.LEHE24-.LEHB24
 2301 014e 00000000 		.4byte	0
 2302 0152 00       		.byte	0
 2303 0153 00000000 		.4byte	.LEHB25-.LFB39
 2304 0157 00000000 		.4byte	.LEHE25-.LEHB25
 2305 015b 00000000 		.4byte	0
 2306 015f 00       		.byte	0
 2307 0160 00000000 		.4byte	.LEHB26-.LFB39
 2308 0164 00000000 		.4byte	.LEHE26-.LEHB26
 2309 0168 00000000 		.4byte	0
 2310 016c 00       		.byte	0
 2311              		.text
 2313              		.align	2
 2314              		.globl	_Z8semTest2v
 2316              	_Z8semTest2v:
 2317              	.LFB43:
 400:src/Tests.cpp **** {
 2318              		.loc 2 400 1 is_stmt 1
 2319              		.cfi_startproc
 2320              		.cfi_personality 0x9b,DW.ref.__gxx_personality_v0
 2321              		.cfi_lsda 0x1b,.LLSDA43
 2322 0cfc 130101FD 		addi	sp,sp,-48
 2323              		.cfi_def_cfa_offset 48
 2324 0d00 23341102 		sd	ra,40(sp)
 2325 0d04 23308102 		sd	s0,32(sp)
 2326 0d08 233C9100 		sd	s1,24(sp)
 2327 0d0c 23382101 		sd	s2,16(sp)
 2328 0d10 23343101 		sd	s3,8(sp)
 2329              		.cfi_offset 1, -8
GAS LISTING /tmp/ccDWEfAB.s 			page 62


 2330              		.cfi_offset 8, -16
 2331              		.cfi_offset 9, -24
 2332              		.cfi_offset 18, -32
 2333              		.cfi_offset 19, -40
 2334 0d14 13040103 		addi	s0,sp,48
 2335              		.cfi_def_cfa 8, 0
 401:src/Tests.cpp ****     s1 = new Semaphore(1);
 2336              		.loc 2 401 5
 401:src/Tests.cpp ****     s1 = new Semaphore(1);
 2337              		.loc 2 401 25 is_stmt 0
 2338 0d18 13050001 		li	a0,16
 2339              	.LEHB27:
 2340 0d1c 97000000 		call	_Znwm@plt
 2340      E7800000 
 2341              	.LVL254:
 2342              	.LEHE27:
 2343 0d24 93040500 		mv	s1,a0
 2344 0d28 93051000 		li	a1,1
 2345              	.LEHB28:
 2346 0d2c 97000000 		call	_ZN9SemaphoreC1Ej@plt
 2346      E7800000 
 2347              	.LVL255:
 2348              	.LEHE28:
 401:src/Tests.cpp ****     s1 = new Semaphore(1);
 2349              		.loc 2 401 8 discriminator 2
 2350 0d34 97070000 		sd	s1,.LANCHOR0+8,a5
 2350      23B09700 
 402:src/Tests.cpp ****     s2 = new Semaphore(0);
 2351              		.loc 2 402 5 is_stmt 1 discriminator 2
 402:src/Tests.cpp ****     s2 = new Semaphore(0);
 2352              		.loc 2 402 25 is_stmt 0 discriminator 2
 2353 0d3c 13050001 		li	a0,16
 2354              	.LEHB29:
 2355 0d40 97000000 		call	_Znwm@plt
 2355      E7800000 
 2356              	.LVL256:
 2357              	.LEHE29:
 2358 0d48 93040500 		mv	s1,a0
 2359 0d4c 93050000 		li	a1,0
 2360              	.LEHB30:
 2361 0d50 97000000 		call	_ZN9SemaphoreC1Ej@plt
 2361      E7800000 
 2362              	.LVL257:
 2363              	.LEHE30:
 402:src/Tests.cpp ****     s2 = new Semaphore(0);
 2364              		.loc 2 402 8 discriminator 2
 2365 0d58 97070000 		sd	s1,.LANCHOR0+16,a5
 2365      23B09700 
 403:src/Tests.cpp ****     s3 = new Semaphore(0);
 2366              		.loc 2 403 5 is_stmt 1 discriminator 2
 403:src/Tests.cpp ****     s3 = new Semaphore(0);
 2367              		.loc 2 403 25 is_stmt 0 discriminator 2
 2368 0d60 13050001 		li	a0,16
 2369              	.LEHB31:
 2370 0d64 97000000 		call	_Znwm@plt
 2370      E7800000 
 2371              	.LVL258:
GAS LISTING /tmp/ccDWEfAB.s 			page 63


 2372              	.LEHE31:
 2373 0d6c 93040500 		mv	s1,a0
 2374 0d70 93050000 		li	a1,0
 2375              	.LEHB32:
 2376 0d74 97000000 		call	_ZN9SemaphoreC1Ej@plt
 2376      E7800000 
 2377              	.LVL259:
 2378              	.LEHE32:
 403:src/Tests.cpp ****     s3 = new Semaphore(0);
 2379              		.loc 2 403 8 discriminator 2
 2380 0d7c 97070000 		sd	s1,.LANCHOR0+24,a5
 2380      23B09700 
 404:src/Tests.cpp ****     Thread* t1 = new Thread(&f1_2, 0);
 2381              		.loc 2 404 5 is_stmt 1 discriminator 2
 404:src/Tests.cpp ****     Thread* t1 = new Thread(&f1_2, 0);
 2382              		.loc 2 404 37 is_stmt 0 discriminator 2
 2383 0d84 13050002 		li	a0,32
 2384              	.LEHB33:
 2385 0d88 97000000 		call	_Znwm@plt
 2385      E7800000 
 2386              	.LVL260:
 2387              	.LEHE33:
 2388 0d90 93090500 		mv	s3,a0
 2389 0d94 13060000 		li	a2,0
 2390 0d98 97050000 		lla	a1,_Z4f1_2Pv
 2390      93850500 
 2391              	.LEHB34:
 2392 0da0 97000000 		call	_ZN6ThreadC1EPFvPvES0_@plt
 2392      E7800000 
 2393              	.LVL261:
 2394              	.LEHE34:
 405:src/Tests.cpp ****     Thread* t2 = new Thread(&f2_2, 0);
 2395              		.loc 2 405 5 is_stmt 1 discriminator 2
 405:src/Tests.cpp ****     Thread* t2 = new Thread(&f2_2, 0);
 2396              		.loc 2 405 37 is_stmt 0 discriminator 2
 2397 0da8 13050002 		li	a0,32
 2398              	.LEHB35:
 2399 0dac 97000000 		call	_Znwm@plt
 2399      E7800000 
 2400              	.LVL262:
 2401              	.LEHE35:
 2402 0db4 13090500 		mv	s2,a0
 2403 0db8 13060000 		li	a2,0
 2404 0dbc 97050000 		lla	a1,_Z4f2_2Pv
 2404      93850500 
 2405              	.LEHB36:
 2406 0dc4 97000000 		call	_ZN6ThreadC1EPFvPvES0_@plt
 2406      E7800000 
 2407              	.LVL263:
 2408              	.LEHE36:
 406:src/Tests.cpp ****     Thread* t3 = new Thread(&f3_2, 0);
 2409              		.loc 2 406 5 is_stmt 1 discriminator 2
 406:src/Tests.cpp ****     Thread* t3 = new Thread(&f3_2, 0);
 2410              		.loc 2 406 37 is_stmt 0 discriminator 2
 2411 0dcc 13050002 		li	a0,32
 2412              	.LEHB37:
 2413 0dd0 97000000 		call	_Znwm@plt
GAS LISTING /tmp/ccDWEfAB.s 			page 64


 2413      E7800000 
 2414              	.LVL264:
 2415              	.LEHE37:
 2416 0dd8 93040500 		mv	s1,a0
 2417 0ddc 13060000 		li	a2,0
 2418 0de0 97050000 		lla	a1,_Z4f3_2Pv
 2418      93850500 
 2419              	.LEHB38:
 2420 0de8 97000000 		call	_ZN6ThreadC1EPFvPvES0_@plt
 2420      E7800000 
 2421              	.LVL265:
 2422              	.LEHE38:
 407:src/Tests.cpp ****     t3->start();
 2423              		.loc 2 407 5 is_stmt 1 discriminator 2
 407:src/Tests.cpp ****     t3->start();
 2424              		.loc 2 407 14 is_stmt 0 discriminator 2
 2425 0df0 13850400 		mv	a0,s1
 2426              	.LEHB39:
 2427 0df4 97000000 		call	_ZN6Thread5startEv@plt
 2427      E7800000 
 2428              	.LVL266:
 408:src/Tests.cpp ****     t2->start();
 2429              		.loc 2 408 5 is_stmt 1 discriminator 2
 408:src/Tests.cpp ****     t2->start();
 2430              		.loc 2 408 14 is_stmt 0 discriminator 2
 2431 0dfc 13050900 		mv	a0,s2
 2432 0e00 97000000 		call	_ZN6Thread5startEv@plt
 2432      E7800000 
 2433              	.LVL267:
 409:src/Tests.cpp ****     t1->start();
 2434              		.loc 2 409 5 is_stmt 1 discriminator 2
 409:src/Tests.cpp ****     t1->start();
 2435              		.loc 2 409 14 is_stmt 0 discriminator 2
 2436 0e08 13850900 		mv	a0,s3
 2437 0e0c 97000000 		call	_ZN6Thread5startEv@plt
 2437      E7800000 
 2438              	.LVL268:
 411:src/Tests.cpp ****     int y = 0;
 2439              		.loc 2 411 5 is_stmt 1 discriminator 2
 411:src/Tests.cpp ****     int y = 0;
 2440              		.loc 2 411 9 is_stmt 0 discriminator 2
 2441 0e14 93040000 		li	s1,0
 2442              	.LVL269:
 2443              	.L146:
 412:src/Tests.cpp ****     while(true)
 2444              		.loc 2 412 5 is_stmt 1
 414:src/Tests.cpp ****         y++;
 2445              		.loc 2 414 9
 414:src/Tests.cpp ****         y++;
 2446              		.loc 2 414 10 is_stmt 0
 2447 0e18 9B841400 		addiw	s1,s1,1
 2448              	.LVL270:
 415:src/Tests.cpp ****         thread_dispatch();
 2449              		.loc 2 415 9 is_stmt 1
 415:src/Tests.cpp ****         thread_dispatch();
 2450              		.loc 2 415 24 is_stmt 0
 2451 0e1c 97000000 		call	thread_dispatch@plt
GAS LISTING /tmp/ccDWEfAB.s 			page 65


 2451      E7800000 
 2452              	.LVL271:
 2453              	.LEHE39:
 416:src/Tests.cpp ****         if(y == 200000)
 2454              		.loc 2 416 9 is_stmt 1
 2455 0e24 B7170300 		li	a5,200704
 2456 0e28 938707D4 		addi	a5,a5,-704
 2457 0e2c E396F4FE 		bne	s1,a5,.L146
 420:src/Tests.cpp **** }
 2458              		.loc 2 420 1 is_stmt 0
 2459 0e30 83308102 		ld	ra,40(sp)
 2460              		.cfi_remember_state
 2461              		.cfi_restore 1
 2462 0e34 03340102 		ld	s0,32(sp)
 2463              		.cfi_restore 8
 2464              		.cfi_def_cfa 2, 48
 2465 0e38 83348101 		ld	s1,24(sp)
 2466              		.cfi_restore 9
 2467 0e3c 03390101 		ld	s2,16(sp)
 2468              		.cfi_restore 18
 2469              	.LVL272:
 2470 0e40 83398100 		ld	s3,8(sp)
 2471              		.cfi_restore 19
 2472              	.LVL273:
 2473 0e44 13010103 		addi	sp,sp,48
 2474              		.cfi_def_cfa_offset 0
 2475 0e48 67800000 		jr	ra
 2476              	.L153:
 2477              		.cfi_restore_state
 2478 0e4c 13090500 		mv	s2,a0
 401:src/Tests.cpp ****     s1 = new Semaphore(1);
 2479              		.loc 2 401 25
 2480 0e50 13850400 		mv	a0,s1
 2481 0e54 97000000 		call	_ZdlPv@plt
 2481      E7800000 
 2482              	.LVL274:
 2483 0e5c 13050900 		mv	a0,s2
 2484              	.LEHB40:
 2485 0e60 97000000 		call	_Unwind_Resume@plt
 2485      E7800000 
 2486              	.LVL275:
 2487              	.LEHE40:
 2488              	.L154:
 2489 0e68 13090500 		mv	s2,a0
 402:src/Tests.cpp ****     s2 = new Semaphore(0);
 2490              		.loc 2 402 25
 2491 0e6c 13850400 		mv	a0,s1
 2492 0e70 97000000 		call	_ZdlPv@plt
 2492      E7800000 
 2493              	.LVL276:
 2494 0e78 13050900 		mv	a0,s2
 2495              	.LEHB41:
 2496 0e7c 97000000 		call	_Unwind_Resume@plt
 2496      E7800000 
 2497              	.LVL277:
 2498              	.LEHE41:
 2499              	.L155:
GAS LISTING /tmp/ccDWEfAB.s 			page 66


 2500 0e84 13090500 		mv	s2,a0
 403:src/Tests.cpp ****     s3 = new Semaphore(0);
 2501              		.loc 2 403 25
 2502 0e88 13850400 		mv	a0,s1
 2503 0e8c 97000000 		call	_ZdlPv@plt
 2503      E7800000 
 2504              	.LVL278:
 2505 0e94 13050900 		mv	a0,s2
 2506              	.LEHB42:
 2507 0e98 97000000 		call	_Unwind_Resume@plt
 2507      E7800000 
 2508              	.LVL279:
 2509              	.LEHE42:
 2510              	.L156:
 2511 0ea0 93040500 		mv	s1,a0
 404:src/Tests.cpp ****     Thread* t1 = new Thread(&f1_2, 0);
 2512              		.loc 2 404 37
 2513 0ea4 13850900 		mv	a0,s3
 2514 0ea8 97000000 		call	_ZdlPv@plt
 2514      E7800000 
 2515              	.LVL280:
 2516 0eb0 13850400 		mv	a0,s1
 2517              	.LEHB43:
 2518 0eb4 97000000 		call	_Unwind_Resume@plt
 2518      E7800000 
 2519              	.LVL281:
 2520              	.LEHE43:
 2521              	.L157:
 2522 0ebc 93040500 		mv	s1,a0
 405:src/Tests.cpp ****     Thread* t2 = new Thread(&f2_2, 0);
 2523              		.loc 2 405 37
 2524 0ec0 13050900 		mv	a0,s2
 2525 0ec4 97000000 		call	_ZdlPv@plt
 2525      E7800000 
 2526              	.LVL282:
 2527 0ecc 13850400 		mv	a0,s1
 2528              	.LEHB44:
 2529 0ed0 97000000 		call	_Unwind_Resume@plt
 2529      E7800000 
 2530              	.LVL283:
 2531              	.LEHE44:
 2532              	.L158:
 2533 0ed8 13090500 		mv	s2,a0
 2534              	.LVL284:
 406:src/Tests.cpp ****     Thread* t3 = new Thread(&f3_2, 0);
 2535              		.loc 2 406 37
 2536 0edc 13850400 		mv	a0,s1
 2537 0ee0 97000000 		call	_ZdlPv@plt
 2537      E7800000 
 2538              	.LVL285:
 2539 0ee8 13050900 		mv	a0,s2
 2540              	.LEHB45:
 2541 0eec 97000000 		call	_Unwind_Resume@plt
 2541      E7800000 
 2542              	.LVL286:
 2543              	.LEHE45:
 2544              		.cfi_endproc
GAS LISTING /tmp/ccDWEfAB.s 			page 67


 2545              	.LFE43:
 2546              		.section	.gcc_except_table
 2547              	.LLSDA43:
 2548 016d FF       		.byte	0xff
 2549 016e FF       		.byte	0xff
 2550 016f 03       		.byte	0x3
 2551 0170 F701     		.byte	0xf7,0x1
 2552 0172 00000000 		.4byte	.LEHB27-.LFB43
 2553 0176 00000000 		.4byte	.LEHE27-.LEHB27
 2554 017a 00000000 		.4byte	0
 2555 017e 00       		.byte	0
 2556 017f 00000000 		.4byte	.LEHB28-.LFB43
 2557 0183 00000000 		.4byte	.LEHE28-.LEHB28
 2558 0187 00000000 		.4byte	.L153-.LFB43
 2559 018b 00       		.byte	0
 2560 018c 00000000 		.4byte	.LEHB29-.LFB43
 2561 0190 00000000 		.4byte	.LEHE29-.LEHB29
 2562 0194 00000000 		.4byte	0
 2563 0198 00       		.byte	0
 2564 0199 00000000 		.4byte	.LEHB30-.LFB43
 2565 019d 00000000 		.4byte	.LEHE30-.LEHB30
 2566 01a1 00000000 		.4byte	.L154-.LFB43
 2567 01a5 00       		.byte	0
 2568 01a6 00000000 		.4byte	.LEHB31-.LFB43
 2569 01aa 00000000 		.4byte	.LEHE31-.LEHB31
 2570 01ae 00000000 		.4byte	0
 2571 01b2 00       		.byte	0
 2572 01b3 00000000 		.4byte	.LEHB32-.LFB43
 2573 01b7 00000000 		.4byte	.LEHE32-.LEHB32
 2574 01bb 00000000 		.4byte	.L155-.LFB43
 2575 01bf 00       		.byte	0
 2576 01c0 00000000 		.4byte	.LEHB33-.LFB43
 2577 01c4 00000000 		.4byte	.LEHE33-.LEHB33
 2578 01c8 00000000 		.4byte	0
 2579 01cc 00       		.byte	0
 2580 01cd 00000000 		.4byte	.LEHB34-.LFB43
 2581 01d1 00000000 		.4byte	.LEHE34-.LEHB34
 2582 01d5 00000000 		.4byte	.L156-.LFB43
 2583 01d9 00       		.byte	0
 2584 01da 00000000 		.4byte	.LEHB35-.LFB43
 2585 01de 00000000 		.4byte	.LEHE35-.LEHB35
 2586 01e2 00000000 		.4byte	0
 2587 01e6 00       		.byte	0
 2588 01e7 00000000 		.4byte	.LEHB36-.LFB43
 2589 01eb 00000000 		.4byte	.LEHE36-.LEHB36
 2590 01ef 00000000 		.4byte	.L157-.LFB43
 2591 01f3 00       		.byte	0
 2592 01f4 00000000 		.4byte	.LEHB37-.LFB43
 2593 01f8 00000000 		.4byte	.LEHE37-.LEHB37
 2594 01fc 00000000 		.4byte	0
 2595 0200 00       		.byte	0
 2596 0201 00000000 		.4byte	.LEHB38-.LFB43
 2597 0205 00000000 		.4byte	.LEHE38-.LEHB38
 2598 0209 00000000 		.4byte	.L158-.LFB43
 2599 020d 00       		.byte	0
 2600 020e 00000000 		.4byte	.LEHB39-.LFB43
 2601 0212 00000000 		.4byte	.LEHE39-.LEHB39
GAS LISTING /tmp/ccDWEfAB.s 			page 68


 2602 0216 00000000 		.4byte	0
 2603 021a 00       		.byte	0
 2604 021b 00000000 		.4byte	.LEHB40-.LFB43
 2605 021f 00000000 		.4byte	.LEHE40-.LEHB40
 2606 0223 00000000 		.4byte	0
 2607 0227 00       		.byte	0
 2608 0228 00000000 		.4byte	.LEHB41-.LFB43
 2609 022c 00000000 		.4byte	.LEHE41-.LEHB41
 2610 0230 00000000 		.4byte	0
 2611 0234 00       		.byte	0
 2612 0235 00000000 		.4byte	.LEHB42-.LFB43
 2613 0239 00000000 		.4byte	.LEHE42-.LEHB42
 2614 023d 00000000 		.4byte	0
 2615 0241 00       		.byte	0
 2616 0242 00000000 		.4byte	.LEHB43-.LFB43
 2617 0246 00000000 		.4byte	.LEHE43-.LEHB43
 2618 024a 00000000 		.4byte	0
 2619 024e 00       		.byte	0
 2620 024f 00000000 		.4byte	.LEHB44-.LFB43
 2621 0253 00000000 		.4byte	.LEHE44-.LEHB44
 2622 0257 00000000 		.4byte	0
 2623 025b 00       		.byte	0
 2624 025c 00000000 		.4byte	.LEHB45-.LFB43
 2625 0260 00000000 		.4byte	.LEHE45-.LEHB45
 2626 0264 00000000 		.4byte	0
 2627 0268 00       		.byte	0
 2628              		.text
 2630              		.align	2
 2631              		.globl	_Z14semaphoreTestsv
 2633              	_Z14semaphoreTestsv:
 2634              	.LFB44:
 423:src/Tests.cpp **** {
 2635              		.loc 2 423 1 is_stmt 1
 2636              		.cfi_startproc
 2637 0ef4 130101FF 		addi	sp,sp,-16
 2638              		.cfi_def_cfa_offset 16
 2639 0ef8 23341100 		sd	ra,8(sp)
 2640 0efc 23308100 		sd	s0,0(sp)
 2641              		.cfi_offset 1, -8
 2642              		.cfi_offset 8, -16
 2643 0f00 13040101 		addi	s0,sp,16
 2644              		.cfi_def_cfa 8, 0
 425:src/Tests.cpp ****     semTest2();
 2645              		.loc 2 425 5
 425:src/Tests.cpp ****     semTest2();
 2646              		.loc 2 425 13 is_stmt 0
 2647 0f04 97000000 		call	_Z8semTest2v
 2647      E7800000 
 2648              	.LVL287:
 426:src/Tests.cpp **** }
 2649              		.loc 2 426 1
 2650 0f0c 83308100 		ld	ra,8(sp)
 2651              		.cfi_restore 1
 2652 0f10 03340100 		ld	s0,0(sp)
 2653              		.cfi_restore 8
 2654              		.cfi_def_cfa 2, 16
 2655 0f14 13010101 		addi	sp,sp,16
GAS LISTING /tmp/ccDWEfAB.s 			page 69


 2656              		.cfi_def_cfa_offset 0
 2657 0f18 67800000 		jr	ra
 2658              		.cfi_endproc
 2659              	.LFE44:
 2661              		.align	2
 2662              		.globl	_Z7myTestsv
 2664              	_Z7myTestsv:
 2665              	.LFB45:
 429:src/Tests.cpp **** {
 2666              		.loc 2 429 1 is_stmt 1
 2667              		.cfi_startproc
 2668 0f1c 130101FF 		addi	sp,sp,-16
 2669              		.cfi_def_cfa_offset 16
 2670 0f20 23348100 		sd	s0,8(sp)
 2671              		.cfi_offset 8, -8
 2672 0f24 13040101 		addi	s0,sp,16
 2673              		.cfi_def_cfa 8, 0
 431:src/Tests.cpp ****     threadTests();
 2674              		.loc 2 431 5
 434:src/Tests.cpp **** }
 2675              		.loc 2 434 1 is_stmt 0
 2676 0f28 03348100 		ld	s0,8(sp)
 2677              		.cfi_restore 8
 2678              		.cfi_def_cfa 2, 16
 2679 0f2c 13010101 		addi	sp,sp,16
 2680              		.cfi_def_cfa_offset 0
 2681 0f30 67800000 		jr	ra
 2682              		.cfi_endproc
 2683              	.LFE45:
 2685              		.align	2
 2686              		.globl	_ZN12TestPeriodicC2Em
 2688              	_ZN12TestPeriodicC2Em:
 2689              	.LFB51:
 436:src/Tests.cpp **** TestPeriodic::TestPeriodic(time_t time) : PeriodicThread(time) {
 2690              		.loc 2 436 1 is_stmt 1
 2691              		.cfi_startproc
 2692              	.LVL288:
 2693 0f34 130101FE 		addi	sp,sp,-32
 2694              		.cfi_def_cfa_offset 32
 2695 0f38 233C1100 		sd	ra,24(sp)
 2696 0f3c 23388100 		sd	s0,16(sp)
 2697 0f40 23349100 		sd	s1,8(sp)
 2698              		.cfi_offset 1, -8
 2699              		.cfi_offset 8, -16
 2700              		.cfi_offset 9, -24
 2701 0f44 13040102 		addi	s0,sp,32
 2702              		.cfi_def_cfa 8, 0
 2703 0f48 93040500 		mv	s1,a0
 2704              	.LBB56:
 436:src/Tests.cpp **** TestPeriodic::TestPeriodic(time_t time) : PeriodicThread(time) {
 2705              		.loc 2 436 62 is_stmt 0
 2706 0f4c 97000000 		call	_ZN14PeriodicThreadC2Em@plt
 2706      E7800000 
 2707              	.LVL289:
 2708 0f54 97070000 		lla	a5,_ZTV12TestPeriodic+16
 2708      93870700 
 2709 0f5c 23B0F400 		sd	a5,0(s1)
GAS LISTING /tmp/ccDWEfAB.s 			page 70


 2710              	.LBE56:
 438:src/Tests.cpp **** }
 2711              		.loc 2 438 1
 2712 0f60 83308101 		ld	ra,24(sp)
 2713              		.cfi_restore 1
 2714 0f64 03340101 		ld	s0,16(sp)
 2715              		.cfi_restore 8
 2716              		.cfi_def_cfa 2, 32
 2717 0f68 83348100 		ld	s1,8(sp)
 2718              		.cfi_restore 9
 2719              	.LVL290:
 2720 0f6c 13010102 		addi	sp,sp,32
 2721              		.cfi_def_cfa_offset 0
 2722 0f70 67800000 		jr	ra
 2723              		.cfi_endproc
 2724              	.LFE51:
 2726              		.globl	_ZN12TestPeriodicC1Em
 2727              		.set	_ZN12TestPeriodicC1Em,_ZN12TestPeriodicC2Em
 2728              		.align	2
 2729              		.globl	_Z11threadTest3v
 2731              	_Z11threadTest3v:
 2732              	.LFB29:
  98:src/Tests.cpp **** {
 2733              		.loc 2 98 1 is_stmt 1
 2734              		.cfi_startproc
 2735              		.cfi_personality 0x9b,DW.ref.__gxx_personality_v0
 2736              		.cfi_lsda 0x1b,.LLSDA29
 2737 0f74 130101FE 		addi	sp,sp,-32
 2738              		.cfi_def_cfa_offset 32
 2739 0f78 233C1100 		sd	ra,24(sp)
 2740 0f7c 23388100 		sd	s0,16(sp)
 2741 0f80 23349100 		sd	s1,8(sp)
 2742 0f84 23302101 		sd	s2,0(sp)
 2743              		.cfi_offset 1, -8
 2744              		.cfi_offset 8, -16
 2745              		.cfi_offset 9, -24
 2746              		.cfi_offset 18, -32
 2747 0f88 13040102 		addi	s0,sp,32
 2748              		.cfi_def_cfa 8, 0
  99:src/Tests.cpp ****     Thread* t = new TestPeriodic(5);
 2749              		.loc 2 99 5
  99:src/Tests.cpp ****     Thread* t = new TestPeriodic(5);
 2750              		.loc 2 99 35 is_stmt 0
 2751 0f8c 13058002 		li	a0,40
 2752              	.LEHB46:
 2753 0f90 97000000 		call	_Znwm@plt
 2753      E7800000 
 2754              	.LVL291:
 2755              	.LEHE46:
 2756 0f98 13090500 		mv	s2,a0
 2757 0f9c 93055000 		li	a1,5
 2758              	.LEHB47:
 2759 0fa0 97000000 		call	_ZN12TestPeriodicC1Em
 2759      E7800000 
 2760              	.LVL292:
 2761              	.LEHE47:
 100:src/Tests.cpp ****     t->start();
GAS LISTING /tmp/ccDWEfAB.s 			page 71


 2762              		.loc 2 100 5 is_stmt 1 discriminator 2
 100:src/Tests.cpp ****     t->start();
 2763              		.loc 2 100 13 is_stmt 0 discriminator 2
 2764 0fa8 13050900 		mv	a0,s2
 2765              	.LEHB48:
 2766 0fac 97000000 		call	_ZN6Thread5startEv@plt
 2766      E7800000 
 2767              	.LVL293:
 2768              	.L168:
 101:src/Tests.cpp ****     while(true)
 2769              		.loc 2 101 5 is_stmt 1 discriminator 1
 103:src/Tests.cpp ****         thread_dispatch();
 2770              		.loc 2 103 9 discriminator 1
 103:src/Tests.cpp ****         thread_dispatch();
 2771              		.loc 2 103 24 is_stmt 0 discriminator 1
 2772 0fb4 97000000 		call	thread_dispatch@plt
 2772      E7800000 
 2773              	.LVL294:
 2774              	.LEHE48:
 101:src/Tests.cpp ****     while(true)
 2775              		.loc 2 101 5 is_stmt 1 discriminator 1
 2776 0fbc 6FF09FFF 		j	.L168
 2777              	.LVL295:
 2778              	.L170:
 2779 0fc0 93040500 		mv	s1,a0
  99:src/Tests.cpp ****     Thread* t = new TestPeriodic(5);
 2780              		.loc 2 99 35 is_stmt 0
 2781 0fc4 13050900 		mv	a0,s2
 2782 0fc8 97000000 		call	_ZdlPv@plt
 2782      E7800000 
 2783              	.LVL296:
 2784 0fd0 13850400 		mv	a0,s1
 2785              	.LEHB49:
 2786 0fd4 97000000 		call	_Unwind_Resume@plt
 2786      E7800000 
 2787              	.LVL297:
 2788              	.LEHE49:
 2789              		.cfi_endproc
 2790              	.LFE29:
 2791              		.section	.gcc_except_table
 2792              	.LLSDA29:
 2793 0269 FF       		.byte	0xff
 2794 026a FF       		.byte	0xff
 2795 026b 03       		.byte	0x3
 2796 026c 34       		.byte	0x34
 2797 026d 00000000 		.4byte	.LEHB46-.LFB29
 2798 0271 00000000 		.4byte	.LEHE46-.LEHB46
 2799 0275 00000000 		.4byte	0
 2800 0279 00       		.byte	0
 2801 027a 00000000 		.4byte	.LEHB47-.LFB29
 2802 027e 00000000 		.4byte	.LEHE47-.LEHB47
 2803 0282 00000000 		.4byte	.L170-.LFB29
 2804 0286 00       		.byte	0
 2805 0287 00000000 		.4byte	.LEHB48-.LFB29
 2806 028b 00000000 		.4byte	.LEHE48-.LEHB48
 2807 028f 00000000 		.4byte	0
 2808 0293 00       		.byte	0
GAS LISTING /tmp/ccDWEfAB.s 			page 72


 2809 0294 00000000 		.4byte	.LEHB49-.LFB29
 2810 0298 00000000 		.4byte	.LEHE49-.LEHB49
 2811 029c 00000000 		.4byte	0
 2812 02a0 00       		.byte	0
 2813              		.text
 2815              		.weak	_ZTV14PeriodicThread
 2816              		.section	.data.rel.ro.local._ZTV14PeriodicThread,"awG",@progbits,_ZTV14PeriodicThread,comdat
 2817              		.align	3
 2820              	_ZTV14PeriodicThread:
 2821 0000 00000000 		.dword	0
 2821      00000000 
 2822 0008 00000000 		.dword	0
 2822      00000000 
 2823 0010 00000000 		.dword	_ZN14PeriodicThreadD1Ev
 2823      00000000 
 2824 0018 00000000 		.dword	_ZN14PeriodicThreadD0Ev
 2824      00000000 
 2825 0020 00000000 		.dword	_ZN6Thread3runEv
 2825      00000000 
 2826 0028 00000000 		.dword	_ZN14PeriodicThread18periodicActivationEv
 2826      00000000 
 2827              		.weak	_ZTV12TestPeriodic
 2828              		.section	.data.rel.ro.local._ZTV12TestPeriodic,"awG",@progbits,_ZTV12TestPeriodic,comdat
 2829              		.align	3
 2832              	_ZTV12TestPeriodic:
 2833 0000 00000000 		.dword	0
 2833      00000000 
 2834 0008 00000000 		.dword	0
 2834      00000000 
 2835 0010 00000000 		.dword	_ZN12TestPeriodicD1Ev
 2835      00000000 
 2836 0018 00000000 		.dword	_ZN12TestPeriodicD0Ev
 2836      00000000 
 2837 0020 00000000 		.dword	_ZN6Thread3runEv
 2837      00000000 
 2838 0028 00000000 		.dword	_ZN12TestPeriodic18periodicActivationEv
 2838      00000000 
 2839              		.bss
 2840              		.align	3
 2841              		.set	.LANCHOR0,. + 0
 2844              	_ZL5mutex:
 2845 0000 00000000 		.zero	8
 2845      00000000 
 2848              	_ZL2s1:
 2849 0008 00000000 		.zero	8
 2849      00000000 
 2852              	_ZL2s2:
 2853 0010 00000000 		.zero	8
 2853      00000000 
 2856              	_ZL2s3:
 2857 0018 00000000 		.zero	8
 2857      00000000 
 2858              		.text
 2859              	.Letext0:
 2860              		.file 5 "src/../h/../lib/hw.h"
 2861              		.file 6 "src/../h/Riscv.hpp"
 2862              		.file 7 "src/../h/syscall_c.h"
GAS LISTING /tmp/ccDWEfAB.s 			page 73


 2863              		.file 8 "src/../lib/console.h"
 9614              		.align	3
 9617              	DW.ref.__gxx_personality_v0:
 9618 0000 00000000 		.dword	__gxx_personality_v0
 9618      00000000 
 9619              		.ident	"GCC: (Ubuntu 9.3.0-17ubuntu1~20.04) 9.3.0"
 9620              		.section	.note.GNU-stack,"",@progbits
GAS LISTING /tmp/ccDWEfAB.s 			page 74


DEFINED SYMBOLS
                            *ABS*:0000000000000000 Tests.cpp
     /tmp/ccDWEfAB.s:10     .text._ZN6Thread3runEv:0000000000000000 _ZN6Thread3runEv
     /tmp/ccDWEfAB.s:14     .text._ZN6Thread3runEv:0000000000000000 .L0 
     /tmp/ccDWEfAB.s:16     .text._ZN6Thread3runEv:0000000000000000 .L0 
     /tmp/ccDWEfAB.s:17     .text._ZN6Thread3runEv:0000000000000004 .L0 
     /tmp/ccDWEfAB.s:19     .text._ZN6Thread3runEv:0000000000000008 .L0 
     /tmp/ccDWEfAB.s:21     .text._ZN6Thread3runEv:000000000000000c .L0 
     /tmp/ccDWEfAB.s:23     .text._ZN6Thread3runEv:000000000000000c .L0 
     /tmp/ccDWEfAB.s:24     .text._ZN6Thread3runEv:0000000000000010 .L0 
     /tmp/ccDWEfAB.s:25     .text._ZN6Thread3runEv:0000000000000010 .L0 
     /tmp/ccDWEfAB.s:27     .text._ZN6Thread3runEv:0000000000000014 .L0 
     /tmp/ccDWEfAB.s:29     .text._ZN6Thread3runEv:0000000000000018 .L0 
     /tmp/ccDWEfAB.s:36     .text._ZN14PeriodicThread18periodicActivationEv:0000000000000000 _ZN14PeriodicThread18periodicActivationEv
     /tmp/ccDWEfAB.s:39     .text._ZN14PeriodicThread18periodicActivationEv:0000000000000000 .L0 
     /tmp/ccDWEfAB.s:41     .text._ZN14PeriodicThread18periodicActivationEv:0000000000000000 .L0 
     /tmp/ccDWEfAB.s:42     .text._ZN14PeriodicThread18periodicActivationEv:0000000000000004 .L0 
     /tmp/ccDWEfAB.s:44     .text._ZN14PeriodicThread18periodicActivationEv:0000000000000008 .L0 
     /tmp/ccDWEfAB.s:46     .text._ZN14PeriodicThread18periodicActivationEv:000000000000000c .L0 
     /tmp/ccDWEfAB.s:48     .text._ZN14PeriodicThread18periodicActivationEv:000000000000000c .L0 
     /tmp/ccDWEfAB.s:49     .text._ZN14PeriodicThread18periodicActivationEv:0000000000000010 .L0 
     /tmp/ccDWEfAB.s:50     .text._ZN14PeriodicThread18periodicActivationEv:0000000000000010 .L0 
     /tmp/ccDWEfAB.s:52     .text._ZN14PeriodicThread18periodicActivationEv:0000000000000014 .L0 
     /tmp/ccDWEfAB.s:54     .text._ZN14PeriodicThread18periodicActivationEv:0000000000000018 .L0 
     /tmp/ccDWEfAB.s:65     .text:0000000000000000 _Z4idlePv
     /tmp/ccDWEfAB.s:69     .text:0000000000000000 .L0 
     /tmp/ccDWEfAB.s:71     .text:0000000000000000 .L0 
     /tmp/ccDWEfAB.s:72     .text:0000000000000004 .L0 
     /tmp/ccDWEfAB.s:75     .text:000000000000000c .L0 
     /tmp/ccDWEfAB.s:76     .text:000000000000000c .L0 
     /tmp/ccDWEfAB.s:78     .text:0000000000000010 .L0 
     /tmp/ccDWEfAB.s:82     .text:0000000000000010 .L0 
     /tmp/ccDWEfAB.s:83     .text:0000000000000010 .L0 
     /tmp/ccDWEfAB.s:84     .text:0000000000000010 .L0 
     /tmp/ccDWEfAB.s:88     .text:0000000000000020 .L0 
     /tmp/ccDWEfAB.s:89     .text:0000000000000020 .L0 
     /tmp/ccDWEfAB.s:92     .text:0000000000000028 .L0 
     /tmp/ccDWEfAB.s:93     .text:000000000000002c .L0 
     /tmp/ccDWEfAB.s:110    .text:000000000000002c _Z15thread1FunctionPv
     /tmp/ccDWEfAB.s:113    .text:000000000000002c .L0 
     /tmp/ccDWEfAB.s:115    .text:000000000000002c .L0 
     /tmp/ccDWEfAB.s:116    .text:0000000000000030 .L0 
     /tmp/ccDWEfAB.s:120    .text:000000000000003c .L0 
     /tmp/ccDWEfAB.s:121    .text:000000000000003c .L0 
     /tmp/ccDWEfAB.s:122    .text:000000000000003c .L0 
     /tmp/ccDWEfAB.s:124    .text:0000000000000040 .L0 
     /tmp/ccDWEfAB.s:126    .text:0000000000000040 .L0 
     /tmp/ccDWEfAB.s:127    .text:0000000000000040 .L0 
     /tmp/ccDWEfAB.s:132    .text:0000000000000050 .L0 
     /tmp/ccDWEfAB.s:134    .text:0000000000000050 .L0 
     /tmp/ccDWEfAB.s:135    .text:0000000000000050 .L0 
     /tmp/ccDWEfAB.s:140    .text:0000000000000058 .L0 
     /tmp/ccDWEfAB.s:141    .text:0000000000000058 .L0 
     /tmp/ccDWEfAB.s:145    .text:0000000000000060 .L0 
     /tmp/ccDWEfAB.s:146    .text:0000000000000060 .L0 
     /tmp/ccDWEfAB.s:150    .text:0000000000000070 .L0 
     /tmp/ccDWEfAB.s:151    .text:0000000000000070 .L0 
GAS LISTING /tmp/ccDWEfAB.s 			page 75


     /tmp/ccDWEfAB.s:155    .text:000000000000007c .L0 
     /tmp/ccDWEfAB.s:156    .text:000000000000007c .L0 
     /tmp/ccDWEfAB.s:160    .text:000000000000008c .L0 
     /tmp/ccDWEfAB.s:164    .text:0000000000000090 .L0 
     /tmp/ccDWEfAB.s:168    .text:000000000000009c .L0 
     /tmp/ccDWEfAB.s:169    .text:000000000000009c .L0 
     /tmp/ccDWEfAB.s:172    .text:00000000000000a4 .L0 
     /tmp/ccDWEfAB.s:174    .text:00000000000000a8 .L0 
     /tmp/ccDWEfAB.s:179    .text:00000000000000b0 .L0 
     /tmp/ccDWEfAB.s:180    .text:00000000000000b4 .L0 
     /tmp/ccDWEfAB.s:182    .text:00000000000000b8 .L0 
     /tmp/ccDWEfAB.s:183    .text:00000000000000b8 .L0 
     /tmp/ccDWEfAB.s:185    .text:00000000000000bc .L0 
     /tmp/ccDWEfAB.s:188    .text:00000000000000c0 .L0 
     /tmp/ccDWEfAB.s:190    .text:00000000000000c4 .L0 
     /tmp/ccDWEfAB.s:204    .text:00000000000000c4 _Z15thread2FunctionPv
     /tmp/ccDWEfAB.s:207    .text:00000000000000c4 .L0 
     /tmp/ccDWEfAB.s:209    .text:00000000000000c4 .L0 
     /tmp/ccDWEfAB.s:210    .text:00000000000000c8 .L0 
     /tmp/ccDWEfAB.s:214    .text:00000000000000d4 .L0 
     /tmp/ccDWEfAB.s:215    .text:00000000000000d4 .L0 
     /tmp/ccDWEfAB.s:216    .text:00000000000000d4 .L0 
     /tmp/ccDWEfAB.s:218    .text:00000000000000d8 .L0 
     /tmp/ccDWEfAB.s:220    .text:00000000000000d8 .L0 
     /tmp/ccDWEfAB.s:221    .text:00000000000000d8 .L0 
     /tmp/ccDWEfAB.s:226    .text:00000000000000e8 .L0 
     /tmp/ccDWEfAB.s:228    .text:00000000000000e8 .L0 
     /tmp/ccDWEfAB.s:229    .text:00000000000000e8 .L0 
     /tmp/ccDWEfAB.s:234    .text:00000000000000f0 .L0 
     /tmp/ccDWEfAB.s:235    .text:00000000000000f0 .L0 
     /tmp/ccDWEfAB.s:239    .text:00000000000000f8 .L0 
     /tmp/ccDWEfAB.s:240    .text:00000000000000f8 .L0 
     /tmp/ccDWEfAB.s:244    .text:0000000000000108 .L0 
     /tmp/ccDWEfAB.s:245    .text:0000000000000108 .L0 
     /tmp/ccDWEfAB.s:249    .text:0000000000000114 .L0 
     /tmp/ccDWEfAB.s:250    .text:0000000000000114 .L0 
     /tmp/ccDWEfAB.s:254    .text:0000000000000124 .L0 
     /tmp/ccDWEfAB.s:258    .text:0000000000000128 .L0 
     /tmp/ccDWEfAB.s:262    .text:0000000000000134 .L0 
     /tmp/ccDWEfAB.s:263    .text:0000000000000134 .L0 
     /tmp/ccDWEfAB.s:266    .text:000000000000013c .L0 
     /tmp/ccDWEfAB.s:268    .text:0000000000000140 .L0 
     /tmp/ccDWEfAB.s:273    .text:0000000000000148 .L0 
     /tmp/ccDWEfAB.s:274    .text:000000000000014c .L0 
     /tmp/ccDWEfAB.s:276    .text:0000000000000150 .L0 
     /tmp/ccDWEfAB.s:277    .text:0000000000000150 .L0 
     /tmp/ccDWEfAB.s:279    .text:0000000000000154 .L0 
     /tmp/ccDWEfAB.s:282    .text:0000000000000158 .L0 
     /tmp/ccDWEfAB.s:284    .text:000000000000015c .L0 
     /tmp/ccDWEfAB.s:290    .text:000000000000015c _ZN12TestPeriodic18periodicActivationEv
     /tmp/ccDWEfAB.s:293    .text:000000000000015c .L0 
     /tmp/ccDWEfAB.s:295    .text:000000000000015c .L0 
     /tmp/ccDWEfAB.s:296    .text:0000000000000160 .L0 
     /tmp/ccDWEfAB.s:300    .text:000000000000016c .L0 
     /tmp/ccDWEfAB.s:301    .text:000000000000016c .L0 
     /tmp/ccDWEfAB.s:302    .text:000000000000016c .L0 
     /tmp/ccDWEfAB.s:304    .text:0000000000000170 .L0 
GAS LISTING /tmp/ccDWEfAB.s 			page 76


     /tmp/ccDWEfAB.s:308    .text:0000000000000170 .L0 
     /tmp/ccDWEfAB.s:309    .text:0000000000000170 .L0 
     /tmp/ccDWEfAB.s:313    .text:0000000000000174 .L0 
     /tmp/ccDWEfAB.s:316    .text:000000000000017c .L0 
     /tmp/ccDWEfAB.s:317    .text:000000000000017c .L0 
     /tmp/ccDWEfAB.s:321    .text:000000000000018c .L0 
     /tmp/ccDWEfAB.s:322    .text:000000000000018c .L0 
     /tmp/ccDWEfAB.s:326    .text:0000000000000198 .L0 
     /tmp/ccDWEfAB.s:333    .text:00000000000001a0 .L0 
     /tmp/ccDWEfAB.s:334    .text:00000000000001a4 .L0 
     /tmp/ccDWEfAB.s:336    .text:00000000000001a8 .L0 
     /tmp/ccDWEfAB.s:337    .text:00000000000001a8 .L0 
     /tmp/ccDWEfAB.s:339    .text:00000000000001ac .L0 
     /tmp/ccDWEfAB.s:342    .text:00000000000001b0 .L0 
     /tmp/ccDWEfAB.s:344    .text:00000000000001b4 .L0 
     /tmp/ccDWEfAB.s:350    .text:00000000000001b4 _Z20thread2FunctionTest2Pv
     /tmp/ccDWEfAB.s:353    .text:00000000000001b4 .L0 
     /tmp/ccDWEfAB.s:355    .text:00000000000001b4 .L0 
     /tmp/ccDWEfAB.s:356    .text:00000000000001b8 .L0 
     /tmp/ccDWEfAB.s:360    .text:00000000000001c4 .L0 
     /tmp/ccDWEfAB.s:361    .text:00000000000001c4 .L0 
     /tmp/ccDWEfAB.s:362    .text:00000000000001c4 .L0 
     /tmp/ccDWEfAB.s:364    .text:00000000000001c8 .L0 
     /tmp/ccDWEfAB.s:366    .text:00000000000001c8 .L0 
     /tmp/ccDWEfAB.s:367    .text:00000000000001c8 .L0 
     /tmp/ccDWEfAB.s:372    .text:00000000000001d8 .L0 
     /tmp/ccDWEfAB.s:374    .text:00000000000001d8 .L0 
     /tmp/ccDWEfAB.s:375    .text:00000000000001d8 .L0 
     /tmp/ccDWEfAB.s:380    .text:00000000000001e0 .L0 
     /tmp/ccDWEfAB.s:381    .text:00000000000001e0 .L0 
     /tmp/ccDWEfAB.s:386    .text:00000000000001ec .L0 
     /tmp/ccDWEfAB.s:387    .text:00000000000001ec .L0 
     /tmp/ccDWEfAB.s:391    .text:00000000000001f4 .L0 
     /tmp/ccDWEfAB.s:392    .text:00000000000001f4 .L0 
     /tmp/ccDWEfAB.s:396    .text:0000000000000204 .L0 
     /tmp/ccDWEfAB.s:397    .text:0000000000000204 .L0 
     /tmp/ccDWEfAB.s:401    .text:0000000000000210 .L0 
     /tmp/ccDWEfAB.s:402    .text:0000000000000210 .L0 
     /tmp/ccDWEfAB.s:406    .text:0000000000000220 .L0 
     /tmp/ccDWEfAB.s:410    .text:0000000000000224 .L0 
     /tmp/ccDWEfAB.s:414    .text:0000000000000230 .L0 
     /tmp/ccDWEfAB.s:418    .text:0000000000000238 .L0 
     /tmp/ccDWEfAB.s:419    .text:0000000000000238 .L0 
     /tmp/ccDWEfAB.s:422    .text:0000000000000240 .L0 
     /tmp/ccDWEfAB.s:424    .text:0000000000000244 .L0 
     /tmp/ccDWEfAB.s:429    .text:000000000000024c .L0 
     /tmp/ccDWEfAB.s:430    .text:0000000000000250 .L0 
     /tmp/ccDWEfAB.s:432    .text:0000000000000254 .L0 
     /tmp/ccDWEfAB.s:433    .text:0000000000000254 .L0 
     /tmp/ccDWEfAB.s:435    .text:0000000000000258 .L0 
     /tmp/ccDWEfAB.s:438    .text:000000000000025c .L0 
     /tmp/ccDWEfAB.s:440    .text:0000000000000260 .L0 
     /tmp/ccDWEfAB.s:451    .text:0000000000000260 _Z2f1Pv
     /tmp/ccDWEfAB.s:454    .text:0000000000000260 .L0 
     /tmp/ccDWEfAB.s:456    .text:0000000000000260 .L0 
     /tmp/ccDWEfAB.s:457    .text:0000000000000264 .L0 
     /tmp/ccDWEfAB.s:462    .text:0000000000000274 .L0 
GAS LISTING /tmp/ccDWEfAB.s 			page 77


     /tmp/ccDWEfAB.s:463    .text:0000000000000274 .L0 
     /tmp/ccDWEfAB.s:464    .text:0000000000000274 .L0 
     /tmp/ccDWEfAB.s:465    .text:0000000000000274 .L0 
     /tmp/ccDWEfAB.s:467    .text:0000000000000278 .L0 
     /tmp/ccDWEfAB.s:469    .text:0000000000000278 .L0 
     /tmp/ccDWEfAB.s:470    .text:0000000000000278 .L0 
     /tmp/ccDWEfAB.s:475    .text:0000000000000288 .L0 
     /tmp/ccDWEfAB.s:476    .text:0000000000000288 .L0 
     /tmp/ccDWEfAB.s:481    .text:0000000000000290 .L0 
     /tmp/ccDWEfAB.s:482    .text:0000000000000290 .L0 
     /tmp/ccDWEfAB.s:486    .text:0000000000000298 .L0 
     /tmp/ccDWEfAB.s:487    .text:0000000000000298 .L0 
     /tmp/ccDWEfAB.s:488    .text:0000000000000298 .L0 
     /tmp/ccDWEfAB.s:491    .text:000000000000029c .L0 
     /tmp/ccDWEfAB.s:492    .text:000000000000029c .L0 
     /tmp/ccDWEfAB.s:497    .text:00000000000002b0 .L0 
     /tmp/ccDWEfAB.s:498    .text:00000000000002b0 .L0 
     /tmp/ccDWEfAB.s:502    .text:00000000000002bc .L0 
     /tmp/ccDWEfAB.s:506    .text:00000000000002c8 .L0 
     /tmp/ccDWEfAB.s:507    .text:00000000000002c8 .L0 
     /tmp/ccDWEfAB.s:510    .text:00000000000002d4 .L0 
     /tmp/ccDWEfAB.s:521    .text:00000000000002d4 _Z2f2Pv
     /tmp/ccDWEfAB.s:524    .text:00000000000002d4 .L0 
     /tmp/ccDWEfAB.s:526    .text:00000000000002d4 .L0 
     /tmp/ccDWEfAB.s:527    .text:00000000000002d8 .L0 
     /tmp/ccDWEfAB.s:531    .text:00000000000002e4 .L0 
     /tmp/ccDWEfAB.s:532    .text:00000000000002e4 .L0 
     /tmp/ccDWEfAB.s:533    .text:00000000000002e4 .L0 
     /tmp/ccDWEfAB.s:535    .text:00000000000002e8 .L0 
     /tmp/ccDWEfAB.s:537    .text:00000000000002e8 .L0 
     /tmp/ccDWEfAB.s:538    .text:00000000000002e8 .L0 
     /tmp/ccDWEfAB.s:544    .text:00000000000002f8 .L0 
     /tmp/ccDWEfAB.s:545    .text:00000000000002f8 .L0 
     /tmp/ccDWEfAB.s:546    .text:00000000000002f8 .L0 
     /tmp/ccDWEfAB.s:547    .text:00000000000002f8 .L0 
     /tmp/ccDWEfAB.s:552    .text:000000000000030c .L0 
     /tmp/ccDWEfAB.s:553    .text:000000000000030c .L0 
     /tmp/ccDWEfAB.s:557    .text:0000000000000318 .L0 
     /tmp/ccDWEfAB.s:558    .text:0000000000000318 .L0 
     /tmp/ccDWEfAB.s:559    .text:0000000000000318 .L0 
     /tmp/ccDWEfAB.s:562    .text:0000000000000324 .L0 
     /tmp/ccDWEfAB.s:573    .text:0000000000000324 _Z4f1_2Pv
     /tmp/ccDWEfAB.s:576    .text:0000000000000324 .L0 
     /tmp/ccDWEfAB.s:578    .text:0000000000000324 .L0 
     /tmp/ccDWEfAB.s:579    .text:0000000000000328 .L0 
     /tmp/ccDWEfAB.s:584    .text:0000000000000338 .L0 
     /tmp/ccDWEfAB.s:585    .text:0000000000000338 .L0 
     /tmp/ccDWEfAB.s:586    .text:0000000000000338 .L0 
     /tmp/ccDWEfAB.s:587    .text:0000000000000338 .L0 
     /tmp/ccDWEfAB.s:589    .text:000000000000033c .L0 
     /tmp/ccDWEfAB.s:591    .text:000000000000033c .L0 
     /tmp/ccDWEfAB.s:592    .text:000000000000033c .L0 
     /tmp/ccDWEfAB.s:597    .text:000000000000034c .L0 
     /tmp/ccDWEfAB.s:598    .text:000000000000034c .L0 
     /tmp/ccDWEfAB.s:603    .text:0000000000000354 .L0 
     /tmp/ccDWEfAB.s:604    .text:0000000000000354 .L0 
     /tmp/ccDWEfAB.s:608    .text:000000000000035c .L0 
GAS LISTING /tmp/ccDWEfAB.s 			page 78


     /tmp/ccDWEfAB.s:609    .text:000000000000035c .L0 
     /tmp/ccDWEfAB.s:610    .text:000000000000035c .L0 
     /tmp/ccDWEfAB.s:613    .text:0000000000000360 .L0 
     /tmp/ccDWEfAB.s:614    .text:0000000000000360 .L0 
     /tmp/ccDWEfAB.s:619    .text:0000000000000374 .L0 
     /tmp/ccDWEfAB.s:620    .text:0000000000000374 .L0 
     /tmp/ccDWEfAB.s:624    .text:0000000000000380 .L0 
     /tmp/ccDWEfAB.s:625    .text:0000000000000380 .L0 
     /tmp/ccDWEfAB.s:629    .text:000000000000038c .L0 
     /tmp/ccDWEfAB.s:630    .text:000000000000038c .L0 
     /tmp/ccDWEfAB.s:634    .text:0000000000000398 .L0 
     /tmp/ccDWEfAB.s:638    .text:00000000000003a4 .L0 
     /tmp/ccDWEfAB.s:639    .text:00000000000003a4 .L0 
     /tmp/ccDWEfAB.s:642    .text:00000000000003b0 .L0 
     /tmp/ccDWEfAB.s:653    .text:00000000000003b0 _Z4f2_2Pv
     /tmp/ccDWEfAB.s:656    .text:00000000000003b0 .L0 
     /tmp/ccDWEfAB.s:658    .text:00000000000003b0 .L0 
     /tmp/ccDWEfAB.s:659    .text:00000000000003b4 .L0 
     /tmp/ccDWEfAB.s:664    .text:00000000000003c4 .L0 
     /tmp/ccDWEfAB.s:665    .text:00000000000003c4 .L0 
     /tmp/ccDWEfAB.s:666    .text:00000000000003c4 .L0 
     /tmp/ccDWEfAB.s:667    .text:00000000000003c4 .L0 
     /tmp/ccDWEfAB.s:669    .text:00000000000003c8 .L0 
     /tmp/ccDWEfAB.s:671    .text:00000000000003c8 .L0 
     /tmp/ccDWEfAB.s:672    .text:00000000000003c8 .L0 
     /tmp/ccDWEfAB.s:677    .text:00000000000003d8 .L0 
     /tmp/ccDWEfAB.s:678    .text:00000000000003d8 .L0 
     /tmp/ccDWEfAB.s:683    .text:00000000000003e0 .L0 
     /tmp/ccDWEfAB.s:684    .text:00000000000003e0 .L0 
     /tmp/ccDWEfAB.s:688    .text:00000000000003e8 .L0 
     /tmp/ccDWEfAB.s:689    .text:00000000000003e8 .L0 
     /tmp/ccDWEfAB.s:690    .text:00000000000003e8 .L0 
     /tmp/ccDWEfAB.s:693    .text:00000000000003ec .L0 
     /tmp/ccDWEfAB.s:694    .text:00000000000003ec .L0 
     /tmp/ccDWEfAB.s:699    .text:0000000000000400 .L0 
     /tmp/ccDWEfAB.s:700    .text:0000000000000400 .L0 
     /tmp/ccDWEfAB.s:704    .text:000000000000040c .L0 
     /tmp/ccDWEfAB.s:705    .text:000000000000040c .L0 
     /tmp/ccDWEfAB.s:709    .text:0000000000000418 .L0 
     /tmp/ccDWEfAB.s:710    .text:0000000000000418 .L0 
     /tmp/ccDWEfAB.s:714    .text:0000000000000424 .L0 
     /tmp/ccDWEfAB.s:718    .text:0000000000000430 .L0 
     /tmp/ccDWEfAB.s:719    .text:0000000000000430 .L0 
     /tmp/ccDWEfAB.s:722    .text:000000000000043c .L0 
     /tmp/ccDWEfAB.s:733    .text:000000000000043c _Z4f3_2Pv
     /tmp/ccDWEfAB.s:736    .text:000000000000043c .L0 
     /tmp/ccDWEfAB.s:738    .text:000000000000043c .L0 
     /tmp/ccDWEfAB.s:739    .text:0000000000000440 .L0 
     /tmp/ccDWEfAB.s:744    .text:0000000000000450 .L0 
     /tmp/ccDWEfAB.s:745    .text:0000000000000450 .L0 
     /tmp/ccDWEfAB.s:746    .text:0000000000000450 .L0 
     /tmp/ccDWEfAB.s:747    .text:0000000000000450 .L0 
     /tmp/ccDWEfAB.s:749    .text:0000000000000454 .L0 
     /tmp/ccDWEfAB.s:751    .text:0000000000000454 .L0 
     /tmp/ccDWEfAB.s:752    .text:0000000000000454 .L0 
     /tmp/ccDWEfAB.s:757    .text:0000000000000464 .L0 
     /tmp/ccDWEfAB.s:758    .text:0000000000000464 .L0 
GAS LISTING /tmp/ccDWEfAB.s 			page 79


     /tmp/ccDWEfAB.s:763    .text:000000000000046c .L0 
     /tmp/ccDWEfAB.s:764    .text:000000000000046c .L0 
     /tmp/ccDWEfAB.s:768    .text:0000000000000474 .L0 
     /tmp/ccDWEfAB.s:769    .text:0000000000000474 .L0 
     /tmp/ccDWEfAB.s:770    .text:0000000000000474 .L0 
     /tmp/ccDWEfAB.s:773    .text:0000000000000478 .L0 
     /tmp/ccDWEfAB.s:774    .text:0000000000000478 .L0 
     /tmp/ccDWEfAB.s:779    .text:000000000000048c .L0 
     /tmp/ccDWEfAB.s:780    .text:000000000000048c .L0 
     /tmp/ccDWEfAB.s:784    .text:0000000000000498 .L0 
     /tmp/ccDWEfAB.s:785    .text:0000000000000498 .L0 
     /tmp/ccDWEfAB.s:789    .text:00000000000004a4 .L0 
     /tmp/ccDWEfAB.s:790    .text:00000000000004a4 .L0 
     /tmp/ccDWEfAB.s:794    .text:00000000000004b0 .L0 
     /tmp/ccDWEfAB.s:798    .text:00000000000004bc .L0 
     /tmp/ccDWEfAB.s:799    .text:00000000000004bc .L0 
     /tmp/ccDWEfAB.s:802    .text:00000000000004c8 .L0 
     /tmp/ccDWEfAB.s:809    .text._ZN14PeriodicThreadD2Ev:0000000000000000 _ZN14PeriodicThreadD2Ev
     /tmp/ccDWEfAB.s:812    .text._ZN14PeriodicThreadD2Ev:0000000000000000 .L0 
     /tmp/ccDWEfAB.s:814    .text._ZN14PeriodicThreadD2Ev:0000000000000000 .L0 
     /tmp/ccDWEfAB.s:815    .text._ZN14PeriodicThreadD2Ev:0000000000000004 .L0 
     /tmp/ccDWEfAB.s:818    .text._ZN14PeriodicThreadD2Ev:000000000000000c .L0 
     /tmp/ccDWEfAB.s:819    .text._ZN14PeriodicThreadD2Ev:000000000000000c .L0 
     /tmp/ccDWEfAB.s:821    .text._ZN14PeriodicThreadD2Ev:0000000000000010 .L0 
     /tmp/ccDWEfAB.s:2820   .data.rel.ro.local._ZTV14PeriodicThread:0000000000000000 _ZTV14PeriodicThread
     /tmp/ccDWEfAB.s:824    .text._ZN14PeriodicThreadD2Ev:0000000000000010 .L0 
     /tmp/ccDWEfAB.s:830    .text._ZN14PeriodicThreadD2Ev:0000000000000028 .L0 
     /tmp/ccDWEfAB.s:832    .text._ZN14PeriodicThreadD2Ev:000000000000002c .L0 
     /tmp/ccDWEfAB.s:833    .text._ZN14PeriodicThreadD2Ev:000000000000002c .L0 
     /tmp/ccDWEfAB.s:835    .text._ZN14PeriodicThreadD2Ev:0000000000000030 .L0 
     /tmp/ccDWEfAB.s:837    .text._ZN14PeriodicThreadD2Ev:0000000000000034 .L0 
     /tmp/ccDWEfAB.s:809    .text._ZN14PeriodicThreadD2Ev:0000000000000000 _ZN14PeriodicThreadD1Ev
     /tmp/ccDWEfAB.s:846    .text._ZN14PeriodicThreadD0Ev:0000000000000000 _ZN14PeriodicThreadD0Ev
     /tmp/ccDWEfAB.s:849    .text._ZN14PeriodicThreadD0Ev:0000000000000000 .L0 
     /tmp/ccDWEfAB.s:851    .text._ZN14PeriodicThreadD0Ev:0000000000000000 .L0 
     /tmp/ccDWEfAB.s:852    .text._ZN14PeriodicThreadD0Ev:0000000000000004 .L0 
     /tmp/ccDWEfAB.s:856    .text._ZN14PeriodicThreadD0Ev:0000000000000010 .L0 
     /tmp/ccDWEfAB.s:857    .text._ZN14PeriodicThreadD0Ev:0000000000000010 .L0 
     /tmp/ccDWEfAB.s:858    .text._ZN14PeriodicThreadD0Ev:0000000000000010 .L0 
     /tmp/ccDWEfAB.s:860    .text._ZN14PeriodicThreadD0Ev:0000000000000014 .L0 
     /tmp/ccDWEfAB.s:866    .text._ZN14PeriodicThreadD0Ev:0000000000000018 .L0 
     /tmp/ccDWEfAB.s:876    .text._ZN14PeriodicThreadD0Ev:000000000000003c .L0 
     /tmp/ccDWEfAB.s:878    .text._ZN14PeriodicThreadD0Ev:0000000000000040 .L0 
     /tmp/ccDWEfAB.s:879    .text._ZN14PeriodicThreadD0Ev:0000000000000040 .L0 
     /tmp/ccDWEfAB.s:881    .text._ZN14PeriodicThreadD0Ev:0000000000000044 .L0 
     /tmp/ccDWEfAB.s:884    .text._ZN14PeriodicThreadD0Ev:0000000000000048 .L0 
     /tmp/ccDWEfAB.s:886    .text._ZN14PeriodicThreadD0Ev:000000000000004c .L0 
     /tmp/ccDWEfAB.s:893    .text._ZN12TestPeriodicD2Ev:0000000000000000 _ZN12TestPeriodicD2Ev
     /tmp/ccDWEfAB.s:897    .text._ZN12TestPeriodicD2Ev:0000000000000000 .L0 
     /tmp/ccDWEfAB.s:899    .text._ZN12TestPeriodicD2Ev:0000000000000000 .L0 
     /tmp/ccDWEfAB.s:900    .text._ZN12TestPeriodicD2Ev:0000000000000004 .L0 
     /tmp/ccDWEfAB.s:903    .text._ZN12TestPeriodicD2Ev:000000000000000c .L0 
     /tmp/ccDWEfAB.s:904    .text._ZN12TestPeriodicD2Ev:000000000000000c .L0 
     /tmp/ccDWEfAB.s:906    .text._ZN12TestPeriodicD2Ev:0000000000000010 .L0 
     /tmp/ccDWEfAB.s:911    .text._ZN12TestPeriodicD2Ev:0000000000000010 .L0 
     /tmp/ccDWEfAB.s:918    .text._ZN12TestPeriodicD2Ev:0000000000000024 .L0 
     /tmp/ccDWEfAB.s:919    .text._ZN12TestPeriodicD2Ev:0000000000000028 .L0 
GAS LISTING /tmp/ccDWEfAB.s 			page 80


     /tmp/ccDWEfAB.s:921    .text._ZN12TestPeriodicD2Ev:000000000000002c .L0 
     /tmp/ccDWEfAB.s:922    .text._ZN12TestPeriodicD2Ev:000000000000002c .L0 
     /tmp/ccDWEfAB.s:924    .text._ZN12TestPeriodicD2Ev:0000000000000030 .L0 
     /tmp/ccDWEfAB.s:926    .text._ZN12TestPeriodicD2Ev:0000000000000034 .L0 
     /tmp/ccDWEfAB.s:893    .text._ZN12TestPeriodicD2Ev:0000000000000000 _ZN12TestPeriodicD1Ev
     /tmp/ccDWEfAB.s:935    .text._ZN12TestPeriodicD0Ev:0000000000000000 _ZN12TestPeriodicD0Ev
     /tmp/ccDWEfAB.s:938    .text._ZN12TestPeriodicD0Ev:0000000000000000 .L0 
     /tmp/ccDWEfAB.s:940    .text._ZN12TestPeriodicD0Ev:0000000000000000 .L0 
     /tmp/ccDWEfAB.s:941    .text._ZN12TestPeriodicD0Ev:0000000000000004 .L0 
     /tmp/ccDWEfAB.s:945    .text._ZN12TestPeriodicD0Ev:0000000000000010 .L0 
     /tmp/ccDWEfAB.s:946    .text._ZN12TestPeriodicD0Ev:0000000000000010 .L0 
     /tmp/ccDWEfAB.s:947    .text._ZN12TestPeriodicD0Ev:0000000000000010 .L0 
     /tmp/ccDWEfAB.s:949    .text._ZN12TestPeriodicD0Ev:0000000000000014 .L0 
     /tmp/ccDWEfAB.s:956    .text._ZN12TestPeriodicD0Ev:0000000000000018 .L0 
     /tmp/ccDWEfAB.s:964    .text._ZN12TestPeriodicD0Ev:000000000000002c .L0 
     /tmp/ccDWEfAB.s:968    .text._ZN12TestPeriodicD0Ev:000000000000003c .L0 
     /tmp/ccDWEfAB.s:970    .text._ZN12TestPeriodicD0Ev:0000000000000040 .L0 
     /tmp/ccDWEfAB.s:971    .text._ZN12TestPeriodicD0Ev:0000000000000040 .L0 
     /tmp/ccDWEfAB.s:973    .text._ZN12TestPeriodicD0Ev:0000000000000044 .L0 
     /tmp/ccDWEfAB.s:976    .text._ZN12TestPeriodicD0Ev:0000000000000048 .L0 
     /tmp/ccDWEfAB.s:978    .text._ZN12TestPeriodicD0Ev:000000000000004c .L0 
     /tmp/ccDWEfAB.s:992    .text:00000000000004c8 _Z11threadTest1v
     /tmp/ccDWEfAB.s:995    .text:00000000000004c8 .L0 
     /tmp/ccDWEfAB.s:9617   .data.rel.local.DW.ref.__gxx_personality_v0:0000000000000000 DW.ref.__gxx_personality_v0
     /tmp/ccDWEfAB.s:998    .text:00000000000004c8 .L0 
     /tmp/ccDWEfAB.s:999    .text:00000000000004cc .L0 
     /tmp/ccDWEfAB.s:1004   .text:00000000000004dc .L0 
     /tmp/ccDWEfAB.s:1005   .text:00000000000004dc .L0 
     /tmp/ccDWEfAB.s:1006   .text:00000000000004dc .L0 
     /tmp/ccDWEfAB.s:1007   .text:00000000000004dc .L0 
     /tmp/ccDWEfAB.s:1009   .text:00000000000004e0 .L0 
     /tmp/ccDWEfAB.s:1011   .text:00000000000004e0 .L0 
     /tmp/ccDWEfAB.s:1012   .text:00000000000004e0 .L0 
     /tmp/ccDWEfAB.s:1025   .text:0000000000000504 .L0 
     /tmp/ccDWEfAB.s:1026   .text:0000000000000504 .L0 
     /tmp/ccDWEfAB.s:1031   .text:0000000000000510 .L0 
     /tmp/ccDWEfAB.s:1032   .text:0000000000000510 .L0 
     /tmp/ccDWEfAB.s:1044   .text:0000000000000534 .L0 
     /tmp/ccDWEfAB.s:1045   .text:0000000000000534 .L0 
     /tmp/ccDWEfAB.s:1050   .text:0000000000000540 .L0 
     /tmp/ccDWEfAB.s:1051   .text:0000000000000540 .L0 
     /tmp/ccDWEfAB.s:1056   .text:000000000000054c .L0 
     /tmp/ccDWEfAB.s:1057   .text:000000000000054c .L0 
     /tmp/ccDWEfAB.s:1061   .text:000000000000055c .L0 
     /tmp/ccDWEfAB.s:1062   .text:000000000000055c .L0 
     /tmp/ccDWEfAB.s:1066   .text:0000000000000564 .L0 
     /tmp/ccDWEfAB.s:1067   .text:0000000000000564 .L0 
     /tmp/ccDWEfAB.s:1068   .text:0000000000000564 .L0 
     /tmp/ccDWEfAB.s:1074   .text:0000000000000568 .L0 
     /tmp/ccDWEfAB.s:1075   .text:0000000000000568 .L0 
     /tmp/ccDWEfAB.s:1080   .text:000000000000056c .L0 
     /tmp/ccDWEfAB.s:1083   .text:0000000000000574 .L0 
     /tmp/ccDWEfAB.s:1088   .text:0000000000000578 .L0 
     /tmp/ccDWEfAB.s:1089   .text:0000000000000578 .L0 
     /tmp/ccDWEfAB.s:1094   .text:000000000000057c .L0 
     /tmp/ccDWEfAB.s:1097   .text:0000000000000584 .L0 
     /tmp/ccDWEfAB.s:1098   .text:0000000000000584 .L0 
GAS LISTING /tmp/ccDWEfAB.s 			page 81


     /tmp/ccDWEfAB.s:1102   .text:0000000000000594 .L0 
     /tmp/ccDWEfAB.s:1103   .text:0000000000000594 .L0 
     /tmp/ccDWEfAB.s:1107   .text:000000000000059c .L0 
     /tmp/ccDWEfAB.s:1108   .text:00000000000005a0 .L0 
     /tmp/ccDWEfAB.s:1109   .text:00000000000005a0 .L0 
     /tmp/ccDWEfAB.s:1111   .text:00000000000005a4 .L0 
     /tmp/ccDWEfAB.s:1112   .text:00000000000005a4 .L0 
     /tmp/ccDWEfAB.s:1114   .text:00000000000005a8 .L0 
     /tmp/ccDWEfAB.s:1117   .text:00000000000005ac .L0 
     /tmp/ccDWEfAB.s:1120   .text:00000000000005b0 .L0 
     /tmp/ccDWEfAB.s:1123   .text:00000000000005b4 .L0 
     /tmp/ccDWEfAB.s:1126   .text:00000000000005b8 .L0 
     /tmp/ccDWEfAB.s:1138   .text:00000000000005d4 .L0 
     /tmp/ccDWEfAB.s:1146   .text:00000000000005ec .L0 
     /tmp/ccDWEfAB.s:1188   .text:00000000000005ec _Z11threadTest2v
     /tmp/ccDWEfAB.s:1191   .text:00000000000005ec .L0 
     /tmp/ccDWEfAB.s:1194   .text:00000000000005ec .L0 
     /tmp/ccDWEfAB.s:1195   .text:00000000000005f0 .L0 
     /tmp/ccDWEfAB.s:1200   .text:0000000000000600 .L0 
     /tmp/ccDWEfAB.s:1201   .text:0000000000000600 .L0 
     /tmp/ccDWEfAB.s:1202   .text:0000000000000600 .L0 
     /tmp/ccDWEfAB.s:1203   .text:0000000000000600 .L0 
     /tmp/ccDWEfAB.s:1205   .text:0000000000000604 .L0 
     /tmp/ccDWEfAB.s:1207   .text:0000000000000604 .L0 
     /tmp/ccDWEfAB.s:1208   .text:0000000000000604 .L0 
     /tmp/ccDWEfAB.s:1221   .text:0000000000000628 .L0 
     /tmp/ccDWEfAB.s:1222   .text:0000000000000628 .L0 
     /tmp/ccDWEfAB.s:1227   .text:0000000000000634 .L0 
     /tmp/ccDWEfAB.s:1228   .text:0000000000000634 .L0 
     /tmp/ccDWEfAB.s:1240   .text:0000000000000658 .L0 
     /tmp/ccDWEfAB.s:1241   .text:0000000000000658 .L0 
     /tmp/ccDWEfAB.s:1246   .text:0000000000000664 .L0 
     /tmp/ccDWEfAB.s:1247   .text:0000000000000664 .L0 
     /tmp/ccDWEfAB.s:1260   .text:0000000000000688 .L0 
     /tmp/ccDWEfAB.s:1261   .text:0000000000000688 .L0 
     /tmp/ccDWEfAB.s:1266   .text:0000000000000694 .L0 
     /tmp/ccDWEfAB.s:1267   .text:0000000000000694 .L0 
     /tmp/ccDWEfAB.s:1271   .text:000000000000069c .L0 
     /tmp/ccDWEfAB.s:1272   .text:000000000000069c .L0 
     /tmp/ccDWEfAB.s:1273   .text:000000000000069c .L0 
     /tmp/ccDWEfAB.s:1278   .text:00000000000006a0 .L0 
     /tmp/ccDWEfAB.s:1279   .text:00000000000006a0 .L0 
     /tmp/ccDWEfAB.s:1284   .text:00000000000006a4 .L0 
     /tmp/ccDWEfAB.s:1287   .text:00000000000006ac .L0 
     /tmp/ccDWEfAB.s:1288   .text:00000000000006ac .L0 
     /tmp/ccDWEfAB.s:1292   .text:00000000000006bc .L0 
     /tmp/ccDWEfAB.s:1293   .text:00000000000006bc .L0 
     /tmp/ccDWEfAB.s:1297   .text:00000000000006c4 .L0 
     /tmp/ccDWEfAB.s:1298   .text:00000000000006c8 .L0 
     /tmp/ccDWEfAB.s:1299   .text:00000000000006c8 .L0 
     /tmp/ccDWEfAB.s:1301   .text:00000000000006cc .L0 
     /tmp/ccDWEfAB.s:1302   .text:00000000000006cc .L0 
     /tmp/ccDWEfAB.s:1304   .text:00000000000006d0 .L0 
     /tmp/ccDWEfAB.s:1307   .text:00000000000006d4 .L0 
     /tmp/ccDWEfAB.s:1310   .text:00000000000006d8 .L0 
     /tmp/ccDWEfAB.s:1313   .text:00000000000006dc .L0 
     /tmp/ccDWEfAB.s:1316   .text:00000000000006e0 .L0 
GAS LISTING /tmp/ccDWEfAB.s 			page 82


     /tmp/ccDWEfAB.s:1328   .text:00000000000006fc .L0 
     /tmp/ccDWEfAB.s:1340   .text:0000000000000718 .L0 
     /tmp/ccDWEfAB.s:1348   .text:0000000000000730 .L0 
     /tmp/ccDWEfAB.s:1401   .text:0000000000000730 _Z11threadTestsv
     /tmp/ccDWEfAB.s:1404   .text:0000000000000730 .L0 
     /tmp/ccDWEfAB.s:1405   .text:0000000000000730 .L0 
     /tmp/ccDWEfAB.s:1406   .text:0000000000000734 .L0 
     /tmp/ccDWEfAB.s:1408   .text:0000000000000738 .L0 
     /tmp/ccDWEfAB.s:1410   .text:000000000000073c .L0 
     /tmp/ccDWEfAB.s:1412   .text:000000000000073c .L0 
     /tmp/ccDWEfAB.s:1413   .text:0000000000000740 .L0 
     /tmp/ccDWEfAB.s:1414   .text:0000000000000740 .L0 
     /tmp/ccDWEfAB.s:1416   .text:0000000000000744 .L0 
     /tmp/ccDWEfAB.s:1418   .text:0000000000000748 .L0 
     /tmp/ccDWEfAB.s:1435   .text:0000000000000748 _Z10mallocFreev
     /tmp/ccDWEfAB.s:1438   .text:0000000000000748 .L0 
     /tmp/ccDWEfAB.s:1439   .text:0000000000000748 .L0 
     /tmp/ccDWEfAB.s:1440   .text:000000000000074c .L0 
     /tmp/ccDWEfAB.s:1444   .text:0000000000000758 .L0 
     /tmp/ccDWEfAB.s:1445   .text:0000000000000758 .L0 
     /tmp/ccDWEfAB.s:1446   .text:0000000000000758 .L0 
     /tmp/ccDWEfAB.s:1448   .text:000000000000075c .L0 
     /tmp/ccDWEfAB.s:1450   .text:000000000000075c .L0 
     /tmp/ccDWEfAB.s:1451   .text:000000000000075c .L0 
     /tmp/ccDWEfAB.s:1456   .text:000000000000076c .L0 
     /tmp/ccDWEfAB.s:1461   .text:0000000000000774 .L0 
     /tmp/ccDWEfAB.s:1465   .text:0000000000000778 .L0 
     /tmp/ccDWEfAB.s:1468   .text:0000000000000780 .L0 
     /tmp/ccDWEfAB.s:1469   .text:0000000000000780 .L0 
     /tmp/ccDWEfAB.s:1473   .text:000000000000078c .L0 
     /tmp/ccDWEfAB.s:1478   .text:000000000000079c .L0 
     /tmp/ccDWEfAB.s:1480   .text:00000000000007a0 .L0 
     /tmp/ccDWEfAB.s:1481   .text:00000000000007a0 .L0 
     /tmp/ccDWEfAB.s:1487   .text:00000000000007b0 .L0 
     /tmp/ccDWEfAB.s:1488   .text:00000000000007b0 .L0 
     /tmp/ccDWEfAB.s:1489   .text:00000000000007b4 .L0 
     /tmp/ccDWEfAB.s:1490   .text:00000000000007b4 .L0 
     /tmp/ccDWEfAB.s:1492   .text:00000000000007b8 .L0 
     /tmp/ccDWEfAB.s:1493   .text:00000000000007b8 .L0 
     /tmp/ccDWEfAB.s:1495   .text:00000000000007bc .L0 
     /tmp/ccDWEfAB.s:1497   .text:00000000000007c0 .L0 
     /tmp/ccDWEfAB.s:1501   .text:00000000000007c4 .L0 
     /tmp/ccDWEfAB.s:1504   .text:00000000000007c4 .L0 
     /tmp/ccDWEfAB.s:1508   .text:00000000000007c8 .L0 
     /tmp/ccDWEfAB.s:1512   .text:00000000000007d0 .L0 
     /tmp/ccDWEfAB.s:1513   .text:00000000000007d0 .L0 
     /tmp/ccDWEfAB.s:1520   .text:00000000000007e8 .L0 
     /tmp/ccDWEfAB.s:1523   .text:00000000000007ec .L0 
     /tmp/ccDWEfAB.s:1524   .text:00000000000007ec .L0 
     /tmp/ccDWEfAB.s:1527   .text:00000000000007f0 .L0 
     /tmp/ccDWEfAB.s:1532   .text:00000000000007f4 .L0 
     /tmp/ccDWEfAB.s:1533   .text:00000000000007f4 .L0 
     /tmp/ccDWEfAB.s:1538   .text:0000000000000804 .L0 
     /tmp/ccDWEfAB.s:1544   .text:0000000000000808 .L0 
     /tmp/ccDWEfAB.s:1550   .text:0000000000000810 .L0 
     /tmp/ccDWEfAB.s:1551   .text:0000000000000810 .L0 
     /tmp/ccDWEfAB.s:1555   .text:0000000000000814 .L0 
GAS LISTING /tmp/ccDWEfAB.s 			page 83


     /tmp/ccDWEfAB.s:1558   .text:000000000000081c .L0 
     /tmp/ccDWEfAB.s:1559   .text:000000000000081c .L0 
     /tmp/ccDWEfAB.s:1563   .text:0000000000000828 .L0 
     /tmp/ccDWEfAB.s:1568   .text:0000000000000838 .L0 
     /tmp/ccDWEfAB.s:1570   .text:000000000000083c .L0 
     /tmp/ccDWEfAB.s:1571   .text:000000000000083c .L0 
     /tmp/ccDWEfAB.s:1575   .text:000000000000084c .L0 
     /tmp/ccDWEfAB.s:1580   .text:0000000000000850 .L0 
     /tmp/ccDWEfAB.s:1584   .text:0000000000000854 .L0 
     /tmp/ccDWEfAB.s:1588   .text:000000000000085c .L0 
     /tmp/ccDWEfAB.s:1589   .text:000000000000085c .L0 
     /tmp/ccDWEfAB.s:1596   .text:0000000000000874 .L0 
     /tmp/ccDWEfAB.s:1599   .text:0000000000000878 .L0 
     /tmp/ccDWEfAB.s:1606   .text:0000000000000880 .L0 
     /tmp/ccDWEfAB.s:1607   .text:0000000000000880 .L0 
     /tmp/ccDWEfAB.s:1612   .text:0000000000000890 .L0 
     /tmp/ccDWEfAB.s:1617   .text:0000000000000894 .L0 
     /tmp/ccDWEfAB.s:1618   .text:0000000000000894 .L0 
     /tmp/ccDWEfAB.s:1622   .text:00000000000008a8 .L0 
     /tmp/ccDWEfAB.s:1633   .text:00000000000008a8 _Z9bigMallocv
     /tmp/ccDWEfAB.s:1636   .text:00000000000008a8 .L0 
     /tmp/ccDWEfAB.s:1637   .text:00000000000008a8 .L0 
     /tmp/ccDWEfAB.s:1638   .text:00000000000008ac .L0 
     /tmp/ccDWEfAB.s:1641   .text:00000000000008b4 .L0 
     /tmp/ccDWEfAB.s:1642   .text:00000000000008b4 .L0 
     /tmp/ccDWEfAB.s:1644   .text:00000000000008b8 .L0 
     /tmp/ccDWEfAB.s:1646   .text:00000000000008b8 .L0 
     /tmp/ccDWEfAB.s:1647   .text:00000000000008b8 .L0 
     /tmp/ccDWEfAB.s:1651   .text:00000000000008c8 .L0 
     /tmp/ccDWEfAB.s:1652   .text:00000000000008c8 .L0 
     /tmp/ccDWEfAB.s:1659   .text:00000000000008e4 .L0 
     /tmp/ccDWEfAB.s:1660   .text:00000000000008e4 .L0 
     /tmp/ccDWEfAB.s:1665   .text:00000000000008f0 .L0 
     /tmp/ccDWEfAB.s:1667   .text:00000000000008f4 .L0 
     /tmp/ccDWEfAB.s:1668   .text:00000000000008f4 .L0 
     /tmp/ccDWEfAB.s:1674   .text:0000000000000904 .L0 
     /tmp/ccDWEfAB.s:1675   .text:0000000000000908 .L0 
     /tmp/ccDWEfAB.s:1676   .text:0000000000000908 .L0 
     /tmp/ccDWEfAB.s:1678   .text:000000000000090c .L0 
     /tmp/ccDWEfAB.s:1679   .text:000000000000090c .L0 
     /tmp/ccDWEfAB.s:1681   .text:0000000000000910 .L0 
     /tmp/ccDWEfAB.s:1685   .text:0000000000000914 .L0 
     /tmp/ccDWEfAB.s:1687   .text:0000000000000914 .L0 
     /tmp/ccDWEfAB.s:1688   .text:0000000000000914 .L0 
     /tmp/ccDWEfAB.s:1693   .text:0000000000000928 .L0 
     /tmp/ccDWEfAB.s:1704   .text:0000000000000928 _Z17lotOfSmallMallocsv
     /tmp/ccDWEfAB.s:1707   .text:0000000000000928 .L0 
     /tmp/ccDWEfAB.s:1708   .text:0000000000000928 .L0 
     /tmp/ccDWEfAB.s:1709   .text:000000000000092c .L0 
     /tmp/ccDWEfAB.s:1715   .text:0000000000000940 .L0 
     /tmp/ccDWEfAB.s:1716   .text:0000000000000940 .L0 
     /tmp/ccDWEfAB.s:1717   .text:0000000000000940 .L0 
     /tmp/ccDWEfAB.s:1718   .text:0000000000000940 .L0 
     /tmp/ccDWEfAB.s:1719   .text:0000000000000940 .L0 
     /tmp/ccDWEfAB.s:1721   .text:0000000000000944 .L0 
     /tmp/ccDWEfAB.s:1723   .text:0000000000000944 .L0 
     /tmp/ccDWEfAB.s:1724   .text:0000000000000944 .L0 
GAS LISTING /tmp/ccDWEfAB.s 			page 84


     /tmp/ccDWEfAB.s:1728   .text:0000000000000954 .L0 
     /tmp/ccDWEfAB.s:1729   .text:0000000000000954 .L0 
     /tmp/ccDWEfAB.s:1730   .text:0000000000000954 .L0 
     /tmp/ccDWEfAB.s:1731   .text:0000000000000954 .L0 
     /tmp/ccDWEfAB.s:1733   .text:0000000000000954 .L0 
     /tmp/ccDWEfAB.s:1734   .text:0000000000000954 .L0 
     /tmp/ccDWEfAB.s:1737   .text:0000000000000958 .L0 
     /tmp/ccDWEfAB.s:1739   .text:000000000000095c .L0 
     /tmp/ccDWEfAB.s:1746   .text:0000000000000964 .L0 
     /tmp/ccDWEfAB.s:1747   .text:0000000000000964 .L0 
     /tmp/ccDWEfAB.s:1750   .text:000000000000096c .L0 
     /tmp/ccDWEfAB.s:1751   .text:000000000000096c .L0 
     /tmp/ccDWEfAB.s:1754   .text:0000000000000970 .L0 
     /tmp/ccDWEfAB.s:1755   .text:0000000000000970 .L0 
     /tmp/ccDWEfAB.s:1759   .text:0000000000000974 .L0 
     /tmp/ccDWEfAB.s:1763   .text:0000000000000978 .L0 
     /tmp/ccDWEfAB.s:1768   .text:0000000000000984 .L0 
     /tmp/ccDWEfAB.s:1769   .text:0000000000000984 .L0 
     /tmp/ccDWEfAB.s:1773   .text:0000000000000990 .L0 
     /tmp/ccDWEfAB.s:1779   .text:0000000000000994 .L0 
     /tmp/ccDWEfAB.s:1780   .text:0000000000000994 .L0 
     /tmp/ccDWEfAB.s:1784   .text:00000000000009a0 .L0 
     /tmp/ccDWEfAB.s:1785   .text:00000000000009a0 .L0 
     /tmp/ccDWEfAB.s:1789   .text:00000000000009b0 .L0 
     /tmp/ccDWEfAB.s:1790   .text:00000000000009b0 .L0 
     /tmp/ccDWEfAB.s:1795   .text:00000000000009bc .L0 
     /tmp/ccDWEfAB.s:1797   .text:00000000000009c0 .L0 
     /tmp/ccDWEfAB.s:1798   .text:00000000000009c0 .L0 
     /tmp/ccDWEfAB.s:1803   .text:00000000000009d0 .L0 
     /tmp/ccDWEfAB.s:1804   .text:00000000000009d4 .L0 
     /tmp/ccDWEfAB.s:1805   .text:00000000000009d4 .L0 
     /tmp/ccDWEfAB.s:1807   .text:00000000000009d8 .L0 
     /tmp/ccDWEfAB.s:1808   .text:00000000000009d8 .L0 
     /tmp/ccDWEfAB.s:1810   .text:00000000000009dc .L0 
     /tmp/ccDWEfAB.s:1813   .text:00000000000009e0 .L0 
     /tmp/ccDWEfAB.s:1815   .text:00000000000009e4 .L0 
     /tmp/ccDWEfAB.s:1818   .text:00000000000009e8 .L0 
     /tmp/ccDWEfAB.s:1822   .text:00000000000009ec .L0 
     /tmp/ccDWEfAB.s:1824   .text:00000000000009ec .L0 
     /tmp/ccDWEfAB.s:1825   .text:00000000000009ec .L0 
     /tmp/ccDWEfAB.s:1829   .text:0000000000000a00 .L0 
     /tmp/ccDWEfAB.s:1840   .text:0000000000000a00 _Z7badFreev
     /tmp/ccDWEfAB.s:1843   .text:0000000000000a00 .L0 
     /tmp/ccDWEfAB.s:1844   .text:0000000000000a00 .L0 
     /tmp/ccDWEfAB.s:1845   .text:0000000000000a04 .L0 
     /tmp/ccDWEfAB.s:1848   .text:0000000000000a0c .L0 
     /tmp/ccDWEfAB.s:1849   .text:0000000000000a0c .L0 
     /tmp/ccDWEfAB.s:1851   .text:0000000000000a10 .L0 
     /tmp/ccDWEfAB.s:1853   .text:0000000000000a10 .L0 
     /tmp/ccDWEfAB.s:1854   .text:0000000000000a10 .L0 
     /tmp/ccDWEfAB.s:1858   .text:0000000000000a20 .L0 
     /tmp/ccDWEfAB.s:1859   .text:0000000000000a20 .L0 
     /tmp/ccDWEfAB.s:1863   .text:0000000000000a2c .L0 
     /tmp/ccDWEfAB.s:1864   .text:0000000000000a2c .L0 
     /tmp/ccDWEfAB.s:1869   .text:0000000000000a38 .L0 
     /tmp/ccDWEfAB.s:1871   .text:0000000000000a3c .L0 
     /tmp/ccDWEfAB.s:1872   .text:0000000000000a3c .L0 
GAS LISTING /tmp/ccDWEfAB.s 			page 85


     /tmp/ccDWEfAB.s:1878   .text:0000000000000a4c .L0 
     /tmp/ccDWEfAB.s:1879   .text:0000000000000a50 .L0 
     /tmp/ccDWEfAB.s:1880   .text:0000000000000a50 .L0 
     /tmp/ccDWEfAB.s:1882   .text:0000000000000a54 .L0 
     /tmp/ccDWEfAB.s:1883   .text:0000000000000a54 .L0 
     /tmp/ccDWEfAB.s:1885   .text:0000000000000a58 .L0 
     /tmp/ccDWEfAB.s:1889   .text:0000000000000a5c .L0 
     /tmp/ccDWEfAB.s:1891   .text:0000000000000a5c .L0 
     /tmp/ccDWEfAB.s:1892   .text:0000000000000a5c .L0 
     /tmp/ccDWEfAB.s:1897   .text:0000000000000a6c .L0 
     /tmp/ccDWEfAB.s:1898   .text:0000000000000a70 .L0 
     /tmp/ccDWEfAB.s:1909   .text:0000000000000a70 _Z13stressTestingv
     /tmp/ccDWEfAB.s:1912   .text:0000000000000a70 .L0 
     /tmp/ccDWEfAB.s:1913   .text:0000000000000a70 .L0 
     /tmp/ccDWEfAB.s:1914   .text:0000000000000a74 .L0 
     /tmp/ccDWEfAB.s:1919   .text:0000000000000a84 .L0 
     /tmp/ccDWEfAB.s:1920   .text:0000000000000a84 .L0 
     /tmp/ccDWEfAB.s:1921   .text:0000000000000a84 .L0 
     /tmp/ccDWEfAB.s:1922   .text:0000000000000a84 .L0 
     /tmp/ccDWEfAB.s:1924   .text:0000000000000a88 .L0 
     /tmp/ccDWEfAB.s:1926   .text:0000000000000a88 .L0 
     /tmp/ccDWEfAB.s:1927   .text:0000000000000a88 .L0 
     /tmp/ccDWEfAB.s:1932   .text:0000000000000a98 .L0 
     /tmp/ccDWEfAB.s:1937   .text:0000000000000aa0 .L0 
     /tmp/ccDWEfAB.s:1941   .text:0000000000000aa4 .L0 
     /tmp/ccDWEfAB.s:1944   .text:0000000000000aac .L0 
     /tmp/ccDWEfAB.s:1945   .text:0000000000000aac .L0 
     /tmp/ccDWEfAB.s:1949   .text:0000000000000ab8 .L0 
     /tmp/ccDWEfAB.s:1954   .text:0000000000000ac8 .L0 
     /tmp/ccDWEfAB.s:1959   .text:0000000000000acc .L0 
     /tmp/ccDWEfAB.s:1960   .text:0000000000000ad0 .L0 
     /tmp/ccDWEfAB.s:1961   .text:0000000000000ad0 .L0 
     /tmp/ccDWEfAB.s:1963   .text:0000000000000ad4 .L0 
     /tmp/ccDWEfAB.s:1964   .text:0000000000000ad4 .L0 
     /tmp/ccDWEfAB.s:1966   .text:0000000000000ad8 .L0 
     /tmp/ccDWEfAB.s:1968   .text:0000000000000adc .L0 
     /tmp/ccDWEfAB.s:1970   .text:0000000000000ae0 .L0 
     /tmp/ccDWEfAB.s:1974   .text:0000000000000ae4 .L0 
     /tmp/ccDWEfAB.s:1976   .text:0000000000000ae4 .L0 
     /tmp/ccDWEfAB.s:1980   .text:0000000000000ae8 .L0 
     /tmp/ccDWEfAB.s:1981   .text:0000000000000ae8 .L0 
     /tmp/ccDWEfAB.s:1985   .text:0000000000000aec .L0 
     /tmp/ccDWEfAB.s:1989   .text:0000000000000af0 .L0 
     /tmp/ccDWEfAB.s:1993   .text:0000000000000af8 .L0 
     /tmp/ccDWEfAB.s:1994   .text:0000000000000af8 .L0 
     /tmp/ccDWEfAB.s:2001   .text:0000000000000b10 .L0 
     /tmp/ccDWEfAB.s:2003   .text:0000000000000b14 .L0 
     /tmp/ccDWEfAB.s:2004   .text:0000000000000b14 .L0 
     /tmp/ccDWEfAB.s:2008   .text:0000000000000b1c .L0 
     /tmp/ccDWEfAB.s:2012   .text:0000000000000b28 .L0 
     /tmp/ccDWEfAB.s:2017   .text:0000000000000b38 .L0 
     /tmp/ccDWEfAB.s:2020   .text:0000000000000b3c .L0 
     /tmp/ccDWEfAB.s:2021   .text:0000000000000b3c .L0 
     /tmp/ccDWEfAB.s:2024   .text:0000000000000b40 .L0 
     /tmp/ccDWEfAB.s:2030   .text:0000000000000b44 .L0 
     /tmp/ccDWEfAB.s:2034   .text:0000000000000b48 .L0 
     /tmp/ccDWEfAB.s:2038   .text:0000000000000b50 .L0 
GAS LISTING /tmp/ccDWEfAB.s 			page 86


     /tmp/ccDWEfAB.s:2039   .text:0000000000000b50 .L0 
     /tmp/ccDWEfAB.s:2046   .text:0000000000000b68 .L0 
     /tmp/ccDWEfAB.s:2048   .text:0000000000000b6c .L0 
     /tmp/ccDWEfAB.s:2049   .text:0000000000000b6c .L0 
     /tmp/ccDWEfAB.s:2054   .text:0000000000000b78 .L0 
     /tmp/ccDWEfAB.s:2059   .text:0000000000000b88 .L0 
     /tmp/ccDWEfAB.s:2062   .text:0000000000000b8c .L0 
     /tmp/ccDWEfAB.s:2063   .text:0000000000000b8c .L0 
     /tmp/ccDWEfAB.s:2066   .text:0000000000000b90 .L0 
     /tmp/ccDWEfAB.s:2071   .text:0000000000000b94 .L0 
     /tmp/ccDWEfAB.s:2072   .text:0000000000000b94 .L0 
     /tmp/ccDWEfAB.s:2076   .text:0000000000000b98 .L0 
     /tmp/ccDWEfAB.s:2080   .text:0000000000000b9c .L0 
     /tmp/ccDWEfAB.s:2081   .text:0000000000000b9c .L0 
     /tmp/ccDWEfAB.s:2085   .text:0000000000000bb0 .L0 
     /tmp/ccDWEfAB.s:2091   .text:0000000000000bb0 _Z21memoryAllocationTestsv
     /tmp/ccDWEfAB.s:2094   .text:0000000000000bb0 .L0 
     /tmp/ccDWEfAB.s:2095   .text:0000000000000bb0 .L0 
     /tmp/ccDWEfAB.s:2096   .text:0000000000000bb4 .L0 
     /tmp/ccDWEfAB.s:2099   .text:0000000000000bbc .L0 
     /tmp/ccDWEfAB.s:2100   .text:0000000000000bbc .L0 
     /tmp/ccDWEfAB.s:2102   .text:0000000000000bc0 .L0 
     /tmp/ccDWEfAB.s:2104   .text:0000000000000bc0 .L0 
     /tmp/ccDWEfAB.s:2105   .text:0000000000000bc0 .L0 
     /tmp/ccDWEfAB.s:2108   .text:0000000000000bc8 .L0 
     /tmp/ccDWEfAB.s:2109   .text:0000000000000bcc .L0 
     /tmp/ccDWEfAB.s:2111   .text:0000000000000bd0 .L0 
     /tmp/ccDWEfAB.s:2112   .text:0000000000000bd0 .L0 
     /tmp/ccDWEfAB.s:2114   .text:0000000000000bd4 .L0 
     /tmp/ccDWEfAB.s:2116   .text:0000000000000bd8 .L0 
     /tmp/ccDWEfAB.s:2122   .text:0000000000000bd8 _Z8semTest1v
     /tmp/ccDWEfAB.s:2125   .text:0000000000000bd8 .L0 
     /tmp/ccDWEfAB.s:2128   .text:0000000000000bd8 .L0 
     /tmp/ccDWEfAB.s:2129   .text:0000000000000bdc .L0 
     /tmp/ccDWEfAB.s:2134   .text:0000000000000bec .L0 
     /tmp/ccDWEfAB.s:2135   .text:0000000000000bec .L0 
     /tmp/ccDWEfAB.s:2136   .text:0000000000000bec .L0 
     /tmp/ccDWEfAB.s:2137   .text:0000000000000bec .L0 
     /tmp/ccDWEfAB.s:2139   .text:0000000000000bf0 .L0 
     /tmp/ccDWEfAB.s:2141   .text:0000000000000bf0 .L0 
     /tmp/ccDWEfAB.s:2142   .text:0000000000000bf0 .L0 
     /tmp/ccDWEfAB.s:2154   .text:0000000000000c0c .L0 
     /tmp/ccDWEfAB.s:2156   .text:0000000000000c14 .L0 
     /tmp/ccDWEfAB.s:2157   .text:0000000000000c14 .L0 
     /tmp/ccDWEfAB.s:2170   .text:0000000000000c38 .L0 
     /tmp/ccDWEfAB.s:2171   .text:0000000000000c38 .L0 
     /tmp/ccDWEfAB.s:2184   .text:0000000000000c5c .L0 
     /tmp/ccDWEfAB.s:2185   .text:0000000000000c5c .L0 
     /tmp/ccDWEfAB.s:2190   .text:0000000000000c68 .L0 
     /tmp/ccDWEfAB.s:2191   .text:0000000000000c68 .L0 
     /tmp/ccDWEfAB.s:2195   .text:0000000000000c74 .L0 
     /tmp/ccDWEfAB.s:2196   .text:0000000000000c74 .L0 
     /tmp/ccDWEfAB.s:2200   .text:0000000000000c78 .L0 
     /tmp/ccDWEfAB.s:2201   .text:0000000000000c78 .L0 
     /tmp/ccDWEfAB.s:2202   .text:0000000000000c78 .L0 
     /tmp/ccDWEfAB.s:2205   .text:0000000000000c7c .L0 
     /tmp/ccDWEfAB.s:2206   .text:0000000000000c7c .L0 
GAS LISTING /tmp/ccDWEfAB.s 			page 87


     /tmp/ccDWEfAB.s:2210   .text:0000000000000c84 .L0 
     /tmp/ccDWEfAB.s:2214   .text:0000000000000c90 .L0 
     /tmp/ccDWEfAB.s:2215   .text:0000000000000c94 .L0 
     /tmp/ccDWEfAB.s:2216   .text:0000000000000c94 .L0 
     /tmp/ccDWEfAB.s:2218   .text:0000000000000c98 .L0 
     /tmp/ccDWEfAB.s:2219   .text:0000000000000c98 .L0 
     /tmp/ccDWEfAB.s:2221   .text:0000000000000c9c .L0 
     /tmp/ccDWEfAB.s:2223   .text:0000000000000ca0 .L0 
     /tmp/ccDWEfAB.s:2226   .text:0000000000000ca4 .L0 
     /tmp/ccDWEfAB.s:2229   .text:0000000000000ca8 .L0 
     /tmp/ccDWEfAB.s:2232   .text:0000000000000cac .L0 
     /tmp/ccDWEfAB.s:2243   .text:0000000000000cc8 .L0 
     /tmp/ccDWEfAB.s:2255   .text:0000000000000ce4 .L0 
     /tmp/ccDWEfAB.s:2263   .text:0000000000000cfc .L0 
     /tmp/ccDWEfAB.s:2316   .text:0000000000000cfc _Z8semTest2v
     /tmp/ccDWEfAB.s:2319   .text:0000000000000cfc .L0 
     /tmp/ccDWEfAB.s:2322   .text:0000000000000cfc .L0 
     /tmp/ccDWEfAB.s:2323   .text:0000000000000d00 .L0 
     /tmp/ccDWEfAB.s:2329   .text:0000000000000d14 .L0 
     /tmp/ccDWEfAB.s:2330   .text:0000000000000d14 .L0 
     /tmp/ccDWEfAB.s:2331   .text:0000000000000d14 .L0 
     /tmp/ccDWEfAB.s:2332   .text:0000000000000d14 .L0 
     /tmp/ccDWEfAB.s:2333   .text:0000000000000d14 .L0 
     /tmp/ccDWEfAB.s:2335   .text:0000000000000d18 .L0 
     /tmp/ccDWEfAB.s:2337   .text:0000000000000d18 .L0 
     /tmp/ccDWEfAB.s:2338   .text:0000000000000d18 .L0 
     /tmp/ccDWEfAB.s:2350   .text:0000000000000d34 .L0 
     /tmp/ccDWEfAB.s:2352   .text:0000000000000d3c .L0 
     /tmp/ccDWEfAB.s:2353   .text:0000000000000d3c .L0 
     /tmp/ccDWEfAB.s:2365   .text:0000000000000d58 .L0 
     /tmp/ccDWEfAB.s:2367   .text:0000000000000d60 .L0 
     /tmp/ccDWEfAB.s:2368   .text:0000000000000d60 .L0 
     /tmp/ccDWEfAB.s:2380   .text:0000000000000d7c .L0 
     /tmp/ccDWEfAB.s:2382   .text:0000000000000d84 .L0 
     /tmp/ccDWEfAB.s:2383   .text:0000000000000d84 .L0 
     /tmp/ccDWEfAB.s:2396   .text:0000000000000da8 .L0 
     /tmp/ccDWEfAB.s:2397   .text:0000000000000da8 .L0 
     /tmp/ccDWEfAB.s:2410   .text:0000000000000dcc .L0 
     /tmp/ccDWEfAB.s:2411   .text:0000000000000dcc .L0 
     /tmp/ccDWEfAB.s:2424   .text:0000000000000df0 .L0 
     /tmp/ccDWEfAB.s:2425   .text:0000000000000df0 .L0 
     /tmp/ccDWEfAB.s:2430   .text:0000000000000dfc .L0 
     /tmp/ccDWEfAB.s:2431   .text:0000000000000dfc .L0 
     /tmp/ccDWEfAB.s:2435   .text:0000000000000e08 .L0 
     /tmp/ccDWEfAB.s:2436   .text:0000000000000e08 .L0 
     /tmp/ccDWEfAB.s:2440   .text:0000000000000e14 .L0 
     /tmp/ccDWEfAB.s:2441   .text:0000000000000e14 .L0 
     /tmp/ccDWEfAB.s:2445   .text:0000000000000e18 .L0 
     /tmp/ccDWEfAB.s:2446   .text:0000000000000e18 .L0 
     /tmp/ccDWEfAB.s:2447   .text:0000000000000e18 .L0 
     /tmp/ccDWEfAB.s:2450   .text:0000000000000e1c .L0 
     /tmp/ccDWEfAB.s:2451   .text:0000000000000e1c .L0 
     /tmp/ccDWEfAB.s:2455   .text:0000000000000e24 .L0 
     /tmp/ccDWEfAB.s:2459   .text:0000000000000e30 .L0 
     /tmp/ccDWEfAB.s:2460   .text:0000000000000e34 .L0 
     /tmp/ccDWEfAB.s:2461   .text:0000000000000e34 .L0 
     /tmp/ccDWEfAB.s:2463   .text:0000000000000e38 .L0 
GAS LISTING /tmp/ccDWEfAB.s 			page 88


     /tmp/ccDWEfAB.s:2464   .text:0000000000000e38 .L0 
     /tmp/ccDWEfAB.s:2466   .text:0000000000000e3c .L0 
     /tmp/ccDWEfAB.s:2468   .text:0000000000000e40 .L0 
     /tmp/ccDWEfAB.s:2471   .text:0000000000000e44 .L0 
     /tmp/ccDWEfAB.s:2474   .text:0000000000000e48 .L0 
     /tmp/ccDWEfAB.s:2477   .text:0000000000000e4c .L0 
     /tmp/ccDWEfAB.s:2480   .text:0000000000000e50 .L0 
     /tmp/ccDWEfAB.s:2491   .text:0000000000000e6c .L0 
     /tmp/ccDWEfAB.s:2502   .text:0000000000000e88 .L0 
     /tmp/ccDWEfAB.s:2513   .text:0000000000000ea4 .L0 
     /tmp/ccDWEfAB.s:2524   .text:0000000000000ec0 .L0 
     /tmp/ccDWEfAB.s:2536   .text:0000000000000edc .L0 
     /tmp/ccDWEfAB.s:2544   .text:0000000000000ef4 .L0 
     /tmp/ccDWEfAB.s:2633   .text:0000000000000ef4 _Z14semaphoreTestsv
     /tmp/ccDWEfAB.s:2636   .text:0000000000000ef4 .L0 
     /tmp/ccDWEfAB.s:2637   .text:0000000000000ef4 .L0 
     /tmp/ccDWEfAB.s:2638   .text:0000000000000ef8 .L0 
     /tmp/ccDWEfAB.s:2641   .text:0000000000000f00 .L0 
     /tmp/ccDWEfAB.s:2642   .text:0000000000000f00 .L0 
     /tmp/ccDWEfAB.s:2644   .text:0000000000000f04 .L0 
     /tmp/ccDWEfAB.s:2646   .text:0000000000000f04 .L0 
     /tmp/ccDWEfAB.s:2647   .text:0000000000000f04 .L0 
     /tmp/ccDWEfAB.s:2650   .text:0000000000000f0c .L0 
     /tmp/ccDWEfAB.s:2651   .text:0000000000000f10 .L0 
     /tmp/ccDWEfAB.s:2653   .text:0000000000000f14 .L0 
     /tmp/ccDWEfAB.s:2654   .text:0000000000000f14 .L0 
     /tmp/ccDWEfAB.s:2656   .text:0000000000000f18 .L0 
     /tmp/ccDWEfAB.s:2658   .text:0000000000000f1c .L0 
     /tmp/ccDWEfAB.s:2664   .text:0000000000000f1c _Z7myTestsv
     /tmp/ccDWEfAB.s:2667   .text:0000000000000f1c .L0 
     /tmp/ccDWEfAB.s:2668   .text:0000000000000f1c .L0 
     /tmp/ccDWEfAB.s:2669   .text:0000000000000f20 .L0 
     /tmp/ccDWEfAB.s:2671   .text:0000000000000f24 .L0 
     /tmp/ccDWEfAB.s:2673   .text:0000000000000f28 .L0 
     /tmp/ccDWEfAB.s:2675   .text:0000000000000f28 .L0 
     /tmp/ccDWEfAB.s:2676   .text:0000000000000f28 .L0 
     /tmp/ccDWEfAB.s:2677   .text:0000000000000f2c .L0 
     /tmp/ccDWEfAB.s:2678   .text:0000000000000f2c .L0 
     /tmp/ccDWEfAB.s:2680   .text:0000000000000f30 .L0 
     /tmp/ccDWEfAB.s:2682   .text:0000000000000f34 .L0 
     /tmp/ccDWEfAB.s:2688   .text:0000000000000f34 _ZN12TestPeriodicC2Em
     /tmp/ccDWEfAB.s:2691   .text:0000000000000f34 .L0 
     /tmp/ccDWEfAB.s:2693   .text:0000000000000f34 .L0 
     /tmp/ccDWEfAB.s:2694   .text:0000000000000f38 .L0 
     /tmp/ccDWEfAB.s:2698   .text:0000000000000f44 .L0 
     /tmp/ccDWEfAB.s:2699   .text:0000000000000f44 .L0 
     /tmp/ccDWEfAB.s:2700   .text:0000000000000f44 .L0 
     /tmp/ccDWEfAB.s:2702   .text:0000000000000f48 .L0 
     /tmp/ccDWEfAB.s:2706   .text:0000000000000f4c .L0 
     /tmp/ccDWEfAB.s:2832   .data.rel.ro.local._ZTV12TestPeriodic:0000000000000000 _ZTV12TestPeriodic
     /tmp/ccDWEfAB.s:2712   .text:0000000000000f60 .L0 
     /tmp/ccDWEfAB.s:2713   .text:0000000000000f64 .L0 
     /tmp/ccDWEfAB.s:2715   .text:0000000000000f68 .L0 
     /tmp/ccDWEfAB.s:2716   .text:0000000000000f68 .L0 
     /tmp/ccDWEfAB.s:2718   .text:0000000000000f6c .L0 
     /tmp/ccDWEfAB.s:2721   .text:0000000000000f70 .L0 
     /tmp/ccDWEfAB.s:2723   .text:0000000000000f74 .L0 
GAS LISTING /tmp/ccDWEfAB.s 			page 89


     /tmp/ccDWEfAB.s:2688   .text:0000000000000f34 _ZN12TestPeriodicC1Em
     /tmp/ccDWEfAB.s:2731   .text:0000000000000f74 _Z11threadTest3v
     /tmp/ccDWEfAB.s:2734   .text:0000000000000f74 .L0 
     /tmp/ccDWEfAB.s:2737   .text:0000000000000f74 .L0 
     /tmp/ccDWEfAB.s:2738   .text:0000000000000f78 .L0 
     /tmp/ccDWEfAB.s:2743   .text:0000000000000f88 .L0 
     /tmp/ccDWEfAB.s:2744   .text:0000000000000f88 .L0 
     /tmp/ccDWEfAB.s:2745   .text:0000000000000f88 .L0 
     /tmp/ccDWEfAB.s:2746   .text:0000000000000f88 .L0 
     /tmp/ccDWEfAB.s:2748   .text:0000000000000f8c .L0 
     /tmp/ccDWEfAB.s:2750   .text:0000000000000f8c .L0 
     /tmp/ccDWEfAB.s:2751   .text:0000000000000f8c .L0 
     /tmp/ccDWEfAB.s:2763   .text:0000000000000fa8 .L0 
     /tmp/ccDWEfAB.s:2764   .text:0000000000000fa8 .L0 
     /tmp/ccDWEfAB.s:2770   .text:0000000000000fb4 .L0 
     /tmp/ccDWEfAB.s:2771   .text:0000000000000fb4 .L0 
     /tmp/ccDWEfAB.s:2772   .text:0000000000000fb4 .L0 
     /tmp/ccDWEfAB.s:2776   .text:0000000000000fbc .L0 
     /tmp/ccDWEfAB.s:2781   .text:0000000000000fc4 .L0 
     /tmp/ccDWEfAB.s:2789   .text:0000000000000fdc .L0 
     /tmp/ccDWEfAB.s:2841   .bss:0000000000000000 .LANCHOR0
     /tmp/ccDWEfAB.s:2844   .bss:0000000000000000 _ZL5mutex
     /tmp/ccDWEfAB.s:2848   .bss:0000000000000008 _ZL2s1
     /tmp/ccDWEfAB.s:2852   .bss:0000000000000010 _ZL2s2
     /tmp/ccDWEfAB.s:2856   .bss:0000000000000018 _ZL2s3
     /tmp/ccDWEfAB.s:32     .text._ZN6Thread3runEv:0000000000000018 .L0 
     /tmp/ccDWEfAB.s:57     .text._ZN14PeriodicThread18periodicActivationEv:0000000000000018 .L0 
     /tmp/ccDWEfAB.s:2864   .text:0000000000000fdc .L0 
     /tmp/ccDWEfAB.s:842    .text._ZN14PeriodicThreadD2Ev:0000000000000034 .L0 
     /tmp/ccDWEfAB.s:889    .text._ZN14PeriodicThreadD0Ev:000000000000004c .L0 
     /tmp/ccDWEfAB.s:931    .text._ZN12TestPeriodicD2Ev:0000000000000034 .L0 
     /tmp/ccDWEfAB.s:981    .text._ZN12TestPeriodicD0Ev:000000000000004c .L0 
     /tmp/ccDWEfAB.s:59     .rodata.str1.8:0000000000000000 .LC0
     /tmp/ccDWEfAB.s:84     .text:0000000000000010 .L0 
     /tmp/ccDWEfAB.s:98     .rodata.str1.8:0000000000000008 .LC1
     /tmp/ccDWEfAB.s:127    .text:0000000000000040 .L0 
     /tmp/ccDWEfAB.s:101    .rodata.str1.8:0000000000000020 .LC2
     /tmp/ccDWEfAB.s:146    .text:0000000000000060 .L0 
     /tmp/ccDWEfAB.s:104    .rodata.str1.8:0000000000000028 .LC3
     /tmp/ccDWEfAB.s:156    .text:000000000000007c .L0 
     /tmp/ccDWEfAB.s:195    .rodata.str1.8:0000000000000030 .LC4
     /tmp/ccDWEfAB.s:221    .text:00000000000000d8 .L0 
     /tmp/ccDWEfAB.s:198    .rodata.str1.8:0000000000000048 .LC5
     /tmp/ccDWEfAB.s:240    .text:00000000000000f8 .L0 
     /tmp/ccDWEfAB.s:250    .text:0000000000000114 .L0 
     /tmp/ccDWEfAB.s:317    .text:000000000000017c .L0 
     /tmp/ccDWEfAB.s:367    .text:00000000000001c8 .L0 
     /tmp/ccDWEfAB.s:392    .text:00000000000001f4 .L0 
     /tmp/ccDWEfAB.s:402    .text:0000000000000210 .L0 
     /tmp/ccDWEfAB.s:445    .rodata.str1.8:0000000000000050 .LC6
     /tmp/ccDWEfAB.s:470    .text:0000000000000278 .L0 
     /tmp/ccDWEfAB.s:492    .text:000000000000029c .L0 
     /tmp/ccDWEfAB.s:515    .rodata.str1.8:0000000000000060 .LC7
     /tmp/ccDWEfAB.s:538    .text:00000000000002e8 .L0 
     /tmp/ccDWEfAB.s:547    .text:00000000000002f8 .L0 
     /tmp/ccDWEfAB.s:567    .rodata.str1.8:0000000000000070 .LC8
     /tmp/ccDWEfAB.s:592    .text:000000000000033c .L0 
GAS LISTING /tmp/ccDWEfAB.s 			page 90


     /tmp/ccDWEfAB.s:614    .text:0000000000000360 .L0 
     /tmp/ccDWEfAB.s:647    .rodata.str1.8:0000000000000080 .LC9
     /tmp/ccDWEfAB.s:672    .text:00000000000003c8 .L0 
     /tmp/ccDWEfAB.s:694    .text:00000000000003ec .L0 
     /tmp/ccDWEfAB.s:727    .rodata.str1.8:0000000000000090 .LC10
     /tmp/ccDWEfAB.s:752    .text:0000000000000454 .L0 
     /tmp/ccDWEfAB.s:774    .text:0000000000000478 .L0 
     /tmp/ccDWEfAB.s:1019   .text:00000000000004f4 .L0 
     /tmp/ccDWEfAB.s:1038   .text:0000000000000524 .L0 
     /tmp/ccDWEfAB.s:983    .rodata.str1.8:00000000000000a0 .LC11
     /tmp/ccDWEfAB.s:1057   .text:000000000000054c .L0 
     /tmp/ccDWEfAB.s:986    .rodata.str1.8:00000000000000b0 .LC12
     /tmp/ccDWEfAB.s:1098   .text:0000000000000584 .L0 
     /tmp/ccDWEfAB.s:1215   .text:0000000000000618 .L0 
     /tmp/ccDWEfAB.s:1234   .text:0000000000000648 .L0 
     /tmp/ccDWEfAB.s:1254   .text:0000000000000678 .L0 
     /tmp/ccDWEfAB.s:1288   .text:00000000000006ac .L0 
     /tmp/ccDWEfAB.s:1423   .rodata.str1.8:00000000000000b8 .LC13
     /tmp/ccDWEfAB.s:1451   .text:000000000000075c .L0 
     /tmp/ccDWEfAB.s:1426   .rodata.str1.8:00000000000000c8 .LC14
     /tmp/ccDWEfAB.s:1481   .text:00000000000007a0 .L0 
     /tmp/ccDWEfAB.s:1533   .text:00000000000007f4 .L0 
     /tmp/ccDWEfAB.s:1571   .text:000000000000083c .L0 
     /tmp/ccDWEfAB.s:1607   .text:0000000000000880 .L0 
     /tmp/ccDWEfAB.s:1429   .rodata.str1.8:00000000000000d0 .LC15
     /tmp/ccDWEfAB.s:1618   .text:0000000000000894 .L0 
     /tmp/ccDWEfAB.s:1627   .rodata.str1.8:00000000000000d8 .LC16
     /tmp/ccDWEfAB.s:1647   .text:00000000000008b8 .L0 
     /tmp/ccDWEfAB.s:1652   .text:00000000000008c8 .L0 
     /tmp/ccDWEfAB.s:1654   .text:00000000000008d4 .L0 
     /tmp/ccDWEfAB.s:1668   .text:00000000000008f4 .L0 
     /tmp/ccDWEfAB.s:1688   .text:0000000000000914 .L0 
     /tmp/ccDWEfAB.s:1698   .rodata.str1.8:00000000000000e8 .LC17
     /tmp/ccDWEfAB.s:1724   .text:0000000000000944 .L0 
     /tmp/ccDWEfAB.s:1785   .text:00000000000009a0 .L0 
     /tmp/ccDWEfAB.s:1798   .text:00000000000009c0 .L0 
     /tmp/ccDWEfAB.s:1825   .text:00000000000009ec .L0 
     /tmp/ccDWEfAB.s:1834   .rodata.str1.8:0000000000000100 .LC18
     /tmp/ccDWEfAB.s:1854   .text:0000000000000a10 .L0 
     /tmp/ccDWEfAB.s:1872   .text:0000000000000a3c .L0 
     /tmp/ccDWEfAB.s:1892   .text:0000000000000a5c .L0 
     /tmp/ccDWEfAB.s:1903   .rodata.str1.8:0000000000000110 .LC19
     /tmp/ccDWEfAB.s:1927   .text:0000000000000a88 .L0 
     /tmp/ccDWEfAB.s:2081   .text:0000000000000b9c .L0 
     /tmp/ccDWEfAB.s:2154   .text:0000000000000c0c .L0 
     /tmp/ccDWEfAB.s:2164   .text:0000000000000c28 .L0 
     /tmp/ccDWEfAB.s:2178   .text:0000000000000c4c .L0 
     /tmp/ccDWEfAB.s:2350   .text:0000000000000d34 .L0 
     /tmp/ccDWEfAB.s:2365   .text:0000000000000d58 .L0 
     /tmp/ccDWEfAB.s:2380   .text:0000000000000d7c .L0 
     /tmp/ccDWEfAB.s:2390   .text:0000000000000d98 .L0 
     /tmp/ccDWEfAB.s:2404   .text:0000000000000dbc .L0 
     /tmp/ccDWEfAB.s:2418   .text:0000000000000de0 .L0 
     /tmp/ccDWEfAB.s:2708   .text:0000000000000f54 .L0 
     /tmp/ccDWEfAB.s:80     .text:0000000000000010 .L6
     /tmp/ccDWEfAB.s:162    .text:0000000000000090 .L11
     /tmp/ccDWEfAB.s:176    .text:00000000000000b0 .L8
GAS LISTING /tmp/ccDWEfAB.s 			page 91


     /tmp/ccDWEfAB.s:143    .text:0000000000000060 .L10
     /tmp/ccDWEfAB.s:138    .text:0000000000000058 .L13
     /tmp/ccDWEfAB.s:256    .text:0000000000000128 .L17
     /tmp/ccDWEfAB.s:270    .text:0000000000000148 .L14
     /tmp/ccDWEfAB.s:237    .text:00000000000000f8 .L16
     /tmp/ccDWEfAB.s:232    .text:00000000000000f0 .L19
     /tmp/ccDWEfAB.s:330    .text:00000000000001a0 .L20
     /tmp/ccDWEfAB.s:311    .text:0000000000000174 .L22
     /tmp/ccDWEfAB.s:408    .text:0000000000000224 .L28
     /tmp/ccDWEfAB.s:416    .text:0000000000000238 .L26
     /tmp/ccDWEfAB.s:426    .text:000000000000024c .L24
     /tmp/ccDWEfAB.s:378    .text:00000000000001e0 .L30
     /tmp/ccDWEfAB.s:389    .text:00000000000001f4 .L27
     /tmp/ccDWEfAB.s:384    .text:00000000000001ec .L31
     /tmp/ccDWEfAB.s:484    .text:0000000000000298 .L33
     /tmp/ccDWEfAB.s:479    .text:0000000000000290 .L34
     /tmp/ccDWEfAB.s:543    .text:00000000000002f8 .L38
     /tmp/ccDWEfAB.s:606    .text:000000000000035c .L41
     /tmp/ccDWEfAB.s:601    .text:0000000000000354 .L42
     /tmp/ccDWEfAB.s:686    .text:00000000000003e8 .L46
     /tmp/ccDWEfAB.s:681    .text:00000000000003e0 .L47
     /tmp/ccDWEfAB.s:766    .text:0000000000000474 .L51
     /tmp/ccDWEfAB.s:761    .text:000000000000046c .L52
     /tmp/ccDWEfAB.s:1064   .text:0000000000000564 .L66
     /tmp/ccDWEfAB.s:1054   .text:000000000000054c .L64
     /tmp/ccDWEfAB.s:1269   .text:000000000000069c .L74
     /tmp/ccDWEfAB.s:1463   .text:0000000000000778 .L89
     /tmp/ccDWEfAB.s:1500   .text:00000000000007c4 .L97
     /tmp/ccDWEfAB.s:1459   .text:0000000000000774 .L87
     /tmp/ccDWEfAB.s:1539   .text:0000000000000808 .L98
     /tmp/ccDWEfAB.s:1529   .text:00000000000007f4 .L101
     /tmp/ccDWEfAB.s:1506   .text:00000000000007c8 .L86
     /tmp/ccDWEfAB.s:1485   .text:00000000000007b0 .L85
     /tmp/ccDWEfAB.s:1553   .text:0000000000000814 .L90
     /tmp/ccDWEfAB.s:1576   .text:0000000000000850 .L99
     /tmp/ccDWEfAB.s:1548   .text:0000000000000810 .L93
     /tmp/ccDWEfAB.s:1613   .text:0000000000000894 .L94
     /tmp/ccDWEfAB.s:1603   .text:0000000000000880 .L102
     /tmp/ccDWEfAB.s:1582   .text:0000000000000854 .L92
     /tmp/ccDWEfAB.s:1684   .text:0000000000000914 .L107
     /tmp/ccDWEfAB.s:1672   .text:0000000000000904 .L103
     /tmp/ccDWEfAB.s:1761   .text:0000000000000978 .L110
     /tmp/ccDWEfAB.s:1775   .text:0000000000000994 .L109
     /tmp/ccDWEfAB.s:1742   .text:0000000000000964 .L114
     /tmp/ccDWEfAB.s:1821   .text:00000000000009ec .L115
     /tmp/ccDWEfAB.s:1801   .text:00000000000009d0 .L108
     /tmp/ccDWEfAB.s:1888   .text:0000000000000a5c .L117
     /tmp/ccDWEfAB.s:1876   .text:0000000000000a4c .L116
     /tmp/ccDWEfAB.s:1939   .text:0000000000000aa4 .L123
     /tmp/ccDWEfAB.s:1973   .text:0000000000000ae4 .L129
     /tmp/ccDWEfAB.s:1935   .text:0000000000000aa0 .L132
     /tmp/ccDWEfAB.s:2078   .text:0000000000000b9c .L124
     /tmp/ccDWEfAB.s:2026   .text:0000000000000b44 .L130
     /tmp/ccDWEfAB.s:1956   .text:0000000000000acc .L120
     /tmp/ccDWEfAB.s:1986   .text:0000000000000af0 .L126
     /tmp/ccDWEfAB.s:2068   .text:0000000000000b94 .L127
     /tmp/ccDWEfAB.s:2032   .text:0000000000000b48 .L125
GAS LISTING /tmp/ccDWEfAB.s 			page 92


     /tmp/ccDWEfAB.s:1978   .text:0000000000000ae8 .L121
     /tmp/ccDWEfAB.s:2198   .text:0000000000000c78 .L136
     /tmp/ccDWEfAB.s:2443   .text:0000000000000e18 .L146
     /tmp/ccDWEfAB.s:2768   .text:0000000000000fb4 .L168
     /tmp/ccDWEfAB.s:824    .text._ZN14PeriodicThreadD2Ev:0000000000000010 .L0 
     /tmp/ccDWEfAB.s:866    .text._ZN14PeriodicThreadD0Ev:0000000000000018 .L0 
     /tmp/ccDWEfAB.s:911    .text._ZN12TestPeriodicD2Ev:0000000000000010 .L0 
     /tmp/ccDWEfAB.s:956    .text._ZN12TestPeriodicD0Ev:0000000000000018 .L0 
     /tmp/ccDWEfAB.s:1013   .text:00000000000004e4 .LEHB0
     /tmp/ccDWEfAB.s:993    .text:00000000000004c8 .LFB27
     /tmp/ccDWEfAB.s:1016   .text:00000000000004ec .LEHE0
     /tmp/ccDWEfAB.s:1020   .text:00000000000004fc .LEHB1
     /tmp/ccDWEfAB.s:1023   .text:0000000000000504 .LEHE1
     /tmp/ccDWEfAB.s:1122   .text:00000000000005b4 .L69
     /tmp/ccDWEfAB.s:1027   .text:0000000000000508 .LEHB2
     /tmp/ccDWEfAB.s:1035   .text:000000000000051c .LEHE2
     /tmp/ccDWEfAB.s:1039   .text:000000000000052c .LEHB3
     /tmp/ccDWEfAB.s:1042   .text:0000000000000534 .LEHE3
     /tmp/ccDWEfAB.s:1134   .text:00000000000005d0 .L70
     /tmp/ccDWEfAB.s:1046   .text:0000000000000538 .LEHB4
     /tmp/ccDWEfAB.s:1105   .text:000000000000059c .LEHE4
     /tmp/ccDWEfAB.s:1130   .text:00000000000005c8 .LEHB5
     /tmp/ccDWEfAB.s:1133   .text:00000000000005d0 .LEHE5
     /tmp/ccDWEfAB.s:1142   .text:00000000000005e4 .LEHB6
     /tmp/ccDWEfAB.s:1145   .text:00000000000005ec .LEHE6
     /tmp/ccDWEfAB.s:1209   .text:0000000000000608 .LEHB7
     /tmp/ccDWEfAB.s:1189   .text:00000000000005ec .LFB28
     /tmp/ccDWEfAB.s:1212   .text:0000000000000610 .LEHE7
     /tmp/ccDWEfAB.s:1216   .text:0000000000000620 .LEHB8
     /tmp/ccDWEfAB.s:1219   .text:0000000000000628 .LEHE8
     /tmp/ccDWEfAB.s:1312   .text:00000000000006dc .L78
     /tmp/ccDWEfAB.s:1223   .text:000000000000062c .LEHB9
     /tmp/ccDWEfAB.s:1231   .text:0000000000000640 .LEHE9
     /tmp/ccDWEfAB.s:1235   .text:0000000000000650 .LEHB10
     /tmp/ccDWEfAB.s:1238   .text:0000000000000658 .LEHE10
     /tmp/ccDWEfAB.s:1324   .text:00000000000006f8 .L79
     /tmp/ccDWEfAB.s:1242   .text:000000000000065c .LEHB11
     /tmp/ccDWEfAB.s:1250   .text:0000000000000670 .LEHE11
     /tmp/ccDWEfAB.s:1255   .text:0000000000000680 .LEHB12
     /tmp/ccDWEfAB.s:1258   .text:0000000000000688 .LEHE12
     /tmp/ccDWEfAB.s:1336   .text:0000000000000714 .L80
     /tmp/ccDWEfAB.s:1262   .text:000000000000068c .LEHB13
     /tmp/ccDWEfAB.s:1295   .text:00000000000006c4 .LEHE13
     /tmp/ccDWEfAB.s:1320   .text:00000000000006f0 .LEHB14
     /tmp/ccDWEfAB.s:1323   .text:00000000000006f8 .LEHE14
     /tmp/ccDWEfAB.s:1332   .text:000000000000070c .LEHB15
     /tmp/ccDWEfAB.s:1335   .text:0000000000000714 .LEHE15
     /tmp/ccDWEfAB.s:1344   .text:0000000000000728 .LEHB16
     /tmp/ccDWEfAB.s:1347   .text:0000000000000730 .LEHE16
     /tmp/ccDWEfAB.s:2143   .text:0000000000000bf4 .LEHB17
     /tmp/ccDWEfAB.s:2123   .text:0000000000000bd8 .LFB39
     /tmp/ccDWEfAB.s:2146   .text:0000000000000bfc .LEHE17
     /tmp/ccDWEfAB.s:2149   .text:0000000000000c04 .LEHB18
     /tmp/ccDWEfAB.s:2152   .text:0000000000000c0c .LEHE18
     /tmp/ccDWEfAB.s:2228   .text:0000000000000ca8 .L140
     /tmp/ccDWEfAB.s:2158   .text:0000000000000c18 .LEHB19
     /tmp/ccDWEfAB.s:2161   .text:0000000000000c20 .LEHE19
GAS LISTING /tmp/ccDWEfAB.s 			page 93


     /tmp/ccDWEfAB.s:2165   .text:0000000000000c30 .LEHB20
     /tmp/ccDWEfAB.s:2168   .text:0000000000000c38 .LEHE20
     /tmp/ccDWEfAB.s:2240   .text:0000000000000cc4 .L141
     /tmp/ccDWEfAB.s:2172   .text:0000000000000c3c .LEHB21
     /tmp/ccDWEfAB.s:2175   .text:0000000000000c44 .LEHE21
     /tmp/ccDWEfAB.s:2179   .text:0000000000000c54 .LEHB22
     /tmp/ccDWEfAB.s:2182   .text:0000000000000c5c .LEHE22
     /tmp/ccDWEfAB.s:2251   .text:0000000000000ce0 .L142
     /tmp/ccDWEfAB.s:2186   .text:0000000000000c60 .LEHB23
     /tmp/ccDWEfAB.s:2208   .text:0000000000000c84 .LEHE23
     /tmp/ccDWEfAB.s:2236   .text:0000000000000cbc .LEHB24
     /tmp/ccDWEfAB.s:2239   .text:0000000000000cc4 .LEHE24
     /tmp/ccDWEfAB.s:2247   .text:0000000000000cd8 .LEHB25
     /tmp/ccDWEfAB.s:2250   .text:0000000000000ce0 .LEHE25
     /tmp/ccDWEfAB.s:2259   .text:0000000000000cf4 .LEHB26
     /tmp/ccDWEfAB.s:2262   .text:0000000000000cfc .LEHE26
     /tmp/ccDWEfAB.s:2339   .text:0000000000000d1c .LEHB27
     /tmp/ccDWEfAB.s:2317   .text:0000000000000cfc .LFB43
     /tmp/ccDWEfAB.s:2342   .text:0000000000000d24 .LEHE27
     /tmp/ccDWEfAB.s:2345   .text:0000000000000d2c .LEHB28
     /tmp/ccDWEfAB.s:2348   .text:0000000000000d34 .LEHE28
     /tmp/ccDWEfAB.s:2476   .text:0000000000000e4c .L153
     /tmp/ccDWEfAB.s:2354   .text:0000000000000d40 .LEHB29
     /tmp/ccDWEfAB.s:2357   .text:0000000000000d48 .LEHE29
     /tmp/ccDWEfAB.s:2360   .text:0000000000000d50 .LEHB30
     /tmp/ccDWEfAB.s:2363   .text:0000000000000d58 .LEHE30
     /tmp/ccDWEfAB.s:2488   .text:0000000000000e68 .L154
     /tmp/ccDWEfAB.s:2369   .text:0000000000000d64 .LEHB31
     /tmp/ccDWEfAB.s:2372   .text:0000000000000d6c .LEHE31
     /tmp/ccDWEfAB.s:2375   .text:0000000000000d74 .LEHB32
     /tmp/ccDWEfAB.s:2378   .text:0000000000000d7c .LEHE32
     /tmp/ccDWEfAB.s:2499   .text:0000000000000e84 .L155
     /tmp/ccDWEfAB.s:2384   .text:0000000000000d88 .LEHB33
     /tmp/ccDWEfAB.s:2387   .text:0000000000000d90 .LEHE33
     /tmp/ccDWEfAB.s:2391   .text:0000000000000da0 .LEHB34
     /tmp/ccDWEfAB.s:2394   .text:0000000000000da8 .LEHE34
     /tmp/ccDWEfAB.s:2510   .text:0000000000000ea0 .L156
     /tmp/ccDWEfAB.s:2398   .text:0000000000000dac .LEHB35
     /tmp/ccDWEfAB.s:2401   .text:0000000000000db4 .LEHE35
     /tmp/ccDWEfAB.s:2405   .text:0000000000000dc4 .LEHB36
     /tmp/ccDWEfAB.s:2408   .text:0000000000000dcc .LEHE36
     /tmp/ccDWEfAB.s:2521   .text:0000000000000ebc .L157
     /tmp/ccDWEfAB.s:2412   .text:0000000000000dd0 .LEHB37
     /tmp/ccDWEfAB.s:2415   .text:0000000000000dd8 .LEHE37
     /tmp/ccDWEfAB.s:2419   .text:0000000000000de8 .LEHB38
     /tmp/ccDWEfAB.s:2422   .text:0000000000000df0 .LEHE38
     /tmp/ccDWEfAB.s:2532   .text:0000000000000ed8 .L158
     /tmp/ccDWEfAB.s:2426   .text:0000000000000df4 .LEHB39
     /tmp/ccDWEfAB.s:2453   .text:0000000000000e24 .LEHE39
     /tmp/ccDWEfAB.s:2484   .text:0000000000000e60 .LEHB40
     /tmp/ccDWEfAB.s:2487   .text:0000000000000e68 .LEHE40
     /tmp/ccDWEfAB.s:2495   .text:0000000000000e7c .LEHB41
     /tmp/ccDWEfAB.s:2498   .text:0000000000000e84 .LEHE41
     /tmp/ccDWEfAB.s:2506   .text:0000000000000e98 .LEHB42
     /tmp/ccDWEfAB.s:2509   .text:0000000000000ea0 .LEHE42
     /tmp/ccDWEfAB.s:2517   .text:0000000000000eb4 .LEHB43
     /tmp/ccDWEfAB.s:2520   .text:0000000000000ebc .LEHE43
GAS LISTING /tmp/ccDWEfAB.s 			page 94


     /tmp/ccDWEfAB.s:2528   .text:0000000000000ed0 .LEHB44
     /tmp/ccDWEfAB.s:2531   .text:0000000000000ed8 .LEHE44
     /tmp/ccDWEfAB.s:2540   .text:0000000000000eec .LEHB45
     /tmp/ccDWEfAB.s:2543   .text:0000000000000ef4 .LEHE45
     /tmp/ccDWEfAB.s:2752   .text:0000000000000f90 .LEHB46
     /tmp/ccDWEfAB.s:2732   .text:0000000000000f74 .LFB29
     /tmp/ccDWEfAB.s:2755   .text:0000000000000f98 .LEHE46
     /tmp/ccDWEfAB.s:2758   .text:0000000000000fa0 .LEHB47
     /tmp/ccDWEfAB.s:2761   .text:0000000000000fa8 .LEHE47
     /tmp/ccDWEfAB.s:2778   .text:0000000000000fc0 .L170
     /tmp/ccDWEfAB.s:2765   .text:0000000000000fac .LEHB48
     /tmp/ccDWEfAB.s:2774   .text:0000000000000fbc .LEHE48
     /tmp/ccDWEfAB.s:2785   .text:0000000000000fd4 .LEHB49
     /tmp/ccDWEfAB.s:2788   .text:0000000000000fdc .LEHE49
     /tmp/ccDWEfAB.s:6837   .debug_abbrev:0000000000000000 .Ldebug_abbrev0
     /tmp/ccDWEfAB.s:9201   .debug_str:00000000000001b4 .LASF216
     /tmp/ccDWEfAB.s:9315   .debug_str:00000000000005c8 .LASF217
     /tmp/ccDWEfAB.s:9521   .debug_str:0000000000000bb4 .LASF218
     /tmp/ccDWEfAB.s:9105   .debug_ranges:0000000000000000 .Ldebug_ranges0
     /tmp/ccDWEfAB.s:9147   .debug_line:0000000000000000 .Ldebug_line0
     /tmp/ccDWEfAB.s:9297   .debug_str:0000000000000535 .LASF0
     /tmp/ccDWEfAB.s:9331   .debug_str:0000000000000658 .LASF1
     /tmp/ccDWEfAB.s:9447   .debug_str:00000000000009b3 .LASF2
     /tmp/ccDWEfAB.s:9455   .debug_str:00000000000009ea .LASF4
     /tmp/ccDWEfAB.s:9313   .debug_str:00000000000005b6 .LASF3
     /tmp/ccDWEfAB.s:9169   .debug_str:00000000000000b7 .LASF5
     /tmp/ccDWEfAB.s:9411   .debug_str:00000000000008b2 .LASF6
     /tmp/ccDWEfAB.s:9399   .debug_str:000000000000086b .LASF7
     /tmp/ccDWEfAB.s:9323   .debug_str:0000000000000624 .LASF8
     /tmp/ccDWEfAB.s:9273   .debug_str:0000000000000472 .LASF9
     /tmp/ccDWEfAB.s:9281   .debug_str:00000000000004c9 .LASF10
     /tmp/ccDWEfAB.s:9213   .debug_str:00000000000002c7 .LASF11
     /tmp/ccDWEfAB.s:9261   .debug_str:0000000000000422 .LASF12
     /tmp/ccDWEfAB.s:9221   .debug_str:00000000000002fc .LASF13
     /tmp/ccDWEfAB.s:9211   .debug_str:00000000000002b7 .LASF14
     /tmp/ccDWEfAB.s:9485   .debug_str:0000000000000aaf .LASF15
     /tmp/ccDWEfAB.s:9249   .debug_str:00000000000003b9 .LASF16
     /tmp/ccDWEfAB.s:9479   .debug_str:0000000000000a76 .LASF17
     /tmp/ccDWEfAB.s:9561   .debug_str:0000000000000ce3 .LASF82
     /tmp/ccDWEfAB.s:9365   .debug_str:0000000000000779 .LASF18
     /tmp/ccDWEfAB.s:9353   .debug_str:0000000000000716 .LASF20
     /tmp/ccDWEfAB.s:9247   .debug_str:00000000000003af .LASF19
     /tmp/ccDWEfAB.s:9159   .debug_str:000000000000006f .LASF21
     /tmp/ccDWEfAB.s:9547   .debug_str:0000000000000c75 .LASF22
     /tmp/ccDWEfAB.s:9341   .debug_str:00000000000006a1 .LASF23
     /tmp/ccDWEfAB.s:9307   .debug_str:0000000000000579 .LASF24
     /tmp/ccDWEfAB.s:9223   .debug_str:000000000000030c .LASF25
     /tmp/ccDWEfAB.s:9583   .debug_str:0000000000000d79 .LASF26
     /tmp/ccDWEfAB.s:9177   .debug_str:00000000000000e4 .LASF28
     /tmp/ccDWEfAB.s:9407   .debug_str:00000000000008a0 .LASF27
     /tmp/ccDWEfAB.s:9179   .debug_str:00000000000000ff .LASF29
     /tmp/ccDWEfAB.s:9463   .debug_str:0000000000000a13 .LASF30
     /tmp/ccDWEfAB.s:9255   .debug_str:00000000000003ec .LASF31
     /tmp/ccDWEfAB.s:9301   .debug_str:0000000000000552 .LASF32
     /tmp/ccDWEfAB.s:9573   .debug_str:0000000000000d2b .LASF33
     /tmp/ccDWEfAB.s:9541   .debug_str:0000000000000c5d .LASF36
     /tmp/ccDWEfAB.s:9529   .debug_str:0000000000000bf3 .LASF38
GAS LISTING /tmp/ccDWEfAB.s 			page 95


     /tmp/ccDWEfAB.s:9443   .debug_str:000000000000099f .LASF34
     /tmp/ccDWEfAB.s:9385   .debug_str:0000000000000803 .LASF35
     /tmp/ccDWEfAB.s:9419   .debug_str:00000000000008ea .LASF37
     /tmp/ccDWEfAB.s:9423   .debug_str:0000000000000900 .LASF39
     /tmp/ccDWEfAB.s:9377   .debug_str:00000000000007d2 .LASF40
     /tmp/ccDWEfAB.s:9325   .debug_str:0000000000000637 .LASF41
     /tmp/ccDWEfAB.s:9575   .debug_str:0000000000000d45 .LASF42
     /tmp/ccDWEfAB.s:9511   .debug_str:0000000000000b59 .LASF43
     /tmp/ccDWEfAB.s:9375   .debug_str:00000000000007ca .LASF44
     /tmp/ccDWEfAB.s:9383   .debug_str:00000000000007ef .LASF45
     /tmp/ccDWEfAB.s:9361   .debug_str:000000000000075f .LASF46
     /tmp/ccDWEfAB.s:9425   .debug_str:0000000000000913 .LASF47
     /tmp/ccDWEfAB.s:9607   .debug_str:0000000000000e2a .LASF48
     /tmp/ccDWEfAB.s:9305   .debug_str:0000000000000565 .LASF49
     /tmp/ccDWEfAB.s:9483   .debug_str:0000000000000aa8 .LASF50
     /tmp/ccDWEfAB.s:9457   .debug_str:00000000000009f1 .LASF51
     /tmp/ccDWEfAB.s:9459   .debug_str:0000000000000a04 .LASF52
     /tmp/ccDWEfAB.s:9217   .debug_str:00000000000002df .LASF53
     /tmp/ccDWEfAB.s:9245   .debug_str:00000000000003a9 .LASF54
     /tmp/ccDWEfAB.s:9291   .debug_str:0000000000000502 .LASF55
     /tmp/ccDWEfAB.s:9303   .debug_str:000000000000055f .LASF56
     /tmp/ccDWEfAB.s:9235   .debug_str:000000000000036d .LASF57
     /tmp/ccDWEfAB.s:9171   .debug_str:00000000000000be .LASF58
     /tmp/ccDWEfAB.s:9451   .debug_str:00000000000009c9 .LASF59
     /tmp/ccDWEfAB.s:9445   .debug_str:00000000000009a8 .LASF60
     /tmp/ccDWEfAB.s:9599   .debug_str:0000000000000de7 .LASF61
     /tmp/ccDWEfAB.s:9565   .debug_str:0000000000000cfa .LASF62
     /tmp/ccDWEfAB.s:9581   .debug_str:0000000000000d63 .LASF63
     /tmp/ccDWEfAB.s:9557   .debug_str:0000000000000cc3 .LASF64
     /tmp/ccDWEfAB.s:9355   .debug_str:000000000000072e .LASF65
     /tmp/ccDWEfAB.s:9287   .debug_str:00000000000004f1 .LASF66
     /tmp/ccDWEfAB.s:9295   .debug_str:000000000000051d .LASF67
     /tmp/ccDWEfAB.s:9537   .debug_str:0000000000000c33 .LASF68
     /tmp/ccDWEfAB.s:9279   .debug_str:00000000000004ad .LASF69
     /tmp/ccDWEfAB.s:9405   .debug_str:000000000000088b .LASF70
     /tmp/ccDWEfAB.s:9319   .debug_str:00000000000005ea .LASF71
     /tmp/ccDWEfAB.s:9231   .debug_str:0000000000000353 .LASF72
     /tmp/ccDWEfAB.s:9163   .debug_str:0000000000000096 .LASF73
     /tmp/ccDWEfAB.s:9193   .debug_str:000000000000017f .LASF74
     /tmp/ccDWEfAB.s:9533   .debug_str:0000000000000c0d .LASF75
     /tmp/ccDWEfAB.s:9195   .debug_str:000000000000018e .LASF76
     /tmp/ccDWEfAB.s:9363   .debug_str:0000000000000767 .LASF77
     /tmp/ccDWEfAB.s:9283   .debug_str:00000000000004d7 .LASF78
     /tmp/ccDWEfAB.s:9555   .debug_str:0000000000000cb0 .LASF79
     /tmp/ccDWEfAB.s:9209   .debug_str:00000000000002a3 .LASF80
     /tmp/ccDWEfAB.s:9501   .debug_str:0000000000000b23 .LASF81
     /tmp/ccDWEfAB.s:9505   .debug_str:0000000000000b3b .LASF219
     /tmp/ccDWEfAB.s:9207   .debug_str:000000000000029d .LASF83
     /tmp/ccDWEfAB.s:9471   .debug_str:0000000000000a46 .LASF84
     /tmp/ccDWEfAB.s:9219   .debug_str:00000000000002f2 .LASF85
     /tmp/ccDWEfAB.s:9197   .debug_str:00000000000001a1 .LASF86
     /tmp/ccDWEfAB.s:9401   .debug_str:000000000000087e .LASF87
     /tmp/ccDWEfAB.s:9327   .debug_str:000000000000064a .LASF88
     /tmp/ccDWEfAB.s:9495   .debug_str:0000000000000b03 .LASF129
     /tmp/ccDWEfAB.s:9289   .debug_str:00000000000004fc .LASF89
     /tmp/ccDWEfAB.s:9373   .debug_str:00000000000007b2 .LASF220
     /tmp/ccDWEfAB.s:9389   .debug_str:000000000000081f .LASF221
GAS LISTING /tmp/ccDWEfAB.s 			page 96


     /tmp/ccDWEfAB.s:9329   .debug_str:0000000000000653 .LASF90
     /tmp/ccDWEfAB.s:9595   .debug_str:0000000000000dc5 .LASF92
     /tmp/ccDWEfAB.s:9593   .debug_str:0000000000000dbf .LASF91
     /tmp/ccDWEfAB.s:9509   .debug_str:0000000000000b49 .LASF93
     /tmp/ccDWEfAB.s:9237   .debug_str:000000000000037f .LASF94
     /tmp/ccDWEfAB.s:9175   .debug_str:00000000000000d1 .LASF95
     /tmp/ccDWEfAB.s:9333   .debug_str:000000000000066b .LASF96
     /tmp/ccDWEfAB.s:9393   .debug_str:0000000000000835 .LASF97
     /tmp/ccDWEfAB.s:9507   .debug_str:0000000000000b41 .LASF98
     /tmp/ccDWEfAB.s:9571   .debug_str:0000000000000d20 .LASF99
     /tmp/ccDWEfAB.s:9465   .debug_str:0000000000000a21 .LASF100
     /tmp/ccDWEfAB.s:9337   .debug_str:0000000000000684 .LASF105
     /tmp/ccDWEfAB.s:9343   .debug_str:00000000000006bf .LASF107
     /tmp/ccDWEfAB.s:9601   .debug_str:0000000000000dff .LASF101
     /tmp/ccDWEfAB.s:9267   .debug_str:0000000000000442 .LASF102
     /tmp/ccDWEfAB.s:9299   .debug_str:0000000000000542 .LASF103
     /tmp/ccDWEfAB.s:9309   .debug_str:000000000000058b .LASF104
     /tmp/ccDWEfAB.s:9467   .debug_str:0000000000000a32 .LASF106
     /tmp/ccDWEfAB.s:9233   .debug_str:000000000000035a .LASF108
     /tmp/ccDWEfAB.s:9453   .debug_str:00000000000009e1 .LASF109
     /tmp/ccDWEfAB.s:9481   .debug_str:0000000000000a8c .LASF110
     /tmp/ccDWEfAB.s:9371   .debug_str:00000000000007a3 .LASF111
     /tmp/ccDWEfAB.s:9155   .debug_str:0000000000000050 .LASF112
     /tmp/ccDWEfAB.s:9579   .debug_str:0000000000000d54 .LASF113
     /tmp/ccDWEfAB.s:9397   .debug_str:0000000000000851 .LASF114
     /tmp/ccDWEfAB.s:9477   .debug_str:0000000000000a68 .LASF115
     /tmp/ccDWEfAB.s:9417   .debug_str:00000000000008de .LASF116
     /tmp/ccDWEfAB.s:9151   .debug_str:000000000000002a .LASF117
     /tmp/ccDWEfAB.s:9585   .debug_str:0000000000000d85 .LASF118
     /tmp/ccDWEfAB.s:9461   .debug_str:0000000000000a0b .LASF133
     /tmp/ccDWEfAB.s:9515   .debug_str:0000000000000b7d .LASF119
     /tmp/ccDWEfAB.s:9395   .debug_str:0000000000000845 .LASF120
     /tmp/ccDWEfAB.s:9225   .debug_str:000000000000032b .LASF121
     /tmp/ccDWEfAB.s:9183   .debug_str:0000000000000131 .LASF123
     /tmp/ccDWEfAB.s:9257   .debug_str:0000000000000407 .LASF122
     /tmp/ccDWEfAB.s:9205   .debug_str:0000000000000271 .LASF124
     /tmp/ccDWEfAB.s:9577   .debug_str:0000000000000d4d .LASF148
     /tmp/ccDWEfAB.s:9203   .debug_str:0000000000000260 .LASF222
     /tmp/ccDWEfAB.s:9157   .debug_str:000000000000006a .LASF125
     /tmp/ccDWEfAB.s:9543   .debug_str:0000000000000c66 .LASF126
     /tmp/ccDWEfAB.s:9345   .debug_str:00000000000006d7 .LASF127
     /tmp/ccDWEfAB.s:9243   .debug_str:00000000000003a3 .LASF128
     /tmp/ccDWEfAB.s:9527   .debug_str:0000000000000beb .LASF130
     /tmp/ccDWEfAB.s:9189   .debug_str:000000000000016b .LASF131
     /tmp/ccDWEfAB.s:9531   .debug_str:0000000000000c08 .LASF132
     /tmp/ccDWEfAB.s:9545   .debug_str:0000000000000c6b .LASF154
     /tmp/ccDWEfAB.s:9519   .debug_str:0000000000000b9f .LASF134
     /tmp/ccDWEfAB.s:9239   .debug_str:0000000000000388 .LASF136
     /tmp/ccDWEfAB.s:9413   .debug_str:00000000000008b9 .LASF135
     /tmp/ccDWEfAB.s:9493   .debug_str:0000000000000afc .LASF137
     /tmp/ccDWEfAB.s:9439   .debug_str:0000000000000981 .LASF138
     /tmp/ccDWEfAB.s:9435   .debug_str:000000000000096a .LASF139
     /tmp/ccDWEfAB.s:9517   .debug_str:0000000000000b87 .LASF140
     /tmp/ccDWEfAB.s:9349   .debug_str:00000000000006e6 .LASF141
     /tmp/ccDWEfAB.s:9603   .debug_str:0000000000000e0c .LASF223
     /tmp/ccDWEfAB.s:9277   .debug_str:000000000000049a .LASF147
     /tmp/ccDWEfAB.s:9489   .debug_str:0000000000000ac4 .LASF224
GAS LISTING /tmp/ccDWEfAB.s 			page 97


     /tmp/ccDWEfAB.s:9473   .debug_str:0000000000000a4e .LASF142
     /tmp/ccDWEfAB.s:9559   .debug_str:0000000000000ccd .LASF152
     /tmp/ccDWEfAB.s:9165   .debug_str:000000000000009e .LASF143
     /tmp/ccDWEfAB.s:9535   .debug_str:0000000000000c19 .LASF144
     /tmp/ccDWEfAB.s:9539   .debug_str:0000000000000c42 .LASF145
     /tmp/ccDWEfAB.s:9321   .debug_str:000000000000060c .LASF146
     /tmp/ccDWEfAB.s:9149   .debug_str:0000000000000000 .LASF225
     /tmp/ccDWEfAB.s:9311   .debug_str:0000000000000598 .LASF149
     /tmp/ccDWEfAB.s:9403   .debug_str:0000000000000886 .LASF150
     /tmp/ccDWEfAB.s:9381   .debug_str:00000000000007df .LASF151
     /tmp/ccDWEfAB.s:9275   .debug_str:0000000000000482 .LASF153
     /tmp/ccDWEfAB.s:9285   .debug_str:00000000000004ea .LASF155
     /tmp/ccDWEfAB.s:9391   .debug_str:0000000000000824 .LASF226
     /tmp/ccDWEfAB.s:9335   .debug_str:0000000000000671 .LASF156
     /tmp/ccDWEfAB.s:9229   .debug_str:000000000000034e .LASF157
     /tmp/ccDWEfAB.s:9167   .debug_str:00000000000000ad .LASF158
     /tmp/ccDWEfAB.s:9427   .debug_str:0000000000000927 .LASF159
     /tmp/ccDWEfAB.s:936    .text._ZN12TestPeriodicD0Ev:0000000000000000 .LFB57
     /tmp/ccDWEfAB.s:979    .text._ZN12TestPeriodicD0Ev:000000000000004c .LFE57
     /tmp/ccDWEfAB.s:8331   .debug_loc:0000000000000000 .LLST23
     /tmp/ccDWEfAB.s:952    .text._ZN12TestPeriodicD0Ev:0000000000000018 .LBB29
     /tmp/ccDWEfAB.s:962    .text._ZN12TestPeriodicD0Ev:000000000000002c .LBE29
     /tmp/ccDWEfAB.s:8349   .debug_loc:000000000000004c .LLST24
     /tmp/ccDWEfAB.s:953    .text._ZN12TestPeriodicD0Ev:0000000000000018 .LBB30
     /tmp/ccDWEfAB.s:961    .text._ZN12TestPeriodicD0Ev:000000000000002c .LBE30
     /tmp/ccDWEfAB.s:959    .text._ZN12TestPeriodicD0Ev:000000000000002c .LVL105
     /tmp/ccDWEfAB.s:966    .text._ZN12TestPeriodicD0Ev:0000000000000038 .LVL106
     /tmp/ccDWEfAB.s:9269   .debug_str:000000000000044e .LASF160
     /tmp/ccDWEfAB.s:894    .text._ZN12TestPeriodicD2Ev:0000000000000000 .LFB55
     /tmp/ccDWEfAB.s:927    .text._ZN12TestPeriodicD2Ev:0000000000000034 .LFE55
     /tmp/ccDWEfAB.s:8360   .debug_loc:0000000000000082 .LLST21
     /tmp/ccDWEfAB.s:908    .text._ZN12TestPeriodicD2Ev:0000000000000010 .LBB27
     /tmp/ccDWEfAB.s:916    .text._ZN12TestPeriodicD2Ev:0000000000000024 .LBE27
     /tmp/ccDWEfAB.s:8374   .debug_loc:00000000000000bb .LLST22
     /tmp/ccDWEfAB.s:914    .text._ZN12TestPeriodicD2Ev:0000000000000024 .LVL102
     /tmp/ccDWEfAB.s:291    .text:000000000000015c .LFB53
     /tmp/ccDWEfAB.s:345    .text:00000000000001b4 .LFE53
     /tmp/ccDWEfAB.s:8388   .debug_loc:00000000000000f4 .LLST5
     /tmp/ccDWEfAB.s:307    .text:0000000000000170 .LBB22
     /tmp/ccDWEfAB.s:331    .text:00000000000001a0 .LBE22
     /tmp/ccDWEfAB.s:8402   .debug_loc:000000000000012d .LLST6
     /tmp/ccDWEfAB.s:319    .text:000000000000018c .LVL29
     /tmp/ccDWEfAB.s:324    .text:0000000000000198 .LVL30
     /tmp/ccDWEfAB.s:9153   .debug_str:000000000000003a .LASF161
     /tmp/ccDWEfAB.s:2689   .text:0000000000000f34 .LFB51
     /tmp/ccDWEfAB.s:2724   .text:0000000000000f74 .LFE51
     /tmp/ccDWEfAB.s:8418   .debug_loc:0000000000000177 .LLST61
     /tmp/ccDWEfAB.s:8436   .debug_loc:00000000000001c3 .LLST62
     /tmp/ccDWEfAB.s:2707   .text:0000000000000f54 .LVL289
     /tmp/ccDWEfAB.s:9609   .debug_str:0000000000000e32 .LASF162
     /tmp/ccDWEfAB.s:847    .text._ZN14PeriodicThreadD0Ev:0000000000000000 .LFB50
     /tmp/ccDWEfAB.s:887    .text._ZN14PeriodicThreadD0Ev:000000000000004c .LFE50
     /tmp/ccDWEfAB.s:8450   .debug_loc:00000000000001fc .LLST19
     /tmp/ccDWEfAB.s:863    .text._ZN14PeriodicThreadD0Ev:0000000000000018 .LBB25
     /tmp/ccDWEfAB.s:871    .text._ZN14PeriodicThreadD0Ev:000000000000002c .LBE25
     /tmp/ccDWEfAB.s:8468   .debug_loc:0000000000000248 .LLST20
     /tmp/ccDWEfAB.s:869    .text._ZN14PeriodicThreadD0Ev:000000000000002c .LVL97
GAS LISTING /tmp/ccDWEfAB.s 			page 98


     /tmp/ccDWEfAB.s:874    .text._ZN14PeriodicThreadD0Ev:0000000000000038 .LVL98
     /tmp/ccDWEfAB.s:9441   .debug_str:0000000000000987 .LASF163
     /tmp/ccDWEfAB.s:810    .text._ZN14PeriodicThreadD2Ev:0000000000000000 .LFB48
     /tmp/ccDWEfAB.s:838    .text._ZN14PeriodicThreadD2Ev:0000000000000034 .LFE48
     /tmp/ccDWEfAB.s:8479   .debug_loc:000000000000027e .LLST18
     /tmp/ccDWEfAB.s:827    .text._ZN14PeriodicThreadD2Ev:0000000000000024 .LVL94
     /tmp/ccDWEfAB.s:9449   .debug_str:00000000000009c1 .LASF192
     /tmp/ccDWEfAB.s:9253   .debug_str:00000000000003e0 .LASF227
     /tmp/ccDWEfAB.s:2665   .text:0000000000000f1c .LFB45
     /tmp/ccDWEfAB.s:2683   .text:0000000000000f34 .LFE45
     /tmp/ccDWEfAB.s:9421   .debug_str:00000000000008f1 .LASF164
     /tmp/ccDWEfAB.s:9317   .debug_str:00000000000005d6 .LASF166
     /tmp/ccDWEfAB.s:2634   .text:0000000000000ef4 .LFB44
     /tmp/ccDWEfAB.s:2659   .text:0000000000000f1c .LFE44
     /tmp/ccDWEfAB.s:2648   .text:0000000000000f0c .LVL287
     /tmp/ccDWEfAB.s:9215   .debug_str:00000000000002d6 .LASF165
     /tmp/ccDWEfAB.s:9431   .debug_str:0000000000000958 .LASF167
     /tmp/ccDWEfAB.s:2545   .text:0000000000000ef4 .LFE43
     /tmp/ccDWEfAB.s:8493   .debug_loc:00000000000002b7 .LLST57
     /tmp/ccDWEfAB.s:8504   .debug_loc:00000000000002ed .LLST58
     /tmp/ccDWEfAB.s:8515   .debug_loc:0000000000000323 .LLST59
     /tmp/ccDWEfAB.s:8522   .debug_loc:0000000000000346 .LLST60
     /tmp/ccDWEfAB.s:2341   .text:0000000000000d24 .LVL254
     /tmp/ccDWEfAB.s:2347   .text:0000000000000d34 .LVL255
     /tmp/ccDWEfAB.s:2356   .text:0000000000000d48 .LVL256
     /tmp/ccDWEfAB.s:2362   .text:0000000000000d58 .LVL257
     /tmp/ccDWEfAB.s:2371   .text:0000000000000d6c .LVL258
     /tmp/ccDWEfAB.s:2377   .text:0000000000000d7c .LVL259
     /tmp/ccDWEfAB.s:2386   .text:0000000000000d90 .LVL260
     /tmp/ccDWEfAB.s:2393   .text:0000000000000da8 .LVL261
     /tmp/ccDWEfAB.s:2400   .text:0000000000000db4 .LVL262
     /tmp/ccDWEfAB.s:2407   .text:0000000000000dcc .LVL263
     /tmp/ccDWEfAB.s:2414   .text:0000000000000dd8 .LVL264
     /tmp/ccDWEfAB.s:2421   .text:0000000000000df0 .LVL265
     /tmp/ccDWEfAB.s:2428   .text:0000000000000dfc .LVL266
     /tmp/ccDWEfAB.s:2433   .text:0000000000000e08 .LVL267
     /tmp/ccDWEfAB.s:2438   .text:0000000000000e14 .LVL268
     /tmp/ccDWEfAB.s:2452   .text:0000000000000e24 .LVL271
     /tmp/ccDWEfAB.s:2482   .text:0000000000000e5c .LVL274
     /tmp/ccDWEfAB.s:2486   .text:0000000000000e68 .LVL275
     /tmp/ccDWEfAB.s:2493   .text:0000000000000e78 .LVL276
     /tmp/ccDWEfAB.s:2497   .text:0000000000000e84 .LVL277
     /tmp/ccDWEfAB.s:2504   .text:0000000000000e94 .LVL278
     /tmp/ccDWEfAB.s:2508   .text:0000000000000ea0 .LVL279
     /tmp/ccDWEfAB.s:2515   .text:0000000000000eb0 .LVL280
     /tmp/ccDWEfAB.s:2519   .text:0000000000000ebc .LVL281
     /tmp/ccDWEfAB.s:2526   .text:0000000000000ecc .LVL282
     /tmp/ccDWEfAB.s:2530   .text:0000000000000ed8 .LVL283
     /tmp/ccDWEfAB.s:2538   .text:0000000000000ee8 .LVL285
     /tmp/ccDWEfAB.s:2542   .text:0000000000000ef4 .LVL286
     /tmp/ccDWEfAB.s:9433   .debug_str:0000000000000965 .LASF168
     /tmp/ccDWEfAB.s:9199   .debug_str:00000000000001aa .LASF169
     /tmp/ccDWEfAB.s:734    .text:000000000000043c .LFB42
     /tmp/ccDWEfAB.s:803    .text:00000000000004c8 .LFE42
     /tmp/ccDWEfAB.s:8534   .debug_loc:000000000000037d .LLST16
     /tmp/ccDWEfAB.s:8548   .debug_loc:00000000000003b6 .LLST17
     /tmp/ccDWEfAB.s:755    .text:0000000000000464 .LVL84
GAS LISTING /tmp/ccDWEfAB.s 			page 99


     /tmp/ccDWEfAB.s:765    .text:0000000000000474 .LVL86
     /tmp/ccDWEfAB.s:777    .text:000000000000048c .LVL88
     /tmp/ccDWEfAB.s:782    .text:0000000000000498 .LVL89
     /tmp/ccDWEfAB.s:787    .text:00000000000004a4 .LVL90
     /tmp/ccDWEfAB.s:792    .text:00000000000004b0 .LVL91
     /tmp/ccDWEfAB.s:800    .text:00000000000004c4 .LVL92
     /tmp/ccDWEfAB.s:9591   .debug_str:0000000000000dba .LASF170
     /tmp/ccDWEfAB.s:9437   .debug_str:0000000000000977 .LASF171
     /tmp/ccDWEfAB.s:654    .text:00000000000003b0 .LFB41
     /tmp/ccDWEfAB.s:723    .text:000000000000043c .LFE41
     /tmp/ccDWEfAB.s:8560   .debug_loc:00000000000003ed .LLST14
     /tmp/ccDWEfAB.s:8574   .debug_loc:0000000000000426 .LLST15
     /tmp/ccDWEfAB.s:675    .text:00000000000003d8 .LVL73
     /tmp/ccDWEfAB.s:685    .text:00000000000003e8 .LVL75
     /tmp/ccDWEfAB.s:697    .text:0000000000000400 .LVL77
     /tmp/ccDWEfAB.s:702    .text:000000000000040c .LVL78
     /tmp/ccDWEfAB.s:707    .text:0000000000000418 .LVL79
     /tmp/ccDWEfAB.s:712    .text:0000000000000424 .LVL80
     /tmp/ccDWEfAB.s:720    .text:0000000000000438 .LVL81
     /tmp/ccDWEfAB.s:9409   .debug_str:00000000000008ad .LASF172
     /tmp/ccDWEfAB.s:9523   .debug_str:0000000000000bd7 .LASF173
     /tmp/ccDWEfAB.s:574    .text:0000000000000324 .LFB40
     /tmp/ccDWEfAB.s:643    .text:00000000000003b0 .LFE40
     /tmp/ccDWEfAB.s:8586   .debug_loc:000000000000045d .LLST12
     /tmp/ccDWEfAB.s:8600   .debug_loc:0000000000000496 .LLST13
     /tmp/ccDWEfAB.s:595    .text:000000000000034c .LVL62
     /tmp/ccDWEfAB.s:605    .text:000000000000035c .LVL64
     /tmp/ccDWEfAB.s:617    .text:0000000000000374 .LVL66
     /tmp/ccDWEfAB.s:622    .text:0000000000000380 .LVL67
     /tmp/ccDWEfAB.s:627    .text:000000000000038c .LVL68
     /tmp/ccDWEfAB.s:632    .text:0000000000000398 .LVL69
     /tmp/ccDWEfAB.s:640    .text:00000000000003ac .LVL70
     /tmp/ccDWEfAB.s:9487   .debug_str:0000000000000abb .LASF174
     /tmp/ccDWEfAB.s:9367   .debug_str:0000000000000784 .LASF175
     /tmp/ccDWEfAB.s:2264   .text:0000000000000cfc .LFE39
     /tmp/ccDWEfAB.s:8612   .debug_loc:00000000000004cd .LLST54
     /tmp/ccDWEfAB.s:8623   .debug_loc:0000000000000503 .LLST55
     /tmp/ccDWEfAB.s:8630   .debug_loc:0000000000000526 .LLST56
     /tmp/ccDWEfAB.s:2145   .text:0000000000000bfc .LVL235
     /tmp/ccDWEfAB.s:2151   .text:0000000000000c0c .LVL236
     /tmp/ccDWEfAB.s:2160   .text:0000000000000c20 .LVL237
     /tmp/ccDWEfAB.s:2167   .text:0000000000000c38 .LVL238
     /tmp/ccDWEfAB.s:2174   .text:0000000000000c44 .LVL239
     /tmp/ccDWEfAB.s:2181   .text:0000000000000c5c .LVL240
     /tmp/ccDWEfAB.s:2188   .text:0000000000000c68 .LVL241
     /tmp/ccDWEfAB.s:2193   .text:0000000000000c74 .LVL242
     /tmp/ccDWEfAB.s:2207   .text:0000000000000c84 .LVL245
     /tmp/ccDWEfAB.s:2234   .text:0000000000000cb8 .LVL247
     /tmp/ccDWEfAB.s:2238   .text:0000000000000cc4 .LVL248
     /tmp/ccDWEfAB.s:2245   .text:0000000000000cd4 .LVL249
     /tmp/ccDWEfAB.s:2249   .text:0000000000000ce0 .LVL250
     /tmp/ccDWEfAB.s:2257   .text:0000000000000cf0 .LVL252
     /tmp/ccDWEfAB.s:2261   .text:0000000000000cfc .LVL253
     /tmp/ccDWEfAB.s:9549   .debug_str:0000000000000c86 .LASF176
     /tmp/ccDWEfAB.s:522    .text:00000000000002d4 .LFB38
     /tmp/ccDWEfAB.s:563    .text:0000000000000324 .LFE38
     /tmp/ccDWEfAB.s:8642   .debug_loc:000000000000055d .LLST11
GAS LISTING /tmp/ccDWEfAB.s 			page 100


     /tmp/ccDWEfAB.s:541    .text:00000000000002f8 .LVL56
     /tmp/ccDWEfAB.s:550    .text:000000000000030c .LVL57
     /tmp/ccDWEfAB.s:555    .text:0000000000000318 .LVL58
     /tmp/ccDWEfAB.s:560    .text:0000000000000320 .LVL59
     /tmp/ccDWEfAB.s:9173   .debug_str:00000000000000c9 .LASF177
     /tmp/ccDWEfAB.s:452    .text:0000000000000260 .LFB37
     /tmp/ccDWEfAB.s:511    .text:00000000000002d4 .LFE37
     /tmp/ccDWEfAB.s:8656   .debug_loc:0000000000000596 .LLST9
     /tmp/ccDWEfAB.s:8670   .debug_loc:00000000000005cf .LLST10
     /tmp/ccDWEfAB.s:473    .text:0000000000000288 .LVL47
     /tmp/ccDWEfAB.s:483    .text:0000000000000298 .LVL49
     /tmp/ccDWEfAB.s:495    .text:00000000000002b0 .LVL51
     /tmp/ccDWEfAB.s:500    .text:00000000000002bc .LVL52
     /tmp/ccDWEfAB.s:508    .text:00000000000002d0 .LVL53
     /tmp/ccDWEfAB.s:9597   .debug_str:0000000000000dd1 .LASF178
     /tmp/ccDWEfAB.s:9429   .debug_str:000000000000093d .LASF179
     /tmp/ccDWEfAB.s:2092   .text:0000000000000bb0 .LFB36
     /tmp/ccDWEfAB.s:2117   .text:0000000000000bd8 .LFE36
     /tmp/ccDWEfAB.s:2106   .text:0000000000000bc8 .LVL234
     /tmp/ccDWEfAB.s:9271   .debug_str:0000000000000464 .LASF180
     /tmp/ccDWEfAB.s:9503   .debug_str:0000000000000b28 .LASF181
     /tmp/ccDWEfAB.s:1910   .text:0000000000000a70 .LFB35
     /tmp/ccDWEfAB.s:2086   .text:0000000000000bb0 .LFE35
     /tmp/ccDWEfAB.s:9379   .debug_str:00000000000007d9 .LASF182
     /tmp/ccDWEfAB.s:8682   .debug_loc:0000000000000606 .LLST48
     /tmp/ccDWEfAB.s:1930   .text:0000000000000a98 .LBB50
     /tmp/ccDWEfAB.s:1957   .text:0000000000000acc .LBE50
     /tmp/ccDWEfAB.s:8693   .debug_loc:000000000000063c .LLST49
     /tmp/ccDWEfAB.s:1947   .text:0000000000000ab8 .LVL215
     /tmp/ccDWEfAB.s:1983   .text:0000000000000aec .LBB52
     /tmp/ccDWEfAB.s:2027   .text:0000000000000b44 .LBE52
     /tmp/ccDWEfAB.s:8704   .debug_loc:0000000000000672 .LLST50
     /tmp/ccDWEfAB.s:1991   .text:0000000000000af8 .LBB53
     /tmp/ccDWEfAB.s:2018   .text:0000000000000b3c .LBE53
     /tmp/ccDWEfAB.s:9187   .debug_str:0000000000000164 .LASF183
     /tmp/ccDWEfAB.s:8715   .debug_loc:00000000000006a8 .LLST51
     /tmp/ccDWEfAB.s:1999   .text:0000000000000b10 .LVL220
     /tmp/ccDWEfAB.s:2010   .text:0000000000000b28 .LVL222
     /tmp/ccDWEfAB.s:2028   .text:0000000000000b44 .LBB54
     /tmp/ccDWEfAB.s:2069   .text:0000000000000b94 .LBE54
     /tmp/ccDWEfAB.s:8722   .debug_loc:00000000000006cb .LLST52
     /tmp/ccDWEfAB.s:2036   .text:0000000000000b50 .LBB55
     /tmp/ccDWEfAB.s:2060   .text:0000000000000b8c .LBE55
     /tmp/ccDWEfAB.s:8733   .debug_loc:0000000000000701 .LLST53
     /tmp/ccDWEfAB.s:2044   .text:0000000000000b68 .LVL226
     /tmp/ccDWEfAB.s:2052   .text:0000000000000b78 .LVL228
     /tmp/ccDWEfAB.s:1929   .text:0000000000000a98 .LVL212
     /tmp/ccDWEfAB.s:2083   .text:0000000000000bac .LVL233
     /tmp/ccDWEfAB.s:9605   .debug_str:0000000000000e22 .LASF184
     /tmp/ccDWEfAB.s:9475   .debug_str:0000000000000a5c .LASF185
     /tmp/ccDWEfAB.s:1841   .text:0000000000000a00 .LFB34
     /tmp/ccDWEfAB.s:1899   .text:0000000000000a70 .LFE34
     /tmp/ccDWEfAB.s:8740   .debug_loc:0000000000000724 .LLST46
     /tmp/ccDWEfAB.s:8753   .debug_loc:000000000000075c .LLST47
     /tmp/ccDWEfAB.s:1856   .text:0000000000000a20 .LVL203
     /tmp/ccDWEfAB.s:1861   .text:0000000000000a2c .LVL204
     /tmp/ccDWEfAB.s:1867   .text:0000000000000a38 .LVL206
GAS LISTING /tmp/ccDWEfAB.s 			page 101


     /tmp/ccDWEfAB.s:1875   .text:0000000000000a4c .LVL208
     /tmp/ccDWEfAB.s:1895   .text:0000000000000a6c .LVL211
     /tmp/ccDWEfAB.s:9369   .debug_str:0000000000000791 .LASF186
     /tmp/ccDWEfAB.s:9351   .debug_str:00000000000006ff .LASF187
     /tmp/ccDWEfAB.s:1705   .text:0000000000000928 .LFB33
     /tmp/ccDWEfAB.s:1830   .text:0000000000000a00 .LFE33
     /tmp/ccDWEfAB.s:8780   .debug_loc:00000000000007a2 .LLST42
     /tmp/ccDWEfAB.s:8792   .debug_loc:00000000000007d9 .LLST43
     /tmp/ccDWEfAB.s:8808   .debug_loc:0000000000000823 .LLST44
     /tmp/ccDWEfAB.s:8824   .debug_loc:000000000000086d .LLST45
     /tmp/ccDWEfAB.s:1771   .text:0000000000000990 .LVL193
     /tmp/ccDWEfAB.s:1726   .text:0000000000000954 .LVL188
     /tmp/ccDWEfAB.s:1782   .text:00000000000009a0 .LVL195
     /tmp/ccDWEfAB.s:1787   .text:00000000000009b0 .LVL196
     /tmp/ccDWEfAB.s:1800   .text:00000000000009d0 .LVL198
     /tmp/ccDWEfAB.s:1827   .text:00000000000009fc .LVL202
     /tmp/ccDWEfAB.s:9525   .debug_str:0000000000000be1 .LASF188
     /tmp/ccDWEfAB.s:9415   .debug_str:00000000000008d0 .LASF189
     /tmp/ccDWEfAB.s:1634   .text:00000000000008a8 .LFB32
     /tmp/ccDWEfAB.s:1694   .text:0000000000000928 .LFE32
     /tmp/ccDWEfAB.s:8835   .debug_loc:00000000000008a3 .LLST40
     /tmp/ccDWEfAB.s:8848   .debug_loc:00000000000008dc .LLST41
     /tmp/ccDWEfAB.s:1649   .text:00000000000008c8 .LVL179
     /tmp/ccDWEfAB.s:1663   .text:00000000000008f0 .LVL182
     /tmp/ccDWEfAB.s:1671   .text:0000000000000904 .LVL184
     /tmp/ccDWEfAB.s:1691   .text:0000000000000924 .LVL187
     /tmp/ccDWEfAB.s:9469   .debug_str:0000000000000a3b .LASF190
     /tmp/ccDWEfAB.s:9513   .debug_str:0000000000000b6d .LASF191
     /tmp/ccDWEfAB.s:1436   .text:0000000000000748 .LFB31
     /tmp/ccDWEfAB.s:1623   .text:00000000000008a8 .LFE31
     /tmp/ccDWEfAB.s:1454   .text:000000000000076c .LBB38
     /tmp/ccDWEfAB.s:1486   .text:00000000000007b0 .LBE38
     /tmp/ccDWEfAB.s:8859   .debug_loc:0000000000000912 .LLST34
     /tmp/ccDWEfAB.s:1471   .text:000000000000078c .LVL158
     /tmp/ccDWEfAB.s:1483   .text:00000000000007b0 .LVL159
     /tmp/ccDWEfAB.s:1502   .text:00000000000007c4 .LBB39
     /tmp/ccDWEfAB.s:1541   .text:0000000000000808 .LBE39
     /tmp/ccDWEfAB.s:8870   .debug_loc:0000000000000948 .LLST35
     /tmp/ccDWEfAB.s:8881   .debug_loc:000000000000097e .LLST36
     /tmp/ccDWEfAB.s:1518   .text:00000000000007e8 .LVL162
     /tmp/ccDWEfAB.s:1536   .text:0000000000000804 .LVL166
     /tmp/ccDWEfAB.s:1542   .text:0000000000000808 .LBB42
     /tmp/ccDWEfAB.s:1577   .text:0000000000000850 .LBE42
     /tmp/ccDWEfAB.s:8888   .debug_loc:00000000000009a1 .LLST37
     /tmp/ccDWEfAB.s:1561   .text:0000000000000828 .LVL170
     /tmp/ccDWEfAB.s:1573   .text:000000000000084c .LVL171
     /tmp/ccDWEfAB.s:1578   .text:0000000000000850 .LBB43
     /tmp/ccDWEfAB.s:1615   .text:0000000000000894 .LBE43
     /tmp/ccDWEfAB.s:8895   .debug_loc:00000000000009c4 .LLST38
     /tmp/ccDWEfAB.s:8906   .debug_loc:00000000000009fa .LLST39
     /tmp/ccDWEfAB.s:1594   .text:0000000000000874 .LVL173
     /tmp/ccDWEfAB.s:1610   .text:0000000000000890 .LVL177
     /tmp/ccDWEfAB.s:1453   .text:000000000000076c .LVL155
     /tmp/ccDWEfAB.s:1620   .text:00000000000008a4 .LVL178
     /tmp/ccDWEfAB.s:9553   .debug_str:0000000000000ca4 .LASF193
     /tmp/ccDWEfAB.s:9563   .debug_str:0000000000000ce9 .LASF228
     /tmp/ccDWEfAB.s:1402   .text:0000000000000730 .LFB30
GAS LISTING /tmp/ccDWEfAB.s 			page 102


     /tmp/ccDWEfAB.s:1419   .text:0000000000000748 .LFE30
     /tmp/ccDWEfAB.s:9499   .debug_str:0000000000000b17 .LASF194
     /tmp/ccDWEfAB.s:9359   .debug_str:000000000000074e .LASF195
     /tmp/ccDWEfAB.s:2790   .text:0000000000000fdc .LFE29
     /tmp/ccDWEfAB.s:8913   .debug_loc:0000000000000a1d .LLST63
     /tmp/ccDWEfAB.s:2754   .text:0000000000000f98 .LVL291
     /tmp/ccDWEfAB.s:2760   .text:0000000000000fa8 .LVL292
     /tmp/ccDWEfAB.s:2767   .text:0000000000000fb4 .LVL293
     /tmp/ccDWEfAB.s:2773   .text:0000000000000fbc .LVL294
     /tmp/ccDWEfAB.s:2783   .text:0000000000000fd0 .LVL296
     /tmp/ccDWEfAB.s:2787   .text:0000000000000fdc .LVL297
     /tmp/ccDWEfAB.s:9567   .debug_str:0000000000000d04 .LASF196
     /tmp/ccDWEfAB.s:9161   .debug_str:0000000000000085 .LASF197
     /tmp/ccDWEfAB.s:1349   .text:0000000000000730 .LFE28
     /tmp/ccDWEfAB.s:9185   .debug_str:0000000000000159 .LASF198
     /tmp/ccDWEfAB.s:8920   .debug_loc:0000000000000a40 .LLST30
     /tmp/ccDWEfAB.s:8935   .debug_loc:0000000000000a89 .LLST31
     /tmp/ccDWEfAB.s:8942   .debug_loc:0000000000000aac .LLST32
     /tmp/ccDWEfAB.s:1275   .text:00000000000006a0 .LBB36
     /tmp/ccDWEfAB.s:1282   .text:00000000000006a4 .LBE36
     /tmp/ccDWEfAB.s:8949   .debug_loc:0000000000000acf .LLST33
     /tmp/ccDWEfAB.s:1211   .text:0000000000000610 .LVL130
     /tmp/ccDWEfAB.s:1218   .text:0000000000000628 .LVL131
     /tmp/ccDWEfAB.s:1225   .text:0000000000000634 .LVL132
     /tmp/ccDWEfAB.s:1230   .text:0000000000000640 .LVL133
     /tmp/ccDWEfAB.s:1237   .text:0000000000000658 .LVL134
     /tmp/ccDWEfAB.s:1244   .text:0000000000000664 .LVL135
     /tmp/ccDWEfAB.s:1249   .text:0000000000000670 .LVL136
     /tmp/ccDWEfAB.s:1257   .text:0000000000000688 .LVL138
     /tmp/ccDWEfAB.s:1264   .text:0000000000000694 .LVL139
     /tmp/ccDWEfAB.s:1268   .text:000000000000069c .LVL140
     /tmp/ccDWEfAB.s:1290   .text:00000000000006bc .LVL143
     /tmp/ccDWEfAB.s:1294   .text:00000000000006c4 .LVL144
     /tmp/ccDWEfAB.s:1318   .text:00000000000006ec .LVL147
     /tmp/ccDWEfAB.s:1322   .text:00000000000006f8 .LVL148
     /tmp/ccDWEfAB.s:1330   .text:0000000000000708 .LVL150
     /tmp/ccDWEfAB.s:1334   .text:0000000000000714 .LVL151
     /tmp/ccDWEfAB.s:1342   .text:0000000000000724 .LVL153
     /tmp/ccDWEfAB.s:1346   .text:0000000000000730 .LVL154
     /tmp/ccDWEfAB.s:9497   .debug_str:0000000000000b0b .LASF199
     /tmp/ccDWEfAB.s:9251   .debug_str:00000000000003cf .LASF200
     /tmp/ccDWEfAB.s:1147   .text:00000000000005ec .LFE27
     /tmp/ccDWEfAB.s:8956   .debug_loc:0000000000000af2 .LLST26
     /tmp/ccDWEfAB.s:8967   .debug_loc:0000000000000b28 .LLST27
     /tmp/ccDWEfAB.s:1070   .text:0000000000000568 .LBB32
     /tmp/ccDWEfAB.s:1078   .text:000000000000056c .LBE32
     /tmp/ccDWEfAB.s:8974   .debug_loc:0000000000000b4b .LLST28
     /tmp/ccDWEfAB.s:1085   .text:0000000000000578 .LBB34
     /tmp/ccDWEfAB.s:1092   .text:000000000000057c .LBE34
     /tmp/ccDWEfAB.s:8981   .debug_loc:0000000000000b6e .LLST29
     /tmp/ccDWEfAB.s:1015   .text:00000000000004ec .LVL108
     /tmp/ccDWEfAB.s:1022   .text:0000000000000504 .LVL109
     /tmp/ccDWEfAB.s:1029   .text:0000000000000510 .LVL110
     /tmp/ccDWEfAB.s:1034   .text:000000000000051c .LVL111
     /tmp/ccDWEfAB.s:1041   .text:0000000000000534 .LVL112
     /tmp/ccDWEfAB.s:1048   .text:0000000000000540 .LVL113
     /tmp/ccDWEfAB.s:1052   .text:0000000000000548 .LVL114
GAS LISTING /tmp/ccDWEfAB.s 			page 103


     /tmp/ccDWEfAB.s:1059   .text:000000000000055c .LVL115
     /tmp/ccDWEfAB.s:1063   .text:0000000000000564 .LVL116
     /tmp/ccDWEfAB.s:1100   .text:0000000000000594 .LVL121
     /tmp/ccDWEfAB.s:1104   .text:000000000000059c .LVL122
     /tmp/ccDWEfAB.s:1128   .text:00000000000005c4 .LVL125
     /tmp/ccDWEfAB.s:1132   .text:00000000000005d0 .LVL126
     /tmp/ccDWEfAB.s:1140   .text:00000000000005e0 .LVL128
     /tmp/ccDWEfAB.s:1144   .text:00000000000005ec .LVL129
     /tmp/ccDWEfAB.s:9227   .debug_str:0000000000000339 .LASF201
     /tmp/ccDWEfAB.s:9587   .debug_str:0000000000000d90 .LASF202
     /tmp/ccDWEfAB.s:351    .text:00000000000001b4 .LFB26
     /tmp/ccDWEfAB.s:441    .text:0000000000000260 .LFE26
     /tmp/ccDWEfAB.s:8988   .debug_loc:0000000000000b91 .LLST7
     /tmp/ccDWEfAB.s:373    .text:00000000000001d8 .LBB23
     /tmp/ccDWEfAB.s:427    .text:000000000000024c .LBE23
     /tmp/ccDWEfAB.s:9002   .debug_loc:0000000000000bca .LLST8
     /tmp/ccDWEfAB.s:382    .text:00000000000001e8 .LVL38
     /tmp/ccDWEfAB.s:388    .text:00000000000001f4 .LVL39
     /tmp/ccDWEfAB.s:394    .text:0000000000000204 .LVL40
     /tmp/ccDWEfAB.s:399    .text:0000000000000210 .LVL41
     /tmp/ccDWEfAB.s:404    .text:0000000000000220 .LVL42
     /tmp/ccDWEfAB.s:370    .text:00000000000001d8 .LVL36
     /tmp/ccDWEfAB.s:9339   .debug_str:0000000000000691 .LASF203
     /tmp/ccDWEfAB.s:9551   .debug_str:0000000000000c8e .LASF204
     /tmp/ccDWEfAB.s:205    .text:00000000000000c4 .LFB25
     /tmp/ccDWEfAB.s:285    .text:000000000000015c .LFE25
     /tmp/ccDWEfAB.s:9014   .debug_loc:0000000000000c01 .LLST3
     /tmp/ccDWEfAB.s:227    .text:00000000000000e8 .LBB21
     /tmp/ccDWEfAB.s:271    .text:0000000000000148 .LBE21
     /tmp/ccDWEfAB.s:9028   .debug_loc:0000000000000c3a .LLST4
     /tmp/ccDWEfAB.s:236    .text:00000000000000f8 .LVL20
     /tmp/ccDWEfAB.s:242    .text:0000000000000108 .LVL21
     /tmp/ccDWEfAB.s:247    .text:0000000000000114 .LVL22
     /tmp/ccDWEfAB.s:252    .text:0000000000000124 .LVL23
     /tmp/ccDWEfAB.s:224    .text:00000000000000e8 .LVL18
     /tmp/ccDWEfAB.s:9569   .debug_str:0000000000000d10 .LASF205
     /tmp/ccDWEfAB.s:9241   .debug_str:000000000000038d .LASF206
     /tmp/ccDWEfAB.s:111    .text:000000000000002c .LFB24
     /tmp/ccDWEfAB.s:191    .text:00000000000000c4 .LFE24
     /tmp/ccDWEfAB.s:9040   .debug_loc:0000000000000c71 .LLST1
     /tmp/ccDWEfAB.s:133    .text:0000000000000050 .LBB20
     /tmp/ccDWEfAB.s:177    .text:00000000000000b0 .LBE20
     /tmp/ccDWEfAB.s:9054   .debug_loc:0000000000000caa .LLST2
     /tmp/ccDWEfAB.s:142    .text:0000000000000060 .LVL10
     /tmp/ccDWEfAB.s:148    .text:0000000000000070 .LVL11
     /tmp/ccDWEfAB.s:153    .text:000000000000007c .LVL12
     /tmp/ccDWEfAB.s:158    .text:000000000000008c .LVL13
     /tmp/ccDWEfAB.s:130    .text:0000000000000050 .LVL8
     /tmp/ccDWEfAB.s:9265   .debug_str:000000000000043d .LASF207
     /tmp/ccDWEfAB.s:9191   .debug_str:0000000000000175 .LASF208
     /tmp/ccDWEfAB.s:66     .text:0000000000000000 .LFB23
     /tmp/ccDWEfAB.s:94     .text:000000000000002c .LFE23
     /tmp/ccDWEfAB.s:9066   .debug_loc:0000000000000ce1 .LLST0
     /tmp/ccDWEfAB.s:86     .text:0000000000000020 .LVL4
     /tmp/ccDWEfAB.s:90     .text:0000000000000028 .LVL5
     /tmp/ccDWEfAB.s:37     .text._ZN14PeriodicThread18periodicActivationEv:0000000000000000 .LFB22
     /tmp/ccDWEfAB.s:55     .text._ZN14PeriodicThread18periodicActivationEv:0000000000000018 .LFE22
GAS LISTING /tmp/ccDWEfAB.s 			page 104


     /tmp/ccDWEfAB.s:11     .text._ZN6Thread3runEv:0000000000000000 .LFB21
     /tmp/ccDWEfAB.s:30     .text._ZN6Thread3runEv:0000000000000018 .LFE21
     /tmp/ccDWEfAB.s:9387   .debug_str:0000000000000818 .LASF209
     /tmp/ccDWEfAB.s:9259   .debug_str:000000000000041c .LASF210
     /tmp/ccDWEfAB.s:9491   .debug_str:0000000000000aec .LASF211
     /tmp/ccDWEfAB.s:9589   .debug_str:0000000000000dab .LASF229
     /tmp/ccDWEfAB.s:9181   .debug_str:0000000000000119 .LASF230
     /tmp/ccDWEfAB.s:9263   .debug_str:0000000000000431 .LASF212
     /tmp/ccDWEfAB.s:9347   .debug_str:00000000000006df .LASF213
     /tmp/ccDWEfAB.s:9357   .debug_str:0000000000000744 .LASF214
     /tmp/ccDWEfAB.s:9293   .debug_str:0000000000000514 .LASF215
     /tmp/ccDWEfAB.s:939    .text._ZN12TestPeriodicD0Ev:0000000000000000 .LVL103
     /tmp/ccDWEfAB.s:974    .text._ZN12TestPeriodicD0Ev:0000000000000044 .LVL107
     /tmp/ccDWEfAB.s:951    .text._ZN12TestPeriodicD0Ev:0000000000000018 .LVL104
     /tmp/ccDWEfAB.s:898    .text._ZN12TestPeriodicD2Ev:0000000000000000 .LVL100
     /tmp/ccDWEfAB.s:907    .text._ZN12TestPeriodicD2Ev:0000000000000010 .LVL101
     /tmp/ccDWEfAB.s:294    .text:000000000000015c .LVL26
     /tmp/ccDWEfAB.s:310    .text:0000000000000174 .LVL28
     /tmp/ccDWEfAB.s:306    .text:0000000000000170 .LVL27
     /tmp/ccDWEfAB.s:327    .text:000000000000019c .LVL31
     /tmp/ccDWEfAB.s:329    .text:00000000000001a0 .LVL32
     /tmp/ccDWEfAB.s:340    .text:00000000000001ac .LVL33
     /tmp/ccDWEfAB.s:2692   .text:0000000000000f34 .LVL288
     /tmp/ccDWEfAB.s:2719   .text:0000000000000f6c .LVL290
     /tmp/ccDWEfAB.s:850    .text._ZN14PeriodicThreadD0Ev:0000000000000000 .LVL95
     /tmp/ccDWEfAB.s:882    .text._ZN14PeriodicThreadD0Ev:0000000000000044 .LVL99
     /tmp/ccDWEfAB.s:862    .text._ZN14PeriodicThreadD0Ev:0000000000000018 .LVL96
     /tmp/ccDWEfAB.s:813    .text._ZN14PeriodicThreadD2Ev:0000000000000000 .LVL93
     /tmp/ccDWEfAB.s:2472   .text:0000000000000e44 .LVL273
     /tmp/ccDWEfAB.s:2469   .text:0000000000000e40 .LVL272
     /tmp/ccDWEfAB.s:2534   .text:0000000000000edc .LVL284
     /tmp/ccDWEfAB.s:2442   .text:0000000000000e18 .LVL269
     /tmp/ccDWEfAB.s:2448   .text:0000000000000e1c .LVL270
     /tmp/ccDWEfAB.s:737    .text:000000000000043c .LVL82
     /tmp/ccDWEfAB.s:753    .text:000000000000045c .LVL83
     /tmp/ccDWEfAB.s:760    .text:000000000000046c .LVL85
     /tmp/ccDWEfAB.s:771    .text:0000000000000478 .LVL87
     /tmp/ccDWEfAB.s:657    .text:00000000000003b0 .LVL71
     /tmp/ccDWEfAB.s:673    .text:00000000000003d0 .LVL72
     /tmp/ccDWEfAB.s:680    .text:00000000000003e0 .LVL74
     /tmp/ccDWEfAB.s:691    .text:00000000000003ec .LVL76
     /tmp/ccDWEfAB.s:577    .text:0000000000000324 .LVL60
     /tmp/ccDWEfAB.s:593    .text:0000000000000344 .LVL61
     /tmp/ccDWEfAB.s:600    .text:0000000000000354 .LVL63
     /tmp/ccDWEfAB.s:611    .text:0000000000000360 .LVL65
     /tmp/ccDWEfAB.s:2224   .text:0000000000000ca0 .LVL246
     /tmp/ccDWEfAB.s:2253   .text:0000000000000ce4 .LVL251
     /tmp/ccDWEfAB.s:2197   .text:0000000000000c78 .LVL243
     /tmp/ccDWEfAB.s:2203   .text:0000000000000c7c .LVL244
     /tmp/ccDWEfAB.s:525    .text:00000000000002d4 .LVL54
     /tmp/ccDWEfAB.s:539    .text:00000000000002f0 .LVL55
     /tmp/ccDWEfAB.s:455    .text:0000000000000260 .LVL45
     /tmp/ccDWEfAB.s:471    .text:0000000000000280 .LVL46
     /tmp/ccDWEfAB.s:478    .text:0000000000000290 .LVL48
     /tmp/ccDWEfAB.s:489    .text:000000000000029c .LVL50
     /tmp/ccDWEfAB.s:1977   .text:0000000000000ae8 .LVL218
     /tmp/ccDWEfAB.s:2073   .text:0000000000000b98 .LVL231
GAS LISTING /tmp/ccDWEfAB.s 			page 105


     /tmp/ccDWEfAB.s:2077   .text:0000000000000b9c .LVL232
     /tmp/ccDWEfAB.s:1934   .text:0000000000000aa0 .LVL213
     /tmp/ccDWEfAB.s:1955   .text:0000000000000acc .LVL216
     /tmp/ccDWEfAB.s:1972   .text:0000000000000ae4 .LVL217
     /tmp/ccDWEfAB.s:1987   .text:0000000000000af0 .LVL219
     /tmp/ccDWEfAB.s:2022   .text:0000000000000b40 .LVL223
     /tmp/ccDWEfAB.s:2025   .text:0000000000000b44 .LVL224
     /tmp/ccDWEfAB.s:2031   .text:0000000000000b48 .LVL225
     /tmp/ccDWEfAB.s:2005   .text:0000000000000b18 .LVL221
     /tmp/ccDWEfAB.s:2064   .text:0000000000000b90 .LVL229
     /tmp/ccDWEfAB.s:2067   .text:0000000000000b94 .LVL230
     /tmp/ccDWEfAB.s:2050   .text:0000000000000b70 .LVL227
     /tmp/ccDWEfAB.s:1865   .text:0000000000000a30 .LVL205
     /tmp/ccDWEfAB.s:1873   .text:0000000000000a44 .LVL207
     /tmp/ccDWEfAB.s:1887   .text:0000000000000a5c .LVL209
     /tmp/ccDWEfAB.s:1893   .text:0000000000000a64 .LVL210
     /tmp/ccDWEfAB.s:1741   .text:0000000000000964 .LVL189
     /tmp/ccDWEfAB.s:1792   .text:00000000000009b8 .LVL197
     /tmp/ccDWEfAB.s:1816   .text:00000000000009e4 .LVL200
     /tmp/ccDWEfAB.s:1820   .text:00000000000009ec .LVL201
     /tmp/ccDWEfAB.s:1811   .text:00000000000009dc .LVL199
     /tmp/ccDWEfAB.s:1760   .text:0000000000000978 .LVL192
     /tmp/ccDWEfAB.s:1774   .text:0000000000000994 .LVL194
     /tmp/ccDWEfAB.s:1657   .text:00000000000008e4 .LVL180
     /tmp/ccDWEfAB.s:1661   .text:00000000000008e8 .LVL181
     /tmp/ccDWEfAB.s:1669   .text:00000000000008fc .LVL183
     /tmp/ccDWEfAB.s:1683   .text:0000000000000914 .LVL185
     /tmp/ccDWEfAB.s:1689   .text:000000000000091c .LVL186
     /tmp/ccDWEfAB.s:1458   .text:0000000000000774 .LVL156
     /tmp/ccDWEfAB.s:1499   .text:00000000000007c4 .LVL160
     /tmp/ccDWEfAB.s:1505   .text:00000000000007c8 .LVL161
     /tmp/ccDWEfAB.s:1525   .text:00000000000007f0 .LVL163
     /tmp/ccDWEfAB.s:1528   .text:00000000000007f4 .LVL164
     /tmp/ccDWEfAB.s:1545   .text:000000000000080c .LVL167
     /tmp/ccDWEfAB.s:1534   .text:00000000000007fc .LVL165
     /tmp/ccDWEfAB.s:1547   .text:0000000000000810 .LVL168
     /tmp/ccDWEfAB.s:1581   .text:0000000000000854 .LVL172
     /tmp/ccDWEfAB.s:1600   .text:000000000000087c .LVL174
     /tmp/ccDWEfAB.s:1602   .text:0000000000000880 .LVL175
     /tmp/ccDWEfAB.s:1608   .text:0000000000000888 .LVL176
     /tmp/ccDWEfAB.s:2777   .text:0000000000000fc0 .LVL295
     /tmp/ccDWEfAB.s:1305   .text:00000000000006d0 .LVL145
     /tmp/ccDWEfAB.s:1326   .text:00000000000006fc .LVL149
     /tmp/ccDWEfAB.s:1338   .text:0000000000000718 .LVL152
     /tmp/ccDWEfAB.s:1252   .text:0000000000000674 .LVL137
     /tmp/ccDWEfAB.s:1308   .text:00000000000006d4 .LVL146
     /tmp/ccDWEfAB.s:1274   .text:00000000000006a0 .LVL141
     /tmp/ccDWEfAB.s:1280   .text:00000000000006a4 .LVL142
     /tmp/ccDWEfAB.s:1115   .text:00000000000005a8 .LVL123
     /tmp/ccDWEfAB.s:1136   .text:00000000000005d4 .LVL127
     /tmp/ccDWEfAB.s:1118   .text:00000000000005ac .LVL124
     /tmp/ccDWEfAB.s:1069   .text:0000000000000568 .LVL117
     /tmp/ccDWEfAB.s:1076   .text:000000000000056c .LVL118
     /tmp/ccDWEfAB.s:1084   .text:0000000000000578 .LVL119
     /tmp/ccDWEfAB.s:1090   .text:000000000000057c .LVL120
     /tmp/ccDWEfAB.s:354    .text:00000000000001b4 .LVL34
     /tmp/ccDWEfAB.s:368    .text:00000000000001d0 .LVL35
GAS LISTING /tmp/ccDWEfAB.s 			page 106


     /tmp/ccDWEfAB.s:377    .text:00000000000001e0 .LVL37
     /tmp/ccDWEfAB.s:436    .text:0000000000000258 .LVL44
     /tmp/ccDWEfAB.s:208    .text:00000000000000c4 .LVL16
     /tmp/ccDWEfAB.s:222    .text:00000000000000e0 .LVL17
     /tmp/ccDWEfAB.s:231    .text:00000000000000f0 .LVL19
     /tmp/ccDWEfAB.s:280    .text:0000000000000154 .LVL25
     /tmp/ccDWEfAB.s:114    .text:000000000000002c .LVL6
     /tmp/ccDWEfAB.s:128    .text:0000000000000048 .LVL7
     /tmp/ccDWEfAB.s:137    .text:0000000000000058 .LVL9
     /tmp/ccDWEfAB.s:186    .text:00000000000000bc .LVL15
     /tmp/ccDWEfAB.s:70     .text:0000000000000000 .LVL2
     /tmp/ccDWEfAB.s:79     .text:0000000000000010 .LVL3
     /tmp/ccDWEfAB.s:2865   .debug_info:0000000000000000 .Ldebug_info0
     /tmp/ccDWEfAB.s:5      .text:0000000000000000 .Ltext0
     /tmp/ccDWEfAB.s:2859   .text:0000000000000fdc .Letext0
     /tmp/ccDWEfAB.s:1510   .text:00000000000007d0 .LBB40
     /tmp/ccDWEfAB.s:1521   .text:00000000000007ec .LBE40
     /tmp/ccDWEfAB.s:1530   .text:00000000000007f4 .LBB41
     /tmp/ccDWEfAB.s:1540   .text:0000000000000808 .LBE41
     /tmp/ccDWEfAB.s:1586   .text:000000000000085c .LBB44
     /tmp/ccDWEfAB.s:1597   .text:0000000000000878 .LBE44
     /tmp/ccDWEfAB.s:1604   .text:0000000000000880 .LBB45
     /tmp/ccDWEfAB.s:1614   .text:0000000000000894 .LBE45
     /tmp/ccDWEfAB.s:1732   .text:0000000000000954 .LBB46
     /tmp/ccDWEfAB.s:1735   .text:0000000000000958 .LBE46
     /tmp/ccDWEfAB.s:1743   .text:0000000000000964 .LBB49
     /tmp/ccDWEfAB.s:1777   .text:0000000000000994 .LBE49
     /tmp/ccDWEfAB.s:1744   .text:0000000000000964 .LBB47
     /tmp/ccDWEfAB.s:1757   .text:0000000000000974 .LBE47
     /tmp/ccDWEfAB.s:1766   .text:0000000000000984 .LBB48
     /tmp/ccDWEfAB.s:1776   .text:0000000000000994 .LBE48
     /tmp/ccDWEfAB.s:1150   .gcc_except_table:0000000000000000 .LLSDA27
     /tmp/ccDWEfAB.s:1351   .gcc_except_table:000000000000005f .LLSDA28
     /tmp/ccDWEfAB.s:2266   .gcc_except_table:00000000000000e6 .LLSDA39
     /tmp/ccDWEfAB.s:2547   .gcc_except_table:000000000000016d .LLSDA43
     /tmp/ccDWEfAB.s:2792   .gcc_except_table:0000000000000269 .LLSDA29
                           .group:0000000000000000 _ZN14PeriodicThreadD5Ev
                           .group:0000000000000000 _ZN12TestPeriodicD5Ev

UNDEFINED SYMBOLS
_ZN5Riscv11printStringEPKc
thread_dispatch
_ZN5Riscv12printIntegerEm
thread_exit
_ZN9Semaphore4waitEv
_ZN9Semaphore6signalEv
__putc
_ZN6ThreadD2Ev
_ZdlPv
_Znwm
_ZN6ThreadC1EPFvPvES0_
_ZN6Thread5startEv
_ZN5Riscv16enableInterruptsEv
_ZN5Riscv17disableInterruptsEv
_Unwind_Resume
__gxx_personality_v0
mem_alloc
GAS LISTING /tmp/ccDWEfAB.s 			page 107


mem_free
HEAP_END_ADDR
HEAP_START_ADDR
_ZN9SemaphoreC1Ej
_ZN14PeriodicThreadC2Em
