GAS LISTING /tmp/ccocfciK.s 			page 1


   1              		.file	"Tests.cpp"
   2              		.option pic
   3              		.option norelax
   4              		.text
   5              	.Ltext0:
   6              		.section	.text._ZN6Thread3runEv,"axG",@progbits,_ZN6Thread3runEv,comdat
   7              		.align	2
   8              		.weak	_ZN6Thread3runEv
  10              	_ZN6Thread3runEv:
  11              	.LFB21:
  12              		.file 1 "src/../h/syscall_cpp.hpp"
   1:src/../h/syscall_cpp.hpp **** //
   2:src/../h/syscall_cpp.hpp **** // Created by os on 4/8/22.
   3:src/../h/syscall_cpp.hpp **** //
   4:src/../h/syscall_cpp.hpp **** 
   5:src/../h/syscall_cpp.hpp **** #ifndef PROJECT_BASE_V1_0_SYSCALL_CPP_HPP
   6:src/../h/syscall_cpp.hpp **** #define PROJECT_BASE_V1_0_SYSCALL_CPP_HPP
   7:src/../h/syscall_cpp.hpp **** 
   8:src/../h/syscall_cpp.hpp **** #include "syscall_c.h"
   9:src/../h/syscall_cpp.hpp **** #include "PCB.hpp"
  10:src/../h/syscall_cpp.hpp **** #include "KSemaphore.hpp"
  11:src/../h/syscall_cpp.hpp **** 
  12:src/../h/syscall_cpp.hpp **** void * operator new(size_t size);
  13:src/../h/syscall_cpp.hpp **** 
  14:src/../h/syscall_cpp.hpp **** void operator delete(void * p);
  15:src/../h/syscall_cpp.hpp **** 
  16:src/../h/syscall_cpp.hpp **** class Thread
  17:src/../h/syscall_cpp.hpp **** {
  18:src/../h/syscall_cpp.hpp **** public:
  19:src/../h/syscall_cpp.hpp ****     Thread(void (*body)(void*), void* args);
  20:src/../h/syscall_cpp.hpp **** 
  21:src/../h/syscall_cpp.hpp ****     virtual ~Thread();
  22:src/../h/syscall_cpp.hpp **** 
  23:src/../h/syscall_cpp.hpp ****     int start();
  24:src/../h/syscall_cpp.hpp **** 
  25:src/../h/syscall_cpp.hpp ****     static void dispatch();
  26:src/../h/syscall_cpp.hpp **** 
  27:src/../h/syscall_cpp.hpp ****     static void sleep(time_t);
  28:src/../h/syscall_cpp.hpp **** 
  29:src/../h/syscall_cpp.hpp **** protected:
  30:src/../h/syscall_cpp.hpp ****     Thread();
  31:src/../h/syscall_cpp.hpp **** 
  32:src/../h/syscall_cpp.hpp ****     virtual void run() {}
  13              		.loc 1 32 18
  14              		.cfi_startproc
  15              	.LVL0:
  16 0000 130101FF 		addi	sp,sp,-16
  17              		.cfi_def_cfa_offset 16
  18 0004 23348100 		sd	s0,8(sp)
  19              		.cfi_offset 8, -8
  20 0008 13040101 		addi	s0,sp,16
  21              		.cfi_def_cfa 8, 0
  22              		.loc 1 32 25 is_stmt 0
  23 000c 03348100 		ld	s0,8(sp)
  24              		.cfi_restore 8
  25              		.cfi_def_cfa 2, 16
  26 0010 13010101 		addi	sp,sp,16
GAS LISTING /tmp/ccocfciK.s 			page 2


  27              		.cfi_def_cfa_offset 0
  28 0014 67800000 		jr	ra
  29              		.cfi_endproc
  30              	.LFE21:
  32              		.section	.text._ZN14PeriodicThread18periodicActivationEv,"axG",@progbits,_ZN14PeriodicThread18peri
  33              		.align	2
  34              		.weak	_ZN14PeriodicThread18periodicActivationEv
  36              	_ZN14PeriodicThread18periodicActivationEv:
  37              	.LFB22:
  33:src/../h/syscall_cpp.hpp **** private:
  34:src/../h/syscall_cpp.hpp ****     thread_t myHandle;
  35:src/../h/syscall_cpp.hpp ****     static void runner(void* t);
  36:src/../h/syscall_cpp.hpp **** };
  37:src/../h/syscall_cpp.hpp **** 
  38:src/../h/syscall_cpp.hpp **** class Semaphore
  39:src/../h/syscall_cpp.hpp **** {
  40:src/../h/syscall_cpp.hpp **** public:
  41:src/../h/syscall_cpp.hpp ****     Semaphore(unsigned init = 1);
  42:src/../h/syscall_cpp.hpp **** 
  43:src/../h/syscall_cpp.hpp ****     virtual ~Semaphore();
  44:src/../h/syscall_cpp.hpp **** 
  45:src/../h/syscall_cpp.hpp ****     int wait();
  46:src/../h/syscall_cpp.hpp ****     int signal();
  47:src/../h/syscall_cpp.hpp **** 
  48:src/../h/syscall_cpp.hpp **** private:
  49:src/../h/syscall_cpp.hpp ****     sem_t myHandle;
  50:src/../h/syscall_cpp.hpp **** };
  51:src/../h/syscall_cpp.hpp **** 
  52:src/../h/syscall_cpp.hpp **** class Console
  53:src/../h/syscall_cpp.hpp **** {
  54:src/../h/syscall_cpp.hpp **** public:
  55:src/../h/syscall_cpp.hpp ****     static char getc();
  56:src/../h/syscall_cpp.hpp ****     static void putc(char);
  57:src/../h/syscall_cpp.hpp **** };
  58:src/../h/syscall_cpp.hpp **** 
  59:src/../h/syscall_cpp.hpp **** class PeriodicThread : public Thread
  60:src/../h/syscall_cpp.hpp **** {
  61:src/../h/syscall_cpp.hpp **** protected:
  62:src/../h/syscall_cpp.hpp ****     PeriodicThread(time_t period);
  63:src/../h/syscall_cpp.hpp ****     virtual void periodicActivation() {};
  38              		.loc 1 63 18 is_stmt 1
  39              		.cfi_startproc
  40              	.LVL1:
  41 0000 130101FF 		addi	sp,sp,-16
  42              		.cfi_def_cfa_offset 16
  43 0004 23348100 		sd	s0,8(sp)
  44              		.cfi_offset 8, -8
  45 0008 13040101 		addi	s0,sp,16
  46              		.cfi_def_cfa 8, 0
  47              		.loc 1 63 40 is_stmt 0
  48 000c 03348100 		ld	s0,8(sp)
  49              		.cfi_restore 8
  50              		.cfi_def_cfa 2, 16
  51 0010 13010101 		addi	sp,sp,16
  52              		.cfi_def_cfa_offset 0
  53 0014 67800000 		jr	ra
  54              		.cfi_endproc
GAS LISTING /tmp/ccocfciK.s 			page 3


  55              	.LFE22:
  57              		.section	.rodata.str1.8,"aMS",@progbits,1
  58              		.align	3
  59              	.LC0:
  60 0000 49646C65 		.string	"Idle\n"
  60      0A00
  61              		.text
  62              		.align	2
  63              		.globl	_Z4idlePv
  65              	_Z4idlePv:
  66              	.LFB23:
  67              		.file 2 "src/Tests.cpp"
   1:src/Tests.cpp **** //
   2:src/Tests.cpp **** // Created by os on 5/5/22.
   3:src/Tests.cpp **** //
   4:src/Tests.cpp **** 
   5:src/Tests.cpp **** #include "../h/Tests.hpp"
   6:src/Tests.cpp **** #include "../lib/console.h"
   7:src/Tests.cpp **** 
   8:src/Tests.cpp **** void idle(void* args)
   9:src/Tests.cpp **** {
  68              		.loc 2 9 1 is_stmt 1
  69              		.cfi_startproc
  70              	.LVL2:
  71 0000 130101FF 		addi	sp,sp,-16
  72              		.cfi_def_cfa_offset 16
  73 0004 23341100 		sd	ra,8(sp)
  74 0008 23308100 		sd	s0,0(sp)
  75              		.cfi_offset 1, -8
  76              		.cfi_offset 8, -16
  77 000c 13040101 		addi	s0,sp,16
  78              		.cfi_def_cfa 8, 0
  79              	.LVL3:
  80              	.L6:
  10:src/Tests.cpp ****     while(true)
  81              		.loc 2 10 5 discriminator 1
  11:src/Tests.cpp ****     {
  12:src/Tests.cpp ****         Riscv::printString("Idle\n");
  82              		.loc 2 12 9 discriminator 1
  83              		.loc 2 12 27 is_stmt 0 discriminator 1
  84 0010 17050000 		lla	a0,.LC0
  84      13050500 
  85 0018 97000000 		call	_ZN5Riscv11printStringEPKc@plt
  85      E7800000 
  86              	.LVL4:
  13:src/Tests.cpp ****         thread_dispatch();
  87              		.loc 2 13 9 is_stmt 1 discriminator 1
  88              		.loc 2 13 24 is_stmt 0 discriminator 1
  89 0020 97000000 		call	thread_dispatch@plt
  89      E7800000 
  90              	.LVL5:
  10:src/Tests.cpp ****     while(true)
  91              		.loc 2 10 5 is_stmt 1 discriminator 1
  92 0028 6FF09FFE 		j	.L6
  93              		.cfi_endproc
  94              	.LFE23:
  96              		.section	.rodata.str1.8
GAS LISTING /tmp/ccocfciK.s 			page 4


  97 0006 0000     		.align	3
  98              	.LC1:
  99 0008 54687265 		.string	"Thread 1 started...\n"
  99      61642031 
  99      20737461 
  99      72746564 
  99      2E2E2E0A 
 100 001d 000000   		.align	3
 101              	.LC2:
 102 0020 69203A20 		.string	"i : "
 102      00
 103 0025 000000   		.align	3
 104              	.LC3:
 105 0028 0A00     		.string	"\n"
 106              		.text
 107              		.align	2
 108              		.globl	_Z15thread1FunctionPv
 110              	_Z15thread1FunctionPv:
 111              	.LFB24:
  14:src/Tests.cpp ****     }
  15:src/Tests.cpp **** }
  16:src/Tests.cpp **** 
  17:src/Tests.cpp **** void thread1Function(void* p)
  18:src/Tests.cpp **** {
 112              		.loc 2 18 1
 113              		.cfi_startproc
 114              	.LVL6:
 115 002c 130101FE 		addi	sp,sp,-32
 116              		.cfi_def_cfa_offset 32
 117 0030 233C1100 		sd	ra,24(sp)
 118 0034 23388100 		sd	s0,16(sp)
 119 0038 23349100 		sd	s1,8(sp)
 120              		.cfi_offset 1, -8
 121              		.cfi_offset 8, -16
 122              		.cfi_offset 9, -24
 123 003c 13040102 		addi	s0,sp,32
 124              		.cfi_def_cfa 8, 0
  19:src/Tests.cpp ****     Riscv::printString("Thread 1 started...\n");
 125              		.loc 2 19 5
 126              		.loc 2 19 23 is_stmt 0
 127 0040 17050000 		lla	a0,.LC1
 127      13050500 
 128              	.LVL7:
 129 0048 97000000 		call	_ZN5Riscv11printStringEPKc@plt
 129      E7800000 
 130              	.LVL8:
  20:src/Tests.cpp ****     uint64 num = 10000;
 131              		.loc 2 20 5 is_stmt 1
  21:src/Tests.cpp ****     for(uint64 i = 0; i < num;i++)
 132              		.loc 2 21 5
 133              	.LBB14:
 134              		.loc 2 21 16 is_stmt 0
 135 0050 93040000 		li	s1,0
 136 0054 6F00C003 		j	.L11
 137              	.LVL9:
 138              	.L13:
  22:src/Tests.cpp ****     {
GAS LISTING /tmp/ccocfciK.s 			page 5


  23:src/Tests.cpp ****         if(i % 150 == 0 && i > 0)
  24:src/Tests.cpp ****             thread_dispatch();
 139              		.loc 2 24 13 is_stmt 1
 140              		.loc 2 24 28 is_stmt 0
 141 0058 97000000 		call	thread_dispatch@plt
 141      E7800000 
 142              	.LVL10:
 143              	.L10:
  25:src/Tests.cpp ****         Riscv::printString("i : ");
 144              		.loc 2 25 9 is_stmt 1 discriminator 2
 145              		.loc 2 25 27 is_stmt 0 discriminator 2
 146 0060 17050000 		lla	a0,.LC2
 146      13050500 
 147 0068 97000000 		call	_ZN5Riscv11printStringEPKc@plt
 147      E7800000 
 148              	.LVL11:
  26:src/Tests.cpp ****         Riscv::printInteger(i);
 149              		.loc 2 26 9 is_stmt 1 discriminator 2
 150              		.loc 2 26 28 is_stmt 0 discriminator 2
 151 0070 13850400 		mv	a0,s1
 152 0074 97000000 		call	_ZN5Riscv12printIntegerEm@plt
 152      E7800000 
 153              	.LVL12:
  27:src/Tests.cpp ****         Riscv::printString("\n");
 154              		.loc 2 27 9 is_stmt 1 discriminator 2
 155              		.loc 2 27 27 is_stmt 0 discriminator 2
 156 007c 17050000 		lla	a0,.LC3
 156      13050500 
 157 0084 97000000 		call	_ZN5Riscv11printStringEPKc@plt
 157      E7800000 
 158              	.LVL13:
  21:src/Tests.cpp ****     {
 159              		.loc 2 21 5 is_stmt 1 discriminator 2
 160 008c 93841400 		addi	s1,s1,1
 161              	.LVL14:
 162              	.L11:
  21:src/Tests.cpp ****     {
 163              		.loc 2 21 25 discriminator 1
 164 0090 B7270000 		li	a5,8192
 165 0094 9387F770 		addi	a5,a5,1807
 166 0098 63EC9700 		bgtu	s1,a5,.L8
  23:src/Tests.cpp ****             thread_dispatch();
 167              		.loc 2 23 9
  23:src/Tests.cpp ****             thread_dispatch();
 168              		.loc 2 23 14 is_stmt 0
 169 009c 93076009 		li	a5,150
 170 00a0 B3F7F402 		remu	a5,s1,a5
  23:src/Tests.cpp ****             thread_dispatch();
 171              		.loc 2 23 9
 172 00a4 E39E07FA 		bnez	a5,.L10
  23:src/Tests.cpp ****             thread_dispatch();
 173              		.loc 2 23 25 discriminator 1
 174 00a8 E38C04FA 		beqz	s1,.L10
 175 00ac 6FF0DFFA 		j	.L13
 176              	.L8:
 177              	.LBE14:
  28:src/Tests.cpp ****     }
GAS LISTING /tmp/ccocfciK.s 			page 6


  29:src/Tests.cpp **** }
 178              		.loc 2 29 1
 179 00b0 83308101 		ld	ra,24(sp)
 180              		.cfi_restore 1
 181 00b4 03340101 		ld	s0,16(sp)
 182              		.cfi_restore 8
 183              		.cfi_def_cfa 2, 32
 184 00b8 83348100 		ld	s1,8(sp)
 185              		.cfi_restore 9
 186              	.LVL15:
 187 00bc 13010102 		addi	sp,sp,32
 188              		.cfi_def_cfa_offset 0
 189 00c0 67800000 		jr	ra
 190              		.cfi_endproc
 191              	.LFE24:
 193              		.section	.rodata.str1.8
 194 002a 00000000 		.align	3
 194      0000
 195              	.LC4:
 196 0030 54687265 		.string	"Thread 2 started...\n"
 196      61642032 
 196      20737461 
 196      72746564 
 196      2E2E2E0A 
 197 0045 000000   		.align	3
 198              	.LC5:
 199 0048 6A203A20 		.string	"j : "
 199      00
 200              		.text
 201              		.align	2
 202              		.globl	_Z15thread2FunctionPv
 204              	_Z15thread2FunctionPv:
 205              	.LFB25:
  30:src/Tests.cpp **** 
  31:src/Tests.cpp **** void thread2Function(void* p)
  32:src/Tests.cpp **** {
 206              		.loc 2 32 1 is_stmt 1
 207              		.cfi_startproc
 208              	.LVL16:
 209 00c4 130101FE 		addi	sp,sp,-32
 210              		.cfi_def_cfa_offset 32
 211 00c8 233C1100 		sd	ra,24(sp)
 212 00cc 23388100 		sd	s0,16(sp)
 213 00d0 23349100 		sd	s1,8(sp)
 214              		.cfi_offset 1, -8
 215              		.cfi_offset 8, -16
 216              		.cfi_offset 9, -24
 217 00d4 13040102 		addi	s0,sp,32
 218              		.cfi_def_cfa 8, 0
  33:src/Tests.cpp ****     Riscv::printString("Thread 2 started...\n");
 219              		.loc 2 33 5
 220              		.loc 2 33 23 is_stmt 0
 221 00d8 17050000 		lla	a0,.LC4
 221      13050500 
 222              	.LVL17:
 223 00e0 97000000 		call	_ZN5Riscv11printStringEPKc@plt
 223      E7800000 
GAS LISTING /tmp/ccocfciK.s 			page 7


 224              	.LVL18:
  34:src/Tests.cpp ****     uint64 num = 10000;
 225              		.loc 2 34 5 is_stmt 1
  35:src/Tests.cpp ****     for(uint64 j = 0; j < num;j++)
 226              		.loc 2 35 5
 227              	.LBB15:
 228              		.loc 2 35 16 is_stmt 0
 229 00e8 93040000 		li	s1,0
 230 00ec 6F00C003 		j	.L17
 231              	.LVL19:
 232              	.L19:
  36:src/Tests.cpp ****     {
  37:src/Tests.cpp ****         if(j % 50 == 0 && j > 0)
  38:src/Tests.cpp ****             thread_dispatch();
 233              		.loc 2 38 13 is_stmt 1
 234              		.loc 2 38 28 is_stmt 0
 235 00f0 97000000 		call	thread_dispatch@plt
 235      E7800000 
 236              	.LVL20:
 237              	.L16:
  39:src/Tests.cpp ****         Riscv::printString("j : ");
 238              		.loc 2 39 9 is_stmt 1 discriminator 2
 239              		.loc 2 39 27 is_stmt 0 discriminator 2
 240 00f8 17050000 		lla	a0,.LC5
 240      13050500 
 241 0100 97000000 		call	_ZN5Riscv11printStringEPKc@plt
 241      E7800000 
 242              	.LVL21:
  40:src/Tests.cpp ****         Riscv::printInteger(j);
 243              		.loc 2 40 9 is_stmt 1 discriminator 2
 244              		.loc 2 40 28 is_stmt 0 discriminator 2
 245 0108 13850400 		mv	a0,s1
 246 010c 97000000 		call	_ZN5Riscv12printIntegerEm@plt
 246      E7800000 
 247              	.LVL22:
  41:src/Tests.cpp ****         Riscv::printString("\n");
 248              		.loc 2 41 9 is_stmt 1 discriminator 2
 249              		.loc 2 41 27 is_stmt 0 discriminator 2
 250 0114 17050000 		lla	a0,.LC3
 250      13050500 
 251 011c 97000000 		call	_ZN5Riscv11printStringEPKc@plt
 251      E7800000 
 252              	.LVL23:
  35:src/Tests.cpp ****     {
 253              		.loc 2 35 5 is_stmt 1 discriminator 2
 254 0124 93841400 		addi	s1,s1,1
 255              	.LVL24:
 256              	.L17:
  35:src/Tests.cpp ****     {
 257              		.loc 2 35 25 discriminator 1
 258 0128 B7270000 		li	a5,8192
 259 012c 9387F770 		addi	a5,a5,1807
 260 0130 63EC9700 		bgtu	s1,a5,.L14
  37:src/Tests.cpp ****             thread_dispatch();
 261              		.loc 2 37 9
  37:src/Tests.cpp ****             thread_dispatch();
 262              		.loc 2 37 14 is_stmt 0
GAS LISTING /tmp/ccocfciK.s 			page 8


 263 0134 93072003 		li	a5,50
 264 0138 B3F7F402 		remu	a5,s1,a5
  37:src/Tests.cpp ****             thread_dispatch();
 265              		.loc 2 37 9
 266 013c E39E07FA 		bnez	a5,.L16
  37:src/Tests.cpp ****             thread_dispatch();
 267              		.loc 2 37 24 discriminator 1
 268 0140 E38C04FA 		beqz	s1,.L16
 269 0144 6FF0DFFA 		j	.L19
 270              	.L14:
 271              	.LBE15:
  42:src/Tests.cpp ****     }
  43:src/Tests.cpp **** }
 272              		.loc 2 43 1
 273 0148 83308101 		ld	ra,24(sp)
 274              		.cfi_restore 1
 275 014c 03340101 		ld	s0,16(sp)
 276              		.cfi_restore 8
 277              		.cfi_def_cfa 2, 32
 278 0150 83348100 		ld	s1,8(sp)
 279              		.cfi_restore 9
 280              	.LVL25:
 281 0154 13010102 		addi	sp,sp,32
 282              		.cfi_def_cfa_offset 0
 283 0158 67800000 		jr	ra
 284              		.cfi_endproc
 285              	.LFE25:
 287              		.align	2
 288              		.globl	_ZN12TestPeriodic18periodicActivationEv
 290              	_ZN12TestPeriodic18periodicActivationEv:
 291              	.LFB46:
  44:src/Tests.cpp **** 
  45:src/Tests.cpp **** void thread2FunctionTest2(void* p)
  46:src/Tests.cpp **** {
  47:src/Tests.cpp ****     Riscv::printString("Thread 2 started...\n");
  48:src/Tests.cpp ****     uint64 num = 10000;
  49:src/Tests.cpp ****     for(uint64 j = 0; j < num;j++)
  50:src/Tests.cpp ****     {
  51:src/Tests.cpp ****         if(j == 200)
  52:src/Tests.cpp ****             thread_exit();
  53:src/Tests.cpp ****         if(j % 50 == 0 && j > 0)
  54:src/Tests.cpp ****             thread_dispatch();
  55:src/Tests.cpp ****         Riscv::printString("j : ");
  56:src/Tests.cpp ****         Riscv::printInteger(j);
  57:src/Tests.cpp ****         Riscv::printString("\n");
  58:src/Tests.cpp ****     }
  59:src/Tests.cpp **** }
  60:src/Tests.cpp **** 
  61:src/Tests.cpp **** void threadTest1()
  62:src/Tests.cpp **** {
  63:src/Tests.cpp ****     Thread* t1 = new Thread(&thread1Function, 0);
  64:src/Tests.cpp ****     t1->start();
  65:src/Tests.cpp ****     Thread* t2 = new Thread(&thread2Function, 0);
  66:src/Tests.cpp ****     t2->start();
  67:src/Tests.cpp ****     Riscv::enableInterrupts();
  68:src/Tests.cpp ****     //while(((PCB*)(t1->myHandle))->getState() != PCB::FINISHED || ((PCB*)(t2->myHandle))->getState
  69:src/Tests.cpp ****     //{
GAS LISTING /tmp/ccocfciK.s 			page 9


  70:src/Tests.cpp ****     //    Riscv::printString("Main thread\n");
  71:src/Tests.cpp ****     //    thread_dispatch();
  72:src/Tests.cpp ****     //}
  73:src/Tests.cpp **** 
  74:src/Tests.cpp ****     Riscv::printString("End...\n");
  75:src/Tests.cpp ****     Riscv::disableInterrupts();
  76:src/Tests.cpp **** }
  77:src/Tests.cpp **** 
  78:src/Tests.cpp **** void threadTest2()
  79:src/Tests.cpp **** {
  80:src/Tests.cpp ****     Thread* idleThread = new Thread(&idle, 0);
  81:src/Tests.cpp ****     idleThread->start();
  82:src/Tests.cpp ****     Thread* t1 = new Thread(&thread1Function, 0);
  83:src/Tests.cpp ****     t1->start();
  84:src/Tests.cpp ****     Thread* t2  = new Thread(&thread2FunctionTest2, 0);
  85:src/Tests.cpp ****     t2->start();
  86:src/Tests.cpp **** 
  87:src/Tests.cpp ****     Riscv::enableInterrupts();
  88:src/Tests.cpp **** 
  89:src/Tests.cpp ****     //while(((PCB*)idleThread->myHandle)->getState() != PCB::FINISHED);
  90:src/Tests.cpp **** 
  91:src/Tests.cpp ****     Riscv::printString("End...\n");
  92:src/Tests.cpp **** 
  93:src/Tests.cpp ****     Riscv::disableInterrupts();
  94:src/Tests.cpp **** }
  95:src/Tests.cpp **** 
  96:src/Tests.cpp **** 
  97:src/Tests.cpp **** void threadTest3()
  98:src/Tests.cpp **** {
  99:src/Tests.cpp ****     Thread* t = new TestPeriodic(50);
 100:src/Tests.cpp ****     t->start();
 101:src/Tests.cpp ****     while(true)
 102:src/Tests.cpp ****     {
 103:src/Tests.cpp ****         //thread_dispatch();
 104:src/Tests.cpp ****     }
 105:src/Tests.cpp **** }
 106:src/Tests.cpp **** 
 107:src/Tests.cpp **** void threadTests()
 108:src/Tests.cpp **** {
 109:src/Tests.cpp ****     //threadTest1();
 110:src/Tests.cpp ****     //threadTest2();
 111:src/Tests.cpp ****     threadTest3();
 112:src/Tests.cpp **** }
 113:src/Tests.cpp **** 
 114:src/Tests.cpp **** 
 115:src/Tests.cpp **** //memory (de)allocation tests
 116:src/Tests.cpp **** void mallocFree()
 117:src/Tests.cpp **** {
 118:src/Tests.cpp ****     Riscv::printString("mallocFree\n");
 119:src/Tests.cpp ****     constexpr int num = 100;
 120:src/Tests.cpp ****     void* addrs[num];
 121:src/Tests.cpp ****     for(int i = 0; i < num;i++)
 122:src/Tests.cpp ****     {
 123:src/Tests.cpp ****         addrs[i] = mem_alloc(100);
 124:src/Tests.cpp ****         if(addrs[i] == 0)
 125:src/Tests.cpp ****         {
 126:src/Tests.cpp ****             Riscv::printString("not OK\n");
GAS LISTING /tmp/ccocfciK.s 			page 10


 127:src/Tests.cpp ****             return;
 128:src/Tests.cpp ****         }
 129:src/Tests.cpp **** 
 130:src/Tests.cpp ****     }
 131:src/Tests.cpp **** 
 132:src/Tests.cpp ****     for(int i = 0 ; i < num;i+=2)
 133:src/Tests.cpp ****     {
 134:src/Tests.cpp ****         int retval = mem_free(addrs[i]);
 135:src/Tests.cpp ****         if(retval != 0)
 136:src/Tests.cpp ****         {
 137:src/Tests.cpp ****             Riscv::printString("not OK\n");
 138:src/Tests.cpp ****             return;
 139:src/Tests.cpp ****         }
 140:src/Tests.cpp ****     }
 141:src/Tests.cpp **** 
 142:src/Tests.cpp ****     for(int i = 0 ; i < num;i+=2)
 143:src/Tests.cpp ****     {
 144:src/Tests.cpp ****         addrs[i] = mem_alloc(20);
 145:src/Tests.cpp ****         if(addrs[i] == 0)
 146:src/Tests.cpp ****         {
 147:src/Tests.cpp ****             Riscv::printString("not OK\n");
 148:src/Tests.cpp ****             return;
 149:src/Tests.cpp ****         }
 150:src/Tests.cpp ****     }
 151:src/Tests.cpp **** 
 152:src/Tests.cpp ****     for(int i = 0; i < num;i++)
 153:src/Tests.cpp ****     {
 154:src/Tests.cpp ****         int retval = mem_free(addrs[i]);
 155:src/Tests.cpp ****         if(retval != 0)
 156:src/Tests.cpp ****         {
 157:src/Tests.cpp ****             Riscv::printString("not OK\n");
 158:src/Tests.cpp ****             return;
 159:src/Tests.cpp ****         }
 160:src/Tests.cpp ****     }
 161:src/Tests.cpp **** 
 162:src/Tests.cpp ****     Riscv::printString("OK\n");
 163:src/Tests.cpp **** }
 164:src/Tests.cpp **** void bigMalloc()
 165:src/Tests.cpp **** {
 166:src/Tests.cpp ****     Riscv::printString("bigMalloc\n");
 167:src/Tests.cpp ****     uint64 x = (uint64)HEAP_END_ADDR - (uint64)HEAP_START_ADDR + 100UL;
 168:src/Tests.cpp ****     void* p = mem_alloc(x);
 169:src/Tests.cpp ****     if(p == 0)
 170:src/Tests.cpp ****         Riscv::printString("OK\n");
 171:src/Tests.cpp ****     else
 172:src/Tests.cpp ****         Riscv::printString("not OK\n");
 173:src/Tests.cpp **** }
 174:src/Tests.cpp **** 
 175:src/Tests.cpp **** void lotOfSmallMallocs()
 176:src/Tests.cpp **** {
 177:src/Tests.cpp ****     Riscv::printString("lotOfSmallMallocs\n");
 178:src/Tests.cpp ****     uint64 cnt = 0;
 179:src/Tests.cpp ****     uint64 sum = 0;
 180:src/Tests.cpp ****     uint64 N = 10000UL;
 181:src/Tests.cpp ****     uint64 X = 10UL;
 182:src/Tests.cpp ****     for(uint64 i = 0; i < N;i++)
 183:src/Tests.cpp ****     {
GAS LISTING /tmp/ccocfciK.s 			page 11


 184:src/Tests.cpp ****         Test* t = (Test*)mem_alloc(sizeof(Test));
 185:src/Tests.cpp ****         if(t == 0)
 186:src/Tests.cpp ****             break;
 187:src/Tests.cpp ****         t->a = X;
 188:src/Tests.cpp ****         sum+=t->a;
 189:src/Tests.cpp ****         cnt++;
 190:src/Tests.cpp ****     }
 191:src/Tests.cpp ****     Riscv::printInteger(cnt);
 192:src/Tests.cpp ****     Riscv::printString("\n");
 193:src/Tests.cpp ****     if(sum == X*cnt)
 194:src/Tests.cpp ****         Riscv::printString("OK\n");
 195:src/Tests.cpp ****     else
 196:src/Tests.cpp ****         Riscv::printString("not OK\n");
 197:src/Tests.cpp **** }
 198:src/Tests.cpp **** void badFree()
 199:src/Tests.cpp **** {
 200:src/Tests.cpp ****     Riscv::printString("badFree\n");
 201:src/Tests.cpp ****     Test* t = (Test*)mem_alloc(sizeof(Test));
 202:src/Tests.cpp ****     uint64 retval = mem_free((char*)t + 2);
 203:src/Tests.cpp ****     if(retval == 0)
 204:src/Tests.cpp ****         Riscv::printString("not OK\n");
 205:src/Tests.cpp ****     else
 206:src/Tests.cpp ****         Riscv::printString("OK\n");
 207:src/Tests.cpp **** }
 208:src/Tests.cpp **** 
 209:src/Tests.cpp **** void stressTesting()
 210:src/Tests.cpp **** {
 211:src/Tests.cpp ****     Riscv::printString("stressTesting\n");
 212:src/Tests.cpp ****     constexpr int num = 100;
 213:src/Tests.cpp ****     void* addrs[num];
 214:src/Tests.cpp ****     for(int i = 0; i < num;i++)
 215:src/Tests.cpp ****     {
 216:src/Tests.cpp ****         addrs[i] = mem_alloc(1);
 217:src/Tests.cpp ****         if(addrs[i] == 0)
 218:src/Tests.cpp ****         {
 219:src/Tests.cpp ****             Riscv::printString("not OK\n");
 220:src/Tests.cpp ****             return;
 221:src/Tests.cpp ****         }
 222:src/Tests.cpp **** 
 223:src/Tests.cpp ****     }
 224:src/Tests.cpp ****     int sz = 300;
 225:src/Tests.cpp ****     while(sz > 0)
 226:src/Tests.cpp ****     {
 227:src/Tests.cpp ****         for(int i = 0 ; i < num;i+=2)
 228:src/Tests.cpp ****         {
 229:src/Tests.cpp ****             int retval = mem_free(addrs[i]);
 230:src/Tests.cpp ****             if(retval != 0)
 231:src/Tests.cpp ****             {
 232:src/Tests.cpp ****                 Riscv::printString("not OK\n");
 233:src/Tests.cpp ****                 return;
 234:src/Tests.cpp ****             }
 235:src/Tests.cpp ****             addrs[i] = mem_alloc(sz/2);
 236:src/Tests.cpp ****             if(addrs[i] == 0)
 237:src/Tests.cpp ****             {
 238:src/Tests.cpp ****                 Riscv::printString("not Ok\n");
 239:src/Tests.cpp ****                 return;
 240:src/Tests.cpp ****             }
GAS LISTING /tmp/ccocfciK.s 			page 12


 241:src/Tests.cpp **** 
 242:src/Tests.cpp ****         }
 243:src/Tests.cpp **** 
 244:src/Tests.cpp ****         for(int i = 1 ; i < num;i+=2)
 245:src/Tests.cpp ****         {
 246:src/Tests.cpp ****             int retval = mem_free(addrs[i]);
 247:src/Tests.cpp ****             if(retval != 0)
 248:src/Tests.cpp ****             {
 249:src/Tests.cpp ****                 Riscv::printString("not OK\n");
 250:src/Tests.cpp ****                 return;
 251:src/Tests.cpp ****             }
 252:src/Tests.cpp ****             addrs[i] = mem_alloc(sz);
 253:src/Tests.cpp ****             if(addrs[i] == 0)
 254:src/Tests.cpp ****             {
 255:src/Tests.cpp ****                 Riscv::printString("not Ok\n");
 256:src/Tests.cpp ****                 return;
 257:src/Tests.cpp ****             }
 258:src/Tests.cpp **** 
 259:src/Tests.cpp ****         }
 260:src/Tests.cpp ****         sz-=10;
 261:src/Tests.cpp ****     }
 262:src/Tests.cpp **** 
 263:src/Tests.cpp ****     Riscv::printString("OK\n");
 264:src/Tests.cpp **** }
 265:src/Tests.cpp **** 
 266:src/Tests.cpp **** void memoryAllocationTests()
 267:src/Tests.cpp **** {
 268:src/Tests.cpp ****     //bigMalloc();
 269:src/Tests.cpp ****     //lotOfSmallMallocs();
 270:src/Tests.cpp ****     //mallocFree();
 271:src/Tests.cpp ****     //badFree();
 272:src/Tests.cpp ****     //stressTesting();
 273:src/Tests.cpp ****     //mallocTest();
 274:src/Tests.cpp ****     //mallocEverything();
 275:src/Tests.cpp ****     mallocGapFillTest();
 276:src/Tests.cpp **** }
 277:src/Tests.cpp **** 
 278:src/Tests.cpp **** void semaphoreTests()
 279:src/Tests.cpp **** {
 280:src/Tests.cpp ****     semTest1();
 281:src/Tests.cpp **** }
 282:src/Tests.cpp **** 
 283:src/Tests.cpp **** void myTests()
 284:src/Tests.cpp **** {
 285:src/Tests.cpp ****     //memoryAllocationTests();
 286:src/Tests.cpp ****     threadTests();
 287:src/Tests.cpp ****     //semaphoreTests();
 288:src/Tests.cpp **** }
 289:src/Tests.cpp **** 
 290:src/Tests.cpp **** TestPeriodic::TestPeriodic(time_t time) : PeriodicThread(time) {
 291:src/Tests.cpp **** 
 292:src/Tests.cpp **** }
 293:src/Tests.cpp **** 
 294:src/Tests.cpp **** void TestPeriodic::periodicActivation()
 295:src/Tests.cpp **** {
 292              		.loc 2 295 1 is_stmt 1
 293              		.cfi_startproc
GAS LISTING /tmp/ccocfciK.s 			page 13


 294              	.LVL26:
 295 015c 130101FE 		addi	sp,sp,-32
 296              		.cfi_def_cfa_offset 32
 297 0160 233C1100 		sd	ra,24(sp)
 298 0164 23388100 		sd	s0,16(sp)
 299 0168 23349100 		sd	s1,8(sp)
 300              		.cfi_offset 1, -8
 301              		.cfi_offset 8, -16
 302              		.cfi_offset 9, -24
 303 016c 13040102 		addi	s0,sp,32
 304              		.cfi_def_cfa 8, 0
 296:src/Tests.cpp ****     for(int i = 0 ; i < 10000;i++)
 305              		.loc 2 296 5
 306              	.LVL27:
 307              	.LBB16:
 308              		.loc 2 296 13 is_stmt 0
 309 0170 93040000 		li	s1,0
 310              	.LVL28:
 311              	.L22:
 312              		.loc 2 296 23 is_stmt 1 discriminator 3
 313 0174 B7270000 		li	a5,8192
 314 0178 9387F770 		addi	a5,a5,1807
 315 017c 63C49702 		bgt	s1,a5,.L20
 297:src/Tests.cpp ****     {
 298:src/Tests.cpp ****         Riscv::printString("i : ");
 316              		.loc 2 298 9 discriminator 2
 317              		.loc 2 298 27 is_stmt 0 discriminator 2
 318 0180 17050000 		lla	a0,.LC2
 318      13050500 
 319 0188 97000000 		call	_ZN5Riscv11printStringEPKc@plt
 319      E7800000 
 320              	.LVL29:
 299:src/Tests.cpp ****         Riscv::printInteger(i);
 321              		.loc 2 299 9 is_stmt 1 discriminator 2
 322              		.loc 2 299 28 is_stmt 0 discriminator 2
 323 0190 13850400 		mv	a0,s1
 324 0194 97000000 		call	_ZN5Riscv12printIntegerEm@plt
 324      E7800000 
 325              	.LVL30:
 296:src/Tests.cpp ****     for(int i = 0 ; i < 10000;i++)
 326              		.loc 2 296 5 is_stmt 1 discriminator 2
 327 019c 9B841400 		addiw	s1,s1,1
 328              	.LVL31:
 329 01a0 6FF05FFD 		j	.L22
 330              	.LVL32:
 331              	.L20:
 332              	.LBE16:
 300:src/Tests.cpp ****     }
 301:src/Tests.cpp **** }
 333              		.loc 2 301 1 is_stmt 0
 334 01a4 83308101 		ld	ra,24(sp)
 335              		.cfi_restore 1
 336 01a8 03340101 		ld	s0,16(sp)
 337              		.cfi_restore 8
 338              		.cfi_def_cfa 2, 32
 339 01ac 83348100 		ld	s1,8(sp)
 340              		.cfi_restore 9
GAS LISTING /tmp/ccocfciK.s 			page 14


 341              	.LVL33:
 342 01b0 13010102 		addi	sp,sp,32
 343              		.cfi_def_cfa_offset 0
 344 01b4 67800000 		jr	ra
 345              		.cfi_endproc
 346              	.LFE46:
 348              		.align	2
 349              		.globl	_Z20thread2FunctionTest2Pv
 351              	_Z20thread2FunctionTest2Pv:
 352              	.LFB26:
  46:src/Tests.cpp ****     Riscv::printString("Thread 2 started...\n");
 353              		.loc 2 46 1 is_stmt 1
 354              		.cfi_startproc
 355              	.LVL34:
 356 01b8 130101FE 		addi	sp,sp,-32
 357              		.cfi_def_cfa_offset 32
 358 01bc 233C1100 		sd	ra,24(sp)
 359 01c0 23388100 		sd	s0,16(sp)
 360 01c4 23349100 		sd	s1,8(sp)
 361              		.cfi_offset 1, -8
 362              		.cfi_offset 8, -16
 363              		.cfi_offset 9, -24
 364 01c8 13040102 		addi	s0,sp,32
 365              		.cfi_def_cfa 8, 0
  47:src/Tests.cpp ****     uint64 num = 10000;
 366              		.loc 2 47 5
  47:src/Tests.cpp ****     uint64 num = 10000;
 367              		.loc 2 47 23 is_stmt 0
 368 01cc 17050000 		lla	a0,.LC4
 368      13050500 
 369              	.LVL35:
 370 01d4 97000000 		call	_ZN5Riscv11printStringEPKc@plt
 370      E7800000 
 371              	.LVL36:
  48:src/Tests.cpp ****     for(uint64 j = 0; j < num;j++)
 372              		.loc 2 48 5 is_stmt 1
  49:src/Tests.cpp ****     {
 373              		.loc 2 49 5
 374              	.LBB17:
  49:src/Tests.cpp ****     {
 375              		.loc 2 49 16 is_stmt 0
 376 01dc 93040000 		li	s1,0
 377 01e0 6F008004 		j	.L28
 378              	.LVL37:
 379              	.L30:
  52:src/Tests.cpp ****         if(j % 50 == 0 && j > 0)
 380              		.loc 2 52 13 is_stmt 1
  52:src/Tests.cpp ****         if(j % 50 == 0 && j > 0)
 381              		.loc 2 52 24 is_stmt 0
 382 01e4 97000000 		call	thread_exit@plt
 382      E7800000 
 383              	.LVL38:
 384 01ec 6F000005 		j	.L26
 385              	.L31:
  54:src/Tests.cpp ****         Riscv::printString("j : ");
 386              		.loc 2 54 13 is_stmt 1
  54:src/Tests.cpp ****         Riscv::printString("j : ");
GAS LISTING /tmp/ccocfciK.s 			page 15


 387              		.loc 2 54 28 is_stmt 0
 388 01f0 97000000 		call	thread_dispatch@plt
 388      E7800000 
 389              	.LVL39:
 390              	.L27:
  55:src/Tests.cpp ****         Riscv::printInteger(j);
 391              		.loc 2 55 9 is_stmt 1 discriminator 2
  55:src/Tests.cpp ****         Riscv::printInteger(j);
 392              		.loc 2 55 27 is_stmt 0 discriminator 2
 393 01f8 17050000 		lla	a0,.LC5
 393      13050500 
 394 0200 97000000 		call	_ZN5Riscv11printStringEPKc@plt
 394      E7800000 
 395              	.LVL40:
  56:src/Tests.cpp ****         Riscv::printString("\n");
 396              		.loc 2 56 9 is_stmt 1 discriminator 2
  56:src/Tests.cpp ****         Riscv::printString("\n");
 397              		.loc 2 56 28 is_stmt 0 discriminator 2
 398 0208 13850400 		mv	a0,s1
 399 020c 97000000 		call	_ZN5Riscv12printIntegerEm@plt
 399      E7800000 
 400              	.LVL41:
  57:src/Tests.cpp ****     }
 401              		.loc 2 57 9 is_stmt 1 discriminator 2
  57:src/Tests.cpp ****     }
 402              		.loc 2 57 27 is_stmt 0 discriminator 2
 403 0214 17050000 		lla	a0,.LC3
 403      13050500 
 404 021c 97000000 		call	_ZN5Riscv11printStringEPKc@plt
 404      E7800000 
 405              	.LVL42:
  49:src/Tests.cpp ****     {
 406              		.loc 2 49 5 is_stmt 1 discriminator 2
 407 0224 93841400 		addi	s1,s1,1
 408              	.LVL43:
 409              	.L28:
  49:src/Tests.cpp ****     {
 410              		.loc 2 49 25 discriminator 1
 411 0228 B7270000 		li	a5,8192
 412 022c 9387F770 		addi	a5,a5,1807
 413 0230 63E09702 		bgtu	s1,a5,.L24
  51:src/Tests.cpp ****             thread_exit();
 414              		.loc 2 51 9
 415 0234 9307800C 		li	a5,200
 416 0238 E386F4FA 		beq	s1,a5,.L30
 417              	.L26:
  53:src/Tests.cpp ****             thread_dispatch();
 418              		.loc 2 53 9
  53:src/Tests.cpp ****             thread_dispatch();
 419              		.loc 2 53 14 is_stmt 0
 420 023c 93072003 		li	a5,50
 421 0240 B3F7F402 		remu	a5,s1,a5
  53:src/Tests.cpp ****             thread_dispatch();
 422              		.loc 2 53 9
 423 0244 E39A07FA 		bnez	a5,.L27
  53:src/Tests.cpp ****             thread_dispatch();
 424              		.loc 2 53 24 discriminator 1
GAS LISTING /tmp/ccocfciK.s 			page 16


 425 0248 E38804FA 		beqz	s1,.L27
 426 024c 6FF05FFA 		j	.L31
 427              	.L24:
 428              	.LBE17:
  59:src/Tests.cpp **** 
 429              		.loc 2 59 1
 430 0250 83308101 		ld	ra,24(sp)
 431              		.cfi_restore 1
 432 0254 03340101 		ld	s0,16(sp)
 433              		.cfi_restore 8
 434              		.cfi_def_cfa 2, 32
 435 0258 83348100 		ld	s1,8(sp)
 436              		.cfi_restore 9
 437              	.LVL44:
 438 025c 13010102 		addi	sp,sp,32
 439              		.cfi_def_cfa_offset 0
 440 0260 67800000 		jr	ra
 441              		.cfi_endproc
 442              	.LFE26:
 444              		.align	2
 445              		.globl	_Z9consumerAPv
 447              	_Z9consumerAPv:
 448              	.LFB50:
 302:src/Tests.cpp **** 
 303:src/Tests.cpp **** void mallocTest()
 304:src/Tests.cpp **** {
 305:src/Tests.cpp ****     Riscv::printString("Testing a few mallocs and frees\n\n");
 306:src/Tests.cpp **** 
 307:src/Tests.cpp ****     object* o = new object;
 308:src/Tests.cpp ****     o->a = 3;
 309:src/Tests.cpp ****     void* m1 = mem_alloc(10);
 310:src/Tests.cpp ****     void* m2 = mem_alloc(100);
 311:src/Tests.cpp ****     void* m3 = mem_alloc(1000);
 312:src/Tests.cpp ****     void* m4 = mem_alloc(10000);
 313:src/Tests.cpp ****     void* m5 = mem_alloc(1);
 314:src/Tests.cpp **** 
 315:src/Tests.cpp ****     if(!m1 || !m2 || !m3 || !m4 || !m5){
 316:src/Tests.cpp ****         Riscv::printString("not OK\n");
 317:src/Tests.cpp ****         return;
 318:src/Tests.cpp ****     }
 319:src/Tests.cpp **** 
 320:src/Tests.cpp ****     delete (uint64*)m1;
 321:src/Tests.cpp ****     delete (uint64*)m3;
 322:src/Tests.cpp ****     delete (uint64*)m4;
 323:src/Tests.cpp ****     delete (uint64*)m2;
 324:src/Tests.cpp ****     delete (uint64*)m5;
 325:src/Tests.cpp ****     delete o;
 326:src/Tests.cpp **** 
 327:src/Tests.cpp ****     Riscv::printString("SUCCESSFUL: Testing a few mallocs and frees\n\n");
 328:src/Tests.cpp **** }
 329:src/Tests.cpp **** 
 330:src/Tests.cpp **** void mallocEverything()
 331:src/Tests.cpp **** {
 332:src/Tests.cpp ****     Riscv::printString("Testing allocating whole address space\n\n");
 333:src/Tests.cpp **** 
 334:src/Tests.cpp ****     uint64 neg_size = (uint64)HEAP_START_ADDR - (uint64)HEAP_END_ADDR -sizeof(MemoryAllocator::Bloc
 335:src/Tests.cpp **** 
GAS LISTING /tmp/ccocfciK.s 			page 17


 336:src/Tests.cpp ****     void* m = mem_alloc(neg_size);
 337:src/Tests.cpp **** 
 338:src/Tests.cpp ****     if(m!=nullptr){
 339:src/Tests.cpp ****         Riscv::printString("not OK\n");
 340:src/Tests.cpp ****         return;
 341:src/Tests.cpp ****     }
 342:src/Tests.cpp **** 
 343:src/Tests.cpp ****     uint64 blockSize = (((uint64)HEAP_END_ADDR - (uint64)HEAP_START_ADDR - sizeof(MemoryAllocator::
 344:src/Tests.cpp **** 
 345:src/Tests.cpp ****     m = mem_alloc(blockSize<<6);
 346:src/Tests.cpp **** 
 347:src/Tests.cpp ****     if(m==nullptr){
 348:src/Tests.cpp ****         Riscv::printString("not OK\n");
 349:src/Tests.cpp ****         return;
 350:src/Tests.cpp ****     }
 351:src/Tests.cpp **** 
 352:src/Tests.cpp **** //    there should be some space left still, depending on source file size and output buffer size
 353:src/Tests.cpp **** //    excess allocation should fail and small_chunk should succeed
 354:src/Tests.cpp **** 
 355:src/Tests.cpp **** //    void *excess = mem_alloc(100);
 356:src/Tests.cpp **** //
 357:src/Tests.cpp **** //    if(excess!=nullptr){
 358:src/Tests.cpp **** //        Riscv::printString("not OK\n");
 359:src/Tests.cpp **** //        return;
 360:src/Tests.cpp **** //    }
 361:src/Tests.cpp **** //
 362:src/Tests.cpp ****     void *small_chunk = mem_alloc(1);
 363:src/Tests.cpp **** 
 364:src/Tests.cpp ****     if(small_chunk == nullptr){
 365:src/Tests.cpp ****         Riscv::printString("not OK\n");
 366:src/Tests.cpp ****         return;
 367:src/Tests.cpp ****     }
 368:src/Tests.cpp **** 
 369:src/Tests.cpp ****     delete (uint64*)m;
 370:src/Tests.cpp ****     //delete (uint64*)small_chunk;
 371:src/Tests.cpp **** 
 372:src/Tests.cpp ****     Riscv::printString("SUCCESSFUL: Testing allocating whole address space\n\n");
 373:src/Tests.cpp **** }
 374:src/Tests.cpp **** 
 375:src/Tests.cpp **** void mallocGapFillTest()
 376:src/Tests.cpp **** {
 377:src/Tests.cpp ****     Riscv::printString("Testing gap filling and chunk merge after multiple mallocs and frees\n\n");
 378:src/Tests.cpp **** 
 379:src/Tests.cpp ****     const int N = 10;
 380:src/Tests.cpp **** 
 381:src/Tests.cpp ****     void *m[N];
 382:src/Tests.cpp **** 
 383:src/Tests.cpp ****     for(int i=0;i<N;i++)
 384:src/Tests.cpp ****     {
 385:src/Tests.cpp ****         m[i] = mem_alloc((i<<6)+1);
 386:src/Tests.cpp ****         if(m[i] == nullptr){
 387:src/Tests.cpp ****             Riscv::printString("not OK\n");
 388:src/Tests.cpp ****             return;
 389:src/Tests.cpp ****         }
 390:src/Tests.cpp ****     }
 391:src/Tests.cpp **** 
 392:src/Tests.cpp ****     delete (uint64*)m[2];
GAS LISTING /tmp/ccocfciK.s 			page 18


 393:src/Tests.cpp **** 
 394:src/Tests.cpp ****     void* tmp1 = mem_alloc(1);
 395:src/Tests.cpp ****     void* tmp2 = mem_alloc(1);
 396:src/Tests.cpp ****     void* tmp3 = mem_alloc(1);
 397:src/Tests.cpp **** 
 398:src/Tests.cpp ****     if(!tmp1 || !tmp2 || !tmp3)
 399:src/Tests.cpp ****     {
 400:src/Tests.cpp ****         Riscv::printString("not OK\n");
 401:src/Tests.cpp ****         return;
 402:src/Tests.cpp ****     }
 403:src/Tests.cpp **** 
 404:src/Tests.cpp ****     uint64 im1 = (uint64)m[1];
 405:src/Tests.cpp ****     uint64 im3 = (uint64)m[3];
 406:src/Tests.cpp ****     uint64 im5 = (uint64)m[5];
 407:src/Tests.cpp ****     uint64 imN = (uint64)m[N];
 408:src/Tests.cpp **** 
 409:src/Tests.cpp ****     uint64 itmp1 = (uint64)tmp1;
 410:src/Tests.cpp ****     uint64 itmp2 = (uint64)tmp2;
 411:src/Tests.cpp ****     uint64 itmp3 = (uint64)tmp3;
 412:src/Tests.cpp **** 
 413:src/Tests.cpp ****     if(!(im1<itmp1 && itmp1<im3 && im1<itmp2 && itmp2<im3 && itmp3>imN))
 414:src/Tests.cpp ****     {
 415:src/Tests.cpp ****         Riscv::printString("not OK\n");
 416:src/Tests.cpp ****         return;
 417:src/Tests.cpp ****     }
 418:src/Tests.cpp **** 
 419:src/Tests.cpp ****     delete (uint64*)m[3];
 420:src/Tests.cpp ****     delete (uint64*)m[4];
 421:src/Tests.cpp **** 
 422:src/Tests.cpp ****     void* tmp4 = mem_alloc(640);
 423:src/Tests.cpp ****     void* tmp5 = mem_alloc(576);
 424:src/Tests.cpp **** 
 425:src/Tests.cpp ****     if(!tmp4 || !tmp5){
 426:src/Tests.cpp ****         Riscv::printString("not OK\n");
 427:src/Tests.cpp ****         return;
 428:src/Tests.cpp ****     }
 429:src/Tests.cpp **** 
 430:src/Tests.cpp ****     uint64 itmp4 = (uint64)tmp4;
 431:src/Tests.cpp ****     uint64 itmp5 = (uint64)tmp5;
 432:src/Tests.cpp **** 
 433:src/Tests.cpp ****     if(!(itmp5>itmp2 && itmp5>im5 && itmp4<itmp3)){
 434:src/Tests.cpp ****         Riscv::printString("not OK\n");
 435:src/Tests.cpp ****         return;
 436:src/Tests.cpp ****     }
 437:src/Tests.cpp **** 
 438:src/Tests.cpp ****     for(int i=0;i<N;i++){
 439:src/Tests.cpp ****         delete (uint64*)m[i];
 440:src/Tests.cpp ****     }
 441:src/Tests.cpp **** 
 442:src/Tests.cpp ****     delete (uint64*)tmp1;
 443:src/Tests.cpp ****     delete (uint64*)tmp2;
 444:src/Tests.cpp ****     delete (uint64*)tmp3;
 445:src/Tests.cpp ****     delete (uint64*)tmp4;
 446:src/Tests.cpp ****     delete (uint64*)tmp5;
 447:src/Tests.cpp **** 
 448:src/Tests.cpp ****     Riscv::printString("SUCCESSFUL: Testing gap filling and chunk merge after multiple mallocs and 
 449:src/Tests.cpp **** }
GAS LISTING /tmp/ccocfciK.s 			page 19


 450:src/Tests.cpp **** 
 451:src/Tests.cpp **** char buffer[10];
 452:src/Tests.cpp **** int head = 0;
 453:src/Tests.cpp **** int tail = 0;
 454:src/Tests.cpp **** sem_t spaceAvailable, itemAvailable;
 455:src/Tests.cpp **** char string[11] = "this is ni";
 456:src/Tests.cpp **** 
 457:src/Tests.cpp **** void consumerA(void *arg)
 458:src/Tests.cpp **** {
 449              		.loc 2 458 1 is_stmt 1
 450              		.cfi_startproc
 451              	.LVL45:
 459:src/Tests.cpp ****     while(head!=10){
 452              		.loc 2 459 5
 453              		.loc 2 459 15
 454 0264 17070000 		lw	a4,.LANCHOR0
 454      03270700 
 455 026c 9307A000 		li	a5,10
 456 0270 630CF706 		beq	a4,a5,.L40
 458:src/Tests.cpp ****     while(head!=10){
 457              		.loc 2 458 1 is_stmt 0
 458 0274 130101FE 		addi	sp,sp,-32
 459              		.cfi_def_cfa_offset 32
 460 0278 233C1100 		sd	ra,24(sp)
 461 027c 23388100 		sd	s0,16(sp)
 462 0280 23349100 		sd	s1,8(sp)
 463              		.cfi_offset 1, -8
 464              		.cfi_offset 8, -16
 465              		.cfi_offset 9, -24
 466 0284 13040102 		addi	s0,sp,32
 467              		.cfi_def_cfa 8, 0
 468              	.LVL46:
 469              	.L37:
 460:src/Tests.cpp ****         sem_wait(itemAvailable);
 470              		.loc 2 460 9 is_stmt 1
 471              		.loc 2 460 17 is_stmt 0
 472 0288 97040000 		lla	s1,.LANCHOR0
 472      93840400 
 473 0290 03B58400 		ld	a0,8(s1)
 474 0294 97000000 		call	sem_wait@plt
 474      E7800000 
 475              	.LVL47:
 461:src/Tests.cpp ****         __putc(buffer[head++]);
 476              		.loc 2 461 9 is_stmt 1
 477              		.loc 2 461 27 is_stmt 0
 478 029c 83A70400 		lw	a5,0(s1)
 479 02a0 1B871700 		addiw	a4,a5,1
 480 02a4 23A0E400 		sw	a4,0(s1)
 481              		.loc 2 461 15
 482 02a8 B387F400 		add	a5,s1,a5
 483 02ac 03C50701 		lbu	a0,16(a5)
 484 02b0 97000000 		call	__putc@plt
 484      E7800000 
 485              	.LVL48:
 462:src/Tests.cpp ****         sem_signal(spaceAvailable);
 486              		.loc 2 462 9 is_stmt 1
 487              		.loc 2 462 19 is_stmt 0
GAS LISTING /tmp/ccocfciK.s 			page 20


 488 02b8 03B50402 		ld	a0,32(s1)
 489 02bc 97000000 		call	sem_signal@plt
 489      E7800000 
 490              	.LVL49:
 459:src/Tests.cpp ****         sem_wait(itemAvailable);
 491              		.loc 2 459 5 is_stmt 1
 459:src/Tests.cpp ****         sem_wait(itemAvailable);
 492              		.loc 2 459 15
 493 02c4 17070000 		lw	a4,.LANCHOR0
 493      03270700 
 494 02cc 9307A000 		li	a5,10
 495 02d0 E31CF7FA 		bne	a4,a5,.L37
 463:src/Tests.cpp ****     }
 464:src/Tests.cpp **** }
 496              		.loc 2 464 1 is_stmt 0
 497 02d4 83308101 		ld	ra,24(sp)
 498              		.cfi_restore 1
 499 02d8 03340101 		ld	s0,16(sp)
 500              		.cfi_restore 8
 501              		.cfi_def_cfa 2, 32
 502 02dc 83348100 		ld	s1,8(sp)
 503              		.cfi_restore 9
 504 02e0 13010102 		addi	sp,sp,32
 505              		.cfi_def_cfa_offset 0
 506 02e4 67800000 		jr	ra
 507              	.LVL50:
 508              	.L40:
 509 02e8 67800000 		ret
 510              		.cfi_endproc
 511              	.LFE50:
 513              		.align	2
 514              		.globl	_Z9producerAPv
 516              	_Z9producerAPv:
 517              	.LFB51:
 465:src/Tests.cpp **** 
 466:src/Tests.cpp **** void producerA(void *arg)
 467:src/Tests.cpp **** {
 518              		.loc 2 467 1 is_stmt 1
 519              		.cfi_startproc
 520              	.LVL51:
 468:src/Tests.cpp ****     while(tail!=10)
 521              		.loc 2 468 5
 522              		.loc 2 468 15
 523 02ec 17070000 		lw	a4,.LANCHOR0+40
 523      03270700 
 524 02f4 9307A000 		li	a5,10
 525 02f8 6300F708 		beq	a4,a5,.L49
 467:src/Tests.cpp ****     while(tail!=10)
 526              		.loc 2 467 1 is_stmt 0
 527 02fc 130101FE 		addi	sp,sp,-32
 528              		.cfi_def_cfa_offset 32
 529 0300 233C1100 		sd	ra,24(sp)
 530 0304 23388100 		sd	s0,16(sp)
 531 0308 23349100 		sd	s1,8(sp)
 532              		.cfi_offset 1, -8
 533              		.cfi_offset 8, -16
 534              		.cfi_offset 9, -24
GAS LISTING /tmp/ccocfciK.s 			page 21


 535 030c 13040102 		addi	s0,sp,32
 536              		.cfi_def_cfa 8, 0
 537              	.LVL52:
 538              	.L46:
 469:src/Tests.cpp ****     {
 470:src/Tests.cpp ****         sem_wait(spaceAvailable);
 539              		.loc 2 470 9 is_stmt 1
 540              		.loc 2 470 17 is_stmt 0
 541 0310 97040000 		lla	s1,.LANCHOR0
 541      93840400 
 542 0318 03B50402 		ld	a0,32(s1)
 543 031c 97000000 		call	sem_wait@plt
 543      E7800000 
 544              	.LVL53:
 471:src/Tests.cpp ****         buffer[tail] = string[tail];
 545              		.loc 2 471 9 is_stmt 1
 546              		.loc 2 471 35 is_stmt 0
 547 0324 83A78402 		lw	a5,40(s1)
 548 0328 17070000 		lla	a4,.LANCHOR1
 548      13070700 
 549 0330 3307F700 		add	a4,a4,a5
 550 0334 83460700 		lbu	a3,0(a4)
 551              		.loc 2 471 22
 552 0338 3387F400 		add	a4,s1,a5
 553 033c 2308D700 		sb	a3,16(a4)
 472:src/Tests.cpp ****         tail++;
 554              		.loc 2 472 9 is_stmt 1
 555              		.loc 2 472 13 is_stmt 0
 556 0340 9B871700 		addiw	a5,a5,1
 557 0344 23A4F402 		sw	a5,40(s1)
 473:src/Tests.cpp ****         sem_signal(itemAvailable);
 558              		.loc 2 473 9 is_stmt 1
 559              		.loc 2 473 19 is_stmt 0
 560 0348 03B58400 		ld	a0,8(s1)
 561 034c 97000000 		call	sem_signal@plt
 561      E7800000 
 562              	.LVL54:
 468:src/Tests.cpp ****     {
 563              		.loc 2 468 5 is_stmt 1
 468:src/Tests.cpp ****     {
 564              		.loc 2 468 15
 565 0354 17070000 		lw	a4,.LANCHOR0+40
 565      03270700 
 566 035c 9307A000 		li	a5,10
 567 0360 E318F7FA 		bne	a4,a5,.L46
 474:src/Tests.cpp ****     }
 475:src/Tests.cpp **** }
 568              		.loc 2 475 1 is_stmt 0
 569 0364 83308101 		ld	ra,24(sp)
 570              		.cfi_restore 1
 571 0368 03340101 		ld	s0,16(sp)
 572              		.cfi_restore 8
 573              		.cfi_def_cfa 2, 32
 574 036c 83348100 		ld	s1,8(sp)
 575              		.cfi_restore 9
 576 0370 13010102 		addi	sp,sp,32
 577              		.cfi_def_cfa_offset 0
GAS LISTING /tmp/ccocfciK.s 			page 22


 578 0374 67800000 		jr	ra
 579              	.LVL55:
 580              	.L49:
 581 0378 67800000 		ret
 582              		.cfi_endproc
 583              	.LFE51:
 585              		.section	.text._ZN14PeriodicThreadD2Ev,"axG",@progbits,_ZN14PeriodicThreadD5Ev,comdat
 586              		.align	2
 587              		.weak	_ZN14PeriodicThreadD2Ev
 589              	_ZN14PeriodicThreadD2Ev:
 590              	.LFB41:
  59:src/../h/syscall_cpp.hpp **** {
 591              		.loc 1 59 7 is_stmt 1
 592              		.cfi_startproc
 593              	.LVL56:
 594 0000 130101FF 		addi	sp,sp,-16
 595              		.cfi_def_cfa_offset 16
 596 0004 23341100 		sd	ra,8(sp)
 597 0008 23308100 		sd	s0,0(sp)
 598              		.cfi_offset 1, -8
 599              		.cfi_offset 8, -16
 600 000c 13040101 		addi	s0,sp,16
 601              		.cfi_def_cfa 8, 0
 602              	.LBB18:
  59:src/../h/syscall_cpp.hpp **** {
 603              		.loc 1 59 7 is_stmt 0
 604 0010 97070000 		lla	a5,_ZTV14PeriodicThread+16
 604      93870700 
 605 0018 2330F500 		sd	a5,0(a0)
 606 001c 97000000 		call	_ZN6ThreadD2Ev@plt
 606      E7800000 
 607              	.LVL57:
 608              	.LBE18:
 609 0024 83308100 		ld	ra,8(sp)
 610              		.cfi_restore 1
 611 0028 03340100 		ld	s0,0(sp)
 612              		.cfi_restore 8
 613              		.cfi_def_cfa 2, 16
 614 002c 13010101 		addi	sp,sp,16
 615              		.cfi_def_cfa_offset 0
 616 0030 67800000 		jr	ra
 617              		.cfi_endproc
 618              	.LFE41:
 620              		.weak	_ZN14PeriodicThreadD1Ev
 621              		.set	_ZN14PeriodicThreadD1Ev,_ZN14PeriodicThreadD2Ev
 622              		.section	.text._ZN14PeriodicThreadD0Ev,"axG",@progbits,_ZN14PeriodicThreadD5Ev,comdat
 623              		.align	2
 624              		.weak	_ZN14PeriodicThreadD0Ev
 626              	_ZN14PeriodicThreadD0Ev:
 627              	.LFB43:
  59:src/../h/syscall_cpp.hpp **** {
 628              		.loc 1 59 7 is_stmt 1
 629              		.cfi_startproc
 630              	.LVL58:
 631 0000 130101FE 		addi	sp,sp,-32
 632              		.cfi_def_cfa_offset 32
 633 0004 233C1100 		sd	ra,24(sp)
GAS LISTING /tmp/ccocfciK.s 			page 23


 634 0008 23388100 		sd	s0,16(sp)
 635 000c 23349100 		sd	s1,8(sp)
 636              		.cfi_offset 1, -8
 637              		.cfi_offset 8, -16
 638              		.cfi_offset 9, -24
 639 0010 13040102 		addi	s0,sp,32
 640              		.cfi_def_cfa 8, 0
 641 0014 93040500 		mv	s1,a0
 642              	.LVL59:
 643              	.LBB19:
 644              	.LBB20:
  59:src/../h/syscall_cpp.hpp **** {
 645              		.loc 1 59 7 is_stmt 0
 646 0018 97070000 		lla	a5,_ZTV14PeriodicThread+16
 646      93870700 
 647 0020 2330F500 		sd	a5,0(a0)
 648 0024 97000000 		call	_ZN6ThreadD2Ev@plt
 648      E7800000 
 649              	.LVL60:
 650              	.LBE20:
 651              	.LBE19:
 652 002c 13850400 		mv	a0,s1
 653 0030 97000000 		call	_ZdlPv@plt
 653      E7800000 
 654              	.LVL61:
 655 0038 83308101 		ld	ra,24(sp)
 656              		.cfi_restore 1
 657 003c 03340101 		ld	s0,16(sp)
 658              		.cfi_restore 8
 659              		.cfi_def_cfa 2, 32
 660 0040 83348100 		ld	s1,8(sp)
 661              		.cfi_restore 9
 662              	.LVL62:
 663 0044 13010102 		addi	sp,sp,32
 664              		.cfi_def_cfa_offset 0
 665 0048 67800000 		jr	ra
 666              		.cfi_endproc
 667              	.LFE43:
 669              		.section	.text._ZN12TestPeriodicD2Ev,"axG",@progbits,_ZN12TestPeriodicD5Ev,comdat
 670              		.align	2
 671              		.weak	_ZN12TestPeriodicD2Ev
 673              	_ZN12TestPeriodicD2Ev:
 674              	.LFB54:
 675              		.file 3 "src/../h/Tests.hpp"
   1:src/../h/Tests.hpp **** //
   2:src/../h/Tests.hpp **** // Created by os on 5/5/22.
   3:src/../h/Tests.hpp **** //
   4:src/../h/Tests.hpp **** 
   5:src/../h/Tests.hpp **** #ifndef PROJECT_BASE_V1_0_TESTS_HPP
   6:src/../h/Tests.hpp **** #define PROJECT_BASE_V1_0_TESTS_HPP
   7:src/../h/Tests.hpp **** 
   8:src/../h/Tests.hpp **** #include "Riscv.hpp"
   9:src/../h/Tests.hpp **** #include "PCB.hpp"
  10:src/../h/Tests.hpp **** #include "syscall_cpp.hpp"
  11:src/../h/Tests.hpp **** 
  12:src/../h/Tests.hpp **** class Test
  13:src/../h/Tests.hpp **** {
GAS LISTING /tmp/ccocfciK.s 			page 24


  14:src/../h/Tests.hpp **** public:
  15:src/../h/Tests.hpp ****     uint64 a;
  16:src/../h/Tests.hpp **** };
  17:src/../h/Tests.hpp **** struct object{
  18:src/../h/Tests.hpp ****     int a,b,c,d,e,f,g,h,i,j,k;
  19:src/../h/Tests.hpp **** };
  20:src/../h/Tests.hpp **** struct node{
  21:src/../h/Tests.hpp ****     object o1, o2, o3;
  22:src/../h/Tests.hpp ****     char id;
  23:src/../h/Tests.hpp ****     node *next, *prev;
  24:src/../h/Tests.hpp **** };
  25:src/../h/Tests.hpp **** 
  26:src/../h/Tests.hpp **** //memory (de)allocation tests
  27:src/../h/Tests.hpp **** void mallocFree();
  28:src/../h/Tests.hpp **** void bigMalloc();
  29:src/../h/Tests.hpp **** void lotOfSmallMallocs();
  30:src/../h/Tests.hpp **** void badFree();
  31:src/../h/Tests.hpp **** void stressTesting();
  32:src/../h/Tests.hpp **** void mallocTest();
  33:src/../h/Tests.hpp **** void mallocEverything();
  34:src/../h/Tests.hpp **** void mallocGapFillTest();
  35:src/../h/Tests.hpp **** void memoryAllocationTests();
  36:src/../h/Tests.hpp **** 
  37:src/../h/Tests.hpp **** //thread tests
  38:src/../h/Tests.hpp **** void thread1Function();
  39:src/../h/Tests.hpp **** void thread2Function();
  40:src/../h/Tests.hpp **** 
  41:src/../h/Tests.hpp **** void threadFunction3();
  42:src/../h/Tests.hpp **** 
  43:src/../h/Tests.hpp **** void threadTest1();
  44:src/../h/Tests.hpp **** void threadTest2();
  45:src/../h/Tests.hpp **** void threadTest3();
  46:src/../h/Tests.hpp **** 
  47:src/../h/Tests.hpp **** void threadTests();
  48:src/../h/Tests.hpp **** 
  49:src/../h/Tests.hpp **** class TestPeriodic : public PeriodicThread
 676              		.loc 3 49 7 is_stmt 1
 677              		.cfi_startproc
 678              	.LVL63:
 679 0000 130101FF 		addi	sp,sp,-16
 680              		.cfi_def_cfa_offset 16
 681 0004 23341100 		sd	ra,8(sp)
 682 0008 23308100 		sd	s0,0(sp)
 683              		.cfi_offset 1, -8
 684              		.cfi_offset 8, -16
 685 000c 13040101 		addi	s0,sp,16
 686              		.cfi_def_cfa 8, 0
 687              	.LVL64:
 688              	.LBB21:
 689              	.LBB22:
  59:src/../h/syscall_cpp.hpp **** {
 690              		.loc 1 59 7 is_stmt 0
 691 0010 97070000 		lla	a5,_ZTV14PeriodicThread+16
 691      93870700 
 692 0018 2330F500 		sd	a5,0(a0)
 693 001c 97000000 		call	_ZN6ThreadD2Ev@plt
 693      E7800000 
GAS LISTING /tmp/ccocfciK.s 			page 25


 694              	.LVL65:
 695              	.LBE22:
 696              	.LBE21:
 697              		.loc 3 49 7
 698 0024 83308100 		ld	ra,8(sp)
 699              		.cfi_restore 1
 700 0028 03340100 		ld	s0,0(sp)
 701              		.cfi_restore 8
 702              		.cfi_def_cfa 2, 16
 703 002c 13010101 		addi	sp,sp,16
 704              		.cfi_def_cfa_offset 0
 705 0030 67800000 		jr	ra
 706              		.cfi_endproc
 707              	.LFE54:
 709              		.weak	_ZN12TestPeriodicD1Ev
 710              		.set	_ZN12TestPeriodicD1Ev,_ZN12TestPeriodicD2Ev
 711              		.section	.text._ZN12TestPeriodicD0Ev,"axG",@progbits,_ZN12TestPeriodicD5Ev,comdat
 712              		.align	2
 713              		.weak	_ZN12TestPeriodicD0Ev
 715              	_ZN12TestPeriodicD0Ev:
 716              	.LFB56:
 717              		.loc 3 49 7 is_stmt 1
 718              		.cfi_startproc
 719              	.LVL66:
 720 0000 130101FE 		addi	sp,sp,-32
 721              		.cfi_def_cfa_offset 32
 722 0004 233C1100 		sd	ra,24(sp)
 723 0008 23388100 		sd	s0,16(sp)
 724 000c 23349100 		sd	s1,8(sp)
 725              		.cfi_offset 1, -8
 726              		.cfi_offset 8, -16
 727              		.cfi_offset 9, -24
 728 0010 13040102 		addi	s0,sp,32
 729              		.cfi_def_cfa 8, 0
 730 0014 93040500 		mv	s1,a0
 731              	.LVL67:
 732              	.LBB23:
 733              	.LBB24:
 734              	.LBB25:
  59:src/../h/syscall_cpp.hpp **** {
 735              		.loc 1 59 7 is_stmt 0
 736 0018 97070000 		lla	a5,_ZTV14PeriodicThread+16
 736      93870700 
 737 0020 2330F500 		sd	a5,0(a0)
 738 0024 97000000 		call	_ZN6ThreadD2Ev@plt
 738      E7800000 
 739              	.LVL68:
 740              	.LBE25:
 741              	.LBE24:
 742              	.LBE23:
 743              		.loc 3 49 7
 744 002c 13850400 		mv	a0,s1
 745 0030 97000000 		call	_ZdlPv@plt
 745      E7800000 
 746              	.LVL69:
 747 0038 83308101 		ld	ra,24(sp)
 748              		.cfi_restore 1
GAS LISTING /tmp/ccocfciK.s 			page 26


 749 003c 03340101 		ld	s0,16(sp)
 750              		.cfi_restore 8
 751              		.cfi_def_cfa 2, 32
 752 0040 83348100 		ld	s1,8(sp)
 753              		.cfi_restore 9
 754              	.LVL70:
 755 0044 13010102 		addi	sp,sp,32
 756              		.cfi_def_cfa_offset 0
 757 0048 67800000 		jr	ra
 758              		.cfi_endproc
 759              	.LFE56:
 761              		.section	.rodata.str1.8
 762 004d 000000   		.align	3
 763              	.LC6:
 764 0050 456E642E 		.string	"End...\n"
 764      2E2E0A00 
 765              		.text
 766              		.align	2
 767              		.globl	_Z11threadTest1v
 769              	_Z11threadTest1v:
 770              	.LFB27:
  62:src/Tests.cpp ****     Thread* t1 = new Thread(&thread1Function, 0);
 771              		.loc 2 62 1 is_stmt 1
 772              		.cfi_startproc
 773              		.cfi_personality 0x9b,DW.ref.__gxx_personality_v0
 774              		.cfi_lsda 0x1b,.LLSDA27
 775 037c 130101FE 		addi	sp,sp,-32
 776              		.cfi_def_cfa_offset 32
 777 0380 233C1100 		sd	ra,24(sp)
 778 0384 23388100 		sd	s0,16(sp)
 779 0388 23349100 		sd	s1,8(sp)
 780 038c 23302101 		sd	s2,0(sp)
 781              		.cfi_offset 1, -8
 782              		.cfi_offset 8, -16
 783              		.cfi_offset 9, -24
 784              		.cfi_offset 18, -32
 785 0390 13040102 		addi	s0,sp,32
 786              		.cfi_def_cfa 8, 0
  63:src/Tests.cpp ****     t1->start();
 787              		.loc 2 63 5
  63:src/Tests.cpp ****     t1->start();
 788              		.loc 2 63 48 is_stmt 0
 789 0394 13050001 		li	a0,16
 790              	.LEHB0:
 791 0398 97000000 		call	_Znwm@plt
 791      E7800000 
 792              	.LVL71:
 793              	.LEHE0:
 794 03a0 93040500 		mv	s1,a0
 795 03a4 13060000 		li	a2,0
 796 03a8 97050000 		lla	a1,_Z15thread1FunctionPv
 796      93850500 
 797              	.LEHB1:
 798 03b0 97000000 		call	_ZN6ThreadC1EPFvPvES0_@plt
 798      E7800000 
 799              	.LVL72:
 800              	.LEHE1:
GAS LISTING /tmp/ccocfciK.s 			page 27


  64:src/Tests.cpp ****     Thread* t2 = new Thread(&thread2Function, 0);
 801              		.loc 2 64 5 is_stmt 1 discriminator 2
  64:src/Tests.cpp ****     Thread* t2 = new Thread(&thread2Function, 0);
 802              		.loc 2 64 14 is_stmt 0 discriminator 2
 803 03b8 13850400 		mv	a0,s1
 804              	.LEHB2:
 805 03bc 97000000 		call	_ZN6Thread5startEv@plt
 805      E7800000 
 806              	.LVL73:
  65:src/Tests.cpp ****     t2->start();
 807              		.loc 2 65 5 is_stmt 1 discriminator 2
  65:src/Tests.cpp ****     t2->start();
 808              		.loc 2 65 48 is_stmt 0 discriminator 2
 809 03c4 13050001 		li	a0,16
 810 03c8 97000000 		call	_Znwm@plt
 810      E7800000 
 811              	.LVL74:
 812              	.LEHE2:
 813 03d0 93040500 		mv	s1,a0
 814              	.LVL75:
 815 03d4 13060000 		li	a2,0
 816 03d8 97050000 		lla	a1,_Z15thread2FunctionPv
 816      93850500 
 817              	.LEHB3:
 818 03e0 97000000 		call	_ZN6ThreadC1EPFvPvES0_@plt
 818      E7800000 
 819              	.LVL76:
 820              	.LEHE3:
  66:src/Tests.cpp ****     Riscv::enableInterrupts();
 821              		.loc 2 66 5 is_stmt 1 discriminator 2
  66:src/Tests.cpp ****     Riscv::enableInterrupts();
 822              		.loc 2 66 14 is_stmt 0 discriminator 2
 823 03e8 13850400 		mv	a0,s1
 824              	.LEHB4:
 825 03ec 97000000 		call	_ZN6Thread5startEv@plt
 825      E7800000 
 826              	.LVL77:
  67:src/Tests.cpp ****     //while(((PCB*)(t1->myHandle))->getState() != PCB::FINISHED || ((PCB*)(t2->myHandle))->getState
 827              		.loc 2 67 5 is_stmt 1 discriminator 2
  67:src/Tests.cpp ****     //while(((PCB*)(t1->myHandle))->getState() != PCB::FINISHED || ((PCB*)(t2->myHandle))->getState
 828              		.loc 2 67 28 is_stmt 0 discriminator 2
 829 03f4 97000000 		call	_ZN5Riscv16enableInterruptsEv@plt
 829      E7800000 
 830              	.LVL78:
  74:src/Tests.cpp ****     Riscv::disableInterrupts();
 831              		.loc 2 74 5 is_stmt 1 discriminator 2
  74:src/Tests.cpp ****     Riscv::disableInterrupts();
 832              		.loc 2 74 23 is_stmt 0 discriminator 2
 833 03fc 17050000 		lla	a0,.LC6
 833      13050500 
 834 0404 97000000 		call	_ZN5Riscv11printStringEPKc@plt
 834      E7800000 
 835              	.LVL79:
  75:src/Tests.cpp **** }
 836              		.loc 2 75 5 is_stmt 1 discriminator 2
  75:src/Tests.cpp **** }
 837              		.loc 2 75 29 is_stmt 0 discriminator 2
GAS LISTING /tmp/ccocfciK.s 			page 28


 838 040c 97000000 		call	_ZN5Riscv17disableInterruptsEv@plt
 838      E7800000 
 839              	.LVL80:
 840              	.LEHE4:
  76:src/Tests.cpp **** 
 841              		.loc 2 76 1 discriminator 2
 842 0414 83308101 		ld	ra,24(sp)
 843              		.cfi_remember_state
 844              		.cfi_restore 1
 845 0418 03340101 		ld	s0,16(sp)
 846              		.cfi_restore 8
 847              		.cfi_def_cfa 2, 32
 848 041c 83348100 		ld	s1,8(sp)
 849              		.cfi_restore 9
 850              	.LVL81:
 851 0420 03390100 		ld	s2,0(sp)
 852              		.cfi_restore 18
 853 0424 13010102 		addi	sp,sp,32
 854              		.cfi_def_cfa_offset 0
 855 0428 67800000 		jr	ra
 856              	.L61:
 857              		.cfi_restore_state
 858 042c 13090500 		mv	s2,a0
  63:src/Tests.cpp ****     t1->start();
 859              		.loc 2 63 48
 860 0430 13850400 		mv	a0,s1
 861 0434 97000000 		call	_ZdlPv@plt
 861      E7800000 
 862              	.LVL82:
 863 043c 13050900 		mv	a0,s2
 864              	.LEHB5:
 865 0440 97000000 		call	_Unwind_Resume@plt
 865      E7800000 
 866              	.LVL83:
 867              	.LEHE5:
 868              	.L62:
 869 0448 13090500 		mv	s2,a0
  65:src/Tests.cpp ****     t2->start();
 870              		.loc 2 65 48
 871 044c 13850400 		mv	a0,s1
 872 0450 97000000 		call	_ZdlPv@plt
 872      E7800000 
 873              	.LVL84:
 874 0458 13050900 		mv	a0,s2
 875              	.LEHB6:
 876 045c 97000000 		call	_Unwind_Resume@plt
 876      E7800000 
 877              	.LVL85:
 878              	.LEHE6:
 879              		.cfi_endproc
 880              	.LFE27:
 881              		.globl	__gxx_personality_v0
 882              		.section	.gcc_except_table,"a",@progbits
 883              	.LLSDA27:
 884 0000 FF       		.byte	0xff
 885 0001 FF       		.byte	0xff
 886 0002 03       		.byte	0x3
GAS LISTING /tmp/ccocfciK.s 			page 29


 887 0003 5B       		.byte	0x5b
 888 0004 00000000 		.4byte	.LEHB0-.LFB27
 889 0008 00000000 		.4byte	.LEHE0-.LEHB0
 890 000c 00000000 		.4byte	0
 891 0010 00       		.byte	0
 892 0011 00000000 		.4byte	.LEHB1-.LFB27
 893 0015 00000000 		.4byte	.LEHE1-.LEHB1
 894 0019 00000000 		.4byte	.L61-.LFB27
 895 001d 00       		.byte	0
 896 001e 00000000 		.4byte	.LEHB2-.LFB27
 897 0022 00000000 		.4byte	.LEHE2-.LEHB2
 898 0026 00000000 		.4byte	0
 899 002a 00       		.byte	0
 900 002b 00000000 		.4byte	.LEHB3-.LFB27
 901 002f 00000000 		.4byte	.LEHE3-.LEHB3
 902 0033 00000000 		.4byte	.L62-.LFB27
 903 0037 00       		.byte	0
 904 0038 00000000 		.4byte	.LEHB4-.LFB27
 905 003c 00000000 		.4byte	.LEHE4-.LEHB4
 906 0040 00000000 		.4byte	0
 907 0044 00       		.byte	0
 908 0045 00000000 		.4byte	.LEHB5-.LFB27
 909 0049 00000000 		.4byte	.LEHE5-.LEHB5
 910 004d 00000000 		.4byte	0
 911 0051 00       		.byte	0
 912 0052 00000000 		.4byte	.LEHB6-.LFB27
 913 0056 00000000 		.4byte	.LEHE6-.LEHB6
 914 005a 00000000 		.4byte	0
 915 005e 00       		.byte	0
 916              		.text
 918              		.align	2
 919              		.globl	_Z11threadTest2v
 921              	_Z11threadTest2v:
 922              	.LFB28:
  79:src/Tests.cpp ****     Thread* idleThread = new Thread(&idle, 0);
 923              		.loc 2 79 1 is_stmt 1
 924              		.cfi_startproc
 925              		.cfi_personality 0x9b,DW.ref.__gxx_personality_v0
 926              		.cfi_lsda 0x1b,.LLSDA28
 927 0464 130101FE 		addi	sp,sp,-32
 928              		.cfi_def_cfa_offset 32
 929 0468 233C1100 		sd	ra,24(sp)
 930 046c 23388100 		sd	s0,16(sp)
 931 0470 23349100 		sd	s1,8(sp)
 932 0474 23302101 		sd	s2,0(sp)
 933              		.cfi_offset 1, -8
 934              		.cfi_offset 8, -16
 935              		.cfi_offset 9, -24
 936              		.cfi_offset 18, -32
 937 0478 13040102 		addi	s0,sp,32
 938              		.cfi_def_cfa 8, 0
  80:src/Tests.cpp ****     idleThread->start();
 939              		.loc 2 80 5
  80:src/Tests.cpp ****     idleThread->start();
 940              		.loc 2 80 45 is_stmt 0
 941 047c 13050001 		li	a0,16
 942              	.LEHB7:
GAS LISTING /tmp/ccocfciK.s 			page 30


 943 0480 97000000 		call	_Znwm@plt
 943      E7800000 
 944              	.LVL86:
 945              	.LEHE7:
 946 0488 93040500 		mv	s1,a0
 947 048c 13060000 		li	a2,0
 948 0490 97050000 		lla	a1,_Z4idlePv
 948      93850500 
 949              	.LEHB8:
 950 0498 97000000 		call	_ZN6ThreadC1EPFvPvES0_@plt
 950      E7800000 
 951              	.LVL87:
 952              	.LEHE8:
  81:src/Tests.cpp ****     Thread* t1 = new Thread(&thread1Function, 0);
 953              		.loc 2 81 5 is_stmt 1 discriminator 2
  81:src/Tests.cpp ****     Thread* t1 = new Thread(&thread1Function, 0);
 954              		.loc 2 81 22 is_stmt 0 discriminator 2
 955 04a0 13850400 		mv	a0,s1
 956              	.LEHB9:
 957 04a4 97000000 		call	_ZN6Thread5startEv@plt
 957      E7800000 
 958              	.LVL88:
  82:src/Tests.cpp ****     t1->start();
 959              		.loc 2 82 5 is_stmt 1 discriminator 2
  82:src/Tests.cpp ****     t1->start();
 960              		.loc 2 82 48 is_stmt 0 discriminator 2
 961 04ac 13050001 		li	a0,16
 962 04b0 97000000 		call	_Znwm@plt
 962      E7800000 
 963              	.LVL89:
 964              	.LEHE9:
 965 04b8 93040500 		mv	s1,a0
 966              	.LVL90:
 967 04bc 13060000 		li	a2,0
 968 04c0 97050000 		lla	a1,_Z15thread1FunctionPv
 968      93850500 
 969              	.LEHB10:
 970 04c8 97000000 		call	_ZN6ThreadC1EPFvPvES0_@plt
 970      E7800000 
 971              	.LVL91:
 972              	.LEHE10:
  83:src/Tests.cpp ****     Thread* t2  = new Thread(&thread2FunctionTest2, 0);
 973              		.loc 2 83 5 is_stmt 1 discriminator 2
  83:src/Tests.cpp ****     Thread* t2  = new Thread(&thread2FunctionTest2, 0);
 974              		.loc 2 83 14 is_stmt 0 discriminator 2
 975 04d0 13850400 		mv	a0,s1
 976              	.LEHB11:
 977 04d4 97000000 		call	_ZN6Thread5startEv@plt
 977      E7800000 
 978              	.LVL92:
  84:src/Tests.cpp ****     t2->start();
 979              		.loc 2 84 5 is_stmt 1 discriminator 2
  84:src/Tests.cpp ****     t2->start();
 980              		.loc 2 84 54 is_stmt 0 discriminator 2
 981 04dc 13050001 		li	a0,16
 982 04e0 97000000 		call	_Znwm@plt
 982      E7800000 
GAS LISTING /tmp/ccocfciK.s 			page 31


 983              	.LVL93:
 984              	.LEHE11:
 985 04e8 93040500 		mv	s1,a0
 986              	.LVL94:
 987 04ec 13060000 		li	a2,0
 988 04f0 97050000 		lla	a1,_Z20thread2FunctionTest2Pv
 988      93850500 
 989              	.LEHB12:
 990 04f8 97000000 		call	_ZN6ThreadC1EPFvPvES0_@plt
 990      E7800000 
 991              	.LVL95:
 992              	.LEHE12:
  85:src/Tests.cpp **** 
 993              		.loc 2 85 5 is_stmt 1 discriminator 2
  85:src/Tests.cpp **** 
 994              		.loc 2 85 14 is_stmt 0 discriminator 2
 995 0500 13850400 		mv	a0,s1
 996              	.LEHB13:
 997 0504 97000000 		call	_ZN6Thread5startEv@plt
 997      E7800000 
 998              	.LVL96:
  87:src/Tests.cpp **** 
 999              		.loc 2 87 5 is_stmt 1 discriminator 2
  87:src/Tests.cpp **** 
 1000              		.loc 2 87 28 is_stmt 0 discriminator 2
 1001 050c 97000000 		call	_ZN5Riscv16enableInterruptsEv@plt
 1001      E7800000 
 1002              	.LVL97:
  91:src/Tests.cpp **** 
 1003              		.loc 2 91 5 is_stmt 1 discriminator 2
  91:src/Tests.cpp **** 
 1004              		.loc 2 91 23 is_stmt 0 discriminator 2
 1005 0514 17050000 		lla	a0,.LC6
 1005      13050500 
 1006 051c 97000000 		call	_ZN5Riscv11printStringEPKc@plt
 1006      E7800000 
 1007              	.LVL98:
  93:src/Tests.cpp **** }
 1008              		.loc 2 93 5 is_stmt 1 discriminator 2
  93:src/Tests.cpp **** }
 1009              		.loc 2 93 29 is_stmt 0 discriminator 2
 1010 0524 97000000 		call	_ZN5Riscv17disableInterruptsEv@plt
 1010      E7800000 
 1011              	.LVL99:
 1012              	.LEHE13:
  94:src/Tests.cpp **** 
 1013              		.loc 2 94 1 discriminator 2
 1014 052c 83308101 		ld	ra,24(sp)
 1015              		.cfi_remember_state
 1016              		.cfi_restore 1
 1017 0530 03340101 		ld	s0,16(sp)
 1018              		.cfi_restore 8
 1019              		.cfi_def_cfa 2, 32
 1020 0534 83348100 		ld	s1,8(sp)
 1021              		.cfi_restore 9
 1022              	.LVL100:
 1023 0538 03390100 		ld	s2,0(sp)
GAS LISTING /tmp/ccocfciK.s 			page 32


 1024              		.cfi_restore 18
 1025 053c 13010102 		addi	sp,sp,32
 1026              		.cfi_def_cfa_offset 0
 1027 0540 67800000 		jr	ra
 1028              	.L69:
 1029              		.cfi_restore_state
 1030 0544 13090500 		mv	s2,a0
  80:src/Tests.cpp ****     idleThread->start();
 1031              		.loc 2 80 45
 1032 0548 13850400 		mv	a0,s1
 1033 054c 97000000 		call	_ZdlPv@plt
 1033      E7800000 
 1034              	.LVL101:
 1035 0554 13050900 		mv	a0,s2
 1036              	.LEHB14:
 1037 0558 97000000 		call	_Unwind_Resume@plt
 1037      E7800000 
 1038              	.LVL102:
 1039              	.LEHE14:
 1040              	.L70:
 1041 0560 13090500 		mv	s2,a0
  82:src/Tests.cpp ****     t1->start();
 1042              		.loc 2 82 48
 1043 0564 13850400 		mv	a0,s1
 1044 0568 97000000 		call	_ZdlPv@plt
 1044      E7800000 
 1045              	.LVL103:
 1046 0570 13050900 		mv	a0,s2
 1047              	.LEHB15:
 1048 0574 97000000 		call	_Unwind_Resume@plt
 1048      E7800000 
 1049              	.LVL104:
 1050              	.LEHE15:
 1051              	.L71:
 1052 057c 13090500 		mv	s2,a0
  84:src/Tests.cpp ****     t2->start();
 1053              		.loc 2 84 54
 1054 0580 13850400 		mv	a0,s1
 1055 0584 97000000 		call	_ZdlPv@plt
 1055      E7800000 
 1056              	.LVL105:
 1057 058c 13050900 		mv	a0,s2
 1058              	.LEHB16:
 1059 0590 97000000 		call	_Unwind_Resume@plt
 1059      E7800000 
 1060              	.LVL106:
 1061              	.LEHE16:
 1062              		.cfi_endproc
 1063              	.LFE28:
 1064              		.section	.gcc_except_table
 1065              	.LLSDA28:
 1066 005f FF       		.byte	0xff
 1067 0060 FF       		.byte	0xff
 1068 0061 03       		.byte	0x3
 1069 0062 8201     		.byte	0x82,0x1
 1070 0064 00000000 		.4byte	.LEHB7-.LFB28
 1071 0068 00000000 		.4byte	.LEHE7-.LEHB7
GAS LISTING /tmp/ccocfciK.s 			page 33


 1072 006c 00000000 		.4byte	0
 1073 0070 00       		.byte	0
 1074 0071 00000000 		.4byte	.LEHB8-.LFB28
 1075 0075 00000000 		.4byte	.LEHE8-.LEHB8
 1076 0079 00000000 		.4byte	.L69-.LFB28
 1077 007d 00       		.byte	0
 1078 007e 00000000 		.4byte	.LEHB9-.LFB28
 1079 0082 00000000 		.4byte	.LEHE9-.LEHB9
 1080 0086 00000000 		.4byte	0
 1081 008a 00       		.byte	0
 1082 008b 00000000 		.4byte	.LEHB10-.LFB28
 1083 008f 00000000 		.4byte	.LEHE10-.LEHB10
 1084 0093 00000000 		.4byte	.L70-.LFB28
 1085 0097 00       		.byte	0
 1086 0098 00000000 		.4byte	.LEHB11-.LFB28
 1087 009c 00000000 		.4byte	.LEHE11-.LEHB11
 1088 00a0 00000000 		.4byte	0
 1089 00a4 00       		.byte	0
 1090 00a5 00000000 		.4byte	.LEHB12-.LFB28
 1091 00a9 00000000 		.4byte	.LEHE12-.LEHB12
 1092 00ad 00000000 		.4byte	.L71-.LFB28
 1093 00b1 00       		.byte	0
 1094 00b2 00000000 		.4byte	.LEHB13-.LFB28
 1095 00b6 00000000 		.4byte	.LEHE13-.LEHB13
 1096 00ba 00000000 		.4byte	0
 1097 00be 00       		.byte	0
 1098 00bf 00000000 		.4byte	.LEHB14-.LFB28
 1099 00c3 00000000 		.4byte	.LEHE14-.LEHB14
 1100 00c7 00000000 		.4byte	0
 1101 00cb 00       		.byte	0
 1102 00cc 00000000 		.4byte	.LEHB15-.LFB28
 1103 00d0 00000000 		.4byte	.LEHE15-.LEHB15
 1104 00d4 00000000 		.4byte	0
 1105 00d8 00       		.byte	0
 1106 00d9 00000000 		.4byte	.LEHB16-.LFB28
 1107 00dd 00000000 		.4byte	.LEHE16-.LEHB16
 1108 00e1 00000000 		.4byte	0
 1109 00e5 00       		.byte	0
 1110              		.text
 1112              		.section	.rodata.str1.8
 1113              		.align	3
 1114              	.LC7:
 1115 0058 6D616C6C 		.string	"mallocFree\n"
 1115      6F634672 
 1115      65650A00 
 1116 0064 00000000 		.align	3
 1117              	.LC8:
 1118 0068 6E6F7420 		.string	"not OK\n"
 1118      4F4B0A00 
 1119              		.align	3
 1120              	.LC9:
 1121 0070 4F4B0A00 		.string	"OK\n"
 1122              		.text
 1123              		.align	2
 1124              		.globl	_Z10mallocFreev
 1126              	_Z10mallocFreev:
 1127              	.LFB31:
GAS LISTING /tmp/ccocfciK.s 			page 34


 117:src/Tests.cpp ****     Riscv::printString("mallocFree\n");
 1128              		.loc 2 117 1 is_stmt 1
 1129              		.cfi_startproc
 1130 0598 130101CC 		addi	sp,sp,-832
 1131              		.cfi_def_cfa_offset 832
 1132 059c 233C1132 		sd	ra,824(sp)
 1133 05a0 23388132 		sd	s0,816(sp)
 1134 05a4 23349132 		sd	s1,808(sp)
 1135              		.cfi_offset 1, -8
 1136              		.cfi_offset 8, -16
 1137              		.cfi_offset 9, -24
 1138 05a8 13040134 		addi	s0,sp,832
 1139              		.cfi_def_cfa 8, 0
 118:src/Tests.cpp ****     constexpr int num = 100;
 1140              		.loc 2 118 5
 118:src/Tests.cpp ****     constexpr int num = 100;
 1141              		.loc 2 118 23 is_stmt 0
 1142 05ac 17050000 		lla	a0,.LC7
 1142      13050500 
 1143 05b4 97000000 		call	_ZN5Riscv11printStringEPKc@plt
 1143      E7800000 
 1144              	.LVL107:
 1145              	.LBB26:
 121:src/Tests.cpp ****     {
 1146              		.loc 2 121 13
 1147 05bc 93040000 		li	s1,0
 1148 05c0 6F008000 		j	.L78
 1149              	.LVL108:
 1150              	.L76:
 121:src/Tests.cpp ****     {
 1151              		.loc 2 121 5 is_stmt 1 discriminator 2
 1152 05c4 9B841400 		addiw	s1,s1,1
 1153              	.LVL109:
 1154              	.L78:
 121:src/Tests.cpp ****     {
 1155              		.loc 2 121 22 discriminator 1
 1156 05c8 93073006 		li	a5,99
 1157 05cc 63C49704 		bgt	s1,a5,.L86
 123:src/Tests.cpp ****         if(addrs[i] == 0)
 1158              		.loc 2 123 9
 123:src/Tests.cpp ****         if(addrs[i] == 0)
 1159              		.loc 2 123 29 is_stmt 0
 1160 05d0 13054006 		li	a0,100
 1161 05d4 97000000 		call	mem_alloc@plt
 1161      E7800000 
 1162              	.LVL110:
 123:src/Tests.cpp ****         if(addrs[i] == 0)
 1163              		.loc 2 123 18
 1164 05dc 93973400 		slli	a5,s1,3
 1165 05e0 130704FE 		addi	a4,s0,-32
 1166 05e4 B307F700 		add	a5,a4,a5
 1167 05e8 23B0A7CE 		sd	a0,-800(a5)
 124:src/Tests.cpp ****         {
 1168              		.loc 2 124 9 is_stmt 1
 1169 05ec E31C05FC 		bnez	a0,.L76
 126:src/Tests.cpp ****             return;
 1170              		.loc 2 126 13
GAS LISTING /tmp/ccocfciK.s 			page 35


 126:src/Tests.cpp ****             return;
 1171              		.loc 2 126 31 is_stmt 0
 1172 05f0 17050000 		lla	a0,.LC8
 1172      13050500 
 1173 05f8 97000000 		call	_ZN5Riscv11printStringEPKc@plt
 1173      E7800000 
 1174              	.LVL111:
 127:src/Tests.cpp ****         }
 1175              		.loc 2 127 13 is_stmt 1
 1176              	.L74:
 1177              	.LBE26:
 163:src/Tests.cpp **** void bigMalloc()
 1178              		.loc 2 163 1 is_stmt 0
 1179 0600 83308133 		ld	ra,824(sp)
 1180              		.cfi_remember_state
 1181              		.cfi_restore 1
 1182 0604 03340133 		ld	s0,816(sp)
 1183              		.cfi_restore 8
 1184              		.cfi_def_cfa 2, 832
 1185 0608 83348132 		ld	s1,808(sp)
 1186              		.cfi_restore 9
 1187 060c 13010134 		addi	sp,sp,832
 1188              		.cfi_def_cfa_offset 0
 1189 0610 67800000 		jr	ra
 1190              	.LVL112:
 1191              	.L86:
 1192              		.cfi_restore_state
 1193              	.LBB27:
 132:src/Tests.cpp ****     {
 1194              		.loc 2 132 13
 1195 0614 93040000 		li	s1,0
 1196              	.LVL113:
 1197              	.L75:
 132:src/Tests.cpp ****     {
 1198              		.loc 2 132 23 is_stmt 1 discriminator 1
 1199 0618 93073006 		li	a5,99
 1200 061c 63CE9702 		bgt	s1,a5,.L87
 1201              	.LBB28:
 134:src/Tests.cpp ****         if(retval != 0)
 1202              		.loc 2 134 9
 134:src/Tests.cpp ****         if(retval != 0)
 1203              		.loc 2 134 30 is_stmt 0
 1204 0620 93973400 		slli	a5,s1,3
 1205 0624 130704FE 		addi	a4,s0,-32
 1206 0628 B307F700 		add	a5,a4,a5
 1207 062c 03B507CE 		ld	a0,-800(a5)
 1208 0630 97000000 		call	mem_free@plt
 1208      E7800000 
 1209              	.LVL114:
 135:src/Tests.cpp ****         {
 1210              		.loc 2 135 9 is_stmt 1
 1211 0638 63160500 		bnez	a0,.L90
 1212              	.LBE28:
 132:src/Tests.cpp ****     {
 1213              		.loc 2 132 5 discriminator 2
 132:src/Tests.cpp ****     {
 1214              		.loc 2 132 30 is_stmt 0 discriminator 2
GAS LISTING /tmp/ccocfciK.s 			page 36


 1215 063c 9B842400 		addiw	s1,s1,2
 1216              	.LVL115:
 132:src/Tests.cpp ****     {
 1217              		.loc 2 132 5 discriminator 2
 1218 0640 6FF09FFD 		j	.L75
 1219              	.LVL116:
 1220              	.L90:
 1221              	.LBB29:
 137:src/Tests.cpp ****             return;
 1222              		.loc 2 137 13 is_stmt 1
 137:src/Tests.cpp ****             return;
 1223              		.loc 2 137 31 is_stmt 0
 1224 0644 17050000 		lla	a0,.LC8
 1224      13050500 
 1225              	.LVL117:
 1226 064c 97000000 		call	_ZN5Riscv11printStringEPKc@plt
 1226      E7800000 
 1227              	.LVL118:
 138:src/Tests.cpp ****         }
 1228              		.loc 2 138 13 is_stmt 1
 1229 0654 6FF0DFFA 		j	.L74
 1230              	.L87:
 1231              	.LBE29:
 1232              	.LBE27:
 1233              	.LBB30:
 142:src/Tests.cpp ****     {
 1234              		.loc 2 142 13 is_stmt 0
 1235 0658 93040000 		li	s1,0
 1236              	.LVL119:
 1237 065c 6F008000 		j	.L79
 1238              	.LVL120:
 1239              	.L82:
 142:src/Tests.cpp ****     {
 1240              		.loc 2 142 5 is_stmt 1 discriminator 2
 142:src/Tests.cpp ****     {
 1241              		.loc 2 142 30 is_stmt 0 discriminator 2
 1242 0660 9B842400 		addiw	s1,s1,2
 1243              	.LVL121:
 1244              	.L79:
 142:src/Tests.cpp ****     {
 1245              		.loc 2 142 23 is_stmt 1 discriminator 1
 1246 0664 93073006 		li	a5,99
 1247 0668 63CC9702 		bgt	s1,a5,.L88
 144:src/Tests.cpp ****         if(addrs[i] == 0)
 1248              		.loc 2 144 9
 144:src/Tests.cpp ****         if(addrs[i] == 0)
 1249              		.loc 2 144 29 is_stmt 0
 1250 066c 13054001 		li	a0,20
 1251 0670 97000000 		call	mem_alloc@plt
 1251      E7800000 
 1252              	.LVL122:
 144:src/Tests.cpp ****         if(addrs[i] == 0)
 1253              		.loc 2 144 18
 1254 0678 93973400 		slli	a5,s1,3
 1255 067c 130704FE 		addi	a4,s0,-32
 1256 0680 B307F700 		add	a5,a4,a5
 1257 0684 23B0A7CE 		sd	a0,-800(a5)
GAS LISTING /tmp/ccocfciK.s 			page 37


 145:src/Tests.cpp ****         {
 1258              		.loc 2 145 9 is_stmt 1
 1259 0688 E31C05FC 		bnez	a0,.L82
 147:src/Tests.cpp ****             return;
 1260              		.loc 2 147 13
 147:src/Tests.cpp ****             return;
 1261              		.loc 2 147 31 is_stmt 0
 1262 068c 17050000 		lla	a0,.LC8
 1262      13050500 
 1263 0694 97000000 		call	_ZN5Riscv11printStringEPKc@plt
 1263      E7800000 
 1264              	.LVL123:
 148:src/Tests.cpp ****         }
 1265              		.loc 2 148 13 is_stmt 1
 1266 069c 6FF05FF6 		j	.L74
 1267              	.L88:
 1268              	.LBE30:
 1269              	.LBB31:
 152:src/Tests.cpp ****     {
 1270              		.loc 2 152 13 is_stmt 0
 1271 06a0 93040000 		li	s1,0
 1272              	.LVL124:
 1273              	.L81:
 152:src/Tests.cpp ****     {
 1274              		.loc 2 152 22 is_stmt 1 discriminator 1
 1275 06a4 93073006 		li	a5,99
 1276 06a8 63CE9702 		bgt	s1,a5,.L83
 1277              	.LBB32:
 154:src/Tests.cpp ****         if(retval != 0)
 1278              		.loc 2 154 9
 154:src/Tests.cpp ****         if(retval != 0)
 1279              		.loc 2 154 30 is_stmt 0
 1280 06ac 93973400 		slli	a5,s1,3
 1281 06b0 130704FE 		addi	a4,s0,-32
 1282 06b4 B307F700 		add	a5,a4,a5
 1283 06b8 03B507CE 		ld	a0,-800(a5)
 1284 06bc 97000000 		call	mem_free@plt
 1284      E7800000 
 1285              	.LVL125:
 155:src/Tests.cpp ****         {
 1286              		.loc 2 155 9 is_stmt 1
 1287 06c4 63160500 		bnez	a0,.L91
 1288              	.LBE32:
 152:src/Tests.cpp ****     {
 1289              		.loc 2 152 5 discriminator 2
 1290 06c8 9B841400 		addiw	s1,s1,1
 1291              	.LVL126:
 1292 06cc 6FF09FFD 		j	.L81
 1293              	.LVL127:
 1294              	.L91:
 1295              	.LBB33:
 157:src/Tests.cpp ****             return;
 1296              		.loc 2 157 13
 157:src/Tests.cpp ****             return;
 1297              		.loc 2 157 31 is_stmt 0
 1298 06d0 17050000 		lla	a0,.LC8
 1298      13050500 
GAS LISTING /tmp/ccocfciK.s 			page 38


 1299              	.LVL128:
 1300 06d8 97000000 		call	_ZN5Riscv11printStringEPKc@plt
 1300      E7800000 
 1301              	.LVL129:
 158:src/Tests.cpp ****         }
 1302              		.loc 2 158 13 is_stmt 1
 1303 06e0 6FF01FF2 		j	.L74
 1304              	.L83:
 1305              	.LBE33:
 1306              	.LBE31:
 162:src/Tests.cpp **** }
 1307              		.loc 2 162 5
 162:src/Tests.cpp **** }
 1308              		.loc 2 162 23 is_stmt 0
 1309 06e4 17050000 		lla	a0,.LC9
 1309      13050500 
 1310 06ec 97000000 		call	_ZN5Riscv11printStringEPKc@plt
 1310      E7800000 
 1311              	.LVL130:
 1312 06f4 6FF0DFF0 		j	.L74
 1313              		.cfi_endproc
 1314              	.LFE31:
 1316              		.section	.rodata.str1.8
 1317 0074 00000000 		.align	3
 1318              	.LC10:
 1319 0078 6269674D 		.string	"bigMalloc\n"
 1319      616C6C6F 
 1319      630A00
 1320              		.text
 1321              		.align	2
 1322              		.globl	_Z9bigMallocv
 1324              	_Z9bigMallocv:
 1325              	.LFB32:
 165:src/Tests.cpp ****     Riscv::printString("bigMalloc\n");
 1326              		.loc 2 165 1 is_stmt 1
 1327              		.cfi_startproc
 1328 06f8 130101FF 		addi	sp,sp,-16
 1329              		.cfi_def_cfa_offset 16
 1330 06fc 23341100 		sd	ra,8(sp)
 1331 0700 23308100 		sd	s0,0(sp)
 1332              		.cfi_offset 1, -8
 1333              		.cfi_offset 8, -16
 1334 0704 13040101 		addi	s0,sp,16
 1335              		.cfi_def_cfa 8, 0
 166:src/Tests.cpp ****     uint64 x = (uint64)HEAP_END_ADDR - (uint64)HEAP_START_ADDR + 100UL;
 1336              		.loc 2 166 5
 166:src/Tests.cpp ****     uint64 x = (uint64)HEAP_END_ADDR - (uint64)HEAP_START_ADDR + 100UL;
 1337              		.loc 2 166 23 is_stmt 0
 1338 0708 17050000 		lla	a0,.LC10
 1338      13050500 
 1339 0710 97000000 		call	_ZN5Riscv11printStringEPKc@plt
 1339      E7800000 
 1340              	.LVL131:
 167:src/Tests.cpp ****     void* p = mem_alloc(x);
 1341              		.loc 2 167 5 is_stmt 1
 167:src/Tests.cpp ****     void* p = mem_alloc(x);
 1342              		.loc 2 167 38 is_stmt 0
GAS LISTING /tmp/ccocfciK.s 			page 39


 1343 0718 97070000 		la	a5,HEAP_END_ADDR
 1343      83B70700 
 1344 0720 03B50700 		ld	a0,0(a5)
 1345 0724 97070000 		la	a5,HEAP_START_ADDR
 1345      83B70700 
 1346 072c 83B70700 		ld	a5,0(a5)
 1347 0730 3305F540 		sub	a0,a0,a5
 1348              	.LVL132:
 168:src/Tests.cpp ****     if(p == 0)
 1349              		.loc 2 168 5 is_stmt 1
 168:src/Tests.cpp ****     if(p == 0)
 1350              		.loc 2 168 24 is_stmt 0
 1351 0734 13054506 		addi	a0,a0,100
 1352              	.LVL133:
 1353 0738 97000000 		call	mem_alloc@plt
 1353      E7800000 
 1354              	.LVL134:
 169:src/Tests.cpp ****         Riscv::printString("OK\n");
 1355              		.loc 2 169 5 is_stmt 1
 1356 0740 63020502 		beqz	a0,.L96
 172:src/Tests.cpp **** }
 1357              		.loc 2 172 9
 172:src/Tests.cpp **** }
 1358              		.loc 2 172 27 is_stmt 0
 1359 0744 17050000 		lla	a0,.LC8
 1359      13050500 
 1360              	.LVL135:
 1361 074c 97000000 		call	_ZN5Riscv11printStringEPKc@plt
 1361      E7800000 
 1362              	.LVL136:
 1363              	.L92:
 173:src/Tests.cpp **** 
 1364              		.loc 2 173 1
 1365 0754 83308100 		ld	ra,8(sp)
 1366              		.cfi_remember_state
 1367              		.cfi_restore 1
 1368 0758 03340100 		ld	s0,0(sp)
 1369              		.cfi_restore 8
 1370              		.cfi_def_cfa 2, 16
 1371 075c 13010101 		addi	sp,sp,16
 1372              		.cfi_def_cfa_offset 0
 1373 0760 67800000 		jr	ra
 1374              	.LVL137:
 1375              	.L96:
 1376              		.cfi_restore_state
 170:src/Tests.cpp ****     else
 1377              		.loc 2 170 9 is_stmt 1
 170:src/Tests.cpp ****     else
 1378              		.loc 2 170 27 is_stmt 0
 1379 0764 17050000 		lla	a0,.LC9
 1379      13050500 
 1380              	.LVL138:
 1381 076c 97000000 		call	_ZN5Riscv11printStringEPKc@plt
 1381      E7800000 
 1382              	.LVL139:
 1383 0774 6FF01FFE 		j	.L92
 1384              		.cfi_endproc
GAS LISTING /tmp/ccocfciK.s 			page 40


 1385              	.LFE32:
 1387              		.section	.rodata.str1.8
 1388 0083 00000000 		.align	3
 1388      00
 1389              	.LC11:
 1390 0088 6C6F744F 		.string	"lotOfSmallMallocs\n"
 1390      66536D61 
 1390      6C6C4D61 
 1390      6C6C6F63 
 1390      730A00
 1391              		.text
 1392              		.align	2
 1393              		.globl	_Z17lotOfSmallMallocsv
 1395              	_Z17lotOfSmallMallocsv:
 1396              	.LFB33:
 176:src/Tests.cpp ****     Riscv::printString("lotOfSmallMallocs\n");
 1397              		.loc 2 176 1 is_stmt 1
 1398              		.cfi_startproc
 1399 0778 130101FD 		addi	sp,sp,-48
 1400              		.cfi_def_cfa_offset 48
 1401 077c 23341102 		sd	ra,40(sp)
 1402 0780 23308102 		sd	s0,32(sp)
 1403 0784 233C9100 		sd	s1,24(sp)
 1404 0788 23382101 		sd	s2,16(sp)
 1405 078c 23343101 		sd	s3,8(sp)
 1406              		.cfi_offset 1, -8
 1407              		.cfi_offset 8, -16
 1408              		.cfi_offset 9, -24
 1409              		.cfi_offset 18, -32
 1410              		.cfi_offset 19, -40
 1411 0790 13040103 		addi	s0,sp,48
 1412              		.cfi_def_cfa 8, 0
 177:src/Tests.cpp ****     uint64 cnt = 0;
 1413              		.loc 2 177 5
 177:src/Tests.cpp ****     uint64 cnt = 0;
 1414              		.loc 2 177 23 is_stmt 0
 1415 0794 17050000 		lla	a0,.LC11
 1415      13050500 
 1416 079c 97000000 		call	_ZN5Riscv11printStringEPKc@plt
 1416      E7800000 
 1417              	.LVL140:
 178:src/Tests.cpp ****     uint64 sum = 0;
 1418              		.loc 2 178 5 is_stmt 1
 179:src/Tests.cpp ****     uint64 N = 10000UL;
 1419              		.loc 2 179 5
 180:src/Tests.cpp ****     uint64 X = 10UL;
 1420              		.loc 2 180 5
 181:src/Tests.cpp ****     for(uint64 i = 0; i < N;i++)
 1421              		.loc 2 181 5
 182:src/Tests.cpp ****     {
 1422              		.loc 2 182 5
 1423              	.LBB34:
 182:src/Tests.cpp ****     {
 1424              		.loc 2 182 16 is_stmt 0
 1425 07a4 93040000 		li	s1,0
 1426              	.LBE34:
 179:src/Tests.cpp ****     uint64 N = 10000UL;
GAS LISTING /tmp/ccocfciK.s 			page 41


 1427              		.loc 2 179 12
 1428 07a8 93090000 		li	s3,0
 178:src/Tests.cpp ****     uint64 sum = 0;
 1429              		.loc 2 178 12
 1430 07ac 13090000 		li	s2,0
 1431 07b0 6F008001 		j	.L99
 1432              	.LVL141:
 1433              	.L103:
 1434              	.LBB37:
 1435              	.LBB35:
 187:src/Tests.cpp ****         sum+=t->a;
 1436              		.loc 2 187 9 is_stmt 1 discriminator 2
 187:src/Tests.cpp ****         sum+=t->a;
 1437              		.loc 2 187 14 is_stmt 0 discriminator 2
 1438 07b4 9307A000 		li	a5,10
 1439 07b8 2330F500 		sd	a5,0(a0)
 188:src/Tests.cpp ****         cnt++;
 1440              		.loc 2 188 9 is_stmt 1 discriminator 2
 188:src/Tests.cpp ****         cnt++;
 1441              		.loc 2 188 12 is_stmt 0 discriminator 2
 1442 07bc 9389A900 		addi	s3,s3,10
 1443              	.LVL142:
 189:src/Tests.cpp ****     }
 1444              		.loc 2 189 9 is_stmt 1 discriminator 2
 189:src/Tests.cpp ****     }
 1445              		.loc 2 189 12 is_stmt 0 discriminator 2
 1446 07c0 13091900 		addi	s2,s2,1
 1447              	.LVL143:
 1448              	.LBE35:
 182:src/Tests.cpp ****     {
 1449              		.loc 2 182 5 is_stmt 1 discriminator 2
 1450 07c4 93841400 		addi	s1,s1,1
 1451              	.LVL144:
 1452              	.L99:
 182:src/Tests.cpp ****     {
 1453              		.loc 2 182 25 discriminator 1
 1454 07c8 B7270000 		li	a5,8192
 1455 07cc 9387F770 		addi	a5,a5,1807
 1456 07d0 63EA9700 		bgtu	s1,a5,.L98
 1457              	.LBB36:
 184:src/Tests.cpp ****         if(t == 0)
 1458              		.loc 2 184 9
 184:src/Tests.cpp ****         if(t == 0)
 1459              		.loc 2 184 35 is_stmt 0
 1460 07d4 13058000 		li	a0,8
 1461 07d8 97000000 		call	mem_alloc@plt
 1461      E7800000 
 1462              	.LVL145:
 185:src/Tests.cpp ****             break;
 1463              		.loc 2 185 9 is_stmt 1
 1464 07e0 E31A05FC 		bnez	a0,.L103
 1465              	.LVL146:
 1466              	.L98:
 1467              	.LBE36:
 1468              	.LBE37:
 191:src/Tests.cpp ****     Riscv::printString("\n");
 1469              		.loc 2 191 5
GAS LISTING /tmp/ccocfciK.s 			page 42


 191:src/Tests.cpp ****     Riscv::printString("\n");
 1470              		.loc 2 191 24 is_stmt 0
 1471 07e4 13050900 		mv	a0,s2
 1472 07e8 97000000 		call	_ZN5Riscv12printIntegerEm@plt
 1472      E7800000 
 1473              	.LVL147:
 192:src/Tests.cpp ****     if(sum == X*cnt)
 1474              		.loc 2 192 5 is_stmt 1
 192:src/Tests.cpp ****     if(sum == X*cnt)
 1475              		.loc 2 192 23 is_stmt 0
 1476 07f0 17050000 		lla	a0,.LC3
 1476      13050500 
 1477 07f8 97000000 		call	_ZN5Riscv11printStringEPKc@plt
 1477      E7800000 
 1478              	.LVL148:
 193:src/Tests.cpp ****         Riscv::printString("OK\n");
 1479              		.loc 2 193 5 is_stmt 1
 193:src/Tests.cpp ****         Riscv::printString("OK\n");
 1480              		.loc 2 193 16 is_stmt 0
 1481 0800 93172900 		slli	a5,s2,2
 1482 0804 33892701 		add	s2,a5,s2
 1483              	.LVL149:
 1484 0808 13191900 		slli	s2,s2,1
 193:src/Tests.cpp ****         Riscv::printString("OK\n");
 1485              		.loc 2 193 5
 1486 080c 63083903 		beq	s2,s3,.L104
 196:src/Tests.cpp **** }
 1487              		.loc 2 196 9 is_stmt 1
 196:src/Tests.cpp **** }
 1488              		.loc 2 196 27 is_stmt 0
 1489 0810 17050000 		lla	a0,.LC8
 1489      13050500 
 1490 0818 97000000 		call	_ZN5Riscv11printStringEPKc@plt
 1490      E7800000 
 1491              	.LVL150:
 1492              	.L97:
 197:src/Tests.cpp **** void badFree()
 1493              		.loc 2 197 1
 1494 0820 83308102 		ld	ra,40(sp)
 1495              		.cfi_remember_state
 1496              		.cfi_restore 1
 1497 0824 03340102 		ld	s0,32(sp)
 1498              		.cfi_restore 8
 1499              		.cfi_def_cfa 2, 48
 1500 0828 83348101 		ld	s1,24(sp)
 1501              		.cfi_restore 9
 1502              	.LVL151:
 1503 082c 03390101 		ld	s2,16(sp)
 1504              		.cfi_restore 18
 1505 0830 83398100 		ld	s3,8(sp)
 1506              		.cfi_restore 19
 1507              	.LVL152:
 1508 0834 13010103 		addi	sp,sp,48
 1509              		.cfi_def_cfa_offset 0
 1510 0838 67800000 		jr	ra
 1511              	.LVL153:
 1512              	.L104:
GAS LISTING /tmp/ccocfciK.s 			page 43


 1513              		.cfi_restore_state
 194:src/Tests.cpp ****     else
 1514              		.loc 2 194 9 is_stmt 1
 194:src/Tests.cpp ****     else
 1515              		.loc 2 194 27 is_stmt 0
 1516 083c 17050000 		lla	a0,.LC9
 1516      13050500 
 1517 0844 97000000 		call	_ZN5Riscv11printStringEPKc@plt
 1517      E7800000 
 1518              	.LVL154:
 1519 084c 6FF05FFD 		j	.L97
 1520              		.cfi_endproc
 1521              	.LFE33:
 1523              		.section	.rodata.str1.8
 1524 009b 00000000 		.align	3
 1524      00
 1525              	.LC12:
 1526 00a0 62616446 		.string	"badFree\n"
 1526      7265650A 
 1526      00
 1527              		.text
 1528              		.align	2
 1529              		.globl	_Z7badFreev
 1531              	_Z7badFreev:
 1532              	.LFB34:
 199:src/Tests.cpp ****     Riscv::printString("badFree\n");
 1533              		.loc 2 199 1 is_stmt 1
 1534              		.cfi_startproc
 1535 0850 130101FF 		addi	sp,sp,-16
 1536              		.cfi_def_cfa_offset 16
 1537 0854 23341100 		sd	ra,8(sp)
 1538 0858 23308100 		sd	s0,0(sp)
 1539              		.cfi_offset 1, -8
 1540              		.cfi_offset 8, -16
 1541 085c 13040101 		addi	s0,sp,16
 1542              		.cfi_def_cfa 8, 0
 200:src/Tests.cpp ****     Test* t = (Test*)mem_alloc(sizeof(Test));
 1543              		.loc 2 200 5
 200:src/Tests.cpp ****     Test* t = (Test*)mem_alloc(sizeof(Test));
 1544              		.loc 2 200 23 is_stmt 0
 1545 0860 17050000 		lla	a0,.LC12
 1545      13050500 
 1546 0868 97000000 		call	_ZN5Riscv11printStringEPKc@plt
 1546      E7800000 
 1547              	.LVL155:
 201:src/Tests.cpp ****     uint64 retval = mem_free((char*)t + 2);
 1548              		.loc 2 201 5 is_stmt 1
 201:src/Tests.cpp ****     uint64 retval = mem_free((char*)t + 2);
 1549              		.loc 2 201 31 is_stmt 0
 1550 0870 13058000 		li	a0,8
 1551 0874 97000000 		call	mem_alloc@plt
 1551      E7800000 
 1552              	.LVL156:
 202:src/Tests.cpp ****     if(retval == 0)
 1553              		.loc 2 202 5 is_stmt 1
 202:src/Tests.cpp ****     if(retval == 0)
 1554              		.loc 2 202 29 is_stmt 0
GAS LISTING /tmp/ccocfciK.s 			page 44


 1555 087c 13052500 		addi	a0,a0,2
 1556              	.LVL157:
 1557 0880 97000000 		call	mem_free@plt
 1557      E7800000 
 1558              	.LVL158:
 203:src/Tests.cpp ****         Riscv::printString("not OK\n");
 1559              		.loc 2 203 5 is_stmt 1
 1560 0888 63120502 		bnez	a0,.L106
 204:src/Tests.cpp ****     else
 1561              		.loc 2 204 9
 204:src/Tests.cpp ****     else
 1562              		.loc 2 204 27 is_stmt 0
 1563 088c 17050000 		lla	a0,.LC8
 1563      13050500 
 1564              	.LVL159:
 1565 0894 97000000 		call	_ZN5Riscv11printStringEPKc@plt
 1565      E7800000 
 1566              	.LVL160:
 1567              	.L105:
 207:src/Tests.cpp **** 
 1568              		.loc 2 207 1
 1569 089c 83308100 		ld	ra,8(sp)
 1570              		.cfi_remember_state
 1571              		.cfi_restore 1
 1572 08a0 03340100 		ld	s0,0(sp)
 1573              		.cfi_restore 8
 1574              		.cfi_def_cfa 2, 16
 1575 08a4 13010101 		addi	sp,sp,16
 1576              		.cfi_def_cfa_offset 0
 1577 08a8 67800000 		jr	ra
 1578              	.LVL161:
 1579              	.L106:
 1580              		.cfi_restore_state
 206:src/Tests.cpp **** }
 1581              		.loc 2 206 9 is_stmt 1
 206:src/Tests.cpp **** }
 1582              		.loc 2 206 27 is_stmt 0
 1583 08ac 17050000 		lla	a0,.LC9
 1583      13050500 
 1584              	.LVL162:
 1585 08b4 97000000 		call	_ZN5Riscv11printStringEPKc@plt
 1585      E7800000 
 1586              	.LVL163:
 207:src/Tests.cpp **** 
 1587              		.loc 2 207 1
 1588 08bc 6FF01FFE 		j	.L105
 1589              		.cfi_endproc
 1590              	.LFE34:
 1592              		.section	.rodata.str1.8
 1593 00a9 00000000 		.align	3
 1593      000000
 1594              	.LC13:
 1595 00b0 73747265 		.string	"stressTesting\n"
 1595      73735465 
 1595      7374696E 
 1595      670A00
 1596 00bf 00       		.align	3
GAS LISTING /tmp/ccocfciK.s 			page 45


 1597              	.LC14:
 1598 00c0 6E6F7420 		.string	"not Ok\n"
 1598      4F6B0A00 
 1599              		.text
 1600              		.align	2
 1601              		.globl	_Z13stressTestingv
 1603              	_Z13stressTestingv:
 1604              	.LFB35:
 210:src/Tests.cpp ****     Riscv::printString("stressTesting\n");
 1605              		.loc 2 210 1 is_stmt 1
 1606              		.cfi_startproc
 1607 08c0 130101CC 		addi	sp,sp,-832
 1608              		.cfi_def_cfa_offset 832
 1609 08c4 233C1132 		sd	ra,824(sp)
 1610 08c8 23388132 		sd	s0,816(sp)
 1611 08cc 23349132 		sd	s1,808(sp)
 1612 08d0 23302133 		sd	s2,800(sp)
 1613              		.cfi_offset 1, -8
 1614              		.cfi_offset 8, -16
 1615              		.cfi_offset 9, -24
 1616              		.cfi_offset 18, -32
 1617 08d4 13040134 		addi	s0,sp,832
 1618              		.cfi_def_cfa 8, 0
 211:src/Tests.cpp ****     constexpr int num = 100;
 1619              		.loc 2 211 5
 211:src/Tests.cpp ****     constexpr int num = 100;
 1620              		.loc 2 211 23 is_stmt 0
 1621 08d8 17050000 		lla	a0,.LC13
 1621      13050500 
 1622 08e0 97000000 		call	_ZN5Riscv11printStringEPKc@plt
 1622      E7800000 
 1623              	.LVL164:
 1624              	.LBB38:
 214:src/Tests.cpp ****     {
 1625              		.loc 2 214 13
 1626 08e8 93040000 		li	s1,0
 1627 08ec 6F008000 		j	.L113
 1628              	.LVL165:
 1629              	.L111:
 214:src/Tests.cpp ****     {
 1630              		.loc 2 214 5 is_stmt 1 discriminator 2
 1631 08f0 9B841400 		addiw	s1,s1,1
 1632              	.LVL166:
 1633              	.L113:
 214:src/Tests.cpp ****     {
 1634              		.loc 2 214 22 discriminator 1
 1635 08f4 93073006 		li	a5,99
 1636 08f8 63C69704 		bgt	s1,a5,.L123
 216:src/Tests.cpp ****         if(addrs[i] == 0)
 1637              		.loc 2 216 9
 216:src/Tests.cpp ****         if(addrs[i] == 0)
 1638              		.loc 2 216 29 is_stmt 0
 1639 08fc 13051000 		li	a0,1
 1640 0900 97000000 		call	mem_alloc@plt
 1640      E7800000 
 1641              	.LVL167:
 216:src/Tests.cpp ****         if(addrs[i] == 0)
GAS LISTING /tmp/ccocfciK.s 			page 46


 1642              		.loc 2 216 18
 1643 0908 93973400 		slli	a5,s1,3
 1644 090c 130704FE 		addi	a4,s0,-32
 1645 0910 B307F700 		add	a5,a4,a5
 1646 0914 23B0A7CE 		sd	a0,-800(a5)
 217:src/Tests.cpp ****         {
 1647              		.loc 2 217 9 is_stmt 1
 1648 0918 E31C05FC 		bnez	a0,.L111
 219:src/Tests.cpp ****             return;
 1649              		.loc 2 219 13
 219:src/Tests.cpp ****             return;
 1650              		.loc 2 219 31 is_stmt 0
 1651 091c 17050000 		lla	a0,.LC8
 1651      13050500 
 1652 0924 97000000 		call	_ZN5Riscv11printStringEPKc@plt
 1652      E7800000 
 1653              	.LVL168:
 220:src/Tests.cpp ****         }
 1654              		.loc 2 220 13 is_stmt 1
 1655              	.L109:
 1656              	.LBE38:
 264:src/Tests.cpp **** 
 1657              		.loc 2 264 1 is_stmt 0
 1658 092c 83308133 		ld	ra,824(sp)
 1659              		.cfi_remember_state
 1660              		.cfi_restore 1
 1661 0930 03340133 		ld	s0,816(sp)
 1662              		.cfi_restore 8
 1663              		.cfi_def_cfa 2, 832
 1664 0934 83348132 		ld	s1,808(sp)
 1665              		.cfi_restore 9
 1666 0938 03390132 		ld	s2,800(sp)
 1667              		.cfi_restore 18
 1668 093c 13010134 		addi	sp,sp,832
 1669              		.cfi_def_cfa_offset 0
 1670 0940 67800000 		jr	ra
 1671              	.LVL169:
 1672              	.L123:
 1673              		.cfi_restore_state
 224:src/Tests.cpp ****     while(sz > 0)
 1674              		.loc 2 224 9
 1675 0944 1309C012 		li	s2,300
 1676              	.LVL170:
 1677              	.L110:
 225:src/Tests.cpp ****     {
 1678              		.loc 2 225 5 is_stmt 1
 225:src/Tests.cpp ****     {
 1679              		.loc 2 225 14
 1680 0948 63522011 		blez	s2,.L114
 1681              	.LBB39:
 1682              	.LBB40:
 227:src/Tests.cpp ****         {
 1683              		.loc 2 227 17 is_stmt 0
 1684 094c 93040000 		li	s1,0
 1685              	.L118:
 1686              	.LVL171:
 227:src/Tests.cpp ****         {
GAS LISTING /tmp/ccocfciK.s 			page 47


 1687              		.loc 2 227 27 is_stmt 1 discriminator 1
 1688 0950 93073006 		li	a5,99
 1689 0954 63CC9706 		bgt	s1,a5,.L124
 1690              	.LBB41:
 229:src/Tests.cpp ****             if(retval != 0)
 1691              		.loc 2 229 13
 229:src/Tests.cpp ****             if(retval != 0)
 1692              		.loc 2 229 34 is_stmt 0
 1693 0958 93973400 		slli	a5,s1,3
 1694 095c 130704FE 		addi	a4,s0,-32
 1695 0960 B307F700 		add	a5,a4,a5
 1696 0964 03B507CE 		ld	a0,-800(a5)
 1697 0968 97000000 		call	mem_free@plt
 1697      E7800000 
 1698              	.LVL172:
 230:src/Tests.cpp ****             {
 1699              		.loc 2 230 13 is_stmt 1
 1700 0970 631A0502 		bnez	a0,.L126
 235:src/Tests.cpp ****             if(addrs[i] == 0)
 1701              		.loc 2 235 13
 235:src/Tests.cpp ****             if(addrs[i] == 0)
 1702              		.loc 2 235 36 is_stmt 0
 1703 0974 1B55F901 		srliw	a0,s2,31
 1704              	.LVL173:
 1705 0978 3B052501 		addw	a0,a0,s2
 235:src/Tests.cpp ****             if(addrs[i] == 0)
 1706              		.loc 2 235 33
 1707 097c 1B551540 		sraiw	a0,a0,1
 1708 0980 97000000 		call	mem_alloc@plt
 1708      E7800000 
 1709              	.LVL174:
 235:src/Tests.cpp ****             if(addrs[i] == 0)
 1710              		.loc 2 235 22
 1711 0988 93973400 		slli	a5,s1,3
 1712 098c 130704FE 		addi	a4,s0,-32
 1713 0990 B307F700 		add	a5,a4,a5
 1714 0994 23B0A7CE 		sd	a0,-800(a5)
 236:src/Tests.cpp ****             {
 1715              		.loc 2 236 13 is_stmt 1
 1716 0998 63000502 		beqz	a0,.L127
 1717              	.LBE41:
 227:src/Tests.cpp ****         {
 1718              		.loc 2 227 9 discriminator 2
 227:src/Tests.cpp ****         {
 1719              		.loc 2 227 34 is_stmt 0 discriminator 2
 1720 099c 9B842400 		addiw	s1,s1,2
 1721              	.LVL175:
 227:src/Tests.cpp ****         {
 1722              		.loc 2 227 9 discriminator 2
 1723 09a0 6FF01FFB 		j	.L118
 1724              	.LVL176:
 1725              	.L126:
 1726              	.LBB42:
 232:src/Tests.cpp ****                 return;
 1727              		.loc 2 232 17 is_stmt 1
 232:src/Tests.cpp ****                 return;
 1728              		.loc 2 232 35 is_stmt 0
GAS LISTING /tmp/ccocfciK.s 			page 48


 1729 09a4 17050000 		lla	a0,.LC8
 1729      13050500 
 1730              	.LVL177:
 1731 09ac 97000000 		call	_ZN5Riscv11printStringEPKc@plt
 1731      E7800000 
 1732              	.LVL178:
 233:src/Tests.cpp ****             }
 1733              		.loc 2 233 17 is_stmt 1
 1734 09b4 6FF09FF7 		j	.L109
 1735              	.L127:
 238:src/Tests.cpp ****                 return;
 1736              		.loc 2 238 17
 238:src/Tests.cpp ****                 return;
 1737              		.loc 2 238 35 is_stmt 0
 1738 09b8 17050000 		lla	a0,.LC14
 1738      13050500 
 1739 09c0 97000000 		call	_ZN5Riscv11printStringEPKc@plt
 1739      E7800000 
 1740              	.LVL179:
 239:src/Tests.cpp ****             }
 1741              		.loc 2 239 17 is_stmt 1
 1742 09c8 6FF05FF6 		j	.L109
 1743              	.L124:
 1744              	.LBE42:
 1745              	.LBE40:
 1746              	.LBB43:
 244:src/Tests.cpp ****         {
 1747              		.loc 2 244 17 is_stmt 0
 1748 09cc 93041000 		li	s1,1
 1749              	.LVL180:
 1750              	.L115:
 244:src/Tests.cpp ****         {
 1751              		.loc 2 244 27 is_stmt 1 discriminator 1
 1752 09d0 93073006 		li	a5,99
 1753 09d4 63C89706 		bgt	s1,a5,.L119
 1754              	.LBB44:
 246:src/Tests.cpp ****             if(retval != 0)
 1755              		.loc 2 246 13
 246:src/Tests.cpp ****             if(retval != 0)
 1756              		.loc 2 246 34 is_stmt 0
 1757 09d8 93973400 		slli	a5,s1,3
 1758 09dc 130704FE 		addi	a4,s0,-32
 1759 09e0 B307F700 		add	a5,a4,a5
 1760 09e4 03B507CE 		ld	a0,-800(a5)
 1761 09e8 97000000 		call	mem_free@plt
 1761      E7800000 
 1762              	.LVL181:
 247:src/Tests.cpp ****             {
 1763              		.loc 2 247 13 is_stmt 1
 1764 09f0 63160502 		bnez	a0,.L128
 252:src/Tests.cpp ****             if(addrs[i] == 0)
 1765              		.loc 2 252 13
 252:src/Tests.cpp ****             if(addrs[i] == 0)
 1766              		.loc 2 252 33 is_stmt 0
 1767 09f4 13050900 		mv	a0,s2
 1768              	.LVL182:
 1769 09f8 97000000 		call	mem_alloc@plt
GAS LISTING /tmp/ccocfciK.s 			page 49


 1769      E7800000 
 1770              	.LVL183:
 252:src/Tests.cpp ****             if(addrs[i] == 0)
 1771              		.loc 2 252 22
 1772 0a00 93973400 		slli	a5,s1,3
 1773 0a04 130704FE 		addi	a4,s0,-32
 1774 0a08 B307F700 		add	a5,a4,a5
 1775 0a0c 23B0A7CE 		sd	a0,-800(a5)
 253:src/Tests.cpp ****             {
 1776              		.loc 2 253 13 is_stmt 1
 1777 0a10 63000502 		beqz	a0,.L129
 1778              	.LBE44:
 244:src/Tests.cpp ****         {
 1779              		.loc 2 244 9 discriminator 2
 244:src/Tests.cpp ****         {
 1780              		.loc 2 244 34 is_stmt 0 discriminator 2
 1781 0a14 9B842400 		addiw	s1,s1,2
 1782              	.LVL184:
 244:src/Tests.cpp ****         {
 1783              		.loc 2 244 9 discriminator 2
 1784 0a18 6FF09FFB 		j	.L115
 1785              	.LVL185:
 1786              	.L128:
 1787              	.LBB45:
 249:src/Tests.cpp ****                 return;
 1788              		.loc 2 249 17 is_stmt 1
 249:src/Tests.cpp ****                 return;
 1789              		.loc 2 249 35 is_stmt 0
 1790 0a1c 17050000 		lla	a0,.LC8
 1790      13050500 
 1791              	.LVL186:
 1792 0a24 97000000 		call	_ZN5Riscv11printStringEPKc@plt
 1792      E7800000 
 1793              	.LVL187:
 250:src/Tests.cpp ****             }
 1794              		.loc 2 250 17 is_stmt 1
 1795 0a2c 6FF01FF0 		j	.L109
 1796              	.L129:
 255:src/Tests.cpp ****                 return;
 1797              		.loc 2 255 17
 255:src/Tests.cpp ****                 return;
 1798              		.loc 2 255 35 is_stmt 0
 1799 0a30 17050000 		lla	a0,.LC14
 1799      13050500 
 1800 0a38 97000000 		call	_ZN5Riscv11printStringEPKc@plt
 1800      E7800000 
 1801              	.LVL188:
 256:src/Tests.cpp ****             }
 1802              		.loc 2 256 17 is_stmt 1
 1803 0a40 6FF0DFEE 		j	.L109
 1804              	.L119:
 1805              	.LBE45:
 1806              	.LBE43:
 260:src/Tests.cpp ****     }
 1807              		.loc 2 260 9
 260:src/Tests.cpp ****     }
 1808              		.loc 2 260 11 is_stmt 0
GAS LISTING /tmp/ccocfciK.s 			page 50


 1809 0a44 1B0969FF 		addiw	s2,s2,-10
 1810              	.LVL189:
 1811              	.LBE39:
 225:src/Tests.cpp ****     {
 1812              		.loc 2 225 5
 1813 0a48 6FF01FF0 		j	.L110
 1814              	.LVL190:
 1815              	.L114:
 263:src/Tests.cpp **** }
 1816              		.loc 2 263 5 is_stmt 1
 263:src/Tests.cpp **** }
 1817              		.loc 2 263 23 is_stmt 0
 1818 0a4c 17050000 		lla	a0,.LC9
 1818      13050500 
 1819 0a54 97000000 		call	_ZN5Riscv11printStringEPKc@plt
 1819      E7800000 
 1820              	.LVL191:
 1821 0a5c 6FF01FED 		j	.L109
 1822              		.cfi_endproc
 1823              	.LFE35:
 1825              		.align	2
 1826              		.globl	_ZN12TestPeriodicC2Em
 1828              	_ZN12TestPeriodicC2Em:
 1829              	.LFB44:
 290:src/Tests.cpp **** 
 1830              		.loc 2 290 1 is_stmt 1
 1831              		.cfi_startproc
 1832              	.LVL192:
 1833 0a60 130101FE 		addi	sp,sp,-32
 1834              		.cfi_def_cfa_offset 32
 1835 0a64 233C1100 		sd	ra,24(sp)
 1836 0a68 23388100 		sd	s0,16(sp)
 1837 0a6c 23349100 		sd	s1,8(sp)
 1838              		.cfi_offset 1, -8
 1839              		.cfi_offset 8, -16
 1840              		.cfi_offset 9, -24
 1841 0a70 13040102 		addi	s0,sp,32
 1842              		.cfi_def_cfa 8, 0
 1843 0a74 93040500 		mv	s1,a0
 1844              	.LBB46:
 290:src/Tests.cpp **** 
 1845              		.loc 2 290 62 is_stmt 0
 1846 0a78 97000000 		call	_ZN14PeriodicThreadC2Em@plt
 1846      E7800000 
 1847              	.LVL193:
 1848 0a80 97070000 		lla	a5,_ZTV12TestPeriodic+16
 1848      93870700 
 1849 0a88 23B0F400 		sd	a5,0(s1)
 1850              	.LBE46:
 292:src/Tests.cpp **** 
 1851              		.loc 2 292 1
 1852 0a8c 83308101 		ld	ra,24(sp)
 1853              		.cfi_restore 1
 1854 0a90 03340101 		ld	s0,16(sp)
 1855              		.cfi_restore 8
 1856              		.cfi_def_cfa 2, 32
 1857 0a94 83348100 		ld	s1,8(sp)
GAS LISTING /tmp/ccocfciK.s 			page 51


 1858              		.cfi_restore 9
 1859              	.LVL194:
 1860 0a98 13010102 		addi	sp,sp,32
 1861              		.cfi_def_cfa_offset 0
 1862 0a9c 67800000 		jr	ra
 1863              		.cfi_endproc
 1864              	.LFE44:
 1866              		.globl	_ZN12TestPeriodicC1Em
 1867              		.set	_ZN12TestPeriodicC1Em,_ZN12TestPeriodicC2Em
 1868              		.align	2
 1869              		.globl	_Z11threadTest3v
 1871              	_Z11threadTest3v:
 1872              	.LFB29:
  98:src/Tests.cpp ****     Thread* t = new TestPeriodic(50);
 1873              		.loc 2 98 1 is_stmt 1
 1874              		.cfi_startproc
 1875              		.cfi_personality 0x9b,DW.ref.__gxx_personality_v0
 1876              		.cfi_lsda 0x1b,.LLSDA29
 1877 0aa0 130101FE 		addi	sp,sp,-32
 1878              		.cfi_def_cfa_offset 32
 1879 0aa4 233C1100 		sd	ra,24(sp)
 1880 0aa8 23388100 		sd	s0,16(sp)
 1881 0aac 23349100 		sd	s1,8(sp)
 1882 0ab0 23302101 		sd	s2,0(sp)
 1883              		.cfi_offset 1, -8
 1884              		.cfi_offset 8, -16
 1885              		.cfi_offset 9, -24
 1886              		.cfi_offset 18, -32
 1887 0ab4 13040102 		addi	s0,sp,32
 1888              		.cfi_def_cfa 8, 0
  99:src/Tests.cpp ****     t->start();
 1889              		.loc 2 99 5
  99:src/Tests.cpp ****     t->start();
 1890              		.loc 2 99 36 is_stmt 0
 1891 0ab8 13050001 		li	a0,16
 1892              	.LEHB17:
 1893 0abc 97000000 		call	_Znwm@plt
 1893      E7800000 
 1894              	.LVL195:
 1895              	.LEHE17:
 1896 0ac4 13090500 		mv	s2,a0
 1897 0ac8 93052003 		li	a1,50
 1898              	.LEHB18:
 1899 0acc 97000000 		call	_ZN12TestPeriodicC1Em
 1899      E7800000 
 1900              	.LVL196:
 1901              	.LEHE18:
 100:src/Tests.cpp ****     while(true)
 1902              		.loc 2 100 5 is_stmt 1 discriminator 2
 100:src/Tests.cpp ****     while(true)
 1903              		.loc 2 100 13 is_stmt 0 discriminator 2
 1904 0ad4 13050900 		mv	a0,s2
 1905              	.LEHB19:
 1906 0ad8 97000000 		call	_ZN6Thread5startEv@plt
 1906      E7800000 
 1907              	.LVL197:
 1908              	.LEHE19:
GAS LISTING /tmp/ccocfciK.s 			page 52


 1909              	.L133:
 101:src/Tests.cpp ****     {
 1910              		.loc 2 101 5 is_stmt 1 discriminator 1
 101:src/Tests.cpp ****     {
 1911              		.loc 2 101 5 discriminator 1
 1912 0ae0 6F000000 		j	.L133
 1913              	.LVL198:
 1914              	.L135:
 1915 0ae4 93040500 		mv	s1,a0
  99:src/Tests.cpp ****     t->start();
 1916              		.loc 2 99 36 is_stmt 0
 1917 0ae8 13050900 		mv	a0,s2
 1918 0aec 97000000 		call	_ZdlPv@plt
 1918      E7800000 
 1919              	.LVL199:
 1920 0af4 13850400 		mv	a0,s1
 1921              	.LEHB20:
 1922 0af8 97000000 		call	_Unwind_Resume@plt
 1922      E7800000 
 1923              	.LVL200:
 1924              	.LEHE20:
 1925              		.cfi_endproc
 1926              	.LFE29:
 1927              		.section	.gcc_except_table
 1928              	.LLSDA29:
 1929 00e6 FF       		.byte	0xff
 1930 00e7 FF       		.byte	0xff
 1931 00e8 03       		.byte	0x3
 1932 00e9 34       		.byte	0x34
 1933 00ea 00000000 		.4byte	.LEHB17-.LFB29
 1934 00ee 00000000 		.4byte	.LEHE17-.LEHB17
 1935 00f2 00000000 		.4byte	0
 1936 00f6 00       		.byte	0
 1937 00f7 00000000 		.4byte	.LEHB18-.LFB29
 1938 00fb 00000000 		.4byte	.LEHE18-.LEHB18
 1939 00ff 00000000 		.4byte	.L135-.LFB29
 1940 0103 00       		.byte	0
 1941 0104 00000000 		.4byte	.LEHB19-.LFB29
 1942 0108 00000000 		.4byte	.LEHE19-.LEHB19
 1943 010c 00000000 		.4byte	0
 1944 0110 00       		.byte	0
 1945 0111 00000000 		.4byte	.LEHB20-.LFB29
 1946 0115 00000000 		.4byte	.LEHE20-.LEHB20
 1947 0119 00000000 		.4byte	0
 1948 011d 00       		.byte	0
 1949              		.text
 1951              		.align	2
 1952              		.globl	_Z11threadTestsv
 1954              	_Z11threadTestsv:
 1955              	.LFB30:
 108:src/Tests.cpp ****     //threadTest1();
 1956              		.loc 2 108 1 is_stmt 1
 1957              		.cfi_startproc
 1958 0b00 130101FF 		addi	sp,sp,-16
 1959              		.cfi_def_cfa_offset 16
 1960 0b04 23341100 		sd	ra,8(sp)
 1961 0b08 23308100 		sd	s0,0(sp)
GAS LISTING /tmp/ccocfciK.s 			page 53


 1962              		.cfi_offset 1, -8
 1963              		.cfi_offset 8, -16
 1964 0b0c 13040101 		addi	s0,sp,16
 1965              		.cfi_def_cfa 8, 0
 111:src/Tests.cpp **** }
 1966              		.loc 2 111 5
 111:src/Tests.cpp **** }
 1967              		.loc 2 111 16 is_stmt 0
 1968 0b10 97000000 		call	_Z11threadTest3v
 1968      E7800000 
 1969              	.LVL201:
 1970              		.cfi_endproc
 1971              	.LFE30:
 1973              		.align	2
 1974              		.globl	_Z7myTestsv
 1976              	_Z7myTestsv:
 1977              	.LFB38:
 284:src/Tests.cpp ****     //memoryAllocationTests();
 1978              		.loc 2 284 1 is_stmt 1
 1979              		.cfi_startproc
 1980 0b18 130101FF 		addi	sp,sp,-16
 1981              		.cfi_def_cfa_offset 16
 1982 0b1c 23341100 		sd	ra,8(sp)
 1983 0b20 23308100 		sd	s0,0(sp)
 1984              		.cfi_offset 1, -8
 1985              		.cfi_offset 8, -16
 1986 0b24 13040101 		addi	s0,sp,16
 1987              		.cfi_def_cfa 8, 0
 286:src/Tests.cpp ****     //semaphoreTests();
 1988              		.loc 2 286 5
 286:src/Tests.cpp ****     //semaphoreTests();
 1989              		.loc 2 286 16 is_stmt 0
 1990 0b28 97000000 		call	_Z11threadTestsv
 1990      E7800000 
 1991              	.LVL202:
 1992              		.cfi_endproc
 1993              	.LFE38:
 1995              		.section	.rodata.str1.8
 1996              		.align	3
 1997              	.LC15:
 1998 00c8 54657374 		.string	"Testing a few mallocs and frees\n\n"
 1998      696E6720 
 1998      61206665 
 1998      77206D61 
 1998      6C6C6F63 
 1999 00ea 00000000 		.align	3
 1999      0000
 2000              	.LC16:
 2001 00f0 53554343 		.string	"SUCCESSFUL: Testing a few mallocs and frees\n\n"
 2001      45535346 
 2001      554C3A20 
 2001      54657374 
 2001      696E6720 
 2002              		.text
 2003              		.align	2
 2004              		.globl	_Z10mallocTestv
 2006              	_Z10mallocTestv:
GAS LISTING /tmp/ccocfciK.s 			page 54


 2007              	.LFB47:
 304:src/Tests.cpp ****     Riscv::printString("Testing a few mallocs and frees\n\n");
 2008              		.loc 2 304 1 is_stmt 1
 2009              		.cfi_startproc
 2010 0b30 130101FC 		addi	sp,sp,-64
 2011              		.cfi_def_cfa_offset 64
 2012 0b34 233C1102 		sd	ra,56(sp)
 2013 0b38 23388102 		sd	s0,48(sp)
 2014 0b3c 23349102 		sd	s1,40(sp)
 2015 0b40 23302103 		sd	s2,32(sp)
 2016 0b44 233C3101 		sd	s3,24(sp)
 2017 0b48 23384101 		sd	s4,16(sp)
 2018 0b4c 23345101 		sd	s5,8(sp)
 2019 0b50 23306101 		sd	s6,0(sp)
 2020              		.cfi_offset 1, -8
 2021              		.cfi_offset 8, -16
 2022              		.cfi_offset 9, -24
 2023              		.cfi_offset 18, -32
 2024              		.cfi_offset 19, -40
 2025              		.cfi_offset 20, -48
 2026              		.cfi_offset 21, -56
 2027              		.cfi_offset 22, -64
 2028 0b54 13040104 		addi	s0,sp,64
 2029              		.cfi_def_cfa 8, 0
 305:src/Tests.cpp **** 
 2030              		.loc 2 305 5
 305:src/Tests.cpp **** 
 2031              		.loc 2 305 23 is_stmt 0
 2032 0b58 17050000 		lla	a0,.LC15
 2032      13050500 
 2033 0b60 97000000 		call	_ZN5Riscv11printStringEPKc@plt
 2033      E7800000 
 2034              	.LVL203:
 307:src/Tests.cpp ****     o->a = 3;
 2035              		.loc 2 307 5 is_stmt 1
 307:src/Tests.cpp ****     o->a = 3;
 2036              		.loc 2 307 21 is_stmt 0
 2037 0b68 1305C002 		li	a0,44
 2038 0b6c 97000000 		call	_Znwm@plt
 2038      E7800000 
 2039              	.LVL204:
 2040 0b74 93040500 		mv	s1,a0
 2041              	.LVL205:
 308:src/Tests.cpp ****     void* m1 = mem_alloc(10);
 2042              		.loc 2 308 5 is_stmt 1
 308:src/Tests.cpp ****     void* m1 = mem_alloc(10);
 2043              		.loc 2 308 10 is_stmt 0
 2044 0b78 93073000 		li	a5,3
 2045 0b7c 2320F500 		sw	a5,0(a0)
 309:src/Tests.cpp ****     void* m2 = mem_alloc(100);
 2046              		.loc 2 309 5 is_stmt 1
 309:src/Tests.cpp ****     void* m2 = mem_alloc(100);
 2047              		.loc 2 309 25 is_stmt 0
 2048 0b80 1305A000 		li	a0,10
 2049 0b84 97000000 		call	mem_alloc@plt
 2049      E7800000 
 2050              	.LVL206:
GAS LISTING /tmp/ccocfciK.s 			page 55


 2051 0b8c 13090500 		mv	s2,a0
 2052              	.LVL207:
 310:src/Tests.cpp ****     void* m3 = mem_alloc(1000);
 2053              		.loc 2 310 5 is_stmt 1
 310:src/Tests.cpp ****     void* m3 = mem_alloc(1000);
 2054              		.loc 2 310 25 is_stmt 0
 2055 0b90 13054006 		li	a0,100
 2056              	.LVL208:
 2057 0b94 97000000 		call	mem_alloc@plt
 2057      E7800000 
 2058              	.LVL209:
 2059 0b9c 93090500 		mv	s3,a0
 2060              	.LVL210:
 311:src/Tests.cpp ****     void* m4 = mem_alloc(10000);
 2061              		.loc 2 311 5 is_stmt 1
 311:src/Tests.cpp ****     void* m4 = mem_alloc(10000);
 2062              		.loc 2 311 25 is_stmt 0
 2063 0ba0 1305803E 		li	a0,1000
 2064              	.LVL211:
 2065 0ba4 97000000 		call	mem_alloc@plt
 2065      E7800000 
 2066              	.LVL212:
 2067 0bac 130A0500 		mv	s4,a0
 2068              	.LVL213:
 312:src/Tests.cpp ****     void* m5 = mem_alloc(1);
 2069              		.loc 2 312 5 is_stmt 1
 312:src/Tests.cpp ****     void* m5 = mem_alloc(1);
 2070              		.loc 2 312 25 is_stmt 0
 2071 0bb0 37250000 		li	a0,8192
 2072              	.LVL214:
 2073 0bb4 13050571 		addi	a0,a0,1808
 2074 0bb8 97000000 		call	mem_alloc@plt
 2074      E7800000 
 2075              	.LVL215:
 2076 0bc0 930A0500 		mv	s5,a0
 2077              	.LVL216:
 313:src/Tests.cpp **** 
 2078              		.loc 2 313 5 is_stmt 1
 313:src/Tests.cpp **** 
 2079              		.loc 2 313 25 is_stmt 0
 2080 0bc4 13051000 		li	a0,1
 2081              	.LVL217:
 2082 0bc8 97000000 		call	mem_alloc@plt
 2082      E7800000 
 2083              	.LVL218:
 315:src/Tests.cpp ****         Riscv::printString("not OK\n");
 2084              		.loc 2 315 5 is_stmt 1
 2085 0bd0 630C0906 		beqz	s2,.L142
 2086 0bd4 130B0500 		mv	s6,a0
 315:src/Tests.cpp ****         Riscv::printString("not OK\n");
 2087              		.loc 2 315 12 is_stmt 0 discriminator 1
 2088 0bd8 63880906 		beqz	s3,.L142
 315:src/Tests.cpp ****         Riscv::printString("not OK\n");
 2089              		.loc 2 315 19 discriminator 2
 2090 0bdc 63060A06 		beqz	s4,.L142
 315:src/Tests.cpp ****         Riscv::printString("not OK\n");
 2091              		.loc 2 315 26 discriminator 3
GAS LISTING /tmp/ccocfciK.s 			page 56


 2092 0be0 63840A06 		beqz	s5,.L142
 315:src/Tests.cpp ****         Riscv::printString("not OK\n");
 2093              		.loc 2 315 33 discriminator 4
 2094 0be4 63020506 		beqz	a0,.L142
 320:src/Tests.cpp ****     delete (uint64*)m3;
 2095              		.loc 2 320 5 is_stmt 1 discriminator 1
 320:src/Tests.cpp ****     delete (uint64*)m3;
 2096              		.loc 2 320 21 is_stmt 0 discriminator 1
 2097 0be8 13050900 		mv	a0,s2
 2098              	.LVL219:
 2099 0bec 97000000 		call	_ZdlPv@plt
 2099      E7800000 
 2100              	.LVL220:
 321:src/Tests.cpp ****     delete (uint64*)m4;
 2101              		.loc 2 321 5 is_stmt 1 discriminator 1
 321:src/Tests.cpp ****     delete (uint64*)m4;
 2102              		.loc 2 321 21 is_stmt 0 discriminator 1
 2103 0bf4 13050A00 		mv	a0,s4
 2104 0bf8 97000000 		call	_ZdlPv@plt
 2104      E7800000 
 2105              	.LVL221:
 322:src/Tests.cpp ****     delete (uint64*)m2;
 2106              		.loc 2 322 5 is_stmt 1 discriminator 1
 322:src/Tests.cpp ****     delete (uint64*)m2;
 2107              		.loc 2 322 21 is_stmt 0 discriminator 1
 2108 0c00 13850A00 		mv	a0,s5
 2109 0c04 97000000 		call	_ZdlPv@plt
 2109      E7800000 
 2110              	.LVL222:
 323:src/Tests.cpp ****     delete (uint64*)m5;
 2111              		.loc 2 323 5 is_stmt 1 discriminator 1
 323:src/Tests.cpp ****     delete (uint64*)m5;
 2112              		.loc 2 323 21 is_stmt 0 discriminator 1
 2113 0c0c 13850900 		mv	a0,s3
 2114 0c10 97000000 		call	_ZdlPv@plt
 2114      E7800000 
 2115              	.LVL223:
 324:src/Tests.cpp ****     delete o;
 2116              		.loc 2 324 5 is_stmt 1 discriminator 1
 324:src/Tests.cpp ****     delete o;
 2117              		.loc 2 324 21 is_stmt 0 discriminator 1
 2118 0c18 13050B00 		mv	a0,s6
 2119 0c1c 97000000 		call	_ZdlPv@plt
 2119      E7800000 
 2120              	.LVL224:
 325:src/Tests.cpp **** 
 2121              		.loc 2 325 5 is_stmt 1 discriminator 1
 325:src/Tests.cpp **** 
 2122              		.loc 2 325 13 is_stmt 0 discriminator 1
 2123 0c24 63880400 		beqz	s1,.L145
 325:src/Tests.cpp **** 
 2124              		.loc 2 325 12 discriminator 1
 2125 0c28 13850400 		mv	a0,s1
 2126 0c2c 97000000 		call	_ZdlPv@plt
 2126      E7800000 
 2127              	.LVL225:
 2128              	.L145:
GAS LISTING /tmp/ccocfciK.s 			page 57


 327:src/Tests.cpp **** }
 2129              		.loc 2 327 5 is_stmt 1
 327:src/Tests.cpp **** }
 2130              		.loc 2 327 23 is_stmt 0
 2131 0c34 17050000 		lla	a0,.LC16
 2131      13050500 
 2132 0c3c 97000000 		call	_ZN5Riscv11printStringEPKc@plt
 2132      E7800000 
 2133              	.LVL226:
 2134 0c44 6F004001 		j	.L141
 2135              	.LVL227:
 2136              	.L142:
 316:src/Tests.cpp ****         return;
 2137              		.loc 2 316 9 is_stmt 1
 316:src/Tests.cpp ****         return;
 2138              		.loc 2 316 27 is_stmt 0
 2139 0c48 17050000 		lla	a0,.LC8
 2139      13050500 
 2140              	.LVL228:
 2141 0c50 97000000 		call	_ZN5Riscv11printStringEPKc@plt
 2141      E7800000 
 2142              	.LVL229:
 317:src/Tests.cpp ****     }
 2143              		.loc 2 317 9 is_stmt 1
 2144              	.L141:
 328:src/Tests.cpp **** 
 2145              		.loc 2 328 1 is_stmt 0
 2146 0c58 83308103 		ld	ra,56(sp)
 2147              		.cfi_restore 1
 2148 0c5c 03340103 		ld	s0,48(sp)
 2149              		.cfi_restore 8
 2150              		.cfi_def_cfa 2, 64
 2151 0c60 83348102 		ld	s1,40(sp)
 2152              		.cfi_restore 9
 2153              	.LVL230:
 2154 0c64 03390102 		ld	s2,32(sp)
 2155              		.cfi_restore 18
 2156              	.LVL231:
 2157 0c68 83398101 		ld	s3,24(sp)
 2158              		.cfi_restore 19
 2159              	.LVL232:
 2160 0c6c 033A0101 		ld	s4,16(sp)
 2161              		.cfi_restore 20
 2162              	.LVL233:
 2163 0c70 833A8100 		ld	s5,8(sp)
 2164              		.cfi_restore 21
 2165              	.LVL234:
 2166 0c74 033B0100 		ld	s6,0(sp)
 2167              		.cfi_restore 22
 2168 0c78 13010104 		addi	sp,sp,64
 2169              		.cfi_def_cfa_offset 0
 2170 0c7c 67800000 		jr	ra
 2171              		.cfi_endproc
 2172              	.LFE47:
 2174              		.section	.rodata.str1.8
 2175 011e 0000     		.align	3
 2176              	.LC17:
GAS LISTING /tmp/ccocfciK.s 			page 58


 2177 0120 54657374 		.string	"Testing allocating whole address space\n\n"
 2177      696E6720 
 2177      616C6C6F 
 2177      63617469 
 2177      6E672077 
 2178 0149 00000000 		.align	3
 2178      000000
 2179              	.LC18:
 2180 0150 53554343 		.string	"SUCCESSFUL: Testing allocating whole address space\n\n"
 2180      45535346 
 2180      554C3A20 
 2180      54657374 
 2180      696E6720 
 2181              		.text
 2182              		.align	2
 2183              		.globl	_Z16mallocEverythingv
 2185              	_Z16mallocEverythingv:
 2186              	.LFB48:
 331:src/Tests.cpp ****     Riscv::printString("Testing allocating whole address space\n\n");
 2187              		.loc 2 331 1 is_stmt 1
 2188              		.cfi_startproc
 2189 0c80 130101FE 		addi	sp,sp,-32
 2190              		.cfi_def_cfa_offset 32
 2191 0c84 233C1100 		sd	ra,24(sp)
 2192 0c88 23388100 		sd	s0,16(sp)
 2193 0c8c 23349100 		sd	s1,8(sp)
 2194              		.cfi_offset 1, -8
 2195              		.cfi_offset 8, -16
 2196              		.cfi_offset 9, -24
 2197 0c90 13040102 		addi	s0,sp,32
 2198              		.cfi_def_cfa 8, 0
 332:src/Tests.cpp **** 
 2199              		.loc 2 332 5
 332:src/Tests.cpp **** 
 2200              		.loc 2 332 23 is_stmt 0
 2201 0c94 17050000 		lla	a0,.LC17
 2201      13050500 
 2202 0c9c 97000000 		call	_ZN5Riscv11printStringEPKc@plt
 2202      E7800000 
 2203              	.LVL235:
 334:src/Tests.cpp **** 
 2204              		.loc 2 334 5 is_stmt 1
 334:src/Tests.cpp **** 
 2205              		.loc 2 334 47 is_stmt 0
 2206 0ca4 97070000 		la	a5,HEAP_START_ADDR
 2206      83B70700 
 2207 0cac 03B50700 		ld	a0,0(a5)
 2208 0cb0 97070000 		la	a5,HEAP_END_ADDR
 2208      83B70700 
 2209 0cb8 83B70700 		ld	a5,0(a5)
 2210 0cbc 3305F540 		sub	a0,a0,a5
 2211              	.LVL236:
 336:src/Tests.cpp **** 
 2212              		.loc 2 336 5 is_stmt 1
 336:src/Tests.cpp **** 
 2213              		.loc 2 336 24 is_stmt 0
 2214 0cc0 130505FF 		addi	a0,a0,-16
GAS LISTING /tmp/ccocfciK.s 			page 59


 2215              	.LVL237:
 2216 0cc4 97000000 		call	mem_alloc@plt
 2216      E7800000 
 2217              	.LVL238:
 338:src/Tests.cpp ****         Riscv::printString("not OK\n");
 2218              		.loc 2 338 5 is_stmt 1
 2219 0ccc 63040502 		beqz	a0,.L148
 339:src/Tests.cpp ****         return;
 2220              		.loc 2 339 9
 339:src/Tests.cpp ****         return;
 2221              		.loc 2 339 27 is_stmt 0
 2222 0cd0 17050000 		lla	a0,.LC8
 2222      13050500 
 2223              	.LVL239:
 2224 0cd8 97000000 		call	_ZN5Riscv11printStringEPKc@plt
 2224      E7800000 
 2225              	.LVL240:
 340:src/Tests.cpp ****     }
 2226              		.loc 2 340 9 is_stmt 1
 2227              	.L147:
 373:src/Tests.cpp **** 
 2228              		.loc 2 373 1 is_stmt 0
 2229 0ce0 83308101 		ld	ra,24(sp)
 2230              		.cfi_remember_state
 2231              		.cfi_restore 1
 2232 0ce4 03340101 		ld	s0,16(sp)
 2233              		.cfi_restore 8
 2234              		.cfi_def_cfa 2, 32
 2235 0ce8 83348100 		ld	s1,8(sp)
 2236              		.cfi_restore 9
 2237 0cec 13010102 		addi	sp,sp,32
 2238              		.cfi_def_cfa_offset 0
 2239 0cf0 67800000 		jr	ra
 2240              	.LVL241:
 2241              	.L148:
 2242              		.cfi_restore_state
 343:src/Tests.cpp **** 
 2243              		.loc 2 343 5 is_stmt 1
 343:src/Tests.cpp **** 
 2244              		.loc 2 343 48 is_stmt 0
 2245 0cf4 97070000 		la	a5,HEAP_END_ADDR
 2245      83B70700 
 2246 0cfc 03B50700 		ld	a0,0(a5)
 2247              	.LVL242:
 2248 0d00 97070000 		la	a5,HEAP_START_ADDR
 2248      83B70700 
 2249 0d08 83B70700 		ld	a5,0(a5)
 2250 0d0c 3305F540 		sub	a0,a0,a5
 343:src/Tests.cpp **** 
 2251              		.loc 2 343 74
 2252 0d10 130505FF 		addi	a0,a0,-16
 343:src/Tests.cpp **** 
 2253              		.loc 2 343 113
 2254 0d14 13556500 		srli	a0,a0,6
 343:src/Tests.cpp **** 
 2255              		.loc 2 343 12
 2256 0d18 130545ED 		addi	a0,a0,-300
GAS LISTING /tmp/ccocfciK.s 			page 60


 2257              	.LVL243:
 345:src/Tests.cpp **** 
 2258              		.loc 2 345 5 is_stmt 1
 345:src/Tests.cpp **** 
 2259              		.loc 2 345 18 is_stmt 0
 2260 0d1c 13156500 		slli	a0,a0,6
 2261              	.LVL244:
 2262 0d20 97000000 		call	mem_alloc@plt
 2262      E7800000 
 2263              	.LVL245:
 2264 0d28 93040500 		mv	s1,a0
 2265              	.LVL246:
 347:src/Tests.cpp ****         Riscv::printString("not OK\n");
 2266              		.loc 2 347 5 is_stmt 1
 2267 0d2c 630A0502 		beqz	a0,.L153
 362:src/Tests.cpp **** 
 2268              		.loc 2 362 5
 362:src/Tests.cpp **** 
 2269              		.loc 2 362 34 is_stmt 0
 2270 0d30 13051000 		li	a0,1
 2271 0d34 97000000 		call	mem_alloc@plt
 2271      E7800000 
 2272              	.LVL247:
 364:src/Tests.cpp ****         Riscv::printString("not OK\n");
 2273              		.loc 2 364 5 is_stmt 1
 2274 0d3c 630C0502 		beqz	a0,.L154
 369:src/Tests.cpp ****     //delete (uint64*)small_chunk;
 2275              		.loc 2 369 5 discriminator 1
 369:src/Tests.cpp ****     //delete (uint64*)small_chunk;
 2276              		.loc 2 369 21 is_stmt 0 discriminator 1
 2277 0d40 13850400 		mv	a0,s1
 2278              	.LVL248:
 2279 0d44 97000000 		call	_ZdlPv@plt
 2279      E7800000 
 2280              	.LVL249:
 372:src/Tests.cpp **** }
 2281              		.loc 2 372 5 is_stmt 1 discriminator 1
 372:src/Tests.cpp **** }
 2282              		.loc 2 372 23 is_stmt 0 discriminator 1
 2283 0d4c 17050000 		lla	a0,.LC18
 2283      13050500 
 2284 0d54 97000000 		call	_ZN5Riscv11printStringEPKc@plt
 2284      E7800000 
 2285              	.LVL250:
 2286 0d5c 6FF05FF8 		j	.L147
 2287              	.L153:
 348:src/Tests.cpp ****         return;
 2288              		.loc 2 348 9 is_stmt 1
 348:src/Tests.cpp ****         return;
 2289              		.loc 2 348 27 is_stmt 0
 2290 0d60 17050000 		lla	a0,.LC8
 2290      13050500 
 2291 0d68 97000000 		call	_ZN5Riscv11printStringEPKc@plt
 2291      E7800000 
 2292              	.LVL251:
 349:src/Tests.cpp ****     }
 2293              		.loc 2 349 9 is_stmt 1
GAS LISTING /tmp/ccocfciK.s 			page 61


 2294 0d70 6FF01FF7 		j	.L147
 2295              	.LVL252:
 2296              	.L154:
 365:src/Tests.cpp ****         return;
 2297              		.loc 2 365 9
 365:src/Tests.cpp ****         return;
 2298              		.loc 2 365 27 is_stmt 0
 2299 0d74 17050000 		lla	a0,.LC8
 2299      13050500 
 2300              	.LVL253:
 2301 0d7c 97000000 		call	_ZN5Riscv11printStringEPKc@plt
 2301      E7800000 
 2302              	.LVL254:
 366:src/Tests.cpp ****     }
 2303              		.loc 2 366 9 is_stmt 1
 2304 0d84 6FF0DFF5 		j	.L147
 2305              		.cfi_endproc
 2306              	.LFE48:
 2308              		.section	.rodata.str1.8
 2309 0185 000000   		.align	3
 2310              	.LC19:
 2311 0188 54657374 		.string	"Testing gap filling and chunk merge after multiple mallocs and frees\n\n"
 2311      696E6720 
 2311      67617020 
 2311      66696C6C 
 2311      696E6720 
 2312 01cf 00       		.align	3
 2313              	.LC20:
 2314 01d0 53554343 		.string	"SUCCESSFUL: Testing gap filling and chunk merge after multiple mallocs and frees\n\n"
 2314      45535346 
 2314      554C3A20 
 2314      54657374 
 2314      696E6720 
 2315              		.text
 2316              		.align	2
 2317              		.globl	_Z17mallocGapFillTestv
 2319              	_Z17mallocGapFillTestv:
 2320              	.LFB49:
 376:src/Tests.cpp ****     Riscv::printString("Testing gap filling and chunk merge after multiple mallocs and frees\n\n");
 2321              		.loc 2 376 1
 2322              		.cfi_startproc
 2323 0d88 130101F6 		addi	sp,sp,-160
 2324              		.cfi_def_cfa_offset 160
 2325 0d8c 233C1108 		sd	ra,152(sp)
 2326 0d90 23388108 		sd	s0,144(sp)
 2327 0d94 23349108 		sd	s1,136(sp)
 2328 0d98 23302109 		sd	s2,128(sp)
 2329 0d9c 233C3107 		sd	s3,120(sp)
 2330 0da0 23384107 		sd	s4,112(sp)
 2331 0da4 23345107 		sd	s5,104(sp)
 2332 0da8 23306107 		sd	s6,96(sp)
 2333 0dac 233C7105 		sd	s7,88(sp)
 2334 0db0 23388105 		sd	s8,80(sp)
 2335              		.cfi_offset 1, -8
 2336              		.cfi_offset 8, -16
 2337              		.cfi_offset 9, -24
 2338              		.cfi_offset 18, -32
GAS LISTING /tmp/ccocfciK.s 			page 62


 2339              		.cfi_offset 19, -40
 2340              		.cfi_offset 20, -48
 2341              		.cfi_offset 21, -56
 2342              		.cfi_offset 22, -64
 2343              		.cfi_offset 23, -72
 2344              		.cfi_offset 24, -80
 2345 0db4 1304010A 		addi	s0,sp,160
 2346              		.cfi_def_cfa 8, 0
 377:src/Tests.cpp **** 
 2347              		.loc 2 377 5
 377:src/Tests.cpp **** 
 2348              		.loc 2 377 23 is_stmt 0
 2349 0db8 17050000 		lla	a0,.LC19
 2349      13050500 
 2350 0dc0 97000000 		call	_ZN5Riscv11printStringEPKc@plt
 2350      E7800000 
 2351              	.LVL255:
 2352              	.LBB47:
 383:src/Tests.cpp ****     {
 2353              		.loc 2 383 13
 2354 0dc8 93040000 		li	s1,0
 2355              	.L159:
 2356              	.LVL256:
 383:src/Tests.cpp ****     {
 2357              		.loc 2 383 18 is_stmt 1 discriminator 1
 2358 0dcc 93079000 		li	a5,9
 2359 0dd0 63C89706 		bgt	s1,a5,.L156
 385:src/Tests.cpp ****         if(m[i] == nullptr){
 2360              		.loc 2 385 9
 385:src/Tests.cpp ****         if(m[i] == nullptr){
 2361              		.loc 2 385 28 is_stmt 0
 2362 0dd4 1B956400 		slliw	a0,s1,6
 385:src/Tests.cpp ****         if(m[i] == nullptr){
 2363              		.loc 2 385 25
 2364 0dd8 1B051500 		addiw	a0,a0,1
 2365 0ddc 97000000 		call	mem_alloc@plt
 2365      E7800000 
 2366              	.LVL257:
 385:src/Tests.cpp ****         if(m[i] == nullptr){
 2367              		.loc 2 385 14
 2368 0de4 93973400 		slli	a5,s1,3
 2369 0de8 130704FB 		addi	a4,s0,-80
 2370 0dec B307F700 		add	a5,a4,a5
 2371 0df0 23B8A7FA 		sd	a0,-80(a5)
 386:src/Tests.cpp ****             Riscv::printString("not OK\n");
 2372              		.loc 2 386 9 is_stmt 1
 2373 0df4 63060500 		beqz	a0,.L176
 383:src/Tests.cpp ****     {
 2374              		.loc 2 383 5 discriminator 2
 2375 0df8 9B841400 		addiw	s1,s1,1
 2376              	.LVL258:
 2377 0dfc 6FF01FFD 		j	.L159
 2378              	.LVL259:
 2379              	.L176:
 387:src/Tests.cpp ****             return;
 2380              		.loc 2 387 13
 387:src/Tests.cpp ****             return;
GAS LISTING /tmp/ccocfciK.s 			page 63


 2381              		.loc 2 387 31 is_stmt 0
 2382 0e00 17050000 		lla	a0,.LC8
 2382      13050500 
 2383 0e08 97000000 		call	_ZN5Riscv11printStringEPKc@plt
 2383      E7800000 
 2384              	.LVL260:
 388:src/Tests.cpp ****         }
 2385              		.loc 2 388 13 is_stmt 1
 2386              	.L155:
 2387              	.LBE47:
 449:src/Tests.cpp **** 
 2388              		.loc 2 449 1 is_stmt 0
 2389 0e10 83308109 		ld	ra,152(sp)
 2390              		.cfi_remember_state
 2391              		.cfi_restore 1
 2392 0e14 03340109 		ld	s0,144(sp)
 2393              		.cfi_restore 8
 2394              		.cfi_def_cfa 2, 160
 2395 0e18 83348108 		ld	s1,136(sp)
 2396              		.cfi_restore 9
 2397 0e1c 03390108 		ld	s2,128(sp)
 2398              		.cfi_restore 18
 2399 0e20 83398107 		ld	s3,120(sp)
 2400              		.cfi_restore 19
 2401 0e24 033A0107 		ld	s4,112(sp)
 2402              		.cfi_restore 20
 2403 0e28 833A8106 		ld	s5,104(sp)
 2404              		.cfi_restore 21
 2405 0e2c 033B0106 		ld	s6,96(sp)
 2406              		.cfi_restore 22
 2407 0e30 833B8105 		ld	s7,88(sp)
 2408              		.cfi_restore 23
 2409 0e34 033C0105 		ld	s8,80(sp)
 2410              		.cfi_restore 24
 2411 0e38 1301010A 		addi	sp,sp,160
 2412              		.cfi_def_cfa_offset 0
 2413 0e3c 67800000 		jr	ra
 2414              	.LVL261:
 2415              	.L156:
 2416              		.cfi_restore_state
 392:src/Tests.cpp **** 
 2417              		.loc 2 392 5 is_stmt 1
 392:src/Tests.cpp **** 
 2418              		.loc 2 392 24 is_stmt 0
 2419 0e40 033504F7 		ld	a0,-144(s0)
 392:src/Tests.cpp **** 
 2420              		.loc 2 392 25
 2421 0e44 63060500 		beqz	a0,.L160
 392:src/Tests.cpp **** 
 2422              		.loc 2 392 24 discriminator 1
 2423 0e48 97000000 		call	_ZdlPv@plt
 2423      E7800000 
 2424              	.LVL262:
 2425              	.L160:
 394:src/Tests.cpp ****     void* tmp2 = mem_alloc(1);
 2426              		.loc 2 394 5 is_stmt 1
 394:src/Tests.cpp ****     void* tmp2 = mem_alloc(1);
GAS LISTING /tmp/ccocfciK.s 			page 64


 2427              		.loc 2 394 27 is_stmt 0
 2428 0e50 13051000 		li	a0,1
 2429 0e54 97000000 		call	mem_alloc@plt
 2429      E7800000 
 2430              	.LVL263:
 2431 0e5c 93040500 		mv	s1,a0
 2432              	.LVL264:
 395:src/Tests.cpp ****     void* tmp3 = mem_alloc(1);
 2433              		.loc 2 395 5 is_stmt 1
 395:src/Tests.cpp ****     void* tmp3 = mem_alloc(1);
 2434              		.loc 2 395 27 is_stmt 0
 2435 0e60 13051000 		li	a0,1
 2436 0e64 97000000 		call	mem_alloc@plt
 2436      E7800000 
 2437              	.LVL265:
 2438 0e6c 13090500 		mv	s2,a0
 2439              	.LVL266:
 396:src/Tests.cpp **** 
 2440              		.loc 2 396 5 is_stmt 1
 396:src/Tests.cpp **** 
 2441              		.loc 2 396 27 is_stmt 0
 2442 0e70 13051000 		li	a0,1
 2443              	.LVL267:
 2444 0e74 97000000 		call	mem_alloc@plt
 2444      E7800000 
 2445              	.LVL268:
 2446 0e7c 93090500 		mv	s3,a0
 2447              	.LVL269:
 398:src/Tests.cpp ****     {
 2448              		.loc 2 398 5 is_stmt 1
 2449 0e80 63880408 		beqz	s1,.L161
 398:src/Tests.cpp ****     {
 2450              		.loc 2 398 14 is_stmt 0 discriminator 1
 2451 0e84 63060908 		beqz	s2,.L161
 398:src/Tests.cpp ****     {
 2452              		.loc 2 398 23 discriminator 2
 2453 0e88 63040508 		beqz	a0,.L161
 404:src/Tests.cpp ****     uint64 im3 = (uint64)m[3];
 2454              		.loc 2 404 5 is_stmt 1
 404:src/Tests.cpp ****     uint64 im3 = (uint64)m[3];
 2455              		.loc 2 404 29 is_stmt 0
 2456 0e8c 833784F6 		ld	a5,-152(s0)
 2457              	.LVL270:
 405:src/Tests.cpp ****     uint64 im5 = (uint64)m[5];
 2458              		.loc 2 405 5 is_stmt 1
 405:src/Tests.cpp ****     uint64 im5 = (uint64)m[5];
 2459              		.loc 2 405 29 is_stmt 0
 2460 0e90 033584F7 		ld	a0,-136(s0)
 2461              	.LVL271:
 406:src/Tests.cpp ****     uint64 imN = (uint64)m[N];
 2462              		.loc 2 406 5 is_stmt 1
 406:src/Tests.cpp ****     uint64 imN = (uint64)m[N];
 2463              		.loc 2 406 29 is_stmt 0
 2464 0e94 033B84F8 		ld	s6,-120(s0)
 2465              	.LVL272:
 407:src/Tests.cpp **** 
 2466              		.loc 2 407 5 is_stmt 1
GAS LISTING /tmp/ccocfciK.s 			page 65


 407:src/Tests.cpp **** 
 2467              		.loc 2 407 29 is_stmt 0
 2468 0e98 033604FB 		ld	a2,-80(s0)
 2469              	.LVL273:
 409:src/Tests.cpp ****     uint64 itmp2 = (uint64)tmp2;
 2470              		.loc 2 409 5 is_stmt 1
 410:src/Tests.cpp ****     uint64 itmp3 = (uint64)tmp3;
 2471              		.loc 2 410 5
 410:src/Tests.cpp ****     uint64 itmp3 = (uint64)tmp3;
 2472              		.loc 2 410 12 is_stmt 0
 2473 0e9c 130A0900 		mv	s4,s2
 2474              	.LVL274:
 411:src/Tests.cpp **** 
 2475              		.loc 2 411 5 is_stmt 1
 411:src/Tests.cpp **** 
 2476              		.loc 2 411 12 is_stmt 0
 2477 0ea0 938A0900 		mv	s5,s3
 2478              	.LVL275:
 413:src/Tests.cpp ****     {
 2479              		.loc 2 413 5 is_stmt 1
 2480 0ea4 63F09708 		bgeu	a5,s1,.L163
 413:src/Tests.cpp ****     {
 2481              		.loc 2 413 20 is_stmt 0 discriminator 1
 2482 0ea8 63FEA406 		bleu	a0,s1,.L163
 413:src/Tests.cpp ****     {
 2483              		.loc 2 413 33 discriminator 2
 2484 0eac 63FC2707 		bgeu	a5,s2,.L163
 413:src/Tests.cpp ****     {
 2485              		.loc 2 413 46 discriminator 3
 2486 0eb0 637AA906 		bleu	a0,s2,.L163
 413:src/Tests.cpp ****     {
 2487              		.loc 2 413 8 discriminator 4
 2488 0eb4 63783607 		bgeu	a2,s3,.L163
 419:src/Tests.cpp ****     delete (uint64*)m[4];
 2489              		.loc 2 419 5 is_stmt 1
 419:src/Tests.cpp ****     delete (uint64*)m[4];
 2490              		.loc 2 419 25 is_stmt 0
 2491 0eb8 63060500 		beqz	a0,.L165
 419:src/Tests.cpp ****     delete (uint64*)m[4];
 2492              		.loc 2 419 24 discriminator 1
 2493 0ebc 97000000 		call	_ZdlPv@plt
 2493      E7800000 
 2494              	.LVL276:
 2495              	.L165:
 420:src/Tests.cpp **** 
 2496              		.loc 2 420 5 is_stmt 1
 420:src/Tests.cpp **** 
 2497              		.loc 2 420 24 is_stmt 0
 2498 0ec4 033504F8 		ld	a0,-128(s0)
 420:src/Tests.cpp **** 
 2499              		.loc 2 420 25
 2500 0ec8 63060500 		beqz	a0,.L166
 420:src/Tests.cpp **** 
 2501              		.loc 2 420 24 discriminator 1
 2502 0ecc 97000000 		call	_ZdlPv@plt
 2502      E7800000 
 2503              	.LVL277:
GAS LISTING /tmp/ccocfciK.s 			page 66


 2504              	.L166:
 422:src/Tests.cpp ****     void* tmp5 = mem_alloc(576);
 2505              		.loc 2 422 5 is_stmt 1
 422:src/Tests.cpp ****     void* tmp5 = mem_alloc(576);
 2506              		.loc 2 422 27 is_stmt 0
 2507 0ed4 13050028 		li	a0,640
 2508 0ed8 97000000 		call	mem_alloc@plt
 2508      E7800000 
 2509              	.LVL278:
 2510 0ee0 130C0500 		mv	s8,a0
 2511              	.LVL279:
 423:src/Tests.cpp **** 
 2512              		.loc 2 423 5 is_stmt 1
 423:src/Tests.cpp **** 
 2513              		.loc 2 423 27 is_stmt 0
 2514 0ee4 13050024 		li	a0,576
 2515              	.LVL280:
 2516 0ee8 97000000 		call	mem_alloc@plt
 2516      E7800000 
 2517              	.LVL281:
 2518 0ef0 930B0500 		mv	s7,a0
 2519              	.LVL282:
 425:src/Tests.cpp ****         Riscv::printString("not OK\n");
 2520              		.loc 2 425 5 is_stmt 1
 2521 0ef4 63020C04 		beqz	s8,.L167
 425:src/Tests.cpp ****         Riscv::printString("not OK\n");
 2522              		.loc 2 425 14 is_stmt 0 discriminator 1
 2523 0ef8 63000504 		beqz	a0,.L167
 430:src/Tests.cpp ****     uint64 itmp5 = (uint64)tmp5;
 2524              		.loc 2 430 5 is_stmt 1
 2525              	.LVL283:
 431:src/Tests.cpp **** 
 2526              		.loc 2 431 5
 433:src/Tests.cpp ****         Riscv::printString("not OK\n");
 2527              		.loc 2 433 5
 2528 0efc 6378AA04 		bgeu	s4,a0,.L169
 433:src/Tests.cpp ****         Riscv::printString("not OK\n");
 2529              		.loc 2 433 22 is_stmt 0 discriminator 1
 2530 0f00 6376AB04 		bgeu	s6,a0,.L169
 433:src/Tests.cpp ****         Riscv::printString("not OK\n");
 2531              		.loc 2 433 8 discriminator 2
 2532 0f04 63745C05 		bleu	s5,s8,.L169
 2533              	.LBB48:
 438:src/Tests.cpp ****         delete (uint64*)m[i];
 2534              		.loc 2 438 13
 2535 0f08 130A0000 		li	s4,0
 2536 0f0c 6F008005 		j	.L170
 2537              	.LVL284:
 2538              	.L161:
 2539              	.LBE48:
 400:src/Tests.cpp ****         return;
 2540              		.loc 2 400 9 is_stmt 1
 400:src/Tests.cpp ****         return;
 2541              		.loc 2 400 27 is_stmt 0
 2542 0f10 17050000 		lla	a0,.LC8
 2542      13050500 
 2543              	.LVL285:
GAS LISTING /tmp/ccocfciK.s 			page 67


 2544 0f18 97000000 		call	_ZN5Riscv11printStringEPKc@plt
 2544      E7800000 
 2545              	.LVL286:
 401:src/Tests.cpp ****     }
 2546              		.loc 2 401 9 is_stmt 1
 2547 0f20 6FF01FEF 		j	.L155
 2548              	.LVL287:
 2549              	.L163:
 415:src/Tests.cpp ****         return;
 2550              		.loc 2 415 9
 415:src/Tests.cpp ****         return;
 2551              		.loc 2 415 27 is_stmt 0
 2552 0f24 17050000 		lla	a0,.LC8
 2552      13050500 
 2553              	.LVL288:
 2554 0f2c 97000000 		call	_ZN5Riscv11printStringEPKc@plt
 2554      E7800000 
 2555              	.LVL289:
 416:src/Tests.cpp ****     }
 2556              		.loc 2 416 9 is_stmt 1
 2557 0f34 6FF0DFED 		j	.L155
 2558              	.LVL290:
 2559              	.L167:
 426:src/Tests.cpp ****         return;
 2560              		.loc 2 426 9
 426:src/Tests.cpp ****         return;
 2561              		.loc 2 426 27 is_stmt 0
 2562 0f38 17050000 		lla	a0,.LC8
 2562      13050500 
 2563              	.LVL291:
 2564 0f40 97000000 		call	_ZN5Riscv11printStringEPKc@plt
 2564      E7800000 
 2565              	.LVL292:
 427:src/Tests.cpp ****     }
 2566              		.loc 2 427 9 is_stmt 1
 2567 0f48 6FF09FEC 		j	.L155
 2568              	.LVL293:
 2569              	.L169:
 434:src/Tests.cpp ****         return;
 2570              		.loc 2 434 9
 434:src/Tests.cpp ****         return;
 2571              		.loc 2 434 27 is_stmt 0
 2572 0f4c 17050000 		lla	a0,.LC8
 2572      13050500 
 2573              	.LVL294:
 2574 0f54 97000000 		call	_ZN5Riscv11printStringEPKc@plt
 2574      E7800000 
 2575              	.LVL295:
 435:src/Tests.cpp ****     }
 2576              		.loc 2 435 9 is_stmt 1
 2577 0f5c 6FF05FEB 		j	.L155
 2578              	.LVL296:
 2579              	.L172:
 2580              	.LBB49:
 438:src/Tests.cpp ****         delete (uint64*)m[i];
 2581              		.loc 2 438 5 discriminator 2
 2582 0f60 1B0A1A00 		addiw	s4,s4,1
GAS LISTING /tmp/ccocfciK.s 			page 68


 2583              	.LVL297:
 2584              	.L170:
 438:src/Tests.cpp ****         delete (uint64*)m[i];
 2585              		.loc 2 438 18 discriminator 1
 2586 0f64 93079000 		li	a5,9
 2587 0f68 63C24703 		bgt	s4,a5,.L171
 439:src/Tests.cpp ****     }
 2588              		.loc 2 439 9
 439:src/Tests.cpp ****     }
 2589              		.loc 2 439 28 is_stmt 0
 2590 0f6c 93173A00 		slli	a5,s4,3
 2591 0f70 130704FB 		addi	a4,s0,-80
 2592              	.LVL298:
 2593 0f74 B307F700 		add	a5,a4,a5
 2594 0f78 03B507FB 		ld	a0,-80(a5)
 439:src/Tests.cpp ****     }
 2595              		.loc 2 439 29
 2596 0f7c E30205FE 		beqz	a0,.L172
 439:src/Tests.cpp ****     }
 2597              		.loc 2 439 28 discriminator 1
 2598 0f80 97000000 		call	_ZdlPv@plt
 2598      E7800000 
 2599              	.LVL299:
 2600 0f88 6FF09FFD 		j	.L172
 2601              	.L171:
 2602              	.LBE49:
 442:src/Tests.cpp ****     delete (uint64*)tmp2;
 2603              		.loc 2 442 5 is_stmt 1 discriminator 1
 442:src/Tests.cpp ****     delete (uint64*)tmp2;
 2604              		.loc 2 442 21 is_stmt 0 discriminator 1
 2605 0f8c 13850400 		mv	a0,s1
 2606 0f90 97000000 		call	_ZdlPv@plt
 2606      E7800000 
 2607              	.LVL300:
 443:src/Tests.cpp ****     delete (uint64*)tmp3;
 2608              		.loc 2 443 5 is_stmt 1 discriminator 1
 443:src/Tests.cpp ****     delete (uint64*)tmp3;
 2609              		.loc 2 443 21 is_stmt 0 discriminator 1
 2610 0f98 13050900 		mv	a0,s2
 2611 0f9c 97000000 		call	_ZdlPv@plt
 2611      E7800000 
 2612              	.LVL301:
 444:src/Tests.cpp ****     delete (uint64*)tmp4;
 2613              		.loc 2 444 5 is_stmt 1 discriminator 1
 444:src/Tests.cpp ****     delete (uint64*)tmp4;
 2614              		.loc 2 444 21 is_stmt 0 discriminator 1
 2615 0fa4 13850900 		mv	a0,s3
 2616 0fa8 97000000 		call	_ZdlPv@plt
 2616      E7800000 
 2617              	.LVL302:
 445:src/Tests.cpp ****     delete (uint64*)tmp5;
 2618              		.loc 2 445 5 is_stmt 1 discriminator 1
 445:src/Tests.cpp ****     delete (uint64*)tmp5;
 2619              		.loc 2 445 21 is_stmt 0 discriminator 1
 2620 0fb0 13050C00 		mv	a0,s8
 2621 0fb4 97000000 		call	_ZdlPv@plt
 2621      E7800000 
GAS LISTING /tmp/ccocfciK.s 			page 69


 2622              	.LVL303:
 446:src/Tests.cpp **** 
 2623              		.loc 2 446 5 is_stmt 1 discriminator 1
 446:src/Tests.cpp **** 
 2624              		.loc 2 446 21 is_stmt 0 discriminator 1
 2625 0fbc 13850B00 		mv	a0,s7
 2626 0fc0 97000000 		call	_ZdlPv@plt
 2626      E7800000 
 2627              	.LVL304:
 448:src/Tests.cpp **** }
 2628              		.loc 2 448 5 is_stmt 1 discriminator 1
 448:src/Tests.cpp **** }
 2629              		.loc 2 448 23 is_stmt 0 discriminator 1
 2630 0fc8 17050000 		lla	a0,.LC20
 2630      13050500 
 2631 0fd0 97000000 		call	_ZN5Riscv11printStringEPKc@plt
 2631      E7800000 
 2632              	.LVL305:
 2633 0fd8 6FF09FE3 		j	.L155
 2634              		.cfi_endproc
 2635              	.LFE49:
 2637              		.align	2
 2638              		.globl	_Z21memoryAllocationTestsv
 2640              	_Z21memoryAllocationTestsv:
 2641              	.LFB36:
 267:src/Tests.cpp ****     //bigMalloc();
 2642              		.loc 2 267 1 is_stmt 1
 2643              		.cfi_startproc
 2644 0fdc 130101FF 		addi	sp,sp,-16
 2645              		.cfi_def_cfa_offset 16
 2646 0fe0 23341100 		sd	ra,8(sp)
 2647 0fe4 23308100 		sd	s0,0(sp)
 2648              		.cfi_offset 1, -8
 2649              		.cfi_offset 8, -16
 2650 0fe8 13040101 		addi	s0,sp,16
 2651              		.cfi_def_cfa 8, 0
 275:src/Tests.cpp **** }
 2652              		.loc 2 275 5
 275:src/Tests.cpp **** }
 2653              		.loc 2 275 22 is_stmt 0
 2654 0fec 97000000 		call	_Z17mallocGapFillTestv
 2654      E7800000 
 2655              	.LVL306:
 276:src/Tests.cpp **** 
 2656              		.loc 2 276 1
 2657 0ff4 83308100 		ld	ra,8(sp)
 2658              		.cfi_restore 1
 2659 0ff8 03340100 		ld	s0,0(sp)
 2660              		.cfi_restore 8
 2661              		.cfi_def_cfa 2, 16
 2662 0ffc 13010101 		addi	sp,sp,16
 2663              		.cfi_def_cfa_offset 0
 2664 1000 67800000 		jr	ra
 2665              		.cfi_endproc
 2666              	.LFE36:
 2668              		.align	2
 2669              		.globl	_Z8semTest1v
GAS LISTING /tmp/ccocfciK.s 			page 70


 2671              	_Z8semTest1v:
 2672              	.LFB52:
 476:src/Tests.cpp **** 
 477:src/Tests.cpp **** void semTest1()
 478:src/Tests.cpp **** {
 2673              		.loc 2 478 1 is_stmt 1
 2674              		.cfi_startproc
 2675 1004 130101FE 		addi	sp,sp,-32
 2676              		.cfi_def_cfa_offset 32
 2677 1008 233C1100 		sd	ra,24(sp)
 2678 100c 23388100 		sd	s0,16(sp)
 2679              		.cfi_offset 1, -8
 2680              		.cfi_offset 8, -16
 2681 1010 13040102 		addi	s0,sp,32
 2682              		.cfi_def_cfa 8, 0
 479:src/Tests.cpp ****     sem_open(&spaceAvailable, 10);
 2683              		.loc 2 479 5
 2684              		.loc 2 479 13 is_stmt 0
 2685 1014 9305A000 		li	a1,10
 2686 1018 17050000 		lla	a0,.LANCHOR0+32
 2686      13050500 
 2687 1020 97000000 		call	sem_open@plt
 2687      E7800000 
 2688              	.LVL307:
 480:src/Tests.cpp **** 
 481:src/Tests.cpp ****     sem_open(&itemAvailable, 0);
 2689              		.loc 2 481 5 is_stmt 1
 2690              		.loc 2 481 13 is_stmt 0
 2691 1028 93050000 		li	a1,0
 2692 102c 17050000 		lla	a0,.LANCHOR0+8
 2692      13050500 
 2693 1034 97000000 		call	sem_open@plt
 2693      E7800000 
 2694              	.LVL308:
 482:src/Tests.cpp **** 
 483:src/Tests.cpp ****     thread_t threadA, threadB;
 2695              		.loc 2 483 5 is_stmt 1
 484:src/Tests.cpp **** 
 485:src/Tests.cpp ****     thread_create(&threadA, producerA, nullptr);
 2696              		.loc 2 485 5
 2697              		.loc 2 485 18 is_stmt 0
 2698 103c 13060000 		li	a2,0
 2699 1040 97050000 		lla	a1,_Z9producerAPv
 2699      93850500 
 2700 1048 130584FE 		addi	a0,s0,-24
 2701 104c 97000000 		call	thread_create@plt
 2701      E7800000 
 2702              	.LVL309:
 486:src/Tests.cpp **** 
 487:src/Tests.cpp ****     thread_create(&threadB, consumerA, nullptr);
 2703              		.loc 2 487 5 is_stmt 1
 2704              		.loc 2 487 18 is_stmt 0
 2705 1054 13060000 		li	a2,0
 2706 1058 97050000 		lla	a1,_Z9consumerAPv
 2706      93850500 
 2707 1060 130504FE 		addi	a0,s0,-32
 2708 1064 97000000 		call	thread_create@plt
GAS LISTING /tmp/ccocfciK.s 			page 71


 2708      E7800000 
 2709              	.LVL310:
 2710 106c 6F00C000 		j	.L182
 2711              	.L180:
 488:src/Tests.cpp **** 
 489:src/Tests.cpp ****     while(!((PCB*)threadA)->isFinished() || !((PCB*)threadA)->isFinished())
 490:src/Tests.cpp ****         thread_dispatch();
 2712              		.loc 2 490 9 is_stmt 1 discriminator 5
 2713              		.loc 2 490 24 is_stmt 0 discriminator 5
 2714 1070 97000000 		call	thread_dispatch@plt
 2714      E7800000 
 2715              	.LVL311:
 2716              	.L182:
 489:src/Tests.cpp ****         thread_dispatch();
 2717              		.loc 2 489 5 is_stmt 1
 489:src/Tests.cpp ****         thread_dispatch();
 2718              		.loc 2 489 42
 489:src/Tests.cpp ****         thread_dispatch();
 2719              		.loc 2 489 39 is_stmt 0
 2720 1078 033584FE 		ld	a0,-24(s0)
 2721 107c 97000000 		call	_ZN3PCB10isFinishedEv@plt
 2721      E7800000 
 2722              	.LVL312:
 489:src/Tests.cpp ****         thread_dispatch();
 2723              		.loc 2 489 42
 2724 1084 E30605FE 		beqz	a0,.L180
 489:src/Tests.cpp ****         thread_dispatch();
 2725              		.loc 2 489 73 discriminator 3
 2726 1088 033584FE 		ld	a0,-24(s0)
 2727 108c 97000000 		call	_ZN3PCB10isFinishedEv@plt
 2727      E7800000 
 2728              	.LVL313:
 489:src/Tests.cpp ****         thread_dispatch();
 2729              		.loc 2 489 42 discriminator 3
 2730 1094 E30E05FC 		beqz	a0,.L180
 491:src/Tests.cpp **** 
 492:src/Tests.cpp **** }
 2731              		.loc 2 492 1
 2732 1098 83308101 		ld	ra,24(sp)
 2733              		.cfi_restore 1
 2734 109c 03340101 		ld	s0,16(sp)
 2735              		.cfi_restore 8
 2736              		.cfi_def_cfa 2, 32
 2737 10a0 13010102 		addi	sp,sp,32
 2738              		.cfi_def_cfa_offset 0
 2739 10a4 67800000 		jr	ra
 2740              		.cfi_endproc
 2741              	.LFE52:
 2743              		.align	2
 2744              		.globl	_Z14semaphoreTestsv
 2746              	_Z14semaphoreTestsv:
 2747              	.LFB37:
 279:src/Tests.cpp ****     semTest1();
 2748              		.loc 2 279 1 is_stmt 1
 2749              		.cfi_startproc
 2750 10a8 130101FF 		addi	sp,sp,-16
 2751              		.cfi_def_cfa_offset 16
GAS LISTING /tmp/ccocfciK.s 			page 72


 2752 10ac 23341100 		sd	ra,8(sp)
 2753 10b0 23308100 		sd	s0,0(sp)
 2754              		.cfi_offset 1, -8
 2755              		.cfi_offset 8, -16
 2756 10b4 13040101 		addi	s0,sp,16
 2757              		.cfi_def_cfa 8, 0
 280:src/Tests.cpp **** }
 2758              		.loc 2 280 5
 280:src/Tests.cpp **** }
 2759              		.loc 2 280 13 is_stmt 0
 2760 10b8 97000000 		call	_Z8semTest1v
 2760      E7800000 
 2761              	.LVL314:
 281:src/Tests.cpp **** 
 2762              		.loc 2 281 1
 2763 10c0 83308100 		ld	ra,8(sp)
 2764              		.cfi_restore 1
 2765 10c4 03340100 		ld	s0,0(sp)
 2766              		.cfi_restore 8
 2767              		.cfi_def_cfa 2, 16
 2768 10c8 13010101 		addi	sp,sp,16
 2769              		.cfi_def_cfa_offset 0
 2770 10cc 67800000 		jr	ra
 2771              		.cfi_endproc
 2772              	.LFE37:
 2774              		.weak	_ZTV14PeriodicThread
 2775              		.section	.data.rel.ro.local._ZTV14PeriodicThread,"awG",@progbits,_ZTV14PeriodicThread,comdat
 2776              		.align	3
 2779              	_ZTV14PeriodicThread:
 2780 0000 00000000 		.dword	0
 2780      00000000 
 2781 0008 00000000 		.dword	0
 2781      00000000 
 2782 0010 00000000 		.dword	_ZN14PeriodicThreadD1Ev
 2782      00000000 
 2783 0018 00000000 		.dword	_ZN14PeriodicThreadD0Ev
 2783      00000000 
 2784 0020 00000000 		.dword	_ZN6Thread3runEv
 2784      00000000 
 2785 0028 00000000 		.dword	_ZN14PeriodicThread18periodicActivationEv
 2785      00000000 
 2786              		.weak	_ZTV12TestPeriodic
 2787              		.section	.data.rel.ro.local._ZTV12TestPeriodic,"awG",@progbits,_ZTV12TestPeriodic,comdat
 2788              		.align	3
 2791              	_ZTV12TestPeriodic:
 2792 0000 00000000 		.dword	0
 2792      00000000 
 2793 0008 00000000 		.dword	0
 2793      00000000 
 2794 0010 00000000 		.dword	_ZN12TestPeriodicD1Ev
 2794      00000000 
 2795 0018 00000000 		.dword	_ZN12TestPeriodicD0Ev
 2795      00000000 
 2796 0020 00000000 		.dword	_ZN6Thread3runEv
 2796      00000000 
 2797 0028 00000000 		.dword	_ZN12TestPeriodic18periodicActivationEv
 2797      00000000 
GAS LISTING /tmp/ccocfciK.s 			page 73


 2798              		.globl	string
 2799              		.globl	itemAvailable
 2800              		.globl	spaceAvailable
 2801              		.globl	tail
 2802              		.globl	head
 2803              		.globl	buffer
 2804              		.data
 2805              		.align	3
 2806              		.set	.LANCHOR1,. + 0
 2809              	string:
 2810 0000 74686973 		.string	"this is ni"
 2810      20697320 
 2810      6E6900
 2811              		.bss
 2812              		.align	3
 2813              		.set	.LANCHOR0,. + 0
 2816              	head:
 2817 0000 00000000 		.zero	4
 2818 0004 00000000 		.zero	4
 2821              	itemAvailable:
 2822 0008 00000000 		.zero	8
 2822      00000000 
 2825              	buffer:
 2826 0010 00000000 		.zero	10
 2826      00000000 
 2826      0000
 2827 001a 00000000 		.zero	6
 2827      0000
 2830              	spaceAvailable:
 2831 0020 00000000 		.zero	8
 2831      00000000 
 2834              	tail:
 2835 0028 00000000 		.zero	4
 2836              		.text
 2837              	.Letext0:
 2838              		.file 4 "src/../h/../lib/hw.h"
 2839              		.file 5 "src/../h/Riscv.hpp"
 2840              		.file 6 "src/../h/PCB.hpp"
 2841              		.file 7 "src/../h/syscall_c.h"
 2842              		.file 8 "src/../lib/console.h"
 10068              		.align	3
 10071              	DW.ref.__gxx_personality_v0:
 10072 0000 00000000 		.dword	__gxx_personality_v0
 10072      00000000 
 10073              		.ident	"GCC: (Ubuntu 9.3.0-17ubuntu1~20.04) 9.3.0"
 10074              		.section	.note.GNU-stack,"",@progbits
GAS LISTING /tmp/ccocfciK.s 			page 74


DEFINED SYMBOLS
                            *ABS*:0000000000000000 Tests.cpp
     /tmp/ccocfciK.s:10     .text._ZN6Thread3runEv:0000000000000000 _ZN6Thread3runEv
     /tmp/ccocfciK.s:14     .text._ZN6Thread3runEv:0000000000000000 .L0 
     /tmp/ccocfciK.s:16     .text._ZN6Thread3runEv:0000000000000000 .L0 
     /tmp/ccocfciK.s:17     .text._ZN6Thread3runEv:0000000000000004 .L0 
     /tmp/ccocfciK.s:19     .text._ZN6Thread3runEv:0000000000000008 .L0 
     /tmp/ccocfciK.s:21     .text._ZN6Thread3runEv:000000000000000c .L0 
     /tmp/ccocfciK.s:23     .text._ZN6Thread3runEv:000000000000000c .L0 
     /tmp/ccocfciK.s:24     .text._ZN6Thread3runEv:0000000000000010 .L0 
     /tmp/ccocfciK.s:25     .text._ZN6Thread3runEv:0000000000000010 .L0 
     /tmp/ccocfciK.s:27     .text._ZN6Thread3runEv:0000000000000014 .L0 
     /tmp/ccocfciK.s:29     .text._ZN6Thread3runEv:0000000000000018 .L0 
     /tmp/ccocfciK.s:36     .text._ZN14PeriodicThread18periodicActivationEv:0000000000000000 _ZN14PeriodicThread18periodicActivationEv
     /tmp/ccocfciK.s:39     .text._ZN14PeriodicThread18periodicActivationEv:0000000000000000 .L0 
     /tmp/ccocfciK.s:41     .text._ZN14PeriodicThread18periodicActivationEv:0000000000000000 .L0 
     /tmp/ccocfciK.s:42     .text._ZN14PeriodicThread18periodicActivationEv:0000000000000004 .L0 
     /tmp/ccocfciK.s:44     .text._ZN14PeriodicThread18periodicActivationEv:0000000000000008 .L0 
     /tmp/ccocfciK.s:46     .text._ZN14PeriodicThread18periodicActivationEv:000000000000000c .L0 
     /tmp/ccocfciK.s:48     .text._ZN14PeriodicThread18periodicActivationEv:000000000000000c .L0 
     /tmp/ccocfciK.s:49     .text._ZN14PeriodicThread18periodicActivationEv:0000000000000010 .L0 
     /tmp/ccocfciK.s:50     .text._ZN14PeriodicThread18periodicActivationEv:0000000000000010 .L0 
     /tmp/ccocfciK.s:52     .text._ZN14PeriodicThread18periodicActivationEv:0000000000000014 .L0 
     /tmp/ccocfciK.s:54     .text._ZN14PeriodicThread18periodicActivationEv:0000000000000018 .L0 
     /tmp/ccocfciK.s:65     .text:0000000000000000 _Z4idlePv
     /tmp/ccocfciK.s:69     .text:0000000000000000 .L0 
     /tmp/ccocfciK.s:71     .text:0000000000000000 .L0 
     /tmp/ccocfciK.s:72     .text:0000000000000004 .L0 
     /tmp/ccocfciK.s:75     .text:000000000000000c .L0 
     /tmp/ccocfciK.s:76     .text:000000000000000c .L0 
     /tmp/ccocfciK.s:78     .text:0000000000000010 .L0 
     /tmp/ccocfciK.s:82     .text:0000000000000010 .L0 
     /tmp/ccocfciK.s:83     .text:0000000000000010 .L0 
     /tmp/ccocfciK.s:84     .text:0000000000000010 .L0 
     /tmp/ccocfciK.s:88     .text:0000000000000020 .L0 
     /tmp/ccocfciK.s:89     .text:0000000000000020 .L0 
     /tmp/ccocfciK.s:92     .text:0000000000000028 .L0 
     /tmp/ccocfciK.s:93     .text:000000000000002c .L0 
     /tmp/ccocfciK.s:110    .text:000000000000002c _Z15thread1FunctionPv
     /tmp/ccocfciK.s:113    .text:000000000000002c .L0 
     /tmp/ccocfciK.s:115    .text:000000000000002c .L0 
     /tmp/ccocfciK.s:116    .text:0000000000000030 .L0 
     /tmp/ccocfciK.s:120    .text:000000000000003c .L0 
     /tmp/ccocfciK.s:121    .text:000000000000003c .L0 
     /tmp/ccocfciK.s:122    .text:000000000000003c .L0 
     /tmp/ccocfciK.s:124    .text:0000000000000040 .L0 
     /tmp/ccocfciK.s:126    .text:0000000000000040 .L0 
     /tmp/ccocfciK.s:127    .text:0000000000000040 .L0 
     /tmp/ccocfciK.s:132    .text:0000000000000050 .L0 
     /tmp/ccocfciK.s:134    .text:0000000000000050 .L0 
     /tmp/ccocfciK.s:135    .text:0000000000000050 .L0 
     /tmp/ccocfciK.s:140    .text:0000000000000058 .L0 
     /tmp/ccocfciK.s:141    .text:0000000000000058 .L0 
     /tmp/ccocfciK.s:145    .text:0000000000000060 .L0 
     /tmp/ccocfciK.s:146    .text:0000000000000060 .L0 
     /tmp/ccocfciK.s:150    .text:0000000000000070 .L0 
     /tmp/ccocfciK.s:151    .text:0000000000000070 .L0 
GAS LISTING /tmp/ccocfciK.s 			page 75


     /tmp/ccocfciK.s:155    .text:000000000000007c .L0 
     /tmp/ccocfciK.s:156    .text:000000000000007c .L0 
     /tmp/ccocfciK.s:160    .text:000000000000008c .L0 
     /tmp/ccocfciK.s:164    .text:0000000000000090 .L0 
     /tmp/ccocfciK.s:168    .text:000000000000009c .L0 
     /tmp/ccocfciK.s:169    .text:000000000000009c .L0 
     /tmp/ccocfciK.s:172    .text:00000000000000a4 .L0 
     /tmp/ccocfciK.s:174    .text:00000000000000a8 .L0 
     /tmp/ccocfciK.s:179    .text:00000000000000b0 .L0 
     /tmp/ccocfciK.s:180    .text:00000000000000b4 .L0 
     /tmp/ccocfciK.s:182    .text:00000000000000b8 .L0 
     /tmp/ccocfciK.s:183    .text:00000000000000b8 .L0 
     /tmp/ccocfciK.s:185    .text:00000000000000bc .L0 
     /tmp/ccocfciK.s:188    .text:00000000000000c0 .L0 
     /tmp/ccocfciK.s:190    .text:00000000000000c4 .L0 
     /tmp/ccocfciK.s:204    .text:00000000000000c4 _Z15thread2FunctionPv
     /tmp/ccocfciK.s:207    .text:00000000000000c4 .L0 
     /tmp/ccocfciK.s:209    .text:00000000000000c4 .L0 
     /tmp/ccocfciK.s:210    .text:00000000000000c8 .L0 
     /tmp/ccocfciK.s:214    .text:00000000000000d4 .L0 
     /tmp/ccocfciK.s:215    .text:00000000000000d4 .L0 
     /tmp/ccocfciK.s:216    .text:00000000000000d4 .L0 
     /tmp/ccocfciK.s:218    .text:00000000000000d8 .L0 
     /tmp/ccocfciK.s:220    .text:00000000000000d8 .L0 
     /tmp/ccocfciK.s:221    .text:00000000000000d8 .L0 
     /tmp/ccocfciK.s:226    .text:00000000000000e8 .L0 
     /tmp/ccocfciK.s:228    .text:00000000000000e8 .L0 
     /tmp/ccocfciK.s:229    .text:00000000000000e8 .L0 
     /tmp/ccocfciK.s:234    .text:00000000000000f0 .L0 
     /tmp/ccocfciK.s:235    .text:00000000000000f0 .L0 
     /tmp/ccocfciK.s:239    .text:00000000000000f8 .L0 
     /tmp/ccocfciK.s:240    .text:00000000000000f8 .L0 
     /tmp/ccocfciK.s:244    .text:0000000000000108 .L0 
     /tmp/ccocfciK.s:245    .text:0000000000000108 .L0 
     /tmp/ccocfciK.s:249    .text:0000000000000114 .L0 
     /tmp/ccocfciK.s:250    .text:0000000000000114 .L0 
     /tmp/ccocfciK.s:254    .text:0000000000000124 .L0 
     /tmp/ccocfciK.s:258    .text:0000000000000128 .L0 
     /tmp/ccocfciK.s:262    .text:0000000000000134 .L0 
     /tmp/ccocfciK.s:263    .text:0000000000000134 .L0 
     /tmp/ccocfciK.s:266    .text:000000000000013c .L0 
     /tmp/ccocfciK.s:268    .text:0000000000000140 .L0 
     /tmp/ccocfciK.s:273    .text:0000000000000148 .L0 
     /tmp/ccocfciK.s:274    .text:000000000000014c .L0 
     /tmp/ccocfciK.s:276    .text:0000000000000150 .L0 
     /tmp/ccocfciK.s:277    .text:0000000000000150 .L0 
     /tmp/ccocfciK.s:279    .text:0000000000000154 .L0 
     /tmp/ccocfciK.s:282    .text:0000000000000158 .L0 
     /tmp/ccocfciK.s:284    .text:000000000000015c .L0 
     /tmp/ccocfciK.s:290    .text:000000000000015c _ZN12TestPeriodic18periodicActivationEv
     /tmp/ccocfciK.s:293    .text:000000000000015c .L0 
     /tmp/ccocfciK.s:295    .text:000000000000015c .L0 
     /tmp/ccocfciK.s:296    .text:0000000000000160 .L0 
     /tmp/ccocfciK.s:300    .text:000000000000016c .L0 
     /tmp/ccocfciK.s:301    .text:000000000000016c .L0 
     /tmp/ccocfciK.s:302    .text:000000000000016c .L0 
     /tmp/ccocfciK.s:304    .text:0000000000000170 .L0 
GAS LISTING /tmp/ccocfciK.s 			page 76


     /tmp/ccocfciK.s:308    .text:0000000000000170 .L0 
     /tmp/ccocfciK.s:309    .text:0000000000000170 .L0 
     /tmp/ccocfciK.s:313    .text:0000000000000174 .L0 
     /tmp/ccocfciK.s:317    .text:0000000000000180 .L0 
     /tmp/ccocfciK.s:318    .text:0000000000000180 .L0 
     /tmp/ccocfciK.s:322    .text:0000000000000190 .L0 
     /tmp/ccocfciK.s:323    .text:0000000000000190 .L0 
     /tmp/ccocfciK.s:327    .text:000000000000019c .L0 
     /tmp/ccocfciK.s:334    .text:00000000000001a4 .L0 
     /tmp/ccocfciK.s:335    .text:00000000000001a8 .L0 
     /tmp/ccocfciK.s:337    .text:00000000000001ac .L0 
     /tmp/ccocfciK.s:338    .text:00000000000001ac .L0 
     /tmp/ccocfciK.s:340    .text:00000000000001b0 .L0 
     /tmp/ccocfciK.s:343    .text:00000000000001b4 .L0 
     /tmp/ccocfciK.s:345    .text:00000000000001b8 .L0 
     /tmp/ccocfciK.s:351    .text:00000000000001b8 _Z20thread2FunctionTest2Pv
     /tmp/ccocfciK.s:354    .text:00000000000001b8 .L0 
     /tmp/ccocfciK.s:356    .text:00000000000001b8 .L0 
     /tmp/ccocfciK.s:357    .text:00000000000001bc .L0 
     /tmp/ccocfciK.s:361    .text:00000000000001c8 .L0 
     /tmp/ccocfciK.s:362    .text:00000000000001c8 .L0 
     /tmp/ccocfciK.s:363    .text:00000000000001c8 .L0 
     /tmp/ccocfciK.s:365    .text:00000000000001cc .L0 
     /tmp/ccocfciK.s:367    .text:00000000000001cc .L0 
     /tmp/ccocfciK.s:368    .text:00000000000001cc .L0 
     /tmp/ccocfciK.s:373    .text:00000000000001dc .L0 
     /tmp/ccocfciK.s:375    .text:00000000000001dc .L0 
     /tmp/ccocfciK.s:376    .text:00000000000001dc .L0 
     /tmp/ccocfciK.s:381    .text:00000000000001e4 .L0 
     /tmp/ccocfciK.s:382    .text:00000000000001e4 .L0 
     /tmp/ccocfciK.s:387    .text:00000000000001f0 .L0 
     /tmp/ccocfciK.s:388    .text:00000000000001f0 .L0 
     /tmp/ccocfciK.s:392    .text:00000000000001f8 .L0 
     /tmp/ccocfciK.s:393    .text:00000000000001f8 .L0 
     /tmp/ccocfciK.s:397    .text:0000000000000208 .L0 
     /tmp/ccocfciK.s:398    .text:0000000000000208 .L0 
     /tmp/ccocfciK.s:402    .text:0000000000000214 .L0 
     /tmp/ccocfciK.s:403    .text:0000000000000214 .L0 
     /tmp/ccocfciK.s:407    .text:0000000000000224 .L0 
     /tmp/ccocfciK.s:411    .text:0000000000000228 .L0 
     /tmp/ccocfciK.s:415    .text:0000000000000234 .L0 
     /tmp/ccocfciK.s:419    .text:000000000000023c .L0 
     /tmp/ccocfciK.s:420    .text:000000000000023c .L0 
     /tmp/ccocfciK.s:423    .text:0000000000000244 .L0 
     /tmp/ccocfciK.s:425    .text:0000000000000248 .L0 
     /tmp/ccocfciK.s:430    .text:0000000000000250 .L0 
     /tmp/ccocfciK.s:431    .text:0000000000000254 .L0 
     /tmp/ccocfciK.s:433    .text:0000000000000258 .L0 
     /tmp/ccocfciK.s:434    .text:0000000000000258 .L0 
     /tmp/ccocfciK.s:436    .text:000000000000025c .L0 
     /tmp/ccocfciK.s:439    .text:0000000000000260 .L0 
     /tmp/ccocfciK.s:441    .text:0000000000000264 .L0 
     /tmp/ccocfciK.s:447    .text:0000000000000264 _Z9consumerAPv
     /tmp/ccocfciK.s:450    .text:0000000000000264 .L0 
     /tmp/ccocfciK.s:452    .text:0000000000000264 .L0 
     /tmp/ccocfciK.s:453    .text:0000000000000264 .L0 
     /tmp/ccocfciK.s:454    .text:0000000000000264 .L0 
GAS LISTING /tmp/ccocfciK.s 			page 77


     /tmp/ccocfciK.s:458    .text:0000000000000274 .L0 
     /tmp/ccocfciK.s:459    .text:0000000000000278 .L0 
     /tmp/ccocfciK.s:463    .text:0000000000000284 .L0 
     /tmp/ccocfciK.s:464    .text:0000000000000284 .L0 
     /tmp/ccocfciK.s:465    .text:0000000000000284 .L0 
     /tmp/ccocfciK.s:467    .text:0000000000000288 .L0 
     /tmp/ccocfciK.s:471    .text:0000000000000288 .L0 
     /tmp/ccocfciK.s:472    .text:0000000000000288 .L0 
     /tmp/ccocfciK.s:477    .text:000000000000029c .L0 
     /tmp/ccocfciK.s:478    .text:000000000000029c .L0 
     /tmp/ccocfciK.s:482    .text:00000000000002a8 .L0 
     /tmp/ccocfciK.s:487    .text:00000000000002b8 .L0 
     /tmp/ccocfciK.s:488    .text:00000000000002b8 .L0 
     /tmp/ccocfciK.s:492    .text:00000000000002c4 .L0 
     /tmp/ccocfciK.s:493    .text:00000000000002c4 .L0 
     /tmp/ccocfciK.s:497    .text:00000000000002d4 .L0 
     /tmp/ccocfciK.s:498    .text:00000000000002d8 .L0 
     /tmp/ccocfciK.s:500    .text:00000000000002dc .L0 
     /tmp/ccocfciK.s:501    .text:00000000000002dc .L0 
     /tmp/ccocfciK.s:503    .text:00000000000002e0 .L0 
     /tmp/ccocfciK.s:505    .text:00000000000002e4 .L0 
     /tmp/ccocfciK.s:510    .text:00000000000002ec .L0 
     /tmp/ccocfciK.s:516    .text:00000000000002ec _Z9producerAPv
     /tmp/ccocfciK.s:519    .text:00000000000002ec .L0 
     /tmp/ccocfciK.s:521    .text:00000000000002ec .L0 
     /tmp/ccocfciK.s:522    .text:00000000000002ec .L0 
     /tmp/ccocfciK.s:523    .text:00000000000002ec .L0 
     /tmp/ccocfciK.s:527    .text:00000000000002fc .L0 
     /tmp/ccocfciK.s:528    .text:0000000000000300 .L0 
     /tmp/ccocfciK.s:532    .text:000000000000030c .L0 
     /tmp/ccocfciK.s:533    .text:000000000000030c .L0 
     /tmp/ccocfciK.s:534    .text:000000000000030c .L0 
     /tmp/ccocfciK.s:536    .text:0000000000000310 .L0 
     /tmp/ccocfciK.s:540    .text:0000000000000310 .L0 
     /tmp/ccocfciK.s:541    .text:0000000000000310 .L0 
     /tmp/ccocfciK.s:546    .text:0000000000000324 .L0 
     /tmp/ccocfciK.s:547    .text:0000000000000324 .L0 
     /tmp/ccocfciK.s:552    .text:0000000000000338 .L0 
     /tmp/ccocfciK.s:555    .text:0000000000000340 .L0 
     /tmp/ccocfciK.s:556    .text:0000000000000340 .L0 
     /tmp/ccocfciK.s:559    .text:0000000000000348 .L0 
     /tmp/ccocfciK.s:560    .text:0000000000000348 .L0 
     /tmp/ccocfciK.s:564    .text:0000000000000354 .L0 
     /tmp/ccocfciK.s:565    .text:0000000000000354 .L0 
     /tmp/ccocfciK.s:569    .text:0000000000000364 .L0 
     /tmp/ccocfciK.s:570    .text:0000000000000368 .L0 
     /tmp/ccocfciK.s:572    .text:000000000000036c .L0 
     /tmp/ccocfciK.s:573    .text:000000000000036c .L0 
     /tmp/ccocfciK.s:575    .text:0000000000000370 .L0 
     /tmp/ccocfciK.s:577    .text:0000000000000374 .L0 
     /tmp/ccocfciK.s:582    .text:000000000000037c .L0 
     /tmp/ccocfciK.s:589    .text._ZN14PeriodicThreadD2Ev:0000000000000000 _ZN14PeriodicThreadD2Ev
     /tmp/ccocfciK.s:592    .text._ZN14PeriodicThreadD2Ev:0000000000000000 .L0 
     /tmp/ccocfciK.s:594    .text._ZN14PeriodicThreadD2Ev:0000000000000000 .L0 
     /tmp/ccocfciK.s:595    .text._ZN14PeriodicThreadD2Ev:0000000000000004 .L0 
     /tmp/ccocfciK.s:598    .text._ZN14PeriodicThreadD2Ev:000000000000000c .L0 
     /tmp/ccocfciK.s:599    .text._ZN14PeriodicThreadD2Ev:000000000000000c .L0 
GAS LISTING /tmp/ccocfciK.s 			page 78


     /tmp/ccocfciK.s:601    .text._ZN14PeriodicThreadD2Ev:0000000000000010 .L0 
     /tmp/ccocfciK.s:2779   .data.rel.ro.local._ZTV14PeriodicThread:0000000000000000 _ZTV14PeriodicThread
     /tmp/ccocfciK.s:604    .text._ZN14PeriodicThreadD2Ev:0000000000000010 .L0 
     /tmp/ccocfciK.s:610    .text._ZN14PeriodicThreadD2Ev:0000000000000028 .L0 
     /tmp/ccocfciK.s:612    .text._ZN14PeriodicThreadD2Ev:000000000000002c .L0 
     /tmp/ccocfciK.s:613    .text._ZN14PeriodicThreadD2Ev:000000000000002c .L0 
     /tmp/ccocfciK.s:615    .text._ZN14PeriodicThreadD2Ev:0000000000000030 .L0 
     /tmp/ccocfciK.s:617    .text._ZN14PeriodicThreadD2Ev:0000000000000034 .L0 
     /tmp/ccocfciK.s:589    .text._ZN14PeriodicThreadD2Ev:0000000000000000 _ZN14PeriodicThreadD1Ev
     /tmp/ccocfciK.s:626    .text._ZN14PeriodicThreadD0Ev:0000000000000000 _ZN14PeriodicThreadD0Ev
     /tmp/ccocfciK.s:629    .text._ZN14PeriodicThreadD0Ev:0000000000000000 .L0 
     /tmp/ccocfciK.s:631    .text._ZN14PeriodicThreadD0Ev:0000000000000000 .L0 
     /tmp/ccocfciK.s:632    .text._ZN14PeriodicThreadD0Ev:0000000000000004 .L0 
     /tmp/ccocfciK.s:636    .text._ZN14PeriodicThreadD0Ev:0000000000000010 .L0 
     /tmp/ccocfciK.s:637    .text._ZN14PeriodicThreadD0Ev:0000000000000010 .L0 
     /tmp/ccocfciK.s:638    .text._ZN14PeriodicThreadD0Ev:0000000000000010 .L0 
     /tmp/ccocfciK.s:640    .text._ZN14PeriodicThreadD0Ev:0000000000000014 .L0 
     /tmp/ccocfciK.s:646    .text._ZN14PeriodicThreadD0Ev:0000000000000018 .L0 
     /tmp/ccocfciK.s:656    .text._ZN14PeriodicThreadD0Ev:000000000000003c .L0 
     /tmp/ccocfciK.s:658    .text._ZN14PeriodicThreadD0Ev:0000000000000040 .L0 
     /tmp/ccocfciK.s:659    .text._ZN14PeriodicThreadD0Ev:0000000000000040 .L0 
     /tmp/ccocfciK.s:661    .text._ZN14PeriodicThreadD0Ev:0000000000000044 .L0 
     /tmp/ccocfciK.s:664    .text._ZN14PeriodicThreadD0Ev:0000000000000048 .L0 
     /tmp/ccocfciK.s:666    .text._ZN14PeriodicThreadD0Ev:000000000000004c .L0 
     /tmp/ccocfciK.s:673    .text._ZN12TestPeriodicD2Ev:0000000000000000 _ZN12TestPeriodicD2Ev
     /tmp/ccocfciK.s:677    .text._ZN12TestPeriodicD2Ev:0000000000000000 .L0 
     /tmp/ccocfciK.s:679    .text._ZN12TestPeriodicD2Ev:0000000000000000 .L0 
     /tmp/ccocfciK.s:680    .text._ZN12TestPeriodicD2Ev:0000000000000004 .L0 
     /tmp/ccocfciK.s:683    .text._ZN12TestPeriodicD2Ev:000000000000000c .L0 
     /tmp/ccocfciK.s:684    .text._ZN12TestPeriodicD2Ev:000000000000000c .L0 
     /tmp/ccocfciK.s:686    .text._ZN12TestPeriodicD2Ev:0000000000000010 .L0 
     /tmp/ccocfciK.s:691    .text._ZN12TestPeriodicD2Ev:0000000000000010 .L0 
     /tmp/ccocfciK.s:698    .text._ZN12TestPeriodicD2Ev:0000000000000024 .L0 
     /tmp/ccocfciK.s:699    .text._ZN12TestPeriodicD2Ev:0000000000000028 .L0 
     /tmp/ccocfciK.s:701    .text._ZN12TestPeriodicD2Ev:000000000000002c .L0 
     /tmp/ccocfciK.s:702    .text._ZN12TestPeriodicD2Ev:000000000000002c .L0 
     /tmp/ccocfciK.s:704    .text._ZN12TestPeriodicD2Ev:0000000000000030 .L0 
     /tmp/ccocfciK.s:706    .text._ZN12TestPeriodicD2Ev:0000000000000034 .L0 
     /tmp/ccocfciK.s:673    .text._ZN12TestPeriodicD2Ev:0000000000000000 _ZN12TestPeriodicD1Ev
     /tmp/ccocfciK.s:715    .text._ZN12TestPeriodicD0Ev:0000000000000000 _ZN12TestPeriodicD0Ev
     /tmp/ccocfciK.s:718    .text._ZN12TestPeriodicD0Ev:0000000000000000 .L0 
     /tmp/ccocfciK.s:720    .text._ZN12TestPeriodicD0Ev:0000000000000000 .L0 
     /tmp/ccocfciK.s:721    .text._ZN12TestPeriodicD0Ev:0000000000000004 .L0 
     /tmp/ccocfciK.s:725    .text._ZN12TestPeriodicD0Ev:0000000000000010 .L0 
     /tmp/ccocfciK.s:726    .text._ZN12TestPeriodicD0Ev:0000000000000010 .L0 
     /tmp/ccocfciK.s:727    .text._ZN12TestPeriodicD0Ev:0000000000000010 .L0 
     /tmp/ccocfciK.s:729    .text._ZN12TestPeriodicD0Ev:0000000000000014 .L0 
     /tmp/ccocfciK.s:736    .text._ZN12TestPeriodicD0Ev:0000000000000018 .L0 
     /tmp/ccocfciK.s:744    .text._ZN12TestPeriodicD0Ev:000000000000002c .L0 
     /tmp/ccocfciK.s:748    .text._ZN12TestPeriodicD0Ev:000000000000003c .L0 
     /tmp/ccocfciK.s:750    .text._ZN12TestPeriodicD0Ev:0000000000000040 .L0 
     /tmp/ccocfciK.s:751    .text._ZN12TestPeriodicD0Ev:0000000000000040 .L0 
     /tmp/ccocfciK.s:753    .text._ZN12TestPeriodicD0Ev:0000000000000044 .L0 
     /tmp/ccocfciK.s:756    .text._ZN12TestPeriodicD0Ev:0000000000000048 .L0 
     /tmp/ccocfciK.s:758    .text._ZN12TestPeriodicD0Ev:000000000000004c .L0 
     /tmp/ccocfciK.s:769    .text:000000000000037c _Z11threadTest1v
     /tmp/ccocfciK.s:772    .text:000000000000037c .L0 
GAS LISTING /tmp/ccocfciK.s 			page 79


     /tmp/ccocfciK.s:10071  .data.rel.local.DW.ref.__gxx_personality_v0:0000000000000000 DW.ref.__gxx_personality_v0
     /tmp/ccocfciK.s:775    .text:000000000000037c .L0 
     /tmp/ccocfciK.s:776    .text:0000000000000380 .L0 
     /tmp/ccocfciK.s:781    .text:0000000000000390 .L0 
     /tmp/ccocfciK.s:782    .text:0000000000000390 .L0 
     /tmp/ccocfciK.s:783    .text:0000000000000390 .L0 
     /tmp/ccocfciK.s:784    .text:0000000000000390 .L0 
     /tmp/ccocfciK.s:786    .text:0000000000000394 .L0 
     /tmp/ccocfciK.s:788    .text:0000000000000394 .L0 
     /tmp/ccocfciK.s:789    .text:0000000000000394 .L0 
     /tmp/ccocfciK.s:802    .text:00000000000003b8 .L0 
     /tmp/ccocfciK.s:803    .text:00000000000003b8 .L0 
     /tmp/ccocfciK.s:808    .text:00000000000003c4 .L0 
     /tmp/ccocfciK.s:809    .text:00000000000003c4 .L0 
     /tmp/ccocfciK.s:822    .text:00000000000003e8 .L0 
     /tmp/ccocfciK.s:823    .text:00000000000003e8 .L0 
     /tmp/ccocfciK.s:828    .text:00000000000003f4 .L0 
     /tmp/ccocfciK.s:829    .text:00000000000003f4 .L0 
     /tmp/ccocfciK.s:832    .text:00000000000003fc .L0 
     /tmp/ccocfciK.s:833    .text:00000000000003fc .L0 
     /tmp/ccocfciK.s:837    .text:000000000000040c .L0 
     /tmp/ccocfciK.s:838    .text:000000000000040c .L0 
     /tmp/ccocfciK.s:842    .text:0000000000000414 .L0 
     /tmp/ccocfciK.s:843    .text:0000000000000418 .L0 
     /tmp/ccocfciK.s:844    .text:0000000000000418 .L0 
     /tmp/ccocfciK.s:846    .text:000000000000041c .L0 
     /tmp/ccocfciK.s:847    .text:000000000000041c .L0 
     /tmp/ccocfciK.s:849    .text:0000000000000420 .L0 
     /tmp/ccocfciK.s:852    .text:0000000000000424 .L0 
     /tmp/ccocfciK.s:854    .text:0000000000000428 .L0 
     /tmp/ccocfciK.s:857    .text:000000000000042c .L0 
     /tmp/ccocfciK.s:860    .text:0000000000000430 .L0 
     /tmp/ccocfciK.s:871    .text:000000000000044c .L0 
     /tmp/ccocfciK.s:879    .text:0000000000000464 .L0 
     /tmp/ccocfciK.s:921    .text:0000000000000464 _Z11threadTest2v
     /tmp/ccocfciK.s:924    .text:0000000000000464 .L0 
     /tmp/ccocfciK.s:927    .text:0000000000000464 .L0 
     /tmp/ccocfciK.s:928    .text:0000000000000468 .L0 
     /tmp/ccocfciK.s:933    .text:0000000000000478 .L0 
     /tmp/ccocfciK.s:934    .text:0000000000000478 .L0 
     /tmp/ccocfciK.s:935    .text:0000000000000478 .L0 
     /tmp/ccocfciK.s:936    .text:0000000000000478 .L0 
     /tmp/ccocfciK.s:938    .text:000000000000047c .L0 
     /tmp/ccocfciK.s:940    .text:000000000000047c .L0 
     /tmp/ccocfciK.s:941    .text:000000000000047c .L0 
     /tmp/ccocfciK.s:954    .text:00000000000004a0 .L0 
     /tmp/ccocfciK.s:955    .text:00000000000004a0 .L0 
     /tmp/ccocfciK.s:960    .text:00000000000004ac .L0 
     /tmp/ccocfciK.s:961    .text:00000000000004ac .L0 
     /tmp/ccocfciK.s:974    .text:00000000000004d0 .L0 
     /tmp/ccocfciK.s:975    .text:00000000000004d0 .L0 
     /tmp/ccocfciK.s:980    .text:00000000000004dc .L0 
     /tmp/ccocfciK.s:981    .text:00000000000004dc .L0 
     /tmp/ccocfciK.s:994    .text:0000000000000500 .L0 
     /tmp/ccocfciK.s:995    .text:0000000000000500 .L0 
     /tmp/ccocfciK.s:1000   .text:000000000000050c .L0 
     /tmp/ccocfciK.s:1001   .text:000000000000050c .L0 
GAS LISTING /tmp/ccocfciK.s 			page 80


     /tmp/ccocfciK.s:1004   .text:0000000000000514 .L0 
     /tmp/ccocfciK.s:1005   .text:0000000000000514 .L0 
     /tmp/ccocfciK.s:1009   .text:0000000000000524 .L0 
     /tmp/ccocfciK.s:1010   .text:0000000000000524 .L0 
     /tmp/ccocfciK.s:1014   .text:000000000000052c .L0 
     /tmp/ccocfciK.s:1015   .text:0000000000000530 .L0 
     /tmp/ccocfciK.s:1016   .text:0000000000000530 .L0 
     /tmp/ccocfciK.s:1018   .text:0000000000000534 .L0 
     /tmp/ccocfciK.s:1019   .text:0000000000000534 .L0 
     /tmp/ccocfciK.s:1021   .text:0000000000000538 .L0 
     /tmp/ccocfciK.s:1024   .text:000000000000053c .L0 
     /tmp/ccocfciK.s:1026   .text:0000000000000540 .L0 
     /tmp/ccocfciK.s:1029   .text:0000000000000544 .L0 
     /tmp/ccocfciK.s:1032   .text:0000000000000548 .L0 
     /tmp/ccocfciK.s:1043   .text:0000000000000564 .L0 
     /tmp/ccocfciK.s:1054   .text:0000000000000580 .L0 
     /tmp/ccocfciK.s:1062   .text:0000000000000598 .L0 
     /tmp/ccocfciK.s:1126   .text:0000000000000598 _Z10mallocFreev
     /tmp/ccocfciK.s:1129   .text:0000000000000598 .L0 
     /tmp/ccocfciK.s:1130   .text:0000000000000598 .L0 
     /tmp/ccocfciK.s:1131   .text:000000000000059c .L0 
     /tmp/ccocfciK.s:1135   .text:00000000000005a8 .L0 
     /tmp/ccocfciK.s:1136   .text:00000000000005a8 .L0 
     /tmp/ccocfciK.s:1137   .text:00000000000005a8 .L0 
     /tmp/ccocfciK.s:1139   .text:00000000000005ac .L0 
     /tmp/ccocfciK.s:1141   .text:00000000000005ac .L0 
     /tmp/ccocfciK.s:1142   .text:00000000000005ac .L0 
     /tmp/ccocfciK.s:1147   .text:00000000000005bc .L0 
     /tmp/ccocfciK.s:1152   .text:00000000000005c4 .L0 
     /tmp/ccocfciK.s:1156   .text:00000000000005c8 .L0 
     /tmp/ccocfciK.s:1159   .text:00000000000005d0 .L0 
     /tmp/ccocfciK.s:1160   .text:00000000000005d0 .L0 
     /tmp/ccocfciK.s:1164   .text:00000000000005dc .L0 
     /tmp/ccocfciK.s:1169   .text:00000000000005ec .L0 
     /tmp/ccocfciK.s:1171   .text:00000000000005f0 .L0 
     /tmp/ccocfciK.s:1172   .text:00000000000005f0 .L0 
     /tmp/ccocfciK.s:1178   .text:0000000000000600 .L0 
     /tmp/ccocfciK.s:1179   .text:0000000000000600 .L0 
     /tmp/ccocfciK.s:1180   .text:0000000000000604 .L0 
     /tmp/ccocfciK.s:1181   .text:0000000000000604 .L0 
     /tmp/ccocfciK.s:1183   .text:0000000000000608 .L0 
     /tmp/ccocfciK.s:1184   .text:0000000000000608 .L0 
     /tmp/ccocfciK.s:1186   .text:000000000000060c .L0 
     /tmp/ccocfciK.s:1188   .text:0000000000000610 .L0 
     /tmp/ccocfciK.s:1192   .text:0000000000000614 .L0 
     /tmp/ccocfciK.s:1195   .text:0000000000000614 .L0 
     /tmp/ccocfciK.s:1199   .text:0000000000000618 .L0 
     /tmp/ccocfciK.s:1203   .text:0000000000000620 .L0 
     /tmp/ccocfciK.s:1204   .text:0000000000000620 .L0 
     /tmp/ccocfciK.s:1211   .text:0000000000000638 .L0 
     /tmp/ccocfciK.s:1214   .text:000000000000063c .L0 
     /tmp/ccocfciK.s:1215   .text:000000000000063c .L0 
     /tmp/ccocfciK.s:1218   .text:0000000000000640 .L0 
     /tmp/ccocfciK.s:1223   .text:0000000000000644 .L0 
     /tmp/ccocfciK.s:1224   .text:0000000000000644 .L0 
     /tmp/ccocfciK.s:1229   .text:0000000000000654 .L0 
     /tmp/ccocfciK.s:1235   .text:0000000000000658 .L0 
GAS LISTING /tmp/ccocfciK.s 			page 81


     /tmp/ccocfciK.s:1241   .text:0000000000000660 .L0 
     /tmp/ccocfciK.s:1242   .text:0000000000000660 .L0 
     /tmp/ccocfciK.s:1246   .text:0000000000000664 .L0 
     /tmp/ccocfciK.s:1249   .text:000000000000066c .L0 
     /tmp/ccocfciK.s:1250   .text:000000000000066c .L0 
     /tmp/ccocfciK.s:1254   .text:0000000000000678 .L0 
     /tmp/ccocfciK.s:1259   .text:0000000000000688 .L0 
     /tmp/ccocfciK.s:1261   .text:000000000000068c .L0 
     /tmp/ccocfciK.s:1262   .text:000000000000068c .L0 
     /tmp/ccocfciK.s:1266   .text:000000000000069c .L0 
     /tmp/ccocfciK.s:1271   .text:00000000000006a0 .L0 
     /tmp/ccocfciK.s:1275   .text:00000000000006a4 .L0 
     /tmp/ccocfciK.s:1279   .text:00000000000006ac .L0 
     /tmp/ccocfciK.s:1280   .text:00000000000006ac .L0 
     /tmp/ccocfciK.s:1287   .text:00000000000006c4 .L0 
     /tmp/ccocfciK.s:1290   .text:00000000000006c8 .L0 
     /tmp/ccocfciK.s:1297   .text:00000000000006d0 .L0 
     /tmp/ccocfciK.s:1298   .text:00000000000006d0 .L0 
     /tmp/ccocfciK.s:1303   .text:00000000000006e0 .L0 
     /tmp/ccocfciK.s:1308   .text:00000000000006e4 .L0 
     /tmp/ccocfciK.s:1309   .text:00000000000006e4 .L0 
     /tmp/ccocfciK.s:1313   .text:00000000000006f8 .L0 
     /tmp/ccocfciK.s:1324   .text:00000000000006f8 _Z9bigMallocv
     /tmp/ccocfciK.s:1327   .text:00000000000006f8 .L0 
     /tmp/ccocfciK.s:1328   .text:00000000000006f8 .L0 
     /tmp/ccocfciK.s:1329   .text:00000000000006fc .L0 
     /tmp/ccocfciK.s:1332   .text:0000000000000704 .L0 
     /tmp/ccocfciK.s:1333   .text:0000000000000704 .L0 
     /tmp/ccocfciK.s:1335   .text:0000000000000708 .L0 
     /tmp/ccocfciK.s:1337   .text:0000000000000708 .L0 
     /tmp/ccocfciK.s:1338   .text:0000000000000708 .L0 
     /tmp/ccocfciK.s:1342   .text:0000000000000718 .L0 
     /tmp/ccocfciK.s:1343   .text:0000000000000718 .L0 
     /tmp/ccocfciK.s:1350   .text:0000000000000734 .L0 
     /tmp/ccocfciK.s:1351   .text:0000000000000734 .L0 
     /tmp/ccocfciK.s:1356   .text:0000000000000740 .L0 
     /tmp/ccocfciK.s:1358   .text:0000000000000744 .L0 
     /tmp/ccocfciK.s:1359   .text:0000000000000744 .L0 
     /tmp/ccocfciK.s:1365   .text:0000000000000754 .L0 
     /tmp/ccocfciK.s:1366   .text:0000000000000758 .L0 
     /tmp/ccocfciK.s:1367   .text:0000000000000758 .L0 
     /tmp/ccocfciK.s:1369   .text:000000000000075c .L0 
     /tmp/ccocfciK.s:1370   .text:000000000000075c .L0 
     /tmp/ccocfciK.s:1372   .text:0000000000000760 .L0 
     /tmp/ccocfciK.s:1376   .text:0000000000000764 .L0 
     /tmp/ccocfciK.s:1378   .text:0000000000000764 .L0 
     /tmp/ccocfciK.s:1379   .text:0000000000000764 .L0 
     /tmp/ccocfciK.s:1384   .text:0000000000000778 .L0 
     /tmp/ccocfciK.s:1395   .text:0000000000000778 _Z17lotOfSmallMallocsv
     /tmp/ccocfciK.s:1398   .text:0000000000000778 .L0 
     /tmp/ccocfciK.s:1399   .text:0000000000000778 .L0 
     /tmp/ccocfciK.s:1400   .text:000000000000077c .L0 
     /tmp/ccocfciK.s:1406   .text:0000000000000790 .L0 
     /tmp/ccocfciK.s:1407   .text:0000000000000790 .L0 
     /tmp/ccocfciK.s:1408   .text:0000000000000790 .L0 
     /tmp/ccocfciK.s:1409   .text:0000000000000790 .L0 
     /tmp/ccocfciK.s:1410   .text:0000000000000790 .L0 
GAS LISTING /tmp/ccocfciK.s 			page 82


     /tmp/ccocfciK.s:1412   .text:0000000000000794 .L0 
     /tmp/ccocfciK.s:1414   .text:0000000000000794 .L0 
     /tmp/ccocfciK.s:1415   .text:0000000000000794 .L0 
     /tmp/ccocfciK.s:1419   .text:00000000000007a4 .L0 
     /tmp/ccocfciK.s:1420   .text:00000000000007a4 .L0 
     /tmp/ccocfciK.s:1421   .text:00000000000007a4 .L0 
     /tmp/ccocfciK.s:1422   .text:00000000000007a4 .L0 
     /tmp/ccocfciK.s:1424   .text:00000000000007a4 .L0 
     /tmp/ccocfciK.s:1425   .text:00000000000007a4 .L0 
     /tmp/ccocfciK.s:1428   .text:00000000000007a8 .L0 
     /tmp/ccocfciK.s:1430   .text:00000000000007ac .L0 
     /tmp/ccocfciK.s:1437   .text:00000000000007b4 .L0 
     /tmp/ccocfciK.s:1438   .text:00000000000007b4 .L0 
     /tmp/ccocfciK.s:1441   .text:00000000000007bc .L0 
     /tmp/ccocfciK.s:1442   .text:00000000000007bc .L0 
     /tmp/ccocfciK.s:1445   .text:00000000000007c0 .L0 
     /tmp/ccocfciK.s:1446   .text:00000000000007c0 .L0 
     /tmp/ccocfciK.s:1450   .text:00000000000007c4 .L0 
     /tmp/ccocfciK.s:1454   .text:00000000000007c8 .L0 
     /tmp/ccocfciK.s:1459   .text:00000000000007d4 .L0 
     /tmp/ccocfciK.s:1460   .text:00000000000007d4 .L0 
     /tmp/ccocfciK.s:1464   .text:00000000000007e0 .L0 
     /tmp/ccocfciK.s:1470   .text:00000000000007e4 .L0 
     /tmp/ccocfciK.s:1471   .text:00000000000007e4 .L0 
     /tmp/ccocfciK.s:1475   .text:00000000000007f0 .L0 
     /tmp/ccocfciK.s:1476   .text:00000000000007f0 .L0 
     /tmp/ccocfciK.s:1480   .text:0000000000000800 .L0 
     /tmp/ccocfciK.s:1481   .text:0000000000000800 .L0 
     /tmp/ccocfciK.s:1486   .text:000000000000080c .L0 
     /tmp/ccocfciK.s:1488   .text:0000000000000810 .L0 
     /tmp/ccocfciK.s:1489   .text:0000000000000810 .L0 
     /tmp/ccocfciK.s:1494   .text:0000000000000820 .L0 
     /tmp/ccocfciK.s:1495   .text:0000000000000824 .L0 
     /tmp/ccocfciK.s:1496   .text:0000000000000824 .L0 
     /tmp/ccocfciK.s:1498   .text:0000000000000828 .L0 
     /tmp/ccocfciK.s:1499   .text:0000000000000828 .L0 
     /tmp/ccocfciK.s:1501   .text:000000000000082c .L0 
     /tmp/ccocfciK.s:1504   .text:0000000000000830 .L0 
     /tmp/ccocfciK.s:1506   .text:0000000000000834 .L0 
     /tmp/ccocfciK.s:1509   .text:0000000000000838 .L0 
     /tmp/ccocfciK.s:1513   .text:000000000000083c .L0 
     /tmp/ccocfciK.s:1515   .text:000000000000083c .L0 
     /tmp/ccocfciK.s:1516   .text:000000000000083c .L0 
     /tmp/ccocfciK.s:1520   .text:0000000000000850 .L0 
     /tmp/ccocfciK.s:1531   .text:0000000000000850 _Z7badFreev
     /tmp/ccocfciK.s:1534   .text:0000000000000850 .L0 
     /tmp/ccocfciK.s:1535   .text:0000000000000850 .L0 
     /tmp/ccocfciK.s:1536   .text:0000000000000854 .L0 
     /tmp/ccocfciK.s:1539   .text:000000000000085c .L0 
     /tmp/ccocfciK.s:1540   .text:000000000000085c .L0 
     /tmp/ccocfciK.s:1542   .text:0000000000000860 .L0 
     /tmp/ccocfciK.s:1544   .text:0000000000000860 .L0 
     /tmp/ccocfciK.s:1545   .text:0000000000000860 .L0 
     /tmp/ccocfciK.s:1549   .text:0000000000000870 .L0 
     /tmp/ccocfciK.s:1550   .text:0000000000000870 .L0 
     /tmp/ccocfciK.s:1554   .text:000000000000087c .L0 
     /tmp/ccocfciK.s:1555   .text:000000000000087c .L0 
GAS LISTING /tmp/ccocfciK.s 			page 83


     /tmp/ccocfciK.s:1560   .text:0000000000000888 .L0 
     /tmp/ccocfciK.s:1562   .text:000000000000088c .L0 
     /tmp/ccocfciK.s:1563   .text:000000000000088c .L0 
     /tmp/ccocfciK.s:1569   .text:000000000000089c .L0 
     /tmp/ccocfciK.s:1570   .text:00000000000008a0 .L0 
     /tmp/ccocfciK.s:1571   .text:00000000000008a0 .L0 
     /tmp/ccocfciK.s:1573   .text:00000000000008a4 .L0 
     /tmp/ccocfciK.s:1574   .text:00000000000008a4 .L0 
     /tmp/ccocfciK.s:1576   .text:00000000000008a8 .L0 
     /tmp/ccocfciK.s:1580   .text:00000000000008ac .L0 
     /tmp/ccocfciK.s:1582   .text:00000000000008ac .L0 
     /tmp/ccocfciK.s:1583   .text:00000000000008ac .L0 
     /tmp/ccocfciK.s:1588   .text:00000000000008bc .L0 
     /tmp/ccocfciK.s:1589   .text:00000000000008c0 .L0 
     /tmp/ccocfciK.s:1603   .text:00000000000008c0 _Z13stressTestingv
     /tmp/ccocfciK.s:1606   .text:00000000000008c0 .L0 
     /tmp/ccocfciK.s:1607   .text:00000000000008c0 .L0 
     /tmp/ccocfciK.s:1608   .text:00000000000008c4 .L0 
     /tmp/ccocfciK.s:1613   .text:00000000000008d4 .L0 
     /tmp/ccocfciK.s:1614   .text:00000000000008d4 .L0 
     /tmp/ccocfciK.s:1615   .text:00000000000008d4 .L0 
     /tmp/ccocfciK.s:1616   .text:00000000000008d4 .L0 
     /tmp/ccocfciK.s:1618   .text:00000000000008d8 .L0 
     /tmp/ccocfciK.s:1620   .text:00000000000008d8 .L0 
     /tmp/ccocfciK.s:1621   .text:00000000000008d8 .L0 
     /tmp/ccocfciK.s:1626   .text:00000000000008e8 .L0 
     /tmp/ccocfciK.s:1631   .text:00000000000008f0 .L0 
     /tmp/ccocfciK.s:1635   .text:00000000000008f4 .L0 
     /tmp/ccocfciK.s:1638   .text:00000000000008fc .L0 
     /tmp/ccocfciK.s:1639   .text:00000000000008fc .L0 
     /tmp/ccocfciK.s:1643   .text:0000000000000908 .L0 
     /tmp/ccocfciK.s:1648   .text:0000000000000918 .L0 
     /tmp/ccocfciK.s:1650   .text:000000000000091c .L0 
     /tmp/ccocfciK.s:1651   .text:000000000000091c .L0 
     /tmp/ccocfciK.s:1657   .text:000000000000092c .L0 
     /tmp/ccocfciK.s:1658   .text:000000000000092c .L0 
     /tmp/ccocfciK.s:1659   .text:0000000000000930 .L0 
     /tmp/ccocfciK.s:1660   .text:0000000000000930 .L0 
     /tmp/ccocfciK.s:1662   .text:0000000000000934 .L0 
     /tmp/ccocfciK.s:1663   .text:0000000000000934 .L0 
     /tmp/ccocfciK.s:1665   .text:0000000000000938 .L0 
     /tmp/ccocfciK.s:1667   .text:000000000000093c .L0 
     /tmp/ccocfciK.s:1669   .text:0000000000000940 .L0 
     /tmp/ccocfciK.s:1673   .text:0000000000000944 .L0 
     /tmp/ccocfciK.s:1675   .text:0000000000000944 .L0 
     /tmp/ccocfciK.s:1679   .text:0000000000000948 .L0 
     /tmp/ccocfciK.s:1680   .text:0000000000000948 .L0 
     /tmp/ccocfciK.s:1684   .text:000000000000094c .L0 
     /tmp/ccocfciK.s:1688   .text:0000000000000950 .L0 
     /tmp/ccocfciK.s:1692   .text:0000000000000958 .L0 
     /tmp/ccocfciK.s:1693   .text:0000000000000958 .L0 
     /tmp/ccocfciK.s:1700   .text:0000000000000970 .L0 
     /tmp/ccocfciK.s:1702   .text:0000000000000974 .L0 
     /tmp/ccocfciK.s:1703   .text:0000000000000974 .L0 
     /tmp/ccocfciK.s:1707   .text:000000000000097c .L0 
     /tmp/ccocfciK.s:1711   .text:0000000000000988 .L0 
     /tmp/ccocfciK.s:1716   .text:0000000000000998 .L0 
GAS LISTING /tmp/ccocfciK.s 			page 84


     /tmp/ccocfciK.s:1719   .text:000000000000099c .L0 
     /tmp/ccocfciK.s:1720   .text:000000000000099c .L0 
     /tmp/ccocfciK.s:1723   .text:00000000000009a0 .L0 
     /tmp/ccocfciK.s:1728   .text:00000000000009a4 .L0 
     /tmp/ccocfciK.s:1729   .text:00000000000009a4 .L0 
     /tmp/ccocfciK.s:1734   .text:00000000000009b4 .L0 
     /tmp/ccocfciK.s:1737   .text:00000000000009b8 .L0 
     /tmp/ccocfciK.s:1738   .text:00000000000009b8 .L0 
     /tmp/ccocfciK.s:1742   .text:00000000000009c8 .L0 
     /tmp/ccocfciK.s:1748   .text:00000000000009cc .L0 
     /tmp/ccocfciK.s:1752   .text:00000000000009d0 .L0 
     /tmp/ccocfciK.s:1756   .text:00000000000009d8 .L0 
     /tmp/ccocfciK.s:1757   .text:00000000000009d8 .L0 
     /tmp/ccocfciK.s:1764   .text:00000000000009f0 .L0 
     /tmp/ccocfciK.s:1766   .text:00000000000009f4 .L0 
     /tmp/ccocfciK.s:1767   .text:00000000000009f4 .L0 
     /tmp/ccocfciK.s:1772   .text:0000000000000a00 .L0 
     /tmp/ccocfciK.s:1777   .text:0000000000000a10 .L0 
     /tmp/ccocfciK.s:1780   .text:0000000000000a14 .L0 
     /tmp/ccocfciK.s:1781   .text:0000000000000a14 .L0 
     /tmp/ccocfciK.s:1784   .text:0000000000000a18 .L0 
     /tmp/ccocfciK.s:1789   .text:0000000000000a1c .L0 
     /tmp/ccocfciK.s:1790   .text:0000000000000a1c .L0 
     /tmp/ccocfciK.s:1795   .text:0000000000000a2c .L0 
     /tmp/ccocfciK.s:1798   .text:0000000000000a30 .L0 
     /tmp/ccocfciK.s:1799   .text:0000000000000a30 .L0 
     /tmp/ccocfciK.s:1803   .text:0000000000000a40 .L0 
     /tmp/ccocfciK.s:1808   .text:0000000000000a44 .L0 
     /tmp/ccocfciK.s:1809   .text:0000000000000a44 .L0 
     /tmp/ccocfciK.s:1813   .text:0000000000000a48 .L0 
     /tmp/ccocfciK.s:1817   .text:0000000000000a4c .L0 
     /tmp/ccocfciK.s:1818   .text:0000000000000a4c .L0 
     /tmp/ccocfciK.s:1822   .text:0000000000000a60 .L0 
     /tmp/ccocfciK.s:1828   .text:0000000000000a60 _ZN12TestPeriodicC2Em
     /tmp/ccocfciK.s:1831   .text:0000000000000a60 .L0 
     /tmp/ccocfciK.s:1833   .text:0000000000000a60 .L0 
     /tmp/ccocfciK.s:1834   .text:0000000000000a64 .L0 
     /tmp/ccocfciK.s:1838   .text:0000000000000a70 .L0 
     /tmp/ccocfciK.s:1839   .text:0000000000000a70 .L0 
     /tmp/ccocfciK.s:1840   .text:0000000000000a70 .L0 
     /tmp/ccocfciK.s:1842   .text:0000000000000a74 .L0 
     /tmp/ccocfciK.s:1846   .text:0000000000000a78 .L0 
     /tmp/ccocfciK.s:2791   .data.rel.ro.local._ZTV12TestPeriodic:0000000000000000 _ZTV12TestPeriodic
     /tmp/ccocfciK.s:1852   .text:0000000000000a8c .L0 
     /tmp/ccocfciK.s:1853   .text:0000000000000a90 .L0 
     /tmp/ccocfciK.s:1855   .text:0000000000000a94 .L0 
     /tmp/ccocfciK.s:1856   .text:0000000000000a94 .L0 
     /tmp/ccocfciK.s:1858   .text:0000000000000a98 .L0 
     /tmp/ccocfciK.s:1861   .text:0000000000000a9c .L0 
     /tmp/ccocfciK.s:1863   .text:0000000000000aa0 .L0 
     /tmp/ccocfciK.s:1828   .text:0000000000000a60 _ZN12TestPeriodicC1Em
     /tmp/ccocfciK.s:1871   .text:0000000000000aa0 _Z11threadTest3v
     /tmp/ccocfciK.s:1874   .text:0000000000000aa0 .L0 
     /tmp/ccocfciK.s:1877   .text:0000000000000aa0 .L0 
     /tmp/ccocfciK.s:1878   .text:0000000000000aa4 .L0 
     /tmp/ccocfciK.s:1883   .text:0000000000000ab4 .L0 
     /tmp/ccocfciK.s:1884   .text:0000000000000ab4 .L0 
GAS LISTING /tmp/ccocfciK.s 			page 85


     /tmp/ccocfciK.s:1885   .text:0000000000000ab4 .L0 
     /tmp/ccocfciK.s:1886   .text:0000000000000ab4 .L0 
     /tmp/ccocfciK.s:1888   .text:0000000000000ab8 .L0 
     /tmp/ccocfciK.s:1890   .text:0000000000000ab8 .L0 
     /tmp/ccocfciK.s:1891   .text:0000000000000ab8 .L0 
     /tmp/ccocfciK.s:1903   .text:0000000000000ad4 .L0 
     /tmp/ccocfciK.s:1904   .text:0000000000000ad4 .L0 
     /tmp/ccocfciK.s:1911   .text:0000000000000ae0 .L0 
     /tmp/ccocfciK.s:1912   .text:0000000000000ae0 .L0 
     /tmp/ccocfciK.s:1917   .text:0000000000000ae8 .L0 
     /tmp/ccocfciK.s:1925   .text:0000000000000b00 .L0 
     /tmp/ccocfciK.s:1954   .text:0000000000000b00 _Z11threadTestsv
     /tmp/ccocfciK.s:1957   .text:0000000000000b00 .L0 
     /tmp/ccocfciK.s:1958   .text:0000000000000b00 .L0 
     /tmp/ccocfciK.s:1959   .text:0000000000000b04 .L0 
     /tmp/ccocfciK.s:1962   .text:0000000000000b0c .L0 
     /tmp/ccocfciK.s:1963   .text:0000000000000b0c .L0 
     /tmp/ccocfciK.s:1965   .text:0000000000000b10 .L0 
     /tmp/ccocfciK.s:1967   .text:0000000000000b10 .L0 
     /tmp/ccocfciK.s:1968   .text:0000000000000b10 .L0 
     /tmp/ccocfciK.s:1970   .text:0000000000000b18 .L0 
     /tmp/ccocfciK.s:1976   .text:0000000000000b18 _Z7myTestsv
     /tmp/ccocfciK.s:1979   .text:0000000000000b18 .L0 
     /tmp/ccocfciK.s:1980   .text:0000000000000b18 .L0 
     /tmp/ccocfciK.s:1981   .text:0000000000000b1c .L0 
     /tmp/ccocfciK.s:1984   .text:0000000000000b24 .L0 
     /tmp/ccocfciK.s:1985   .text:0000000000000b24 .L0 
     /tmp/ccocfciK.s:1987   .text:0000000000000b28 .L0 
     /tmp/ccocfciK.s:1989   .text:0000000000000b28 .L0 
     /tmp/ccocfciK.s:1990   .text:0000000000000b28 .L0 
     /tmp/ccocfciK.s:1992   .text:0000000000000b30 .L0 
     /tmp/ccocfciK.s:2006   .text:0000000000000b30 _Z10mallocTestv
     /tmp/ccocfciK.s:2009   .text:0000000000000b30 .L0 
     /tmp/ccocfciK.s:2010   .text:0000000000000b30 .L0 
     /tmp/ccocfciK.s:2011   .text:0000000000000b34 .L0 
     /tmp/ccocfciK.s:2020   .text:0000000000000b54 .L0 
     /tmp/ccocfciK.s:2021   .text:0000000000000b54 .L0 
     /tmp/ccocfciK.s:2022   .text:0000000000000b54 .L0 
     /tmp/ccocfciK.s:2023   .text:0000000000000b54 .L0 
     /tmp/ccocfciK.s:2024   .text:0000000000000b54 .L0 
     /tmp/ccocfciK.s:2025   .text:0000000000000b54 .L0 
     /tmp/ccocfciK.s:2026   .text:0000000000000b54 .L0 
     /tmp/ccocfciK.s:2027   .text:0000000000000b54 .L0 
     /tmp/ccocfciK.s:2029   .text:0000000000000b58 .L0 
     /tmp/ccocfciK.s:2031   .text:0000000000000b58 .L0 
     /tmp/ccocfciK.s:2032   .text:0000000000000b58 .L0 
     /tmp/ccocfciK.s:2036   .text:0000000000000b68 .L0 
     /tmp/ccocfciK.s:2037   .text:0000000000000b68 .L0 
     /tmp/ccocfciK.s:2043   .text:0000000000000b78 .L0 
     /tmp/ccocfciK.s:2044   .text:0000000000000b78 .L0 
     /tmp/ccocfciK.s:2047   .text:0000000000000b80 .L0 
     /tmp/ccocfciK.s:2048   .text:0000000000000b80 .L0 
     /tmp/ccocfciK.s:2054   .text:0000000000000b90 .L0 
     /tmp/ccocfciK.s:2055   .text:0000000000000b90 .L0 
     /tmp/ccocfciK.s:2062   .text:0000000000000ba0 .L0 
     /tmp/ccocfciK.s:2063   .text:0000000000000ba0 .L0 
     /tmp/ccocfciK.s:2070   .text:0000000000000bb0 .L0 
GAS LISTING /tmp/ccocfciK.s 			page 86


     /tmp/ccocfciK.s:2071   .text:0000000000000bb0 .L0 
     /tmp/ccocfciK.s:2079   .text:0000000000000bc4 .L0 
     /tmp/ccocfciK.s:2080   .text:0000000000000bc4 .L0 
     /tmp/ccocfciK.s:2085   .text:0000000000000bd0 .L0 
     /tmp/ccocfciK.s:2088   .text:0000000000000bd8 .L0 
     /tmp/ccocfciK.s:2090   .text:0000000000000bdc .L0 
     /tmp/ccocfciK.s:2092   .text:0000000000000be0 .L0 
     /tmp/ccocfciK.s:2094   .text:0000000000000be4 .L0 
     /tmp/ccocfciK.s:2096   .text:0000000000000be8 .L0 
     /tmp/ccocfciK.s:2097   .text:0000000000000be8 .L0 
     /tmp/ccocfciK.s:2102   .text:0000000000000bf4 .L0 
     /tmp/ccocfciK.s:2103   .text:0000000000000bf4 .L0 
     /tmp/ccocfciK.s:2107   .text:0000000000000c00 .L0 
     /tmp/ccocfciK.s:2108   .text:0000000000000c00 .L0 
     /tmp/ccocfciK.s:2112   .text:0000000000000c0c .L0 
     /tmp/ccocfciK.s:2113   .text:0000000000000c0c .L0 
     /tmp/ccocfciK.s:2117   .text:0000000000000c18 .L0 
     /tmp/ccocfciK.s:2118   .text:0000000000000c18 .L0 
     /tmp/ccocfciK.s:2122   .text:0000000000000c24 .L0 
     /tmp/ccocfciK.s:2123   .text:0000000000000c24 .L0 
     /tmp/ccocfciK.s:2125   .text:0000000000000c28 .L0 
     /tmp/ccocfciK.s:2130   .text:0000000000000c34 .L0 
     /tmp/ccocfciK.s:2131   .text:0000000000000c34 .L0 
     /tmp/ccocfciK.s:2138   .text:0000000000000c48 .L0 
     /tmp/ccocfciK.s:2139   .text:0000000000000c48 .L0 
     /tmp/ccocfciK.s:2145   .text:0000000000000c58 .L0 
     /tmp/ccocfciK.s:2146   .text:0000000000000c58 .L0 
     /tmp/ccocfciK.s:2147   .text:0000000000000c5c .L0 
     /tmp/ccocfciK.s:2149   .text:0000000000000c60 .L0 
     /tmp/ccocfciK.s:2150   .text:0000000000000c60 .L0 
     /tmp/ccocfciK.s:2152   .text:0000000000000c64 .L0 
     /tmp/ccocfciK.s:2155   .text:0000000000000c68 .L0 
     /tmp/ccocfciK.s:2158   .text:0000000000000c6c .L0 
     /tmp/ccocfciK.s:2161   .text:0000000000000c70 .L0 
     /tmp/ccocfciK.s:2164   .text:0000000000000c74 .L0 
     /tmp/ccocfciK.s:2167   .text:0000000000000c78 .L0 
     /tmp/ccocfciK.s:2169   .text:0000000000000c7c .L0 
     /tmp/ccocfciK.s:2171   .text:0000000000000c80 .L0 
     /tmp/ccocfciK.s:2185   .text:0000000000000c80 _Z16mallocEverythingv
     /tmp/ccocfciK.s:2188   .text:0000000000000c80 .L0 
     /tmp/ccocfciK.s:2189   .text:0000000000000c80 .L0 
     /tmp/ccocfciK.s:2190   .text:0000000000000c84 .L0 
     /tmp/ccocfciK.s:2194   .text:0000000000000c90 .L0 
     /tmp/ccocfciK.s:2195   .text:0000000000000c90 .L0 
     /tmp/ccocfciK.s:2196   .text:0000000000000c90 .L0 
     /tmp/ccocfciK.s:2198   .text:0000000000000c94 .L0 
     /tmp/ccocfciK.s:2200   .text:0000000000000c94 .L0 
     /tmp/ccocfciK.s:2201   .text:0000000000000c94 .L0 
     /tmp/ccocfciK.s:2205   .text:0000000000000ca4 .L0 
     /tmp/ccocfciK.s:2206   .text:0000000000000ca4 .L0 
     /tmp/ccocfciK.s:2213   .text:0000000000000cc0 .L0 
     /tmp/ccocfciK.s:2214   .text:0000000000000cc0 .L0 
     /tmp/ccocfciK.s:2219   .text:0000000000000ccc .L0 
     /tmp/ccocfciK.s:2221   .text:0000000000000cd0 .L0 
     /tmp/ccocfciK.s:2222   .text:0000000000000cd0 .L0 
     /tmp/ccocfciK.s:2228   .text:0000000000000ce0 .L0 
     /tmp/ccocfciK.s:2229   .text:0000000000000ce0 .L0 
GAS LISTING /tmp/ccocfciK.s 			page 87


     /tmp/ccocfciK.s:2230   .text:0000000000000ce4 .L0 
     /tmp/ccocfciK.s:2231   .text:0000000000000ce4 .L0 
     /tmp/ccocfciK.s:2233   .text:0000000000000ce8 .L0 
     /tmp/ccocfciK.s:2234   .text:0000000000000ce8 .L0 
     /tmp/ccocfciK.s:2236   .text:0000000000000cec .L0 
     /tmp/ccocfciK.s:2238   .text:0000000000000cf0 .L0 
     /tmp/ccocfciK.s:2242   .text:0000000000000cf4 .L0 
     /tmp/ccocfciK.s:2244   .text:0000000000000cf4 .L0 
     /tmp/ccocfciK.s:2245   .text:0000000000000cf4 .L0 
     /tmp/ccocfciK.s:2252   .text:0000000000000d10 .L0 
     /tmp/ccocfciK.s:2254   .text:0000000000000d14 .L0 
     /tmp/ccocfciK.s:2256   .text:0000000000000d18 .L0 
     /tmp/ccocfciK.s:2259   .text:0000000000000d1c .L0 
     /tmp/ccocfciK.s:2260   .text:0000000000000d1c .L0 
     /tmp/ccocfciK.s:2267   .text:0000000000000d2c .L0 
     /tmp/ccocfciK.s:2269   .text:0000000000000d30 .L0 
     /tmp/ccocfciK.s:2270   .text:0000000000000d30 .L0 
     /tmp/ccocfciK.s:2274   .text:0000000000000d3c .L0 
     /tmp/ccocfciK.s:2276   .text:0000000000000d40 .L0 
     /tmp/ccocfciK.s:2277   .text:0000000000000d40 .L0 
     /tmp/ccocfciK.s:2282   .text:0000000000000d4c .L0 
     /tmp/ccocfciK.s:2283   .text:0000000000000d4c .L0 
     /tmp/ccocfciK.s:2289   .text:0000000000000d60 .L0 
     /tmp/ccocfciK.s:2290   .text:0000000000000d60 .L0 
     /tmp/ccocfciK.s:2294   .text:0000000000000d70 .L0 
     /tmp/ccocfciK.s:2298   .text:0000000000000d74 .L0 
     /tmp/ccocfciK.s:2299   .text:0000000000000d74 .L0 
     /tmp/ccocfciK.s:2304   .text:0000000000000d84 .L0 
     /tmp/ccocfciK.s:2305   .text:0000000000000d88 .L0 
     /tmp/ccocfciK.s:2319   .text:0000000000000d88 _Z17mallocGapFillTestv
     /tmp/ccocfciK.s:2322   .text:0000000000000d88 .L0 
     /tmp/ccocfciK.s:2323   .text:0000000000000d88 .L0 
     /tmp/ccocfciK.s:2324   .text:0000000000000d8c .L0 
     /tmp/ccocfciK.s:2335   .text:0000000000000db4 .L0 
     /tmp/ccocfciK.s:2336   .text:0000000000000db4 .L0 
     /tmp/ccocfciK.s:2337   .text:0000000000000db4 .L0 
     /tmp/ccocfciK.s:2338   .text:0000000000000db4 .L0 
     /tmp/ccocfciK.s:2339   .text:0000000000000db4 .L0 
     /tmp/ccocfciK.s:2340   .text:0000000000000db4 .L0 
     /tmp/ccocfciK.s:2341   .text:0000000000000db4 .L0 
     /tmp/ccocfciK.s:2342   .text:0000000000000db4 .L0 
     /tmp/ccocfciK.s:2343   .text:0000000000000db4 .L0 
     /tmp/ccocfciK.s:2344   .text:0000000000000db4 .L0 
     /tmp/ccocfciK.s:2346   .text:0000000000000db8 .L0 
     /tmp/ccocfciK.s:2348   .text:0000000000000db8 .L0 
     /tmp/ccocfciK.s:2349   .text:0000000000000db8 .L0 
     /tmp/ccocfciK.s:2354   .text:0000000000000dc8 .L0 
     /tmp/ccocfciK.s:2358   .text:0000000000000dcc .L0 
     /tmp/ccocfciK.s:2361   .text:0000000000000dd4 .L0 
     /tmp/ccocfciK.s:2362   .text:0000000000000dd4 .L0 
     /tmp/ccocfciK.s:2364   .text:0000000000000dd8 .L0 
     /tmp/ccocfciK.s:2368   .text:0000000000000de4 .L0 
     /tmp/ccocfciK.s:2373   .text:0000000000000df4 .L0 
     /tmp/ccocfciK.s:2375   .text:0000000000000df8 .L0 
     /tmp/ccocfciK.s:2381   .text:0000000000000e00 .L0 
     /tmp/ccocfciK.s:2382   .text:0000000000000e00 .L0 
     /tmp/ccocfciK.s:2388   .text:0000000000000e10 .L0 
GAS LISTING /tmp/ccocfciK.s 			page 88


     /tmp/ccocfciK.s:2389   .text:0000000000000e10 .L0 
     /tmp/ccocfciK.s:2390   .text:0000000000000e14 .L0 
     /tmp/ccocfciK.s:2391   .text:0000000000000e14 .L0 
     /tmp/ccocfciK.s:2393   .text:0000000000000e18 .L0 
     /tmp/ccocfciK.s:2394   .text:0000000000000e18 .L0 
     /tmp/ccocfciK.s:2396   .text:0000000000000e1c .L0 
     /tmp/ccocfciK.s:2398   .text:0000000000000e20 .L0 
     /tmp/ccocfciK.s:2400   .text:0000000000000e24 .L0 
     /tmp/ccocfciK.s:2402   .text:0000000000000e28 .L0 
     /tmp/ccocfciK.s:2404   .text:0000000000000e2c .L0 
     /tmp/ccocfciK.s:2406   .text:0000000000000e30 .L0 
     /tmp/ccocfciK.s:2408   .text:0000000000000e34 .L0 
     /tmp/ccocfciK.s:2410   .text:0000000000000e38 .L0 
     /tmp/ccocfciK.s:2412   .text:0000000000000e3c .L0 
     /tmp/ccocfciK.s:2416   .text:0000000000000e40 .L0 
     /tmp/ccocfciK.s:2418   .text:0000000000000e40 .L0 
     /tmp/ccocfciK.s:2419   .text:0000000000000e40 .L0 
     /tmp/ccocfciK.s:2421   .text:0000000000000e44 .L0 
     /tmp/ccocfciK.s:2423   .text:0000000000000e48 .L0 
     /tmp/ccocfciK.s:2427   .text:0000000000000e50 .L0 
     /tmp/ccocfciK.s:2428   .text:0000000000000e50 .L0 
     /tmp/ccocfciK.s:2434   .text:0000000000000e60 .L0 
     /tmp/ccocfciK.s:2435   .text:0000000000000e60 .L0 
     /tmp/ccocfciK.s:2441   .text:0000000000000e70 .L0 
     /tmp/ccocfciK.s:2442   .text:0000000000000e70 .L0 
     /tmp/ccocfciK.s:2449   .text:0000000000000e80 .L0 
     /tmp/ccocfciK.s:2451   .text:0000000000000e84 .L0 
     /tmp/ccocfciK.s:2453   .text:0000000000000e88 .L0 
     /tmp/ccocfciK.s:2455   .text:0000000000000e8c .L0 
     /tmp/ccocfciK.s:2456   .text:0000000000000e8c .L0 
     /tmp/ccocfciK.s:2459   .text:0000000000000e90 .L0 
     /tmp/ccocfciK.s:2460   .text:0000000000000e90 .L0 
     /tmp/ccocfciK.s:2463   .text:0000000000000e94 .L0 
     /tmp/ccocfciK.s:2464   .text:0000000000000e94 .L0 
     /tmp/ccocfciK.s:2467   .text:0000000000000e98 .L0 
     /tmp/ccocfciK.s:2468   .text:0000000000000e98 .L0 
     /tmp/ccocfciK.s:2471   .text:0000000000000e9c .L0 
     /tmp/ccocfciK.s:2472   .text:0000000000000e9c .L0 
     /tmp/ccocfciK.s:2473   .text:0000000000000e9c .L0 
     /tmp/ccocfciK.s:2476   .text:0000000000000ea0 .L0 
     /tmp/ccocfciK.s:2477   .text:0000000000000ea0 .L0 
     /tmp/ccocfciK.s:2480   .text:0000000000000ea4 .L0 
     /tmp/ccocfciK.s:2482   .text:0000000000000ea8 .L0 
     /tmp/ccocfciK.s:2484   .text:0000000000000eac .L0 
     /tmp/ccocfciK.s:2486   .text:0000000000000eb0 .L0 
     /tmp/ccocfciK.s:2488   .text:0000000000000eb4 .L0 
     /tmp/ccocfciK.s:2490   .text:0000000000000eb8 .L0 
     /tmp/ccocfciK.s:2491   .text:0000000000000eb8 .L0 
     /tmp/ccocfciK.s:2493   .text:0000000000000ebc .L0 
     /tmp/ccocfciK.s:2497   .text:0000000000000ec4 .L0 
     /tmp/ccocfciK.s:2498   .text:0000000000000ec4 .L0 
     /tmp/ccocfciK.s:2500   .text:0000000000000ec8 .L0 
     /tmp/ccocfciK.s:2502   .text:0000000000000ecc .L0 
     /tmp/ccocfciK.s:2506   .text:0000000000000ed4 .L0 
     /tmp/ccocfciK.s:2507   .text:0000000000000ed4 .L0 
     /tmp/ccocfciK.s:2513   .text:0000000000000ee4 .L0 
     /tmp/ccocfciK.s:2514   .text:0000000000000ee4 .L0 
GAS LISTING /tmp/ccocfciK.s 			page 89


     /tmp/ccocfciK.s:2521   .text:0000000000000ef4 .L0 
     /tmp/ccocfciK.s:2523   .text:0000000000000ef8 .L0 
     /tmp/ccocfciK.s:2526   .text:0000000000000efc .L0 
     /tmp/ccocfciK.s:2527   .text:0000000000000efc .L0 
     /tmp/ccocfciK.s:2528   .text:0000000000000efc .L0 
     /tmp/ccocfciK.s:2530   .text:0000000000000f00 .L0 
     /tmp/ccocfciK.s:2532   .text:0000000000000f04 .L0 
     /tmp/ccocfciK.s:2535   .text:0000000000000f08 .L0 
     /tmp/ccocfciK.s:2541   .text:0000000000000f10 .L0 
     /tmp/ccocfciK.s:2542   .text:0000000000000f10 .L0 
     /tmp/ccocfciK.s:2547   .text:0000000000000f20 .L0 
     /tmp/ccocfciK.s:2551   .text:0000000000000f24 .L0 
     /tmp/ccocfciK.s:2552   .text:0000000000000f24 .L0 
     /tmp/ccocfciK.s:2557   .text:0000000000000f34 .L0 
     /tmp/ccocfciK.s:2561   .text:0000000000000f38 .L0 
     /tmp/ccocfciK.s:2562   .text:0000000000000f38 .L0 
     /tmp/ccocfciK.s:2567   .text:0000000000000f48 .L0 
     /tmp/ccocfciK.s:2571   .text:0000000000000f4c .L0 
     /tmp/ccocfciK.s:2572   .text:0000000000000f4c .L0 
     /tmp/ccocfciK.s:2577   .text:0000000000000f5c .L0 
     /tmp/ccocfciK.s:2582   .text:0000000000000f60 .L0 
     /tmp/ccocfciK.s:2586   .text:0000000000000f64 .L0 
     /tmp/ccocfciK.s:2589   .text:0000000000000f6c .L0 
     /tmp/ccocfciK.s:2590   .text:0000000000000f6c .L0 
     /tmp/ccocfciK.s:2596   .text:0000000000000f7c .L0 
     /tmp/ccocfciK.s:2598   .text:0000000000000f80 .L0 
     /tmp/ccocfciK.s:2604   .text:0000000000000f8c .L0 
     /tmp/ccocfciK.s:2605   .text:0000000000000f8c .L0 
     /tmp/ccocfciK.s:2609   .text:0000000000000f98 .L0 
     /tmp/ccocfciK.s:2610   .text:0000000000000f98 .L0 
     /tmp/ccocfciK.s:2614   .text:0000000000000fa4 .L0 
     /tmp/ccocfciK.s:2615   .text:0000000000000fa4 .L0 
     /tmp/ccocfciK.s:2619   .text:0000000000000fb0 .L0 
     /tmp/ccocfciK.s:2620   .text:0000000000000fb0 .L0 
     /tmp/ccocfciK.s:2624   .text:0000000000000fbc .L0 
     /tmp/ccocfciK.s:2625   .text:0000000000000fbc .L0 
     /tmp/ccocfciK.s:2629   .text:0000000000000fc8 .L0 
     /tmp/ccocfciK.s:2630   .text:0000000000000fc8 .L0 
     /tmp/ccocfciK.s:2634   .text:0000000000000fdc .L0 
     /tmp/ccocfciK.s:2640   .text:0000000000000fdc _Z21memoryAllocationTestsv
     /tmp/ccocfciK.s:2643   .text:0000000000000fdc .L0 
     /tmp/ccocfciK.s:2644   .text:0000000000000fdc .L0 
     /tmp/ccocfciK.s:2645   .text:0000000000000fe0 .L0 
     /tmp/ccocfciK.s:2648   .text:0000000000000fe8 .L0 
     /tmp/ccocfciK.s:2649   .text:0000000000000fe8 .L0 
     /tmp/ccocfciK.s:2651   .text:0000000000000fec .L0 
     /tmp/ccocfciK.s:2653   .text:0000000000000fec .L0 
     /tmp/ccocfciK.s:2654   .text:0000000000000fec .L0 
     /tmp/ccocfciK.s:2657   .text:0000000000000ff4 .L0 
     /tmp/ccocfciK.s:2658   .text:0000000000000ff8 .L0 
     /tmp/ccocfciK.s:2660   .text:0000000000000ffc .L0 
     /tmp/ccocfciK.s:2661   .text:0000000000000ffc .L0 
     /tmp/ccocfciK.s:2663   .text:0000000000001000 .L0 
     /tmp/ccocfciK.s:2665   .text:0000000000001004 .L0 
     /tmp/ccocfciK.s:2671   .text:0000000000001004 _Z8semTest1v
     /tmp/ccocfciK.s:2674   .text:0000000000001004 .L0 
     /tmp/ccocfciK.s:2675   .text:0000000000001004 .L0 
GAS LISTING /tmp/ccocfciK.s 			page 90


     /tmp/ccocfciK.s:2676   .text:0000000000001008 .L0 
     /tmp/ccocfciK.s:2679   .text:0000000000001010 .L0 
     /tmp/ccocfciK.s:2680   .text:0000000000001010 .L0 
     /tmp/ccocfciK.s:2682   .text:0000000000001014 .L0 
     /tmp/ccocfciK.s:2684   .text:0000000000001014 .L0 
     /tmp/ccocfciK.s:2685   .text:0000000000001014 .L0 
     /tmp/ccocfciK.s:2690   .text:0000000000001028 .L0 
     /tmp/ccocfciK.s:2691   .text:0000000000001028 .L0 
     /tmp/ccocfciK.s:2696   .text:000000000000103c .L0 
     /tmp/ccocfciK.s:2697   .text:000000000000103c .L0 
     /tmp/ccocfciK.s:2698   .text:000000000000103c .L0 
     /tmp/ccocfciK.s:2704   .text:0000000000001054 .L0 
     /tmp/ccocfciK.s:2705   .text:0000000000001054 .L0 
     /tmp/ccocfciK.s:2713   .text:0000000000001070 .L0 
     /tmp/ccocfciK.s:2714   .text:0000000000001070 .L0 
     /tmp/ccocfciK.s:2718   .text:0000000000001078 .L0 
     /tmp/ccocfciK.s:2719   .text:0000000000001078 .L0 
     /tmp/ccocfciK.s:2720   .text:0000000000001078 .L0 
     /tmp/ccocfciK.s:2724   .text:0000000000001084 .L0 
     /tmp/ccocfciK.s:2726   .text:0000000000001088 .L0 
     /tmp/ccocfciK.s:2730   .text:0000000000001094 .L0 
     /tmp/ccocfciK.s:2732   .text:0000000000001098 .L0 
     /tmp/ccocfciK.s:2733   .text:000000000000109c .L0 
     /tmp/ccocfciK.s:2735   .text:00000000000010a0 .L0 
     /tmp/ccocfciK.s:2736   .text:00000000000010a0 .L0 
     /tmp/ccocfciK.s:2738   .text:00000000000010a4 .L0 
     /tmp/ccocfciK.s:2740   .text:00000000000010a8 .L0 
     /tmp/ccocfciK.s:2746   .text:00000000000010a8 _Z14semaphoreTestsv
     /tmp/ccocfciK.s:2749   .text:00000000000010a8 .L0 
     /tmp/ccocfciK.s:2750   .text:00000000000010a8 .L0 
     /tmp/ccocfciK.s:2751   .text:00000000000010ac .L0 
     /tmp/ccocfciK.s:2754   .text:00000000000010b4 .L0 
     /tmp/ccocfciK.s:2755   .text:00000000000010b4 .L0 
     /tmp/ccocfciK.s:2757   .text:00000000000010b8 .L0 
     /tmp/ccocfciK.s:2759   .text:00000000000010b8 .L0 
     /tmp/ccocfciK.s:2760   .text:00000000000010b8 .L0 
     /tmp/ccocfciK.s:2763   .text:00000000000010c0 .L0 
     /tmp/ccocfciK.s:2764   .text:00000000000010c4 .L0 
     /tmp/ccocfciK.s:2766   .text:00000000000010c8 .L0 
     /tmp/ccocfciK.s:2767   .text:00000000000010c8 .L0 
     /tmp/ccocfciK.s:2769   .text:00000000000010cc .L0 
     /tmp/ccocfciK.s:2771   .text:00000000000010d0 .L0 
     /tmp/ccocfciK.s:2809   .data:0000000000000000 string
     /tmp/ccocfciK.s:2821   .bss:0000000000000008 itemAvailable
     /tmp/ccocfciK.s:2830   .bss:0000000000000020 spaceAvailable
     /tmp/ccocfciK.s:2834   .bss:0000000000000028 tail
     /tmp/ccocfciK.s:2816   .bss:0000000000000000 head
     /tmp/ccocfciK.s:2825   .bss:0000000000000010 buffer
     /tmp/ccocfciK.s:2806   .data:0000000000000000 .LANCHOR1
     /tmp/ccocfciK.s:2813   .bss:0000000000000000 .LANCHOR0
     /tmp/ccocfciK.s:32     .text._ZN6Thread3runEv:0000000000000018 .L0 
     /tmp/ccocfciK.s:57     .text._ZN14PeriodicThread18periodicActivationEv:0000000000000018 .L0 
     /tmp/ccocfciK.s:2843   .text:00000000000010d0 .L0 
     /tmp/ccocfciK.s:622    .text._ZN14PeriodicThreadD2Ev:0000000000000034 .L0 
     /tmp/ccocfciK.s:669    .text._ZN14PeriodicThreadD0Ev:000000000000004c .L0 
     /tmp/ccocfciK.s:711    .text._ZN12TestPeriodicD2Ev:0000000000000034 .L0 
     /tmp/ccocfciK.s:761    .text._ZN12TestPeriodicD0Ev:000000000000004c .L0 
GAS LISTING /tmp/ccocfciK.s 			page 91


     /tmp/ccocfciK.s:59     .rodata.str1.8:0000000000000000 .LC0
     /tmp/ccocfciK.s:84     .text:0000000000000010 .L0 
     /tmp/ccocfciK.s:98     .rodata.str1.8:0000000000000008 .LC1
     /tmp/ccocfciK.s:127    .text:0000000000000040 .L0 
     /tmp/ccocfciK.s:101    .rodata.str1.8:0000000000000020 .LC2
     /tmp/ccocfciK.s:146    .text:0000000000000060 .L0 
     /tmp/ccocfciK.s:104    .rodata.str1.8:0000000000000028 .LC3
     /tmp/ccocfciK.s:156    .text:000000000000007c .L0 
     /tmp/ccocfciK.s:195    .rodata.str1.8:0000000000000030 .LC4
     /tmp/ccocfciK.s:221    .text:00000000000000d8 .L0 
     /tmp/ccocfciK.s:198    .rodata.str1.8:0000000000000048 .LC5
     /tmp/ccocfciK.s:240    .text:00000000000000f8 .L0 
     /tmp/ccocfciK.s:250    .text:0000000000000114 .L0 
     /tmp/ccocfciK.s:318    .text:0000000000000180 .L0 
     /tmp/ccocfciK.s:368    .text:00000000000001cc .L0 
     /tmp/ccocfciK.s:393    .text:00000000000001f8 .L0 
     /tmp/ccocfciK.s:403    .text:0000000000000214 .L0 
     /tmp/ccocfciK.s:454    .text:0000000000000264 .L0 
     /tmp/ccocfciK.s:472    .text:0000000000000288 .L0 
     /tmp/ccocfciK.s:493    .text:00000000000002c4 .L0 
     /tmp/ccocfciK.s:523    .text:00000000000002ec .L0 
     /tmp/ccocfciK.s:541    .text:0000000000000310 .L0 
     /tmp/ccocfciK.s:548    .text:0000000000000328 .L0 
     /tmp/ccocfciK.s:565    .text:0000000000000354 .L0 
     /tmp/ccocfciK.s:796    .text:00000000000003a8 .L0 
     /tmp/ccocfciK.s:816    .text:00000000000003d8 .L0 
     /tmp/ccocfciK.s:763    .rodata.str1.8:0000000000000050 .LC6
     /tmp/ccocfciK.s:833    .text:00000000000003fc .L0 
     /tmp/ccocfciK.s:948    .text:0000000000000490 .L0 
     /tmp/ccocfciK.s:968    .text:00000000000004c0 .L0 
     /tmp/ccocfciK.s:988    .text:00000000000004f0 .L0 
     /tmp/ccocfciK.s:1005   .text:0000000000000514 .L0 
     /tmp/ccocfciK.s:1114   .rodata.str1.8:0000000000000058 .LC7
     /tmp/ccocfciK.s:1142   .text:00000000000005ac .L0 
     /tmp/ccocfciK.s:1117   .rodata.str1.8:0000000000000068 .LC8
     /tmp/ccocfciK.s:1172   .text:00000000000005f0 .L0 
     /tmp/ccocfciK.s:1224   .text:0000000000000644 .L0 
     /tmp/ccocfciK.s:1262   .text:000000000000068c .L0 
     /tmp/ccocfciK.s:1298   .text:00000000000006d0 .L0 
     /tmp/ccocfciK.s:1120   .rodata.str1.8:0000000000000070 .LC9
     /tmp/ccocfciK.s:1309   .text:00000000000006e4 .L0 
     /tmp/ccocfciK.s:1318   .rodata.str1.8:0000000000000078 .LC10
     /tmp/ccocfciK.s:1338   .text:0000000000000708 .L0 
     /tmp/ccocfciK.s:1343   .text:0000000000000718 .L0 
     /tmp/ccocfciK.s:1345   .text:0000000000000724 .L0 
     /tmp/ccocfciK.s:1359   .text:0000000000000744 .L0 
     /tmp/ccocfciK.s:1379   .text:0000000000000764 .L0 
     /tmp/ccocfciK.s:1389   .rodata.str1.8:0000000000000088 .LC11
     /tmp/ccocfciK.s:1415   .text:0000000000000794 .L0 
     /tmp/ccocfciK.s:1476   .text:00000000000007f0 .L0 
     /tmp/ccocfciK.s:1489   .text:0000000000000810 .L0 
     /tmp/ccocfciK.s:1516   .text:000000000000083c .L0 
     /tmp/ccocfciK.s:1525   .rodata.str1.8:00000000000000a0 .LC12
     /tmp/ccocfciK.s:1545   .text:0000000000000860 .L0 
     /tmp/ccocfciK.s:1563   .text:000000000000088c .L0 
     /tmp/ccocfciK.s:1583   .text:00000000000008ac .L0 
     /tmp/ccocfciK.s:1594   .rodata.str1.8:00000000000000b0 .LC13
GAS LISTING /tmp/ccocfciK.s 			page 92


     /tmp/ccocfciK.s:1621   .text:00000000000008d8 .L0 
     /tmp/ccocfciK.s:1651   .text:000000000000091c .L0 
     /tmp/ccocfciK.s:1729   .text:00000000000009a4 .L0 
     /tmp/ccocfciK.s:1597   .rodata.str1.8:00000000000000c0 .LC14
     /tmp/ccocfciK.s:1738   .text:00000000000009b8 .L0 
     /tmp/ccocfciK.s:1790   .text:0000000000000a1c .L0 
     /tmp/ccocfciK.s:1799   .text:0000000000000a30 .L0 
     /tmp/ccocfciK.s:1818   .text:0000000000000a4c .L0 
     /tmp/ccocfciK.s:1848   .text:0000000000000a80 .L0 
     /tmp/ccocfciK.s:1997   .rodata.str1.8:00000000000000c8 .LC15
     /tmp/ccocfciK.s:2032   .text:0000000000000b58 .L0 
     /tmp/ccocfciK.s:2000   .rodata.str1.8:00000000000000f0 .LC16
     /tmp/ccocfciK.s:2131   .text:0000000000000c34 .L0 
     /tmp/ccocfciK.s:2139   .text:0000000000000c48 .L0 
     /tmp/ccocfciK.s:2176   .rodata.str1.8:0000000000000120 .LC17
     /tmp/ccocfciK.s:2201   .text:0000000000000c94 .L0 
     /tmp/ccocfciK.s:2206   .text:0000000000000ca4 .L0 
     /tmp/ccocfciK.s:2208   .text:0000000000000cb0 .L0 
     /tmp/ccocfciK.s:2222   .text:0000000000000cd0 .L0 
     /tmp/ccocfciK.s:2245   .text:0000000000000cf4 .L0 
     /tmp/ccocfciK.s:2248   .text:0000000000000d00 .L0 
     /tmp/ccocfciK.s:2179   .rodata.str1.8:0000000000000150 .LC18
     /tmp/ccocfciK.s:2283   .text:0000000000000d4c .L0 
     /tmp/ccocfciK.s:2290   .text:0000000000000d60 .L0 
     /tmp/ccocfciK.s:2299   .text:0000000000000d74 .L0 
     /tmp/ccocfciK.s:2310   .rodata.str1.8:0000000000000188 .LC19
     /tmp/ccocfciK.s:2349   .text:0000000000000db8 .L0 
     /tmp/ccocfciK.s:2382   .text:0000000000000e00 .L0 
     /tmp/ccocfciK.s:2542   .text:0000000000000f10 .L0 
     /tmp/ccocfciK.s:2552   .text:0000000000000f24 .L0 
     /tmp/ccocfciK.s:2562   .text:0000000000000f38 .L0 
     /tmp/ccocfciK.s:2572   .text:0000000000000f4c .L0 
     /tmp/ccocfciK.s:2313   .rodata.str1.8:00000000000001d0 .LC20
     /tmp/ccocfciK.s:2630   .text:0000000000000fc8 .L0 
     /tmp/ccocfciK.s:2686   .text:0000000000001018 .L0 
     /tmp/ccocfciK.s:2692   .text:000000000000102c .L0 
     /tmp/ccocfciK.s:2699   .text:0000000000001040 .L0 
     /tmp/ccocfciK.s:2706   .text:0000000000001058 .L0 
     /tmp/ccocfciK.s:80     .text:0000000000000010 .L6
     /tmp/ccocfciK.s:162    .text:0000000000000090 .L11
     /tmp/ccocfciK.s:176    .text:00000000000000b0 .L8
     /tmp/ccocfciK.s:143    .text:0000000000000060 .L10
     /tmp/ccocfciK.s:138    .text:0000000000000058 .L13
     /tmp/ccocfciK.s:256    .text:0000000000000128 .L17
     /tmp/ccocfciK.s:270    .text:0000000000000148 .L14
     /tmp/ccocfciK.s:237    .text:00000000000000f8 .L16
     /tmp/ccocfciK.s:232    .text:00000000000000f0 .L19
     /tmp/ccocfciK.s:331    .text:00000000000001a4 .L20
     /tmp/ccocfciK.s:311    .text:0000000000000174 .L22
     /tmp/ccocfciK.s:409    .text:0000000000000228 .L28
     /tmp/ccocfciK.s:417    .text:000000000000023c .L26
     /tmp/ccocfciK.s:427    .text:0000000000000250 .L24
     /tmp/ccocfciK.s:379    .text:00000000000001e4 .L30
     /tmp/ccocfciK.s:390    .text:00000000000001f8 .L27
     /tmp/ccocfciK.s:385    .text:00000000000001f0 .L31
     /tmp/ccocfciK.s:508    .text:00000000000002e8 .L40
     /tmp/ccocfciK.s:469    .text:0000000000000288 .L37
GAS LISTING /tmp/ccocfciK.s 			page 93


     /tmp/ccocfciK.s:580    .text:0000000000000378 .L49
     /tmp/ccocfciK.s:538    .text:0000000000000310 .L46
     /tmp/ccocfciK.s:1154   .text:00000000000005c8 .L78
     /tmp/ccocfciK.s:1191   .text:0000000000000614 .L86
     /tmp/ccocfciK.s:1150   .text:00000000000005c4 .L76
     /tmp/ccocfciK.s:1230   .text:0000000000000658 .L87
     /tmp/ccocfciK.s:1220   .text:0000000000000644 .L90
     /tmp/ccocfciK.s:1197   .text:0000000000000618 .L75
     /tmp/ccocfciK.s:1176   .text:0000000000000600 .L74
     /tmp/ccocfciK.s:1244   .text:0000000000000664 .L79
     /tmp/ccocfciK.s:1267   .text:00000000000006a0 .L88
     /tmp/ccocfciK.s:1239   .text:0000000000000660 .L82
     /tmp/ccocfciK.s:1304   .text:00000000000006e4 .L83
     /tmp/ccocfciK.s:1294   .text:00000000000006d0 .L91
     /tmp/ccocfciK.s:1273   .text:00000000000006a4 .L81
     /tmp/ccocfciK.s:1375   .text:0000000000000764 .L96
     /tmp/ccocfciK.s:1363   .text:0000000000000754 .L92
     /tmp/ccocfciK.s:1452   .text:00000000000007c8 .L99
     /tmp/ccocfciK.s:1466   .text:00000000000007e4 .L98
     /tmp/ccocfciK.s:1433   .text:00000000000007b4 .L103
     /tmp/ccocfciK.s:1512   .text:000000000000083c .L104
     /tmp/ccocfciK.s:1492   .text:0000000000000820 .L97
     /tmp/ccocfciK.s:1579   .text:00000000000008ac .L106
     /tmp/ccocfciK.s:1567   .text:000000000000089c .L105
     /tmp/ccocfciK.s:1633   .text:00000000000008f4 .L113
     /tmp/ccocfciK.s:1672   .text:0000000000000944 .L123
     /tmp/ccocfciK.s:1629   .text:00000000000008f0 .L111
     /tmp/ccocfciK.s:1815   .text:0000000000000a4c .L114
     /tmp/ccocfciK.s:1743   .text:00000000000009cc .L124
     /tmp/ccocfciK.s:1725   .text:00000000000009a4 .L126
     /tmp/ccocfciK.s:1735   .text:00000000000009b8 .L127
     /tmp/ccocfciK.s:1685   .text:0000000000000950 .L118
     /tmp/ccocfciK.s:1655   .text:000000000000092c .L109
     /tmp/ccocfciK.s:1804   .text:0000000000000a44 .L119
     /tmp/ccocfciK.s:1786   .text:0000000000000a1c .L128
     /tmp/ccocfciK.s:1796   .text:0000000000000a30 .L129
     /tmp/ccocfciK.s:1750   .text:00000000000009d0 .L115
     /tmp/ccocfciK.s:1677   .text:0000000000000948 .L110
     /tmp/ccocfciK.s:1909   .text:0000000000000ae0 .L133
     /tmp/ccocfciK.s:2136   .text:0000000000000c48 .L142
     /tmp/ccocfciK.s:2128   .text:0000000000000c34 .L145
     /tmp/ccocfciK.s:2144   .text:0000000000000c58 .L141
     /tmp/ccocfciK.s:2241   .text:0000000000000cf4 .L148
     /tmp/ccocfciK.s:2287   .text:0000000000000d60 .L153
     /tmp/ccocfciK.s:2296   .text:0000000000000d74 .L154
     /tmp/ccocfciK.s:2227   .text:0000000000000ce0 .L147
     /tmp/ccocfciK.s:2415   .text:0000000000000e40 .L156
     /tmp/ccocfciK.s:2379   .text:0000000000000e00 .L176
     /tmp/ccocfciK.s:2355   .text:0000000000000dcc .L159
     /tmp/ccocfciK.s:2425   .text:0000000000000e50 .L160
     /tmp/ccocfciK.s:2538   .text:0000000000000f10 .L161
     /tmp/ccocfciK.s:2549   .text:0000000000000f24 .L163
     /tmp/ccocfciK.s:2495   .text:0000000000000ec4 .L165
     /tmp/ccocfciK.s:2504   .text:0000000000000ed4 .L166
     /tmp/ccocfciK.s:2559   .text:0000000000000f38 .L167
     /tmp/ccocfciK.s:2569   .text:0000000000000f4c .L169
     /tmp/ccocfciK.s:2584   .text:0000000000000f64 .L170
GAS LISTING /tmp/ccocfciK.s 			page 94


     /tmp/ccocfciK.s:2386   .text:0000000000000e10 .L155
     /tmp/ccocfciK.s:2601   .text:0000000000000f8c .L171
     /tmp/ccocfciK.s:2579   .text:0000000000000f60 .L172
     /tmp/ccocfciK.s:2716   .text:0000000000001078 .L182
     /tmp/ccocfciK.s:2711   .text:0000000000001070 .L180
     /tmp/ccocfciK.s:604    .text._ZN14PeriodicThreadD2Ev:0000000000000010 .L0 
     /tmp/ccocfciK.s:646    .text._ZN14PeriodicThreadD0Ev:0000000000000018 .L0 
     /tmp/ccocfciK.s:691    .text._ZN12TestPeriodicD2Ev:0000000000000010 .L0 
     /tmp/ccocfciK.s:736    .text._ZN12TestPeriodicD0Ev:0000000000000018 .L0 
     /tmp/ccocfciK.s:790    .text:0000000000000398 .LEHB0
     /tmp/ccocfciK.s:770    .text:000000000000037c .LFB27
     /tmp/ccocfciK.s:793    .text:00000000000003a0 .LEHE0
     /tmp/ccocfciK.s:797    .text:00000000000003b0 .LEHB1
     /tmp/ccocfciK.s:800    .text:00000000000003b8 .LEHE1
     /tmp/ccocfciK.s:856    .text:000000000000042c .L61
     /tmp/ccocfciK.s:804    .text:00000000000003bc .LEHB2
     /tmp/ccocfciK.s:812    .text:00000000000003d0 .LEHE2
     /tmp/ccocfciK.s:817    .text:00000000000003e0 .LEHB3
     /tmp/ccocfciK.s:820    .text:00000000000003e8 .LEHE3
     /tmp/ccocfciK.s:868    .text:0000000000000448 .L62
     /tmp/ccocfciK.s:824    .text:00000000000003ec .LEHB4
     /tmp/ccocfciK.s:840    .text:0000000000000414 .LEHE4
     /tmp/ccocfciK.s:864    .text:0000000000000440 .LEHB5
     /tmp/ccocfciK.s:867    .text:0000000000000448 .LEHE5
     /tmp/ccocfciK.s:875    .text:000000000000045c .LEHB6
     /tmp/ccocfciK.s:878    .text:0000000000000464 .LEHE6
     /tmp/ccocfciK.s:942    .text:0000000000000480 .LEHB7
     /tmp/ccocfciK.s:922    .text:0000000000000464 .LFB28
     /tmp/ccocfciK.s:945    .text:0000000000000488 .LEHE7
     /tmp/ccocfciK.s:949    .text:0000000000000498 .LEHB8
     /tmp/ccocfciK.s:952    .text:00000000000004a0 .LEHE8
     /tmp/ccocfciK.s:1028   .text:0000000000000544 .L69
     /tmp/ccocfciK.s:956    .text:00000000000004a4 .LEHB9
     /tmp/ccocfciK.s:964    .text:00000000000004b8 .LEHE9
     /tmp/ccocfciK.s:969    .text:00000000000004c8 .LEHB10
     /tmp/ccocfciK.s:972    .text:00000000000004d0 .LEHE10
     /tmp/ccocfciK.s:1040   .text:0000000000000560 .L70
     /tmp/ccocfciK.s:976    .text:00000000000004d4 .LEHB11
     /tmp/ccocfciK.s:984    .text:00000000000004e8 .LEHE11
     /tmp/ccocfciK.s:989    .text:00000000000004f8 .LEHB12
     /tmp/ccocfciK.s:992    .text:0000000000000500 .LEHE12
     /tmp/ccocfciK.s:1051   .text:000000000000057c .L71
     /tmp/ccocfciK.s:996    .text:0000000000000504 .LEHB13
     /tmp/ccocfciK.s:1012   .text:000000000000052c .LEHE13
     /tmp/ccocfciK.s:1036   .text:0000000000000558 .LEHB14
     /tmp/ccocfciK.s:1039   .text:0000000000000560 .LEHE14
     /tmp/ccocfciK.s:1047   .text:0000000000000574 .LEHB15
     /tmp/ccocfciK.s:1050   .text:000000000000057c .LEHE15
     /tmp/ccocfciK.s:1058   .text:0000000000000590 .LEHB16
     /tmp/ccocfciK.s:1061   .text:0000000000000598 .LEHE16
     /tmp/ccocfciK.s:1892   .text:0000000000000abc .LEHB17
     /tmp/ccocfciK.s:1872   .text:0000000000000aa0 .LFB29
     /tmp/ccocfciK.s:1895   .text:0000000000000ac4 .LEHE17
     /tmp/ccocfciK.s:1898   .text:0000000000000acc .LEHB18
     /tmp/ccocfciK.s:1901   .text:0000000000000ad4 .LEHE18
     /tmp/ccocfciK.s:1914   .text:0000000000000ae4 .L135
     /tmp/ccocfciK.s:1905   .text:0000000000000ad8 .LEHB19
GAS LISTING /tmp/ccocfciK.s 			page 95


     /tmp/ccocfciK.s:1908   .text:0000000000000ae0 .LEHE19
     /tmp/ccocfciK.s:1921   .text:0000000000000af8 .LEHB20
     /tmp/ccocfciK.s:1924   .text:0000000000000b00 .LEHE20
     /tmp/ccocfciK.s:7066   .debug_abbrev:0000000000000000 .Ldebug_abbrev0
     /tmp/ccocfciK.s:9849   .debug_str:0000000000000a12 .LASF261
     /tmp/ccocfciK.s:9775   .debug_str:00000000000007ee .LASF262
     /tmp/ccocfciK.s:9557   .debug_str:000000000000012e .LASF263
     /tmp/ccocfciK.s:9451   .debug_ranges:0000000000000000 .Ldebug_ranges0
     /tmp/ccocfciK.s:9511   .debug_line:0000000000000000 .Ldebug_line0
     /tmp/ccocfciK.s:9567   .debug_str:00000000000001ae .LASF0
     /tmp/ccocfciK.s:10019  .debug_str:0000000000000f80 .LASF1
     /tmp/ccocfciK.s:9951   .debug_str:0000000000000d8e .LASF2
     /tmp/ccocfciK.s:9923   .debug_str:0000000000000cd5 .LASF4
     /tmp/ccocfciK.s:9931   .debug_str:0000000000000d12 .LASF3
     /tmp/ccocfciK.s:9677   .debug_str:000000000000051f .LASF5
     /tmp/ccocfciK.s:9749   .debug_str:0000000000000710 .LASF6
     /tmp/ccocfciK.s:9723   .debug_str:0000000000000656 .LASF7
     /tmp/ccocfciK.s:9859   .debug_str:0000000000000af4 .LASF8
     /tmp/ccocfciK.s:9589   .debug_str:000000000000024c .LASF9
     /tmp/ccocfciK.s:10001  .debug_str:0000000000000f08 .LASF10
     /tmp/ccocfciK.s:9685   .debug_str:0000000000000554 .LASF11
     /tmp/ccocfciK.s:9623   .debug_str:0000000000000383 .LASF12
     /tmp/ccocfciK.s:9751   .debug_str:0000000000000717 .LASF13
     /tmp/ccocfciK.s:9691   .debug_str:0000000000000579 .LASF14
     /tmp/ccocfciK.s:9909   .debug_str:0000000000000c91 .LASF15
     /tmp/ccocfciK.s:9693   .debug_str:0000000000000589 .LASF16
     /tmp/ccocfciK.s:9661   .debug_str:00000000000004b5 .LASF17
     /tmp/ccocfciK.s:9613   .debug_str:0000000000000327 .LASF86
     /tmp/ccocfciK.s:9895   .debug_str:0000000000000c2e .LASF18
     /tmp/ccocfciK.s:9561   .debug_str:000000000000016f .LASF20
     /tmp/ccocfciK.s:9857   .debug_str:0000000000000ae9 .LASF19
     /tmp/ccocfciK.s:9975   .debug_str:0000000000000e38 .LASF21
     /tmp/ccocfciK.s:9981   .debug_str:0000000000000e74 .LASF22
     /tmp/ccocfciK.s:9679   .debug_str:0000000000000526 .LASF23
     /tmp/ccocfciK.s:9651   .debug_str:0000000000000479 .LASF28
     /tmp/ccocfciK.s:9771   .debug_str:00000000000007c7 .LASF30
     /tmp/ccocfciK.s:10063  .debug_str:00000000000010ff .LASF24
     /tmp/ccocfciK.s:9871   .debug_str:0000000000000b59 .LASF25
     /tmp/ccocfciK.s:9717   .debug_str:0000000000000632 .LASF26
     /tmp/ccocfciK.s:9769   .debug_str:00000000000007a8 .LASF27
     /tmp/ccocfciK.s:9865   .debug_str:0000000000000b34 .LASF29
     /tmp/ccocfciK.s:9853   .debug_str:0000000000000ac6 .LASF31
     /tmp/ccocfciK.s:10055  .debug_str:00000000000010cc .LASF32
     /tmp/ccocfciK.s:9827   .debug_str:0000000000000981 .LASF33
     /tmp/ccocfciK.s:9615   .debug_str:000000000000032d .LASF34
     /tmp/ccocfciK.s:9781   .debug_str:0000000000000809 .LASF35
     /tmp/ccocfciK.s:9743   .debug_str:00000000000006e8 .LASF36
     /tmp/ccocfciK.s:9969   .debug_str:0000000000000e03 .LASF37
     /tmp/ccocfciK.s:10045  .debug_str:0000000000001070 .LASF40
     /tmp/ccocfciK.s:9999   .debug_str:0000000000000ef3 .LASF42
     /tmp/ccocfciK.s:9891   .debug_str:0000000000000c19 .LASF38
     /tmp/ccocfciK.s:9585   .debug_str:000000000000022b .LASF39
     /tmp/ccocfciK.s:9643   .debug_str:0000000000000441 .LASF41
     /tmp/ccocfciK.s:9699   .debug_str:00000000000005af .LASF43
     /tmp/ccocfciK.s:9673   .debug_str:000000000000050b .LASF44
     /tmp/ccocfciK.s:9581   .debug_str:000000000000020d .LASF45
     /tmp/ccocfciK.s:10023  .debug_str:0000000000000fb1 .LASF46
GAS LISTING /tmp/ccocfciK.s 			page 96


     /tmp/ccocfciK.s:9905   .debug_str:0000000000000c64 .LASF47
     /tmp/ccocfciK.s:9897   .debug_str:0000000000000c39 .LASF48
     /tmp/ccocfciK.s:9607   .debug_str:00000000000002f7 .LASF49
     /tmp/ccocfciK.s:9851   .debug_str:0000000000000abe .LASF50
     /tmp/ccocfciK.s:9517   .debug_str:0000000000000015 .LASF51
     /tmp/ccocfciK.s:9767   .debug_str:00000000000007a0 .LASF52
     /tmp/ccocfciK.s:9733   .debug_str:0000000000000691 .LASF53
     /tmp/ccocfciK.s:9963   .debug_str:0000000000000de7 .LASF54
     /tmp/ccocfciK.s:9813   .debug_str:000000000000090c .LASF55
     /tmp/ccocfciK.s:9725   .debug_str:0000000000000669 .LASF56
     /tmp/ccocfciK.s:9949   .debug_str:0000000000000d7b .LASF57
     /tmp/ccocfciK.s:9791   .debug_str:0000000000000876 .LASF58
     /tmp/ccocfciK.s:10035  .debug_str:0000000000001011 .LASF59
     /tmp/ccocfciK.s:9933   .debug_str:0000000000000d24 .LASF60
     /tmp/ccocfciK.s:9843   .debug_str:00000000000009e3 .LASF61
     /tmp/ccocfciK.s:9875   .debug_str:0000000000000b86 .LASF62
     /tmp/ccocfciK.s:9621   .debug_str:000000000000036b .LASF63
     /tmp/ccocfciK.s:9583   .debug_str:0000000000000220 .LASF64
     /tmp/ccocfciK.s:10057  .debug_str:00000000000010d9 .LASF65
     /tmp/ccocfciK.s:9689   .debug_str:000000000000056f .LASF66
     /tmp/ccocfciK.s:9655   .debug_str:000000000000048e .LASF67
     /tmp/ccocfciK.s:9921   .debug_str:0000000000000ccb .LASF68
     /tmp/ccocfciK.s:9739   .debug_str:00000000000006cd .LASF69
     /tmp/ccocfciK.s:9863   .debug_str:0000000000000b29 .LASF70
     /tmp/ccocfciK.s:9993   .debug_str:0000000000000ebe .LASF71
     /tmp/ccocfciK.s:9881   .debug_str:0000000000000bc4 .LASF72
     /tmp/ccocfciK.s:9629   .debug_str:00000000000003c0 .LASF73
     /tmp/ccocfciK.s:9569   .debug_str:00000000000001bb .LASF74
     /tmp/ccocfciK.s:9861   .debug_str:0000000000000b07 .LASF75
     /tmp/ccocfciK.s:9539   .debug_str:000000000000008d .LASF76
     /tmp/ccocfciK.s:9947   .debug_str:0000000000000d73 .LASF77
     /tmp/ccocfciK.s:9815   .debug_str:000000000000091f .LASF78
     /tmp/ccocfciK.s:9845   .debug_str:00000000000009f5 .LASF79
     /tmp/ccocfciK.s:9727   .debug_str:0000000000000670 .LASF80
     /tmp/ccocfciK.s:10009  .debug_str:0000000000000f32 .LASF81
     /tmp/ccocfciK.s:9543   .debug_str:00000000000000a4 .LASF82
     /tmp/ccocfciK.s:9637   .debug_str:000000000000040a .LASF83
     /tmp/ccocfciK.s:9599   .debug_str:00000000000002c0 .LASF84
     /tmp/ccocfciK.s:9719   .debug_str:0000000000000644 .LASF85
     /tmp/ccocfciK.s:9593   .debug_str:000000000000027b .LASF264
     /tmp/ccocfciK.s:9777   .debug_str:00000000000007fc .LASF87
     /tmp/ccocfciK.s:9821   .debug_str:000000000000094e .LASF88
     /tmp/ccocfciK.s:9935   .debug_str:0000000000000d2a .LASF89
     /tmp/ccocfciK.s:9715   .debug_str:0000000000000629 .LASF90
     /tmp/ccocfciK.s:9709   .debug_str:0000000000000603 .LASF91
     /tmp/ccocfciK.s:10059  .debug_str:00000000000010f1 .LASF92
     /tmp/ccocfciK.s:9855   .debug_str:0000000000000ae1 .LASF153
     /tmp/ccocfciK.s:9659   .debug_str:00000000000004af .LASF93
     /tmp/ccocfciK.s:10007  .debug_str:0000000000000f27 .LASF102
     /tmp/ccocfciK.s:9783   .debug_str:0000000000000824 .LASF265
     /tmp/ccocfciK.s:10003  .debug_str:0000000000000f16 .LASF266
     /tmp/ccocfciK.s:9695   .debug_str:000000000000059f .LASF94
     /tmp/ccocfciK.s:9687   .debug_str:0000000000000563 .LASF96
     /tmp/ccocfciK.s:9917   .debug_str:0000000000000cbb .LASF95
     /tmp/ccocfciK.s:9735   .debug_str:00000000000006a5 .LASF97
     /tmp/ccocfciK.s:9761   .debug_str:0000000000000775 .LASF98
     /tmp/ccocfciK.s:9711   .debug_str:000000000000060b .LASF99
GAS LISTING /tmp/ccocfciK.s 			page 97


     /tmp/ccocfciK.s:9983   .debug_str:0000000000000e7e .LASF100
     /tmp/ccocfciK.s:9603   .debug_str:00000000000002da .LASF101
     /tmp/ccocfciK.s:10037  .debug_str:0000000000001023 .LASF103
     /tmp/ccocfciK.s:9959   .debug_str:0000000000000dca .LASF104
     /tmp/ccocfciK.s:9605   .debug_str:00000000000002ea .LASF109
     /tmp/ccocfciK.s:9737   .debug_str:00000000000006b5 .LASF111
     /tmp/ccocfciK.s:9833   .debug_str:00000000000009b0 .LASF105
     /tmp/ccocfciK.s:9587   .debug_str:0000000000000240 .LASF106
     /tmp/ccocfciK.s:9829   .debug_str:000000000000099b .LASF107
     /tmp/ccocfciK.s:9867   .debug_str:0000000000000b40 .LASF108
     /tmp/ccocfciK.s:9837   .debug_str:00000000000009c9 .LASF110
     /tmp/ccocfciK.s:9597   .debug_str:00000000000002ad .LASF112
     /tmp/ccocfciK.s:10029  .debug_str:0000000000000fd9 .LASF113
     /tmp/ccocfciK.s:9547   .debug_str:00000000000000cf .LASF114
     /tmp/ccocfciK.s:9757   .debug_str:000000000000074b .LASF115
     /tmp/ccocfciK.s:9705   .debug_str:00000000000005e1 .LASF116
     /tmp/ccocfciK.s:9873   .debug_str:0000000000000b77 .LASF117
     /tmp/ccocfciK.s:9789   .debug_str:000000000000085c .LASF118
     /tmp/ccocfciK.s:9957   .debug_str:0000000000000dbc .LASF119
     /tmp/ccocfciK.s:9961   .debug_str:0000000000000ddb .LASF120
     /tmp/ccocfciK.s:9883   .debug_str:0000000000000bd3 .LASF121
     /tmp/ccocfciK.s:9647   .debug_str:000000000000045e .LASF122
     /tmp/ccocfciK.s:9675   .debug_str:0000000000000512 .LASF123
     /tmp/ccocfciK.s:9523   .debug_str:0000000000000039 .LASF124
     /tmp/ccocfciK.s:9721   .debug_str:0000000000000649 .LASF129
     /tmp/ccocfciK.s:9879   .debug_str:0000000000000bb9 .LASF125
     /tmp/ccocfciK.s:9985   .debug_str:0000000000000e84 .LASF126
     /tmp/ccocfciK.s:9713   .debug_str:000000000000061e .LASF127
     /tmp/ccocfciK.s:9579   .debug_str:00000000000001f7 .LASF128
     /tmp/ccocfciK.s:9989   .debug_str:0000000000000ea0 .LASF130
     /tmp/ccocfciK.s:9803   .debug_str:00000000000008c5 .LASF131
     /tmp/ccocfciK.s:9591   .debug_str:000000000000025c .LASF132
     /tmp/ccocfciK.s:9889   .debug_str:0000000000000c07 .LASF133
     /tmp/ccocfciK.s:10039  .debug_str:000000000000102b .LASF134
     /tmp/ccocfciK.s:9801   .debug_str:00000000000008af .LASF135
     /tmp/ccocfciK.s:10031  .debug_str:0000000000000fe2 .LASF136
     /tmp/ccocfciK.s:9633   .debug_str:00000000000003e9 .LASF137
     /tmp/ccocfciK.s:10021  .debug_str:0000000000000f93 .LASF138
     /tmp/ccocfciK.s:9899   .debug_str:0000000000000c41 .LASF139
     /tmp/ccocfciK.s:9559   .debug_str:0000000000000151 .LASF140
     /tmp/ccocfciK.s:9979   .debug_str:0000000000000e5f .LASF141
     /tmp/ccocfciK.s:10047  .debug_str:0000000000001079 .LASF142
     /tmp/ccocfciK.s:9611   .debug_str:000000000000031d .LASF143
     /tmp/ccocfciK.s:9939   .debug_str:0000000000000d39 .LASF144
     /tmp/ccocfciK.s:9997   .debug_str:0000000000000ee5 .LASF145
     /tmp/ccocfciK.s:9555   .debug_str:0000000000000106 .LASF147
     /tmp/ccocfciK.s:9703   .debug_str:00000000000005cc .LASF146
     /tmp/ccocfciK.s:9595   .debug_str:0000000000000281 .LASF148
     /tmp/ccocfciK.s:9795   .debug_str:0000000000000883 .LASF175
     /tmp/ccocfciK.s:10053  .debug_str:00000000000010bb .LASF267
     /tmp/ccocfciK.s:9937   .debug_str:0000000000000d34 .LASF149
     /tmp/ccocfciK.s:9831   .debug_str:00000000000009ab .LASF150
     /tmp/ccocfciK.s:9573   .debug_str:00000000000001d9 .LASF151
     /tmp/ccocfciK.s:9987   .debug_str:0000000000000e9a .LASF152
     /tmp/ccocfciK.s:9819   .debug_str:0000000000000946 .LASF154
     /tmp/ccocfciK.s:9785   .debug_str:000000000000083c .LASF155
     /tmp/ccocfciK.s:9667   .debug_str:00000000000004e6 .LASF156
GAS LISTING /tmp/ccocfciK.s 			page 98


     /tmp/ccocfciK.s:9965   .debug_str:0000000000000dee .LASF157
     /tmp/ccocfciK.s:9911   .debug_str:0000000000000c9d .LASF158
     /tmp/ccocfciK.s:9553   .debug_str:00000000000000ff .LASF159
     /tmp/ccocfciK.s:9551   .debug_str:00000000000000f8 .LASF160
     /tmp/ccocfciK.s:9653   .debug_str:0000000000000489 .LASF161
     /tmp/ccocfciK.s:9971   .debug_str:0000000000000e1d .LASF162
     /tmp/ccocfciK.s:9745   .debug_str:00000000000006f5 .LASF163
     /tmp/ccocfciK.s:9929   .debug_str:0000000000000d04 .LASF164
     /tmp/ccocfciK.s:9729   .debug_str:0000000000000683 .LASF165
     /tmp/ccocfciK.s:9631   .debug_str:00000000000003dc .LASF166
     /tmp/ccocfciK.s:9817   .debug_str:000000000000092e .LASF167
     /tmp/ccocfciK.s:9907   .debug_str:0000000000000c78 .LASF168
     /tmp/ccocfciK.s:9537   .debug_str:0000000000000077 .LASF268
     /tmp/ccocfciK.s:9565   .debug_str:000000000000019b .LASF174
     /tmp/ccocfciK.s:9877   .debug_str:0000000000000b91 .LASF269
     /tmp/ccocfciK.s:9805   .debug_str:00000000000008d9 .LASF169
     /tmp/ccocfciK.s:9825   .debug_str:000000000000096b .LASF178
     /tmp/ccocfciK.s:9995   .debug_str:0000000000000ed6 .LASF170
     /tmp/ccocfciK.s:9753   .debug_str:0000000000000727 .LASF171
     /tmp/ccocfciK.s:9759   .debug_str:000000000000075a .LASF172
     /tmp/ccocfciK.s:9619   .debug_str:0000000000000353 .LASF173
     /tmp/ccocfciK.s:10011  .debug_str:0000000000000f44 .LASF270
     /tmp/ccocfciK.s:9627   .debug_str:00000000000003a2 .LASF176
     /tmp/ccocfciK.s:9575   .debug_str:00000000000001e1 .LASF177
     /tmp/ccocfciK.s:9927   .debug_str:0000000000000cec .LASF179
     /tmp/ccocfciK.s:9731   .debug_str:000000000000068a .LASF271
     /tmp/ccocfciK.s:10043  .debug_str:000000000000105f .LASF272
     /tmp/ccocfciK.s:9887   .debug_str:0000000000000bf4 .LASF249
     /tmp/ccocfciK.s:9841   .debug_str:00000000000009de .LASF180
     /tmp/ccocfciK.s:9919   .debug_str:0000000000000cc1 .LASF181
     /tmp/ccocfciK.s:9535   .debug_str:0000000000000061 .LASF182
     /tmp/ccocfciK.s:716    .text._ZN12TestPeriodicD0Ev:0000000000000000 .LFB56
     /tmp/ccocfciK.s:759    .text._ZN12TestPeriodicD0Ev:000000000000004c .LFE56
     /tmp/ccocfciK.s:8517   .debug_loc:0000000000000000 .LLST16
     /tmp/ccocfciK.s:732    .text._ZN12TestPeriodicD0Ev:0000000000000018 .LBB23
     /tmp/ccocfciK.s:742    .text._ZN12TestPeriodicD0Ev:000000000000002c .LBE23
     /tmp/ccocfciK.s:8535   .debug_loc:000000000000004c .LLST17
     /tmp/ccocfciK.s:733    .text._ZN12TestPeriodicD0Ev:0000000000000018 .LBB24
     /tmp/ccocfciK.s:741    .text._ZN12TestPeriodicD0Ev:000000000000002c .LBE24
     /tmp/ccocfciK.s:739    .text._ZN12TestPeriodicD0Ev:000000000000002c .LVL68
     /tmp/ccocfciK.s:746    .text._ZN12TestPeriodicD0Ev:0000000000000038 .LVL69
     /tmp/ccocfciK.s:9941   .debug_str:0000000000000d45 .LASF183
     /tmp/ccocfciK.s:674    .text._ZN12TestPeriodicD2Ev:0000000000000000 .LFB54
     /tmp/ccocfciK.s:707    .text._ZN12TestPeriodicD2Ev:0000000000000034 .LFE54
     /tmp/ccocfciK.s:8546   .debug_loc:0000000000000082 .LLST14
     /tmp/ccocfciK.s:688    .text._ZN12TestPeriodicD2Ev:0000000000000010 .LBB21
     /tmp/ccocfciK.s:696    .text._ZN12TestPeriodicD2Ev:0000000000000024 .LBE21
     /tmp/ccocfciK.s:8560   .debug_loc:00000000000000bb .LLST15
     /tmp/ccocfciK.s:694    .text._ZN12TestPeriodicD2Ev:0000000000000024 .LVL65
     /tmp/ccocfciK.s:9915   .debug_str:0000000000000cb2 .LASF184
     /tmp/ccocfciK.s:9549   .debug_str:00000000000000eb .LASF188
     /tmp/ccocfciK.s:2672   .text:0000000000001004 .LFB52
     /tmp/ccocfciK.s:2741   .text:00000000000010a8 .LFE52
     /tmp/ccocfciK.s:9901   .debug_str:0000000000000c54 .LASF185
     /tmp/ccocfciK.s:9903   .debug_str:0000000000000c5c .LASF186
     /tmp/ccocfciK.s:2688   .text:0000000000001028 .LVL307
     /tmp/ccocfciK.s:2694   .text:000000000000103c .LVL308
GAS LISTING /tmp/ccocfciK.s 			page 99


     /tmp/ccocfciK.s:2702   .text:0000000000001054 .LVL309
     /tmp/ccocfciK.s:2709   .text:000000000000106c .LVL310
     /tmp/ccocfciK.s:2715   .text:0000000000001078 .LVL311
     /tmp/ccocfciK.s:2722   .text:0000000000001084 .LVL312
     /tmp/ccocfciK.s:2728   .text:0000000000001094 .LVL313
     /tmp/ccocfciK.s:10049  .debug_str:0000000000001099 .LASF187
     /tmp/ccocfciK.s:9967   .debug_str:0000000000000df4 .LASF189
     /tmp/ccocfciK.s:517    .text:00000000000002ec .LFB51
     /tmp/ccocfciK.s:583    .text:000000000000037c .LFE51
     /tmp/ccocfciK.s:8574   .debug_loc:00000000000000f4 .LLST10
     /tmp/ccocfciK.s:544    .text:0000000000000324 .LVL53
     /tmp/ccocfciK.s:562    .text:0000000000000354 .LVL54
     /tmp/ccocfciK.s:9701   .debug_str:00000000000005c2 .LASF190
     /tmp/ccocfciK.s:10025  .debug_str:0000000000000fb9 .LASF191
     /tmp/ccocfciK.s:448    .text:0000000000000264 .LFB50
     /tmp/ccocfciK.s:511    .text:00000000000002ec .LFE50
     /tmp/ccocfciK.s:8592   .debug_loc:0000000000000140 .LLST9
     /tmp/ccocfciK.s:475    .text:000000000000029c .LVL47
     /tmp/ccocfciK.s:485    .text:00000000000002b8 .LVL48
     /tmp/ccocfciK.s:490    .text:00000000000002c4 .LVL49
     /tmp/ccocfciK.s:9609   .debug_str:000000000000030b .LASF192
     /tmp/ccocfciK.s:10041  .debug_str:0000000000001048 .LASF193
     /tmp/ccocfciK.s:2320   .text:0000000000000d88 .LFB49
     /tmp/ccocfciK.s:2635   .text:0000000000000fdc .LFE49
     /tmp/ccocfciK.s:9741   .debug_str:00000000000006e3 .LASF194
     /tmp/ccocfciK.s:9525   .debug_str:0000000000000044 .LASF195
     /tmp/ccocfciK.s:8610   .debug_loc:000000000000018c .LLST57
     /tmp/ccocfciK.s:9527   .debug_str:0000000000000049 .LASF196
     /tmp/ccocfciK.s:8621   .debug_loc:00000000000001c2 .LLST58
     /tmp/ccocfciK.s:8640   .debug_loc:000000000000021e .LLST59
     /tmp/ccocfciK.s:8661   .debug_loc:000000000000027e .LLST60
     /tmp/ccocfciK.s:8682   .debug_loc:00000000000002de .LLST61
     /tmp/ccocfciK.s:8693   .debug_loc:0000000000000314 .LLST62
     /tmp/ccocfciK.s:9577   .debug_str:00000000000001f1 .LASF197
     /tmp/ccocfciK.s:8724   .debug_loc:000000000000039d .LLST63
     /tmp/ccocfciK.s:9519   .debug_str:0000000000000029 .LASF198
     /tmp/ccocfciK.s:8735   .debug_loc:00000000000003d3 .LLST64
     /tmp/ccocfciK.s:10013  .debug_str:0000000000000f6e .LASF199
     /tmp/ccocfciK.s:8746   .debug_loc:0000000000000409 .LLST65
     /tmp/ccocfciK.s:9529   .debug_str:000000000000004e .LASF200
     /tmp/ccocfciK.s:8757   .debug_loc:000000000000043f .LLST66
     /tmp/ccocfciK.s:9531   .debug_str:0000000000000053 .LASF201
     /tmp/ccocfciK.s:8772   .debug_loc:0000000000000488 .LLST67
     /tmp/ccocfciK.s:10015  .debug_str:0000000000000f74 .LASF202
     /tmp/ccocfciK.s:8795   .debug_loc:00000000000004f7 .LLST68
     /tmp/ccocfciK.s:10017  .debug_str:0000000000000f7a .LASF203
     /tmp/ccocfciK.s:8806   .debug_loc:000000000000052d .LLST69
     /tmp/ccocfciK.s:2352   .text:0000000000000dc8 .LBB47
     /tmp/ccocfciK.s:2387   .text:0000000000000e10 .LBE47
     /tmp/ccocfciK.s:8821   .debug_loc:0000000000000576 .LLST70
     /tmp/ccocfciK.s:2366   .text:0000000000000de4 .LVL257
     /tmp/ccocfciK.s:2384   .text:0000000000000e10 .LVL260
     /tmp/ccocfciK.s:2599   .text:0000000000000f88 .LVL299
     /tmp/ccocfciK.s:2351   .text:0000000000000dc8 .LVL255
     /tmp/ccocfciK.s:2424   .text:0000000000000e50 .LVL262
     /tmp/ccocfciK.s:2430   .text:0000000000000e5c .LVL263
     /tmp/ccocfciK.s:2437   .text:0000000000000e6c .LVL265
GAS LISTING /tmp/ccocfciK.s 			page 100


     /tmp/ccocfciK.s:2445   .text:0000000000000e7c .LVL268
     /tmp/ccocfciK.s:2494   .text:0000000000000ec4 .LVL276
     /tmp/ccocfciK.s:2503   .text:0000000000000ed4 .LVL277
     /tmp/ccocfciK.s:2509   .text:0000000000000ee0 .LVL278
     /tmp/ccocfciK.s:2517   .text:0000000000000ef0 .LVL281
     /tmp/ccocfciK.s:2545   .text:0000000000000f20 .LVL286
     /tmp/ccocfciK.s:2555   .text:0000000000000f34 .LVL289
     /tmp/ccocfciK.s:2565   .text:0000000000000f48 .LVL292
     /tmp/ccocfciK.s:2575   .text:0000000000000f5c .LVL295
     /tmp/ccocfciK.s:2607   .text:0000000000000f98 .LVL300
     /tmp/ccocfciK.s:2612   .text:0000000000000fa4 .LVL301
     /tmp/ccocfciK.s:2617   .text:0000000000000fb0 .LVL302
     /tmp/ccocfciK.s:2622   .text:0000000000000fbc .LVL303
     /tmp/ccocfciK.s:2627   .text:0000000000000fc8 .LVL304
     /tmp/ccocfciK.s:2632   .text:0000000000000fd8 .LVL305
     /tmp/ccocfciK.s:9953   .debug_str:0000000000000d9c .LASF204
     /tmp/ccocfciK.s:9665   .debug_str:00000000000004d0 .LASF205
     /tmp/ccocfciK.s:2186   .text:0000000000000c80 .LFB48
     /tmp/ccocfciK.s:2306   .text:0000000000000d88 .LFE48
     /tmp/ccocfciK.s:9571   .debug_str:00000000000001d0 .LASF206
     /tmp/ccocfciK.s:8836   .debug_loc:00000000000005bf .LLST53
     /tmp/ccocfciK.s:8849   .debug_loc:00000000000005f7 .LLST54
     /tmp/ccocfciK.s:9809   .debug_str:00000000000008f0 .LASF207
     /tmp/ccocfciK.s:8864   .debug_loc:0000000000000640 .LLST55
     /tmp/ccocfciK.s:9893   .debug_str:0000000000000c22 .LASF208
     /tmp/ccocfciK.s:8871   .debug_loc:0000000000000663 .LLST56
     /tmp/ccocfciK.s:2203   .text:0000000000000ca4 .LVL235
     /tmp/ccocfciK.s:2217   .text:0000000000000ccc .LVL238
     /tmp/ccocfciK.s:2225   .text:0000000000000ce0 .LVL240
     /tmp/ccocfciK.s:2263   .text:0000000000000d28 .LVL245
     /tmp/ccocfciK.s:2272   .text:0000000000000d3c .LVL247
     /tmp/ccocfciK.s:2280   .text:0000000000000d4c .LVL249
     /tmp/ccocfciK.s:2285   .text:0000000000000d5c .LVL250
     /tmp/ccocfciK.s:2292   .text:0000000000000d70 .LVL251
     /tmp/ccocfciK.s:2302   .text:0000000000000d84 .LVL254
     /tmp/ccocfciK.s:9657   .debug_str:00000000000004a4 .LASF209
     /tmp/ccocfciK.s:9943   .debug_str:0000000000000d5b .LASF210
     /tmp/ccocfciK.s:2007   .text:0000000000000b30 .LFB47
     /tmp/ccocfciK.s:2172   .text:0000000000000c80 .LFE47
     /tmp/ccocfciK.s:8882   .debug_loc:0000000000000699 .LLST47
     /tmp/ccocfciK.s:8889   .debug_loc:00000000000006bc .LLST48
     /tmp/ccocfciK.s:8900   .debug_loc:00000000000006f2 .LLST49
     /tmp/ccocfciK.s:8911   .debug_loc:0000000000000728 .LLST50
     /tmp/ccocfciK.s:8922   .debug_loc:000000000000075e .LLST51
     /tmp/ccocfciK.s:8933   .debug_loc:0000000000000794 .LLST52
     /tmp/ccocfciK.s:2034   .text:0000000000000b68 .LVL203
     /tmp/ccocfciK.s:2039   .text:0000000000000b74 .LVL204
     /tmp/ccocfciK.s:2050   .text:0000000000000b8c .LVL206
     /tmp/ccocfciK.s:2058   .text:0000000000000b9c .LVL209
     /tmp/ccocfciK.s:2066   .text:0000000000000bac .LVL212
     /tmp/ccocfciK.s:2075   .text:0000000000000bc0 .LVL215
     /tmp/ccocfciK.s:2083   .text:0000000000000bd0 .LVL218
     /tmp/ccocfciK.s:2100   .text:0000000000000bf4 .LVL220
     /tmp/ccocfciK.s:2105   .text:0000000000000c00 .LVL221
     /tmp/ccocfciK.s:2110   .text:0000000000000c0c .LVL222
     /tmp/ccocfciK.s:2115   .text:0000000000000c18 .LVL223
     /tmp/ccocfciK.s:2120   .text:0000000000000c24 .LVL224
GAS LISTING /tmp/ccocfciK.s 			page 101


     /tmp/ccocfciK.s:2127   .text:0000000000000c34 .LVL225
     /tmp/ccocfciK.s:2133   .text:0000000000000c44 .LVL226
     /tmp/ccocfciK.s:2142   .text:0000000000000c58 .LVL229
     /tmp/ccocfciK.s:291    .text:000000000000015c .LFB46
     /tmp/ccocfciK.s:346    .text:00000000000001b8 .LFE46
     /tmp/ccocfciK.s:8948   .debug_loc:00000000000007dd .LLST5
     /tmp/ccocfciK.s:307    .text:0000000000000170 .LBB16
     /tmp/ccocfciK.s:332    .text:00000000000001a4 .LBE16
     /tmp/ccocfciK.s:8962   .debug_loc:0000000000000816 .LLST6
     /tmp/ccocfciK.s:320    .text:0000000000000190 .LVL29
     /tmp/ccocfciK.s:325    .text:000000000000019c .LVL30
     /tmp/ccocfciK.s:9663   .debug_str:00000000000004cb .LASF273
     /tmp/ccocfciK.s:9645   .debug_str:0000000000000448 .LASF211
     /tmp/ccocfciK.s:1829   .text:0000000000000a60 .LFB44
     /tmp/ccocfciK.s:1864   .text:0000000000000aa0 .LFE44
     /tmp/ccocfciK.s:8978   .debug_loc:0000000000000860 .LLST44
     /tmp/ccocfciK.s:8996   .debug_loc:00000000000008ac .LLST45
     /tmp/ccocfciK.s:1847   .text:0000000000000a80 .LVL193
     /tmp/ccocfciK.s:9617   .debug_str:000000000000033b .LASF212
     /tmp/ccocfciK.s:627    .text._ZN14PeriodicThreadD0Ev:0000000000000000 .LFB43
     /tmp/ccocfciK.s:667    .text._ZN14PeriodicThreadD0Ev:000000000000004c .LFE43
     /tmp/ccocfciK.s:9010   .debug_loc:00000000000008e5 .LLST12
     /tmp/ccocfciK.s:643    .text._ZN14PeriodicThreadD0Ev:0000000000000018 .LBB19
     /tmp/ccocfciK.s:651    .text._ZN14PeriodicThreadD0Ev:000000000000002c .LBE19
     /tmp/ccocfciK.s:9028   .debug_loc:0000000000000931 .LLST13
     /tmp/ccocfciK.s:649    .text._ZN14PeriodicThreadD0Ev:000000000000002c .LVL60
     /tmp/ccocfciK.s:654    .text._ZN14PeriodicThreadD0Ev:0000000000000038 .LVL61
     /tmp/ccocfciK.s:10051  .debug_str:00000000000010a3 .LASF213
     /tmp/ccocfciK.s:590    .text._ZN14PeriodicThreadD2Ev:0000000000000000 .LFB41
     /tmp/ccocfciK.s:618    .text._ZN14PeriodicThreadD2Ev:0000000000000034 .LFE41
     /tmp/ccocfciK.s:9039   .debug_loc:0000000000000967 .LLST11
     /tmp/ccocfciK.s:607    .text._ZN14PeriodicThreadD2Ev:0000000000000024 .LVL57
     /tmp/ccocfciK.s:9945   .debug_str:0000000000000d6b .LASF214
     /tmp/ccocfciK.s:9681   .debug_str:000000000000053c .LASF215
     /tmp/ccocfciK.s:1977   .text:0000000000000b18 .LFB38
     /tmp/ccocfciK.s:1993   .text:0000000000000b30 .LFE38
     /tmp/ccocfciK.s:1991   .text:0000000000000b30 .LVL202
     /tmp/ccocfciK.s:9977   .debug_str:0000000000000e50 .LASF216
     /tmp/ccocfciK.s:9563   .debug_str:0000000000000187 .LASF217
     /tmp/ccocfciK.s:2747   .text:00000000000010a8 .LFB37
     /tmp/ccocfciK.s:2772   .text:00000000000010d0 .LFE37
     /tmp/ccocfciK.s:2761   .text:00000000000010c0 .LVL314
     /tmp/ccocfciK.s:9973   .debug_str:0000000000000e22 .LASF218
     /tmp/ccocfciK.s:9765   .debug_str:0000000000000785 .LASF219
     /tmp/ccocfciK.s:2641   .text:0000000000000fdc .LFB36
     /tmp/ccocfciK.s:2666   .text:0000000000001004 .LFE36
     /tmp/ccocfciK.s:2655   .text:0000000000000ff4 .LVL306
     /tmp/ccocfciK.s:9799   .debug_str:00000000000008a1 .LASF220
     /tmp/ccocfciK.s:9639   .debug_str:000000000000041d .LASF221
     /tmp/ccocfciK.s:1604   .text:00000000000008c0 .LFB35
     /tmp/ccocfciK.s:1823   .text:0000000000000a60 .LFE35
     /tmp/ccocfciK.s:9601   .debug_str:00000000000002d4 .LASF222
     /tmp/ccocfciK.s:9053   .debug_loc:00000000000009a0 .LLST38
     /tmp/ccocfciK.s:1624   .text:00000000000008e8 .LBB38
     /tmp/ccocfciK.s:1656   .text:000000000000092c .LBE38
     /tmp/ccocfciK.s:9064   .debug_loc:00000000000009d6 .LLST39
     /tmp/ccocfciK.s:1641   .text:0000000000000908 .LVL167
GAS LISTING /tmp/ccocfciK.s 			page 102


     /tmp/ccocfciK.s:1653   .text:000000000000092c .LVL168
     /tmp/ccocfciK.s:1682   .text:000000000000094c .LBB40
     /tmp/ccocfciK.s:1745   .text:00000000000009cc .LBE40
     /tmp/ccocfciK.s:9075   .debug_loc:0000000000000a0c .LLST40
     /tmp/ccocfciK.s:9763   .debug_str:000000000000077e .LASF223
     /tmp/ccocfciK.s:9086   .debug_loc:0000000000000a42 .LLST41
     /tmp/ccocfciK.s:1698   .text:0000000000000970 .LVL172
     /tmp/ccocfciK.s:1709   .text:0000000000000988 .LVL174
     /tmp/ccocfciK.s:1732   .text:00000000000009b4 .LVL178
     /tmp/ccocfciK.s:1740   .text:00000000000009c8 .LVL179
     /tmp/ccocfciK.s:1746   .text:00000000000009cc .LBB43
     /tmp/ccocfciK.s:1806   .text:0000000000000a44 .LBE43
     /tmp/ccocfciK.s:9097   .debug_loc:0000000000000a78 .LLST42
     /tmp/ccocfciK.s:9108   .debug_loc:0000000000000aae .LLST43
     /tmp/ccocfciK.s:1762   .text:00000000000009f0 .LVL181
     /tmp/ccocfciK.s:1770   .text:0000000000000a00 .LVL183
     /tmp/ccocfciK.s:1793   .text:0000000000000a2c .LVL187
     /tmp/ccocfciK.s:1801   .text:0000000000000a40 .LVL188
     /tmp/ccocfciK.s:1623   .text:00000000000008e8 .LVL164
     /tmp/ccocfciK.s:1820   .text:0000000000000a5c .LVL191
     /tmp/ccocfciK.s:9707   .debug_str:00000000000005fb .LASF224
     /tmp/ccocfciK.s:10005  .debug_str:0000000000000f1b .LASF225
     /tmp/ccocfciK.s:1532   .text:0000000000000850 .LFB34
     /tmp/ccocfciK.s:1590   .text:00000000000008c0 .LFE34
     /tmp/ccocfciK.s:9119   .debug_loc:0000000000000ae4 .LLST36
     /tmp/ccocfciK.s:9132   .debug_loc:0000000000000b1c .LLST37
     /tmp/ccocfciK.s:1547   .text:0000000000000870 .LVL155
     /tmp/ccocfciK.s:1552   .text:000000000000087c .LVL156
     /tmp/ccocfciK.s:1558   .text:0000000000000888 .LVL158
     /tmp/ccocfciK.s:1566   .text:000000000000089c .LVL160
     /tmp/ccocfciK.s:1586   .text:00000000000008bc .LVL163
     /tmp/ccocfciK.s:9811   .debug_str:00000000000008fa .LASF226
     /tmp/ccocfciK.s:9797   .debug_str:000000000000088a .LASF227
     /tmp/ccocfciK.s:1396   .text:0000000000000778 .LFB33
     /tmp/ccocfciK.s:1521   .text:0000000000000850 .LFE33
     /tmp/ccocfciK.s:9159   .debug_loc:0000000000000b62 .LLST32
     /tmp/ccocfciK.s:9171   .debug_loc:0000000000000b99 .LLST33
     /tmp/ccocfciK.s:9187   .debug_loc:0000000000000be3 .LLST34
     /tmp/ccocfciK.s:9203   .debug_loc:0000000000000c2d .LLST35
     /tmp/ccocfciK.s:1462   .text:00000000000007e0 .LVL145
     /tmp/ccocfciK.s:1417   .text:00000000000007a4 .LVL140
     /tmp/ccocfciK.s:1473   .text:00000000000007f0 .LVL147
     /tmp/ccocfciK.s:1478   .text:0000000000000800 .LVL148
     /tmp/ccocfciK.s:1491   .text:0000000000000820 .LVL150
     /tmp/ccocfciK.s:1518   .text:000000000000084c .LVL154
     /tmp/ccocfciK.s:9513   .debug_str:0000000000000000 .LASF228
     /tmp/ccocfciK.s:10033  .debug_str:0000000000001003 .LASF229
     /tmp/ccocfciK.s:1325   .text:00000000000006f8 .LFB32
     /tmp/ccocfciK.s:1385   .text:0000000000000778 .LFE32
     /tmp/ccocfciK.s:9214   .debug_loc:0000000000000c63 .LLST30
     /tmp/ccocfciK.s:9227   .debug_loc:0000000000000c9c .LLST31
     /tmp/ccocfciK.s:1340   .text:0000000000000718 .LVL131
     /tmp/ccocfciK.s:1354   .text:0000000000000740 .LVL134
     /tmp/ccocfciK.s:1362   .text:0000000000000754 .LVL136
     /tmp/ccocfciK.s:1382   .text:0000000000000774 .LVL139
     /tmp/ccocfciK.s:9515   .debug_str:000000000000000a .LASF230
     /tmp/ccocfciK.s:9625   .debug_str:0000000000000392 .LASF231
GAS LISTING /tmp/ccocfciK.s 			page 103


     /tmp/ccocfciK.s:1127   .text:0000000000000598 .LFB31
     /tmp/ccocfciK.s:1314   .text:00000000000006f8 .LFE31
     /tmp/ccocfciK.s:1145   .text:00000000000005bc .LBB26
     /tmp/ccocfciK.s:1177   .text:0000000000000600 .LBE26
     /tmp/ccocfciK.s:9238   .debug_loc:0000000000000cd2 .LLST24
     /tmp/ccocfciK.s:1162   .text:00000000000005dc .LVL110
     /tmp/ccocfciK.s:1174   .text:0000000000000600 .LVL111
     /tmp/ccocfciK.s:1193   .text:0000000000000614 .LBB27
     /tmp/ccocfciK.s:1232   .text:0000000000000658 .LBE27
     /tmp/ccocfciK.s:9249   .debug_loc:0000000000000d08 .LLST25
     /tmp/ccocfciK.s:9260   .debug_loc:0000000000000d3e .LLST26
     /tmp/ccocfciK.s:1209   .text:0000000000000638 .LVL114
     /tmp/ccocfciK.s:1227   .text:0000000000000654 .LVL118
     /tmp/ccocfciK.s:1233   .text:0000000000000658 .LBB30
     /tmp/ccocfciK.s:1268   .text:00000000000006a0 .LBE30
     /tmp/ccocfciK.s:9267   .debug_loc:0000000000000d61 .LLST27
     /tmp/ccocfciK.s:1252   .text:0000000000000678 .LVL122
     /tmp/ccocfciK.s:1264   .text:000000000000069c .LVL123
     /tmp/ccocfciK.s:1269   .text:00000000000006a0 .LBB31
     /tmp/ccocfciK.s:1306   .text:00000000000006e4 .LBE31
     /tmp/ccocfciK.s:9274   .debug_loc:0000000000000d84 .LLST28
     /tmp/ccocfciK.s:9285   .debug_loc:0000000000000dba .LLST29
     /tmp/ccocfciK.s:1285   .text:00000000000006c4 .LVL125
     /tmp/ccocfciK.s:1301   .text:00000000000006e0 .LVL129
     /tmp/ccocfciK.s:1144   .text:00000000000005bc .LVL107
     /tmp/ccocfciK.s:1311   .text:00000000000006f4 .LVL130
     /tmp/ccocfciK.s:9869   .debug_str:0000000000000b4d .LASF232
     /tmp/ccocfciK.s:10027  .debug_str:0000000000000fc8 .LASF233
     /tmp/ccocfciK.s:1955   .text:0000000000000b00 .LFB30
     /tmp/ccocfciK.s:1971   .text:0000000000000b18 .LFE30
     /tmp/ccocfciK.s:1969   .text:0000000000000b18 .LVL201
     /tmp/ccocfciK.s:9839   .debug_str:00000000000009d2 .LASF234
     /tmp/ccocfciK.s:9885   .debug_str:0000000000000be3 .LASF235
     /tmp/ccocfciK.s:1926   .text:0000000000000b00 .LFE29
     /tmp/ccocfciK.s:9292   .debug_loc:0000000000000ddd .LLST46
     /tmp/ccocfciK.s:1894   .text:0000000000000ac4 .LVL195
     /tmp/ccocfciK.s:1900   .text:0000000000000ad4 .LVL196
     /tmp/ccocfciK.s:1907   .text:0000000000000ae0 .LVL197
     /tmp/ccocfciK.s:1919   .text:0000000000000af4 .LVL199
     /tmp/ccocfciK.s:1923   .text:0000000000000b00 .LVL200
     /tmp/ccocfciK.s:9683   .debug_str:0000000000000548 .LASF236
     /tmp/ccocfciK.s:9847   .debug_str:0000000000000a01 .LASF237
     /tmp/ccocfciK.s:1063   .text:0000000000000598 .LFE28
     /tmp/ccocfciK.s:9649   .debug_str:000000000000046e .LASF238
     /tmp/ccocfciK.s:9299   .debug_loc:0000000000000e00 .LLST21
     /tmp/ccocfciK.s:9306   .debug_loc:0000000000000e23 .LLST22
     /tmp/ccocfciK.s:9313   .debug_loc:0000000000000e46 .LLST23
     /tmp/ccocfciK.s:944    .text:0000000000000488 .LVL86
     /tmp/ccocfciK.s:951    .text:00000000000004a0 .LVL87
     /tmp/ccocfciK.s:958    .text:00000000000004ac .LVL88
     /tmp/ccocfciK.s:963    .text:00000000000004b8 .LVL89
     /tmp/ccocfciK.s:971    .text:00000000000004d0 .LVL91
     /tmp/ccocfciK.s:978    .text:00000000000004dc .LVL92
     /tmp/ccocfciK.s:983    .text:00000000000004e8 .LVL93
     /tmp/ccocfciK.s:991    .text:0000000000000500 .LVL95
     /tmp/ccocfciK.s:998    .text:000000000000050c .LVL96
     /tmp/ccocfciK.s:1002   .text:0000000000000514 .LVL97
GAS LISTING /tmp/ccocfciK.s 			page 104


     /tmp/ccocfciK.s:1007   .text:0000000000000524 .LVL98
     /tmp/ccocfciK.s:1011   .text:000000000000052c .LVL99
     /tmp/ccocfciK.s:1034   .text:0000000000000554 .LVL101
     /tmp/ccocfciK.s:1038   .text:0000000000000560 .LVL102
     /tmp/ccocfciK.s:1045   .text:0000000000000570 .LVL103
     /tmp/ccocfciK.s:1049   .text:000000000000057c .LVL104
     /tmp/ccocfciK.s:1056   .text:000000000000058c .LVL105
     /tmp/ccocfciK.s:1060   .text:0000000000000598 .LVL106
     /tmp/ccocfciK.s:9835   .debug_str:00000000000009bd .LASF239
     /tmp/ccocfciK.s:9641   .debug_str:0000000000000430 .LASF240
     /tmp/ccocfciK.s:880    .text:0000000000000464 .LFE27
     /tmp/ccocfciK.s:9320   .debug_loc:0000000000000e69 .LLST19
     /tmp/ccocfciK.s:9327   .debug_loc:0000000000000e8c .LLST20
     /tmp/ccocfciK.s:792    .text:00000000000003a0 .LVL71
     /tmp/ccocfciK.s:799    .text:00000000000003b8 .LVL72
     /tmp/ccocfciK.s:806    .text:00000000000003c4 .LVL73
     /tmp/ccocfciK.s:811    .text:00000000000003d0 .LVL74
     /tmp/ccocfciK.s:819    .text:00000000000003e8 .LVL76
     /tmp/ccocfciK.s:826    .text:00000000000003f4 .LVL77
     /tmp/ccocfciK.s:830    .text:00000000000003fc .LVL78
     /tmp/ccocfciK.s:835    .text:000000000000040c .LVL79
     /tmp/ccocfciK.s:839    .text:0000000000000414 .LVL80
     /tmp/ccocfciK.s:862    .text:000000000000043c .LVL82
     /tmp/ccocfciK.s:866    .text:0000000000000448 .LVL83
     /tmp/ccocfciK.s:873    .text:0000000000000458 .LVL84
     /tmp/ccocfciK.s:877    .text:0000000000000464 .LVL85
     /tmp/ccocfciK.s:9823   .debug_str:0000000000000956 .LASF241
     /tmp/ccocfciK.s:9787   .debug_str:0000000000000841 .LASF242
     /tmp/ccocfciK.s:352    .text:00000000000001b8 .LFB26
     /tmp/ccocfciK.s:442    .text:0000000000000264 .LFE26
     /tmp/ccocfciK.s:9334   .debug_loc:0000000000000eaf .LLST7
     /tmp/ccocfciK.s:374    .text:00000000000001dc .LBB17
     /tmp/ccocfciK.s:428    .text:0000000000000250 .LBE17
     /tmp/ccocfciK.s:9348   .debug_loc:0000000000000ee8 .LLST8
     /tmp/ccocfciK.s:383    .text:00000000000001ec .LVL38
     /tmp/ccocfciK.s:389    .text:00000000000001f8 .LVL39
     /tmp/ccocfciK.s:395    .text:0000000000000208 .LVL40
     /tmp/ccocfciK.s:400    .text:0000000000000214 .LVL41
     /tmp/ccocfciK.s:405    .text:0000000000000224 .LVL42
     /tmp/ccocfciK.s:371    .text:00000000000001dc .LVL36
     /tmp/ccocfciK.s:9541   .debug_str:0000000000000094 .LASF243
     /tmp/ccocfciK.s:9671   .debug_str:00000000000004f5 .LASF244
     /tmp/ccocfciK.s:205    .text:00000000000000c4 .LFB25
     /tmp/ccocfciK.s:285    .text:000000000000015c .LFE25
     /tmp/ccocfciK.s:9360   .debug_loc:0000000000000f1f .LLST3
     /tmp/ccocfciK.s:227    .text:00000000000000e8 .LBB15
     /tmp/ccocfciK.s:271    .text:0000000000000148 .LBE15
     /tmp/ccocfciK.s:9374   .debug_loc:0000000000000f58 .LLST4
     /tmp/ccocfciK.s:236    .text:00000000000000f8 .LVL20
     /tmp/ccocfciK.s:242    .text:0000000000000108 .LVL21
     /tmp/ccocfciK.s:247    .text:0000000000000114 .LVL22
     /tmp/ccocfciK.s:252    .text:0000000000000124 .LVL23
     /tmp/ccocfciK.s:224    .text:00000000000000e8 .LVL18
     /tmp/ccocfciK.s:9913   .debug_str:0000000000000ca2 .LASF245
     /tmp/ccocfciK.s:9991   .debug_str:0000000000000ea8 .LASF246
     /tmp/ccocfciK.s:111    .text:000000000000002c .LFB24
     /tmp/ccocfciK.s:191    .text:00000000000000c4 .LFE24
GAS LISTING /tmp/ccocfciK.s 			page 105


     /tmp/ccocfciK.s:9386   .debug_loc:0000000000000f8f .LLST1
     /tmp/ccocfciK.s:133    .text:0000000000000050 .LBB14
     /tmp/ccocfciK.s:177    .text:00000000000000b0 .LBE14
     /tmp/ccocfciK.s:9400   .debug_loc:0000000000000fc8 .LLST2
     /tmp/ccocfciK.s:142    .text:0000000000000060 .LVL10
     /tmp/ccocfciK.s:148    .text:0000000000000070 .LVL11
     /tmp/ccocfciK.s:153    .text:000000000000007c .LVL12
     /tmp/ccocfciK.s:158    .text:000000000000008c .LVL13
     /tmp/ccocfciK.s:130    .text:0000000000000050 .LVL8
     /tmp/ccocfciK.s:10061  .debug_str:00000000000010fa .LASF247
     /tmp/ccocfciK.s:9755   .debug_str:0000000000000741 .LASF248
     /tmp/ccocfciK.s:66     .text:0000000000000000 .LFB23
     /tmp/ccocfciK.s:94     .text:000000000000002c .LFE23
     /tmp/ccocfciK.s:9412   .debug_loc:0000000000000fff .LLST0
     /tmp/ccocfciK.s:86     .text:0000000000000020 .LVL4
     /tmp/ccocfciK.s:90     .text:0000000000000028 .LVL5
     /tmp/ccocfciK.s:37     .text._ZN14PeriodicThread18periodicActivationEv:0000000000000000 .LFB22
     /tmp/ccocfciK.s:55     .text._ZN14PeriodicThread18periodicActivationEv:0000000000000018 .LFE22
     /tmp/ccocfciK.s:11     .text._ZN6Thread3runEv:0000000000000000 .LFB21
     /tmp/ccocfciK.s:30     .text._ZN6Thread3runEv:0000000000000018 .LFE21
     /tmp/ccocfciK.s:9779   .debug_str:0000000000000802 .LASF250
     /tmp/ccocfciK.s:9807   .debug_str:00000000000008e7 .LASF251
     /tmp/ccocfciK.s:9635   .debug_str:00000000000003fc .LASF252
     /tmp/ccocfciK.s:9925   .debug_str:0000000000000cdc .LASF253
     /tmp/ccocfciK.s:9773   .debug_str:00000000000007e5 .LASF254
     /tmp/ccocfciK.s:9697   .debug_str:00000000000005a4 .LASF255
     /tmp/ccocfciK.s:9793   .debug_str:000000000000087c .LASF256
     /tmp/ccocfciK.s:9521   .debug_str:000000000000002f .LASF257
     /tmp/ccocfciK.s:9669   .debug_str:00000000000004ef .LASF258
     /tmp/ccocfciK.s:9533   .debug_str:0000000000000058 .LASF259
     /tmp/ccocfciK.s:9955   .debug_str:0000000000000dad .LASF274
     /tmp/ccocfciK.s:9545   .debug_str:00000000000000b7 .LASF275
     /tmp/ccocfciK.s:9747   .debug_str:0000000000000704 .LASF260
     /tmp/ccocfciK.s:719    .text._ZN12TestPeriodicD0Ev:0000000000000000 .LVL66
     /tmp/ccocfciK.s:754    .text._ZN12TestPeriodicD0Ev:0000000000000044 .LVL70
     /tmp/ccocfciK.s:731    .text._ZN12TestPeriodicD0Ev:0000000000000018 .LVL67
     /tmp/ccocfciK.s:678    .text._ZN12TestPeriodicD2Ev:0000000000000000 .LVL63
     /tmp/ccocfciK.s:687    .text._ZN12TestPeriodicD2Ev:0000000000000010 .LVL64
     /tmp/ccocfciK.s:520    .text:00000000000002ec .LVL51
     /tmp/ccocfciK.s:537    .text:0000000000000310 .LVL52
     /tmp/ccocfciK.s:579    .text:0000000000000378 .LVL55
     /tmp/ccocfciK.s:451    .text:0000000000000264 .LVL45
     /tmp/ccocfciK.s:468    .text:0000000000000288 .LVL46
     /tmp/ccocfciK.s:507    .text:00000000000002e8 .LVL50
     /tmp/ccocfciK.s:2439   .text:0000000000000e70 .LVL266
     /tmp/ccocfciK.s:2443   .text:0000000000000e74 .LVL267
     /tmp/ccocfciK.s:2447   .text:0000000000000e80 .LVL269
     /tmp/ccocfciK.s:2461   .text:0000000000000e94 .LVL271
     /tmp/ccocfciK.s:2537   .text:0000000000000f10 .LVL284
     /tmp/ccocfciK.s:2543   .text:0000000000000f18 .LVL285
     /tmp/ccocfciK.s:2457   .text:0000000000000e90 .LVL270
     /tmp/ccocfciK.s:2548   .text:0000000000000f24 .LVL287
     /tmp/ccocfciK.s:2553   .text:0000000000000f2c .LVL288
     /tmp/ccocfciK.s:2465   .text:0000000000000e98 .LVL272
     /tmp/ccocfciK.s:2469   .text:0000000000000e9c .LVL273
     /tmp/ccocfciK.s:2592   .text:0000000000000f74 .LVL298
     /tmp/ccocfciK.s:2474   .text:0000000000000ea0 .LVL274
GAS LISTING /tmp/ccocfciK.s 			page 106


     /tmp/ccocfciK.s:2478   .text:0000000000000ea4 .LVL275
     /tmp/ccocfciK.s:2511   .text:0000000000000ee4 .LVL279
     /tmp/ccocfciK.s:2515   .text:0000000000000ee8 .LVL280
     /tmp/ccocfciK.s:2558   .text:0000000000000f38 .LVL290
     /tmp/ccocfciK.s:2519   .text:0000000000000ef4 .LVL282
     /tmp/ccocfciK.s:2563   .text:0000000000000f40 .LVL291
     /tmp/ccocfciK.s:2568   .text:0000000000000f4c .LVL293
     /tmp/ccocfciK.s:2573   .text:0000000000000f54 .LVL294
     /tmp/ccocfciK.s:2525   .text:0000000000000efc .LVL283
     /tmp/ccocfciK.s:2356   .text:0000000000000dcc .LVL256
     /tmp/ccocfciK.s:2376   .text:0000000000000dfc .LVL258
     /tmp/ccocfciK.s:2378   .text:0000000000000e00 .LVL259
     /tmp/ccocfciK.s:2414   .text:0000000000000e40 .LVL261
     /tmp/ccocfciK.s:2432   .text:0000000000000e60 .LVL264
     /tmp/ccocfciK.s:2211   .text:0000000000000cc0 .LVL236
     /tmp/ccocfciK.s:2215   .text:0000000000000cc4 .LVL237
     /tmp/ccocfciK.s:2223   .text:0000000000000cd8 .LVL239
     /tmp/ccocfciK.s:2240   .text:0000000000000cf4 .LVL241
     /tmp/ccocfciK.s:2247   .text:0000000000000d00 .LVL242
     /tmp/ccocfciK.s:2265   .text:0000000000000d2c .LVL246
     /tmp/ccocfciK.s:2257   .text:0000000000000d1c .LVL243
     /tmp/ccocfciK.s:2261   .text:0000000000000d20 .LVL244
     /tmp/ccocfciK.s:2278   .text:0000000000000d44 .LVL248
     /tmp/ccocfciK.s:2295   .text:0000000000000d74 .LVL252
     /tmp/ccocfciK.s:2300   .text:0000000000000d7c .LVL253
     /tmp/ccocfciK.s:2041   .text:0000000000000b78 .LVL205
     /tmp/ccocfciK.s:2153   .text:0000000000000c64 .LVL230
     /tmp/ccocfciK.s:2052   .text:0000000000000b90 .LVL207
     /tmp/ccocfciK.s:2056   .text:0000000000000b94 .LVL208
     /tmp/ccocfciK.s:2156   .text:0000000000000c68 .LVL231
     /tmp/ccocfciK.s:2060   .text:0000000000000ba0 .LVL210
     /tmp/ccocfciK.s:2064   .text:0000000000000ba4 .LVL211
     /tmp/ccocfciK.s:2159   .text:0000000000000c6c .LVL232
     /tmp/ccocfciK.s:2068   .text:0000000000000bb0 .LVL213
     /tmp/ccocfciK.s:2072   .text:0000000000000bb4 .LVL214
     /tmp/ccocfciK.s:2162   .text:0000000000000c70 .LVL233
     /tmp/ccocfciK.s:2077   .text:0000000000000bc4 .LVL216
     /tmp/ccocfciK.s:2081   .text:0000000000000bc8 .LVL217
     /tmp/ccocfciK.s:2165   .text:0000000000000c74 .LVL234
     /tmp/ccocfciK.s:2098   .text:0000000000000bec .LVL219
     /tmp/ccocfciK.s:2135   .text:0000000000000c48 .LVL227
     /tmp/ccocfciK.s:2140   .text:0000000000000c50 .LVL228
     /tmp/ccocfciK.s:294    .text:000000000000015c .LVL26
     /tmp/ccocfciK.s:310    .text:0000000000000174 .LVL28
     /tmp/ccocfciK.s:306    .text:0000000000000170 .LVL27
     /tmp/ccocfciK.s:328    .text:00000000000001a0 .LVL31
     /tmp/ccocfciK.s:330    .text:00000000000001a4 .LVL32
     /tmp/ccocfciK.s:341    .text:00000000000001b0 .LVL33
     /tmp/ccocfciK.s:1832   .text:0000000000000a60 .LVL192
     /tmp/ccocfciK.s:1859   .text:0000000000000a98 .LVL194
     /tmp/ccocfciK.s:630    .text._ZN14PeriodicThreadD0Ev:0000000000000000 .LVL58
     /tmp/ccocfciK.s:662    .text._ZN14PeriodicThreadD0Ev:0000000000000044 .LVL62
     /tmp/ccocfciK.s:642    .text._ZN14PeriodicThreadD0Ev:0000000000000018 .LVL59
     /tmp/ccocfciK.s:593    .text._ZN14PeriodicThreadD2Ev:0000000000000000 .LVL56
     /tmp/ccocfciK.s:1676   .text:0000000000000948 .LVL170
     /tmp/ccocfciK.s:1810   .text:0000000000000a48 .LVL189
     /tmp/ccocfciK.s:1814   .text:0000000000000a4c .LVL190
GAS LISTING /tmp/ccocfciK.s 			page 107


     /tmp/ccocfciK.s:1628   .text:00000000000008f0 .LVL165
     /tmp/ccocfciK.s:1671   .text:0000000000000944 .LVL169
     /tmp/ccocfciK.s:1686   .text:0000000000000950 .LVL171
     /tmp/ccocfciK.s:1721   .text:00000000000009a0 .LVL175
     /tmp/ccocfciK.s:1724   .text:00000000000009a4 .LVL176
     /tmp/ccocfciK.s:1749   .text:00000000000009d0 .LVL180
     /tmp/ccocfciK.s:1704   .text:0000000000000978 .LVL173
     /tmp/ccocfciK.s:1730   .text:00000000000009ac .LVL177
     /tmp/ccocfciK.s:1782   .text:0000000000000a18 .LVL184
     /tmp/ccocfciK.s:1785   .text:0000000000000a1c .LVL185
     /tmp/ccocfciK.s:1768   .text:00000000000009f8 .LVL182
     /tmp/ccocfciK.s:1791   .text:0000000000000a24 .LVL186
     /tmp/ccocfciK.s:1556   .text:0000000000000880 .LVL157
     /tmp/ccocfciK.s:1564   .text:0000000000000894 .LVL159
     /tmp/ccocfciK.s:1578   .text:00000000000008ac .LVL161
     /tmp/ccocfciK.s:1584   .text:00000000000008b4 .LVL162
     /tmp/ccocfciK.s:1432   .text:00000000000007b4 .LVL141
     /tmp/ccocfciK.s:1483   .text:0000000000000808 .LVL149
     /tmp/ccocfciK.s:1507   .text:0000000000000834 .LVL152
     /tmp/ccocfciK.s:1511   .text:000000000000083c .LVL153
     /tmp/ccocfciK.s:1502   .text:000000000000082c .LVL151
     /tmp/ccocfciK.s:1451   .text:00000000000007c8 .LVL144
     /tmp/ccocfciK.s:1465   .text:00000000000007e4 .LVL146
     /tmp/ccocfciK.s:1348   .text:0000000000000734 .LVL132
     /tmp/ccocfciK.s:1352   .text:0000000000000738 .LVL133
     /tmp/ccocfciK.s:1360   .text:000000000000074c .LVL135
     /tmp/ccocfciK.s:1374   .text:0000000000000764 .LVL137
     /tmp/ccocfciK.s:1380   .text:000000000000076c .LVL138
     /tmp/ccocfciK.s:1149   .text:00000000000005c4 .LVL108
     /tmp/ccocfciK.s:1190   .text:0000000000000614 .LVL112
     /tmp/ccocfciK.s:1196   .text:0000000000000618 .LVL113
     /tmp/ccocfciK.s:1216   .text:0000000000000640 .LVL115
     /tmp/ccocfciK.s:1219   .text:0000000000000644 .LVL116
     /tmp/ccocfciK.s:1236   .text:000000000000065c .LVL119
     /tmp/ccocfciK.s:1225   .text:000000000000064c .LVL117
     /tmp/ccocfciK.s:1238   .text:0000000000000660 .LVL120
     /tmp/ccocfciK.s:1272   .text:00000000000006a4 .LVL124
     /tmp/ccocfciK.s:1291   .text:00000000000006cc .LVL126
     /tmp/ccocfciK.s:1293   .text:00000000000006d0 .LVL127
     /tmp/ccocfciK.s:1299   .text:00000000000006d8 .LVL128
     /tmp/ccocfciK.s:1913   .text:0000000000000ae4 .LVL198
     /tmp/ccocfciK.s:966    .text:00000000000004bc .LVL90
     /tmp/ccocfciK.s:986    .text:00000000000004ec .LVL94
     /tmp/ccocfciK.s:1022   .text:0000000000000538 .LVL100
     /tmp/ccocfciK.s:814    .text:00000000000003d4 .LVL75
     /tmp/ccocfciK.s:850    .text:0000000000000420 .LVL81
     /tmp/ccocfciK.s:355    .text:00000000000001b8 .LVL34
     /tmp/ccocfciK.s:369    .text:00000000000001d4 .LVL35
     /tmp/ccocfciK.s:378    .text:00000000000001e4 .LVL37
     /tmp/ccocfciK.s:437    .text:000000000000025c .LVL44
     /tmp/ccocfciK.s:208    .text:00000000000000c4 .LVL16
     /tmp/ccocfciK.s:222    .text:00000000000000e0 .LVL17
     /tmp/ccocfciK.s:231    .text:00000000000000f0 .LVL19
     /tmp/ccocfciK.s:280    .text:0000000000000154 .LVL25
     /tmp/ccocfciK.s:114    .text:000000000000002c .LVL6
     /tmp/ccocfciK.s:128    .text:0000000000000048 .LVL7
     /tmp/ccocfciK.s:137    .text:0000000000000058 .LVL9
GAS LISTING /tmp/ccocfciK.s 			page 108


     /tmp/ccocfciK.s:186    .text:00000000000000bc .LVL15
     /tmp/ccocfciK.s:70     .text:0000000000000000 .LVL2
     /tmp/ccocfciK.s:79     .text:0000000000000010 .LVL3
     /tmp/ccocfciK.s:2844   .debug_info:0000000000000000 .Ldebug_info0
     /tmp/ccocfciK.s:5      .text:0000000000000000 .Ltext0
     /tmp/ccocfciK.s:2837   .text:00000000000010d0 .Letext0
     /tmp/ccocfciK.s:1201   .text:0000000000000620 .LBB28
     /tmp/ccocfciK.s:1212   .text:000000000000063c .LBE28
     /tmp/ccocfciK.s:1221   .text:0000000000000644 .LBB29
     /tmp/ccocfciK.s:1231   .text:0000000000000658 .LBE29
     /tmp/ccocfciK.s:1277   .text:00000000000006ac .LBB32
     /tmp/ccocfciK.s:1288   .text:00000000000006c8 .LBE32
     /tmp/ccocfciK.s:1295   .text:00000000000006d0 .LBB33
     /tmp/ccocfciK.s:1305   .text:00000000000006e4 .LBE33
     /tmp/ccocfciK.s:1423   .text:00000000000007a4 .LBB34
     /tmp/ccocfciK.s:1426   .text:00000000000007a8 .LBE34
     /tmp/ccocfciK.s:1434   .text:00000000000007b4 .LBB37
     /tmp/ccocfciK.s:1468   .text:00000000000007e4 .LBE37
     /tmp/ccocfciK.s:1435   .text:00000000000007b4 .LBB35
     /tmp/ccocfciK.s:1448   .text:00000000000007c4 .LBE35
     /tmp/ccocfciK.s:1457   .text:00000000000007d4 .LBB36
     /tmp/ccocfciK.s:1467   .text:00000000000007e4 .LBE36
     /tmp/ccocfciK.s:1690   .text:0000000000000958 .LBB41
     /tmp/ccocfciK.s:1717   .text:000000000000099c .LBE41
     /tmp/ccocfciK.s:1726   .text:00000000000009a4 .LBB42
     /tmp/ccocfciK.s:1744   .text:00000000000009cc .LBE42
     /tmp/ccocfciK.s:1754   .text:00000000000009d8 .LBB44
     /tmp/ccocfciK.s:1778   .text:0000000000000a14 .LBE44
     /tmp/ccocfciK.s:1787   .text:0000000000000a1c .LBB45
     /tmp/ccocfciK.s:1805   .text:0000000000000a44 .LBE45
     /tmp/ccocfciK.s:2533   .text:0000000000000f08 .LBB48
     /tmp/ccocfciK.s:2539   .text:0000000000000f10 .LBE48
     /tmp/ccocfciK.s:2580   .text:0000000000000f60 .LBB49
     /tmp/ccocfciK.s:2602   .text:0000000000000f8c .LBE49
     /tmp/ccocfciK.s:883    .gcc_except_table:0000000000000000 .LLSDA27
     /tmp/ccocfciK.s:1065   .gcc_except_table:000000000000005f .LLSDA28
     /tmp/ccocfciK.s:1928   .gcc_except_table:00000000000000e6 .LLSDA29
                           .group:0000000000000000 _ZN14PeriodicThreadD5Ev
                           .group:0000000000000000 _ZN12TestPeriodicD5Ev

UNDEFINED SYMBOLS
_ZN5Riscv11printStringEPKc
thread_dispatch
_ZN5Riscv12printIntegerEm
thread_exit
sem_wait
__putc
sem_signal
_ZN6ThreadD2Ev
_ZdlPv
_Znwm
_ZN6ThreadC1EPFvPvES0_
_ZN6Thread5startEv
_ZN5Riscv16enableInterruptsEv
_ZN5Riscv17disableInterruptsEv
_Unwind_Resume
__gxx_personality_v0
GAS LISTING /tmp/ccocfciK.s 			page 109


mem_alloc
mem_free
HEAP_END_ADDR
HEAP_START_ADDR
_ZN14PeriodicThreadC2Em
sem_open
thread_create
_ZN3PCB10isFinishedEv
