GAS LISTING /tmp/ccuOlLSQ.s 			page 1


   1              		.file	"Tests.cpp"
   2              		.option pic
   3              		.option norelax
   4              		.text
   5              	.Ltext0:
   6              		.section	.text._ZN6Thread3runEv,"axG",@progbits,_ZN6Thread3runEv,comdat
   7              		.align	2
   8              		.weak	_ZN6Thread3runEv
  10              	_ZN6Thread3runEv:
  11              	.LFB25:
  12              		.file 1 "src/../h/syscall_cpp.hpp"
   1:src/../h/syscall_cpp.hpp **** //
   2:src/../h/syscall_cpp.hpp **** // Created by os on 4/8/22.
   3:src/../h/syscall_cpp.hpp **** //
   4:src/../h/syscall_cpp.hpp **** 
   5:src/../h/syscall_cpp.hpp **** #ifndef PROJECT_BASE_V1_0_SYSCALL_CPP_HPP
   6:src/../h/syscall_cpp.hpp **** #define PROJECT_BASE_V1_0_SYSCALL_CPP_HPP
   7:src/../h/syscall_cpp.hpp **** 
   8:src/../h/syscall_cpp.hpp **** #include "syscall_c.h"
   9:src/../h/syscall_cpp.hpp **** #include "PCB.hpp"
  10:src/../h/syscall_cpp.hpp **** #include "KSemaphore.hpp"
  11:src/../h/syscall_cpp.hpp **** 
  12:src/../h/syscall_cpp.hpp **** void * operator new(size_t size);
  13:src/../h/syscall_cpp.hpp **** 
  14:src/../h/syscall_cpp.hpp **** void operator delete(void * p);
  15:src/../h/syscall_cpp.hpp **** 
  16:src/../h/syscall_cpp.hpp **** class Thread
  17:src/../h/syscall_cpp.hpp **** {
  18:src/../h/syscall_cpp.hpp **** public:
  19:src/../h/syscall_cpp.hpp ****     Thread(void (*body)(void*), void* args);
  20:src/../h/syscall_cpp.hpp **** 
  21:src/../h/syscall_cpp.hpp ****     virtual ~Thread();
  22:src/../h/syscall_cpp.hpp **** 
  23:src/../h/syscall_cpp.hpp ****     int start();
  24:src/../h/syscall_cpp.hpp **** 
  25:src/../h/syscall_cpp.hpp ****     static void dispatch();
  26:src/../h/syscall_cpp.hpp **** 
  27:src/../h/syscall_cpp.hpp ****     static void sleep(time_t);
  28:src/../h/syscall_cpp.hpp **** 
  29:src/../h/syscall_cpp.hpp **** protected:
  30:src/../h/syscall_cpp.hpp ****     Thread();
  31:src/../h/syscall_cpp.hpp **** 
  32:src/../h/syscall_cpp.hpp ****     virtual void run() {}
  13              		.loc 1 32 18
  14              		.cfi_startproc
  15              	.LVL0:
  16 0000 130101FF 		addi	sp,sp,-16
  17              		.cfi_def_cfa_offset 16
  18 0004 23348100 		sd	s0,8(sp)
  19              		.cfi_offset 8, -8
  20 0008 13040101 		addi	s0,sp,16
  21              		.cfi_def_cfa 8, 0
  22              		.loc 1 32 25 is_stmt 0
  23 000c 03348100 		ld	s0,8(sp)
  24              		.cfi_restore 8
  25              		.cfi_def_cfa 2, 16
  26 0010 13010101 		addi	sp,sp,16
GAS LISTING /tmp/ccuOlLSQ.s 			page 2


  27              		.cfi_def_cfa_offset 0
  28 0014 67800000 		jr	ra
  29              		.cfi_endproc
  30              	.LFE25:
  32              		.section	.text._ZN14PeriodicThread18periodicActivationEv,"axG",@progbits,_ZN14PeriodicThread18peri
  33              		.align	2
  34              		.weak	_ZN14PeriodicThread18periodicActivationEv
  36              	_ZN14PeriodicThread18periodicActivationEv:
  37              	.LFB26:
  33:src/../h/syscall_cpp.hpp **** private:
  34:src/../h/syscall_cpp.hpp ****     thread_t myHandle;
  35:src/../h/syscall_cpp.hpp ****     static void runner(void* t);
  36:src/../h/syscall_cpp.hpp **** };
  37:src/../h/syscall_cpp.hpp **** 
  38:src/../h/syscall_cpp.hpp **** class Semaphore
  39:src/../h/syscall_cpp.hpp **** {
  40:src/../h/syscall_cpp.hpp **** public:
  41:src/../h/syscall_cpp.hpp ****     Semaphore(unsigned init = 1);
  42:src/../h/syscall_cpp.hpp **** 
  43:src/../h/syscall_cpp.hpp ****     virtual ~Semaphore();
  44:src/../h/syscall_cpp.hpp **** 
  45:src/../h/syscall_cpp.hpp ****     int wait();
  46:src/../h/syscall_cpp.hpp ****     int signal();
  47:src/../h/syscall_cpp.hpp **** 
  48:src/../h/syscall_cpp.hpp **** private:
  49:src/../h/syscall_cpp.hpp ****     sem_t myHandle;
  50:src/../h/syscall_cpp.hpp **** };
  51:src/../h/syscall_cpp.hpp **** 
  52:src/../h/syscall_cpp.hpp **** class Console
  53:src/../h/syscall_cpp.hpp **** {
  54:src/../h/syscall_cpp.hpp **** public:
  55:src/../h/syscall_cpp.hpp ****     static char getc();
  56:src/../h/syscall_cpp.hpp ****     static void putc(char);
  57:src/../h/syscall_cpp.hpp **** };
  58:src/../h/syscall_cpp.hpp **** 
  59:src/../h/syscall_cpp.hpp **** class PeriodicThread : public Thread
  60:src/../h/syscall_cpp.hpp **** {
  61:src/../h/syscall_cpp.hpp **** protected:
  62:src/../h/syscall_cpp.hpp ****     PeriodicThread(time_t period);
  63:src/../h/syscall_cpp.hpp ****     virtual void periodicActivation() {};
  38              		.loc 1 63 18 is_stmt 1
  39              		.cfi_startproc
  40              	.LVL1:
  41 0000 130101FF 		addi	sp,sp,-16
  42              		.cfi_def_cfa_offset 16
  43 0004 23348100 		sd	s0,8(sp)
  44              		.cfi_offset 8, -8
  45 0008 13040101 		addi	s0,sp,16
  46              		.cfi_def_cfa 8, 0
  47              		.loc 1 63 40 is_stmt 0
  48 000c 03348100 		ld	s0,8(sp)
  49              		.cfi_restore 8
  50              		.cfi_def_cfa 2, 16
  51 0010 13010101 		addi	sp,sp,16
  52              		.cfi_def_cfa_offset 0
  53 0014 67800000 		jr	ra
  54              		.cfi_endproc
GAS LISTING /tmp/ccuOlLSQ.s 			page 3


  55              	.LFE26:
  57              		.section	.rodata.str1.8,"aMS",@progbits,1
  58              		.align	3
  59              	.LC0:
  60 0000 69203A20 		.string	"i : "
  60      00
  61              		.text
  62              		.align	2
  63              		.globl	_ZN12TestPeriodic18periodicActivationEv
  65              	_ZN12TestPeriodic18periodicActivationEv:
  66              	.LFB50:
  67              		.file 2 "src/Tests.cpp"
   1:src/Tests.cpp **** //
   2:src/Tests.cpp **** // Created by os on 5/5/22.
   3:src/Tests.cpp **** //
   4:src/Tests.cpp **** 
   5:src/Tests.cpp **** #include "../h/Tests.hpp"
   6:src/Tests.cpp **** #include "../lib/console.h"
   7:src/Tests.cpp **** #include "../test/printing.hpp"
   8:src/Tests.cpp **** 
   9:src/Tests.cpp **** void idle(void* args)
  10:src/Tests.cpp **** {
  11:src/Tests.cpp ****     while(true)
  12:src/Tests.cpp ****     {
  13:src/Tests.cpp ****         printString("Idle\n");
  14:src/Tests.cpp ****         thread_dispatch();
  15:src/Tests.cpp ****     }
  16:src/Tests.cpp **** }
  17:src/Tests.cpp **** 
  18:src/Tests.cpp **** void thread1Function(void* p)
  19:src/Tests.cpp **** {
  20:src/Tests.cpp ****     printString("Thread 1 started...\n");
  21:src/Tests.cpp ****     uint64 num = 10000;
  22:src/Tests.cpp ****     for(uint64 i = 0; i < num;i++)
  23:src/Tests.cpp ****     {
  24:src/Tests.cpp ****         if(i % 150 == 0 && i > 0)
  25:src/Tests.cpp ****             thread_dispatch();
  26:src/Tests.cpp ****         printString("i : ");
  27:src/Tests.cpp ****         printInt(i);
  28:src/Tests.cpp ****         printString("\n");
  29:src/Tests.cpp ****     }
  30:src/Tests.cpp **** }
  31:src/Tests.cpp **** 
  32:src/Tests.cpp **** void thread2Function(void* p)
  33:src/Tests.cpp **** {
  34:src/Tests.cpp ****     printString("Thread 2 started...\n");
  35:src/Tests.cpp ****     uint64 num = 10000;
  36:src/Tests.cpp ****     for(uint64 j = 0; j < num;j++)
  37:src/Tests.cpp ****     {
  38:src/Tests.cpp ****         if(j % 50 == 0 && j > 0)
  39:src/Tests.cpp ****             thread_dispatch();
  40:src/Tests.cpp ****         printString("j : ");
  41:src/Tests.cpp ****         printInt(j);
  42:src/Tests.cpp ****         printString("\n");
  43:src/Tests.cpp ****     }
  44:src/Tests.cpp **** }
  45:src/Tests.cpp **** 
GAS LISTING /tmp/ccuOlLSQ.s 			page 4


  46:src/Tests.cpp **** void thread2FunctionTest2(void* p)
  47:src/Tests.cpp **** {
  48:src/Tests.cpp ****     printString("Thread 2 started...\n");
  49:src/Tests.cpp ****     uint64 num = 10000;
  50:src/Tests.cpp ****     for(uint64 j = 0; j < num;j++)
  51:src/Tests.cpp ****     {
  52:src/Tests.cpp ****         if(j == 200)
  53:src/Tests.cpp ****             thread_exit();
  54:src/Tests.cpp ****         if(j % 50 == 0 && j > 0)
  55:src/Tests.cpp ****             thread_dispatch();
  56:src/Tests.cpp ****         printString("j : ");
  57:src/Tests.cpp ****         printInt(j);
  58:src/Tests.cpp ****         printString("\n");
  59:src/Tests.cpp ****     }
  60:src/Tests.cpp **** }
  61:src/Tests.cpp **** 
  62:src/Tests.cpp **** void threadTest1()
  63:src/Tests.cpp **** {
  64:src/Tests.cpp ****     /*Thread* t1 = new Thread(&thread1Function, 0);
  65:src/Tests.cpp ****     t1->start();
  66:src/Tests.cpp ****     Thread* t2 = new Thread(&thread2Function, 0);
  67:src/Tests.cpp ****     t2->start();
  68:src/Tests.cpp ****     Riscv::enableInterrupts();
  69:src/Tests.cpp ****     //while(((PCB*)(t1->myHandle))->getState() != PCB::FINISHED || ((PCB*)(t2->myHandle))->getState
  70:src/Tests.cpp ****     //{
  71:src/Tests.cpp ****     //    Riscv::printString("Main thread\n");
  72:src/Tests.cpp ****     //    thread_dispatch();
  73:src/Tests.cpp ****     //}
  74:src/Tests.cpp **** 
  75:src/Tests.cpp ****     printString("End...\n");
  76:src/Tests.cpp ****     Riscv::disableInterrupts();*/
  77:src/Tests.cpp **** }
  78:src/Tests.cpp **** 
  79:src/Tests.cpp **** void threadTest2()
  80:src/Tests.cpp **** {
  81:src/Tests.cpp ****     /*Thread* idleThread = new Thread(&idle, 0);
  82:src/Tests.cpp ****     idleThread->start();
  83:src/Tests.cpp ****     Thread* t1 = new Thread(&thread1Function, 0);
  84:src/Tests.cpp ****     t1->start();
  85:src/Tests.cpp ****     Thread* t2  = new Thread(&thread2FunctionTest2, 0);
  86:src/Tests.cpp ****     t2->start();
  87:src/Tests.cpp **** 
  88:src/Tests.cpp ****     Riscv::enableInterrupts();
  89:src/Tests.cpp **** 
  90:src/Tests.cpp ****     //while(((PCB*)idleThread->myHandle)->getState() != PCB::FINISHED);
  91:src/Tests.cpp **** 
  92:src/Tests.cpp ****     printString("End...\n");
  93:src/Tests.cpp **** 
  94:src/Tests.cpp ****     Riscv::disableInterrupts();*/
  95:src/Tests.cpp **** }
  96:src/Tests.cpp **** 
  97:src/Tests.cpp **** 
  98:src/Tests.cpp **** void threadTest3()
  99:src/Tests.cpp **** {
 100:src/Tests.cpp ****     Thread* t = new TestPeriodic(50);
 101:src/Tests.cpp ****     t->start();
 102:src/Tests.cpp ****     while(true)
GAS LISTING /tmp/ccuOlLSQ.s 			page 5


 103:src/Tests.cpp ****     {
 104:src/Tests.cpp ****         //thread_dispatch();
 105:src/Tests.cpp ****     }
 106:src/Tests.cpp **** }
 107:src/Tests.cpp **** 
 108:src/Tests.cpp **** void threadTests()
 109:src/Tests.cpp **** {
 110:src/Tests.cpp ****     //threadTest1();
 111:src/Tests.cpp ****     //threadTest2();
 112:src/Tests.cpp ****     threadTest3();
 113:src/Tests.cpp **** }
 114:src/Tests.cpp **** 
 115:src/Tests.cpp **** 
 116:src/Tests.cpp **** //memory (de)allocation tests
 117:src/Tests.cpp **** void mallocFree()
 118:src/Tests.cpp **** {
 119:src/Tests.cpp ****     printString("mallocFree\n");
 120:src/Tests.cpp ****     constexpr int num = 100;
 121:src/Tests.cpp ****     void* addrs[num];
 122:src/Tests.cpp ****     for(int i = 0; i < num;i++)
 123:src/Tests.cpp ****     {
 124:src/Tests.cpp ****         addrs[i] = mem_alloc(100);
 125:src/Tests.cpp ****         if(addrs[i] == 0)
 126:src/Tests.cpp ****         {
 127:src/Tests.cpp ****             printString("not OK\n");
 128:src/Tests.cpp ****             return;
 129:src/Tests.cpp ****         }
 130:src/Tests.cpp **** 
 131:src/Tests.cpp ****     }
 132:src/Tests.cpp **** 
 133:src/Tests.cpp ****     for(int i = 0 ; i < num;i+=2)
 134:src/Tests.cpp ****     {
 135:src/Tests.cpp ****         int retval = mem_free(addrs[i]);
 136:src/Tests.cpp ****         if(retval != 0)
 137:src/Tests.cpp ****         {
 138:src/Tests.cpp ****             printString("not OK\n");
 139:src/Tests.cpp ****             return;
 140:src/Tests.cpp ****         }
 141:src/Tests.cpp ****     }
 142:src/Tests.cpp **** 
 143:src/Tests.cpp ****     for(int i = 0 ; i < num;i+=2)
 144:src/Tests.cpp ****     {
 145:src/Tests.cpp ****         addrs[i] = mem_alloc(20);
 146:src/Tests.cpp ****         if(addrs[i] == 0)
 147:src/Tests.cpp ****         {
 148:src/Tests.cpp ****             printString("not OK\n");
 149:src/Tests.cpp ****             return;
 150:src/Tests.cpp ****         }
 151:src/Tests.cpp ****     }
 152:src/Tests.cpp **** 
 153:src/Tests.cpp ****     for(int i = 0; i < num;i++)
 154:src/Tests.cpp ****     {
 155:src/Tests.cpp ****         int retval = mem_free(addrs[i]);
 156:src/Tests.cpp ****         if(retval != 0)
 157:src/Tests.cpp ****         {
 158:src/Tests.cpp ****             printString("not OK\n");
 159:src/Tests.cpp ****             return;
GAS LISTING /tmp/ccuOlLSQ.s 			page 6


 160:src/Tests.cpp ****         }
 161:src/Tests.cpp ****     }
 162:src/Tests.cpp **** 
 163:src/Tests.cpp ****     printString("OK\n");
 164:src/Tests.cpp **** }
 165:src/Tests.cpp **** void bigMalloc()
 166:src/Tests.cpp **** {
 167:src/Tests.cpp ****     printString("bigMalloc\n");
 168:src/Tests.cpp ****     uint64 x = (uint64)HEAP_END_ADDR - (uint64)HEAP_START_ADDR + 100UL;
 169:src/Tests.cpp ****     void* p = mem_alloc(x);
 170:src/Tests.cpp ****     if(p == 0)
 171:src/Tests.cpp ****         printString("OK\n");
 172:src/Tests.cpp ****     else
 173:src/Tests.cpp ****         printString("not OK\n");
 174:src/Tests.cpp **** }
 175:src/Tests.cpp **** 
 176:src/Tests.cpp **** void lotOfSmallMallocs()
 177:src/Tests.cpp **** {
 178:src/Tests.cpp ****     printString("lotOfSmallMallocs\n");
 179:src/Tests.cpp ****     uint64 cnt = 0;
 180:src/Tests.cpp ****     uint64 sum = 0;
 181:src/Tests.cpp ****     uint64 N = 10000UL;
 182:src/Tests.cpp ****     uint64 X = 10UL;
 183:src/Tests.cpp ****     for(uint64 i = 0; i < N;i++)
 184:src/Tests.cpp ****     {
 185:src/Tests.cpp ****         Test* t = (Test*)mem_alloc(sizeof(Test));
 186:src/Tests.cpp ****         if(t == 0)
 187:src/Tests.cpp ****             break;
 188:src/Tests.cpp ****         t->a = X;
 189:src/Tests.cpp ****         sum+=t->a;
 190:src/Tests.cpp ****         cnt++;
 191:src/Tests.cpp ****     }
 192:src/Tests.cpp ****     printInt(cnt);
 193:src/Tests.cpp ****     printString("\n");
 194:src/Tests.cpp ****     if(sum == X*cnt)
 195:src/Tests.cpp ****         printString("OK\n");
 196:src/Tests.cpp ****     else
 197:src/Tests.cpp ****         printString("not OK\n");
 198:src/Tests.cpp **** }
 199:src/Tests.cpp **** void badFree()
 200:src/Tests.cpp **** {
 201:src/Tests.cpp ****     printString("badFree\n");
 202:src/Tests.cpp ****     Test* t = (Test*)mem_alloc(sizeof(Test));
 203:src/Tests.cpp ****     uint64 retval = mem_free((char*)t + 2);
 204:src/Tests.cpp ****     if(retval == 0)
 205:src/Tests.cpp ****         printString("not OK\n");
 206:src/Tests.cpp ****     else
 207:src/Tests.cpp ****          printString("OK\n");
 208:src/Tests.cpp **** }
 209:src/Tests.cpp **** 
 210:src/Tests.cpp **** void stressTesting()
 211:src/Tests.cpp **** {
 212:src/Tests.cpp ****     printString("stressTesting\n");
 213:src/Tests.cpp ****     constexpr int num = 100;
 214:src/Tests.cpp ****     void* addrs[num];
 215:src/Tests.cpp ****     for(int i = 0; i < num;i++)
 216:src/Tests.cpp ****     {
GAS LISTING /tmp/ccuOlLSQ.s 			page 7


 217:src/Tests.cpp ****         addrs[i] = mem_alloc(1);
 218:src/Tests.cpp ****         if(addrs[i] == 0)
 219:src/Tests.cpp ****         {
 220:src/Tests.cpp ****             printString("not OK\n");
 221:src/Tests.cpp ****             return;
 222:src/Tests.cpp ****         }
 223:src/Tests.cpp **** 
 224:src/Tests.cpp ****     }
 225:src/Tests.cpp ****     int sz = 300;
 226:src/Tests.cpp ****     while(sz > 0)
 227:src/Tests.cpp ****     {
 228:src/Tests.cpp ****         for(int i = 0 ; i < num;i+=2)
 229:src/Tests.cpp ****         {
 230:src/Tests.cpp ****             int retval = mem_free(addrs[i]);
 231:src/Tests.cpp ****             if(retval != 0)
 232:src/Tests.cpp ****             {
 233:src/Tests.cpp ****                 printString("not OK\n");
 234:src/Tests.cpp ****                 return;
 235:src/Tests.cpp ****             }
 236:src/Tests.cpp ****             addrs[i] = mem_alloc(sz/2);
 237:src/Tests.cpp ****             if(addrs[i] == 0)
 238:src/Tests.cpp ****             {
 239:src/Tests.cpp ****                 printString("not Ok\n");
 240:src/Tests.cpp ****                 return;
 241:src/Tests.cpp ****             }
 242:src/Tests.cpp **** 
 243:src/Tests.cpp ****         }
 244:src/Tests.cpp **** 
 245:src/Tests.cpp ****         for(int i = 1 ; i < num;i+=2)
 246:src/Tests.cpp ****         {
 247:src/Tests.cpp ****             int retval = mem_free(addrs[i]);
 248:src/Tests.cpp ****             if(retval != 0)
 249:src/Tests.cpp ****             {
 250:src/Tests.cpp ****                 printString("not OK\n");
 251:src/Tests.cpp ****                 return;
 252:src/Tests.cpp ****             }
 253:src/Tests.cpp ****             addrs[i] = mem_alloc(sz);
 254:src/Tests.cpp ****             if(addrs[i] == 0)
 255:src/Tests.cpp ****             {
 256:src/Tests.cpp ****                 printString("not Ok\n");
 257:src/Tests.cpp ****                 return;
 258:src/Tests.cpp ****             }
 259:src/Tests.cpp **** 
 260:src/Tests.cpp ****         }
 261:src/Tests.cpp ****         sz-=10;
 262:src/Tests.cpp ****     }
 263:src/Tests.cpp **** 
 264:src/Tests.cpp ****     printString("OK\n");
 265:src/Tests.cpp **** }
 266:src/Tests.cpp **** 
 267:src/Tests.cpp **** void memoryAllocationTests()
 268:src/Tests.cpp **** {
 269:src/Tests.cpp ****     //bigMalloc();
 270:src/Tests.cpp ****     //lotOfSmallMallocs();
 271:src/Tests.cpp ****     //mallocFree();
 272:src/Tests.cpp ****     //badFree();
 273:src/Tests.cpp ****     //stressTesting();
GAS LISTING /tmp/ccuOlLSQ.s 			page 8


 274:src/Tests.cpp ****     //mallocTest();
 275:src/Tests.cpp ****     //mallocEverything();
 276:src/Tests.cpp ****     mallocGapFillTest();
 277:src/Tests.cpp **** }
 278:src/Tests.cpp **** 
 279:src/Tests.cpp **** void semaphoreTests()
 280:src/Tests.cpp **** {
 281:src/Tests.cpp ****     semTest1();
 282:src/Tests.cpp **** }
 283:src/Tests.cpp **** 
 284:src/Tests.cpp **** void myTests()
 285:src/Tests.cpp **** {
 286:src/Tests.cpp ****     //memoryAllocationTests();
 287:src/Tests.cpp ****     //threadTests();
 288:src/Tests.cpp ****     //semaphoreTests();
 289:src/Tests.cpp ****     consoleTests();
 290:src/Tests.cpp ****     //changeModeTests();
 291:src/Tests.cpp **** }
 292:src/Tests.cpp **** 
 293:src/Tests.cpp **** TestPeriodic::TestPeriodic(time_t time) : PeriodicThread(time) {
 294:src/Tests.cpp **** 
 295:src/Tests.cpp **** }
 296:src/Tests.cpp **** 
 297:src/Tests.cpp **** void TestPeriodic::periodicActivation()
 298:src/Tests.cpp **** {
  68              		.loc 2 298 1 is_stmt 1
  69              		.cfi_startproc
  70              	.LVL2:
  71 0000 130101FE 		addi	sp,sp,-32
  72              		.cfi_def_cfa_offset 32
  73 0004 233C1100 		sd	ra,24(sp)
  74 0008 23388100 		sd	s0,16(sp)
  75 000c 23349100 		sd	s1,8(sp)
  76              		.cfi_offset 1, -8
  77              		.cfi_offset 8, -16
  78              		.cfi_offset 9, -24
  79 0010 13040102 		addi	s0,sp,32
  80              		.cfi_def_cfa 8, 0
 299:src/Tests.cpp ****     for(int i = 0 ; i < 10000;i++)
  81              		.loc 2 299 5
  82              	.LVL3:
  83              	.LBB14:
  84              		.loc 2 299 13 is_stmt 0
  85 0014 93040000 		li	s1,0
  86              	.LVL4:
  87              	.L7:
  88              		.loc 2 299 23 is_stmt 1 discriminator 3
  89 0018 B7270000 		li	a5,8192
  90 001c 9387F770 		addi	a5,a5,1807
  91 0020 63C89702 		bgt	s1,a5,.L5
 300:src/Tests.cpp ****     {
 301:src/Tests.cpp ****         printString("i : ");
  92              		.loc 2 301 9 discriminator 2
  93              		.loc 2 301 20 is_stmt 0 discriminator 2
  94 0024 17050000 		lla	a0,.LC0
  94      13050500 
  95 002c 97000000 		call	_Z11printStringPKc@plt
GAS LISTING /tmp/ccuOlLSQ.s 			page 9


  95      E7800000 
  96              	.LVL5:
 302:src/Tests.cpp ****         printInt(i);
  97              		.loc 2 302 9 is_stmt 1 discriminator 2
  98              		.loc 2 302 17 is_stmt 0 discriminator 2
  99 0034 13060000 		li	a2,0
 100 0038 9305A000 		li	a1,10
 101 003c 13850400 		mv	a0,s1
 102 0040 97000000 		call	_Z8printIntiii@plt
 102      E7800000 
 103              	.LVL6:
 299:src/Tests.cpp ****     for(int i = 0 ; i < 10000;i++)
 104              		.loc 2 299 5 is_stmt 1 discriminator 2
 105 0048 9B841400 		addiw	s1,s1,1
 106              	.LVL7:
 107 004c 6FF0DFFC 		j	.L7
 108              	.LVL8:
 109              	.L5:
 110              	.LBE14:
 303:src/Tests.cpp ****     }
 304:src/Tests.cpp **** }
 111              		.loc 2 304 1 is_stmt 0
 112 0050 83308101 		ld	ra,24(sp)
 113              		.cfi_restore 1
 114 0054 03340101 		ld	s0,16(sp)
 115              		.cfi_restore 8
 116              		.cfi_def_cfa 2, 32
 117 0058 83348100 		ld	s1,8(sp)
 118              		.cfi_restore 9
 119              	.LVL9:
 120 005c 13010102 		addi	sp,sp,32
 121              		.cfi_def_cfa_offset 0
 122 0060 67800000 		jr	ra
 123              		.cfi_endproc
 124              	.LFE50:
 126              		.section	.text._ZN14PeriodicThreadD2Ev,"axG",@progbits,_ZN14PeriodicThreadD5Ev,comdat
 127              		.align	2
 128              		.weak	_ZN14PeriodicThreadD2Ev
 130              	_ZN14PeriodicThreadD2Ev:
 131              	.LFB45:
  59:src/../h/syscall_cpp.hpp **** {
 132              		.loc 1 59 7 is_stmt 1
 133              		.cfi_startproc
 134              	.LVL10:
 135 0000 130101FF 		addi	sp,sp,-16
 136              		.cfi_def_cfa_offset 16
 137 0004 23341100 		sd	ra,8(sp)
 138 0008 23308100 		sd	s0,0(sp)
 139              		.cfi_offset 1, -8
 140              		.cfi_offset 8, -16
 141 000c 13040101 		addi	s0,sp,16
 142              		.cfi_def_cfa 8, 0
 143              	.LBB15:
  59:src/../h/syscall_cpp.hpp **** {
 144              		.loc 1 59 7 is_stmt 0
 145 0010 97070000 		lla	a5,_ZTV14PeriodicThread+16
 145      93870700 
GAS LISTING /tmp/ccuOlLSQ.s 			page 10


 146 0018 2330F500 		sd	a5,0(a0)
 147 001c 97000000 		call	_ZN6ThreadD2Ev@plt
 147      E7800000 
 148              	.LVL11:
 149              	.LBE15:
 150 0024 83308100 		ld	ra,8(sp)
 151              		.cfi_restore 1
 152 0028 03340100 		ld	s0,0(sp)
 153              		.cfi_restore 8
 154              		.cfi_def_cfa 2, 16
 155 002c 13010101 		addi	sp,sp,16
 156              		.cfi_def_cfa_offset 0
 157 0030 67800000 		jr	ra
 158              		.cfi_endproc
 159              	.LFE45:
 161              		.weak	_ZN14PeriodicThreadD1Ev
 162              		.set	_ZN14PeriodicThreadD1Ev,_ZN14PeriodicThreadD2Ev
 163              		.section	.text._ZN14PeriodicThreadD0Ev,"axG",@progbits,_ZN14PeriodicThreadD5Ev,comdat
 164              		.align	2
 165              		.weak	_ZN14PeriodicThreadD0Ev
 167              	_ZN14PeriodicThreadD0Ev:
 168              	.LFB47:
  59:src/../h/syscall_cpp.hpp **** {
 169              		.loc 1 59 7 is_stmt 1
 170              		.cfi_startproc
 171              	.LVL12:
 172 0000 130101FE 		addi	sp,sp,-32
 173              		.cfi_def_cfa_offset 32
 174 0004 233C1100 		sd	ra,24(sp)
 175 0008 23388100 		sd	s0,16(sp)
 176 000c 23349100 		sd	s1,8(sp)
 177              		.cfi_offset 1, -8
 178              		.cfi_offset 8, -16
 179              		.cfi_offset 9, -24
 180 0010 13040102 		addi	s0,sp,32
 181              		.cfi_def_cfa 8, 0
 182 0014 93040500 		mv	s1,a0
 183              	.LVL13:
 184              	.LBB16:
 185              	.LBB17:
  59:src/../h/syscall_cpp.hpp **** {
 186              		.loc 1 59 7 is_stmt 0
 187 0018 97070000 		lla	a5,_ZTV14PeriodicThread+16
 187      93870700 
 188 0020 2330F500 		sd	a5,0(a0)
 189 0024 97000000 		call	_ZN6ThreadD2Ev@plt
 189      E7800000 
 190              	.LVL14:
 191              	.LBE17:
 192              	.LBE16:
 193 002c 13850400 		mv	a0,s1
 194 0030 97000000 		call	_ZdlPv@plt
 194      E7800000 
 195              	.LVL15:
 196 0038 83308101 		ld	ra,24(sp)
 197              		.cfi_restore 1
 198 003c 03340101 		ld	s0,16(sp)
GAS LISTING /tmp/ccuOlLSQ.s 			page 11


 199              		.cfi_restore 8
 200              		.cfi_def_cfa 2, 32
 201 0040 83348100 		ld	s1,8(sp)
 202              		.cfi_restore 9
 203              	.LVL16:
 204 0044 13010102 		addi	sp,sp,32
 205              		.cfi_def_cfa_offset 0
 206 0048 67800000 		jr	ra
 207              		.cfi_endproc
 208              	.LFE47:
 210              		.section	.text._ZN12TestPeriodicD2Ev,"axG",@progbits,_ZN12TestPeriodicD5Ev,comdat
 211              		.align	2
 212              		.weak	_ZN12TestPeriodicD2Ev
 214              	_ZN12TestPeriodicD2Ev:
 215              	.LFB62:
 216              		.file 3 "src/../h/Tests.hpp"
   1:src/../h/Tests.hpp **** //
   2:src/../h/Tests.hpp **** // Created by os on 5/5/22.
   3:src/../h/Tests.hpp **** //
   4:src/../h/Tests.hpp **** 
   5:src/../h/Tests.hpp **** #ifndef PROJECT_BASE_V1_0_TESTS_HPP
   6:src/../h/Tests.hpp **** #define PROJECT_BASE_V1_0_TESTS_HPP
   7:src/../h/Tests.hpp **** 
   8:src/../h/Tests.hpp **** #include "Riscv.hpp"
   9:src/../h/Tests.hpp **** #include "PCB.hpp"
  10:src/../h/Tests.hpp **** #include "syscall_cpp.hpp"
  11:src/../h/Tests.hpp **** 
  12:src/../h/Tests.hpp **** class Test
  13:src/../h/Tests.hpp **** {
  14:src/../h/Tests.hpp **** public:
  15:src/../h/Tests.hpp ****     uint64 a;
  16:src/../h/Tests.hpp **** };
  17:src/../h/Tests.hpp **** struct object{
  18:src/../h/Tests.hpp ****     int a,b,c,d,e,f,g,h,i,j,k;
  19:src/../h/Tests.hpp **** };
  20:src/../h/Tests.hpp **** struct node{
  21:src/../h/Tests.hpp ****     object o1, o2, o3;
  22:src/../h/Tests.hpp ****     char id;
  23:src/../h/Tests.hpp ****     node *next, *prev;
  24:src/../h/Tests.hpp **** };
  25:src/../h/Tests.hpp **** 
  26:src/../h/Tests.hpp **** //memory (de)allocation tests
  27:src/../h/Tests.hpp **** void mallocFree();
  28:src/../h/Tests.hpp **** void bigMalloc();
  29:src/../h/Tests.hpp **** void lotOfSmallMallocs();
  30:src/../h/Tests.hpp **** void badFree();
  31:src/../h/Tests.hpp **** void stressTesting();
  32:src/../h/Tests.hpp **** void mallocTest();
  33:src/../h/Tests.hpp **** void mallocEverything();
  34:src/../h/Tests.hpp **** void mallocGapFillTest();
  35:src/../h/Tests.hpp **** void memoryAllocationTests();
  36:src/../h/Tests.hpp **** 
  37:src/../h/Tests.hpp **** //thread tests
  38:src/../h/Tests.hpp **** void thread1Function();
  39:src/../h/Tests.hpp **** void thread2Function();
  40:src/../h/Tests.hpp **** 
  41:src/../h/Tests.hpp **** void threadFunction3();
GAS LISTING /tmp/ccuOlLSQ.s 			page 12


  42:src/../h/Tests.hpp **** 
  43:src/../h/Tests.hpp **** void threadTest1();
  44:src/../h/Tests.hpp **** void threadTest2();
  45:src/../h/Tests.hpp **** void threadTest3();
  46:src/../h/Tests.hpp **** 
  47:src/../h/Tests.hpp **** void threadTests();
  48:src/../h/Tests.hpp **** 
  49:src/../h/Tests.hpp **** class TestPeriodic : public PeriodicThread
 217              		.loc 3 49 7 is_stmt 1
 218              		.cfi_startproc
 219              	.LVL17:
 220 0000 130101FF 		addi	sp,sp,-16
 221              		.cfi_def_cfa_offset 16
 222 0004 23341100 		sd	ra,8(sp)
 223 0008 23308100 		sd	s0,0(sp)
 224              		.cfi_offset 1, -8
 225              		.cfi_offset 8, -16
 226 000c 13040101 		addi	s0,sp,16
 227              		.cfi_def_cfa 8, 0
 228              	.LVL18:
 229              	.LBB18:
 230              	.LBB19:
  59:src/../h/syscall_cpp.hpp **** {
 231              		.loc 1 59 7 is_stmt 0
 232 0010 97070000 		lla	a5,_ZTV14PeriodicThread+16
 232      93870700 
 233 0018 2330F500 		sd	a5,0(a0)
 234 001c 97000000 		call	_ZN6ThreadD2Ev@plt
 234      E7800000 
 235              	.LVL19:
 236              	.LBE19:
 237              	.LBE18:
 238              		.loc 3 49 7
 239 0024 83308100 		ld	ra,8(sp)
 240              		.cfi_restore 1
 241 0028 03340100 		ld	s0,0(sp)
 242              		.cfi_restore 8
 243              		.cfi_def_cfa 2, 16
 244 002c 13010101 		addi	sp,sp,16
 245              		.cfi_def_cfa_offset 0
 246 0030 67800000 		jr	ra
 247              		.cfi_endproc
 248              	.LFE62:
 250              		.weak	_ZN12TestPeriodicD1Ev
 251              		.set	_ZN12TestPeriodicD1Ev,_ZN12TestPeriodicD2Ev
 252              		.section	.text._ZN12TestPeriodicD0Ev,"axG",@progbits,_ZN12TestPeriodicD5Ev,comdat
 253              		.align	2
 254              		.weak	_ZN12TestPeriodicD0Ev
 256              	_ZN12TestPeriodicD0Ev:
 257              	.LFB64:
 258              		.loc 3 49 7 is_stmt 1
 259              		.cfi_startproc
 260              	.LVL20:
 261 0000 130101FE 		addi	sp,sp,-32
 262              		.cfi_def_cfa_offset 32
 263 0004 233C1100 		sd	ra,24(sp)
 264 0008 23388100 		sd	s0,16(sp)
GAS LISTING /tmp/ccuOlLSQ.s 			page 13


 265 000c 23349100 		sd	s1,8(sp)
 266              		.cfi_offset 1, -8
 267              		.cfi_offset 8, -16
 268              		.cfi_offset 9, -24
 269 0010 13040102 		addi	s0,sp,32
 270              		.cfi_def_cfa 8, 0
 271 0014 93040500 		mv	s1,a0
 272              	.LVL21:
 273              	.LBB20:
 274              	.LBB21:
 275              	.LBB22:
  59:src/../h/syscall_cpp.hpp **** {
 276              		.loc 1 59 7 is_stmt 0
 277 0018 97070000 		lla	a5,_ZTV14PeriodicThread+16
 277      93870700 
 278 0020 2330F500 		sd	a5,0(a0)
 279 0024 97000000 		call	_ZN6ThreadD2Ev@plt
 279      E7800000 
 280              	.LVL22:
 281              	.LBE22:
 282              	.LBE21:
 283              	.LBE20:
 284              		.loc 3 49 7
 285 002c 13850400 		mv	a0,s1
 286 0030 97000000 		call	_ZdlPv@plt
 286      E7800000 
 287              	.LVL23:
 288 0038 83308101 		ld	ra,24(sp)
 289              		.cfi_restore 1
 290 003c 03340101 		ld	s0,16(sp)
 291              		.cfi_restore 8
 292              		.cfi_def_cfa 2, 32
 293 0040 83348100 		ld	s1,8(sp)
 294              		.cfi_restore 9
 295              	.LVL24:
 296 0044 13010102 		addi	sp,sp,32
 297              		.cfi_def_cfa_offset 0
 298 0048 67800000 		jr	ra
 299              		.cfi_endproc
 300              	.LFE64:
 302              		.section	.rodata.str1.8
 303 0005 000000   		.align	3
 304              	.LC1:
 305 0008 49646C65 		.string	"Idle\n"
 305      0A00
 306              		.text
 307              		.align	2
 308              		.globl	_Z4idlePv
 310              	_Z4idlePv:
 311              	.LFB27:
  10:src/Tests.cpp ****     while(true)
 312              		.loc 2 10 1 is_stmt 1
 313              		.cfi_startproc
 314              	.LVL25:
 315 0064 130101FF 		addi	sp,sp,-16
 316              		.cfi_def_cfa_offset 16
 317 0068 23341100 		sd	ra,8(sp)
GAS LISTING /tmp/ccuOlLSQ.s 			page 14


 318 006c 23308100 		sd	s0,0(sp)
 319              		.cfi_offset 1, -8
 320              		.cfi_offset 8, -16
 321 0070 13040101 		addi	s0,sp,16
 322              		.cfi_def_cfa 8, 0
 323              	.LVL26:
 324              	.L18:
  11:src/Tests.cpp ****     {
 325              		.loc 2 11 5 discriminator 1
  13:src/Tests.cpp ****         thread_dispatch();
 326              		.loc 2 13 9 discriminator 1
  13:src/Tests.cpp ****         thread_dispatch();
 327              		.loc 2 13 20 is_stmt 0 discriminator 1
 328 0074 17050000 		lla	a0,.LC1
 328      13050500 
 329 007c 97000000 		call	_Z11printStringPKc@plt
 329      E7800000 
 330              	.LVL27:
  14:src/Tests.cpp ****     }
 331              		.loc 2 14 9 is_stmt 1 discriminator 1
  14:src/Tests.cpp ****     }
 332              		.loc 2 14 24 is_stmt 0 discriminator 1
 333 0084 97000000 		call	thread_dispatch@plt
 333      E7800000 
 334              	.LVL28:
  11:src/Tests.cpp ****     {
 335              		.loc 2 11 5 is_stmt 1 discriminator 1
 336 008c 6FF09FFE 		j	.L18
 337              		.cfi_endproc
 338              	.LFE27:
 340              		.section	.rodata.str1.8
 341 000e 0000     		.align	3
 342              	.LC2:
 343 0010 54687265 		.string	"Thread 1 started...\n"
 343      61642031 
 343      20737461 
 343      72746564 
 343      2E2E2E0A 
 344 0025 000000   		.align	3
 345              	.LC3:
 346 0028 0A00     		.string	"\n"
 347              		.text
 348              		.align	2
 349              		.globl	_Z15thread1FunctionPv
 351              	_Z15thread1FunctionPv:
 352              	.LFB28:
  19:src/Tests.cpp ****     printString("Thread 1 started...\n");
 353              		.loc 2 19 1
 354              		.cfi_startproc
 355              	.LVL29:
 356 0090 130101FE 		addi	sp,sp,-32
 357              		.cfi_def_cfa_offset 32
 358 0094 233C1100 		sd	ra,24(sp)
 359 0098 23388100 		sd	s0,16(sp)
 360 009c 23349100 		sd	s1,8(sp)
 361              		.cfi_offset 1, -8
 362              		.cfi_offset 8, -16
GAS LISTING /tmp/ccuOlLSQ.s 			page 15


 363              		.cfi_offset 9, -24
 364 00a0 13040102 		addi	s0,sp,32
 365              		.cfi_def_cfa 8, 0
  20:src/Tests.cpp ****     uint64 num = 10000;
 366              		.loc 2 20 5
  20:src/Tests.cpp ****     uint64 num = 10000;
 367              		.loc 2 20 16 is_stmt 0
 368 00a4 17050000 		lla	a0,.LC2
 368      13050500 
 369              	.LVL30:
 370 00ac 97000000 		call	_Z11printStringPKc@plt
 370      E7800000 
 371              	.LVL31:
  21:src/Tests.cpp ****     for(uint64 i = 0; i < num;i++)
 372              		.loc 2 21 5 is_stmt 1
  22:src/Tests.cpp ****     {
 373              		.loc 2 22 5
 374              	.LBB23:
  22:src/Tests.cpp ****     {
 375              		.loc 2 22 16 is_stmt 0
 376 00b4 93040000 		li	s1,0
 377 00b8 6F004004 		j	.L23
 378              	.LVL32:
 379              	.L25:
  25:src/Tests.cpp ****         printString("i : ");
 380              		.loc 2 25 13 is_stmt 1
  25:src/Tests.cpp ****         printString("i : ");
 381              		.loc 2 25 28 is_stmt 0
 382 00bc 97000000 		call	thread_dispatch@plt
 382      E7800000 
 383              	.LVL33:
 384              	.L22:
  26:src/Tests.cpp ****         printInt(i);
 385              		.loc 2 26 9 is_stmt 1 discriminator 2
  26:src/Tests.cpp ****         printInt(i);
 386              		.loc 2 26 20 is_stmt 0 discriminator 2
 387 00c4 17050000 		lla	a0,.LC0
 387      13050500 
 388 00cc 97000000 		call	_Z11printStringPKc@plt
 388      E7800000 
 389              	.LVL34:
  27:src/Tests.cpp ****         printString("\n");
 390              		.loc 2 27 9 is_stmt 1 discriminator 2
  27:src/Tests.cpp ****         printString("\n");
 391              		.loc 2 27 17 is_stmt 0 discriminator 2
 392 00d4 13060000 		li	a2,0
 393 00d8 9305A000 		li	a1,10
 394 00dc 1B850400 		sext.w	a0,s1
 395 00e0 97000000 		call	_Z8printIntiii@plt
 395      E7800000 
 396              	.LVL35:
  28:src/Tests.cpp ****     }
 397              		.loc 2 28 9 is_stmt 1 discriminator 2
  28:src/Tests.cpp ****     }
 398              		.loc 2 28 20 is_stmt 0 discriminator 2
 399 00e8 17050000 		lla	a0,.LC3
 399      13050500 
GAS LISTING /tmp/ccuOlLSQ.s 			page 16


 400 00f0 97000000 		call	_Z11printStringPKc@plt
 400      E7800000 
 401              	.LVL36:
  22:src/Tests.cpp ****     {
 402              		.loc 2 22 5 is_stmt 1 discriminator 2
 403 00f8 93841400 		addi	s1,s1,1
 404              	.LVL37:
 405              	.L23:
  22:src/Tests.cpp ****     {
 406              		.loc 2 22 25 discriminator 1
 407 00fc B7270000 		li	a5,8192
 408 0100 9387F770 		addi	a5,a5,1807
 409 0104 63EC9700 		bgtu	s1,a5,.L20
  24:src/Tests.cpp ****             thread_dispatch();
 410              		.loc 2 24 9
  24:src/Tests.cpp ****             thread_dispatch();
 411              		.loc 2 24 14 is_stmt 0
 412 0108 93076009 		li	a5,150
 413 010c B3F7F402 		remu	a5,s1,a5
  24:src/Tests.cpp ****             thread_dispatch();
 414              		.loc 2 24 9
 415 0110 E39A07FA 		bnez	a5,.L22
  24:src/Tests.cpp ****             thread_dispatch();
 416              		.loc 2 24 25 discriminator 1
 417 0114 E38804FA 		beqz	s1,.L22
 418 0118 6FF05FFA 		j	.L25
 419              	.L20:
 420              	.LBE23:
  30:src/Tests.cpp **** 
 421              		.loc 2 30 1
 422 011c 83308101 		ld	ra,24(sp)
 423              		.cfi_restore 1
 424 0120 03340101 		ld	s0,16(sp)
 425              		.cfi_restore 8
 426              		.cfi_def_cfa 2, 32
 427 0124 83348100 		ld	s1,8(sp)
 428              		.cfi_restore 9
 429              	.LVL38:
 430 0128 13010102 		addi	sp,sp,32
 431              		.cfi_def_cfa_offset 0
 432 012c 67800000 		jr	ra
 433              		.cfi_endproc
 434              	.LFE28:
 436              		.section	.rodata.str1.8
 437 002a 00000000 		.align	3
 437      0000
 438              	.LC4:
 439 0030 54687265 		.string	"Thread 2 started...\n"
 439      61642032 
 439      20737461 
 439      72746564 
 439      2E2E2E0A 
 440 0045 000000   		.align	3
 441              	.LC5:
 442 0048 6A203A20 		.string	"j : "
 442      00
 443              		.text
GAS LISTING /tmp/ccuOlLSQ.s 			page 17


 444              		.align	2
 445              		.globl	_Z15thread2FunctionPv
 447              	_Z15thread2FunctionPv:
 448              	.LFB29:
  33:src/Tests.cpp ****     printString("Thread 2 started...\n");
 449              		.loc 2 33 1 is_stmt 1
 450              		.cfi_startproc
 451              	.LVL39:
 452 0130 130101FE 		addi	sp,sp,-32
 453              		.cfi_def_cfa_offset 32
 454 0134 233C1100 		sd	ra,24(sp)
 455 0138 23388100 		sd	s0,16(sp)
 456 013c 23349100 		sd	s1,8(sp)
 457              		.cfi_offset 1, -8
 458              		.cfi_offset 8, -16
 459              		.cfi_offset 9, -24
 460 0140 13040102 		addi	s0,sp,32
 461              		.cfi_def_cfa 8, 0
  34:src/Tests.cpp ****     uint64 num = 10000;
 462              		.loc 2 34 5
  34:src/Tests.cpp ****     uint64 num = 10000;
 463              		.loc 2 34 16 is_stmt 0
 464 0144 17050000 		lla	a0,.LC4
 464      13050500 
 465              	.LVL40:
 466 014c 97000000 		call	_Z11printStringPKc@plt
 466      E7800000 
 467              	.LVL41:
  35:src/Tests.cpp ****     for(uint64 j = 0; j < num;j++)
 468              		.loc 2 35 5 is_stmt 1
  36:src/Tests.cpp ****     {
 469              		.loc 2 36 5
 470              	.LBB24:
  36:src/Tests.cpp ****     {
 471              		.loc 2 36 16 is_stmt 0
 472 0154 93040000 		li	s1,0
 473 0158 6F004004 		j	.L29
 474              	.LVL42:
 475              	.L31:
  39:src/Tests.cpp ****         printString("j : ");
 476              		.loc 2 39 13 is_stmt 1
  39:src/Tests.cpp ****         printString("j : ");
 477              		.loc 2 39 28 is_stmt 0
 478 015c 97000000 		call	thread_dispatch@plt
 478      E7800000 
 479              	.LVL43:
 480              	.L28:
  40:src/Tests.cpp ****         printInt(j);
 481              		.loc 2 40 9 is_stmt 1 discriminator 2
  40:src/Tests.cpp ****         printInt(j);
 482              		.loc 2 40 20 is_stmt 0 discriminator 2
 483 0164 17050000 		lla	a0,.LC5
 483      13050500 
 484 016c 97000000 		call	_Z11printStringPKc@plt
 484      E7800000 
 485              	.LVL44:
  41:src/Tests.cpp ****         printString("\n");
GAS LISTING /tmp/ccuOlLSQ.s 			page 18


 486              		.loc 2 41 9 is_stmt 1 discriminator 2
  41:src/Tests.cpp ****         printString("\n");
 487              		.loc 2 41 17 is_stmt 0 discriminator 2
 488 0174 13060000 		li	a2,0
 489 0178 9305A000 		li	a1,10
 490 017c 1B850400 		sext.w	a0,s1
 491 0180 97000000 		call	_Z8printIntiii@plt
 491      E7800000 
 492              	.LVL45:
  42:src/Tests.cpp ****     }
 493              		.loc 2 42 9 is_stmt 1 discriminator 2
  42:src/Tests.cpp ****     }
 494              		.loc 2 42 20 is_stmt 0 discriminator 2
 495 0188 17050000 		lla	a0,.LC3
 495      13050500 
 496 0190 97000000 		call	_Z11printStringPKc@plt
 496      E7800000 
 497              	.LVL46:
  36:src/Tests.cpp ****     {
 498              		.loc 2 36 5 is_stmt 1 discriminator 2
 499 0198 93841400 		addi	s1,s1,1
 500              	.LVL47:
 501              	.L29:
  36:src/Tests.cpp ****     {
 502              		.loc 2 36 25 discriminator 1
 503 019c B7270000 		li	a5,8192
 504 01a0 9387F770 		addi	a5,a5,1807
 505 01a4 63EC9700 		bgtu	s1,a5,.L26
  38:src/Tests.cpp ****             thread_dispatch();
 506              		.loc 2 38 9
  38:src/Tests.cpp ****             thread_dispatch();
 507              		.loc 2 38 14 is_stmt 0
 508 01a8 93072003 		li	a5,50
 509 01ac B3F7F402 		remu	a5,s1,a5
  38:src/Tests.cpp ****             thread_dispatch();
 510              		.loc 2 38 9
 511 01b0 E39A07FA 		bnez	a5,.L28
  38:src/Tests.cpp ****             thread_dispatch();
 512              		.loc 2 38 24 discriminator 1
 513 01b4 E38804FA 		beqz	s1,.L28
 514 01b8 6FF05FFA 		j	.L31
 515              	.L26:
 516              	.LBE24:
  44:src/Tests.cpp **** 
 517              		.loc 2 44 1
 518 01bc 83308101 		ld	ra,24(sp)
 519              		.cfi_restore 1
 520 01c0 03340101 		ld	s0,16(sp)
 521              		.cfi_restore 8
 522              		.cfi_def_cfa 2, 32
 523 01c4 83348100 		ld	s1,8(sp)
 524              		.cfi_restore 9
 525              	.LVL48:
 526 01c8 13010102 		addi	sp,sp,32
 527              		.cfi_def_cfa_offset 0
 528 01cc 67800000 		jr	ra
 529              		.cfi_endproc
GAS LISTING /tmp/ccuOlLSQ.s 			page 19


 530              	.LFE29:
 532              		.align	2
 533              		.globl	_Z20thread2FunctionTest2Pv
 535              	_Z20thread2FunctionTest2Pv:
 536              	.LFB30:
  47:src/Tests.cpp ****     printString("Thread 2 started...\n");
 537              		.loc 2 47 1 is_stmt 1
 538              		.cfi_startproc
 539              	.LVL49:
 540 01d0 130101FE 		addi	sp,sp,-32
 541              		.cfi_def_cfa_offset 32
 542 01d4 233C1100 		sd	ra,24(sp)
 543 01d8 23388100 		sd	s0,16(sp)
 544 01dc 23349100 		sd	s1,8(sp)
 545              		.cfi_offset 1, -8
 546              		.cfi_offset 8, -16
 547              		.cfi_offset 9, -24
 548 01e0 13040102 		addi	s0,sp,32
 549              		.cfi_def_cfa 8, 0
  48:src/Tests.cpp ****     uint64 num = 10000;
 550              		.loc 2 48 5
  48:src/Tests.cpp ****     uint64 num = 10000;
 551              		.loc 2 48 16 is_stmt 0
 552 01e4 17050000 		lla	a0,.LC4
 552      13050500 
 553              	.LVL50:
 554 01ec 97000000 		call	_Z11printStringPKc@plt
 554      E7800000 
 555              	.LVL51:
  49:src/Tests.cpp ****     for(uint64 j = 0; j < num;j++)
 556              		.loc 2 49 5 is_stmt 1
  50:src/Tests.cpp ****     {
 557              		.loc 2 50 5
 558              	.LBB25:
  50:src/Tests.cpp ****     {
 559              		.loc 2 50 16 is_stmt 0
 560 01f4 93040000 		li	s1,0
 561 01f8 6F000005 		j	.L36
 562              	.LVL52:
 563              	.L38:
  53:src/Tests.cpp ****         if(j % 50 == 0 && j > 0)
 564              		.loc 2 53 13 is_stmt 1
  53:src/Tests.cpp ****         if(j % 50 == 0 && j > 0)
 565              		.loc 2 53 24 is_stmt 0
 566 01fc 97000000 		call	thread_exit@plt
 566      E7800000 
 567              	.LVL53:
 568 0204 6F008005 		j	.L34
 569              	.L39:
  55:src/Tests.cpp ****         printString("j : ");
 570              		.loc 2 55 13 is_stmt 1
  55:src/Tests.cpp ****         printString("j : ");
 571              		.loc 2 55 28 is_stmt 0
 572 0208 97000000 		call	thread_dispatch@plt
 572      E7800000 
 573              	.LVL54:
 574              	.L35:
GAS LISTING /tmp/ccuOlLSQ.s 			page 20


  56:src/Tests.cpp ****         printInt(j);
 575              		.loc 2 56 9 is_stmt 1 discriminator 2
  56:src/Tests.cpp ****         printInt(j);
 576              		.loc 2 56 20 is_stmt 0 discriminator 2
 577 0210 17050000 		lla	a0,.LC5
 577      13050500 
 578 0218 97000000 		call	_Z11printStringPKc@plt
 578      E7800000 
 579              	.LVL55:
  57:src/Tests.cpp ****         printString("\n");
 580              		.loc 2 57 9 is_stmt 1 discriminator 2
  57:src/Tests.cpp ****         printString("\n");
 581              		.loc 2 57 17 is_stmt 0 discriminator 2
 582 0220 13060000 		li	a2,0
 583 0224 9305A000 		li	a1,10
 584 0228 1B850400 		sext.w	a0,s1
 585 022c 97000000 		call	_Z8printIntiii@plt
 585      E7800000 
 586              	.LVL56:
  58:src/Tests.cpp ****     }
 587              		.loc 2 58 9 is_stmt 1 discriminator 2
  58:src/Tests.cpp ****     }
 588              		.loc 2 58 20 is_stmt 0 discriminator 2
 589 0234 17050000 		lla	a0,.LC3
 589      13050500 
 590 023c 97000000 		call	_Z11printStringPKc@plt
 590      E7800000 
 591              	.LVL57:
  50:src/Tests.cpp ****     {
 592              		.loc 2 50 5 is_stmt 1 discriminator 2
 593 0244 93841400 		addi	s1,s1,1
 594              	.LVL58:
 595              	.L36:
  50:src/Tests.cpp ****     {
 596              		.loc 2 50 25 discriminator 1
 597 0248 B7270000 		li	a5,8192
 598 024c 9387F770 		addi	a5,a5,1807
 599 0250 63E09702 		bgtu	s1,a5,.L32
  52:src/Tests.cpp ****             thread_exit();
 600              		.loc 2 52 9
 601 0254 9307800C 		li	a5,200
 602 0258 E382F4FA 		beq	s1,a5,.L38
 603              	.L34:
  54:src/Tests.cpp ****             thread_dispatch();
 604              		.loc 2 54 9
  54:src/Tests.cpp ****             thread_dispatch();
 605              		.loc 2 54 14 is_stmt 0
 606 025c 93072003 		li	a5,50
 607 0260 B3F7F402 		remu	a5,s1,a5
  54:src/Tests.cpp ****             thread_dispatch();
 608              		.loc 2 54 9
 609 0264 E39607FA 		bnez	a5,.L35
  54:src/Tests.cpp ****             thread_dispatch();
 610              		.loc 2 54 24 discriminator 1
 611 0268 E38404FA 		beqz	s1,.L35
 612 026c 6FF0DFF9 		j	.L39
 613              	.L32:
GAS LISTING /tmp/ccuOlLSQ.s 			page 21


 614              	.LBE25:
  60:src/Tests.cpp **** 
 615              		.loc 2 60 1
 616 0270 83308101 		ld	ra,24(sp)
 617              		.cfi_restore 1
 618 0274 03340101 		ld	s0,16(sp)
 619              		.cfi_restore 8
 620              		.cfi_def_cfa 2, 32
 621 0278 83348100 		ld	s1,8(sp)
 622              		.cfi_restore 9
 623              	.LVL59:
 624 027c 13010102 		addi	sp,sp,32
 625              		.cfi_def_cfa_offset 0
 626 0280 67800000 		jr	ra
 627              		.cfi_endproc
 628              	.LFE30:
 630              		.align	2
 631              		.globl	_Z11threadTest1v
 633              	_Z11threadTest1v:
 634              	.LFB31:
  63:src/Tests.cpp ****     /*Thread* t1 = new Thread(&thread1Function, 0);
 635              		.loc 2 63 1 is_stmt 1
 636              		.cfi_startproc
 637 0284 130101FF 		addi	sp,sp,-16
 638              		.cfi_def_cfa_offset 16
 639 0288 23348100 		sd	s0,8(sp)
 640              		.cfi_offset 8, -8
 641 028c 13040101 		addi	s0,sp,16
 642              		.cfi_def_cfa 8, 0
  77:src/Tests.cpp **** 
 643              		.loc 2 77 1 is_stmt 0
 644 0290 03348100 		ld	s0,8(sp)
 645              		.cfi_restore 8
 646              		.cfi_def_cfa 2, 16
 647 0294 13010101 		addi	sp,sp,16
 648              		.cfi_def_cfa_offset 0
 649 0298 67800000 		jr	ra
 650              		.cfi_endproc
 651              	.LFE31:
 653              		.align	2
 654              		.globl	_Z11threadTest2v
 656              	_Z11threadTest2v:
 657              	.LFB32:
  80:src/Tests.cpp ****     /*Thread* idleThread = new Thread(&idle, 0);
 658              		.loc 2 80 1 is_stmt 1
 659              		.cfi_startproc
 660 029c 130101FF 		addi	sp,sp,-16
 661              		.cfi_def_cfa_offset 16
 662 02a0 23348100 		sd	s0,8(sp)
 663              		.cfi_offset 8, -8
 664 02a4 13040101 		addi	s0,sp,16
 665              		.cfi_def_cfa 8, 0
  95:src/Tests.cpp **** 
 666              		.loc 2 95 1 is_stmt 0
 667 02a8 03348100 		ld	s0,8(sp)
 668              		.cfi_restore 8
 669              		.cfi_def_cfa 2, 16
GAS LISTING /tmp/ccuOlLSQ.s 			page 22


 670 02ac 13010101 		addi	sp,sp,16
 671              		.cfi_def_cfa_offset 0
 672 02b0 67800000 		jr	ra
 673              		.cfi_endproc
 674              	.LFE32:
 676              		.section	.rodata.str1.8
 677 004d 000000   		.align	3
 678              	.LC6:
 679 0050 6D616C6C 		.string	"mallocFree\n"
 679      6F634672 
 679      65650A00 
 680 005c 00000000 		.align	3
 681              	.LC7:
 682 0060 6E6F7420 		.string	"not OK\n"
 682      4F4B0A00 
 683              		.align	3
 684              	.LC8:
 685 0068 4F4B0A00 		.string	"OK\n"
 686              		.text
 687              		.align	2
 688              		.globl	_Z10mallocFreev
 690              	_Z10mallocFreev:
 691              	.LFB35:
 118:src/Tests.cpp ****     printString("mallocFree\n");
 692              		.loc 2 118 1 is_stmt 1
 693              		.cfi_startproc
 694 02b4 130101CC 		addi	sp,sp,-832
 695              		.cfi_def_cfa_offset 832
 696 02b8 233C1132 		sd	ra,824(sp)
 697 02bc 23388132 		sd	s0,816(sp)
 698 02c0 23349132 		sd	s1,808(sp)
 699              		.cfi_offset 1, -8
 700              		.cfi_offset 8, -16
 701              		.cfi_offset 9, -24
 702 02c4 13040134 		addi	s0,sp,832
 703              		.cfi_def_cfa 8, 0
 119:src/Tests.cpp ****     constexpr int num = 100;
 704              		.loc 2 119 5
 119:src/Tests.cpp ****     constexpr int num = 100;
 705              		.loc 2 119 16 is_stmt 0
 706 02c8 17050000 		lla	a0,.LC6
 706      13050500 
 707 02d0 97000000 		call	_Z11printStringPKc@plt
 707      E7800000 
 708              	.LVL60:
 709              	.LBB26:
 122:src/Tests.cpp ****     {
 710              		.loc 2 122 13
 711 02d8 93040000 		li	s1,0
 712 02dc 6F008000 		j	.L48
 713              	.LVL61:
 714              	.L46:
 122:src/Tests.cpp ****     {
 715              		.loc 2 122 5 is_stmt 1 discriminator 2
 716 02e0 9B841400 		addiw	s1,s1,1
 717              	.LVL62:
 718              	.L48:
GAS LISTING /tmp/ccuOlLSQ.s 			page 23


 122:src/Tests.cpp ****     {
 719              		.loc 2 122 22 discriminator 1
 720 02e4 93073006 		li	a5,99
 721 02e8 63C49704 		bgt	s1,a5,.L56
 124:src/Tests.cpp ****         if(addrs[i] == 0)
 722              		.loc 2 124 9
 124:src/Tests.cpp ****         if(addrs[i] == 0)
 723              		.loc 2 124 29 is_stmt 0
 724 02ec 13054006 		li	a0,100
 725 02f0 97000000 		call	mem_alloc@plt
 725      E7800000 
 726              	.LVL63:
 124:src/Tests.cpp ****         if(addrs[i] == 0)
 727              		.loc 2 124 18
 728 02f8 93973400 		slli	a5,s1,3
 729 02fc 130704FE 		addi	a4,s0,-32
 730 0300 B307F700 		add	a5,a4,a5
 731 0304 23B0A7CE 		sd	a0,-800(a5)
 125:src/Tests.cpp ****         {
 732              		.loc 2 125 9 is_stmt 1
 733 0308 E31C05FC 		bnez	a0,.L46
 127:src/Tests.cpp ****             return;
 734              		.loc 2 127 13
 127:src/Tests.cpp ****             return;
 735              		.loc 2 127 24 is_stmt 0
 736 030c 17050000 		lla	a0,.LC7
 736      13050500 
 737 0314 97000000 		call	_Z11printStringPKc@plt
 737      E7800000 
 738              	.LVL64:
 128:src/Tests.cpp ****         }
 739              		.loc 2 128 13 is_stmt 1
 740              	.L44:
 741              	.LBE26:
 164:src/Tests.cpp **** void bigMalloc()
 742              		.loc 2 164 1 is_stmt 0
 743 031c 83308133 		ld	ra,824(sp)
 744              		.cfi_remember_state
 745              		.cfi_restore 1
 746 0320 03340133 		ld	s0,816(sp)
 747              		.cfi_restore 8
 748              		.cfi_def_cfa 2, 832
 749 0324 83348132 		ld	s1,808(sp)
 750              		.cfi_restore 9
 751 0328 13010134 		addi	sp,sp,832
 752              		.cfi_def_cfa_offset 0
 753 032c 67800000 		jr	ra
 754              	.LVL65:
 755              	.L56:
 756              		.cfi_restore_state
 757              	.LBB27:
 133:src/Tests.cpp ****     {
 758              		.loc 2 133 13
 759 0330 93040000 		li	s1,0
 760              	.LVL66:
 761              	.L45:
 133:src/Tests.cpp ****     {
GAS LISTING /tmp/ccuOlLSQ.s 			page 24


 762              		.loc 2 133 23 is_stmt 1 discriminator 1
 763 0334 93073006 		li	a5,99
 764 0338 63CE9702 		bgt	s1,a5,.L57
 765              	.LBB28:
 135:src/Tests.cpp ****         if(retval != 0)
 766              		.loc 2 135 9
 135:src/Tests.cpp ****         if(retval != 0)
 767              		.loc 2 135 30 is_stmt 0
 768 033c 93973400 		slli	a5,s1,3
 769 0340 130704FE 		addi	a4,s0,-32
 770 0344 B307F700 		add	a5,a4,a5
 771 0348 03B507CE 		ld	a0,-800(a5)
 772 034c 97000000 		call	mem_free@plt
 772      E7800000 
 773              	.LVL67:
 136:src/Tests.cpp ****         {
 774              		.loc 2 136 9 is_stmt 1
 775 0354 63160500 		bnez	a0,.L60
 776              	.LBE28:
 133:src/Tests.cpp ****     {
 777              		.loc 2 133 5 discriminator 2
 133:src/Tests.cpp ****     {
 778              		.loc 2 133 30 is_stmt 0 discriminator 2
 779 0358 9B842400 		addiw	s1,s1,2
 780              	.LVL68:
 133:src/Tests.cpp ****     {
 781              		.loc 2 133 5 discriminator 2
 782 035c 6FF09FFD 		j	.L45
 783              	.LVL69:
 784              	.L60:
 785              	.LBB29:
 138:src/Tests.cpp ****             return;
 786              		.loc 2 138 13 is_stmt 1
 138:src/Tests.cpp ****             return;
 787              		.loc 2 138 24 is_stmt 0
 788 0360 17050000 		lla	a0,.LC7
 788      13050500 
 789              	.LVL70:
 790 0368 97000000 		call	_Z11printStringPKc@plt
 790      E7800000 
 791              	.LVL71:
 139:src/Tests.cpp ****         }
 792              		.loc 2 139 13 is_stmt 1
 793 0370 6FF0DFFA 		j	.L44
 794              	.L57:
 795              	.LBE29:
 796              	.LBE27:
 797              	.LBB30:
 143:src/Tests.cpp ****     {
 798              		.loc 2 143 13 is_stmt 0
 799 0374 93040000 		li	s1,0
 800              	.LVL72:
 801 0378 6F008000 		j	.L49
 802              	.LVL73:
 803              	.L52:
 143:src/Tests.cpp ****     {
 804              		.loc 2 143 5 is_stmt 1 discriminator 2
GAS LISTING /tmp/ccuOlLSQ.s 			page 25


 143:src/Tests.cpp ****     {
 805              		.loc 2 143 30 is_stmt 0 discriminator 2
 806 037c 9B842400 		addiw	s1,s1,2
 807              	.LVL74:
 808              	.L49:
 143:src/Tests.cpp ****     {
 809              		.loc 2 143 23 is_stmt 1 discriminator 1
 810 0380 93073006 		li	a5,99
 811 0384 63CC9702 		bgt	s1,a5,.L58
 145:src/Tests.cpp ****         if(addrs[i] == 0)
 812              		.loc 2 145 9
 145:src/Tests.cpp ****         if(addrs[i] == 0)
 813              		.loc 2 145 29 is_stmt 0
 814 0388 13054001 		li	a0,20
 815 038c 97000000 		call	mem_alloc@plt
 815      E7800000 
 816              	.LVL75:
 145:src/Tests.cpp ****         if(addrs[i] == 0)
 817              		.loc 2 145 18
 818 0394 93973400 		slli	a5,s1,3
 819 0398 130704FE 		addi	a4,s0,-32
 820 039c B307F700 		add	a5,a4,a5
 821 03a0 23B0A7CE 		sd	a0,-800(a5)
 146:src/Tests.cpp ****         {
 822              		.loc 2 146 9 is_stmt 1
 823 03a4 E31C05FC 		bnez	a0,.L52
 148:src/Tests.cpp ****             return;
 824              		.loc 2 148 13
 148:src/Tests.cpp ****             return;
 825              		.loc 2 148 24 is_stmt 0
 826 03a8 17050000 		lla	a0,.LC7
 826      13050500 
 827 03b0 97000000 		call	_Z11printStringPKc@plt
 827      E7800000 
 828              	.LVL76:
 149:src/Tests.cpp ****         }
 829              		.loc 2 149 13 is_stmt 1
 830 03b8 6FF05FF6 		j	.L44
 831              	.L58:
 832              	.LBE30:
 833              	.LBB31:
 153:src/Tests.cpp ****     {
 834              		.loc 2 153 13 is_stmt 0
 835 03bc 93040000 		li	s1,0
 836              	.LVL77:
 837              	.L51:
 153:src/Tests.cpp ****     {
 838              		.loc 2 153 22 is_stmt 1 discriminator 1
 839 03c0 93073006 		li	a5,99
 840 03c4 63CE9702 		bgt	s1,a5,.L53
 841              	.LBB32:
 155:src/Tests.cpp ****         if(retval != 0)
 842              		.loc 2 155 9
 155:src/Tests.cpp ****         if(retval != 0)
 843              		.loc 2 155 30 is_stmt 0
 844 03c8 93973400 		slli	a5,s1,3
 845 03cc 130704FE 		addi	a4,s0,-32
GAS LISTING /tmp/ccuOlLSQ.s 			page 26


 846 03d0 B307F700 		add	a5,a4,a5
 847 03d4 03B507CE 		ld	a0,-800(a5)
 848 03d8 97000000 		call	mem_free@plt
 848      E7800000 
 849              	.LVL78:
 156:src/Tests.cpp ****         {
 850              		.loc 2 156 9 is_stmt 1
 851 03e0 63160500 		bnez	a0,.L61
 852              	.LBE32:
 153:src/Tests.cpp ****     {
 853              		.loc 2 153 5 discriminator 2
 854 03e4 9B841400 		addiw	s1,s1,1
 855              	.LVL79:
 856 03e8 6FF09FFD 		j	.L51
 857              	.LVL80:
 858              	.L61:
 859              	.LBB33:
 158:src/Tests.cpp ****             return;
 860              		.loc 2 158 13
 158:src/Tests.cpp ****             return;
 861              		.loc 2 158 24 is_stmt 0
 862 03ec 17050000 		lla	a0,.LC7
 862      13050500 
 863              	.LVL81:
 864 03f4 97000000 		call	_Z11printStringPKc@plt
 864      E7800000 
 865              	.LVL82:
 159:src/Tests.cpp ****         }
 866              		.loc 2 159 13 is_stmt 1
 867 03fc 6FF01FF2 		j	.L44
 868              	.L53:
 869              	.LBE33:
 870              	.LBE31:
 163:src/Tests.cpp **** }
 871              		.loc 2 163 5
 163:src/Tests.cpp **** }
 872              		.loc 2 163 16 is_stmt 0
 873 0400 17050000 		lla	a0,.LC8
 873      13050500 
 874 0408 97000000 		call	_Z11printStringPKc@plt
 874      E7800000 
 875              	.LVL83:
 876 0410 6FF0DFF0 		j	.L44
 877              		.cfi_endproc
 878              	.LFE35:
 880              		.section	.rodata.str1.8
 881 006c 00000000 		.align	3
 882              	.LC9:
 883 0070 6269674D 		.string	"bigMalloc\n"
 883      616C6C6F 
 883      630A00
 884              		.text
 885              		.align	2
 886              		.globl	_Z9bigMallocv
 888              	_Z9bigMallocv:
 889              	.LFB36:
 166:src/Tests.cpp ****     printString("bigMalloc\n");
GAS LISTING /tmp/ccuOlLSQ.s 			page 27


 890              		.loc 2 166 1 is_stmt 1
 891              		.cfi_startproc
 892 0414 130101FF 		addi	sp,sp,-16
 893              		.cfi_def_cfa_offset 16
 894 0418 23341100 		sd	ra,8(sp)
 895 041c 23308100 		sd	s0,0(sp)
 896              		.cfi_offset 1, -8
 897              		.cfi_offset 8, -16
 898 0420 13040101 		addi	s0,sp,16
 899              		.cfi_def_cfa 8, 0
 167:src/Tests.cpp ****     uint64 x = (uint64)HEAP_END_ADDR - (uint64)HEAP_START_ADDR + 100UL;
 900              		.loc 2 167 5
 167:src/Tests.cpp ****     uint64 x = (uint64)HEAP_END_ADDR - (uint64)HEAP_START_ADDR + 100UL;
 901              		.loc 2 167 16 is_stmt 0
 902 0424 17050000 		lla	a0,.LC9
 902      13050500 
 903 042c 97000000 		call	_Z11printStringPKc@plt
 903      E7800000 
 904              	.LVL84:
 168:src/Tests.cpp ****     void* p = mem_alloc(x);
 905              		.loc 2 168 5 is_stmt 1
 168:src/Tests.cpp ****     void* p = mem_alloc(x);
 906              		.loc 2 168 38 is_stmt 0
 907 0434 97070000 		la	a5,HEAP_END_ADDR
 907      83B70700 
 908 043c 03B50700 		ld	a0,0(a5)
 909 0440 97070000 		la	a5,HEAP_START_ADDR
 909      83B70700 
 910 0448 83B70700 		ld	a5,0(a5)
 911 044c 3305F540 		sub	a0,a0,a5
 912              	.LVL85:
 169:src/Tests.cpp ****     if(p == 0)
 913              		.loc 2 169 5 is_stmt 1
 169:src/Tests.cpp ****     if(p == 0)
 914              		.loc 2 169 24 is_stmt 0
 915 0450 13054506 		addi	a0,a0,100
 916              	.LVL86:
 917 0454 97000000 		call	mem_alloc@plt
 917      E7800000 
 918              	.LVL87:
 170:src/Tests.cpp ****         printString("OK\n");
 919              		.loc 2 170 5 is_stmt 1
 920 045c 63020502 		beqz	a0,.L66
 173:src/Tests.cpp **** }
 921              		.loc 2 173 9
 173:src/Tests.cpp **** }
 922              		.loc 2 173 20 is_stmt 0
 923 0460 17050000 		lla	a0,.LC7
 923      13050500 
 924              	.LVL88:
 925 0468 97000000 		call	_Z11printStringPKc@plt
 925      E7800000 
 926              	.LVL89:
 927              	.L62:
 174:src/Tests.cpp **** 
 928              		.loc 2 174 1
 929 0470 83308100 		ld	ra,8(sp)
GAS LISTING /tmp/ccuOlLSQ.s 			page 28


 930              		.cfi_remember_state
 931              		.cfi_restore 1
 932 0474 03340100 		ld	s0,0(sp)
 933              		.cfi_restore 8
 934              		.cfi_def_cfa 2, 16
 935 0478 13010101 		addi	sp,sp,16
 936              		.cfi_def_cfa_offset 0
 937 047c 67800000 		jr	ra
 938              	.LVL90:
 939              	.L66:
 940              		.cfi_restore_state
 171:src/Tests.cpp ****     else
 941              		.loc 2 171 9 is_stmt 1
 171:src/Tests.cpp ****     else
 942              		.loc 2 171 20 is_stmt 0
 943 0480 17050000 		lla	a0,.LC8
 943      13050500 
 944              	.LVL91:
 945 0488 97000000 		call	_Z11printStringPKc@plt
 945      E7800000 
 946              	.LVL92:
 947 0490 6FF01FFE 		j	.L62
 948              		.cfi_endproc
 949              	.LFE36:
 951              		.section	.rodata.str1.8
 952 007b 00000000 		.align	3
 952      00
 953              	.LC10:
 954 0080 6C6F744F 		.string	"lotOfSmallMallocs\n"
 954      66536D61 
 954      6C6C4D61 
 954      6C6C6F63 
 954      730A00
 955              		.text
 956              		.align	2
 957              		.globl	_Z17lotOfSmallMallocsv
 959              	_Z17lotOfSmallMallocsv:
 960              	.LFB37:
 177:src/Tests.cpp ****     printString("lotOfSmallMallocs\n");
 961              		.loc 2 177 1 is_stmt 1
 962              		.cfi_startproc
 963 0494 130101FD 		addi	sp,sp,-48
 964              		.cfi_def_cfa_offset 48
 965 0498 23341102 		sd	ra,40(sp)
 966 049c 23308102 		sd	s0,32(sp)
 967 04a0 233C9100 		sd	s1,24(sp)
 968 04a4 23382101 		sd	s2,16(sp)
 969 04a8 23343101 		sd	s3,8(sp)
 970              		.cfi_offset 1, -8
 971              		.cfi_offset 8, -16
 972              		.cfi_offset 9, -24
 973              		.cfi_offset 18, -32
 974              		.cfi_offset 19, -40
 975 04ac 13040103 		addi	s0,sp,48
 976              		.cfi_def_cfa 8, 0
 178:src/Tests.cpp ****     uint64 cnt = 0;
 977              		.loc 2 178 5
GAS LISTING /tmp/ccuOlLSQ.s 			page 29


 178:src/Tests.cpp ****     uint64 cnt = 0;
 978              		.loc 2 178 16 is_stmt 0
 979 04b0 17050000 		lla	a0,.LC10
 979      13050500 
 980 04b8 97000000 		call	_Z11printStringPKc@plt
 980      E7800000 
 981              	.LVL93:
 179:src/Tests.cpp ****     uint64 sum = 0;
 982              		.loc 2 179 5 is_stmt 1
 180:src/Tests.cpp ****     uint64 N = 10000UL;
 983              		.loc 2 180 5
 181:src/Tests.cpp ****     uint64 X = 10UL;
 984              		.loc 2 181 5
 182:src/Tests.cpp ****     for(uint64 i = 0; i < N;i++)
 985              		.loc 2 182 5
 183:src/Tests.cpp ****     {
 986              		.loc 2 183 5
 987              	.LBB34:
 183:src/Tests.cpp ****     {
 988              		.loc 2 183 16 is_stmt 0
 989 04c0 93040000 		li	s1,0
 990              	.LBE34:
 180:src/Tests.cpp ****     uint64 N = 10000UL;
 991              		.loc 2 180 12
 992 04c4 93090000 		li	s3,0
 179:src/Tests.cpp ****     uint64 sum = 0;
 993              		.loc 2 179 12
 994 04c8 13090000 		li	s2,0
 995 04cc 6F008001 		j	.L69
 996              	.LVL94:
 997              	.L73:
 998              	.LBB37:
 999              	.LBB35:
 188:src/Tests.cpp ****         sum+=t->a;
 1000              		.loc 2 188 9 is_stmt 1 discriminator 2
 188:src/Tests.cpp ****         sum+=t->a;
 1001              		.loc 2 188 14 is_stmt 0 discriminator 2
 1002 04d0 9307A000 		li	a5,10
 1003 04d4 2330F500 		sd	a5,0(a0)
 189:src/Tests.cpp ****         cnt++;
 1004              		.loc 2 189 9 is_stmt 1 discriminator 2
 189:src/Tests.cpp ****         cnt++;
 1005              		.loc 2 189 12 is_stmt 0 discriminator 2
 1006 04d8 9389A900 		addi	s3,s3,10
 1007              	.LVL95:
 190:src/Tests.cpp ****     }
 1008              		.loc 2 190 9 is_stmt 1 discriminator 2
 190:src/Tests.cpp ****     }
 1009              		.loc 2 190 12 is_stmt 0 discriminator 2
 1010 04dc 13091900 		addi	s2,s2,1
 1011              	.LVL96:
 1012              	.LBE35:
 183:src/Tests.cpp ****     {
 1013              		.loc 2 183 5 is_stmt 1 discriminator 2
 1014 04e0 93841400 		addi	s1,s1,1
 1015              	.LVL97:
 1016              	.L69:
GAS LISTING /tmp/ccuOlLSQ.s 			page 30


 183:src/Tests.cpp ****     {
 1017              		.loc 2 183 25 discriminator 1
 1018 04e4 B7270000 		li	a5,8192
 1019 04e8 9387F770 		addi	a5,a5,1807
 1020 04ec 63EA9700 		bgtu	s1,a5,.L68
 1021              	.LBB36:
 185:src/Tests.cpp ****         if(t == 0)
 1022              		.loc 2 185 9
 185:src/Tests.cpp ****         if(t == 0)
 1023              		.loc 2 185 35 is_stmt 0
 1024 04f0 13058000 		li	a0,8
 1025 04f4 97000000 		call	mem_alloc@plt
 1025      E7800000 
 1026              	.LVL98:
 186:src/Tests.cpp ****             break;
 1027              		.loc 2 186 9 is_stmt 1
 1028 04fc E31A05FC 		bnez	a0,.L73
 1029              	.LVL99:
 1030              	.L68:
 1031              	.LBE36:
 1032              	.LBE37:
 192:src/Tests.cpp ****     printString("\n");
 1033              		.loc 2 192 5
 192:src/Tests.cpp ****     printString("\n");
 1034              		.loc 2 192 13 is_stmt 0
 1035 0500 13060000 		li	a2,0
 1036 0504 9305A000 		li	a1,10
 1037 0508 1B050900 		sext.w	a0,s2
 1038 050c 97000000 		call	_Z8printIntiii@plt
 1038      E7800000 
 1039              	.LVL100:
 193:src/Tests.cpp ****     if(sum == X*cnt)
 1040              		.loc 2 193 5 is_stmt 1
 193:src/Tests.cpp ****     if(sum == X*cnt)
 1041              		.loc 2 193 16 is_stmt 0
 1042 0514 17050000 		lla	a0,.LC3
 1042      13050500 
 1043 051c 97000000 		call	_Z11printStringPKc@plt
 1043      E7800000 
 1044              	.LVL101:
 194:src/Tests.cpp ****         printString("OK\n");
 1045              		.loc 2 194 5 is_stmt 1
 194:src/Tests.cpp ****         printString("OK\n");
 1046              		.loc 2 194 16 is_stmt 0
 1047 0524 93172900 		slli	a5,s2,2
 1048 0528 33892701 		add	s2,a5,s2
 1049              	.LVL102:
 1050 052c 13191900 		slli	s2,s2,1
 194:src/Tests.cpp ****         printString("OK\n");
 1051              		.loc 2 194 5
 1052 0530 63083903 		beq	s2,s3,.L74
 197:src/Tests.cpp **** }
 1053              		.loc 2 197 9 is_stmt 1
 197:src/Tests.cpp **** }
 1054              		.loc 2 197 20 is_stmt 0
 1055 0534 17050000 		lla	a0,.LC7
 1055      13050500 
GAS LISTING /tmp/ccuOlLSQ.s 			page 31


 1056 053c 97000000 		call	_Z11printStringPKc@plt
 1056      E7800000 
 1057              	.LVL103:
 1058              	.L67:
 198:src/Tests.cpp **** void badFree()
 1059              		.loc 2 198 1
 1060 0544 83308102 		ld	ra,40(sp)
 1061              		.cfi_remember_state
 1062              		.cfi_restore 1
 1063 0548 03340102 		ld	s0,32(sp)
 1064              		.cfi_restore 8
 1065              		.cfi_def_cfa 2, 48
 1066 054c 83348101 		ld	s1,24(sp)
 1067              		.cfi_restore 9
 1068              	.LVL104:
 1069 0550 03390101 		ld	s2,16(sp)
 1070              		.cfi_restore 18
 1071 0554 83398100 		ld	s3,8(sp)
 1072              		.cfi_restore 19
 1073              	.LVL105:
 1074 0558 13010103 		addi	sp,sp,48
 1075              		.cfi_def_cfa_offset 0
 1076 055c 67800000 		jr	ra
 1077              	.LVL106:
 1078              	.L74:
 1079              		.cfi_restore_state
 195:src/Tests.cpp ****     else
 1080              		.loc 2 195 9 is_stmt 1
 195:src/Tests.cpp ****     else
 1081              		.loc 2 195 20 is_stmt 0
 1082 0560 17050000 		lla	a0,.LC8
 1082      13050500 
 1083 0568 97000000 		call	_Z11printStringPKc@plt
 1083      E7800000 
 1084              	.LVL107:
 1085 0570 6FF05FFD 		j	.L67
 1086              		.cfi_endproc
 1087              	.LFE37:
 1089              		.section	.rodata.str1.8
 1090 0093 00000000 		.align	3
 1090      00
 1091              	.LC11:
 1092 0098 62616446 		.string	"badFree\n"
 1092      7265650A 
 1092      00
 1093              		.text
 1094              		.align	2
 1095              		.globl	_Z7badFreev
 1097              	_Z7badFreev:
 1098              	.LFB38:
 200:src/Tests.cpp ****     printString("badFree\n");
 1099              		.loc 2 200 1 is_stmt 1
 1100              		.cfi_startproc
 1101 0574 130101FF 		addi	sp,sp,-16
 1102              		.cfi_def_cfa_offset 16
 1103 0578 23341100 		sd	ra,8(sp)
 1104 057c 23308100 		sd	s0,0(sp)
GAS LISTING /tmp/ccuOlLSQ.s 			page 32


 1105              		.cfi_offset 1, -8
 1106              		.cfi_offset 8, -16
 1107 0580 13040101 		addi	s0,sp,16
 1108              		.cfi_def_cfa 8, 0
 201:src/Tests.cpp ****     Test* t = (Test*)mem_alloc(sizeof(Test));
 1109              		.loc 2 201 5
 201:src/Tests.cpp ****     Test* t = (Test*)mem_alloc(sizeof(Test));
 1110              		.loc 2 201 16 is_stmt 0
 1111 0584 17050000 		lla	a0,.LC11
 1111      13050500 
 1112 058c 97000000 		call	_Z11printStringPKc@plt
 1112      E7800000 
 1113              	.LVL108:
 202:src/Tests.cpp ****     uint64 retval = mem_free((char*)t + 2);
 1114              		.loc 2 202 5 is_stmt 1
 202:src/Tests.cpp ****     uint64 retval = mem_free((char*)t + 2);
 1115              		.loc 2 202 31 is_stmt 0
 1116 0594 13058000 		li	a0,8
 1117 0598 97000000 		call	mem_alloc@plt
 1117      E7800000 
 1118              	.LVL109:
 203:src/Tests.cpp ****     if(retval == 0)
 1119              		.loc 2 203 5 is_stmt 1
 203:src/Tests.cpp ****     if(retval == 0)
 1120              		.loc 2 203 29 is_stmt 0
 1121 05a0 13052500 		addi	a0,a0,2
 1122              	.LVL110:
 1123 05a4 97000000 		call	mem_free@plt
 1123      E7800000 
 1124              	.LVL111:
 204:src/Tests.cpp ****         printString("not OK\n");
 1125              		.loc 2 204 5 is_stmt 1
 1126 05ac 63120502 		bnez	a0,.L76
 205:src/Tests.cpp ****     else
 1127              		.loc 2 205 9
 205:src/Tests.cpp ****     else
 1128              		.loc 2 205 20 is_stmt 0
 1129 05b0 17050000 		lla	a0,.LC7
 1129      13050500 
 1130              	.LVL112:
 1131 05b8 97000000 		call	_Z11printStringPKc@plt
 1131      E7800000 
 1132              	.LVL113:
 1133              	.L75:
 208:src/Tests.cpp **** 
 1134              		.loc 2 208 1
 1135 05c0 83308100 		ld	ra,8(sp)
 1136              		.cfi_remember_state
 1137              		.cfi_restore 1
 1138 05c4 03340100 		ld	s0,0(sp)
 1139              		.cfi_restore 8
 1140              		.cfi_def_cfa 2, 16
 1141 05c8 13010101 		addi	sp,sp,16
 1142              		.cfi_def_cfa_offset 0
 1143 05cc 67800000 		jr	ra
 1144              	.LVL114:
 1145              	.L76:
GAS LISTING /tmp/ccuOlLSQ.s 			page 33


 1146              		.cfi_restore_state
 207:src/Tests.cpp **** }
 1147              		.loc 2 207 10 is_stmt 1
 207:src/Tests.cpp **** }
 1148              		.loc 2 207 21 is_stmt 0
 1149 05d0 17050000 		lla	a0,.LC8
 1149      13050500 
 1150              	.LVL115:
 1151 05d8 97000000 		call	_Z11printStringPKc@plt
 1151      E7800000 
 1152              	.LVL116:
 208:src/Tests.cpp **** 
 1153              		.loc 2 208 1
 1154 05e0 6FF01FFE 		j	.L75
 1155              		.cfi_endproc
 1156              	.LFE38:
 1158              		.section	.rodata.str1.8
 1159 00a1 00000000 		.align	3
 1159      000000
 1160              	.LC12:
 1161 00a8 73747265 		.string	"stressTesting\n"
 1161      73735465 
 1161      7374696E 
 1161      670A00
 1162 00b7 00       		.align	3
 1163              	.LC13:
 1164 00b8 6E6F7420 		.string	"not Ok\n"
 1164      4F6B0A00 
 1165              		.text
 1166              		.align	2
 1167              		.globl	_Z13stressTestingv
 1169              	_Z13stressTestingv:
 1170              	.LFB39:
 211:src/Tests.cpp ****     printString("stressTesting\n");
 1171              		.loc 2 211 1 is_stmt 1
 1172              		.cfi_startproc
 1173 05e4 130101CC 		addi	sp,sp,-832
 1174              		.cfi_def_cfa_offset 832
 1175 05e8 233C1132 		sd	ra,824(sp)
 1176 05ec 23388132 		sd	s0,816(sp)
 1177 05f0 23349132 		sd	s1,808(sp)
 1178 05f4 23302133 		sd	s2,800(sp)
 1179              		.cfi_offset 1, -8
 1180              		.cfi_offset 8, -16
 1181              		.cfi_offset 9, -24
 1182              		.cfi_offset 18, -32
 1183 05f8 13040134 		addi	s0,sp,832
 1184              		.cfi_def_cfa 8, 0
 212:src/Tests.cpp ****     constexpr int num = 100;
 1185              		.loc 2 212 5
 212:src/Tests.cpp ****     constexpr int num = 100;
 1186              		.loc 2 212 16 is_stmt 0
 1187 05fc 17050000 		lla	a0,.LC12
 1187      13050500 
 1188 0604 97000000 		call	_Z11printStringPKc@plt
 1188      E7800000 
 1189              	.LVL117:
GAS LISTING /tmp/ccuOlLSQ.s 			page 34


 1190              	.LBB38:
 215:src/Tests.cpp ****     {
 1191              		.loc 2 215 13
 1192 060c 93040000 		li	s1,0
 1193 0610 6F008000 		j	.L83
 1194              	.LVL118:
 1195              	.L81:
 215:src/Tests.cpp ****     {
 1196              		.loc 2 215 5 is_stmt 1 discriminator 2
 1197 0614 9B841400 		addiw	s1,s1,1
 1198              	.LVL119:
 1199              	.L83:
 215:src/Tests.cpp ****     {
 1200              		.loc 2 215 22 discriminator 1
 1201 0618 93073006 		li	a5,99
 1202 061c 63C69704 		bgt	s1,a5,.L93
 217:src/Tests.cpp ****         if(addrs[i] == 0)
 1203              		.loc 2 217 9
 217:src/Tests.cpp ****         if(addrs[i] == 0)
 1204              		.loc 2 217 29 is_stmt 0
 1205 0620 13051000 		li	a0,1
 1206 0624 97000000 		call	mem_alloc@plt
 1206      E7800000 
 1207              	.LVL120:
 217:src/Tests.cpp ****         if(addrs[i] == 0)
 1208              		.loc 2 217 18
 1209 062c 93973400 		slli	a5,s1,3
 1210 0630 130704FE 		addi	a4,s0,-32
 1211 0634 B307F700 		add	a5,a4,a5
 1212 0638 23B0A7CE 		sd	a0,-800(a5)
 218:src/Tests.cpp ****         {
 1213              		.loc 2 218 9 is_stmt 1
 1214 063c E31C05FC 		bnez	a0,.L81
 220:src/Tests.cpp ****             return;
 1215              		.loc 2 220 13
 220:src/Tests.cpp ****             return;
 1216              		.loc 2 220 24 is_stmt 0
 1217 0640 17050000 		lla	a0,.LC7
 1217      13050500 
 1218 0648 97000000 		call	_Z11printStringPKc@plt
 1218      E7800000 
 1219              	.LVL121:
 221:src/Tests.cpp ****         }
 1220              		.loc 2 221 13 is_stmt 1
 1221              	.L79:
 1222              	.LBE38:
 265:src/Tests.cpp **** 
 1223              		.loc 2 265 1 is_stmt 0
 1224 0650 83308133 		ld	ra,824(sp)
 1225              		.cfi_remember_state
 1226              		.cfi_restore 1
 1227 0654 03340133 		ld	s0,816(sp)
 1228              		.cfi_restore 8
 1229              		.cfi_def_cfa 2, 832
 1230 0658 83348132 		ld	s1,808(sp)
 1231              		.cfi_restore 9
 1232 065c 03390132 		ld	s2,800(sp)
GAS LISTING /tmp/ccuOlLSQ.s 			page 35


 1233              		.cfi_restore 18
 1234 0660 13010134 		addi	sp,sp,832
 1235              		.cfi_def_cfa_offset 0
 1236 0664 67800000 		jr	ra
 1237              	.LVL122:
 1238              	.L93:
 1239              		.cfi_restore_state
 225:src/Tests.cpp ****     while(sz > 0)
 1240              		.loc 2 225 9
 1241 0668 1309C012 		li	s2,300
 1242              	.LVL123:
 1243              	.L80:
 226:src/Tests.cpp ****     {
 1244              		.loc 2 226 5 is_stmt 1
 226:src/Tests.cpp ****     {
 1245              		.loc 2 226 14
 1246 066c 63522011 		blez	s2,.L84
 1247              	.LBB39:
 1248              	.LBB40:
 228:src/Tests.cpp ****         {
 1249              		.loc 2 228 17 is_stmt 0
 1250 0670 93040000 		li	s1,0
 1251              	.L88:
 1252              	.LVL124:
 228:src/Tests.cpp ****         {
 1253              		.loc 2 228 27 is_stmt 1 discriminator 1
 1254 0674 93073006 		li	a5,99
 1255 0678 63CC9706 		bgt	s1,a5,.L94
 1256              	.LBB41:
 230:src/Tests.cpp ****             if(retval != 0)
 1257              		.loc 2 230 13
 230:src/Tests.cpp ****             if(retval != 0)
 1258              		.loc 2 230 34 is_stmt 0
 1259 067c 93973400 		slli	a5,s1,3
 1260 0680 130704FE 		addi	a4,s0,-32
 1261 0684 B307F700 		add	a5,a4,a5
 1262 0688 03B507CE 		ld	a0,-800(a5)
 1263 068c 97000000 		call	mem_free@plt
 1263      E7800000 
 1264              	.LVL125:
 231:src/Tests.cpp ****             {
 1265              		.loc 2 231 13 is_stmt 1
 1266 0694 631A0502 		bnez	a0,.L96
 236:src/Tests.cpp ****             if(addrs[i] == 0)
 1267              		.loc 2 236 13
 236:src/Tests.cpp ****             if(addrs[i] == 0)
 1268              		.loc 2 236 36 is_stmt 0
 1269 0698 1B55F901 		srliw	a0,s2,31
 1270              	.LVL126:
 1271 069c 3B052501 		addw	a0,a0,s2
 236:src/Tests.cpp ****             if(addrs[i] == 0)
 1272              		.loc 2 236 33
 1273 06a0 1B551540 		sraiw	a0,a0,1
 1274 06a4 97000000 		call	mem_alloc@plt
 1274      E7800000 
 1275              	.LVL127:
 236:src/Tests.cpp ****             if(addrs[i] == 0)
GAS LISTING /tmp/ccuOlLSQ.s 			page 36


 1276              		.loc 2 236 22
 1277 06ac 93973400 		slli	a5,s1,3
 1278 06b0 130704FE 		addi	a4,s0,-32
 1279 06b4 B307F700 		add	a5,a4,a5
 1280 06b8 23B0A7CE 		sd	a0,-800(a5)
 237:src/Tests.cpp ****             {
 1281              		.loc 2 237 13 is_stmt 1
 1282 06bc 63000502 		beqz	a0,.L97
 1283              	.LBE41:
 228:src/Tests.cpp ****         {
 1284              		.loc 2 228 9 discriminator 2
 228:src/Tests.cpp ****         {
 1285              		.loc 2 228 34 is_stmt 0 discriminator 2
 1286 06c0 9B842400 		addiw	s1,s1,2
 1287              	.LVL128:
 228:src/Tests.cpp ****         {
 1288              		.loc 2 228 9 discriminator 2
 1289 06c4 6FF01FFB 		j	.L88
 1290              	.LVL129:
 1291              	.L96:
 1292              	.LBB42:
 233:src/Tests.cpp ****                 return;
 1293              		.loc 2 233 17 is_stmt 1
 233:src/Tests.cpp ****                 return;
 1294              		.loc 2 233 28 is_stmt 0
 1295 06c8 17050000 		lla	a0,.LC7
 1295      13050500 
 1296              	.LVL130:
 1297 06d0 97000000 		call	_Z11printStringPKc@plt
 1297      E7800000 
 1298              	.LVL131:
 234:src/Tests.cpp ****             }
 1299              		.loc 2 234 17 is_stmt 1
 1300 06d8 6FF09FF7 		j	.L79
 1301              	.L97:
 239:src/Tests.cpp ****                 return;
 1302              		.loc 2 239 17
 239:src/Tests.cpp ****                 return;
 1303              		.loc 2 239 28 is_stmt 0
 1304 06dc 17050000 		lla	a0,.LC13
 1304      13050500 
 1305 06e4 97000000 		call	_Z11printStringPKc@plt
 1305      E7800000 
 1306              	.LVL132:
 240:src/Tests.cpp ****             }
 1307              		.loc 2 240 17 is_stmt 1
 1308 06ec 6FF05FF6 		j	.L79
 1309              	.L94:
 1310              	.LBE42:
 1311              	.LBE40:
 1312              	.LBB43:
 245:src/Tests.cpp ****         {
 1313              		.loc 2 245 17 is_stmt 0
 1314 06f0 93041000 		li	s1,1
 1315              	.LVL133:
 1316              	.L85:
 245:src/Tests.cpp ****         {
GAS LISTING /tmp/ccuOlLSQ.s 			page 37


 1317              		.loc 2 245 27 is_stmt 1 discriminator 1
 1318 06f4 93073006 		li	a5,99
 1319 06f8 63C89706 		bgt	s1,a5,.L89
 1320              	.LBB44:
 247:src/Tests.cpp ****             if(retval != 0)
 1321              		.loc 2 247 13
 247:src/Tests.cpp ****             if(retval != 0)
 1322              		.loc 2 247 34 is_stmt 0
 1323 06fc 93973400 		slli	a5,s1,3
 1324 0700 130704FE 		addi	a4,s0,-32
 1325 0704 B307F700 		add	a5,a4,a5
 1326 0708 03B507CE 		ld	a0,-800(a5)
 1327 070c 97000000 		call	mem_free@plt
 1327      E7800000 
 1328              	.LVL134:
 248:src/Tests.cpp ****             {
 1329              		.loc 2 248 13 is_stmt 1
 1330 0714 63160502 		bnez	a0,.L98
 253:src/Tests.cpp ****             if(addrs[i] == 0)
 1331              		.loc 2 253 13
 253:src/Tests.cpp ****             if(addrs[i] == 0)
 1332              		.loc 2 253 33 is_stmt 0
 1333 0718 13050900 		mv	a0,s2
 1334              	.LVL135:
 1335 071c 97000000 		call	mem_alloc@plt
 1335      E7800000 
 1336              	.LVL136:
 253:src/Tests.cpp ****             if(addrs[i] == 0)
 1337              		.loc 2 253 22
 1338 0724 93973400 		slli	a5,s1,3
 1339 0728 130704FE 		addi	a4,s0,-32
 1340 072c B307F700 		add	a5,a4,a5
 1341 0730 23B0A7CE 		sd	a0,-800(a5)
 254:src/Tests.cpp ****             {
 1342              		.loc 2 254 13 is_stmt 1
 1343 0734 63000502 		beqz	a0,.L99
 1344              	.LBE44:
 245:src/Tests.cpp ****         {
 1345              		.loc 2 245 9 discriminator 2
 245:src/Tests.cpp ****         {
 1346              		.loc 2 245 34 is_stmt 0 discriminator 2
 1347 0738 9B842400 		addiw	s1,s1,2
 1348              	.LVL137:
 245:src/Tests.cpp ****         {
 1349              		.loc 2 245 9 discriminator 2
 1350 073c 6FF09FFB 		j	.L85
 1351              	.LVL138:
 1352              	.L98:
 1353              	.LBB45:
 250:src/Tests.cpp ****                 return;
 1354              		.loc 2 250 17 is_stmt 1
 250:src/Tests.cpp ****                 return;
 1355              		.loc 2 250 28 is_stmt 0
 1356 0740 17050000 		lla	a0,.LC7
 1356      13050500 
 1357              	.LVL139:
 1358 0748 97000000 		call	_Z11printStringPKc@plt
GAS LISTING /tmp/ccuOlLSQ.s 			page 38


 1358      E7800000 
 1359              	.LVL140:
 251:src/Tests.cpp ****             }
 1360              		.loc 2 251 17 is_stmt 1
 1361 0750 6FF01FF0 		j	.L79
 1362              	.L99:
 256:src/Tests.cpp ****                 return;
 1363              		.loc 2 256 17
 256:src/Tests.cpp ****                 return;
 1364              		.loc 2 256 28 is_stmt 0
 1365 0754 17050000 		lla	a0,.LC13
 1365      13050500 
 1366 075c 97000000 		call	_Z11printStringPKc@plt
 1366      E7800000 
 1367              	.LVL141:
 257:src/Tests.cpp ****             }
 1368              		.loc 2 257 17 is_stmt 1
 1369 0764 6FF0DFEE 		j	.L79
 1370              	.L89:
 1371              	.LBE45:
 1372              	.LBE43:
 261:src/Tests.cpp ****     }
 1373              		.loc 2 261 9
 261:src/Tests.cpp ****     }
 1374              		.loc 2 261 11 is_stmt 0
 1375 0768 1B0969FF 		addiw	s2,s2,-10
 1376              	.LVL142:
 1377              	.LBE39:
 226:src/Tests.cpp ****     {
 1378              		.loc 2 226 5
 1379 076c 6FF01FF0 		j	.L80
 1380              	.LVL143:
 1381              	.L84:
 264:src/Tests.cpp **** }
 1382              		.loc 2 264 5 is_stmt 1
 264:src/Tests.cpp **** }
 1383              		.loc 2 264 16 is_stmt 0
 1384 0770 17050000 		lla	a0,.LC8
 1384      13050500 
 1385 0778 97000000 		call	_Z11printStringPKc@plt
 1385      E7800000 
 1386              	.LVL144:
 1387 0780 6FF01FED 		j	.L79
 1388              		.cfi_endproc
 1389              	.LFE39:
 1391              		.align	2
 1392              		.globl	_Z14semaphoreTestsv
 1394              	_Z14semaphoreTestsv:
 1395              	.LFB41:
 280:src/Tests.cpp ****     semTest1();
 1396              		.loc 2 280 1 is_stmt 1
 1397              		.cfi_startproc
 1398 0784 130101FF 		addi	sp,sp,-16
 1399              		.cfi_def_cfa_offset 16
 1400 0788 23348100 		sd	s0,8(sp)
 1401              		.cfi_offset 8, -8
 1402 078c 13040101 		addi	s0,sp,16
GAS LISTING /tmp/ccuOlLSQ.s 			page 39


 1403              		.cfi_def_cfa 8, 0
 281:src/Tests.cpp **** }
 1404              		.loc 2 281 5
 282:src/Tests.cpp **** 
 1405              		.loc 2 282 1 is_stmt 0
 1406 0790 03348100 		ld	s0,8(sp)
 1407              		.cfi_restore 8
 1408              		.cfi_def_cfa 2, 16
 1409 0794 13010101 		addi	sp,sp,16
 1410              		.cfi_def_cfa_offset 0
 1411 0798 67800000 		jr	ra
 1412              		.cfi_endproc
 1413              	.LFE41:
 1415              		.align	2
 1416              		.globl	_ZN12TestPeriodicC2Em
 1418              	_ZN12TestPeriodicC2Em:
 1419              	.LFB48:
 293:src/Tests.cpp **** 
 1420              		.loc 2 293 1 is_stmt 1
 1421              		.cfi_startproc
 1422              	.LVL145:
 1423 079c 130101FE 		addi	sp,sp,-32
 1424              		.cfi_def_cfa_offset 32
 1425 07a0 233C1100 		sd	ra,24(sp)
 1426 07a4 23388100 		sd	s0,16(sp)
 1427 07a8 23349100 		sd	s1,8(sp)
 1428              		.cfi_offset 1, -8
 1429              		.cfi_offset 8, -16
 1430              		.cfi_offset 9, -24
 1431 07ac 13040102 		addi	s0,sp,32
 1432              		.cfi_def_cfa 8, 0
 1433 07b0 93040500 		mv	s1,a0
 1434              	.LBB46:
 293:src/Tests.cpp **** 
 1435              		.loc 2 293 62 is_stmt 0
 1436 07b4 97000000 		call	_ZN14PeriodicThreadC2Em@plt
 1436      E7800000 
 1437              	.LVL146:
 1438 07bc 97070000 		lla	a5,_ZTV12TestPeriodic+16
 1438      93870700 
 1439 07c4 23B0F400 		sd	a5,0(s1)
 1440              	.LBE46:
 295:src/Tests.cpp **** 
 1441              		.loc 2 295 1
 1442 07c8 83308101 		ld	ra,24(sp)
 1443              		.cfi_restore 1
 1444 07cc 03340101 		ld	s0,16(sp)
 1445              		.cfi_restore 8
 1446              		.cfi_def_cfa 2, 32
 1447 07d0 83348100 		ld	s1,8(sp)
 1448              		.cfi_restore 9
 1449              	.LVL147:
 1450 07d4 13010102 		addi	sp,sp,32
 1451              		.cfi_def_cfa_offset 0
 1452 07d8 67800000 		jr	ra
 1453              		.cfi_endproc
 1454              	.LFE48:
GAS LISTING /tmp/ccuOlLSQ.s 			page 40


 1456              		.globl	_ZN12TestPeriodicC1Em
 1457              		.set	_ZN12TestPeriodicC1Em,_ZN12TestPeriodicC2Em
 1458              		.align	2
 1459              		.globl	_Z11threadTest3v
 1461              	_Z11threadTest3v:
 1462              	.LFB33:
  99:src/Tests.cpp ****     Thread* t = new TestPeriodic(50);
 1463              		.loc 2 99 1 is_stmt 1
 1464              		.cfi_startproc
 1465              		.cfi_personality 0x9b,DW.ref.__gxx_personality_v0
 1466              		.cfi_lsda 0x1b,.LLSDA33
 1467 07dc 130101FE 		addi	sp,sp,-32
 1468              		.cfi_def_cfa_offset 32
 1469 07e0 233C1100 		sd	ra,24(sp)
 1470 07e4 23388100 		sd	s0,16(sp)
 1471 07e8 23349100 		sd	s1,8(sp)
 1472 07ec 23302101 		sd	s2,0(sp)
 1473              		.cfi_offset 1, -8
 1474              		.cfi_offset 8, -16
 1475              		.cfi_offset 9, -24
 1476              		.cfi_offset 18, -32
 1477 07f0 13040102 		addi	s0,sp,32
 1478              		.cfi_def_cfa 8, 0
 100:src/Tests.cpp ****     t->start();
 1479              		.loc 2 100 5
 100:src/Tests.cpp ****     t->start();
 1480              		.loc 2 100 36 is_stmt 0
 1481 07f4 13050001 		li	a0,16
 1482              	.LEHB0:
 1483 07f8 97000000 		call	_Znwm@plt
 1483      E7800000 
 1484              	.LVL148:
 1485              	.LEHE0:
 1486 0800 13090500 		mv	s2,a0
 1487 0804 93052003 		li	a1,50
 1488              	.LEHB1:
 1489 0808 97000000 		call	_ZN12TestPeriodicC1Em
 1489      E7800000 
 1490              	.LVL149:
 1491              	.LEHE1:
 101:src/Tests.cpp ****     while(true)
 1492              		.loc 2 101 5 is_stmt 1 discriminator 2
 101:src/Tests.cpp ****     while(true)
 1493              		.loc 2 101 13 is_stmt 0 discriminator 2
 1494 0810 13050900 		mv	a0,s2
 1495              	.LEHB2:
 1496 0814 97000000 		call	_ZN6Thread5startEv@plt
 1496      E7800000 
 1497              	.LVL150:
 1498              	.LEHE2:
 1499              	.L105:
 102:src/Tests.cpp ****     {
 1500              		.loc 2 102 5 is_stmt 1 discriminator 1
 102:src/Tests.cpp ****     {
 1501              		.loc 2 102 5 discriminator 1
 1502 081c 6F000000 		j	.L105
 1503              	.LVL151:
GAS LISTING /tmp/ccuOlLSQ.s 			page 41


 1504              	.L107:
 1505 0820 93040500 		mv	s1,a0
 100:src/Tests.cpp ****     t->start();
 1506              		.loc 2 100 36 is_stmt 0
 1507 0824 13050900 		mv	a0,s2
 1508 0828 97000000 		call	_ZdlPv@plt
 1508      E7800000 
 1509              	.LVL152:
 1510 0830 13850400 		mv	a0,s1
 1511              	.LEHB3:
 1512 0834 97000000 		call	_Unwind_Resume@plt
 1512      E7800000 
 1513              	.LVL153:
 1514              	.LEHE3:
 1515              		.cfi_endproc
 1516              	.LFE33:
 1517              		.globl	__gxx_personality_v0
 1518              		.section	.gcc_except_table,"a",@progbits
 1519              	.LLSDA33:
 1520 0000 FF       		.byte	0xff
 1521 0001 FF       		.byte	0xff
 1522 0002 03       		.byte	0x3
 1523 0003 34       		.byte	0x34
 1524 0004 00000000 		.4byte	.LEHB0-.LFB33
 1525 0008 00000000 		.4byte	.LEHE0-.LEHB0
 1526 000c 00000000 		.4byte	0
 1527 0010 00       		.byte	0
 1528 0011 00000000 		.4byte	.LEHB1-.LFB33
 1529 0015 00000000 		.4byte	.LEHE1-.LEHB1
 1530 0019 00000000 		.4byte	.L107-.LFB33
 1531 001d 00       		.byte	0
 1532 001e 00000000 		.4byte	.LEHB2-.LFB33
 1533 0022 00000000 		.4byte	.LEHE2-.LEHB2
 1534 0026 00000000 		.4byte	0
 1535 002a 00       		.byte	0
 1536 002b 00000000 		.4byte	.LEHB3-.LFB33
 1537 002f 00000000 		.4byte	.LEHE3-.LEHB3
 1538 0033 00000000 		.4byte	0
 1539 0037 00       		.byte	0
 1540              		.text
 1542              		.align	2
 1543              		.globl	_Z11threadTestsv
 1545              	_Z11threadTestsv:
 1546              	.LFB34:
 109:src/Tests.cpp ****     //threadTest1();
 1547              		.loc 2 109 1 is_stmt 1
 1548              		.cfi_startproc
 1549 083c 130101FF 		addi	sp,sp,-16
 1550              		.cfi_def_cfa_offset 16
 1551 0840 23341100 		sd	ra,8(sp)
 1552 0844 23308100 		sd	s0,0(sp)
 1553              		.cfi_offset 1, -8
 1554              		.cfi_offset 8, -16
 1555 0848 13040101 		addi	s0,sp,16
 1556              		.cfi_def_cfa 8, 0
 112:src/Tests.cpp **** }
 1557              		.loc 2 112 5
GAS LISTING /tmp/ccuOlLSQ.s 			page 42


 112:src/Tests.cpp **** }
 1558              		.loc 2 112 16 is_stmt 0
 1559 084c 97000000 		call	_Z11threadTest3v
 1559      E7800000 
 1560              	.LVL154:
 1561              		.cfi_endproc
 1562              	.LFE34:
 1564              		.section	.rodata.str1.8
 1565              		.align	3
 1566              	.LC14:
 1567 00c0 54657374 		.string	"Testing a few mallocs and frees\n\n"
 1567      696E6720 
 1567      61206665 
 1567      77206D61 
 1567      6C6C6F63 
 1568 00e2 00000000 		.align	3
 1568      0000
 1569              	.LC15:
 1570 00e8 53554343 		.string	"SUCCESSFUL: Testing a few mallocs and frees\n\n"
 1570      45535346 
 1570      554C3A20 
 1570      54657374 
 1570      696E6720 
 1571              		.text
 1572              		.align	2
 1573              		.globl	_Z10mallocTestv
 1575              	_Z10mallocTestv:
 1576              	.LFB51:
 305:src/Tests.cpp **** 
 306:src/Tests.cpp **** void mallocTest()
 307:src/Tests.cpp **** {
 1577              		.loc 2 307 1 is_stmt 1
 1578              		.cfi_startproc
 1579 0854 130101FC 		addi	sp,sp,-64
 1580              		.cfi_def_cfa_offset 64
 1581 0858 233C1102 		sd	ra,56(sp)
 1582 085c 23388102 		sd	s0,48(sp)
 1583 0860 23349102 		sd	s1,40(sp)
 1584 0864 23302103 		sd	s2,32(sp)
 1585 0868 233C3101 		sd	s3,24(sp)
 1586 086c 23384101 		sd	s4,16(sp)
 1587 0870 23345101 		sd	s5,8(sp)
 1588 0874 23306101 		sd	s6,0(sp)
 1589              		.cfi_offset 1, -8
 1590              		.cfi_offset 8, -16
 1591              		.cfi_offset 9, -24
 1592              		.cfi_offset 18, -32
 1593              		.cfi_offset 19, -40
 1594              		.cfi_offset 20, -48
 1595              		.cfi_offset 21, -56
 1596              		.cfi_offset 22, -64
 1597 0878 13040104 		addi	s0,sp,64
 1598              		.cfi_def_cfa 8, 0
 308:src/Tests.cpp ****     printString("Testing a few mallocs and frees\n\n");
 1599              		.loc 2 308 5
 1600              		.loc 2 308 16 is_stmt 0
 1601 087c 17050000 		lla	a0,.LC14
GAS LISTING /tmp/ccuOlLSQ.s 			page 43


 1601      13050500 
 1602 0884 97000000 		call	_Z11printStringPKc@plt
 1602      E7800000 
 1603              	.LVL155:
 309:src/Tests.cpp **** 
 310:src/Tests.cpp ****     object* o = new object;
 1604              		.loc 2 310 5 is_stmt 1
 1605              		.loc 2 310 21 is_stmt 0
 1606 088c 1305C002 		li	a0,44
 1607 0890 97000000 		call	_Znwm@plt
 1607      E7800000 
 1608              	.LVL156:
 1609 0898 93040500 		mv	s1,a0
 1610              	.LVL157:
 311:src/Tests.cpp ****     o->a = 3;
 1611              		.loc 2 311 5 is_stmt 1
 1612              		.loc 2 311 10 is_stmt 0
 1613 089c 93073000 		li	a5,3
 1614 08a0 2320F500 		sw	a5,0(a0)
 312:src/Tests.cpp ****     void* m1 = mem_alloc(10);
 1615              		.loc 2 312 5 is_stmt 1
 1616              		.loc 2 312 25 is_stmt 0
 1617 08a4 1305A000 		li	a0,10
 1618 08a8 97000000 		call	mem_alloc@plt
 1618      E7800000 
 1619              	.LVL158:
 1620 08b0 13090500 		mv	s2,a0
 1621              	.LVL159:
 313:src/Tests.cpp ****     void* m2 = mem_alloc(100);
 1622              		.loc 2 313 5 is_stmt 1
 1623              		.loc 2 313 25 is_stmt 0
 1624 08b4 13054006 		li	a0,100
 1625              	.LVL160:
 1626 08b8 97000000 		call	mem_alloc@plt
 1626      E7800000 
 1627              	.LVL161:
 1628 08c0 93090500 		mv	s3,a0
 1629              	.LVL162:
 314:src/Tests.cpp ****     void* m3 = mem_alloc(1000);
 1630              		.loc 2 314 5 is_stmt 1
 1631              		.loc 2 314 25 is_stmt 0
 1632 08c4 1305803E 		li	a0,1000
 1633              	.LVL163:
 1634 08c8 97000000 		call	mem_alloc@plt
 1634      E7800000 
 1635              	.LVL164:
 1636 08d0 130A0500 		mv	s4,a0
 1637              	.LVL165:
 315:src/Tests.cpp ****     void* m4 = mem_alloc(10000);
 1638              		.loc 2 315 5 is_stmt 1
 1639              		.loc 2 315 25 is_stmt 0
 1640 08d4 37250000 		li	a0,8192
 1641              	.LVL166:
 1642 08d8 13050571 		addi	a0,a0,1808
 1643 08dc 97000000 		call	mem_alloc@plt
 1643      E7800000 
 1644              	.LVL167:
GAS LISTING /tmp/ccuOlLSQ.s 			page 44


 1645 08e4 930A0500 		mv	s5,a0
 1646              	.LVL168:
 316:src/Tests.cpp ****     void* m5 = mem_alloc(1);
 1647              		.loc 2 316 5 is_stmt 1
 1648              		.loc 2 316 25 is_stmt 0
 1649 08e8 13051000 		li	a0,1
 1650              	.LVL169:
 1651 08ec 97000000 		call	mem_alloc@plt
 1651      E7800000 
 1652              	.LVL170:
 317:src/Tests.cpp **** 
 318:src/Tests.cpp ****     if(!m1 || !m2 || !m3 || !m4 || !m5){
 1653              		.loc 2 318 5 is_stmt 1
 1654 08f4 630C0906 		beqz	s2,.L112
 1655 08f8 130B0500 		mv	s6,a0
 1656              		.loc 2 318 12 is_stmt 0 discriminator 1
 1657 08fc 63880906 		beqz	s3,.L112
 1658              		.loc 2 318 19 discriminator 2
 1659 0900 63060A06 		beqz	s4,.L112
 1660              		.loc 2 318 26 discriminator 3
 1661 0904 63840A06 		beqz	s5,.L112
 1662              		.loc 2 318 33 discriminator 4
 1663 0908 63020506 		beqz	a0,.L112
 319:src/Tests.cpp ****         printString("not OK\n");
 320:src/Tests.cpp ****         return;
 321:src/Tests.cpp ****     }
 322:src/Tests.cpp **** 
 323:src/Tests.cpp ****     delete (uint64*)m1;
 1664              		.loc 2 323 5 is_stmt 1 discriminator 1
 1665              		.loc 2 323 21 is_stmt 0 discriminator 1
 1666 090c 13050900 		mv	a0,s2
 1667              	.LVL171:
 1668 0910 97000000 		call	_ZdlPv@plt
 1668      E7800000 
 1669              	.LVL172:
 324:src/Tests.cpp ****     delete (uint64*)m3;
 1670              		.loc 2 324 5 is_stmt 1 discriminator 1
 1671              		.loc 2 324 21 is_stmt 0 discriminator 1
 1672 0918 13050A00 		mv	a0,s4
 1673 091c 97000000 		call	_ZdlPv@plt
 1673      E7800000 
 1674              	.LVL173:
 325:src/Tests.cpp ****     delete (uint64*)m4;
 1675              		.loc 2 325 5 is_stmt 1 discriminator 1
 1676              		.loc 2 325 21 is_stmt 0 discriminator 1
 1677 0924 13850A00 		mv	a0,s5
 1678 0928 97000000 		call	_ZdlPv@plt
 1678      E7800000 
 1679              	.LVL174:
 326:src/Tests.cpp ****     delete (uint64*)m2;
 1680              		.loc 2 326 5 is_stmt 1 discriminator 1
 1681              		.loc 2 326 21 is_stmt 0 discriminator 1
 1682 0930 13850900 		mv	a0,s3
 1683 0934 97000000 		call	_ZdlPv@plt
 1683      E7800000 
 1684              	.LVL175:
 327:src/Tests.cpp ****     delete (uint64*)m5;
GAS LISTING /tmp/ccuOlLSQ.s 			page 45


 1685              		.loc 2 327 5 is_stmt 1 discriminator 1
 1686              		.loc 2 327 21 is_stmt 0 discriminator 1
 1687 093c 13050B00 		mv	a0,s6
 1688 0940 97000000 		call	_ZdlPv@plt
 1688      E7800000 
 1689              	.LVL176:
 328:src/Tests.cpp ****     delete o;
 1690              		.loc 2 328 5 is_stmt 1 discriminator 1
 1691              		.loc 2 328 13 is_stmt 0 discriminator 1
 1692 0948 63880400 		beqz	s1,.L115
 1693              		.loc 2 328 12 discriminator 1
 1694 094c 13850400 		mv	a0,s1
 1695 0950 97000000 		call	_ZdlPv@plt
 1695      E7800000 
 1696              	.LVL177:
 1697              	.L115:
 329:src/Tests.cpp **** 
 330:src/Tests.cpp ****     printString("SUCCESSFUL: Testing a few mallocs and frees\n\n");
 1698              		.loc 2 330 5 is_stmt 1
 1699              		.loc 2 330 16 is_stmt 0
 1700 0958 17050000 		lla	a0,.LC15
 1700      13050500 
 1701 0960 97000000 		call	_Z11printStringPKc@plt
 1701      E7800000 
 1702              	.LVL178:
 1703 0968 6F004001 		j	.L111
 1704              	.LVL179:
 1705              	.L112:
 319:src/Tests.cpp ****         return;
 1706              		.loc 2 319 9 is_stmt 1
 319:src/Tests.cpp ****         return;
 1707              		.loc 2 319 20 is_stmt 0
 1708 096c 17050000 		lla	a0,.LC7
 1708      13050500 
 1709              	.LVL180:
 1710 0974 97000000 		call	_Z11printStringPKc@plt
 1710      E7800000 
 1711              	.LVL181:
 320:src/Tests.cpp ****     }
 1712              		.loc 2 320 9 is_stmt 1
 1713              	.L111:
 331:src/Tests.cpp **** }
 1714              		.loc 2 331 1 is_stmt 0
 1715 097c 83308103 		ld	ra,56(sp)
 1716              		.cfi_restore 1
 1717 0980 03340103 		ld	s0,48(sp)
 1718              		.cfi_restore 8
 1719              		.cfi_def_cfa 2, 64
 1720 0984 83348102 		ld	s1,40(sp)
 1721              		.cfi_restore 9
 1722              	.LVL182:
 1723 0988 03390102 		ld	s2,32(sp)
 1724              		.cfi_restore 18
 1725              	.LVL183:
 1726 098c 83398101 		ld	s3,24(sp)
 1727              		.cfi_restore 19
 1728              	.LVL184:
GAS LISTING /tmp/ccuOlLSQ.s 			page 46


 1729 0990 033A0101 		ld	s4,16(sp)
 1730              		.cfi_restore 20
 1731              	.LVL185:
 1732 0994 833A8100 		ld	s5,8(sp)
 1733              		.cfi_restore 21
 1734              	.LVL186:
 1735 0998 033B0100 		ld	s6,0(sp)
 1736              		.cfi_restore 22
 1737 099c 13010104 		addi	sp,sp,64
 1738              		.cfi_def_cfa_offset 0
 1739 09a0 67800000 		jr	ra
 1740              		.cfi_endproc
 1741              	.LFE51:
 1743              		.align	2
 1744              		.globl	_Z16mallocEverythingv
 1746              	_Z16mallocEverythingv:
 1747              	.LFB52:
 332:src/Tests.cpp **** 
 333:src/Tests.cpp **** void mallocEverything()
 334:src/Tests.cpp **** {
 1748              		.loc 2 334 1 is_stmt 1
 1749              		.cfi_startproc
 1750 09a4 130101FF 		addi	sp,sp,-16
 1751              		.cfi_def_cfa_offset 16
 1752 09a8 23348100 		sd	s0,8(sp)
 1753              		.cfi_offset 8, -8
 1754 09ac 13040101 		addi	s0,sp,16
 1755              		.cfi_def_cfa 8, 0
 335:src/Tests.cpp ****     /*printString("Testing allocating whole address space\n\n");
 336:src/Tests.cpp **** 
 337:src/Tests.cpp ****     uint64 neg_size = (uint64)HEAP_START_ADDR - (uint64)HEAP_END_ADDR -sizeof(MemoryAllocator::Bloc
 338:src/Tests.cpp **** 
 339:src/Tests.cpp ****     void* m = mem_alloc(neg_size);
 340:src/Tests.cpp **** 
 341:src/Tests.cpp ****     if(m!=nullptr){
 342:src/Tests.cpp ****         printString("not OK\n");
 343:src/Tests.cpp ****         return;
 344:src/Tests.cpp ****     }
 345:src/Tests.cpp **** 
 346:src/Tests.cpp ****     uint64 blockSize = (((uint64)HEAP_END_ADDR - (uint64)HEAP_START_ADDR - sizeof(MemoryAllocator::
 347:src/Tests.cpp **** 
 348:src/Tests.cpp ****     m = mem_alloc(blockSize<<6);
 349:src/Tests.cpp **** 
 350:src/Tests.cpp ****     if(m==nullptr){
 351:src/Tests.cpp ****         printString("not OK\n");
 352:src/Tests.cpp ****         return;
 353:src/Tests.cpp ****     }
 354:src/Tests.cpp **** 
 355:src/Tests.cpp **** //    there should be some space left still, depending on source file size and output buffer size
 356:src/Tests.cpp **** //    excess allocation should fail and small_chunk should succeed
 357:src/Tests.cpp **** 
 358:src/Tests.cpp **** //    void *excess = mem_alloc(100);
 359:src/Tests.cpp **** //
 360:src/Tests.cpp **** //    if(excess!=nullptr){
 361:src/Tests.cpp **** //        Riscv::printString("not OK\n");
 362:src/Tests.cpp **** //        return;
 363:src/Tests.cpp **** //    }
GAS LISTING /tmp/ccuOlLSQ.s 			page 47


 364:src/Tests.cpp **** //
 365:src/Tests.cpp ****     void *small_chunk = mem_alloc(1);
 366:src/Tests.cpp **** 
 367:src/Tests.cpp ****     if(small_chunk == nullptr){
 368:src/Tests.cpp ****         printString("not OK\n");
 369:src/Tests.cpp ****         return;
 370:src/Tests.cpp ****     }
 371:src/Tests.cpp **** 
 372:src/Tests.cpp ****     delete (uint64*)m;
 373:src/Tests.cpp ****     //delete (uint64*)small_chunk;
 374:src/Tests.cpp **** 
 375:src/Tests.cpp ****     printString("SUCCESSFUL: Testing allocating whole address space\n\n");*/
 376:src/Tests.cpp **** }
 1756              		.loc 2 376 1 is_stmt 0
 1757 09b0 03348100 		ld	s0,8(sp)
 1758              		.cfi_restore 8
 1759              		.cfi_def_cfa 2, 16
 1760 09b4 13010101 		addi	sp,sp,16
 1761              		.cfi_def_cfa_offset 0
 1762 09b8 67800000 		jr	ra
 1763              		.cfi_endproc
 1764              	.LFE52:
 1766              		.section	.rodata.str1.8
 1767 0116 0000     		.align	3
 1768              	.LC16:
 1769 0118 54657374 		.string	"Testing gap filling and chunk merge after multiple mallocs and frees\n\n"
 1769      696E6720 
 1769      67617020 
 1769      66696C6C 
 1769      696E6720 
 1770 015f 00       		.align	3
 1771              	.LC17:
 1772 0160 53554343 		.string	"SUCCESSFUL: Testing gap filling and chunk merge after multiple mallocs and frees\n\n"
 1772      45535346 
 1772      554C3A20 
 1772      54657374 
 1772      696E6720 
 1773              		.text
 1774              		.align	2
 1775              		.globl	_Z17mallocGapFillTestv
 1777              	_Z17mallocGapFillTestv:
 1778              	.LFB53:
 377:src/Tests.cpp **** 
 378:src/Tests.cpp **** void mallocGapFillTest()
 379:src/Tests.cpp **** {
 1779              		.loc 2 379 1 is_stmt 1
 1780              		.cfi_startproc
 1781 09bc 130101F6 		addi	sp,sp,-160
 1782              		.cfi_def_cfa_offset 160
 1783 09c0 233C1108 		sd	ra,152(sp)
 1784 09c4 23388108 		sd	s0,144(sp)
 1785 09c8 23349108 		sd	s1,136(sp)
 1786 09cc 23302109 		sd	s2,128(sp)
 1787 09d0 233C3107 		sd	s3,120(sp)
 1788 09d4 23384107 		sd	s4,112(sp)
 1789 09d8 23345107 		sd	s5,104(sp)
 1790 09dc 23306107 		sd	s6,96(sp)
GAS LISTING /tmp/ccuOlLSQ.s 			page 48


 1791 09e0 233C7105 		sd	s7,88(sp)
 1792 09e4 23388105 		sd	s8,80(sp)
 1793              		.cfi_offset 1, -8
 1794              		.cfi_offset 8, -16
 1795              		.cfi_offset 9, -24
 1796              		.cfi_offset 18, -32
 1797              		.cfi_offset 19, -40
 1798              		.cfi_offset 20, -48
 1799              		.cfi_offset 21, -56
 1800              		.cfi_offset 22, -64
 1801              		.cfi_offset 23, -72
 1802              		.cfi_offset 24, -80
 1803 09e8 1304010A 		addi	s0,sp,160
 1804              		.cfi_def_cfa 8, 0
 380:src/Tests.cpp ****     printString("Testing gap filling and chunk merge after multiple mallocs and frees\n\n");
 1805              		.loc 2 380 5
 1806              		.loc 2 380 16 is_stmt 0
 1807 09ec 17050000 		lla	a0,.LC16
 1807      13050500 
 1808 09f4 97000000 		call	_Z11printStringPKc@plt
 1808      E7800000 
 1809              	.LVL187:
 1810              	.LBB47:
 381:src/Tests.cpp **** 
 382:src/Tests.cpp ****     const int N = 10;
 383:src/Tests.cpp **** 
 384:src/Tests.cpp ****     void *m[N];
 385:src/Tests.cpp **** 
 386:src/Tests.cpp ****     for(int i=0;i<N;i++)
 1811              		.loc 2 386 13
 1812 09fc 93040000 		li	s1,0
 1813              	.L123:
 1814              	.LVL188:
 1815              		.loc 2 386 18 is_stmt 1 discriminator 1
 1816 0a00 93079000 		li	a5,9
 1817 0a04 63C89706 		bgt	s1,a5,.L120
 387:src/Tests.cpp ****     {
 388:src/Tests.cpp ****         m[i] = mem_alloc((i<<6)+1);
 1818              		.loc 2 388 9
 1819              		.loc 2 388 28 is_stmt 0
 1820 0a08 1B956400 		slliw	a0,s1,6
 1821              		.loc 2 388 25
 1822 0a0c 1B051500 		addiw	a0,a0,1
 1823 0a10 97000000 		call	mem_alloc@plt
 1823      E7800000 
 1824              	.LVL189:
 1825              		.loc 2 388 14
 1826 0a18 93973400 		slli	a5,s1,3
 1827 0a1c 130704FB 		addi	a4,s0,-80
 1828 0a20 B307F700 		add	a5,a4,a5
 1829 0a24 23B8A7FA 		sd	a0,-80(a5)
 389:src/Tests.cpp ****         if(m[i] == nullptr){
 1830              		.loc 2 389 9 is_stmt 1
 1831 0a28 63060500 		beqz	a0,.L140
 386:src/Tests.cpp ****     {
 1832              		.loc 2 386 5 discriminator 2
 1833 0a2c 9B841400 		addiw	s1,s1,1
GAS LISTING /tmp/ccuOlLSQ.s 			page 49


 1834              	.LVL190:
 1835 0a30 6FF01FFD 		j	.L123
 1836              	.LVL191:
 1837              	.L140:
 390:src/Tests.cpp ****             printString("not OK\n");
 1838              		.loc 2 390 13
 1839              		.loc 2 390 24 is_stmt 0
 1840 0a34 17050000 		lla	a0,.LC7
 1840      13050500 
 1841 0a3c 97000000 		call	_Z11printStringPKc@plt
 1841      E7800000 
 1842              	.LVL192:
 391:src/Tests.cpp ****             return;
 1843              		.loc 2 391 13 is_stmt 1
 1844              	.L119:
 1845              	.LBE47:
 392:src/Tests.cpp ****         }
 393:src/Tests.cpp ****     }
 394:src/Tests.cpp **** 
 395:src/Tests.cpp ****     delete (uint64*)m[2];
 396:src/Tests.cpp **** 
 397:src/Tests.cpp ****     void* tmp1 = mem_alloc(1);
 398:src/Tests.cpp ****     void* tmp2 = mem_alloc(1);
 399:src/Tests.cpp ****     void* tmp3 = mem_alloc(1);
 400:src/Tests.cpp **** 
 401:src/Tests.cpp ****     if(!tmp1 || !tmp2 || !tmp3)
 402:src/Tests.cpp ****     {
 403:src/Tests.cpp ****         printString("not OK\n");
 404:src/Tests.cpp ****         return;
 405:src/Tests.cpp ****     }
 406:src/Tests.cpp **** 
 407:src/Tests.cpp ****     uint64 im1 = (uint64)m[1];
 408:src/Tests.cpp ****     uint64 im3 = (uint64)m[3];
 409:src/Tests.cpp ****     uint64 im5 = (uint64)m[5];
 410:src/Tests.cpp ****     uint64 imN = (uint64)m[N];
 411:src/Tests.cpp **** 
 412:src/Tests.cpp ****     uint64 itmp1 = (uint64)tmp1;
 413:src/Tests.cpp ****     uint64 itmp2 = (uint64)tmp2;
 414:src/Tests.cpp ****     uint64 itmp3 = (uint64)tmp3;
 415:src/Tests.cpp **** 
 416:src/Tests.cpp ****     if(!(im1<itmp1 && itmp1<im3 && im1<itmp2 && itmp2<im3 && itmp3>imN))
 417:src/Tests.cpp ****     {
 418:src/Tests.cpp ****         printString("not OK\n");
 419:src/Tests.cpp ****         return;
 420:src/Tests.cpp ****     }
 421:src/Tests.cpp **** 
 422:src/Tests.cpp ****     delete (uint64*)m[3];
 423:src/Tests.cpp ****     delete (uint64*)m[4];
 424:src/Tests.cpp **** 
 425:src/Tests.cpp ****     void* tmp4 = mem_alloc(640);
 426:src/Tests.cpp ****     void* tmp5 = mem_alloc(576);
 427:src/Tests.cpp **** 
 428:src/Tests.cpp ****     if(!tmp4 || !tmp5){
 429:src/Tests.cpp ****         printString("not OK\n");
 430:src/Tests.cpp ****         return;
 431:src/Tests.cpp ****     }
 432:src/Tests.cpp **** 
GAS LISTING /tmp/ccuOlLSQ.s 			page 50


 433:src/Tests.cpp ****     uint64 itmp4 = (uint64)tmp4;
 434:src/Tests.cpp ****     uint64 itmp5 = (uint64)tmp5;
 435:src/Tests.cpp **** 
 436:src/Tests.cpp ****     if(!(itmp5>itmp2 && itmp5>im5 && itmp4<itmp3)){
 437:src/Tests.cpp ****         printString("not OK\n");
 438:src/Tests.cpp ****         return;
 439:src/Tests.cpp ****     }
 440:src/Tests.cpp **** 
 441:src/Tests.cpp ****     for(int i=0;i<N;i++){
 442:src/Tests.cpp ****         delete (uint64*)m[i];
 443:src/Tests.cpp ****     }
 444:src/Tests.cpp **** 
 445:src/Tests.cpp ****     delete (uint64*)tmp1;
 446:src/Tests.cpp ****     delete (uint64*)tmp2;
 447:src/Tests.cpp ****     delete (uint64*)tmp3;
 448:src/Tests.cpp ****     delete (uint64*)tmp4;
 449:src/Tests.cpp ****     delete (uint64*)tmp5;
 450:src/Tests.cpp **** 
 451:src/Tests.cpp ****     printString("SUCCESSFUL: Testing gap filling and chunk merge after multiple mallocs and frees\n
 452:src/Tests.cpp **** }
 1846              		.loc 2 452 1 is_stmt 0
 1847 0a44 83308109 		ld	ra,152(sp)
 1848              		.cfi_remember_state
 1849              		.cfi_restore 1
 1850 0a48 03340109 		ld	s0,144(sp)
 1851              		.cfi_restore 8
 1852              		.cfi_def_cfa 2, 160
 1853 0a4c 83348108 		ld	s1,136(sp)
 1854              		.cfi_restore 9
 1855 0a50 03390108 		ld	s2,128(sp)
 1856              		.cfi_restore 18
 1857 0a54 83398107 		ld	s3,120(sp)
 1858              		.cfi_restore 19
 1859 0a58 033A0107 		ld	s4,112(sp)
 1860              		.cfi_restore 20
 1861 0a5c 833A8106 		ld	s5,104(sp)
 1862              		.cfi_restore 21
 1863 0a60 033B0106 		ld	s6,96(sp)
 1864              		.cfi_restore 22
 1865 0a64 833B8105 		ld	s7,88(sp)
 1866              		.cfi_restore 23
 1867 0a68 033C0105 		ld	s8,80(sp)
 1868              		.cfi_restore 24
 1869 0a6c 1301010A 		addi	sp,sp,160
 1870              		.cfi_def_cfa_offset 0
 1871 0a70 67800000 		jr	ra
 1872              	.LVL193:
 1873              	.L120:
 1874              		.cfi_restore_state
 395:src/Tests.cpp **** 
 1875              		.loc 2 395 5 is_stmt 1
 395:src/Tests.cpp **** 
 1876              		.loc 2 395 24 is_stmt 0
 1877 0a74 033504F7 		ld	a0,-144(s0)
 395:src/Tests.cpp **** 
 1878              		.loc 2 395 25
 1879 0a78 63060500 		beqz	a0,.L124
GAS LISTING /tmp/ccuOlLSQ.s 			page 51


 395:src/Tests.cpp **** 
 1880              		.loc 2 395 24 discriminator 1
 1881 0a7c 97000000 		call	_ZdlPv@plt
 1881      E7800000 
 1882              	.LVL194:
 1883              	.L124:
 397:src/Tests.cpp ****     void* tmp2 = mem_alloc(1);
 1884              		.loc 2 397 5 is_stmt 1
 397:src/Tests.cpp ****     void* tmp2 = mem_alloc(1);
 1885              		.loc 2 397 27 is_stmt 0
 1886 0a84 13051000 		li	a0,1
 1887 0a88 97000000 		call	mem_alloc@plt
 1887      E7800000 
 1888              	.LVL195:
 1889 0a90 93040500 		mv	s1,a0
 1890              	.LVL196:
 398:src/Tests.cpp ****     void* tmp3 = mem_alloc(1);
 1891              		.loc 2 398 5 is_stmt 1
 398:src/Tests.cpp ****     void* tmp3 = mem_alloc(1);
 1892              		.loc 2 398 27 is_stmt 0
 1893 0a94 13051000 		li	a0,1
 1894 0a98 97000000 		call	mem_alloc@plt
 1894      E7800000 
 1895              	.LVL197:
 1896 0aa0 13090500 		mv	s2,a0
 1897              	.LVL198:
 399:src/Tests.cpp **** 
 1898              		.loc 2 399 5 is_stmt 1
 399:src/Tests.cpp **** 
 1899              		.loc 2 399 27 is_stmt 0
 1900 0aa4 13051000 		li	a0,1
 1901              	.LVL199:
 1902 0aa8 97000000 		call	mem_alloc@plt
 1902      E7800000 
 1903              	.LVL200:
 1904 0ab0 93090500 		mv	s3,a0
 1905              	.LVL201:
 401:src/Tests.cpp ****     {
 1906              		.loc 2 401 5 is_stmt 1
 1907 0ab4 63880408 		beqz	s1,.L125
 401:src/Tests.cpp ****     {
 1908              		.loc 2 401 14 is_stmt 0 discriminator 1
 1909 0ab8 63060908 		beqz	s2,.L125
 401:src/Tests.cpp ****     {
 1910              		.loc 2 401 23 discriminator 2
 1911 0abc 63040508 		beqz	a0,.L125
 407:src/Tests.cpp ****     uint64 im3 = (uint64)m[3];
 1912              		.loc 2 407 5 is_stmt 1
 407:src/Tests.cpp ****     uint64 im3 = (uint64)m[3];
 1913              		.loc 2 407 29 is_stmt 0
 1914 0ac0 833784F6 		ld	a5,-152(s0)
 1915              	.LVL202:
 408:src/Tests.cpp ****     uint64 im5 = (uint64)m[5];
 1916              		.loc 2 408 5 is_stmt 1
 408:src/Tests.cpp ****     uint64 im5 = (uint64)m[5];
 1917              		.loc 2 408 29 is_stmt 0
 1918 0ac4 033584F7 		ld	a0,-136(s0)
GAS LISTING /tmp/ccuOlLSQ.s 			page 52


 1919              	.LVL203:
 409:src/Tests.cpp ****     uint64 imN = (uint64)m[N];
 1920              		.loc 2 409 5 is_stmt 1
 409:src/Tests.cpp ****     uint64 imN = (uint64)m[N];
 1921              		.loc 2 409 29 is_stmt 0
 1922 0ac8 033B84F8 		ld	s6,-120(s0)
 1923              	.LVL204:
 410:src/Tests.cpp **** 
 1924              		.loc 2 410 5 is_stmt 1
 410:src/Tests.cpp **** 
 1925              		.loc 2 410 29 is_stmt 0
 1926 0acc 033604FB 		ld	a2,-80(s0)
 1927              	.LVL205:
 412:src/Tests.cpp ****     uint64 itmp2 = (uint64)tmp2;
 1928              		.loc 2 412 5 is_stmt 1
 413:src/Tests.cpp ****     uint64 itmp3 = (uint64)tmp3;
 1929              		.loc 2 413 5
 413:src/Tests.cpp ****     uint64 itmp3 = (uint64)tmp3;
 1930              		.loc 2 413 12 is_stmt 0
 1931 0ad0 130A0900 		mv	s4,s2
 1932              	.LVL206:
 414:src/Tests.cpp **** 
 1933              		.loc 2 414 5 is_stmt 1
 414:src/Tests.cpp **** 
 1934              		.loc 2 414 12 is_stmt 0
 1935 0ad4 938A0900 		mv	s5,s3
 1936              	.LVL207:
 416:src/Tests.cpp ****     {
 1937              		.loc 2 416 5 is_stmt 1
 1938 0ad8 63F09708 		bgeu	a5,s1,.L127
 416:src/Tests.cpp ****     {
 1939              		.loc 2 416 20 is_stmt 0 discriminator 1
 1940 0adc 63FEA406 		bleu	a0,s1,.L127
 416:src/Tests.cpp ****     {
 1941              		.loc 2 416 33 discriminator 2
 1942 0ae0 63FC2707 		bgeu	a5,s2,.L127
 416:src/Tests.cpp ****     {
 1943              		.loc 2 416 46 discriminator 3
 1944 0ae4 637AA906 		bleu	a0,s2,.L127
 416:src/Tests.cpp ****     {
 1945              		.loc 2 416 8 discriminator 4
 1946 0ae8 63783607 		bgeu	a2,s3,.L127
 422:src/Tests.cpp ****     delete (uint64*)m[4];
 1947              		.loc 2 422 5 is_stmt 1
 422:src/Tests.cpp ****     delete (uint64*)m[4];
 1948              		.loc 2 422 25 is_stmt 0
 1949 0aec 63060500 		beqz	a0,.L129
 422:src/Tests.cpp ****     delete (uint64*)m[4];
 1950              		.loc 2 422 24 discriminator 1
 1951 0af0 97000000 		call	_ZdlPv@plt
 1951      E7800000 
 1952              	.LVL208:
 1953              	.L129:
 423:src/Tests.cpp **** 
 1954              		.loc 2 423 5 is_stmt 1
 423:src/Tests.cpp **** 
 1955              		.loc 2 423 24 is_stmt 0
GAS LISTING /tmp/ccuOlLSQ.s 			page 53


 1956 0af8 033504F8 		ld	a0,-128(s0)
 423:src/Tests.cpp **** 
 1957              		.loc 2 423 25
 1958 0afc 63060500 		beqz	a0,.L130
 423:src/Tests.cpp **** 
 1959              		.loc 2 423 24 discriminator 1
 1960 0b00 97000000 		call	_ZdlPv@plt
 1960      E7800000 
 1961              	.LVL209:
 1962              	.L130:
 425:src/Tests.cpp ****     void* tmp5 = mem_alloc(576);
 1963              		.loc 2 425 5 is_stmt 1
 425:src/Tests.cpp ****     void* tmp5 = mem_alloc(576);
 1964              		.loc 2 425 27 is_stmt 0
 1965 0b08 13050028 		li	a0,640
 1966 0b0c 97000000 		call	mem_alloc@plt
 1966      E7800000 
 1967              	.LVL210:
 1968 0b14 130C0500 		mv	s8,a0
 1969              	.LVL211:
 426:src/Tests.cpp **** 
 1970              		.loc 2 426 5 is_stmt 1
 426:src/Tests.cpp **** 
 1971              		.loc 2 426 27 is_stmt 0
 1972 0b18 13050024 		li	a0,576
 1973              	.LVL212:
 1974 0b1c 97000000 		call	mem_alloc@plt
 1974      E7800000 
 1975              	.LVL213:
 1976 0b24 930B0500 		mv	s7,a0
 1977              	.LVL214:
 428:src/Tests.cpp ****         printString("not OK\n");
 1978              		.loc 2 428 5 is_stmt 1
 1979 0b28 63020C04 		beqz	s8,.L131
 428:src/Tests.cpp ****         printString("not OK\n");
 1980              		.loc 2 428 14 is_stmt 0 discriminator 1
 1981 0b2c 63000504 		beqz	a0,.L131
 433:src/Tests.cpp ****     uint64 itmp5 = (uint64)tmp5;
 1982              		.loc 2 433 5 is_stmt 1
 1983              	.LVL215:
 434:src/Tests.cpp **** 
 1984              		.loc 2 434 5
 436:src/Tests.cpp ****         printString("not OK\n");
 1985              		.loc 2 436 5
 1986 0b30 6378AA04 		bgeu	s4,a0,.L133
 436:src/Tests.cpp ****         printString("not OK\n");
 1987              		.loc 2 436 22 is_stmt 0 discriminator 1
 1988 0b34 6376AB04 		bgeu	s6,a0,.L133
 436:src/Tests.cpp ****         printString("not OK\n");
 1989              		.loc 2 436 8 discriminator 2
 1990 0b38 63745C05 		bleu	s5,s8,.L133
 1991              	.LBB48:
 441:src/Tests.cpp ****         delete (uint64*)m[i];
 1992              		.loc 2 441 13
 1993 0b3c 130A0000 		li	s4,0
 1994 0b40 6F008005 		j	.L134
 1995              	.LVL216:
GAS LISTING /tmp/ccuOlLSQ.s 			page 54


 1996              	.L125:
 1997              	.LBE48:
 403:src/Tests.cpp ****         return;
 1998              		.loc 2 403 9 is_stmt 1
 403:src/Tests.cpp ****         return;
 1999              		.loc 2 403 20 is_stmt 0
 2000 0b44 17050000 		lla	a0,.LC7
 2000      13050500 
 2001              	.LVL217:
 2002 0b4c 97000000 		call	_Z11printStringPKc@plt
 2002      E7800000 
 2003              	.LVL218:
 404:src/Tests.cpp ****     }
 2004              		.loc 2 404 9 is_stmt 1
 2005 0b54 6FF01FEF 		j	.L119
 2006              	.LVL219:
 2007              	.L127:
 418:src/Tests.cpp ****         return;
 2008              		.loc 2 418 9
 418:src/Tests.cpp ****         return;
 2009              		.loc 2 418 20 is_stmt 0
 2010 0b58 17050000 		lla	a0,.LC7
 2010      13050500 
 2011              	.LVL220:
 2012 0b60 97000000 		call	_Z11printStringPKc@plt
 2012      E7800000 
 2013              	.LVL221:
 419:src/Tests.cpp ****     }
 2014              		.loc 2 419 9 is_stmt 1
 2015 0b68 6FF0DFED 		j	.L119
 2016              	.LVL222:
 2017              	.L131:
 429:src/Tests.cpp ****         return;
 2018              		.loc 2 429 9
 429:src/Tests.cpp ****         return;
 2019              		.loc 2 429 20 is_stmt 0
 2020 0b6c 17050000 		lla	a0,.LC7
 2020      13050500 
 2021              	.LVL223:
 2022 0b74 97000000 		call	_Z11printStringPKc@plt
 2022      E7800000 
 2023              	.LVL224:
 430:src/Tests.cpp ****     }
 2024              		.loc 2 430 9 is_stmt 1
 2025 0b7c 6FF09FEC 		j	.L119
 2026              	.LVL225:
 2027              	.L133:
 437:src/Tests.cpp ****         return;
 2028              		.loc 2 437 9
 437:src/Tests.cpp ****         return;
 2029              		.loc 2 437 20 is_stmt 0
 2030 0b80 17050000 		lla	a0,.LC7
 2030      13050500 
 2031              	.LVL226:
 2032 0b88 97000000 		call	_Z11printStringPKc@plt
 2032      E7800000 
 2033              	.LVL227:
GAS LISTING /tmp/ccuOlLSQ.s 			page 55


 438:src/Tests.cpp ****     }
 2034              		.loc 2 438 9 is_stmt 1
 2035 0b90 6FF05FEB 		j	.L119
 2036              	.LVL228:
 2037              	.L136:
 2038              	.LBB49:
 441:src/Tests.cpp ****         delete (uint64*)m[i];
 2039              		.loc 2 441 5 discriminator 2
 2040 0b94 1B0A1A00 		addiw	s4,s4,1
 2041              	.LVL229:
 2042              	.L134:
 441:src/Tests.cpp ****         delete (uint64*)m[i];
 2043              		.loc 2 441 18 discriminator 1
 2044 0b98 93079000 		li	a5,9
 2045 0b9c 63C24703 		bgt	s4,a5,.L135
 442:src/Tests.cpp ****     }
 2046              		.loc 2 442 9
 442:src/Tests.cpp ****     }
 2047              		.loc 2 442 28 is_stmt 0
 2048 0ba0 93173A00 		slli	a5,s4,3
 2049 0ba4 130704FB 		addi	a4,s0,-80
 2050              	.LVL230:
 2051 0ba8 B307F700 		add	a5,a4,a5
 2052 0bac 03B507FB 		ld	a0,-80(a5)
 442:src/Tests.cpp ****     }
 2053              		.loc 2 442 29
 2054 0bb0 E30205FE 		beqz	a0,.L136
 442:src/Tests.cpp ****     }
 2055              		.loc 2 442 28 discriminator 1
 2056 0bb4 97000000 		call	_ZdlPv@plt
 2056      E7800000 
 2057              	.LVL231:
 2058 0bbc 6FF09FFD 		j	.L136
 2059              	.L135:
 2060              	.LBE49:
 445:src/Tests.cpp ****     delete (uint64*)tmp2;
 2061              		.loc 2 445 5 is_stmt 1 discriminator 1
 445:src/Tests.cpp ****     delete (uint64*)tmp2;
 2062              		.loc 2 445 21 is_stmt 0 discriminator 1
 2063 0bc0 13850400 		mv	a0,s1
 2064 0bc4 97000000 		call	_ZdlPv@plt
 2064      E7800000 
 2065              	.LVL232:
 446:src/Tests.cpp ****     delete (uint64*)tmp3;
 2066              		.loc 2 446 5 is_stmt 1 discriminator 1
 446:src/Tests.cpp ****     delete (uint64*)tmp3;
 2067              		.loc 2 446 21 is_stmt 0 discriminator 1
 2068 0bcc 13050900 		mv	a0,s2
 2069 0bd0 97000000 		call	_ZdlPv@plt
 2069      E7800000 
 2070              	.LVL233:
 447:src/Tests.cpp ****     delete (uint64*)tmp4;
 2071              		.loc 2 447 5 is_stmt 1 discriminator 1
 447:src/Tests.cpp ****     delete (uint64*)tmp4;
 2072              		.loc 2 447 21 is_stmt 0 discriminator 1
 2073 0bd8 13850900 		mv	a0,s3
 2074 0bdc 97000000 		call	_ZdlPv@plt
GAS LISTING /tmp/ccuOlLSQ.s 			page 56


 2074      E7800000 
 2075              	.LVL234:
 448:src/Tests.cpp ****     delete (uint64*)tmp5;
 2076              		.loc 2 448 5 is_stmt 1 discriminator 1
 448:src/Tests.cpp ****     delete (uint64*)tmp5;
 2077              		.loc 2 448 21 is_stmt 0 discriminator 1
 2078 0be4 13050C00 		mv	a0,s8
 2079 0be8 97000000 		call	_ZdlPv@plt
 2079      E7800000 
 2080              	.LVL235:
 449:src/Tests.cpp **** 
 2081              		.loc 2 449 5 is_stmt 1 discriminator 1
 449:src/Tests.cpp **** 
 2082              		.loc 2 449 21 is_stmt 0 discriminator 1
 2083 0bf0 13850B00 		mv	a0,s7
 2084 0bf4 97000000 		call	_ZdlPv@plt
 2084      E7800000 
 2085              	.LVL236:
 451:src/Tests.cpp **** }
 2086              		.loc 2 451 5 is_stmt 1 discriminator 1
 451:src/Tests.cpp **** }
 2087              		.loc 2 451 16 is_stmt 0 discriminator 1
 2088 0bfc 17050000 		lla	a0,.LC17
 2088      13050500 
 2089 0c04 97000000 		call	_Z11printStringPKc@plt
 2089      E7800000 
 2090              	.LVL237:
 2091 0c0c 6FF09FE3 		j	.L119
 2092              		.cfi_endproc
 2093              	.LFE53:
 2095              		.align	2
 2096              		.globl	_Z21memoryAllocationTestsv
 2098              	_Z21memoryAllocationTestsv:
 2099              	.LFB40:
 268:src/Tests.cpp ****     //bigMalloc();
 2100              		.loc 2 268 1 is_stmt 1
 2101              		.cfi_startproc
 2102 0c10 130101FF 		addi	sp,sp,-16
 2103              		.cfi_def_cfa_offset 16
 2104 0c14 23341100 		sd	ra,8(sp)
 2105 0c18 23308100 		sd	s0,0(sp)
 2106              		.cfi_offset 1, -8
 2107              		.cfi_offset 8, -16
 2108 0c1c 13040101 		addi	s0,sp,16
 2109              		.cfi_def_cfa 8, 0
 276:src/Tests.cpp **** }
 2110              		.loc 2 276 5
 276:src/Tests.cpp **** }
 2111              		.loc 2 276 22 is_stmt 0
 2112 0c20 97000000 		call	_Z17mallocGapFillTestv
 2112      E7800000 
 2113              	.LVL238:
 277:src/Tests.cpp **** 
 2114              		.loc 2 277 1
 2115 0c28 83308100 		ld	ra,8(sp)
 2116              		.cfi_restore 1
 2117 0c2c 03340100 		ld	s0,0(sp)
GAS LISTING /tmp/ccuOlLSQ.s 			page 57


 2118              		.cfi_restore 8
 2119              		.cfi_def_cfa 2, 16
 2120 0c30 13010101 		addi	sp,sp,16
 2121              		.cfi_def_cfa_offset 0
 2122 0c34 67800000 		jr	ra
 2123              		.cfi_endproc
 2124              	.LFE40:
 2126              		.align	2
 2127              		.globl	_Z9consumerAPv
 2129              	_Z9consumerAPv:
 2130              	.LFB54:
 453:src/Tests.cpp **** 
 454:src/Tests.cpp **** char buffer[10];
 455:src/Tests.cpp **** int head = 0;
 456:src/Tests.cpp **** int tail = 0;
 457:src/Tests.cpp **** sem_t spaceAvailable, itemAvailable;
 458:src/Tests.cpp **** char string[11] = "this is ni";
 459:src/Tests.cpp **** 
 460:src/Tests.cpp **** void consumerA(void *arg)
 461:src/Tests.cpp **** {
 2131              		.loc 2 461 1 is_stmt 1
 2132              		.cfi_startproc
 2133              	.LVL239:
 462:src/Tests.cpp ****     while(head!=10)
 2134              		.loc 2 462 5
 2135              		.loc 2 462 15
 2136 0c38 17070000 		lw	a4,.LANCHOR0
 2136      03270700 
 2137 0c40 9307A000 		li	a5,10
 2138 0c44 630CF706 		beq	a4,a5,.L151
 461:src/Tests.cpp ****     while(head!=10)
 2139              		.loc 2 461 1 is_stmt 0
 2140 0c48 130101FE 		addi	sp,sp,-32
 2141              		.cfi_def_cfa_offset 32
 2142 0c4c 233C1100 		sd	ra,24(sp)
 2143 0c50 23388100 		sd	s0,16(sp)
 2144 0c54 23349100 		sd	s1,8(sp)
 2145              		.cfi_offset 1, -8
 2146              		.cfi_offset 8, -16
 2147              		.cfi_offset 9, -24
 2148 0c58 13040102 		addi	s0,sp,32
 2149              		.cfi_def_cfa 8, 0
 2150              	.LVL240:
 2151              	.L148:
 463:src/Tests.cpp ****     {
 464:src/Tests.cpp ****         sem_wait(itemAvailable);
 2152              		.loc 2 464 9 is_stmt 1
 2153              		.loc 2 464 17 is_stmt 0
 2154 0c5c 97040000 		lla	s1,.LANCHOR0
 2154      93840400 
 2155 0c64 03B58400 		ld	a0,8(s1)
 2156 0c68 97000000 		call	sem_wait@plt
 2156      E7800000 
 2157              	.LVL241:
 465:src/Tests.cpp ****         putc(buffer[head++]);
 2158              		.loc 2 465 9 is_stmt 1
 2159              		.loc 2 465 25 is_stmt 0
GAS LISTING /tmp/ccuOlLSQ.s 			page 58


 2160 0c70 83A70400 		lw	a5,0(s1)
 2161 0c74 1B871700 		addiw	a4,a5,1
 2162 0c78 23A0E400 		sw	a4,0(s1)
 2163              		.loc 2 465 13
 2164 0c7c B387F400 		add	a5,s1,a5
 2165 0c80 03C50701 		lbu	a0,16(a5)
 2166 0c84 97000000 		call	putc@plt
 2166      E7800000 
 2167              	.LVL242:
 466:src/Tests.cpp ****         sem_signal(spaceAvailable);
 2168              		.loc 2 466 9 is_stmt 1
 2169              		.loc 2 466 19 is_stmt 0
 2170 0c8c 03B50402 		ld	a0,32(s1)
 2171 0c90 97000000 		call	sem_signal@plt
 2171      E7800000 
 2172              	.LVL243:
 462:src/Tests.cpp ****     {
 2173              		.loc 2 462 5 is_stmt 1
 462:src/Tests.cpp ****     {
 2174              		.loc 2 462 15
 2175 0c98 17070000 		lw	a4,.LANCHOR0
 2175      03270700 
 2176 0ca0 9307A000 		li	a5,10
 2177 0ca4 E31CF7FA 		bne	a4,a5,.L148
 467:src/Tests.cpp ****     }
 468:src/Tests.cpp **** }
 2178              		.loc 2 468 1 is_stmt 0
 2179 0ca8 83308101 		ld	ra,24(sp)
 2180              		.cfi_restore 1
 2181 0cac 03340101 		ld	s0,16(sp)
 2182              		.cfi_restore 8
 2183              		.cfi_def_cfa 2, 32
 2184 0cb0 83348100 		ld	s1,8(sp)
 2185              		.cfi_restore 9
 2186 0cb4 13010102 		addi	sp,sp,32
 2187              		.cfi_def_cfa_offset 0
 2188 0cb8 67800000 		jr	ra
 2189              	.LVL244:
 2190              	.L151:
 2191 0cbc 67800000 		ret
 2192              		.cfi_endproc
 2193              	.LFE54:
 2195              		.align	2
 2196              		.globl	_Z9producerAPv
 2198              	_Z9producerAPv:
 2199              	.LFB55:
 469:src/Tests.cpp **** 
 470:src/Tests.cpp **** void producerA(void *arg)
 471:src/Tests.cpp **** {
 2200              		.loc 2 471 1 is_stmt 1
 2201              		.cfi_startproc
 2202              	.LVL245:
 472:src/Tests.cpp ****     while(tail!=10)
 2203              		.loc 2 472 5
 2204              		.loc 2 472 15
 2205 0cc0 17070000 		lw	a4,.LANCHOR0+40
 2205      03270700 
GAS LISTING /tmp/ccuOlLSQ.s 			page 59


 2206 0cc8 9307A000 		li	a5,10
 2207 0ccc 6300F708 		beq	a4,a5,.L160
 471:src/Tests.cpp ****     while(tail!=10)
 2208              		.loc 2 471 1 is_stmt 0
 2209 0cd0 130101FE 		addi	sp,sp,-32
 2210              		.cfi_def_cfa_offset 32
 2211 0cd4 233C1100 		sd	ra,24(sp)
 2212 0cd8 23388100 		sd	s0,16(sp)
 2213 0cdc 23349100 		sd	s1,8(sp)
 2214              		.cfi_offset 1, -8
 2215              		.cfi_offset 8, -16
 2216              		.cfi_offset 9, -24
 2217 0ce0 13040102 		addi	s0,sp,32
 2218              		.cfi_def_cfa 8, 0
 2219              	.LVL246:
 2220              	.L157:
 473:src/Tests.cpp ****     {
 474:src/Tests.cpp ****         sem_wait(spaceAvailable);
 2221              		.loc 2 474 9 is_stmt 1
 2222              		.loc 2 474 17 is_stmt 0
 2223 0ce4 97040000 		lla	s1,.LANCHOR0
 2223      93840400 
 2224 0cec 03B50402 		ld	a0,32(s1)
 2225 0cf0 97000000 		call	sem_wait@plt
 2225      E7800000 
 2226              	.LVL247:
 475:src/Tests.cpp ****         buffer[tail] = string[tail];
 2227              		.loc 2 475 9 is_stmt 1
 2228              		.loc 2 475 35 is_stmt 0
 2229 0cf8 83A78402 		lw	a5,40(s1)
 2230 0cfc 17070000 		lla	a4,.LANCHOR1
 2230      13070700 
 2231 0d04 3307F700 		add	a4,a4,a5
 2232 0d08 83460700 		lbu	a3,0(a4)
 2233              		.loc 2 475 22
 2234 0d0c 3387F400 		add	a4,s1,a5
 2235 0d10 2308D700 		sb	a3,16(a4)
 476:src/Tests.cpp ****         tail++;
 2236              		.loc 2 476 9 is_stmt 1
 2237              		.loc 2 476 13 is_stmt 0
 2238 0d14 9B871700 		addiw	a5,a5,1
 2239 0d18 23A4F402 		sw	a5,40(s1)
 477:src/Tests.cpp ****         sem_signal(itemAvailable);
 2240              		.loc 2 477 9 is_stmt 1
 2241              		.loc 2 477 19 is_stmt 0
 2242 0d1c 03B58400 		ld	a0,8(s1)
 2243 0d20 97000000 		call	sem_signal@plt
 2243      E7800000 
 2244              	.LVL248:
 472:src/Tests.cpp ****     {
 2245              		.loc 2 472 5 is_stmt 1
 472:src/Tests.cpp ****     {
 2246              		.loc 2 472 15
 2247 0d28 17070000 		lw	a4,.LANCHOR0+40
 2247      03270700 
 2248 0d30 9307A000 		li	a5,10
 2249 0d34 E318F7FA 		bne	a4,a5,.L157
GAS LISTING /tmp/ccuOlLSQ.s 			page 60


 478:src/Tests.cpp ****     }
 479:src/Tests.cpp **** }
 2250              		.loc 2 479 1 is_stmt 0
 2251 0d38 83308101 		ld	ra,24(sp)
 2252              		.cfi_restore 1
 2253 0d3c 03340101 		ld	s0,16(sp)
 2254              		.cfi_restore 8
 2255              		.cfi_def_cfa 2, 32
 2256 0d40 83348100 		ld	s1,8(sp)
 2257              		.cfi_restore 9
 2258 0d44 13010102 		addi	sp,sp,32
 2259              		.cfi_def_cfa_offset 0
 2260 0d48 67800000 		jr	ra
 2261              	.LVL249:
 2262              	.L160:
 2263 0d4c 67800000 		ret
 2264              		.cfi_endproc
 2265              	.LFE55:
 2267              		.align	2
 2268              		.globl	_Z8semTest1v
 2270              	_Z8semTest1v:
 2271              	.LFB56:
 480:src/Tests.cpp **** 
 481:src/Tests.cpp **** void semTest1()
 482:src/Tests.cpp **** {
 2272              		.loc 2 482 1 is_stmt 1
 2273              		.cfi_startproc
 2274 0d50 130101FF 		addi	sp,sp,-16
 2275              		.cfi_def_cfa_offset 16
 2276 0d54 23348100 		sd	s0,8(sp)
 2277              		.cfi_offset 8, -8
 2278 0d58 13040101 		addi	s0,sp,16
 2279              		.cfi_def_cfa 8, 0
 483:src/Tests.cpp ****     /*sem_open(&spaceAvailable, 10);
 484:src/Tests.cpp **** 
 485:src/Tests.cpp ****     sem_open(&itemAvailable, 0);
 486:src/Tests.cpp **** 
 487:src/Tests.cpp ****     thread_t threadA, threadB;
 488:src/Tests.cpp **** 
 489:src/Tests.cpp ****     thread_create(&threadA, producerA, nullptr);
 490:src/Tests.cpp **** 
 491:src/Tests.cpp ****     thread_create(&threadB, consumerA, nullptr);
 492:src/Tests.cpp **** 
 493:src/Tests.cpp ****     while(!((PCB*)threadA)->isFinished() || !((PCB*)threadA)->isFinished())
 494:src/Tests.cpp ****         thread_dispatch();*/
 495:src/Tests.cpp **** }
 2280              		.loc 2 495 1 is_stmt 0
 2281 0d5c 03348100 		ld	s0,8(sp)
 2282              		.cfi_restore 8
 2283              		.cfi_def_cfa 2, 16
 2284 0d60 13010101 		addi	sp,sp,16
 2285              		.cfi_def_cfa_offset 0
 2286 0d64 67800000 		jr	ra
 2287              		.cfi_endproc
 2288              	.LFE56:
 2290              		.align	2
 2291              		.globl	_Z12consoleTest1v
GAS LISTING /tmp/ccuOlLSQ.s 			page 61


 2293              	_Z12consoleTest1v:
 2294              	.LFB57:
 496:src/Tests.cpp **** 
 497:src/Tests.cpp **** void consoleTest1()
 498:src/Tests.cpp **** {
 2295              		.loc 2 498 1 is_stmt 1
 2296              		.cfi_startproc
 2297 0d68 130101FE 		addi	sp,sp,-32
 2298              		.cfi_def_cfa_offset 32
 2299 0d6c 233C1100 		sd	ra,24(sp)
 2300 0d70 23388100 		sd	s0,16(sp)
 2301 0d74 23349100 		sd	s1,8(sp)
 2302              		.cfi_offset 1, -8
 2303              		.cfi_offset 8, -16
 2304              		.cfi_offset 9, -24
 2305 0d78 13040102 		addi	s0,sp,32
 2306              		.cfi_def_cfa 8, 0
 499:src/Tests.cpp ****     for(int i = 0; i < 100;i++)
 2307              		.loc 2 499 5
 2308              	.LVL250:
 2309              	.LBB50:
 2310              		.loc 2 499 13 is_stmt 0
 2311 0d7c 93040000 		li	s1,0
 2312              	.LVL251:
 2313              	.L165:
 2314              		.loc 2 499 22 is_stmt 1 discriminator 3
 2315 0d80 93073006 		li	a5,99
 2316 0d84 63CA9700 		bgt	s1,a5,.L163
 500:src/Tests.cpp ****     {
 501:src/Tests.cpp ****         getc();
 2317              		.loc 2 501 9 discriminator 2
 2318              		.loc 2 501 13 is_stmt 0 discriminator 2
 2319 0d88 97000000 		call	getc@plt
 2319      E7800000 
 2320              	.LVL252:
 499:src/Tests.cpp ****     for(int i = 0; i < 100;i++)
 2321              		.loc 2 499 5 is_stmt 1 discriminator 2
 2322 0d90 9B841400 		addiw	s1,s1,1
 2323              	.LVL253:
 2324 0d94 6FF0DFFE 		j	.L165
 2325              	.LVL254:
 2326              	.L163:
 2327              	.LBE50:
 502:src/Tests.cpp ****     }
 503:src/Tests.cpp **** }
 2328              		.loc 2 503 1 is_stmt 0
 2329 0d98 83308101 		ld	ra,24(sp)
 2330              		.cfi_restore 1
 2331 0d9c 03340101 		ld	s0,16(sp)
 2332              		.cfi_restore 8
 2333              		.cfi_def_cfa 2, 32
 2334 0da0 83348100 		ld	s1,8(sp)
 2335              		.cfi_restore 9
 2336              	.LVL255:
 2337 0da4 13010102 		addi	sp,sp,32
 2338              		.cfi_def_cfa_offset 0
 2339 0da8 67800000 		jr	ra
GAS LISTING /tmp/ccuOlLSQ.s 			page 62


 2340              		.cfi_endproc
 2341              	.LFE57:
 2343              		.align	2
 2344              		.globl	_Z12consoleTestsv
 2346              	_Z12consoleTestsv:
 2347              	.LFB58:
 504:src/Tests.cpp **** 
 505:src/Tests.cpp **** void consoleTests()
 506:src/Tests.cpp **** {
 2348              		.loc 2 506 1 is_stmt 1
 2349              		.cfi_startproc
 2350 0dac 130101FF 		addi	sp,sp,-16
 2351              		.cfi_def_cfa_offset 16
 2352 0db0 23341100 		sd	ra,8(sp)
 2353 0db4 23308100 		sd	s0,0(sp)
 2354              		.cfi_offset 1, -8
 2355              		.cfi_offset 8, -16
 2356 0db8 13040101 		addi	s0,sp,16
 2357              		.cfi_def_cfa 8, 0
 507:src/Tests.cpp ****     consoleTest1();
 2358              		.loc 2 507 5
 2359              		.loc 2 507 17 is_stmt 0
 2360 0dbc 97000000 		call	_Z12consoleTest1v
 2360      E7800000 
 2361              	.LVL256:
 508:src/Tests.cpp **** }
 2362              		.loc 2 508 1
 2363 0dc4 83308100 		ld	ra,8(sp)
 2364              		.cfi_restore 1
 2365 0dc8 03340100 		ld	s0,0(sp)
 2366              		.cfi_restore 8
 2367              		.cfi_def_cfa 2, 16
 2368 0dcc 13010101 		addi	sp,sp,16
 2369              		.cfi_def_cfa_offset 0
 2370 0dd0 67800000 		jr	ra
 2371              		.cfi_endproc
 2372              	.LFE58:
 2374              		.align	2
 2375              		.globl	_Z7myTestsv
 2377              	_Z7myTestsv:
 2378              	.LFB42:
 285:src/Tests.cpp ****     //memoryAllocationTests();
 2379              		.loc 2 285 1 is_stmt 1
 2380              		.cfi_startproc
 2381 0dd4 130101FF 		addi	sp,sp,-16
 2382              		.cfi_def_cfa_offset 16
 2383 0dd8 23341100 		sd	ra,8(sp)
 2384 0ddc 23308100 		sd	s0,0(sp)
 2385              		.cfi_offset 1, -8
 2386              		.cfi_offset 8, -16
 2387 0de0 13040101 		addi	s0,sp,16
 2388              		.cfi_def_cfa 8, 0
 289:src/Tests.cpp ****     //changeModeTests();
 2389              		.loc 2 289 5
 289:src/Tests.cpp ****     //changeModeTests();
 2390              		.loc 2 289 17 is_stmt 0
 2391 0de4 97000000 		call	_Z12consoleTestsv
GAS LISTING /tmp/ccuOlLSQ.s 			page 63


 2391      E7800000 
 2392              	.LVL257:
 291:src/Tests.cpp **** 
 2393              		.loc 2 291 1
 2394 0dec 83308100 		ld	ra,8(sp)
 2395              		.cfi_restore 1
 2396 0df0 03340100 		ld	s0,0(sp)
 2397              		.cfi_restore 8
 2398              		.cfi_def_cfa 2, 16
 2399 0df4 13010101 		addi	sp,sp,16
 2400              		.cfi_def_cfa_offset 0
 2401 0df8 67800000 		jr	ra
 2402              		.cfi_endproc
 2403              	.LFE42:
 2405              		.align	2
 2406              		.globl	_Z15changeModeTest1v
 2408              	_Z15changeModeTest1v:
 2409              	.LFB59:
 509:src/Tests.cpp **** 
 510:src/Tests.cpp **** 
 511:src/Tests.cpp **** void changeModeTest1()
 512:src/Tests.cpp **** {
 2410              		.loc 2 512 1 is_stmt 1
 2411              		.cfi_startproc
 2412 0dfc 130101FF 		addi	sp,sp,-16
 2413              		.cfi_def_cfa_offset 16
 2414 0e00 23348100 		sd	s0,8(sp)
 2415              		.cfi_offset 8, -8
 2416 0e04 13040101 		addi	s0,sp,16
 2417              		.cfi_def_cfa 8, 0
 513:src/Tests.cpp ****     // u user niti smo
 514:src/Tests.cpp ****     __asm__ volatile("csrr a0, sstatus"); //treba da pukne
 2418              		.loc 2 514 5
 2419              		.loc 2 514 41 is_stmt 0
 2420              	#APP
 2421              	# 514 "src/Tests.cpp" 1
 515              	}
 2422              		csrr a0, sstatus
 2423              	# 0 "" 2
 2424              		.loc 2 515 1
 2425              	#NO_APP
 2426 0e0c 03348100 		ld	s0,8(sp)
 2427              		.cfi_restore 8
 2428              		.cfi_def_cfa 2, 16
 2429 0e10 13010101 		addi	sp,sp,16
 2430              		.cfi_def_cfa_offset 0
 2431 0e14 67800000 		jr	ra
 2432              		.cfi_endproc
 2433              	.LFE59:
 2435              		.align	2
 2436              		.globl	_Z15changeModeTestsv
 2438              	_Z15changeModeTestsv:
 2439              	.LFB60:
 516:src/Tests.cpp **** 
 517:src/Tests.cpp **** void changeModeTests()
 518:src/Tests.cpp **** {
 2440              		.loc 2 518 1 is_stmt 1
GAS LISTING /tmp/ccuOlLSQ.s 			page 64


 2441              		.cfi_startproc
 2442 0e18 130101FF 		addi	sp,sp,-16
 2443              		.cfi_def_cfa_offset 16
 2444 0e1c 23341100 		sd	ra,8(sp)
 2445 0e20 23308100 		sd	s0,0(sp)
 2446              		.cfi_offset 1, -8
 2447              		.cfi_offset 8, -16
 2448 0e24 13040101 		addi	s0,sp,16
 2449              		.cfi_def_cfa 8, 0
 519:src/Tests.cpp ****     changeModeTest1();
 2450              		.loc 2 519 5
 2451              		.loc 2 519 20 is_stmt 0
 2452 0e28 97000000 		call	_Z15changeModeTest1v
 2452      E7800000 
 2453              	.LVL258:
 520:src/Tests.cpp **** }
 2454              		.loc 2 520 1
 2455 0e30 83308100 		ld	ra,8(sp)
 2456              		.cfi_restore 1
 2457 0e34 03340100 		ld	s0,0(sp)
 2458              		.cfi_restore 8
 2459              		.cfi_def_cfa 2, 16
 2460 0e38 13010101 		addi	sp,sp,16
 2461              		.cfi_def_cfa_offset 0
 2462 0e3c 67800000 		jr	ra
 2463              		.cfi_endproc
 2464              	.LFE60:
 2466              		.weak	_ZTV14PeriodicThread
 2467              		.section	.data.rel.ro.local._ZTV14PeriodicThread,"awG",@progbits,_ZTV14PeriodicThread,comdat
 2468              		.align	3
 2471              	_ZTV14PeriodicThread:
 2472 0000 00000000 		.dword	0
 2472      00000000 
 2473 0008 00000000 		.dword	0
 2473      00000000 
 2474 0010 00000000 		.dword	_ZN14PeriodicThreadD1Ev
 2474      00000000 
 2475 0018 00000000 		.dword	_ZN14PeriodicThreadD0Ev
 2475      00000000 
 2476 0020 00000000 		.dword	_ZN6Thread3runEv
 2476      00000000 
 2477 0028 00000000 		.dword	_ZN14PeriodicThread18periodicActivationEv
 2477      00000000 
 2478              		.weak	_ZTV12TestPeriodic
 2479              		.section	.data.rel.ro.local._ZTV12TestPeriodic,"awG",@progbits,_ZTV12TestPeriodic,comdat
 2480              		.align	3
 2483              	_ZTV12TestPeriodic:
 2484 0000 00000000 		.dword	0
 2484      00000000 
 2485 0008 00000000 		.dword	0
 2485      00000000 
 2486 0010 00000000 		.dword	_ZN12TestPeriodicD1Ev
 2486      00000000 
 2487 0018 00000000 		.dword	_ZN12TestPeriodicD0Ev
 2487      00000000 
 2488 0020 00000000 		.dword	_ZN6Thread3runEv
 2488      00000000 
GAS LISTING /tmp/ccuOlLSQ.s 			page 65


 2489 0028 00000000 		.dword	_ZN12TestPeriodic18periodicActivationEv
 2489      00000000 
 2490              		.globl	string
 2491              		.globl	itemAvailable
 2492              		.globl	spaceAvailable
 2493              		.globl	tail
 2494              		.globl	head
 2495              		.globl	buffer
 2496              		.data
 2497              		.align	3
 2498              		.set	.LANCHOR1,. + 0
 2501              	string:
 2502 0000 74686973 		.string	"this is ni"
 2502      20697320 
 2502      6E6900
 2503              		.bss
 2504              		.align	3
 2505              		.set	.LANCHOR0,. + 0
 2508              	head:
 2509 0000 00000000 		.zero	4
 2510 0004 00000000 		.zero	4
 2513              	itemAvailable:
 2514 0008 00000000 		.zero	8
 2514      00000000 
 2517              	buffer:
 2518 0010 00000000 		.zero	10
 2518      00000000 
 2518      0000
 2519 001a 00000000 		.zero	6
 2519      0000
 2522              	spaceAvailable:
 2523 0020 00000000 		.zero	8
 2523      00000000 
 2526              	tail:
 2527 0028 00000000 		.zero	4
 2528              		.text
 2529              	.Letext0:
 2530              		.file 4 "src/../h/../lib/hw.h"
 2531              		.file 5 "src/../h/../test/../h/syscall_c.h"
 2532              		.file 6 "src/../h/../test/printing.hpp"
 7834              		.align	3
 7837              	DW.ref.__gxx_personality_v0:
 7838 0000 00000000 		.dword	__gxx_personality_v0
 7838      00000000 
 7839              		.ident	"GCC: (Ubuntu 9.3.0-17ubuntu1~20.04) 9.3.0"
 7840              		.section	.note.GNU-stack,"",@progbits
GAS LISTING /tmp/ccuOlLSQ.s 			page 66


DEFINED SYMBOLS
                            *ABS*:0000000000000000 Tests.cpp
     /tmp/ccuOlLSQ.s:10     .text._ZN6Thread3runEv:0000000000000000 _ZN6Thread3runEv
     /tmp/ccuOlLSQ.s:14     .text._ZN6Thread3runEv:0000000000000000 .L0 
     /tmp/ccuOlLSQ.s:16     .text._ZN6Thread3runEv:0000000000000000 .L0 
     /tmp/ccuOlLSQ.s:17     .text._ZN6Thread3runEv:0000000000000004 .L0 
     /tmp/ccuOlLSQ.s:19     .text._ZN6Thread3runEv:0000000000000008 .L0 
     /tmp/ccuOlLSQ.s:21     .text._ZN6Thread3runEv:000000000000000c .L0 
     /tmp/ccuOlLSQ.s:23     .text._ZN6Thread3runEv:000000000000000c .L0 
     /tmp/ccuOlLSQ.s:24     .text._ZN6Thread3runEv:0000000000000010 .L0 
     /tmp/ccuOlLSQ.s:25     .text._ZN6Thread3runEv:0000000000000010 .L0 
     /tmp/ccuOlLSQ.s:27     .text._ZN6Thread3runEv:0000000000000014 .L0 
     /tmp/ccuOlLSQ.s:29     .text._ZN6Thread3runEv:0000000000000018 .L0 
     /tmp/ccuOlLSQ.s:36     .text._ZN14PeriodicThread18periodicActivationEv:0000000000000000 _ZN14PeriodicThread18periodicActivationEv
     /tmp/ccuOlLSQ.s:39     .text._ZN14PeriodicThread18periodicActivationEv:0000000000000000 .L0 
     /tmp/ccuOlLSQ.s:41     .text._ZN14PeriodicThread18periodicActivationEv:0000000000000000 .L0 
     /tmp/ccuOlLSQ.s:42     .text._ZN14PeriodicThread18periodicActivationEv:0000000000000004 .L0 
     /tmp/ccuOlLSQ.s:44     .text._ZN14PeriodicThread18periodicActivationEv:0000000000000008 .L0 
     /tmp/ccuOlLSQ.s:46     .text._ZN14PeriodicThread18periodicActivationEv:000000000000000c .L0 
     /tmp/ccuOlLSQ.s:48     .text._ZN14PeriodicThread18periodicActivationEv:000000000000000c .L0 
     /tmp/ccuOlLSQ.s:49     .text._ZN14PeriodicThread18periodicActivationEv:0000000000000010 .L0 
     /tmp/ccuOlLSQ.s:50     .text._ZN14PeriodicThread18periodicActivationEv:0000000000000010 .L0 
     /tmp/ccuOlLSQ.s:52     .text._ZN14PeriodicThread18periodicActivationEv:0000000000000014 .L0 
     /tmp/ccuOlLSQ.s:54     .text._ZN14PeriodicThread18periodicActivationEv:0000000000000018 .L0 
     /tmp/ccuOlLSQ.s:65     .text:0000000000000000 _ZN12TestPeriodic18periodicActivationEv
     /tmp/ccuOlLSQ.s:69     .text:0000000000000000 .L0 
     /tmp/ccuOlLSQ.s:71     .text:0000000000000000 .L0 
     /tmp/ccuOlLSQ.s:72     .text:0000000000000004 .L0 
     /tmp/ccuOlLSQ.s:76     .text:0000000000000010 .L0 
     /tmp/ccuOlLSQ.s:77     .text:0000000000000010 .L0 
     /tmp/ccuOlLSQ.s:78     .text:0000000000000010 .L0 
     /tmp/ccuOlLSQ.s:80     .text:0000000000000014 .L0 
     /tmp/ccuOlLSQ.s:84     .text:0000000000000014 .L0 
     /tmp/ccuOlLSQ.s:85     .text:0000000000000014 .L0 
     /tmp/ccuOlLSQ.s:89     .text:0000000000000018 .L0 
     /tmp/ccuOlLSQ.s:93     .text:0000000000000024 .L0 
     /tmp/ccuOlLSQ.s:94     .text:0000000000000024 .L0 
     /tmp/ccuOlLSQ.s:98     .text:0000000000000034 .L0 
     /tmp/ccuOlLSQ.s:99     .text:0000000000000034 .L0 
     /tmp/ccuOlLSQ.s:105    .text:0000000000000048 .L0 
     /tmp/ccuOlLSQ.s:112    .text:0000000000000050 .L0 
     /tmp/ccuOlLSQ.s:113    .text:0000000000000054 .L0 
     /tmp/ccuOlLSQ.s:115    .text:0000000000000058 .L0 
     /tmp/ccuOlLSQ.s:116    .text:0000000000000058 .L0 
     /tmp/ccuOlLSQ.s:118    .text:000000000000005c .L0 
     /tmp/ccuOlLSQ.s:121    .text:0000000000000060 .L0 
     /tmp/ccuOlLSQ.s:123    .text:0000000000000064 .L0 
     /tmp/ccuOlLSQ.s:130    .text._ZN14PeriodicThreadD2Ev:0000000000000000 _ZN14PeriodicThreadD2Ev
     /tmp/ccuOlLSQ.s:133    .text._ZN14PeriodicThreadD2Ev:0000000000000000 .L0 
     /tmp/ccuOlLSQ.s:135    .text._ZN14PeriodicThreadD2Ev:0000000000000000 .L0 
     /tmp/ccuOlLSQ.s:136    .text._ZN14PeriodicThreadD2Ev:0000000000000004 .L0 
     /tmp/ccuOlLSQ.s:139    .text._ZN14PeriodicThreadD2Ev:000000000000000c .L0 
     /tmp/ccuOlLSQ.s:140    .text._ZN14PeriodicThreadD2Ev:000000000000000c .L0 
     /tmp/ccuOlLSQ.s:142    .text._ZN14PeriodicThreadD2Ev:0000000000000010 .L0 
     /tmp/ccuOlLSQ.s:2471   .data.rel.ro.local._ZTV14PeriodicThread:0000000000000000 _ZTV14PeriodicThread
     /tmp/ccuOlLSQ.s:145    .text._ZN14PeriodicThreadD2Ev:0000000000000010 .L0 
     /tmp/ccuOlLSQ.s:151    .text._ZN14PeriodicThreadD2Ev:0000000000000028 .L0 
GAS LISTING /tmp/ccuOlLSQ.s 			page 67


     /tmp/ccuOlLSQ.s:153    .text._ZN14PeriodicThreadD2Ev:000000000000002c .L0 
     /tmp/ccuOlLSQ.s:154    .text._ZN14PeriodicThreadD2Ev:000000000000002c .L0 
     /tmp/ccuOlLSQ.s:156    .text._ZN14PeriodicThreadD2Ev:0000000000000030 .L0 
     /tmp/ccuOlLSQ.s:158    .text._ZN14PeriodicThreadD2Ev:0000000000000034 .L0 
     /tmp/ccuOlLSQ.s:130    .text._ZN14PeriodicThreadD2Ev:0000000000000000 _ZN14PeriodicThreadD1Ev
     /tmp/ccuOlLSQ.s:167    .text._ZN14PeriodicThreadD0Ev:0000000000000000 _ZN14PeriodicThreadD0Ev
     /tmp/ccuOlLSQ.s:170    .text._ZN14PeriodicThreadD0Ev:0000000000000000 .L0 
     /tmp/ccuOlLSQ.s:172    .text._ZN14PeriodicThreadD0Ev:0000000000000000 .L0 
     /tmp/ccuOlLSQ.s:173    .text._ZN14PeriodicThreadD0Ev:0000000000000004 .L0 
     /tmp/ccuOlLSQ.s:177    .text._ZN14PeriodicThreadD0Ev:0000000000000010 .L0 
     /tmp/ccuOlLSQ.s:178    .text._ZN14PeriodicThreadD0Ev:0000000000000010 .L0 
     /tmp/ccuOlLSQ.s:179    .text._ZN14PeriodicThreadD0Ev:0000000000000010 .L0 
     /tmp/ccuOlLSQ.s:181    .text._ZN14PeriodicThreadD0Ev:0000000000000014 .L0 
     /tmp/ccuOlLSQ.s:187    .text._ZN14PeriodicThreadD0Ev:0000000000000018 .L0 
     /tmp/ccuOlLSQ.s:197    .text._ZN14PeriodicThreadD0Ev:000000000000003c .L0 
     /tmp/ccuOlLSQ.s:199    .text._ZN14PeriodicThreadD0Ev:0000000000000040 .L0 
     /tmp/ccuOlLSQ.s:200    .text._ZN14PeriodicThreadD0Ev:0000000000000040 .L0 
     /tmp/ccuOlLSQ.s:202    .text._ZN14PeriodicThreadD0Ev:0000000000000044 .L0 
     /tmp/ccuOlLSQ.s:205    .text._ZN14PeriodicThreadD0Ev:0000000000000048 .L0 
     /tmp/ccuOlLSQ.s:207    .text._ZN14PeriodicThreadD0Ev:000000000000004c .L0 
     /tmp/ccuOlLSQ.s:214    .text._ZN12TestPeriodicD2Ev:0000000000000000 _ZN12TestPeriodicD2Ev
     /tmp/ccuOlLSQ.s:218    .text._ZN12TestPeriodicD2Ev:0000000000000000 .L0 
     /tmp/ccuOlLSQ.s:220    .text._ZN12TestPeriodicD2Ev:0000000000000000 .L0 
     /tmp/ccuOlLSQ.s:221    .text._ZN12TestPeriodicD2Ev:0000000000000004 .L0 
     /tmp/ccuOlLSQ.s:224    .text._ZN12TestPeriodicD2Ev:000000000000000c .L0 
     /tmp/ccuOlLSQ.s:225    .text._ZN12TestPeriodicD2Ev:000000000000000c .L0 
     /tmp/ccuOlLSQ.s:227    .text._ZN12TestPeriodicD2Ev:0000000000000010 .L0 
     /tmp/ccuOlLSQ.s:232    .text._ZN12TestPeriodicD2Ev:0000000000000010 .L0 
     /tmp/ccuOlLSQ.s:239    .text._ZN12TestPeriodicD2Ev:0000000000000024 .L0 
     /tmp/ccuOlLSQ.s:240    .text._ZN12TestPeriodicD2Ev:0000000000000028 .L0 
     /tmp/ccuOlLSQ.s:242    .text._ZN12TestPeriodicD2Ev:000000000000002c .L0 
     /tmp/ccuOlLSQ.s:243    .text._ZN12TestPeriodicD2Ev:000000000000002c .L0 
     /tmp/ccuOlLSQ.s:245    .text._ZN12TestPeriodicD2Ev:0000000000000030 .L0 
     /tmp/ccuOlLSQ.s:247    .text._ZN12TestPeriodicD2Ev:0000000000000034 .L0 
     /tmp/ccuOlLSQ.s:214    .text._ZN12TestPeriodicD2Ev:0000000000000000 _ZN12TestPeriodicD1Ev
     /tmp/ccuOlLSQ.s:256    .text._ZN12TestPeriodicD0Ev:0000000000000000 _ZN12TestPeriodicD0Ev
     /tmp/ccuOlLSQ.s:259    .text._ZN12TestPeriodicD0Ev:0000000000000000 .L0 
     /tmp/ccuOlLSQ.s:261    .text._ZN12TestPeriodicD0Ev:0000000000000000 .L0 
     /tmp/ccuOlLSQ.s:262    .text._ZN12TestPeriodicD0Ev:0000000000000004 .L0 
     /tmp/ccuOlLSQ.s:266    .text._ZN12TestPeriodicD0Ev:0000000000000010 .L0 
     /tmp/ccuOlLSQ.s:267    .text._ZN12TestPeriodicD0Ev:0000000000000010 .L0 
     /tmp/ccuOlLSQ.s:268    .text._ZN12TestPeriodicD0Ev:0000000000000010 .L0 
     /tmp/ccuOlLSQ.s:270    .text._ZN12TestPeriodicD0Ev:0000000000000014 .L0 
     /tmp/ccuOlLSQ.s:277    .text._ZN12TestPeriodicD0Ev:0000000000000018 .L0 
     /tmp/ccuOlLSQ.s:285    .text._ZN12TestPeriodicD0Ev:000000000000002c .L0 
     /tmp/ccuOlLSQ.s:289    .text._ZN12TestPeriodicD0Ev:000000000000003c .L0 
     /tmp/ccuOlLSQ.s:291    .text._ZN12TestPeriodicD0Ev:0000000000000040 .L0 
     /tmp/ccuOlLSQ.s:292    .text._ZN12TestPeriodicD0Ev:0000000000000040 .L0 
     /tmp/ccuOlLSQ.s:294    .text._ZN12TestPeriodicD0Ev:0000000000000044 .L0 
     /tmp/ccuOlLSQ.s:297    .text._ZN12TestPeriodicD0Ev:0000000000000048 .L0 
     /tmp/ccuOlLSQ.s:299    .text._ZN12TestPeriodicD0Ev:000000000000004c .L0 
     /tmp/ccuOlLSQ.s:310    .text:0000000000000064 _Z4idlePv
     /tmp/ccuOlLSQ.s:313    .text:0000000000000064 .L0 
     /tmp/ccuOlLSQ.s:315    .text:0000000000000064 .L0 
     /tmp/ccuOlLSQ.s:316    .text:0000000000000068 .L0 
     /tmp/ccuOlLSQ.s:319    .text:0000000000000070 .L0 
     /tmp/ccuOlLSQ.s:320    .text:0000000000000070 .L0 
GAS LISTING /tmp/ccuOlLSQ.s 			page 68


     /tmp/ccuOlLSQ.s:322    .text:0000000000000074 .L0 
     /tmp/ccuOlLSQ.s:326    .text:0000000000000074 .L0 
     /tmp/ccuOlLSQ.s:327    .text:0000000000000074 .L0 
     /tmp/ccuOlLSQ.s:328    .text:0000000000000074 .L0 
     /tmp/ccuOlLSQ.s:332    .text:0000000000000084 .L0 
     /tmp/ccuOlLSQ.s:333    .text:0000000000000084 .L0 
     /tmp/ccuOlLSQ.s:336    .text:000000000000008c .L0 
     /tmp/ccuOlLSQ.s:337    .text:0000000000000090 .L0 
     /tmp/ccuOlLSQ.s:351    .text:0000000000000090 _Z15thread1FunctionPv
     /tmp/ccuOlLSQ.s:354    .text:0000000000000090 .L0 
     /tmp/ccuOlLSQ.s:356    .text:0000000000000090 .L0 
     /tmp/ccuOlLSQ.s:357    .text:0000000000000094 .L0 
     /tmp/ccuOlLSQ.s:361    .text:00000000000000a0 .L0 
     /tmp/ccuOlLSQ.s:362    .text:00000000000000a0 .L0 
     /tmp/ccuOlLSQ.s:363    .text:00000000000000a0 .L0 
     /tmp/ccuOlLSQ.s:365    .text:00000000000000a4 .L0 
     /tmp/ccuOlLSQ.s:367    .text:00000000000000a4 .L0 
     /tmp/ccuOlLSQ.s:368    .text:00000000000000a4 .L0 
     /tmp/ccuOlLSQ.s:373    .text:00000000000000b4 .L0 
     /tmp/ccuOlLSQ.s:375    .text:00000000000000b4 .L0 
     /tmp/ccuOlLSQ.s:376    .text:00000000000000b4 .L0 
     /tmp/ccuOlLSQ.s:381    .text:00000000000000bc .L0 
     /tmp/ccuOlLSQ.s:382    .text:00000000000000bc .L0 
     /tmp/ccuOlLSQ.s:386    .text:00000000000000c4 .L0 
     /tmp/ccuOlLSQ.s:387    .text:00000000000000c4 .L0 
     /tmp/ccuOlLSQ.s:391    .text:00000000000000d4 .L0 
     /tmp/ccuOlLSQ.s:392    .text:00000000000000d4 .L0 
     /tmp/ccuOlLSQ.s:398    .text:00000000000000e8 .L0 
     /tmp/ccuOlLSQ.s:399    .text:00000000000000e8 .L0 
     /tmp/ccuOlLSQ.s:403    .text:00000000000000f8 .L0 
     /tmp/ccuOlLSQ.s:407    .text:00000000000000fc .L0 
     /tmp/ccuOlLSQ.s:411    .text:0000000000000108 .L0 
     /tmp/ccuOlLSQ.s:412    .text:0000000000000108 .L0 
     /tmp/ccuOlLSQ.s:415    .text:0000000000000110 .L0 
     /tmp/ccuOlLSQ.s:417    .text:0000000000000114 .L0 
     /tmp/ccuOlLSQ.s:422    .text:000000000000011c .L0 
     /tmp/ccuOlLSQ.s:423    .text:0000000000000120 .L0 
     /tmp/ccuOlLSQ.s:425    .text:0000000000000124 .L0 
     /tmp/ccuOlLSQ.s:426    .text:0000000000000124 .L0 
     /tmp/ccuOlLSQ.s:428    .text:0000000000000128 .L0 
     /tmp/ccuOlLSQ.s:431    .text:000000000000012c .L0 
     /tmp/ccuOlLSQ.s:433    .text:0000000000000130 .L0 
     /tmp/ccuOlLSQ.s:447    .text:0000000000000130 _Z15thread2FunctionPv
     /tmp/ccuOlLSQ.s:450    .text:0000000000000130 .L0 
     /tmp/ccuOlLSQ.s:452    .text:0000000000000130 .L0 
     /tmp/ccuOlLSQ.s:453    .text:0000000000000134 .L0 
     /tmp/ccuOlLSQ.s:457    .text:0000000000000140 .L0 
     /tmp/ccuOlLSQ.s:458    .text:0000000000000140 .L0 
     /tmp/ccuOlLSQ.s:459    .text:0000000000000140 .L0 
     /tmp/ccuOlLSQ.s:461    .text:0000000000000144 .L0 
     /tmp/ccuOlLSQ.s:463    .text:0000000000000144 .L0 
     /tmp/ccuOlLSQ.s:464    .text:0000000000000144 .L0 
     /tmp/ccuOlLSQ.s:469    .text:0000000000000154 .L0 
     /tmp/ccuOlLSQ.s:471    .text:0000000000000154 .L0 
     /tmp/ccuOlLSQ.s:472    .text:0000000000000154 .L0 
     /tmp/ccuOlLSQ.s:477    .text:000000000000015c .L0 
     /tmp/ccuOlLSQ.s:478    .text:000000000000015c .L0 
GAS LISTING /tmp/ccuOlLSQ.s 			page 69


     /tmp/ccuOlLSQ.s:482    .text:0000000000000164 .L0 
     /tmp/ccuOlLSQ.s:483    .text:0000000000000164 .L0 
     /tmp/ccuOlLSQ.s:487    .text:0000000000000174 .L0 
     /tmp/ccuOlLSQ.s:488    .text:0000000000000174 .L0 
     /tmp/ccuOlLSQ.s:494    .text:0000000000000188 .L0 
     /tmp/ccuOlLSQ.s:495    .text:0000000000000188 .L0 
     /tmp/ccuOlLSQ.s:499    .text:0000000000000198 .L0 
     /tmp/ccuOlLSQ.s:503    .text:000000000000019c .L0 
     /tmp/ccuOlLSQ.s:507    .text:00000000000001a8 .L0 
     /tmp/ccuOlLSQ.s:508    .text:00000000000001a8 .L0 
     /tmp/ccuOlLSQ.s:511    .text:00000000000001b0 .L0 
     /tmp/ccuOlLSQ.s:513    .text:00000000000001b4 .L0 
     /tmp/ccuOlLSQ.s:518    .text:00000000000001bc .L0 
     /tmp/ccuOlLSQ.s:519    .text:00000000000001c0 .L0 
     /tmp/ccuOlLSQ.s:521    .text:00000000000001c4 .L0 
     /tmp/ccuOlLSQ.s:522    .text:00000000000001c4 .L0 
     /tmp/ccuOlLSQ.s:524    .text:00000000000001c8 .L0 
     /tmp/ccuOlLSQ.s:527    .text:00000000000001cc .L0 
     /tmp/ccuOlLSQ.s:529    .text:00000000000001d0 .L0 
     /tmp/ccuOlLSQ.s:535    .text:00000000000001d0 _Z20thread2FunctionTest2Pv
     /tmp/ccuOlLSQ.s:538    .text:00000000000001d0 .L0 
     /tmp/ccuOlLSQ.s:540    .text:00000000000001d0 .L0 
     /tmp/ccuOlLSQ.s:541    .text:00000000000001d4 .L0 
     /tmp/ccuOlLSQ.s:545    .text:00000000000001e0 .L0 
     /tmp/ccuOlLSQ.s:546    .text:00000000000001e0 .L0 
     /tmp/ccuOlLSQ.s:547    .text:00000000000001e0 .L0 
     /tmp/ccuOlLSQ.s:549    .text:00000000000001e4 .L0 
     /tmp/ccuOlLSQ.s:551    .text:00000000000001e4 .L0 
     /tmp/ccuOlLSQ.s:552    .text:00000000000001e4 .L0 
     /tmp/ccuOlLSQ.s:557    .text:00000000000001f4 .L0 
     /tmp/ccuOlLSQ.s:559    .text:00000000000001f4 .L0 
     /tmp/ccuOlLSQ.s:560    .text:00000000000001f4 .L0 
     /tmp/ccuOlLSQ.s:565    .text:00000000000001fc .L0 
     /tmp/ccuOlLSQ.s:566    .text:00000000000001fc .L0 
     /tmp/ccuOlLSQ.s:571    .text:0000000000000208 .L0 
     /tmp/ccuOlLSQ.s:572    .text:0000000000000208 .L0 
     /tmp/ccuOlLSQ.s:576    .text:0000000000000210 .L0 
     /tmp/ccuOlLSQ.s:577    .text:0000000000000210 .L0 
     /tmp/ccuOlLSQ.s:581    .text:0000000000000220 .L0 
     /tmp/ccuOlLSQ.s:582    .text:0000000000000220 .L0 
     /tmp/ccuOlLSQ.s:588    .text:0000000000000234 .L0 
     /tmp/ccuOlLSQ.s:589    .text:0000000000000234 .L0 
     /tmp/ccuOlLSQ.s:593    .text:0000000000000244 .L0 
     /tmp/ccuOlLSQ.s:597    .text:0000000000000248 .L0 
     /tmp/ccuOlLSQ.s:601    .text:0000000000000254 .L0 
     /tmp/ccuOlLSQ.s:605    .text:000000000000025c .L0 
     /tmp/ccuOlLSQ.s:606    .text:000000000000025c .L0 
     /tmp/ccuOlLSQ.s:609    .text:0000000000000264 .L0 
     /tmp/ccuOlLSQ.s:611    .text:0000000000000268 .L0 
     /tmp/ccuOlLSQ.s:616    .text:0000000000000270 .L0 
     /tmp/ccuOlLSQ.s:617    .text:0000000000000274 .L0 
     /tmp/ccuOlLSQ.s:619    .text:0000000000000278 .L0 
     /tmp/ccuOlLSQ.s:620    .text:0000000000000278 .L0 
     /tmp/ccuOlLSQ.s:622    .text:000000000000027c .L0 
     /tmp/ccuOlLSQ.s:625    .text:0000000000000280 .L0 
     /tmp/ccuOlLSQ.s:627    .text:0000000000000284 .L0 
     /tmp/ccuOlLSQ.s:633    .text:0000000000000284 _Z11threadTest1v
GAS LISTING /tmp/ccuOlLSQ.s 			page 70


     /tmp/ccuOlLSQ.s:636    .text:0000000000000284 .L0 
     /tmp/ccuOlLSQ.s:637    .text:0000000000000284 .L0 
     /tmp/ccuOlLSQ.s:638    .text:0000000000000288 .L0 
     /tmp/ccuOlLSQ.s:640    .text:000000000000028c .L0 
     /tmp/ccuOlLSQ.s:642    .text:0000000000000290 .L0 
     /tmp/ccuOlLSQ.s:644    .text:0000000000000290 .L0 
     /tmp/ccuOlLSQ.s:645    .text:0000000000000294 .L0 
     /tmp/ccuOlLSQ.s:646    .text:0000000000000294 .L0 
     /tmp/ccuOlLSQ.s:648    .text:0000000000000298 .L0 
     /tmp/ccuOlLSQ.s:650    .text:000000000000029c .L0 
     /tmp/ccuOlLSQ.s:656    .text:000000000000029c _Z11threadTest2v
     /tmp/ccuOlLSQ.s:659    .text:000000000000029c .L0 
     /tmp/ccuOlLSQ.s:660    .text:000000000000029c .L0 
     /tmp/ccuOlLSQ.s:661    .text:00000000000002a0 .L0 
     /tmp/ccuOlLSQ.s:663    .text:00000000000002a4 .L0 
     /tmp/ccuOlLSQ.s:665    .text:00000000000002a8 .L0 
     /tmp/ccuOlLSQ.s:667    .text:00000000000002a8 .L0 
     /tmp/ccuOlLSQ.s:668    .text:00000000000002ac .L0 
     /tmp/ccuOlLSQ.s:669    .text:00000000000002ac .L0 
     /tmp/ccuOlLSQ.s:671    .text:00000000000002b0 .L0 
     /tmp/ccuOlLSQ.s:673    .text:00000000000002b4 .L0 
     /tmp/ccuOlLSQ.s:690    .text:00000000000002b4 _Z10mallocFreev
     /tmp/ccuOlLSQ.s:693    .text:00000000000002b4 .L0 
     /tmp/ccuOlLSQ.s:694    .text:00000000000002b4 .L0 
     /tmp/ccuOlLSQ.s:695    .text:00000000000002b8 .L0 
     /tmp/ccuOlLSQ.s:699    .text:00000000000002c4 .L0 
     /tmp/ccuOlLSQ.s:700    .text:00000000000002c4 .L0 
     /tmp/ccuOlLSQ.s:701    .text:00000000000002c4 .L0 
     /tmp/ccuOlLSQ.s:703    .text:00000000000002c8 .L0 
     /tmp/ccuOlLSQ.s:705    .text:00000000000002c8 .L0 
     /tmp/ccuOlLSQ.s:706    .text:00000000000002c8 .L0 
     /tmp/ccuOlLSQ.s:711    .text:00000000000002d8 .L0 
     /tmp/ccuOlLSQ.s:716    .text:00000000000002e0 .L0 
     /tmp/ccuOlLSQ.s:720    .text:00000000000002e4 .L0 
     /tmp/ccuOlLSQ.s:723    .text:00000000000002ec .L0 
     /tmp/ccuOlLSQ.s:724    .text:00000000000002ec .L0 
     /tmp/ccuOlLSQ.s:728    .text:00000000000002f8 .L0 
     /tmp/ccuOlLSQ.s:733    .text:0000000000000308 .L0 
     /tmp/ccuOlLSQ.s:735    .text:000000000000030c .L0 
     /tmp/ccuOlLSQ.s:736    .text:000000000000030c .L0 
     /tmp/ccuOlLSQ.s:742    .text:000000000000031c .L0 
     /tmp/ccuOlLSQ.s:743    .text:000000000000031c .L0 
     /tmp/ccuOlLSQ.s:744    .text:0000000000000320 .L0 
     /tmp/ccuOlLSQ.s:745    .text:0000000000000320 .L0 
     /tmp/ccuOlLSQ.s:747    .text:0000000000000324 .L0 
     /tmp/ccuOlLSQ.s:748    .text:0000000000000324 .L0 
     /tmp/ccuOlLSQ.s:750    .text:0000000000000328 .L0 
     /tmp/ccuOlLSQ.s:752    .text:000000000000032c .L0 
     /tmp/ccuOlLSQ.s:756    .text:0000000000000330 .L0 
     /tmp/ccuOlLSQ.s:759    .text:0000000000000330 .L0 
     /tmp/ccuOlLSQ.s:763    .text:0000000000000334 .L0 
     /tmp/ccuOlLSQ.s:767    .text:000000000000033c .L0 
     /tmp/ccuOlLSQ.s:768    .text:000000000000033c .L0 
     /tmp/ccuOlLSQ.s:775    .text:0000000000000354 .L0 
     /tmp/ccuOlLSQ.s:778    .text:0000000000000358 .L0 
     /tmp/ccuOlLSQ.s:779    .text:0000000000000358 .L0 
     /tmp/ccuOlLSQ.s:782    .text:000000000000035c .L0 
GAS LISTING /tmp/ccuOlLSQ.s 			page 71


     /tmp/ccuOlLSQ.s:787    .text:0000000000000360 .L0 
     /tmp/ccuOlLSQ.s:788    .text:0000000000000360 .L0 
     /tmp/ccuOlLSQ.s:793    .text:0000000000000370 .L0 
     /tmp/ccuOlLSQ.s:799    .text:0000000000000374 .L0 
     /tmp/ccuOlLSQ.s:805    .text:000000000000037c .L0 
     /tmp/ccuOlLSQ.s:806    .text:000000000000037c .L0 
     /tmp/ccuOlLSQ.s:810    .text:0000000000000380 .L0 
     /tmp/ccuOlLSQ.s:813    .text:0000000000000388 .L0 
     /tmp/ccuOlLSQ.s:814    .text:0000000000000388 .L0 
     /tmp/ccuOlLSQ.s:818    .text:0000000000000394 .L0 
     /tmp/ccuOlLSQ.s:823    .text:00000000000003a4 .L0 
     /tmp/ccuOlLSQ.s:825    .text:00000000000003a8 .L0 
     /tmp/ccuOlLSQ.s:826    .text:00000000000003a8 .L0 
     /tmp/ccuOlLSQ.s:830    .text:00000000000003b8 .L0 
     /tmp/ccuOlLSQ.s:835    .text:00000000000003bc .L0 
     /tmp/ccuOlLSQ.s:839    .text:00000000000003c0 .L0 
     /tmp/ccuOlLSQ.s:843    .text:00000000000003c8 .L0 
     /tmp/ccuOlLSQ.s:844    .text:00000000000003c8 .L0 
     /tmp/ccuOlLSQ.s:851    .text:00000000000003e0 .L0 
     /tmp/ccuOlLSQ.s:854    .text:00000000000003e4 .L0 
     /tmp/ccuOlLSQ.s:861    .text:00000000000003ec .L0 
     /tmp/ccuOlLSQ.s:862    .text:00000000000003ec .L0 
     /tmp/ccuOlLSQ.s:867    .text:00000000000003fc .L0 
     /tmp/ccuOlLSQ.s:872    .text:0000000000000400 .L0 
     /tmp/ccuOlLSQ.s:873    .text:0000000000000400 .L0 
     /tmp/ccuOlLSQ.s:877    .text:0000000000000414 .L0 
     /tmp/ccuOlLSQ.s:888    .text:0000000000000414 _Z9bigMallocv
     /tmp/ccuOlLSQ.s:891    .text:0000000000000414 .L0 
     /tmp/ccuOlLSQ.s:892    .text:0000000000000414 .L0 
     /tmp/ccuOlLSQ.s:893    .text:0000000000000418 .L0 
     /tmp/ccuOlLSQ.s:896    .text:0000000000000420 .L0 
     /tmp/ccuOlLSQ.s:897    .text:0000000000000420 .L0 
     /tmp/ccuOlLSQ.s:899    .text:0000000000000424 .L0 
     /tmp/ccuOlLSQ.s:901    .text:0000000000000424 .L0 
     /tmp/ccuOlLSQ.s:902    .text:0000000000000424 .L0 
     /tmp/ccuOlLSQ.s:906    .text:0000000000000434 .L0 
     /tmp/ccuOlLSQ.s:907    .text:0000000000000434 .L0 
     /tmp/ccuOlLSQ.s:914    .text:0000000000000450 .L0 
     /tmp/ccuOlLSQ.s:915    .text:0000000000000450 .L0 
     /tmp/ccuOlLSQ.s:920    .text:000000000000045c .L0 
     /tmp/ccuOlLSQ.s:922    .text:0000000000000460 .L0 
     /tmp/ccuOlLSQ.s:923    .text:0000000000000460 .L0 
     /tmp/ccuOlLSQ.s:929    .text:0000000000000470 .L0 
     /tmp/ccuOlLSQ.s:930    .text:0000000000000474 .L0 
     /tmp/ccuOlLSQ.s:931    .text:0000000000000474 .L0 
     /tmp/ccuOlLSQ.s:933    .text:0000000000000478 .L0 
     /tmp/ccuOlLSQ.s:934    .text:0000000000000478 .L0 
     /tmp/ccuOlLSQ.s:936    .text:000000000000047c .L0 
     /tmp/ccuOlLSQ.s:940    .text:0000000000000480 .L0 
     /tmp/ccuOlLSQ.s:942    .text:0000000000000480 .L0 
     /tmp/ccuOlLSQ.s:943    .text:0000000000000480 .L0 
     /tmp/ccuOlLSQ.s:948    .text:0000000000000494 .L0 
     /tmp/ccuOlLSQ.s:959    .text:0000000000000494 _Z17lotOfSmallMallocsv
     /tmp/ccuOlLSQ.s:962    .text:0000000000000494 .L0 
     /tmp/ccuOlLSQ.s:963    .text:0000000000000494 .L0 
     /tmp/ccuOlLSQ.s:964    .text:0000000000000498 .L0 
     /tmp/ccuOlLSQ.s:970    .text:00000000000004ac .L0 
GAS LISTING /tmp/ccuOlLSQ.s 			page 72


     /tmp/ccuOlLSQ.s:971    .text:00000000000004ac .L0 
     /tmp/ccuOlLSQ.s:972    .text:00000000000004ac .L0 
     /tmp/ccuOlLSQ.s:973    .text:00000000000004ac .L0 
     /tmp/ccuOlLSQ.s:974    .text:00000000000004ac .L0 
     /tmp/ccuOlLSQ.s:976    .text:00000000000004b0 .L0 
     /tmp/ccuOlLSQ.s:978    .text:00000000000004b0 .L0 
     /tmp/ccuOlLSQ.s:979    .text:00000000000004b0 .L0 
     /tmp/ccuOlLSQ.s:983    .text:00000000000004c0 .L0 
     /tmp/ccuOlLSQ.s:984    .text:00000000000004c0 .L0 
     /tmp/ccuOlLSQ.s:985    .text:00000000000004c0 .L0 
     /tmp/ccuOlLSQ.s:986    .text:00000000000004c0 .L0 
     /tmp/ccuOlLSQ.s:988    .text:00000000000004c0 .L0 
     /tmp/ccuOlLSQ.s:989    .text:00000000000004c0 .L0 
     /tmp/ccuOlLSQ.s:992    .text:00000000000004c4 .L0 
     /tmp/ccuOlLSQ.s:994    .text:00000000000004c8 .L0 
     /tmp/ccuOlLSQ.s:1001   .text:00000000000004d0 .L0 
     /tmp/ccuOlLSQ.s:1002   .text:00000000000004d0 .L0 
     /tmp/ccuOlLSQ.s:1005   .text:00000000000004d8 .L0 
     /tmp/ccuOlLSQ.s:1006   .text:00000000000004d8 .L0 
     /tmp/ccuOlLSQ.s:1009   .text:00000000000004dc .L0 
     /tmp/ccuOlLSQ.s:1010   .text:00000000000004dc .L0 
     /tmp/ccuOlLSQ.s:1014   .text:00000000000004e0 .L0 
     /tmp/ccuOlLSQ.s:1018   .text:00000000000004e4 .L0 
     /tmp/ccuOlLSQ.s:1023   .text:00000000000004f0 .L0 
     /tmp/ccuOlLSQ.s:1024   .text:00000000000004f0 .L0 
     /tmp/ccuOlLSQ.s:1028   .text:00000000000004fc .L0 
     /tmp/ccuOlLSQ.s:1034   .text:0000000000000500 .L0 
     /tmp/ccuOlLSQ.s:1035   .text:0000000000000500 .L0 
     /tmp/ccuOlLSQ.s:1041   .text:0000000000000514 .L0 
     /tmp/ccuOlLSQ.s:1042   .text:0000000000000514 .L0 
     /tmp/ccuOlLSQ.s:1046   .text:0000000000000524 .L0 
     /tmp/ccuOlLSQ.s:1047   .text:0000000000000524 .L0 
     /tmp/ccuOlLSQ.s:1052   .text:0000000000000530 .L0 
     /tmp/ccuOlLSQ.s:1054   .text:0000000000000534 .L0 
     /tmp/ccuOlLSQ.s:1055   .text:0000000000000534 .L0 
     /tmp/ccuOlLSQ.s:1060   .text:0000000000000544 .L0 
     /tmp/ccuOlLSQ.s:1061   .text:0000000000000548 .L0 
     /tmp/ccuOlLSQ.s:1062   .text:0000000000000548 .L0 
     /tmp/ccuOlLSQ.s:1064   .text:000000000000054c .L0 
     /tmp/ccuOlLSQ.s:1065   .text:000000000000054c .L0 
     /tmp/ccuOlLSQ.s:1067   .text:0000000000000550 .L0 
     /tmp/ccuOlLSQ.s:1070   .text:0000000000000554 .L0 
     /tmp/ccuOlLSQ.s:1072   .text:0000000000000558 .L0 
     /tmp/ccuOlLSQ.s:1075   .text:000000000000055c .L0 
     /tmp/ccuOlLSQ.s:1079   .text:0000000000000560 .L0 
     /tmp/ccuOlLSQ.s:1081   .text:0000000000000560 .L0 
     /tmp/ccuOlLSQ.s:1082   .text:0000000000000560 .L0 
     /tmp/ccuOlLSQ.s:1086   .text:0000000000000574 .L0 
     /tmp/ccuOlLSQ.s:1097   .text:0000000000000574 _Z7badFreev
     /tmp/ccuOlLSQ.s:1100   .text:0000000000000574 .L0 
     /tmp/ccuOlLSQ.s:1101   .text:0000000000000574 .L0 
     /tmp/ccuOlLSQ.s:1102   .text:0000000000000578 .L0 
     /tmp/ccuOlLSQ.s:1105   .text:0000000000000580 .L0 
     /tmp/ccuOlLSQ.s:1106   .text:0000000000000580 .L0 
     /tmp/ccuOlLSQ.s:1108   .text:0000000000000584 .L0 
     /tmp/ccuOlLSQ.s:1110   .text:0000000000000584 .L0 
     /tmp/ccuOlLSQ.s:1111   .text:0000000000000584 .L0 
GAS LISTING /tmp/ccuOlLSQ.s 			page 73


     /tmp/ccuOlLSQ.s:1115   .text:0000000000000594 .L0 
     /tmp/ccuOlLSQ.s:1116   .text:0000000000000594 .L0 
     /tmp/ccuOlLSQ.s:1120   .text:00000000000005a0 .L0 
     /tmp/ccuOlLSQ.s:1121   .text:00000000000005a0 .L0 
     /tmp/ccuOlLSQ.s:1126   .text:00000000000005ac .L0 
     /tmp/ccuOlLSQ.s:1128   .text:00000000000005b0 .L0 
     /tmp/ccuOlLSQ.s:1129   .text:00000000000005b0 .L0 
     /tmp/ccuOlLSQ.s:1135   .text:00000000000005c0 .L0 
     /tmp/ccuOlLSQ.s:1136   .text:00000000000005c4 .L0 
     /tmp/ccuOlLSQ.s:1137   .text:00000000000005c4 .L0 
     /tmp/ccuOlLSQ.s:1139   .text:00000000000005c8 .L0 
     /tmp/ccuOlLSQ.s:1140   .text:00000000000005c8 .L0 
     /tmp/ccuOlLSQ.s:1142   .text:00000000000005cc .L0 
     /tmp/ccuOlLSQ.s:1146   .text:00000000000005d0 .L0 
     /tmp/ccuOlLSQ.s:1148   .text:00000000000005d0 .L0 
     /tmp/ccuOlLSQ.s:1149   .text:00000000000005d0 .L0 
     /tmp/ccuOlLSQ.s:1154   .text:00000000000005e0 .L0 
     /tmp/ccuOlLSQ.s:1155   .text:00000000000005e4 .L0 
     /tmp/ccuOlLSQ.s:1169   .text:00000000000005e4 _Z13stressTestingv
     /tmp/ccuOlLSQ.s:1172   .text:00000000000005e4 .L0 
     /tmp/ccuOlLSQ.s:1173   .text:00000000000005e4 .L0 
     /tmp/ccuOlLSQ.s:1174   .text:00000000000005e8 .L0 
     /tmp/ccuOlLSQ.s:1179   .text:00000000000005f8 .L0 
     /tmp/ccuOlLSQ.s:1180   .text:00000000000005f8 .L0 
     /tmp/ccuOlLSQ.s:1181   .text:00000000000005f8 .L0 
     /tmp/ccuOlLSQ.s:1182   .text:00000000000005f8 .L0 
     /tmp/ccuOlLSQ.s:1184   .text:00000000000005fc .L0 
     /tmp/ccuOlLSQ.s:1186   .text:00000000000005fc .L0 
     /tmp/ccuOlLSQ.s:1187   .text:00000000000005fc .L0 
     /tmp/ccuOlLSQ.s:1192   .text:000000000000060c .L0 
     /tmp/ccuOlLSQ.s:1197   .text:0000000000000614 .L0 
     /tmp/ccuOlLSQ.s:1201   .text:0000000000000618 .L0 
     /tmp/ccuOlLSQ.s:1204   .text:0000000000000620 .L0 
     /tmp/ccuOlLSQ.s:1205   .text:0000000000000620 .L0 
     /tmp/ccuOlLSQ.s:1209   .text:000000000000062c .L0 
     /tmp/ccuOlLSQ.s:1214   .text:000000000000063c .L0 
     /tmp/ccuOlLSQ.s:1216   .text:0000000000000640 .L0 
     /tmp/ccuOlLSQ.s:1217   .text:0000000000000640 .L0 
     /tmp/ccuOlLSQ.s:1223   .text:0000000000000650 .L0 
     /tmp/ccuOlLSQ.s:1224   .text:0000000000000650 .L0 
     /tmp/ccuOlLSQ.s:1225   .text:0000000000000654 .L0 
     /tmp/ccuOlLSQ.s:1226   .text:0000000000000654 .L0 
     /tmp/ccuOlLSQ.s:1228   .text:0000000000000658 .L0 
     /tmp/ccuOlLSQ.s:1229   .text:0000000000000658 .L0 
     /tmp/ccuOlLSQ.s:1231   .text:000000000000065c .L0 
     /tmp/ccuOlLSQ.s:1233   .text:0000000000000660 .L0 
     /tmp/ccuOlLSQ.s:1235   .text:0000000000000664 .L0 
     /tmp/ccuOlLSQ.s:1239   .text:0000000000000668 .L0 
     /tmp/ccuOlLSQ.s:1241   .text:0000000000000668 .L0 
     /tmp/ccuOlLSQ.s:1245   .text:000000000000066c .L0 
     /tmp/ccuOlLSQ.s:1246   .text:000000000000066c .L0 
     /tmp/ccuOlLSQ.s:1250   .text:0000000000000670 .L0 
     /tmp/ccuOlLSQ.s:1254   .text:0000000000000674 .L0 
     /tmp/ccuOlLSQ.s:1258   .text:000000000000067c .L0 
     /tmp/ccuOlLSQ.s:1259   .text:000000000000067c .L0 
     /tmp/ccuOlLSQ.s:1266   .text:0000000000000694 .L0 
     /tmp/ccuOlLSQ.s:1268   .text:0000000000000698 .L0 
GAS LISTING /tmp/ccuOlLSQ.s 			page 74


     /tmp/ccuOlLSQ.s:1269   .text:0000000000000698 .L0 
     /tmp/ccuOlLSQ.s:1273   .text:00000000000006a0 .L0 
     /tmp/ccuOlLSQ.s:1277   .text:00000000000006ac .L0 
     /tmp/ccuOlLSQ.s:1282   .text:00000000000006bc .L0 
     /tmp/ccuOlLSQ.s:1285   .text:00000000000006c0 .L0 
     /tmp/ccuOlLSQ.s:1286   .text:00000000000006c0 .L0 
     /tmp/ccuOlLSQ.s:1289   .text:00000000000006c4 .L0 
     /tmp/ccuOlLSQ.s:1294   .text:00000000000006c8 .L0 
     /tmp/ccuOlLSQ.s:1295   .text:00000000000006c8 .L0 
     /tmp/ccuOlLSQ.s:1300   .text:00000000000006d8 .L0 
     /tmp/ccuOlLSQ.s:1303   .text:00000000000006dc .L0 
     /tmp/ccuOlLSQ.s:1304   .text:00000000000006dc .L0 
     /tmp/ccuOlLSQ.s:1308   .text:00000000000006ec .L0 
     /tmp/ccuOlLSQ.s:1314   .text:00000000000006f0 .L0 
     /tmp/ccuOlLSQ.s:1318   .text:00000000000006f4 .L0 
     /tmp/ccuOlLSQ.s:1322   .text:00000000000006fc .L0 
     /tmp/ccuOlLSQ.s:1323   .text:00000000000006fc .L0 
     /tmp/ccuOlLSQ.s:1330   .text:0000000000000714 .L0 
     /tmp/ccuOlLSQ.s:1332   .text:0000000000000718 .L0 
     /tmp/ccuOlLSQ.s:1333   .text:0000000000000718 .L0 
     /tmp/ccuOlLSQ.s:1338   .text:0000000000000724 .L0 
     /tmp/ccuOlLSQ.s:1343   .text:0000000000000734 .L0 
     /tmp/ccuOlLSQ.s:1346   .text:0000000000000738 .L0 
     /tmp/ccuOlLSQ.s:1347   .text:0000000000000738 .L0 
     /tmp/ccuOlLSQ.s:1350   .text:000000000000073c .L0 
     /tmp/ccuOlLSQ.s:1355   .text:0000000000000740 .L0 
     /tmp/ccuOlLSQ.s:1356   .text:0000000000000740 .L0 
     /tmp/ccuOlLSQ.s:1361   .text:0000000000000750 .L0 
     /tmp/ccuOlLSQ.s:1364   .text:0000000000000754 .L0 
     /tmp/ccuOlLSQ.s:1365   .text:0000000000000754 .L0 
     /tmp/ccuOlLSQ.s:1369   .text:0000000000000764 .L0 
     /tmp/ccuOlLSQ.s:1374   .text:0000000000000768 .L0 
     /tmp/ccuOlLSQ.s:1375   .text:0000000000000768 .L0 
     /tmp/ccuOlLSQ.s:1379   .text:000000000000076c .L0 
     /tmp/ccuOlLSQ.s:1383   .text:0000000000000770 .L0 
     /tmp/ccuOlLSQ.s:1384   .text:0000000000000770 .L0 
     /tmp/ccuOlLSQ.s:1388   .text:0000000000000784 .L0 
     /tmp/ccuOlLSQ.s:1394   .text:0000000000000784 _Z14semaphoreTestsv
     /tmp/ccuOlLSQ.s:1397   .text:0000000000000784 .L0 
     /tmp/ccuOlLSQ.s:1398   .text:0000000000000784 .L0 
     /tmp/ccuOlLSQ.s:1399   .text:0000000000000788 .L0 
     /tmp/ccuOlLSQ.s:1401   .text:000000000000078c .L0 
     /tmp/ccuOlLSQ.s:1403   .text:0000000000000790 .L0 
     /tmp/ccuOlLSQ.s:1405   .text:0000000000000790 .L0 
     /tmp/ccuOlLSQ.s:1406   .text:0000000000000790 .L0 
     /tmp/ccuOlLSQ.s:1407   .text:0000000000000794 .L0 
     /tmp/ccuOlLSQ.s:1408   .text:0000000000000794 .L0 
     /tmp/ccuOlLSQ.s:1410   .text:0000000000000798 .L0 
     /tmp/ccuOlLSQ.s:1412   .text:000000000000079c .L0 
     /tmp/ccuOlLSQ.s:1418   .text:000000000000079c _ZN12TestPeriodicC2Em
     /tmp/ccuOlLSQ.s:1421   .text:000000000000079c .L0 
     /tmp/ccuOlLSQ.s:1423   .text:000000000000079c .L0 
     /tmp/ccuOlLSQ.s:1424   .text:00000000000007a0 .L0 
     /tmp/ccuOlLSQ.s:1428   .text:00000000000007ac .L0 
     /tmp/ccuOlLSQ.s:1429   .text:00000000000007ac .L0 
     /tmp/ccuOlLSQ.s:1430   .text:00000000000007ac .L0 
     /tmp/ccuOlLSQ.s:1432   .text:00000000000007b0 .L0 
GAS LISTING /tmp/ccuOlLSQ.s 			page 75


     /tmp/ccuOlLSQ.s:1436   .text:00000000000007b4 .L0 
     /tmp/ccuOlLSQ.s:2483   .data.rel.ro.local._ZTV12TestPeriodic:0000000000000000 _ZTV12TestPeriodic
     /tmp/ccuOlLSQ.s:1442   .text:00000000000007c8 .L0 
     /tmp/ccuOlLSQ.s:1443   .text:00000000000007cc .L0 
     /tmp/ccuOlLSQ.s:1445   .text:00000000000007d0 .L0 
     /tmp/ccuOlLSQ.s:1446   .text:00000000000007d0 .L0 
     /tmp/ccuOlLSQ.s:1448   .text:00000000000007d4 .L0 
     /tmp/ccuOlLSQ.s:1451   .text:00000000000007d8 .L0 
     /tmp/ccuOlLSQ.s:1453   .text:00000000000007dc .L0 
     /tmp/ccuOlLSQ.s:1418   .text:000000000000079c _ZN12TestPeriodicC1Em
     /tmp/ccuOlLSQ.s:1461   .text:00000000000007dc _Z11threadTest3v
     /tmp/ccuOlLSQ.s:1464   .text:00000000000007dc .L0 
     /tmp/ccuOlLSQ.s:7837   .data.rel.local.DW.ref.__gxx_personality_v0:0000000000000000 DW.ref.__gxx_personality_v0
     /tmp/ccuOlLSQ.s:1467   .text:00000000000007dc .L0 
     /tmp/ccuOlLSQ.s:1468   .text:00000000000007e0 .L0 
     /tmp/ccuOlLSQ.s:1473   .text:00000000000007f0 .L0 
     /tmp/ccuOlLSQ.s:1474   .text:00000000000007f0 .L0 
     /tmp/ccuOlLSQ.s:1475   .text:00000000000007f0 .L0 
     /tmp/ccuOlLSQ.s:1476   .text:00000000000007f0 .L0 
     /tmp/ccuOlLSQ.s:1478   .text:00000000000007f4 .L0 
     /tmp/ccuOlLSQ.s:1480   .text:00000000000007f4 .L0 
     /tmp/ccuOlLSQ.s:1481   .text:00000000000007f4 .L0 
     /tmp/ccuOlLSQ.s:1493   .text:0000000000000810 .L0 
     /tmp/ccuOlLSQ.s:1494   .text:0000000000000810 .L0 
     /tmp/ccuOlLSQ.s:1501   .text:000000000000081c .L0 
     /tmp/ccuOlLSQ.s:1502   .text:000000000000081c .L0 
     /tmp/ccuOlLSQ.s:1507   .text:0000000000000824 .L0 
     /tmp/ccuOlLSQ.s:1515   .text:000000000000083c .L0 
     /tmp/ccuOlLSQ.s:1545   .text:000000000000083c _Z11threadTestsv
     /tmp/ccuOlLSQ.s:1548   .text:000000000000083c .L0 
     /tmp/ccuOlLSQ.s:1549   .text:000000000000083c .L0 
     /tmp/ccuOlLSQ.s:1550   .text:0000000000000840 .L0 
     /tmp/ccuOlLSQ.s:1553   .text:0000000000000848 .L0 
     /tmp/ccuOlLSQ.s:1554   .text:0000000000000848 .L0 
     /tmp/ccuOlLSQ.s:1556   .text:000000000000084c .L0 
     /tmp/ccuOlLSQ.s:1558   .text:000000000000084c .L0 
     /tmp/ccuOlLSQ.s:1559   .text:000000000000084c .L0 
     /tmp/ccuOlLSQ.s:1561   .text:0000000000000854 .L0 
     /tmp/ccuOlLSQ.s:1575   .text:0000000000000854 _Z10mallocTestv
     /tmp/ccuOlLSQ.s:1578   .text:0000000000000854 .L0 
     /tmp/ccuOlLSQ.s:1579   .text:0000000000000854 .L0 
     /tmp/ccuOlLSQ.s:1580   .text:0000000000000858 .L0 
     /tmp/ccuOlLSQ.s:1589   .text:0000000000000878 .L0 
     /tmp/ccuOlLSQ.s:1590   .text:0000000000000878 .L0 
     /tmp/ccuOlLSQ.s:1591   .text:0000000000000878 .L0 
     /tmp/ccuOlLSQ.s:1592   .text:0000000000000878 .L0 
     /tmp/ccuOlLSQ.s:1593   .text:0000000000000878 .L0 
     /tmp/ccuOlLSQ.s:1594   .text:0000000000000878 .L0 
     /tmp/ccuOlLSQ.s:1595   .text:0000000000000878 .L0 
     /tmp/ccuOlLSQ.s:1596   .text:0000000000000878 .L0 
     /tmp/ccuOlLSQ.s:1598   .text:000000000000087c .L0 
     /tmp/ccuOlLSQ.s:1600   .text:000000000000087c .L0 
     /tmp/ccuOlLSQ.s:1601   .text:000000000000087c .L0 
     /tmp/ccuOlLSQ.s:1605   .text:000000000000088c .L0 
     /tmp/ccuOlLSQ.s:1606   .text:000000000000088c .L0 
     /tmp/ccuOlLSQ.s:1612   .text:000000000000089c .L0 
     /tmp/ccuOlLSQ.s:1613   .text:000000000000089c .L0 
GAS LISTING /tmp/ccuOlLSQ.s 			page 76


     /tmp/ccuOlLSQ.s:1616   .text:00000000000008a4 .L0 
     /tmp/ccuOlLSQ.s:1617   .text:00000000000008a4 .L0 
     /tmp/ccuOlLSQ.s:1623   .text:00000000000008b4 .L0 
     /tmp/ccuOlLSQ.s:1624   .text:00000000000008b4 .L0 
     /tmp/ccuOlLSQ.s:1631   .text:00000000000008c4 .L0 
     /tmp/ccuOlLSQ.s:1632   .text:00000000000008c4 .L0 
     /tmp/ccuOlLSQ.s:1639   .text:00000000000008d4 .L0 
     /tmp/ccuOlLSQ.s:1640   .text:00000000000008d4 .L0 
     /tmp/ccuOlLSQ.s:1648   .text:00000000000008e8 .L0 
     /tmp/ccuOlLSQ.s:1649   .text:00000000000008e8 .L0 
     /tmp/ccuOlLSQ.s:1654   .text:00000000000008f4 .L0 
     /tmp/ccuOlLSQ.s:1657   .text:00000000000008fc .L0 
     /tmp/ccuOlLSQ.s:1659   .text:0000000000000900 .L0 
     /tmp/ccuOlLSQ.s:1661   .text:0000000000000904 .L0 
     /tmp/ccuOlLSQ.s:1663   .text:0000000000000908 .L0 
     /tmp/ccuOlLSQ.s:1665   .text:000000000000090c .L0 
     /tmp/ccuOlLSQ.s:1666   .text:000000000000090c .L0 
     /tmp/ccuOlLSQ.s:1671   .text:0000000000000918 .L0 
     /tmp/ccuOlLSQ.s:1672   .text:0000000000000918 .L0 
     /tmp/ccuOlLSQ.s:1676   .text:0000000000000924 .L0 
     /tmp/ccuOlLSQ.s:1677   .text:0000000000000924 .L0 
     /tmp/ccuOlLSQ.s:1681   .text:0000000000000930 .L0 
     /tmp/ccuOlLSQ.s:1682   .text:0000000000000930 .L0 
     /tmp/ccuOlLSQ.s:1686   .text:000000000000093c .L0 
     /tmp/ccuOlLSQ.s:1687   .text:000000000000093c .L0 
     /tmp/ccuOlLSQ.s:1691   .text:0000000000000948 .L0 
     /tmp/ccuOlLSQ.s:1692   .text:0000000000000948 .L0 
     /tmp/ccuOlLSQ.s:1694   .text:000000000000094c .L0 
     /tmp/ccuOlLSQ.s:1699   .text:0000000000000958 .L0 
     /tmp/ccuOlLSQ.s:1700   .text:0000000000000958 .L0 
     /tmp/ccuOlLSQ.s:1707   .text:000000000000096c .L0 
     /tmp/ccuOlLSQ.s:1708   .text:000000000000096c .L0 
     /tmp/ccuOlLSQ.s:1714   .text:000000000000097c .L0 
     /tmp/ccuOlLSQ.s:1715   .text:000000000000097c .L0 
     /tmp/ccuOlLSQ.s:1716   .text:0000000000000980 .L0 
     /tmp/ccuOlLSQ.s:1718   .text:0000000000000984 .L0 
     /tmp/ccuOlLSQ.s:1719   .text:0000000000000984 .L0 
     /tmp/ccuOlLSQ.s:1721   .text:0000000000000988 .L0 
     /tmp/ccuOlLSQ.s:1724   .text:000000000000098c .L0 
     /tmp/ccuOlLSQ.s:1727   .text:0000000000000990 .L0 
     /tmp/ccuOlLSQ.s:1730   .text:0000000000000994 .L0 
     /tmp/ccuOlLSQ.s:1733   .text:0000000000000998 .L0 
     /tmp/ccuOlLSQ.s:1736   .text:000000000000099c .L0 
     /tmp/ccuOlLSQ.s:1738   .text:00000000000009a0 .L0 
     /tmp/ccuOlLSQ.s:1740   .text:00000000000009a4 .L0 
     /tmp/ccuOlLSQ.s:1746   .text:00000000000009a4 _Z16mallocEverythingv
     /tmp/ccuOlLSQ.s:1749   .text:00000000000009a4 .L0 
     /tmp/ccuOlLSQ.s:1750   .text:00000000000009a4 .L0 
     /tmp/ccuOlLSQ.s:1751   .text:00000000000009a8 .L0 
     /tmp/ccuOlLSQ.s:1753   .text:00000000000009ac .L0 
     /tmp/ccuOlLSQ.s:1755   .text:00000000000009b0 .L0 
     /tmp/ccuOlLSQ.s:1757   .text:00000000000009b0 .L0 
     /tmp/ccuOlLSQ.s:1758   .text:00000000000009b4 .L0 
     /tmp/ccuOlLSQ.s:1759   .text:00000000000009b4 .L0 
     /tmp/ccuOlLSQ.s:1761   .text:00000000000009b8 .L0 
     /tmp/ccuOlLSQ.s:1763   .text:00000000000009bc .L0 
     /tmp/ccuOlLSQ.s:1777   .text:00000000000009bc _Z17mallocGapFillTestv
GAS LISTING /tmp/ccuOlLSQ.s 			page 77


     /tmp/ccuOlLSQ.s:1780   .text:00000000000009bc .L0 
     /tmp/ccuOlLSQ.s:1781   .text:00000000000009bc .L0 
     /tmp/ccuOlLSQ.s:1782   .text:00000000000009c0 .L0 
     /tmp/ccuOlLSQ.s:1793   .text:00000000000009e8 .L0 
     /tmp/ccuOlLSQ.s:1794   .text:00000000000009e8 .L0 
     /tmp/ccuOlLSQ.s:1795   .text:00000000000009e8 .L0 
     /tmp/ccuOlLSQ.s:1796   .text:00000000000009e8 .L0 
     /tmp/ccuOlLSQ.s:1797   .text:00000000000009e8 .L0 
     /tmp/ccuOlLSQ.s:1798   .text:00000000000009e8 .L0 
     /tmp/ccuOlLSQ.s:1799   .text:00000000000009e8 .L0 
     /tmp/ccuOlLSQ.s:1800   .text:00000000000009e8 .L0 
     /tmp/ccuOlLSQ.s:1801   .text:00000000000009e8 .L0 
     /tmp/ccuOlLSQ.s:1802   .text:00000000000009e8 .L0 
     /tmp/ccuOlLSQ.s:1804   .text:00000000000009ec .L0 
     /tmp/ccuOlLSQ.s:1806   .text:00000000000009ec .L0 
     /tmp/ccuOlLSQ.s:1807   .text:00000000000009ec .L0 
     /tmp/ccuOlLSQ.s:1812   .text:00000000000009fc .L0 
     /tmp/ccuOlLSQ.s:1816   .text:0000000000000a00 .L0 
     /tmp/ccuOlLSQ.s:1819   .text:0000000000000a08 .L0 
     /tmp/ccuOlLSQ.s:1820   .text:0000000000000a08 .L0 
     /tmp/ccuOlLSQ.s:1822   .text:0000000000000a0c .L0 
     /tmp/ccuOlLSQ.s:1826   .text:0000000000000a18 .L0 
     /tmp/ccuOlLSQ.s:1831   .text:0000000000000a28 .L0 
     /tmp/ccuOlLSQ.s:1833   .text:0000000000000a2c .L0 
     /tmp/ccuOlLSQ.s:1839   .text:0000000000000a34 .L0 
     /tmp/ccuOlLSQ.s:1840   .text:0000000000000a34 .L0 
     /tmp/ccuOlLSQ.s:1846   .text:0000000000000a44 .L0 
     /tmp/ccuOlLSQ.s:1847   .text:0000000000000a44 .L0 
     /tmp/ccuOlLSQ.s:1848   .text:0000000000000a48 .L0 
     /tmp/ccuOlLSQ.s:1849   .text:0000000000000a48 .L0 
     /tmp/ccuOlLSQ.s:1851   .text:0000000000000a4c .L0 
     /tmp/ccuOlLSQ.s:1852   .text:0000000000000a4c .L0 
     /tmp/ccuOlLSQ.s:1854   .text:0000000000000a50 .L0 
     /tmp/ccuOlLSQ.s:1856   .text:0000000000000a54 .L0 
     /tmp/ccuOlLSQ.s:1858   .text:0000000000000a58 .L0 
     /tmp/ccuOlLSQ.s:1860   .text:0000000000000a5c .L0 
     /tmp/ccuOlLSQ.s:1862   .text:0000000000000a60 .L0 
     /tmp/ccuOlLSQ.s:1864   .text:0000000000000a64 .L0 
     /tmp/ccuOlLSQ.s:1866   .text:0000000000000a68 .L0 
     /tmp/ccuOlLSQ.s:1868   .text:0000000000000a6c .L0 
     /tmp/ccuOlLSQ.s:1870   .text:0000000000000a70 .L0 
     /tmp/ccuOlLSQ.s:1874   .text:0000000000000a74 .L0 
     /tmp/ccuOlLSQ.s:1876   .text:0000000000000a74 .L0 
     /tmp/ccuOlLSQ.s:1877   .text:0000000000000a74 .L0 
     /tmp/ccuOlLSQ.s:1879   .text:0000000000000a78 .L0 
     /tmp/ccuOlLSQ.s:1881   .text:0000000000000a7c .L0 
     /tmp/ccuOlLSQ.s:1885   .text:0000000000000a84 .L0 
     /tmp/ccuOlLSQ.s:1886   .text:0000000000000a84 .L0 
     /tmp/ccuOlLSQ.s:1892   .text:0000000000000a94 .L0 
     /tmp/ccuOlLSQ.s:1893   .text:0000000000000a94 .L0 
     /tmp/ccuOlLSQ.s:1899   .text:0000000000000aa4 .L0 
     /tmp/ccuOlLSQ.s:1900   .text:0000000000000aa4 .L0 
     /tmp/ccuOlLSQ.s:1907   .text:0000000000000ab4 .L0 
     /tmp/ccuOlLSQ.s:1909   .text:0000000000000ab8 .L0 
     /tmp/ccuOlLSQ.s:1911   .text:0000000000000abc .L0 
     /tmp/ccuOlLSQ.s:1913   .text:0000000000000ac0 .L0 
     /tmp/ccuOlLSQ.s:1914   .text:0000000000000ac0 .L0 
GAS LISTING /tmp/ccuOlLSQ.s 			page 78


     /tmp/ccuOlLSQ.s:1917   .text:0000000000000ac4 .L0 
     /tmp/ccuOlLSQ.s:1918   .text:0000000000000ac4 .L0 
     /tmp/ccuOlLSQ.s:1921   .text:0000000000000ac8 .L0 
     /tmp/ccuOlLSQ.s:1922   .text:0000000000000ac8 .L0 
     /tmp/ccuOlLSQ.s:1925   .text:0000000000000acc .L0 
     /tmp/ccuOlLSQ.s:1926   .text:0000000000000acc .L0 
     /tmp/ccuOlLSQ.s:1929   .text:0000000000000ad0 .L0 
     /tmp/ccuOlLSQ.s:1930   .text:0000000000000ad0 .L0 
     /tmp/ccuOlLSQ.s:1931   .text:0000000000000ad0 .L0 
     /tmp/ccuOlLSQ.s:1934   .text:0000000000000ad4 .L0 
     /tmp/ccuOlLSQ.s:1935   .text:0000000000000ad4 .L0 
     /tmp/ccuOlLSQ.s:1938   .text:0000000000000ad8 .L0 
     /tmp/ccuOlLSQ.s:1940   .text:0000000000000adc .L0 
     /tmp/ccuOlLSQ.s:1942   .text:0000000000000ae0 .L0 
     /tmp/ccuOlLSQ.s:1944   .text:0000000000000ae4 .L0 
     /tmp/ccuOlLSQ.s:1946   .text:0000000000000ae8 .L0 
     /tmp/ccuOlLSQ.s:1948   .text:0000000000000aec .L0 
     /tmp/ccuOlLSQ.s:1949   .text:0000000000000aec .L0 
     /tmp/ccuOlLSQ.s:1951   .text:0000000000000af0 .L0 
     /tmp/ccuOlLSQ.s:1955   .text:0000000000000af8 .L0 
     /tmp/ccuOlLSQ.s:1956   .text:0000000000000af8 .L0 
     /tmp/ccuOlLSQ.s:1958   .text:0000000000000afc .L0 
     /tmp/ccuOlLSQ.s:1960   .text:0000000000000b00 .L0 
     /tmp/ccuOlLSQ.s:1964   .text:0000000000000b08 .L0 
     /tmp/ccuOlLSQ.s:1965   .text:0000000000000b08 .L0 
     /tmp/ccuOlLSQ.s:1971   .text:0000000000000b18 .L0 
     /tmp/ccuOlLSQ.s:1972   .text:0000000000000b18 .L0 
     /tmp/ccuOlLSQ.s:1979   .text:0000000000000b28 .L0 
     /tmp/ccuOlLSQ.s:1981   .text:0000000000000b2c .L0 
     /tmp/ccuOlLSQ.s:1984   .text:0000000000000b30 .L0 
     /tmp/ccuOlLSQ.s:1985   .text:0000000000000b30 .L0 
     /tmp/ccuOlLSQ.s:1986   .text:0000000000000b30 .L0 
     /tmp/ccuOlLSQ.s:1988   .text:0000000000000b34 .L0 
     /tmp/ccuOlLSQ.s:1990   .text:0000000000000b38 .L0 
     /tmp/ccuOlLSQ.s:1993   .text:0000000000000b3c .L0 
     /tmp/ccuOlLSQ.s:1999   .text:0000000000000b44 .L0 
     /tmp/ccuOlLSQ.s:2000   .text:0000000000000b44 .L0 
     /tmp/ccuOlLSQ.s:2005   .text:0000000000000b54 .L0 
     /tmp/ccuOlLSQ.s:2009   .text:0000000000000b58 .L0 
     /tmp/ccuOlLSQ.s:2010   .text:0000000000000b58 .L0 
     /tmp/ccuOlLSQ.s:2015   .text:0000000000000b68 .L0 
     /tmp/ccuOlLSQ.s:2019   .text:0000000000000b6c .L0 
     /tmp/ccuOlLSQ.s:2020   .text:0000000000000b6c .L0 
     /tmp/ccuOlLSQ.s:2025   .text:0000000000000b7c .L0 
     /tmp/ccuOlLSQ.s:2029   .text:0000000000000b80 .L0 
     /tmp/ccuOlLSQ.s:2030   .text:0000000000000b80 .L0 
     /tmp/ccuOlLSQ.s:2035   .text:0000000000000b90 .L0 
     /tmp/ccuOlLSQ.s:2040   .text:0000000000000b94 .L0 
     /tmp/ccuOlLSQ.s:2044   .text:0000000000000b98 .L0 
     /tmp/ccuOlLSQ.s:2047   .text:0000000000000ba0 .L0 
     /tmp/ccuOlLSQ.s:2048   .text:0000000000000ba0 .L0 
     /tmp/ccuOlLSQ.s:2054   .text:0000000000000bb0 .L0 
     /tmp/ccuOlLSQ.s:2056   .text:0000000000000bb4 .L0 
     /tmp/ccuOlLSQ.s:2062   .text:0000000000000bc0 .L0 
     /tmp/ccuOlLSQ.s:2063   .text:0000000000000bc0 .L0 
     /tmp/ccuOlLSQ.s:2067   .text:0000000000000bcc .L0 
     /tmp/ccuOlLSQ.s:2068   .text:0000000000000bcc .L0 
GAS LISTING /tmp/ccuOlLSQ.s 			page 79


     /tmp/ccuOlLSQ.s:2072   .text:0000000000000bd8 .L0 
     /tmp/ccuOlLSQ.s:2073   .text:0000000000000bd8 .L0 
     /tmp/ccuOlLSQ.s:2077   .text:0000000000000be4 .L0 
     /tmp/ccuOlLSQ.s:2078   .text:0000000000000be4 .L0 
     /tmp/ccuOlLSQ.s:2082   .text:0000000000000bf0 .L0 
     /tmp/ccuOlLSQ.s:2083   .text:0000000000000bf0 .L0 
     /tmp/ccuOlLSQ.s:2087   .text:0000000000000bfc .L0 
     /tmp/ccuOlLSQ.s:2088   .text:0000000000000bfc .L0 
     /tmp/ccuOlLSQ.s:2092   .text:0000000000000c10 .L0 
     /tmp/ccuOlLSQ.s:2098   .text:0000000000000c10 _Z21memoryAllocationTestsv
     /tmp/ccuOlLSQ.s:2101   .text:0000000000000c10 .L0 
     /tmp/ccuOlLSQ.s:2102   .text:0000000000000c10 .L0 
     /tmp/ccuOlLSQ.s:2103   .text:0000000000000c14 .L0 
     /tmp/ccuOlLSQ.s:2106   .text:0000000000000c1c .L0 
     /tmp/ccuOlLSQ.s:2107   .text:0000000000000c1c .L0 
     /tmp/ccuOlLSQ.s:2109   .text:0000000000000c20 .L0 
     /tmp/ccuOlLSQ.s:2111   .text:0000000000000c20 .L0 
     /tmp/ccuOlLSQ.s:2112   .text:0000000000000c20 .L0 
     /tmp/ccuOlLSQ.s:2115   .text:0000000000000c28 .L0 
     /tmp/ccuOlLSQ.s:2116   .text:0000000000000c2c .L0 
     /tmp/ccuOlLSQ.s:2118   .text:0000000000000c30 .L0 
     /tmp/ccuOlLSQ.s:2119   .text:0000000000000c30 .L0 
     /tmp/ccuOlLSQ.s:2121   .text:0000000000000c34 .L0 
     /tmp/ccuOlLSQ.s:2123   .text:0000000000000c38 .L0 
     /tmp/ccuOlLSQ.s:2129   .text:0000000000000c38 _Z9consumerAPv
     /tmp/ccuOlLSQ.s:2132   .text:0000000000000c38 .L0 
     /tmp/ccuOlLSQ.s:2134   .text:0000000000000c38 .L0 
     /tmp/ccuOlLSQ.s:2135   .text:0000000000000c38 .L0 
     /tmp/ccuOlLSQ.s:2136   .text:0000000000000c38 .L0 
     /tmp/ccuOlLSQ.s:2140   .text:0000000000000c48 .L0 
     /tmp/ccuOlLSQ.s:2141   .text:0000000000000c4c .L0 
     /tmp/ccuOlLSQ.s:2145   .text:0000000000000c58 .L0 
     /tmp/ccuOlLSQ.s:2146   .text:0000000000000c58 .L0 
     /tmp/ccuOlLSQ.s:2147   .text:0000000000000c58 .L0 
     /tmp/ccuOlLSQ.s:2149   .text:0000000000000c5c .L0 
     /tmp/ccuOlLSQ.s:2153   .text:0000000000000c5c .L0 
     /tmp/ccuOlLSQ.s:2154   .text:0000000000000c5c .L0 
     /tmp/ccuOlLSQ.s:2159   .text:0000000000000c70 .L0 
     /tmp/ccuOlLSQ.s:2160   .text:0000000000000c70 .L0 
     /tmp/ccuOlLSQ.s:2164   .text:0000000000000c7c .L0 
     /tmp/ccuOlLSQ.s:2169   .text:0000000000000c8c .L0 
     /tmp/ccuOlLSQ.s:2170   .text:0000000000000c8c .L0 
     /tmp/ccuOlLSQ.s:2174   .text:0000000000000c98 .L0 
     /tmp/ccuOlLSQ.s:2175   .text:0000000000000c98 .L0 
     /tmp/ccuOlLSQ.s:2179   .text:0000000000000ca8 .L0 
     /tmp/ccuOlLSQ.s:2180   .text:0000000000000cac .L0 
     /tmp/ccuOlLSQ.s:2182   .text:0000000000000cb0 .L0 
     /tmp/ccuOlLSQ.s:2183   .text:0000000000000cb0 .L0 
     /tmp/ccuOlLSQ.s:2185   .text:0000000000000cb4 .L0 
     /tmp/ccuOlLSQ.s:2187   .text:0000000000000cb8 .L0 
     /tmp/ccuOlLSQ.s:2192   .text:0000000000000cc0 .L0 
     /tmp/ccuOlLSQ.s:2198   .text:0000000000000cc0 _Z9producerAPv
     /tmp/ccuOlLSQ.s:2201   .text:0000000000000cc0 .L0 
     /tmp/ccuOlLSQ.s:2203   .text:0000000000000cc0 .L0 
     /tmp/ccuOlLSQ.s:2204   .text:0000000000000cc0 .L0 
     /tmp/ccuOlLSQ.s:2205   .text:0000000000000cc0 .L0 
     /tmp/ccuOlLSQ.s:2209   .text:0000000000000cd0 .L0 
GAS LISTING /tmp/ccuOlLSQ.s 			page 80


     /tmp/ccuOlLSQ.s:2210   .text:0000000000000cd4 .L0 
     /tmp/ccuOlLSQ.s:2214   .text:0000000000000ce0 .L0 
     /tmp/ccuOlLSQ.s:2215   .text:0000000000000ce0 .L0 
     /tmp/ccuOlLSQ.s:2216   .text:0000000000000ce0 .L0 
     /tmp/ccuOlLSQ.s:2218   .text:0000000000000ce4 .L0 
     /tmp/ccuOlLSQ.s:2222   .text:0000000000000ce4 .L0 
     /tmp/ccuOlLSQ.s:2223   .text:0000000000000ce4 .L0 
     /tmp/ccuOlLSQ.s:2228   .text:0000000000000cf8 .L0 
     /tmp/ccuOlLSQ.s:2229   .text:0000000000000cf8 .L0 
     /tmp/ccuOlLSQ.s:2234   .text:0000000000000d0c .L0 
     /tmp/ccuOlLSQ.s:2237   .text:0000000000000d14 .L0 
     /tmp/ccuOlLSQ.s:2238   .text:0000000000000d14 .L0 
     /tmp/ccuOlLSQ.s:2241   .text:0000000000000d1c .L0 
     /tmp/ccuOlLSQ.s:2242   .text:0000000000000d1c .L0 
     /tmp/ccuOlLSQ.s:2246   .text:0000000000000d28 .L0 
     /tmp/ccuOlLSQ.s:2247   .text:0000000000000d28 .L0 
     /tmp/ccuOlLSQ.s:2251   .text:0000000000000d38 .L0 
     /tmp/ccuOlLSQ.s:2252   .text:0000000000000d3c .L0 
     /tmp/ccuOlLSQ.s:2254   .text:0000000000000d40 .L0 
     /tmp/ccuOlLSQ.s:2255   .text:0000000000000d40 .L0 
     /tmp/ccuOlLSQ.s:2257   .text:0000000000000d44 .L0 
     /tmp/ccuOlLSQ.s:2259   .text:0000000000000d48 .L0 
     /tmp/ccuOlLSQ.s:2264   .text:0000000000000d50 .L0 
     /tmp/ccuOlLSQ.s:2270   .text:0000000000000d50 _Z8semTest1v
     /tmp/ccuOlLSQ.s:2273   .text:0000000000000d50 .L0 
     /tmp/ccuOlLSQ.s:2274   .text:0000000000000d50 .L0 
     /tmp/ccuOlLSQ.s:2275   .text:0000000000000d54 .L0 
     /tmp/ccuOlLSQ.s:2277   .text:0000000000000d58 .L0 
     /tmp/ccuOlLSQ.s:2279   .text:0000000000000d5c .L0 
     /tmp/ccuOlLSQ.s:2281   .text:0000000000000d5c .L0 
     /tmp/ccuOlLSQ.s:2282   .text:0000000000000d60 .L0 
     /tmp/ccuOlLSQ.s:2283   .text:0000000000000d60 .L0 
     /tmp/ccuOlLSQ.s:2285   .text:0000000000000d64 .L0 
     /tmp/ccuOlLSQ.s:2287   .text:0000000000000d68 .L0 
     /tmp/ccuOlLSQ.s:2293   .text:0000000000000d68 _Z12consoleTest1v
     /tmp/ccuOlLSQ.s:2296   .text:0000000000000d68 .L0 
     /tmp/ccuOlLSQ.s:2297   .text:0000000000000d68 .L0 
     /tmp/ccuOlLSQ.s:2298   .text:0000000000000d6c .L0 
     /tmp/ccuOlLSQ.s:2302   .text:0000000000000d78 .L0 
     /tmp/ccuOlLSQ.s:2303   .text:0000000000000d78 .L0 
     /tmp/ccuOlLSQ.s:2304   .text:0000000000000d78 .L0 
     /tmp/ccuOlLSQ.s:2306   .text:0000000000000d7c .L0 
     /tmp/ccuOlLSQ.s:2310   .text:0000000000000d7c .L0 
     /tmp/ccuOlLSQ.s:2311   .text:0000000000000d7c .L0 
     /tmp/ccuOlLSQ.s:2315   .text:0000000000000d80 .L0 
     /tmp/ccuOlLSQ.s:2318   .text:0000000000000d88 .L0 
     /tmp/ccuOlLSQ.s:2319   .text:0000000000000d88 .L0 
     /tmp/ccuOlLSQ.s:2322   .text:0000000000000d90 .L0 
     /tmp/ccuOlLSQ.s:2329   .text:0000000000000d98 .L0 
     /tmp/ccuOlLSQ.s:2330   .text:0000000000000d9c .L0 
     /tmp/ccuOlLSQ.s:2332   .text:0000000000000da0 .L0 
     /tmp/ccuOlLSQ.s:2333   .text:0000000000000da0 .L0 
     /tmp/ccuOlLSQ.s:2335   .text:0000000000000da4 .L0 
     /tmp/ccuOlLSQ.s:2338   .text:0000000000000da8 .L0 
     /tmp/ccuOlLSQ.s:2340   .text:0000000000000dac .L0 
     /tmp/ccuOlLSQ.s:2346   .text:0000000000000dac _Z12consoleTestsv
     /tmp/ccuOlLSQ.s:2349   .text:0000000000000dac .L0 
GAS LISTING /tmp/ccuOlLSQ.s 			page 81


     /tmp/ccuOlLSQ.s:2350   .text:0000000000000dac .L0 
     /tmp/ccuOlLSQ.s:2351   .text:0000000000000db0 .L0 
     /tmp/ccuOlLSQ.s:2354   .text:0000000000000db8 .L0 
     /tmp/ccuOlLSQ.s:2355   .text:0000000000000db8 .L0 
     /tmp/ccuOlLSQ.s:2357   .text:0000000000000dbc .L0 
     /tmp/ccuOlLSQ.s:2359   .text:0000000000000dbc .L0 
     /tmp/ccuOlLSQ.s:2360   .text:0000000000000dbc .L0 
     /tmp/ccuOlLSQ.s:2363   .text:0000000000000dc4 .L0 
     /tmp/ccuOlLSQ.s:2364   .text:0000000000000dc8 .L0 
     /tmp/ccuOlLSQ.s:2366   .text:0000000000000dcc .L0 
     /tmp/ccuOlLSQ.s:2367   .text:0000000000000dcc .L0 
     /tmp/ccuOlLSQ.s:2369   .text:0000000000000dd0 .L0 
     /tmp/ccuOlLSQ.s:2371   .text:0000000000000dd4 .L0 
     /tmp/ccuOlLSQ.s:2377   .text:0000000000000dd4 _Z7myTestsv
     /tmp/ccuOlLSQ.s:2380   .text:0000000000000dd4 .L0 
     /tmp/ccuOlLSQ.s:2381   .text:0000000000000dd4 .L0 
     /tmp/ccuOlLSQ.s:2382   .text:0000000000000dd8 .L0 
     /tmp/ccuOlLSQ.s:2385   .text:0000000000000de0 .L0 
     /tmp/ccuOlLSQ.s:2386   .text:0000000000000de0 .L0 
     /tmp/ccuOlLSQ.s:2388   .text:0000000000000de4 .L0 
     /tmp/ccuOlLSQ.s:2390   .text:0000000000000de4 .L0 
     /tmp/ccuOlLSQ.s:2391   .text:0000000000000de4 .L0 
     /tmp/ccuOlLSQ.s:2394   .text:0000000000000dec .L0 
     /tmp/ccuOlLSQ.s:2395   .text:0000000000000df0 .L0 
     /tmp/ccuOlLSQ.s:2397   .text:0000000000000df4 .L0 
     /tmp/ccuOlLSQ.s:2398   .text:0000000000000df4 .L0 
     /tmp/ccuOlLSQ.s:2400   .text:0000000000000df8 .L0 
     /tmp/ccuOlLSQ.s:2402   .text:0000000000000dfc .L0 
     /tmp/ccuOlLSQ.s:2408   .text:0000000000000dfc _Z15changeModeTest1v
     /tmp/ccuOlLSQ.s:2411   .text:0000000000000dfc .L0 
     /tmp/ccuOlLSQ.s:2412   .text:0000000000000dfc .L0 
     /tmp/ccuOlLSQ.s:2413   .text:0000000000000e00 .L0 
     /tmp/ccuOlLSQ.s:2415   .text:0000000000000e04 .L0 
     /tmp/ccuOlLSQ.s:2417   .text:0000000000000e08 .L0 
     /tmp/ccuOlLSQ.s:2419   .text:0000000000000e08 .L0 
       src/Tests.cpp:514    .text:0000000000000e08 .L0 
     /tmp/ccuOlLSQ.s:2426   .text:0000000000000e0c .L0 
     /tmp/ccuOlLSQ.s:2427   .text:0000000000000e10 .L0 
     /tmp/ccuOlLSQ.s:2428   .text:0000000000000e10 .L0 
     /tmp/ccuOlLSQ.s:2430   .text:0000000000000e14 .L0 
     /tmp/ccuOlLSQ.s:2432   .text:0000000000000e18 .L0 
     /tmp/ccuOlLSQ.s:2438   .text:0000000000000e18 _Z15changeModeTestsv
     /tmp/ccuOlLSQ.s:2441   .text:0000000000000e18 .L0 
     /tmp/ccuOlLSQ.s:2442   .text:0000000000000e18 .L0 
     /tmp/ccuOlLSQ.s:2443   .text:0000000000000e1c .L0 
     /tmp/ccuOlLSQ.s:2446   .text:0000000000000e24 .L0 
     /tmp/ccuOlLSQ.s:2447   .text:0000000000000e24 .L0 
     /tmp/ccuOlLSQ.s:2449   .text:0000000000000e28 .L0 
     /tmp/ccuOlLSQ.s:2451   .text:0000000000000e28 .L0 
     /tmp/ccuOlLSQ.s:2452   .text:0000000000000e28 .L0 
     /tmp/ccuOlLSQ.s:2455   .text:0000000000000e30 .L0 
     /tmp/ccuOlLSQ.s:2456   .text:0000000000000e34 .L0 
     /tmp/ccuOlLSQ.s:2458   .text:0000000000000e38 .L0 
     /tmp/ccuOlLSQ.s:2459   .text:0000000000000e38 .L0 
     /tmp/ccuOlLSQ.s:2461   .text:0000000000000e3c .L0 
     /tmp/ccuOlLSQ.s:2463   .text:0000000000000e40 .L0 
     /tmp/ccuOlLSQ.s:2501   .data:0000000000000000 string
GAS LISTING /tmp/ccuOlLSQ.s 			page 82


     /tmp/ccuOlLSQ.s:2513   .bss:0000000000000008 itemAvailable
     /tmp/ccuOlLSQ.s:2522   .bss:0000000000000020 spaceAvailable
     /tmp/ccuOlLSQ.s:2526   .bss:0000000000000028 tail
     /tmp/ccuOlLSQ.s:2508   .bss:0000000000000000 head
     /tmp/ccuOlLSQ.s:2517   .bss:0000000000000010 buffer
     /tmp/ccuOlLSQ.s:2498   .data:0000000000000000 .LANCHOR1
     /tmp/ccuOlLSQ.s:2505   .bss:0000000000000000 .LANCHOR0
     /tmp/ccuOlLSQ.s:32     .text._ZN6Thread3runEv:0000000000000018 .L0 
     /tmp/ccuOlLSQ.s:57     .text._ZN14PeriodicThread18periodicActivationEv:0000000000000018 .L0 
     /tmp/ccuOlLSQ.s:2533   .text:0000000000000e40 .L0 
     /tmp/ccuOlLSQ.s:163    .text._ZN14PeriodicThreadD2Ev:0000000000000034 .L0 
     /tmp/ccuOlLSQ.s:210    .text._ZN14PeriodicThreadD0Ev:000000000000004c .L0 
     /tmp/ccuOlLSQ.s:252    .text._ZN12TestPeriodicD2Ev:0000000000000034 .L0 
     /tmp/ccuOlLSQ.s:302    .text._ZN12TestPeriodicD0Ev:000000000000004c .L0 
     /tmp/ccuOlLSQ.s:59     .rodata.str1.8:0000000000000000 .LC0
     /tmp/ccuOlLSQ.s:94     .text:0000000000000024 .L0 
     /tmp/ccuOlLSQ.s:304    .rodata.str1.8:0000000000000008 .LC1
     /tmp/ccuOlLSQ.s:328    .text:0000000000000074 .L0 
     /tmp/ccuOlLSQ.s:342    .rodata.str1.8:0000000000000010 .LC2
     /tmp/ccuOlLSQ.s:368    .text:00000000000000a4 .L0 
     /tmp/ccuOlLSQ.s:387    .text:00000000000000c4 .L0 
     /tmp/ccuOlLSQ.s:345    .rodata.str1.8:0000000000000028 .LC3
     /tmp/ccuOlLSQ.s:399    .text:00000000000000e8 .L0 
     /tmp/ccuOlLSQ.s:438    .rodata.str1.8:0000000000000030 .LC4
     /tmp/ccuOlLSQ.s:464    .text:0000000000000144 .L0 
     /tmp/ccuOlLSQ.s:441    .rodata.str1.8:0000000000000048 .LC5
     /tmp/ccuOlLSQ.s:483    .text:0000000000000164 .L0 
     /tmp/ccuOlLSQ.s:495    .text:0000000000000188 .L0 
     /tmp/ccuOlLSQ.s:552    .text:00000000000001e4 .L0 
     /tmp/ccuOlLSQ.s:577    .text:0000000000000210 .L0 
     /tmp/ccuOlLSQ.s:589    .text:0000000000000234 .L0 
     /tmp/ccuOlLSQ.s:678    .rodata.str1.8:0000000000000050 .LC6
     /tmp/ccuOlLSQ.s:706    .text:00000000000002c8 .L0 
     /tmp/ccuOlLSQ.s:681    .rodata.str1.8:0000000000000060 .LC7
     /tmp/ccuOlLSQ.s:736    .text:000000000000030c .L0 
     /tmp/ccuOlLSQ.s:788    .text:0000000000000360 .L0 
     /tmp/ccuOlLSQ.s:826    .text:00000000000003a8 .L0 
     /tmp/ccuOlLSQ.s:862    .text:00000000000003ec .L0 
     /tmp/ccuOlLSQ.s:684    .rodata.str1.8:0000000000000068 .LC8
     /tmp/ccuOlLSQ.s:873    .text:0000000000000400 .L0 
     /tmp/ccuOlLSQ.s:882    .rodata.str1.8:0000000000000070 .LC9
     /tmp/ccuOlLSQ.s:902    .text:0000000000000424 .L0 
     /tmp/ccuOlLSQ.s:907    .text:0000000000000434 .L0 
     /tmp/ccuOlLSQ.s:909    .text:0000000000000440 .L0 
     /tmp/ccuOlLSQ.s:923    .text:0000000000000460 .L0 
     /tmp/ccuOlLSQ.s:943    .text:0000000000000480 .L0 
     /tmp/ccuOlLSQ.s:953    .rodata.str1.8:0000000000000080 .LC10
     /tmp/ccuOlLSQ.s:979    .text:00000000000004b0 .L0 
     /tmp/ccuOlLSQ.s:1042   .text:0000000000000514 .L0 
     /tmp/ccuOlLSQ.s:1055   .text:0000000000000534 .L0 
     /tmp/ccuOlLSQ.s:1082   .text:0000000000000560 .L0 
     /tmp/ccuOlLSQ.s:1091   .rodata.str1.8:0000000000000098 .LC11
     /tmp/ccuOlLSQ.s:1111   .text:0000000000000584 .L0 
     /tmp/ccuOlLSQ.s:1129   .text:00000000000005b0 .L0 
     /tmp/ccuOlLSQ.s:1149   .text:00000000000005d0 .L0 
     /tmp/ccuOlLSQ.s:1160   .rodata.str1.8:00000000000000a8 .LC12
     /tmp/ccuOlLSQ.s:1187   .text:00000000000005fc .L0 
GAS LISTING /tmp/ccuOlLSQ.s 			page 83


     /tmp/ccuOlLSQ.s:1217   .text:0000000000000640 .L0 
     /tmp/ccuOlLSQ.s:1295   .text:00000000000006c8 .L0 
     /tmp/ccuOlLSQ.s:1163   .rodata.str1.8:00000000000000b8 .LC13
     /tmp/ccuOlLSQ.s:1304   .text:00000000000006dc .L0 
     /tmp/ccuOlLSQ.s:1356   .text:0000000000000740 .L0 
     /tmp/ccuOlLSQ.s:1365   .text:0000000000000754 .L0 
     /tmp/ccuOlLSQ.s:1384   .text:0000000000000770 .L0 
     /tmp/ccuOlLSQ.s:1438   .text:00000000000007bc .L0 
     /tmp/ccuOlLSQ.s:1566   .rodata.str1.8:00000000000000c0 .LC14
     /tmp/ccuOlLSQ.s:1601   .text:000000000000087c .L0 
     /tmp/ccuOlLSQ.s:1569   .rodata.str1.8:00000000000000e8 .LC15
     /tmp/ccuOlLSQ.s:1700   .text:0000000000000958 .L0 
     /tmp/ccuOlLSQ.s:1708   .text:000000000000096c .L0 
     /tmp/ccuOlLSQ.s:1768   .rodata.str1.8:0000000000000118 .LC16
     /tmp/ccuOlLSQ.s:1807   .text:00000000000009ec .L0 
     /tmp/ccuOlLSQ.s:1840   .text:0000000000000a34 .L0 
     /tmp/ccuOlLSQ.s:2000   .text:0000000000000b44 .L0 
     /tmp/ccuOlLSQ.s:2010   .text:0000000000000b58 .L0 
     /tmp/ccuOlLSQ.s:2020   .text:0000000000000b6c .L0 
     /tmp/ccuOlLSQ.s:2030   .text:0000000000000b80 .L0 
     /tmp/ccuOlLSQ.s:1771   .rodata.str1.8:0000000000000160 .LC17
     /tmp/ccuOlLSQ.s:2088   .text:0000000000000bfc .L0 
     /tmp/ccuOlLSQ.s:2136   .text:0000000000000c38 .L0 
     /tmp/ccuOlLSQ.s:2154   .text:0000000000000c5c .L0 
     /tmp/ccuOlLSQ.s:2175   .text:0000000000000c98 .L0 
     /tmp/ccuOlLSQ.s:2205   .text:0000000000000cc0 .L0 
     /tmp/ccuOlLSQ.s:2223   .text:0000000000000ce4 .L0 
     /tmp/ccuOlLSQ.s:2230   .text:0000000000000cfc .L0 
     /tmp/ccuOlLSQ.s:2247   .text:0000000000000d28 .L0 
     /tmp/ccuOlLSQ.s:109    .text:0000000000000050 .L5
     /tmp/ccuOlLSQ.s:87     .text:0000000000000018 .L7
     /tmp/ccuOlLSQ.s:324    .text:0000000000000074 .L18
     /tmp/ccuOlLSQ.s:405    .text:00000000000000fc .L23
     /tmp/ccuOlLSQ.s:419    .text:000000000000011c .L20
     /tmp/ccuOlLSQ.s:384    .text:00000000000000c4 .L22
     /tmp/ccuOlLSQ.s:379    .text:00000000000000bc .L25
     /tmp/ccuOlLSQ.s:501    .text:000000000000019c .L29
     /tmp/ccuOlLSQ.s:515    .text:00000000000001bc .L26
     /tmp/ccuOlLSQ.s:480    .text:0000000000000164 .L28
     /tmp/ccuOlLSQ.s:475    .text:000000000000015c .L31
     /tmp/ccuOlLSQ.s:595    .text:0000000000000248 .L36
     /tmp/ccuOlLSQ.s:603    .text:000000000000025c .L34
     /tmp/ccuOlLSQ.s:613    .text:0000000000000270 .L32
     /tmp/ccuOlLSQ.s:563    .text:00000000000001fc .L38
     /tmp/ccuOlLSQ.s:574    .text:0000000000000210 .L35
     /tmp/ccuOlLSQ.s:569    .text:0000000000000208 .L39
     /tmp/ccuOlLSQ.s:718    .text:00000000000002e4 .L48
     /tmp/ccuOlLSQ.s:755    .text:0000000000000330 .L56
     /tmp/ccuOlLSQ.s:714    .text:00000000000002e0 .L46
     /tmp/ccuOlLSQ.s:794    .text:0000000000000374 .L57
     /tmp/ccuOlLSQ.s:784    .text:0000000000000360 .L60
     /tmp/ccuOlLSQ.s:761    .text:0000000000000334 .L45
     /tmp/ccuOlLSQ.s:740    .text:000000000000031c .L44
     /tmp/ccuOlLSQ.s:808    .text:0000000000000380 .L49
     /tmp/ccuOlLSQ.s:831    .text:00000000000003bc .L58
     /tmp/ccuOlLSQ.s:803    .text:000000000000037c .L52
     /tmp/ccuOlLSQ.s:868    .text:0000000000000400 .L53
GAS LISTING /tmp/ccuOlLSQ.s 			page 84


     /tmp/ccuOlLSQ.s:858    .text:00000000000003ec .L61
     /tmp/ccuOlLSQ.s:837    .text:00000000000003c0 .L51
     /tmp/ccuOlLSQ.s:939    .text:0000000000000480 .L66
     /tmp/ccuOlLSQ.s:927    .text:0000000000000470 .L62
     /tmp/ccuOlLSQ.s:1016   .text:00000000000004e4 .L69
     /tmp/ccuOlLSQ.s:1030   .text:0000000000000500 .L68
     /tmp/ccuOlLSQ.s:997    .text:00000000000004d0 .L73
     /tmp/ccuOlLSQ.s:1078   .text:0000000000000560 .L74
     /tmp/ccuOlLSQ.s:1058   .text:0000000000000544 .L67
     /tmp/ccuOlLSQ.s:1145   .text:00000000000005d0 .L76
     /tmp/ccuOlLSQ.s:1133   .text:00000000000005c0 .L75
     /tmp/ccuOlLSQ.s:1199   .text:0000000000000618 .L83
     /tmp/ccuOlLSQ.s:1238   .text:0000000000000668 .L93
     /tmp/ccuOlLSQ.s:1195   .text:0000000000000614 .L81
     /tmp/ccuOlLSQ.s:1381   .text:0000000000000770 .L84
     /tmp/ccuOlLSQ.s:1309   .text:00000000000006f0 .L94
     /tmp/ccuOlLSQ.s:1291   .text:00000000000006c8 .L96
     /tmp/ccuOlLSQ.s:1301   .text:00000000000006dc .L97
     /tmp/ccuOlLSQ.s:1251   .text:0000000000000674 .L88
     /tmp/ccuOlLSQ.s:1221   .text:0000000000000650 .L79
     /tmp/ccuOlLSQ.s:1370   .text:0000000000000768 .L89
     /tmp/ccuOlLSQ.s:1352   .text:0000000000000740 .L98
     /tmp/ccuOlLSQ.s:1362   .text:0000000000000754 .L99
     /tmp/ccuOlLSQ.s:1316   .text:00000000000006f4 .L85
     /tmp/ccuOlLSQ.s:1243   .text:000000000000066c .L80
     /tmp/ccuOlLSQ.s:1499   .text:000000000000081c .L105
     /tmp/ccuOlLSQ.s:1705   .text:000000000000096c .L112
     /tmp/ccuOlLSQ.s:1697   .text:0000000000000958 .L115
     /tmp/ccuOlLSQ.s:1713   .text:000000000000097c .L111
     /tmp/ccuOlLSQ.s:1873   .text:0000000000000a74 .L120
     /tmp/ccuOlLSQ.s:1837   .text:0000000000000a34 .L140
     /tmp/ccuOlLSQ.s:1813   .text:0000000000000a00 .L123
     /tmp/ccuOlLSQ.s:1883   .text:0000000000000a84 .L124
     /tmp/ccuOlLSQ.s:1996   .text:0000000000000b44 .L125
     /tmp/ccuOlLSQ.s:2007   .text:0000000000000b58 .L127
     /tmp/ccuOlLSQ.s:1953   .text:0000000000000af8 .L129
     /tmp/ccuOlLSQ.s:1962   .text:0000000000000b08 .L130
     /tmp/ccuOlLSQ.s:2017   .text:0000000000000b6c .L131
     /tmp/ccuOlLSQ.s:2027   .text:0000000000000b80 .L133
     /tmp/ccuOlLSQ.s:2042   .text:0000000000000b98 .L134
     /tmp/ccuOlLSQ.s:1844   .text:0000000000000a44 .L119
     /tmp/ccuOlLSQ.s:2059   .text:0000000000000bc0 .L135
     /tmp/ccuOlLSQ.s:2037   .text:0000000000000b94 .L136
     /tmp/ccuOlLSQ.s:2190   .text:0000000000000cbc .L151
     /tmp/ccuOlLSQ.s:2151   .text:0000000000000c5c .L148
     /tmp/ccuOlLSQ.s:2262   .text:0000000000000d4c .L160
     /tmp/ccuOlLSQ.s:2220   .text:0000000000000ce4 .L157
     /tmp/ccuOlLSQ.s:2326   .text:0000000000000d98 .L163
     /tmp/ccuOlLSQ.s:2313   .text:0000000000000d80 .L165
     /tmp/ccuOlLSQ.s:145    .text._ZN14PeriodicThreadD2Ev:0000000000000010 .L0 
     /tmp/ccuOlLSQ.s:187    .text._ZN14PeriodicThreadD0Ev:0000000000000018 .L0 
     /tmp/ccuOlLSQ.s:232    .text._ZN12TestPeriodicD2Ev:0000000000000010 .L0 
     /tmp/ccuOlLSQ.s:277    .text._ZN12TestPeriodicD0Ev:0000000000000018 .L0 
     /tmp/ccuOlLSQ.s:1482   .text:00000000000007f8 .LEHB0
     /tmp/ccuOlLSQ.s:1462   .text:00000000000007dc .LFB33
     /tmp/ccuOlLSQ.s:1485   .text:0000000000000800 .LEHE0
     /tmp/ccuOlLSQ.s:1488   .text:0000000000000808 .LEHB1
GAS LISTING /tmp/ccuOlLSQ.s 			page 85


     /tmp/ccuOlLSQ.s:1491   .text:0000000000000810 .LEHE1
     /tmp/ccuOlLSQ.s:1504   .text:0000000000000820 .L107
     /tmp/ccuOlLSQ.s:1495   .text:0000000000000814 .LEHB2
     /tmp/ccuOlLSQ.s:1498   .text:000000000000081c .LEHE2
     /tmp/ccuOlLSQ.s:1511   .text:0000000000000834 .LEHB3
     /tmp/ccuOlLSQ.s:1514   .text:000000000000083c .LEHE3
     /tmp/ccuOlLSQ.s:5450   .debug_abbrev:0000000000000000 .Ldebug_abbrev0
     /tmp/ccuOlLSQ.s:7641   .debug_str:00000000000002bd .LASF129
     /tmp/ccuOlLSQ.s:7679   .debug_str:0000000000000471 .LASF130
     /tmp/ccuOlLSQ.s:7575   .debug_str:00000000000000a9 .LASF131
     /tmp/ccuOlLSQ.s:7481   .debug_ranges:0000000000000000 .Ldebug_ranges0
     /tmp/ccuOlLSQ.s:7541   .debug_line:0000000000000000 .Ldebug_line0
     /tmp/ccuOlLSQ.s:7583   .debug_str:000000000000010e .LASF0
     /tmp/ccuOlLSQ.s:7813   .debug_str:0000000000000849 .LASF1
     /tmp/ccuOlLSQ.s:7783   .debug_str:0000000000000770 .LASF2
     /tmp/ccuOlLSQ.s:7763   .debug_str:00000000000006d3 .LASF4
     /tmp/ccuOlLSQ.s:7771   .debug_str:0000000000000710 .LASF3
     /tmp/ccuOlLSQ.s:7631   .debug_str:000000000000027e .LASF5
     /tmp/ccuOlLSQ.s:7663   .debug_str:00000000000003f0 .LASF6
     /tmp/ccuOlLSQ.s:7657   .debug_str:00000000000003cf .LASF7
     /tmp/ccuOlLSQ.s:7729   .debug_str:00000000000005d4 .LASF8
     /tmp/ccuOlLSQ.s:7591   .debug_str:0000000000000140 .LASF9
     /tmp/ccuOlLSQ.s:7799   .debug_str:00000000000007ed .LASF10
     /tmp/ccuOlLSQ.s:7635   .debug_str:0000000000000291 .LASF11
     /tmp/ccuOlLSQ.s:7603   .debug_str:00000000000001a4 .LASF12
     /tmp/ccuOlLSQ.s:7665   .debug_str:00000000000003f7 .LASF13
     /tmp/ccuOlLSQ.s:7639   .debug_str:00000000000002ad .LASF14
     /tmp/ccuOlLSQ.s:7749   .debug_str:0000000000000694 .LASF15
     /tmp/ccuOlLSQ.s:7643   .debug_str:0000000000000381 .LASF16
     /tmp/ccuOlLSQ.s:7619   .debug_str:000000000000022c .LASF17
     /tmp/ccuOlLSQ.s:7709   .debug_str:000000000000055e .LASF18
     /tmp/ccuOlLSQ.s:7685   .debug_str:0000000000000496 .LASF19
     /tmp/ccuOlLSQ.s:7655   .debug_str:00000000000003ca .LASF20
     /tmp/ccuOlLSQ.s:7751   .debug_str:00000000000006a0 .LASF132
     /tmp/ccuOlLSQ.s:7645   .debug_str:0000000000000397 .LASF133
     /tmp/ccuOlLSQ.s:7573   .debug_str:00000000000000a2 .LASF21
     /tmp/ccuOlLSQ.s:7613   .debug_str:0000000000000207 .LASF22
     /tmp/ccuOlLSQ.s:7791   .debug_str:00000000000007ad .LASF23
     /tmp/ccuOlLSQ.s:7827   .debug_str:00000000000008cf .LASF24
     /tmp/ccuOlLSQ.s:7769   .debug_str:0000000000000702 .LASF25
     /tmp/ccuOlLSQ.s:7659   .debug_str:00000000000003e2 .LASF26
     /tmp/ccuOlLSQ.s:7607   .debug_str:00000000000001d1 .LASF27
     /tmp/ccuOlLSQ.s:7701   .debug_str:0000000000000506 .LASF28
     /tmp/ccuOlLSQ.s:7747   .debug_str:000000000000067b .LASF29
     /tmp/ccuOlLSQ.s:7567   .debug_str:000000000000006f .LASF134
     /tmp/ccuOlLSQ.s:7581   .debug_str:00000000000000fb .LASF33
     /tmp/ccuOlLSQ.s:7735   .debug_str:00000000000005ff .LASF135
     /tmp/ccuOlLSQ.s:7695   .debug_str:00000000000004d7 .LASF35
     /tmp/ccuOlLSQ.s:7707   .debug_str:0000000000000548 .LASF37
     /tmp/ccuOlLSQ.s:7797   .debug_str:00000000000007de .LASF30
     /tmp/ccuOlLSQ.s:7667   .debug_str:0000000000000407 .LASF31
     /tmp/ccuOlLSQ.s:7671   .debug_str:000000000000042b .LASF32
     /tmp/ccuOlLSQ.s:7599   .debug_str:0000000000000180 .LASF136
     /tmp/ccuOlLSQ.s:7805   .debug_str:000000000000080d .LASF137
     /tmp/ccuOlLSQ.s:7689   .debug_str:00000000000004ab .LASF34
     /tmp/ccuOlLSQ.s:7605   .debug_str:00000000000001b3 .LASF138
     /tmp/ccuOlLSQ.s:7585   .debug_str:000000000000011b .LASF36
GAS LISTING /tmp/ccuOlLSQ.s 			page 86


     /tmp/ccuOlLSQ.s:7767   .debug_str:00000000000006ea .LASF38
     /tmp/ccuOlLSQ.s:7661   .debug_str:00000000000003e9 .LASF139
     /tmp/ccuOlLSQ.s:7821   .debug_str:000000000000089c .LASF140
     /tmp/ccuOlLSQ.s:7743   .debug_str:0000000000000658 .LASF111
     /tmp/ccuOlLSQ.s:7757   .debug_str:00000000000006be .LASF113
     /tmp/ccuOlLSQ.s:7721   .debug_str:000000000000059f .LASF39
     /tmp/ccuOlLSQ.s:7761   .debug_str:00000000000006c9 .LASF40
     /tmp/ccuOlLSQ.s:7565   .debug_str:0000000000000059 .LASF41
     /tmp/ccuOlLSQ.s:257    .text._ZN12TestPeriodicD0Ev:0000000000000000 .LFB64
     /tmp/ccuOlLSQ.s:300    .text._ZN12TestPeriodicD0Ev:000000000000004c .LFE64
     /tmp/ccuOlLSQ.s:6612   .debug_loc:0000000000000000 .LLST7
     /tmp/ccuOlLSQ.s:273    .text._ZN12TestPeriodicD0Ev:0000000000000018 .LBB20
     /tmp/ccuOlLSQ.s:283    .text._ZN12TestPeriodicD0Ev:000000000000002c .LBE20
     /tmp/ccuOlLSQ.s:6630   .debug_loc:000000000000004c .LLST8
     /tmp/ccuOlLSQ.s:274    .text._ZN12TestPeriodicD0Ev:0000000000000018 .LBB21
     /tmp/ccuOlLSQ.s:282    .text._ZN12TestPeriodicD0Ev:000000000000002c .LBE21
     /tmp/ccuOlLSQ.s:280    .text._ZN12TestPeriodicD0Ev:000000000000002c .LVL22
     /tmp/ccuOlLSQ.s:287    .text._ZN12TestPeriodicD0Ev:0000000000000038 .LVL23
     /tmp/ccuOlLSQ.s:7777   .debug_str:0000000000000742 .LASF42
     /tmp/ccuOlLSQ.s:215    .text._ZN12TestPeriodicD2Ev:0000000000000000 .LFB62
     /tmp/ccuOlLSQ.s:248    .text._ZN12TestPeriodicD2Ev:0000000000000034 .LFE62
     /tmp/ccuOlLSQ.s:6641   .debug_loc:0000000000000082 .LLST5
     /tmp/ccuOlLSQ.s:229    .text._ZN12TestPeriodicD2Ev:0000000000000010 .LBB18
     /tmp/ccuOlLSQ.s:237    .text._ZN12TestPeriodicD2Ev:0000000000000024 .LBE18
     /tmp/ccuOlLSQ.s:6655   .debug_loc:00000000000000bb .LLST6
     /tmp/ccuOlLSQ.s:235    .text._ZN12TestPeriodicD2Ev:0000000000000024 .LVL19
     /tmp/ccuOlLSQ.s:7687   .debug_str:000000000000049b .LASF43
     /tmp/ccuOlLSQ.s:7705   .debug_str:0000000000000533 .LASF45
     /tmp/ccuOlLSQ.s:2439   .text:0000000000000e18 .LFB60
     /tmp/ccuOlLSQ.s:2464   .text:0000000000000e40 .LFE60
     /tmp/ccuOlLSQ.s:2453   .text:0000000000000e30 .LVL258
     /tmp/ccuOlLSQ.s:7745   .debug_str:000000000000066b .LASF49
     /tmp/ccuOlLSQ.s:7617   .debug_str:0000000000000217 .LASF51
     /tmp/ccuOlLSQ.s:2409   .text:0000000000000dfc .LFB59
     /tmp/ccuOlLSQ.s:2433   .text:0000000000000e18 .LFE59
     /tmp/ccuOlLSQ.s:7741   .debug_str:000000000000064b .LASF44
     /tmp/ccuOlLSQ.s:7543   .debug_str:0000000000000000 .LASF46
     /tmp/ccuOlLSQ.s:2347   .text:0000000000000dac .LFB58
     /tmp/ccuOlLSQ.s:2372   .text:0000000000000dd4 .LFE58
     /tmp/ccuOlLSQ.s:2361   .text:0000000000000dc4 .LVL256
     /tmp/ccuOlLSQ.s:7725   .debug_str:00000000000005b5 .LASF47
     /tmp/ccuOlLSQ.s:7727   .debug_str:00000000000005c2 .LASF48
     /tmp/ccuOlLSQ.s:2294   .text:0000000000000d68 .LFB57
     /tmp/ccuOlLSQ.s:2341   .text:0000000000000dac .LFE57
     /tmp/ccuOlLSQ.s:2309   .text:0000000000000d7c .LBB50
     /tmp/ccuOlLSQ.s:2327   .text:0000000000000d98 .LBE50
     /tmp/ccuOlLSQ.s:6669   .debug_loc:00000000000000f4 .LLST62
     /tmp/ccuOlLSQ.s:2320   .text:0000000000000d90 .LVL252
     /tmp/ccuOlLSQ.s:7755   .debug_str:00000000000006b5 .LASF50
     /tmp/ccuOlLSQ.s:7571   .debug_str:0000000000000095 .LASF52
     /tmp/ccuOlLSQ.s:2271   .text:0000000000000d50 .LFB56
     /tmp/ccuOlLSQ.s:2288   .text:0000000000000d68 .LFE56
     /tmp/ccuOlLSQ.s:7823   .debug_str:00000000000008ad .LASF53
     /tmp/ccuOlLSQ.s:7789   .debug_str:000000000000079e .LASF54
     /tmp/ccuOlLSQ.s:2199   .text:0000000000000cc0 .LFB55
     /tmp/ccuOlLSQ.s:2265   .text:0000000000000d50 .LFE55
     /tmp/ccuOlLSQ.s:6685   .debug_loc:000000000000013e .LLST61
GAS LISTING /tmp/ccuOlLSQ.s 			page 87


     /tmp/ccuOlLSQ.s:2226   .text:0000000000000cf8 .LVL247
     /tmp/ccuOlLSQ.s:2244   .text:0000000000000d28 .LVL248
     /tmp/ccuOlLSQ.s:7649   .debug_str:00000000000003a9 .LASF55
     /tmp/ccuOlLSQ.s:7713   .debug_str:0000000000000569 .LASF56
     /tmp/ccuOlLSQ.s:2130   .text:0000000000000c38 .LFB54
     /tmp/ccuOlLSQ.s:2193   .text:0000000000000cc0 .LFE54
     /tmp/ccuOlLSQ.s:6703   .debug_loc:000000000000018a .LLST60
     /tmp/ccuOlLSQ.s:2157   .text:0000000000000c70 .LVL241
     /tmp/ccuOlLSQ.s:2167   .text:0000000000000c8c .LVL242
     /tmp/ccuOlLSQ.s:2172   .text:0000000000000c98 .LVL243
     /tmp/ccuOlLSQ.s:7595   .debug_str:0000000000000156 .LASF57
     /tmp/ccuOlLSQ.s:7819   .debug_str:0000000000000885 .LASF58
     /tmp/ccuOlLSQ.s:1778   .text:00000000000009bc .LFB53
     /tmp/ccuOlLSQ.s:2093   .text:0000000000000c10 .LFE53
     /tmp/ccuOlLSQ.s:7553   .debug_str:0000000000000037 .LASF59
     /tmp/ccuOlLSQ.s:7555   .debug_str:000000000000003c .LASF60
     /tmp/ccuOlLSQ.s:6721   .debug_loc:00000000000001d6 .LLST46
     /tmp/ccuOlLSQ.s:7557   .debug_str:0000000000000041 .LASF61
     /tmp/ccuOlLSQ.s:6732   .debug_loc:000000000000020c .LLST47
     /tmp/ccuOlLSQ.s:6751   .debug_loc:0000000000000268 .LLST48
     /tmp/ccuOlLSQ.s:6772   .debug_loc:00000000000002c8 .LLST49
     /tmp/ccuOlLSQ.s:6793   .debug_loc:0000000000000328 .LLST50
     /tmp/ccuOlLSQ.s:6804   .debug_loc:000000000000035e .LLST51
     /tmp/ccuOlLSQ.s:7803   .debug_str:0000000000000807 .LASF62
     /tmp/ccuOlLSQ.s:6835   .debug_loc:00000000000003e7 .LLST52
     /tmp/ccuOlLSQ.s:7549   .debug_str:0000000000000027 .LASF63
     /tmp/ccuOlLSQ.s:6846   .debug_loc:000000000000041d .LLST53
     /tmp/ccuOlLSQ.s:7807   .debug_str:0000000000000837 .LASF64
     /tmp/ccuOlLSQ.s:6857   .debug_loc:0000000000000453 .LLST54
     /tmp/ccuOlLSQ.s:7559   .debug_str:0000000000000046 .LASF65
     /tmp/ccuOlLSQ.s:6868   .debug_loc:0000000000000489 .LLST55
     /tmp/ccuOlLSQ.s:7561   .debug_str:000000000000004b .LASF66
     /tmp/ccuOlLSQ.s:6883   .debug_loc:00000000000004d2 .LLST56
     /tmp/ccuOlLSQ.s:7809   .debug_str:000000000000083d .LASF67
     /tmp/ccuOlLSQ.s:6906   .debug_loc:0000000000000541 .LLST57
     /tmp/ccuOlLSQ.s:7811   .debug_str:0000000000000843 .LASF68
     /tmp/ccuOlLSQ.s:6917   .debug_loc:0000000000000577 .LLST58
     /tmp/ccuOlLSQ.s:1810   .text:00000000000009fc .LBB47
     /tmp/ccuOlLSQ.s:1845   .text:0000000000000a44 .LBE47
     /tmp/ccuOlLSQ.s:6932   .debug_loc:00000000000005c0 .LLST59
     /tmp/ccuOlLSQ.s:1824   .text:0000000000000a18 .LVL189
     /tmp/ccuOlLSQ.s:1842   .text:0000000000000a44 .LVL192
     /tmp/ccuOlLSQ.s:2057   .text:0000000000000bbc .LVL231
     /tmp/ccuOlLSQ.s:1809   .text:00000000000009fc .LVL187
     /tmp/ccuOlLSQ.s:1882   .text:0000000000000a84 .LVL194
     /tmp/ccuOlLSQ.s:1888   .text:0000000000000a90 .LVL195
     /tmp/ccuOlLSQ.s:1895   .text:0000000000000aa0 .LVL197
     /tmp/ccuOlLSQ.s:1903   .text:0000000000000ab0 .LVL200
     /tmp/ccuOlLSQ.s:1952   .text:0000000000000af8 .LVL208
     /tmp/ccuOlLSQ.s:1961   .text:0000000000000b08 .LVL209
     /tmp/ccuOlLSQ.s:1967   .text:0000000000000b14 .LVL210
     /tmp/ccuOlLSQ.s:1975   .text:0000000000000b24 .LVL213
     /tmp/ccuOlLSQ.s:2003   .text:0000000000000b54 .LVL218
     /tmp/ccuOlLSQ.s:2013   .text:0000000000000b68 .LVL221
     /tmp/ccuOlLSQ.s:2023   .text:0000000000000b7c .LVL224
     /tmp/ccuOlLSQ.s:2033   .text:0000000000000b90 .LVL227
     /tmp/ccuOlLSQ.s:2065   .text:0000000000000bcc .LVL232
GAS LISTING /tmp/ccuOlLSQ.s 			page 88


     /tmp/ccuOlLSQ.s:2070   .text:0000000000000bd8 .LVL233
     /tmp/ccuOlLSQ.s:2075   .text:0000000000000be4 .LVL234
     /tmp/ccuOlLSQ.s:2080   .text:0000000000000bf0 .LVL235
     /tmp/ccuOlLSQ.s:2085   .text:0000000000000bfc .LVL236
     /tmp/ccuOlLSQ.s:2090   .text:0000000000000c0c .LVL237
     /tmp/ccuOlLSQ.s:7785   .debug_str:000000000000077e .LASF69
     /tmp/ccuOlLSQ.s:7625   .debug_str:000000000000024c .LASF70
     /tmp/ccuOlLSQ.s:1747   .text:00000000000009a4 .LFB52
     /tmp/ccuOlLSQ.s:1764   .text:00000000000009bc .LFE52
     /tmp/ccuOlLSQ.s:7615   .debug_str:000000000000020c .LASF71
     /tmp/ccuOlLSQ.s:7779   .debug_str:0000000000000758 .LASF72
     /tmp/ccuOlLSQ.s:1576   .text:0000000000000854 .LFB51
     /tmp/ccuOlLSQ.s:1741   .text:00000000000009a4 .LFE51
     /tmp/ccuOlLSQ.s:6947   .debug_loc:0000000000000609 .LLST40
     /tmp/ccuOlLSQ.s:6954   .debug_loc:000000000000062c .LLST41
     /tmp/ccuOlLSQ.s:6965   .debug_loc:0000000000000662 .LLST42
     /tmp/ccuOlLSQ.s:6976   .debug_loc:0000000000000698 .LLST43
     /tmp/ccuOlLSQ.s:6987   .debug_loc:00000000000006ce .LLST44
     /tmp/ccuOlLSQ.s:6998   .debug_loc:0000000000000704 .LLST45
     /tmp/ccuOlLSQ.s:1603   .text:000000000000088c .LVL155
     /tmp/ccuOlLSQ.s:1608   .text:0000000000000898 .LVL156
     /tmp/ccuOlLSQ.s:1619   .text:00000000000008b0 .LVL158
     /tmp/ccuOlLSQ.s:1627   .text:00000000000008c0 .LVL161
     /tmp/ccuOlLSQ.s:1635   .text:00000000000008d0 .LVL164
     /tmp/ccuOlLSQ.s:1644   .text:00000000000008e4 .LVL167
     /tmp/ccuOlLSQ.s:1652   .text:00000000000008f4 .LVL170
     /tmp/ccuOlLSQ.s:1669   .text:0000000000000918 .LVL172
     /tmp/ccuOlLSQ.s:1674   .text:0000000000000924 .LVL173
     /tmp/ccuOlLSQ.s:1679   .text:0000000000000930 .LVL174
     /tmp/ccuOlLSQ.s:1684   .text:000000000000093c .LVL175
     /tmp/ccuOlLSQ.s:1689   .text:0000000000000948 .LVL176
     /tmp/ccuOlLSQ.s:1696   .text:0000000000000958 .LVL177
     /tmp/ccuOlLSQ.s:1702   .text:0000000000000968 .LVL178
     /tmp/ccuOlLSQ.s:1711   .text:000000000000097c .LVL181
     /tmp/ccuOlLSQ.s:66     .text:0000000000000000 .LFB50
     /tmp/ccuOlLSQ.s:124    .text:0000000000000064 .LFE50
     /tmp/ccuOlLSQ.s:7013   .debug_loc:000000000000074d .LLST0
     /tmp/ccuOlLSQ.s:83     .text:0000000000000014 .LBB14
     /tmp/ccuOlLSQ.s:110    .text:0000000000000050 .LBE14
     /tmp/ccuOlLSQ.s:7027   .debug_loc:0000000000000786 .LLST1
     /tmp/ccuOlLSQ.s:96     .text:0000000000000034 .LVL5
     /tmp/ccuOlLSQ.s:103    .text:0000000000000048 .LVL6
     /tmp/ccuOlLSQ.s:7621   .debug_str:0000000000000242 .LASF141
     /tmp/ccuOlLSQ.s:7611   .debug_str:00000000000001f1 .LASF73
     /tmp/ccuOlLSQ.s:1419   .text:000000000000079c .LFB48
     /tmp/ccuOlLSQ.s:1454   .text:00000000000007dc .LFE48
     /tmp/ccuOlLSQ.s:7043   .debug_loc:00000000000007d0 .LLST37
     /tmp/ccuOlLSQ.s:7061   .debug_loc:000000000000081c .LLST38
     /tmp/ccuOlLSQ.s:1437   .text:00000000000007bc .LVL146
     /tmp/ccuOlLSQ.s:7597   .debug_str:0000000000000168 .LASF74
     /tmp/ccuOlLSQ.s:168    .text._ZN14PeriodicThreadD0Ev:0000000000000000 .LFB47
     /tmp/ccuOlLSQ.s:208    .text._ZN14PeriodicThreadD0Ev:000000000000004c .LFE47
     /tmp/ccuOlLSQ.s:7075   .debug_loc:0000000000000855 .LLST3
     /tmp/ccuOlLSQ.s:184    .text._ZN14PeriodicThreadD0Ev:0000000000000018 .LBB16
     /tmp/ccuOlLSQ.s:192    .text._ZN14PeriodicThreadD0Ev:000000000000002c .LBE16
     /tmp/ccuOlLSQ.s:7093   .debug_loc:00000000000008a1 .LLST4
     /tmp/ccuOlLSQ.s:190    .text._ZN14PeriodicThreadD0Ev:000000000000002c .LVL14
GAS LISTING /tmp/ccuOlLSQ.s 			page 89


     /tmp/ccuOlLSQ.s:195    .text._ZN14PeriodicThreadD0Ev:0000000000000038 .LVL15
     /tmp/ccuOlLSQ.s:7825   .debug_str:00000000000008b7 .LASF75
     /tmp/ccuOlLSQ.s:131    .text._ZN14PeriodicThreadD2Ev:0000000000000000 .LFB45
     /tmp/ccuOlLSQ.s:159    .text._ZN14PeriodicThreadD2Ev:0000000000000034 .LFE45
     /tmp/ccuOlLSQ.s:7104   .debug_loc:00000000000008d7 .LLST2
     /tmp/ccuOlLSQ.s:148    .text._ZN14PeriodicThreadD2Ev:0000000000000024 .LVL11
     /tmp/ccuOlLSQ.s:7781   .debug_str:0000000000000768 .LASF76
     /tmp/ccuOlLSQ.s:7601   .debug_str:0000000000000198 .LASF77
     /tmp/ccuOlLSQ.s:2378   .text:0000000000000dd4 .LFB42
     /tmp/ccuOlLSQ.s:2403   .text:0000000000000dfc .LFE42
     /tmp/ccuOlLSQ.s:2392   .text:0000000000000dec .LVL257
     /tmp/ccuOlLSQ.s:7653   .debug_str:00000000000003bb .LASF78
     /tmp/ccuOlLSQ.s:7579   .debug_str:00000000000000e7 .LASF79
     /tmp/ccuOlLSQ.s:1395   .text:0000000000000784 .LFB41
     /tmp/ccuOlLSQ.s:1413   .text:000000000000079c .LFE41
     /tmp/ccuOlLSQ.s:7793   .debug_str:00000000000007b2 .LASF80
     /tmp/ccuOlLSQ.s:7675   .debug_str:000000000000044d .LASF81
     /tmp/ccuOlLSQ.s:2099   .text:0000000000000c10 .LFB40
     /tmp/ccuOlLSQ.s:2124   .text:0000000000000c38 .LFE40
     /tmp/ccuOlLSQ.s:2113   .text:0000000000000c28 .LVL238
     /tmp/ccuOlLSQ.s:7693   .debug_str:00000000000004c9 .LASF82
     /tmp/ccuOlLSQ.s:7609   .debug_str:00000000000001de .LASF86
     /tmp/ccuOlLSQ.s:1170   .text:00000000000005e4 .LFB39
     /tmp/ccuOlLSQ.s:1389   .text:0000000000000784 .LFE39
     /tmp/ccuOlLSQ.s:7593   .debug_str:0000000000000150 .LASF83
     /tmp/ccuOlLSQ.s:7118   .debug_loc:0000000000000910 .LLST31
     /tmp/ccuOlLSQ.s:1190   .text:000000000000060c .LBB38
     /tmp/ccuOlLSQ.s:1222   .text:0000000000000650 .LBE38
     /tmp/ccuOlLSQ.s:7129   .debug_loc:0000000000000946 .LLST32
     /tmp/ccuOlLSQ.s:1207   .text:000000000000062c .LVL120
     /tmp/ccuOlLSQ.s:1219   .text:0000000000000650 .LVL121
     /tmp/ccuOlLSQ.s:1248   .text:0000000000000670 .LBB40
     /tmp/ccuOlLSQ.s:1311   .text:00000000000006f0 .LBE40
     /tmp/ccuOlLSQ.s:7140   .debug_loc:000000000000097c .LLST33
     /tmp/ccuOlLSQ.s:7673   .debug_str:0000000000000446 .LASF84
     /tmp/ccuOlLSQ.s:7151   .debug_loc:00000000000009b2 .LLST34
     /tmp/ccuOlLSQ.s:1264   .text:0000000000000694 .LVL125
     /tmp/ccuOlLSQ.s:1275   .text:00000000000006ac .LVL127
     /tmp/ccuOlLSQ.s:1298   .text:00000000000006d8 .LVL131
     /tmp/ccuOlLSQ.s:1306   .text:00000000000006ec .LVL132
     /tmp/ccuOlLSQ.s:1312   .text:00000000000006f0 .LBB43
     /tmp/ccuOlLSQ.s:1372   .text:0000000000000768 .LBE43
     /tmp/ccuOlLSQ.s:7162   .debug_loc:00000000000009e8 .LLST35
     /tmp/ccuOlLSQ.s:7173   .debug_loc:0000000000000a1e .LLST36
     /tmp/ccuOlLSQ.s:1328   .text:0000000000000714 .LVL134
     /tmp/ccuOlLSQ.s:1336   .text:0000000000000724 .LVL136
     /tmp/ccuOlLSQ.s:1359   .text:0000000000000750 .LVL140
     /tmp/ccuOlLSQ.s:1367   .text:0000000000000764 .LVL141
     /tmp/ccuOlLSQ.s:1189   .text:000000000000060c .LVL117
     /tmp/ccuOlLSQ.s:1386   .text:0000000000000780 .LVL144
     /tmp/ccuOlLSQ.s:7651   .debug_str:00000000000003b3 .LASF85
     /tmp/ccuOlLSQ.s:7801   .debug_str:00000000000007fb .LASF87
     /tmp/ccuOlLSQ.s:1098   .text:0000000000000574 .LFB38
     /tmp/ccuOlLSQ.s:1156   .text:00000000000005e4 .LFE38
     /tmp/ccuOlLSQ.s:7184   .debug_loc:0000000000000a54 .LLST29
     /tmp/ccuOlLSQ.s:7197   .debug_loc:0000000000000a8c .LLST30
     /tmp/ccuOlLSQ.s:1113   .text:0000000000000594 .LVL108
GAS LISTING /tmp/ccuOlLSQ.s 			page 90


     /tmp/ccuOlLSQ.s:1118   .text:00000000000005a0 .LVL109
     /tmp/ccuOlLSQ.s:1124   .text:00000000000005ac .LVL111
     /tmp/ccuOlLSQ.s:1132   .text:00000000000005c0 .LVL113
     /tmp/ccuOlLSQ.s:1152   .text:00000000000005e0 .LVL116
     /tmp/ccuOlLSQ.s:7773   .debug_str:0000000000000722 .LASF88
     /tmp/ccuOlLSQ.s:7691   .debug_str:00000000000004b2 .LASF89
     /tmp/ccuOlLSQ.s:960    .text:0000000000000494 .LFB37
     /tmp/ccuOlLSQ.s:1087   .text:0000000000000574 .LFE37
     /tmp/ccuOlLSQ.s:7224   .debug_loc:0000000000000ad2 .LLST25
     /tmp/ccuOlLSQ.s:7236   .debug_loc:0000000000000b09 .LLST26
     /tmp/ccuOlLSQ.s:7252   .debug_loc:0000000000000b53 .LLST27
     /tmp/ccuOlLSQ.s:7268   .debug_loc:0000000000000b9d .LLST28
     /tmp/ccuOlLSQ.s:1026   .text:00000000000004fc .LVL98
     /tmp/ccuOlLSQ.s:981    .text:00000000000004c0 .LVL93
     /tmp/ccuOlLSQ.s:1039   .text:0000000000000514 .LVL100
     /tmp/ccuOlLSQ.s:1044   .text:0000000000000524 .LVL101
     /tmp/ccuOlLSQ.s:1057   .text:0000000000000544 .LVL103
     /tmp/ccuOlLSQ.s:1084   .text:0000000000000570 .LVL107
     /tmp/ccuOlLSQ.s:7545   .debug_str:0000000000000012 .LASF90
     /tmp/ccuOlLSQ.s:7775   .debug_str:0000000000000734 .LASF91
     /tmp/ccuOlLSQ.s:889    .text:0000000000000414 .LFB36
     /tmp/ccuOlLSQ.s:949    .text:0000000000000494 .LFE36
     /tmp/ccuOlLSQ.s:7279   .debug_loc:0000000000000bd3 .LLST23
     /tmp/ccuOlLSQ.s:7292   .debug_loc:0000000000000c0c .LLST24
     /tmp/ccuOlLSQ.s:904    .text:0000000000000434 .LVL84
     /tmp/ccuOlLSQ.s:918    .text:000000000000045c .LVL87
     /tmp/ccuOlLSQ.s:926    .text:0000000000000470 .LVL89
     /tmp/ccuOlLSQ.s:946    .text:0000000000000490 .LVL92
     /tmp/ccuOlLSQ.s:7547   .debug_str:000000000000001c .LASF92
     /tmp/ccuOlLSQ.s:7697   .debug_str:00000000000004e5 .LASF93
     /tmp/ccuOlLSQ.s:691    .text:00000000000002b4 .LFB35
     /tmp/ccuOlLSQ.s:878    .text:0000000000000414 .LFE35
     /tmp/ccuOlLSQ.s:709    .text:00000000000002d8 .LBB26
     /tmp/ccuOlLSQ.s:741    .text:000000000000031c .LBE26
     /tmp/ccuOlLSQ.s:7303   .debug_loc:0000000000000c42 .LLST17
     /tmp/ccuOlLSQ.s:726    .text:00000000000002f8 .LVL63
     /tmp/ccuOlLSQ.s:738    .text:000000000000031c .LVL64
     /tmp/ccuOlLSQ.s:757    .text:0000000000000330 .LBB27
     /tmp/ccuOlLSQ.s:796    .text:0000000000000374 .LBE27
     /tmp/ccuOlLSQ.s:7314   .debug_loc:0000000000000c78 .LLST18
     /tmp/ccuOlLSQ.s:7325   .debug_loc:0000000000000cae .LLST19
     /tmp/ccuOlLSQ.s:773    .text:0000000000000354 .LVL67
     /tmp/ccuOlLSQ.s:791    .text:0000000000000370 .LVL71
     /tmp/ccuOlLSQ.s:797    .text:0000000000000374 .LBB30
     /tmp/ccuOlLSQ.s:832    .text:00000000000003bc .LBE30
     /tmp/ccuOlLSQ.s:7332   .debug_loc:0000000000000cd1 .LLST20
     /tmp/ccuOlLSQ.s:816    .text:0000000000000394 .LVL75
     /tmp/ccuOlLSQ.s:828    .text:00000000000003b8 .LVL76
     /tmp/ccuOlLSQ.s:833    .text:00000000000003bc .LBB31
     /tmp/ccuOlLSQ.s:870    .text:0000000000000400 .LBE31
     /tmp/ccuOlLSQ.s:7339   .debug_loc:0000000000000cf4 .LLST21
     /tmp/ccuOlLSQ.s:7350   .debug_loc:0000000000000d2a .LLST22
     /tmp/ccuOlLSQ.s:849    .text:00000000000003e0 .LVL78
     /tmp/ccuOlLSQ.s:865    .text:00000000000003fc .LVL82
     /tmp/ccuOlLSQ.s:708    .text:00000000000002d8 .LVL60
     /tmp/ccuOlLSQ.s:875    .text:0000000000000410 .LVL83
     /tmp/ccuOlLSQ.s:7733   .debug_str:00000000000005f3 .LASF94
GAS LISTING /tmp/ccuOlLSQ.s 			page 91


     /tmp/ccuOlLSQ.s:7817   .debug_str:0000000000000874 .LASF95
     /tmp/ccuOlLSQ.s:1546   .text:000000000000083c .LFB34
     /tmp/ccuOlLSQ.s:1562   .text:0000000000000854 .LFE34
     /tmp/ccuOlLSQ.s:1560   .text:0000000000000854 .LVL154
     /tmp/ccuOlLSQ.s:7719   .debug_str:0000000000000593 .LASF96
     /tmp/ccuOlLSQ.s:7739   .debug_str:000000000000063a .LASF97
     /tmp/ccuOlLSQ.s:1516   .text:000000000000083c .LFE33
     /tmp/ccuOlLSQ.s:7357   .debug_loc:0000000000000d4d .LLST39
     /tmp/ccuOlLSQ.s:1484   .text:0000000000000800 .LVL148
     /tmp/ccuOlLSQ.s:1490   .text:0000000000000810 .LVL149
     /tmp/ccuOlLSQ.s:1497   .text:000000000000081c .LVL150
     /tmp/ccuOlLSQ.s:1509   .text:0000000000000830 .LVL152
     /tmp/ccuOlLSQ.s:1513   .text:000000000000083c .LVL153
     /tmp/ccuOlLSQ.s:7633   .debug_str:0000000000000285 .LASF98
     /tmp/ccuOlLSQ.s:7723   .debug_str:00000000000005a4 .LASF100
     /tmp/ccuOlLSQ.s:657    .text:000000000000029c .LFB32
     /tmp/ccuOlLSQ.s:674    .text:00000000000002b4 .LFE32
     /tmp/ccuOlLSQ.s:7717   .debug_str:0000000000000587 .LASF99
     /tmp/ccuOlLSQ.s:7699   .debug_str:00000000000004f5 .LASF101
     /tmp/ccuOlLSQ.s:634    .text:0000000000000284 .LFB31
     /tmp/ccuOlLSQ.s:651    .text:000000000000029c .LFE31
     /tmp/ccuOlLSQ.s:7703   .debug_str:000000000000051e .LASF102
     /tmp/ccuOlLSQ.s:7577   .debug_str:00000000000000cc .LASF103
     /tmp/ccuOlLSQ.s:536    .text:00000000000001d0 .LFB30
     /tmp/ccuOlLSQ.s:628    .text:0000000000000284 .LFE30
     /tmp/ccuOlLSQ.s:7364   .debug_loc:0000000000000d70 .LLST15
     /tmp/ccuOlLSQ.s:558    .text:00000000000001f4 .LBB25
     /tmp/ccuOlLSQ.s:614    .text:0000000000000270 .LBE25
     /tmp/ccuOlLSQ.s:7378   .debug_loc:0000000000000da9 .LLST16
     /tmp/ccuOlLSQ.s:567    .text:0000000000000204 .LVL53
     /tmp/ccuOlLSQ.s:573    .text:0000000000000210 .LVL54
     /tmp/ccuOlLSQ.s:579    .text:0000000000000220 .LVL55
     /tmp/ccuOlLSQ.s:586    .text:0000000000000234 .LVL56
     /tmp/ccuOlLSQ.s:591    .text:0000000000000244 .LVL57
     /tmp/ccuOlLSQ.s:555    .text:00000000000001f4 .LVL51
     /tmp/ccuOlLSQ.s:7569   .debug_str:0000000000000085 .LASF104
     /tmp/ccuOlLSQ.s:7629   .debug_str:0000000000000268 .LASF105
     /tmp/ccuOlLSQ.s:448    .text:0000000000000130 .LFB29
     /tmp/ccuOlLSQ.s:530    .text:00000000000001d0 .LFE29
     /tmp/ccuOlLSQ.s:7390   .debug_loc:0000000000000de0 .LLST13
     /tmp/ccuOlLSQ.s:470    .text:0000000000000154 .LBB24
     /tmp/ccuOlLSQ.s:516    .text:00000000000001bc .LBE24
     /tmp/ccuOlLSQ.s:7404   .debug_loc:0000000000000e19 .LLST14
     /tmp/ccuOlLSQ.s:479    .text:0000000000000164 .LVL43
     /tmp/ccuOlLSQ.s:485    .text:0000000000000174 .LVL44
     /tmp/ccuOlLSQ.s:492    .text:0000000000000188 .LVL45
     /tmp/ccuOlLSQ.s:497    .text:0000000000000198 .LVL46
     /tmp/ccuOlLSQ.s:467    .text:0000000000000154 .LVL41
     /tmp/ccuOlLSQ.s:7753   .debug_str:00000000000006a5 .LASF106
     /tmp/ccuOlLSQ.s:7795   .debug_str:00000000000007c8 .LASF107
     /tmp/ccuOlLSQ.s:352    .text:0000000000000090 .LFB28
     /tmp/ccuOlLSQ.s:434    .text:0000000000000130 .LFE28
     /tmp/ccuOlLSQ.s:7416   .debug_loc:0000000000000e50 .LLST11
     /tmp/ccuOlLSQ.s:374    .text:00000000000000b4 .LBB23
     /tmp/ccuOlLSQ.s:420    .text:000000000000011c .LBE23
     /tmp/ccuOlLSQ.s:7430   .debug_loc:0000000000000e89 .LLST12
     /tmp/ccuOlLSQ.s:383    .text:00000000000000c4 .LVL33
GAS LISTING /tmp/ccuOlLSQ.s 			page 92


     /tmp/ccuOlLSQ.s:389    .text:00000000000000d4 .LVL34
     /tmp/ccuOlLSQ.s:396    .text:00000000000000e8 .LVL35
     /tmp/ccuOlLSQ.s:401    .text:00000000000000f8 .LVL36
     /tmp/ccuOlLSQ.s:371    .text:00000000000000b4 .LVL31
     /tmp/ccuOlLSQ.s:7829   .debug_str:00000000000008de .LASF108
     /tmp/ccuOlLSQ.s:7669   .debug_str:0000000000000421 .LASF109
     /tmp/ccuOlLSQ.s:311    .text:0000000000000064 .LFB27
     /tmp/ccuOlLSQ.s:338    .text:0000000000000090 .LFE27
     /tmp/ccuOlLSQ.s:7711   .debug_str:0000000000000564 .LASF110
     /tmp/ccuOlLSQ.s:7442   .debug_loc:0000000000000ec0 .LLST10
     /tmp/ccuOlLSQ.s:330    .text:0000000000000084 .LVL27
     /tmp/ccuOlLSQ.s:334    .text:000000000000008c .LVL28
     /tmp/ccuOlLSQ.s:37     .text._ZN14PeriodicThread18periodicActivationEv:0000000000000000 .LFB26
     /tmp/ccuOlLSQ.s:55     .text._ZN14PeriodicThread18periodicActivationEv:0000000000000018 .LFE26
     /tmp/ccuOlLSQ.s:11     .text._ZN6Thread3runEv:0000000000000000 .LFB25
     /tmp/ccuOlLSQ.s:30     .text._ZN6Thread3runEv:0000000000000018 .LFE25
     /tmp/ccuOlLSQ.s:7681   .debug_str:000000000000047f .LASF112
     /tmp/ccuOlLSQ.s:7683   .debug_str:0000000000000486 .LASF114
     /tmp/ccuOlLSQ.s:7759   .debug_str:00000000000006c4 .LASF115
     /tmp/ccuOlLSQ.s:7677   .debug_str:0000000000000468 .LASF116
     /tmp/ccuOlLSQ.s:7647   .debug_str:000000000000039e .LASF117
     /tmp/ccuOlLSQ.s:7623   .debug_str:0000000000000247 .LASF118
     /tmp/ccuOlLSQ.s:7551   .debug_str:000000000000002d .LASF119
     /tmp/ccuOlLSQ.s:7737   .debug_str:0000000000000627 .LASF120
     /tmp/ccuOlLSQ.s:7731   .debug_str:00000000000005e7 .LASF121
     /tmp/ccuOlLSQ.s:7627   .debug_str:0000000000000262 .LASF122
     /tmp/ccuOlLSQ.s:7637   .debug_str:00000000000002a0 .LASF123
     /tmp/ccuOlLSQ.s:7715   .debug_str:0000000000000578 .LASF124
     /tmp/ccuOlLSQ.s:7587   .debug_str:000000000000012b .LASF125
     /tmp/ccuOlLSQ.s:7563   .debug_str:0000000000000050 .LASF126
     /tmp/ccuOlLSQ.s:7787   .debug_str:000000000000078f .LASF142
     /tmp/ccuOlLSQ.s:7815   .debug_str:000000000000085c .LASF143
     /tmp/ccuOlLSQ.s:7589   .debug_str:0000000000000134 .LASF127
     /tmp/ccuOlLSQ.s:7765   .debug_str:00000000000006da .LASF128
     /tmp/ccuOlLSQ.s:260    .text._ZN12TestPeriodicD0Ev:0000000000000000 .LVL20
     /tmp/ccuOlLSQ.s:295    .text._ZN12TestPeriodicD0Ev:0000000000000044 .LVL24
     /tmp/ccuOlLSQ.s:272    .text._ZN12TestPeriodicD0Ev:0000000000000018 .LVL21
     /tmp/ccuOlLSQ.s:219    .text._ZN12TestPeriodicD2Ev:0000000000000000 .LVL17
     /tmp/ccuOlLSQ.s:228    .text._ZN12TestPeriodicD2Ev:0000000000000010 .LVL18
     /tmp/ccuOlLSQ.s:2308   .text:0000000000000d7c .LVL250
     /tmp/ccuOlLSQ.s:2312   .text:0000000000000d80 .LVL251
     /tmp/ccuOlLSQ.s:2323   .text:0000000000000d94 .LVL253
     /tmp/ccuOlLSQ.s:2325   .text:0000000000000d98 .LVL254
     /tmp/ccuOlLSQ.s:2336   .text:0000000000000da4 .LVL255
     /tmp/ccuOlLSQ.s:2202   .text:0000000000000cc0 .LVL245
     /tmp/ccuOlLSQ.s:2219   .text:0000000000000ce4 .LVL246
     /tmp/ccuOlLSQ.s:2261   .text:0000000000000d4c .LVL249
     /tmp/ccuOlLSQ.s:2133   .text:0000000000000c38 .LVL239
     /tmp/ccuOlLSQ.s:2150   .text:0000000000000c5c .LVL240
     /tmp/ccuOlLSQ.s:2189   .text:0000000000000cbc .LVL244
     /tmp/ccuOlLSQ.s:1897   .text:0000000000000aa4 .LVL198
     /tmp/ccuOlLSQ.s:1901   .text:0000000000000aa8 .LVL199
     /tmp/ccuOlLSQ.s:1905   .text:0000000000000ab4 .LVL201
     /tmp/ccuOlLSQ.s:1919   .text:0000000000000ac8 .LVL203
     /tmp/ccuOlLSQ.s:1995   .text:0000000000000b44 .LVL216
     /tmp/ccuOlLSQ.s:2001   .text:0000000000000b4c .LVL217
     /tmp/ccuOlLSQ.s:1915   .text:0000000000000ac4 .LVL202
GAS LISTING /tmp/ccuOlLSQ.s 			page 93


     /tmp/ccuOlLSQ.s:2006   .text:0000000000000b58 .LVL219
     /tmp/ccuOlLSQ.s:2011   .text:0000000000000b60 .LVL220
     /tmp/ccuOlLSQ.s:1923   .text:0000000000000acc .LVL204
     /tmp/ccuOlLSQ.s:1927   .text:0000000000000ad0 .LVL205
     /tmp/ccuOlLSQ.s:2050   .text:0000000000000ba8 .LVL230
     /tmp/ccuOlLSQ.s:1932   .text:0000000000000ad4 .LVL206
     /tmp/ccuOlLSQ.s:1936   .text:0000000000000ad8 .LVL207
     /tmp/ccuOlLSQ.s:1969   .text:0000000000000b18 .LVL211
     /tmp/ccuOlLSQ.s:1973   .text:0000000000000b1c .LVL212
     /tmp/ccuOlLSQ.s:2016   .text:0000000000000b6c .LVL222
     /tmp/ccuOlLSQ.s:1977   .text:0000000000000b28 .LVL214
     /tmp/ccuOlLSQ.s:2021   .text:0000000000000b74 .LVL223
     /tmp/ccuOlLSQ.s:2026   .text:0000000000000b80 .LVL225
     /tmp/ccuOlLSQ.s:2031   .text:0000000000000b88 .LVL226
     /tmp/ccuOlLSQ.s:1983   .text:0000000000000b30 .LVL215
     /tmp/ccuOlLSQ.s:1814   .text:0000000000000a00 .LVL188
     /tmp/ccuOlLSQ.s:1834   .text:0000000000000a30 .LVL190
     /tmp/ccuOlLSQ.s:1836   .text:0000000000000a34 .LVL191
     /tmp/ccuOlLSQ.s:1872   .text:0000000000000a74 .LVL193
     /tmp/ccuOlLSQ.s:1890   .text:0000000000000a94 .LVL196
     /tmp/ccuOlLSQ.s:1610   .text:000000000000089c .LVL157
     /tmp/ccuOlLSQ.s:1722   .text:0000000000000988 .LVL182
     /tmp/ccuOlLSQ.s:1621   .text:00000000000008b4 .LVL159
     /tmp/ccuOlLSQ.s:1625   .text:00000000000008b8 .LVL160
     /tmp/ccuOlLSQ.s:1725   .text:000000000000098c .LVL183
     /tmp/ccuOlLSQ.s:1629   .text:00000000000008c4 .LVL162
     /tmp/ccuOlLSQ.s:1633   .text:00000000000008c8 .LVL163
     /tmp/ccuOlLSQ.s:1728   .text:0000000000000990 .LVL184
     /tmp/ccuOlLSQ.s:1637   .text:00000000000008d4 .LVL165
     /tmp/ccuOlLSQ.s:1641   .text:00000000000008d8 .LVL166
     /tmp/ccuOlLSQ.s:1731   .text:0000000000000994 .LVL185
     /tmp/ccuOlLSQ.s:1646   .text:00000000000008e8 .LVL168
     /tmp/ccuOlLSQ.s:1650   .text:00000000000008ec .LVL169
     /tmp/ccuOlLSQ.s:1734   .text:0000000000000998 .LVL186
     /tmp/ccuOlLSQ.s:1667   .text:0000000000000910 .LVL171
     /tmp/ccuOlLSQ.s:1704   .text:000000000000096c .LVL179
     /tmp/ccuOlLSQ.s:1709   .text:0000000000000974 .LVL180
     /tmp/ccuOlLSQ.s:70     .text:0000000000000000 .LVL2
     /tmp/ccuOlLSQ.s:86     .text:0000000000000018 .LVL4
     /tmp/ccuOlLSQ.s:82     .text:0000000000000014 .LVL3
     /tmp/ccuOlLSQ.s:106    .text:000000000000004c .LVL7
     /tmp/ccuOlLSQ.s:108    .text:0000000000000050 .LVL8
     /tmp/ccuOlLSQ.s:119    .text:000000000000005c .LVL9
     /tmp/ccuOlLSQ.s:1422   .text:000000000000079c .LVL145
     /tmp/ccuOlLSQ.s:1449   .text:00000000000007d4 .LVL147
     /tmp/ccuOlLSQ.s:171    .text._ZN14PeriodicThreadD0Ev:0000000000000000 .LVL12
     /tmp/ccuOlLSQ.s:203    .text._ZN14PeriodicThreadD0Ev:0000000000000044 .LVL16
     /tmp/ccuOlLSQ.s:183    .text._ZN14PeriodicThreadD0Ev:0000000000000018 .LVL13
     /tmp/ccuOlLSQ.s:134    .text._ZN14PeriodicThreadD2Ev:0000000000000000 .LVL10
     /tmp/ccuOlLSQ.s:1242   .text:000000000000066c .LVL123
     /tmp/ccuOlLSQ.s:1376   .text:000000000000076c .LVL142
     /tmp/ccuOlLSQ.s:1380   .text:0000000000000770 .LVL143
     /tmp/ccuOlLSQ.s:1194   .text:0000000000000614 .LVL118
     /tmp/ccuOlLSQ.s:1237   .text:0000000000000668 .LVL122
     /tmp/ccuOlLSQ.s:1252   .text:0000000000000674 .LVL124
     /tmp/ccuOlLSQ.s:1287   .text:00000000000006c4 .LVL128
     /tmp/ccuOlLSQ.s:1290   .text:00000000000006c8 .LVL129
GAS LISTING /tmp/ccuOlLSQ.s 			page 94


     /tmp/ccuOlLSQ.s:1315   .text:00000000000006f4 .LVL133
     /tmp/ccuOlLSQ.s:1270   .text:000000000000069c .LVL126
     /tmp/ccuOlLSQ.s:1296   .text:00000000000006d0 .LVL130
     /tmp/ccuOlLSQ.s:1348   .text:000000000000073c .LVL137
     /tmp/ccuOlLSQ.s:1351   .text:0000000000000740 .LVL138
     /tmp/ccuOlLSQ.s:1334   .text:000000000000071c .LVL135
     /tmp/ccuOlLSQ.s:1357   .text:0000000000000748 .LVL139
     /tmp/ccuOlLSQ.s:1122   .text:00000000000005a4 .LVL110
     /tmp/ccuOlLSQ.s:1130   .text:00000000000005b8 .LVL112
     /tmp/ccuOlLSQ.s:1144   .text:00000000000005d0 .LVL114
     /tmp/ccuOlLSQ.s:1150   .text:00000000000005d8 .LVL115
     /tmp/ccuOlLSQ.s:996    .text:00000000000004d0 .LVL94
     /tmp/ccuOlLSQ.s:1049   .text:000000000000052c .LVL102
     /tmp/ccuOlLSQ.s:1073   .text:0000000000000558 .LVL105
     /tmp/ccuOlLSQ.s:1077   .text:0000000000000560 .LVL106
     /tmp/ccuOlLSQ.s:1068   .text:0000000000000550 .LVL104
     /tmp/ccuOlLSQ.s:1015   .text:00000000000004e4 .LVL97
     /tmp/ccuOlLSQ.s:1029   .text:0000000000000500 .LVL99
     /tmp/ccuOlLSQ.s:912    .text:0000000000000450 .LVL85
     /tmp/ccuOlLSQ.s:916    .text:0000000000000454 .LVL86
     /tmp/ccuOlLSQ.s:924    .text:0000000000000468 .LVL88
     /tmp/ccuOlLSQ.s:938    .text:0000000000000480 .LVL90
     /tmp/ccuOlLSQ.s:944    .text:0000000000000488 .LVL91
     /tmp/ccuOlLSQ.s:713    .text:00000000000002e0 .LVL61
     /tmp/ccuOlLSQ.s:754    .text:0000000000000330 .LVL65
     /tmp/ccuOlLSQ.s:760    .text:0000000000000334 .LVL66
     /tmp/ccuOlLSQ.s:780    .text:000000000000035c .LVL68
     /tmp/ccuOlLSQ.s:783    .text:0000000000000360 .LVL69
     /tmp/ccuOlLSQ.s:800    .text:0000000000000378 .LVL72
     /tmp/ccuOlLSQ.s:789    .text:0000000000000368 .LVL70
     /tmp/ccuOlLSQ.s:802    .text:000000000000037c .LVL73
     /tmp/ccuOlLSQ.s:836    .text:00000000000003c0 .LVL77
     /tmp/ccuOlLSQ.s:855    .text:00000000000003e8 .LVL79
     /tmp/ccuOlLSQ.s:857    .text:00000000000003ec .LVL80
     /tmp/ccuOlLSQ.s:863    .text:00000000000003f4 .LVL81
     /tmp/ccuOlLSQ.s:1503   .text:0000000000000820 .LVL151
     /tmp/ccuOlLSQ.s:539    .text:00000000000001d0 .LVL49
     /tmp/ccuOlLSQ.s:553    .text:00000000000001ec .LVL50
     /tmp/ccuOlLSQ.s:562    .text:00000000000001fc .LVL52
     /tmp/ccuOlLSQ.s:623    .text:000000000000027c .LVL59
     /tmp/ccuOlLSQ.s:451    .text:0000000000000130 .LVL39
     /tmp/ccuOlLSQ.s:465    .text:000000000000014c .LVL40
     /tmp/ccuOlLSQ.s:474    .text:000000000000015c .LVL42
     /tmp/ccuOlLSQ.s:525    .text:00000000000001c8 .LVL48
     /tmp/ccuOlLSQ.s:355    .text:0000000000000090 .LVL29
     /tmp/ccuOlLSQ.s:369    .text:00000000000000ac .LVL30
     /tmp/ccuOlLSQ.s:378    .text:00000000000000bc .LVL32
     /tmp/ccuOlLSQ.s:429    .text:0000000000000128 .LVL38
     /tmp/ccuOlLSQ.s:314    .text:0000000000000064 .LVL25
     /tmp/ccuOlLSQ.s:323    .text:0000000000000074 .LVL26
     /tmp/ccuOlLSQ.s:2534   .debug_info:0000000000000000 .Ldebug_info0
     /tmp/ccuOlLSQ.s:5      .text:0000000000000000 .Ltext0
     /tmp/ccuOlLSQ.s:2529   .text:0000000000000e40 .Letext0
     /tmp/ccuOlLSQ.s:765    .text:000000000000033c .LBB28
     /tmp/ccuOlLSQ.s:776    .text:0000000000000358 .LBE28
     /tmp/ccuOlLSQ.s:785    .text:0000000000000360 .LBB29
     /tmp/ccuOlLSQ.s:795    .text:0000000000000374 .LBE29
GAS LISTING /tmp/ccuOlLSQ.s 			page 95


     /tmp/ccuOlLSQ.s:841    .text:00000000000003c8 .LBB32
     /tmp/ccuOlLSQ.s:852    .text:00000000000003e4 .LBE32
     /tmp/ccuOlLSQ.s:859    .text:00000000000003ec .LBB33
     /tmp/ccuOlLSQ.s:869    .text:0000000000000400 .LBE33
     /tmp/ccuOlLSQ.s:987    .text:00000000000004c0 .LBB34
     /tmp/ccuOlLSQ.s:990    .text:00000000000004c4 .LBE34
     /tmp/ccuOlLSQ.s:998    .text:00000000000004d0 .LBB37
     /tmp/ccuOlLSQ.s:1032   .text:0000000000000500 .LBE37
     /tmp/ccuOlLSQ.s:999    .text:00000000000004d0 .LBB35
     /tmp/ccuOlLSQ.s:1012   .text:00000000000004e0 .LBE35
     /tmp/ccuOlLSQ.s:1021   .text:00000000000004f0 .LBB36
     /tmp/ccuOlLSQ.s:1031   .text:0000000000000500 .LBE36
     /tmp/ccuOlLSQ.s:1256   .text:000000000000067c .LBB41
     /tmp/ccuOlLSQ.s:1283   .text:00000000000006c0 .LBE41
     /tmp/ccuOlLSQ.s:1292   .text:00000000000006c8 .LBB42
     /tmp/ccuOlLSQ.s:1310   .text:00000000000006f0 .LBE42
     /tmp/ccuOlLSQ.s:1320   .text:00000000000006fc .LBB44
     /tmp/ccuOlLSQ.s:1344   .text:0000000000000738 .LBE44
     /tmp/ccuOlLSQ.s:1353   .text:0000000000000740 .LBB45
     /tmp/ccuOlLSQ.s:1371   .text:0000000000000768 .LBE45
     /tmp/ccuOlLSQ.s:1991   .text:0000000000000b3c .LBB48
     /tmp/ccuOlLSQ.s:1997   .text:0000000000000b44 .LBE48
     /tmp/ccuOlLSQ.s:2038   .text:0000000000000b94 .LBB49
     /tmp/ccuOlLSQ.s:2060   .text:0000000000000bc0 .LBE49
     /tmp/ccuOlLSQ.s:1519   .gcc_except_table:0000000000000000 .LLSDA33
                           .group:0000000000000000 _ZN14PeriodicThreadD5Ev
                           .group:0000000000000000 _ZN12TestPeriodicD5Ev

UNDEFINED SYMBOLS
_Z11printStringPKc
_Z8printIntiii
_ZN6ThreadD2Ev
_ZdlPv
thread_dispatch
thread_exit
mem_alloc
mem_free
HEAP_END_ADDR
HEAP_START_ADDR
_ZN14PeriodicThreadC2Em
_Znwm
_ZN6Thread5startEv
_Unwind_Resume
__gxx_personality_v0
sem_wait
putc
sem_signal
getc
