GAS LISTING /tmp/cceOdYyw.s 			page 1


   1              		.file	"Tests.cpp"
   2              		.option pic
   3              		.option norelax
   4              		.text
   5              	.Ltext0:
   6              		.section	.text._ZN6Thread3runEv,"axG",@progbits,_ZN6Thread3runEv,comdat
   7              		.align	2
   8              		.weak	_ZN6Thread3runEv
  10              	_ZN6Thread3runEv:
  11              	.LFB21:
  12              		.file 1 "src/../h/syscall_cpp.hpp"
   1:src/../h/syscall_cpp.hpp **** //
   2:src/../h/syscall_cpp.hpp **** // Created by os on 4/8/22.
   3:src/../h/syscall_cpp.hpp **** //
   4:src/../h/syscall_cpp.hpp **** 
   5:src/../h/syscall_cpp.hpp **** #ifndef PROJECT_BASE_V1_0_SYSCALL_CPP_HPP
   6:src/../h/syscall_cpp.hpp **** #define PROJECT_BASE_V1_0_SYSCALL_CPP_HPP
   7:src/../h/syscall_cpp.hpp **** 
   8:src/../h/syscall_cpp.hpp **** #include "syscall_c.h"
   9:src/../h/syscall_cpp.hpp **** #include "PCB.hpp"
  10:src/../h/syscall_cpp.hpp **** #include "KSemaphore.hpp"
  11:src/../h/syscall_cpp.hpp **** 
  12:src/../h/syscall_cpp.hpp **** void * operator new(size_t size);
  13:src/../h/syscall_cpp.hpp **** 
  14:src/../h/syscall_cpp.hpp **** void operator delete(void * p);
  15:src/../h/syscall_cpp.hpp **** 
  16:src/../h/syscall_cpp.hpp **** class Thread
  17:src/../h/syscall_cpp.hpp **** {
  18:src/../h/syscall_cpp.hpp **** public:
  19:src/../h/syscall_cpp.hpp ****     Thread(void (*body)(void*), void* args);
  20:src/../h/syscall_cpp.hpp **** 
  21:src/../h/syscall_cpp.hpp ****     virtual ~Thread();
  22:src/../h/syscall_cpp.hpp **** 
  23:src/../h/syscall_cpp.hpp ****     int start();
  24:src/../h/syscall_cpp.hpp **** 
  25:src/../h/syscall_cpp.hpp ****     static void dispatch();
  26:src/../h/syscall_cpp.hpp **** 
  27:src/../h/syscall_cpp.hpp ****     static void sleep(time_t);
  28:src/../h/syscall_cpp.hpp **** 
  29:src/../h/syscall_cpp.hpp ****     //todo
  30:src/../h/syscall_cpp.hpp ****     //vrati u private
  31:src/../h/syscall_cpp.hpp ****     //ovde je samo za potrebe testiranja
  32:src/../h/syscall_cpp.hpp ****     thread_t myHandle;
  33:src/../h/syscall_cpp.hpp **** protected:
  34:src/../h/syscall_cpp.hpp ****     Thread();
  35:src/../h/syscall_cpp.hpp **** 
  36:src/../h/syscall_cpp.hpp ****     virtual void run() {}
  13              		.loc 1 36 18
  14              		.cfi_startproc
  15              	.LVL0:
  16 0000 130101FF 		addi	sp,sp,-16
  17              		.cfi_def_cfa_offset 16
  18 0004 23348100 		sd	s0,8(sp)
  19              		.cfi_offset 8, -8
  20 0008 13040101 		addi	s0,sp,16
  21              		.cfi_def_cfa 8, 0
  22              		.loc 1 36 25 is_stmt 0
GAS LISTING /tmp/cceOdYyw.s 			page 2


  23 000c 03348100 		ld	s0,8(sp)
  24              		.cfi_restore 8
  25              		.cfi_def_cfa 2, 16
  26 0010 13010101 		addi	sp,sp,16
  27              		.cfi_def_cfa_offset 0
  28 0014 67800000 		jr	ra
  29              		.cfi_endproc
  30              	.LFE21:
  32              		.section	.text._ZN14PeriodicThread18periodicActivationEv,"axG",@progbits,_ZN14PeriodicThread18peri
  33              		.align	2
  34              		.weak	_ZN14PeriodicThread18periodicActivationEv
  36              	_ZN14PeriodicThread18periodicActivationEv:
  37              	.LFB22:
  37:src/../h/syscall_cpp.hpp **** private:
  38:src/../h/syscall_cpp.hpp ****     void (*f)(void*);
  39:src/../h/syscall_cpp.hpp ****     void* args;
  40:src/../h/syscall_cpp.hpp ****     static void runner(void* t);
  41:src/../h/syscall_cpp.hpp **** };
  42:src/../h/syscall_cpp.hpp **** 
  43:src/../h/syscall_cpp.hpp **** class Semaphore
  44:src/../h/syscall_cpp.hpp **** {
  45:src/../h/syscall_cpp.hpp **** public:
  46:src/../h/syscall_cpp.hpp ****     Semaphore(unsigned init = 1);
  47:src/../h/syscall_cpp.hpp **** 
  48:src/../h/syscall_cpp.hpp ****     virtual ~Semaphore();
  49:src/../h/syscall_cpp.hpp **** 
  50:src/../h/syscall_cpp.hpp ****     int wait();
  51:src/../h/syscall_cpp.hpp ****     int signal();
  52:src/../h/syscall_cpp.hpp **** 
  53:src/../h/syscall_cpp.hpp **** private:
  54:src/../h/syscall_cpp.hpp ****     sem_t myHandle;
  55:src/../h/syscall_cpp.hpp **** };
  56:src/../h/syscall_cpp.hpp **** 
  57:src/../h/syscall_cpp.hpp **** class Console
  58:src/../h/syscall_cpp.hpp **** {
  59:src/../h/syscall_cpp.hpp **** public:
  60:src/../h/syscall_cpp.hpp ****     static char getc();
  61:src/../h/syscall_cpp.hpp ****     static void putc(char);
  62:src/../h/syscall_cpp.hpp **** };
  63:src/../h/syscall_cpp.hpp **** 
  64:src/../h/syscall_cpp.hpp **** class PeriodicThread : public Thread
  65:src/../h/syscall_cpp.hpp **** {
  66:src/../h/syscall_cpp.hpp **** protected:
  67:src/../h/syscall_cpp.hpp ****     PeriodicThread(time_t period);
  68:src/../h/syscall_cpp.hpp ****     virtual void periodicActivation() {};
  38              		.loc 1 68 18 is_stmt 1
  39              		.cfi_startproc
  40              	.LVL1:
  41 0000 130101FF 		addi	sp,sp,-16
  42              		.cfi_def_cfa_offset 16
  43 0004 23348100 		sd	s0,8(sp)
  44              		.cfi_offset 8, -8
  45 0008 13040101 		addi	s0,sp,16
  46              		.cfi_def_cfa 8, 0
  47              		.loc 1 68 40 is_stmt 0
  48 000c 03348100 		ld	s0,8(sp)
  49              		.cfi_restore 8
GAS LISTING /tmp/cceOdYyw.s 			page 3


  50              		.cfi_def_cfa 2, 16
  51 0010 13010101 		addi	sp,sp,16
  52              		.cfi_def_cfa_offset 0
  53 0014 67800000 		jr	ra
  54              		.cfi_endproc
  55              	.LFE22:
  57              		.section	.rodata.str1.8,"aMS",@progbits,1
  58              		.align	3
  59              	.LC0:
  60 0000 49646C65 		.string	"Idle\n"
  60      0A00
  61              		.text
  62              		.align	2
  63              		.globl	_Z4idlePv
  65              	_Z4idlePv:
  66              	.LFB23:
  67              		.file 2 "src/Tests.cpp"
   1:src/Tests.cpp **** //
   2:src/Tests.cpp **** // Created by os on 5/5/22.
   3:src/Tests.cpp **** //
   4:src/Tests.cpp **** 
   5:src/Tests.cpp **** #include "../h/Tests.hpp"
   6:src/Tests.cpp **** #include "../lib/console.h"
   7:src/Tests.cpp **** 
   8:src/Tests.cpp **** void idle(void* args)
   9:src/Tests.cpp **** {
  68              		.loc 2 9 1 is_stmt 1
  69              		.cfi_startproc
  70              	.LVL2:
  71 0000 130101FF 		addi	sp,sp,-16
  72              		.cfi_def_cfa_offset 16
  73 0004 23341100 		sd	ra,8(sp)
  74 0008 23308100 		sd	s0,0(sp)
  75              		.cfi_offset 1, -8
  76              		.cfi_offset 8, -16
  77 000c 13040101 		addi	s0,sp,16
  78              		.cfi_def_cfa 8, 0
  79              	.LVL3:
  80              	.L6:
  10:src/Tests.cpp ****     while(true)
  81              		.loc 2 10 5 discriminator 1
  11:src/Tests.cpp ****     {
  12:src/Tests.cpp ****         Riscv::printString("Idle\n");
  82              		.loc 2 12 9 discriminator 1
  83              		.loc 2 12 27 is_stmt 0 discriminator 1
  84 0010 17050000 		lla	a0,.LC0
  84      13050500 
  85 0018 97000000 		call	_ZN5Riscv11printStringEPKc@plt
  85      E7800000 
  86              	.LVL4:
  13:src/Tests.cpp ****         thread_dispatch();
  87              		.loc 2 13 9 is_stmt 1 discriminator 1
  88              		.loc 2 13 24 is_stmt 0 discriminator 1
  89 0020 97000000 		call	thread_dispatch@plt
  89      E7800000 
  90              	.LVL5:
  10:src/Tests.cpp ****     while(true)
GAS LISTING /tmp/cceOdYyw.s 			page 4


  91              		.loc 2 10 5 is_stmt 1 discriminator 1
  92 0028 6FF09FFE 		j	.L6
  93              		.cfi_endproc
  94              	.LFE23:
  96              		.section	.rodata.str1.8
  97 0006 0000     		.align	3
  98              	.LC1:
  99 0008 54687265 		.string	"Thread 1 started...\n"
  99      61642031 
  99      20737461 
  99      72746564 
  99      2E2E2E0A 
 100 001d 000000   		.align	3
 101              	.LC2:
 102 0020 69203A20 		.string	"i : "
 102      00
 103 0025 000000   		.align	3
 104              	.LC3:
 105 0028 0A00     		.string	"\n"
 106              		.text
 107              		.align	2
 108              		.globl	_Z15thread1FunctionPv
 110              	_Z15thread1FunctionPv:
 111              	.LFB24:
  14:src/Tests.cpp ****     }
  15:src/Tests.cpp **** }
  16:src/Tests.cpp **** 
  17:src/Tests.cpp **** void thread1Function(void* p)
  18:src/Tests.cpp **** {
 112              		.loc 2 18 1
 113              		.cfi_startproc
 114              	.LVL6:
 115 002c 130101FE 		addi	sp,sp,-32
 116              		.cfi_def_cfa_offset 32
 117 0030 233C1100 		sd	ra,24(sp)
 118 0034 23388100 		sd	s0,16(sp)
 119 0038 23349100 		sd	s1,8(sp)
 120              		.cfi_offset 1, -8
 121              		.cfi_offset 8, -16
 122              		.cfi_offset 9, -24
 123 003c 13040102 		addi	s0,sp,32
 124              		.cfi_def_cfa 8, 0
  19:src/Tests.cpp ****     Riscv::printString("Thread 1 started...\n");
 125              		.loc 2 19 5
 126              		.loc 2 19 23 is_stmt 0
 127 0040 17050000 		lla	a0,.LC1
 127      13050500 
 128              	.LVL7:
 129 0048 97000000 		call	_ZN5Riscv11printStringEPKc@plt
 129      E7800000 
 130              	.LVL8:
  20:src/Tests.cpp ****     uint64 num = 10000;
 131              		.loc 2 20 5 is_stmt 1
  21:src/Tests.cpp ****     for(uint64 i = 0; i < num;i++)
 132              		.loc 2 21 5
 133              	.LBB20:
 134              		.loc 2 21 16 is_stmt 0
GAS LISTING /tmp/cceOdYyw.s 			page 5


 135 0050 93040000 		li	s1,0
 136 0054 6F00C003 		j	.L11
 137              	.LVL9:
 138              	.L13:
  22:src/Tests.cpp ****     {
  23:src/Tests.cpp ****         if(i % 150 == 0 && i > 0)
  24:src/Tests.cpp ****             thread_dispatch();
 139              		.loc 2 24 13 is_stmt 1
 140              		.loc 2 24 28 is_stmt 0
 141 0058 97000000 		call	thread_dispatch@plt
 141      E7800000 
 142              	.LVL10:
 143              	.L10:
  25:src/Tests.cpp ****         Riscv::printString("i : ");
 144              		.loc 2 25 9 is_stmt 1 discriminator 2
 145              		.loc 2 25 27 is_stmt 0 discriminator 2
 146 0060 17050000 		lla	a0,.LC2
 146      13050500 
 147 0068 97000000 		call	_ZN5Riscv11printStringEPKc@plt
 147      E7800000 
 148              	.LVL11:
  26:src/Tests.cpp ****         Riscv::printInteger(i);
 149              		.loc 2 26 9 is_stmt 1 discriminator 2
 150              		.loc 2 26 28 is_stmt 0 discriminator 2
 151 0070 13850400 		mv	a0,s1
 152 0074 97000000 		call	_ZN5Riscv12printIntegerEm@plt
 152      E7800000 
 153              	.LVL12:
  27:src/Tests.cpp ****         Riscv::printString("\n");
 154              		.loc 2 27 9 is_stmt 1 discriminator 2
 155              		.loc 2 27 27 is_stmt 0 discriminator 2
 156 007c 17050000 		lla	a0,.LC3
 156      13050500 
 157 0084 97000000 		call	_ZN5Riscv11printStringEPKc@plt
 157      E7800000 
 158              	.LVL13:
  21:src/Tests.cpp ****     {
 159              		.loc 2 21 5 is_stmt 1 discriminator 2
 160 008c 93841400 		addi	s1,s1,1
 161              	.LVL14:
 162              	.L11:
  21:src/Tests.cpp ****     {
 163              		.loc 2 21 25 discriminator 1
 164 0090 B7270000 		li	a5,8192
 165 0094 9387F770 		addi	a5,a5,1807
 166 0098 63EC9700 		bgtu	s1,a5,.L8
  23:src/Tests.cpp ****             thread_dispatch();
 167              		.loc 2 23 9
  23:src/Tests.cpp ****             thread_dispatch();
 168              		.loc 2 23 14 is_stmt 0
 169 009c 93076009 		li	a5,150
 170 00a0 B3F7F402 		remu	a5,s1,a5
  23:src/Tests.cpp ****             thread_dispatch();
 171              		.loc 2 23 9
 172 00a4 E39E07FA 		bnez	a5,.L10
  23:src/Tests.cpp ****             thread_dispatch();
 173              		.loc 2 23 25 discriminator 1
GAS LISTING /tmp/cceOdYyw.s 			page 6


 174 00a8 E38C04FA 		beqz	s1,.L10
 175 00ac 6FF0DFFA 		j	.L13
 176              	.L8:
 177              	.LBE20:
  28:src/Tests.cpp ****     }
  29:src/Tests.cpp **** }
 178              		.loc 2 29 1
 179 00b0 83308101 		ld	ra,24(sp)
 180              		.cfi_restore 1
 181 00b4 03340101 		ld	s0,16(sp)
 182              		.cfi_restore 8
 183              		.cfi_def_cfa 2, 32
 184 00b8 83348100 		ld	s1,8(sp)
 185              		.cfi_restore 9
 186              	.LVL15:
 187 00bc 13010102 		addi	sp,sp,32
 188              		.cfi_def_cfa_offset 0
 189 00c0 67800000 		jr	ra
 190              		.cfi_endproc
 191              	.LFE24:
 193              		.section	.rodata.str1.8
 194 002a 00000000 		.align	3
 194      0000
 195              	.LC4:
 196 0030 54687265 		.string	"Thread 2 started...\n"
 196      61642032 
 196      20737461 
 196      72746564 
 196      2E2E2E0A 
 197 0045 000000   		.align	3
 198              	.LC5:
 199 0048 6A203A20 		.string	"j : "
 199      00
 200              		.text
 201              		.align	2
 202              		.globl	_Z15thread2FunctionPv
 204              	_Z15thread2FunctionPv:
 205              	.LFB25:
  30:src/Tests.cpp **** 
  31:src/Tests.cpp **** void thread2Function(void* p)
  32:src/Tests.cpp **** {
 206              		.loc 2 32 1 is_stmt 1
 207              		.cfi_startproc
 208              	.LVL16:
 209 00c4 130101FE 		addi	sp,sp,-32
 210              		.cfi_def_cfa_offset 32
 211 00c8 233C1100 		sd	ra,24(sp)
 212 00cc 23388100 		sd	s0,16(sp)
 213 00d0 23349100 		sd	s1,8(sp)
 214              		.cfi_offset 1, -8
 215              		.cfi_offset 8, -16
 216              		.cfi_offset 9, -24
 217 00d4 13040102 		addi	s0,sp,32
 218              		.cfi_def_cfa 8, 0
  33:src/Tests.cpp ****     Riscv::printString("Thread 2 started...\n");
 219              		.loc 2 33 5
 220              		.loc 2 33 23 is_stmt 0
GAS LISTING /tmp/cceOdYyw.s 			page 7


 221 00d8 17050000 		lla	a0,.LC4
 221      13050500 
 222              	.LVL17:
 223 00e0 97000000 		call	_ZN5Riscv11printStringEPKc@plt
 223      E7800000 
 224              	.LVL18:
  34:src/Tests.cpp ****     uint64 num = 10000;
 225              		.loc 2 34 5 is_stmt 1
  35:src/Tests.cpp ****     for(uint64 j = 0; j < num;j++)
 226              		.loc 2 35 5
 227              	.LBB21:
 228              		.loc 2 35 16 is_stmt 0
 229 00e8 93040000 		li	s1,0
 230 00ec 6F00C003 		j	.L17
 231              	.LVL19:
 232              	.L19:
  36:src/Tests.cpp ****     {
  37:src/Tests.cpp ****         if(j % 50 == 0 && j > 0)
  38:src/Tests.cpp ****             thread_dispatch();
 233              		.loc 2 38 13 is_stmt 1
 234              		.loc 2 38 28 is_stmt 0
 235 00f0 97000000 		call	thread_dispatch@plt
 235      E7800000 
 236              	.LVL20:
 237              	.L16:
  39:src/Tests.cpp ****         Riscv::printString("j : ");
 238              		.loc 2 39 9 is_stmt 1 discriminator 2
 239              		.loc 2 39 27 is_stmt 0 discriminator 2
 240 00f8 17050000 		lla	a0,.LC5
 240      13050500 
 241 0100 97000000 		call	_ZN5Riscv11printStringEPKc@plt
 241      E7800000 
 242              	.LVL21:
  40:src/Tests.cpp ****         Riscv::printInteger(j);
 243              		.loc 2 40 9 is_stmt 1 discriminator 2
 244              		.loc 2 40 28 is_stmt 0 discriminator 2
 245 0108 13850400 		mv	a0,s1
 246 010c 97000000 		call	_ZN5Riscv12printIntegerEm@plt
 246      E7800000 
 247              	.LVL22:
  41:src/Tests.cpp ****         Riscv::printString("\n");
 248              		.loc 2 41 9 is_stmt 1 discriminator 2
 249              		.loc 2 41 27 is_stmt 0 discriminator 2
 250 0114 17050000 		lla	a0,.LC3
 250      13050500 
 251 011c 97000000 		call	_ZN5Riscv11printStringEPKc@plt
 251      E7800000 
 252              	.LVL23:
  35:src/Tests.cpp ****     {
 253              		.loc 2 35 5 is_stmt 1 discriminator 2
 254 0124 93841400 		addi	s1,s1,1
 255              	.LVL24:
 256              	.L17:
  35:src/Tests.cpp ****     {
 257              		.loc 2 35 25 discriminator 1
 258 0128 B7270000 		li	a5,8192
 259 012c 9387F770 		addi	a5,a5,1807
GAS LISTING /tmp/cceOdYyw.s 			page 8


 260 0130 63EC9700 		bgtu	s1,a5,.L14
  37:src/Tests.cpp ****             thread_dispatch();
 261              		.loc 2 37 9
  37:src/Tests.cpp ****             thread_dispatch();
 262              		.loc 2 37 14 is_stmt 0
 263 0134 93072003 		li	a5,50
 264 0138 B3F7F402 		remu	a5,s1,a5
  37:src/Tests.cpp ****             thread_dispatch();
 265              		.loc 2 37 9
 266 013c E39E07FA 		bnez	a5,.L16
  37:src/Tests.cpp ****             thread_dispatch();
 267              		.loc 2 37 24 discriminator 1
 268 0140 E38C04FA 		beqz	s1,.L16
 269 0144 6FF0DFFA 		j	.L19
 270              	.L14:
 271              	.LBE21:
  42:src/Tests.cpp ****     }
  43:src/Tests.cpp **** }
 272              		.loc 2 43 1
 273 0148 83308101 		ld	ra,24(sp)
 274              		.cfi_restore 1
 275 014c 03340101 		ld	s0,16(sp)
 276              		.cfi_restore 8
 277              		.cfi_def_cfa 2, 32
 278 0150 83348100 		ld	s1,8(sp)
 279              		.cfi_restore 9
 280              	.LVL25:
 281 0154 13010102 		addi	sp,sp,32
 282              		.cfi_def_cfa_offset 0
 283 0158 67800000 		jr	ra
 284              		.cfi_endproc
 285              	.LFE25:
 287              		.align	2
 288              		.globl	_ZN12TestPeriodic18periodicActivationEv
 290              	_ZN12TestPeriodic18periodicActivationEv:
 291              	.LFB46:
  44:src/Tests.cpp **** 
  45:src/Tests.cpp **** void thread2FunctionTest2(void* p)
  46:src/Tests.cpp **** {
  47:src/Tests.cpp ****     Riscv::printString("Thread 2 started...\n");
  48:src/Tests.cpp ****     uint64 num = 10000;
  49:src/Tests.cpp ****     for(uint64 j = 0; j < num;j++)
  50:src/Tests.cpp ****     {
  51:src/Tests.cpp ****         if(j == 200)
  52:src/Tests.cpp ****             thread_exit();
  53:src/Tests.cpp ****         if(j % 50 == 0 && j > 0)
  54:src/Tests.cpp ****             thread_dispatch();
  55:src/Tests.cpp ****         Riscv::printString("j : ");
  56:src/Tests.cpp ****         Riscv::printInteger(j);
  57:src/Tests.cpp ****         Riscv::printString("\n");
  58:src/Tests.cpp ****     }
  59:src/Tests.cpp **** }
  60:src/Tests.cpp **** 
  61:src/Tests.cpp **** void threadTest1()
  62:src/Tests.cpp **** {
  63:src/Tests.cpp ****     Thread* t1 = new Thread(&thread1Function, 0);
  64:src/Tests.cpp ****     t1->start();
GAS LISTING /tmp/cceOdYyw.s 			page 9


  65:src/Tests.cpp ****     Thread* t2 = new Thread(&thread2Function, 0);
  66:src/Tests.cpp ****     t2->start();
  67:src/Tests.cpp ****     Riscv::enableInterrupts();
  68:src/Tests.cpp ****     while(((PCB*)(t1->myHandle))->getState() != PCB::FINISHED || ((PCB*)(t2->myHandle))->getState()
  69:src/Tests.cpp ****     {
  70:src/Tests.cpp ****         Riscv::printString("Main thread\n");
  71:src/Tests.cpp ****         thread_dispatch();
  72:src/Tests.cpp ****     }
  73:src/Tests.cpp **** 
  74:src/Tests.cpp ****     Riscv::printString("End...\n");
  75:src/Tests.cpp ****     Riscv::disableInterrupts();
  76:src/Tests.cpp **** }
  77:src/Tests.cpp **** 
  78:src/Tests.cpp **** void threadTest2()
  79:src/Tests.cpp **** {
  80:src/Tests.cpp ****     Thread* idleThread = new Thread(&idle, 0);
  81:src/Tests.cpp ****     idleThread->start();
  82:src/Tests.cpp ****     Thread* t1 = new Thread(&thread1Function, 0);
  83:src/Tests.cpp ****     t1->start();
  84:src/Tests.cpp ****     Thread* t2  = new Thread(&thread2FunctionTest2, 0);
  85:src/Tests.cpp ****     t2->start();
  86:src/Tests.cpp **** 
  87:src/Tests.cpp ****     Riscv::enableInterrupts();
  88:src/Tests.cpp **** 
  89:src/Tests.cpp ****     while(((PCB*)idleThread->myHandle)->getState() != PCB::FINISHED);
  90:src/Tests.cpp **** 
  91:src/Tests.cpp ****     Riscv::printString("End...\n");
  92:src/Tests.cpp **** 
  93:src/Tests.cpp ****     Riscv::disableInterrupts();
  94:src/Tests.cpp **** }
  95:src/Tests.cpp **** 
  96:src/Tests.cpp **** 
  97:src/Tests.cpp **** void threadTest3()
  98:src/Tests.cpp **** {
  99:src/Tests.cpp ****     Thread* t = new TestPeriodic(50);
 100:src/Tests.cpp ****     t->start();
 101:src/Tests.cpp ****     while(true)
 102:src/Tests.cpp ****     {
 103:src/Tests.cpp ****         //thread_dispatch();
 104:src/Tests.cpp ****     }
 105:src/Tests.cpp **** }
 106:src/Tests.cpp **** 
 107:src/Tests.cpp **** void threadTests()
 108:src/Tests.cpp **** {
 109:src/Tests.cpp ****     //threadTest1();
 110:src/Tests.cpp ****     //threadTest2();
 111:src/Tests.cpp ****     //threadTest3();
 112:src/Tests.cpp **** }
 113:src/Tests.cpp **** 
 114:src/Tests.cpp **** 
 115:src/Tests.cpp **** //memory (de)allocation tests
 116:src/Tests.cpp **** void mallocFree()
 117:src/Tests.cpp **** {
 118:src/Tests.cpp ****     Riscv::printString("mallocFree\n");
 119:src/Tests.cpp ****     constexpr int num = 100;
 120:src/Tests.cpp ****     void* addrs[num];
 121:src/Tests.cpp ****     for(int i = 0; i < num;i++)
GAS LISTING /tmp/cceOdYyw.s 			page 10


 122:src/Tests.cpp ****     {
 123:src/Tests.cpp ****         addrs[i] = mem_alloc(100);
 124:src/Tests.cpp ****         if(addrs[i] == 0)
 125:src/Tests.cpp ****         {
 126:src/Tests.cpp ****             Riscv::printString("not OK\n");
 127:src/Tests.cpp ****             return;
 128:src/Tests.cpp ****         }
 129:src/Tests.cpp **** 
 130:src/Tests.cpp ****     }
 131:src/Tests.cpp **** 
 132:src/Tests.cpp ****     for(int i = 0 ; i < num;i+=2)
 133:src/Tests.cpp ****     {
 134:src/Tests.cpp ****         int retval = mem_free(addrs[i]);
 135:src/Tests.cpp ****         if(retval != 0)
 136:src/Tests.cpp ****         {
 137:src/Tests.cpp ****             Riscv::printString("not OK\n");
 138:src/Tests.cpp ****             return;
 139:src/Tests.cpp ****         }
 140:src/Tests.cpp ****     }
 141:src/Tests.cpp **** 
 142:src/Tests.cpp ****     for(int i = 0 ; i < num;i+=2)
 143:src/Tests.cpp ****     {
 144:src/Tests.cpp ****         addrs[i] = mem_alloc(20);
 145:src/Tests.cpp ****         if(addrs[i] == 0)
 146:src/Tests.cpp ****         {
 147:src/Tests.cpp ****             Riscv::printString("not OK\n");
 148:src/Tests.cpp ****             return;
 149:src/Tests.cpp ****         }
 150:src/Tests.cpp ****     }
 151:src/Tests.cpp **** 
 152:src/Tests.cpp ****     for(int i = 0; i < num;i++)
 153:src/Tests.cpp ****     {
 154:src/Tests.cpp ****         int retval = mem_free(addrs[i]);
 155:src/Tests.cpp ****         if(retval != 0)
 156:src/Tests.cpp ****         {
 157:src/Tests.cpp ****             Riscv::printString("not OK\n");
 158:src/Tests.cpp ****             return;
 159:src/Tests.cpp ****         }
 160:src/Tests.cpp ****     }
 161:src/Tests.cpp **** 
 162:src/Tests.cpp ****     Riscv::printString("OK\n");
 163:src/Tests.cpp **** }
 164:src/Tests.cpp **** void bigMalloc()
 165:src/Tests.cpp **** {
 166:src/Tests.cpp ****     Riscv::printString("bigMalloc\n");
 167:src/Tests.cpp ****     uint64 x = (uint64)HEAP_END_ADDR - (uint64)HEAP_START_ADDR + 100UL;
 168:src/Tests.cpp ****     void* p = mem_alloc(x);
 169:src/Tests.cpp ****     if(p == 0)
 170:src/Tests.cpp ****         Riscv::printString("OK\n");
 171:src/Tests.cpp ****     else
 172:src/Tests.cpp ****         Riscv::printString("not OK\n");
 173:src/Tests.cpp **** }
 174:src/Tests.cpp **** 
 175:src/Tests.cpp **** void lotOfSmallMallocs()
 176:src/Tests.cpp **** {
 177:src/Tests.cpp ****     Riscv::printString("lotOfSmallMallocs\n");
 178:src/Tests.cpp ****     uint64 cnt = 0;
GAS LISTING /tmp/cceOdYyw.s 			page 11


 179:src/Tests.cpp ****     uint64 sum = 0;
 180:src/Tests.cpp ****     uint64 N = 10000UL;
 181:src/Tests.cpp ****     uint64 X = 10UL;
 182:src/Tests.cpp ****     for(uint64 i = 0; i < N;i++)
 183:src/Tests.cpp ****     {
 184:src/Tests.cpp ****         Test* t = (Test*)mem_alloc(sizeof(Test));
 185:src/Tests.cpp ****         if(t == 0)
 186:src/Tests.cpp ****             break;
 187:src/Tests.cpp ****         t->a = X;
 188:src/Tests.cpp ****         sum+=t->a;
 189:src/Tests.cpp ****         cnt++;
 190:src/Tests.cpp ****     }
 191:src/Tests.cpp ****     Riscv::printInteger(cnt);
 192:src/Tests.cpp ****     Riscv::printString("\n");
 193:src/Tests.cpp ****     if(sum == X*cnt)
 194:src/Tests.cpp ****         Riscv::printString("OK\n");
 195:src/Tests.cpp ****     else
 196:src/Tests.cpp ****         Riscv::printString("not OK\n");
 197:src/Tests.cpp **** }
 198:src/Tests.cpp **** void badFree()
 199:src/Tests.cpp **** {
 200:src/Tests.cpp ****     Riscv::printString("badFree\n");
 201:src/Tests.cpp ****     Test* t = (Test*)mem_alloc(sizeof(Test));
 202:src/Tests.cpp ****     uint64 retval = mem_free((char*)t + 2);
 203:src/Tests.cpp ****     if(retval == 0)
 204:src/Tests.cpp ****         Riscv::printString("not OK\n");
 205:src/Tests.cpp ****     else
 206:src/Tests.cpp ****         Riscv::printString("OK\n");
 207:src/Tests.cpp **** }
 208:src/Tests.cpp **** 
 209:src/Tests.cpp **** void stressTesting()
 210:src/Tests.cpp **** {
 211:src/Tests.cpp ****     Riscv::printString("stressTesting\n");
 212:src/Tests.cpp ****     constexpr int num = 100;
 213:src/Tests.cpp ****     void* addrs[num];
 214:src/Tests.cpp ****     for(int i = 0; i < num;i++)
 215:src/Tests.cpp ****     {
 216:src/Tests.cpp ****         addrs[i] = mem_alloc(1);
 217:src/Tests.cpp ****         if(addrs[i] == 0)
 218:src/Tests.cpp ****         {
 219:src/Tests.cpp ****             Riscv::printString("not OK\n");
 220:src/Tests.cpp ****             return;
 221:src/Tests.cpp ****         }
 222:src/Tests.cpp **** 
 223:src/Tests.cpp ****     }
 224:src/Tests.cpp ****     int sz = 300;
 225:src/Tests.cpp ****     while(sz > 0)
 226:src/Tests.cpp ****     {
 227:src/Tests.cpp ****         for(int i = 0 ; i < num;i+=2)
 228:src/Tests.cpp ****         {
 229:src/Tests.cpp ****             int retval = mem_free(addrs[i]);
 230:src/Tests.cpp ****             if(retval != 0)
 231:src/Tests.cpp ****             {
 232:src/Tests.cpp ****                 Riscv::printString("not OK\n");
 233:src/Tests.cpp ****                 return;
 234:src/Tests.cpp ****             }
 235:src/Tests.cpp ****             addrs[i] = mem_alloc(sz/2);
GAS LISTING /tmp/cceOdYyw.s 			page 12


 236:src/Tests.cpp ****             if(addrs[i] == 0)
 237:src/Tests.cpp ****             {
 238:src/Tests.cpp ****                 Riscv::printString("not Ok\n");
 239:src/Tests.cpp ****                 return;
 240:src/Tests.cpp ****             }
 241:src/Tests.cpp **** 
 242:src/Tests.cpp ****         }
 243:src/Tests.cpp **** 
 244:src/Tests.cpp ****         for(int i = 1 ; i < num;i+=2)
 245:src/Tests.cpp ****         {
 246:src/Tests.cpp ****             int retval = mem_free(addrs[i]);
 247:src/Tests.cpp ****             if(retval != 0)
 248:src/Tests.cpp ****             {
 249:src/Tests.cpp ****                 Riscv::printString("not OK\n");
 250:src/Tests.cpp ****                 return;
 251:src/Tests.cpp ****             }
 252:src/Tests.cpp ****             addrs[i] = mem_alloc(sz);
 253:src/Tests.cpp ****             if(addrs[i] == 0)
 254:src/Tests.cpp ****             {
 255:src/Tests.cpp ****                 Riscv::printString("not Ok\n");
 256:src/Tests.cpp ****                 return;
 257:src/Tests.cpp ****             }
 258:src/Tests.cpp **** 
 259:src/Tests.cpp ****         }
 260:src/Tests.cpp ****         sz-=10;
 261:src/Tests.cpp ****     }
 262:src/Tests.cpp **** 
 263:src/Tests.cpp ****     Riscv::printString("OK\n");
 264:src/Tests.cpp **** }
 265:src/Tests.cpp **** 
 266:src/Tests.cpp **** void memoryAllocationTests()
 267:src/Tests.cpp **** {
 268:src/Tests.cpp ****     //bigMalloc();
 269:src/Tests.cpp ****     //lotOfSmallMallocs();
 270:src/Tests.cpp ****     //mallocFree();
 271:src/Tests.cpp ****     //badFree();
 272:src/Tests.cpp ****     //stressTesting();
 273:src/Tests.cpp ****     //mallocTest();
 274:src/Tests.cpp ****     //mallocEverything();
 275:src/Tests.cpp ****     mallocGapFillTest();
 276:src/Tests.cpp **** }
 277:src/Tests.cpp **** 
 278:src/Tests.cpp **** 
 279:src/Tests.cpp **** 
 280:src/Tests.cpp **** void semaphoreTests()
 281:src/Tests.cpp **** {
 282:src/Tests.cpp ****     semTest1();
 283:src/Tests.cpp **** }
 284:src/Tests.cpp **** 
 285:src/Tests.cpp **** void myTests()
 286:src/Tests.cpp **** {
 287:src/Tests.cpp ****     memoryAllocationTests();
 288:src/Tests.cpp ****     //threadTests();
 289:src/Tests.cpp ****     //semaphoreTests();
 290:src/Tests.cpp **** }
 291:src/Tests.cpp **** 
 292:src/Tests.cpp **** TestPeriodic::TestPeriodic(time_t time) : PeriodicThread(time) {
GAS LISTING /tmp/cceOdYyw.s 			page 13


 293:src/Tests.cpp **** 
 294:src/Tests.cpp **** }
 295:src/Tests.cpp **** 
 296:src/Tests.cpp **** void TestPeriodic::periodicActivation()
 297:src/Tests.cpp **** {
 292              		.loc 2 297 1 is_stmt 1
 293              		.cfi_startproc
 294              	.LVL26:
 295 015c 130101FE 		addi	sp,sp,-32
 296              		.cfi_def_cfa_offset 32
 297 0160 233C1100 		sd	ra,24(sp)
 298 0164 23388100 		sd	s0,16(sp)
 299 0168 23349100 		sd	s1,8(sp)
 300              		.cfi_offset 1, -8
 301              		.cfi_offset 8, -16
 302              		.cfi_offset 9, -24
 303 016c 13040102 		addi	s0,sp,32
 304              		.cfi_def_cfa 8, 0
 298:src/Tests.cpp ****     for(int i = 0 ; i < 10000;i++)
 305              		.loc 2 298 5
 306              	.LVL27:
 307              	.LBB22:
 308              		.loc 2 298 13 is_stmt 0
 309 0170 93040000 		li	s1,0
 310              	.LVL28:
 311              	.L22:
 312              		.loc 2 298 23 is_stmt 1 discriminator 3
 313 0174 B7270000 		li	a5,8192
 314 0178 9387F770 		addi	a5,a5,1807
 315 017c 63C49702 		bgt	s1,a5,.L20
 299:src/Tests.cpp ****     {
 300:src/Tests.cpp ****         Riscv::printString("i : ");
 316              		.loc 2 300 9 discriminator 2
 317              		.loc 2 300 27 is_stmt 0 discriminator 2
 318 0180 17050000 		lla	a0,.LC2
 318      13050500 
 319 0188 97000000 		call	_ZN5Riscv11printStringEPKc@plt
 319      E7800000 
 320              	.LVL29:
 301:src/Tests.cpp ****         Riscv::printInteger(i);
 321              		.loc 2 301 9 is_stmt 1 discriminator 2
 322              		.loc 2 301 28 is_stmt 0 discriminator 2
 323 0190 13850400 		mv	a0,s1
 324 0194 97000000 		call	_ZN5Riscv12printIntegerEm@plt
 324      E7800000 
 325              	.LVL30:
 298:src/Tests.cpp ****     for(int i = 0 ; i < 10000;i++)
 326              		.loc 2 298 5 is_stmt 1 discriminator 2
 327 019c 9B841400 		addiw	s1,s1,1
 328              	.LVL31:
 329 01a0 6FF05FFD 		j	.L22
 330              	.LVL32:
 331              	.L20:
 332              	.LBE22:
 302:src/Tests.cpp ****     }
 303:src/Tests.cpp **** }
 333              		.loc 2 303 1 is_stmt 0
GAS LISTING /tmp/cceOdYyw.s 			page 14


 334 01a4 83308101 		ld	ra,24(sp)
 335              		.cfi_restore 1
 336 01a8 03340101 		ld	s0,16(sp)
 337              		.cfi_restore 8
 338              		.cfi_def_cfa 2, 32
 339 01ac 83348100 		ld	s1,8(sp)
 340              		.cfi_restore 9
 341              	.LVL33:
 342 01b0 13010102 		addi	sp,sp,32
 343              		.cfi_def_cfa_offset 0
 344 01b4 67800000 		jr	ra
 345              		.cfi_endproc
 346              	.LFE46:
 348              		.align	2
 349              		.globl	_Z20thread2FunctionTest2Pv
 351              	_Z20thread2FunctionTest2Pv:
 352              	.LFB26:
  46:src/Tests.cpp ****     Riscv::printString("Thread 2 started...\n");
 353              		.loc 2 46 1 is_stmt 1
 354              		.cfi_startproc
 355              	.LVL34:
 356 01b8 130101FE 		addi	sp,sp,-32
 357              		.cfi_def_cfa_offset 32
 358 01bc 233C1100 		sd	ra,24(sp)
 359 01c0 23388100 		sd	s0,16(sp)
 360 01c4 23349100 		sd	s1,8(sp)
 361              		.cfi_offset 1, -8
 362              		.cfi_offset 8, -16
 363              		.cfi_offset 9, -24
 364 01c8 13040102 		addi	s0,sp,32
 365              		.cfi_def_cfa 8, 0
  47:src/Tests.cpp ****     uint64 num = 10000;
 366              		.loc 2 47 5
  47:src/Tests.cpp ****     uint64 num = 10000;
 367              		.loc 2 47 23 is_stmt 0
 368 01cc 17050000 		lla	a0,.LC4
 368      13050500 
 369              	.LVL35:
 370 01d4 97000000 		call	_ZN5Riscv11printStringEPKc@plt
 370      E7800000 
 371              	.LVL36:
  48:src/Tests.cpp ****     for(uint64 j = 0; j < num;j++)
 372              		.loc 2 48 5 is_stmt 1
  49:src/Tests.cpp ****     {
 373              		.loc 2 49 5
 374              	.LBB23:
  49:src/Tests.cpp ****     {
 375              		.loc 2 49 16 is_stmt 0
 376 01dc 93040000 		li	s1,0
 377 01e0 6F008004 		j	.L28
 378              	.LVL37:
 379              	.L30:
  52:src/Tests.cpp ****         if(j % 50 == 0 && j > 0)
 380              		.loc 2 52 13 is_stmt 1
  52:src/Tests.cpp ****         if(j % 50 == 0 && j > 0)
 381              		.loc 2 52 24 is_stmt 0
 382 01e4 97000000 		call	thread_exit@plt
GAS LISTING /tmp/cceOdYyw.s 			page 15


 382      E7800000 
 383              	.LVL38:
 384 01ec 6F000005 		j	.L26
 385              	.L31:
  54:src/Tests.cpp ****         Riscv::printString("j : ");
 386              		.loc 2 54 13 is_stmt 1
  54:src/Tests.cpp ****         Riscv::printString("j : ");
 387              		.loc 2 54 28 is_stmt 0
 388 01f0 97000000 		call	thread_dispatch@plt
 388      E7800000 
 389              	.LVL39:
 390              	.L27:
  55:src/Tests.cpp ****         Riscv::printInteger(j);
 391              		.loc 2 55 9 is_stmt 1 discriminator 2
  55:src/Tests.cpp ****         Riscv::printInteger(j);
 392              		.loc 2 55 27 is_stmt 0 discriminator 2
 393 01f8 17050000 		lla	a0,.LC5
 393      13050500 
 394 0200 97000000 		call	_ZN5Riscv11printStringEPKc@plt
 394      E7800000 
 395              	.LVL40:
  56:src/Tests.cpp ****         Riscv::printString("\n");
 396              		.loc 2 56 9 is_stmt 1 discriminator 2
  56:src/Tests.cpp ****         Riscv::printString("\n");
 397              		.loc 2 56 28 is_stmt 0 discriminator 2
 398 0208 13850400 		mv	a0,s1
 399 020c 97000000 		call	_ZN5Riscv12printIntegerEm@plt
 399      E7800000 
 400              	.LVL41:
  57:src/Tests.cpp ****     }
 401              		.loc 2 57 9 is_stmt 1 discriminator 2
  57:src/Tests.cpp ****     }
 402              		.loc 2 57 27 is_stmt 0 discriminator 2
 403 0214 17050000 		lla	a0,.LC3
 403      13050500 
 404 021c 97000000 		call	_ZN5Riscv11printStringEPKc@plt
 404      E7800000 
 405              	.LVL42:
  49:src/Tests.cpp ****     {
 406              		.loc 2 49 5 is_stmt 1 discriminator 2
 407 0224 93841400 		addi	s1,s1,1
 408              	.LVL43:
 409              	.L28:
  49:src/Tests.cpp ****     {
 410              		.loc 2 49 25 discriminator 1
 411 0228 B7270000 		li	a5,8192
 412 022c 9387F770 		addi	a5,a5,1807
 413 0230 63E09702 		bgtu	s1,a5,.L24
  51:src/Tests.cpp ****             thread_exit();
 414              		.loc 2 51 9
 415 0234 9307800C 		li	a5,200
 416 0238 E386F4FA 		beq	s1,a5,.L30
 417              	.L26:
  53:src/Tests.cpp ****             thread_dispatch();
 418              		.loc 2 53 9
  53:src/Tests.cpp ****             thread_dispatch();
 419              		.loc 2 53 14 is_stmt 0
GAS LISTING /tmp/cceOdYyw.s 			page 16


 420 023c 93072003 		li	a5,50
 421 0240 B3F7F402 		remu	a5,s1,a5
  53:src/Tests.cpp ****             thread_dispatch();
 422              		.loc 2 53 9
 423 0244 E39A07FA 		bnez	a5,.L27
  53:src/Tests.cpp ****             thread_dispatch();
 424              		.loc 2 53 24 discriminator 1
 425 0248 E38804FA 		beqz	s1,.L27
 426 024c 6FF05FFA 		j	.L31
 427              	.L24:
 428              	.LBE23:
  59:src/Tests.cpp **** 
 429              		.loc 2 59 1
 430 0250 83308101 		ld	ra,24(sp)
 431              		.cfi_restore 1
 432 0254 03340101 		ld	s0,16(sp)
 433              		.cfi_restore 8
 434              		.cfi_def_cfa 2, 32
 435 0258 83348100 		ld	s1,8(sp)
 436              		.cfi_restore 9
 437              	.LVL44:
 438 025c 13010102 		addi	sp,sp,32
 439              		.cfi_def_cfa_offset 0
 440 0260 67800000 		jr	ra
 441              		.cfi_endproc
 442              	.LFE26:
 444              		.align	2
 445              		.globl	_Z9consumerAPv
 447              	_Z9consumerAPv:
 448              	.LFB50:
 304:src/Tests.cpp **** 
 305:src/Tests.cpp **** void mallocTest()
 306:src/Tests.cpp **** {
 307:src/Tests.cpp ****     Riscv::printString("Testing a few mallocs and frees\n\n");
 308:src/Tests.cpp **** 
 309:src/Tests.cpp ****     object* o = new object;
 310:src/Tests.cpp ****     o->a = 3;
 311:src/Tests.cpp ****     void* m1 = mem_alloc(10);
 312:src/Tests.cpp ****     void* m2 = mem_alloc(100);
 313:src/Tests.cpp ****     void* m3 = mem_alloc(1000);
 314:src/Tests.cpp ****     void* m4 = mem_alloc(10000);
 315:src/Tests.cpp ****     void* m5 = mem_alloc(1);
 316:src/Tests.cpp **** 
 317:src/Tests.cpp ****     if(!m1 || !m2 || !m3 || !m4 || !m5){
 318:src/Tests.cpp ****         Riscv::printString("not OK\n");
 319:src/Tests.cpp ****         return;
 320:src/Tests.cpp ****     }
 321:src/Tests.cpp **** 
 322:src/Tests.cpp ****     delete (uint64*)m1;
 323:src/Tests.cpp ****     delete (uint64*)m3;
 324:src/Tests.cpp ****     delete (uint64*)m4;
 325:src/Tests.cpp ****     delete (uint64*)m2;
 326:src/Tests.cpp ****     delete (uint64*)m5;
 327:src/Tests.cpp ****     delete o;
 328:src/Tests.cpp **** 
 329:src/Tests.cpp ****     Riscv::printString("SUCCESSFUL: Testing a few mallocs and frees\n\n");
 330:src/Tests.cpp **** }
GAS LISTING /tmp/cceOdYyw.s 			page 17


 331:src/Tests.cpp **** 
 332:src/Tests.cpp **** void mallocEverything()
 333:src/Tests.cpp **** {
 334:src/Tests.cpp ****     Riscv::printString("Testing allocating whole address space\n\n");
 335:src/Tests.cpp **** 
 336:src/Tests.cpp ****     uint64 neg_size = (uint64)HEAP_START_ADDR - (uint64)HEAP_END_ADDR -sizeof(MemoryAllocator::Bloc
 337:src/Tests.cpp **** 
 338:src/Tests.cpp ****     void* m = mem_alloc(neg_size);
 339:src/Tests.cpp **** 
 340:src/Tests.cpp ****     if(m!=nullptr){
 341:src/Tests.cpp ****         Riscv::printString("not OK\n");
 342:src/Tests.cpp ****         return;
 343:src/Tests.cpp ****     }
 344:src/Tests.cpp **** 
 345:src/Tests.cpp ****     uint64 blockSize = (((uint64)HEAP_END_ADDR - (uint64)HEAP_START_ADDR - sizeof(MemoryAllocator::
 346:src/Tests.cpp **** 
 347:src/Tests.cpp ****     m = mem_alloc(blockSize<<6);
 348:src/Tests.cpp **** 
 349:src/Tests.cpp ****     if(m==nullptr){
 350:src/Tests.cpp ****         Riscv::printString("not OK\n");
 351:src/Tests.cpp ****         return;
 352:src/Tests.cpp ****     }
 353:src/Tests.cpp **** 
 354:src/Tests.cpp **** //    there should be some space left still, depending on source file size and output buffer size
 355:src/Tests.cpp **** //    excess allocation should fail and small_chunk should succeed
 356:src/Tests.cpp **** 
 357:src/Tests.cpp **** //    void *excess = mem_alloc(100);
 358:src/Tests.cpp **** //
 359:src/Tests.cpp **** //    if(excess!=nullptr){
 360:src/Tests.cpp **** //        Riscv::printString("not OK\n");
 361:src/Tests.cpp **** //        return;
 362:src/Tests.cpp **** //    }
 363:src/Tests.cpp **** //
 364:src/Tests.cpp ****     void *small_chunk = mem_alloc(1);
 365:src/Tests.cpp **** 
 366:src/Tests.cpp ****     if(small_chunk == nullptr){
 367:src/Tests.cpp ****         Riscv::printString("not OK\n");
 368:src/Tests.cpp ****         return;
 369:src/Tests.cpp ****     }
 370:src/Tests.cpp **** 
 371:src/Tests.cpp ****     delete (uint64*)m;
 372:src/Tests.cpp ****     //delete (uint64*)small_chunk;
 373:src/Tests.cpp **** 
 374:src/Tests.cpp ****     Riscv::printString("SUCCESSFUL: Testing allocating whole address space\n\n");
 375:src/Tests.cpp **** }
 376:src/Tests.cpp **** 
 377:src/Tests.cpp **** void mallocGapFillTest()
 378:src/Tests.cpp **** {
 379:src/Tests.cpp ****     Riscv::printString("Testing gap filling and chunk merge after multiple mallocs and frees\n\n");
 380:src/Tests.cpp **** 
 381:src/Tests.cpp ****     const int N = 10;
 382:src/Tests.cpp **** 
 383:src/Tests.cpp ****     void *m[N];
 384:src/Tests.cpp **** 
 385:src/Tests.cpp ****     for(int i=0;i<N;i++)
 386:src/Tests.cpp ****     {
 387:src/Tests.cpp ****         m[i] = mem_alloc((i<<6)+1);
GAS LISTING /tmp/cceOdYyw.s 			page 18


 388:src/Tests.cpp ****         if(m[i] == nullptr){
 389:src/Tests.cpp ****             Riscv::printString("not OK\n");
 390:src/Tests.cpp ****             return;
 391:src/Tests.cpp ****         }
 392:src/Tests.cpp ****     }
 393:src/Tests.cpp **** 
 394:src/Tests.cpp ****     delete (uint64*)m[2];
 395:src/Tests.cpp **** 
 396:src/Tests.cpp ****     void* tmp1 = mem_alloc(1);
 397:src/Tests.cpp ****     void* tmp2 = mem_alloc(1);
 398:src/Tests.cpp ****     void* tmp3 = mem_alloc(1);
 399:src/Tests.cpp **** 
 400:src/Tests.cpp ****     if(!tmp1 || !tmp2 || !tmp3)
 401:src/Tests.cpp ****     {
 402:src/Tests.cpp ****         Riscv::printString("not OK\n");
 403:src/Tests.cpp ****         return;
 404:src/Tests.cpp ****     }
 405:src/Tests.cpp **** 
 406:src/Tests.cpp ****     uint64 im1 = (uint64)m[1];
 407:src/Tests.cpp ****     uint64 im3 = (uint64)m[3];
 408:src/Tests.cpp ****     uint64 im5 = (uint64)m[5];
 409:src/Tests.cpp ****     uint64 imN = (uint64)m[N];
 410:src/Tests.cpp **** 
 411:src/Tests.cpp ****     uint64 itmp1 = (uint64)tmp1;
 412:src/Tests.cpp ****     uint64 itmp2 = (uint64)tmp2;
 413:src/Tests.cpp ****     uint64 itmp3 = (uint64)tmp3;
 414:src/Tests.cpp **** 
 415:src/Tests.cpp ****     if(!(im1<itmp1 && itmp1<im3 && im1<itmp2 && itmp2<im3 && itmp3>imN))
 416:src/Tests.cpp ****     {
 417:src/Tests.cpp ****         Riscv::printString("not OK\n");
 418:src/Tests.cpp ****         return;
 419:src/Tests.cpp ****     }
 420:src/Tests.cpp **** 
 421:src/Tests.cpp ****     delete (uint64*)m[3];
 422:src/Tests.cpp ****     delete (uint64*)m[4];
 423:src/Tests.cpp **** 
 424:src/Tests.cpp ****     void* tmp4 = mem_alloc(640);
 425:src/Tests.cpp ****     void* tmp5 = mem_alloc(576);
 426:src/Tests.cpp **** 
 427:src/Tests.cpp ****     if(!tmp4 || !tmp5){
 428:src/Tests.cpp ****         Riscv::printString("not OK\n");
 429:src/Tests.cpp ****         return;
 430:src/Tests.cpp ****     }
 431:src/Tests.cpp **** 
 432:src/Tests.cpp ****     uint64 itmp4 = (uint64)tmp4;
 433:src/Tests.cpp ****     uint64 itmp5 = (uint64)tmp5;
 434:src/Tests.cpp **** 
 435:src/Tests.cpp ****     if(!(itmp5>itmp2 && itmp5>im5 && itmp4<itmp3)){
 436:src/Tests.cpp ****         Riscv::printString("not OK\n");
 437:src/Tests.cpp ****         return;
 438:src/Tests.cpp ****     }
 439:src/Tests.cpp **** 
 440:src/Tests.cpp ****     for(int i=0;i<N;i++){
 441:src/Tests.cpp ****         delete (uint64*)m[i];
 442:src/Tests.cpp ****     }
 443:src/Tests.cpp **** 
 444:src/Tests.cpp ****     delete (uint64*)tmp1;
GAS LISTING /tmp/cceOdYyw.s 			page 19


 445:src/Tests.cpp ****     delete (uint64*)tmp2;
 446:src/Tests.cpp ****     delete (uint64*)tmp3;
 447:src/Tests.cpp ****     delete (uint64*)tmp4;
 448:src/Tests.cpp ****     delete (uint64*)tmp5;
 449:src/Tests.cpp **** 
 450:src/Tests.cpp ****     Riscv::printString("SUCCESSFUL: Testing gap filling and chunk merge after multiple mallocs and 
 451:src/Tests.cpp **** }
 452:src/Tests.cpp **** 
 453:src/Tests.cpp **** char buffer[10];
 454:src/Tests.cpp **** int head = 0;
 455:src/Tests.cpp **** int tail = 0;
 456:src/Tests.cpp **** sem_t spaceAvailable, itemAvailable;
 457:src/Tests.cpp **** char string[11] = "this is ni";
 458:src/Tests.cpp **** 
 459:src/Tests.cpp **** void consumerA(void *arg)
 460:src/Tests.cpp **** {
 449              		.loc 2 460 1 is_stmt 1
 450              		.cfi_startproc
 451              	.LVL45:
 461:src/Tests.cpp ****     while(head!=10){
 452              		.loc 2 461 5
 453              		.loc 2 461 15
 454 0264 17070000 		lw	a4,.LANCHOR0
 454      03270700 
 455 026c 9307A000 		li	a5,10
 456 0270 630CF706 		beq	a4,a5,.L40
 460:src/Tests.cpp ****     while(head!=10){
 457              		.loc 2 460 1 is_stmt 0
 458 0274 130101FE 		addi	sp,sp,-32
 459              		.cfi_def_cfa_offset 32
 460 0278 233C1100 		sd	ra,24(sp)
 461 027c 23388100 		sd	s0,16(sp)
 462 0280 23349100 		sd	s1,8(sp)
 463              		.cfi_offset 1, -8
 464              		.cfi_offset 8, -16
 465              		.cfi_offset 9, -24
 466 0284 13040102 		addi	s0,sp,32
 467              		.cfi_def_cfa 8, 0
 468              	.LVL46:
 469              	.L37:
 462:src/Tests.cpp ****         sem_wait(itemAvailable);
 470              		.loc 2 462 9 is_stmt 1
 471              		.loc 2 462 17 is_stmt 0
 472 0288 97040000 		lla	s1,.LANCHOR0
 472      93840400 
 473 0290 03B58400 		ld	a0,8(s1)
 474 0294 97000000 		call	sem_wait@plt
 474      E7800000 
 475              	.LVL47:
 463:src/Tests.cpp ****         __putc(buffer[head++]);
 476              		.loc 2 463 9 is_stmt 1
 477              		.loc 2 463 27 is_stmt 0
 478 029c 83A70400 		lw	a5,0(s1)
 479 02a0 1B871700 		addiw	a4,a5,1
 480 02a4 23A0E400 		sw	a4,0(s1)
 481              		.loc 2 463 15
 482 02a8 B387F400 		add	a5,s1,a5
GAS LISTING /tmp/cceOdYyw.s 			page 20


 483 02ac 03C50701 		lbu	a0,16(a5)
 484 02b0 97000000 		call	__putc@plt
 484      E7800000 
 485              	.LVL48:
 464:src/Tests.cpp ****         sem_signal(spaceAvailable);
 486              		.loc 2 464 9 is_stmt 1
 487              		.loc 2 464 19 is_stmt 0
 488 02b8 03B50402 		ld	a0,32(s1)
 489 02bc 97000000 		call	sem_signal@plt
 489      E7800000 
 490              	.LVL49:
 461:src/Tests.cpp ****         sem_wait(itemAvailable);
 491              		.loc 2 461 5 is_stmt 1
 461:src/Tests.cpp ****         sem_wait(itemAvailable);
 492              		.loc 2 461 15
 493 02c4 17070000 		lw	a4,.LANCHOR0
 493      03270700 
 494 02cc 9307A000 		li	a5,10
 495 02d0 E31CF7FA 		bne	a4,a5,.L37
 465:src/Tests.cpp ****     }
 466:src/Tests.cpp **** }
 496              		.loc 2 466 1 is_stmt 0
 497 02d4 83308101 		ld	ra,24(sp)
 498              		.cfi_restore 1
 499 02d8 03340101 		ld	s0,16(sp)
 500              		.cfi_restore 8
 501              		.cfi_def_cfa 2, 32
 502 02dc 83348100 		ld	s1,8(sp)
 503              		.cfi_restore 9
 504 02e0 13010102 		addi	sp,sp,32
 505              		.cfi_def_cfa_offset 0
 506 02e4 67800000 		jr	ra
 507              	.LVL50:
 508              	.L40:
 509 02e8 67800000 		ret
 510              		.cfi_endproc
 511              	.LFE50:
 513              		.align	2
 514              		.globl	_Z9producerAPv
 516              	_Z9producerAPv:
 517              	.LFB51:
 467:src/Tests.cpp **** 
 468:src/Tests.cpp **** void producerA(void *arg)
 469:src/Tests.cpp **** {
 518              		.loc 2 469 1 is_stmt 1
 519              		.cfi_startproc
 520              	.LVL51:
 470:src/Tests.cpp ****     while(tail!=10)
 521              		.loc 2 470 5
 522              		.loc 2 470 15
 523 02ec 17070000 		lw	a4,.LANCHOR0+40
 523      03270700 
 524 02f4 9307A000 		li	a5,10
 525 02f8 6300F708 		beq	a4,a5,.L49
 469:src/Tests.cpp ****     while(tail!=10)
 526              		.loc 2 469 1 is_stmt 0
 527 02fc 130101FE 		addi	sp,sp,-32
GAS LISTING /tmp/cceOdYyw.s 			page 21


 528              		.cfi_def_cfa_offset 32
 529 0300 233C1100 		sd	ra,24(sp)
 530 0304 23388100 		sd	s0,16(sp)
 531 0308 23349100 		sd	s1,8(sp)
 532              		.cfi_offset 1, -8
 533              		.cfi_offset 8, -16
 534              		.cfi_offset 9, -24
 535 030c 13040102 		addi	s0,sp,32
 536              		.cfi_def_cfa 8, 0
 537              	.LVL52:
 538              	.L46:
 471:src/Tests.cpp ****     {
 472:src/Tests.cpp ****         sem_wait(spaceAvailable);
 539              		.loc 2 472 9 is_stmt 1
 540              		.loc 2 472 17 is_stmt 0
 541 0310 97040000 		lla	s1,.LANCHOR0
 541      93840400 
 542 0318 03B50402 		ld	a0,32(s1)
 543 031c 97000000 		call	sem_wait@plt
 543      E7800000 
 544              	.LVL53:
 473:src/Tests.cpp ****         buffer[tail] = string[tail];
 545              		.loc 2 473 9 is_stmt 1
 546              		.loc 2 473 35 is_stmt 0
 547 0324 83A78402 		lw	a5,40(s1)
 548 0328 17070000 		lla	a4,.LANCHOR1
 548      13070700 
 549 0330 3307F700 		add	a4,a4,a5
 550 0334 83460700 		lbu	a3,0(a4)
 551              		.loc 2 473 22
 552 0338 3387F400 		add	a4,s1,a5
 553 033c 2308D700 		sb	a3,16(a4)
 474:src/Tests.cpp ****         tail++;
 554              		.loc 2 474 9 is_stmt 1
 555              		.loc 2 474 13 is_stmt 0
 556 0340 9B871700 		addiw	a5,a5,1
 557 0344 23A4F402 		sw	a5,40(s1)
 475:src/Tests.cpp ****         sem_signal(itemAvailable);
 558              		.loc 2 475 9 is_stmt 1
 559              		.loc 2 475 19 is_stmt 0
 560 0348 03B58400 		ld	a0,8(s1)
 561 034c 97000000 		call	sem_signal@plt
 561      E7800000 
 562              	.LVL54:
 470:src/Tests.cpp ****     {
 563              		.loc 2 470 5 is_stmt 1
 470:src/Tests.cpp ****     {
 564              		.loc 2 470 15
 565 0354 17070000 		lw	a4,.LANCHOR0+40
 565      03270700 
 566 035c 9307A000 		li	a5,10
 567 0360 E318F7FA 		bne	a4,a5,.L46
 476:src/Tests.cpp ****     }
 477:src/Tests.cpp **** }
 568              		.loc 2 477 1 is_stmt 0
 569 0364 83308101 		ld	ra,24(sp)
 570              		.cfi_restore 1
GAS LISTING /tmp/cceOdYyw.s 			page 22


 571 0368 03340101 		ld	s0,16(sp)
 572              		.cfi_restore 8
 573              		.cfi_def_cfa 2, 32
 574 036c 83348100 		ld	s1,8(sp)
 575              		.cfi_restore 9
 576 0370 13010102 		addi	sp,sp,32
 577              		.cfi_def_cfa_offset 0
 578 0374 67800000 		jr	ra
 579              	.LVL55:
 580              	.L49:
 581 0378 67800000 		ret
 582              		.cfi_endproc
 583              	.LFE51:
 585              		.section	.text._ZN14PeriodicThreadD2Ev,"axG",@progbits,_ZN14PeriodicThreadD5Ev,comdat
 586              		.align	2
 587              		.weak	_ZN14PeriodicThreadD2Ev
 589              	_ZN14PeriodicThreadD2Ev:
 590              	.LFB41:
  64:src/../h/syscall_cpp.hpp **** {
 591              		.loc 1 64 7 is_stmt 1
 592              		.cfi_startproc
 593              	.LVL56:
 594 0000 130101FF 		addi	sp,sp,-16
 595              		.cfi_def_cfa_offset 16
 596 0004 23341100 		sd	ra,8(sp)
 597 0008 23308100 		sd	s0,0(sp)
 598              		.cfi_offset 1, -8
 599              		.cfi_offset 8, -16
 600 000c 13040101 		addi	s0,sp,16
 601              		.cfi_def_cfa 8, 0
 602              	.LBB24:
  64:src/../h/syscall_cpp.hpp **** {
 603              		.loc 1 64 7 is_stmt 0
 604 0010 97070000 		lla	a5,_ZTV14PeriodicThread+16
 604      93870700 
 605 0018 2330F500 		sd	a5,0(a0)
 606 001c 97000000 		call	_ZN6ThreadD2Ev@plt
 606      E7800000 
 607              	.LVL57:
 608              	.LBE24:
 609 0024 83308100 		ld	ra,8(sp)
 610              		.cfi_restore 1
 611 0028 03340100 		ld	s0,0(sp)
 612              		.cfi_restore 8
 613              		.cfi_def_cfa 2, 16
 614 002c 13010101 		addi	sp,sp,16
 615              		.cfi_def_cfa_offset 0
 616 0030 67800000 		jr	ra
 617              		.cfi_endproc
 618              	.LFE41:
 620              		.weak	_ZN14PeriodicThreadD1Ev
 621              		.set	_ZN14PeriodicThreadD1Ev,_ZN14PeriodicThreadD2Ev
 622              		.section	.text._ZN14PeriodicThreadD0Ev,"axG",@progbits,_ZN14PeriodicThreadD5Ev,comdat
 623              		.align	2
 624              		.weak	_ZN14PeriodicThreadD0Ev
 626              	_ZN14PeriodicThreadD0Ev:
 627              	.LFB43:
GAS LISTING /tmp/cceOdYyw.s 			page 23


  64:src/../h/syscall_cpp.hpp **** {
 628              		.loc 1 64 7 is_stmt 1
 629              		.cfi_startproc
 630              	.LVL58:
 631 0000 130101FE 		addi	sp,sp,-32
 632              		.cfi_def_cfa_offset 32
 633 0004 233C1100 		sd	ra,24(sp)
 634 0008 23388100 		sd	s0,16(sp)
 635 000c 23349100 		sd	s1,8(sp)
 636              		.cfi_offset 1, -8
 637              		.cfi_offset 8, -16
 638              		.cfi_offset 9, -24
 639 0010 13040102 		addi	s0,sp,32
 640              		.cfi_def_cfa 8, 0
 641 0014 93040500 		mv	s1,a0
 642              	.LVL59:
 643              	.LBB25:
 644              	.LBB26:
  64:src/../h/syscall_cpp.hpp **** {
 645              		.loc 1 64 7 is_stmt 0
 646 0018 97070000 		lla	a5,_ZTV14PeriodicThread+16
 646      93870700 
 647 0020 2330F500 		sd	a5,0(a0)
 648 0024 97000000 		call	_ZN6ThreadD2Ev@plt
 648      E7800000 
 649              	.LVL60:
 650              	.LBE26:
 651              	.LBE25:
 652 002c 13850400 		mv	a0,s1
 653 0030 97000000 		call	_ZdlPv@plt
 653      E7800000 
 654              	.LVL61:
 655 0038 83308101 		ld	ra,24(sp)
 656              		.cfi_restore 1
 657 003c 03340101 		ld	s0,16(sp)
 658              		.cfi_restore 8
 659              		.cfi_def_cfa 2, 32
 660 0040 83348100 		ld	s1,8(sp)
 661              		.cfi_restore 9
 662              	.LVL62:
 663 0044 13010102 		addi	sp,sp,32
 664              		.cfi_def_cfa_offset 0
 665 0048 67800000 		jr	ra
 666              		.cfi_endproc
 667              	.LFE43:
 669              		.section	.text._ZN12TestPeriodicD2Ev,"axG",@progbits,_ZN12TestPeriodicD5Ev,comdat
 670              		.align	2
 671              		.weak	_ZN12TestPeriodicD2Ev
 673              	_ZN12TestPeriodicD2Ev:
 674              	.LFB54:
 675              		.file 3 "src/../h/Tests.hpp"
   1:src/../h/Tests.hpp **** //
   2:src/../h/Tests.hpp **** // Created by os on 5/5/22.
   3:src/../h/Tests.hpp **** //
   4:src/../h/Tests.hpp **** 
   5:src/../h/Tests.hpp **** #ifndef PROJECT_BASE_V1_0_TESTS_HPP
   6:src/../h/Tests.hpp **** #define PROJECT_BASE_V1_0_TESTS_HPP
GAS LISTING /tmp/cceOdYyw.s 			page 24


   7:src/../h/Tests.hpp **** 
   8:src/../h/Tests.hpp **** #include "Riscv.hpp"
   9:src/../h/Tests.hpp **** #include "PCB.hpp"
  10:src/../h/Tests.hpp **** #include "syscall_cpp.hpp"
  11:src/../h/Tests.hpp **** 
  12:src/../h/Tests.hpp **** class Test
  13:src/../h/Tests.hpp **** {
  14:src/../h/Tests.hpp **** public:
  15:src/../h/Tests.hpp ****     uint64 a;
  16:src/../h/Tests.hpp **** };
  17:src/../h/Tests.hpp **** struct object{
  18:src/../h/Tests.hpp ****     int a,b,c,d,e,f,g,h,i,j,k;
  19:src/../h/Tests.hpp **** };
  20:src/../h/Tests.hpp **** struct node{
  21:src/../h/Tests.hpp ****     object o1, o2, o3;
  22:src/../h/Tests.hpp ****     char id;
  23:src/../h/Tests.hpp ****     node *next, *prev;
  24:src/../h/Tests.hpp **** };
  25:src/../h/Tests.hpp **** 
  26:src/../h/Tests.hpp **** //memory (de)allocation tests
  27:src/../h/Tests.hpp **** void mallocFree();
  28:src/../h/Tests.hpp **** void bigMalloc();
  29:src/../h/Tests.hpp **** void lotOfSmallMallocs();
  30:src/../h/Tests.hpp **** void badFree();
  31:src/../h/Tests.hpp **** void stressTesting();
  32:src/../h/Tests.hpp **** void mallocTest();
  33:src/../h/Tests.hpp **** void mallocEverything();
  34:src/../h/Tests.hpp **** void mallocGapFillTest();
  35:src/../h/Tests.hpp **** void memoryAllocationTests();
  36:src/../h/Tests.hpp **** 
  37:src/../h/Tests.hpp **** //thread tests
  38:src/../h/Tests.hpp **** void thread1Function();
  39:src/../h/Tests.hpp **** void thread2Function();
  40:src/../h/Tests.hpp **** 
  41:src/../h/Tests.hpp **** void threadFunction3();
  42:src/../h/Tests.hpp **** 
  43:src/../h/Tests.hpp **** void threadTest1();
  44:src/../h/Tests.hpp **** void threadTest2();
  45:src/../h/Tests.hpp **** void threadTest3();
  46:src/../h/Tests.hpp **** 
  47:src/../h/Tests.hpp **** void threadTests();
  48:src/../h/Tests.hpp **** 
  49:src/../h/Tests.hpp **** class TestPeriodic : public PeriodicThread
 676              		.loc 3 49 7 is_stmt 1
 677              		.cfi_startproc
 678              	.LVL63:
 679 0000 130101FF 		addi	sp,sp,-16
 680              		.cfi_def_cfa_offset 16
 681 0004 23341100 		sd	ra,8(sp)
 682 0008 23308100 		sd	s0,0(sp)
 683              		.cfi_offset 1, -8
 684              		.cfi_offset 8, -16
 685 000c 13040101 		addi	s0,sp,16
 686              		.cfi_def_cfa 8, 0
 687              	.LVL64:
 688              	.LBB27:
 689              	.LBB28:
GAS LISTING /tmp/cceOdYyw.s 			page 25


  64:src/../h/syscall_cpp.hpp **** {
 690              		.loc 1 64 7 is_stmt 0
 691 0010 97070000 		lla	a5,_ZTV14PeriodicThread+16
 691      93870700 
 692 0018 2330F500 		sd	a5,0(a0)
 693 001c 97000000 		call	_ZN6ThreadD2Ev@plt
 693      E7800000 
 694              	.LVL65:
 695              	.LBE28:
 696              	.LBE27:
 697              		.loc 3 49 7
 698 0024 83308100 		ld	ra,8(sp)
 699              		.cfi_restore 1
 700 0028 03340100 		ld	s0,0(sp)
 701              		.cfi_restore 8
 702              		.cfi_def_cfa 2, 16
 703 002c 13010101 		addi	sp,sp,16
 704              		.cfi_def_cfa_offset 0
 705 0030 67800000 		jr	ra
 706              		.cfi_endproc
 707              	.LFE54:
 709              		.weak	_ZN12TestPeriodicD1Ev
 710              		.set	_ZN12TestPeriodicD1Ev,_ZN12TestPeriodicD2Ev
 711              		.section	.text._ZN12TestPeriodicD0Ev,"axG",@progbits,_ZN12TestPeriodicD5Ev,comdat
 712              		.align	2
 713              		.weak	_ZN12TestPeriodicD0Ev
 715              	_ZN12TestPeriodicD0Ev:
 716              	.LFB56:
 717              		.loc 3 49 7 is_stmt 1
 718              		.cfi_startproc
 719              	.LVL66:
 720 0000 130101FE 		addi	sp,sp,-32
 721              		.cfi_def_cfa_offset 32
 722 0004 233C1100 		sd	ra,24(sp)
 723 0008 23388100 		sd	s0,16(sp)
 724 000c 23349100 		sd	s1,8(sp)
 725              		.cfi_offset 1, -8
 726              		.cfi_offset 8, -16
 727              		.cfi_offset 9, -24
 728 0010 13040102 		addi	s0,sp,32
 729              		.cfi_def_cfa 8, 0
 730 0014 93040500 		mv	s1,a0
 731              	.LVL67:
 732              	.LBB29:
 733              	.LBB30:
 734              	.LBB31:
  64:src/../h/syscall_cpp.hpp **** {
 735              		.loc 1 64 7 is_stmt 0
 736 0018 97070000 		lla	a5,_ZTV14PeriodicThread+16
 736      93870700 
 737 0020 2330F500 		sd	a5,0(a0)
 738 0024 97000000 		call	_ZN6ThreadD2Ev@plt
 738      E7800000 
 739              	.LVL68:
 740              	.LBE31:
 741              	.LBE30:
 742              	.LBE29:
GAS LISTING /tmp/cceOdYyw.s 			page 26


 743              		.loc 3 49 7
 744 002c 13850400 		mv	a0,s1
 745 0030 97000000 		call	_ZdlPv@plt
 745      E7800000 
 746              	.LVL69:
 747 0038 83308101 		ld	ra,24(sp)
 748              		.cfi_restore 1
 749 003c 03340101 		ld	s0,16(sp)
 750              		.cfi_restore 8
 751              		.cfi_def_cfa 2, 32
 752 0040 83348100 		ld	s1,8(sp)
 753              		.cfi_restore 9
 754              	.LVL70:
 755 0044 13010102 		addi	sp,sp,32
 756              		.cfi_def_cfa_offset 0
 757 0048 67800000 		jr	ra
 758              		.cfi_endproc
 759              	.LFE56:
 761              		.section	.rodata.str1.8
 762 004d 000000   		.align	3
 763              	.LC6:
 764 0050 4D61696E 		.string	"Main thread\n"
 764      20746872 
 764      6561640A 
 764      00
 765 005d 000000   		.align	3
 766              	.LC7:
 767 0060 456E642E 		.string	"End...\n"
 767      2E2E0A00 
 768              		.text
 769              		.align	2
 770              		.globl	_Z11threadTest1v
 772              	_Z11threadTest1v:
 773              	.LFB27:
  62:src/Tests.cpp ****     Thread* t1 = new Thread(&thread1Function, 0);
 774              		.loc 2 62 1 is_stmt 1
 775              		.cfi_startproc
 776              		.cfi_personality 0x9b,DW.ref.__gxx_personality_v0
 777              		.cfi_lsda 0x1b,.LLSDA27
 778 037c 130101FE 		addi	sp,sp,-32
 779              		.cfi_def_cfa_offset 32
 780 0380 233C1100 		sd	ra,24(sp)
 781 0384 23388100 		sd	s0,16(sp)
 782 0388 23349100 		sd	s1,8(sp)
 783 038c 23302101 		sd	s2,0(sp)
 784              		.cfi_offset 1, -8
 785              		.cfi_offset 8, -16
 786              		.cfi_offset 9, -24
 787              		.cfi_offset 18, -32
 788 0390 13040102 		addi	s0,sp,32
 789              		.cfi_def_cfa 8, 0
  63:src/Tests.cpp ****     t1->start();
 790              		.loc 2 63 5
  63:src/Tests.cpp ****     t1->start();
 791              		.loc 2 63 48 is_stmt 0
 792 0394 13050002 		li	a0,32
 793              	.LEHB0:
GAS LISTING /tmp/cceOdYyw.s 			page 27


 794 0398 97000000 		call	_Znwm@plt
 794      E7800000 
 795              	.LVL71:
 796              	.LEHE0:
 797 03a0 93040500 		mv	s1,a0
 798 03a4 13060000 		li	a2,0
 799 03a8 97050000 		lla	a1,_Z15thread1FunctionPv
 799      93850500 
 800              	.LEHB1:
 801 03b0 97000000 		call	_ZN6ThreadC1EPFvPvES0_@plt
 801      E7800000 
 802              	.LVL72:
 803              	.LEHE1:
  64:src/Tests.cpp ****     Thread* t2 = new Thread(&thread2Function, 0);
 804              		.loc 2 64 5 is_stmt 1 discriminator 2
  64:src/Tests.cpp ****     Thread* t2 = new Thread(&thread2Function, 0);
 805              		.loc 2 64 14 is_stmt 0 discriminator 2
 806 03b8 13850400 		mv	a0,s1
 807              	.LEHB2:
 808 03bc 97000000 		call	_ZN6Thread5startEv@plt
 808      E7800000 
 809              	.LVL73:
  65:src/Tests.cpp ****     t2->start();
 810              		.loc 2 65 5 is_stmt 1 discriminator 2
  65:src/Tests.cpp ****     t2->start();
 811              		.loc 2 65 48 is_stmt 0 discriminator 2
 812 03c4 13050002 		li	a0,32
 813 03c8 97000000 		call	_Znwm@plt
 813      E7800000 
 814              	.LVL74:
 815              	.LEHE2:
 816 03d0 13090500 		mv	s2,a0
 817 03d4 13060000 		li	a2,0
 818 03d8 97050000 		lla	a1,_Z15thread2FunctionPv
 818      93850500 
 819              	.LEHB3:
 820 03e0 97000000 		call	_ZN6ThreadC1EPFvPvES0_@plt
 820      E7800000 
 821              	.LVL75:
 822              	.LEHE3:
  66:src/Tests.cpp ****     Riscv::enableInterrupts();
 823              		.loc 2 66 5 is_stmt 1 discriminator 2
  66:src/Tests.cpp ****     Riscv::enableInterrupts();
 824              		.loc 2 66 14 is_stmt 0 discriminator 2
 825 03e8 13050900 		mv	a0,s2
 826              	.LEHB4:
 827 03ec 97000000 		call	_ZN6Thread5startEv@plt
 827      E7800000 
 828              	.LVL76:
  67:src/Tests.cpp ****     while(((PCB*)(t1->myHandle))->getState() != PCB::FINISHED || ((PCB*)(t2->myHandle))->getState()
 829              		.loc 2 67 5 is_stmt 1 discriminator 2
  67:src/Tests.cpp ****     while(((PCB*)(t1->myHandle))->getState() != PCB::FINISHED || ((PCB*)(t2->myHandle))->getState()
 830              		.loc 2 67 28 is_stmt 0 discriminator 2
 831 03f4 97000000 		call	_ZN5Riscv16enableInterruptsEv@plt
 831      E7800000 
 832              	.LVL77:
 833 03fc 6F00C001 		j	.L61
GAS LISTING /tmp/cceOdYyw.s 			page 28


 834              	.L59:
  70:src/Tests.cpp ****         thread_dispatch();
 835              		.loc 2 70 9 is_stmt 1 discriminator 3
  70:src/Tests.cpp ****         thread_dispatch();
 836              		.loc 2 70 27 is_stmt 0 discriminator 3
 837 0400 17050000 		lla	a0,.LC6
 837      13050500 
 838 0408 97000000 		call	_ZN5Riscv11printStringEPKc@plt
 838      E7800000 
 839              	.LVL78:
  71:src/Tests.cpp ****     }
 840              		.loc 2 71 9 is_stmt 1 discriminator 3
  71:src/Tests.cpp ****     }
 841              		.loc 2 71 24 is_stmt 0 discriminator 3
 842 0410 97000000 		call	thread_dispatch@plt
 842      E7800000 
 843              	.LVL79:
 844              	.L61:
  68:src/Tests.cpp ****     {
 845              		.loc 2 68 5 is_stmt 1
  68:src/Tests.cpp ****     {
 846              		.loc 2 68 63
  68:src/Tests.cpp ****     {
 847              		.loc 2 68 23 is_stmt 0
 848 0418 83B78400 		ld	a5,8(s1)
 849              	.LVL80:
 850              	.LBB32:
 851              	.LBB33:
 852              		.file 4 "src/../h/PCB.hpp"
   1:src/../h/PCB.hpp **** //
   2:src/../h/PCB.hpp **** // Created by os on 4/27/22.
   3:src/../h/PCB.hpp **** //
   4:src/../h/PCB.hpp **** 
   5:src/../h/PCB.hpp **** #ifndef PROJECT_BASE_V1_0_PCB_HPP
   6:src/../h/PCB.hpp **** #define PROJECT_BASE_V1_0_PCB_HPP
   7:src/../h/PCB.hpp **** 
   8:src/../h/PCB.hpp **** #include "../lib/hw.h"
   9:src/../h/PCB.hpp **** #include "Scheduler.hpp"
  10:src/../h/PCB.hpp **** #include "Riscv.hpp"
  11:src/../h/PCB.hpp **** 
  12:src/../h/PCB.hpp **** class PCB
  13:src/../h/PCB.hpp **** {
  14:src/../h/PCB.hpp **** public:
  15:src/../h/PCB.hpp ****     static uint64 savedRegA4;
  16:src/../h/PCB.hpp **** 
  17:src/../h/PCB.hpp ****     using Body = void (*)(void*);
  18:src/../h/PCB.hpp **** 
  19:src/../h/PCB.hpp ****     PCB(Body body,  void* args, void* stack_space, uint64 timeSlice);
  20:src/../h/PCB.hpp ****     ~PCB();
  21:src/../h/PCB.hpp **** 
  22:src/../h/PCB.hpp ****     void start();
  23:src/../h/PCB.hpp ****     static void dispatch();
  24:src/../h/PCB.hpp ****     static void sleep(time_t);
  25:src/../h/PCB.hpp **** 
  26:src/../h/PCB.hpp ****     static PCB* running;
  27:src/../h/PCB.hpp **** 
  28:src/../h/PCB.hpp ****     static uint64 timeSliceCounter;
GAS LISTING /tmp/cceOdYyw.s 			page 29


  29:src/../h/PCB.hpp ****     uint64 getTimeSlice() { return timeSlice;}
  30:src/../h/PCB.hpp **** 
  31:src/../h/PCB.hpp ****     void* operator new(size_t size);
  32:src/../h/PCB.hpp ****     void operator delete(void *p);
  33:src/../h/PCB.hpp **** 
  34:src/../h/PCB.hpp ****     enum State{READY, RUNNING, SUSPENDED, FINISHED, EXITING, SLEEPING};
  35:src/../h/PCB.hpp ****     State getState() {return state;}
 853              		.loc 4 35 23 is_stmt 1
 854              		.loc 4 35 30 is_stmt 0
 855 041c 03A78703 		lw	a4,56(a5)
 856              	.LVL81:
 857              	.LBE33:
 858              	.LBE32:
  68:src/Tests.cpp ****     {
 859              		.loc 2 68 63
 860 0420 93073000 		li	a5,3
 861 0424 E31EF7FC 		bne	a4,a5,.L59
  68:src/Tests.cpp ****     {
 862              		.loc 2 68 78 discriminator 2
 863 0428 83378900 		ld	a5,8(s2)
 864              	.LVL82:
 865              	.LBB34:
 866              	.LBB35:
 867              		.loc 4 35 23 is_stmt 1 discriminator 2
 868              		.loc 4 35 30 is_stmt 0 discriminator 2
 869 042c 03A78703 		lw	a4,56(a5)
 870              	.LVL83:
 871              	.LBE35:
 872              	.LBE34:
  68:src/Tests.cpp ****     {
 873              		.loc 2 68 63 discriminator 2
 874 0430 93073000 		li	a5,3
 875 0434 E316F7FC 		bne	a4,a5,.L59
  74:src/Tests.cpp ****     Riscv::disableInterrupts();
 876              		.loc 2 74 5 is_stmt 1
  74:src/Tests.cpp ****     Riscv::disableInterrupts();
 877              		.loc 2 74 23 is_stmt 0
 878 0438 17050000 		lla	a0,.LC7
 878      13050500 
 879 0440 97000000 		call	_ZN5Riscv11printStringEPKc@plt
 879      E7800000 
 880              	.LVL84:
  75:src/Tests.cpp **** }
 881              		.loc 2 75 5 is_stmt 1
  75:src/Tests.cpp **** }
 882              		.loc 2 75 29 is_stmt 0
 883 0448 97000000 		call	_ZN5Riscv17disableInterruptsEv@plt
 883      E7800000 
 884              	.LVL85:
 885              	.LEHE4:
  76:src/Tests.cpp **** 
 886              		.loc 2 76 1
 887 0450 83308101 		ld	ra,24(sp)
 888              		.cfi_remember_state
 889              		.cfi_restore 1
 890 0454 03340101 		ld	s0,16(sp)
 891              		.cfi_restore 8
GAS LISTING /tmp/cceOdYyw.s 			page 30


 892              		.cfi_def_cfa 2, 32
 893 0458 83348100 		ld	s1,8(sp)
 894              		.cfi_restore 9
 895              	.LVL86:
 896 045c 03390100 		ld	s2,0(sp)
 897              		.cfi_restore 18
 898              	.LVL87:
 899 0460 13010102 		addi	sp,sp,32
 900              		.cfi_def_cfa_offset 0
 901 0464 67800000 		jr	ra
 902              	.L64:
 903              		.cfi_restore_state
 904 0468 13090500 		mv	s2,a0
  63:src/Tests.cpp ****     t1->start();
 905              		.loc 2 63 48
 906 046c 13850400 		mv	a0,s1
 907 0470 97000000 		call	_ZdlPv@plt
 907      E7800000 
 908              	.LVL88:
 909 0478 13050900 		mv	a0,s2
 910              	.LEHB5:
 911 047c 97000000 		call	_Unwind_Resume@plt
 911      E7800000 
 912              	.LVL89:
 913              	.LEHE5:
 914              	.L65:
 915 0484 93040500 		mv	s1,a0
 916              	.LVL90:
  65:src/Tests.cpp ****     t2->start();
 917              		.loc 2 65 48
 918 0488 13050900 		mv	a0,s2
 919 048c 97000000 		call	_ZdlPv@plt
 919      E7800000 
 920              	.LVL91:
 921 0494 13850400 		mv	a0,s1
 922              	.LEHB6:
 923 0498 97000000 		call	_Unwind_Resume@plt
 923      E7800000 
 924              	.LVL92:
 925              	.LEHE6:
 926              		.cfi_endproc
 927              	.LFE27:
 928              		.globl	__gxx_personality_v0
 929              		.section	.gcc_except_table,"a",@progbits
 930              	.LLSDA27:
 931 0000 FF       		.byte	0xff
 932 0001 FF       		.byte	0xff
 933 0002 03       		.byte	0x3
 934 0003 5B       		.byte	0x5b
 935 0004 00000000 		.4byte	.LEHB0-.LFB27
 936 0008 00000000 		.4byte	.LEHE0-.LEHB0
 937 000c 00000000 		.4byte	0
 938 0010 00       		.byte	0
 939 0011 00000000 		.4byte	.LEHB1-.LFB27
 940 0015 00000000 		.4byte	.LEHE1-.LEHB1
 941 0019 00000000 		.4byte	.L64-.LFB27
 942 001d 00       		.byte	0
GAS LISTING /tmp/cceOdYyw.s 			page 31


 943 001e 00000000 		.4byte	.LEHB2-.LFB27
 944 0022 00000000 		.4byte	.LEHE2-.LEHB2
 945 0026 00000000 		.4byte	0
 946 002a 00       		.byte	0
 947 002b 00000000 		.4byte	.LEHB3-.LFB27
 948 002f 00000000 		.4byte	.LEHE3-.LEHB3
 949 0033 00000000 		.4byte	.L65-.LFB27
 950 0037 00       		.byte	0
 951 0038 00000000 		.4byte	.LEHB4-.LFB27
 952 003c 00000000 		.4byte	.LEHE4-.LEHB4
 953 0040 00000000 		.4byte	0
 954 0044 00       		.byte	0
 955 0045 00000000 		.4byte	.LEHB5-.LFB27
 956 0049 00000000 		.4byte	.LEHE5-.LEHB5
 957 004d 00000000 		.4byte	0
 958 0051 00       		.byte	0
 959 0052 00000000 		.4byte	.LEHB6-.LFB27
 960 0056 00000000 		.4byte	.LEHE6-.LEHB6
 961 005a 00000000 		.4byte	0
 962 005e 00       		.byte	0
 963              		.text
 965              		.align	2
 966              		.globl	_Z11threadTest2v
 968              	_Z11threadTest2v:
 969              	.LFB28:
  79:src/Tests.cpp ****     Thread* idleThread = new Thread(&idle, 0);
 970              		.loc 2 79 1 is_stmt 1
 971              		.cfi_startproc
 972              		.cfi_personality 0x9b,DW.ref.__gxx_personality_v0
 973              		.cfi_lsda 0x1b,.LLSDA28
 974 04a0 130101FE 		addi	sp,sp,-32
 975              		.cfi_def_cfa_offset 32
 976 04a4 233C1100 		sd	ra,24(sp)
 977 04a8 23388100 		sd	s0,16(sp)
 978 04ac 23349100 		sd	s1,8(sp)
 979 04b0 23302101 		sd	s2,0(sp)
 980              		.cfi_offset 1, -8
 981              		.cfi_offset 8, -16
 982              		.cfi_offset 9, -24
 983              		.cfi_offset 18, -32
 984 04b4 13040102 		addi	s0,sp,32
 985              		.cfi_def_cfa 8, 0
  80:src/Tests.cpp ****     idleThread->start();
 986              		.loc 2 80 5
  80:src/Tests.cpp ****     idleThread->start();
 987              		.loc 2 80 45 is_stmt 0
 988 04b8 13050002 		li	a0,32
 989              	.LEHB7:
 990 04bc 97000000 		call	_Znwm@plt
 990      E7800000 
 991              	.LVL93:
 992              	.LEHE7:
 993 04c4 93040500 		mv	s1,a0
 994 04c8 13060000 		li	a2,0
 995 04cc 97050000 		lla	a1,_Z4idlePv
 995      93850500 
 996              	.LEHB8:
GAS LISTING /tmp/cceOdYyw.s 			page 32


 997 04d4 97000000 		call	_ZN6ThreadC1EPFvPvES0_@plt
 997      E7800000 
 998              	.LVL94:
 999              	.LEHE8:
  81:src/Tests.cpp ****     Thread* t1 = new Thread(&thread1Function, 0);
 1000              		.loc 2 81 5 is_stmt 1 discriminator 2
  81:src/Tests.cpp ****     Thread* t1 = new Thread(&thread1Function, 0);
 1001              		.loc 2 81 22 is_stmt 0 discriminator 2
 1002 04dc 13850400 		mv	a0,s1
 1003              	.LEHB9:
 1004 04e0 97000000 		call	_ZN6Thread5startEv@plt
 1004      E7800000 
 1005              	.LVL95:
  82:src/Tests.cpp ****     t1->start();
 1006              		.loc 2 82 5 is_stmt 1 discriminator 2
  82:src/Tests.cpp ****     t1->start();
 1007              		.loc 2 82 48 is_stmt 0 discriminator 2
 1008 04e8 13050002 		li	a0,32
 1009 04ec 97000000 		call	_Znwm@plt
 1009      E7800000 
 1010              	.LVL96:
 1011              	.LEHE9:
 1012 04f4 13090500 		mv	s2,a0
 1013 04f8 13060000 		li	a2,0
 1014 04fc 97050000 		lla	a1,_Z15thread1FunctionPv
 1014      93850500 
 1015              	.LEHB10:
 1016 0504 97000000 		call	_ZN6ThreadC1EPFvPvES0_@plt
 1016      E7800000 
 1017              	.LVL97:
 1018              	.LEHE10:
  83:src/Tests.cpp ****     Thread* t2  = new Thread(&thread2FunctionTest2, 0);
 1019              		.loc 2 83 5 is_stmt 1 discriminator 2
  83:src/Tests.cpp ****     Thread* t2  = new Thread(&thread2FunctionTest2, 0);
 1020              		.loc 2 83 14 is_stmt 0 discriminator 2
 1021 050c 13050900 		mv	a0,s2
 1022              	.LEHB11:
 1023 0510 97000000 		call	_ZN6Thread5startEv@plt
 1023      E7800000 
 1024              	.LVL98:
  84:src/Tests.cpp ****     t2->start();
 1025              		.loc 2 84 5 is_stmt 1 discriminator 2
  84:src/Tests.cpp ****     t2->start();
 1026              		.loc 2 84 54 is_stmt 0 discriminator 2
 1027 0518 13050002 		li	a0,32
 1028 051c 97000000 		call	_Znwm@plt
 1028      E7800000 
 1029              	.LVL99:
 1030              	.LEHE11:
 1031 0524 13090500 		mv	s2,a0
 1032              	.LVL100:
 1033 0528 13060000 		li	a2,0
 1034 052c 97050000 		lla	a1,_Z20thread2FunctionTest2Pv
 1034      93850500 
 1035              	.LEHB12:
 1036 0534 97000000 		call	_ZN6ThreadC1EPFvPvES0_@plt
 1036      E7800000 
GAS LISTING /tmp/cceOdYyw.s 			page 33


 1037              	.LVL101:
 1038              	.LEHE12:
  85:src/Tests.cpp **** 
 1039              		.loc 2 85 5 is_stmt 1 discriminator 2
  85:src/Tests.cpp **** 
 1040              		.loc 2 85 14 is_stmt 0 discriminator 2
 1041 053c 13050900 		mv	a0,s2
 1042              	.LEHB13:
 1043 0540 97000000 		call	_ZN6Thread5startEv@plt
 1043      E7800000 
 1044              	.LVL102:
  87:src/Tests.cpp **** 
 1045              		.loc 2 87 5 is_stmt 1 discriminator 2
  87:src/Tests.cpp **** 
 1046              		.loc 2 87 28 is_stmt 0 discriminator 2
 1047 0548 97000000 		call	_ZN5Riscv16enableInterruptsEv@plt
 1047      E7800000 
 1048              	.LVL103:
 1049              	.L69:
  89:src/Tests.cpp **** 
 1050              		.loc 2 89 5 is_stmt 1
  89:src/Tests.cpp **** 
 1051              		.loc 2 89 52
  89:src/Tests.cpp **** 
 1052              		.loc 2 89 30 is_stmt 0
 1053 0550 83B78400 		ld	a5,8(s1)
 1054              	.LVL104:
 1055              	.LBB36:
 1056              	.LBB37:
 1057              		.loc 4 35 23 is_stmt 1
 1058              		.loc 4 35 30 is_stmt 0
 1059 0554 03A78703 		lw	a4,56(a5)
 1060              	.LVL105:
 1061              	.LBE37:
 1062              	.LBE36:
  89:src/Tests.cpp **** 
 1063              		.loc 2 89 52
 1064 0558 93073000 		li	a5,3
 1065 055c E31AF7FE 		bne	a4,a5,.L69
  91:src/Tests.cpp **** 
 1066              		.loc 2 91 5 is_stmt 1
  91:src/Tests.cpp **** 
 1067              		.loc 2 91 23 is_stmt 0
 1068 0560 17050000 		lla	a0,.LC7
 1068      13050500 
 1069 0568 97000000 		call	_ZN5Riscv11printStringEPKc@plt
 1069      E7800000 
 1070              	.LVL106:
  93:src/Tests.cpp **** }
 1071              		.loc 2 93 5 is_stmt 1
  93:src/Tests.cpp **** }
 1072              		.loc 2 93 29 is_stmt 0
 1073 0570 97000000 		call	_ZN5Riscv17disableInterruptsEv@plt
 1073      E7800000 
 1074              	.LVL107:
 1075              	.LEHE13:
  94:src/Tests.cpp **** 
GAS LISTING /tmp/cceOdYyw.s 			page 34


 1076              		.loc 2 94 1
 1077 0578 83308101 		ld	ra,24(sp)
 1078              		.cfi_remember_state
 1079              		.cfi_restore 1
 1080 057c 03340101 		ld	s0,16(sp)
 1081              		.cfi_restore 8
 1082              		.cfi_def_cfa 2, 32
 1083 0580 83348100 		ld	s1,8(sp)
 1084              		.cfi_restore 9
 1085              	.LVL108:
 1086 0584 03390100 		ld	s2,0(sp)
 1087              		.cfi_restore 18
 1088              	.LVL109:
 1089 0588 13010102 		addi	sp,sp,32
 1090              		.cfi_def_cfa_offset 0
 1091 058c 67800000 		jr	ra
 1092              	.L73:
 1093              		.cfi_restore_state
 1094 0590 13090500 		mv	s2,a0
  80:src/Tests.cpp ****     idleThread->start();
 1095              		.loc 2 80 45
 1096 0594 13850400 		mv	a0,s1
 1097 0598 97000000 		call	_ZdlPv@plt
 1097      E7800000 
 1098              	.LVL110:
 1099 05a0 13050900 		mv	a0,s2
 1100              	.LEHB14:
 1101 05a4 97000000 		call	_Unwind_Resume@plt
 1101      E7800000 
 1102              	.LVL111:
 1103              	.LEHE14:
 1104              	.L74:
 1105 05ac 93040500 		mv	s1,a0
 1106              	.LVL112:
  82:src/Tests.cpp ****     t1->start();
 1107              		.loc 2 82 48
 1108 05b0 13050900 		mv	a0,s2
 1109 05b4 97000000 		call	_ZdlPv@plt
 1109      E7800000 
 1110              	.LVL113:
 1111 05bc 13850400 		mv	a0,s1
 1112              	.LEHB15:
 1113 05c0 97000000 		call	_Unwind_Resume@plt
 1113      E7800000 
 1114              	.LVL114:
 1115              	.LEHE15:
 1116              	.L75:
 1117 05c8 93040500 		mv	s1,a0
 1118              	.LVL115:
  84:src/Tests.cpp ****     t2->start();
 1119              		.loc 2 84 54
 1120 05cc 13050900 		mv	a0,s2
 1121 05d0 97000000 		call	_ZdlPv@plt
 1121      E7800000 
 1122              	.LVL116:
 1123 05d8 13850400 		mv	a0,s1
 1124              	.LEHB16:
GAS LISTING /tmp/cceOdYyw.s 			page 35


 1125 05dc 97000000 		call	_Unwind_Resume@plt
 1125      E7800000 
 1126              	.LVL117:
 1127              	.LEHE16:
 1128              		.cfi_endproc
 1129              	.LFE28:
 1130              		.section	.gcc_except_table
 1131              	.LLSDA28:
 1132 005f FF       		.byte	0xff
 1133 0060 FF       		.byte	0xff
 1134 0061 03       		.byte	0x3
 1135 0062 8201     		.byte	0x82,0x1
 1136 0064 00000000 		.4byte	.LEHB7-.LFB28
 1137 0068 00000000 		.4byte	.LEHE7-.LEHB7
 1138 006c 00000000 		.4byte	0
 1139 0070 00       		.byte	0
 1140 0071 00000000 		.4byte	.LEHB8-.LFB28
 1141 0075 00000000 		.4byte	.LEHE8-.LEHB8
 1142 0079 00000000 		.4byte	.L73-.LFB28
 1143 007d 00       		.byte	0
 1144 007e 00000000 		.4byte	.LEHB9-.LFB28
 1145 0082 00000000 		.4byte	.LEHE9-.LEHB9
 1146 0086 00000000 		.4byte	0
 1147 008a 00       		.byte	0
 1148 008b 00000000 		.4byte	.LEHB10-.LFB28
 1149 008f 00000000 		.4byte	.LEHE10-.LEHB10
 1150 0093 00000000 		.4byte	.L74-.LFB28
 1151 0097 00       		.byte	0
 1152 0098 00000000 		.4byte	.LEHB11-.LFB28
 1153 009c 00000000 		.4byte	.LEHE11-.LEHB11
 1154 00a0 00000000 		.4byte	0
 1155 00a4 00       		.byte	0
 1156 00a5 00000000 		.4byte	.LEHB12-.LFB28
 1157 00a9 00000000 		.4byte	.LEHE12-.LEHB12
 1158 00ad 00000000 		.4byte	.L75-.LFB28
 1159 00b1 00       		.byte	0
 1160 00b2 00000000 		.4byte	.LEHB13-.LFB28
 1161 00b6 00000000 		.4byte	.LEHE13-.LEHB13
 1162 00ba 00000000 		.4byte	0
 1163 00be 00       		.byte	0
 1164 00bf 00000000 		.4byte	.LEHB14-.LFB28
 1165 00c3 00000000 		.4byte	.LEHE14-.LEHB14
 1166 00c7 00000000 		.4byte	0
 1167 00cb 00       		.byte	0
 1168 00cc 00000000 		.4byte	.LEHB15-.LFB28
 1169 00d0 00000000 		.4byte	.LEHE15-.LEHB15
 1170 00d4 00000000 		.4byte	0
 1171 00d8 00       		.byte	0
 1172 00d9 00000000 		.4byte	.LEHB16-.LFB28
 1173 00dd 00000000 		.4byte	.LEHE16-.LEHB16
 1174 00e1 00000000 		.4byte	0
 1175 00e5 00       		.byte	0
 1176              		.text
 1178              		.align	2
 1179              		.globl	_Z11threadTestsv
 1181              	_Z11threadTestsv:
 1182              	.LFB30:
GAS LISTING /tmp/cceOdYyw.s 			page 36


 108:src/Tests.cpp ****     //threadTest1();
 1183              		.loc 2 108 1 is_stmt 1
 1184              		.cfi_startproc
 1185 05e4 130101FF 		addi	sp,sp,-16
 1186              		.cfi_def_cfa_offset 16
 1187 05e8 23348100 		sd	s0,8(sp)
 1188              		.cfi_offset 8, -8
 1189 05ec 13040101 		addi	s0,sp,16
 1190              		.cfi_def_cfa 8, 0
 112:src/Tests.cpp **** 
 1191              		.loc 2 112 1 is_stmt 0
 1192 05f0 03348100 		ld	s0,8(sp)
 1193              		.cfi_restore 8
 1194              		.cfi_def_cfa 2, 16
 1195 05f4 13010101 		addi	sp,sp,16
 1196              		.cfi_def_cfa_offset 0
 1197 05f8 67800000 		jr	ra
 1198              		.cfi_endproc
 1199              	.LFE30:
 1201              		.section	.rodata.str1.8
 1202              		.align	3
 1203              	.LC8:
 1204 0068 6D616C6C 		.string	"mallocFree\n"
 1204      6F634672 
 1204      65650A00 
 1205 0074 00000000 		.align	3
 1206              	.LC9:
 1207 0078 6E6F7420 		.string	"not OK\n"
 1207      4F4B0A00 
 1208              		.align	3
 1209              	.LC10:
 1210 0080 4F4B0A00 		.string	"OK\n"
 1211              		.text
 1212              		.align	2
 1213              		.globl	_Z10mallocFreev
 1215              	_Z10mallocFreev:
 1216              	.LFB31:
 117:src/Tests.cpp ****     Riscv::printString("mallocFree\n");
 1217              		.loc 2 117 1 is_stmt 1
 1218              		.cfi_startproc
 1219 05fc 130101CC 		addi	sp,sp,-832
 1220              		.cfi_def_cfa_offset 832
 1221 0600 233C1132 		sd	ra,824(sp)
 1222 0604 23388132 		sd	s0,816(sp)
 1223 0608 23349132 		sd	s1,808(sp)
 1224              		.cfi_offset 1, -8
 1225              		.cfi_offset 8, -16
 1226              		.cfi_offset 9, -24
 1227 060c 13040134 		addi	s0,sp,832
 1228              		.cfi_def_cfa 8, 0
 118:src/Tests.cpp ****     constexpr int num = 100;
 1229              		.loc 2 118 5
 118:src/Tests.cpp ****     constexpr int num = 100;
 1230              		.loc 2 118 23 is_stmt 0
 1231 0610 17050000 		lla	a0,.LC8
 1231      13050500 
 1232 0618 97000000 		call	_ZN5Riscv11printStringEPKc@plt
GAS LISTING /tmp/cceOdYyw.s 			page 37


 1232      E7800000 
 1233              	.LVL118:
 1234              	.LBB38:
 121:src/Tests.cpp ****     {
 1235              		.loc 2 121 13
 1236 0620 93040000 		li	s1,0
 1237 0624 6F008000 		j	.L84
 1238              	.LVL119:
 1239              	.L82:
 121:src/Tests.cpp ****     {
 1240              		.loc 2 121 5 is_stmt 1 discriminator 2
 1241 0628 9B841400 		addiw	s1,s1,1
 1242              	.LVL120:
 1243              	.L84:
 121:src/Tests.cpp ****     {
 1244              		.loc 2 121 22 discriminator 1
 1245 062c 93073006 		li	a5,99
 1246 0630 63C49704 		bgt	s1,a5,.L92
 123:src/Tests.cpp ****         if(addrs[i] == 0)
 1247              		.loc 2 123 9
 123:src/Tests.cpp ****         if(addrs[i] == 0)
 1248              		.loc 2 123 29 is_stmt 0
 1249 0634 13054006 		li	a0,100
 1250 0638 97000000 		call	mem_alloc@plt
 1250      E7800000 
 1251              	.LVL121:
 123:src/Tests.cpp ****         if(addrs[i] == 0)
 1252              		.loc 2 123 18
 1253 0640 93973400 		slli	a5,s1,3
 1254 0644 130704FE 		addi	a4,s0,-32
 1255 0648 B307F700 		add	a5,a4,a5
 1256 064c 23B0A7CE 		sd	a0,-800(a5)
 124:src/Tests.cpp ****         {
 1257              		.loc 2 124 9 is_stmt 1
 1258 0650 E31C05FC 		bnez	a0,.L82
 126:src/Tests.cpp ****             return;
 1259              		.loc 2 126 13
 126:src/Tests.cpp ****             return;
 1260              		.loc 2 126 31 is_stmt 0
 1261 0654 17050000 		lla	a0,.LC9
 1261      13050500 
 1262 065c 97000000 		call	_ZN5Riscv11printStringEPKc@plt
 1262      E7800000 
 1263              	.LVL122:
 127:src/Tests.cpp ****         }
 1264              		.loc 2 127 13 is_stmt 1
 1265              	.L80:
 1266              	.LBE38:
 163:src/Tests.cpp **** void bigMalloc()
 1267              		.loc 2 163 1 is_stmt 0
 1268 0664 83308133 		ld	ra,824(sp)
 1269              		.cfi_remember_state
 1270              		.cfi_restore 1
 1271 0668 03340133 		ld	s0,816(sp)
 1272              		.cfi_restore 8
 1273              		.cfi_def_cfa 2, 832
 1274 066c 83348132 		ld	s1,808(sp)
GAS LISTING /tmp/cceOdYyw.s 			page 38


 1275              		.cfi_restore 9
 1276 0670 13010134 		addi	sp,sp,832
 1277              		.cfi_def_cfa_offset 0
 1278 0674 67800000 		jr	ra
 1279              	.LVL123:
 1280              	.L92:
 1281              		.cfi_restore_state
 1282              	.LBB39:
 132:src/Tests.cpp ****     {
 1283              		.loc 2 132 13
 1284 0678 93040000 		li	s1,0
 1285              	.LVL124:
 1286              	.L81:
 132:src/Tests.cpp ****     {
 1287              		.loc 2 132 23 is_stmt 1 discriminator 1
 1288 067c 93073006 		li	a5,99
 1289 0680 63CE9702 		bgt	s1,a5,.L93
 1290              	.LBB40:
 134:src/Tests.cpp ****         if(retval != 0)
 1291              		.loc 2 134 9
 134:src/Tests.cpp ****         if(retval != 0)
 1292              		.loc 2 134 30 is_stmt 0
 1293 0684 93973400 		slli	a5,s1,3
 1294 0688 130704FE 		addi	a4,s0,-32
 1295 068c B307F700 		add	a5,a4,a5
 1296 0690 03B507CE 		ld	a0,-800(a5)
 1297 0694 97000000 		call	mem_free@plt
 1297      E7800000 
 1298              	.LVL125:
 135:src/Tests.cpp ****         {
 1299              		.loc 2 135 9 is_stmt 1
 1300 069c 63160500 		bnez	a0,.L96
 1301              	.LBE40:
 132:src/Tests.cpp ****     {
 1302              		.loc 2 132 5 discriminator 2
 132:src/Tests.cpp ****     {
 1303              		.loc 2 132 30 is_stmt 0 discriminator 2
 1304 06a0 9B842400 		addiw	s1,s1,2
 1305              	.LVL126:
 132:src/Tests.cpp ****     {
 1306              		.loc 2 132 5 discriminator 2
 1307 06a4 6FF09FFD 		j	.L81
 1308              	.LVL127:
 1309              	.L96:
 1310              	.LBB41:
 137:src/Tests.cpp ****             return;
 1311              		.loc 2 137 13 is_stmt 1
 137:src/Tests.cpp ****             return;
 1312              		.loc 2 137 31 is_stmt 0
 1313 06a8 17050000 		lla	a0,.LC9
 1313      13050500 
 1314              	.LVL128:
 1315 06b0 97000000 		call	_ZN5Riscv11printStringEPKc@plt
 1315      E7800000 
 1316              	.LVL129:
 138:src/Tests.cpp ****         }
 1317              		.loc 2 138 13 is_stmt 1
GAS LISTING /tmp/cceOdYyw.s 			page 39


 1318 06b8 6FF0DFFA 		j	.L80
 1319              	.L93:
 1320              	.LBE41:
 1321              	.LBE39:
 1322              	.LBB42:
 142:src/Tests.cpp ****     {
 1323              		.loc 2 142 13 is_stmt 0
 1324 06bc 93040000 		li	s1,0
 1325              	.LVL130:
 1326 06c0 6F008000 		j	.L85
 1327              	.LVL131:
 1328              	.L88:
 142:src/Tests.cpp ****     {
 1329              		.loc 2 142 5 is_stmt 1 discriminator 2
 142:src/Tests.cpp ****     {
 1330              		.loc 2 142 30 is_stmt 0 discriminator 2
 1331 06c4 9B842400 		addiw	s1,s1,2
 1332              	.LVL132:
 1333              	.L85:
 142:src/Tests.cpp ****     {
 1334              		.loc 2 142 23 is_stmt 1 discriminator 1
 1335 06c8 93073006 		li	a5,99
 1336 06cc 63CC9702 		bgt	s1,a5,.L94
 144:src/Tests.cpp ****         if(addrs[i] == 0)
 1337              		.loc 2 144 9
 144:src/Tests.cpp ****         if(addrs[i] == 0)
 1338              		.loc 2 144 29 is_stmt 0
 1339 06d0 13054001 		li	a0,20
 1340 06d4 97000000 		call	mem_alloc@plt
 1340      E7800000 
 1341              	.LVL133:
 144:src/Tests.cpp ****         if(addrs[i] == 0)
 1342              		.loc 2 144 18
 1343 06dc 93973400 		slli	a5,s1,3
 1344 06e0 130704FE 		addi	a4,s0,-32
 1345 06e4 B307F700 		add	a5,a4,a5
 1346 06e8 23B0A7CE 		sd	a0,-800(a5)
 145:src/Tests.cpp ****         {
 1347              		.loc 2 145 9 is_stmt 1
 1348 06ec E31C05FC 		bnez	a0,.L88
 147:src/Tests.cpp ****             return;
 1349              		.loc 2 147 13
 147:src/Tests.cpp ****             return;
 1350              		.loc 2 147 31 is_stmt 0
 1351 06f0 17050000 		lla	a0,.LC9
 1351      13050500 
 1352 06f8 97000000 		call	_ZN5Riscv11printStringEPKc@plt
 1352      E7800000 
 1353              	.LVL134:
 148:src/Tests.cpp ****         }
 1354              		.loc 2 148 13 is_stmt 1
 1355 0700 6FF05FF6 		j	.L80
 1356              	.L94:
 1357              	.LBE42:
 1358              	.LBB43:
 152:src/Tests.cpp ****     {
 1359              		.loc 2 152 13 is_stmt 0
GAS LISTING /tmp/cceOdYyw.s 			page 40


 1360 0704 93040000 		li	s1,0
 1361              	.LVL135:
 1362              	.L87:
 152:src/Tests.cpp ****     {
 1363              		.loc 2 152 22 is_stmt 1 discriminator 1
 1364 0708 93073006 		li	a5,99
 1365 070c 63CE9702 		bgt	s1,a5,.L89
 1366              	.LBB44:
 154:src/Tests.cpp ****         if(retval != 0)
 1367              		.loc 2 154 9
 154:src/Tests.cpp ****         if(retval != 0)
 1368              		.loc 2 154 30 is_stmt 0
 1369 0710 93973400 		slli	a5,s1,3
 1370 0714 130704FE 		addi	a4,s0,-32
 1371 0718 B307F700 		add	a5,a4,a5
 1372 071c 03B507CE 		ld	a0,-800(a5)
 1373 0720 97000000 		call	mem_free@plt
 1373      E7800000 
 1374              	.LVL136:
 155:src/Tests.cpp ****         {
 1375              		.loc 2 155 9 is_stmt 1
 1376 0728 63160500 		bnez	a0,.L97
 1377              	.LBE44:
 152:src/Tests.cpp ****     {
 1378              		.loc 2 152 5 discriminator 2
 1379 072c 9B841400 		addiw	s1,s1,1
 1380              	.LVL137:
 1381 0730 6FF09FFD 		j	.L87
 1382              	.LVL138:
 1383              	.L97:
 1384              	.LBB45:
 157:src/Tests.cpp ****             return;
 1385              		.loc 2 157 13
 157:src/Tests.cpp ****             return;
 1386              		.loc 2 157 31 is_stmt 0
 1387 0734 17050000 		lla	a0,.LC9
 1387      13050500 
 1388              	.LVL139:
 1389 073c 97000000 		call	_ZN5Riscv11printStringEPKc@plt
 1389      E7800000 
 1390              	.LVL140:
 158:src/Tests.cpp ****         }
 1391              		.loc 2 158 13 is_stmt 1
 1392 0744 6FF01FF2 		j	.L80
 1393              	.L89:
 1394              	.LBE45:
 1395              	.LBE43:
 162:src/Tests.cpp **** }
 1396              		.loc 2 162 5
 162:src/Tests.cpp **** }
 1397              		.loc 2 162 23 is_stmt 0
 1398 0748 17050000 		lla	a0,.LC10
 1398      13050500 
 1399 0750 97000000 		call	_ZN5Riscv11printStringEPKc@plt
 1399      E7800000 
 1400              	.LVL141:
 1401 0758 6FF0DFF0 		j	.L80
GAS LISTING /tmp/cceOdYyw.s 			page 41


 1402              		.cfi_endproc
 1403              	.LFE31:
 1405              		.section	.rodata.str1.8
 1406 0084 00000000 		.align	3
 1407              	.LC11:
 1408 0088 6269674D 		.string	"bigMalloc\n"
 1408      616C6C6F 
 1408      630A00
 1409              		.text
 1410              		.align	2
 1411              		.globl	_Z9bigMallocv
 1413              	_Z9bigMallocv:
 1414              	.LFB32:
 165:src/Tests.cpp ****     Riscv::printString("bigMalloc\n");
 1415              		.loc 2 165 1 is_stmt 1
 1416              		.cfi_startproc
 1417 075c 130101FF 		addi	sp,sp,-16
 1418              		.cfi_def_cfa_offset 16
 1419 0760 23341100 		sd	ra,8(sp)
 1420 0764 23308100 		sd	s0,0(sp)
 1421              		.cfi_offset 1, -8
 1422              		.cfi_offset 8, -16
 1423 0768 13040101 		addi	s0,sp,16
 1424              		.cfi_def_cfa 8, 0
 166:src/Tests.cpp ****     uint64 x = (uint64)HEAP_END_ADDR - (uint64)HEAP_START_ADDR + 100UL;
 1425              		.loc 2 166 5
 166:src/Tests.cpp ****     uint64 x = (uint64)HEAP_END_ADDR - (uint64)HEAP_START_ADDR + 100UL;
 1426              		.loc 2 166 23 is_stmt 0
 1427 076c 17050000 		lla	a0,.LC11
 1427      13050500 
 1428 0774 97000000 		call	_ZN5Riscv11printStringEPKc@plt
 1428      E7800000 
 1429              	.LVL142:
 167:src/Tests.cpp ****     void* p = mem_alloc(x);
 1430              		.loc 2 167 5 is_stmt 1
 167:src/Tests.cpp ****     void* p = mem_alloc(x);
 1431              		.loc 2 167 38 is_stmt 0
 1432 077c 97070000 		la	a5,HEAP_END_ADDR
 1432      83B70700 
 1433 0784 03B50700 		ld	a0,0(a5)
 1434 0788 97070000 		la	a5,HEAP_START_ADDR
 1434      83B70700 
 1435 0790 83B70700 		ld	a5,0(a5)
 1436 0794 3305F540 		sub	a0,a0,a5
 1437              	.LVL143:
 168:src/Tests.cpp ****     if(p == 0)
 1438              		.loc 2 168 5 is_stmt 1
 168:src/Tests.cpp ****     if(p == 0)
 1439              		.loc 2 168 24 is_stmt 0
 1440 0798 13054506 		addi	a0,a0,100
 1441              	.LVL144:
 1442 079c 97000000 		call	mem_alloc@plt
 1442      E7800000 
 1443              	.LVL145:
 169:src/Tests.cpp ****         Riscv::printString("OK\n");
 1444              		.loc 2 169 5 is_stmt 1
 1445 07a4 63020502 		beqz	a0,.L102
GAS LISTING /tmp/cceOdYyw.s 			page 42


 172:src/Tests.cpp **** }
 1446              		.loc 2 172 9
 172:src/Tests.cpp **** }
 1447              		.loc 2 172 27 is_stmt 0
 1448 07a8 17050000 		lla	a0,.LC9
 1448      13050500 
 1449              	.LVL146:
 1450 07b0 97000000 		call	_ZN5Riscv11printStringEPKc@plt
 1450      E7800000 
 1451              	.LVL147:
 1452              	.L98:
 173:src/Tests.cpp **** 
 1453              		.loc 2 173 1
 1454 07b8 83308100 		ld	ra,8(sp)
 1455              		.cfi_remember_state
 1456              		.cfi_restore 1
 1457 07bc 03340100 		ld	s0,0(sp)
 1458              		.cfi_restore 8
 1459              		.cfi_def_cfa 2, 16
 1460 07c0 13010101 		addi	sp,sp,16
 1461              		.cfi_def_cfa_offset 0
 1462 07c4 67800000 		jr	ra
 1463              	.LVL148:
 1464              	.L102:
 1465              		.cfi_restore_state
 170:src/Tests.cpp ****     else
 1466              		.loc 2 170 9 is_stmt 1
 170:src/Tests.cpp ****     else
 1467              		.loc 2 170 27 is_stmt 0
 1468 07c8 17050000 		lla	a0,.LC10
 1468      13050500 
 1469              	.LVL149:
 1470 07d0 97000000 		call	_ZN5Riscv11printStringEPKc@plt
 1470      E7800000 
 1471              	.LVL150:
 1472 07d8 6FF01FFE 		j	.L98
 1473              		.cfi_endproc
 1474              	.LFE32:
 1476              		.section	.rodata.str1.8
 1477 0093 00000000 		.align	3
 1477      00
 1478              	.LC12:
 1479 0098 6C6F744F 		.string	"lotOfSmallMallocs\n"
 1479      66536D61 
 1479      6C6C4D61 
 1479      6C6C6F63 
 1479      730A00
 1480              		.text
 1481              		.align	2
 1482              		.globl	_Z17lotOfSmallMallocsv
 1484              	_Z17lotOfSmallMallocsv:
 1485              	.LFB33:
 176:src/Tests.cpp ****     Riscv::printString("lotOfSmallMallocs\n");
 1486              		.loc 2 176 1 is_stmt 1
 1487              		.cfi_startproc
 1488 07dc 130101FD 		addi	sp,sp,-48
 1489              		.cfi_def_cfa_offset 48
GAS LISTING /tmp/cceOdYyw.s 			page 43


 1490 07e0 23341102 		sd	ra,40(sp)
 1491 07e4 23308102 		sd	s0,32(sp)
 1492 07e8 233C9100 		sd	s1,24(sp)
 1493 07ec 23382101 		sd	s2,16(sp)
 1494 07f0 23343101 		sd	s3,8(sp)
 1495              		.cfi_offset 1, -8
 1496              		.cfi_offset 8, -16
 1497              		.cfi_offset 9, -24
 1498              		.cfi_offset 18, -32
 1499              		.cfi_offset 19, -40
 1500 07f4 13040103 		addi	s0,sp,48
 1501              		.cfi_def_cfa 8, 0
 177:src/Tests.cpp ****     uint64 cnt = 0;
 1502              		.loc 2 177 5
 177:src/Tests.cpp ****     uint64 cnt = 0;
 1503              		.loc 2 177 23 is_stmt 0
 1504 07f8 17050000 		lla	a0,.LC12
 1504      13050500 
 1505 0800 97000000 		call	_ZN5Riscv11printStringEPKc@plt
 1505      E7800000 
 1506              	.LVL151:
 178:src/Tests.cpp ****     uint64 sum = 0;
 1507              		.loc 2 178 5 is_stmt 1
 179:src/Tests.cpp ****     uint64 N = 10000UL;
 1508              		.loc 2 179 5
 180:src/Tests.cpp ****     uint64 X = 10UL;
 1509              		.loc 2 180 5
 181:src/Tests.cpp ****     for(uint64 i = 0; i < N;i++)
 1510              		.loc 2 181 5
 182:src/Tests.cpp ****     {
 1511              		.loc 2 182 5
 1512              	.LBB46:
 182:src/Tests.cpp ****     {
 1513              		.loc 2 182 16 is_stmt 0
 1514 0808 93040000 		li	s1,0
 1515              	.LBE46:
 179:src/Tests.cpp ****     uint64 N = 10000UL;
 1516              		.loc 2 179 12
 1517 080c 93090000 		li	s3,0
 178:src/Tests.cpp ****     uint64 sum = 0;
 1518              		.loc 2 178 12
 1519 0810 13090000 		li	s2,0
 1520 0814 6F008001 		j	.L105
 1521              	.LVL152:
 1522              	.L109:
 1523              	.LBB49:
 1524              	.LBB47:
 187:src/Tests.cpp ****         sum+=t->a;
 1525              		.loc 2 187 9 is_stmt 1 discriminator 2
 187:src/Tests.cpp ****         sum+=t->a;
 1526              		.loc 2 187 14 is_stmt 0 discriminator 2
 1527 0818 9307A000 		li	a5,10
 1528 081c 2330F500 		sd	a5,0(a0)
 188:src/Tests.cpp ****         cnt++;
 1529              		.loc 2 188 9 is_stmt 1 discriminator 2
 188:src/Tests.cpp ****         cnt++;
 1530              		.loc 2 188 12 is_stmt 0 discriminator 2
GAS LISTING /tmp/cceOdYyw.s 			page 44


 1531 0820 9389A900 		addi	s3,s3,10
 1532              	.LVL153:
 189:src/Tests.cpp ****     }
 1533              		.loc 2 189 9 is_stmt 1 discriminator 2
 189:src/Tests.cpp ****     }
 1534              		.loc 2 189 12 is_stmt 0 discriminator 2
 1535 0824 13091900 		addi	s2,s2,1
 1536              	.LVL154:
 1537              	.LBE47:
 182:src/Tests.cpp ****     {
 1538              		.loc 2 182 5 is_stmt 1 discriminator 2
 1539 0828 93841400 		addi	s1,s1,1
 1540              	.LVL155:
 1541              	.L105:
 182:src/Tests.cpp ****     {
 1542              		.loc 2 182 25 discriminator 1
 1543 082c B7270000 		li	a5,8192
 1544 0830 9387F770 		addi	a5,a5,1807
 1545 0834 63EA9700 		bgtu	s1,a5,.L104
 1546              	.LBB48:
 184:src/Tests.cpp ****         if(t == 0)
 1547              		.loc 2 184 9
 184:src/Tests.cpp ****         if(t == 0)
 1548              		.loc 2 184 35 is_stmt 0
 1549 0838 13058000 		li	a0,8
 1550 083c 97000000 		call	mem_alloc@plt
 1550      E7800000 
 1551              	.LVL156:
 185:src/Tests.cpp ****             break;
 1552              		.loc 2 185 9 is_stmt 1
 1553 0844 E31A05FC 		bnez	a0,.L109
 1554              	.LVL157:
 1555              	.L104:
 1556              	.LBE48:
 1557              	.LBE49:
 191:src/Tests.cpp ****     Riscv::printString("\n");
 1558              		.loc 2 191 5
 191:src/Tests.cpp ****     Riscv::printString("\n");
 1559              		.loc 2 191 24 is_stmt 0
 1560 0848 13050900 		mv	a0,s2
 1561 084c 97000000 		call	_ZN5Riscv12printIntegerEm@plt
 1561      E7800000 
 1562              	.LVL158:
 192:src/Tests.cpp ****     if(sum == X*cnt)
 1563              		.loc 2 192 5 is_stmt 1
 192:src/Tests.cpp ****     if(sum == X*cnt)
 1564              		.loc 2 192 23 is_stmt 0
 1565 0854 17050000 		lla	a0,.LC3
 1565      13050500 
 1566 085c 97000000 		call	_ZN5Riscv11printStringEPKc@plt
 1566      E7800000 
 1567              	.LVL159:
 193:src/Tests.cpp ****         Riscv::printString("OK\n");
 1568              		.loc 2 193 5 is_stmt 1
 193:src/Tests.cpp ****         Riscv::printString("OK\n");
 1569              		.loc 2 193 16 is_stmt 0
 1570 0864 93172900 		slli	a5,s2,2
GAS LISTING /tmp/cceOdYyw.s 			page 45


 1571 0868 33892701 		add	s2,a5,s2
 1572              	.LVL160:
 1573 086c 13191900 		slli	s2,s2,1
 193:src/Tests.cpp ****         Riscv::printString("OK\n");
 1574              		.loc 2 193 5
 1575 0870 63083903 		beq	s2,s3,.L110
 196:src/Tests.cpp **** }
 1576              		.loc 2 196 9 is_stmt 1
 196:src/Tests.cpp **** }
 1577              		.loc 2 196 27 is_stmt 0
 1578 0874 17050000 		lla	a0,.LC9
 1578      13050500 
 1579 087c 97000000 		call	_ZN5Riscv11printStringEPKc@plt
 1579      E7800000 
 1580              	.LVL161:
 1581              	.L103:
 197:src/Tests.cpp **** void badFree()
 1582              		.loc 2 197 1
 1583 0884 83308102 		ld	ra,40(sp)
 1584              		.cfi_remember_state
 1585              		.cfi_restore 1
 1586 0888 03340102 		ld	s0,32(sp)
 1587              		.cfi_restore 8
 1588              		.cfi_def_cfa 2, 48
 1589 088c 83348101 		ld	s1,24(sp)
 1590              		.cfi_restore 9
 1591              	.LVL162:
 1592 0890 03390101 		ld	s2,16(sp)
 1593              		.cfi_restore 18
 1594 0894 83398100 		ld	s3,8(sp)
 1595              		.cfi_restore 19
 1596              	.LVL163:
 1597 0898 13010103 		addi	sp,sp,48
 1598              		.cfi_def_cfa_offset 0
 1599 089c 67800000 		jr	ra
 1600              	.LVL164:
 1601              	.L110:
 1602              		.cfi_restore_state
 194:src/Tests.cpp ****     else
 1603              		.loc 2 194 9 is_stmt 1
 194:src/Tests.cpp ****     else
 1604              		.loc 2 194 27 is_stmt 0
 1605 08a0 17050000 		lla	a0,.LC10
 1605      13050500 
 1606 08a8 97000000 		call	_ZN5Riscv11printStringEPKc@plt
 1606      E7800000 
 1607              	.LVL165:
 1608 08b0 6FF05FFD 		j	.L103
 1609              		.cfi_endproc
 1610              	.LFE33:
 1612              		.section	.rodata.str1.8
 1613 00ab 00000000 		.align	3
 1613      00
 1614              	.LC13:
 1615 00b0 62616446 		.string	"badFree\n"
 1615      7265650A 
 1615      00
GAS LISTING /tmp/cceOdYyw.s 			page 46


 1616              		.text
 1617              		.align	2
 1618              		.globl	_Z7badFreev
 1620              	_Z7badFreev:
 1621              	.LFB34:
 199:src/Tests.cpp ****     Riscv::printString("badFree\n");
 1622              		.loc 2 199 1 is_stmt 1
 1623              		.cfi_startproc
 1624 08b4 130101FF 		addi	sp,sp,-16
 1625              		.cfi_def_cfa_offset 16
 1626 08b8 23341100 		sd	ra,8(sp)
 1627 08bc 23308100 		sd	s0,0(sp)
 1628              		.cfi_offset 1, -8
 1629              		.cfi_offset 8, -16
 1630 08c0 13040101 		addi	s0,sp,16
 1631              		.cfi_def_cfa 8, 0
 200:src/Tests.cpp ****     Test* t = (Test*)mem_alloc(sizeof(Test));
 1632              		.loc 2 200 5
 200:src/Tests.cpp ****     Test* t = (Test*)mem_alloc(sizeof(Test));
 1633              		.loc 2 200 23 is_stmt 0
 1634 08c4 17050000 		lla	a0,.LC13
 1634      13050500 
 1635 08cc 97000000 		call	_ZN5Riscv11printStringEPKc@plt
 1635      E7800000 
 1636              	.LVL166:
 201:src/Tests.cpp ****     uint64 retval = mem_free((char*)t + 2);
 1637              		.loc 2 201 5 is_stmt 1
 201:src/Tests.cpp ****     uint64 retval = mem_free((char*)t + 2);
 1638              		.loc 2 201 31 is_stmt 0
 1639 08d4 13058000 		li	a0,8
 1640 08d8 97000000 		call	mem_alloc@plt
 1640      E7800000 
 1641              	.LVL167:
 202:src/Tests.cpp ****     if(retval == 0)
 1642              		.loc 2 202 5 is_stmt 1
 202:src/Tests.cpp ****     if(retval == 0)
 1643              		.loc 2 202 29 is_stmt 0
 1644 08e0 13052500 		addi	a0,a0,2
 1645              	.LVL168:
 1646 08e4 97000000 		call	mem_free@plt
 1646      E7800000 
 1647              	.LVL169:
 203:src/Tests.cpp ****         Riscv::printString("not OK\n");
 1648              		.loc 2 203 5 is_stmt 1
 1649 08ec 63120502 		bnez	a0,.L112
 204:src/Tests.cpp ****     else
 1650              		.loc 2 204 9
 204:src/Tests.cpp ****     else
 1651              		.loc 2 204 27 is_stmt 0
 1652 08f0 17050000 		lla	a0,.LC9
 1652      13050500 
 1653              	.LVL170:
 1654 08f8 97000000 		call	_ZN5Riscv11printStringEPKc@plt
 1654      E7800000 
 1655              	.LVL171:
 1656              	.L111:
 207:src/Tests.cpp **** 
GAS LISTING /tmp/cceOdYyw.s 			page 47


 1657              		.loc 2 207 1
 1658 0900 83308100 		ld	ra,8(sp)
 1659              		.cfi_remember_state
 1660              		.cfi_restore 1
 1661 0904 03340100 		ld	s0,0(sp)
 1662              		.cfi_restore 8
 1663              		.cfi_def_cfa 2, 16
 1664 0908 13010101 		addi	sp,sp,16
 1665              		.cfi_def_cfa_offset 0
 1666 090c 67800000 		jr	ra
 1667              	.LVL172:
 1668              	.L112:
 1669              		.cfi_restore_state
 206:src/Tests.cpp **** }
 1670              		.loc 2 206 9 is_stmt 1
 206:src/Tests.cpp **** }
 1671              		.loc 2 206 27 is_stmt 0
 1672 0910 17050000 		lla	a0,.LC10
 1672      13050500 
 1673              	.LVL173:
 1674 0918 97000000 		call	_ZN5Riscv11printStringEPKc@plt
 1674      E7800000 
 1675              	.LVL174:
 207:src/Tests.cpp **** 
 1676              		.loc 2 207 1
 1677 0920 6FF01FFE 		j	.L111
 1678              		.cfi_endproc
 1679              	.LFE34:
 1681              		.section	.rodata.str1.8
 1682 00b9 00000000 		.align	3
 1682      000000
 1683              	.LC14:
 1684 00c0 73747265 		.string	"stressTesting\n"
 1684      73735465 
 1684      7374696E 
 1684      670A00
 1685 00cf 00       		.align	3
 1686              	.LC15:
 1687 00d0 6E6F7420 		.string	"not Ok\n"
 1687      4F6B0A00 
 1688              		.text
 1689              		.align	2
 1690              		.globl	_Z13stressTestingv
 1692              	_Z13stressTestingv:
 1693              	.LFB35:
 210:src/Tests.cpp ****     Riscv::printString("stressTesting\n");
 1694              		.loc 2 210 1 is_stmt 1
 1695              		.cfi_startproc
 1696 0924 130101CC 		addi	sp,sp,-832
 1697              		.cfi_def_cfa_offset 832
 1698 0928 233C1132 		sd	ra,824(sp)
 1699 092c 23388132 		sd	s0,816(sp)
 1700 0930 23349132 		sd	s1,808(sp)
 1701 0934 23302133 		sd	s2,800(sp)
 1702              		.cfi_offset 1, -8
 1703              		.cfi_offset 8, -16
 1704              		.cfi_offset 9, -24
GAS LISTING /tmp/cceOdYyw.s 			page 48


 1705              		.cfi_offset 18, -32
 1706 0938 13040134 		addi	s0,sp,832
 1707              		.cfi_def_cfa 8, 0
 211:src/Tests.cpp ****     constexpr int num = 100;
 1708              		.loc 2 211 5
 211:src/Tests.cpp ****     constexpr int num = 100;
 1709              		.loc 2 211 23 is_stmt 0
 1710 093c 17050000 		lla	a0,.LC14
 1710      13050500 
 1711 0944 97000000 		call	_ZN5Riscv11printStringEPKc@plt
 1711      E7800000 
 1712              	.LVL175:
 1713              	.LBB50:
 214:src/Tests.cpp ****     {
 1714              		.loc 2 214 13
 1715 094c 93040000 		li	s1,0
 1716 0950 6F008000 		j	.L119
 1717              	.LVL176:
 1718              	.L117:
 214:src/Tests.cpp ****     {
 1719              		.loc 2 214 5 is_stmt 1 discriminator 2
 1720 0954 9B841400 		addiw	s1,s1,1
 1721              	.LVL177:
 1722              	.L119:
 214:src/Tests.cpp ****     {
 1723              		.loc 2 214 22 discriminator 1
 1724 0958 93073006 		li	a5,99
 1725 095c 63C69704 		bgt	s1,a5,.L129
 216:src/Tests.cpp ****         if(addrs[i] == 0)
 1726              		.loc 2 216 9
 216:src/Tests.cpp ****         if(addrs[i] == 0)
 1727              		.loc 2 216 29 is_stmt 0
 1728 0960 13051000 		li	a0,1
 1729 0964 97000000 		call	mem_alloc@plt
 1729      E7800000 
 1730              	.LVL178:
 216:src/Tests.cpp ****         if(addrs[i] == 0)
 1731              		.loc 2 216 18
 1732 096c 93973400 		slli	a5,s1,3
 1733 0970 130704FE 		addi	a4,s0,-32
 1734 0974 B307F700 		add	a5,a4,a5
 1735 0978 23B0A7CE 		sd	a0,-800(a5)
 217:src/Tests.cpp ****         {
 1736              		.loc 2 217 9 is_stmt 1
 1737 097c E31C05FC 		bnez	a0,.L117
 219:src/Tests.cpp ****             return;
 1738              		.loc 2 219 13
 219:src/Tests.cpp ****             return;
 1739              		.loc 2 219 31 is_stmt 0
 1740 0980 17050000 		lla	a0,.LC9
 1740      13050500 
 1741 0988 97000000 		call	_ZN5Riscv11printStringEPKc@plt
 1741      E7800000 
 1742              	.LVL179:
 220:src/Tests.cpp ****         }
 1743              		.loc 2 220 13 is_stmt 1
 1744              	.L115:
GAS LISTING /tmp/cceOdYyw.s 			page 49


 1745              	.LBE50:
 264:src/Tests.cpp **** 
 1746              		.loc 2 264 1 is_stmt 0
 1747 0990 83308133 		ld	ra,824(sp)
 1748              		.cfi_remember_state
 1749              		.cfi_restore 1
 1750 0994 03340133 		ld	s0,816(sp)
 1751              		.cfi_restore 8
 1752              		.cfi_def_cfa 2, 832
 1753 0998 83348132 		ld	s1,808(sp)
 1754              		.cfi_restore 9
 1755 099c 03390132 		ld	s2,800(sp)
 1756              		.cfi_restore 18
 1757 09a0 13010134 		addi	sp,sp,832
 1758              		.cfi_def_cfa_offset 0
 1759 09a4 67800000 		jr	ra
 1760              	.LVL180:
 1761              	.L129:
 1762              		.cfi_restore_state
 224:src/Tests.cpp ****     while(sz > 0)
 1763              		.loc 2 224 9
 1764 09a8 1309C012 		li	s2,300
 1765              	.LVL181:
 1766              	.L116:
 225:src/Tests.cpp ****     {
 1767              		.loc 2 225 5 is_stmt 1
 225:src/Tests.cpp ****     {
 1768              		.loc 2 225 14
 1769 09ac 63522011 		blez	s2,.L120
 1770              	.LBB51:
 1771              	.LBB52:
 227:src/Tests.cpp ****         {
 1772              		.loc 2 227 17 is_stmt 0
 1773 09b0 93040000 		li	s1,0
 1774              	.L124:
 1775              	.LVL182:
 227:src/Tests.cpp ****         {
 1776              		.loc 2 227 27 is_stmt 1 discriminator 1
 1777 09b4 93073006 		li	a5,99
 1778 09b8 63CC9706 		bgt	s1,a5,.L130
 1779              	.LBB53:
 229:src/Tests.cpp ****             if(retval != 0)
 1780              		.loc 2 229 13
 229:src/Tests.cpp ****             if(retval != 0)
 1781              		.loc 2 229 34 is_stmt 0
 1782 09bc 93973400 		slli	a5,s1,3
 1783 09c0 130704FE 		addi	a4,s0,-32
 1784 09c4 B307F700 		add	a5,a4,a5
 1785 09c8 03B507CE 		ld	a0,-800(a5)
 1786 09cc 97000000 		call	mem_free@plt
 1786      E7800000 
 1787              	.LVL183:
 230:src/Tests.cpp ****             {
 1788              		.loc 2 230 13 is_stmt 1
 1789 09d4 631A0502 		bnez	a0,.L132
 235:src/Tests.cpp ****             if(addrs[i] == 0)
 1790              		.loc 2 235 13
GAS LISTING /tmp/cceOdYyw.s 			page 50


 235:src/Tests.cpp ****             if(addrs[i] == 0)
 1791              		.loc 2 235 36 is_stmt 0
 1792 09d8 1B55F901 		srliw	a0,s2,31
 1793              	.LVL184:
 1794 09dc 3B052501 		addw	a0,a0,s2
 235:src/Tests.cpp ****             if(addrs[i] == 0)
 1795              		.loc 2 235 33
 1796 09e0 1B551540 		sraiw	a0,a0,1
 1797 09e4 97000000 		call	mem_alloc@plt
 1797      E7800000 
 1798              	.LVL185:
 235:src/Tests.cpp ****             if(addrs[i] == 0)
 1799              		.loc 2 235 22
 1800 09ec 93973400 		slli	a5,s1,3
 1801 09f0 130704FE 		addi	a4,s0,-32
 1802 09f4 B307F700 		add	a5,a4,a5
 1803 09f8 23B0A7CE 		sd	a0,-800(a5)
 236:src/Tests.cpp ****             {
 1804              		.loc 2 236 13 is_stmt 1
 1805 09fc 63000502 		beqz	a0,.L133
 1806              	.LBE53:
 227:src/Tests.cpp ****         {
 1807              		.loc 2 227 9 discriminator 2
 227:src/Tests.cpp ****         {
 1808              		.loc 2 227 34 is_stmt 0 discriminator 2
 1809 0a00 9B842400 		addiw	s1,s1,2
 1810              	.LVL186:
 227:src/Tests.cpp ****         {
 1811              		.loc 2 227 9 discriminator 2
 1812 0a04 6FF01FFB 		j	.L124
 1813              	.LVL187:
 1814              	.L132:
 1815              	.LBB54:
 232:src/Tests.cpp ****                 return;
 1816              		.loc 2 232 17 is_stmt 1
 232:src/Tests.cpp ****                 return;
 1817              		.loc 2 232 35 is_stmt 0
 1818 0a08 17050000 		lla	a0,.LC9
 1818      13050500 
 1819              	.LVL188:
 1820 0a10 97000000 		call	_ZN5Riscv11printStringEPKc@plt
 1820      E7800000 
 1821              	.LVL189:
 233:src/Tests.cpp ****             }
 1822              		.loc 2 233 17 is_stmt 1
 1823 0a18 6FF09FF7 		j	.L115
 1824              	.L133:
 238:src/Tests.cpp ****                 return;
 1825              		.loc 2 238 17
 238:src/Tests.cpp ****                 return;
 1826              		.loc 2 238 35 is_stmt 0
 1827 0a1c 17050000 		lla	a0,.LC15
 1827      13050500 
 1828 0a24 97000000 		call	_ZN5Riscv11printStringEPKc@plt
 1828      E7800000 
 1829              	.LVL190:
 239:src/Tests.cpp ****             }
GAS LISTING /tmp/cceOdYyw.s 			page 51


 1830              		.loc 2 239 17 is_stmt 1
 1831 0a2c 6FF05FF6 		j	.L115
 1832              	.L130:
 1833              	.LBE54:
 1834              	.LBE52:
 1835              	.LBB55:
 244:src/Tests.cpp ****         {
 1836              		.loc 2 244 17 is_stmt 0
 1837 0a30 93041000 		li	s1,1
 1838              	.LVL191:
 1839              	.L121:
 244:src/Tests.cpp ****         {
 1840              		.loc 2 244 27 is_stmt 1 discriminator 1
 1841 0a34 93073006 		li	a5,99
 1842 0a38 63C89706 		bgt	s1,a5,.L125
 1843              	.LBB56:
 246:src/Tests.cpp ****             if(retval != 0)
 1844              		.loc 2 246 13
 246:src/Tests.cpp ****             if(retval != 0)
 1845              		.loc 2 246 34 is_stmt 0
 1846 0a3c 93973400 		slli	a5,s1,3
 1847 0a40 130704FE 		addi	a4,s0,-32
 1848 0a44 B307F700 		add	a5,a4,a5
 1849 0a48 03B507CE 		ld	a0,-800(a5)
 1850 0a4c 97000000 		call	mem_free@plt
 1850      E7800000 
 1851              	.LVL192:
 247:src/Tests.cpp ****             {
 1852              		.loc 2 247 13 is_stmt 1
 1853 0a54 63160502 		bnez	a0,.L134
 252:src/Tests.cpp ****             if(addrs[i] == 0)
 1854              		.loc 2 252 13
 252:src/Tests.cpp ****             if(addrs[i] == 0)
 1855              		.loc 2 252 33 is_stmt 0
 1856 0a58 13050900 		mv	a0,s2
 1857              	.LVL193:
 1858 0a5c 97000000 		call	mem_alloc@plt
 1858      E7800000 
 1859              	.LVL194:
 252:src/Tests.cpp ****             if(addrs[i] == 0)
 1860              		.loc 2 252 22
 1861 0a64 93973400 		slli	a5,s1,3
 1862 0a68 130704FE 		addi	a4,s0,-32
 1863 0a6c B307F700 		add	a5,a4,a5
 1864 0a70 23B0A7CE 		sd	a0,-800(a5)
 253:src/Tests.cpp ****             {
 1865              		.loc 2 253 13 is_stmt 1
 1866 0a74 63000502 		beqz	a0,.L135
 1867              	.LBE56:
 244:src/Tests.cpp ****         {
 1868              		.loc 2 244 9 discriminator 2
 244:src/Tests.cpp ****         {
 1869              		.loc 2 244 34 is_stmt 0 discriminator 2
 1870 0a78 9B842400 		addiw	s1,s1,2
 1871              	.LVL195:
 244:src/Tests.cpp ****         {
 1872              		.loc 2 244 9 discriminator 2
GAS LISTING /tmp/cceOdYyw.s 			page 52


 1873 0a7c 6FF09FFB 		j	.L121
 1874              	.LVL196:
 1875              	.L134:
 1876              	.LBB57:
 249:src/Tests.cpp ****                 return;
 1877              		.loc 2 249 17 is_stmt 1
 249:src/Tests.cpp ****                 return;
 1878              		.loc 2 249 35 is_stmt 0
 1879 0a80 17050000 		lla	a0,.LC9
 1879      13050500 
 1880              	.LVL197:
 1881 0a88 97000000 		call	_ZN5Riscv11printStringEPKc@plt
 1881      E7800000 
 1882              	.LVL198:
 250:src/Tests.cpp ****             }
 1883              		.loc 2 250 17 is_stmt 1
 1884 0a90 6FF01FF0 		j	.L115
 1885              	.L135:
 255:src/Tests.cpp ****                 return;
 1886              		.loc 2 255 17
 255:src/Tests.cpp ****                 return;
 1887              		.loc 2 255 35 is_stmt 0
 1888 0a94 17050000 		lla	a0,.LC15
 1888      13050500 
 1889 0a9c 97000000 		call	_ZN5Riscv11printStringEPKc@plt
 1889      E7800000 
 1890              	.LVL199:
 256:src/Tests.cpp ****             }
 1891              		.loc 2 256 17 is_stmt 1
 1892 0aa4 6FF0DFEE 		j	.L115
 1893              	.L125:
 1894              	.LBE57:
 1895              	.LBE55:
 260:src/Tests.cpp ****     }
 1896              		.loc 2 260 9
 260:src/Tests.cpp ****     }
 1897              		.loc 2 260 11 is_stmt 0
 1898 0aa8 1B0969FF 		addiw	s2,s2,-10
 1899              	.LVL200:
 1900              	.LBE51:
 225:src/Tests.cpp ****     {
 1901              		.loc 2 225 5
 1902 0aac 6FF01FF0 		j	.L116
 1903              	.LVL201:
 1904              	.L120:
 263:src/Tests.cpp **** }
 1905              		.loc 2 263 5 is_stmt 1
 263:src/Tests.cpp **** }
 1906              		.loc 2 263 23 is_stmt 0
 1907 0ab0 17050000 		lla	a0,.LC10
 1907      13050500 
 1908 0ab8 97000000 		call	_ZN5Riscv11printStringEPKc@plt
 1908      E7800000 
 1909              	.LVL202:
 1910 0ac0 6FF01FED 		j	.L115
 1911              		.cfi_endproc
 1912              	.LFE35:
GAS LISTING /tmp/cceOdYyw.s 			page 53


 1914              		.align	2
 1915              		.globl	_ZN12TestPeriodicC2Em
 1917              	_ZN12TestPeriodicC2Em:
 1918              	.LFB44:
 292:src/Tests.cpp **** 
 1919              		.loc 2 292 1 is_stmt 1
 1920              		.cfi_startproc
 1921              	.LVL203:
 1922 0ac4 130101FE 		addi	sp,sp,-32
 1923              		.cfi_def_cfa_offset 32
 1924 0ac8 233C1100 		sd	ra,24(sp)
 1925 0acc 23388100 		sd	s0,16(sp)
 1926 0ad0 23349100 		sd	s1,8(sp)
 1927              		.cfi_offset 1, -8
 1928              		.cfi_offset 8, -16
 1929              		.cfi_offset 9, -24
 1930 0ad4 13040102 		addi	s0,sp,32
 1931              		.cfi_def_cfa 8, 0
 1932 0ad8 93040500 		mv	s1,a0
 1933              	.LBB58:
 292:src/Tests.cpp **** 
 1934              		.loc 2 292 62 is_stmt 0
 1935 0adc 97000000 		call	_ZN14PeriodicThreadC2Em@plt
 1935      E7800000 
 1936              	.LVL204:
 1937 0ae4 97070000 		lla	a5,_ZTV12TestPeriodic+16
 1937      93870700 
 1938 0aec 23B0F400 		sd	a5,0(s1)
 1939              	.LBE58:
 294:src/Tests.cpp **** 
 1940              		.loc 2 294 1
 1941 0af0 83308101 		ld	ra,24(sp)
 1942              		.cfi_restore 1
 1943 0af4 03340101 		ld	s0,16(sp)
 1944              		.cfi_restore 8
 1945              		.cfi_def_cfa 2, 32
 1946 0af8 83348100 		ld	s1,8(sp)
 1947              		.cfi_restore 9
 1948              	.LVL205:
 1949 0afc 13010102 		addi	sp,sp,32
 1950              		.cfi_def_cfa_offset 0
 1951 0b00 67800000 		jr	ra
 1952              		.cfi_endproc
 1953              	.LFE44:
 1955              		.globl	_ZN12TestPeriodicC1Em
 1956              		.set	_ZN12TestPeriodicC1Em,_ZN12TestPeriodicC2Em
 1957              		.align	2
 1958              		.globl	_Z11threadTest3v
 1960              	_Z11threadTest3v:
 1961              	.LFB29:
  98:src/Tests.cpp ****     Thread* t = new TestPeriodic(50);
 1962              		.loc 2 98 1 is_stmt 1
 1963              		.cfi_startproc
 1964              		.cfi_personality 0x9b,DW.ref.__gxx_personality_v0
 1965              		.cfi_lsda 0x1b,.LLSDA29
 1966 0b04 130101FE 		addi	sp,sp,-32
 1967              		.cfi_def_cfa_offset 32
GAS LISTING /tmp/cceOdYyw.s 			page 54


 1968 0b08 233C1100 		sd	ra,24(sp)
 1969 0b0c 23388100 		sd	s0,16(sp)
 1970 0b10 23349100 		sd	s1,8(sp)
 1971 0b14 23302101 		sd	s2,0(sp)
 1972              		.cfi_offset 1, -8
 1973              		.cfi_offset 8, -16
 1974              		.cfi_offset 9, -24
 1975              		.cfi_offset 18, -32
 1976 0b18 13040102 		addi	s0,sp,32
 1977              		.cfi_def_cfa 8, 0
  99:src/Tests.cpp ****     t->start();
 1978              		.loc 2 99 5
  99:src/Tests.cpp ****     t->start();
 1979              		.loc 2 99 36 is_stmt 0
 1980 0b1c 13058002 		li	a0,40
 1981              	.LEHB17:
 1982 0b20 97000000 		call	_Znwm@plt
 1982      E7800000 
 1983              	.LVL206:
 1984              	.LEHE17:
 1985 0b28 13090500 		mv	s2,a0
 1986 0b2c 93052003 		li	a1,50
 1987              	.LEHB18:
 1988 0b30 97000000 		call	_ZN12TestPeriodicC1Em
 1988      E7800000 
 1989              	.LVL207:
 1990              	.LEHE18:
 100:src/Tests.cpp ****     while(true)
 1991              		.loc 2 100 5 is_stmt 1 discriminator 2
 100:src/Tests.cpp ****     while(true)
 1992              		.loc 2 100 13 is_stmt 0 discriminator 2
 1993 0b38 13050900 		mv	a0,s2
 1994              	.LEHB19:
 1995 0b3c 97000000 		call	_ZN6Thread5startEv@plt
 1995      E7800000 
 1996              	.LVL208:
 1997              	.LEHE19:
 1998              	.L139:
 101:src/Tests.cpp ****     {
 1999              		.loc 2 101 5 is_stmt 1 discriminator 1
 101:src/Tests.cpp ****     {
 2000              		.loc 2 101 5 discriminator 1
 2001 0b44 6F000000 		j	.L139
 2002              	.LVL209:
 2003              	.L141:
 2004 0b48 93040500 		mv	s1,a0
  99:src/Tests.cpp ****     t->start();
 2005              		.loc 2 99 36 is_stmt 0
 2006 0b4c 13050900 		mv	a0,s2
 2007 0b50 97000000 		call	_ZdlPv@plt
 2007      E7800000 
 2008              	.LVL210:
 2009 0b58 13850400 		mv	a0,s1
 2010              	.LEHB20:
 2011 0b5c 97000000 		call	_Unwind_Resume@plt
 2011      E7800000 
 2012              	.LVL211:
GAS LISTING /tmp/cceOdYyw.s 			page 55


 2013              	.LEHE20:
 2014              		.cfi_endproc
 2015              	.LFE29:
 2016              		.section	.gcc_except_table
 2017              	.LLSDA29:
 2018 00e6 FF       		.byte	0xff
 2019 00e7 FF       		.byte	0xff
 2020 00e8 03       		.byte	0x3
 2021 00e9 34       		.byte	0x34
 2022 00ea 00000000 		.4byte	.LEHB17-.LFB29
 2023 00ee 00000000 		.4byte	.LEHE17-.LEHB17
 2024 00f2 00000000 		.4byte	0
 2025 00f6 00       		.byte	0
 2026 00f7 00000000 		.4byte	.LEHB18-.LFB29
 2027 00fb 00000000 		.4byte	.LEHE18-.LEHB18
 2028 00ff 00000000 		.4byte	.L141-.LFB29
 2029 0103 00       		.byte	0
 2030 0104 00000000 		.4byte	.LEHB19-.LFB29
 2031 0108 00000000 		.4byte	.LEHE19-.LEHB19
 2032 010c 00000000 		.4byte	0
 2033 0110 00       		.byte	0
 2034 0111 00000000 		.4byte	.LEHB20-.LFB29
 2035 0115 00000000 		.4byte	.LEHE20-.LEHB20
 2036 0119 00000000 		.4byte	0
 2037 011d 00       		.byte	0
 2038              		.text
 2040              		.section	.rodata.str1.8
 2041              		.align	3
 2042              	.LC16:
 2043 00d8 54657374 		.string	"Testing a few mallocs and frees\n\n"
 2043      696E6720 
 2043      61206665 
 2043      77206D61 
 2043      6C6C6F63 
 2044 00fa 00000000 		.align	3
 2044      0000
 2045              	.LC17:
 2046 0100 53554343 		.string	"SUCCESSFUL: Testing a few mallocs and frees\n\n"
 2046      45535346 
 2046      554C3A20 
 2046      54657374 
 2046      696E6720 
 2047              		.text
 2048              		.align	2
 2049              		.globl	_Z10mallocTestv
 2051              	_Z10mallocTestv:
 2052              	.LFB47:
 306:src/Tests.cpp ****     Riscv::printString("Testing a few mallocs and frees\n\n");
 2053              		.loc 2 306 1 is_stmt 1
 2054              		.cfi_startproc
 2055 0b64 130101FC 		addi	sp,sp,-64
 2056              		.cfi_def_cfa_offset 64
 2057 0b68 233C1102 		sd	ra,56(sp)
 2058 0b6c 23388102 		sd	s0,48(sp)
 2059 0b70 23349102 		sd	s1,40(sp)
 2060 0b74 23302103 		sd	s2,32(sp)
 2061 0b78 233C3101 		sd	s3,24(sp)
GAS LISTING /tmp/cceOdYyw.s 			page 56


 2062 0b7c 23384101 		sd	s4,16(sp)
 2063 0b80 23345101 		sd	s5,8(sp)
 2064 0b84 23306101 		sd	s6,0(sp)
 2065              		.cfi_offset 1, -8
 2066              		.cfi_offset 8, -16
 2067              		.cfi_offset 9, -24
 2068              		.cfi_offset 18, -32
 2069              		.cfi_offset 19, -40
 2070              		.cfi_offset 20, -48
 2071              		.cfi_offset 21, -56
 2072              		.cfi_offset 22, -64
 2073 0b88 13040104 		addi	s0,sp,64
 2074              		.cfi_def_cfa 8, 0
 307:src/Tests.cpp **** 
 2075              		.loc 2 307 5
 307:src/Tests.cpp **** 
 2076              		.loc 2 307 23 is_stmt 0
 2077 0b8c 17050000 		lla	a0,.LC16
 2077      13050500 
 2078 0b94 97000000 		call	_ZN5Riscv11printStringEPKc@plt
 2078      E7800000 
 2079              	.LVL212:
 309:src/Tests.cpp ****     o->a = 3;
 2080              		.loc 2 309 5 is_stmt 1
 309:src/Tests.cpp ****     o->a = 3;
 2081              		.loc 2 309 21 is_stmt 0
 2082 0b9c 1305C002 		li	a0,44
 2083 0ba0 97000000 		call	_Znwm@plt
 2083      E7800000 
 2084              	.LVL213:
 2085 0ba8 93040500 		mv	s1,a0
 2086              	.LVL214:
 310:src/Tests.cpp ****     void* m1 = mem_alloc(10);
 2087              		.loc 2 310 5 is_stmt 1
 310:src/Tests.cpp ****     void* m1 = mem_alloc(10);
 2088              		.loc 2 310 10 is_stmt 0
 2089 0bac 93073000 		li	a5,3
 2090 0bb0 2320F500 		sw	a5,0(a0)
 311:src/Tests.cpp ****     void* m2 = mem_alloc(100);
 2091              		.loc 2 311 5 is_stmt 1
 311:src/Tests.cpp ****     void* m2 = mem_alloc(100);
 2092              		.loc 2 311 25 is_stmt 0
 2093 0bb4 1305A000 		li	a0,10
 2094 0bb8 97000000 		call	mem_alloc@plt
 2094      E7800000 
 2095              	.LVL215:
 2096 0bc0 13090500 		mv	s2,a0
 2097              	.LVL216:
 312:src/Tests.cpp ****     void* m3 = mem_alloc(1000);
 2098              		.loc 2 312 5 is_stmt 1
 312:src/Tests.cpp ****     void* m3 = mem_alloc(1000);
 2099              		.loc 2 312 25 is_stmt 0
 2100 0bc4 13054006 		li	a0,100
 2101              	.LVL217:
 2102 0bc8 97000000 		call	mem_alloc@plt
 2102      E7800000 
 2103              	.LVL218:
GAS LISTING /tmp/cceOdYyw.s 			page 57


 2104 0bd0 93090500 		mv	s3,a0
 2105              	.LVL219:
 313:src/Tests.cpp ****     void* m4 = mem_alloc(10000);
 2106              		.loc 2 313 5 is_stmt 1
 313:src/Tests.cpp ****     void* m4 = mem_alloc(10000);
 2107              		.loc 2 313 25 is_stmt 0
 2108 0bd4 1305803E 		li	a0,1000
 2109              	.LVL220:
 2110 0bd8 97000000 		call	mem_alloc@plt
 2110      E7800000 
 2111              	.LVL221:
 2112 0be0 130A0500 		mv	s4,a0
 2113              	.LVL222:
 314:src/Tests.cpp ****     void* m5 = mem_alloc(1);
 2114              		.loc 2 314 5 is_stmt 1
 314:src/Tests.cpp ****     void* m5 = mem_alloc(1);
 2115              		.loc 2 314 25 is_stmt 0
 2116 0be4 37250000 		li	a0,8192
 2117              	.LVL223:
 2118 0be8 13050571 		addi	a0,a0,1808
 2119 0bec 97000000 		call	mem_alloc@plt
 2119      E7800000 
 2120              	.LVL224:
 2121 0bf4 930A0500 		mv	s5,a0
 2122              	.LVL225:
 315:src/Tests.cpp **** 
 2123              		.loc 2 315 5 is_stmt 1
 315:src/Tests.cpp **** 
 2124              		.loc 2 315 25 is_stmt 0
 2125 0bf8 13051000 		li	a0,1
 2126              	.LVL226:
 2127 0bfc 97000000 		call	mem_alloc@plt
 2127      E7800000 
 2128              	.LVL227:
 317:src/Tests.cpp ****         Riscv::printString("not OK\n");
 2129              		.loc 2 317 5 is_stmt 1
 2130 0c04 630C0906 		beqz	s2,.L144
 2131 0c08 130B0500 		mv	s6,a0
 317:src/Tests.cpp ****         Riscv::printString("not OK\n");
 2132              		.loc 2 317 12 is_stmt 0 discriminator 1
 2133 0c0c 63880906 		beqz	s3,.L144
 317:src/Tests.cpp ****         Riscv::printString("not OK\n");
 2134              		.loc 2 317 19 discriminator 2
 2135 0c10 63060A06 		beqz	s4,.L144
 317:src/Tests.cpp ****         Riscv::printString("not OK\n");
 2136              		.loc 2 317 26 discriminator 3
 2137 0c14 63840A06 		beqz	s5,.L144
 317:src/Tests.cpp ****         Riscv::printString("not OK\n");
 2138              		.loc 2 317 33 discriminator 4
 2139 0c18 63020506 		beqz	a0,.L144
 322:src/Tests.cpp ****     delete (uint64*)m3;
 2140              		.loc 2 322 5 is_stmt 1 discriminator 1
 322:src/Tests.cpp ****     delete (uint64*)m3;
 2141              		.loc 2 322 21 is_stmt 0 discriminator 1
 2142 0c1c 13050900 		mv	a0,s2
 2143              	.LVL228:
 2144 0c20 97000000 		call	_ZdlPv@plt
GAS LISTING /tmp/cceOdYyw.s 			page 58


 2144      E7800000 
 2145              	.LVL229:
 323:src/Tests.cpp ****     delete (uint64*)m4;
 2146              		.loc 2 323 5 is_stmt 1 discriminator 1
 323:src/Tests.cpp ****     delete (uint64*)m4;
 2147              		.loc 2 323 21 is_stmt 0 discriminator 1
 2148 0c28 13050A00 		mv	a0,s4
 2149 0c2c 97000000 		call	_ZdlPv@plt
 2149      E7800000 
 2150              	.LVL230:
 324:src/Tests.cpp ****     delete (uint64*)m2;
 2151              		.loc 2 324 5 is_stmt 1 discriminator 1
 324:src/Tests.cpp ****     delete (uint64*)m2;
 2152              		.loc 2 324 21 is_stmt 0 discriminator 1
 2153 0c34 13850A00 		mv	a0,s5
 2154 0c38 97000000 		call	_ZdlPv@plt
 2154      E7800000 
 2155              	.LVL231:
 325:src/Tests.cpp ****     delete (uint64*)m5;
 2156              		.loc 2 325 5 is_stmt 1 discriminator 1
 325:src/Tests.cpp ****     delete (uint64*)m5;
 2157              		.loc 2 325 21 is_stmt 0 discriminator 1
 2158 0c40 13850900 		mv	a0,s3
 2159 0c44 97000000 		call	_ZdlPv@plt
 2159      E7800000 
 2160              	.LVL232:
 326:src/Tests.cpp ****     delete o;
 2161              		.loc 2 326 5 is_stmt 1 discriminator 1
 326:src/Tests.cpp ****     delete o;
 2162              		.loc 2 326 21 is_stmt 0 discriminator 1
 2163 0c4c 13050B00 		mv	a0,s6
 2164 0c50 97000000 		call	_ZdlPv@plt
 2164      E7800000 
 2165              	.LVL233:
 327:src/Tests.cpp **** 
 2166              		.loc 2 327 5 is_stmt 1 discriminator 1
 327:src/Tests.cpp **** 
 2167              		.loc 2 327 13 is_stmt 0 discriminator 1
 2168 0c58 63880400 		beqz	s1,.L147
 327:src/Tests.cpp **** 
 2169              		.loc 2 327 12 discriminator 1
 2170 0c5c 13850400 		mv	a0,s1
 2171 0c60 97000000 		call	_ZdlPv@plt
 2171      E7800000 
 2172              	.LVL234:
 2173              	.L147:
 329:src/Tests.cpp **** }
 2174              		.loc 2 329 5 is_stmt 1
 329:src/Tests.cpp **** }
 2175              		.loc 2 329 23 is_stmt 0
 2176 0c68 17050000 		lla	a0,.LC17
 2176      13050500 
 2177 0c70 97000000 		call	_ZN5Riscv11printStringEPKc@plt
 2177      E7800000 
 2178              	.LVL235:
 2179 0c78 6F004001 		j	.L143
 2180              	.LVL236:
GAS LISTING /tmp/cceOdYyw.s 			page 59


 2181              	.L144:
 318:src/Tests.cpp ****         return;
 2182              		.loc 2 318 9 is_stmt 1
 318:src/Tests.cpp ****         return;
 2183              		.loc 2 318 27 is_stmt 0
 2184 0c7c 17050000 		lla	a0,.LC9
 2184      13050500 
 2185              	.LVL237:
 2186 0c84 97000000 		call	_ZN5Riscv11printStringEPKc@plt
 2186      E7800000 
 2187              	.LVL238:
 319:src/Tests.cpp ****     }
 2188              		.loc 2 319 9 is_stmt 1
 2189              	.L143:
 330:src/Tests.cpp **** 
 2190              		.loc 2 330 1 is_stmt 0
 2191 0c8c 83308103 		ld	ra,56(sp)
 2192              		.cfi_restore 1
 2193 0c90 03340103 		ld	s0,48(sp)
 2194              		.cfi_restore 8
 2195              		.cfi_def_cfa 2, 64
 2196 0c94 83348102 		ld	s1,40(sp)
 2197              		.cfi_restore 9
 2198              	.LVL239:
 2199 0c98 03390102 		ld	s2,32(sp)
 2200              		.cfi_restore 18
 2201              	.LVL240:
 2202 0c9c 83398101 		ld	s3,24(sp)
 2203              		.cfi_restore 19
 2204              	.LVL241:
 2205 0ca0 033A0101 		ld	s4,16(sp)
 2206              		.cfi_restore 20
 2207              	.LVL242:
 2208 0ca4 833A8100 		ld	s5,8(sp)
 2209              		.cfi_restore 21
 2210              	.LVL243:
 2211 0ca8 033B0100 		ld	s6,0(sp)
 2212              		.cfi_restore 22
 2213 0cac 13010104 		addi	sp,sp,64
 2214              		.cfi_def_cfa_offset 0
 2215 0cb0 67800000 		jr	ra
 2216              		.cfi_endproc
 2217              	.LFE47:
 2219              		.section	.rodata.str1.8
 2220 012e 0000     		.align	3
 2221              	.LC18:
 2222 0130 54657374 		.string	"Testing allocating whole address space\n\n"
 2222      696E6720 
 2222      616C6C6F 
 2222      63617469 
 2222      6E672077 
 2223 0159 00000000 		.align	3
 2223      000000
 2224              	.LC19:
 2225 0160 53554343 		.string	"SUCCESSFUL: Testing allocating whole address space\n\n"
 2225      45535346 
 2225      554C3A20 
GAS LISTING /tmp/cceOdYyw.s 			page 60


 2225      54657374 
 2225      696E6720 
 2226              		.text
 2227              		.align	2
 2228              		.globl	_Z16mallocEverythingv
 2230              	_Z16mallocEverythingv:
 2231              	.LFB48:
 333:src/Tests.cpp ****     Riscv::printString("Testing allocating whole address space\n\n");
 2232              		.loc 2 333 1 is_stmt 1
 2233              		.cfi_startproc
 2234 0cb4 130101FE 		addi	sp,sp,-32
 2235              		.cfi_def_cfa_offset 32
 2236 0cb8 233C1100 		sd	ra,24(sp)
 2237 0cbc 23388100 		sd	s0,16(sp)
 2238 0cc0 23349100 		sd	s1,8(sp)
 2239              		.cfi_offset 1, -8
 2240              		.cfi_offset 8, -16
 2241              		.cfi_offset 9, -24
 2242 0cc4 13040102 		addi	s0,sp,32
 2243              		.cfi_def_cfa 8, 0
 334:src/Tests.cpp **** 
 2244              		.loc 2 334 5
 334:src/Tests.cpp **** 
 2245              		.loc 2 334 23 is_stmt 0
 2246 0cc8 17050000 		lla	a0,.LC18
 2246      13050500 
 2247 0cd0 97000000 		call	_ZN5Riscv11printStringEPKc@plt
 2247      E7800000 
 2248              	.LVL244:
 336:src/Tests.cpp **** 
 2249              		.loc 2 336 5 is_stmt 1
 336:src/Tests.cpp **** 
 2250              		.loc 2 336 47 is_stmt 0
 2251 0cd8 97070000 		la	a5,HEAP_START_ADDR
 2251      83B70700 
 2252 0ce0 03B50700 		ld	a0,0(a5)
 2253 0ce4 97070000 		la	a5,HEAP_END_ADDR
 2253      83B70700 
 2254 0cec 83B70700 		ld	a5,0(a5)
 2255 0cf0 3305F540 		sub	a0,a0,a5
 2256              	.LVL245:
 338:src/Tests.cpp **** 
 2257              		.loc 2 338 5 is_stmt 1
 338:src/Tests.cpp **** 
 2258              		.loc 2 338 24 is_stmt 0
 2259 0cf4 130505FF 		addi	a0,a0,-16
 2260              	.LVL246:
 2261 0cf8 97000000 		call	mem_alloc@plt
 2261      E7800000 
 2262              	.LVL247:
 340:src/Tests.cpp ****         Riscv::printString("not OK\n");
 2263              		.loc 2 340 5 is_stmt 1
 2264 0d00 63040502 		beqz	a0,.L150
 341:src/Tests.cpp ****         return;
 2265              		.loc 2 341 9
 341:src/Tests.cpp ****         return;
 2266              		.loc 2 341 27 is_stmt 0
GAS LISTING /tmp/cceOdYyw.s 			page 61


 2267 0d04 17050000 		lla	a0,.LC9
 2267      13050500 
 2268              	.LVL248:
 2269 0d0c 97000000 		call	_ZN5Riscv11printStringEPKc@plt
 2269      E7800000 
 2270              	.LVL249:
 342:src/Tests.cpp ****     }
 2271              		.loc 2 342 9 is_stmt 1
 2272              	.L149:
 375:src/Tests.cpp **** 
 2273              		.loc 2 375 1 is_stmt 0
 2274 0d14 83308101 		ld	ra,24(sp)
 2275              		.cfi_remember_state
 2276              		.cfi_restore 1
 2277 0d18 03340101 		ld	s0,16(sp)
 2278              		.cfi_restore 8
 2279              		.cfi_def_cfa 2, 32
 2280 0d1c 83348100 		ld	s1,8(sp)
 2281              		.cfi_restore 9
 2282 0d20 13010102 		addi	sp,sp,32
 2283              		.cfi_def_cfa_offset 0
 2284 0d24 67800000 		jr	ra
 2285              	.LVL250:
 2286              	.L150:
 2287              		.cfi_restore_state
 345:src/Tests.cpp **** 
 2288              		.loc 2 345 5 is_stmt 1
 345:src/Tests.cpp **** 
 2289              		.loc 2 345 48 is_stmt 0
 2290 0d28 97070000 		la	a5,HEAP_END_ADDR
 2290      83B70700 
 2291 0d30 03B50700 		ld	a0,0(a5)
 2292              	.LVL251:
 2293 0d34 97070000 		la	a5,HEAP_START_ADDR
 2293      83B70700 
 2294 0d3c 83B70700 		ld	a5,0(a5)
 2295 0d40 3305F540 		sub	a0,a0,a5
 345:src/Tests.cpp **** 
 2296              		.loc 2 345 74
 2297 0d44 130505FF 		addi	a0,a0,-16
 345:src/Tests.cpp **** 
 2298              		.loc 2 345 113
 2299 0d48 13556500 		srli	a0,a0,6
 345:src/Tests.cpp **** 
 2300              		.loc 2 345 12
 2301 0d4c 130545ED 		addi	a0,a0,-300
 2302              	.LVL252:
 347:src/Tests.cpp **** 
 2303              		.loc 2 347 5 is_stmt 1
 347:src/Tests.cpp **** 
 2304              		.loc 2 347 18 is_stmt 0
 2305 0d50 13156500 		slli	a0,a0,6
 2306              	.LVL253:
 2307 0d54 97000000 		call	mem_alloc@plt
 2307      E7800000 
 2308              	.LVL254:
 2309 0d5c 93040500 		mv	s1,a0
GAS LISTING /tmp/cceOdYyw.s 			page 62


 2310              	.LVL255:
 349:src/Tests.cpp ****         Riscv::printString("not OK\n");
 2311              		.loc 2 349 5 is_stmt 1
 2312 0d60 630A0502 		beqz	a0,.L155
 364:src/Tests.cpp **** 
 2313              		.loc 2 364 5
 364:src/Tests.cpp **** 
 2314              		.loc 2 364 34 is_stmt 0
 2315 0d64 13051000 		li	a0,1
 2316 0d68 97000000 		call	mem_alloc@plt
 2316      E7800000 
 2317              	.LVL256:
 366:src/Tests.cpp ****         Riscv::printString("not OK\n");
 2318              		.loc 2 366 5 is_stmt 1
 2319 0d70 630C0502 		beqz	a0,.L156
 371:src/Tests.cpp ****     //delete (uint64*)small_chunk;
 2320              		.loc 2 371 5 discriminator 1
 371:src/Tests.cpp ****     //delete (uint64*)small_chunk;
 2321              		.loc 2 371 21 is_stmt 0 discriminator 1
 2322 0d74 13850400 		mv	a0,s1
 2323              	.LVL257:
 2324 0d78 97000000 		call	_ZdlPv@plt
 2324      E7800000 
 2325              	.LVL258:
 374:src/Tests.cpp **** }
 2326              		.loc 2 374 5 is_stmt 1 discriminator 1
 374:src/Tests.cpp **** }
 2327              		.loc 2 374 23 is_stmt 0 discriminator 1
 2328 0d80 17050000 		lla	a0,.LC19
 2328      13050500 
 2329 0d88 97000000 		call	_ZN5Riscv11printStringEPKc@plt
 2329      E7800000 
 2330              	.LVL259:
 2331 0d90 6FF05FF8 		j	.L149
 2332              	.L155:
 350:src/Tests.cpp ****         return;
 2333              		.loc 2 350 9 is_stmt 1
 350:src/Tests.cpp ****         return;
 2334              		.loc 2 350 27 is_stmt 0
 2335 0d94 17050000 		lla	a0,.LC9
 2335      13050500 
 2336 0d9c 97000000 		call	_ZN5Riscv11printStringEPKc@plt
 2336      E7800000 
 2337              	.LVL260:
 351:src/Tests.cpp ****     }
 2338              		.loc 2 351 9 is_stmt 1
 2339 0da4 6FF01FF7 		j	.L149
 2340              	.LVL261:
 2341              	.L156:
 367:src/Tests.cpp ****         return;
 2342              		.loc 2 367 9
 367:src/Tests.cpp ****         return;
 2343              		.loc 2 367 27 is_stmt 0
 2344 0da8 17050000 		lla	a0,.LC9
 2344      13050500 
 2345              	.LVL262:
 2346 0db0 97000000 		call	_ZN5Riscv11printStringEPKc@plt
GAS LISTING /tmp/cceOdYyw.s 			page 63


 2346      E7800000 
 2347              	.LVL263:
 368:src/Tests.cpp ****     }
 2348              		.loc 2 368 9 is_stmt 1
 2349 0db8 6FF0DFF5 		j	.L149
 2350              		.cfi_endproc
 2351              	.LFE48:
 2353              		.section	.rodata.str1.8
 2354 0195 000000   		.align	3
 2355              	.LC20:
 2356 0198 54657374 		.string	"Testing gap filling and chunk merge after multiple mallocs and frees\n\n"
 2356      696E6720 
 2356      67617020 
 2356      66696C6C 
 2356      696E6720 
 2357 01df 00       		.align	3
 2358              	.LC21:
 2359 01e0 53554343 		.string	"SUCCESSFUL: Testing gap filling and chunk merge after multiple mallocs and frees\n\n"
 2359      45535346 
 2359      554C3A20 
 2359      54657374 
 2359      696E6720 
 2360              		.text
 2361              		.align	2
 2362              		.globl	_Z17mallocGapFillTestv
 2364              	_Z17mallocGapFillTestv:
 2365              	.LFB49:
 378:src/Tests.cpp ****     Riscv::printString("Testing gap filling and chunk merge after multiple mallocs and frees\n\n");
 2366              		.loc 2 378 1
 2367              		.cfi_startproc
 2368 0dbc 130101F6 		addi	sp,sp,-160
 2369              		.cfi_def_cfa_offset 160
 2370 0dc0 233C1108 		sd	ra,152(sp)
 2371 0dc4 23388108 		sd	s0,144(sp)
 2372 0dc8 23349108 		sd	s1,136(sp)
 2373 0dcc 23302109 		sd	s2,128(sp)
 2374 0dd0 233C3107 		sd	s3,120(sp)
 2375 0dd4 23384107 		sd	s4,112(sp)
 2376 0dd8 23345107 		sd	s5,104(sp)
 2377 0ddc 23306107 		sd	s6,96(sp)
 2378 0de0 233C7105 		sd	s7,88(sp)
 2379 0de4 23388105 		sd	s8,80(sp)
 2380              		.cfi_offset 1, -8
 2381              		.cfi_offset 8, -16
 2382              		.cfi_offset 9, -24
 2383              		.cfi_offset 18, -32
 2384              		.cfi_offset 19, -40
 2385              		.cfi_offset 20, -48
 2386              		.cfi_offset 21, -56
 2387              		.cfi_offset 22, -64
 2388              		.cfi_offset 23, -72
 2389              		.cfi_offset 24, -80
 2390 0de8 1304010A 		addi	s0,sp,160
 2391              		.cfi_def_cfa 8, 0
 379:src/Tests.cpp **** 
 2392              		.loc 2 379 5
 379:src/Tests.cpp **** 
GAS LISTING /tmp/cceOdYyw.s 			page 64


 2393              		.loc 2 379 23 is_stmt 0
 2394 0dec 17050000 		lla	a0,.LC20
 2394      13050500 
 2395 0df4 97000000 		call	_ZN5Riscv11printStringEPKc@plt
 2395      E7800000 
 2396              	.LVL264:
 2397              	.LBB59:
 385:src/Tests.cpp ****     {
 2398              		.loc 2 385 13
 2399 0dfc 93040000 		li	s1,0
 2400              	.L161:
 2401              	.LVL265:
 385:src/Tests.cpp ****     {
 2402              		.loc 2 385 18 is_stmt 1 discriminator 1
 2403 0e00 93079000 		li	a5,9
 2404 0e04 63C89706 		bgt	s1,a5,.L158
 387:src/Tests.cpp ****         if(m[i] == nullptr){
 2405              		.loc 2 387 9
 387:src/Tests.cpp ****         if(m[i] == nullptr){
 2406              		.loc 2 387 28 is_stmt 0
 2407 0e08 1B956400 		slliw	a0,s1,6
 387:src/Tests.cpp ****         if(m[i] == nullptr){
 2408              		.loc 2 387 25
 2409 0e0c 1B051500 		addiw	a0,a0,1
 2410 0e10 97000000 		call	mem_alloc@plt
 2410      E7800000 
 2411              	.LVL266:
 387:src/Tests.cpp ****         if(m[i] == nullptr){
 2412              		.loc 2 387 14
 2413 0e18 93973400 		slli	a5,s1,3
 2414 0e1c 130704FB 		addi	a4,s0,-80
 2415 0e20 B307F700 		add	a5,a4,a5
 2416 0e24 23B8A7FA 		sd	a0,-80(a5)
 388:src/Tests.cpp ****             Riscv::printString("not OK\n");
 2417              		.loc 2 388 9 is_stmt 1
 2418 0e28 63060500 		beqz	a0,.L178
 385:src/Tests.cpp ****     {
 2419              		.loc 2 385 5 discriminator 2
 2420 0e2c 9B841400 		addiw	s1,s1,1
 2421              	.LVL267:
 2422 0e30 6FF01FFD 		j	.L161
 2423              	.LVL268:
 2424              	.L178:
 389:src/Tests.cpp ****             return;
 2425              		.loc 2 389 13
 389:src/Tests.cpp ****             return;
 2426              		.loc 2 389 31 is_stmt 0
 2427 0e34 17050000 		lla	a0,.LC9
 2427      13050500 
 2428 0e3c 97000000 		call	_ZN5Riscv11printStringEPKc@plt
 2428      E7800000 
 2429              	.LVL269:
 390:src/Tests.cpp ****         }
 2430              		.loc 2 390 13 is_stmt 1
 2431              	.L157:
 2432              	.LBE59:
 451:src/Tests.cpp **** 
GAS LISTING /tmp/cceOdYyw.s 			page 65


 2433              		.loc 2 451 1 is_stmt 0
 2434 0e44 83308109 		ld	ra,152(sp)
 2435              		.cfi_remember_state
 2436              		.cfi_restore 1
 2437 0e48 03340109 		ld	s0,144(sp)
 2438              		.cfi_restore 8
 2439              		.cfi_def_cfa 2, 160
 2440 0e4c 83348108 		ld	s1,136(sp)
 2441              		.cfi_restore 9
 2442 0e50 03390108 		ld	s2,128(sp)
 2443              		.cfi_restore 18
 2444 0e54 83398107 		ld	s3,120(sp)
 2445              		.cfi_restore 19
 2446 0e58 033A0107 		ld	s4,112(sp)
 2447              		.cfi_restore 20
 2448 0e5c 833A8106 		ld	s5,104(sp)
 2449              		.cfi_restore 21
 2450 0e60 033B0106 		ld	s6,96(sp)
 2451              		.cfi_restore 22
 2452 0e64 833B8105 		ld	s7,88(sp)
 2453              		.cfi_restore 23
 2454 0e68 033C0105 		ld	s8,80(sp)
 2455              		.cfi_restore 24
 2456 0e6c 1301010A 		addi	sp,sp,160
 2457              		.cfi_def_cfa_offset 0
 2458 0e70 67800000 		jr	ra
 2459              	.LVL270:
 2460              	.L158:
 2461              		.cfi_restore_state
 394:src/Tests.cpp **** 
 2462              		.loc 2 394 5 is_stmt 1
 394:src/Tests.cpp **** 
 2463              		.loc 2 394 24 is_stmt 0
 2464 0e74 033504F7 		ld	a0,-144(s0)
 394:src/Tests.cpp **** 
 2465              		.loc 2 394 25
 2466 0e78 63060500 		beqz	a0,.L162
 394:src/Tests.cpp **** 
 2467              		.loc 2 394 24 discriminator 1
 2468 0e7c 97000000 		call	_ZdlPv@plt
 2468      E7800000 
 2469              	.LVL271:
 2470              	.L162:
 396:src/Tests.cpp ****     void* tmp2 = mem_alloc(1);
 2471              		.loc 2 396 5 is_stmt 1
 396:src/Tests.cpp ****     void* tmp2 = mem_alloc(1);
 2472              		.loc 2 396 27 is_stmt 0
 2473 0e84 13051000 		li	a0,1
 2474 0e88 97000000 		call	mem_alloc@plt
 2474      E7800000 
 2475              	.LVL272:
 2476 0e90 93040500 		mv	s1,a0
 2477              	.LVL273:
 397:src/Tests.cpp ****     void* tmp3 = mem_alloc(1);
 2478              		.loc 2 397 5 is_stmt 1
 397:src/Tests.cpp ****     void* tmp3 = mem_alloc(1);
 2479              		.loc 2 397 27 is_stmt 0
GAS LISTING /tmp/cceOdYyw.s 			page 66


 2480 0e94 13051000 		li	a0,1
 2481 0e98 97000000 		call	mem_alloc@plt
 2481      E7800000 
 2482              	.LVL274:
 2483 0ea0 13090500 		mv	s2,a0
 2484              	.LVL275:
 398:src/Tests.cpp **** 
 2485              		.loc 2 398 5 is_stmt 1
 398:src/Tests.cpp **** 
 2486              		.loc 2 398 27 is_stmt 0
 2487 0ea4 13051000 		li	a0,1
 2488              	.LVL276:
 2489 0ea8 97000000 		call	mem_alloc@plt
 2489      E7800000 
 2490              	.LVL277:
 2491 0eb0 93090500 		mv	s3,a0
 2492              	.LVL278:
 400:src/Tests.cpp ****     {
 2493              		.loc 2 400 5 is_stmt 1
 2494 0eb4 63880408 		beqz	s1,.L163
 400:src/Tests.cpp ****     {
 2495              		.loc 2 400 14 is_stmt 0 discriminator 1
 2496 0eb8 63060908 		beqz	s2,.L163
 400:src/Tests.cpp ****     {
 2497              		.loc 2 400 23 discriminator 2
 2498 0ebc 63040508 		beqz	a0,.L163
 406:src/Tests.cpp ****     uint64 im3 = (uint64)m[3];
 2499              		.loc 2 406 5 is_stmt 1
 406:src/Tests.cpp ****     uint64 im3 = (uint64)m[3];
 2500              		.loc 2 406 29 is_stmt 0
 2501 0ec0 833784F6 		ld	a5,-152(s0)
 2502              	.LVL279:
 407:src/Tests.cpp ****     uint64 im5 = (uint64)m[5];
 2503              		.loc 2 407 5 is_stmt 1
 407:src/Tests.cpp ****     uint64 im5 = (uint64)m[5];
 2504              		.loc 2 407 29 is_stmt 0
 2505 0ec4 033584F7 		ld	a0,-136(s0)
 2506              	.LVL280:
 408:src/Tests.cpp ****     uint64 imN = (uint64)m[N];
 2507              		.loc 2 408 5 is_stmt 1
 408:src/Tests.cpp ****     uint64 imN = (uint64)m[N];
 2508              		.loc 2 408 29 is_stmt 0
 2509 0ec8 033B84F8 		ld	s6,-120(s0)
 2510              	.LVL281:
 409:src/Tests.cpp **** 
 2511              		.loc 2 409 5 is_stmt 1
 409:src/Tests.cpp **** 
 2512              		.loc 2 409 29 is_stmt 0
 2513 0ecc 033604FB 		ld	a2,-80(s0)
 2514              	.LVL282:
 411:src/Tests.cpp ****     uint64 itmp2 = (uint64)tmp2;
 2515              		.loc 2 411 5 is_stmt 1
 412:src/Tests.cpp ****     uint64 itmp3 = (uint64)tmp3;
 2516              		.loc 2 412 5
 412:src/Tests.cpp ****     uint64 itmp3 = (uint64)tmp3;
 2517              		.loc 2 412 12 is_stmt 0
 2518 0ed0 130A0900 		mv	s4,s2
GAS LISTING /tmp/cceOdYyw.s 			page 67


 2519              	.LVL283:
 413:src/Tests.cpp **** 
 2520              		.loc 2 413 5 is_stmt 1
 413:src/Tests.cpp **** 
 2521              		.loc 2 413 12 is_stmt 0
 2522 0ed4 938A0900 		mv	s5,s3
 2523              	.LVL284:
 415:src/Tests.cpp ****     {
 2524              		.loc 2 415 5 is_stmt 1
 2525 0ed8 63F09708 		bgeu	a5,s1,.L165
 415:src/Tests.cpp ****     {
 2526              		.loc 2 415 20 is_stmt 0 discriminator 1
 2527 0edc 63FEA406 		bleu	a0,s1,.L165
 415:src/Tests.cpp ****     {
 2528              		.loc 2 415 33 discriminator 2
 2529 0ee0 63FC2707 		bgeu	a5,s2,.L165
 415:src/Tests.cpp ****     {
 2530              		.loc 2 415 46 discriminator 3
 2531 0ee4 637AA906 		bleu	a0,s2,.L165
 415:src/Tests.cpp ****     {
 2532              		.loc 2 415 8 discriminator 4
 2533 0ee8 63783607 		bgeu	a2,s3,.L165
 421:src/Tests.cpp ****     delete (uint64*)m[4];
 2534              		.loc 2 421 5 is_stmt 1
 421:src/Tests.cpp ****     delete (uint64*)m[4];
 2535              		.loc 2 421 25 is_stmt 0
 2536 0eec 63060500 		beqz	a0,.L167
 421:src/Tests.cpp ****     delete (uint64*)m[4];
 2537              		.loc 2 421 24 discriminator 1
 2538 0ef0 97000000 		call	_ZdlPv@plt
 2538      E7800000 
 2539              	.LVL285:
 2540              	.L167:
 422:src/Tests.cpp **** 
 2541              		.loc 2 422 5 is_stmt 1
 422:src/Tests.cpp **** 
 2542              		.loc 2 422 24 is_stmt 0
 2543 0ef8 033504F8 		ld	a0,-128(s0)
 422:src/Tests.cpp **** 
 2544              		.loc 2 422 25
 2545 0efc 63060500 		beqz	a0,.L168
 422:src/Tests.cpp **** 
 2546              		.loc 2 422 24 discriminator 1
 2547 0f00 97000000 		call	_ZdlPv@plt
 2547      E7800000 
 2548              	.LVL286:
 2549              	.L168:
 424:src/Tests.cpp ****     void* tmp5 = mem_alloc(576);
 2550              		.loc 2 424 5 is_stmt 1
 424:src/Tests.cpp ****     void* tmp5 = mem_alloc(576);
 2551              		.loc 2 424 27 is_stmt 0
 2552 0f08 13050028 		li	a0,640
 2553 0f0c 97000000 		call	mem_alloc@plt
 2553      E7800000 
 2554              	.LVL287:
 2555 0f14 130C0500 		mv	s8,a0
 2556              	.LVL288:
GAS LISTING /tmp/cceOdYyw.s 			page 68


 425:src/Tests.cpp **** 
 2557              		.loc 2 425 5 is_stmt 1
 425:src/Tests.cpp **** 
 2558              		.loc 2 425 27 is_stmt 0
 2559 0f18 13050024 		li	a0,576
 2560              	.LVL289:
 2561 0f1c 97000000 		call	mem_alloc@plt
 2561      E7800000 
 2562              	.LVL290:
 2563 0f24 930B0500 		mv	s7,a0
 2564              	.LVL291:
 427:src/Tests.cpp ****         Riscv::printString("not OK\n");
 2565              		.loc 2 427 5 is_stmt 1
 2566 0f28 63020C04 		beqz	s8,.L169
 427:src/Tests.cpp ****         Riscv::printString("not OK\n");
 2567              		.loc 2 427 14 is_stmt 0 discriminator 1
 2568 0f2c 63000504 		beqz	a0,.L169
 432:src/Tests.cpp ****     uint64 itmp5 = (uint64)tmp5;
 2569              		.loc 2 432 5 is_stmt 1
 2570              	.LVL292:
 433:src/Tests.cpp **** 
 2571              		.loc 2 433 5
 435:src/Tests.cpp ****         Riscv::printString("not OK\n");
 2572              		.loc 2 435 5
 2573 0f30 6378AA04 		bgeu	s4,a0,.L171
 435:src/Tests.cpp ****         Riscv::printString("not OK\n");
 2574              		.loc 2 435 22 is_stmt 0 discriminator 1
 2575 0f34 6376AB04 		bgeu	s6,a0,.L171
 435:src/Tests.cpp ****         Riscv::printString("not OK\n");
 2576              		.loc 2 435 8 discriminator 2
 2577 0f38 63745C05 		bleu	s5,s8,.L171
 2578              	.LBB60:
 440:src/Tests.cpp ****         delete (uint64*)m[i];
 2579              		.loc 2 440 13
 2580 0f3c 130A0000 		li	s4,0
 2581 0f40 6F008005 		j	.L172
 2582              	.LVL293:
 2583              	.L163:
 2584              	.LBE60:
 402:src/Tests.cpp ****         return;
 2585              		.loc 2 402 9 is_stmt 1
 402:src/Tests.cpp ****         return;
 2586              		.loc 2 402 27 is_stmt 0
 2587 0f44 17050000 		lla	a0,.LC9
 2587      13050500 
 2588              	.LVL294:
 2589 0f4c 97000000 		call	_ZN5Riscv11printStringEPKc@plt
 2589      E7800000 
 2590              	.LVL295:
 403:src/Tests.cpp ****     }
 2591              		.loc 2 403 9 is_stmt 1
 2592 0f54 6FF01FEF 		j	.L157
 2593              	.LVL296:
 2594              	.L165:
 417:src/Tests.cpp ****         return;
 2595              		.loc 2 417 9
 417:src/Tests.cpp ****         return;
GAS LISTING /tmp/cceOdYyw.s 			page 69


 2596              		.loc 2 417 27 is_stmt 0
 2597 0f58 17050000 		lla	a0,.LC9
 2597      13050500 
 2598              	.LVL297:
 2599 0f60 97000000 		call	_ZN5Riscv11printStringEPKc@plt
 2599      E7800000 
 2600              	.LVL298:
 418:src/Tests.cpp ****     }
 2601              		.loc 2 418 9 is_stmt 1
 2602 0f68 6FF0DFED 		j	.L157
 2603              	.LVL299:
 2604              	.L169:
 428:src/Tests.cpp ****         return;
 2605              		.loc 2 428 9
 428:src/Tests.cpp ****         return;
 2606              		.loc 2 428 27 is_stmt 0
 2607 0f6c 17050000 		lla	a0,.LC9
 2607      13050500 
 2608              	.LVL300:
 2609 0f74 97000000 		call	_ZN5Riscv11printStringEPKc@plt
 2609      E7800000 
 2610              	.LVL301:
 429:src/Tests.cpp ****     }
 2611              		.loc 2 429 9 is_stmt 1
 2612 0f7c 6FF09FEC 		j	.L157
 2613              	.LVL302:
 2614              	.L171:
 436:src/Tests.cpp ****         return;
 2615              		.loc 2 436 9
 436:src/Tests.cpp ****         return;
 2616              		.loc 2 436 27 is_stmt 0
 2617 0f80 17050000 		lla	a0,.LC9
 2617      13050500 
 2618              	.LVL303:
 2619 0f88 97000000 		call	_ZN5Riscv11printStringEPKc@plt
 2619      E7800000 
 2620              	.LVL304:
 437:src/Tests.cpp ****     }
 2621              		.loc 2 437 9 is_stmt 1
 2622 0f90 6FF05FEB 		j	.L157
 2623              	.LVL305:
 2624              	.L174:
 2625              	.LBB61:
 440:src/Tests.cpp ****         delete (uint64*)m[i];
 2626              		.loc 2 440 5 discriminator 2
 2627 0f94 1B0A1A00 		addiw	s4,s4,1
 2628              	.LVL306:
 2629              	.L172:
 440:src/Tests.cpp ****         delete (uint64*)m[i];
 2630              		.loc 2 440 18 discriminator 1
 2631 0f98 93079000 		li	a5,9
 2632 0f9c 63C24703 		bgt	s4,a5,.L173
 441:src/Tests.cpp ****     }
 2633              		.loc 2 441 9
 441:src/Tests.cpp ****     }
 2634              		.loc 2 441 28 is_stmt 0
 2635 0fa0 93173A00 		slli	a5,s4,3
GAS LISTING /tmp/cceOdYyw.s 			page 70


 2636 0fa4 130704FB 		addi	a4,s0,-80
 2637              	.LVL307:
 2638 0fa8 B307F700 		add	a5,a4,a5
 2639 0fac 03B507FB 		ld	a0,-80(a5)
 441:src/Tests.cpp ****     }
 2640              		.loc 2 441 29
 2641 0fb0 E30205FE 		beqz	a0,.L174
 441:src/Tests.cpp ****     }
 2642              		.loc 2 441 28 discriminator 1
 2643 0fb4 97000000 		call	_ZdlPv@plt
 2643      E7800000 
 2644              	.LVL308:
 2645 0fbc 6FF09FFD 		j	.L174
 2646              	.L173:
 2647              	.LBE61:
 444:src/Tests.cpp ****     delete (uint64*)tmp2;
 2648              		.loc 2 444 5 is_stmt 1 discriminator 1
 444:src/Tests.cpp ****     delete (uint64*)tmp2;
 2649              		.loc 2 444 21 is_stmt 0 discriminator 1
 2650 0fc0 13850400 		mv	a0,s1
 2651 0fc4 97000000 		call	_ZdlPv@plt
 2651      E7800000 
 2652              	.LVL309:
 445:src/Tests.cpp ****     delete (uint64*)tmp3;
 2653              		.loc 2 445 5 is_stmt 1 discriminator 1
 445:src/Tests.cpp ****     delete (uint64*)tmp3;
 2654              		.loc 2 445 21 is_stmt 0 discriminator 1
 2655 0fcc 13050900 		mv	a0,s2
 2656 0fd0 97000000 		call	_ZdlPv@plt
 2656      E7800000 
 2657              	.LVL310:
 446:src/Tests.cpp ****     delete (uint64*)tmp4;
 2658              		.loc 2 446 5 is_stmt 1 discriminator 1
 446:src/Tests.cpp ****     delete (uint64*)tmp4;
 2659              		.loc 2 446 21 is_stmt 0 discriminator 1
 2660 0fd8 13850900 		mv	a0,s3
 2661 0fdc 97000000 		call	_ZdlPv@plt
 2661      E7800000 
 2662              	.LVL311:
 447:src/Tests.cpp ****     delete (uint64*)tmp5;
 2663              		.loc 2 447 5 is_stmt 1 discriminator 1
 447:src/Tests.cpp ****     delete (uint64*)tmp5;
 2664              		.loc 2 447 21 is_stmt 0 discriminator 1
 2665 0fe4 13050C00 		mv	a0,s8
 2666 0fe8 97000000 		call	_ZdlPv@plt
 2666      E7800000 
 2667              	.LVL312:
 448:src/Tests.cpp **** 
 2668              		.loc 2 448 5 is_stmt 1 discriminator 1
 448:src/Tests.cpp **** 
 2669              		.loc 2 448 21 is_stmt 0 discriminator 1
 2670 0ff0 13850B00 		mv	a0,s7
 2671 0ff4 97000000 		call	_ZdlPv@plt
 2671      E7800000 
 2672              	.LVL313:
 450:src/Tests.cpp **** }
 2673              		.loc 2 450 5 is_stmt 1 discriminator 1
GAS LISTING /tmp/cceOdYyw.s 			page 71


 450:src/Tests.cpp **** }
 2674              		.loc 2 450 23 is_stmt 0 discriminator 1
 2675 0ffc 17050000 		lla	a0,.LC21
 2675      13050500 
 2676 1004 97000000 		call	_ZN5Riscv11printStringEPKc@plt
 2676      E7800000 
 2677              	.LVL314:
 2678 100c 6FF09FE3 		j	.L157
 2679              		.cfi_endproc
 2680              	.LFE49:
 2682              		.align	2
 2683              		.globl	_Z21memoryAllocationTestsv
 2685              	_Z21memoryAllocationTestsv:
 2686              	.LFB36:
 267:src/Tests.cpp ****     //bigMalloc();
 2687              		.loc 2 267 1 is_stmt 1
 2688              		.cfi_startproc
 2689 1010 130101FF 		addi	sp,sp,-16
 2690              		.cfi_def_cfa_offset 16
 2691 1014 23341100 		sd	ra,8(sp)
 2692 1018 23308100 		sd	s0,0(sp)
 2693              		.cfi_offset 1, -8
 2694              		.cfi_offset 8, -16
 2695 101c 13040101 		addi	s0,sp,16
 2696              		.cfi_def_cfa 8, 0
 275:src/Tests.cpp **** }
 2697              		.loc 2 275 5
 275:src/Tests.cpp **** }
 2698              		.loc 2 275 22 is_stmt 0
 2699 1020 97000000 		call	_Z17mallocGapFillTestv
 2699      E7800000 
 2700              	.LVL315:
 276:src/Tests.cpp **** 
 2701              		.loc 2 276 1
 2702 1028 83308100 		ld	ra,8(sp)
 2703              		.cfi_restore 1
 2704 102c 03340100 		ld	s0,0(sp)
 2705              		.cfi_restore 8
 2706              		.cfi_def_cfa 2, 16
 2707 1030 13010101 		addi	sp,sp,16
 2708              		.cfi_def_cfa_offset 0
 2709 1034 67800000 		jr	ra
 2710              		.cfi_endproc
 2711              	.LFE36:
 2713              		.align	2
 2714              		.globl	_Z7myTestsv
 2716              	_Z7myTestsv:
 2717              	.LFB38:
 286:src/Tests.cpp ****     memoryAllocationTests();
 2718              		.loc 2 286 1 is_stmt 1
 2719              		.cfi_startproc
 2720 1038 130101FF 		addi	sp,sp,-16
 2721              		.cfi_def_cfa_offset 16
 2722 103c 23341100 		sd	ra,8(sp)
 2723 1040 23308100 		sd	s0,0(sp)
 2724              		.cfi_offset 1, -8
 2725              		.cfi_offset 8, -16
GAS LISTING /tmp/cceOdYyw.s 			page 72


 2726 1044 13040101 		addi	s0,sp,16
 2727              		.cfi_def_cfa 8, 0
 287:src/Tests.cpp ****     //threadTests();
 2728              		.loc 2 287 5
 287:src/Tests.cpp ****     //threadTests();
 2729              		.loc 2 287 26 is_stmt 0
 2730 1048 97000000 		call	_Z21memoryAllocationTestsv
 2730      E7800000 
 2731              	.LVL316:
 290:src/Tests.cpp **** 
 2732              		.loc 2 290 1
 2733 1050 83308100 		ld	ra,8(sp)
 2734              		.cfi_restore 1
 2735 1054 03340100 		ld	s0,0(sp)
 2736              		.cfi_restore 8
 2737              		.cfi_def_cfa 2, 16
 2738 1058 13010101 		addi	sp,sp,16
 2739              		.cfi_def_cfa_offset 0
 2740 105c 67800000 		jr	ra
 2741              		.cfi_endproc
 2742              	.LFE38:
 2744              		.align	2
 2745              		.globl	_Z8semTest1v
 2747              	_Z8semTest1v:
 2748              	.LFB52:
 478:src/Tests.cpp **** 
 479:src/Tests.cpp **** void semTest1()
 480:src/Tests.cpp **** {
 2749              		.loc 2 480 1 is_stmt 1
 2750              		.cfi_startproc
 2751 1060 130101FE 		addi	sp,sp,-32
 2752              		.cfi_def_cfa_offset 32
 2753 1064 233C1100 		sd	ra,24(sp)
 2754 1068 23388100 		sd	s0,16(sp)
 2755              		.cfi_offset 1, -8
 2756              		.cfi_offset 8, -16
 2757 106c 13040102 		addi	s0,sp,32
 2758              		.cfi_def_cfa 8, 0
 481:src/Tests.cpp ****     sem_open(&spaceAvailable, 10);
 2759              		.loc 2 481 5
 2760              		.loc 2 481 13 is_stmt 0
 2761 1070 9305A000 		li	a1,10
 2762 1074 17050000 		lla	a0,.LANCHOR0+32
 2762      13050500 
 2763 107c 97000000 		call	sem_open@plt
 2763      E7800000 
 2764              	.LVL317:
 482:src/Tests.cpp **** 
 483:src/Tests.cpp ****     sem_open(&itemAvailable, 0);
 2765              		.loc 2 483 5 is_stmt 1
 2766              		.loc 2 483 13 is_stmt 0
 2767 1084 93050000 		li	a1,0
 2768 1088 17050000 		lla	a0,.LANCHOR0+8
 2768      13050500 
 2769 1090 97000000 		call	sem_open@plt
 2769      E7800000 
 2770              	.LVL318:
GAS LISTING /tmp/cceOdYyw.s 			page 73


 484:src/Tests.cpp **** 
 485:src/Tests.cpp ****     thread_t threadA, threadB;
 2771              		.loc 2 485 5 is_stmt 1
 486:src/Tests.cpp **** 
 487:src/Tests.cpp ****     thread_create(&threadA, producerA, nullptr);
 2772              		.loc 2 487 5
 2773              		.loc 2 487 18 is_stmt 0
 2774 1098 13060000 		li	a2,0
 2775 109c 97050000 		lla	a1,_Z9producerAPv
 2775      93850500 
 2776 10a4 130584FE 		addi	a0,s0,-24
 2777 10a8 97000000 		call	thread_create@plt
 2777      E7800000 
 2778              	.LVL319:
 488:src/Tests.cpp **** 
 489:src/Tests.cpp ****     thread_create(&threadB, consumerA, nullptr);
 2779              		.loc 2 489 5 is_stmt 1
 2780              		.loc 2 489 18 is_stmt 0
 2781 10b0 13060000 		li	a2,0
 2782 10b4 97050000 		lla	a1,_Z9consumerAPv
 2782      93850500 
 2783 10bc 130504FE 		addi	a0,s0,-32
 2784 10c0 97000000 		call	thread_create@plt
 2784      E7800000 
 2785              	.LVL320:
 2786 10c8 6F00C000 		j	.L186
 2787              	.L184:
 490:src/Tests.cpp **** 
 491:src/Tests.cpp ****     while(!((PCB*)threadA)->isFinished() || !((PCB*)threadA)->isFinished())
 492:src/Tests.cpp ****         thread_dispatch();
 2788              		.loc 2 492 9 is_stmt 1 discriminator 5
 2789              		.loc 2 492 24 is_stmt 0 discriminator 5
 2790 10cc 97000000 		call	thread_dispatch@plt
 2790      E7800000 
 2791              	.LVL321:
 2792              	.L186:
 491:src/Tests.cpp ****         thread_dispatch();
 2793              		.loc 2 491 5 is_stmt 1
 491:src/Tests.cpp ****         thread_dispatch();
 2794              		.loc 2 491 42
 491:src/Tests.cpp ****         thread_dispatch();
 2795              		.loc 2 491 39 is_stmt 0
 2796 10d4 033584FE 		ld	a0,-24(s0)
 2797 10d8 97000000 		call	_ZN3PCB10isFinishedEv@plt
 2797      E7800000 
 2798              	.LVL322:
 491:src/Tests.cpp ****         thread_dispatch();
 2799              		.loc 2 491 42
 2800 10e0 E30605FE 		beqz	a0,.L184
 491:src/Tests.cpp ****         thread_dispatch();
 2801              		.loc 2 491 73 discriminator 3
 2802 10e4 033584FE 		ld	a0,-24(s0)
 2803 10e8 97000000 		call	_ZN3PCB10isFinishedEv@plt
 2803      E7800000 
 2804              	.LVL323:
 491:src/Tests.cpp ****         thread_dispatch();
 2805              		.loc 2 491 42 discriminator 3
GAS LISTING /tmp/cceOdYyw.s 			page 74


 2806 10f0 E30E05FC 		beqz	a0,.L184
 493:src/Tests.cpp **** 
 494:src/Tests.cpp **** }
 2807              		.loc 2 494 1
 2808 10f4 83308101 		ld	ra,24(sp)
 2809              		.cfi_restore 1
 2810 10f8 03340101 		ld	s0,16(sp)
 2811              		.cfi_restore 8
 2812              		.cfi_def_cfa 2, 32
 2813 10fc 13010102 		addi	sp,sp,32
 2814              		.cfi_def_cfa_offset 0
 2815 1100 67800000 		jr	ra
 2816              		.cfi_endproc
 2817              	.LFE52:
 2819              		.align	2
 2820              		.globl	_Z14semaphoreTestsv
 2822              	_Z14semaphoreTestsv:
 2823              	.LFB37:
 281:src/Tests.cpp ****     semTest1();
 2824              		.loc 2 281 1 is_stmt 1
 2825              		.cfi_startproc
 2826 1104 130101FF 		addi	sp,sp,-16
 2827              		.cfi_def_cfa_offset 16
 2828 1108 23341100 		sd	ra,8(sp)
 2829 110c 23308100 		sd	s0,0(sp)
 2830              		.cfi_offset 1, -8
 2831              		.cfi_offset 8, -16
 2832 1110 13040101 		addi	s0,sp,16
 2833              		.cfi_def_cfa 8, 0
 282:src/Tests.cpp **** }
 2834              		.loc 2 282 5
 282:src/Tests.cpp **** }
 2835              		.loc 2 282 13 is_stmt 0
 2836 1114 97000000 		call	_Z8semTest1v
 2836      E7800000 
 2837              	.LVL324:
 283:src/Tests.cpp **** 
 2838              		.loc 2 283 1
 2839 111c 83308100 		ld	ra,8(sp)
 2840              		.cfi_restore 1
 2841 1120 03340100 		ld	s0,0(sp)
 2842              		.cfi_restore 8
 2843              		.cfi_def_cfa 2, 16
 2844 1124 13010101 		addi	sp,sp,16
 2845              		.cfi_def_cfa_offset 0
 2846 1128 67800000 		jr	ra
 2847              		.cfi_endproc
 2848              	.LFE37:
 2850              		.weak	_ZTV14PeriodicThread
 2851              		.section	.data.rel.ro.local._ZTV14PeriodicThread,"awG",@progbits,_ZTV14PeriodicThread,comdat
 2852              		.align	3
 2855              	_ZTV14PeriodicThread:
 2856 0000 00000000 		.dword	0
 2856      00000000 
 2857 0008 00000000 		.dword	0
 2857      00000000 
 2858 0010 00000000 		.dword	_ZN14PeriodicThreadD1Ev
GAS LISTING /tmp/cceOdYyw.s 			page 75


 2858      00000000 
 2859 0018 00000000 		.dword	_ZN14PeriodicThreadD0Ev
 2859      00000000 
 2860 0020 00000000 		.dword	_ZN6Thread3runEv
 2860      00000000 
 2861 0028 00000000 		.dword	_ZN14PeriodicThread18periodicActivationEv
 2861      00000000 
 2862              		.weak	_ZTV12TestPeriodic
 2863              		.section	.data.rel.ro.local._ZTV12TestPeriodic,"awG",@progbits,_ZTV12TestPeriodic,comdat
 2864              		.align	3
 2867              	_ZTV12TestPeriodic:
 2868 0000 00000000 		.dword	0
 2868      00000000 
 2869 0008 00000000 		.dword	0
 2869      00000000 
 2870 0010 00000000 		.dword	_ZN12TestPeriodicD1Ev
 2870      00000000 
 2871 0018 00000000 		.dword	_ZN12TestPeriodicD0Ev
 2871      00000000 
 2872 0020 00000000 		.dword	_ZN6Thread3runEv
 2872      00000000 
 2873 0028 00000000 		.dword	_ZN12TestPeriodic18periodicActivationEv
 2873      00000000 
 2874              		.globl	string
 2875              		.globl	itemAvailable
 2876              		.globl	spaceAvailable
 2877              		.globl	tail
 2878              		.globl	head
 2879              		.globl	buffer
 2880              		.data
 2881              		.align	3
 2882              		.set	.LANCHOR1,. + 0
 2885              	string:
 2886 0000 74686973 		.string	"this is ni"
 2886      20697320 
 2886      6E6900
 2887              		.bss
 2888              		.align	3
 2889              		.set	.LANCHOR0,. + 0
 2892              	head:
 2893 0000 00000000 		.zero	4
 2894 0004 00000000 		.zero	4
 2897              	itemAvailable:
 2898 0008 00000000 		.zero	8
 2898      00000000 
 2901              	buffer:
 2902 0010 00000000 		.zero	10
 2902      00000000 
 2902      0000
 2903 001a 00000000 		.zero	6
 2903      0000
 2906              	spaceAvailable:
 2907 0020 00000000 		.zero	8
 2907      00000000 
 2910              	tail:
 2911 0028 00000000 		.zero	4
 2912              		.text
GAS LISTING /tmp/cceOdYyw.s 			page 76


 2913              	.Letext0:
 2914              		.file 5 "src/../h/../lib/hw.h"
 2915              		.file 6 "src/../h/Riscv.hpp"
 2916              		.file 7 "src/../h/syscall_c.h"
 2917              		.file 8 "src/../lib/console.h"
 10228              		.align	3
 10231              	DW.ref.__gxx_personality_v0:
 10232 0000 00000000 		.dword	__gxx_personality_v0
 10232      00000000 
 10233              		.ident	"GCC: (Ubuntu 9.3.0-17ubuntu1~20.04) 9.3.0"
 10234              		.section	.note.GNU-stack,"",@progbits
GAS LISTING /tmp/cceOdYyw.s 			page 77


DEFINED SYMBOLS
                            *ABS*:0000000000000000 Tests.cpp
     /tmp/cceOdYyw.s:10     .text._ZN6Thread3runEv:0000000000000000 _ZN6Thread3runEv
     /tmp/cceOdYyw.s:14     .text._ZN6Thread3runEv:0000000000000000 .L0 
     /tmp/cceOdYyw.s:16     .text._ZN6Thread3runEv:0000000000000000 .L0 
     /tmp/cceOdYyw.s:17     .text._ZN6Thread3runEv:0000000000000004 .L0 
     /tmp/cceOdYyw.s:19     .text._ZN6Thread3runEv:0000000000000008 .L0 
     /tmp/cceOdYyw.s:21     .text._ZN6Thread3runEv:000000000000000c .L0 
     /tmp/cceOdYyw.s:23     .text._ZN6Thread3runEv:000000000000000c .L0 
     /tmp/cceOdYyw.s:24     .text._ZN6Thread3runEv:0000000000000010 .L0 
     /tmp/cceOdYyw.s:25     .text._ZN6Thread3runEv:0000000000000010 .L0 
     /tmp/cceOdYyw.s:27     .text._ZN6Thread3runEv:0000000000000014 .L0 
     /tmp/cceOdYyw.s:29     .text._ZN6Thread3runEv:0000000000000018 .L0 
     /tmp/cceOdYyw.s:36     .text._ZN14PeriodicThread18periodicActivationEv:0000000000000000 _ZN14PeriodicThread18periodicActivationEv
     /tmp/cceOdYyw.s:39     .text._ZN14PeriodicThread18periodicActivationEv:0000000000000000 .L0 
     /tmp/cceOdYyw.s:41     .text._ZN14PeriodicThread18periodicActivationEv:0000000000000000 .L0 
     /tmp/cceOdYyw.s:42     .text._ZN14PeriodicThread18periodicActivationEv:0000000000000004 .L0 
     /tmp/cceOdYyw.s:44     .text._ZN14PeriodicThread18periodicActivationEv:0000000000000008 .L0 
     /tmp/cceOdYyw.s:46     .text._ZN14PeriodicThread18periodicActivationEv:000000000000000c .L0 
     /tmp/cceOdYyw.s:48     .text._ZN14PeriodicThread18periodicActivationEv:000000000000000c .L0 
     /tmp/cceOdYyw.s:49     .text._ZN14PeriodicThread18periodicActivationEv:0000000000000010 .L0 
     /tmp/cceOdYyw.s:50     .text._ZN14PeriodicThread18periodicActivationEv:0000000000000010 .L0 
     /tmp/cceOdYyw.s:52     .text._ZN14PeriodicThread18periodicActivationEv:0000000000000014 .L0 
     /tmp/cceOdYyw.s:54     .text._ZN14PeriodicThread18periodicActivationEv:0000000000000018 .L0 
     /tmp/cceOdYyw.s:65     .text:0000000000000000 _Z4idlePv
     /tmp/cceOdYyw.s:69     .text:0000000000000000 .L0 
     /tmp/cceOdYyw.s:71     .text:0000000000000000 .L0 
     /tmp/cceOdYyw.s:72     .text:0000000000000004 .L0 
     /tmp/cceOdYyw.s:75     .text:000000000000000c .L0 
     /tmp/cceOdYyw.s:76     .text:000000000000000c .L0 
     /tmp/cceOdYyw.s:78     .text:0000000000000010 .L0 
     /tmp/cceOdYyw.s:82     .text:0000000000000010 .L0 
     /tmp/cceOdYyw.s:83     .text:0000000000000010 .L0 
     /tmp/cceOdYyw.s:84     .text:0000000000000010 .L0 
     /tmp/cceOdYyw.s:88     .text:0000000000000020 .L0 
     /tmp/cceOdYyw.s:89     .text:0000000000000020 .L0 
     /tmp/cceOdYyw.s:92     .text:0000000000000028 .L0 
     /tmp/cceOdYyw.s:93     .text:000000000000002c .L0 
     /tmp/cceOdYyw.s:110    .text:000000000000002c _Z15thread1FunctionPv
     /tmp/cceOdYyw.s:113    .text:000000000000002c .L0 
     /tmp/cceOdYyw.s:115    .text:000000000000002c .L0 
     /tmp/cceOdYyw.s:116    .text:0000000000000030 .L0 
     /tmp/cceOdYyw.s:120    .text:000000000000003c .L0 
     /tmp/cceOdYyw.s:121    .text:000000000000003c .L0 
     /tmp/cceOdYyw.s:122    .text:000000000000003c .L0 
     /tmp/cceOdYyw.s:124    .text:0000000000000040 .L0 
     /tmp/cceOdYyw.s:126    .text:0000000000000040 .L0 
     /tmp/cceOdYyw.s:127    .text:0000000000000040 .L0 
     /tmp/cceOdYyw.s:132    .text:0000000000000050 .L0 
     /tmp/cceOdYyw.s:134    .text:0000000000000050 .L0 
     /tmp/cceOdYyw.s:135    .text:0000000000000050 .L0 
     /tmp/cceOdYyw.s:140    .text:0000000000000058 .L0 
     /tmp/cceOdYyw.s:141    .text:0000000000000058 .L0 
     /tmp/cceOdYyw.s:145    .text:0000000000000060 .L0 
     /tmp/cceOdYyw.s:146    .text:0000000000000060 .L0 
     /tmp/cceOdYyw.s:150    .text:0000000000000070 .L0 
     /tmp/cceOdYyw.s:151    .text:0000000000000070 .L0 
GAS LISTING /tmp/cceOdYyw.s 			page 78


     /tmp/cceOdYyw.s:155    .text:000000000000007c .L0 
     /tmp/cceOdYyw.s:156    .text:000000000000007c .L0 
     /tmp/cceOdYyw.s:160    .text:000000000000008c .L0 
     /tmp/cceOdYyw.s:164    .text:0000000000000090 .L0 
     /tmp/cceOdYyw.s:168    .text:000000000000009c .L0 
     /tmp/cceOdYyw.s:169    .text:000000000000009c .L0 
     /tmp/cceOdYyw.s:172    .text:00000000000000a4 .L0 
     /tmp/cceOdYyw.s:174    .text:00000000000000a8 .L0 
     /tmp/cceOdYyw.s:179    .text:00000000000000b0 .L0 
     /tmp/cceOdYyw.s:180    .text:00000000000000b4 .L0 
     /tmp/cceOdYyw.s:182    .text:00000000000000b8 .L0 
     /tmp/cceOdYyw.s:183    .text:00000000000000b8 .L0 
     /tmp/cceOdYyw.s:185    .text:00000000000000bc .L0 
     /tmp/cceOdYyw.s:188    .text:00000000000000c0 .L0 
     /tmp/cceOdYyw.s:190    .text:00000000000000c4 .L0 
     /tmp/cceOdYyw.s:204    .text:00000000000000c4 _Z15thread2FunctionPv
     /tmp/cceOdYyw.s:207    .text:00000000000000c4 .L0 
     /tmp/cceOdYyw.s:209    .text:00000000000000c4 .L0 
     /tmp/cceOdYyw.s:210    .text:00000000000000c8 .L0 
     /tmp/cceOdYyw.s:214    .text:00000000000000d4 .L0 
     /tmp/cceOdYyw.s:215    .text:00000000000000d4 .L0 
     /tmp/cceOdYyw.s:216    .text:00000000000000d4 .L0 
     /tmp/cceOdYyw.s:218    .text:00000000000000d8 .L0 
     /tmp/cceOdYyw.s:220    .text:00000000000000d8 .L0 
     /tmp/cceOdYyw.s:221    .text:00000000000000d8 .L0 
     /tmp/cceOdYyw.s:226    .text:00000000000000e8 .L0 
     /tmp/cceOdYyw.s:228    .text:00000000000000e8 .L0 
     /tmp/cceOdYyw.s:229    .text:00000000000000e8 .L0 
     /tmp/cceOdYyw.s:234    .text:00000000000000f0 .L0 
     /tmp/cceOdYyw.s:235    .text:00000000000000f0 .L0 
     /tmp/cceOdYyw.s:239    .text:00000000000000f8 .L0 
     /tmp/cceOdYyw.s:240    .text:00000000000000f8 .L0 
     /tmp/cceOdYyw.s:244    .text:0000000000000108 .L0 
     /tmp/cceOdYyw.s:245    .text:0000000000000108 .L0 
     /tmp/cceOdYyw.s:249    .text:0000000000000114 .L0 
     /tmp/cceOdYyw.s:250    .text:0000000000000114 .L0 
     /tmp/cceOdYyw.s:254    .text:0000000000000124 .L0 
     /tmp/cceOdYyw.s:258    .text:0000000000000128 .L0 
     /tmp/cceOdYyw.s:262    .text:0000000000000134 .L0 
     /tmp/cceOdYyw.s:263    .text:0000000000000134 .L0 
     /tmp/cceOdYyw.s:266    .text:000000000000013c .L0 
     /tmp/cceOdYyw.s:268    .text:0000000000000140 .L0 
     /tmp/cceOdYyw.s:273    .text:0000000000000148 .L0 
     /tmp/cceOdYyw.s:274    .text:000000000000014c .L0 
     /tmp/cceOdYyw.s:276    .text:0000000000000150 .L0 
     /tmp/cceOdYyw.s:277    .text:0000000000000150 .L0 
     /tmp/cceOdYyw.s:279    .text:0000000000000154 .L0 
     /tmp/cceOdYyw.s:282    .text:0000000000000158 .L0 
     /tmp/cceOdYyw.s:284    .text:000000000000015c .L0 
     /tmp/cceOdYyw.s:290    .text:000000000000015c _ZN12TestPeriodic18periodicActivationEv
     /tmp/cceOdYyw.s:293    .text:000000000000015c .L0 
     /tmp/cceOdYyw.s:295    .text:000000000000015c .L0 
     /tmp/cceOdYyw.s:296    .text:0000000000000160 .L0 
     /tmp/cceOdYyw.s:300    .text:000000000000016c .L0 
     /tmp/cceOdYyw.s:301    .text:000000000000016c .L0 
     /tmp/cceOdYyw.s:302    .text:000000000000016c .L0 
     /tmp/cceOdYyw.s:304    .text:0000000000000170 .L0 
GAS LISTING /tmp/cceOdYyw.s 			page 79


     /tmp/cceOdYyw.s:308    .text:0000000000000170 .L0 
     /tmp/cceOdYyw.s:309    .text:0000000000000170 .L0 
     /tmp/cceOdYyw.s:313    .text:0000000000000174 .L0 
     /tmp/cceOdYyw.s:317    .text:0000000000000180 .L0 
     /tmp/cceOdYyw.s:318    .text:0000000000000180 .L0 
     /tmp/cceOdYyw.s:322    .text:0000000000000190 .L0 
     /tmp/cceOdYyw.s:323    .text:0000000000000190 .L0 
     /tmp/cceOdYyw.s:327    .text:000000000000019c .L0 
     /tmp/cceOdYyw.s:334    .text:00000000000001a4 .L0 
     /tmp/cceOdYyw.s:335    .text:00000000000001a8 .L0 
     /tmp/cceOdYyw.s:337    .text:00000000000001ac .L0 
     /tmp/cceOdYyw.s:338    .text:00000000000001ac .L0 
     /tmp/cceOdYyw.s:340    .text:00000000000001b0 .L0 
     /tmp/cceOdYyw.s:343    .text:00000000000001b4 .L0 
     /tmp/cceOdYyw.s:345    .text:00000000000001b8 .L0 
     /tmp/cceOdYyw.s:351    .text:00000000000001b8 _Z20thread2FunctionTest2Pv
     /tmp/cceOdYyw.s:354    .text:00000000000001b8 .L0 
     /tmp/cceOdYyw.s:356    .text:00000000000001b8 .L0 
     /tmp/cceOdYyw.s:357    .text:00000000000001bc .L0 
     /tmp/cceOdYyw.s:361    .text:00000000000001c8 .L0 
     /tmp/cceOdYyw.s:362    .text:00000000000001c8 .L0 
     /tmp/cceOdYyw.s:363    .text:00000000000001c8 .L0 
     /tmp/cceOdYyw.s:365    .text:00000000000001cc .L0 
     /tmp/cceOdYyw.s:367    .text:00000000000001cc .L0 
     /tmp/cceOdYyw.s:368    .text:00000000000001cc .L0 
     /tmp/cceOdYyw.s:373    .text:00000000000001dc .L0 
     /tmp/cceOdYyw.s:375    .text:00000000000001dc .L0 
     /tmp/cceOdYyw.s:376    .text:00000000000001dc .L0 
     /tmp/cceOdYyw.s:381    .text:00000000000001e4 .L0 
     /tmp/cceOdYyw.s:382    .text:00000000000001e4 .L0 
     /tmp/cceOdYyw.s:387    .text:00000000000001f0 .L0 
     /tmp/cceOdYyw.s:388    .text:00000000000001f0 .L0 
     /tmp/cceOdYyw.s:392    .text:00000000000001f8 .L0 
     /tmp/cceOdYyw.s:393    .text:00000000000001f8 .L0 
     /tmp/cceOdYyw.s:397    .text:0000000000000208 .L0 
     /tmp/cceOdYyw.s:398    .text:0000000000000208 .L0 
     /tmp/cceOdYyw.s:402    .text:0000000000000214 .L0 
     /tmp/cceOdYyw.s:403    .text:0000000000000214 .L0 
     /tmp/cceOdYyw.s:407    .text:0000000000000224 .L0 
     /tmp/cceOdYyw.s:411    .text:0000000000000228 .L0 
     /tmp/cceOdYyw.s:415    .text:0000000000000234 .L0 
     /tmp/cceOdYyw.s:419    .text:000000000000023c .L0 
     /tmp/cceOdYyw.s:420    .text:000000000000023c .L0 
     /tmp/cceOdYyw.s:423    .text:0000000000000244 .L0 
     /tmp/cceOdYyw.s:425    .text:0000000000000248 .L0 
     /tmp/cceOdYyw.s:430    .text:0000000000000250 .L0 
     /tmp/cceOdYyw.s:431    .text:0000000000000254 .L0 
     /tmp/cceOdYyw.s:433    .text:0000000000000258 .L0 
     /tmp/cceOdYyw.s:434    .text:0000000000000258 .L0 
     /tmp/cceOdYyw.s:436    .text:000000000000025c .L0 
     /tmp/cceOdYyw.s:439    .text:0000000000000260 .L0 
     /tmp/cceOdYyw.s:441    .text:0000000000000264 .L0 
     /tmp/cceOdYyw.s:447    .text:0000000000000264 _Z9consumerAPv
     /tmp/cceOdYyw.s:450    .text:0000000000000264 .L0 
     /tmp/cceOdYyw.s:452    .text:0000000000000264 .L0 
     /tmp/cceOdYyw.s:453    .text:0000000000000264 .L0 
     /tmp/cceOdYyw.s:454    .text:0000000000000264 .L0 
GAS LISTING /tmp/cceOdYyw.s 			page 80


     /tmp/cceOdYyw.s:458    .text:0000000000000274 .L0 
     /tmp/cceOdYyw.s:459    .text:0000000000000278 .L0 
     /tmp/cceOdYyw.s:463    .text:0000000000000284 .L0 
     /tmp/cceOdYyw.s:464    .text:0000000000000284 .L0 
     /tmp/cceOdYyw.s:465    .text:0000000000000284 .L0 
     /tmp/cceOdYyw.s:467    .text:0000000000000288 .L0 
     /tmp/cceOdYyw.s:471    .text:0000000000000288 .L0 
     /tmp/cceOdYyw.s:472    .text:0000000000000288 .L0 
     /tmp/cceOdYyw.s:477    .text:000000000000029c .L0 
     /tmp/cceOdYyw.s:478    .text:000000000000029c .L0 
     /tmp/cceOdYyw.s:482    .text:00000000000002a8 .L0 
     /tmp/cceOdYyw.s:487    .text:00000000000002b8 .L0 
     /tmp/cceOdYyw.s:488    .text:00000000000002b8 .L0 
     /tmp/cceOdYyw.s:492    .text:00000000000002c4 .L0 
     /tmp/cceOdYyw.s:493    .text:00000000000002c4 .L0 
     /tmp/cceOdYyw.s:497    .text:00000000000002d4 .L0 
     /tmp/cceOdYyw.s:498    .text:00000000000002d8 .L0 
     /tmp/cceOdYyw.s:500    .text:00000000000002dc .L0 
     /tmp/cceOdYyw.s:501    .text:00000000000002dc .L0 
     /tmp/cceOdYyw.s:503    .text:00000000000002e0 .L0 
     /tmp/cceOdYyw.s:505    .text:00000000000002e4 .L0 
     /tmp/cceOdYyw.s:510    .text:00000000000002ec .L0 
     /tmp/cceOdYyw.s:516    .text:00000000000002ec _Z9producerAPv
     /tmp/cceOdYyw.s:519    .text:00000000000002ec .L0 
     /tmp/cceOdYyw.s:521    .text:00000000000002ec .L0 
     /tmp/cceOdYyw.s:522    .text:00000000000002ec .L0 
     /tmp/cceOdYyw.s:523    .text:00000000000002ec .L0 
     /tmp/cceOdYyw.s:527    .text:00000000000002fc .L0 
     /tmp/cceOdYyw.s:528    .text:0000000000000300 .L0 
     /tmp/cceOdYyw.s:532    .text:000000000000030c .L0 
     /tmp/cceOdYyw.s:533    .text:000000000000030c .L0 
     /tmp/cceOdYyw.s:534    .text:000000000000030c .L0 
     /tmp/cceOdYyw.s:536    .text:0000000000000310 .L0 
     /tmp/cceOdYyw.s:540    .text:0000000000000310 .L0 
     /tmp/cceOdYyw.s:541    .text:0000000000000310 .L0 
     /tmp/cceOdYyw.s:546    .text:0000000000000324 .L0 
     /tmp/cceOdYyw.s:547    .text:0000000000000324 .L0 
     /tmp/cceOdYyw.s:552    .text:0000000000000338 .L0 
     /tmp/cceOdYyw.s:555    .text:0000000000000340 .L0 
     /tmp/cceOdYyw.s:556    .text:0000000000000340 .L0 
     /tmp/cceOdYyw.s:559    .text:0000000000000348 .L0 
     /tmp/cceOdYyw.s:560    .text:0000000000000348 .L0 
     /tmp/cceOdYyw.s:564    .text:0000000000000354 .L0 
     /tmp/cceOdYyw.s:565    .text:0000000000000354 .L0 
     /tmp/cceOdYyw.s:569    .text:0000000000000364 .L0 
     /tmp/cceOdYyw.s:570    .text:0000000000000368 .L0 
     /tmp/cceOdYyw.s:572    .text:000000000000036c .L0 
     /tmp/cceOdYyw.s:573    .text:000000000000036c .L0 
     /tmp/cceOdYyw.s:575    .text:0000000000000370 .L0 
     /tmp/cceOdYyw.s:577    .text:0000000000000374 .L0 
     /tmp/cceOdYyw.s:582    .text:000000000000037c .L0 
     /tmp/cceOdYyw.s:589    .text._ZN14PeriodicThreadD2Ev:0000000000000000 _ZN14PeriodicThreadD2Ev
     /tmp/cceOdYyw.s:592    .text._ZN14PeriodicThreadD2Ev:0000000000000000 .L0 
     /tmp/cceOdYyw.s:594    .text._ZN14PeriodicThreadD2Ev:0000000000000000 .L0 
     /tmp/cceOdYyw.s:595    .text._ZN14PeriodicThreadD2Ev:0000000000000004 .L0 
     /tmp/cceOdYyw.s:598    .text._ZN14PeriodicThreadD2Ev:000000000000000c .L0 
     /tmp/cceOdYyw.s:599    .text._ZN14PeriodicThreadD2Ev:000000000000000c .L0 
GAS LISTING /tmp/cceOdYyw.s 			page 81


     /tmp/cceOdYyw.s:601    .text._ZN14PeriodicThreadD2Ev:0000000000000010 .L0 
     /tmp/cceOdYyw.s:2855   .data.rel.ro.local._ZTV14PeriodicThread:0000000000000000 _ZTV14PeriodicThread
     /tmp/cceOdYyw.s:604    .text._ZN14PeriodicThreadD2Ev:0000000000000010 .L0 
     /tmp/cceOdYyw.s:610    .text._ZN14PeriodicThreadD2Ev:0000000000000028 .L0 
     /tmp/cceOdYyw.s:612    .text._ZN14PeriodicThreadD2Ev:000000000000002c .L0 
     /tmp/cceOdYyw.s:613    .text._ZN14PeriodicThreadD2Ev:000000000000002c .L0 
     /tmp/cceOdYyw.s:615    .text._ZN14PeriodicThreadD2Ev:0000000000000030 .L0 
     /tmp/cceOdYyw.s:617    .text._ZN14PeriodicThreadD2Ev:0000000000000034 .L0 
     /tmp/cceOdYyw.s:589    .text._ZN14PeriodicThreadD2Ev:0000000000000000 _ZN14PeriodicThreadD1Ev
     /tmp/cceOdYyw.s:626    .text._ZN14PeriodicThreadD0Ev:0000000000000000 _ZN14PeriodicThreadD0Ev
     /tmp/cceOdYyw.s:629    .text._ZN14PeriodicThreadD0Ev:0000000000000000 .L0 
     /tmp/cceOdYyw.s:631    .text._ZN14PeriodicThreadD0Ev:0000000000000000 .L0 
     /tmp/cceOdYyw.s:632    .text._ZN14PeriodicThreadD0Ev:0000000000000004 .L0 
     /tmp/cceOdYyw.s:636    .text._ZN14PeriodicThreadD0Ev:0000000000000010 .L0 
     /tmp/cceOdYyw.s:637    .text._ZN14PeriodicThreadD0Ev:0000000000000010 .L0 
     /tmp/cceOdYyw.s:638    .text._ZN14PeriodicThreadD0Ev:0000000000000010 .L0 
     /tmp/cceOdYyw.s:640    .text._ZN14PeriodicThreadD0Ev:0000000000000014 .L0 
     /tmp/cceOdYyw.s:646    .text._ZN14PeriodicThreadD0Ev:0000000000000018 .L0 
     /tmp/cceOdYyw.s:656    .text._ZN14PeriodicThreadD0Ev:000000000000003c .L0 
     /tmp/cceOdYyw.s:658    .text._ZN14PeriodicThreadD0Ev:0000000000000040 .L0 
     /tmp/cceOdYyw.s:659    .text._ZN14PeriodicThreadD0Ev:0000000000000040 .L0 
     /tmp/cceOdYyw.s:661    .text._ZN14PeriodicThreadD0Ev:0000000000000044 .L0 
     /tmp/cceOdYyw.s:664    .text._ZN14PeriodicThreadD0Ev:0000000000000048 .L0 
     /tmp/cceOdYyw.s:666    .text._ZN14PeriodicThreadD0Ev:000000000000004c .L0 
     /tmp/cceOdYyw.s:673    .text._ZN12TestPeriodicD2Ev:0000000000000000 _ZN12TestPeriodicD2Ev
     /tmp/cceOdYyw.s:677    .text._ZN12TestPeriodicD2Ev:0000000000000000 .L0 
     /tmp/cceOdYyw.s:679    .text._ZN12TestPeriodicD2Ev:0000000000000000 .L0 
     /tmp/cceOdYyw.s:680    .text._ZN12TestPeriodicD2Ev:0000000000000004 .L0 
     /tmp/cceOdYyw.s:683    .text._ZN12TestPeriodicD2Ev:000000000000000c .L0 
     /tmp/cceOdYyw.s:684    .text._ZN12TestPeriodicD2Ev:000000000000000c .L0 
     /tmp/cceOdYyw.s:686    .text._ZN12TestPeriodicD2Ev:0000000000000010 .L0 
     /tmp/cceOdYyw.s:691    .text._ZN12TestPeriodicD2Ev:0000000000000010 .L0 
     /tmp/cceOdYyw.s:698    .text._ZN12TestPeriodicD2Ev:0000000000000024 .L0 
     /tmp/cceOdYyw.s:699    .text._ZN12TestPeriodicD2Ev:0000000000000028 .L0 
     /tmp/cceOdYyw.s:701    .text._ZN12TestPeriodicD2Ev:000000000000002c .L0 
     /tmp/cceOdYyw.s:702    .text._ZN12TestPeriodicD2Ev:000000000000002c .L0 
     /tmp/cceOdYyw.s:704    .text._ZN12TestPeriodicD2Ev:0000000000000030 .L0 
     /tmp/cceOdYyw.s:706    .text._ZN12TestPeriodicD2Ev:0000000000000034 .L0 
     /tmp/cceOdYyw.s:673    .text._ZN12TestPeriodicD2Ev:0000000000000000 _ZN12TestPeriodicD1Ev
     /tmp/cceOdYyw.s:715    .text._ZN12TestPeriodicD0Ev:0000000000000000 _ZN12TestPeriodicD0Ev
     /tmp/cceOdYyw.s:718    .text._ZN12TestPeriodicD0Ev:0000000000000000 .L0 
     /tmp/cceOdYyw.s:720    .text._ZN12TestPeriodicD0Ev:0000000000000000 .L0 
     /tmp/cceOdYyw.s:721    .text._ZN12TestPeriodicD0Ev:0000000000000004 .L0 
     /tmp/cceOdYyw.s:725    .text._ZN12TestPeriodicD0Ev:0000000000000010 .L0 
     /tmp/cceOdYyw.s:726    .text._ZN12TestPeriodicD0Ev:0000000000000010 .L0 
     /tmp/cceOdYyw.s:727    .text._ZN12TestPeriodicD0Ev:0000000000000010 .L0 
     /tmp/cceOdYyw.s:729    .text._ZN12TestPeriodicD0Ev:0000000000000014 .L0 
     /tmp/cceOdYyw.s:736    .text._ZN12TestPeriodicD0Ev:0000000000000018 .L0 
     /tmp/cceOdYyw.s:744    .text._ZN12TestPeriodicD0Ev:000000000000002c .L0 
     /tmp/cceOdYyw.s:748    .text._ZN12TestPeriodicD0Ev:000000000000003c .L0 
     /tmp/cceOdYyw.s:750    .text._ZN12TestPeriodicD0Ev:0000000000000040 .L0 
     /tmp/cceOdYyw.s:751    .text._ZN12TestPeriodicD0Ev:0000000000000040 .L0 
     /tmp/cceOdYyw.s:753    .text._ZN12TestPeriodicD0Ev:0000000000000044 .L0 
     /tmp/cceOdYyw.s:756    .text._ZN12TestPeriodicD0Ev:0000000000000048 .L0 
     /tmp/cceOdYyw.s:758    .text._ZN12TestPeriodicD0Ev:000000000000004c .L0 
     /tmp/cceOdYyw.s:772    .text:000000000000037c _Z11threadTest1v
     /tmp/cceOdYyw.s:775    .text:000000000000037c .L0 
GAS LISTING /tmp/cceOdYyw.s 			page 82


     /tmp/cceOdYyw.s:10231  .data.rel.local.DW.ref.__gxx_personality_v0:0000000000000000 DW.ref.__gxx_personality_v0
     /tmp/cceOdYyw.s:778    .text:000000000000037c .L0 
     /tmp/cceOdYyw.s:779    .text:0000000000000380 .L0 
     /tmp/cceOdYyw.s:784    .text:0000000000000390 .L0 
     /tmp/cceOdYyw.s:785    .text:0000000000000390 .L0 
     /tmp/cceOdYyw.s:786    .text:0000000000000390 .L0 
     /tmp/cceOdYyw.s:787    .text:0000000000000390 .L0 
     /tmp/cceOdYyw.s:789    .text:0000000000000394 .L0 
     /tmp/cceOdYyw.s:791    .text:0000000000000394 .L0 
     /tmp/cceOdYyw.s:792    .text:0000000000000394 .L0 
     /tmp/cceOdYyw.s:805    .text:00000000000003b8 .L0 
     /tmp/cceOdYyw.s:806    .text:00000000000003b8 .L0 
     /tmp/cceOdYyw.s:811    .text:00000000000003c4 .L0 
     /tmp/cceOdYyw.s:812    .text:00000000000003c4 .L0 
     /tmp/cceOdYyw.s:824    .text:00000000000003e8 .L0 
     /tmp/cceOdYyw.s:825    .text:00000000000003e8 .L0 
     /tmp/cceOdYyw.s:830    .text:00000000000003f4 .L0 
     /tmp/cceOdYyw.s:831    .text:00000000000003f4 .L0 
     /tmp/cceOdYyw.s:836    .text:0000000000000400 .L0 
     /tmp/cceOdYyw.s:837    .text:0000000000000400 .L0 
     /tmp/cceOdYyw.s:841    .text:0000000000000410 .L0 
     /tmp/cceOdYyw.s:842    .text:0000000000000410 .L0 
     /tmp/cceOdYyw.s:846    .text:0000000000000418 .L0 
     /tmp/cceOdYyw.s:847    .text:0000000000000418 .L0 
     /tmp/cceOdYyw.s:848    .text:0000000000000418 .L0 
     /tmp/cceOdYyw.s:854    .text:000000000000041c .L0 
     /tmp/cceOdYyw.s:855    .text:000000000000041c .L0 
     /tmp/cceOdYyw.s:860    .text:0000000000000420 .L0 
     /tmp/cceOdYyw.s:863    .text:0000000000000428 .L0 
     /tmp/cceOdYyw.s:868    .text:000000000000042c .L0 
     /tmp/cceOdYyw.s:869    .text:000000000000042c .L0 
     /tmp/cceOdYyw.s:874    .text:0000000000000430 .L0 
     /tmp/cceOdYyw.s:877    .text:0000000000000438 .L0 
     /tmp/cceOdYyw.s:878    .text:0000000000000438 .L0 
     /tmp/cceOdYyw.s:882    .text:0000000000000448 .L0 
     /tmp/cceOdYyw.s:883    .text:0000000000000448 .L0 
     /tmp/cceOdYyw.s:887    .text:0000000000000450 .L0 
     /tmp/cceOdYyw.s:888    .text:0000000000000454 .L0 
     /tmp/cceOdYyw.s:889    .text:0000000000000454 .L0 
     /tmp/cceOdYyw.s:891    .text:0000000000000458 .L0 
     /tmp/cceOdYyw.s:892    .text:0000000000000458 .L0 
     /tmp/cceOdYyw.s:894    .text:000000000000045c .L0 
     /tmp/cceOdYyw.s:897    .text:0000000000000460 .L0 
     /tmp/cceOdYyw.s:900    .text:0000000000000464 .L0 
     /tmp/cceOdYyw.s:903    .text:0000000000000468 .L0 
     /tmp/cceOdYyw.s:906    .text:000000000000046c .L0 
     /tmp/cceOdYyw.s:918    .text:0000000000000488 .L0 
     /tmp/cceOdYyw.s:926    .text:00000000000004a0 .L0 
     /tmp/cceOdYyw.s:968    .text:00000000000004a0 _Z11threadTest2v
     /tmp/cceOdYyw.s:971    .text:00000000000004a0 .L0 
     /tmp/cceOdYyw.s:974    .text:00000000000004a0 .L0 
     /tmp/cceOdYyw.s:975    .text:00000000000004a4 .L0 
     /tmp/cceOdYyw.s:980    .text:00000000000004b4 .L0 
     /tmp/cceOdYyw.s:981    .text:00000000000004b4 .L0 
     /tmp/cceOdYyw.s:982    .text:00000000000004b4 .L0 
     /tmp/cceOdYyw.s:983    .text:00000000000004b4 .L0 
     /tmp/cceOdYyw.s:985    .text:00000000000004b8 .L0 
GAS LISTING /tmp/cceOdYyw.s 			page 83


     /tmp/cceOdYyw.s:987    .text:00000000000004b8 .L0 
     /tmp/cceOdYyw.s:988    .text:00000000000004b8 .L0 
     /tmp/cceOdYyw.s:1001   .text:00000000000004dc .L0 
     /tmp/cceOdYyw.s:1002   .text:00000000000004dc .L0 
     /tmp/cceOdYyw.s:1007   .text:00000000000004e8 .L0 
     /tmp/cceOdYyw.s:1008   .text:00000000000004e8 .L0 
     /tmp/cceOdYyw.s:1020   .text:000000000000050c .L0 
     /tmp/cceOdYyw.s:1021   .text:000000000000050c .L0 
     /tmp/cceOdYyw.s:1026   .text:0000000000000518 .L0 
     /tmp/cceOdYyw.s:1027   .text:0000000000000518 .L0 
     /tmp/cceOdYyw.s:1040   .text:000000000000053c .L0 
     /tmp/cceOdYyw.s:1041   .text:000000000000053c .L0 
     /tmp/cceOdYyw.s:1046   .text:0000000000000548 .L0 
     /tmp/cceOdYyw.s:1047   .text:0000000000000548 .L0 
     /tmp/cceOdYyw.s:1051   .text:0000000000000550 .L0 
     /tmp/cceOdYyw.s:1052   .text:0000000000000550 .L0 
     /tmp/cceOdYyw.s:1053   .text:0000000000000550 .L0 
     /tmp/cceOdYyw.s:1058   .text:0000000000000554 .L0 
     /tmp/cceOdYyw.s:1059   .text:0000000000000554 .L0 
     /tmp/cceOdYyw.s:1064   .text:0000000000000558 .L0 
     /tmp/cceOdYyw.s:1067   .text:0000000000000560 .L0 
     /tmp/cceOdYyw.s:1068   .text:0000000000000560 .L0 
     /tmp/cceOdYyw.s:1072   .text:0000000000000570 .L0 
     /tmp/cceOdYyw.s:1073   .text:0000000000000570 .L0 
     /tmp/cceOdYyw.s:1077   .text:0000000000000578 .L0 
     /tmp/cceOdYyw.s:1078   .text:000000000000057c .L0 
     /tmp/cceOdYyw.s:1079   .text:000000000000057c .L0 
     /tmp/cceOdYyw.s:1081   .text:0000000000000580 .L0 
     /tmp/cceOdYyw.s:1082   .text:0000000000000580 .L0 
     /tmp/cceOdYyw.s:1084   .text:0000000000000584 .L0 
     /tmp/cceOdYyw.s:1087   .text:0000000000000588 .L0 
     /tmp/cceOdYyw.s:1090   .text:000000000000058c .L0 
     /tmp/cceOdYyw.s:1093   .text:0000000000000590 .L0 
     /tmp/cceOdYyw.s:1096   .text:0000000000000594 .L0 
     /tmp/cceOdYyw.s:1108   .text:00000000000005b0 .L0 
     /tmp/cceOdYyw.s:1120   .text:00000000000005cc .L0 
     /tmp/cceOdYyw.s:1128   .text:00000000000005e4 .L0 
     /tmp/cceOdYyw.s:1181   .text:00000000000005e4 _Z11threadTestsv
     /tmp/cceOdYyw.s:1184   .text:00000000000005e4 .L0 
     /tmp/cceOdYyw.s:1185   .text:00000000000005e4 .L0 
     /tmp/cceOdYyw.s:1186   .text:00000000000005e8 .L0 
     /tmp/cceOdYyw.s:1188   .text:00000000000005ec .L0 
     /tmp/cceOdYyw.s:1190   .text:00000000000005f0 .L0 
     /tmp/cceOdYyw.s:1192   .text:00000000000005f0 .L0 
     /tmp/cceOdYyw.s:1193   .text:00000000000005f4 .L0 
     /tmp/cceOdYyw.s:1194   .text:00000000000005f4 .L0 
     /tmp/cceOdYyw.s:1196   .text:00000000000005f8 .L0 
     /tmp/cceOdYyw.s:1198   .text:00000000000005fc .L0 
     /tmp/cceOdYyw.s:1215   .text:00000000000005fc _Z10mallocFreev
     /tmp/cceOdYyw.s:1218   .text:00000000000005fc .L0 
     /tmp/cceOdYyw.s:1219   .text:00000000000005fc .L0 
     /tmp/cceOdYyw.s:1220   .text:0000000000000600 .L0 
     /tmp/cceOdYyw.s:1224   .text:000000000000060c .L0 
     /tmp/cceOdYyw.s:1225   .text:000000000000060c .L0 
     /tmp/cceOdYyw.s:1226   .text:000000000000060c .L0 
     /tmp/cceOdYyw.s:1228   .text:0000000000000610 .L0 
     /tmp/cceOdYyw.s:1230   .text:0000000000000610 .L0 
GAS LISTING /tmp/cceOdYyw.s 			page 84


     /tmp/cceOdYyw.s:1231   .text:0000000000000610 .L0 
     /tmp/cceOdYyw.s:1236   .text:0000000000000620 .L0 
     /tmp/cceOdYyw.s:1241   .text:0000000000000628 .L0 
     /tmp/cceOdYyw.s:1245   .text:000000000000062c .L0 
     /tmp/cceOdYyw.s:1248   .text:0000000000000634 .L0 
     /tmp/cceOdYyw.s:1249   .text:0000000000000634 .L0 
     /tmp/cceOdYyw.s:1253   .text:0000000000000640 .L0 
     /tmp/cceOdYyw.s:1258   .text:0000000000000650 .L0 
     /tmp/cceOdYyw.s:1260   .text:0000000000000654 .L0 
     /tmp/cceOdYyw.s:1261   .text:0000000000000654 .L0 
     /tmp/cceOdYyw.s:1267   .text:0000000000000664 .L0 
     /tmp/cceOdYyw.s:1268   .text:0000000000000664 .L0 
     /tmp/cceOdYyw.s:1269   .text:0000000000000668 .L0 
     /tmp/cceOdYyw.s:1270   .text:0000000000000668 .L0 
     /tmp/cceOdYyw.s:1272   .text:000000000000066c .L0 
     /tmp/cceOdYyw.s:1273   .text:000000000000066c .L0 
     /tmp/cceOdYyw.s:1275   .text:0000000000000670 .L0 
     /tmp/cceOdYyw.s:1277   .text:0000000000000674 .L0 
     /tmp/cceOdYyw.s:1281   .text:0000000000000678 .L0 
     /tmp/cceOdYyw.s:1284   .text:0000000000000678 .L0 
     /tmp/cceOdYyw.s:1288   .text:000000000000067c .L0 
     /tmp/cceOdYyw.s:1292   .text:0000000000000684 .L0 
     /tmp/cceOdYyw.s:1293   .text:0000000000000684 .L0 
     /tmp/cceOdYyw.s:1300   .text:000000000000069c .L0 
     /tmp/cceOdYyw.s:1303   .text:00000000000006a0 .L0 
     /tmp/cceOdYyw.s:1304   .text:00000000000006a0 .L0 
     /tmp/cceOdYyw.s:1307   .text:00000000000006a4 .L0 
     /tmp/cceOdYyw.s:1312   .text:00000000000006a8 .L0 
     /tmp/cceOdYyw.s:1313   .text:00000000000006a8 .L0 
     /tmp/cceOdYyw.s:1318   .text:00000000000006b8 .L0 
     /tmp/cceOdYyw.s:1324   .text:00000000000006bc .L0 
     /tmp/cceOdYyw.s:1330   .text:00000000000006c4 .L0 
     /tmp/cceOdYyw.s:1331   .text:00000000000006c4 .L0 
     /tmp/cceOdYyw.s:1335   .text:00000000000006c8 .L0 
     /tmp/cceOdYyw.s:1338   .text:00000000000006d0 .L0 
     /tmp/cceOdYyw.s:1339   .text:00000000000006d0 .L0 
     /tmp/cceOdYyw.s:1343   .text:00000000000006dc .L0 
     /tmp/cceOdYyw.s:1348   .text:00000000000006ec .L0 
     /tmp/cceOdYyw.s:1350   .text:00000000000006f0 .L0 
     /tmp/cceOdYyw.s:1351   .text:00000000000006f0 .L0 
     /tmp/cceOdYyw.s:1355   .text:0000000000000700 .L0 
     /tmp/cceOdYyw.s:1360   .text:0000000000000704 .L0 
     /tmp/cceOdYyw.s:1364   .text:0000000000000708 .L0 
     /tmp/cceOdYyw.s:1368   .text:0000000000000710 .L0 
     /tmp/cceOdYyw.s:1369   .text:0000000000000710 .L0 
     /tmp/cceOdYyw.s:1376   .text:0000000000000728 .L0 
     /tmp/cceOdYyw.s:1379   .text:000000000000072c .L0 
     /tmp/cceOdYyw.s:1386   .text:0000000000000734 .L0 
     /tmp/cceOdYyw.s:1387   .text:0000000000000734 .L0 
     /tmp/cceOdYyw.s:1392   .text:0000000000000744 .L0 
     /tmp/cceOdYyw.s:1397   .text:0000000000000748 .L0 
     /tmp/cceOdYyw.s:1398   .text:0000000000000748 .L0 
     /tmp/cceOdYyw.s:1402   .text:000000000000075c .L0 
     /tmp/cceOdYyw.s:1413   .text:000000000000075c _Z9bigMallocv
     /tmp/cceOdYyw.s:1416   .text:000000000000075c .L0 
     /tmp/cceOdYyw.s:1417   .text:000000000000075c .L0 
     /tmp/cceOdYyw.s:1418   .text:0000000000000760 .L0 
GAS LISTING /tmp/cceOdYyw.s 			page 85


     /tmp/cceOdYyw.s:1421   .text:0000000000000768 .L0 
     /tmp/cceOdYyw.s:1422   .text:0000000000000768 .L0 
     /tmp/cceOdYyw.s:1424   .text:000000000000076c .L0 
     /tmp/cceOdYyw.s:1426   .text:000000000000076c .L0 
     /tmp/cceOdYyw.s:1427   .text:000000000000076c .L0 
     /tmp/cceOdYyw.s:1431   .text:000000000000077c .L0 
     /tmp/cceOdYyw.s:1432   .text:000000000000077c .L0 
     /tmp/cceOdYyw.s:1439   .text:0000000000000798 .L0 
     /tmp/cceOdYyw.s:1440   .text:0000000000000798 .L0 
     /tmp/cceOdYyw.s:1445   .text:00000000000007a4 .L0 
     /tmp/cceOdYyw.s:1447   .text:00000000000007a8 .L0 
     /tmp/cceOdYyw.s:1448   .text:00000000000007a8 .L0 
     /tmp/cceOdYyw.s:1454   .text:00000000000007b8 .L0 
     /tmp/cceOdYyw.s:1455   .text:00000000000007bc .L0 
     /tmp/cceOdYyw.s:1456   .text:00000000000007bc .L0 
     /tmp/cceOdYyw.s:1458   .text:00000000000007c0 .L0 
     /tmp/cceOdYyw.s:1459   .text:00000000000007c0 .L0 
     /tmp/cceOdYyw.s:1461   .text:00000000000007c4 .L0 
     /tmp/cceOdYyw.s:1465   .text:00000000000007c8 .L0 
     /tmp/cceOdYyw.s:1467   .text:00000000000007c8 .L0 
     /tmp/cceOdYyw.s:1468   .text:00000000000007c8 .L0 
     /tmp/cceOdYyw.s:1473   .text:00000000000007dc .L0 
     /tmp/cceOdYyw.s:1484   .text:00000000000007dc _Z17lotOfSmallMallocsv
     /tmp/cceOdYyw.s:1487   .text:00000000000007dc .L0 
     /tmp/cceOdYyw.s:1488   .text:00000000000007dc .L0 
     /tmp/cceOdYyw.s:1489   .text:00000000000007e0 .L0 
     /tmp/cceOdYyw.s:1495   .text:00000000000007f4 .L0 
     /tmp/cceOdYyw.s:1496   .text:00000000000007f4 .L0 
     /tmp/cceOdYyw.s:1497   .text:00000000000007f4 .L0 
     /tmp/cceOdYyw.s:1498   .text:00000000000007f4 .L0 
     /tmp/cceOdYyw.s:1499   .text:00000000000007f4 .L0 
     /tmp/cceOdYyw.s:1501   .text:00000000000007f8 .L0 
     /tmp/cceOdYyw.s:1503   .text:00000000000007f8 .L0 
     /tmp/cceOdYyw.s:1504   .text:00000000000007f8 .L0 
     /tmp/cceOdYyw.s:1508   .text:0000000000000808 .L0 
     /tmp/cceOdYyw.s:1509   .text:0000000000000808 .L0 
     /tmp/cceOdYyw.s:1510   .text:0000000000000808 .L0 
     /tmp/cceOdYyw.s:1511   .text:0000000000000808 .L0 
     /tmp/cceOdYyw.s:1513   .text:0000000000000808 .L0 
     /tmp/cceOdYyw.s:1514   .text:0000000000000808 .L0 
     /tmp/cceOdYyw.s:1517   .text:000000000000080c .L0 
     /tmp/cceOdYyw.s:1519   .text:0000000000000810 .L0 
     /tmp/cceOdYyw.s:1526   .text:0000000000000818 .L0 
     /tmp/cceOdYyw.s:1527   .text:0000000000000818 .L0 
     /tmp/cceOdYyw.s:1530   .text:0000000000000820 .L0 
     /tmp/cceOdYyw.s:1531   .text:0000000000000820 .L0 
     /tmp/cceOdYyw.s:1534   .text:0000000000000824 .L0 
     /tmp/cceOdYyw.s:1535   .text:0000000000000824 .L0 
     /tmp/cceOdYyw.s:1539   .text:0000000000000828 .L0 
     /tmp/cceOdYyw.s:1543   .text:000000000000082c .L0 
     /tmp/cceOdYyw.s:1548   .text:0000000000000838 .L0 
     /tmp/cceOdYyw.s:1549   .text:0000000000000838 .L0 
     /tmp/cceOdYyw.s:1553   .text:0000000000000844 .L0 
     /tmp/cceOdYyw.s:1559   .text:0000000000000848 .L0 
     /tmp/cceOdYyw.s:1560   .text:0000000000000848 .L0 
     /tmp/cceOdYyw.s:1564   .text:0000000000000854 .L0 
     /tmp/cceOdYyw.s:1565   .text:0000000000000854 .L0 
GAS LISTING /tmp/cceOdYyw.s 			page 86


     /tmp/cceOdYyw.s:1569   .text:0000000000000864 .L0 
     /tmp/cceOdYyw.s:1570   .text:0000000000000864 .L0 
     /tmp/cceOdYyw.s:1575   .text:0000000000000870 .L0 
     /tmp/cceOdYyw.s:1577   .text:0000000000000874 .L0 
     /tmp/cceOdYyw.s:1578   .text:0000000000000874 .L0 
     /tmp/cceOdYyw.s:1583   .text:0000000000000884 .L0 
     /tmp/cceOdYyw.s:1584   .text:0000000000000888 .L0 
     /tmp/cceOdYyw.s:1585   .text:0000000000000888 .L0 
     /tmp/cceOdYyw.s:1587   .text:000000000000088c .L0 
     /tmp/cceOdYyw.s:1588   .text:000000000000088c .L0 
     /tmp/cceOdYyw.s:1590   .text:0000000000000890 .L0 
     /tmp/cceOdYyw.s:1593   .text:0000000000000894 .L0 
     /tmp/cceOdYyw.s:1595   .text:0000000000000898 .L0 
     /tmp/cceOdYyw.s:1598   .text:000000000000089c .L0 
     /tmp/cceOdYyw.s:1602   .text:00000000000008a0 .L0 
     /tmp/cceOdYyw.s:1604   .text:00000000000008a0 .L0 
     /tmp/cceOdYyw.s:1605   .text:00000000000008a0 .L0 
     /tmp/cceOdYyw.s:1609   .text:00000000000008b4 .L0 
     /tmp/cceOdYyw.s:1620   .text:00000000000008b4 _Z7badFreev
     /tmp/cceOdYyw.s:1623   .text:00000000000008b4 .L0 
     /tmp/cceOdYyw.s:1624   .text:00000000000008b4 .L0 
     /tmp/cceOdYyw.s:1625   .text:00000000000008b8 .L0 
     /tmp/cceOdYyw.s:1628   .text:00000000000008c0 .L0 
     /tmp/cceOdYyw.s:1629   .text:00000000000008c0 .L0 
     /tmp/cceOdYyw.s:1631   .text:00000000000008c4 .L0 
     /tmp/cceOdYyw.s:1633   .text:00000000000008c4 .L0 
     /tmp/cceOdYyw.s:1634   .text:00000000000008c4 .L0 
     /tmp/cceOdYyw.s:1638   .text:00000000000008d4 .L0 
     /tmp/cceOdYyw.s:1639   .text:00000000000008d4 .L0 
     /tmp/cceOdYyw.s:1643   .text:00000000000008e0 .L0 
     /tmp/cceOdYyw.s:1644   .text:00000000000008e0 .L0 
     /tmp/cceOdYyw.s:1649   .text:00000000000008ec .L0 
     /tmp/cceOdYyw.s:1651   .text:00000000000008f0 .L0 
     /tmp/cceOdYyw.s:1652   .text:00000000000008f0 .L0 
     /tmp/cceOdYyw.s:1658   .text:0000000000000900 .L0 
     /tmp/cceOdYyw.s:1659   .text:0000000000000904 .L0 
     /tmp/cceOdYyw.s:1660   .text:0000000000000904 .L0 
     /tmp/cceOdYyw.s:1662   .text:0000000000000908 .L0 
     /tmp/cceOdYyw.s:1663   .text:0000000000000908 .L0 
     /tmp/cceOdYyw.s:1665   .text:000000000000090c .L0 
     /tmp/cceOdYyw.s:1669   .text:0000000000000910 .L0 
     /tmp/cceOdYyw.s:1671   .text:0000000000000910 .L0 
     /tmp/cceOdYyw.s:1672   .text:0000000000000910 .L0 
     /tmp/cceOdYyw.s:1677   .text:0000000000000920 .L0 
     /tmp/cceOdYyw.s:1678   .text:0000000000000924 .L0 
     /tmp/cceOdYyw.s:1692   .text:0000000000000924 _Z13stressTestingv
     /tmp/cceOdYyw.s:1695   .text:0000000000000924 .L0 
     /tmp/cceOdYyw.s:1696   .text:0000000000000924 .L0 
     /tmp/cceOdYyw.s:1697   .text:0000000000000928 .L0 
     /tmp/cceOdYyw.s:1702   .text:0000000000000938 .L0 
     /tmp/cceOdYyw.s:1703   .text:0000000000000938 .L0 
     /tmp/cceOdYyw.s:1704   .text:0000000000000938 .L0 
     /tmp/cceOdYyw.s:1705   .text:0000000000000938 .L0 
     /tmp/cceOdYyw.s:1707   .text:000000000000093c .L0 
     /tmp/cceOdYyw.s:1709   .text:000000000000093c .L0 
     /tmp/cceOdYyw.s:1710   .text:000000000000093c .L0 
     /tmp/cceOdYyw.s:1715   .text:000000000000094c .L0 
GAS LISTING /tmp/cceOdYyw.s 			page 87


     /tmp/cceOdYyw.s:1720   .text:0000000000000954 .L0 
     /tmp/cceOdYyw.s:1724   .text:0000000000000958 .L0 
     /tmp/cceOdYyw.s:1727   .text:0000000000000960 .L0 
     /tmp/cceOdYyw.s:1728   .text:0000000000000960 .L0 
     /tmp/cceOdYyw.s:1732   .text:000000000000096c .L0 
     /tmp/cceOdYyw.s:1737   .text:000000000000097c .L0 
     /tmp/cceOdYyw.s:1739   .text:0000000000000980 .L0 
     /tmp/cceOdYyw.s:1740   .text:0000000000000980 .L0 
     /tmp/cceOdYyw.s:1746   .text:0000000000000990 .L0 
     /tmp/cceOdYyw.s:1747   .text:0000000000000990 .L0 
     /tmp/cceOdYyw.s:1748   .text:0000000000000994 .L0 
     /tmp/cceOdYyw.s:1749   .text:0000000000000994 .L0 
     /tmp/cceOdYyw.s:1751   .text:0000000000000998 .L0 
     /tmp/cceOdYyw.s:1752   .text:0000000000000998 .L0 
     /tmp/cceOdYyw.s:1754   .text:000000000000099c .L0 
     /tmp/cceOdYyw.s:1756   .text:00000000000009a0 .L0 
     /tmp/cceOdYyw.s:1758   .text:00000000000009a4 .L0 
     /tmp/cceOdYyw.s:1762   .text:00000000000009a8 .L0 
     /tmp/cceOdYyw.s:1764   .text:00000000000009a8 .L0 
     /tmp/cceOdYyw.s:1768   .text:00000000000009ac .L0 
     /tmp/cceOdYyw.s:1769   .text:00000000000009ac .L0 
     /tmp/cceOdYyw.s:1773   .text:00000000000009b0 .L0 
     /tmp/cceOdYyw.s:1777   .text:00000000000009b4 .L0 
     /tmp/cceOdYyw.s:1781   .text:00000000000009bc .L0 
     /tmp/cceOdYyw.s:1782   .text:00000000000009bc .L0 
     /tmp/cceOdYyw.s:1789   .text:00000000000009d4 .L0 
     /tmp/cceOdYyw.s:1791   .text:00000000000009d8 .L0 
     /tmp/cceOdYyw.s:1792   .text:00000000000009d8 .L0 
     /tmp/cceOdYyw.s:1796   .text:00000000000009e0 .L0 
     /tmp/cceOdYyw.s:1800   .text:00000000000009ec .L0 
     /tmp/cceOdYyw.s:1805   .text:00000000000009fc .L0 
     /tmp/cceOdYyw.s:1808   .text:0000000000000a00 .L0 
     /tmp/cceOdYyw.s:1809   .text:0000000000000a00 .L0 
     /tmp/cceOdYyw.s:1812   .text:0000000000000a04 .L0 
     /tmp/cceOdYyw.s:1817   .text:0000000000000a08 .L0 
     /tmp/cceOdYyw.s:1818   .text:0000000000000a08 .L0 
     /tmp/cceOdYyw.s:1823   .text:0000000000000a18 .L0 
     /tmp/cceOdYyw.s:1826   .text:0000000000000a1c .L0 
     /tmp/cceOdYyw.s:1827   .text:0000000000000a1c .L0 
     /tmp/cceOdYyw.s:1831   .text:0000000000000a2c .L0 
     /tmp/cceOdYyw.s:1837   .text:0000000000000a30 .L0 
     /tmp/cceOdYyw.s:1841   .text:0000000000000a34 .L0 
     /tmp/cceOdYyw.s:1845   .text:0000000000000a3c .L0 
     /tmp/cceOdYyw.s:1846   .text:0000000000000a3c .L0 
     /tmp/cceOdYyw.s:1853   .text:0000000000000a54 .L0 
     /tmp/cceOdYyw.s:1855   .text:0000000000000a58 .L0 
     /tmp/cceOdYyw.s:1856   .text:0000000000000a58 .L0 
     /tmp/cceOdYyw.s:1861   .text:0000000000000a64 .L0 
     /tmp/cceOdYyw.s:1866   .text:0000000000000a74 .L0 
     /tmp/cceOdYyw.s:1869   .text:0000000000000a78 .L0 
     /tmp/cceOdYyw.s:1870   .text:0000000000000a78 .L0 
     /tmp/cceOdYyw.s:1873   .text:0000000000000a7c .L0 
     /tmp/cceOdYyw.s:1878   .text:0000000000000a80 .L0 
     /tmp/cceOdYyw.s:1879   .text:0000000000000a80 .L0 
     /tmp/cceOdYyw.s:1884   .text:0000000000000a90 .L0 
     /tmp/cceOdYyw.s:1887   .text:0000000000000a94 .L0 
     /tmp/cceOdYyw.s:1888   .text:0000000000000a94 .L0 
GAS LISTING /tmp/cceOdYyw.s 			page 88


     /tmp/cceOdYyw.s:1892   .text:0000000000000aa4 .L0 
     /tmp/cceOdYyw.s:1897   .text:0000000000000aa8 .L0 
     /tmp/cceOdYyw.s:1898   .text:0000000000000aa8 .L0 
     /tmp/cceOdYyw.s:1902   .text:0000000000000aac .L0 
     /tmp/cceOdYyw.s:1906   .text:0000000000000ab0 .L0 
     /tmp/cceOdYyw.s:1907   .text:0000000000000ab0 .L0 
     /tmp/cceOdYyw.s:1911   .text:0000000000000ac4 .L0 
     /tmp/cceOdYyw.s:1917   .text:0000000000000ac4 _ZN12TestPeriodicC2Em
     /tmp/cceOdYyw.s:1920   .text:0000000000000ac4 .L0 
     /tmp/cceOdYyw.s:1922   .text:0000000000000ac4 .L0 
     /tmp/cceOdYyw.s:1923   .text:0000000000000ac8 .L0 
     /tmp/cceOdYyw.s:1927   .text:0000000000000ad4 .L0 
     /tmp/cceOdYyw.s:1928   .text:0000000000000ad4 .L0 
     /tmp/cceOdYyw.s:1929   .text:0000000000000ad4 .L0 
     /tmp/cceOdYyw.s:1931   .text:0000000000000ad8 .L0 
     /tmp/cceOdYyw.s:1935   .text:0000000000000adc .L0 
     /tmp/cceOdYyw.s:2867   .data.rel.ro.local._ZTV12TestPeriodic:0000000000000000 _ZTV12TestPeriodic
     /tmp/cceOdYyw.s:1941   .text:0000000000000af0 .L0 
     /tmp/cceOdYyw.s:1942   .text:0000000000000af4 .L0 
     /tmp/cceOdYyw.s:1944   .text:0000000000000af8 .L0 
     /tmp/cceOdYyw.s:1945   .text:0000000000000af8 .L0 
     /tmp/cceOdYyw.s:1947   .text:0000000000000afc .L0 
     /tmp/cceOdYyw.s:1950   .text:0000000000000b00 .L0 
     /tmp/cceOdYyw.s:1952   .text:0000000000000b04 .L0 
     /tmp/cceOdYyw.s:1917   .text:0000000000000ac4 _ZN12TestPeriodicC1Em
     /tmp/cceOdYyw.s:1960   .text:0000000000000b04 _Z11threadTest3v
     /tmp/cceOdYyw.s:1963   .text:0000000000000b04 .L0 
     /tmp/cceOdYyw.s:1966   .text:0000000000000b04 .L0 
     /tmp/cceOdYyw.s:1967   .text:0000000000000b08 .L0 
     /tmp/cceOdYyw.s:1972   .text:0000000000000b18 .L0 
     /tmp/cceOdYyw.s:1973   .text:0000000000000b18 .L0 
     /tmp/cceOdYyw.s:1974   .text:0000000000000b18 .L0 
     /tmp/cceOdYyw.s:1975   .text:0000000000000b18 .L0 
     /tmp/cceOdYyw.s:1977   .text:0000000000000b1c .L0 
     /tmp/cceOdYyw.s:1979   .text:0000000000000b1c .L0 
     /tmp/cceOdYyw.s:1980   .text:0000000000000b1c .L0 
     /tmp/cceOdYyw.s:1992   .text:0000000000000b38 .L0 
     /tmp/cceOdYyw.s:1993   .text:0000000000000b38 .L0 
     /tmp/cceOdYyw.s:2000   .text:0000000000000b44 .L0 
     /tmp/cceOdYyw.s:2001   .text:0000000000000b44 .L0 
     /tmp/cceOdYyw.s:2006   .text:0000000000000b4c .L0 
     /tmp/cceOdYyw.s:2014   .text:0000000000000b64 .L0 
     /tmp/cceOdYyw.s:2051   .text:0000000000000b64 _Z10mallocTestv
     /tmp/cceOdYyw.s:2054   .text:0000000000000b64 .L0 
     /tmp/cceOdYyw.s:2055   .text:0000000000000b64 .L0 
     /tmp/cceOdYyw.s:2056   .text:0000000000000b68 .L0 
     /tmp/cceOdYyw.s:2065   .text:0000000000000b88 .L0 
     /tmp/cceOdYyw.s:2066   .text:0000000000000b88 .L0 
     /tmp/cceOdYyw.s:2067   .text:0000000000000b88 .L0 
     /tmp/cceOdYyw.s:2068   .text:0000000000000b88 .L0 
     /tmp/cceOdYyw.s:2069   .text:0000000000000b88 .L0 
     /tmp/cceOdYyw.s:2070   .text:0000000000000b88 .L0 
     /tmp/cceOdYyw.s:2071   .text:0000000000000b88 .L0 
     /tmp/cceOdYyw.s:2072   .text:0000000000000b88 .L0 
     /tmp/cceOdYyw.s:2074   .text:0000000000000b8c .L0 
     /tmp/cceOdYyw.s:2076   .text:0000000000000b8c .L0 
     /tmp/cceOdYyw.s:2077   .text:0000000000000b8c .L0 
GAS LISTING /tmp/cceOdYyw.s 			page 89


     /tmp/cceOdYyw.s:2081   .text:0000000000000b9c .L0 
     /tmp/cceOdYyw.s:2082   .text:0000000000000b9c .L0 
     /tmp/cceOdYyw.s:2088   .text:0000000000000bac .L0 
     /tmp/cceOdYyw.s:2089   .text:0000000000000bac .L0 
     /tmp/cceOdYyw.s:2092   .text:0000000000000bb4 .L0 
     /tmp/cceOdYyw.s:2093   .text:0000000000000bb4 .L0 
     /tmp/cceOdYyw.s:2099   .text:0000000000000bc4 .L0 
     /tmp/cceOdYyw.s:2100   .text:0000000000000bc4 .L0 
     /tmp/cceOdYyw.s:2107   .text:0000000000000bd4 .L0 
     /tmp/cceOdYyw.s:2108   .text:0000000000000bd4 .L0 
     /tmp/cceOdYyw.s:2115   .text:0000000000000be4 .L0 
     /tmp/cceOdYyw.s:2116   .text:0000000000000be4 .L0 
     /tmp/cceOdYyw.s:2124   .text:0000000000000bf8 .L0 
     /tmp/cceOdYyw.s:2125   .text:0000000000000bf8 .L0 
     /tmp/cceOdYyw.s:2130   .text:0000000000000c04 .L0 
     /tmp/cceOdYyw.s:2133   .text:0000000000000c0c .L0 
     /tmp/cceOdYyw.s:2135   .text:0000000000000c10 .L0 
     /tmp/cceOdYyw.s:2137   .text:0000000000000c14 .L0 
     /tmp/cceOdYyw.s:2139   .text:0000000000000c18 .L0 
     /tmp/cceOdYyw.s:2141   .text:0000000000000c1c .L0 
     /tmp/cceOdYyw.s:2142   .text:0000000000000c1c .L0 
     /tmp/cceOdYyw.s:2147   .text:0000000000000c28 .L0 
     /tmp/cceOdYyw.s:2148   .text:0000000000000c28 .L0 
     /tmp/cceOdYyw.s:2152   .text:0000000000000c34 .L0 
     /tmp/cceOdYyw.s:2153   .text:0000000000000c34 .L0 
     /tmp/cceOdYyw.s:2157   .text:0000000000000c40 .L0 
     /tmp/cceOdYyw.s:2158   .text:0000000000000c40 .L0 
     /tmp/cceOdYyw.s:2162   .text:0000000000000c4c .L0 
     /tmp/cceOdYyw.s:2163   .text:0000000000000c4c .L0 
     /tmp/cceOdYyw.s:2167   .text:0000000000000c58 .L0 
     /tmp/cceOdYyw.s:2168   .text:0000000000000c58 .L0 
     /tmp/cceOdYyw.s:2170   .text:0000000000000c5c .L0 
     /tmp/cceOdYyw.s:2175   .text:0000000000000c68 .L0 
     /tmp/cceOdYyw.s:2176   .text:0000000000000c68 .L0 
     /tmp/cceOdYyw.s:2183   .text:0000000000000c7c .L0 
     /tmp/cceOdYyw.s:2184   .text:0000000000000c7c .L0 
     /tmp/cceOdYyw.s:2190   .text:0000000000000c8c .L0 
     /tmp/cceOdYyw.s:2191   .text:0000000000000c8c .L0 
     /tmp/cceOdYyw.s:2192   .text:0000000000000c90 .L0 
     /tmp/cceOdYyw.s:2194   .text:0000000000000c94 .L0 
     /tmp/cceOdYyw.s:2195   .text:0000000000000c94 .L0 
     /tmp/cceOdYyw.s:2197   .text:0000000000000c98 .L0 
     /tmp/cceOdYyw.s:2200   .text:0000000000000c9c .L0 
     /tmp/cceOdYyw.s:2203   .text:0000000000000ca0 .L0 
     /tmp/cceOdYyw.s:2206   .text:0000000000000ca4 .L0 
     /tmp/cceOdYyw.s:2209   .text:0000000000000ca8 .L0 
     /tmp/cceOdYyw.s:2212   .text:0000000000000cac .L0 
     /tmp/cceOdYyw.s:2214   .text:0000000000000cb0 .L0 
     /tmp/cceOdYyw.s:2216   .text:0000000000000cb4 .L0 
     /tmp/cceOdYyw.s:2230   .text:0000000000000cb4 _Z16mallocEverythingv
     /tmp/cceOdYyw.s:2233   .text:0000000000000cb4 .L0 
     /tmp/cceOdYyw.s:2234   .text:0000000000000cb4 .L0 
     /tmp/cceOdYyw.s:2235   .text:0000000000000cb8 .L0 
     /tmp/cceOdYyw.s:2239   .text:0000000000000cc4 .L0 
     /tmp/cceOdYyw.s:2240   .text:0000000000000cc4 .L0 
     /tmp/cceOdYyw.s:2241   .text:0000000000000cc4 .L0 
     /tmp/cceOdYyw.s:2243   .text:0000000000000cc8 .L0 
GAS LISTING /tmp/cceOdYyw.s 			page 90


     /tmp/cceOdYyw.s:2245   .text:0000000000000cc8 .L0 
     /tmp/cceOdYyw.s:2246   .text:0000000000000cc8 .L0 
     /tmp/cceOdYyw.s:2250   .text:0000000000000cd8 .L0 
     /tmp/cceOdYyw.s:2251   .text:0000000000000cd8 .L0 
     /tmp/cceOdYyw.s:2258   .text:0000000000000cf4 .L0 
     /tmp/cceOdYyw.s:2259   .text:0000000000000cf4 .L0 
     /tmp/cceOdYyw.s:2264   .text:0000000000000d00 .L0 
     /tmp/cceOdYyw.s:2266   .text:0000000000000d04 .L0 
     /tmp/cceOdYyw.s:2267   .text:0000000000000d04 .L0 
     /tmp/cceOdYyw.s:2273   .text:0000000000000d14 .L0 
     /tmp/cceOdYyw.s:2274   .text:0000000000000d14 .L0 
     /tmp/cceOdYyw.s:2275   .text:0000000000000d18 .L0 
     /tmp/cceOdYyw.s:2276   .text:0000000000000d18 .L0 
     /tmp/cceOdYyw.s:2278   .text:0000000000000d1c .L0 
     /tmp/cceOdYyw.s:2279   .text:0000000000000d1c .L0 
     /tmp/cceOdYyw.s:2281   .text:0000000000000d20 .L0 
     /tmp/cceOdYyw.s:2283   .text:0000000000000d24 .L0 
     /tmp/cceOdYyw.s:2287   .text:0000000000000d28 .L0 
     /tmp/cceOdYyw.s:2289   .text:0000000000000d28 .L0 
     /tmp/cceOdYyw.s:2290   .text:0000000000000d28 .L0 
     /tmp/cceOdYyw.s:2297   .text:0000000000000d44 .L0 
     /tmp/cceOdYyw.s:2299   .text:0000000000000d48 .L0 
     /tmp/cceOdYyw.s:2301   .text:0000000000000d4c .L0 
     /tmp/cceOdYyw.s:2304   .text:0000000000000d50 .L0 
     /tmp/cceOdYyw.s:2305   .text:0000000000000d50 .L0 
     /tmp/cceOdYyw.s:2312   .text:0000000000000d60 .L0 
     /tmp/cceOdYyw.s:2314   .text:0000000000000d64 .L0 
     /tmp/cceOdYyw.s:2315   .text:0000000000000d64 .L0 
     /tmp/cceOdYyw.s:2319   .text:0000000000000d70 .L0 
     /tmp/cceOdYyw.s:2321   .text:0000000000000d74 .L0 
     /tmp/cceOdYyw.s:2322   .text:0000000000000d74 .L0 
     /tmp/cceOdYyw.s:2327   .text:0000000000000d80 .L0 
     /tmp/cceOdYyw.s:2328   .text:0000000000000d80 .L0 
     /tmp/cceOdYyw.s:2334   .text:0000000000000d94 .L0 
     /tmp/cceOdYyw.s:2335   .text:0000000000000d94 .L0 
     /tmp/cceOdYyw.s:2339   .text:0000000000000da4 .L0 
     /tmp/cceOdYyw.s:2343   .text:0000000000000da8 .L0 
     /tmp/cceOdYyw.s:2344   .text:0000000000000da8 .L0 
     /tmp/cceOdYyw.s:2349   .text:0000000000000db8 .L0 
     /tmp/cceOdYyw.s:2350   .text:0000000000000dbc .L0 
     /tmp/cceOdYyw.s:2364   .text:0000000000000dbc _Z17mallocGapFillTestv
     /tmp/cceOdYyw.s:2367   .text:0000000000000dbc .L0 
     /tmp/cceOdYyw.s:2368   .text:0000000000000dbc .L0 
     /tmp/cceOdYyw.s:2369   .text:0000000000000dc0 .L0 
     /tmp/cceOdYyw.s:2380   .text:0000000000000de8 .L0 
     /tmp/cceOdYyw.s:2381   .text:0000000000000de8 .L0 
     /tmp/cceOdYyw.s:2382   .text:0000000000000de8 .L0 
     /tmp/cceOdYyw.s:2383   .text:0000000000000de8 .L0 
     /tmp/cceOdYyw.s:2384   .text:0000000000000de8 .L0 
     /tmp/cceOdYyw.s:2385   .text:0000000000000de8 .L0 
     /tmp/cceOdYyw.s:2386   .text:0000000000000de8 .L0 
     /tmp/cceOdYyw.s:2387   .text:0000000000000de8 .L0 
     /tmp/cceOdYyw.s:2388   .text:0000000000000de8 .L0 
     /tmp/cceOdYyw.s:2389   .text:0000000000000de8 .L0 
     /tmp/cceOdYyw.s:2391   .text:0000000000000dec .L0 
     /tmp/cceOdYyw.s:2393   .text:0000000000000dec .L0 
     /tmp/cceOdYyw.s:2394   .text:0000000000000dec .L0 
GAS LISTING /tmp/cceOdYyw.s 			page 91


     /tmp/cceOdYyw.s:2399   .text:0000000000000dfc .L0 
     /tmp/cceOdYyw.s:2403   .text:0000000000000e00 .L0 
     /tmp/cceOdYyw.s:2406   .text:0000000000000e08 .L0 
     /tmp/cceOdYyw.s:2407   .text:0000000000000e08 .L0 
     /tmp/cceOdYyw.s:2409   .text:0000000000000e0c .L0 
     /tmp/cceOdYyw.s:2413   .text:0000000000000e18 .L0 
     /tmp/cceOdYyw.s:2418   .text:0000000000000e28 .L0 
     /tmp/cceOdYyw.s:2420   .text:0000000000000e2c .L0 
     /tmp/cceOdYyw.s:2426   .text:0000000000000e34 .L0 
     /tmp/cceOdYyw.s:2427   .text:0000000000000e34 .L0 
     /tmp/cceOdYyw.s:2433   .text:0000000000000e44 .L0 
     /tmp/cceOdYyw.s:2434   .text:0000000000000e44 .L0 
     /tmp/cceOdYyw.s:2435   .text:0000000000000e48 .L0 
     /tmp/cceOdYyw.s:2436   .text:0000000000000e48 .L0 
     /tmp/cceOdYyw.s:2438   .text:0000000000000e4c .L0 
     /tmp/cceOdYyw.s:2439   .text:0000000000000e4c .L0 
     /tmp/cceOdYyw.s:2441   .text:0000000000000e50 .L0 
     /tmp/cceOdYyw.s:2443   .text:0000000000000e54 .L0 
     /tmp/cceOdYyw.s:2445   .text:0000000000000e58 .L0 
     /tmp/cceOdYyw.s:2447   .text:0000000000000e5c .L0 
     /tmp/cceOdYyw.s:2449   .text:0000000000000e60 .L0 
     /tmp/cceOdYyw.s:2451   .text:0000000000000e64 .L0 
     /tmp/cceOdYyw.s:2453   .text:0000000000000e68 .L0 
     /tmp/cceOdYyw.s:2455   .text:0000000000000e6c .L0 
     /tmp/cceOdYyw.s:2457   .text:0000000000000e70 .L0 
     /tmp/cceOdYyw.s:2461   .text:0000000000000e74 .L0 
     /tmp/cceOdYyw.s:2463   .text:0000000000000e74 .L0 
     /tmp/cceOdYyw.s:2464   .text:0000000000000e74 .L0 
     /tmp/cceOdYyw.s:2466   .text:0000000000000e78 .L0 
     /tmp/cceOdYyw.s:2468   .text:0000000000000e7c .L0 
     /tmp/cceOdYyw.s:2472   .text:0000000000000e84 .L0 
     /tmp/cceOdYyw.s:2473   .text:0000000000000e84 .L0 
     /tmp/cceOdYyw.s:2479   .text:0000000000000e94 .L0 
     /tmp/cceOdYyw.s:2480   .text:0000000000000e94 .L0 
     /tmp/cceOdYyw.s:2486   .text:0000000000000ea4 .L0 
     /tmp/cceOdYyw.s:2487   .text:0000000000000ea4 .L0 
     /tmp/cceOdYyw.s:2494   .text:0000000000000eb4 .L0 
     /tmp/cceOdYyw.s:2496   .text:0000000000000eb8 .L0 
     /tmp/cceOdYyw.s:2498   .text:0000000000000ebc .L0 
     /tmp/cceOdYyw.s:2500   .text:0000000000000ec0 .L0 
     /tmp/cceOdYyw.s:2501   .text:0000000000000ec0 .L0 
     /tmp/cceOdYyw.s:2504   .text:0000000000000ec4 .L0 
     /tmp/cceOdYyw.s:2505   .text:0000000000000ec4 .L0 
     /tmp/cceOdYyw.s:2508   .text:0000000000000ec8 .L0 
     /tmp/cceOdYyw.s:2509   .text:0000000000000ec8 .L0 
     /tmp/cceOdYyw.s:2512   .text:0000000000000ecc .L0 
     /tmp/cceOdYyw.s:2513   .text:0000000000000ecc .L0 
     /tmp/cceOdYyw.s:2516   .text:0000000000000ed0 .L0 
     /tmp/cceOdYyw.s:2517   .text:0000000000000ed0 .L0 
     /tmp/cceOdYyw.s:2518   .text:0000000000000ed0 .L0 
     /tmp/cceOdYyw.s:2521   .text:0000000000000ed4 .L0 
     /tmp/cceOdYyw.s:2522   .text:0000000000000ed4 .L0 
     /tmp/cceOdYyw.s:2525   .text:0000000000000ed8 .L0 
     /tmp/cceOdYyw.s:2527   .text:0000000000000edc .L0 
     /tmp/cceOdYyw.s:2529   .text:0000000000000ee0 .L0 
     /tmp/cceOdYyw.s:2531   .text:0000000000000ee4 .L0 
     /tmp/cceOdYyw.s:2533   .text:0000000000000ee8 .L0 
GAS LISTING /tmp/cceOdYyw.s 			page 92


     /tmp/cceOdYyw.s:2535   .text:0000000000000eec .L0 
     /tmp/cceOdYyw.s:2536   .text:0000000000000eec .L0 
     /tmp/cceOdYyw.s:2538   .text:0000000000000ef0 .L0 
     /tmp/cceOdYyw.s:2542   .text:0000000000000ef8 .L0 
     /tmp/cceOdYyw.s:2543   .text:0000000000000ef8 .L0 
     /tmp/cceOdYyw.s:2545   .text:0000000000000efc .L0 
     /tmp/cceOdYyw.s:2547   .text:0000000000000f00 .L0 
     /tmp/cceOdYyw.s:2551   .text:0000000000000f08 .L0 
     /tmp/cceOdYyw.s:2552   .text:0000000000000f08 .L0 
     /tmp/cceOdYyw.s:2558   .text:0000000000000f18 .L0 
     /tmp/cceOdYyw.s:2559   .text:0000000000000f18 .L0 
     /tmp/cceOdYyw.s:2566   .text:0000000000000f28 .L0 
     /tmp/cceOdYyw.s:2568   .text:0000000000000f2c .L0 
     /tmp/cceOdYyw.s:2571   .text:0000000000000f30 .L0 
     /tmp/cceOdYyw.s:2572   .text:0000000000000f30 .L0 
     /tmp/cceOdYyw.s:2573   .text:0000000000000f30 .L0 
     /tmp/cceOdYyw.s:2575   .text:0000000000000f34 .L0 
     /tmp/cceOdYyw.s:2577   .text:0000000000000f38 .L0 
     /tmp/cceOdYyw.s:2580   .text:0000000000000f3c .L0 
     /tmp/cceOdYyw.s:2586   .text:0000000000000f44 .L0 
     /tmp/cceOdYyw.s:2587   .text:0000000000000f44 .L0 
     /tmp/cceOdYyw.s:2592   .text:0000000000000f54 .L0 
     /tmp/cceOdYyw.s:2596   .text:0000000000000f58 .L0 
     /tmp/cceOdYyw.s:2597   .text:0000000000000f58 .L0 
     /tmp/cceOdYyw.s:2602   .text:0000000000000f68 .L0 
     /tmp/cceOdYyw.s:2606   .text:0000000000000f6c .L0 
     /tmp/cceOdYyw.s:2607   .text:0000000000000f6c .L0 
     /tmp/cceOdYyw.s:2612   .text:0000000000000f7c .L0 
     /tmp/cceOdYyw.s:2616   .text:0000000000000f80 .L0 
     /tmp/cceOdYyw.s:2617   .text:0000000000000f80 .L0 
     /tmp/cceOdYyw.s:2622   .text:0000000000000f90 .L0 
     /tmp/cceOdYyw.s:2627   .text:0000000000000f94 .L0 
     /tmp/cceOdYyw.s:2631   .text:0000000000000f98 .L0 
     /tmp/cceOdYyw.s:2634   .text:0000000000000fa0 .L0 
     /tmp/cceOdYyw.s:2635   .text:0000000000000fa0 .L0 
     /tmp/cceOdYyw.s:2641   .text:0000000000000fb0 .L0 
     /tmp/cceOdYyw.s:2643   .text:0000000000000fb4 .L0 
     /tmp/cceOdYyw.s:2649   .text:0000000000000fc0 .L0 
     /tmp/cceOdYyw.s:2650   .text:0000000000000fc0 .L0 
     /tmp/cceOdYyw.s:2654   .text:0000000000000fcc .L0 
     /tmp/cceOdYyw.s:2655   .text:0000000000000fcc .L0 
     /tmp/cceOdYyw.s:2659   .text:0000000000000fd8 .L0 
     /tmp/cceOdYyw.s:2660   .text:0000000000000fd8 .L0 
     /tmp/cceOdYyw.s:2664   .text:0000000000000fe4 .L0 
     /tmp/cceOdYyw.s:2665   .text:0000000000000fe4 .L0 
     /tmp/cceOdYyw.s:2669   .text:0000000000000ff0 .L0 
     /tmp/cceOdYyw.s:2670   .text:0000000000000ff0 .L0 
     /tmp/cceOdYyw.s:2674   .text:0000000000000ffc .L0 
     /tmp/cceOdYyw.s:2675   .text:0000000000000ffc .L0 
     /tmp/cceOdYyw.s:2679   .text:0000000000001010 .L0 
     /tmp/cceOdYyw.s:2685   .text:0000000000001010 _Z21memoryAllocationTestsv
     /tmp/cceOdYyw.s:2688   .text:0000000000001010 .L0 
     /tmp/cceOdYyw.s:2689   .text:0000000000001010 .L0 
     /tmp/cceOdYyw.s:2690   .text:0000000000001014 .L0 
     /tmp/cceOdYyw.s:2693   .text:000000000000101c .L0 
     /tmp/cceOdYyw.s:2694   .text:000000000000101c .L0 
     /tmp/cceOdYyw.s:2696   .text:0000000000001020 .L0 
GAS LISTING /tmp/cceOdYyw.s 			page 93


     /tmp/cceOdYyw.s:2698   .text:0000000000001020 .L0 
     /tmp/cceOdYyw.s:2699   .text:0000000000001020 .L0 
     /tmp/cceOdYyw.s:2702   .text:0000000000001028 .L0 
     /tmp/cceOdYyw.s:2703   .text:000000000000102c .L0 
     /tmp/cceOdYyw.s:2705   .text:0000000000001030 .L0 
     /tmp/cceOdYyw.s:2706   .text:0000000000001030 .L0 
     /tmp/cceOdYyw.s:2708   .text:0000000000001034 .L0 
     /tmp/cceOdYyw.s:2710   .text:0000000000001038 .L0 
     /tmp/cceOdYyw.s:2716   .text:0000000000001038 _Z7myTestsv
     /tmp/cceOdYyw.s:2719   .text:0000000000001038 .L0 
     /tmp/cceOdYyw.s:2720   .text:0000000000001038 .L0 
     /tmp/cceOdYyw.s:2721   .text:000000000000103c .L0 
     /tmp/cceOdYyw.s:2724   .text:0000000000001044 .L0 
     /tmp/cceOdYyw.s:2725   .text:0000000000001044 .L0 
     /tmp/cceOdYyw.s:2727   .text:0000000000001048 .L0 
     /tmp/cceOdYyw.s:2729   .text:0000000000001048 .L0 
     /tmp/cceOdYyw.s:2730   .text:0000000000001048 .L0 
     /tmp/cceOdYyw.s:2733   .text:0000000000001050 .L0 
     /tmp/cceOdYyw.s:2734   .text:0000000000001054 .L0 
     /tmp/cceOdYyw.s:2736   .text:0000000000001058 .L0 
     /tmp/cceOdYyw.s:2737   .text:0000000000001058 .L0 
     /tmp/cceOdYyw.s:2739   .text:000000000000105c .L0 
     /tmp/cceOdYyw.s:2741   .text:0000000000001060 .L0 
     /tmp/cceOdYyw.s:2747   .text:0000000000001060 _Z8semTest1v
     /tmp/cceOdYyw.s:2750   .text:0000000000001060 .L0 
     /tmp/cceOdYyw.s:2751   .text:0000000000001060 .L0 
     /tmp/cceOdYyw.s:2752   .text:0000000000001064 .L0 
     /tmp/cceOdYyw.s:2755   .text:000000000000106c .L0 
     /tmp/cceOdYyw.s:2756   .text:000000000000106c .L0 
     /tmp/cceOdYyw.s:2758   .text:0000000000001070 .L0 
     /tmp/cceOdYyw.s:2760   .text:0000000000001070 .L0 
     /tmp/cceOdYyw.s:2761   .text:0000000000001070 .L0 
     /tmp/cceOdYyw.s:2766   .text:0000000000001084 .L0 
     /tmp/cceOdYyw.s:2767   .text:0000000000001084 .L0 
     /tmp/cceOdYyw.s:2772   .text:0000000000001098 .L0 
     /tmp/cceOdYyw.s:2773   .text:0000000000001098 .L0 
     /tmp/cceOdYyw.s:2774   .text:0000000000001098 .L0 
     /tmp/cceOdYyw.s:2780   .text:00000000000010b0 .L0 
     /tmp/cceOdYyw.s:2781   .text:00000000000010b0 .L0 
     /tmp/cceOdYyw.s:2789   .text:00000000000010cc .L0 
     /tmp/cceOdYyw.s:2790   .text:00000000000010cc .L0 
     /tmp/cceOdYyw.s:2794   .text:00000000000010d4 .L0 
     /tmp/cceOdYyw.s:2795   .text:00000000000010d4 .L0 
     /tmp/cceOdYyw.s:2796   .text:00000000000010d4 .L0 
     /tmp/cceOdYyw.s:2800   .text:00000000000010e0 .L0 
     /tmp/cceOdYyw.s:2802   .text:00000000000010e4 .L0 
     /tmp/cceOdYyw.s:2806   .text:00000000000010f0 .L0 
     /tmp/cceOdYyw.s:2808   .text:00000000000010f4 .L0 
     /tmp/cceOdYyw.s:2809   .text:00000000000010f8 .L0 
     /tmp/cceOdYyw.s:2811   .text:00000000000010fc .L0 
     /tmp/cceOdYyw.s:2812   .text:00000000000010fc .L0 
     /tmp/cceOdYyw.s:2814   .text:0000000000001100 .L0 
     /tmp/cceOdYyw.s:2816   .text:0000000000001104 .L0 
     /tmp/cceOdYyw.s:2822   .text:0000000000001104 _Z14semaphoreTestsv
     /tmp/cceOdYyw.s:2825   .text:0000000000001104 .L0 
     /tmp/cceOdYyw.s:2826   .text:0000000000001104 .L0 
     /tmp/cceOdYyw.s:2827   .text:0000000000001108 .L0 
GAS LISTING /tmp/cceOdYyw.s 			page 94


     /tmp/cceOdYyw.s:2830   .text:0000000000001110 .L0 
     /tmp/cceOdYyw.s:2831   .text:0000000000001110 .L0 
     /tmp/cceOdYyw.s:2833   .text:0000000000001114 .L0 
     /tmp/cceOdYyw.s:2835   .text:0000000000001114 .L0 
     /tmp/cceOdYyw.s:2836   .text:0000000000001114 .L0 
     /tmp/cceOdYyw.s:2839   .text:000000000000111c .L0 
     /tmp/cceOdYyw.s:2840   .text:0000000000001120 .L0 
     /tmp/cceOdYyw.s:2842   .text:0000000000001124 .L0 
     /tmp/cceOdYyw.s:2843   .text:0000000000001124 .L0 
     /tmp/cceOdYyw.s:2845   .text:0000000000001128 .L0 
     /tmp/cceOdYyw.s:2847   .text:000000000000112c .L0 
     /tmp/cceOdYyw.s:2885   .data:0000000000000000 string
     /tmp/cceOdYyw.s:2897   .bss:0000000000000008 itemAvailable
     /tmp/cceOdYyw.s:2906   .bss:0000000000000020 spaceAvailable
     /tmp/cceOdYyw.s:2910   .bss:0000000000000028 tail
     /tmp/cceOdYyw.s:2892   .bss:0000000000000000 head
     /tmp/cceOdYyw.s:2901   .bss:0000000000000010 buffer
     /tmp/cceOdYyw.s:2882   .data:0000000000000000 .LANCHOR1
     /tmp/cceOdYyw.s:2889   .bss:0000000000000000 .LANCHOR0
     /tmp/cceOdYyw.s:32     .text._ZN6Thread3runEv:0000000000000018 .L0 
     /tmp/cceOdYyw.s:57     .text._ZN14PeriodicThread18periodicActivationEv:0000000000000018 .L0 
     /tmp/cceOdYyw.s:2918   .text:000000000000112c .L0 
     /tmp/cceOdYyw.s:622    .text._ZN14PeriodicThreadD2Ev:0000000000000034 .L0 
     /tmp/cceOdYyw.s:669    .text._ZN14PeriodicThreadD0Ev:000000000000004c .L0 
     /tmp/cceOdYyw.s:711    .text._ZN12TestPeriodicD2Ev:0000000000000034 .L0 
     /tmp/cceOdYyw.s:761    .text._ZN12TestPeriodicD0Ev:000000000000004c .L0 
     /tmp/cceOdYyw.s:59     .rodata.str1.8:0000000000000000 .LC0
     /tmp/cceOdYyw.s:84     .text:0000000000000010 .L0 
     /tmp/cceOdYyw.s:98     .rodata.str1.8:0000000000000008 .LC1
     /tmp/cceOdYyw.s:127    .text:0000000000000040 .L0 
     /tmp/cceOdYyw.s:101    .rodata.str1.8:0000000000000020 .LC2
     /tmp/cceOdYyw.s:146    .text:0000000000000060 .L0 
     /tmp/cceOdYyw.s:104    .rodata.str1.8:0000000000000028 .LC3
     /tmp/cceOdYyw.s:156    .text:000000000000007c .L0 
     /tmp/cceOdYyw.s:195    .rodata.str1.8:0000000000000030 .LC4
     /tmp/cceOdYyw.s:221    .text:00000000000000d8 .L0 
     /tmp/cceOdYyw.s:198    .rodata.str1.8:0000000000000048 .LC5
     /tmp/cceOdYyw.s:240    .text:00000000000000f8 .L0 
     /tmp/cceOdYyw.s:250    .text:0000000000000114 .L0 
     /tmp/cceOdYyw.s:318    .text:0000000000000180 .L0 
     /tmp/cceOdYyw.s:368    .text:00000000000001cc .L0 
     /tmp/cceOdYyw.s:393    .text:00000000000001f8 .L0 
     /tmp/cceOdYyw.s:403    .text:0000000000000214 .L0 
     /tmp/cceOdYyw.s:454    .text:0000000000000264 .L0 
     /tmp/cceOdYyw.s:472    .text:0000000000000288 .L0 
     /tmp/cceOdYyw.s:493    .text:00000000000002c4 .L0 
     /tmp/cceOdYyw.s:523    .text:00000000000002ec .L0 
     /tmp/cceOdYyw.s:541    .text:0000000000000310 .L0 
     /tmp/cceOdYyw.s:548    .text:0000000000000328 .L0 
     /tmp/cceOdYyw.s:565    .text:0000000000000354 .L0 
     /tmp/cceOdYyw.s:799    .text:00000000000003a8 .L0 
     /tmp/cceOdYyw.s:818    .text:00000000000003d8 .L0 
     /tmp/cceOdYyw.s:763    .rodata.str1.8:0000000000000050 .LC6
     /tmp/cceOdYyw.s:837    .text:0000000000000400 .L0 
     /tmp/cceOdYyw.s:766    .rodata.str1.8:0000000000000060 .LC7
     /tmp/cceOdYyw.s:878    .text:0000000000000438 .L0 
     /tmp/cceOdYyw.s:995    .text:00000000000004cc .L0 
GAS LISTING /tmp/cceOdYyw.s 			page 95


     /tmp/cceOdYyw.s:1014   .text:00000000000004fc .L0 
     /tmp/cceOdYyw.s:1034   .text:000000000000052c .L0 
     /tmp/cceOdYyw.s:1068   .text:0000000000000560 .L0 
     /tmp/cceOdYyw.s:1203   .rodata.str1.8:0000000000000068 .LC8
     /tmp/cceOdYyw.s:1231   .text:0000000000000610 .L0 
     /tmp/cceOdYyw.s:1206   .rodata.str1.8:0000000000000078 .LC9
     /tmp/cceOdYyw.s:1261   .text:0000000000000654 .L0 
     /tmp/cceOdYyw.s:1313   .text:00000000000006a8 .L0 
     /tmp/cceOdYyw.s:1351   .text:00000000000006f0 .L0 
     /tmp/cceOdYyw.s:1387   .text:0000000000000734 .L0 
     /tmp/cceOdYyw.s:1209   .rodata.str1.8:0000000000000080 .LC10
     /tmp/cceOdYyw.s:1398   .text:0000000000000748 .L0 
     /tmp/cceOdYyw.s:1407   .rodata.str1.8:0000000000000088 .LC11
     /tmp/cceOdYyw.s:1427   .text:000000000000076c .L0 
     /tmp/cceOdYyw.s:1432   .text:000000000000077c .L0 
     /tmp/cceOdYyw.s:1434   .text:0000000000000788 .L0 
     /tmp/cceOdYyw.s:1448   .text:00000000000007a8 .L0 
     /tmp/cceOdYyw.s:1468   .text:00000000000007c8 .L0 
     /tmp/cceOdYyw.s:1478   .rodata.str1.8:0000000000000098 .LC12
     /tmp/cceOdYyw.s:1504   .text:00000000000007f8 .L0 
     /tmp/cceOdYyw.s:1565   .text:0000000000000854 .L0 
     /tmp/cceOdYyw.s:1578   .text:0000000000000874 .L0 
     /tmp/cceOdYyw.s:1605   .text:00000000000008a0 .L0 
     /tmp/cceOdYyw.s:1614   .rodata.str1.8:00000000000000b0 .LC13
     /tmp/cceOdYyw.s:1634   .text:00000000000008c4 .L0 
     /tmp/cceOdYyw.s:1652   .text:00000000000008f0 .L0 
     /tmp/cceOdYyw.s:1672   .text:0000000000000910 .L0 
     /tmp/cceOdYyw.s:1683   .rodata.str1.8:00000000000000c0 .LC14
     /tmp/cceOdYyw.s:1710   .text:000000000000093c .L0 
     /tmp/cceOdYyw.s:1740   .text:0000000000000980 .L0 
     /tmp/cceOdYyw.s:1818   .text:0000000000000a08 .L0 
     /tmp/cceOdYyw.s:1686   .rodata.str1.8:00000000000000d0 .LC15
     /tmp/cceOdYyw.s:1827   .text:0000000000000a1c .L0 
     /tmp/cceOdYyw.s:1879   .text:0000000000000a80 .L0 
     /tmp/cceOdYyw.s:1888   .text:0000000000000a94 .L0 
     /tmp/cceOdYyw.s:1907   .text:0000000000000ab0 .L0 
     /tmp/cceOdYyw.s:1937   .text:0000000000000ae4 .L0 
     /tmp/cceOdYyw.s:2042   .rodata.str1.8:00000000000000d8 .LC16
     /tmp/cceOdYyw.s:2077   .text:0000000000000b8c .L0 
     /tmp/cceOdYyw.s:2045   .rodata.str1.8:0000000000000100 .LC17
     /tmp/cceOdYyw.s:2176   .text:0000000000000c68 .L0 
     /tmp/cceOdYyw.s:2184   .text:0000000000000c7c .L0 
     /tmp/cceOdYyw.s:2221   .rodata.str1.8:0000000000000130 .LC18
     /tmp/cceOdYyw.s:2246   .text:0000000000000cc8 .L0 
     /tmp/cceOdYyw.s:2251   .text:0000000000000cd8 .L0 
     /tmp/cceOdYyw.s:2253   .text:0000000000000ce4 .L0 
     /tmp/cceOdYyw.s:2267   .text:0000000000000d04 .L0 
     /tmp/cceOdYyw.s:2290   .text:0000000000000d28 .L0 
     /tmp/cceOdYyw.s:2293   .text:0000000000000d34 .L0 
     /tmp/cceOdYyw.s:2224   .rodata.str1.8:0000000000000160 .LC19
     /tmp/cceOdYyw.s:2328   .text:0000000000000d80 .L0 
     /tmp/cceOdYyw.s:2335   .text:0000000000000d94 .L0 
     /tmp/cceOdYyw.s:2344   .text:0000000000000da8 .L0 
     /tmp/cceOdYyw.s:2355   .rodata.str1.8:0000000000000198 .LC20
     /tmp/cceOdYyw.s:2394   .text:0000000000000dec .L0 
     /tmp/cceOdYyw.s:2427   .text:0000000000000e34 .L0 
     /tmp/cceOdYyw.s:2587   .text:0000000000000f44 .L0 
GAS LISTING /tmp/cceOdYyw.s 			page 96


     /tmp/cceOdYyw.s:2597   .text:0000000000000f58 .L0 
     /tmp/cceOdYyw.s:2607   .text:0000000000000f6c .L0 
     /tmp/cceOdYyw.s:2617   .text:0000000000000f80 .L0 
     /tmp/cceOdYyw.s:2358   .rodata.str1.8:00000000000001e0 .LC21
     /tmp/cceOdYyw.s:2675   .text:0000000000000ffc .L0 
     /tmp/cceOdYyw.s:2762   .text:0000000000001074 .L0 
     /tmp/cceOdYyw.s:2768   .text:0000000000001088 .L0 
     /tmp/cceOdYyw.s:2775   .text:000000000000109c .L0 
     /tmp/cceOdYyw.s:2782   .text:00000000000010b4 .L0 
     /tmp/cceOdYyw.s:80     .text:0000000000000010 .L6
     /tmp/cceOdYyw.s:162    .text:0000000000000090 .L11
     /tmp/cceOdYyw.s:176    .text:00000000000000b0 .L8
     /tmp/cceOdYyw.s:143    .text:0000000000000060 .L10
     /tmp/cceOdYyw.s:138    .text:0000000000000058 .L13
     /tmp/cceOdYyw.s:256    .text:0000000000000128 .L17
     /tmp/cceOdYyw.s:270    .text:0000000000000148 .L14
     /tmp/cceOdYyw.s:237    .text:00000000000000f8 .L16
     /tmp/cceOdYyw.s:232    .text:00000000000000f0 .L19
     /tmp/cceOdYyw.s:331    .text:00000000000001a4 .L20
     /tmp/cceOdYyw.s:311    .text:0000000000000174 .L22
     /tmp/cceOdYyw.s:409    .text:0000000000000228 .L28
     /tmp/cceOdYyw.s:417    .text:000000000000023c .L26
     /tmp/cceOdYyw.s:427    .text:0000000000000250 .L24
     /tmp/cceOdYyw.s:379    .text:00000000000001e4 .L30
     /tmp/cceOdYyw.s:390    .text:00000000000001f8 .L27
     /tmp/cceOdYyw.s:385    .text:00000000000001f0 .L31
     /tmp/cceOdYyw.s:508    .text:00000000000002e8 .L40
     /tmp/cceOdYyw.s:469    .text:0000000000000288 .L37
     /tmp/cceOdYyw.s:580    .text:0000000000000378 .L49
     /tmp/cceOdYyw.s:538    .text:0000000000000310 .L46
     /tmp/cceOdYyw.s:844    .text:0000000000000418 .L61
     /tmp/cceOdYyw.s:834    .text:0000000000000400 .L59
     /tmp/cceOdYyw.s:1049   .text:0000000000000550 .L69
     /tmp/cceOdYyw.s:1243   .text:000000000000062c .L84
     /tmp/cceOdYyw.s:1280   .text:0000000000000678 .L92
     /tmp/cceOdYyw.s:1239   .text:0000000000000628 .L82
     /tmp/cceOdYyw.s:1319   .text:00000000000006bc .L93
     /tmp/cceOdYyw.s:1309   .text:00000000000006a8 .L96
     /tmp/cceOdYyw.s:1286   .text:000000000000067c .L81
     /tmp/cceOdYyw.s:1265   .text:0000000000000664 .L80
     /tmp/cceOdYyw.s:1333   .text:00000000000006c8 .L85
     /tmp/cceOdYyw.s:1356   .text:0000000000000704 .L94
     /tmp/cceOdYyw.s:1328   .text:00000000000006c4 .L88
     /tmp/cceOdYyw.s:1393   .text:0000000000000748 .L89
     /tmp/cceOdYyw.s:1383   .text:0000000000000734 .L97
     /tmp/cceOdYyw.s:1362   .text:0000000000000708 .L87
     /tmp/cceOdYyw.s:1464   .text:00000000000007c8 .L102
     /tmp/cceOdYyw.s:1452   .text:00000000000007b8 .L98
     /tmp/cceOdYyw.s:1541   .text:000000000000082c .L105
     /tmp/cceOdYyw.s:1555   .text:0000000000000848 .L104
     /tmp/cceOdYyw.s:1522   .text:0000000000000818 .L109
     /tmp/cceOdYyw.s:1601   .text:00000000000008a0 .L110
     /tmp/cceOdYyw.s:1581   .text:0000000000000884 .L103
     /tmp/cceOdYyw.s:1668   .text:0000000000000910 .L112
     /tmp/cceOdYyw.s:1656   .text:0000000000000900 .L111
     /tmp/cceOdYyw.s:1722   .text:0000000000000958 .L119
     /tmp/cceOdYyw.s:1761   .text:00000000000009a8 .L129
GAS LISTING /tmp/cceOdYyw.s 			page 97


     /tmp/cceOdYyw.s:1718   .text:0000000000000954 .L117
     /tmp/cceOdYyw.s:1904   .text:0000000000000ab0 .L120
     /tmp/cceOdYyw.s:1832   .text:0000000000000a30 .L130
     /tmp/cceOdYyw.s:1814   .text:0000000000000a08 .L132
     /tmp/cceOdYyw.s:1824   .text:0000000000000a1c .L133
     /tmp/cceOdYyw.s:1774   .text:00000000000009b4 .L124
     /tmp/cceOdYyw.s:1744   .text:0000000000000990 .L115
     /tmp/cceOdYyw.s:1893   .text:0000000000000aa8 .L125
     /tmp/cceOdYyw.s:1875   .text:0000000000000a80 .L134
     /tmp/cceOdYyw.s:1885   .text:0000000000000a94 .L135
     /tmp/cceOdYyw.s:1839   .text:0000000000000a34 .L121
     /tmp/cceOdYyw.s:1766   .text:00000000000009ac .L116
     /tmp/cceOdYyw.s:1998   .text:0000000000000b44 .L139
     /tmp/cceOdYyw.s:2181   .text:0000000000000c7c .L144
     /tmp/cceOdYyw.s:2173   .text:0000000000000c68 .L147
     /tmp/cceOdYyw.s:2189   .text:0000000000000c8c .L143
     /tmp/cceOdYyw.s:2286   .text:0000000000000d28 .L150
     /tmp/cceOdYyw.s:2332   .text:0000000000000d94 .L155
     /tmp/cceOdYyw.s:2341   .text:0000000000000da8 .L156
     /tmp/cceOdYyw.s:2272   .text:0000000000000d14 .L149
     /tmp/cceOdYyw.s:2460   .text:0000000000000e74 .L158
     /tmp/cceOdYyw.s:2424   .text:0000000000000e34 .L178
     /tmp/cceOdYyw.s:2400   .text:0000000000000e00 .L161
     /tmp/cceOdYyw.s:2470   .text:0000000000000e84 .L162
     /tmp/cceOdYyw.s:2583   .text:0000000000000f44 .L163
     /tmp/cceOdYyw.s:2594   .text:0000000000000f58 .L165
     /tmp/cceOdYyw.s:2540   .text:0000000000000ef8 .L167
     /tmp/cceOdYyw.s:2549   .text:0000000000000f08 .L168
     /tmp/cceOdYyw.s:2604   .text:0000000000000f6c .L169
     /tmp/cceOdYyw.s:2614   .text:0000000000000f80 .L171
     /tmp/cceOdYyw.s:2629   .text:0000000000000f98 .L172
     /tmp/cceOdYyw.s:2431   .text:0000000000000e44 .L157
     /tmp/cceOdYyw.s:2646   .text:0000000000000fc0 .L173
     /tmp/cceOdYyw.s:2624   .text:0000000000000f94 .L174
     /tmp/cceOdYyw.s:2792   .text:00000000000010d4 .L186
     /tmp/cceOdYyw.s:2787   .text:00000000000010cc .L184
     /tmp/cceOdYyw.s:604    .text._ZN14PeriodicThreadD2Ev:0000000000000010 .L0 
     /tmp/cceOdYyw.s:646    .text._ZN14PeriodicThreadD0Ev:0000000000000018 .L0 
     /tmp/cceOdYyw.s:691    .text._ZN12TestPeriodicD2Ev:0000000000000010 .L0 
     /tmp/cceOdYyw.s:736    .text._ZN12TestPeriodicD0Ev:0000000000000018 .L0 
     /tmp/cceOdYyw.s:793    .text:0000000000000398 .LEHB0
     /tmp/cceOdYyw.s:773    .text:000000000000037c .LFB27
     /tmp/cceOdYyw.s:796    .text:00000000000003a0 .LEHE0
     /tmp/cceOdYyw.s:800    .text:00000000000003b0 .LEHB1
     /tmp/cceOdYyw.s:803    .text:00000000000003b8 .LEHE1
     /tmp/cceOdYyw.s:902    .text:0000000000000468 .L64
     /tmp/cceOdYyw.s:807    .text:00000000000003bc .LEHB2
     /tmp/cceOdYyw.s:815    .text:00000000000003d0 .LEHE2
     /tmp/cceOdYyw.s:819    .text:00000000000003e0 .LEHB3
     /tmp/cceOdYyw.s:822    .text:00000000000003e8 .LEHE3
     /tmp/cceOdYyw.s:914    .text:0000000000000484 .L65
     /tmp/cceOdYyw.s:826    .text:00000000000003ec .LEHB4
     /tmp/cceOdYyw.s:885    .text:0000000000000450 .LEHE4
     /tmp/cceOdYyw.s:910    .text:000000000000047c .LEHB5
     /tmp/cceOdYyw.s:913    .text:0000000000000484 .LEHE5
     /tmp/cceOdYyw.s:922    .text:0000000000000498 .LEHB6
     /tmp/cceOdYyw.s:925    .text:00000000000004a0 .LEHE6
GAS LISTING /tmp/cceOdYyw.s 			page 98


     /tmp/cceOdYyw.s:989    .text:00000000000004bc .LEHB7
     /tmp/cceOdYyw.s:969    .text:00000000000004a0 .LFB28
     /tmp/cceOdYyw.s:992    .text:00000000000004c4 .LEHE7
     /tmp/cceOdYyw.s:996    .text:00000000000004d4 .LEHB8
     /tmp/cceOdYyw.s:999    .text:00000000000004dc .LEHE8
     /tmp/cceOdYyw.s:1092   .text:0000000000000590 .L73
     /tmp/cceOdYyw.s:1003   .text:00000000000004e0 .LEHB9
     /tmp/cceOdYyw.s:1011   .text:00000000000004f4 .LEHE9
     /tmp/cceOdYyw.s:1015   .text:0000000000000504 .LEHB10
     /tmp/cceOdYyw.s:1018   .text:000000000000050c .LEHE10
     /tmp/cceOdYyw.s:1104   .text:00000000000005ac .L74
     /tmp/cceOdYyw.s:1022   .text:0000000000000510 .LEHB11
     /tmp/cceOdYyw.s:1030   .text:0000000000000524 .LEHE11
     /tmp/cceOdYyw.s:1035   .text:0000000000000534 .LEHB12
     /tmp/cceOdYyw.s:1038   .text:000000000000053c .LEHE12
     /tmp/cceOdYyw.s:1116   .text:00000000000005c8 .L75
     /tmp/cceOdYyw.s:1042   .text:0000000000000540 .LEHB13
     /tmp/cceOdYyw.s:1075   .text:0000000000000578 .LEHE13
     /tmp/cceOdYyw.s:1100   .text:00000000000005a4 .LEHB14
     /tmp/cceOdYyw.s:1103   .text:00000000000005ac .LEHE14
     /tmp/cceOdYyw.s:1112   .text:00000000000005c0 .LEHB15
     /tmp/cceOdYyw.s:1115   .text:00000000000005c8 .LEHE15
     /tmp/cceOdYyw.s:1124   .text:00000000000005dc .LEHB16
     /tmp/cceOdYyw.s:1127   .text:00000000000005e4 .LEHE16
     /tmp/cceOdYyw.s:1981   .text:0000000000000b20 .LEHB17
     /tmp/cceOdYyw.s:1961   .text:0000000000000b04 .LFB29
     /tmp/cceOdYyw.s:1984   .text:0000000000000b28 .LEHE17
     /tmp/cceOdYyw.s:1987   .text:0000000000000b30 .LEHB18
     /tmp/cceOdYyw.s:1990   .text:0000000000000b38 .LEHE18
     /tmp/cceOdYyw.s:2003   .text:0000000000000b48 .L141
     /tmp/cceOdYyw.s:1994   .text:0000000000000b3c .LEHB19
     /tmp/cceOdYyw.s:1997   .text:0000000000000b44 .LEHE19
     /tmp/cceOdYyw.s:2010   .text:0000000000000b5c .LEHB20
     /tmp/cceOdYyw.s:2013   .text:0000000000000b64 .LEHE20
     /tmp/cceOdYyw.s:7180   .debug_abbrev:0000000000000000 .Ldebug_abbrev0
     /tmp/cceOdYyw.s:10015  .debug_str:00000000000009d7 .LASF254
     /tmp/cceOdYyw.s:9941   .debug_str:00000000000007b3 .LASF255
     /tmp/cceOdYyw.s:9729   .debug_str:000000000000012e .LASF256
     /tmp/cceOdYyw.s:9623   .debug_ranges:0000000000000000 .Ldebug_ranges0
     /tmp/cceOdYyw.s:9683   .debug_line:0000000000000000 .Ldebug_line0
     /tmp/cceOdYyw.s:9737   .debug_str:0000000000000190 .LASF0
     /tmp/cceOdYyw.s:10181  .debug_str:0000000000000f1d .LASF1
     /tmp/cceOdYyw.s:10115  .debug_str:0000000000000d40 .LASF2
     /tmp/cceOdYyw.s:10087  .debug_str:0000000000000c87 .LASF4
     /tmp/cceOdYyw.s:10095  .debug_str:0000000000000cc4 .LASF3
     /tmp/cceOdYyw.s:9843   .debug_str:00000000000004e4 .LASF5
     /tmp/cceOdYyw.s:9915   .debug_str:00000000000006d5 .LASF6
     /tmp/cceOdYyw.s:9889   .debug_str:000000000000061b .LASF7
     /tmp/cceOdYyw.s:10025  .debug_str:0000000000000ab9 .LASF8
     /tmp/cceOdYyw.s:9759   .debug_str:000000000000022e .LASF9
     /tmp/cceOdYyw.s:10163  .debug_str:0000000000000ea5 .LASF10
     /tmp/cceOdYyw.s:9851   .debug_str:0000000000000519 .LASF11
     /tmp/cceOdYyw.s:9793   .debug_str:0000000000000365 .LASF12
     /tmp/cceOdYyw.s:9917   .debug_str:00000000000006dc .LASF13
     /tmp/cceOdYyw.s:9857   .debug_str:000000000000053e .LASF14
     /tmp/cceOdYyw.s:10073  .debug_str:0000000000000c43 .LASF15
     /tmp/cceOdYyw.s:9859   .debug_str:000000000000054e .LASF16
GAS LISTING /tmp/cceOdYyw.s 			page 99


     /tmp/cceOdYyw.s:9829   .debug_str:0000000000000487 .LASF17
     /tmp/cceOdYyw.s:9783   .debug_str:0000000000000309 .LASF86
     /tmp/cceOdYyw.s:10061  .debug_str:0000000000000bf3 .LASF18
     /tmp/cceOdYyw.s:9731   .debug_str:0000000000000151 .LASF20
     /tmp/cceOdYyw.s:10023  .debug_str:0000000000000aae .LASF19
     /tmp/cceOdYyw.s:10139  .debug_str:0000000000000dea .LASF21
     /tmp/cceOdYyw.s:10143  .debug_str:0000000000000e11 .LASF22
     /tmp/cceOdYyw.s:9845   .debug_str:00000000000004eb .LASF23
     /tmp/cceOdYyw.s:9819   .debug_str:000000000000044b .LASF28
     /tmp/cceOdYyw.s:9937   .debug_str:000000000000078c .LASF30
     /tmp/cceOdYyw.s:10223  .debug_str:000000000000107c .LASF24
     /tmp/cceOdYyw.s:10037  .debug_str:0000000000000b1e .LASF25
     /tmp/cceOdYyw.s:9883   .debug_str:00000000000005f7 .LASF26
     /tmp/cceOdYyw.s:9935   .debug_str:000000000000076d .LASF27
     /tmp/cceOdYyw.s:10031  .debug_str:0000000000000af9 .LASF29
     /tmp/cceOdYyw.s:10019  .debug_str:0000000000000a8b .LASF31
     /tmp/cceOdYyw.s:10215  .debug_str:0000000000001049 .LASF32
     /tmp/cceOdYyw.s:9993   .debug_str:0000000000000946 .LASF33
     /tmp/cceOdYyw.s:9785   .debug_str:000000000000030f .LASF34
     /tmp/cceOdYyw.s:9947   .debug_str:00000000000007ce .LASF35
     /tmp/cceOdYyw.s:9909   .debug_str:00000000000006ad .LASF36
     /tmp/cceOdYyw.s:10133  .debug_str:0000000000000db5 .LASF37
     /tmp/cceOdYyw.s:10207  .debug_str:000000000000100d .LASF40
     /tmp/cceOdYyw.s:10161  .debug_str:0000000000000e90 .LASF42
     /tmp/cceOdYyw.s:10057  .debug_str:0000000000000bde .LASF38
     /tmp/cceOdYyw.s:9755   .debug_str:000000000000020d .LASF39
     /tmp/cceOdYyw.s:9813   .debug_str:0000000000000423 .LASF41
     /tmp/cceOdYyw.s:9865   .debug_str:0000000000000574 .LASF43
     /tmp/cceOdYyw.s:9841   .debug_str:00000000000004dd .LASF44
     /tmp/cceOdYyw.s:9751   .debug_str:00000000000001ef .LASF45
     /tmp/cceOdYyw.s:10185  .debug_str:0000000000000f4e .LASF46
     /tmp/cceOdYyw.s:10069  .debug_str:0000000000000c16 .LASF47
     /tmp/cceOdYyw.s:10063  .debug_str:0000000000000bfe .LASF48
     /tmp/cceOdYyw.s:9777   .debug_str:00000000000002d9 .LASF49
     /tmp/cceOdYyw.s:10017  .debug_str:0000000000000a83 .LASF50
     /tmp/cceOdYyw.s:9689   .debug_str:0000000000000015 .LASF51
     /tmp/cceOdYyw.s:9933   .debug_str:0000000000000765 .LASF52
     /tmp/cceOdYyw.s:9899   .debug_str:0000000000000656 .LASF53
     /tmp/cceOdYyw.s:10127  .debug_str:0000000000000d99 .LASF54
     /tmp/cceOdYyw.s:9979   .debug_str:00000000000008d1 .LASF55
     /tmp/cceOdYyw.s:9891   .debug_str:000000000000062e .LASF56
     /tmp/cceOdYyw.s:10113  .debug_str:0000000000000d2d .LASF57
     /tmp/cceOdYyw.s:9957   .debug_str:000000000000083b .LASF58
     /tmp/cceOdYyw.s:10197  .debug_str:0000000000000fae .LASF59
     /tmp/cceOdYyw.s:10097  .debug_str:0000000000000cd6 .LASF60
     /tmp/cceOdYyw.s:10009  .debug_str:00000000000009a8 .LASF61
     /tmp/cceOdYyw.s:10041  .debug_str:0000000000000b4b .LASF62
     /tmp/cceOdYyw.s:9791   .debug_str:000000000000034d .LASF63
     /tmp/cceOdYyw.s:9753   .debug_str:0000000000000202 .LASF64
     /tmp/cceOdYyw.s:10217  .debug_str:0000000000001056 .LASF65
     /tmp/cceOdYyw.s:9855   .debug_str:0000000000000534 .LASF66
     /tmp/cceOdYyw.s:9823   .debug_str:0000000000000460 .LASF67
     /tmp/cceOdYyw.s:10085  .debug_str:0000000000000c7d .LASF68
     /tmp/cceOdYyw.s:9905   .debug_str:0000000000000692 .LASF69
     /tmp/cceOdYyw.s:10029  .debug_str:0000000000000aee .LASF70
     /tmp/cceOdYyw.s:10155  .debug_str:0000000000000e5b .LASF71
     /tmp/cceOdYyw.s:10047  .debug_str:0000000000000b89 .LASF72
GAS LISTING /tmp/cceOdYyw.s 			page 100


     /tmp/cceOdYyw.s:9799   .debug_str:00000000000003a2 .LASF73
     /tmp/cceOdYyw.s:9739   .debug_str:000000000000019d .LASF74
     /tmp/cceOdYyw.s:10027  .debug_str:0000000000000acc .LASF75
     /tmp/cceOdYyw.s:9711   .debug_str:000000000000008d .LASF76
     /tmp/cceOdYyw.s:10111  .debug_str:0000000000000d25 .LASF77
     /tmp/cceOdYyw.s:9981   .debug_str:00000000000008e4 .LASF78
     /tmp/cceOdYyw.s:10011  .debug_str:00000000000009ba .LASF79
     /tmp/cceOdYyw.s:9893   .debug_str:0000000000000635 .LASF80
     /tmp/cceOdYyw.s:10171  .debug_str:0000000000000ecf .LASF81
     /tmp/cceOdYyw.s:9715   .debug_str:00000000000000a4 .LASF82
     /tmp/cceOdYyw.s:9807   .debug_str:00000000000003ec .LASF83
     /tmp/cceOdYyw.s:9769   .debug_str:00000000000002a2 .LASF84
     /tmp/cceOdYyw.s:9885   .debug_str:0000000000000609 .LASF85
     /tmp/cceOdYyw.s:9763   .debug_str:000000000000025d .LASF257
     /tmp/cceOdYyw.s:9943   .debug_str:00000000000007c1 .LASF87
     /tmp/cceOdYyw.s:9987   .debug_str:0000000000000913 .LASF88
     /tmp/cceOdYyw.s:10099  .debug_str:0000000000000cdc .LASF89
     /tmp/cceOdYyw.s:9881   .debug_str:00000000000005ee .LASF90
     /tmp/cceOdYyw.s:9875   .debug_str:00000000000005c8 .LASF91
     /tmp/cceOdYyw.s:10219  .debug_str:000000000000106e .LASF92
     /tmp/cceOdYyw.s:10021  .debug_str:0000000000000aa6 .LASF147
     /tmp/cceOdYyw.s:9827   .debug_str:0000000000000481 .LASF93
     /tmp/cceOdYyw.s:10169  .debug_str:0000000000000ec4 .LASF102
     /tmp/cceOdYyw.s:9949   .debug_str:00000000000007e9 .LASF258
     /tmp/cceOdYyw.s:10165  .debug_str:0000000000000eb3 .LASF259
     /tmp/cceOdYyw.s:9861   .debug_str:0000000000000564 .LASF94
     /tmp/cceOdYyw.s:9853   .debug_str:0000000000000528 .LASF96
     /tmp/cceOdYyw.s:10081  .debug_str:0000000000000c6d .LASF95
     /tmp/cceOdYyw.s:9901   .debug_str:000000000000066a .LASF97
     /tmp/cceOdYyw.s:9927   .debug_str:000000000000073a .LASF98
     /tmp/cceOdYyw.s:9877   .debug_str:00000000000005d0 .LASF99
     /tmp/cceOdYyw.s:10145  .debug_str:0000000000000e1b .LASF100
     /tmp/cceOdYyw.s:9773   .debug_str:00000000000002bc .LASF101
     /tmp/cceOdYyw.s:10199  .debug_str:0000000000000fc0 .LASF103
     /tmp/cceOdYyw.s:10123  .debug_str:0000000000000d7c .LASF104
     /tmp/cceOdYyw.s:9775   .debug_str:00000000000002cc .LASF109
     /tmp/cceOdYyw.s:9903   .debug_str:000000000000067a .LASF111
     /tmp/cceOdYyw.s:9999   .debug_str:0000000000000975 .LASF105
     /tmp/cceOdYyw.s:9757   .debug_str:0000000000000222 .LASF106
     /tmp/cceOdYyw.s:9995   .debug_str:0000000000000960 .LASF107
     /tmp/cceOdYyw.s:10033  .debug_str:0000000000000b05 .LASF108
     /tmp/cceOdYyw.s:10003  .debug_str:000000000000098e .LASF110
     /tmp/cceOdYyw.s:9767   .debug_str:000000000000028f .LASF112
     /tmp/cceOdYyw.s:10191  .debug_str:0000000000000f76 .LASF113
     /tmp/cceOdYyw.s:9719   .debug_str:00000000000000cf .LASF114
     /tmp/cceOdYyw.s:9923   .debug_str:0000000000000710 .LASF115
     /tmp/cceOdYyw.s:9871   .debug_str:00000000000005a6 .LASF116
     /tmp/cceOdYyw.s:10039  .debug_str:0000000000000b3c .LASF117
     /tmp/cceOdYyw.s:9955   .debug_str:0000000000000821 .LASF118
     /tmp/cceOdYyw.s:10121  .debug_str:0000000000000d6e .LASF119
     /tmp/cceOdYyw.s:10125  .debug_str:0000000000000d8d .LASF120
     /tmp/cceOdYyw.s:10049  .debug_str:0000000000000b98 .LASF121
     /tmp/cceOdYyw.s:9695   .debug_str:0000000000000039 .LASF122
     /tmp/cceOdYyw.s:9887   .debug_str:000000000000060e .LASF127
     /tmp/cceOdYyw.s:10045  .debug_str:0000000000000b7e .LASF123
     /tmp/cceOdYyw.s:10147  .debug_str:0000000000000e21 .LASF124
     /tmp/cceOdYyw.s:9879   .debug_str:00000000000005e3 .LASF125
GAS LISTING /tmp/cceOdYyw.s 			page 101


     /tmp/cceOdYyw.s:9749   .debug_str:00000000000001d9 .LASF126
     /tmp/cceOdYyw.s:10151  .debug_str:0000000000000e3d .LASF128
     /tmp/cceOdYyw.s:9969   .debug_str:000000000000088a .LASF129
     /tmp/cceOdYyw.s:9761   .debug_str:000000000000023e .LASF130
     /tmp/cceOdYyw.s:10055  .debug_str:0000000000000bcc .LASF131
     /tmp/cceOdYyw.s:10201  .debug_str:0000000000000fc8 .LASF132
     /tmp/cceOdYyw.s:9967   .debug_str:0000000000000874 .LASF133
     /tmp/cceOdYyw.s:10193  .debug_str:0000000000000f7f .LASF134
     /tmp/cceOdYyw.s:9803   .debug_str:00000000000003cb .LASF135
     /tmp/cceOdYyw.s:10183  .debug_str:0000000000000f30 .LASF136
     /tmp/cceOdYyw.s:9781   .debug_str:00000000000002ff .LASF137
     /tmp/cceOdYyw.s:10103  .debug_str:0000000000000ceb .LASF138
     /tmp/cceOdYyw.s:10159  .debug_str:0000000000000e82 .LASF139
     /tmp/cceOdYyw.s:9727   .debug_str:0000000000000106 .LASF141
     /tmp/cceOdYyw.s:9869   .debug_str:0000000000000591 .LASF140
     /tmp/cceOdYyw.s:9765   .debug_str:0000000000000263 .LASF142
     /tmp/cceOdYyw.s:9961   .debug_str:0000000000000848 .LASF169
     /tmp/cceOdYyw.s:10213  .debug_str:0000000000001038 .LASF260
     /tmp/cceOdYyw.s:10101  .debug_str:0000000000000ce6 .LASF143
     /tmp/cceOdYyw.s:9997   .debug_str:0000000000000970 .LASF144
     /tmp/cceOdYyw.s:9743   .debug_str:00000000000001bb .LASF145
     /tmp/cceOdYyw.s:10149  .debug_str:0000000000000e37 .LASF146
     /tmp/cceOdYyw.s:9985   .debug_str:000000000000090b .LASF148
     /tmp/cceOdYyw.s:9951   .debug_str:0000000000000801 .LASF149
     /tmp/cceOdYyw.s:9835   .debug_str:00000000000004b8 .LASF150
     /tmp/cceOdYyw.s:10129  .debug_str:0000000000000da0 .LASF151
     /tmp/cceOdYyw.s:10075  .debug_str:0000000000000c4f .LASF152
     /tmp/cceOdYyw.s:9725   .debug_str:00000000000000ff .LASF153
     /tmp/cceOdYyw.s:9723   .debug_str:00000000000000f8 .LASF154
     /tmp/cceOdYyw.s:9821   .debug_str:000000000000045b .LASF155
     /tmp/cceOdYyw.s:10135  .debug_str:0000000000000dcf .LASF156
     /tmp/cceOdYyw.s:9911   .debug_str:00000000000006ba .LASF157
     /tmp/cceOdYyw.s:10093  .debug_str:0000000000000cb6 .LASF158
     /tmp/cceOdYyw.s:9895   .debug_str:0000000000000648 .LASF159
     /tmp/cceOdYyw.s:9801   .debug_str:00000000000003be .LASF160
     /tmp/cceOdYyw.s:9983   .debug_str:00000000000008f3 .LASF161
     /tmp/cceOdYyw.s:10071  .debug_str:0000000000000c2a .LASF162
     /tmp/cceOdYyw.s:9709   .debug_str:0000000000000077 .LASF261
     /tmp/cceOdYyw.s:9735   .debug_str:000000000000017d .LASF168
     /tmp/cceOdYyw.s:10043  .debug_str:0000000000000b56 .LASF262
     /tmp/cceOdYyw.s:9971   .debug_str:000000000000089e .LASF163
     /tmp/cceOdYyw.s:9991   .debug_str:0000000000000930 .LASF173
     /tmp/cceOdYyw.s:10157  .debug_str:0000000000000e73 .LASF164
     /tmp/cceOdYyw.s:9919   .debug_str:00000000000006ec .LASF165
     /tmp/cceOdYyw.s:9925   .debug_str:000000000000071f .LASF166
     /tmp/cceOdYyw.s:9789   .debug_str:0000000000000335 .LASF167
     /tmp/cceOdYyw.s:10173  .debug_str:0000000000000ee1 .LASF263
     /tmp/cceOdYyw.s:9797   .debug_str:0000000000000384 .LASF170
     /tmp/cceOdYyw.s:9831   .debug_str:000000000000049d .LASF171
     /tmp/cceOdYyw.s:9745   .debug_str:00000000000001c3 .LASF172
     /tmp/cceOdYyw.s:10091  .debug_str:0000000000000c9e .LASF174
     /tmp/cceOdYyw.s:9897   .debug_str:000000000000064f .LASF264
     /tmp/cceOdYyw.s:10205  .debug_str:0000000000000ffc .LASF265
     /tmp/cceOdYyw.s:10053  .debug_str:0000000000000bb9 .LASF242
     /tmp/cceOdYyw.s:10007  .debug_str:00000000000009a3 .LASF175
     /tmp/cceOdYyw.s:10083  .debug_str:0000000000000c73 .LASF176
     /tmp/cceOdYyw.s:9707   .debug_str:0000000000000061 .LASF177
GAS LISTING /tmp/cceOdYyw.s 			page 102


     /tmp/cceOdYyw.s:716    .text._ZN12TestPeriodicD0Ev:0000000000000000 .LFB56
     /tmp/cceOdYyw.s:759    .text._ZN12TestPeriodicD0Ev:000000000000004c .LFE56
     /tmp/cceOdYyw.s:8656   .debug_loc:0000000000000000 .LLST16
     /tmp/cceOdYyw.s:732    .text._ZN12TestPeriodicD0Ev:0000000000000018 .LBB29
     /tmp/cceOdYyw.s:742    .text._ZN12TestPeriodicD0Ev:000000000000002c .LBE29
     /tmp/cceOdYyw.s:8674   .debug_loc:000000000000004c .LLST17
     /tmp/cceOdYyw.s:733    .text._ZN12TestPeriodicD0Ev:0000000000000018 .LBB30
     /tmp/cceOdYyw.s:741    .text._ZN12TestPeriodicD0Ev:000000000000002c .LBE30
     /tmp/cceOdYyw.s:739    .text._ZN12TestPeriodicD0Ev:000000000000002c .LVL68
     /tmp/cceOdYyw.s:746    .text._ZN12TestPeriodicD0Ev:0000000000000038 .LVL69
     /tmp/cceOdYyw.s:10105  .debug_str:0000000000000cf7 .LASF178
     /tmp/cceOdYyw.s:674    .text._ZN12TestPeriodicD2Ev:0000000000000000 .LFB54
     /tmp/cceOdYyw.s:707    .text._ZN12TestPeriodicD2Ev:0000000000000034 .LFE54
     /tmp/cceOdYyw.s:8685   .debug_loc:0000000000000082 .LLST14
     /tmp/cceOdYyw.s:688    .text._ZN12TestPeriodicD2Ev:0000000000000010 .LBB27
     /tmp/cceOdYyw.s:696    .text._ZN12TestPeriodicD2Ev:0000000000000024 .LBE27
     /tmp/cceOdYyw.s:8699   .debug_loc:00000000000000bb .LLST15
     /tmp/cceOdYyw.s:694    .text._ZN12TestPeriodicD2Ev:0000000000000024 .LVL65
     /tmp/cceOdYyw.s:10079  .debug_str:0000000000000c64 .LASF179
     /tmp/cceOdYyw.s:9721   .debug_str:00000000000000eb .LASF183
     /tmp/cceOdYyw.s:2748   .text:0000000000001060 .LFB52
     /tmp/cceOdYyw.s:2817   .text:0000000000001104 .LFE52
     /tmp/cceOdYyw.s:10065  .debug_str:0000000000000c06 .LASF180
     /tmp/cceOdYyw.s:10067  .debug_str:0000000000000c0e .LASF181
     /tmp/cceOdYyw.s:2764   .text:0000000000001084 .LVL317
     /tmp/cceOdYyw.s:2770   .text:0000000000001098 .LVL318
     /tmp/cceOdYyw.s:2778   .text:00000000000010b0 .LVL319
     /tmp/cceOdYyw.s:2785   .text:00000000000010c8 .LVL320
     /tmp/cceOdYyw.s:2791   .text:00000000000010d4 .LVL321
     /tmp/cceOdYyw.s:2798   .text:00000000000010e0 .LVL322
     /tmp/cceOdYyw.s:2804   .text:00000000000010f0 .LVL323
     /tmp/cceOdYyw.s:10209  .debug_str:0000000000001016 .LASF182
     /tmp/cceOdYyw.s:10131  .debug_str:0000000000000da6 .LASF184
     /tmp/cceOdYyw.s:517    .text:00000000000002ec .LFB51
     /tmp/cceOdYyw.s:583    .text:000000000000037c .LFE51
     /tmp/cceOdYyw.s:8713   .debug_loc:00000000000000f4 .LLST10
     /tmp/cceOdYyw.s:544    .text:0000000000000324 .LVL53
     /tmp/cceOdYyw.s:562    .text:0000000000000354 .LVL54
     /tmp/cceOdYyw.s:9867   .debug_str:0000000000000587 .LASF185
     /tmp/cceOdYyw.s:10187  .debug_str:0000000000000f56 .LASF186
     /tmp/cceOdYyw.s:448    .text:0000000000000264 .LFB50
     /tmp/cceOdYyw.s:511    .text:00000000000002ec .LFE50
     /tmp/cceOdYyw.s:8731   .debug_loc:0000000000000140 .LLST9
     /tmp/cceOdYyw.s:475    .text:000000000000029c .LVL47
     /tmp/cceOdYyw.s:485    .text:00000000000002b8 .LVL48
     /tmp/cceOdYyw.s:490    .text:00000000000002c4 .LVL49
     /tmp/cceOdYyw.s:9779   .debug_str:00000000000002ed .LASF187
     /tmp/cceOdYyw.s:10203  .debug_str:0000000000000fe5 .LASF188
     /tmp/cceOdYyw.s:2365   .text:0000000000000dbc .LFB49
     /tmp/cceOdYyw.s:2680   .text:0000000000001010 .LFE49
     /tmp/cceOdYyw.s:9907   .debug_str:00000000000006a8 .LASF189
     /tmp/cceOdYyw.s:9697   .debug_str:0000000000000044 .LASF190
     /tmp/cceOdYyw.s:8749   .debug_loc:000000000000018c .LLST60
     /tmp/cceOdYyw.s:9699   .debug_str:0000000000000049 .LASF191
     /tmp/cceOdYyw.s:8760   .debug_loc:00000000000001c2 .LLST61
     /tmp/cceOdYyw.s:8779   .debug_loc:000000000000021e .LLST62
     /tmp/cceOdYyw.s:8800   .debug_loc:000000000000027e .LLST63
GAS LISTING /tmp/cceOdYyw.s 			page 103


     /tmp/cceOdYyw.s:8821   .debug_loc:00000000000002de .LLST64
     /tmp/cceOdYyw.s:8832   .debug_loc:0000000000000314 .LLST65
     /tmp/cceOdYyw.s:9747   .debug_str:00000000000001d3 .LASF192
     /tmp/cceOdYyw.s:8863   .debug_loc:000000000000039d .LLST66
     /tmp/cceOdYyw.s:9691   .debug_str:0000000000000029 .LASF193
     /tmp/cceOdYyw.s:8874   .debug_loc:00000000000003d3 .LLST67
     /tmp/cceOdYyw.s:10175  .debug_str:0000000000000f0b .LASF194
     /tmp/cceOdYyw.s:8885   .debug_loc:0000000000000409 .LLST68
     /tmp/cceOdYyw.s:9701   .debug_str:000000000000004e .LASF195
     /tmp/cceOdYyw.s:8896   .debug_loc:000000000000043f .LLST69
     /tmp/cceOdYyw.s:9703   .debug_str:0000000000000053 .LASF196
     /tmp/cceOdYyw.s:8911   .debug_loc:0000000000000488 .LLST70
     /tmp/cceOdYyw.s:10177  .debug_str:0000000000000f11 .LASF197
     /tmp/cceOdYyw.s:8934   .debug_loc:00000000000004f7 .LLST71
     /tmp/cceOdYyw.s:10179  .debug_str:0000000000000f17 .LASF198
     /tmp/cceOdYyw.s:8945   .debug_loc:000000000000052d .LLST72
     /tmp/cceOdYyw.s:2397   .text:0000000000000dfc .LBB59
     /tmp/cceOdYyw.s:2432   .text:0000000000000e44 .LBE59
     /tmp/cceOdYyw.s:8960   .debug_loc:0000000000000576 .LLST73
     /tmp/cceOdYyw.s:2411   .text:0000000000000e18 .LVL266
     /tmp/cceOdYyw.s:2429   .text:0000000000000e44 .LVL269
     /tmp/cceOdYyw.s:2644   .text:0000000000000fbc .LVL308
     /tmp/cceOdYyw.s:2396   .text:0000000000000dfc .LVL264
     /tmp/cceOdYyw.s:2469   .text:0000000000000e84 .LVL271
     /tmp/cceOdYyw.s:2475   .text:0000000000000e90 .LVL272
     /tmp/cceOdYyw.s:2482   .text:0000000000000ea0 .LVL274
     /tmp/cceOdYyw.s:2490   .text:0000000000000eb0 .LVL277
     /tmp/cceOdYyw.s:2539   .text:0000000000000ef8 .LVL285
     /tmp/cceOdYyw.s:2548   .text:0000000000000f08 .LVL286
     /tmp/cceOdYyw.s:2554   .text:0000000000000f14 .LVL287
     /tmp/cceOdYyw.s:2562   .text:0000000000000f24 .LVL290
     /tmp/cceOdYyw.s:2590   .text:0000000000000f54 .LVL295
     /tmp/cceOdYyw.s:2600   .text:0000000000000f68 .LVL298
     /tmp/cceOdYyw.s:2610   .text:0000000000000f7c .LVL301
     /tmp/cceOdYyw.s:2620   .text:0000000000000f90 .LVL304
     /tmp/cceOdYyw.s:2652   .text:0000000000000fcc .LVL309
     /tmp/cceOdYyw.s:2657   .text:0000000000000fd8 .LVL310
     /tmp/cceOdYyw.s:2662   .text:0000000000000fe4 .LVL311
     /tmp/cceOdYyw.s:2667   .text:0000000000000ff0 .LVL312
     /tmp/cceOdYyw.s:2672   .text:0000000000000ffc .LVL313
     /tmp/cceOdYyw.s:2677   .text:000000000000100c .LVL314
     /tmp/cceOdYyw.s:10117  .debug_str:0000000000000d4e .LASF199
     /tmp/cceOdYyw.s:9833   .debug_str:00000000000004a2 .LASF200
     /tmp/cceOdYyw.s:2231   .text:0000000000000cb4 .LFB48
     /tmp/cceOdYyw.s:2351   .text:0000000000000dbc .LFE48
     /tmp/cceOdYyw.s:9741   .debug_str:00000000000001b2 .LASF201
     /tmp/cceOdYyw.s:8975   .debug_loc:00000000000005bf .LLST56
     /tmp/cceOdYyw.s:8988   .debug_loc:00000000000005f7 .LLST57
     /tmp/cceOdYyw.s:9975   .debug_str:00000000000008b5 .LASF202
     /tmp/cceOdYyw.s:9003   .debug_loc:0000000000000640 .LLST58
     /tmp/cceOdYyw.s:10059  .debug_str:0000000000000be7 .LASF203
     /tmp/cceOdYyw.s:9010   .debug_loc:0000000000000663 .LLST59
     /tmp/cceOdYyw.s:2248   .text:0000000000000cd8 .LVL244
     /tmp/cceOdYyw.s:2262   .text:0000000000000d00 .LVL247
     /tmp/cceOdYyw.s:2270   .text:0000000000000d14 .LVL249
     /tmp/cceOdYyw.s:2308   .text:0000000000000d5c .LVL254
     /tmp/cceOdYyw.s:2317   .text:0000000000000d70 .LVL256
GAS LISTING /tmp/cceOdYyw.s 			page 104


     /tmp/cceOdYyw.s:2325   .text:0000000000000d80 .LVL258
     /tmp/cceOdYyw.s:2330   .text:0000000000000d90 .LVL259
     /tmp/cceOdYyw.s:2337   .text:0000000000000da4 .LVL260
     /tmp/cceOdYyw.s:2347   .text:0000000000000db8 .LVL263
     /tmp/cceOdYyw.s:9825   .debug_str:0000000000000476 .LASF204
     /tmp/cceOdYyw.s:10107  .debug_str:0000000000000d0d .LASF205
     /tmp/cceOdYyw.s:2052   .text:0000000000000b64 .LFB47
     /tmp/cceOdYyw.s:2217   .text:0000000000000cb4 .LFE47
     /tmp/cceOdYyw.s:9021   .debug_loc:0000000000000699 .LLST50
     /tmp/cceOdYyw.s:9028   .debug_loc:00000000000006bc .LLST51
     /tmp/cceOdYyw.s:9039   .debug_loc:00000000000006f2 .LLST52
     /tmp/cceOdYyw.s:9050   .debug_loc:0000000000000728 .LLST53
     /tmp/cceOdYyw.s:9061   .debug_loc:000000000000075e .LLST54
     /tmp/cceOdYyw.s:9072   .debug_loc:0000000000000794 .LLST55
     /tmp/cceOdYyw.s:2079   .text:0000000000000b9c .LVL212
     /tmp/cceOdYyw.s:2084   .text:0000000000000ba8 .LVL213
     /tmp/cceOdYyw.s:2095   .text:0000000000000bc0 .LVL215
     /tmp/cceOdYyw.s:2103   .text:0000000000000bd0 .LVL218
     /tmp/cceOdYyw.s:2111   .text:0000000000000be0 .LVL221
     /tmp/cceOdYyw.s:2120   .text:0000000000000bf4 .LVL224
     /tmp/cceOdYyw.s:2128   .text:0000000000000c04 .LVL227
     /tmp/cceOdYyw.s:2145   .text:0000000000000c28 .LVL229
     /tmp/cceOdYyw.s:2150   .text:0000000000000c34 .LVL230
     /tmp/cceOdYyw.s:2155   .text:0000000000000c40 .LVL231
     /tmp/cceOdYyw.s:2160   .text:0000000000000c4c .LVL232
     /tmp/cceOdYyw.s:2165   .text:0000000000000c58 .LVL233
     /tmp/cceOdYyw.s:2172   .text:0000000000000c68 .LVL234
     /tmp/cceOdYyw.s:2178   .text:0000000000000c78 .LVL235
     /tmp/cceOdYyw.s:2187   .text:0000000000000c8c .LVL238
     /tmp/cceOdYyw.s:291    .text:000000000000015c .LFB46
     /tmp/cceOdYyw.s:346    .text:00000000000001b8 .LFE46
     /tmp/cceOdYyw.s:9087   .debug_loc:00000000000007dd .LLST5
     /tmp/cceOdYyw.s:307    .text:0000000000000170 .LBB22
     /tmp/cceOdYyw.s:332    .text:00000000000001a4 .LBE22
     /tmp/cceOdYyw.s:9101   .debug_loc:0000000000000816 .LLST6
     /tmp/cceOdYyw.s:320    .text:0000000000000190 .LVL29
     /tmp/cceOdYyw.s:325    .text:000000000000019c .LVL30
     /tmp/cceOdYyw.s:9815   .debug_str:000000000000042a .LASF206
     /tmp/cceOdYyw.s:1918   .text:0000000000000ac4 .LFB44
     /tmp/cceOdYyw.s:1953   .text:0000000000000b04 .LFE44
     /tmp/cceOdYyw.s:9117   .debug_loc:0000000000000860 .LLST47
     /tmp/cceOdYyw.s:9135   .debug_loc:00000000000008ac .LLST48
     /tmp/cceOdYyw.s:1936   .text:0000000000000ae4 .LVL204
     /tmp/cceOdYyw.s:9787   .debug_str:000000000000031d .LASF207
     /tmp/cceOdYyw.s:627    .text._ZN14PeriodicThreadD0Ev:0000000000000000 .LFB43
     /tmp/cceOdYyw.s:667    .text._ZN14PeriodicThreadD0Ev:000000000000004c .LFE43
     /tmp/cceOdYyw.s:9149   .debug_loc:00000000000008e5 .LLST12
     /tmp/cceOdYyw.s:643    .text._ZN14PeriodicThreadD0Ev:0000000000000018 .LBB25
     /tmp/cceOdYyw.s:651    .text._ZN14PeriodicThreadD0Ev:000000000000002c .LBE25
     /tmp/cceOdYyw.s:9167   .debug_loc:0000000000000931 .LLST13
     /tmp/cceOdYyw.s:649    .text._ZN14PeriodicThreadD0Ev:000000000000002c .LVL60
     /tmp/cceOdYyw.s:654    .text._ZN14PeriodicThreadD0Ev:0000000000000038 .LVL61
     /tmp/cceOdYyw.s:10211  .debug_str:0000000000001020 .LASF208
     /tmp/cceOdYyw.s:590    .text._ZN14PeriodicThreadD2Ev:0000000000000000 .LFB41
     /tmp/cceOdYyw.s:618    .text._ZN14PeriodicThreadD2Ev:0000000000000034 .LFE41
     /tmp/cceOdYyw.s:9178   .debug_loc:0000000000000967 .LLST11
     /tmp/cceOdYyw.s:607    .text._ZN14PeriodicThreadD2Ev:0000000000000024 .LVL57
GAS LISTING /tmp/cceOdYyw.s 			page 105


     /tmp/cceOdYyw.s:10109  .debug_str:0000000000000d1d .LASF209
     /tmp/cceOdYyw.s:9847   .debug_str:0000000000000501 .LASF210
     /tmp/cceOdYyw.s:2717   .text:0000000000001038 .LFB38
     /tmp/cceOdYyw.s:2742   .text:0000000000001060 .LFE38
     /tmp/cceOdYyw.s:2731   .text:0000000000001050 .LVL316
     /tmp/cceOdYyw.s:10141  .debug_str:0000000000000e02 .LASF211
     /tmp/cceOdYyw.s:9733   .debug_str:0000000000000169 .LASF212
     /tmp/cceOdYyw.s:2823   .text:0000000000001104 .LFB37
     /tmp/cceOdYyw.s:2848   .text:000000000000112c .LFE37
     /tmp/cceOdYyw.s:2837   .text:000000000000111c .LVL324
     /tmp/cceOdYyw.s:10137  .debug_str:0000000000000dd4 .LASF213
     /tmp/cceOdYyw.s:9931   .debug_str:000000000000074a .LASF214
     /tmp/cceOdYyw.s:2686   .text:0000000000001010 .LFB36
     /tmp/cceOdYyw.s:2711   .text:0000000000001038 .LFE36
     /tmp/cceOdYyw.s:2700   .text:0000000000001028 .LVL315
     /tmp/cceOdYyw.s:9965   .debug_str:0000000000000866 .LASF215
     /tmp/cceOdYyw.s:9809   .debug_str:00000000000003ff .LASF216
     /tmp/cceOdYyw.s:1693   .text:0000000000000924 .LFB35
     /tmp/cceOdYyw.s:1912   .text:0000000000000ac4 .LFE35
     /tmp/cceOdYyw.s:9771   .debug_str:00000000000002b6 .LASF217
     /tmp/cceOdYyw.s:9192   .debug_loc:00000000000009a0 .LLST41
     /tmp/cceOdYyw.s:1713   .text:000000000000094c .LBB50
     /tmp/cceOdYyw.s:1745   .text:0000000000000990 .LBE50
     /tmp/cceOdYyw.s:9203   .debug_loc:00000000000009d6 .LLST42
     /tmp/cceOdYyw.s:1730   .text:000000000000096c .LVL178
     /tmp/cceOdYyw.s:1742   .text:0000000000000990 .LVL179
     /tmp/cceOdYyw.s:1771   .text:00000000000009b0 .LBB52
     /tmp/cceOdYyw.s:1834   .text:0000000000000a30 .LBE52
     /tmp/cceOdYyw.s:9214   .debug_loc:0000000000000a0c .LLST43
     /tmp/cceOdYyw.s:9929   .debug_str:0000000000000743 .LASF218
     /tmp/cceOdYyw.s:9225   .debug_loc:0000000000000a42 .LLST44
     /tmp/cceOdYyw.s:1787   .text:00000000000009d4 .LVL183
     /tmp/cceOdYyw.s:1798   .text:00000000000009ec .LVL185
     /tmp/cceOdYyw.s:1821   .text:0000000000000a18 .LVL189
     /tmp/cceOdYyw.s:1829   .text:0000000000000a2c .LVL190
     /tmp/cceOdYyw.s:1835   .text:0000000000000a30 .LBB55
     /tmp/cceOdYyw.s:1895   .text:0000000000000aa8 .LBE55
     /tmp/cceOdYyw.s:9236   .debug_loc:0000000000000a78 .LLST45
     /tmp/cceOdYyw.s:9247   .debug_loc:0000000000000aae .LLST46
     /tmp/cceOdYyw.s:1851   .text:0000000000000a54 .LVL192
     /tmp/cceOdYyw.s:1859   .text:0000000000000a64 .LVL194
     /tmp/cceOdYyw.s:1882   .text:0000000000000a90 .LVL198
     /tmp/cceOdYyw.s:1890   .text:0000000000000aa4 .LVL199
     /tmp/cceOdYyw.s:1712   .text:000000000000094c .LVL175
     /tmp/cceOdYyw.s:1909   .text:0000000000000ac0 .LVL202
     /tmp/cceOdYyw.s:9873   .debug_str:00000000000005c0 .LASF219
     /tmp/cceOdYyw.s:10167  .debug_str:0000000000000eb8 .LASF220
     /tmp/cceOdYyw.s:1621   .text:00000000000008b4 .LFB34
     /tmp/cceOdYyw.s:1679   .text:0000000000000924 .LFE34
     /tmp/cceOdYyw.s:9258   .debug_loc:0000000000000ae4 .LLST39
     /tmp/cceOdYyw.s:9271   .debug_loc:0000000000000b1c .LLST40
     /tmp/cceOdYyw.s:1636   .text:00000000000008d4 .LVL166
     /tmp/cceOdYyw.s:1641   .text:00000000000008e0 .LVL167
     /tmp/cceOdYyw.s:1647   .text:00000000000008ec .LVL169
     /tmp/cceOdYyw.s:1655   .text:0000000000000900 .LVL171
     /tmp/cceOdYyw.s:1675   .text:0000000000000920 .LVL174
     /tmp/cceOdYyw.s:9977   .debug_str:00000000000008bf .LASF221
GAS LISTING /tmp/cceOdYyw.s 			page 106


     /tmp/cceOdYyw.s:9963   .debug_str:000000000000084f .LASF222
     /tmp/cceOdYyw.s:1485   .text:00000000000007dc .LFB33
     /tmp/cceOdYyw.s:1610   .text:00000000000008b4 .LFE33
     /tmp/cceOdYyw.s:9298   .debug_loc:0000000000000b62 .LLST35
     /tmp/cceOdYyw.s:9310   .debug_loc:0000000000000b99 .LLST36
     /tmp/cceOdYyw.s:9326   .debug_loc:0000000000000be3 .LLST37
     /tmp/cceOdYyw.s:9342   .debug_loc:0000000000000c2d .LLST38
     /tmp/cceOdYyw.s:1551   .text:0000000000000844 .LVL156
     /tmp/cceOdYyw.s:1506   .text:0000000000000808 .LVL151
     /tmp/cceOdYyw.s:1562   .text:0000000000000854 .LVL158
     /tmp/cceOdYyw.s:1567   .text:0000000000000864 .LVL159
     /tmp/cceOdYyw.s:1580   .text:0000000000000884 .LVL161
     /tmp/cceOdYyw.s:1607   .text:00000000000008b0 .LVL165
     /tmp/cceOdYyw.s:9685   .debug_str:0000000000000000 .LASF223
     /tmp/cceOdYyw.s:10195  .debug_str:0000000000000fa0 .LASF224
     /tmp/cceOdYyw.s:1414   .text:000000000000075c .LFB32
     /tmp/cceOdYyw.s:1474   .text:00000000000007dc .LFE32
     /tmp/cceOdYyw.s:9353   .debug_loc:0000000000000c63 .LLST33
     /tmp/cceOdYyw.s:9366   .debug_loc:0000000000000c9c .LLST34
     /tmp/cceOdYyw.s:1429   .text:000000000000077c .LVL142
     /tmp/cceOdYyw.s:1443   .text:00000000000007a4 .LVL145
     /tmp/cceOdYyw.s:1451   .text:00000000000007b8 .LVL147
     /tmp/cceOdYyw.s:1471   .text:00000000000007d8 .LVL150
     /tmp/cceOdYyw.s:9687   .debug_str:000000000000000a .LASF225
     /tmp/cceOdYyw.s:9795   .debug_str:0000000000000374 .LASF226
     /tmp/cceOdYyw.s:1216   .text:00000000000005fc .LFB31
     /tmp/cceOdYyw.s:1403   .text:000000000000075c .LFE31
     /tmp/cceOdYyw.s:1234   .text:0000000000000620 .LBB38
     /tmp/cceOdYyw.s:1266   .text:0000000000000664 .LBE38
     /tmp/cceOdYyw.s:9377   .debug_loc:0000000000000cd2 .LLST27
     /tmp/cceOdYyw.s:1251   .text:0000000000000640 .LVL121
     /tmp/cceOdYyw.s:1263   .text:0000000000000664 .LVL122
     /tmp/cceOdYyw.s:1282   .text:0000000000000678 .LBB39
     /tmp/cceOdYyw.s:1321   .text:00000000000006bc .LBE39
     /tmp/cceOdYyw.s:9388   .debug_loc:0000000000000d08 .LLST28
     /tmp/cceOdYyw.s:9399   .debug_loc:0000000000000d3e .LLST29
     /tmp/cceOdYyw.s:1298   .text:000000000000069c .LVL125
     /tmp/cceOdYyw.s:1316   .text:00000000000006b8 .LVL129
     /tmp/cceOdYyw.s:1322   .text:00000000000006bc .LBB42
     /tmp/cceOdYyw.s:1357   .text:0000000000000704 .LBE42
     /tmp/cceOdYyw.s:9406   .debug_loc:0000000000000d61 .LLST30
     /tmp/cceOdYyw.s:1341   .text:00000000000006dc .LVL133
     /tmp/cceOdYyw.s:1353   .text:0000000000000700 .LVL134
     /tmp/cceOdYyw.s:1358   .text:0000000000000704 .LBB43
     /tmp/cceOdYyw.s:1395   .text:0000000000000748 .LBE43
     /tmp/cceOdYyw.s:9413   .debug_loc:0000000000000d84 .LLST31
     /tmp/cceOdYyw.s:9424   .debug_loc:0000000000000dba .LLST32
     /tmp/cceOdYyw.s:1374   .text:0000000000000728 .LVL136
     /tmp/cceOdYyw.s:1390   .text:0000000000000744 .LVL140
     /tmp/cceOdYyw.s:1233   .text:0000000000000620 .LVL118
     /tmp/cceOdYyw.s:1400   .text:0000000000000758 .LVL141
     /tmp/cceOdYyw.s:10035  .debug_str:0000000000000b12 .LASF266
     /tmp/cceOdYyw.s:10189  .debug_str:0000000000000f65 .LASF267
     /tmp/cceOdYyw.s:1182   .text:00000000000005e4 .LFB30
     /tmp/cceOdYyw.s:1199   .text:00000000000005fc .LFE30
     /tmp/cceOdYyw.s:10005  .debug_str:0000000000000997 .LASF227
     /tmp/cceOdYyw.s:10051  .debug_str:0000000000000ba8 .LASF228
GAS LISTING /tmp/cceOdYyw.s 			page 107


     /tmp/cceOdYyw.s:2015   .text:0000000000000b64 .LFE29
     /tmp/cceOdYyw.s:9431   .debug_loc:0000000000000ddd .LLST49
     /tmp/cceOdYyw.s:1983   .text:0000000000000b28 .LVL206
     /tmp/cceOdYyw.s:1989   .text:0000000000000b38 .LVL207
     /tmp/cceOdYyw.s:1996   .text:0000000000000b44 .LVL208
     /tmp/cceOdYyw.s:2008   .text:0000000000000b58 .LVL210
     /tmp/cceOdYyw.s:2012   .text:0000000000000b64 .LVL211
     /tmp/cceOdYyw.s:9849   .debug_str:000000000000050d .LASF229
     /tmp/cceOdYyw.s:10013  .debug_str:00000000000009c6 .LASF230
     /tmp/cceOdYyw.s:1129   .text:00000000000005e4 .LFE28
     /tmp/cceOdYyw.s:9817   .debug_str:0000000000000440 .LASF231
     /tmp/cceOdYyw.s:9438   .debug_loc:0000000000000e00 .LLST23
     /tmp/cceOdYyw.s:9453   .debug_loc:0000000000000e49 .LLST24
     /tmp/cceOdYyw.s:9460   .debug_loc:0000000000000e6c .LLST25
     /tmp/cceOdYyw.s:1055   .text:0000000000000554 .LBB36
     /tmp/cceOdYyw.s:1062   .text:0000000000000558 .LBE36
     /tmp/cceOdYyw.s:9467   .debug_loc:0000000000000e8f .LLST26
     /tmp/cceOdYyw.s:991    .text:00000000000004c4 .LVL93
     /tmp/cceOdYyw.s:998    .text:00000000000004dc .LVL94
     /tmp/cceOdYyw.s:1005   .text:00000000000004e8 .LVL95
     /tmp/cceOdYyw.s:1010   .text:00000000000004f4 .LVL96
     /tmp/cceOdYyw.s:1017   .text:000000000000050c .LVL97
     /tmp/cceOdYyw.s:1024   .text:0000000000000518 .LVL98
     /tmp/cceOdYyw.s:1029   .text:0000000000000524 .LVL99
     /tmp/cceOdYyw.s:1037   .text:000000000000053c .LVL101
     /tmp/cceOdYyw.s:1044   .text:0000000000000548 .LVL102
     /tmp/cceOdYyw.s:1048   .text:0000000000000550 .LVL103
     /tmp/cceOdYyw.s:1070   .text:0000000000000570 .LVL106
     /tmp/cceOdYyw.s:1074   .text:0000000000000578 .LVL107
     /tmp/cceOdYyw.s:1098   .text:00000000000005a0 .LVL110
     /tmp/cceOdYyw.s:1102   .text:00000000000005ac .LVL111
     /tmp/cceOdYyw.s:1110   .text:00000000000005bc .LVL113
     /tmp/cceOdYyw.s:1114   .text:00000000000005c8 .LVL114
     /tmp/cceOdYyw.s:1122   .text:00000000000005d8 .LVL116
     /tmp/cceOdYyw.s:1126   .text:00000000000005e4 .LVL117
     /tmp/cceOdYyw.s:10001  .debug_str:0000000000000982 .LASF232
     /tmp/cceOdYyw.s:9811   .debug_str:0000000000000412 .LASF233
     /tmp/cceOdYyw.s:927    .text:00000000000004a0 .LFE27
     /tmp/cceOdYyw.s:9474   .debug_loc:0000000000000eb2 .LLST19
     /tmp/cceOdYyw.s:9485   .debug_loc:0000000000000ee8 .LLST20
     /tmp/cceOdYyw.s:850    .text:000000000000041c .LBB32
     /tmp/cceOdYyw.s:858    .text:0000000000000420 .LBE32
     /tmp/cceOdYyw.s:9492   .debug_loc:0000000000000f0b .LLST21
     /tmp/cceOdYyw.s:865    .text:000000000000042c .LBB34
     /tmp/cceOdYyw.s:872    .text:0000000000000430 .LBE34
     /tmp/cceOdYyw.s:9499   .debug_loc:0000000000000f2e .LLST22
     /tmp/cceOdYyw.s:795    .text:00000000000003a0 .LVL71
     /tmp/cceOdYyw.s:802    .text:00000000000003b8 .LVL72
     /tmp/cceOdYyw.s:809    .text:00000000000003c4 .LVL73
     /tmp/cceOdYyw.s:814    .text:00000000000003d0 .LVL74
     /tmp/cceOdYyw.s:821    .text:00000000000003e8 .LVL75
     /tmp/cceOdYyw.s:828    .text:00000000000003f4 .LVL76
     /tmp/cceOdYyw.s:832    .text:00000000000003fc .LVL77
     /tmp/cceOdYyw.s:839    .text:0000000000000410 .LVL78
     /tmp/cceOdYyw.s:843    .text:0000000000000418 .LVL79
     /tmp/cceOdYyw.s:880    .text:0000000000000448 .LVL84
     /tmp/cceOdYyw.s:884    .text:0000000000000450 .LVL85
GAS LISTING /tmp/cceOdYyw.s 			page 108


     /tmp/cceOdYyw.s:908    .text:0000000000000478 .LVL88
     /tmp/cceOdYyw.s:912    .text:0000000000000484 .LVL89
     /tmp/cceOdYyw.s:920    .text:0000000000000494 .LVL91
     /tmp/cceOdYyw.s:924    .text:00000000000004a0 .LVL92
     /tmp/cceOdYyw.s:9989   .debug_str:000000000000091b .LASF234
     /tmp/cceOdYyw.s:9953   .debug_str:0000000000000806 .LASF235
     /tmp/cceOdYyw.s:352    .text:00000000000001b8 .LFB26
     /tmp/cceOdYyw.s:442    .text:0000000000000264 .LFE26
     /tmp/cceOdYyw.s:9506   .debug_loc:0000000000000f51 .LLST7
     /tmp/cceOdYyw.s:374    .text:00000000000001dc .LBB23
     /tmp/cceOdYyw.s:428    .text:0000000000000250 .LBE23
     /tmp/cceOdYyw.s:9520   .debug_loc:0000000000000f8a .LLST8
     /tmp/cceOdYyw.s:383    .text:00000000000001ec .LVL38
     /tmp/cceOdYyw.s:389    .text:00000000000001f8 .LVL39
     /tmp/cceOdYyw.s:395    .text:0000000000000208 .LVL40
     /tmp/cceOdYyw.s:400    .text:0000000000000214 .LVL41
     /tmp/cceOdYyw.s:405    .text:0000000000000224 .LVL42
     /tmp/cceOdYyw.s:371    .text:00000000000001dc .LVL36
     /tmp/cceOdYyw.s:9713   .debug_str:0000000000000094 .LASF236
     /tmp/cceOdYyw.s:9839   .debug_str:00000000000004c7 .LASF237
     /tmp/cceOdYyw.s:205    .text:00000000000000c4 .LFB25
     /tmp/cceOdYyw.s:285    .text:000000000000015c .LFE25
     /tmp/cceOdYyw.s:9532   .debug_loc:0000000000000fc1 .LLST3
     /tmp/cceOdYyw.s:227    .text:00000000000000e8 .LBB21
     /tmp/cceOdYyw.s:271    .text:0000000000000148 .LBE21
     /tmp/cceOdYyw.s:9546   .debug_loc:0000000000000ffa .LLST4
     /tmp/cceOdYyw.s:236    .text:00000000000000f8 .LVL20
     /tmp/cceOdYyw.s:242    .text:0000000000000108 .LVL21
     /tmp/cceOdYyw.s:247    .text:0000000000000114 .LVL22
     /tmp/cceOdYyw.s:252    .text:0000000000000124 .LVL23
     /tmp/cceOdYyw.s:224    .text:00000000000000e8 .LVL18
     /tmp/cceOdYyw.s:10077  .debug_str:0000000000000c54 .LASF238
     /tmp/cceOdYyw.s:10153  .debug_str:0000000000000e45 .LASF239
     /tmp/cceOdYyw.s:111    .text:000000000000002c .LFB24
     /tmp/cceOdYyw.s:191    .text:00000000000000c4 .LFE24
     /tmp/cceOdYyw.s:9558   .debug_loc:0000000000001031 .LLST1
     /tmp/cceOdYyw.s:133    .text:0000000000000050 .LBB20
     /tmp/cceOdYyw.s:177    .text:00000000000000b0 .LBE20
     /tmp/cceOdYyw.s:9572   .debug_loc:000000000000106a .LLST2
     /tmp/cceOdYyw.s:142    .text:0000000000000060 .LVL10
     /tmp/cceOdYyw.s:148    .text:0000000000000070 .LVL11
     /tmp/cceOdYyw.s:153    .text:000000000000007c .LVL12
     /tmp/cceOdYyw.s:158    .text:000000000000008c .LVL13
     /tmp/cceOdYyw.s:130    .text:0000000000000050 .LVL8
     /tmp/cceOdYyw.s:10221  .debug_str:0000000000001077 .LASF240
     /tmp/cceOdYyw.s:9921   .debug_str:0000000000000706 .LASF241
     /tmp/cceOdYyw.s:66     .text:0000000000000000 .LFB23
     /tmp/cceOdYyw.s:94     .text:000000000000002c .LFE23
     /tmp/cceOdYyw.s:9584   .debug_loc:00000000000010a1 .LLST0
     /tmp/cceOdYyw.s:86     .text:0000000000000020 .LVL4
     /tmp/cceOdYyw.s:90     .text:0000000000000028 .LVL5
     /tmp/cceOdYyw.s:37     .text._ZN14PeriodicThread18periodicActivationEv:0000000000000000 .LFB22
     /tmp/cceOdYyw.s:55     .text._ZN14PeriodicThread18periodicActivationEv:0000000000000018 .LFE22
     /tmp/cceOdYyw.s:11     .text._ZN6Thread3runEv:0000000000000000 .LFB21
     /tmp/cceOdYyw.s:30     .text._ZN6Thread3runEv:0000000000000018 .LFE21
     /tmp/cceOdYyw.s:9945   .debug_str:00000000000007c7 .LASF243
     /tmp/cceOdYyw.s:9973   .debug_str:00000000000008ac .LASF244
GAS LISTING /tmp/cceOdYyw.s 			page 109


     /tmp/cceOdYyw.s:9805   .debug_str:00000000000003de .LASF245
     /tmp/cceOdYyw.s:10089  .debug_str:0000000000000c8e .LASF246
     /tmp/cceOdYyw.s:9939   .debug_str:00000000000007aa .LASF247
     /tmp/cceOdYyw.s:9863   .debug_str:0000000000000569 .LASF248
     /tmp/cceOdYyw.s:9959   .debug_str:0000000000000841 .LASF249
     /tmp/cceOdYyw.s:9693   .debug_str:000000000000002f .LASF250
     /tmp/cceOdYyw.s:9837   .debug_str:00000000000004c1 .LASF251
     /tmp/cceOdYyw.s:9705   .debug_str:0000000000000058 .LASF252
     /tmp/cceOdYyw.s:10119  .debug_str:0000000000000d5f .LASF268
     /tmp/cceOdYyw.s:9717   .debug_str:00000000000000b7 .LASF269
     /tmp/cceOdYyw.s:9913   .debug_str:00000000000006c9 .LASF253
     /tmp/cceOdYyw.s:719    .text._ZN12TestPeriodicD0Ev:0000000000000000 .LVL66
     /tmp/cceOdYyw.s:754    .text._ZN12TestPeriodicD0Ev:0000000000000044 .LVL70
     /tmp/cceOdYyw.s:731    .text._ZN12TestPeriodicD0Ev:0000000000000018 .LVL67
     /tmp/cceOdYyw.s:678    .text._ZN12TestPeriodicD2Ev:0000000000000000 .LVL63
     /tmp/cceOdYyw.s:687    .text._ZN12TestPeriodicD2Ev:0000000000000010 .LVL64
     /tmp/cceOdYyw.s:520    .text:00000000000002ec .LVL51
     /tmp/cceOdYyw.s:537    .text:0000000000000310 .LVL52
     /tmp/cceOdYyw.s:579    .text:0000000000000378 .LVL55
     /tmp/cceOdYyw.s:451    .text:0000000000000264 .LVL45
     /tmp/cceOdYyw.s:468    .text:0000000000000288 .LVL46
     /tmp/cceOdYyw.s:507    .text:00000000000002e8 .LVL50
     /tmp/cceOdYyw.s:2484   .text:0000000000000ea4 .LVL275
     /tmp/cceOdYyw.s:2488   .text:0000000000000ea8 .LVL276
     /tmp/cceOdYyw.s:2492   .text:0000000000000eb4 .LVL278
     /tmp/cceOdYyw.s:2506   .text:0000000000000ec8 .LVL280
     /tmp/cceOdYyw.s:2582   .text:0000000000000f44 .LVL293
     /tmp/cceOdYyw.s:2588   .text:0000000000000f4c .LVL294
     /tmp/cceOdYyw.s:2502   .text:0000000000000ec4 .LVL279
     /tmp/cceOdYyw.s:2593   .text:0000000000000f58 .LVL296
     /tmp/cceOdYyw.s:2598   .text:0000000000000f60 .LVL297
     /tmp/cceOdYyw.s:2510   .text:0000000000000ecc .LVL281
     /tmp/cceOdYyw.s:2514   .text:0000000000000ed0 .LVL282
     /tmp/cceOdYyw.s:2637   .text:0000000000000fa8 .LVL307
     /tmp/cceOdYyw.s:2519   .text:0000000000000ed4 .LVL283
     /tmp/cceOdYyw.s:2523   .text:0000000000000ed8 .LVL284
     /tmp/cceOdYyw.s:2556   .text:0000000000000f18 .LVL288
     /tmp/cceOdYyw.s:2560   .text:0000000000000f1c .LVL289
     /tmp/cceOdYyw.s:2603   .text:0000000000000f6c .LVL299
     /tmp/cceOdYyw.s:2564   .text:0000000000000f28 .LVL291
     /tmp/cceOdYyw.s:2608   .text:0000000000000f74 .LVL300
     /tmp/cceOdYyw.s:2613   .text:0000000000000f80 .LVL302
     /tmp/cceOdYyw.s:2618   .text:0000000000000f88 .LVL303
     /tmp/cceOdYyw.s:2570   .text:0000000000000f30 .LVL292
     /tmp/cceOdYyw.s:2401   .text:0000000000000e00 .LVL265
     /tmp/cceOdYyw.s:2421   .text:0000000000000e30 .LVL267
     /tmp/cceOdYyw.s:2423   .text:0000000000000e34 .LVL268
     /tmp/cceOdYyw.s:2459   .text:0000000000000e74 .LVL270
     /tmp/cceOdYyw.s:2477   .text:0000000000000e94 .LVL273
     /tmp/cceOdYyw.s:2256   .text:0000000000000cf4 .LVL245
     /tmp/cceOdYyw.s:2260   .text:0000000000000cf8 .LVL246
     /tmp/cceOdYyw.s:2268   .text:0000000000000d0c .LVL248
     /tmp/cceOdYyw.s:2285   .text:0000000000000d28 .LVL250
     /tmp/cceOdYyw.s:2292   .text:0000000000000d34 .LVL251
     /tmp/cceOdYyw.s:2310   .text:0000000000000d60 .LVL255
     /tmp/cceOdYyw.s:2302   .text:0000000000000d50 .LVL252
     /tmp/cceOdYyw.s:2306   .text:0000000000000d54 .LVL253
GAS LISTING /tmp/cceOdYyw.s 			page 110


     /tmp/cceOdYyw.s:2323   .text:0000000000000d78 .LVL257
     /tmp/cceOdYyw.s:2340   .text:0000000000000da8 .LVL261
     /tmp/cceOdYyw.s:2345   .text:0000000000000db0 .LVL262
     /tmp/cceOdYyw.s:2086   .text:0000000000000bac .LVL214
     /tmp/cceOdYyw.s:2198   .text:0000000000000c98 .LVL239
     /tmp/cceOdYyw.s:2097   .text:0000000000000bc4 .LVL216
     /tmp/cceOdYyw.s:2101   .text:0000000000000bc8 .LVL217
     /tmp/cceOdYyw.s:2201   .text:0000000000000c9c .LVL240
     /tmp/cceOdYyw.s:2105   .text:0000000000000bd4 .LVL219
     /tmp/cceOdYyw.s:2109   .text:0000000000000bd8 .LVL220
     /tmp/cceOdYyw.s:2204   .text:0000000000000ca0 .LVL241
     /tmp/cceOdYyw.s:2113   .text:0000000000000be4 .LVL222
     /tmp/cceOdYyw.s:2117   .text:0000000000000be8 .LVL223
     /tmp/cceOdYyw.s:2207   .text:0000000000000ca4 .LVL242
     /tmp/cceOdYyw.s:2122   .text:0000000000000bf8 .LVL225
     /tmp/cceOdYyw.s:2126   .text:0000000000000bfc .LVL226
     /tmp/cceOdYyw.s:2210   .text:0000000000000ca8 .LVL243
     /tmp/cceOdYyw.s:2143   .text:0000000000000c20 .LVL228
     /tmp/cceOdYyw.s:2180   .text:0000000000000c7c .LVL236
     /tmp/cceOdYyw.s:2185   .text:0000000000000c84 .LVL237
     /tmp/cceOdYyw.s:294    .text:000000000000015c .LVL26
     /tmp/cceOdYyw.s:310    .text:0000000000000174 .LVL28
     /tmp/cceOdYyw.s:306    .text:0000000000000170 .LVL27
     /tmp/cceOdYyw.s:328    .text:00000000000001a0 .LVL31
     /tmp/cceOdYyw.s:330    .text:00000000000001a4 .LVL32
     /tmp/cceOdYyw.s:341    .text:00000000000001b0 .LVL33
     /tmp/cceOdYyw.s:1921   .text:0000000000000ac4 .LVL203
     /tmp/cceOdYyw.s:1948   .text:0000000000000afc .LVL205
     /tmp/cceOdYyw.s:630    .text._ZN14PeriodicThreadD0Ev:0000000000000000 .LVL58
     /tmp/cceOdYyw.s:662    .text._ZN14PeriodicThreadD0Ev:0000000000000044 .LVL62
     /tmp/cceOdYyw.s:642    .text._ZN14PeriodicThreadD0Ev:0000000000000018 .LVL59
     /tmp/cceOdYyw.s:593    .text._ZN14PeriodicThreadD2Ev:0000000000000000 .LVL56
     /tmp/cceOdYyw.s:1765   .text:00000000000009ac .LVL181
     /tmp/cceOdYyw.s:1899   .text:0000000000000aac .LVL200
     /tmp/cceOdYyw.s:1903   .text:0000000000000ab0 .LVL201
     /tmp/cceOdYyw.s:1717   .text:0000000000000954 .LVL176
     /tmp/cceOdYyw.s:1760   .text:00000000000009a8 .LVL180
     /tmp/cceOdYyw.s:1775   .text:00000000000009b4 .LVL182
     /tmp/cceOdYyw.s:1810   .text:0000000000000a04 .LVL186
     /tmp/cceOdYyw.s:1813   .text:0000000000000a08 .LVL187
     /tmp/cceOdYyw.s:1838   .text:0000000000000a34 .LVL191
     /tmp/cceOdYyw.s:1793   .text:00000000000009dc .LVL184
     /tmp/cceOdYyw.s:1819   .text:0000000000000a10 .LVL188
     /tmp/cceOdYyw.s:1871   .text:0000000000000a7c .LVL195
     /tmp/cceOdYyw.s:1874   .text:0000000000000a80 .LVL196
     /tmp/cceOdYyw.s:1857   .text:0000000000000a5c .LVL193
     /tmp/cceOdYyw.s:1880   .text:0000000000000a88 .LVL197
     /tmp/cceOdYyw.s:1645   .text:00000000000008e4 .LVL168
     /tmp/cceOdYyw.s:1653   .text:00000000000008f8 .LVL170
     /tmp/cceOdYyw.s:1667   .text:0000000000000910 .LVL172
     /tmp/cceOdYyw.s:1673   .text:0000000000000918 .LVL173
     /tmp/cceOdYyw.s:1521   .text:0000000000000818 .LVL152
     /tmp/cceOdYyw.s:1572   .text:000000000000086c .LVL160
     /tmp/cceOdYyw.s:1596   .text:0000000000000898 .LVL163
     /tmp/cceOdYyw.s:1600   .text:00000000000008a0 .LVL164
     /tmp/cceOdYyw.s:1591   .text:0000000000000890 .LVL162
     /tmp/cceOdYyw.s:1540   .text:000000000000082c .LVL155
GAS LISTING /tmp/cceOdYyw.s 			page 111


     /tmp/cceOdYyw.s:1554   .text:0000000000000848 .LVL157
     /tmp/cceOdYyw.s:1437   .text:0000000000000798 .LVL143
     /tmp/cceOdYyw.s:1441   .text:000000000000079c .LVL144
     /tmp/cceOdYyw.s:1449   .text:00000000000007b0 .LVL146
     /tmp/cceOdYyw.s:1463   .text:00000000000007c8 .LVL148
     /tmp/cceOdYyw.s:1469   .text:00000000000007d0 .LVL149
     /tmp/cceOdYyw.s:1238   .text:0000000000000628 .LVL119
     /tmp/cceOdYyw.s:1279   .text:0000000000000678 .LVL123
     /tmp/cceOdYyw.s:1285   .text:000000000000067c .LVL124
     /tmp/cceOdYyw.s:1305   .text:00000000000006a4 .LVL126
     /tmp/cceOdYyw.s:1308   .text:00000000000006a8 .LVL127
     /tmp/cceOdYyw.s:1325   .text:00000000000006c0 .LVL130
     /tmp/cceOdYyw.s:1314   .text:00000000000006b0 .LVL128
     /tmp/cceOdYyw.s:1327   .text:00000000000006c4 .LVL131
     /tmp/cceOdYyw.s:1361   .text:0000000000000708 .LVL135
     /tmp/cceOdYyw.s:1380   .text:0000000000000730 .LVL137
     /tmp/cceOdYyw.s:1382   .text:0000000000000734 .LVL138
     /tmp/cceOdYyw.s:1388   .text:000000000000073c .LVL139
     /tmp/cceOdYyw.s:2002   .text:0000000000000b48 .LVL209
     /tmp/cceOdYyw.s:1085   .text:0000000000000584 .LVL108
     /tmp/cceOdYyw.s:1106   .text:00000000000005b0 .LVL112
     /tmp/cceOdYyw.s:1118   .text:00000000000005cc .LVL115
     /tmp/cceOdYyw.s:1032   .text:0000000000000528 .LVL100
     /tmp/cceOdYyw.s:1088   .text:0000000000000588 .LVL109
     /tmp/cceOdYyw.s:1054   .text:0000000000000554 .LVL104
     /tmp/cceOdYyw.s:1060   .text:0000000000000558 .LVL105
     /tmp/cceOdYyw.s:895    .text:000000000000045c .LVL86
     /tmp/cceOdYyw.s:916    .text:0000000000000488 .LVL90
     /tmp/cceOdYyw.s:898    .text:0000000000000460 .LVL87
     /tmp/cceOdYyw.s:849    .text:000000000000041c .LVL80
     /tmp/cceOdYyw.s:856    .text:0000000000000420 .LVL81
     /tmp/cceOdYyw.s:864    .text:000000000000042c .LVL82
     /tmp/cceOdYyw.s:870    .text:0000000000000430 .LVL83
     /tmp/cceOdYyw.s:355    .text:00000000000001b8 .LVL34
     /tmp/cceOdYyw.s:369    .text:00000000000001d4 .LVL35
     /tmp/cceOdYyw.s:378    .text:00000000000001e4 .LVL37
     /tmp/cceOdYyw.s:437    .text:000000000000025c .LVL44
     /tmp/cceOdYyw.s:208    .text:00000000000000c4 .LVL16
     /tmp/cceOdYyw.s:222    .text:00000000000000e0 .LVL17
     /tmp/cceOdYyw.s:231    .text:00000000000000f0 .LVL19
     /tmp/cceOdYyw.s:280    .text:0000000000000154 .LVL25
     /tmp/cceOdYyw.s:114    .text:000000000000002c .LVL6
     /tmp/cceOdYyw.s:128    .text:0000000000000048 .LVL7
     /tmp/cceOdYyw.s:137    .text:0000000000000058 .LVL9
     /tmp/cceOdYyw.s:186    .text:00000000000000bc .LVL15
     /tmp/cceOdYyw.s:70     .text:0000000000000000 .LVL2
     /tmp/cceOdYyw.s:79     .text:0000000000000010 .LVL3
     /tmp/cceOdYyw.s:2919   .debug_info:0000000000000000 .Ldebug_info0
     /tmp/cceOdYyw.s:5      .text:0000000000000000 .Ltext0
     /tmp/cceOdYyw.s:2913   .text:000000000000112c .Letext0
     /tmp/cceOdYyw.s:1290   .text:0000000000000684 .LBB40
     /tmp/cceOdYyw.s:1301   .text:00000000000006a0 .LBE40
     /tmp/cceOdYyw.s:1310   .text:00000000000006a8 .LBB41
     /tmp/cceOdYyw.s:1320   .text:00000000000006bc .LBE41
     /tmp/cceOdYyw.s:1366   .text:0000000000000710 .LBB44
     /tmp/cceOdYyw.s:1377   .text:000000000000072c .LBE44
     /tmp/cceOdYyw.s:1384   .text:0000000000000734 .LBB45
GAS LISTING /tmp/cceOdYyw.s 			page 112


     /tmp/cceOdYyw.s:1394   .text:0000000000000748 .LBE45
     /tmp/cceOdYyw.s:1512   .text:0000000000000808 .LBB46
     /tmp/cceOdYyw.s:1515   .text:000000000000080c .LBE46
     /tmp/cceOdYyw.s:1523   .text:0000000000000818 .LBB49
     /tmp/cceOdYyw.s:1557   .text:0000000000000848 .LBE49
     /tmp/cceOdYyw.s:1524   .text:0000000000000818 .LBB47
     /tmp/cceOdYyw.s:1537   .text:0000000000000828 .LBE47
     /tmp/cceOdYyw.s:1546   .text:0000000000000838 .LBB48
     /tmp/cceOdYyw.s:1556   .text:0000000000000848 .LBE48
     /tmp/cceOdYyw.s:1779   .text:00000000000009bc .LBB53
     /tmp/cceOdYyw.s:1806   .text:0000000000000a00 .LBE53
     /tmp/cceOdYyw.s:1815   .text:0000000000000a08 .LBB54
     /tmp/cceOdYyw.s:1833   .text:0000000000000a30 .LBE54
     /tmp/cceOdYyw.s:1843   .text:0000000000000a3c .LBB56
     /tmp/cceOdYyw.s:1867   .text:0000000000000a78 .LBE56
     /tmp/cceOdYyw.s:1876   .text:0000000000000a80 .LBB57
     /tmp/cceOdYyw.s:1894   .text:0000000000000aa8 .LBE57
     /tmp/cceOdYyw.s:2578   .text:0000000000000f3c .LBB60
     /tmp/cceOdYyw.s:2584   .text:0000000000000f44 .LBE60
     /tmp/cceOdYyw.s:2625   .text:0000000000000f94 .LBB61
     /tmp/cceOdYyw.s:2647   .text:0000000000000fc0 .LBE61
     /tmp/cceOdYyw.s:930    .gcc_except_table:0000000000000000 .LLSDA27
     /tmp/cceOdYyw.s:1131   .gcc_except_table:000000000000005f .LLSDA28
     /tmp/cceOdYyw.s:2017   .gcc_except_table:00000000000000e6 .LLSDA29
                           .group:0000000000000000 _ZN14PeriodicThreadD5Ev
                           .group:0000000000000000 _ZN12TestPeriodicD5Ev

UNDEFINED SYMBOLS
_ZN5Riscv11printStringEPKc
thread_dispatch
_ZN5Riscv12printIntegerEm
thread_exit
sem_wait
__putc
sem_signal
_ZN6ThreadD2Ev
_ZdlPv
_Znwm
_ZN6ThreadC1EPFvPvES0_
_ZN6Thread5startEv
_ZN5Riscv16enableInterruptsEv
_ZN5Riscv17disableInterruptsEv
_Unwind_Resume
__gxx_personality_v0
mem_alloc
mem_free
HEAP_END_ADDR
HEAP_START_ADDR
_ZN14PeriodicThreadC2Em
sem_open
thread_create
_ZN3PCB10isFinishedEv
