GAS LISTING /tmp/ccdw4L4H.s 			page 1


   1              		.file	"Tests.cpp"
   2              		.option pic
   3              		.option norelax
   4              		.text
   5              	.Ltext0:
   6              		.section	.text._ZN6Thread3runEv,"axG",@progbits,_ZN6Thread3runEv,comdat
   7              		.align	2
   8              		.weak	_ZN6Thread3runEv
  10              	_ZN6Thread3runEv:
  11              	.LFB0:
  12              		.file 1 "src/../h/syscall_cpp.hpp"
   1:src/../h/syscall_cpp.hpp **** //
   2:src/../h/syscall_cpp.hpp **** // Created by os on 4/8/22.
   3:src/../h/syscall_cpp.hpp **** //
   4:src/../h/syscall_cpp.hpp **** 
   5:src/../h/syscall_cpp.hpp **** #ifndef PROJECT_BASE_V1_0_SYSCALL_CPP_HPP
   6:src/../h/syscall_cpp.hpp **** #define PROJECT_BASE_V1_0_SYSCALL_CPP_HPP
   7:src/../h/syscall_cpp.hpp **** 
   8:src/../h/syscall_cpp.hpp **** #include "syscall_c.h"
   9:src/../h/syscall_cpp.hpp **** 
  10:src/../h/syscall_cpp.hpp **** void * operator new(size_t size);
  11:src/../h/syscall_cpp.hpp **** 
  12:src/../h/syscall_cpp.hpp **** void operator delete(void * p);
  13:src/../h/syscall_cpp.hpp **** 
  14:src/../h/syscall_cpp.hpp **** class Thread
  15:src/../h/syscall_cpp.hpp **** {
  16:src/../h/syscall_cpp.hpp **** public:
  17:src/../h/syscall_cpp.hpp ****     Thread(void (*body)(void*), void* args);
  18:src/../h/syscall_cpp.hpp **** 
  19:src/../h/syscall_cpp.hpp ****     virtual ~Thread();
  20:src/../h/syscall_cpp.hpp **** 
  21:src/../h/syscall_cpp.hpp ****     int start();
  22:src/../h/syscall_cpp.hpp **** 
  23:src/../h/syscall_cpp.hpp ****     static void dispatch();
  24:src/../h/syscall_cpp.hpp **** 
  25:src/../h/syscall_cpp.hpp ****     static void sleep(time_t);
  26:src/../h/syscall_cpp.hpp **** 
  27:src/../h/syscall_cpp.hpp **** protected:
  28:src/../h/syscall_cpp.hpp ****     Thread();
  29:src/../h/syscall_cpp.hpp **** 
  30:src/../h/syscall_cpp.hpp ****     virtual void run() {}
  13              		.loc 1 30 18
  14              		.cfi_startproc
  15              	.LVL0:
  16 0000 130101FF 		addi	sp,sp,-16
  17              		.cfi_def_cfa_offset 16
  18 0004 23348100 		sd	s0,8(sp)
  19              		.cfi_offset 8, -8
  20 0008 13040101 		addi	s0,sp,16
  21              		.cfi_def_cfa 8, 0
  22              		.loc 1 30 25 is_stmt 0
  23 000c 03348100 		ld	s0,8(sp)
  24              		.cfi_restore 8
  25              		.cfi_def_cfa 2, 16
  26 0010 13010101 		addi	sp,sp,16
  27              		.cfi_def_cfa_offset 0
  28 0014 67800000 		jr	ra
GAS LISTING /tmp/ccdw4L4H.s 			page 2


  29              		.cfi_endproc
  30              	.LFE0:
  32              		.section	.text._ZN14PeriodicThread18periodicActivationEv,"axG",@progbits,_ZN14PeriodicThread18peri
  33              		.align	2
  34              		.weak	_ZN14PeriodicThread18periodicActivationEv
  36              	_ZN14PeriodicThread18periodicActivationEv:
  37              	.LFB1:
  31:src/../h/syscall_cpp.hpp **** private:
  32:src/../h/syscall_cpp.hpp ****     thread_t myHandle;
  33:src/../h/syscall_cpp.hpp ****     static void runner(void* t);
  34:src/../h/syscall_cpp.hpp **** };
  35:src/../h/syscall_cpp.hpp **** 
  36:src/../h/syscall_cpp.hpp **** class Semaphore
  37:src/../h/syscall_cpp.hpp **** {
  38:src/../h/syscall_cpp.hpp **** public:
  39:src/../h/syscall_cpp.hpp ****     Semaphore(unsigned init = 1);
  40:src/../h/syscall_cpp.hpp **** 
  41:src/../h/syscall_cpp.hpp ****     virtual ~Semaphore();
  42:src/../h/syscall_cpp.hpp **** 
  43:src/../h/syscall_cpp.hpp ****     int wait();
  44:src/../h/syscall_cpp.hpp ****     int signal();
  45:src/../h/syscall_cpp.hpp **** 
  46:src/../h/syscall_cpp.hpp **** private:
  47:src/../h/syscall_cpp.hpp ****     sem_t myHandle;
  48:src/../h/syscall_cpp.hpp **** };
  49:src/../h/syscall_cpp.hpp **** 
  50:src/../h/syscall_cpp.hpp **** class Console
  51:src/../h/syscall_cpp.hpp **** {
  52:src/../h/syscall_cpp.hpp **** public:
  53:src/../h/syscall_cpp.hpp ****     static char getc();
  54:src/../h/syscall_cpp.hpp ****     static void putc(char);
  55:src/../h/syscall_cpp.hpp **** };
  56:src/../h/syscall_cpp.hpp **** 
  57:src/../h/syscall_cpp.hpp **** class PeriodicThread : public Thread
  58:src/../h/syscall_cpp.hpp **** {
  59:src/../h/syscall_cpp.hpp **** protected:
  60:src/../h/syscall_cpp.hpp ****     PeriodicThread(time_t period);
  61:src/../h/syscall_cpp.hpp ****     virtual void periodicActivation() {};
  38              		.loc 1 61 18 is_stmt 1
  39              		.cfi_startproc
  40              	.LVL1:
  41 0000 130101FF 		addi	sp,sp,-16
  42              		.cfi_def_cfa_offset 16
  43 0004 23348100 		sd	s0,8(sp)
  44              		.cfi_offset 8, -8
  45 0008 13040101 		addi	s0,sp,16
  46              		.cfi_def_cfa 8, 0
  47              		.loc 1 61 40 is_stmt 0
  48 000c 03348100 		ld	s0,8(sp)
  49              		.cfi_restore 8
  50              		.cfi_def_cfa 2, 16
  51 0010 13010101 		addi	sp,sp,16
  52              		.cfi_def_cfa_offset 0
  53 0014 67800000 		jr	ra
  54              		.cfi_endproc
  55              	.LFE1:
  57              		.section	.rodata.str1.8,"aMS",@progbits,1
GAS LISTING /tmp/ccdw4L4H.s 			page 3


  58              		.align	3
  59              	.LC0:
  60 0000 69203A20 		.string	"i : "
  60      00
  61              		.text
  62              		.align	2
  63              		.globl	_ZN12TestPeriodic18periodicActivationEv
  65              	_ZN12TestPeriodic18periodicActivationEv:
  66              	.LFB50:
  67              		.file 2 "src/Tests.cpp"
   1:src/Tests.cpp **** //
   2:src/Tests.cpp **** // Created by os on 5/5/22.
   3:src/Tests.cpp **** //
   4:src/Tests.cpp **** 
   5:src/Tests.cpp **** #include "../h/Tests.hpp"
   6:src/Tests.cpp **** #include "../test/printing.hpp"
   7:src/Tests.cpp **** #include "../h/Riscv.hpp"
   8:src/Tests.cpp **** #include "../h/PCB.hpp"
   9:src/Tests.cpp **** 
  10:src/Tests.cpp **** void idle(void* args)
  11:src/Tests.cpp **** {
  12:src/Tests.cpp ****     while(true)
  13:src/Tests.cpp ****     {
  14:src/Tests.cpp ****         printString("Idle\n");
  15:src/Tests.cpp ****         thread_dispatch();
  16:src/Tests.cpp ****     }
  17:src/Tests.cpp **** }
  18:src/Tests.cpp **** 
  19:src/Tests.cpp **** void thread1Function(void* p)
  20:src/Tests.cpp **** {
  21:src/Tests.cpp ****     printString("Thread 1 started...\n");
  22:src/Tests.cpp ****     uint64 num = 10000;
  23:src/Tests.cpp ****     for(uint64 i = 0; i < num;i++)
  24:src/Tests.cpp ****     {
  25:src/Tests.cpp ****         if(i % 150 == 0 && i > 0)
  26:src/Tests.cpp ****             thread_dispatch();
  27:src/Tests.cpp ****         printString("i : ");
  28:src/Tests.cpp ****         printInt(i);
  29:src/Tests.cpp ****         printString("\n");
  30:src/Tests.cpp ****     }
  31:src/Tests.cpp **** }
  32:src/Tests.cpp **** 
  33:src/Tests.cpp **** void thread2Function(void* p)
  34:src/Tests.cpp **** {
  35:src/Tests.cpp ****     printString("Thread 2 started...\n");
  36:src/Tests.cpp ****     uint64 num = 10000;
  37:src/Tests.cpp ****     for(uint64 j = 0; j < num;j++)
  38:src/Tests.cpp ****     {
  39:src/Tests.cpp ****         if(j % 50 == 0 && j > 0)
  40:src/Tests.cpp ****             thread_dispatch();
  41:src/Tests.cpp ****         printString("j : ");
  42:src/Tests.cpp ****         printInt(j);
  43:src/Tests.cpp ****         printString("\n");
  44:src/Tests.cpp ****     }
  45:src/Tests.cpp **** }
  46:src/Tests.cpp **** 
  47:src/Tests.cpp **** void thread2FunctionTest2(void* p)
GAS LISTING /tmp/ccdw4L4H.s 			page 4


  48:src/Tests.cpp **** {
  49:src/Tests.cpp ****     printString("Thread 2 started...\n");
  50:src/Tests.cpp ****     uint64 num = 10000;
  51:src/Tests.cpp ****     for(uint64 j = 0; j < num;j++)
  52:src/Tests.cpp ****     {
  53:src/Tests.cpp ****         if(j == 200)
  54:src/Tests.cpp ****             thread_exit();
  55:src/Tests.cpp ****         if(j % 50 == 0 && j > 0)
  56:src/Tests.cpp ****             thread_dispatch();
  57:src/Tests.cpp ****         printString("j : ");
  58:src/Tests.cpp ****         printInt(j);
  59:src/Tests.cpp ****         printString("\n");
  60:src/Tests.cpp ****     }
  61:src/Tests.cpp **** }
  62:src/Tests.cpp **** 
  63:src/Tests.cpp **** void threadTest1()
  64:src/Tests.cpp **** {
  65:src/Tests.cpp ****     /*Thread* t1 = new Thread(&thread1Function, 0);
  66:src/Tests.cpp ****     t1->start();
  67:src/Tests.cpp ****     Thread* t2 = new Thread(&thread2Function, 0);
  68:src/Tests.cpp ****     t2->start();
  69:src/Tests.cpp ****     Riscv::enableInterrupts();
  70:src/Tests.cpp ****     //while(((PCB*)(t1->myHandle))->getState() != PCB::FINISHED || ((PCB*)(t2->myHandle))->getState
  71:src/Tests.cpp ****     //{
  72:src/Tests.cpp ****     //    Riscv::printString("Main thread\n");
  73:src/Tests.cpp ****     //    thread_dispatch();
  74:src/Tests.cpp ****     //}
  75:src/Tests.cpp **** 
  76:src/Tests.cpp ****     printString("End...\n");
  77:src/Tests.cpp ****     Riscv::disableInterrupts();*/
  78:src/Tests.cpp **** }
  79:src/Tests.cpp **** 
  80:src/Tests.cpp **** void threadTest2()
  81:src/Tests.cpp **** {
  82:src/Tests.cpp ****     /*Thread* idleThread = new Thread(&idle, 0);
  83:src/Tests.cpp ****     idleThread->start();
  84:src/Tests.cpp ****     Thread* t1 = new Thread(&thread1Function, 0);
  85:src/Tests.cpp ****     t1->start();
  86:src/Tests.cpp ****     Thread* t2  = new Thread(&thread2FunctionTest2, 0);
  87:src/Tests.cpp ****     t2->start();
  88:src/Tests.cpp **** 
  89:src/Tests.cpp ****     Riscv::enableInterrupts();
  90:src/Tests.cpp **** 
  91:src/Tests.cpp ****     //while(((PCB*)idleThread->myHandle)->getState() != PCB::FINISHED);
  92:src/Tests.cpp **** 
  93:src/Tests.cpp ****     printString("End...\n");
  94:src/Tests.cpp **** 
  95:src/Tests.cpp ****     Riscv::disableInterrupts();*/
  96:src/Tests.cpp **** }
  97:src/Tests.cpp **** 
  98:src/Tests.cpp **** 
  99:src/Tests.cpp **** void threadTest3()
 100:src/Tests.cpp **** {
 101:src/Tests.cpp ****     Thread* t = new TestPeriodic(50);
 102:src/Tests.cpp ****     t->start();
 103:src/Tests.cpp ****     while(true)
 104:src/Tests.cpp ****     {
GAS LISTING /tmp/ccdw4L4H.s 			page 5


 105:src/Tests.cpp ****         //thread_dispatch();
 106:src/Tests.cpp ****     }
 107:src/Tests.cpp **** }
 108:src/Tests.cpp **** 
 109:src/Tests.cpp **** void threadTests()
 110:src/Tests.cpp **** {
 111:src/Tests.cpp ****     //threadTest1();
 112:src/Tests.cpp ****     //threadTest2();
 113:src/Tests.cpp ****     threadTest3();
 114:src/Tests.cpp **** }
 115:src/Tests.cpp **** 
 116:src/Tests.cpp **** 
 117:src/Tests.cpp **** //memory (de)allocation tests
 118:src/Tests.cpp **** void mallocFree()
 119:src/Tests.cpp **** {
 120:src/Tests.cpp ****     printString("mallocFree\n");
 121:src/Tests.cpp ****     constexpr int num = 100;
 122:src/Tests.cpp ****     void* addrs[num];
 123:src/Tests.cpp ****     for(int i = 0; i < num;i++)
 124:src/Tests.cpp ****     {
 125:src/Tests.cpp ****         addrs[i] = mem_alloc(100);
 126:src/Tests.cpp ****         if(addrs[i] == 0)
 127:src/Tests.cpp ****         {
 128:src/Tests.cpp ****             printString("not OK\n");
 129:src/Tests.cpp ****             return;
 130:src/Tests.cpp ****         }
 131:src/Tests.cpp **** 
 132:src/Tests.cpp ****     }
 133:src/Tests.cpp **** 
 134:src/Tests.cpp ****     for(int i = 0 ; i < num;i+=2)
 135:src/Tests.cpp ****     {
 136:src/Tests.cpp ****         int retval = mem_free(addrs[i]);
 137:src/Tests.cpp ****         if(retval != 0)
 138:src/Tests.cpp ****         {
 139:src/Tests.cpp ****             printString("not OK\n");
 140:src/Tests.cpp ****             return;
 141:src/Tests.cpp ****         }
 142:src/Tests.cpp ****     }
 143:src/Tests.cpp **** 
 144:src/Tests.cpp ****     for(int i = 0 ; i < num;i+=2)
 145:src/Tests.cpp ****     {
 146:src/Tests.cpp ****         addrs[i] = mem_alloc(20);
 147:src/Tests.cpp ****         if(addrs[i] == 0)
 148:src/Tests.cpp ****         {
 149:src/Tests.cpp ****             printString("not OK\n");
 150:src/Tests.cpp ****             return;
 151:src/Tests.cpp ****         }
 152:src/Tests.cpp ****     }
 153:src/Tests.cpp **** 
 154:src/Tests.cpp ****     for(int i = 0; i < num;i++)
 155:src/Tests.cpp ****     {
 156:src/Tests.cpp ****         int retval = mem_free(addrs[i]);
 157:src/Tests.cpp ****         if(retval != 0)
 158:src/Tests.cpp ****         {
 159:src/Tests.cpp ****             printString("not OK\n");
 160:src/Tests.cpp ****             return;
 161:src/Tests.cpp ****         }
GAS LISTING /tmp/ccdw4L4H.s 			page 6


 162:src/Tests.cpp ****     }
 163:src/Tests.cpp **** 
 164:src/Tests.cpp ****     printString("OK\n");
 165:src/Tests.cpp **** }
 166:src/Tests.cpp **** void bigMalloc()
 167:src/Tests.cpp **** {
 168:src/Tests.cpp ****     printString("bigMalloc\n");
 169:src/Tests.cpp ****     uint64 x = (uint64)HEAP_END_ADDR - (uint64)HEAP_START_ADDR + 100UL;
 170:src/Tests.cpp ****     void* p = mem_alloc(x);
 171:src/Tests.cpp ****     if(p == 0)
 172:src/Tests.cpp ****         printString("OK\n");
 173:src/Tests.cpp ****     else
 174:src/Tests.cpp ****         printString("not OK\n");
 175:src/Tests.cpp **** }
 176:src/Tests.cpp **** 
 177:src/Tests.cpp **** void lotOfSmallMallocs()
 178:src/Tests.cpp **** {
 179:src/Tests.cpp ****     /*printString("lotOfSmallMallocs\n");
 180:src/Tests.cpp ****     uint64 cnt = 0;
 181:src/Tests.cpp ****     uint64 sum = 0;
 182:src/Tests.cpp ****     uint64 N = 10000UL;
 183:src/Tests.cpp ****     uint64 X = 10UL;
 184:src/Tests.cpp ****     for(uint64 i = 0; i < N;i++)
 185:src/Tests.cpp ****     {
 186:src/Tests.cpp ****         Test* t = (Test*)mem_alloc(sizeof(Test));
 187:src/Tests.cpp ****         if(t == 0)
 188:src/Tests.cpp ****             break;
 189:src/Tests.cpp ****         t->a = X;
 190:src/Tests.cpp ****         sum+=t->a;
 191:src/Tests.cpp ****         cnt++;
 192:src/Tests.cpp ****     }
 193:src/Tests.cpp ****     printInt(cnt);
 194:src/Tests.cpp ****     printString("\n");
 195:src/Tests.cpp ****     if(sum == X*cnt)
 196:src/Tests.cpp ****         printString("OK\n");
 197:src/Tests.cpp ****     else
 198:src/Tests.cpp ****         printString("not OK\n");*/
 199:src/Tests.cpp ****     for(int i=0;i<200000;i++)
 200:src/Tests.cpp ****     {
 201:src/Tests.cpp ****         int *x = (int*) mem_alloc(1);
 202:src/Tests.cpp ****         if(x == nullptr)
 203:src/Tests.cpp ****         {
 204:src/Tests.cpp ****             printString("not OK\n");
 205:src/Tests.cpp ****             break;
 206:src/Tests.cpp ****         }
 207:src/Tests.cpp ****     }
 208:src/Tests.cpp ****     printString("OK\n");
 209:src/Tests.cpp **** }
 210:src/Tests.cpp **** void badFree()
 211:src/Tests.cpp **** {
 212:src/Tests.cpp ****     printString("badFree\n");
 213:src/Tests.cpp ****     Test* t = (Test*)mem_alloc(sizeof(Test));
 214:src/Tests.cpp ****     uint64 retval = mem_free((char*)t + 2);
 215:src/Tests.cpp ****     if(retval == 0)
 216:src/Tests.cpp ****         printString("not OK\n");
 217:src/Tests.cpp ****     else
 218:src/Tests.cpp ****          printString("OK\n");
GAS LISTING /tmp/ccdw4L4H.s 			page 7


 219:src/Tests.cpp **** }
 220:src/Tests.cpp **** 
 221:src/Tests.cpp **** void stressTesting()
 222:src/Tests.cpp **** {
 223:src/Tests.cpp ****     printString("stressTesting\n");
 224:src/Tests.cpp ****     constexpr int num = 100;
 225:src/Tests.cpp ****     void* addrs[num];
 226:src/Tests.cpp ****     for(int i = 0; i < num;i++)
 227:src/Tests.cpp ****     {
 228:src/Tests.cpp ****         addrs[i] = mem_alloc(1);
 229:src/Tests.cpp ****         if(addrs[i] == 0)
 230:src/Tests.cpp ****         {
 231:src/Tests.cpp ****             printString("not OK\n");
 232:src/Tests.cpp ****             return;
 233:src/Tests.cpp ****         }
 234:src/Tests.cpp **** 
 235:src/Tests.cpp ****     }
 236:src/Tests.cpp ****     int sz = 300;
 237:src/Tests.cpp ****     while(sz > 0)
 238:src/Tests.cpp ****     {
 239:src/Tests.cpp ****         for(int i = 0 ; i < num;i+=2)
 240:src/Tests.cpp ****         {
 241:src/Tests.cpp ****             int retval = mem_free(addrs[i]);
 242:src/Tests.cpp ****             if(retval != 0)
 243:src/Tests.cpp ****             {
 244:src/Tests.cpp ****                 printString("not OK\n");
 245:src/Tests.cpp ****                 return;
 246:src/Tests.cpp ****             }
 247:src/Tests.cpp ****             addrs[i] = mem_alloc(sz/2);
 248:src/Tests.cpp ****             if(addrs[i] == 0)
 249:src/Tests.cpp ****             {
 250:src/Tests.cpp ****                 printString("not Ok\n");
 251:src/Tests.cpp ****                 return;
 252:src/Tests.cpp ****             }
 253:src/Tests.cpp **** 
 254:src/Tests.cpp ****         }
 255:src/Tests.cpp **** 
 256:src/Tests.cpp ****         for(int i = 1 ; i < num;i+=2)
 257:src/Tests.cpp ****         {
 258:src/Tests.cpp ****             int retval = mem_free(addrs[i]);
 259:src/Tests.cpp ****             if(retval != 0)
 260:src/Tests.cpp ****             {
 261:src/Tests.cpp ****                 printString("not OK\n");
 262:src/Tests.cpp ****                 return;
 263:src/Tests.cpp ****             }
 264:src/Tests.cpp ****             addrs[i] = mem_alloc(sz);
 265:src/Tests.cpp ****             if(addrs[i] == 0)
 266:src/Tests.cpp ****             {
 267:src/Tests.cpp ****                 printString("not Ok\n");
 268:src/Tests.cpp ****                 return;
 269:src/Tests.cpp ****             }
 270:src/Tests.cpp **** 
 271:src/Tests.cpp ****         }
 272:src/Tests.cpp ****         sz-=10;
 273:src/Tests.cpp ****     }
 274:src/Tests.cpp **** 
 275:src/Tests.cpp ****     printString("OK\n");
GAS LISTING /tmp/ccdw4L4H.s 			page 8


 276:src/Tests.cpp **** }
 277:src/Tests.cpp **** 
 278:src/Tests.cpp **** void memoryAllocationTests()
 279:src/Tests.cpp **** {
 280:src/Tests.cpp ****     //bigMalloc();
 281:src/Tests.cpp ****     //lotOfSmallMallocs();
 282:src/Tests.cpp ****     //mallocFree();
 283:src/Tests.cpp ****     //badFree();
 284:src/Tests.cpp ****     stressTesting();
 285:src/Tests.cpp ****     //mallocTest();
 286:src/Tests.cpp ****     //mallocEverything();
 287:src/Tests.cpp ****     //mallocGapFillTest();
 288:src/Tests.cpp **** }
 289:src/Tests.cpp **** 
 290:src/Tests.cpp **** void semaphoreTests()
 291:src/Tests.cpp **** {
 292:src/Tests.cpp ****     semTest1();
 293:src/Tests.cpp **** }
 294:src/Tests.cpp **** 
 295:src/Tests.cpp **** void myTests()
 296:src/Tests.cpp **** {
 297:src/Tests.cpp ****     memoryAllocationTests();
 298:src/Tests.cpp ****     //threadTests();
 299:src/Tests.cpp ****     //semaphoreTests();
 300:src/Tests.cpp ****     //consoleTests();
 301:src/Tests.cpp ****     //changeModeTests();
 302:src/Tests.cpp **** }
 303:src/Tests.cpp **** 
 304:src/Tests.cpp **** TestPeriodic::TestPeriodic(time_t time) : PeriodicThread(time) {
 305:src/Tests.cpp **** 
 306:src/Tests.cpp **** }
 307:src/Tests.cpp **** 
 308:src/Tests.cpp **** void TestPeriodic::periodicActivation()
 309:src/Tests.cpp **** {
  68              		.loc 2 309 1 is_stmt 1
  69              		.cfi_startproc
  70              	.LVL2:
  71 0000 130101FE 		addi	sp,sp,-32
  72              		.cfi_def_cfa_offset 32
  73 0004 233C1100 		sd	ra,24(sp)
  74 0008 23388100 		sd	s0,16(sp)
  75 000c 23349100 		sd	s1,8(sp)
  76              		.cfi_offset 1, -8
  77              		.cfi_offset 8, -16
  78              		.cfi_offset 9, -24
  79 0010 13040102 		addi	s0,sp,32
  80              		.cfi_def_cfa 8, 0
 310:src/Tests.cpp ****     for(int i = 0 ; i < 10000;i++)
  81              		.loc 2 310 5
  82              	.LVL3:
  83              	.LBB14:
  84              		.loc 2 310 13 is_stmt 0
  85 0014 93040000 		li	s1,0
  86              	.LVL4:
  87              	.L7:
  88              		.loc 2 310 23 is_stmt 1 discriminator 3
  89 0018 B7270000 		li	a5,8192
GAS LISTING /tmp/ccdw4L4H.s 			page 9


  90 001c 9387F770 		addi	a5,a5,1807
  91 0020 63C89702 		bgt	s1,a5,.L5
 311:src/Tests.cpp ****     {
 312:src/Tests.cpp ****         printString("i : ");
  92              		.loc 2 312 9 discriminator 2
  93              		.loc 2 312 20 is_stmt 0 discriminator 2
  94 0024 17050000 		lla	a0,.LC0
  94      13050500 
  95 002c 97000000 		call	_Z11printStringPKc@plt
  95      E7800000 
  96              	.LVL5:
 313:src/Tests.cpp ****         printInt(i);
  97              		.loc 2 313 9 is_stmt 1 discriminator 2
  98              		.loc 2 313 17 is_stmt 0 discriminator 2
  99 0034 13060000 		li	a2,0
 100 0038 9305A000 		li	a1,10
 101 003c 13850400 		mv	a0,s1
 102 0040 97000000 		call	_Z8printIntiii@plt
 102      E7800000 
 103              	.LVL6:
 310:src/Tests.cpp ****     for(int i = 0 ; i < 10000;i++)
 104              		.loc 2 310 5 is_stmt 1 discriminator 2
 105 0048 9B841400 		addiw	s1,s1,1
 106              	.LVL7:
 107 004c 6FF0DFFC 		j	.L7
 108              	.LVL8:
 109              	.L5:
 110              	.LBE14:
 314:src/Tests.cpp ****     }
 315:src/Tests.cpp **** }
 111              		.loc 2 315 1 is_stmt 0
 112 0050 83308101 		ld	ra,24(sp)
 113              		.cfi_restore 1
 114 0054 03340101 		ld	s0,16(sp)
 115              		.cfi_restore 8
 116              		.cfi_def_cfa 2, 32
 117 0058 83348100 		ld	s1,8(sp)
 118              		.cfi_restore 9
 119              	.LVL9:
 120 005c 13010102 		addi	sp,sp,32
 121              		.cfi_def_cfa_offset 0
 122 0060 67800000 		jr	ra
 123              		.cfi_endproc
 124              	.LFE50:
 126              		.section	.text._ZN14PeriodicThreadD2Ev,"axG",@progbits,_ZN14PeriodicThreadD5Ev,comdat
 127              		.align	2
 128              		.weak	_ZN14PeriodicThreadD2Ev
 130              	_ZN14PeriodicThreadD2Ev:
 131              	.LFB45:
  57:src/../h/syscall_cpp.hpp **** {
 132              		.loc 1 57 7 is_stmt 1
 133              		.cfi_startproc
 134              	.LVL10:
 135 0000 130101FF 		addi	sp,sp,-16
 136              		.cfi_def_cfa_offset 16
 137 0004 23341100 		sd	ra,8(sp)
 138 0008 23308100 		sd	s0,0(sp)
GAS LISTING /tmp/ccdw4L4H.s 			page 10


 139              		.cfi_offset 1, -8
 140              		.cfi_offset 8, -16
 141 000c 13040101 		addi	s0,sp,16
 142              		.cfi_def_cfa 8, 0
 143              	.LBB15:
  57:src/../h/syscall_cpp.hpp **** {
 144              		.loc 1 57 7 is_stmt 0
 145 0010 97070000 		lla	a5,_ZTV14PeriodicThread+16
 145      93870700 
 146 0018 2330F500 		sd	a5,0(a0)
 147 001c 97000000 		call	_ZN6ThreadD2Ev@plt
 147      E7800000 
 148              	.LVL11:
 149              	.LBE15:
 150 0024 83308100 		ld	ra,8(sp)
 151              		.cfi_restore 1
 152 0028 03340100 		ld	s0,0(sp)
 153              		.cfi_restore 8
 154              		.cfi_def_cfa 2, 16
 155 002c 13010101 		addi	sp,sp,16
 156              		.cfi_def_cfa_offset 0
 157 0030 67800000 		jr	ra
 158              		.cfi_endproc
 159              	.LFE45:
 161              		.weak	_ZN14PeriodicThreadD1Ev
 162              		.set	_ZN14PeriodicThreadD1Ev,_ZN14PeriodicThreadD2Ev
 163              		.section	.text._ZN14PeriodicThreadD0Ev,"axG",@progbits,_ZN14PeriodicThreadD5Ev,comdat
 164              		.align	2
 165              		.weak	_ZN14PeriodicThreadD0Ev
 167              	_ZN14PeriodicThreadD0Ev:
 168              	.LFB47:
  57:src/../h/syscall_cpp.hpp **** {
 169              		.loc 1 57 7 is_stmt 1
 170              		.cfi_startproc
 171              	.LVL12:
 172 0000 130101FE 		addi	sp,sp,-32
 173              		.cfi_def_cfa_offset 32
 174 0004 233C1100 		sd	ra,24(sp)
 175 0008 23388100 		sd	s0,16(sp)
 176 000c 23349100 		sd	s1,8(sp)
 177              		.cfi_offset 1, -8
 178              		.cfi_offset 8, -16
 179              		.cfi_offset 9, -24
 180 0010 13040102 		addi	s0,sp,32
 181              		.cfi_def_cfa 8, 0
 182 0014 93040500 		mv	s1,a0
 183              	.LVL13:
 184              	.LBB16:
 185              	.LBB17:
  57:src/../h/syscall_cpp.hpp **** {
 186              		.loc 1 57 7 is_stmt 0
 187 0018 97070000 		lla	a5,_ZTV14PeriodicThread+16
 187      93870700 
 188 0020 2330F500 		sd	a5,0(a0)
 189 0024 97000000 		call	_ZN6ThreadD2Ev@plt
 189      E7800000 
 190              	.LVL14:
GAS LISTING /tmp/ccdw4L4H.s 			page 11


 191              	.LBE17:
 192              	.LBE16:
 193 002c 13850400 		mv	a0,s1
 194 0030 97000000 		call	_ZdlPv@plt
 194      E7800000 
 195              	.LVL15:
 196 0038 83308101 		ld	ra,24(sp)
 197              		.cfi_restore 1
 198 003c 03340101 		ld	s0,16(sp)
 199              		.cfi_restore 8
 200              		.cfi_def_cfa 2, 32
 201 0040 83348100 		ld	s1,8(sp)
 202              		.cfi_restore 9
 203              	.LVL16:
 204 0044 13010102 		addi	sp,sp,32
 205              		.cfi_def_cfa_offset 0
 206 0048 67800000 		jr	ra
 207              		.cfi_endproc
 208              	.LFE47:
 210              		.section	.text._ZN12TestPeriodicD2Ev,"axG",@progbits,_ZN12TestPeriodicD5Ev,comdat
 211              		.align	2
 212              		.weak	_ZN12TestPeriodicD2Ev
 214              	_ZN12TestPeriodicD2Ev:
 215              	.LFB62:
 216              		.file 3 "src/../h/Tests.hpp"
   1:src/../h/Tests.hpp **** //
   2:src/../h/Tests.hpp **** // Created by os on 5/5/22.
   3:src/../h/Tests.hpp **** //
   4:src/../h/Tests.hpp **** 
   5:src/../h/Tests.hpp **** #ifndef PROJECT_BASE_V1_0_TESTS_HPP
   6:src/../h/Tests.hpp **** #define PROJECT_BASE_V1_0_TESTS_HPP
   7:src/../h/Tests.hpp **** 
   8:src/../h/Tests.hpp **** #include "syscall_cpp.hpp"
   9:src/../h/Tests.hpp **** 
  10:src/../h/Tests.hpp **** class Test
  11:src/../h/Tests.hpp **** {
  12:src/../h/Tests.hpp **** public:
  13:src/../h/Tests.hpp ****     uint64 a;
  14:src/../h/Tests.hpp **** };
  15:src/../h/Tests.hpp **** struct object{
  16:src/../h/Tests.hpp ****     int a,b,c,d,e,f,g,h,i,j,k;
  17:src/../h/Tests.hpp **** };
  18:src/../h/Tests.hpp **** struct node{
  19:src/../h/Tests.hpp ****     object o1, o2, o3;
  20:src/../h/Tests.hpp ****     char id;
  21:src/../h/Tests.hpp ****     node *next, *prev;
  22:src/../h/Tests.hpp **** };
  23:src/../h/Tests.hpp **** 
  24:src/../h/Tests.hpp **** //memory (de)allocation tests
  25:src/../h/Tests.hpp **** void mallocFree();
  26:src/../h/Tests.hpp **** void bigMalloc();
  27:src/../h/Tests.hpp **** void lotOfSmallMallocs();
  28:src/../h/Tests.hpp **** void badFree();
  29:src/../h/Tests.hpp **** void stressTesting();
  30:src/../h/Tests.hpp **** void mallocTest();
  31:src/../h/Tests.hpp **** void mallocEverything();
  32:src/../h/Tests.hpp **** void mallocGapFillTest();
GAS LISTING /tmp/ccdw4L4H.s 			page 12


  33:src/../h/Tests.hpp **** void memoryAllocationTests();
  34:src/../h/Tests.hpp **** 
  35:src/../h/Tests.hpp **** //thread tests
  36:src/../h/Tests.hpp **** void thread1Function();
  37:src/../h/Tests.hpp **** void thread2Function();
  38:src/../h/Tests.hpp **** 
  39:src/../h/Tests.hpp **** void threadFunction3();
  40:src/../h/Tests.hpp **** 
  41:src/../h/Tests.hpp **** void threadTest1();
  42:src/../h/Tests.hpp **** void threadTest2();
  43:src/../h/Tests.hpp **** void threadTest3();
  44:src/../h/Tests.hpp **** 
  45:src/../h/Tests.hpp **** void threadTests();
  46:src/../h/Tests.hpp **** 
  47:src/../h/Tests.hpp **** class TestPeriodic : public PeriodicThread
 217              		.loc 3 47 7 is_stmt 1
 218              		.cfi_startproc
 219              	.LVL17:
 220 0000 130101FF 		addi	sp,sp,-16
 221              		.cfi_def_cfa_offset 16
 222 0004 23341100 		sd	ra,8(sp)
 223 0008 23308100 		sd	s0,0(sp)
 224              		.cfi_offset 1, -8
 225              		.cfi_offset 8, -16
 226 000c 13040101 		addi	s0,sp,16
 227              		.cfi_def_cfa 8, 0
 228              	.LVL18:
 229              	.LBB18:
 230              	.LBB19:
  57:src/../h/syscall_cpp.hpp **** {
 231              		.loc 1 57 7 is_stmt 0
 232 0010 97070000 		lla	a5,_ZTV14PeriodicThread+16
 232      93870700 
 233 0018 2330F500 		sd	a5,0(a0)
 234 001c 97000000 		call	_ZN6ThreadD2Ev@plt
 234      E7800000 
 235              	.LVL19:
 236              	.LBE19:
 237              	.LBE18:
 238              		.loc 3 47 7
 239 0024 83308100 		ld	ra,8(sp)
 240              		.cfi_restore 1
 241 0028 03340100 		ld	s0,0(sp)
 242              		.cfi_restore 8
 243              		.cfi_def_cfa 2, 16
 244 002c 13010101 		addi	sp,sp,16
 245              		.cfi_def_cfa_offset 0
 246 0030 67800000 		jr	ra
 247              		.cfi_endproc
 248              	.LFE62:
 250              		.weak	_ZN12TestPeriodicD1Ev
 251              		.set	_ZN12TestPeriodicD1Ev,_ZN12TestPeriodicD2Ev
 252              		.section	.text._ZN12TestPeriodicD0Ev,"axG",@progbits,_ZN12TestPeriodicD5Ev,comdat
 253              		.align	2
 254              		.weak	_ZN12TestPeriodicD0Ev
 256              	_ZN12TestPeriodicD0Ev:
 257              	.LFB64:
GAS LISTING /tmp/ccdw4L4H.s 			page 13


 258              		.loc 3 47 7 is_stmt 1
 259              		.cfi_startproc
 260              	.LVL20:
 261 0000 130101FE 		addi	sp,sp,-32
 262              		.cfi_def_cfa_offset 32
 263 0004 233C1100 		sd	ra,24(sp)
 264 0008 23388100 		sd	s0,16(sp)
 265 000c 23349100 		sd	s1,8(sp)
 266              		.cfi_offset 1, -8
 267              		.cfi_offset 8, -16
 268              		.cfi_offset 9, -24
 269 0010 13040102 		addi	s0,sp,32
 270              		.cfi_def_cfa 8, 0
 271 0014 93040500 		mv	s1,a0
 272              	.LVL21:
 273              	.LBB20:
 274              	.LBB21:
 275              	.LBB22:
  57:src/../h/syscall_cpp.hpp **** {
 276              		.loc 1 57 7 is_stmt 0
 277 0018 97070000 		lla	a5,_ZTV14PeriodicThread+16
 277      93870700 
 278 0020 2330F500 		sd	a5,0(a0)
 279 0024 97000000 		call	_ZN6ThreadD2Ev@plt
 279      E7800000 
 280              	.LVL22:
 281              	.LBE22:
 282              	.LBE21:
 283              	.LBE20:
 284              		.loc 3 47 7
 285 002c 13850400 		mv	a0,s1
 286 0030 97000000 		call	_ZdlPv@plt
 286      E7800000 
 287              	.LVL23:
 288 0038 83308101 		ld	ra,24(sp)
 289              		.cfi_restore 1
 290 003c 03340101 		ld	s0,16(sp)
 291              		.cfi_restore 8
 292              		.cfi_def_cfa 2, 32
 293 0040 83348100 		ld	s1,8(sp)
 294              		.cfi_restore 9
 295              	.LVL24:
 296 0044 13010102 		addi	sp,sp,32
 297              		.cfi_def_cfa_offset 0
 298 0048 67800000 		jr	ra
 299              		.cfi_endproc
 300              	.LFE64:
 302              		.section	.rodata.str1.8
 303 0005 000000   		.align	3
 304              	.LC1:
 305 0008 49646C65 		.string	"Idle\n"
 305      0A00
 306              		.text
 307              		.align	2
 308              		.globl	_Z4idlePv
 310              	_Z4idlePv:
 311              	.LFB27:
GAS LISTING /tmp/ccdw4L4H.s 			page 14


  11:src/Tests.cpp ****     while(true)
 312              		.loc 2 11 1 is_stmt 1
 313              		.cfi_startproc
 314              	.LVL25:
 315 0064 130101FF 		addi	sp,sp,-16
 316              		.cfi_def_cfa_offset 16
 317 0068 23341100 		sd	ra,8(sp)
 318 006c 23308100 		sd	s0,0(sp)
 319              		.cfi_offset 1, -8
 320              		.cfi_offset 8, -16
 321 0070 13040101 		addi	s0,sp,16
 322              		.cfi_def_cfa 8, 0
 323              	.LVL26:
 324              	.L18:
  12:src/Tests.cpp ****     {
 325              		.loc 2 12 5 discriminator 1
  14:src/Tests.cpp ****         thread_dispatch();
 326              		.loc 2 14 9 discriminator 1
  14:src/Tests.cpp ****         thread_dispatch();
 327              		.loc 2 14 20 is_stmt 0 discriminator 1
 328 0074 17050000 		lla	a0,.LC1
 328      13050500 
 329 007c 97000000 		call	_Z11printStringPKc@plt
 329      E7800000 
 330              	.LVL27:
  15:src/Tests.cpp ****     }
 331              		.loc 2 15 9 is_stmt 1 discriminator 1
  15:src/Tests.cpp ****     }
 332              		.loc 2 15 24 is_stmt 0 discriminator 1
 333 0084 97000000 		call	thread_dispatch@plt
 333      E7800000 
 334              	.LVL28:
  12:src/Tests.cpp ****     {
 335              		.loc 2 12 5 is_stmt 1 discriminator 1
 336 008c 6FF09FFE 		j	.L18
 337              		.cfi_endproc
 338              	.LFE27:
 340              		.section	.rodata.str1.8
 341 000e 0000     		.align	3
 342              	.LC2:
 343 0010 54687265 		.string	"Thread 1 started...\n"
 343      61642031 
 343      20737461 
 343      72746564 
 343      2E2E2E0A 
 344 0025 000000   		.align	3
 345              	.LC3:
 346 0028 0A00     		.string	"\n"
 347              		.text
 348              		.align	2
 349              		.globl	_Z15thread1FunctionPv
 351              	_Z15thread1FunctionPv:
 352              	.LFB28:
  20:src/Tests.cpp ****     printString("Thread 1 started...\n");
 353              		.loc 2 20 1
 354              		.cfi_startproc
 355              	.LVL29:
GAS LISTING /tmp/ccdw4L4H.s 			page 15


 356 0090 130101FE 		addi	sp,sp,-32
 357              		.cfi_def_cfa_offset 32
 358 0094 233C1100 		sd	ra,24(sp)
 359 0098 23388100 		sd	s0,16(sp)
 360 009c 23349100 		sd	s1,8(sp)
 361              		.cfi_offset 1, -8
 362              		.cfi_offset 8, -16
 363              		.cfi_offset 9, -24
 364 00a0 13040102 		addi	s0,sp,32
 365              		.cfi_def_cfa 8, 0
  21:src/Tests.cpp ****     uint64 num = 10000;
 366              		.loc 2 21 5
  21:src/Tests.cpp ****     uint64 num = 10000;
 367              		.loc 2 21 16 is_stmt 0
 368 00a4 17050000 		lla	a0,.LC2
 368      13050500 
 369              	.LVL30:
 370 00ac 97000000 		call	_Z11printStringPKc@plt
 370      E7800000 
 371              	.LVL31:
  22:src/Tests.cpp ****     for(uint64 i = 0; i < num;i++)
 372              		.loc 2 22 5 is_stmt 1
  23:src/Tests.cpp ****     {
 373              		.loc 2 23 5
 374              	.LBB23:
  23:src/Tests.cpp ****     {
 375              		.loc 2 23 16 is_stmt 0
 376 00b4 93040000 		li	s1,0
 377 00b8 6F004004 		j	.L23
 378              	.LVL32:
 379              	.L25:
  26:src/Tests.cpp ****         printString("i : ");
 380              		.loc 2 26 13 is_stmt 1
  26:src/Tests.cpp ****         printString("i : ");
 381              		.loc 2 26 28 is_stmt 0
 382 00bc 97000000 		call	thread_dispatch@plt
 382      E7800000 
 383              	.LVL33:
 384              	.L22:
  27:src/Tests.cpp ****         printInt(i);
 385              		.loc 2 27 9 is_stmt 1 discriminator 2
  27:src/Tests.cpp ****         printInt(i);
 386              		.loc 2 27 20 is_stmt 0 discriminator 2
 387 00c4 17050000 		lla	a0,.LC0
 387      13050500 
 388 00cc 97000000 		call	_Z11printStringPKc@plt
 388      E7800000 
 389              	.LVL34:
  28:src/Tests.cpp ****         printString("\n");
 390              		.loc 2 28 9 is_stmt 1 discriminator 2
  28:src/Tests.cpp ****         printString("\n");
 391              		.loc 2 28 17 is_stmt 0 discriminator 2
 392 00d4 13060000 		li	a2,0
 393 00d8 9305A000 		li	a1,10
 394 00dc 1B850400 		sext.w	a0,s1
 395 00e0 97000000 		call	_Z8printIntiii@plt
 395      E7800000 
GAS LISTING /tmp/ccdw4L4H.s 			page 16


 396              	.LVL35:
  29:src/Tests.cpp ****     }
 397              		.loc 2 29 9 is_stmt 1 discriminator 2
  29:src/Tests.cpp ****     }
 398              		.loc 2 29 20 is_stmt 0 discriminator 2
 399 00e8 17050000 		lla	a0,.LC3
 399      13050500 
 400 00f0 97000000 		call	_Z11printStringPKc@plt
 400      E7800000 
 401              	.LVL36:
  23:src/Tests.cpp ****     {
 402              		.loc 2 23 5 is_stmt 1 discriminator 2
 403 00f8 93841400 		addi	s1,s1,1
 404              	.LVL37:
 405              	.L23:
  23:src/Tests.cpp ****     {
 406              		.loc 2 23 25 discriminator 1
 407 00fc B7270000 		li	a5,8192
 408 0100 9387F770 		addi	a5,a5,1807
 409 0104 63EC9700 		bgtu	s1,a5,.L20
  25:src/Tests.cpp ****             thread_dispatch();
 410              		.loc 2 25 9
  25:src/Tests.cpp ****             thread_dispatch();
 411              		.loc 2 25 14 is_stmt 0
 412 0108 93076009 		li	a5,150
 413 010c B3F7F402 		remu	a5,s1,a5
  25:src/Tests.cpp ****             thread_dispatch();
 414              		.loc 2 25 9
 415 0110 E39A07FA 		bnez	a5,.L22
  25:src/Tests.cpp ****             thread_dispatch();
 416              		.loc 2 25 25 discriminator 1
 417 0114 E38804FA 		beqz	s1,.L22
 418 0118 6FF05FFA 		j	.L25
 419              	.L20:
 420              	.LBE23:
  31:src/Tests.cpp **** 
 421              		.loc 2 31 1
 422 011c 83308101 		ld	ra,24(sp)
 423              		.cfi_restore 1
 424 0120 03340101 		ld	s0,16(sp)
 425              		.cfi_restore 8
 426              		.cfi_def_cfa 2, 32
 427 0124 83348100 		ld	s1,8(sp)
 428              		.cfi_restore 9
 429              	.LVL38:
 430 0128 13010102 		addi	sp,sp,32
 431              		.cfi_def_cfa_offset 0
 432 012c 67800000 		jr	ra
 433              		.cfi_endproc
 434              	.LFE28:
 436              		.section	.rodata.str1.8
 437 002a 00000000 		.align	3
 437      0000
 438              	.LC4:
 439 0030 54687265 		.string	"Thread 2 started...\n"
 439      61642032 
 439      20737461 
GAS LISTING /tmp/ccdw4L4H.s 			page 17


 439      72746564 
 439      2E2E2E0A 
 440 0045 000000   		.align	3
 441              	.LC5:
 442 0048 6A203A20 		.string	"j : "
 442      00
 443              		.text
 444              		.align	2
 445              		.globl	_Z15thread2FunctionPv
 447              	_Z15thread2FunctionPv:
 448              	.LFB29:
  34:src/Tests.cpp ****     printString("Thread 2 started...\n");
 449              		.loc 2 34 1 is_stmt 1
 450              		.cfi_startproc
 451              	.LVL39:
 452 0130 130101FE 		addi	sp,sp,-32
 453              		.cfi_def_cfa_offset 32
 454 0134 233C1100 		sd	ra,24(sp)
 455 0138 23388100 		sd	s0,16(sp)
 456 013c 23349100 		sd	s1,8(sp)
 457              		.cfi_offset 1, -8
 458              		.cfi_offset 8, -16
 459              		.cfi_offset 9, -24
 460 0140 13040102 		addi	s0,sp,32
 461              		.cfi_def_cfa 8, 0
  35:src/Tests.cpp ****     uint64 num = 10000;
 462              		.loc 2 35 5
  35:src/Tests.cpp ****     uint64 num = 10000;
 463              		.loc 2 35 16 is_stmt 0
 464 0144 17050000 		lla	a0,.LC4
 464      13050500 
 465              	.LVL40:
 466 014c 97000000 		call	_Z11printStringPKc@plt
 466      E7800000 
 467              	.LVL41:
  36:src/Tests.cpp ****     for(uint64 j = 0; j < num;j++)
 468              		.loc 2 36 5 is_stmt 1
  37:src/Tests.cpp ****     {
 469              		.loc 2 37 5
 470              	.LBB24:
  37:src/Tests.cpp ****     {
 471              		.loc 2 37 16 is_stmt 0
 472 0154 93040000 		li	s1,0
 473 0158 6F004004 		j	.L29
 474              	.LVL42:
 475              	.L31:
  40:src/Tests.cpp ****         printString("j : ");
 476              		.loc 2 40 13 is_stmt 1
  40:src/Tests.cpp ****         printString("j : ");
 477              		.loc 2 40 28 is_stmt 0
 478 015c 97000000 		call	thread_dispatch@plt
 478      E7800000 
 479              	.LVL43:
 480              	.L28:
  41:src/Tests.cpp ****         printInt(j);
 481              		.loc 2 41 9 is_stmt 1 discriminator 2
  41:src/Tests.cpp ****         printInt(j);
GAS LISTING /tmp/ccdw4L4H.s 			page 18


 482              		.loc 2 41 20 is_stmt 0 discriminator 2
 483 0164 17050000 		lla	a0,.LC5
 483      13050500 
 484 016c 97000000 		call	_Z11printStringPKc@plt
 484      E7800000 
 485              	.LVL44:
  42:src/Tests.cpp ****         printString("\n");
 486              		.loc 2 42 9 is_stmt 1 discriminator 2
  42:src/Tests.cpp ****         printString("\n");
 487              		.loc 2 42 17 is_stmt 0 discriminator 2
 488 0174 13060000 		li	a2,0
 489 0178 9305A000 		li	a1,10
 490 017c 1B850400 		sext.w	a0,s1
 491 0180 97000000 		call	_Z8printIntiii@plt
 491      E7800000 
 492              	.LVL45:
  43:src/Tests.cpp ****     }
 493              		.loc 2 43 9 is_stmt 1 discriminator 2
  43:src/Tests.cpp ****     }
 494              		.loc 2 43 20 is_stmt 0 discriminator 2
 495 0188 17050000 		lla	a0,.LC3
 495      13050500 
 496 0190 97000000 		call	_Z11printStringPKc@plt
 496      E7800000 
 497              	.LVL46:
  37:src/Tests.cpp ****     {
 498              		.loc 2 37 5 is_stmt 1 discriminator 2
 499 0198 93841400 		addi	s1,s1,1
 500              	.LVL47:
 501              	.L29:
  37:src/Tests.cpp ****     {
 502              		.loc 2 37 25 discriminator 1
 503 019c B7270000 		li	a5,8192
 504 01a0 9387F770 		addi	a5,a5,1807
 505 01a4 63EC9700 		bgtu	s1,a5,.L26
  39:src/Tests.cpp ****             thread_dispatch();
 506              		.loc 2 39 9
  39:src/Tests.cpp ****             thread_dispatch();
 507              		.loc 2 39 14 is_stmt 0
 508 01a8 93072003 		li	a5,50
 509 01ac B3F7F402 		remu	a5,s1,a5
  39:src/Tests.cpp ****             thread_dispatch();
 510              		.loc 2 39 9
 511 01b0 E39A07FA 		bnez	a5,.L28
  39:src/Tests.cpp ****             thread_dispatch();
 512              		.loc 2 39 24 discriminator 1
 513 01b4 E38804FA 		beqz	s1,.L28
 514 01b8 6FF05FFA 		j	.L31
 515              	.L26:
 516              	.LBE24:
  45:src/Tests.cpp **** 
 517              		.loc 2 45 1
 518 01bc 83308101 		ld	ra,24(sp)
 519              		.cfi_restore 1
 520 01c0 03340101 		ld	s0,16(sp)
 521              		.cfi_restore 8
 522              		.cfi_def_cfa 2, 32
GAS LISTING /tmp/ccdw4L4H.s 			page 19


 523 01c4 83348100 		ld	s1,8(sp)
 524              		.cfi_restore 9
 525              	.LVL48:
 526 01c8 13010102 		addi	sp,sp,32
 527              		.cfi_def_cfa_offset 0
 528 01cc 67800000 		jr	ra
 529              		.cfi_endproc
 530              	.LFE29:
 532              		.align	2
 533              		.globl	_Z20thread2FunctionTest2Pv
 535              	_Z20thread2FunctionTest2Pv:
 536              	.LFB30:
  48:src/Tests.cpp ****     printString("Thread 2 started...\n");
 537              		.loc 2 48 1 is_stmt 1
 538              		.cfi_startproc
 539              	.LVL49:
 540 01d0 130101FE 		addi	sp,sp,-32
 541              		.cfi_def_cfa_offset 32
 542 01d4 233C1100 		sd	ra,24(sp)
 543 01d8 23388100 		sd	s0,16(sp)
 544 01dc 23349100 		sd	s1,8(sp)
 545              		.cfi_offset 1, -8
 546              		.cfi_offset 8, -16
 547              		.cfi_offset 9, -24
 548 01e0 13040102 		addi	s0,sp,32
 549              		.cfi_def_cfa 8, 0
  49:src/Tests.cpp ****     uint64 num = 10000;
 550              		.loc 2 49 5
  49:src/Tests.cpp ****     uint64 num = 10000;
 551              		.loc 2 49 16 is_stmt 0
 552 01e4 17050000 		lla	a0,.LC4
 552      13050500 
 553              	.LVL50:
 554 01ec 97000000 		call	_Z11printStringPKc@plt
 554      E7800000 
 555              	.LVL51:
  50:src/Tests.cpp ****     for(uint64 j = 0; j < num;j++)
 556              		.loc 2 50 5 is_stmt 1
  51:src/Tests.cpp ****     {
 557              		.loc 2 51 5
 558              	.LBB25:
  51:src/Tests.cpp ****     {
 559              		.loc 2 51 16 is_stmt 0
 560 01f4 93040000 		li	s1,0
 561 01f8 6F000005 		j	.L36
 562              	.LVL52:
 563              	.L38:
  54:src/Tests.cpp ****         if(j % 50 == 0 && j > 0)
 564              		.loc 2 54 13 is_stmt 1
  54:src/Tests.cpp ****         if(j % 50 == 0 && j > 0)
 565              		.loc 2 54 24 is_stmt 0
 566 01fc 97000000 		call	thread_exit@plt
 566      E7800000 
 567              	.LVL53:
 568 0204 6F008005 		j	.L34
 569              	.L39:
  56:src/Tests.cpp ****         printString("j : ");
GAS LISTING /tmp/ccdw4L4H.s 			page 20


 570              		.loc 2 56 13 is_stmt 1
  56:src/Tests.cpp ****         printString("j : ");
 571              		.loc 2 56 28 is_stmt 0
 572 0208 97000000 		call	thread_dispatch@plt
 572      E7800000 
 573              	.LVL54:
 574              	.L35:
  57:src/Tests.cpp ****         printInt(j);
 575              		.loc 2 57 9 is_stmt 1 discriminator 2
  57:src/Tests.cpp ****         printInt(j);
 576              		.loc 2 57 20 is_stmt 0 discriminator 2
 577 0210 17050000 		lla	a0,.LC5
 577      13050500 
 578 0218 97000000 		call	_Z11printStringPKc@plt
 578      E7800000 
 579              	.LVL55:
  58:src/Tests.cpp ****         printString("\n");
 580              		.loc 2 58 9 is_stmt 1 discriminator 2
  58:src/Tests.cpp ****         printString("\n");
 581              		.loc 2 58 17 is_stmt 0 discriminator 2
 582 0220 13060000 		li	a2,0
 583 0224 9305A000 		li	a1,10
 584 0228 1B850400 		sext.w	a0,s1
 585 022c 97000000 		call	_Z8printIntiii@plt
 585      E7800000 
 586              	.LVL56:
  59:src/Tests.cpp ****     }
 587              		.loc 2 59 9 is_stmt 1 discriminator 2
  59:src/Tests.cpp ****     }
 588              		.loc 2 59 20 is_stmt 0 discriminator 2
 589 0234 17050000 		lla	a0,.LC3
 589      13050500 
 590 023c 97000000 		call	_Z11printStringPKc@plt
 590      E7800000 
 591              	.LVL57:
  51:src/Tests.cpp ****     {
 592              		.loc 2 51 5 is_stmt 1 discriminator 2
 593 0244 93841400 		addi	s1,s1,1
 594              	.LVL58:
 595              	.L36:
  51:src/Tests.cpp ****     {
 596              		.loc 2 51 25 discriminator 1
 597 0248 B7270000 		li	a5,8192
 598 024c 9387F770 		addi	a5,a5,1807
 599 0250 63E09702 		bgtu	s1,a5,.L32
  53:src/Tests.cpp ****             thread_exit();
 600              		.loc 2 53 9
 601 0254 9307800C 		li	a5,200
 602 0258 E382F4FA 		beq	s1,a5,.L38
 603              	.L34:
  55:src/Tests.cpp ****             thread_dispatch();
 604              		.loc 2 55 9
  55:src/Tests.cpp ****             thread_dispatch();
 605              		.loc 2 55 14 is_stmt 0
 606 025c 93072003 		li	a5,50
 607 0260 B3F7F402 		remu	a5,s1,a5
  55:src/Tests.cpp ****             thread_dispatch();
GAS LISTING /tmp/ccdw4L4H.s 			page 21


 608              		.loc 2 55 9
 609 0264 E39607FA 		bnez	a5,.L35
  55:src/Tests.cpp ****             thread_dispatch();
 610              		.loc 2 55 24 discriminator 1
 611 0268 E38404FA 		beqz	s1,.L35
 612 026c 6FF0DFF9 		j	.L39
 613              	.L32:
 614              	.LBE25:
  61:src/Tests.cpp **** 
 615              		.loc 2 61 1
 616 0270 83308101 		ld	ra,24(sp)
 617              		.cfi_restore 1
 618 0274 03340101 		ld	s0,16(sp)
 619              		.cfi_restore 8
 620              		.cfi_def_cfa 2, 32
 621 0278 83348100 		ld	s1,8(sp)
 622              		.cfi_restore 9
 623              	.LVL59:
 624 027c 13010102 		addi	sp,sp,32
 625              		.cfi_def_cfa_offset 0
 626 0280 67800000 		jr	ra
 627              		.cfi_endproc
 628              	.LFE30:
 630              		.align	2
 631              		.globl	_Z11threadTest1v
 633              	_Z11threadTest1v:
 634              	.LFB31:
  64:src/Tests.cpp ****     /*Thread* t1 = new Thread(&thread1Function, 0);
 635              		.loc 2 64 1 is_stmt 1
 636              		.cfi_startproc
 637 0284 130101FF 		addi	sp,sp,-16
 638              		.cfi_def_cfa_offset 16
 639 0288 23348100 		sd	s0,8(sp)
 640              		.cfi_offset 8, -8
 641 028c 13040101 		addi	s0,sp,16
 642              		.cfi_def_cfa 8, 0
  78:src/Tests.cpp **** 
 643              		.loc 2 78 1 is_stmt 0
 644 0290 03348100 		ld	s0,8(sp)
 645              		.cfi_restore 8
 646              		.cfi_def_cfa 2, 16
 647 0294 13010101 		addi	sp,sp,16
 648              		.cfi_def_cfa_offset 0
 649 0298 67800000 		jr	ra
 650              		.cfi_endproc
 651              	.LFE31:
 653              		.align	2
 654              		.globl	_Z11threadTest2v
 656              	_Z11threadTest2v:
 657              	.LFB32:
  81:src/Tests.cpp ****     /*Thread* idleThread = new Thread(&idle, 0);
 658              		.loc 2 81 1 is_stmt 1
 659              		.cfi_startproc
 660 029c 130101FF 		addi	sp,sp,-16
 661              		.cfi_def_cfa_offset 16
 662 02a0 23348100 		sd	s0,8(sp)
 663              		.cfi_offset 8, -8
GAS LISTING /tmp/ccdw4L4H.s 			page 22


 664 02a4 13040101 		addi	s0,sp,16
 665              		.cfi_def_cfa 8, 0
  96:src/Tests.cpp **** 
 666              		.loc 2 96 1 is_stmt 0
 667 02a8 03348100 		ld	s0,8(sp)
 668              		.cfi_restore 8
 669              		.cfi_def_cfa 2, 16
 670 02ac 13010101 		addi	sp,sp,16
 671              		.cfi_def_cfa_offset 0
 672 02b0 67800000 		jr	ra
 673              		.cfi_endproc
 674              	.LFE32:
 676              		.section	.rodata.str1.8
 677 004d 000000   		.align	3
 678              	.LC6:
 679 0050 6D616C6C 		.string	"mallocFree\n"
 679      6F634672 
 679      65650A00 
 680 005c 00000000 		.align	3
 681              	.LC7:
 682 0060 6E6F7420 		.string	"not OK\n"
 682      4F4B0A00 
 683              		.align	3
 684              	.LC8:
 685 0068 4F4B0A00 		.string	"OK\n"
 686              		.text
 687              		.align	2
 688              		.globl	_Z10mallocFreev
 690              	_Z10mallocFreev:
 691              	.LFB35:
 119:src/Tests.cpp ****     printString("mallocFree\n");
 692              		.loc 2 119 1 is_stmt 1
 693              		.cfi_startproc
 694 02b4 130101CC 		addi	sp,sp,-832
 695              		.cfi_def_cfa_offset 832
 696 02b8 233C1132 		sd	ra,824(sp)
 697 02bc 23388132 		sd	s0,816(sp)
 698 02c0 23349132 		sd	s1,808(sp)
 699              		.cfi_offset 1, -8
 700              		.cfi_offset 8, -16
 701              		.cfi_offset 9, -24
 702 02c4 13040134 		addi	s0,sp,832
 703              		.cfi_def_cfa 8, 0
 120:src/Tests.cpp ****     constexpr int num = 100;
 704              		.loc 2 120 5
 120:src/Tests.cpp ****     constexpr int num = 100;
 705              		.loc 2 120 16 is_stmt 0
 706 02c8 17050000 		lla	a0,.LC6
 706      13050500 
 707 02d0 97000000 		call	_Z11printStringPKc@plt
 707      E7800000 
 708              	.LVL60:
 709              	.LBB26:
 123:src/Tests.cpp ****     {
 710              		.loc 2 123 13
 711 02d8 93040000 		li	s1,0
 712 02dc 6F008000 		j	.L48
GAS LISTING /tmp/ccdw4L4H.s 			page 23


 713              	.LVL61:
 714              	.L46:
 123:src/Tests.cpp ****     {
 715              		.loc 2 123 5 is_stmt 1 discriminator 2
 716 02e0 9B841400 		addiw	s1,s1,1
 717              	.LVL62:
 718              	.L48:
 123:src/Tests.cpp ****     {
 719              		.loc 2 123 22 discriminator 1
 720 02e4 93073006 		li	a5,99
 721 02e8 63C49704 		bgt	s1,a5,.L56
 125:src/Tests.cpp ****         if(addrs[i] == 0)
 722              		.loc 2 125 9
 125:src/Tests.cpp ****         if(addrs[i] == 0)
 723              		.loc 2 125 29 is_stmt 0
 724 02ec 13054006 		li	a0,100
 725 02f0 97000000 		call	mem_alloc@plt
 725      E7800000 
 726              	.LVL63:
 125:src/Tests.cpp ****         if(addrs[i] == 0)
 727              		.loc 2 125 18
 728 02f8 93973400 		slli	a5,s1,3
 729 02fc 130704FE 		addi	a4,s0,-32
 730 0300 B307F700 		add	a5,a4,a5
 731 0304 23B0A7CE 		sd	a0,-800(a5)
 126:src/Tests.cpp ****         {
 732              		.loc 2 126 9 is_stmt 1
 733 0308 E31C05FC 		bnez	a0,.L46
 128:src/Tests.cpp ****             return;
 734              		.loc 2 128 13
 128:src/Tests.cpp ****             return;
 735              		.loc 2 128 24 is_stmt 0
 736 030c 17050000 		lla	a0,.LC7
 736      13050500 
 737 0314 97000000 		call	_Z11printStringPKc@plt
 737      E7800000 
 738              	.LVL64:
 129:src/Tests.cpp ****         }
 739              		.loc 2 129 13 is_stmt 1
 740              	.L44:
 741              	.LBE26:
 165:src/Tests.cpp **** void bigMalloc()
 742              		.loc 2 165 1 is_stmt 0
 743 031c 83308133 		ld	ra,824(sp)
 744              		.cfi_remember_state
 745              		.cfi_restore 1
 746 0320 03340133 		ld	s0,816(sp)
 747              		.cfi_restore 8
 748              		.cfi_def_cfa 2, 832
 749 0324 83348132 		ld	s1,808(sp)
 750              		.cfi_restore 9
 751 0328 13010134 		addi	sp,sp,832
 752              		.cfi_def_cfa_offset 0
 753 032c 67800000 		jr	ra
 754              	.LVL65:
 755              	.L56:
 756              		.cfi_restore_state
GAS LISTING /tmp/ccdw4L4H.s 			page 24


 757              	.LBB27:
 134:src/Tests.cpp ****     {
 758              		.loc 2 134 13
 759 0330 93040000 		li	s1,0
 760              	.LVL66:
 761              	.L45:
 134:src/Tests.cpp ****     {
 762              		.loc 2 134 23 is_stmt 1 discriminator 1
 763 0334 93073006 		li	a5,99
 764 0338 63CE9702 		bgt	s1,a5,.L57
 765              	.LBB28:
 136:src/Tests.cpp ****         if(retval != 0)
 766              		.loc 2 136 9
 136:src/Tests.cpp ****         if(retval != 0)
 767              		.loc 2 136 30 is_stmt 0
 768 033c 93973400 		slli	a5,s1,3
 769 0340 130704FE 		addi	a4,s0,-32
 770 0344 B307F700 		add	a5,a4,a5
 771 0348 03B507CE 		ld	a0,-800(a5)
 772 034c 97000000 		call	mem_free@plt
 772      E7800000 
 773              	.LVL67:
 137:src/Tests.cpp ****         {
 774              		.loc 2 137 9 is_stmt 1
 775 0354 63160500 		bnez	a0,.L60
 776              	.LBE28:
 134:src/Tests.cpp ****     {
 777              		.loc 2 134 5 discriminator 2
 134:src/Tests.cpp ****     {
 778              		.loc 2 134 30 is_stmt 0 discriminator 2
 779 0358 9B842400 		addiw	s1,s1,2
 780              	.LVL68:
 134:src/Tests.cpp ****     {
 781              		.loc 2 134 5 discriminator 2
 782 035c 6FF09FFD 		j	.L45
 783              	.LVL69:
 784              	.L60:
 785              	.LBB29:
 139:src/Tests.cpp ****             return;
 786              		.loc 2 139 13 is_stmt 1
 139:src/Tests.cpp ****             return;
 787              		.loc 2 139 24 is_stmt 0
 788 0360 17050000 		lla	a0,.LC7
 788      13050500 
 789              	.LVL70:
 790 0368 97000000 		call	_Z11printStringPKc@plt
 790      E7800000 
 791              	.LVL71:
 140:src/Tests.cpp ****         }
 792              		.loc 2 140 13 is_stmt 1
 793 0370 6FF0DFFA 		j	.L44
 794              	.L57:
 795              	.LBE29:
 796              	.LBE27:
 797              	.LBB30:
 144:src/Tests.cpp ****     {
 798              		.loc 2 144 13 is_stmt 0
GAS LISTING /tmp/ccdw4L4H.s 			page 25


 799 0374 93040000 		li	s1,0
 800              	.LVL72:
 801 0378 6F008000 		j	.L49
 802              	.LVL73:
 803              	.L52:
 144:src/Tests.cpp ****     {
 804              		.loc 2 144 5 is_stmt 1 discriminator 2
 144:src/Tests.cpp ****     {
 805              		.loc 2 144 30 is_stmt 0 discriminator 2
 806 037c 9B842400 		addiw	s1,s1,2
 807              	.LVL74:
 808              	.L49:
 144:src/Tests.cpp ****     {
 809              		.loc 2 144 23 is_stmt 1 discriminator 1
 810 0380 93073006 		li	a5,99
 811 0384 63CC9702 		bgt	s1,a5,.L58
 146:src/Tests.cpp ****         if(addrs[i] == 0)
 812              		.loc 2 146 9
 146:src/Tests.cpp ****         if(addrs[i] == 0)
 813              		.loc 2 146 29 is_stmt 0
 814 0388 13054001 		li	a0,20
 815 038c 97000000 		call	mem_alloc@plt
 815      E7800000 
 816              	.LVL75:
 146:src/Tests.cpp ****         if(addrs[i] == 0)
 817              		.loc 2 146 18
 818 0394 93973400 		slli	a5,s1,3
 819 0398 130704FE 		addi	a4,s0,-32
 820 039c B307F700 		add	a5,a4,a5
 821 03a0 23B0A7CE 		sd	a0,-800(a5)
 147:src/Tests.cpp ****         {
 822              		.loc 2 147 9 is_stmt 1
 823 03a4 E31C05FC 		bnez	a0,.L52
 149:src/Tests.cpp ****             return;
 824              		.loc 2 149 13
 149:src/Tests.cpp ****             return;
 825              		.loc 2 149 24 is_stmt 0
 826 03a8 17050000 		lla	a0,.LC7
 826      13050500 
 827 03b0 97000000 		call	_Z11printStringPKc@plt
 827      E7800000 
 828              	.LVL76:
 150:src/Tests.cpp ****         }
 829              		.loc 2 150 13 is_stmt 1
 830 03b8 6FF05FF6 		j	.L44
 831              	.L58:
 832              	.LBE30:
 833              	.LBB31:
 154:src/Tests.cpp ****     {
 834              		.loc 2 154 13 is_stmt 0
 835 03bc 93040000 		li	s1,0
 836              	.LVL77:
 837              	.L51:
 154:src/Tests.cpp ****     {
 838              		.loc 2 154 22 is_stmt 1 discriminator 1
 839 03c0 93073006 		li	a5,99
 840 03c4 63CE9702 		bgt	s1,a5,.L53
GAS LISTING /tmp/ccdw4L4H.s 			page 26


 841              	.LBB32:
 156:src/Tests.cpp ****         if(retval != 0)
 842              		.loc 2 156 9
 156:src/Tests.cpp ****         if(retval != 0)
 843              		.loc 2 156 30 is_stmt 0
 844 03c8 93973400 		slli	a5,s1,3
 845 03cc 130704FE 		addi	a4,s0,-32
 846 03d0 B307F700 		add	a5,a4,a5
 847 03d4 03B507CE 		ld	a0,-800(a5)
 848 03d8 97000000 		call	mem_free@plt
 848      E7800000 
 849              	.LVL78:
 157:src/Tests.cpp ****         {
 850              		.loc 2 157 9 is_stmt 1
 851 03e0 63160500 		bnez	a0,.L61
 852              	.LBE32:
 154:src/Tests.cpp ****     {
 853              		.loc 2 154 5 discriminator 2
 854 03e4 9B841400 		addiw	s1,s1,1
 855              	.LVL79:
 856 03e8 6FF09FFD 		j	.L51
 857              	.LVL80:
 858              	.L61:
 859              	.LBB33:
 159:src/Tests.cpp ****             return;
 860              		.loc 2 159 13
 159:src/Tests.cpp ****             return;
 861              		.loc 2 159 24 is_stmt 0
 862 03ec 17050000 		lla	a0,.LC7
 862      13050500 
 863              	.LVL81:
 864 03f4 97000000 		call	_Z11printStringPKc@plt
 864      E7800000 
 865              	.LVL82:
 160:src/Tests.cpp ****         }
 866              		.loc 2 160 13 is_stmt 1
 867 03fc 6FF01FF2 		j	.L44
 868              	.L53:
 869              	.LBE33:
 870              	.LBE31:
 164:src/Tests.cpp **** }
 871              		.loc 2 164 5
 164:src/Tests.cpp **** }
 872              		.loc 2 164 16 is_stmt 0
 873 0400 17050000 		lla	a0,.LC8
 873      13050500 
 874 0408 97000000 		call	_Z11printStringPKc@plt
 874      E7800000 
 875              	.LVL83:
 876 0410 6FF0DFF0 		j	.L44
 877              		.cfi_endproc
 878              	.LFE35:
 880              		.section	.rodata.str1.8
 881 006c 00000000 		.align	3
 882              	.LC9:
 883 0070 6269674D 		.string	"bigMalloc\n"
 883      616C6C6F 
GAS LISTING /tmp/ccdw4L4H.s 			page 27


 883      630A00
 884              		.text
 885              		.align	2
 886              		.globl	_Z9bigMallocv
 888              	_Z9bigMallocv:
 889              	.LFB36:
 167:src/Tests.cpp ****     printString("bigMalloc\n");
 890              		.loc 2 167 1 is_stmt 1
 891              		.cfi_startproc
 892 0414 130101FF 		addi	sp,sp,-16
 893              		.cfi_def_cfa_offset 16
 894 0418 23341100 		sd	ra,8(sp)
 895 041c 23308100 		sd	s0,0(sp)
 896              		.cfi_offset 1, -8
 897              		.cfi_offset 8, -16
 898 0420 13040101 		addi	s0,sp,16
 899              		.cfi_def_cfa 8, 0
 168:src/Tests.cpp ****     uint64 x = (uint64)HEAP_END_ADDR - (uint64)HEAP_START_ADDR + 100UL;
 900              		.loc 2 168 5
 168:src/Tests.cpp ****     uint64 x = (uint64)HEAP_END_ADDR - (uint64)HEAP_START_ADDR + 100UL;
 901              		.loc 2 168 16 is_stmt 0
 902 0424 17050000 		lla	a0,.LC9
 902      13050500 
 903 042c 97000000 		call	_Z11printStringPKc@plt
 903      E7800000 
 904              	.LVL84:
 169:src/Tests.cpp ****     void* p = mem_alloc(x);
 905              		.loc 2 169 5 is_stmt 1
 169:src/Tests.cpp ****     void* p = mem_alloc(x);
 906              		.loc 2 169 38 is_stmt 0
 907 0434 97070000 		la	a5,HEAP_END_ADDR
 907      83B70700 
 908 043c 03B50700 		ld	a0,0(a5)
 909 0440 97070000 		la	a5,HEAP_START_ADDR
 909      83B70700 
 910 0448 83B70700 		ld	a5,0(a5)
 911 044c 3305F540 		sub	a0,a0,a5
 912              	.LVL85:
 170:src/Tests.cpp ****     if(p == 0)
 913              		.loc 2 170 5 is_stmt 1
 170:src/Tests.cpp ****     if(p == 0)
 914              		.loc 2 170 24 is_stmt 0
 915 0450 13054506 		addi	a0,a0,100
 916              	.LVL86:
 917 0454 97000000 		call	mem_alloc@plt
 917      E7800000 
 918              	.LVL87:
 171:src/Tests.cpp ****         printString("OK\n");
 919              		.loc 2 171 5 is_stmt 1
 920 045c 63020502 		beqz	a0,.L66
 174:src/Tests.cpp **** }
 921              		.loc 2 174 9
 174:src/Tests.cpp **** }
 922              		.loc 2 174 20 is_stmt 0
 923 0460 17050000 		lla	a0,.LC7
 923      13050500 
 924              	.LVL88:
GAS LISTING /tmp/ccdw4L4H.s 			page 28


 925 0468 97000000 		call	_Z11printStringPKc@plt
 925      E7800000 
 926              	.LVL89:
 927              	.L62:
 175:src/Tests.cpp **** 
 928              		.loc 2 175 1
 929 0470 83308100 		ld	ra,8(sp)
 930              		.cfi_remember_state
 931              		.cfi_restore 1
 932 0474 03340100 		ld	s0,0(sp)
 933              		.cfi_restore 8
 934              		.cfi_def_cfa 2, 16
 935 0478 13010101 		addi	sp,sp,16
 936              		.cfi_def_cfa_offset 0
 937 047c 67800000 		jr	ra
 938              	.LVL90:
 939              	.L66:
 940              		.cfi_restore_state
 172:src/Tests.cpp ****     else
 941              		.loc 2 172 9 is_stmt 1
 172:src/Tests.cpp ****     else
 942              		.loc 2 172 20 is_stmt 0
 943 0480 17050000 		lla	a0,.LC8
 943      13050500 
 944              	.LVL91:
 945 0488 97000000 		call	_Z11printStringPKc@plt
 945      E7800000 
 946              	.LVL92:
 947 0490 6FF01FFE 		j	.L62
 948              		.cfi_endproc
 949              	.LFE36:
 951              		.align	2
 952              		.globl	_Z17lotOfSmallMallocsv
 954              	_Z17lotOfSmallMallocsv:
 955              	.LFB37:
 178:src/Tests.cpp ****     /*printString("lotOfSmallMallocs\n");
 956              		.loc 2 178 1 is_stmt 1
 957              		.cfi_startproc
 958 0494 130101FE 		addi	sp,sp,-32
 959              		.cfi_def_cfa_offset 32
 960 0498 233C1100 		sd	ra,24(sp)
 961 049c 23388100 		sd	s0,16(sp)
 962 04a0 23349100 		sd	s1,8(sp)
 963              		.cfi_offset 1, -8
 964              		.cfi_offset 8, -16
 965              		.cfi_offset 9, -24
 966 04a4 13040102 		addi	s0,sp,32
 967              		.cfi_def_cfa 8, 0
 199:src/Tests.cpp ****     {
 968              		.loc 2 199 5
 969              	.LVL93:
 970              	.LBB34:
 199:src/Tests.cpp ****     {
 971              		.loc 2 199 13 is_stmt 0
 972 04a8 93040000 		li	s1,0
 973 04ac 6F008000 		j	.L70
 974              	.LVL94:
GAS LISTING /tmp/ccdw4L4H.s 			page 29


 975              	.L69:
 199:src/Tests.cpp ****     {
 976              		.loc 2 199 5 is_stmt 1 discriminator 2
 977 04b0 9B841400 		addiw	s1,s1,1
 978              	.LVL95:
 979              	.L70:
 199:src/Tests.cpp ****     {
 980              		.loc 2 199 18 discriminator 1
 981 04b4 B7170300 		li	a5,200704
 982 04b8 9387F7D3 		addi	a5,a5,-705
 983 04bc 63C29702 		bgt	s1,a5,.L68
 984              	.LBB35:
 201:src/Tests.cpp ****         if(x == nullptr)
 985              		.loc 2 201 9
 201:src/Tests.cpp ****         if(x == nullptr)
 986              		.loc 2 201 34 is_stmt 0
 987 04c0 13051000 		li	a0,1
 988 04c4 97000000 		call	mem_alloc@plt
 988      E7800000 
 989              	.LVL96:
 202:src/Tests.cpp ****         {
 990              		.loc 2 202 9 is_stmt 1
 991 04cc E31205FE 		bnez	a0,.L69
 204:src/Tests.cpp ****             break;
 992              		.loc 2 204 13
 204:src/Tests.cpp ****             break;
 993              		.loc 2 204 24 is_stmt 0
 994 04d0 17050000 		lla	a0,.LC7
 994      13050500 
 995              	.LVL97:
 996 04d8 97000000 		call	_Z11printStringPKc@plt
 996      E7800000 
 997              	.LVL98:
 205:src/Tests.cpp ****         }
 998              		.loc 2 205 13 is_stmt 1
 999              	.L68:
 1000              	.LBE35:
 1001              	.LBE34:
 208:src/Tests.cpp **** }
 1002              		.loc 2 208 5
 208:src/Tests.cpp **** }
 1003              		.loc 2 208 16 is_stmt 0
 1004 04e0 17050000 		lla	a0,.LC8
 1004      13050500 
 1005 04e8 97000000 		call	_Z11printStringPKc@plt
 1005      E7800000 
 1006              	.LVL99:
 209:src/Tests.cpp **** void badFree()
 1007              		.loc 2 209 1
 1008 04f0 83308101 		ld	ra,24(sp)
 1009              		.cfi_restore 1
 1010 04f4 03340101 		ld	s0,16(sp)
 1011              		.cfi_restore 8
 1012              		.cfi_def_cfa 2, 32
 1013 04f8 83348100 		ld	s1,8(sp)
 1014              		.cfi_restore 9
 1015              	.LVL100:
GAS LISTING /tmp/ccdw4L4H.s 			page 30


 1016 04fc 13010102 		addi	sp,sp,32
 1017              		.cfi_def_cfa_offset 0
 1018 0500 67800000 		jr	ra
 1019              		.cfi_endproc
 1020              	.LFE37:
 1022              		.section	.rodata.str1.8
 1023 007b 00000000 		.align	3
 1023      00
 1024              	.LC10:
 1025 0080 62616446 		.string	"badFree\n"
 1025      7265650A 
 1025      00
 1026              		.text
 1027              		.align	2
 1028              		.globl	_Z7badFreev
 1030              	_Z7badFreev:
 1031              	.LFB38:
 211:src/Tests.cpp ****     printString("badFree\n");
 1032              		.loc 2 211 1 is_stmt 1
 1033              		.cfi_startproc
 1034 0504 130101FF 		addi	sp,sp,-16
 1035              		.cfi_def_cfa_offset 16
 1036 0508 23341100 		sd	ra,8(sp)
 1037 050c 23308100 		sd	s0,0(sp)
 1038              		.cfi_offset 1, -8
 1039              		.cfi_offset 8, -16
 1040 0510 13040101 		addi	s0,sp,16
 1041              		.cfi_def_cfa 8, 0
 212:src/Tests.cpp ****     Test* t = (Test*)mem_alloc(sizeof(Test));
 1042              		.loc 2 212 5
 212:src/Tests.cpp ****     Test* t = (Test*)mem_alloc(sizeof(Test));
 1043              		.loc 2 212 16 is_stmt 0
 1044 0514 17050000 		lla	a0,.LC10
 1044      13050500 
 1045 051c 97000000 		call	_Z11printStringPKc@plt
 1045      E7800000 
 1046              	.LVL101:
 213:src/Tests.cpp ****     uint64 retval = mem_free((char*)t + 2);
 1047              		.loc 2 213 5 is_stmt 1
 213:src/Tests.cpp ****     uint64 retval = mem_free((char*)t + 2);
 1048              		.loc 2 213 31 is_stmt 0
 1049 0524 13058000 		li	a0,8
 1050 0528 97000000 		call	mem_alloc@plt
 1050      E7800000 
 1051              	.LVL102:
 214:src/Tests.cpp ****     if(retval == 0)
 1052              		.loc 2 214 5 is_stmt 1
 214:src/Tests.cpp ****     if(retval == 0)
 1053              		.loc 2 214 29 is_stmt 0
 1054 0530 13052500 		addi	a0,a0,2
 1055              	.LVL103:
 1056 0534 97000000 		call	mem_free@plt
 1056      E7800000 
 1057              	.LVL104:
 215:src/Tests.cpp ****         printString("not OK\n");
 1058              		.loc 2 215 5 is_stmt 1
 1059 053c 63120502 		bnez	a0,.L73
GAS LISTING /tmp/ccdw4L4H.s 			page 31


 216:src/Tests.cpp ****     else
 1060              		.loc 2 216 9
 216:src/Tests.cpp ****     else
 1061              		.loc 2 216 20 is_stmt 0
 1062 0540 17050000 		lla	a0,.LC7
 1062      13050500 
 1063              	.LVL105:
 1064 0548 97000000 		call	_Z11printStringPKc@plt
 1064      E7800000 
 1065              	.LVL106:
 1066              	.L72:
 219:src/Tests.cpp **** 
 1067              		.loc 2 219 1
 1068 0550 83308100 		ld	ra,8(sp)
 1069              		.cfi_remember_state
 1070              		.cfi_restore 1
 1071 0554 03340100 		ld	s0,0(sp)
 1072              		.cfi_restore 8
 1073              		.cfi_def_cfa 2, 16
 1074 0558 13010101 		addi	sp,sp,16
 1075              		.cfi_def_cfa_offset 0
 1076 055c 67800000 		jr	ra
 1077              	.LVL107:
 1078              	.L73:
 1079              		.cfi_restore_state
 218:src/Tests.cpp **** }
 1080              		.loc 2 218 10 is_stmt 1
 218:src/Tests.cpp **** }
 1081              		.loc 2 218 21 is_stmt 0
 1082 0560 17050000 		lla	a0,.LC8
 1082      13050500 
 1083              	.LVL108:
 1084 0568 97000000 		call	_Z11printStringPKc@plt
 1084      E7800000 
 1085              	.LVL109:
 219:src/Tests.cpp **** 
 1086              		.loc 2 219 1
 1087 0570 6FF01FFE 		j	.L72
 1088              		.cfi_endproc
 1089              	.LFE38:
 1091              		.section	.rodata.str1.8
 1092 0089 00000000 		.align	3
 1092      000000
 1093              	.LC11:
 1094 0090 73747265 		.string	"stressTesting\n"
 1094      73735465 
 1094      7374696E 
 1094      670A00
 1095 009f 00       		.align	3
 1096              	.LC12:
 1097 00a0 6E6F7420 		.string	"not Ok\n"
 1097      4F6B0A00 
 1098              		.text
 1099              		.align	2
 1100              		.globl	_Z13stressTestingv
 1102              	_Z13stressTestingv:
 1103              	.LFB39:
GAS LISTING /tmp/ccdw4L4H.s 			page 32


 222:src/Tests.cpp ****     printString("stressTesting\n");
 1104              		.loc 2 222 1 is_stmt 1
 1105              		.cfi_startproc
 1106 0574 130101CC 		addi	sp,sp,-832
 1107              		.cfi_def_cfa_offset 832
 1108 0578 233C1132 		sd	ra,824(sp)
 1109 057c 23388132 		sd	s0,816(sp)
 1110 0580 23349132 		sd	s1,808(sp)
 1111 0584 23302133 		sd	s2,800(sp)
 1112              		.cfi_offset 1, -8
 1113              		.cfi_offset 8, -16
 1114              		.cfi_offset 9, -24
 1115              		.cfi_offset 18, -32
 1116 0588 13040134 		addi	s0,sp,832
 1117              		.cfi_def_cfa 8, 0
 223:src/Tests.cpp ****     constexpr int num = 100;
 1118              		.loc 2 223 5
 223:src/Tests.cpp ****     constexpr int num = 100;
 1119              		.loc 2 223 16 is_stmt 0
 1120 058c 17050000 		lla	a0,.LC11
 1120      13050500 
 1121 0594 97000000 		call	_Z11printStringPKc@plt
 1121      E7800000 
 1122              	.LVL110:
 1123              	.LBB36:
 226:src/Tests.cpp ****     {
 1124              		.loc 2 226 13
 1125 059c 93040000 		li	s1,0
 1126 05a0 6F008000 		j	.L80
 1127              	.LVL111:
 1128              	.L78:
 226:src/Tests.cpp ****     {
 1129              		.loc 2 226 5 is_stmt 1 discriminator 2
 1130 05a4 9B841400 		addiw	s1,s1,1
 1131              	.LVL112:
 1132              	.L80:
 226:src/Tests.cpp ****     {
 1133              		.loc 2 226 22 discriminator 1
 1134 05a8 93073006 		li	a5,99
 1135 05ac 63C69704 		bgt	s1,a5,.L90
 228:src/Tests.cpp ****         if(addrs[i] == 0)
 1136              		.loc 2 228 9
 228:src/Tests.cpp ****         if(addrs[i] == 0)
 1137              		.loc 2 228 29 is_stmt 0
 1138 05b0 13051000 		li	a0,1
 1139 05b4 97000000 		call	mem_alloc@plt
 1139      E7800000 
 1140              	.LVL113:
 228:src/Tests.cpp ****         if(addrs[i] == 0)
 1141              		.loc 2 228 18
 1142 05bc 93973400 		slli	a5,s1,3
 1143 05c0 130704FE 		addi	a4,s0,-32
 1144 05c4 B307F700 		add	a5,a4,a5
 1145 05c8 23B0A7CE 		sd	a0,-800(a5)
 229:src/Tests.cpp ****         {
 1146              		.loc 2 229 9 is_stmt 1
 1147 05cc E31C05FC 		bnez	a0,.L78
GAS LISTING /tmp/ccdw4L4H.s 			page 33


 231:src/Tests.cpp ****             return;
 1148              		.loc 2 231 13
 231:src/Tests.cpp ****             return;
 1149              		.loc 2 231 24 is_stmt 0
 1150 05d0 17050000 		lla	a0,.LC7
 1150      13050500 
 1151 05d8 97000000 		call	_Z11printStringPKc@plt
 1151      E7800000 
 1152              	.LVL114:
 232:src/Tests.cpp ****         }
 1153              		.loc 2 232 13 is_stmt 1
 1154              	.L76:
 1155              	.LBE36:
 276:src/Tests.cpp **** 
 1156              		.loc 2 276 1 is_stmt 0
 1157 05e0 83308133 		ld	ra,824(sp)
 1158              		.cfi_remember_state
 1159              		.cfi_restore 1
 1160 05e4 03340133 		ld	s0,816(sp)
 1161              		.cfi_restore 8
 1162              		.cfi_def_cfa 2, 832
 1163 05e8 83348132 		ld	s1,808(sp)
 1164              		.cfi_restore 9
 1165 05ec 03390132 		ld	s2,800(sp)
 1166              		.cfi_restore 18
 1167 05f0 13010134 		addi	sp,sp,832
 1168              		.cfi_def_cfa_offset 0
 1169 05f4 67800000 		jr	ra
 1170              	.LVL115:
 1171              	.L90:
 1172              		.cfi_restore_state
 236:src/Tests.cpp ****     while(sz > 0)
 1173              		.loc 2 236 9
 1174 05f8 1309C012 		li	s2,300
 1175              	.LVL116:
 1176              	.L77:
 237:src/Tests.cpp ****     {
 1177              		.loc 2 237 5 is_stmt 1
 237:src/Tests.cpp ****     {
 1178              		.loc 2 237 14
 1179 05fc 63522011 		blez	s2,.L81
 1180              	.LBB37:
 1181              	.LBB38:
 239:src/Tests.cpp ****         {
 1182              		.loc 2 239 17 is_stmt 0
 1183 0600 93040000 		li	s1,0
 1184              	.L85:
 1185              	.LVL117:
 239:src/Tests.cpp ****         {
 1186              		.loc 2 239 27 is_stmt 1 discriminator 1
 1187 0604 93073006 		li	a5,99
 1188 0608 63CC9706 		bgt	s1,a5,.L91
 1189              	.LBB39:
 241:src/Tests.cpp ****             if(retval != 0)
 1190              		.loc 2 241 13
 241:src/Tests.cpp ****             if(retval != 0)
 1191              		.loc 2 241 34 is_stmt 0
GAS LISTING /tmp/ccdw4L4H.s 			page 34


 1192 060c 93973400 		slli	a5,s1,3
 1193 0610 130704FE 		addi	a4,s0,-32
 1194 0614 B307F700 		add	a5,a4,a5
 1195 0618 03B507CE 		ld	a0,-800(a5)
 1196 061c 97000000 		call	mem_free@plt
 1196      E7800000 
 1197              	.LVL118:
 242:src/Tests.cpp ****             {
 1198              		.loc 2 242 13 is_stmt 1
 1199 0624 631A0502 		bnez	a0,.L93
 247:src/Tests.cpp ****             if(addrs[i] == 0)
 1200              		.loc 2 247 13
 247:src/Tests.cpp ****             if(addrs[i] == 0)
 1201              		.loc 2 247 36 is_stmt 0
 1202 0628 1B55F901 		srliw	a0,s2,31
 1203              	.LVL119:
 1204 062c 3B052501 		addw	a0,a0,s2
 247:src/Tests.cpp ****             if(addrs[i] == 0)
 1205              		.loc 2 247 33
 1206 0630 1B551540 		sraiw	a0,a0,1
 1207 0634 97000000 		call	mem_alloc@plt
 1207      E7800000 
 1208              	.LVL120:
 247:src/Tests.cpp ****             if(addrs[i] == 0)
 1209              		.loc 2 247 22
 1210 063c 93973400 		slli	a5,s1,3
 1211 0640 130704FE 		addi	a4,s0,-32
 1212 0644 B307F700 		add	a5,a4,a5
 1213 0648 23B0A7CE 		sd	a0,-800(a5)
 248:src/Tests.cpp ****             {
 1214              		.loc 2 248 13 is_stmt 1
 1215 064c 63000502 		beqz	a0,.L94
 1216              	.LBE39:
 239:src/Tests.cpp ****         {
 1217              		.loc 2 239 9 discriminator 2
 239:src/Tests.cpp ****         {
 1218              		.loc 2 239 34 is_stmt 0 discriminator 2
 1219 0650 9B842400 		addiw	s1,s1,2
 1220              	.LVL121:
 239:src/Tests.cpp ****         {
 1221              		.loc 2 239 9 discriminator 2
 1222 0654 6FF01FFB 		j	.L85
 1223              	.LVL122:
 1224              	.L93:
 1225              	.LBB40:
 244:src/Tests.cpp ****                 return;
 1226              		.loc 2 244 17 is_stmt 1
 244:src/Tests.cpp ****                 return;
 1227              		.loc 2 244 28 is_stmt 0
 1228 0658 17050000 		lla	a0,.LC7
 1228      13050500 
 1229              	.LVL123:
 1230 0660 97000000 		call	_Z11printStringPKc@plt
 1230      E7800000 
 1231              	.LVL124:
 245:src/Tests.cpp ****             }
 1232              		.loc 2 245 17 is_stmt 1
GAS LISTING /tmp/ccdw4L4H.s 			page 35


 1233 0668 6FF09FF7 		j	.L76
 1234              	.L94:
 250:src/Tests.cpp ****                 return;
 1235              		.loc 2 250 17
 250:src/Tests.cpp ****                 return;
 1236              		.loc 2 250 28 is_stmt 0
 1237 066c 17050000 		lla	a0,.LC12
 1237      13050500 
 1238 0674 97000000 		call	_Z11printStringPKc@plt
 1238      E7800000 
 1239              	.LVL125:
 251:src/Tests.cpp ****             }
 1240              		.loc 2 251 17 is_stmt 1
 1241 067c 6FF05FF6 		j	.L76
 1242              	.L91:
 1243              	.LBE40:
 1244              	.LBE38:
 1245              	.LBB41:
 256:src/Tests.cpp ****         {
 1246              		.loc 2 256 17 is_stmt 0
 1247 0680 93041000 		li	s1,1
 1248              	.LVL126:
 1249              	.L82:
 256:src/Tests.cpp ****         {
 1250              		.loc 2 256 27 is_stmt 1 discriminator 1
 1251 0684 93073006 		li	a5,99
 1252 0688 63C89706 		bgt	s1,a5,.L86
 1253              	.LBB42:
 258:src/Tests.cpp ****             if(retval != 0)
 1254              		.loc 2 258 13
 258:src/Tests.cpp ****             if(retval != 0)
 1255              		.loc 2 258 34 is_stmt 0
 1256 068c 93973400 		slli	a5,s1,3
 1257 0690 130704FE 		addi	a4,s0,-32
 1258 0694 B307F700 		add	a5,a4,a5
 1259 0698 03B507CE 		ld	a0,-800(a5)
 1260 069c 97000000 		call	mem_free@plt
 1260      E7800000 
 1261              	.LVL127:
 259:src/Tests.cpp ****             {
 1262              		.loc 2 259 13 is_stmt 1
 1263 06a4 63160502 		bnez	a0,.L95
 264:src/Tests.cpp ****             if(addrs[i] == 0)
 1264              		.loc 2 264 13
 264:src/Tests.cpp ****             if(addrs[i] == 0)
 1265              		.loc 2 264 33 is_stmt 0
 1266 06a8 13050900 		mv	a0,s2
 1267              	.LVL128:
 1268 06ac 97000000 		call	mem_alloc@plt
 1268      E7800000 
 1269              	.LVL129:
 264:src/Tests.cpp ****             if(addrs[i] == 0)
 1270              		.loc 2 264 22
 1271 06b4 93973400 		slli	a5,s1,3
 1272 06b8 130704FE 		addi	a4,s0,-32
 1273 06bc B307F700 		add	a5,a4,a5
 1274 06c0 23B0A7CE 		sd	a0,-800(a5)
GAS LISTING /tmp/ccdw4L4H.s 			page 36


 265:src/Tests.cpp ****             {
 1275              		.loc 2 265 13 is_stmt 1
 1276 06c4 63000502 		beqz	a0,.L96
 1277              	.LBE42:
 256:src/Tests.cpp ****         {
 1278              		.loc 2 256 9 discriminator 2
 256:src/Tests.cpp ****         {
 1279              		.loc 2 256 34 is_stmt 0 discriminator 2
 1280 06c8 9B842400 		addiw	s1,s1,2
 1281              	.LVL130:
 256:src/Tests.cpp ****         {
 1282              		.loc 2 256 9 discriminator 2
 1283 06cc 6FF09FFB 		j	.L82
 1284              	.LVL131:
 1285              	.L95:
 1286              	.LBB43:
 261:src/Tests.cpp ****                 return;
 1287              		.loc 2 261 17 is_stmt 1
 261:src/Tests.cpp ****                 return;
 1288              		.loc 2 261 28 is_stmt 0
 1289 06d0 17050000 		lla	a0,.LC7
 1289      13050500 
 1290              	.LVL132:
 1291 06d8 97000000 		call	_Z11printStringPKc@plt
 1291      E7800000 
 1292              	.LVL133:
 262:src/Tests.cpp ****             }
 1293              		.loc 2 262 17 is_stmt 1
 1294 06e0 6FF01FF0 		j	.L76
 1295              	.L96:
 267:src/Tests.cpp ****                 return;
 1296              		.loc 2 267 17
 267:src/Tests.cpp ****                 return;
 1297              		.loc 2 267 28 is_stmt 0
 1298 06e4 17050000 		lla	a0,.LC12
 1298      13050500 
 1299 06ec 97000000 		call	_Z11printStringPKc@plt
 1299      E7800000 
 1300              	.LVL134:
 268:src/Tests.cpp ****             }
 1301              		.loc 2 268 17 is_stmt 1
 1302 06f4 6FF0DFEE 		j	.L76
 1303              	.L86:
 1304              	.LBE43:
 1305              	.LBE41:
 272:src/Tests.cpp ****     }
 1306              		.loc 2 272 9
 272:src/Tests.cpp ****     }
 1307              		.loc 2 272 11 is_stmt 0
 1308 06f8 1B0969FF 		addiw	s2,s2,-10
 1309              	.LVL135:
 1310              	.LBE37:
 237:src/Tests.cpp ****     {
 1311              		.loc 2 237 5
 1312 06fc 6FF01FF0 		j	.L77
 1313              	.LVL136:
 1314              	.L81:
GAS LISTING /tmp/ccdw4L4H.s 			page 37


 275:src/Tests.cpp **** }
 1315              		.loc 2 275 5 is_stmt 1
 275:src/Tests.cpp **** }
 1316              		.loc 2 275 16 is_stmt 0
 1317 0700 17050000 		lla	a0,.LC8
 1317      13050500 
 1318 0708 97000000 		call	_Z11printStringPKc@plt
 1318      E7800000 
 1319              	.LVL137:
 1320 0710 6FF01FED 		j	.L76
 1321              		.cfi_endproc
 1322              	.LFE39:
 1324              		.align	2
 1325              		.globl	_Z21memoryAllocationTestsv
 1327              	_Z21memoryAllocationTestsv:
 1328              	.LFB40:
 279:src/Tests.cpp ****     //bigMalloc();
 1329              		.loc 2 279 1 is_stmt 1
 1330              		.cfi_startproc
 1331 0714 130101FF 		addi	sp,sp,-16
 1332              		.cfi_def_cfa_offset 16
 1333 0718 23341100 		sd	ra,8(sp)
 1334 071c 23308100 		sd	s0,0(sp)
 1335              		.cfi_offset 1, -8
 1336              		.cfi_offset 8, -16
 1337 0720 13040101 		addi	s0,sp,16
 1338              		.cfi_def_cfa 8, 0
 284:src/Tests.cpp ****     //mallocTest();
 1339              		.loc 2 284 5
 284:src/Tests.cpp ****     //mallocTest();
 1340              		.loc 2 284 18 is_stmt 0
 1341 0724 97000000 		call	_Z13stressTestingv
 1341      E7800000 
 1342              	.LVL138:
 288:src/Tests.cpp **** 
 1343              		.loc 2 288 1
 1344 072c 83308100 		ld	ra,8(sp)
 1345              		.cfi_restore 1
 1346 0730 03340100 		ld	s0,0(sp)
 1347              		.cfi_restore 8
 1348              		.cfi_def_cfa 2, 16
 1349 0734 13010101 		addi	sp,sp,16
 1350              		.cfi_def_cfa_offset 0
 1351 0738 67800000 		jr	ra
 1352              		.cfi_endproc
 1353              	.LFE40:
 1355              		.align	2
 1356              		.globl	_Z14semaphoreTestsv
 1358              	_Z14semaphoreTestsv:
 1359              	.LFB41:
 291:src/Tests.cpp ****     semTest1();
 1360              		.loc 2 291 1 is_stmt 1
 1361              		.cfi_startproc
 1362 073c 130101FF 		addi	sp,sp,-16
 1363              		.cfi_def_cfa_offset 16
 1364 0740 23348100 		sd	s0,8(sp)
 1365              		.cfi_offset 8, -8
GAS LISTING /tmp/ccdw4L4H.s 			page 38


 1366 0744 13040101 		addi	s0,sp,16
 1367              		.cfi_def_cfa 8, 0
 292:src/Tests.cpp **** }
 1368              		.loc 2 292 5
 293:src/Tests.cpp **** 
 1369              		.loc 2 293 1 is_stmt 0
 1370 0748 03348100 		ld	s0,8(sp)
 1371              		.cfi_restore 8
 1372              		.cfi_def_cfa 2, 16
 1373 074c 13010101 		addi	sp,sp,16
 1374              		.cfi_def_cfa_offset 0
 1375 0750 67800000 		jr	ra
 1376              		.cfi_endproc
 1377              	.LFE41:
 1379              		.align	2
 1380              		.globl	_Z7myTestsv
 1382              	_Z7myTestsv:
 1383              	.LFB42:
 296:src/Tests.cpp ****     memoryAllocationTests();
 1384              		.loc 2 296 1 is_stmt 1
 1385              		.cfi_startproc
 1386 0754 130101FF 		addi	sp,sp,-16
 1387              		.cfi_def_cfa_offset 16
 1388 0758 23341100 		sd	ra,8(sp)
 1389 075c 23308100 		sd	s0,0(sp)
 1390              		.cfi_offset 1, -8
 1391              		.cfi_offset 8, -16
 1392 0760 13040101 		addi	s0,sp,16
 1393              		.cfi_def_cfa 8, 0
 297:src/Tests.cpp ****     //threadTests();
 1394              		.loc 2 297 5
 297:src/Tests.cpp ****     //threadTests();
 1395              		.loc 2 297 26 is_stmt 0
 1396 0764 97000000 		call	_Z21memoryAllocationTestsv
 1396      E7800000 
 1397              	.LVL139:
 302:src/Tests.cpp **** 
 1398              		.loc 2 302 1
 1399 076c 83308100 		ld	ra,8(sp)
 1400              		.cfi_restore 1
 1401 0770 03340100 		ld	s0,0(sp)
 1402              		.cfi_restore 8
 1403              		.cfi_def_cfa 2, 16
 1404 0774 13010101 		addi	sp,sp,16
 1405              		.cfi_def_cfa_offset 0
 1406 0778 67800000 		jr	ra
 1407              		.cfi_endproc
 1408              	.LFE42:
 1410              		.align	2
 1411              		.globl	_ZN12TestPeriodicC2Em
 1413              	_ZN12TestPeriodicC2Em:
 1414              	.LFB48:
 304:src/Tests.cpp **** 
 1415              		.loc 2 304 1 is_stmt 1
 1416              		.cfi_startproc
 1417              	.LVL140:
 1418 077c 130101FE 		addi	sp,sp,-32
GAS LISTING /tmp/ccdw4L4H.s 			page 39


 1419              		.cfi_def_cfa_offset 32
 1420 0780 233C1100 		sd	ra,24(sp)
 1421 0784 23388100 		sd	s0,16(sp)
 1422 0788 23349100 		sd	s1,8(sp)
 1423              		.cfi_offset 1, -8
 1424              		.cfi_offset 8, -16
 1425              		.cfi_offset 9, -24
 1426 078c 13040102 		addi	s0,sp,32
 1427              		.cfi_def_cfa 8, 0
 1428 0790 93040500 		mv	s1,a0
 1429              	.LBB44:
 304:src/Tests.cpp **** 
 1430              		.loc 2 304 62 is_stmt 0
 1431 0794 97000000 		call	_ZN14PeriodicThreadC2Em@plt
 1431      E7800000 
 1432              	.LVL141:
 1433 079c 97070000 		lla	a5,_ZTV12TestPeriodic+16
 1433      93870700 
 1434 07a4 23B0F400 		sd	a5,0(s1)
 1435              	.LBE44:
 306:src/Tests.cpp **** 
 1436              		.loc 2 306 1
 1437 07a8 83308101 		ld	ra,24(sp)
 1438              		.cfi_restore 1
 1439 07ac 03340101 		ld	s0,16(sp)
 1440              		.cfi_restore 8
 1441              		.cfi_def_cfa 2, 32
 1442 07b0 83348100 		ld	s1,8(sp)
 1443              		.cfi_restore 9
 1444              	.LVL142:
 1445 07b4 13010102 		addi	sp,sp,32
 1446              		.cfi_def_cfa_offset 0
 1447 07b8 67800000 		jr	ra
 1448              		.cfi_endproc
 1449              	.LFE48:
 1451              		.globl	_ZN12TestPeriodicC1Em
 1452              		.set	_ZN12TestPeriodicC1Em,_ZN12TestPeriodicC2Em
 1453              		.align	2
 1454              		.globl	_Z11threadTest3v
 1456              	_Z11threadTest3v:
 1457              	.LFB33:
 100:src/Tests.cpp ****     Thread* t = new TestPeriodic(50);
 1458              		.loc 2 100 1 is_stmt 1
 1459              		.cfi_startproc
 1460              		.cfi_personality 0x9b,DW.ref.__gxx_personality_v0
 1461              		.cfi_lsda 0x1b,.LLSDA33
 1462 07bc 130101FE 		addi	sp,sp,-32
 1463              		.cfi_def_cfa_offset 32
 1464 07c0 233C1100 		sd	ra,24(sp)
 1465 07c4 23388100 		sd	s0,16(sp)
 1466 07c8 23349100 		sd	s1,8(sp)
 1467 07cc 23302101 		sd	s2,0(sp)
 1468              		.cfi_offset 1, -8
 1469              		.cfi_offset 8, -16
 1470              		.cfi_offset 9, -24
 1471              		.cfi_offset 18, -32
 1472 07d0 13040102 		addi	s0,sp,32
GAS LISTING /tmp/ccdw4L4H.s 			page 40


 1473              		.cfi_def_cfa 8, 0
 101:src/Tests.cpp ****     t->start();
 1474              		.loc 2 101 5
 101:src/Tests.cpp ****     t->start();
 1475              		.loc 2 101 36 is_stmt 0
 1476 07d4 13050001 		li	a0,16
 1477              	.LEHB0:
 1478 07d8 97000000 		call	_Znwm@plt
 1478      E7800000 
 1479              	.LVL143:
 1480              	.LEHE0:
 1481 07e0 13090500 		mv	s2,a0
 1482 07e4 93052003 		li	a1,50
 1483              	.LEHB1:
 1484 07e8 97000000 		call	_ZN12TestPeriodicC1Em
 1484      E7800000 
 1485              	.LVL144:
 1486              	.LEHE1:
 102:src/Tests.cpp ****     while(true)
 1487              		.loc 2 102 5 is_stmt 1 discriminator 2
 102:src/Tests.cpp ****     while(true)
 1488              		.loc 2 102 13 is_stmt 0 discriminator 2
 1489 07f0 13050900 		mv	a0,s2
 1490              	.LEHB2:
 1491 07f4 97000000 		call	_ZN6Thread5startEv@plt
 1491      E7800000 
 1492              	.LVL145:
 1493              	.LEHE2:
 1494              	.L106:
 103:src/Tests.cpp ****     {
 1495              		.loc 2 103 5 is_stmt 1 discriminator 1
 103:src/Tests.cpp ****     {
 1496              		.loc 2 103 5 discriminator 1
 1497 07fc 6F000000 		j	.L106
 1498              	.LVL146:
 1499              	.L108:
 1500 0800 93040500 		mv	s1,a0
 101:src/Tests.cpp ****     t->start();
 1501              		.loc 2 101 36 is_stmt 0
 1502 0804 13050900 		mv	a0,s2
 1503 0808 97000000 		call	_ZdlPv@plt
 1503      E7800000 
 1504              	.LVL147:
 1505 0810 13850400 		mv	a0,s1
 1506              	.LEHB3:
 1507 0814 97000000 		call	_Unwind_Resume@plt
 1507      E7800000 
 1508              	.LVL148:
 1509              	.LEHE3:
 1510              		.cfi_endproc
 1511              	.LFE33:
 1512              		.globl	__gxx_personality_v0
 1513              		.section	.gcc_except_table,"a",@progbits
 1514              	.LLSDA33:
 1515 0000 FF       		.byte	0xff
 1516 0001 FF       		.byte	0xff
 1517 0002 03       		.byte	0x3
GAS LISTING /tmp/ccdw4L4H.s 			page 41


 1518 0003 34       		.byte	0x34
 1519 0004 00000000 		.4byte	.LEHB0-.LFB33
 1520 0008 00000000 		.4byte	.LEHE0-.LEHB0
 1521 000c 00000000 		.4byte	0
 1522 0010 00       		.byte	0
 1523 0011 00000000 		.4byte	.LEHB1-.LFB33
 1524 0015 00000000 		.4byte	.LEHE1-.LEHB1
 1525 0019 00000000 		.4byte	.L108-.LFB33
 1526 001d 00       		.byte	0
 1527 001e 00000000 		.4byte	.LEHB2-.LFB33
 1528 0022 00000000 		.4byte	.LEHE2-.LEHB2
 1529 0026 00000000 		.4byte	0
 1530 002a 00       		.byte	0
 1531 002b 00000000 		.4byte	.LEHB3-.LFB33
 1532 002f 00000000 		.4byte	.LEHE3-.LEHB3
 1533 0033 00000000 		.4byte	0
 1534 0037 00       		.byte	0
 1535              		.text
 1537              		.align	2
 1538              		.globl	_Z11threadTestsv
 1540              	_Z11threadTestsv:
 1541              	.LFB34:
 110:src/Tests.cpp ****     //threadTest1();
 1542              		.loc 2 110 1 is_stmt 1
 1543              		.cfi_startproc
 1544 081c 130101FF 		addi	sp,sp,-16
 1545              		.cfi_def_cfa_offset 16
 1546 0820 23341100 		sd	ra,8(sp)
 1547 0824 23308100 		sd	s0,0(sp)
 1548              		.cfi_offset 1, -8
 1549              		.cfi_offset 8, -16
 1550 0828 13040101 		addi	s0,sp,16
 1551              		.cfi_def_cfa 8, 0
 113:src/Tests.cpp **** }
 1552              		.loc 2 113 5
 113:src/Tests.cpp **** }
 1553              		.loc 2 113 16 is_stmt 0
 1554 082c 97000000 		call	_Z11threadTest3v
 1554      E7800000 
 1555              	.LVL149:
 1556              		.cfi_endproc
 1557              	.LFE34:
 1559              		.section	.rodata.str1.8
 1560              		.align	3
 1561              	.LC13:
 1562 00a8 54657374 		.string	"Testing a few mallocs and frees\n\n"
 1562      696E6720 
 1562      61206665 
 1562      77206D61 
 1562      6C6C6F63 
 1563 00ca 00000000 		.align	3
 1563      0000
 1564              	.LC14:
 1565 00d0 53554343 		.string	"SUCCESSFUL: Testing a few mallocs and frees\n\n"
 1565      45535346 
 1565      554C3A20 
 1565      54657374 
GAS LISTING /tmp/ccdw4L4H.s 			page 42


 1565      696E6720 
 1566              		.text
 1567              		.align	2
 1568              		.globl	_Z10mallocTestv
 1570              	_Z10mallocTestv:
 1571              	.LFB51:
 316:src/Tests.cpp **** 
 317:src/Tests.cpp **** void mallocTest()
 318:src/Tests.cpp **** {
 1572              		.loc 2 318 1 is_stmt 1
 1573              		.cfi_startproc
 1574 0834 130101FC 		addi	sp,sp,-64
 1575              		.cfi_def_cfa_offset 64
 1576 0838 233C1102 		sd	ra,56(sp)
 1577 083c 23388102 		sd	s0,48(sp)
 1578 0840 23349102 		sd	s1,40(sp)
 1579 0844 23302103 		sd	s2,32(sp)
 1580 0848 233C3101 		sd	s3,24(sp)
 1581 084c 23384101 		sd	s4,16(sp)
 1582 0850 23345101 		sd	s5,8(sp)
 1583 0854 23306101 		sd	s6,0(sp)
 1584              		.cfi_offset 1, -8
 1585              		.cfi_offset 8, -16
 1586              		.cfi_offset 9, -24
 1587              		.cfi_offset 18, -32
 1588              		.cfi_offset 19, -40
 1589              		.cfi_offset 20, -48
 1590              		.cfi_offset 21, -56
 1591              		.cfi_offset 22, -64
 1592 0858 13040104 		addi	s0,sp,64
 1593              		.cfi_def_cfa 8, 0
 319:src/Tests.cpp ****     printString("Testing a few mallocs and frees\n\n");
 1594              		.loc 2 319 5
 1595              		.loc 2 319 16 is_stmt 0
 1596 085c 17050000 		lla	a0,.LC13
 1596      13050500 
 1597 0864 97000000 		call	_Z11printStringPKc@plt
 1597      E7800000 
 1598              	.LVL150:
 320:src/Tests.cpp **** 
 321:src/Tests.cpp ****     object* o = new object;
 1599              		.loc 2 321 5 is_stmt 1
 1600              		.loc 2 321 21 is_stmt 0
 1601 086c 1305C002 		li	a0,44
 1602 0870 97000000 		call	_Znwm@plt
 1602      E7800000 
 1603              	.LVL151:
 1604 0878 93040500 		mv	s1,a0
 1605              	.LVL152:
 322:src/Tests.cpp ****     o->a = 3;
 1606              		.loc 2 322 5 is_stmt 1
 1607              		.loc 2 322 10 is_stmt 0
 1608 087c 93073000 		li	a5,3
 1609 0880 2320F500 		sw	a5,0(a0)
 323:src/Tests.cpp ****     void* m1 = mem_alloc(10);
 1610              		.loc 2 323 5 is_stmt 1
 1611              		.loc 2 323 25 is_stmt 0
GAS LISTING /tmp/ccdw4L4H.s 			page 43


 1612 0884 1305A000 		li	a0,10
 1613 0888 97000000 		call	mem_alloc@plt
 1613      E7800000 
 1614              	.LVL153:
 1615 0890 13090500 		mv	s2,a0
 1616              	.LVL154:
 324:src/Tests.cpp ****     void* m2 = mem_alloc(100);
 1617              		.loc 2 324 5 is_stmt 1
 1618              		.loc 2 324 25 is_stmt 0
 1619 0894 13054006 		li	a0,100
 1620              	.LVL155:
 1621 0898 97000000 		call	mem_alloc@plt
 1621      E7800000 
 1622              	.LVL156:
 1623 08a0 93090500 		mv	s3,a0
 1624              	.LVL157:
 325:src/Tests.cpp ****     void* m3 = mem_alloc(1000);
 1625              		.loc 2 325 5 is_stmt 1
 1626              		.loc 2 325 25 is_stmt 0
 1627 08a4 1305803E 		li	a0,1000
 1628              	.LVL158:
 1629 08a8 97000000 		call	mem_alloc@plt
 1629      E7800000 
 1630              	.LVL159:
 1631 08b0 130A0500 		mv	s4,a0
 1632              	.LVL160:
 326:src/Tests.cpp ****     void* m4 = mem_alloc(10000);
 1633              		.loc 2 326 5 is_stmt 1
 1634              		.loc 2 326 25 is_stmt 0
 1635 08b4 37250000 		li	a0,8192
 1636              	.LVL161:
 1637 08b8 13050571 		addi	a0,a0,1808
 1638 08bc 97000000 		call	mem_alloc@plt
 1638      E7800000 
 1639              	.LVL162:
 1640 08c4 930A0500 		mv	s5,a0
 1641              	.LVL163:
 327:src/Tests.cpp ****     void* m5 = mem_alloc(1);
 1642              		.loc 2 327 5 is_stmt 1
 1643              		.loc 2 327 25 is_stmt 0
 1644 08c8 13051000 		li	a0,1
 1645              	.LVL164:
 1646 08cc 97000000 		call	mem_alloc@plt
 1646      E7800000 
 1647              	.LVL165:
 328:src/Tests.cpp **** 
 329:src/Tests.cpp ****     if(!m1 || !m2 || !m3 || !m4 || !m5){
 1648              		.loc 2 329 5 is_stmt 1
 1649 08d4 630C0906 		beqz	s2,.L113
 1650 08d8 130B0500 		mv	s6,a0
 1651              		.loc 2 329 12 is_stmt 0 discriminator 1
 1652 08dc 63880906 		beqz	s3,.L113
 1653              		.loc 2 329 19 discriminator 2
 1654 08e0 63060A06 		beqz	s4,.L113
 1655              		.loc 2 329 26 discriminator 3
 1656 08e4 63840A06 		beqz	s5,.L113
 1657              		.loc 2 329 33 discriminator 4
GAS LISTING /tmp/ccdw4L4H.s 			page 44


 1658 08e8 63020506 		beqz	a0,.L113
 330:src/Tests.cpp ****         printString("not OK\n");
 331:src/Tests.cpp ****         return;
 332:src/Tests.cpp ****     }
 333:src/Tests.cpp **** 
 334:src/Tests.cpp ****     delete (uint64*)m1;
 1659              		.loc 2 334 5 is_stmt 1 discriminator 1
 1660              		.loc 2 334 21 is_stmt 0 discriminator 1
 1661 08ec 13050900 		mv	a0,s2
 1662              	.LVL166:
 1663 08f0 97000000 		call	_ZdlPv@plt
 1663      E7800000 
 1664              	.LVL167:
 335:src/Tests.cpp ****     delete (uint64*)m3;
 1665              		.loc 2 335 5 is_stmt 1 discriminator 1
 1666              		.loc 2 335 21 is_stmt 0 discriminator 1
 1667 08f8 13050A00 		mv	a0,s4
 1668 08fc 97000000 		call	_ZdlPv@plt
 1668      E7800000 
 1669              	.LVL168:
 336:src/Tests.cpp ****     delete (uint64*)m4;
 1670              		.loc 2 336 5 is_stmt 1 discriminator 1
 1671              		.loc 2 336 21 is_stmt 0 discriminator 1
 1672 0904 13850A00 		mv	a0,s5
 1673 0908 97000000 		call	_ZdlPv@plt
 1673      E7800000 
 1674              	.LVL169:
 337:src/Tests.cpp ****     delete (uint64*)m2;
 1675              		.loc 2 337 5 is_stmt 1 discriminator 1
 1676              		.loc 2 337 21 is_stmt 0 discriminator 1
 1677 0910 13850900 		mv	a0,s3
 1678 0914 97000000 		call	_ZdlPv@plt
 1678      E7800000 
 1679              	.LVL170:
 338:src/Tests.cpp ****     delete (uint64*)m5;
 1680              		.loc 2 338 5 is_stmt 1 discriminator 1
 1681              		.loc 2 338 21 is_stmt 0 discriminator 1
 1682 091c 13050B00 		mv	a0,s6
 1683 0920 97000000 		call	_ZdlPv@plt
 1683      E7800000 
 1684              	.LVL171:
 339:src/Tests.cpp ****     delete o;
 1685              		.loc 2 339 5 is_stmt 1 discriminator 1
 1686              		.loc 2 339 13 is_stmt 0 discriminator 1
 1687 0928 63880400 		beqz	s1,.L116
 1688              		.loc 2 339 12 discriminator 1
 1689 092c 13850400 		mv	a0,s1
 1690 0930 97000000 		call	_ZdlPv@plt
 1690      E7800000 
 1691              	.LVL172:
 1692              	.L116:
 340:src/Tests.cpp **** 
 341:src/Tests.cpp ****     printString("SUCCESSFUL: Testing a few mallocs and frees\n\n");
 1693              		.loc 2 341 5 is_stmt 1
 1694              		.loc 2 341 16 is_stmt 0
 1695 0938 17050000 		lla	a0,.LC14
 1695      13050500 
GAS LISTING /tmp/ccdw4L4H.s 			page 45


 1696 0940 97000000 		call	_Z11printStringPKc@plt
 1696      E7800000 
 1697              	.LVL173:
 1698 0948 6F004001 		j	.L112
 1699              	.LVL174:
 1700              	.L113:
 330:src/Tests.cpp ****         return;
 1701              		.loc 2 330 9 is_stmt 1
 330:src/Tests.cpp ****         return;
 1702              		.loc 2 330 20 is_stmt 0
 1703 094c 17050000 		lla	a0,.LC7
 1703      13050500 
 1704              	.LVL175:
 1705 0954 97000000 		call	_Z11printStringPKc@plt
 1705      E7800000 
 1706              	.LVL176:
 331:src/Tests.cpp ****     }
 1707              		.loc 2 331 9 is_stmt 1
 1708              	.L112:
 342:src/Tests.cpp **** }
 1709              		.loc 2 342 1 is_stmt 0
 1710 095c 83308103 		ld	ra,56(sp)
 1711              		.cfi_restore 1
 1712 0960 03340103 		ld	s0,48(sp)
 1713              		.cfi_restore 8
 1714              		.cfi_def_cfa 2, 64
 1715 0964 83348102 		ld	s1,40(sp)
 1716              		.cfi_restore 9
 1717              	.LVL177:
 1718 0968 03390102 		ld	s2,32(sp)
 1719              		.cfi_restore 18
 1720              	.LVL178:
 1721 096c 83398101 		ld	s3,24(sp)
 1722              		.cfi_restore 19
 1723              	.LVL179:
 1724 0970 033A0101 		ld	s4,16(sp)
 1725              		.cfi_restore 20
 1726              	.LVL180:
 1727 0974 833A8100 		ld	s5,8(sp)
 1728              		.cfi_restore 21
 1729              	.LVL181:
 1730 0978 033B0100 		ld	s6,0(sp)
 1731              		.cfi_restore 22
 1732 097c 13010104 		addi	sp,sp,64
 1733              		.cfi_def_cfa_offset 0
 1734 0980 67800000 		jr	ra
 1735              		.cfi_endproc
 1736              	.LFE51:
 1738              		.align	2
 1739              		.globl	_Z16mallocEverythingv
 1741              	_Z16mallocEverythingv:
 1742              	.LFB52:
 343:src/Tests.cpp **** 
 344:src/Tests.cpp **** void mallocEverything()
 345:src/Tests.cpp **** {
 1743              		.loc 2 345 1 is_stmt 1
 1744              		.cfi_startproc
GAS LISTING /tmp/ccdw4L4H.s 			page 46


 1745 0984 130101FF 		addi	sp,sp,-16
 1746              		.cfi_def_cfa_offset 16
 1747 0988 23348100 		sd	s0,8(sp)
 1748              		.cfi_offset 8, -8
 1749 098c 13040101 		addi	s0,sp,16
 1750              		.cfi_def_cfa 8, 0
 346:src/Tests.cpp ****     /*printString("Testing allocating whole address space\n\n");
 347:src/Tests.cpp **** 
 348:src/Tests.cpp ****     uint64 neg_size = (uint64)HEAP_START_ADDR - (uint64)HEAP_END_ADDR -sizeof(MemoryAllocator::Bloc
 349:src/Tests.cpp **** 
 350:src/Tests.cpp ****     void* m = mem_alloc(neg_size);
 351:src/Tests.cpp **** 
 352:src/Tests.cpp ****     if(m!=nullptr){
 353:src/Tests.cpp ****         printString("not OK\n");
 354:src/Tests.cpp ****         return;
 355:src/Tests.cpp ****     }
 356:src/Tests.cpp **** 
 357:src/Tests.cpp ****     uint64 blockSize = (((uint64)HEAP_END_ADDR - (uint64)HEAP_START_ADDR - sizeof(MemoryAllocator::
 358:src/Tests.cpp **** 
 359:src/Tests.cpp ****     m = mem_alloc(blockSize<<6);
 360:src/Tests.cpp **** 
 361:src/Tests.cpp ****     if(m==nullptr){
 362:src/Tests.cpp ****         printString("not OK\n");
 363:src/Tests.cpp ****         return;
 364:src/Tests.cpp ****     }
 365:src/Tests.cpp **** 
 366:src/Tests.cpp **** //    there should be some space left still, depending on source file size and output buffer size
 367:src/Tests.cpp **** //    excess allocation should fail and small_chunk should succeed
 368:src/Tests.cpp **** 
 369:src/Tests.cpp **** //    void *excess = mem_alloc(100);
 370:src/Tests.cpp **** //
 371:src/Tests.cpp **** //    if(excess!=nullptr){
 372:src/Tests.cpp **** //        Riscv::printString("not OK\n");
 373:src/Tests.cpp **** //        return;
 374:src/Tests.cpp **** //    }
 375:src/Tests.cpp **** //
 376:src/Tests.cpp ****     void *small_chunk = mem_alloc(1);
 377:src/Tests.cpp **** 
 378:src/Tests.cpp ****     if(small_chunk == nullptr){
 379:src/Tests.cpp ****         printString("not OK\n");
 380:src/Tests.cpp ****         return;
 381:src/Tests.cpp ****     }
 382:src/Tests.cpp **** 
 383:src/Tests.cpp ****     delete (uint64*)m;
 384:src/Tests.cpp ****     //delete (uint64*)small_chunk;
 385:src/Tests.cpp **** 
 386:src/Tests.cpp ****     printString("SUCCESSFUL: Testing allocating whole address space\n\n");*/
 387:src/Tests.cpp **** }
 1751              		.loc 2 387 1 is_stmt 0
 1752 0990 03348100 		ld	s0,8(sp)
 1753              		.cfi_restore 8
 1754              		.cfi_def_cfa 2, 16
 1755 0994 13010101 		addi	sp,sp,16
 1756              		.cfi_def_cfa_offset 0
 1757 0998 67800000 		jr	ra
 1758              		.cfi_endproc
 1759              	.LFE52:
GAS LISTING /tmp/ccdw4L4H.s 			page 47


 1761              		.section	.rodata.str1.8
 1762 00fe 0000     		.align	3
 1763              	.LC15:
 1764 0100 54657374 		.string	"Testing gap filling and chunk merge after multiple mallocs and frees\n\n"
 1764      696E6720 
 1764      67617020 
 1764      66696C6C 
 1764      696E6720 
 1765 0147 00       		.align	3
 1766              	.LC16:
 1767 0148 53554343 		.string	"SUCCESSFUL: Testing gap filling and chunk merge after multiple mallocs and frees\n\n"
 1767      45535346 
 1767      554C3A20 
 1767      54657374 
 1767      696E6720 
 1768              		.text
 1769              		.align	2
 1770              		.globl	_Z17mallocGapFillTestv
 1772              	_Z17mallocGapFillTestv:
 1773              	.LFB53:
 388:src/Tests.cpp **** 
 389:src/Tests.cpp **** void mallocGapFillTest()
 390:src/Tests.cpp **** {
 1774              		.loc 2 390 1 is_stmt 1
 1775              		.cfi_startproc
 1776 099c 130101F6 		addi	sp,sp,-160
 1777              		.cfi_def_cfa_offset 160
 1778 09a0 233C1108 		sd	ra,152(sp)
 1779 09a4 23388108 		sd	s0,144(sp)
 1780 09a8 23349108 		sd	s1,136(sp)
 1781 09ac 23302109 		sd	s2,128(sp)
 1782 09b0 233C3107 		sd	s3,120(sp)
 1783 09b4 23384107 		sd	s4,112(sp)
 1784 09b8 23345107 		sd	s5,104(sp)
 1785 09bc 23306107 		sd	s6,96(sp)
 1786 09c0 233C7105 		sd	s7,88(sp)
 1787 09c4 23388105 		sd	s8,80(sp)
 1788              		.cfi_offset 1, -8
 1789              		.cfi_offset 8, -16
 1790              		.cfi_offset 9, -24
 1791              		.cfi_offset 18, -32
 1792              		.cfi_offset 19, -40
 1793              		.cfi_offset 20, -48
 1794              		.cfi_offset 21, -56
 1795              		.cfi_offset 22, -64
 1796              		.cfi_offset 23, -72
 1797              		.cfi_offset 24, -80
 1798 09c8 1304010A 		addi	s0,sp,160
 1799              		.cfi_def_cfa 8, 0
 391:src/Tests.cpp ****     printString("Testing gap filling and chunk merge after multiple mallocs and frees\n\n");
 1800              		.loc 2 391 5
 1801              		.loc 2 391 16 is_stmt 0
 1802 09cc 17050000 		lla	a0,.LC15
 1802      13050500 
 1803 09d4 97000000 		call	_Z11printStringPKc@plt
 1803      E7800000 
 1804              	.LVL182:
GAS LISTING /tmp/ccdw4L4H.s 			page 48


 1805              	.LBB45:
 392:src/Tests.cpp **** 
 393:src/Tests.cpp ****     const int N = 10;
 394:src/Tests.cpp **** 
 395:src/Tests.cpp ****     void *m[N];
 396:src/Tests.cpp **** 
 397:src/Tests.cpp ****     for(int i=0;i<N;i++)
 1806              		.loc 2 397 13
 1807 09dc 93040000 		li	s1,0
 1808              	.L124:
 1809              	.LVL183:
 1810              		.loc 2 397 18 is_stmt 1 discriminator 1
 1811 09e0 93079000 		li	a5,9
 1812 09e4 63C89706 		bgt	s1,a5,.L121
 398:src/Tests.cpp ****     {
 399:src/Tests.cpp ****         m[i] = mem_alloc((i<<6)+1);
 1813              		.loc 2 399 9
 1814              		.loc 2 399 28 is_stmt 0
 1815 09e8 1B956400 		slliw	a0,s1,6
 1816              		.loc 2 399 25
 1817 09ec 1B051500 		addiw	a0,a0,1
 1818 09f0 97000000 		call	mem_alloc@plt
 1818      E7800000 
 1819              	.LVL184:
 1820              		.loc 2 399 14
 1821 09f8 93973400 		slli	a5,s1,3
 1822 09fc 130704FB 		addi	a4,s0,-80
 1823 0a00 B307F700 		add	a5,a4,a5
 1824 0a04 23B8A7FA 		sd	a0,-80(a5)
 400:src/Tests.cpp ****         if(m[i] == nullptr){
 1825              		.loc 2 400 9 is_stmt 1
 1826 0a08 63060500 		beqz	a0,.L141
 397:src/Tests.cpp ****     {
 1827              		.loc 2 397 5 discriminator 2
 1828 0a0c 9B841400 		addiw	s1,s1,1
 1829              	.LVL185:
 1830 0a10 6FF01FFD 		j	.L124
 1831              	.LVL186:
 1832              	.L141:
 401:src/Tests.cpp ****             printString("not OK\n");
 1833              		.loc 2 401 13
 1834              		.loc 2 401 24 is_stmt 0
 1835 0a14 17050000 		lla	a0,.LC7
 1835      13050500 
 1836 0a1c 97000000 		call	_Z11printStringPKc@plt
 1836      E7800000 
 1837              	.LVL187:
 402:src/Tests.cpp ****             return;
 1838              		.loc 2 402 13 is_stmt 1
 1839              	.L120:
 1840              	.LBE45:
 403:src/Tests.cpp ****         }
 404:src/Tests.cpp ****     }
 405:src/Tests.cpp **** 
 406:src/Tests.cpp ****     delete (uint64*)m[2];
 407:src/Tests.cpp **** 
 408:src/Tests.cpp ****     void* tmp1 = mem_alloc(1);
GAS LISTING /tmp/ccdw4L4H.s 			page 49


 409:src/Tests.cpp ****     void* tmp2 = mem_alloc(1);
 410:src/Tests.cpp ****     void* tmp3 = mem_alloc(1);
 411:src/Tests.cpp **** 
 412:src/Tests.cpp ****     if(!tmp1 || !tmp2 || !tmp3)
 413:src/Tests.cpp ****     {
 414:src/Tests.cpp ****         printString("not OK\n");
 415:src/Tests.cpp ****         return;
 416:src/Tests.cpp ****     }
 417:src/Tests.cpp **** 
 418:src/Tests.cpp ****     uint64 im1 = (uint64)m[1];
 419:src/Tests.cpp ****     uint64 im3 = (uint64)m[3];
 420:src/Tests.cpp ****     uint64 im5 = (uint64)m[5];
 421:src/Tests.cpp ****     uint64 imN = (uint64)m[N];
 422:src/Tests.cpp **** 
 423:src/Tests.cpp ****     uint64 itmp1 = (uint64)tmp1;
 424:src/Tests.cpp ****     uint64 itmp2 = (uint64)tmp2;
 425:src/Tests.cpp ****     uint64 itmp3 = (uint64)tmp3;
 426:src/Tests.cpp **** 
 427:src/Tests.cpp ****     if(!(im1<itmp1 && itmp1<im3 && im1<itmp2 && itmp2<im3 && itmp3>imN))
 428:src/Tests.cpp ****     {
 429:src/Tests.cpp ****         printString("not OK\n");
 430:src/Tests.cpp ****         return;
 431:src/Tests.cpp ****     }
 432:src/Tests.cpp **** 
 433:src/Tests.cpp ****     delete (uint64*)m[3];
 434:src/Tests.cpp ****     delete (uint64*)m[4];
 435:src/Tests.cpp **** 
 436:src/Tests.cpp ****     void* tmp4 = mem_alloc(640);
 437:src/Tests.cpp ****     void* tmp5 = mem_alloc(576);
 438:src/Tests.cpp **** 
 439:src/Tests.cpp ****     if(!tmp4 || !tmp5){
 440:src/Tests.cpp ****         printString("not OK\n");
 441:src/Tests.cpp ****         return;
 442:src/Tests.cpp ****     }
 443:src/Tests.cpp **** 
 444:src/Tests.cpp ****     uint64 itmp4 = (uint64)tmp4;
 445:src/Tests.cpp ****     uint64 itmp5 = (uint64)tmp5;
 446:src/Tests.cpp **** 
 447:src/Tests.cpp ****     if(!(itmp5>itmp2 && itmp5>im5 && itmp4<itmp3)){
 448:src/Tests.cpp ****         printString("not OK\n");
 449:src/Tests.cpp ****         return;
 450:src/Tests.cpp ****     }
 451:src/Tests.cpp **** 
 452:src/Tests.cpp ****     for(int i=0;i<N;i++){
 453:src/Tests.cpp ****         delete (uint64*)m[i];
 454:src/Tests.cpp ****     }
 455:src/Tests.cpp **** 
 456:src/Tests.cpp ****     delete (uint64*)tmp1;
 457:src/Tests.cpp ****     delete (uint64*)tmp2;
 458:src/Tests.cpp ****     delete (uint64*)tmp3;
 459:src/Tests.cpp ****     delete (uint64*)tmp4;
 460:src/Tests.cpp ****     delete (uint64*)tmp5;
 461:src/Tests.cpp **** 
 462:src/Tests.cpp ****     printString("SUCCESSFUL: Testing gap filling and chunk merge after multiple mallocs and frees\n
 463:src/Tests.cpp **** }
 1841              		.loc 2 463 1 is_stmt 0
 1842 0a24 83308109 		ld	ra,152(sp)
GAS LISTING /tmp/ccdw4L4H.s 			page 50


 1843              		.cfi_remember_state
 1844              		.cfi_restore 1
 1845 0a28 03340109 		ld	s0,144(sp)
 1846              		.cfi_restore 8
 1847              		.cfi_def_cfa 2, 160
 1848 0a2c 83348108 		ld	s1,136(sp)
 1849              		.cfi_restore 9
 1850 0a30 03390108 		ld	s2,128(sp)
 1851              		.cfi_restore 18
 1852 0a34 83398107 		ld	s3,120(sp)
 1853              		.cfi_restore 19
 1854 0a38 033A0107 		ld	s4,112(sp)
 1855              		.cfi_restore 20
 1856 0a3c 833A8106 		ld	s5,104(sp)
 1857              		.cfi_restore 21
 1858 0a40 033B0106 		ld	s6,96(sp)
 1859              		.cfi_restore 22
 1860 0a44 833B8105 		ld	s7,88(sp)
 1861              		.cfi_restore 23
 1862 0a48 033C0105 		ld	s8,80(sp)
 1863              		.cfi_restore 24
 1864 0a4c 1301010A 		addi	sp,sp,160
 1865              		.cfi_def_cfa_offset 0
 1866 0a50 67800000 		jr	ra
 1867              	.LVL188:
 1868              	.L121:
 1869              		.cfi_restore_state
 406:src/Tests.cpp **** 
 1870              		.loc 2 406 5 is_stmt 1
 406:src/Tests.cpp **** 
 1871              		.loc 2 406 24 is_stmt 0
 1872 0a54 033504F7 		ld	a0,-144(s0)
 406:src/Tests.cpp **** 
 1873              		.loc 2 406 25
 1874 0a58 63060500 		beqz	a0,.L125
 406:src/Tests.cpp **** 
 1875              		.loc 2 406 24 discriminator 1
 1876 0a5c 97000000 		call	_ZdlPv@plt
 1876      E7800000 
 1877              	.LVL189:
 1878              	.L125:
 408:src/Tests.cpp ****     void* tmp2 = mem_alloc(1);
 1879              		.loc 2 408 5 is_stmt 1
 408:src/Tests.cpp ****     void* tmp2 = mem_alloc(1);
 1880              		.loc 2 408 27 is_stmt 0
 1881 0a64 13051000 		li	a0,1
 1882 0a68 97000000 		call	mem_alloc@plt
 1882      E7800000 
 1883              	.LVL190:
 1884 0a70 93040500 		mv	s1,a0
 1885              	.LVL191:
 409:src/Tests.cpp ****     void* tmp3 = mem_alloc(1);
 1886              		.loc 2 409 5 is_stmt 1
 409:src/Tests.cpp ****     void* tmp3 = mem_alloc(1);
 1887              		.loc 2 409 27 is_stmt 0
 1888 0a74 13051000 		li	a0,1
 1889 0a78 97000000 		call	mem_alloc@plt
GAS LISTING /tmp/ccdw4L4H.s 			page 51


 1889      E7800000 
 1890              	.LVL192:
 1891 0a80 13090500 		mv	s2,a0
 1892              	.LVL193:
 410:src/Tests.cpp **** 
 1893              		.loc 2 410 5 is_stmt 1
 410:src/Tests.cpp **** 
 1894              		.loc 2 410 27 is_stmt 0
 1895 0a84 13051000 		li	a0,1
 1896              	.LVL194:
 1897 0a88 97000000 		call	mem_alloc@plt
 1897      E7800000 
 1898              	.LVL195:
 1899 0a90 93090500 		mv	s3,a0
 1900              	.LVL196:
 412:src/Tests.cpp ****     {
 1901              		.loc 2 412 5 is_stmt 1
 1902 0a94 63880408 		beqz	s1,.L126
 412:src/Tests.cpp ****     {
 1903              		.loc 2 412 14 is_stmt 0 discriminator 1
 1904 0a98 63060908 		beqz	s2,.L126
 412:src/Tests.cpp ****     {
 1905              		.loc 2 412 23 discriminator 2
 1906 0a9c 63040508 		beqz	a0,.L126
 418:src/Tests.cpp ****     uint64 im3 = (uint64)m[3];
 1907              		.loc 2 418 5 is_stmt 1
 418:src/Tests.cpp ****     uint64 im3 = (uint64)m[3];
 1908              		.loc 2 418 29 is_stmt 0
 1909 0aa0 833784F6 		ld	a5,-152(s0)
 1910              	.LVL197:
 419:src/Tests.cpp ****     uint64 im5 = (uint64)m[5];
 1911              		.loc 2 419 5 is_stmt 1
 419:src/Tests.cpp ****     uint64 im5 = (uint64)m[5];
 1912              		.loc 2 419 29 is_stmt 0
 1913 0aa4 033584F7 		ld	a0,-136(s0)
 1914              	.LVL198:
 420:src/Tests.cpp ****     uint64 imN = (uint64)m[N];
 1915              		.loc 2 420 5 is_stmt 1
 420:src/Tests.cpp ****     uint64 imN = (uint64)m[N];
 1916              		.loc 2 420 29 is_stmt 0
 1917 0aa8 033B84F8 		ld	s6,-120(s0)
 1918              	.LVL199:
 421:src/Tests.cpp **** 
 1919              		.loc 2 421 5 is_stmt 1
 421:src/Tests.cpp **** 
 1920              		.loc 2 421 29 is_stmt 0
 1921 0aac 033604FB 		ld	a2,-80(s0)
 1922              	.LVL200:
 423:src/Tests.cpp ****     uint64 itmp2 = (uint64)tmp2;
 1923              		.loc 2 423 5 is_stmt 1
 424:src/Tests.cpp ****     uint64 itmp3 = (uint64)tmp3;
 1924              		.loc 2 424 5
 424:src/Tests.cpp ****     uint64 itmp3 = (uint64)tmp3;
 1925              		.loc 2 424 12 is_stmt 0
 1926 0ab0 130A0900 		mv	s4,s2
 1927              	.LVL201:
 425:src/Tests.cpp **** 
GAS LISTING /tmp/ccdw4L4H.s 			page 52


 1928              		.loc 2 425 5 is_stmt 1
 425:src/Tests.cpp **** 
 1929              		.loc 2 425 12 is_stmt 0
 1930 0ab4 938A0900 		mv	s5,s3
 1931              	.LVL202:
 427:src/Tests.cpp ****     {
 1932              		.loc 2 427 5 is_stmt 1
 1933 0ab8 63F09708 		bgeu	a5,s1,.L128
 427:src/Tests.cpp ****     {
 1934              		.loc 2 427 20 is_stmt 0 discriminator 1
 1935 0abc 63FEA406 		bleu	a0,s1,.L128
 427:src/Tests.cpp ****     {
 1936              		.loc 2 427 33 discriminator 2
 1937 0ac0 63FC2707 		bgeu	a5,s2,.L128
 427:src/Tests.cpp ****     {
 1938              		.loc 2 427 46 discriminator 3
 1939 0ac4 637AA906 		bleu	a0,s2,.L128
 427:src/Tests.cpp ****     {
 1940              		.loc 2 427 8 discriminator 4
 1941 0ac8 63783607 		bgeu	a2,s3,.L128
 433:src/Tests.cpp ****     delete (uint64*)m[4];
 1942              		.loc 2 433 5 is_stmt 1
 433:src/Tests.cpp ****     delete (uint64*)m[4];
 1943              		.loc 2 433 25 is_stmt 0
 1944 0acc 63060500 		beqz	a0,.L130
 433:src/Tests.cpp ****     delete (uint64*)m[4];
 1945              		.loc 2 433 24 discriminator 1
 1946 0ad0 97000000 		call	_ZdlPv@plt
 1946      E7800000 
 1947              	.LVL203:
 1948              	.L130:
 434:src/Tests.cpp **** 
 1949              		.loc 2 434 5 is_stmt 1
 434:src/Tests.cpp **** 
 1950              		.loc 2 434 24 is_stmt 0
 1951 0ad8 033504F8 		ld	a0,-128(s0)
 434:src/Tests.cpp **** 
 1952              		.loc 2 434 25
 1953 0adc 63060500 		beqz	a0,.L131
 434:src/Tests.cpp **** 
 1954              		.loc 2 434 24 discriminator 1
 1955 0ae0 97000000 		call	_ZdlPv@plt
 1955      E7800000 
 1956              	.LVL204:
 1957              	.L131:
 436:src/Tests.cpp ****     void* tmp5 = mem_alloc(576);
 1958              		.loc 2 436 5 is_stmt 1
 436:src/Tests.cpp ****     void* tmp5 = mem_alloc(576);
 1959              		.loc 2 436 27 is_stmt 0
 1960 0ae8 13050028 		li	a0,640
 1961 0aec 97000000 		call	mem_alloc@plt
 1961      E7800000 
 1962              	.LVL205:
 1963 0af4 130C0500 		mv	s8,a0
 1964              	.LVL206:
 437:src/Tests.cpp **** 
 1965              		.loc 2 437 5 is_stmt 1
GAS LISTING /tmp/ccdw4L4H.s 			page 53


 437:src/Tests.cpp **** 
 1966              		.loc 2 437 27 is_stmt 0
 1967 0af8 13050024 		li	a0,576
 1968              	.LVL207:
 1969 0afc 97000000 		call	mem_alloc@plt
 1969      E7800000 
 1970              	.LVL208:
 1971 0b04 930B0500 		mv	s7,a0
 1972              	.LVL209:
 439:src/Tests.cpp ****         printString("not OK\n");
 1973              		.loc 2 439 5 is_stmt 1
 1974 0b08 63020C04 		beqz	s8,.L132
 439:src/Tests.cpp ****         printString("not OK\n");
 1975              		.loc 2 439 14 is_stmt 0 discriminator 1
 1976 0b0c 63000504 		beqz	a0,.L132
 444:src/Tests.cpp ****     uint64 itmp5 = (uint64)tmp5;
 1977              		.loc 2 444 5 is_stmt 1
 1978              	.LVL210:
 445:src/Tests.cpp **** 
 1979              		.loc 2 445 5
 447:src/Tests.cpp ****         printString("not OK\n");
 1980              		.loc 2 447 5
 1981 0b10 6378AA04 		bgeu	s4,a0,.L134
 447:src/Tests.cpp ****         printString("not OK\n");
 1982              		.loc 2 447 22 is_stmt 0 discriminator 1
 1983 0b14 6376AB04 		bgeu	s6,a0,.L134
 447:src/Tests.cpp ****         printString("not OK\n");
 1984              		.loc 2 447 8 discriminator 2
 1985 0b18 63745C05 		bleu	s5,s8,.L134
 1986              	.LBB46:
 452:src/Tests.cpp ****         delete (uint64*)m[i];
 1987              		.loc 2 452 13
 1988 0b1c 130A0000 		li	s4,0
 1989 0b20 6F008005 		j	.L135
 1990              	.LVL211:
 1991              	.L126:
 1992              	.LBE46:
 414:src/Tests.cpp ****         return;
 1993              		.loc 2 414 9 is_stmt 1
 414:src/Tests.cpp ****         return;
 1994              		.loc 2 414 20 is_stmt 0
 1995 0b24 17050000 		lla	a0,.LC7
 1995      13050500 
 1996              	.LVL212:
 1997 0b2c 97000000 		call	_Z11printStringPKc@plt
 1997      E7800000 
 1998              	.LVL213:
 415:src/Tests.cpp ****     }
 1999              		.loc 2 415 9 is_stmt 1
 2000 0b34 6FF01FEF 		j	.L120
 2001              	.LVL214:
 2002              	.L128:
 429:src/Tests.cpp ****         return;
 2003              		.loc 2 429 9
 429:src/Tests.cpp ****         return;
 2004              		.loc 2 429 20 is_stmt 0
 2005 0b38 17050000 		lla	a0,.LC7
GAS LISTING /tmp/ccdw4L4H.s 			page 54


 2005      13050500 
 2006              	.LVL215:
 2007 0b40 97000000 		call	_Z11printStringPKc@plt
 2007      E7800000 
 2008              	.LVL216:
 430:src/Tests.cpp ****     }
 2009              		.loc 2 430 9 is_stmt 1
 2010 0b48 6FF0DFED 		j	.L120
 2011              	.LVL217:
 2012              	.L132:
 440:src/Tests.cpp ****         return;
 2013              		.loc 2 440 9
 440:src/Tests.cpp ****         return;
 2014              		.loc 2 440 20 is_stmt 0
 2015 0b4c 17050000 		lla	a0,.LC7
 2015      13050500 
 2016              	.LVL218:
 2017 0b54 97000000 		call	_Z11printStringPKc@plt
 2017      E7800000 
 2018              	.LVL219:
 441:src/Tests.cpp ****     }
 2019              		.loc 2 441 9 is_stmt 1
 2020 0b5c 6FF09FEC 		j	.L120
 2021              	.LVL220:
 2022              	.L134:
 448:src/Tests.cpp ****         return;
 2023              		.loc 2 448 9
 448:src/Tests.cpp ****         return;
 2024              		.loc 2 448 20 is_stmt 0
 2025 0b60 17050000 		lla	a0,.LC7
 2025      13050500 
 2026              	.LVL221:
 2027 0b68 97000000 		call	_Z11printStringPKc@plt
 2027      E7800000 
 2028              	.LVL222:
 449:src/Tests.cpp ****     }
 2029              		.loc 2 449 9 is_stmt 1
 2030 0b70 6FF05FEB 		j	.L120
 2031              	.LVL223:
 2032              	.L137:
 2033              	.LBB47:
 452:src/Tests.cpp ****         delete (uint64*)m[i];
 2034              		.loc 2 452 5 discriminator 2
 2035 0b74 1B0A1A00 		addiw	s4,s4,1
 2036              	.LVL224:
 2037              	.L135:
 452:src/Tests.cpp ****         delete (uint64*)m[i];
 2038              		.loc 2 452 18 discriminator 1
 2039 0b78 93079000 		li	a5,9
 2040 0b7c 63C24703 		bgt	s4,a5,.L136
 453:src/Tests.cpp ****     }
 2041              		.loc 2 453 9
 453:src/Tests.cpp ****     }
 2042              		.loc 2 453 28 is_stmt 0
 2043 0b80 93173A00 		slli	a5,s4,3
 2044 0b84 130704FB 		addi	a4,s0,-80
 2045              	.LVL225:
GAS LISTING /tmp/ccdw4L4H.s 			page 55


 2046 0b88 B307F700 		add	a5,a4,a5
 2047 0b8c 03B507FB 		ld	a0,-80(a5)
 453:src/Tests.cpp ****     }
 2048              		.loc 2 453 29
 2049 0b90 E30205FE 		beqz	a0,.L137
 453:src/Tests.cpp ****     }
 2050              		.loc 2 453 28 discriminator 1
 2051 0b94 97000000 		call	_ZdlPv@plt
 2051      E7800000 
 2052              	.LVL226:
 2053 0b9c 6FF09FFD 		j	.L137
 2054              	.L136:
 2055              	.LBE47:
 456:src/Tests.cpp ****     delete (uint64*)tmp2;
 2056              		.loc 2 456 5 is_stmt 1 discriminator 1
 456:src/Tests.cpp ****     delete (uint64*)tmp2;
 2057              		.loc 2 456 21 is_stmt 0 discriminator 1
 2058 0ba0 13850400 		mv	a0,s1
 2059 0ba4 97000000 		call	_ZdlPv@plt
 2059      E7800000 
 2060              	.LVL227:
 457:src/Tests.cpp ****     delete (uint64*)tmp3;
 2061              		.loc 2 457 5 is_stmt 1 discriminator 1
 457:src/Tests.cpp ****     delete (uint64*)tmp3;
 2062              		.loc 2 457 21 is_stmt 0 discriminator 1
 2063 0bac 13050900 		mv	a0,s2
 2064 0bb0 97000000 		call	_ZdlPv@plt
 2064      E7800000 
 2065              	.LVL228:
 458:src/Tests.cpp ****     delete (uint64*)tmp4;
 2066              		.loc 2 458 5 is_stmt 1 discriminator 1
 458:src/Tests.cpp ****     delete (uint64*)tmp4;
 2067              		.loc 2 458 21 is_stmt 0 discriminator 1
 2068 0bb8 13850900 		mv	a0,s3
 2069 0bbc 97000000 		call	_ZdlPv@plt
 2069      E7800000 
 2070              	.LVL229:
 459:src/Tests.cpp ****     delete (uint64*)tmp5;
 2071              		.loc 2 459 5 is_stmt 1 discriminator 1
 459:src/Tests.cpp ****     delete (uint64*)tmp5;
 2072              		.loc 2 459 21 is_stmt 0 discriminator 1
 2073 0bc4 13050C00 		mv	a0,s8
 2074 0bc8 97000000 		call	_ZdlPv@plt
 2074      E7800000 
 2075              	.LVL230:
 460:src/Tests.cpp **** 
 2076              		.loc 2 460 5 is_stmt 1 discriminator 1
 460:src/Tests.cpp **** 
 2077              		.loc 2 460 21 is_stmt 0 discriminator 1
 2078 0bd0 13850B00 		mv	a0,s7
 2079 0bd4 97000000 		call	_ZdlPv@plt
 2079      E7800000 
 2080              	.LVL231:
 462:src/Tests.cpp **** }
 2081              		.loc 2 462 5 is_stmt 1 discriminator 1
 462:src/Tests.cpp **** }
 2082              		.loc 2 462 16 is_stmt 0 discriminator 1
GAS LISTING /tmp/ccdw4L4H.s 			page 56


 2083 0bdc 17050000 		lla	a0,.LC16
 2083      13050500 
 2084 0be4 97000000 		call	_Z11printStringPKc@plt
 2084      E7800000 
 2085              	.LVL232:
 2086 0bec 6FF09FE3 		j	.L120
 2087              		.cfi_endproc
 2088              	.LFE53:
 2090              		.align	2
 2091              		.globl	_Z9consumerAPv
 2093              	_Z9consumerAPv:
 2094              	.LFB54:
 464:src/Tests.cpp **** 
 465:src/Tests.cpp **** char buffer[10];
 466:src/Tests.cpp **** int head = 0;
 467:src/Tests.cpp **** int tail = 0;
 468:src/Tests.cpp **** sem_t spaceAvailable, itemAvailable;
 469:src/Tests.cpp **** char string[11] = "this is ni";
 470:src/Tests.cpp **** 
 471:src/Tests.cpp **** void consumerA(void *arg)
 472:src/Tests.cpp **** {
 2095              		.loc 2 472 1 is_stmt 1
 2096              		.cfi_startproc
 2097              	.LVL233:
 473:src/Tests.cpp ****     while(head!=10)
 2098              		.loc 2 473 5
 2099              		.loc 2 473 15
 2100 0bf0 17070000 		lw	a4,.LANCHOR0
 2100      03270700 
 2101 0bf8 9307A000 		li	a5,10
 2102 0bfc 630CF706 		beq	a4,a5,.L150
 472:src/Tests.cpp ****     while(head!=10)
 2103              		.loc 2 472 1 is_stmt 0
 2104 0c00 130101FE 		addi	sp,sp,-32
 2105              		.cfi_def_cfa_offset 32
 2106 0c04 233C1100 		sd	ra,24(sp)
 2107 0c08 23388100 		sd	s0,16(sp)
 2108 0c0c 23349100 		sd	s1,8(sp)
 2109              		.cfi_offset 1, -8
 2110              		.cfi_offset 8, -16
 2111              		.cfi_offset 9, -24
 2112 0c10 13040102 		addi	s0,sp,32
 2113              		.cfi_def_cfa 8, 0
 2114              	.LVL234:
 2115              	.L147:
 474:src/Tests.cpp ****     {
 475:src/Tests.cpp ****         sem_wait(itemAvailable);
 2116              		.loc 2 475 9 is_stmt 1
 2117              		.loc 2 475 17 is_stmt 0
 2118 0c14 97040000 		lla	s1,.LANCHOR0
 2118      93840400 
 2119 0c1c 03B58400 		ld	a0,8(s1)
 2120 0c20 97000000 		call	sem_wait@plt
 2120      E7800000 
 2121              	.LVL235:
 476:src/Tests.cpp ****         putc(buffer[head++]);
 2122              		.loc 2 476 9 is_stmt 1
GAS LISTING /tmp/ccdw4L4H.s 			page 57


 2123              		.loc 2 476 25 is_stmt 0
 2124 0c28 83A70400 		lw	a5,0(s1)
 2125 0c2c 1B871700 		addiw	a4,a5,1
 2126 0c30 23A0E400 		sw	a4,0(s1)
 2127              		.loc 2 476 13
 2128 0c34 B387F400 		add	a5,s1,a5
 2129 0c38 03C50701 		lbu	a0,16(a5)
 2130 0c3c 97000000 		call	putc@plt
 2130      E7800000 
 2131              	.LVL236:
 477:src/Tests.cpp ****         sem_signal(spaceAvailable);
 2132              		.loc 2 477 9 is_stmt 1
 2133              		.loc 2 477 19 is_stmt 0
 2134 0c44 03B50402 		ld	a0,32(s1)
 2135 0c48 97000000 		call	sem_signal@plt
 2135      E7800000 
 2136              	.LVL237:
 473:src/Tests.cpp ****     {
 2137              		.loc 2 473 5 is_stmt 1
 473:src/Tests.cpp ****     {
 2138              		.loc 2 473 15
 2139 0c50 17070000 		lw	a4,.LANCHOR0
 2139      03270700 
 2140 0c58 9307A000 		li	a5,10
 2141 0c5c E31CF7FA 		bne	a4,a5,.L147
 478:src/Tests.cpp ****     }
 479:src/Tests.cpp **** }
 2142              		.loc 2 479 1 is_stmt 0
 2143 0c60 83308101 		ld	ra,24(sp)
 2144              		.cfi_restore 1
 2145 0c64 03340101 		ld	s0,16(sp)
 2146              		.cfi_restore 8
 2147              		.cfi_def_cfa 2, 32
 2148 0c68 83348100 		ld	s1,8(sp)
 2149              		.cfi_restore 9
 2150 0c6c 13010102 		addi	sp,sp,32
 2151              		.cfi_def_cfa_offset 0
 2152 0c70 67800000 		jr	ra
 2153              	.LVL238:
 2154              	.L150:
 2155 0c74 67800000 		ret
 2156              		.cfi_endproc
 2157              	.LFE54:
 2159              		.align	2
 2160              		.globl	_Z9producerAPv
 2162              	_Z9producerAPv:
 2163              	.LFB55:
 480:src/Tests.cpp **** 
 481:src/Tests.cpp **** void producerA(void *arg)
 482:src/Tests.cpp **** {
 2164              		.loc 2 482 1 is_stmt 1
 2165              		.cfi_startproc
 2166              	.LVL239:
 483:src/Tests.cpp ****     while(tail!=10)
 2167              		.loc 2 483 5
 2168              		.loc 2 483 15
 2169 0c78 17070000 		lw	a4,.LANCHOR0+40
GAS LISTING /tmp/ccdw4L4H.s 			page 58


 2169      03270700 
 2170 0c80 9307A000 		li	a5,10
 2171 0c84 6300F708 		beq	a4,a5,.L159
 482:src/Tests.cpp ****     while(tail!=10)
 2172              		.loc 2 482 1 is_stmt 0
 2173 0c88 130101FE 		addi	sp,sp,-32
 2174              		.cfi_def_cfa_offset 32
 2175 0c8c 233C1100 		sd	ra,24(sp)
 2176 0c90 23388100 		sd	s0,16(sp)
 2177 0c94 23349100 		sd	s1,8(sp)
 2178              		.cfi_offset 1, -8
 2179              		.cfi_offset 8, -16
 2180              		.cfi_offset 9, -24
 2181 0c98 13040102 		addi	s0,sp,32
 2182              		.cfi_def_cfa 8, 0
 2183              	.LVL240:
 2184              	.L156:
 484:src/Tests.cpp ****     {
 485:src/Tests.cpp ****         sem_wait(spaceAvailable);
 2185              		.loc 2 485 9 is_stmt 1
 2186              		.loc 2 485 17 is_stmt 0
 2187 0c9c 97040000 		lla	s1,.LANCHOR0
 2187      93840400 
 2188 0ca4 03B50402 		ld	a0,32(s1)
 2189 0ca8 97000000 		call	sem_wait@plt
 2189      E7800000 
 2190              	.LVL241:
 486:src/Tests.cpp ****         buffer[tail] = string[tail];
 2191              		.loc 2 486 9 is_stmt 1
 2192              		.loc 2 486 35 is_stmt 0
 2193 0cb0 83A78402 		lw	a5,40(s1)
 2194 0cb4 17070000 		lla	a4,.LANCHOR1
 2194      13070700 
 2195 0cbc 3307F700 		add	a4,a4,a5
 2196 0cc0 83460700 		lbu	a3,0(a4)
 2197              		.loc 2 486 22
 2198 0cc4 3387F400 		add	a4,s1,a5
 2199 0cc8 2308D700 		sb	a3,16(a4)
 487:src/Tests.cpp ****         tail++;
 2200              		.loc 2 487 9 is_stmt 1
 2201              		.loc 2 487 13 is_stmt 0
 2202 0ccc 9B871700 		addiw	a5,a5,1
 2203 0cd0 23A4F402 		sw	a5,40(s1)
 488:src/Tests.cpp ****         sem_signal(itemAvailable);
 2204              		.loc 2 488 9 is_stmt 1
 2205              		.loc 2 488 19 is_stmt 0
 2206 0cd4 03B58400 		ld	a0,8(s1)
 2207 0cd8 97000000 		call	sem_signal@plt
 2207      E7800000 
 2208              	.LVL242:
 483:src/Tests.cpp ****     {
 2209              		.loc 2 483 5 is_stmt 1
 483:src/Tests.cpp ****     {
 2210              		.loc 2 483 15
 2211 0ce0 17070000 		lw	a4,.LANCHOR0+40
 2211      03270700 
 2212 0ce8 9307A000 		li	a5,10
GAS LISTING /tmp/ccdw4L4H.s 			page 59


 2213 0cec E318F7FA 		bne	a4,a5,.L156
 489:src/Tests.cpp ****     }
 490:src/Tests.cpp **** }
 2214              		.loc 2 490 1 is_stmt 0
 2215 0cf0 83308101 		ld	ra,24(sp)
 2216              		.cfi_restore 1
 2217 0cf4 03340101 		ld	s0,16(sp)
 2218              		.cfi_restore 8
 2219              		.cfi_def_cfa 2, 32
 2220 0cf8 83348100 		ld	s1,8(sp)
 2221              		.cfi_restore 9
 2222 0cfc 13010102 		addi	sp,sp,32
 2223              		.cfi_def_cfa_offset 0
 2224 0d00 67800000 		jr	ra
 2225              	.LVL243:
 2226              	.L159:
 2227 0d04 67800000 		ret
 2228              		.cfi_endproc
 2229              	.LFE55:
 2231              		.align	2
 2232              		.globl	_Z8semTest1v
 2234              	_Z8semTest1v:
 2235              	.LFB56:
 491:src/Tests.cpp **** 
 492:src/Tests.cpp **** void semTest1()
 493:src/Tests.cpp **** {
 2236              		.loc 2 493 1 is_stmt 1
 2237              		.cfi_startproc
 2238 0d08 130101FF 		addi	sp,sp,-16
 2239              		.cfi_def_cfa_offset 16
 2240 0d0c 23348100 		sd	s0,8(sp)
 2241              		.cfi_offset 8, -8
 2242 0d10 13040101 		addi	s0,sp,16
 2243              		.cfi_def_cfa 8, 0
 494:src/Tests.cpp ****     /*sem_open(&spaceAvailable, 10);
 495:src/Tests.cpp **** 
 496:src/Tests.cpp ****     sem_open(&itemAvailable, 0);
 497:src/Tests.cpp **** 
 498:src/Tests.cpp ****     thread_t threadA, threadB;
 499:src/Tests.cpp **** 
 500:src/Tests.cpp ****     thread_create(&threadA, producerA, nullptr);
 501:src/Tests.cpp **** 
 502:src/Tests.cpp ****     thread_create(&threadB, consumerA, nullptr);
 503:src/Tests.cpp **** 
 504:src/Tests.cpp ****     while(!((PCB*)threadA)->isFinished() || !((PCB*)threadA)->isFinished())
 505:src/Tests.cpp ****         thread_dispatch();*/
 506:src/Tests.cpp **** }
 2244              		.loc 2 506 1 is_stmt 0
 2245 0d14 03348100 		ld	s0,8(sp)
 2246              		.cfi_restore 8
 2247              		.cfi_def_cfa 2, 16
 2248 0d18 13010101 		addi	sp,sp,16
 2249              		.cfi_def_cfa_offset 0
 2250 0d1c 67800000 		jr	ra
 2251              		.cfi_endproc
 2252              	.LFE56:
 2254              		.align	2
GAS LISTING /tmp/ccdw4L4H.s 			page 60


 2255              		.globl	_Z12consoleTest1v
 2257              	_Z12consoleTest1v:
 2258              	.LFB57:
 507:src/Tests.cpp **** 
 508:src/Tests.cpp **** void consoleTest1()
 509:src/Tests.cpp **** {
 2259              		.loc 2 509 1 is_stmt 1
 2260              		.cfi_startproc
 2261 0d20 130101FE 		addi	sp,sp,-32
 2262              		.cfi_def_cfa_offset 32
 2263 0d24 233C1100 		sd	ra,24(sp)
 2264 0d28 23388100 		sd	s0,16(sp)
 2265 0d2c 23349100 		sd	s1,8(sp)
 2266              		.cfi_offset 1, -8
 2267              		.cfi_offset 8, -16
 2268              		.cfi_offset 9, -24
 2269 0d30 13040102 		addi	s0,sp,32
 2270              		.cfi_def_cfa 8, 0
 510:src/Tests.cpp ****     for(int i = 0; i < 100;i++)
 2271              		.loc 2 510 5
 2272              	.LVL244:
 2273              	.LBB48:
 2274              		.loc 2 510 13 is_stmt 0
 2275 0d34 93040000 		li	s1,0
 2276              	.LVL245:
 2277              	.L164:
 2278              		.loc 2 510 22 is_stmt 1 discriminator 3
 2279 0d38 93073006 		li	a5,99
 2280 0d3c 63CA9700 		bgt	s1,a5,.L162
 511:src/Tests.cpp ****     {
 512:src/Tests.cpp ****         getc();
 2281              		.loc 2 512 9 discriminator 2
 2282              		.loc 2 512 13 is_stmt 0 discriminator 2
 2283 0d40 97000000 		call	getc@plt
 2283      E7800000 
 2284              	.LVL246:
 510:src/Tests.cpp ****     for(int i = 0; i < 100;i++)
 2285              		.loc 2 510 5 is_stmt 1 discriminator 2
 2286 0d48 9B841400 		addiw	s1,s1,1
 2287              	.LVL247:
 2288 0d4c 6FF0DFFE 		j	.L164
 2289              	.LVL248:
 2290              	.L162:
 2291              	.LBE48:
 513:src/Tests.cpp ****     }
 514:src/Tests.cpp **** }
 2292              		.loc 2 514 1 is_stmt 0
 2293 0d50 83308101 		ld	ra,24(sp)
 2294              		.cfi_restore 1
 2295 0d54 03340101 		ld	s0,16(sp)
 2296              		.cfi_restore 8
 2297              		.cfi_def_cfa 2, 32
 2298 0d58 83348100 		ld	s1,8(sp)
 2299              		.cfi_restore 9
 2300              	.LVL249:
 2301 0d5c 13010102 		addi	sp,sp,32
 2302              		.cfi_def_cfa_offset 0
GAS LISTING /tmp/ccdw4L4H.s 			page 61


 2303 0d60 67800000 		jr	ra
 2304              		.cfi_endproc
 2305              	.LFE57:
 2307              		.align	2
 2308              		.globl	_Z12consoleTestsv
 2310              	_Z12consoleTestsv:
 2311              	.LFB58:
 515:src/Tests.cpp **** 
 516:src/Tests.cpp **** void consoleTests()
 517:src/Tests.cpp **** {
 2312              		.loc 2 517 1 is_stmt 1
 2313              		.cfi_startproc
 2314 0d64 130101FF 		addi	sp,sp,-16
 2315              		.cfi_def_cfa_offset 16
 2316 0d68 23341100 		sd	ra,8(sp)
 2317 0d6c 23308100 		sd	s0,0(sp)
 2318              		.cfi_offset 1, -8
 2319              		.cfi_offset 8, -16
 2320 0d70 13040101 		addi	s0,sp,16
 2321              		.cfi_def_cfa 8, 0
 518:src/Tests.cpp ****     consoleTest1();
 2322              		.loc 2 518 5
 2323              		.loc 2 518 17 is_stmt 0
 2324 0d74 97000000 		call	_Z12consoleTest1v
 2324      E7800000 
 2325              	.LVL250:
 519:src/Tests.cpp **** }
 2326              		.loc 2 519 1
 2327 0d7c 83308100 		ld	ra,8(sp)
 2328              		.cfi_restore 1
 2329 0d80 03340100 		ld	s0,0(sp)
 2330              		.cfi_restore 8
 2331              		.cfi_def_cfa 2, 16
 2332 0d84 13010101 		addi	sp,sp,16
 2333              		.cfi_def_cfa_offset 0
 2334 0d88 67800000 		jr	ra
 2335              		.cfi_endproc
 2336              	.LFE58:
 2338              		.align	2
 2339              		.globl	_Z15changeModeTest1v
 2341              	_Z15changeModeTest1v:
 2342              	.LFB59:
 520:src/Tests.cpp **** 
 521:src/Tests.cpp **** 
 522:src/Tests.cpp **** void changeModeTest1()
 523:src/Tests.cpp **** {
 2343              		.loc 2 523 1 is_stmt 1
 2344              		.cfi_startproc
 2345 0d8c 130101FF 		addi	sp,sp,-16
 2346              		.cfi_def_cfa_offset 16
 2347 0d90 23348100 		sd	s0,8(sp)
 2348              		.cfi_offset 8, -8
 2349 0d94 13040101 		addi	s0,sp,16
 2350              		.cfi_def_cfa 8, 0
 524:src/Tests.cpp ****     // u user niti smo
 525:src/Tests.cpp ****     __asm__ volatile("csrr a0, sstatus"); //treba da pukne
 2351              		.loc 2 525 5
GAS LISTING /tmp/ccdw4L4H.s 			page 62


 2352              		.loc 2 525 41 is_stmt 0
 2353              	#APP
 2354              	# 525 "src/Tests.cpp" 1
 526              	}
 2355              		csrr a0, sstatus
 2356              	# 0 "" 2
 2357              		.loc 2 526 1
 2358              	#NO_APP
 2359 0d9c 03348100 		ld	s0,8(sp)
 2360              		.cfi_restore 8
 2361              		.cfi_def_cfa 2, 16
 2362 0da0 13010101 		addi	sp,sp,16
 2363              		.cfi_def_cfa_offset 0
 2364 0da4 67800000 		jr	ra
 2365              		.cfi_endproc
 2366              	.LFE59:
 2368              		.align	2
 2369              		.globl	_Z15changeModeTestsv
 2371              	_Z15changeModeTestsv:
 2372              	.LFB60:
 527:src/Tests.cpp **** 
 528:src/Tests.cpp **** void changeModeTests()
 529:src/Tests.cpp **** {
 2373              		.loc 2 529 1 is_stmt 1
 2374              		.cfi_startproc
 2375 0da8 130101FF 		addi	sp,sp,-16
 2376              		.cfi_def_cfa_offset 16
 2377 0dac 23341100 		sd	ra,8(sp)
 2378 0db0 23308100 		sd	s0,0(sp)
 2379              		.cfi_offset 1, -8
 2380              		.cfi_offset 8, -16
 2381 0db4 13040101 		addi	s0,sp,16
 2382              		.cfi_def_cfa 8, 0
 530:src/Tests.cpp ****     changeModeTest1();
 2383              		.loc 2 530 5
 2384              		.loc 2 530 20 is_stmt 0
 2385 0db8 97000000 		call	_Z15changeModeTest1v
 2385      E7800000 
 2386              	.LVL251:
 531:src/Tests.cpp **** }
 2387              		.loc 2 531 1
 2388 0dc0 83308100 		ld	ra,8(sp)
 2389              		.cfi_restore 1
 2390 0dc4 03340100 		ld	s0,0(sp)
 2391              		.cfi_restore 8
 2392              		.cfi_def_cfa 2, 16
 2393 0dc8 13010101 		addi	sp,sp,16
 2394              		.cfi_def_cfa_offset 0
 2395 0dcc 67800000 		jr	ra
 2396              		.cfi_endproc
 2397              	.LFE60:
 2399              		.weak	_ZTV14PeriodicThread
 2400              		.section	.data.rel.ro.local._ZTV14PeriodicThread,"awG",@progbits,_ZTV14PeriodicThread,comdat
 2401              		.align	3
 2404              	_ZTV14PeriodicThread:
 2405 0000 00000000 		.dword	0
 2405      00000000 
GAS LISTING /tmp/ccdw4L4H.s 			page 63


 2406 0008 00000000 		.dword	0
 2406      00000000 
 2407 0010 00000000 		.dword	_ZN14PeriodicThreadD1Ev
 2407      00000000 
 2408 0018 00000000 		.dword	_ZN14PeriodicThreadD0Ev
 2408      00000000 
 2409 0020 00000000 		.dword	_ZN6Thread3runEv
 2409      00000000 
 2410 0028 00000000 		.dword	_ZN14PeriodicThread18periodicActivationEv
 2410      00000000 
 2411              		.weak	_ZTV12TestPeriodic
 2412              		.section	.data.rel.ro.local._ZTV12TestPeriodic,"awG",@progbits,_ZTV12TestPeriodic,comdat
 2413              		.align	3
 2416              	_ZTV12TestPeriodic:
 2417 0000 00000000 		.dword	0
 2417      00000000 
 2418 0008 00000000 		.dword	0
 2418      00000000 
 2419 0010 00000000 		.dword	_ZN12TestPeriodicD1Ev
 2419      00000000 
 2420 0018 00000000 		.dword	_ZN12TestPeriodicD0Ev
 2420      00000000 
 2421 0020 00000000 		.dword	_ZN6Thread3runEv
 2421      00000000 
 2422 0028 00000000 		.dword	_ZN12TestPeriodic18periodicActivationEv
 2422      00000000 
 2423              		.globl	string
 2424              		.globl	itemAvailable
 2425              		.globl	spaceAvailable
 2426              		.globl	tail
 2427              		.globl	head
 2428              		.globl	buffer
 2429              		.data
 2430              		.align	3
 2431              		.set	.LANCHOR1,. + 0
 2434              	string:
 2435 0000 74686973 		.string	"this is ni"
 2435      20697320 
 2435      6E6900
 2436              		.bss
 2437              		.align	3
 2438              		.set	.LANCHOR0,. + 0
 2441              	head:
 2442 0000 00000000 		.zero	4
 2443 0004 00000000 		.zero	4
 2446              	itemAvailable:
 2447 0008 00000000 		.zero	8
 2447      00000000 
 2450              	buffer:
 2451 0010 00000000 		.zero	10
 2451      00000000 
 2451      0000
 2452 001a 00000000 		.zero	6
 2452      0000
 2455              	spaceAvailable:
 2456 0020 00000000 		.zero	8
 2456      00000000 
GAS LISTING /tmp/ccdw4L4H.s 			page 64


 2459              	tail:
 2460 0028 00000000 		.zero	4
 2461              		.text
 2462              	.Letext0:
 2463              		.file 4 "src/../h/../lib/hw.h"
 2464              		.file 5 "src/../h/syscall_c.h"
 2465              		.file 6 "src/../test/printing.hpp"
 7643              		.align	3
 7646              	DW.ref.__gxx_personality_v0:
 7647 0000 00000000 		.dword	__gxx_personality_v0
 7647      00000000 
 7648              		.ident	"GCC: (Ubuntu 9.3.0-17ubuntu1~20.04) 9.3.0"
 7649              		.section	.note.GNU-stack,"",@progbits
GAS LISTING /tmp/ccdw4L4H.s 			page 65


DEFINED SYMBOLS
                            *ABS*:0000000000000000 Tests.cpp
     /tmp/ccdw4L4H.s:10     .text._ZN6Thread3runEv:0000000000000000 _ZN6Thread3runEv
     /tmp/ccdw4L4H.s:14     .text._ZN6Thread3runEv:0000000000000000 .L0 
     /tmp/ccdw4L4H.s:16     .text._ZN6Thread3runEv:0000000000000000 .L0 
     /tmp/ccdw4L4H.s:17     .text._ZN6Thread3runEv:0000000000000004 .L0 
     /tmp/ccdw4L4H.s:19     .text._ZN6Thread3runEv:0000000000000008 .L0 
     /tmp/ccdw4L4H.s:21     .text._ZN6Thread3runEv:000000000000000c .L0 
     /tmp/ccdw4L4H.s:23     .text._ZN6Thread3runEv:000000000000000c .L0 
     /tmp/ccdw4L4H.s:24     .text._ZN6Thread3runEv:0000000000000010 .L0 
     /tmp/ccdw4L4H.s:25     .text._ZN6Thread3runEv:0000000000000010 .L0 
     /tmp/ccdw4L4H.s:27     .text._ZN6Thread3runEv:0000000000000014 .L0 
     /tmp/ccdw4L4H.s:29     .text._ZN6Thread3runEv:0000000000000018 .L0 
     /tmp/ccdw4L4H.s:36     .text._ZN14PeriodicThread18periodicActivationEv:0000000000000000 _ZN14PeriodicThread18periodicActivationEv
     /tmp/ccdw4L4H.s:39     .text._ZN14PeriodicThread18periodicActivationEv:0000000000000000 .L0 
     /tmp/ccdw4L4H.s:41     .text._ZN14PeriodicThread18periodicActivationEv:0000000000000000 .L0 
     /tmp/ccdw4L4H.s:42     .text._ZN14PeriodicThread18periodicActivationEv:0000000000000004 .L0 
     /tmp/ccdw4L4H.s:44     .text._ZN14PeriodicThread18periodicActivationEv:0000000000000008 .L0 
     /tmp/ccdw4L4H.s:46     .text._ZN14PeriodicThread18periodicActivationEv:000000000000000c .L0 
     /tmp/ccdw4L4H.s:48     .text._ZN14PeriodicThread18periodicActivationEv:000000000000000c .L0 
     /tmp/ccdw4L4H.s:49     .text._ZN14PeriodicThread18periodicActivationEv:0000000000000010 .L0 
     /tmp/ccdw4L4H.s:50     .text._ZN14PeriodicThread18periodicActivationEv:0000000000000010 .L0 
     /tmp/ccdw4L4H.s:52     .text._ZN14PeriodicThread18periodicActivationEv:0000000000000014 .L0 
     /tmp/ccdw4L4H.s:54     .text._ZN14PeriodicThread18periodicActivationEv:0000000000000018 .L0 
     /tmp/ccdw4L4H.s:65     .text:0000000000000000 _ZN12TestPeriodic18periodicActivationEv
     /tmp/ccdw4L4H.s:69     .text:0000000000000000 .L0 
     /tmp/ccdw4L4H.s:71     .text:0000000000000000 .L0 
     /tmp/ccdw4L4H.s:72     .text:0000000000000004 .L0 
     /tmp/ccdw4L4H.s:76     .text:0000000000000010 .L0 
     /tmp/ccdw4L4H.s:77     .text:0000000000000010 .L0 
     /tmp/ccdw4L4H.s:78     .text:0000000000000010 .L0 
     /tmp/ccdw4L4H.s:80     .text:0000000000000014 .L0 
     /tmp/ccdw4L4H.s:84     .text:0000000000000014 .L0 
     /tmp/ccdw4L4H.s:85     .text:0000000000000014 .L0 
     /tmp/ccdw4L4H.s:89     .text:0000000000000018 .L0 
     /tmp/ccdw4L4H.s:93     .text:0000000000000024 .L0 
     /tmp/ccdw4L4H.s:94     .text:0000000000000024 .L0 
     /tmp/ccdw4L4H.s:98     .text:0000000000000034 .L0 
     /tmp/ccdw4L4H.s:99     .text:0000000000000034 .L0 
     /tmp/ccdw4L4H.s:105    .text:0000000000000048 .L0 
     /tmp/ccdw4L4H.s:112    .text:0000000000000050 .L0 
     /tmp/ccdw4L4H.s:113    .text:0000000000000054 .L0 
     /tmp/ccdw4L4H.s:115    .text:0000000000000058 .L0 
     /tmp/ccdw4L4H.s:116    .text:0000000000000058 .L0 
     /tmp/ccdw4L4H.s:118    .text:000000000000005c .L0 
     /tmp/ccdw4L4H.s:121    .text:0000000000000060 .L0 
     /tmp/ccdw4L4H.s:123    .text:0000000000000064 .L0 
     /tmp/ccdw4L4H.s:130    .text._ZN14PeriodicThreadD2Ev:0000000000000000 _ZN14PeriodicThreadD2Ev
     /tmp/ccdw4L4H.s:133    .text._ZN14PeriodicThreadD2Ev:0000000000000000 .L0 
     /tmp/ccdw4L4H.s:135    .text._ZN14PeriodicThreadD2Ev:0000000000000000 .L0 
     /tmp/ccdw4L4H.s:136    .text._ZN14PeriodicThreadD2Ev:0000000000000004 .L0 
     /tmp/ccdw4L4H.s:139    .text._ZN14PeriodicThreadD2Ev:000000000000000c .L0 
     /tmp/ccdw4L4H.s:140    .text._ZN14PeriodicThreadD2Ev:000000000000000c .L0 
     /tmp/ccdw4L4H.s:142    .text._ZN14PeriodicThreadD2Ev:0000000000000010 .L0 
     /tmp/ccdw4L4H.s:2404   .data.rel.ro.local._ZTV14PeriodicThread:0000000000000000 _ZTV14PeriodicThread
     /tmp/ccdw4L4H.s:145    .text._ZN14PeriodicThreadD2Ev:0000000000000010 .L0 
     /tmp/ccdw4L4H.s:151    .text._ZN14PeriodicThreadD2Ev:0000000000000028 .L0 
GAS LISTING /tmp/ccdw4L4H.s 			page 66


     /tmp/ccdw4L4H.s:153    .text._ZN14PeriodicThreadD2Ev:000000000000002c .L0 
     /tmp/ccdw4L4H.s:154    .text._ZN14PeriodicThreadD2Ev:000000000000002c .L0 
     /tmp/ccdw4L4H.s:156    .text._ZN14PeriodicThreadD2Ev:0000000000000030 .L0 
     /tmp/ccdw4L4H.s:158    .text._ZN14PeriodicThreadD2Ev:0000000000000034 .L0 
     /tmp/ccdw4L4H.s:130    .text._ZN14PeriodicThreadD2Ev:0000000000000000 _ZN14PeriodicThreadD1Ev
     /tmp/ccdw4L4H.s:167    .text._ZN14PeriodicThreadD0Ev:0000000000000000 _ZN14PeriodicThreadD0Ev
     /tmp/ccdw4L4H.s:170    .text._ZN14PeriodicThreadD0Ev:0000000000000000 .L0 
     /tmp/ccdw4L4H.s:172    .text._ZN14PeriodicThreadD0Ev:0000000000000000 .L0 
     /tmp/ccdw4L4H.s:173    .text._ZN14PeriodicThreadD0Ev:0000000000000004 .L0 
     /tmp/ccdw4L4H.s:177    .text._ZN14PeriodicThreadD0Ev:0000000000000010 .L0 
     /tmp/ccdw4L4H.s:178    .text._ZN14PeriodicThreadD0Ev:0000000000000010 .L0 
     /tmp/ccdw4L4H.s:179    .text._ZN14PeriodicThreadD0Ev:0000000000000010 .L0 
     /tmp/ccdw4L4H.s:181    .text._ZN14PeriodicThreadD0Ev:0000000000000014 .L0 
     /tmp/ccdw4L4H.s:187    .text._ZN14PeriodicThreadD0Ev:0000000000000018 .L0 
     /tmp/ccdw4L4H.s:197    .text._ZN14PeriodicThreadD0Ev:000000000000003c .L0 
     /tmp/ccdw4L4H.s:199    .text._ZN14PeriodicThreadD0Ev:0000000000000040 .L0 
     /tmp/ccdw4L4H.s:200    .text._ZN14PeriodicThreadD0Ev:0000000000000040 .L0 
     /tmp/ccdw4L4H.s:202    .text._ZN14PeriodicThreadD0Ev:0000000000000044 .L0 
     /tmp/ccdw4L4H.s:205    .text._ZN14PeriodicThreadD0Ev:0000000000000048 .L0 
     /tmp/ccdw4L4H.s:207    .text._ZN14PeriodicThreadD0Ev:000000000000004c .L0 
     /tmp/ccdw4L4H.s:214    .text._ZN12TestPeriodicD2Ev:0000000000000000 _ZN12TestPeriodicD2Ev
     /tmp/ccdw4L4H.s:218    .text._ZN12TestPeriodicD2Ev:0000000000000000 .L0 
     /tmp/ccdw4L4H.s:220    .text._ZN12TestPeriodicD2Ev:0000000000000000 .L0 
     /tmp/ccdw4L4H.s:221    .text._ZN12TestPeriodicD2Ev:0000000000000004 .L0 
     /tmp/ccdw4L4H.s:224    .text._ZN12TestPeriodicD2Ev:000000000000000c .L0 
     /tmp/ccdw4L4H.s:225    .text._ZN12TestPeriodicD2Ev:000000000000000c .L0 
     /tmp/ccdw4L4H.s:227    .text._ZN12TestPeriodicD2Ev:0000000000000010 .L0 
     /tmp/ccdw4L4H.s:232    .text._ZN12TestPeriodicD2Ev:0000000000000010 .L0 
     /tmp/ccdw4L4H.s:239    .text._ZN12TestPeriodicD2Ev:0000000000000024 .L0 
     /tmp/ccdw4L4H.s:240    .text._ZN12TestPeriodicD2Ev:0000000000000028 .L0 
     /tmp/ccdw4L4H.s:242    .text._ZN12TestPeriodicD2Ev:000000000000002c .L0 
     /tmp/ccdw4L4H.s:243    .text._ZN12TestPeriodicD2Ev:000000000000002c .L0 
     /tmp/ccdw4L4H.s:245    .text._ZN12TestPeriodicD2Ev:0000000000000030 .L0 
     /tmp/ccdw4L4H.s:247    .text._ZN12TestPeriodicD2Ev:0000000000000034 .L0 
     /tmp/ccdw4L4H.s:214    .text._ZN12TestPeriodicD2Ev:0000000000000000 _ZN12TestPeriodicD1Ev
     /tmp/ccdw4L4H.s:256    .text._ZN12TestPeriodicD0Ev:0000000000000000 _ZN12TestPeriodicD0Ev
     /tmp/ccdw4L4H.s:259    .text._ZN12TestPeriodicD0Ev:0000000000000000 .L0 
     /tmp/ccdw4L4H.s:261    .text._ZN12TestPeriodicD0Ev:0000000000000000 .L0 
     /tmp/ccdw4L4H.s:262    .text._ZN12TestPeriodicD0Ev:0000000000000004 .L0 
     /tmp/ccdw4L4H.s:266    .text._ZN12TestPeriodicD0Ev:0000000000000010 .L0 
     /tmp/ccdw4L4H.s:267    .text._ZN12TestPeriodicD0Ev:0000000000000010 .L0 
     /tmp/ccdw4L4H.s:268    .text._ZN12TestPeriodicD0Ev:0000000000000010 .L0 
     /tmp/ccdw4L4H.s:270    .text._ZN12TestPeriodicD0Ev:0000000000000014 .L0 
     /tmp/ccdw4L4H.s:277    .text._ZN12TestPeriodicD0Ev:0000000000000018 .L0 
     /tmp/ccdw4L4H.s:285    .text._ZN12TestPeriodicD0Ev:000000000000002c .L0 
     /tmp/ccdw4L4H.s:289    .text._ZN12TestPeriodicD0Ev:000000000000003c .L0 
     /tmp/ccdw4L4H.s:291    .text._ZN12TestPeriodicD0Ev:0000000000000040 .L0 
     /tmp/ccdw4L4H.s:292    .text._ZN12TestPeriodicD0Ev:0000000000000040 .L0 
     /tmp/ccdw4L4H.s:294    .text._ZN12TestPeriodicD0Ev:0000000000000044 .L0 
     /tmp/ccdw4L4H.s:297    .text._ZN12TestPeriodicD0Ev:0000000000000048 .L0 
     /tmp/ccdw4L4H.s:299    .text._ZN12TestPeriodicD0Ev:000000000000004c .L0 
     /tmp/ccdw4L4H.s:310    .text:0000000000000064 _Z4idlePv
     /tmp/ccdw4L4H.s:313    .text:0000000000000064 .L0 
     /tmp/ccdw4L4H.s:315    .text:0000000000000064 .L0 
     /tmp/ccdw4L4H.s:316    .text:0000000000000068 .L0 
     /tmp/ccdw4L4H.s:319    .text:0000000000000070 .L0 
     /tmp/ccdw4L4H.s:320    .text:0000000000000070 .L0 
GAS LISTING /tmp/ccdw4L4H.s 			page 67


     /tmp/ccdw4L4H.s:322    .text:0000000000000074 .L0 
     /tmp/ccdw4L4H.s:326    .text:0000000000000074 .L0 
     /tmp/ccdw4L4H.s:327    .text:0000000000000074 .L0 
     /tmp/ccdw4L4H.s:328    .text:0000000000000074 .L0 
     /tmp/ccdw4L4H.s:332    .text:0000000000000084 .L0 
     /tmp/ccdw4L4H.s:333    .text:0000000000000084 .L0 
     /tmp/ccdw4L4H.s:336    .text:000000000000008c .L0 
     /tmp/ccdw4L4H.s:337    .text:0000000000000090 .L0 
     /tmp/ccdw4L4H.s:351    .text:0000000000000090 _Z15thread1FunctionPv
     /tmp/ccdw4L4H.s:354    .text:0000000000000090 .L0 
     /tmp/ccdw4L4H.s:356    .text:0000000000000090 .L0 
     /tmp/ccdw4L4H.s:357    .text:0000000000000094 .L0 
     /tmp/ccdw4L4H.s:361    .text:00000000000000a0 .L0 
     /tmp/ccdw4L4H.s:362    .text:00000000000000a0 .L0 
     /tmp/ccdw4L4H.s:363    .text:00000000000000a0 .L0 
     /tmp/ccdw4L4H.s:365    .text:00000000000000a4 .L0 
     /tmp/ccdw4L4H.s:367    .text:00000000000000a4 .L0 
     /tmp/ccdw4L4H.s:368    .text:00000000000000a4 .L0 
     /tmp/ccdw4L4H.s:373    .text:00000000000000b4 .L0 
     /tmp/ccdw4L4H.s:375    .text:00000000000000b4 .L0 
     /tmp/ccdw4L4H.s:376    .text:00000000000000b4 .L0 
     /tmp/ccdw4L4H.s:381    .text:00000000000000bc .L0 
     /tmp/ccdw4L4H.s:382    .text:00000000000000bc .L0 
     /tmp/ccdw4L4H.s:386    .text:00000000000000c4 .L0 
     /tmp/ccdw4L4H.s:387    .text:00000000000000c4 .L0 
     /tmp/ccdw4L4H.s:391    .text:00000000000000d4 .L0 
     /tmp/ccdw4L4H.s:392    .text:00000000000000d4 .L0 
     /tmp/ccdw4L4H.s:398    .text:00000000000000e8 .L0 
     /tmp/ccdw4L4H.s:399    .text:00000000000000e8 .L0 
     /tmp/ccdw4L4H.s:403    .text:00000000000000f8 .L0 
     /tmp/ccdw4L4H.s:407    .text:00000000000000fc .L0 
     /tmp/ccdw4L4H.s:411    .text:0000000000000108 .L0 
     /tmp/ccdw4L4H.s:412    .text:0000000000000108 .L0 
     /tmp/ccdw4L4H.s:415    .text:0000000000000110 .L0 
     /tmp/ccdw4L4H.s:417    .text:0000000000000114 .L0 
     /tmp/ccdw4L4H.s:422    .text:000000000000011c .L0 
     /tmp/ccdw4L4H.s:423    .text:0000000000000120 .L0 
     /tmp/ccdw4L4H.s:425    .text:0000000000000124 .L0 
     /tmp/ccdw4L4H.s:426    .text:0000000000000124 .L0 
     /tmp/ccdw4L4H.s:428    .text:0000000000000128 .L0 
     /tmp/ccdw4L4H.s:431    .text:000000000000012c .L0 
     /tmp/ccdw4L4H.s:433    .text:0000000000000130 .L0 
     /tmp/ccdw4L4H.s:447    .text:0000000000000130 _Z15thread2FunctionPv
     /tmp/ccdw4L4H.s:450    .text:0000000000000130 .L0 
     /tmp/ccdw4L4H.s:452    .text:0000000000000130 .L0 
     /tmp/ccdw4L4H.s:453    .text:0000000000000134 .L0 
     /tmp/ccdw4L4H.s:457    .text:0000000000000140 .L0 
     /tmp/ccdw4L4H.s:458    .text:0000000000000140 .L0 
     /tmp/ccdw4L4H.s:459    .text:0000000000000140 .L0 
     /tmp/ccdw4L4H.s:461    .text:0000000000000144 .L0 
     /tmp/ccdw4L4H.s:463    .text:0000000000000144 .L0 
     /tmp/ccdw4L4H.s:464    .text:0000000000000144 .L0 
     /tmp/ccdw4L4H.s:469    .text:0000000000000154 .L0 
     /tmp/ccdw4L4H.s:471    .text:0000000000000154 .L0 
     /tmp/ccdw4L4H.s:472    .text:0000000000000154 .L0 
     /tmp/ccdw4L4H.s:477    .text:000000000000015c .L0 
     /tmp/ccdw4L4H.s:478    .text:000000000000015c .L0 
GAS LISTING /tmp/ccdw4L4H.s 			page 68


     /tmp/ccdw4L4H.s:482    .text:0000000000000164 .L0 
     /tmp/ccdw4L4H.s:483    .text:0000000000000164 .L0 
     /tmp/ccdw4L4H.s:487    .text:0000000000000174 .L0 
     /tmp/ccdw4L4H.s:488    .text:0000000000000174 .L0 
     /tmp/ccdw4L4H.s:494    .text:0000000000000188 .L0 
     /tmp/ccdw4L4H.s:495    .text:0000000000000188 .L0 
     /tmp/ccdw4L4H.s:499    .text:0000000000000198 .L0 
     /tmp/ccdw4L4H.s:503    .text:000000000000019c .L0 
     /tmp/ccdw4L4H.s:507    .text:00000000000001a8 .L0 
     /tmp/ccdw4L4H.s:508    .text:00000000000001a8 .L0 
     /tmp/ccdw4L4H.s:511    .text:00000000000001b0 .L0 
     /tmp/ccdw4L4H.s:513    .text:00000000000001b4 .L0 
     /tmp/ccdw4L4H.s:518    .text:00000000000001bc .L0 
     /tmp/ccdw4L4H.s:519    .text:00000000000001c0 .L0 
     /tmp/ccdw4L4H.s:521    .text:00000000000001c4 .L0 
     /tmp/ccdw4L4H.s:522    .text:00000000000001c4 .L0 
     /tmp/ccdw4L4H.s:524    .text:00000000000001c8 .L0 
     /tmp/ccdw4L4H.s:527    .text:00000000000001cc .L0 
     /tmp/ccdw4L4H.s:529    .text:00000000000001d0 .L0 
     /tmp/ccdw4L4H.s:535    .text:00000000000001d0 _Z20thread2FunctionTest2Pv
     /tmp/ccdw4L4H.s:538    .text:00000000000001d0 .L0 
     /tmp/ccdw4L4H.s:540    .text:00000000000001d0 .L0 
     /tmp/ccdw4L4H.s:541    .text:00000000000001d4 .L0 
     /tmp/ccdw4L4H.s:545    .text:00000000000001e0 .L0 
     /tmp/ccdw4L4H.s:546    .text:00000000000001e0 .L0 
     /tmp/ccdw4L4H.s:547    .text:00000000000001e0 .L0 
     /tmp/ccdw4L4H.s:549    .text:00000000000001e4 .L0 
     /tmp/ccdw4L4H.s:551    .text:00000000000001e4 .L0 
     /tmp/ccdw4L4H.s:552    .text:00000000000001e4 .L0 
     /tmp/ccdw4L4H.s:557    .text:00000000000001f4 .L0 
     /tmp/ccdw4L4H.s:559    .text:00000000000001f4 .L0 
     /tmp/ccdw4L4H.s:560    .text:00000000000001f4 .L0 
     /tmp/ccdw4L4H.s:565    .text:00000000000001fc .L0 
     /tmp/ccdw4L4H.s:566    .text:00000000000001fc .L0 
     /tmp/ccdw4L4H.s:571    .text:0000000000000208 .L0 
     /tmp/ccdw4L4H.s:572    .text:0000000000000208 .L0 
     /tmp/ccdw4L4H.s:576    .text:0000000000000210 .L0 
     /tmp/ccdw4L4H.s:577    .text:0000000000000210 .L0 
     /tmp/ccdw4L4H.s:581    .text:0000000000000220 .L0 
     /tmp/ccdw4L4H.s:582    .text:0000000000000220 .L0 
     /tmp/ccdw4L4H.s:588    .text:0000000000000234 .L0 
     /tmp/ccdw4L4H.s:589    .text:0000000000000234 .L0 
     /tmp/ccdw4L4H.s:593    .text:0000000000000244 .L0 
     /tmp/ccdw4L4H.s:597    .text:0000000000000248 .L0 
     /tmp/ccdw4L4H.s:601    .text:0000000000000254 .L0 
     /tmp/ccdw4L4H.s:605    .text:000000000000025c .L0 
     /tmp/ccdw4L4H.s:606    .text:000000000000025c .L0 
     /tmp/ccdw4L4H.s:609    .text:0000000000000264 .L0 
     /tmp/ccdw4L4H.s:611    .text:0000000000000268 .L0 
     /tmp/ccdw4L4H.s:616    .text:0000000000000270 .L0 
     /tmp/ccdw4L4H.s:617    .text:0000000000000274 .L0 
     /tmp/ccdw4L4H.s:619    .text:0000000000000278 .L0 
     /tmp/ccdw4L4H.s:620    .text:0000000000000278 .L0 
     /tmp/ccdw4L4H.s:622    .text:000000000000027c .L0 
     /tmp/ccdw4L4H.s:625    .text:0000000000000280 .L0 
     /tmp/ccdw4L4H.s:627    .text:0000000000000284 .L0 
     /tmp/ccdw4L4H.s:633    .text:0000000000000284 _Z11threadTest1v
GAS LISTING /tmp/ccdw4L4H.s 			page 69


     /tmp/ccdw4L4H.s:636    .text:0000000000000284 .L0 
     /tmp/ccdw4L4H.s:637    .text:0000000000000284 .L0 
     /tmp/ccdw4L4H.s:638    .text:0000000000000288 .L0 
     /tmp/ccdw4L4H.s:640    .text:000000000000028c .L0 
     /tmp/ccdw4L4H.s:642    .text:0000000000000290 .L0 
     /tmp/ccdw4L4H.s:644    .text:0000000000000290 .L0 
     /tmp/ccdw4L4H.s:645    .text:0000000000000294 .L0 
     /tmp/ccdw4L4H.s:646    .text:0000000000000294 .L0 
     /tmp/ccdw4L4H.s:648    .text:0000000000000298 .L0 
     /tmp/ccdw4L4H.s:650    .text:000000000000029c .L0 
     /tmp/ccdw4L4H.s:656    .text:000000000000029c _Z11threadTest2v
     /tmp/ccdw4L4H.s:659    .text:000000000000029c .L0 
     /tmp/ccdw4L4H.s:660    .text:000000000000029c .L0 
     /tmp/ccdw4L4H.s:661    .text:00000000000002a0 .L0 
     /tmp/ccdw4L4H.s:663    .text:00000000000002a4 .L0 
     /tmp/ccdw4L4H.s:665    .text:00000000000002a8 .L0 
     /tmp/ccdw4L4H.s:667    .text:00000000000002a8 .L0 
     /tmp/ccdw4L4H.s:668    .text:00000000000002ac .L0 
     /tmp/ccdw4L4H.s:669    .text:00000000000002ac .L0 
     /tmp/ccdw4L4H.s:671    .text:00000000000002b0 .L0 
     /tmp/ccdw4L4H.s:673    .text:00000000000002b4 .L0 
     /tmp/ccdw4L4H.s:690    .text:00000000000002b4 _Z10mallocFreev
     /tmp/ccdw4L4H.s:693    .text:00000000000002b4 .L0 
     /tmp/ccdw4L4H.s:694    .text:00000000000002b4 .L0 
     /tmp/ccdw4L4H.s:695    .text:00000000000002b8 .L0 
     /tmp/ccdw4L4H.s:699    .text:00000000000002c4 .L0 
     /tmp/ccdw4L4H.s:700    .text:00000000000002c4 .L0 
     /tmp/ccdw4L4H.s:701    .text:00000000000002c4 .L0 
     /tmp/ccdw4L4H.s:703    .text:00000000000002c8 .L0 
     /tmp/ccdw4L4H.s:705    .text:00000000000002c8 .L0 
     /tmp/ccdw4L4H.s:706    .text:00000000000002c8 .L0 
     /tmp/ccdw4L4H.s:711    .text:00000000000002d8 .L0 
     /tmp/ccdw4L4H.s:716    .text:00000000000002e0 .L0 
     /tmp/ccdw4L4H.s:720    .text:00000000000002e4 .L0 
     /tmp/ccdw4L4H.s:723    .text:00000000000002ec .L0 
     /tmp/ccdw4L4H.s:724    .text:00000000000002ec .L0 
     /tmp/ccdw4L4H.s:728    .text:00000000000002f8 .L0 
     /tmp/ccdw4L4H.s:733    .text:0000000000000308 .L0 
     /tmp/ccdw4L4H.s:735    .text:000000000000030c .L0 
     /tmp/ccdw4L4H.s:736    .text:000000000000030c .L0 
     /tmp/ccdw4L4H.s:742    .text:000000000000031c .L0 
     /tmp/ccdw4L4H.s:743    .text:000000000000031c .L0 
     /tmp/ccdw4L4H.s:744    .text:0000000000000320 .L0 
     /tmp/ccdw4L4H.s:745    .text:0000000000000320 .L0 
     /tmp/ccdw4L4H.s:747    .text:0000000000000324 .L0 
     /tmp/ccdw4L4H.s:748    .text:0000000000000324 .L0 
     /tmp/ccdw4L4H.s:750    .text:0000000000000328 .L0 
     /tmp/ccdw4L4H.s:752    .text:000000000000032c .L0 
     /tmp/ccdw4L4H.s:756    .text:0000000000000330 .L0 
     /tmp/ccdw4L4H.s:759    .text:0000000000000330 .L0 
     /tmp/ccdw4L4H.s:763    .text:0000000000000334 .L0 
     /tmp/ccdw4L4H.s:767    .text:000000000000033c .L0 
     /tmp/ccdw4L4H.s:768    .text:000000000000033c .L0 
     /tmp/ccdw4L4H.s:775    .text:0000000000000354 .L0 
     /tmp/ccdw4L4H.s:778    .text:0000000000000358 .L0 
     /tmp/ccdw4L4H.s:779    .text:0000000000000358 .L0 
     /tmp/ccdw4L4H.s:782    .text:000000000000035c .L0 
GAS LISTING /tmp/ccdw4L4H.s 			page 70


     /tmp/ccdw4L4H.s:787    .text:0000000000000360 .L0 
     /tmp/ccdw4L4H.s:788    .text:0000000000000360 .L0 
     /tmp/ccdw4L4H.s:793    .text:0000000000000370 .L0 
     /tmp/ccdw4L4H.s:799    .text:0000000000000374 .L0 
     /tmp/ccdw4L4H.s:805    .text:000000000000037c .L0 
     /tmp/ccdw4L4H.s:806    .text:000000000000037c .L0 
     /tmp/ccdw4L4H.s:810    .text:0000000000000380 .L0 
     /tmp/ccdw4L4H.s:813    .text:0000000000000388 .L0 
     /tmp/ccdw4L4H.s:814    .text:0000000000000388 .L0 
     /tmp/ccdw4L4H.s:818    .text:0000000000000394 .L0 
     /tmp/ccdw4L4H.s:823    .text:00000000000003a4 .L0 
     /tmp/ccdw4L4H.s:825    .text:00000000000003a8 .L0 
     /tmp/ccdw4L4H.s:826    .text:00000000000003a8 .L0 
     /tmp/ccdw4L4H.s:830    .text:00000000000003b8 .L0 
     /tmp/ccdw4L4H.s:835    .text:00000000000003bc .L0 
     /tmp/ccdw4L4H.s:839    .text:00000000000003c0 .L0 
     /tmp/ccdw4L4H.s:843    .text:00000000000003c8 .L0 
     /tmp/ccdw4L4H.s:844    .text:00000000000003c8 .L0 
     /tmp/ccdw4L4H.s:851    .text:00000000000003e0 .L0 
     /tmp/ccdw4L4H.s:854    .text:00000000000003e4 .L0 
     /tmp/ccdw4L4H.s:861    .text:00000000000003ec .L0 
     /tmp/ccdw4L4H.s:862    .text:00000000000003ec .L0 
     /tmp/ccdw4L4H.s:867    .text:00000000000003fc .L0 
     /tmp/ccdw4L4H.s:872    .text:0000000000000400 .L0 
     /tmp/ccdw4L4H.s:873    .text:0000000000000400 .L0 
     /tmp/ccdw4L4H.s:877    .text:0000000000000414 .L0 
     /tmp/ccdw4L4H.s:888    .text:0000000000000414 _Z9bigMallocv
     /tmp/ccdw4L4H.s:891    .text:0000000000000414 .L0 
     /tmp/ccdw4L4H.s:892    .text:0000000000000414 .L0 
     /tmp/ccdw4L4H.s:893    .text:0000000000000418 .L0 
     /tmp/ccdw4L4H.s:896    .text:0000000000000420 .L0 
     /tmp/ccdw4L4H.s:897    .text:0000000000000420 .L0 
     /tmp/ccdw4L4H.s:899    .text:0000000000000424 .L0 
     /tmp/ccdw4L4H.s:901    .text:0000000000000424 .L0 
     /tmp/ccdw4L4H.s:902    .text:0000000000000424 .L0 
     /tmp/ccdw4L4H.s:906    .text:0000000000000434 .L0 
     /tmp/ccdw4L4H.s:907    .text:0000000000000434 .L0 
     /tmp/ccdw4L4H.s:914    .text:0000000000000450 .L0 
     /tmp/ccdw4L4H.s:915    .text:0000000000000450 .L0 
     /tmp/ccdw4L4H.s:920    .text:000000000000045c .L0 
     /tmp/ccdw4L4H.s:922    .text:0000000000000460 .L0 
     /tmp/ccdw4L4H.s:923    .text:0000000000000460 .L0 
     /tmp/ccdw4L4H.s:929    .text:0000000000000470 .L0 
     /tmp/ccdw4L4H.s:930    .text:0000000000000474 .L0 
     /tmp/ccdw4L4H.s:931    .text:0000000000000474 .L0 
     /tmp/ccdw4L4H.s:933    .text:0000000000000478 .L0 
     /tmp/ccdw4L4H.s:934    .text:0000000000000478 .L0 
     /tmp/ccdw4L4H.s:936    .text:000000000000047c .L0 
     /tmp/ccdw4L4H.s:940    .text:0000000000000480 .L0 
     /tmp/ccdw4L4H.s:942    .text:0000000000000480 .L0 
     /tmp/ccdw4L4H.s:943    .text:0000000000000480 .L0 
     /tmp/ccdw4L4H.s:948    .text:0000000000000494 .L0 
     /tmp/ccdw4L4H.s:954    .text:0000000000000494 _Z17lotOfSmallMallocsv
     /tmp/ccdw4L4H.s:957    .text:0000000000000494 .L0 
     /tmp/ccdw4L4H.s:958    .text:0000000000000494 .L0 
     /tmp/ccdw4L4H.s:959    .text:0000000000000498 .L0 
     /tmp/ccdw4L4H.s:963    .text:00000000000004a4 .L0 
GAS LISTING /tmp/ccdw4L4H.s 			page 71


     /tmp/ccdw4L4H.s:964    .text:00000000000004a4 .L0 
     /tmp/ccdw4L4H.s:965    .text:00000000000004a4 .L0 
     /tmp/ccdw4L4H.s:967    .text:00000000000004a8 .L0 
     /tmp/ccdw4L4H.s:971    .text:00000000000004a8 .L0 
     /tmp/ccdw4L4H.s:972    .text:00000000000004a8 .L0 
     /tmp/ccdw4L4H.s:977    .text:00000000000004b0 .L0 
     /tmp/ccdw4L4H.s:981    .text:00000000000004b4 .L0 
     /tmp/ccdw4L4H.s:986    .text:00000000000004c0 .L0 
     /tmp/ccdw4L4H.s:987    .text:00000000000004c0 .L0 
     /tmp/ccdw4L4H.s:991    .text:00000000000004cc .L0 
     /tmp/ccdw4L4H.s:993    .text:00000000000004d0 .L0 
     /tmp/ccdw4L4H.s:994    .text:00000000000004d0 .L0 
     /tmp/ccdw4L4H.s:1002   .text:00000000000004e0 .L0 
     /tmp/ccdw4L4H.s:1003   .text:00000000000004e0 .L0 
     /tmp/ccdw4L4H.s:1004   .text:00000000000004e0 .L0 
     /tmp/ccdw4L4H.s:1008   .text:00000000000004f0 .L0 
     /tmp/ccdw4L4H.s:1009   .text:00000000000004f4 .L0 
     /tmp/ccdw4L4H.s:1011   .text:00000000000004f8 .L0 
     /tmp/ccdw4L4H.s:1012   .text:00000000000004f8 .L0 
     /tmp/ccdw4L4H.s:1014   .text:00000000000004fc .L0 
     /tmp/ccdw4L4H.s:1017   .text:0000000000000500 .L0 
     /tmp/ccdw4L4H.s:1019   .text:0000000000000504 .L0 
     /tmp/ccdw4L4H.s:1030   .text:0000000000000504 _Z7badFreev
     /tmp/ccdw4L4H.s:1033   .text:0000000000000504 .L0 
     /tmp/ccdw4L4H.s:1034   .text:0000000000000504 .L0 
     /tmp/ccdw4L4H.s:1035   .text:0000000000000508 .L0 
     /tmp/ccdw4L4H.s:1038   .text:0000000000000510 .L0 
     /tmp/ccdw4L4H.s:1039   .text:0000000000000510 .L0 
     /tmp/ccdw4L4H.s:1041   .text:0000000000000514 .L0 
     /tmp/ccdw4L4H.s:1043   .text:0000000000000514 .L0 
     /tmp/ccdw4L4H.s:1044   .text:0000000000000514 .L0 
     /tmp/ccdw4L4H.s:1048   .text:0000000000000524 .L0 
     /tmp/ccdw4L4H.s:1049   .text:0000000000000524 .L0 
     /tmp/ccdw4L4H.s:1053   .text:0000000000000530 .L0 
     /tmp/ccdw4L4H.s:1054   .text:0000000000000530 .L0 
     /tmp/ccdw4L4H.s:1059   .text:000000000000053c .L0 
     /tmp/ccdw4L4H.s:1061   .text:0000000000000540 .L0 
     /tmp/ccdw4L4H.s:1062   .text:0000000000000540 .L0 
     /tmp/ccdw4L4H.s:1068   .text:0000000000000550 .L0 
     /tmp/ccdw4L4H.s:1069   .text:0000000000000554 .L0 
     /tmp/ccdw4L4H.s:1070   .text:0000000000000554 .L0 
     /tmp/ccdw4L4H.s:1072   .text:0000000000000558 .L0 
     /tmp/ccdw4L4H.s:1073   .text:0000000000000558 .L0 
     /tmp/ccdw4L4H.s:1075   .text:000000000000055c .L0 
     /tmp/ccdw4L4H.s:1079   .text:0000000000000560 .L0 
     /tmp/ccdw4L4H.s:1081   .text:0000000000000560 .L0 
     /tmp/ccdw4L4H.s:1082   .text:0000000000000560 .L0 
     /tmp/ccdw4L4H.s:1087   .text:0000000000000570 .L0 
     /tmp/ccdw4L4H.s:1088   .text:0000000000000574 .L0 
     /tmp/ccdw4L4H.s:1102   .text:0000000000000574 _Z13stressTestingv
     /tmp/ccdw4L4H.s:1105   .text:0000000000000574 .L0 
     /tmp/ccdw4L4H.s:1106   .text:0000000000000574 .L0 
     /tmp/ccdw4L4H.s:1107   .text:0000000000000578 .L0 
     /tmp/ccdw4L4H.s:1112   .text:0000000000000588 .L0 
     /tmp/ccdw4L4H.s:1113   .text:0000000000000588 .L0 
     /tmp/ccdw4L4H.s:1114   .text:0000000000000588 .L0 
     /tmp/ccdw4L4H.s:1115   .text:0000000000000588 .L0 
GAS LISTING /tmp/ccdw4L4H.s 			page 72


     /tmp/ccdw4L4H.s:1117   .text:000000000000058c .L0 
     /tmp/ccdw4L4H.s:1119   .text:000000000000058c .L0 
     /tmp/ccdw4L4H.s:1120   .text:000000000000058c .L0 
     /tmp/ccdw4L4H.s:1125   .text:000000000000059c .L0 
     /tmp/ccdw4L4H.s:1130   .text:00000000000005a4 .L0 
     /tmp/ccdw4L4H.s:1134   .text:00000000000005a8 .L0 
     /tmp/ccdw4L4H.s:1137   .text:00000000000005b0 .L0 
     /tmp/ccdw4L4H.s:1138   .text:00000000000005b0 .L0 
     /tmp/ccdw4L4H.s:1142   .text:00000000000005bc .L0 
     /tmp/ccdw4L4H.s:1147   .text:00000000000005cc .L0 
     /tmp/ccdw4L4H.s:1149   .text:00000000000005d0 .L0 
     /tmp/ccdw4L4H.s:1150   .text:00000000000005d0 .L0 
     /tmp/ccdw4L4H.s:1156   .text:00000000000005e0 .L0 
     /tmp/ccdw4L4H.s:1157   .text:00000000000005e0 .L0 
     /tmp/ccdw4L4H.s:1158   .text:00000000000005e4 .L0 
     /tmp/ccdw4L4H.s:1159   .text:00000000000005e4 .L0 
     /tmp/ccdw4L4H.s:1161   .text:00000000000005e8 .L0 
     /tmp/ccdw4L4H.s:1162   .text:00000000000005e8 .L0 
     /tmp/ccdw4L4H.s:1164   .text:00000000000005ec .L0 
     /tmp/ccdw4L4H.s:1166   .text:00000000000005f0 .L0 
     /tmp/ccdw4L4H.s:1168   .text:00000000000005f4 .L0 
     /tmp/ccdw4L4H.s:1172   .text:00000000000005f8 .L0 
     /tmp/ccdw4L4H.s:1174   .text:00000000000005f8 .L0 
     /tmp/ccdw4L4H.s:1178   .text:00000000000005fc .L0 
     /tmp/ccdw4L4H.s:1179   .text:00000000000005fc .L0 
     /tmp/ccdw4L4H.s:1183   .text:0000000000000600 .L0 
     /tmp/ccdw4L4H.s:1187   .text:0000000000000604 .L0 
     /tmp/ccdw4L4H.s:1191   .text:000000000000060c .L0 
     /tmp/ccdw4L4H.s:1192   .text:000000000000060c .L0 
     /tmp/ccdw4L4H.s:1199   .text:0000000000000624 .L0 
     /tmp/ccdw4L4H.s:1201   .text:0000000000000628 .L0 
     /tmp/ccdw4L4H.s:1202   .text:0000000000000628 .L0 
     /tmp/ccdw4L4H.s:1206   .text:0000000000000630 .L0 
     /tmp/ccdw4L4H.s:1210   .text:000000000000063c .L0 
     /tmp/ccdw4L4H.s:1215   .text:000000000000064c .L0 
     /tmp/ccdw4L4H.s:1218   .text:0000000000000650 .L0 
     /tmp/ccdw4L4H.s:1219   .text:0000000000000650 .L0 
     /tmp/ccdw4L4H.s:1222   .text:0000000000000654 .L0 
     /tmp/ccdw4L4H.s:1227   .text:0000000000000658 .L0 
     /tmp/ccdw4L4H.s:1228   .text:0000000000000658 .L0 
     /tmp/ccdw4L4H.s:1233   .text:0000000000000668 .L0 
     /tmp/ccdw4L4H.s:1236   .text:000000000000066c .L0 
     /tmp/ccdw4L4H.s:1237   .text:000000000000066c .L0 
     /tmp/ccdw4L4H.s:1241   .text:000000000000067c .L0 
     /tmp/ccdw4L4H.s:1247   .text:0000000000000680 .L0 
     /tmp/ccdw4L4H.s:1251   .text:0000000000000684 .L0 
     /tmp/ccdw4L4H.s:1255   .text:000000000000068c .L0 
     /tmp/ccdw4L4H.s:1256   .text:000000000000068c .L0 
     /tmp/ccdw4L4H.s:1263   .text:00000000000006a4 .L0 
     /tmp/ccdw4L4H.s:1265   .text:00000000000006a8 .L0 
     /tmp/ccdw4L4H.s:1266   .text:00000000000006a8 .L0 
     /tmp/ccdw4L4H.s:1271   .text:00000000000006b4 .L0 
     /tmp/ccdw4L4H.s:1276   .text:00000000000006c4 .L0 
     /tmp/ccdw4L4H.s:1279   .text:00000000000006c8 .L0 
     /tmp/ccdw4L4H.s:1280   .text:00000000000006c8 .L0 
     /tmp/ccdw4L4H.s:1283   .text:00000000000006cc .L0 
     /tmp/ccdw4L4H.s:1288   .text:00000000000006d0 .L0 
GAS LISTING /tmp/ccdw4L4H.s 			page 73


     /tmp/ccdw4L4H.s:1289   .text:00000000000006d0 .L0 
     /tmp/ccdw4L4H.s:1294   .text:00000000000006e0 .L0 
     /tmp/ccdw4L4H.s:1297   .text:00000000000006e4 .L0 
     /tmp/ccdw4L4H.s:1298   .text:00000000000006e4 .L0 
     /tmp/ccdw4L4H.s:1302   .text:00000000000006f4 .L0 
     /tmp/ccdw4L4H.s:1307   .text:00000000000006f8 .L0 
     /tmp/ccdw4L4H.s:1308   .text:00000000000006f8 .L0 
     /tmp/ccdw4L4H.s:1312   .text:00000000000006fc .L0 
     /tmp/ccdw4L4H.s:1316   .text:0000000000000700 .L0 
     /tmp/ccdw4L4H.s:1317   .text:0000000000000700 .L0 
     /tmp/ccdw4L4H.s:1321   .text:0000000000000714 .L0 
     /tmp/ccdw4L4H.s:1327   .text:0000000000000714 _Z21memoryAllocationTestsv
     /tmp/ccdw4L4H.s:1330   .text:0000000000000714 .L0 
     /tmp/ccdw4L4H.s:1331   .text:0000000000000714 .L0 
     /tmp/ccdw4L4H.s:1332   .text:0000000000000718 .L0 
     /tmp/ccdw4L4H.s:1335   .text:0000000000000720 .L0 
     /tmp/ccdw4L4H.s:1336   .text:0000000000000720 .L0 
     /tmp/ccdw4L4H.s:1338   .text:0000000000000724 .L0 
     /tmp/ccdw4L4H.s:1340   .text:0000000000000724 .L0 
     /tmp/ccdw4L4H.s:1341   .text:0000000000000724 .L0 
     /tmp/ccdw4L4H.s:1344   .text:000000000000072c .L0 
     /tmp/ccdw4L4H.s:1345   .text:0000000000000730 .L0 
     /tmp/ccdw4L4H.s:1347   .text:0000000000000734 .L0 
     /tmp/ccdw4L4H.s:1348   .text:0000000000000734 .L0 
     /tmp/ccdw4L4H.s:1350   .text:0000000000000738 .L0 
     /tmp/ccdw4L4H.s:1352   .text:000000000000073c .L0 
     /tmp/ccdw4L4H.s:1358   .text:000000000000073c _Z14semaphoreTestsv
     /tmp/ccdw4L4H.s:1361   .text:000000000000073c .L0 
     /tmp/ccdw4L4H.s:1362   .text:000000000000073c .L0 
     /tmp/ccdw4L4H.s:1363   .text:0000000000000740 .L0 
     /tmp/ccdw4L4H.s:1365   .text:0000000000000744 .L0 
     /tmp/ccdw4L4H.s:1367   .text:0000000000000748 .L0 
     /tmp/ccdw4L4H.s:1369   .text:0000000000000748 .L0 
     /tmp/ccdw4L4H.s:1370   .text:0000000000000748 .L0 
     /tmp/ccdw4L4H.s:1371   .text:000000000000074c .L0 
     /tmp/ccdw4L4H.s:1372   .text:000000000000074c .L0 
     /tmp/ccdw4L4H.s:1374   .text:0000000000000750 .L0 
     /tmp/ccdw4L4H.s:1376   .text:0000000000000754 .L0 
     /tmp/ccdw4L4H.s:1382   .text:0000000000000754 _Z7myTestsv
     /tmp/ccdw4L4H.s:1385   .text:0000000000000754 .L0 
     /tmp/ccdw4L4H.s:1386   .text:0000000000000754 .L0 
     /tmp/ccdw4L4H.s:1387   .text:0000000000000758 .L0 
     /tmp/ccdw4L4H.s:1390   .text:0000000000000760 .L0 
     /tmp/ccdw4L4H.s:1391   .text:0000000000000760 .L0 
     /tmp/ccdw4L4H.s:1393   .text:0000000000000764 .L0 
     /tmp/ccdw4L4H.s:1395   .text:0000000000000764 .L0 
     /tmp/ccdw4L4H.s:1396   .text:0000000000000764 .L0 
     /tmp/ccdw4L4H.s:1399   .text:000000000000076c .L0 
     /tmp/ccdw4L4H.s:1400   .text:0000000000000770 .L0 
     /tmp/ccdw4L4H.s:1402   .text:0000000000000774 .L0 
     /tmp/ccdw4L4H.s:1403   .text:0000000000000774 .L0 
     /tmp/ccdw4L4H.s:1405   .text:0000000000000778 .L0 
     /tmp/ccdw4L4H.s:1407   .text:000000000000077c .L0 
     /tmp/ccdw4L4H.s:1413   .text:000000000000077c _ZN12TestPeriodicC2Em
     /tmp/ccdw4L4H.s:1416   .text:000000000000077c .L0 
     /tmp/ccdw4L4H.s:1418   .text:000000000000077c .L0 
     /tmp/ccdw4L4H.s:1419   .text:0000000000000780 .L0 
GAS LISTING /tmp/ccdw4L4H.s 			page 74


     /tmp/ccdw4L4H.s:1423   .text:000000000000078c .L0 
     /tmp/ccdw4L4H.s:1424   .text:000000000000078c .L0 
     /tmp/ccdw4L4H.s:1425   .text:000000000000078c .L0 
     /tmp/ccdw4L4H.s:1427   .text:0000000000000790 .L0 
     /tmp/ccdw4L4H.s:1431   .text:0000000000000794 .L0 
     /tmp/ccdw4L4H.s:2416   .data.rel.ro.local._ZTV12TestPeriodic:0000000000000000 _ZTV12TestPeriodic
     /tmp/ccdw4L4H.s:1437   .text:00000000000007a8 .L0 
     /tmp/ccdw4L4H.s:1438   .text:00000000000007ac .L0 
     /tmp/ccdw4L4H.s:1440   .text:00000000000007b0 .L0 
     /tmp/ccdw4L4H.s:1441   .text:00000000000007b0 .L0 
     /tmp/ccdw4L4H.s:1443   .text:00000000000007b4 .L0 
     /tmp/ccdw4L4H.s:1446   .text:00000000000007b8 .L0 
     /tmp/ccdw4L4H.s:1448   .text:00000000000007bc .L0 
     /tmp/ccdw4L4H.s:1413   .text:000000000000077c _ZN12TestPeriodicC1Em
     /tmp/ccdw4L4H.s:1456   .text:00000000000007bc _Z11threadTest3v
     /tmp/ccdw4L4H.s:1459   .text:00000000000007bc .L0 
     /tmp/ccdw4L4H.s:7646   .data.rel.local.DW.ref.__gxx_personality_v0:0000000000000000 DW.ref.__gxx_personality_v0
     /tmp/ccdw4L4H.s:1462   .text:00000000000007bc .L0 
     /tmp/ccdw4L4H.s:1463   .text:00000000000007c0 .L0 
     /tmp/ccdw4L4H.s:1468   .text:00000000000007d0 .L0 
     /tmp/ccdw4L4H.s:1469   .text:00000000000007d0 .L0 
     /tmp/ccdw4L4H.s:1470   .text:00000000000007d0 .L0 
     /tmp/ccdw4L4H.s:1471   .text:00000000000007d0 .L0 
     /tmp/ccdw4L4H.s:1473   .text:00000000000007d4 .L0 
     /tmp/ccdw4L4H.s:1475   .text:00000000000007d4 .L0 
     /tmp/ccdw4L4H.s:1476   .text:00000000000007d4 .L0 
     /tmp/ccdw4L4H.s:1488   .text:00000000000007f0 .L0 
     /tmp/ccdw4L4H.s:1489   .text:00000000000007f0 .L0 
     /tmp/ccdw4L4H.s:1496   .text:00000000000007fc .L0 
     /tmp/ccdw4L4H.s:1497   .text:00000000000007fc .L0 
     /tmp/ccdw4L4H.s:1502   .text:0000000000000804 .L0 
     /tmp/ccdw4L4H.s:1510   .text:000000000000081c .L0 
     /tmp/ccdw4L4H.s:1540   .text:000000000000081c _Z11threadTestsv
     /tmp/ccdw4L4H.s:1543   .text:000000000000081c .L0 
     /tmp/ccdw4L4H.s:1544   .text:000000000000081c .L0 
     /tmp/ccdw4L4H.s:1545   .text:0000000000000820 .L0 
     /tmp/ccdw4L4H.s:1548   .text:0000000000000828 .L0 
     /tmp/ccdw4L4H.s:1549   .text:0000000000000828 .L0 
     /tmp/ccdw4L4H.s:1551   .text:000000000000082c .L0 
     /tmp/ccdw4L4H.s:1553   .text:000000000000082c .L0 
     /tmp/ccdw4L4H.s:1554   .text:000000000000082c .L0 
     /tmp/ccdw4L4H.s:1556   .text:0000000000000834 .L0 
     /tmp/ccdw4L4H.s:1570   .text:0000000000000834 _Z10mallocTestv
     /tmp/ccdw4L4H.s:1573   .text:0000000000000834 .L0 
     /tmp/ccdw4L4H.s:1574   .text:0000000000000834 .L0 
     /tmp/ccdw4L4H.s:1575   .text:0000000000000838 .L0 
     /tmp/ccdw4L4H.s:1584   .text:0000000000000858 .L0 
     /tmp/ccdw4L4H.s:1585   .text:0000000000000858 .L0 
     /tmp/ccdw4L4H.s:1586   .text:0000000000000858 .L0 
     /tmp/ccdw4L4H.s:1587   .text:0000000000000858 .L0 
     /tmp/ccdw4L4H.s:1588   .text:0000000000000858 .L0 
     /tmp/ccdw4L4H.s:1589   .text:0000000000000858 .L0 
     /tmp/ccdw4L4H.s:1590   .text:0000000000000858 .L0 
     /tmp/ccdw4L4H.s:1591   .text:0000000000000858 .L0 
     /tmp/ccdw4L4H.s:1593   .text:000000000000085c .L0 
     /tmp/ccdw4L4H.s:1595   .text:000000000000085c .L0 
     /tmp/ccdw4L4H.s:1596   .text:000000000000085c .L0 
GAS LISTING /tmp/ccdw4L4H.s 			page 75


     /tmp/ccdw4L4H.s:1600   .text:000000000000086c .L0 
     /tmp/ccdw4L4H.s:1601   .text:000000000000086c .L0 
     /tmp/ccdw4L4H.s:1607   .text:000000000000087c .L0 
     /tmp/ccdw4L4H.s:1608   .text:000000000000087c .L0 
     /tmp/ccdw4L4H.s:1611   .text:0000000000000884 .L0 
     /tmp/ccdw4L4H.s:1612   .text:0000000000000884 .L0 
     /tmp/ccdw4L4H.s:1618   .text:0000000000000894 .L0 
     /tmp/ccdw4L4H.s:1619   .text:0000000000000894 .L0 
     /tmp/ccdw4L4H.s:1626   .text:00000000000008a4 .L0 
     /tmp/ccdw4L4H.s:1627   .text:00000000000008a4 .L0 
     /tmp/ccdw4L4H.s:1634   .text:00000000000008b4 .L0 
     /tmp/ccdw4L4H.s:1635   .text:00000000000008b4 .L0 
     /tmp/ccdw4L4H.s:1643   .text:00000000000008c8 .L0 
     /tmp/ccdw4L4H.s:1644   .text:00000000000008c8 .L0 
     /tmp/ccdw4L4H.s:1649   .text:00000000000008d4 .L0 
     /tmp/ccdw4L4H.s:1652   .text:00000000000008dc .L0 
     /tmp/ccdw4L4H.s:1654   .text:00000000000008e0 .L0 
     /tmp/ccdw4L4H.s:1656   .text:00000000000008e4 .L0 
     /tmp/ccdw4L4H.s:1658   .text:00000000000008e8 .L0 
     /tmp/ccdw4L4H.s:1660   .text:00000000000008ec .L0 
     /tmp/ccdw4L4H.s:1661   .text:00000000000008ec .L0 
     /tmp/ccdw4L4H.s:1666   .text:00000000000008f8 .L0 
     /tmp/ccdw4L4H.s:1667   .text:00000000000008f8 .L0 
     /tmp/ccdw4L4H.s:1671   .text:0000000000000904 .L0 
     /tmp/ccdw4L4H.s:1672   .text:0000000000000904 .L0 
     /tmp/ccdw4L4H.s:1676   .text:0000000000000910 .L0 
     /tmp/ccdw4L4H.s:1677   .text:0000000000000910 .L0 
     /tmp/ccdw4L4H.s:1681   .text:000000000000091c .L0 
     /tmp/ccdw4L4H.s:1682   .text:000000000000091c .L0 
     /tmp/ccdw4L4H.s:1686   .text:0000000000000928 .L0 
     /tmp/ccdw4L4H.s:1687   .text:0000000000000928 .L0 
     /tmp/ccdw4L4H.s:1689   .text:000000000000092c .L0 
     /tmp/ccdw4L4H.s:1694   .text:0000000000000938 .L0 
     /tmp/ccdw4L4H.s:1695   .text:0000000000000938 .L0 
     /tmp/ccdw4L4H.s:1702   .text:000000000000094c .L0 
     /tmp/ccdw4L4H.s:1703   .text:000000000000094c .L0 
     /tmp/ccdw4L4H.s:1709   .text:000000000000095c .L0 
     /tmp/ccdw4L4H.s:1710   .text:000000000000095c .L0 
     /tmp/ccdw4L4H.s:1711   .text:0000000000000960 .L0 
     /tmp/ccdw4L4H.s:1713   .text:0000000000000964 .L0 
     /tmp/ccdw4L4H.s:1714   .text:0000000000000964 .L0 
     /tmp/ccdw4L4H.s:1716   .text:0000000000000968 .L0 
     /tmp/ccdw4L4H.s:1719   .text:000000000000096c .L0 
     /tmp/ccdw4L4H.s:1722   .text:0000000000000970 .L0 
     /tmp/ccdw4L4H.s:1725   .text:0000000000000974 .L0 
     /tmp/ccdw4L4H.s:1728   .text:0000000000000978 .L0 
     /tmp/ccdw4L4H.s:1731   .text:000000000000097c .L0 
     /tmp/ccdw4L4H.s:1733   .text:0000000000000980 .L0 
     /tmp/ccdw4L4H.s:1735   .text:0000000000000984 .L0 
     /tmp/ccdw4L4H.s:1741   .text:0000000000000984 _Z16mallocEverythingv
     /tmp/ccdw4L4H.s:1744   .text:0000000000000984 .L0 
     /tmp/ccdw4L4H.s:1745   .text:0000000000000984 .L0 
     /tmp/ccdw4L4H.s:1746   .text:0000000000000988 .L0 
     /tmp/ccdw4L4H.s:1748   .text:000000000000098c .L0 
     /tmp/ccdw4L4H.s:1750   .text:0000000000000990 .L0 
     /tmp/ccdw4L4H.s:1752   .text:0000000000000990 .L0 
     /tmp/ccdw4L4H.s:1753   .text:0000000000000994 .L0 
GAS LISTING /tmp/ccdw4L4H.s 			page 76


     /tmp/ccdw4L4H.s:1754   .text:0000000000000994 .L0 
     /tmp/ccdw4L4H.s:1756   .text:0000000000000998 .L0 
     /tmp/ccdw4L4H.s:1758   .text:000000000000099c .L0 
     /tmp/ccdw4L4H.s:1772   .text:000000000000099c _Z17mallocGapFillTestv
     /tmp/ccdw4L4H.s:1775   .text:000000000000099c .L0 
     /tmp/ccdw4L4H.s:1776   .text:000000000000099c .L0 
     /tmp/ccdw4L4H.s:1777   .text:00000000000009a0 .L0 
     /tmp/ccdw4L4H.s:1788   .text:00000000000009c8 .L0 
     /tmp/ccdw4L4H.s:1789   .text:00000000000009c8 .L0 
     /tmp/ccdw4L4H.s:1790   .text:00000000000009c8 .L0 
     /tmp/ccdw4L4H.s:1791   .text:00000000000009c8 .L0 
     /tmp/ccdw4L4H.s:1792   .text:00000000000009c8 .L0 
     /tmp/ccdw4L4H.s:1793   .text:00000000000009c8 .L0 
     /tmp/ccdw4L4H.s:1794   .text:00000000000009c8 .L0 
     /tmp/ccdw4L4H.s:1795   .text:00000000000009c8 .L0 
     /tmp/ccdw4L4H.s:1796   .text:00000000000009c8 .L0 
     /tmp/ccdw4L4H.s:1797   .text:00000000000009c8 .L0 
     /tmp/ccdw4L4H.s:1799   .text:00000000000009cc .L0 
     /tmp/ccdw4L4H.s:1801   .text:00000000000009cc .L0 
     /tmp/ccdw4L4H.s:1802   .text:00000000000009cc .L0 
     /tmp/ccdw4L4H.s:1807   .text:00000000000009dc .L0 
     /tmp/ccdw4L4H.s:1811   .text:00000000000009e0 .L0 
     /tmp/ccdw4L4H.s:1814   .text:00000000000009e8 .L0 
     /tmp/ccdw4L4H.s:1815   .text:00000000000009e8 .L0 
     /tmp/ccdw4L4H.s:1817   .text:00000000000009ec .L0 
     /tmp/ccdw4L4H.s:1821   .text:00000000000009f8 .L0 
     /tmp/ccdw4L4H.s:1826   .text:0000000000000a08 .L0 
     /tmp/ccdw4L4H.s:1828   .text:0000000000000a0c .L0 
     /tmp/ccdw4L4H.s:1834   .text:0000000000000a14 .L0 
     /tmp/ccdw4L4H.s:1835   .text:0000000000000a14 .L0 
     /tmp/ccdw4L4H.s:1841   .text:0000000000000a24 .L0 
     /tmp/ccdw4L4H.s:1842   .text:0000000000000a24 .L0 
     /tmp/ccdw4L4H.s:1843   .text:0000000000000a28 .L0 
     /tmp/ccdw4L4H.s:1844   .text:0000000000000a28 .L0 
     /tmp/ccdw4L4H.s:1846   .text:0000000000000a2c .L0 
     /tmp/ccdw4L4H.s:1847   .text:0000000000000a2c .L0 
     /tmp/ccdw4L4H.s:1849   .text:0000000000000a30 .L0 
     /tmp/ccdw4L4H.s:1851   .text:0000000000000a34 .L0 
     /tmp/ccdw4L4H.s:1853   .text:0000000000000a38 .L0 
     /tmp/ccdw4L4H.s:1855   .text:0000000000000a3c .L0 
     /tmp/ccdw4L4H.s:1857   .text:0000000000000a40 .L0 
     /tmp/ccdw4L4H.s:1859   .text:0000000000000a44 .L0 
     /tmp/ccdw4L4H.s:1861   .text:0000000000000a48 .L0 
     /tmp/ccdw4L4H.s:1863   .text:0000000000000a4c .L0 
     /tmp/ccdw4L4H.s:1865   .text:0000000000000a50 .L0 
     /tmp/ccdw4L4H.s:1869   .text:0000000000000a54 .L0 
     /tmp/ccdw4L4H.s:1871   .text:0000000000000a54 .L0 
     /tmp/ccdw4L4H.s:1872   .text:0000000000000a54 .L0 
     /tmp/ccdw4L4H.s:1874   .text:0000000000000a58 .L0 
     /tmp/ccdw4L4H.s:1876   .text:0000000000000a5c .L0 
     /tmp/ccdw4L4H.s:1880   .text:0000000000000a64 .L0 
     /tmp/ccdw4L4H.s:1881   .text:0000000000000a64 .L0 
     /tmp/ccdw4L4H.s:1887   .text:0000000000000a74 .L0 
     /tmp/ccdw4L4H.s:1888   .text:0000000000000a74 .L0 
     /tmp/ccdw4L4H.s:1894   .text:0000000000000a84 .L0 
     /tmp/ccdw4L4H.s:1895   .text:0000000000000a84 .L0 
     /tmp/ccdw4L4H.s:1902   .text:0000000000000a94 .L0 
GAS LISTING /tmp/ccdw4L4H.s 			page 77


     /tmp/ccdw4L4H.s:1904   .text:0000000000000a98 .L0 
     /tmp/ccdw4L4H.s:1906   .text:0000000000000a9c .L0 
     /tmp/ccdw4L4H.s:1908   .text:0000000000000aa0 .L0 
     /tmp/ccdw4L4H.s:1909   .text:0000000000000aa0 .L0 
     /tmp/ccdw4L4H.s:1912   .text:0000000000000aa4 .L0 
     /tmp/ccdw4L4H.s:1913   .text:0000000000000aa4 .L0 
     /tmp/ccdw4L4H.s:1916   .text:0000000000000aa8 .L0 
     /tmp/ccdw4L4H.s:1917   .text:0000000000000aa8 .L0 
     /tmp/ccdw4L4H.s:1920   .text:0000000000000aac .L0 
     /tmp/ccdw4L4H.s:1921   .text:0000000000000aac .L0 
     /tmp/ccdw4L4H.s:1924   .text:0000000000000ab0 .L0 
     /tmp/ccdw4L4H.s:1925   .text:0000000000000ab0 .L0 
     /tmp/ccdw4L4H.s:1926   .text:0000000000000ab0 .L0 
     /tmp/ccdw4L4H.s:1929   .text:0000000000000ab4 .L0 
     /tmp/ccdw4L4H.s:1930   .text:0000000000000ab4 .L0 
     /tmp/ccdw4L4H.s:1933   .text:0000000000000ab8 .L0 
     /tmp/ccdw4L4H.s:1935   .text:0000000000000abc .L0 
     /tmp/ccdw4L4H.s:1937   .text:0000000000000ac0 .L0 
     /tmp/ccdw4L4H.s:1939   .text:0000000000000ac4 .L0 
     /tmp/ccdw4L4H.s:1941   .text:0000000000000ac8 .L0 
     /tmp/ccdw4L4H.s:1943   .text:0000000000000acc .L0 
     /tmp/ccdw4L4H.s:1944   .text:0000000000000acc .L0 
     /tmp/ccdw4L4H.s:1946   .text:0000000000000ad0 .L0 
     /tmp/ccdw4L4H.s:1950   .text:0000000000000ad8 .L0 
     /tmp/ccdw4L4H.s:1951   .text:0000000000000ad8 .L0 
     /tmp/ccdw4L4H.s:1953   .text:0000000000000adc .L0 
     /tmp/ccdw4L4H.s:1955   .text:0000000000000ae0 .L0 
     /tmp/ccdw4L4H.s:1959   .text:0000000000000ae8 .L0 
     /tmp/ccdw4L4H.s:1960   .text:0000000000000ae8 .L0 
     /tmp/ccdw4L4H.s:1966   .text:0000000000000af8 .L0 
     /tmp/ccdw4L4H.s:1967   .text:0000000000000af8 .L0 
     /tmp/ccdw4L4H.s:1974   .text:0000000000000b08 .L0 
     /tmp/ccdw4L4H.s:1976   .text:0000000000000b0c .L0 
     /tmp/ccdw4L4H.s:1979   .text:0000000000000b10 .L0 
     /tmp/ccdw4L4H.s:1980   .text:0000000000000b10 .L0 
     /tmp/ccdw4L4H.s:1981   .text:0000000000000b10 .L0 
     /tmp/ccdw4L4H.s:1983   .text:0000000000000b14 .L0 
     /tmp/ccdw4L4H.s:1985   .text:0000000000000b18 .L0 
     /tmp/ccdw4L4H.s:1988   .text:0000000000000b1c .L0 
     /tmp/ccdw4L4H.s:1994   .text:0000000000000b24 .L0 
     /tmp/ccdw4L4H.s:1995   .text:0000000000000b24 .L0 
     /tmp/ccdw4L4H.s:2000   .text:0000000000000b34 .L0 
     /tmp/ccdw4L4H.s:2004   .text:0000000000000b38 .L0 
     /tmp/ccdw4L4H.s:2005   .text:0000000000000b38 .L0 
     /tmp/ccdw4L4H.s:2010   .text:0000000000000b48 .L0 
     /tmp/ccdw4L4H.s:2014   .text:0000000000000b4c .L0 
     /tmp/ccdw4L4H.s:2015   .text:0000000000000b4c .L0 
     /tmp/ccdw4L4H.s:2020   .text:0000000000000b5c .L0 
     /tmp/ccdw4L4H.s:2024   .text:0000000000000b60 .L0 
     /tmp/ccdw4L4H.s:2025   .text:0000000000000b60 .L0 
     /tmp/ccdw4L4H.s:2030   .text:0000000000000b70 .L0 
     /tmp/ccdw4L4H.s:2035   .text:0000000000000b74 .L0 
     /tmp/ccdw4L4H.s:2039   .text:0000000000000b78 .L0 
     /tmp/ccdw4L4H.s:2042   .text:0000000000000b80 .L0 
     /tmp/ccdw4L4H.s:2043   .text:0000000000000b80 .L0 
     /tmp/ccdw4L4H.s:2049   .text:0000000000000b90 .L0 
     /tmp/ccdw4L4H.s:2051   .text:0000000000000b94 .L0 
GAS LISTING /tmp/ccdw4L4H.s 			page 78


     /tmp/ccdw4L4H.s:2057   .text:0000000000000ba0 .L0 
     /tmp/ccdw4L4H.s:2058   .text:0000000000000ba0 .L0 
     /tmp/ccdw4L4H.s:2062   .text:0000000000000bac .L0 
     /tmp/ccdw4L4H.s:2063   .text:0000000000000bac .L0 
     /tmp/ccdw4L4H.s:2067   .text:0000000000000bb8 .L0 
     /tmp/ccdw4L4H.s:2068   .text:0000000000000bb8 .L0 
     /tmp/ccdw4L4H.s:2072   .text:0000000000000bc4 .L0 
     /tmp/ccdw4L4H.s:2073   .text:0000000000000bc4 .L0 
     /tmp/ccdw4L4H.s:2077   .text:0000000000000bd0 .L0 
     /tmp/ccdw4L4H.s:2078   .text:0000000000000bd0 .L0 
     /tmp/ccdw4L4H.s:2082   .text:0000000000000bdc .L0 
     /tmp/ccdw4L4H.s:2083   .text:0000000000000bdc .L0 
     /tmp/ccdw4L4H.s:2087   .text:0000000000000bf0 .L0 
     /tmp/ccdw4L4H.s:2093   .text:0000000000000bf0 _Z9consumerAPv
     /tmp/ccdw4L4H.s:2096   .text:0000000000000bf0 .L0 
     /tmp/ccdw4L4H.s:2098   .text:0000000000000bf0 .L0 
     /tmp/ccdw4L4H.s:2099   .text:0000000000000bf0 .L0 
     /tmp/ccdw4L4H.s:2100   .text:0000000000000bf0 .L0 
     /tmp/ccdw4L4H.s:2104   .text:0000000000000c00 .L0 
     /tmp/ccdw4L4H.s:2105   .text:0000000000000c04 .L0 
     /tmp/ccdw4L4H.s:2109   .text:0000000000000c10 .L0 
     /tmp/ccdw4L4H.s:2110   .text:0000000000000c10 .L0 
     /tmp/ccdw4L4H.s:2111   .text:0000000000000c10 .L0 
     /tmp/ccdw4L4H.s:2113   .text:0000000000000c14 .L0 
     /tmp/ccdw4L4H.s:2117   .text:0000000000000c14 .L0 
     /tmp/ccdw4L4H.s:2118   .text:0000000000000c14 .L0 
     /tmp/ccdw4L4H.s:2123   .text:0000000000000c28 .L0 
     /tmp/ccdw4L4H.s:2124   .text:0000000000000c28 .L0 
     /tmp/ccdw4L4H.s:2128   .text:0000000000000c34 .L0 
     /tmp/ccdw4L4H.s:2133   .text:0000000000000c44 .L0 
     /tmp/ccdw4L4H.s:2134   .text:0000000000000c44 .L0 
     /tmp/ccdw4L4H.s:2138   .text:0000000000000c50 .L0 
     /tmp/ccdw4L4H.s:2139   .text:0000000000000c50 .L0 
     /tmp/ccdw4L4H.s:2143   .text:0000000000000c60 .L0 
     /tmp/ccdw4L4H.s:2144   .text:0000000000000c64 .L0 
     /tmp/ccdw4L4H.s:2146   .text:0000000000000c68 .L0 
     /tmp/ccdw4L4H.s:2147   .text:0000000000000c68 .L0 
     /tmp/ccdw4L4H.s:2149   .text:0000000000000c6c .L0 
     /tmp/ccdw4L4H.s:2151   .text:0000000000000c70 .L0 
     /tmp/ccdw4L4H.s:2156   .text:0000000000000c78 .L0 
     /tmp/ccdw4L4H.s:2162   .text:0000000000000c78 _Z9producerAPv
     /tmp/ccdw4L4H.s:2165   .text:0000000000000c78 .L0 
     /tmp/ccdw4L4H.s:2167   .text:0000000000000c78 .L0 
     /tmp/ccdw4L4H.s:2168   .text:0000000000000c78 .L0 
     /tmp/ccdw4L4H.s:2169   .text:0000000000000c78 .L0 
     /tmp/ccdw4L4H.s:2173   .text:0000000000000c88 .L0 
     /tmp/ccdw4L4H.s:2174   .text:0000000000000c8c .L0 
     /tmp/ccdw4L4H.s:2178   .text:0000000000000c98 .L0 
     /tmp/ccdw4L4H.s:2179   .text:0000000000000c98 .L0 
     /tmp/ccdw4L4H.s:2180   .text:0000000000000c98 .L0 
     /tmp/ccdw4L4H.s:2182   .text:0000000000000c9c .L0 
     /tmp/ccdw4L4H.s:2186   .text:0000000000000c9c .L0 
     /tmp/ccdw4L4H.s:2187   .text:0000000000000c9c .L0 
     /tmp/ccdw4L4H.s:2192   .text:0000000000000cb0 .L0 
     /tmp/ccdw4L4H.s:2193   .text:0000000000000cb0 .L0 
     /tmp/ccdw4L4H.s:2198   .text:0000000000000cc4 .L0 
     /tmp/ccdw4L4H.s:2201   .text:0000000000000ccc .L0 
GAS LISTING /tmp/ccdw4L4H.s 			page 79


     /tmp/ccdw4L4H.s:2202   .text:0000000000000ccc .L0 
     /tmp/ccdw4L4H.s:2205   .text:0000000000000cd4 .L0 
     /tmp/ccdw4L4H.s:2206   .text:0000000000000cd4 .L0 
     /tmp/ccdw4L4H.s:2210   .text:0000000000000ce0 .L0 
     /tmp/ccdw4L4H.s:2211   .text:0000000000000ce0 .L0 
     /tmp/ccdw4L4H.s:2215   .text:0000000000000cf0 .L0 
     /tmp/ccdw4L4H.s:2216   .text:0000000000000cf4 .L0 
     /tmp/ccdw4L4H.s:2218   .text:0000000000000cf8 .L0 
     /tmp/ccdw4L4H.s:2219   .text:0000000000000cf8 .L0 
     /tmp/ccdw4L4H.s:2221   .text:0000000000000cfc .L0 
     /tmp/ccdw4L4H.s:2223   .text:0000000000000d00 .L0 
     /tmp/ccdw4L4H.s:2228   .text:0000000000000d08 .L0 
     /tmp/ccdw4L4H.s:2234   .text:0000000000000d08 _Z8semTest1v
     /tmp/ccdw4L4H.s:2237   .text:0000000000000d08 .L0 
     /tmp/ccdw4L4H.s:2238   .text:0000000000000d08 .L0 
     /tmp/ccdw4L4H.s:2239   .text:0000000000000d0c .L0 
     /tmp/ccdw4L4H.s:2241   .text:0000000000000d10 .L0 
     /tmp/ccdw4L4H.s:2243   .text:0000000000000d14 .L0 
     /tmp/ccdw4L4H.s:2245   .text:0000000000000d14 .L0 
     /tmp/ccdw4L4H.s:2246   .text:0000000000000d18 .L0 
     /tmp/ccdw4L4H.s:2247   .text:0000000000000d18 .L0 
     /tmp/ccdw4L4H.s:2249   .text:0000000000000d1c .L0 
     /tmp/ccdw4L4H.s:2251   .text:0000000000000d20 .L0 
     /tmp/ccdw4L4H.s:2257   .text:0000000000000d20 _Z12consoleTest1v
     /tmp/ccdw4L4H.s:2260   .text:0000000000000d20 .L0 
     /tmp/ccdw4L4H.s:2261   .text:0000000000000d20 .L0 
     /tmp/ccdw4L4H.s:2262   .text:0000000000000d24 .L0 
     /tmp/ccdw4L4H.s:2266   .text:0000000000000d30 .L0 
     /tmp/ccdw4L4H.s:2267   .text:0000000000000d30 .L0 
     /tmp/ccdw4L4H.s:2268   .text:0000000000000d30 .L0 
     /tmp/ccdw4L4H.s:2270   .text:0000000000000d34 .L0 
     /tmp/ccdw4L4H.s:2274   .text:0000000000000d34 .L0 
     /tmp/ccdw4L4H.s:2275   .text:0000000000000d34 .L0 
     /tmp/ccdw4L4H.s:2279   .text:0000000000000d38 .L0 
     /tmp/ccdw4L4H.s:2282   .text:0000000000000d40 .L0 
     /tmp/ccdw4L4H.s:2283   .text:0000000000000d40 .L0 
     /tmp/ccdw4L4H.s:2286   .text:0000000000000d48 .L0 
     /tmp/ccdw4L4H.s:2293   .text:0000000000000d50 .L0 
     /tmp/ccdw4L4H.s:2294   .text:0000000000000d54 .L0 
     /tmp/ccdw4L4H.s:2296   .text:0000000000000d58 .L0 
     /tmp/ccdw4L4H.s:2297   .text:0000000000000d58 .L0 
     /tmp/ccdw4L4H.s:2299   .text:0000000000000d5c .L0 
     /tmp/ccdw4L4H.s:2302   .text:0000000000000d60 .L0 
     /tmp/ccdw4L4H.s:2304   .text:0000000000000d64 .L0 
     /tmp/ccdw4L4H.s:2310   .text:0000000000000d64 _Z12consoleTestsv
     /tmp/ccdw4L4H.s:2313   .text:0000000000000d64 .L0 
     /tmp/ccdw4L4H.s:2314   .text:0000000000000d64 .L0 
     /tmp/ccdw4L4H.s:2315   .text:0000000000000d68 .L0 
     /tmp/ccdw4L4H.s:2318   .text:0000000000000d70 .L0 
     /tmp/ccdw4L4H.s:2319   .text:0000000000000d70 .L0 
     /tmp/ccdw4L4H.s:2321   .text:0000000000000d74 .L0 
     /tmp/ccdw4L4H.s:2323   .text:0000000000000d74 .L0 
     /tmp/ccdw4L4H.s:2324   .text:0000000000000d74 .L0 
     /tmp/ccdw4L4H.s:2327   .text:0000000000000d7c .L0 
     /tmp/ccdw4L4H.s:2328   .text:0000000000000d80 .L0 
     /tmp/ccdw4L4H.s:2330   .text:0000000000000d84 .L0 
     /tmp/ccdw4L4H.s:2331   .text:0000000000000d84 .L0 
GAS LISTING /tmp/ccdw4L4H.s 			page 80


     /tmp/ccdw4L4H.s:2333   .text:0000000000000d88 .L0 
     /tmp/ccdw4L4H.s:2335   .text:0000000000000d8c .L0 
     /tmp/ccdw4L4H.s:2341   .text:0000000000000d8c _Z15changeModeTest1v
     /tmp/ccdw4L4H.s:2344   .text:0000000000000d8c .L0 
     /tmp/ccdw4L4H.s:2345   .text:0000000000000d8c .L0 
     /tmp/ccdw4L4H.s:2346   .text:0000000000000d90 .L0 
     /tmp/ccdw4L4H.s:2348   .text:0000000000000d94 .L0 
     /tmp/ccdw4L4H.s:2350   .text:0000000000000d98 .L0 
     /tmp/ccdw4L4H.s:2352   .text:0000000000000d98 .L0 
       src/Tests.cpp:525    .text:0000000000000d98 .L0 
     /tmp/ccdw4L4H.s:2359   .text:0000000000000d9c .L0 
     /tmp/ccdw4L4H.s:2360   .text:0000000000000da0 .L0 
     /tmp/ccdw4L4H.s:2361   .text:0000000000000da0 .L0 
     /tmp/ccdw4L4H.s:2363   .text:0000000000000da4 .L0 
     /tmp/ccdw4L4H.s:2365   .text:0000000000000da8 .L0 
     /tmp/ccdw4L4H.s:2371   .text:0000000000000da8 _Z15changeModeTestsv
     /tmp/ccdw4L4H.s:2374   .text:0000000000000da8 .L0 
     /tmp/ccdw4L4H.s:2375   .text:0000000000000da8 .L0 
     /tmp/ccdw4L4H.s:2376   .text:0000000000000dac .L0 
     /tmp/ccdw4L4H.s:2379   .text:0000000000000db4 .L0 
     /tmp/ccdw4L4H.s:2380   .text:0000000000000db4 .L0 
     /tmp/ccdw4L4H.s:2382   .text:0000000000000db8 .L0 
     /tmp/ccdw4L4H.s:2384   .text:0000000000000db8 .L0 
     /tmp/ccdw4L4H.s:2385   .text:0000000000000db8 .L0 
     /tmp/ccdw4L4H.s:2388   .text:0000000000000dc0 .L0 
     /tmp/ccdw4L4H.s:2389   .text:0000000000000dc4 .L0 
     /tmp/ccdw4L4H.s:2391   .text:0000000000000dc8 .L0 
     /tmp/ccdw4L4H.s:2392   .text:0000000000000dc8 .L0 
     /tmp/ccdw4L4H.s:2394   .text:0000000000000dcc .L0 
     /tmp/ccdw4L4H.s:2396   .text:0000000000000dd0 .L0 
     /tmp/ccdw4L4H.s:2434   .data:0000000000000000 string
     /tmp/ccdw4L4H.s:2446   .bss:0000000000000008 itemAvailable
     /tmp/ccdw4L4H.s:2455   .bss:0000000000000020 spaceAvailable
     /tmp/ccdw4L4H.s:2459   .bss:0000000000000028 tail
     /tmp/ccdw4L4H.s:2441   .bss:0000000000000000 head
     /tmp/ccdw4L4H.s:2450   .bss:0000000000000010 buffer
     /tmp/ccdw4L4H.s:2431   .data:0000000000000000 .LANCHOR1
     /tmp/ccdw4L4H.s:2438   .bss:0000000000000000 .LANCHOR0
     /tmp/ccdw4L4H.s:32     .text._ZN6Thread3runEv:0000000000000018 .L0 
     /tmp/ccdw4L4H.s:57     .text._ZN14PeriodicThread18periodicActivationEv:0000000000000018 .L0 
     /tmp/ccdw4L4H.s:2466   .text:0000000000000dd0 .L0 
     /tmp/ccdw4L4H.s:163    .text._ZN14PeriodicThreadD2Ev:0000000000000034 .L0 
     /tmp/ccdw4L4H.s:210    .text._ZN14PeriodicThreadD0Ev:000000000000004c .L0 
     /tmp/ccdw4L4H.s:252    .text._ZN12TestPeriodicD2Ev:0000000000000034 .L0 
     /tmp/ccdw4L4H.s:302    .text._ZN12TestPeriodicD0Ev:000000000000004c .L0 
     /tmp/ccdw4L4H.s:59     .rodata.str1.8:0000000000000000 .LC0
     /tmp/ccdw4L4H.s:94     .text:0000000000000024 .L0 
     /tmp/ccdw4L4H.s:304    .rodata.str1.8:0000000000000008 .LC1
     /tmp/ccdw4L4H.s:328    .text:0000000000000074 .L0 
     /tmp/ccdw4L4H.s:342    .rodata.str1.8:0000000000000010 .LC2
     /tmp/ccdw4L4H.s:368    .text:00000000000000a4 .L0 
     /tmp/ccdw4L4H.s:387    .text:00000000000000c4 .L0 
     /tmp/ccdw4L4H.s:345    .rodata.str1.8:0000000000000028 .LC3
     /tmp/ccdw4L4H.s:399    .text:00000000000000e8 .L0 
     /tmp/ccdw4L4H.s:438    .rodata.str1.8:0000000000000030 .LC4
     /tmp/ccdw4L4H.s:464    .text:0000000000000144 .L0 
     /tmp/ccdw4L4H.s:441    .rodata.str1.8:0000000000000048 .LC5
GAS LISTING /tmp/ccdw4L4H.s 			page 81


     /tmp/ccdw4L4H.s:483    .text:0000000000000164 .L0 
     /tmp/ccdw4L4H.s:495    .text:0000000000000188 .L0 
     /tmp/ccdw4L4H.s:552    .text:00000000000001e4 .L0 
     /tmp/ccdw4L4H.s:577    .text:0000000000000210 .L0 
     /tmp/ccdw4L4H.s:589    .text:0000000000000234 .L0 
     /tmp/ccdw4L4H.s:678    .rodata.str1.8:0000000000000050 .LC6
     /tmp/ccdw4L4H.s:706    .text:00000000000002c8 .L0 
     /tmp/ccdw4L4H.s:681    .rodata.str1.8:0000000000000060 .LC7
     /tmp/ccdw4L4H.s:736    .text:000000000000030c .L0 
     /tmp/ccdw4L4H.s:788    .text:0000000000000360 .L0 
     /tmp/ccdw4L4H.s:826    .text:00000000000003a8 .L0 
     /tmp/ccdw4L4H.s:862    .text:00000000000003ec .L0 
     /tmp/ccdw4L4H.s:684    .rodata.str1.8:0000000000000068 .LC8
     /tmp/ccdw4L4H.s:873    .text:0000000000000400 .L0 
     /tmp/ccdw4L4H.s:882    .rodata.str1.8:0000000000000070 .LC9
     /tmp/ccdw4L4H.s:902    .text:0000000000000424 .L0 
     /tmp/ccdw4L4H.s:907    .text:0000000000000434 .L0 
     /tmp/ccdw4L4H.s:909    .text:0000000000000440 .L0 
     /tmp/ccdw4L4H.s:923    .text:0000000000000460 .L0 
     /tmp/ccdw4L4H.s:943    .text:0000000000000480 .L0 
     /tmp/ccdw4L4H.s:994    .text:00000000000004d0 .L0 
     /tmp/ccdw4L4H.s:1004   .text:00000000000004e0 .L0 
     /tmp/ccdw4L4H.s:1024   .rodata.str1.8:0000000000000080 .LC10
     /tmp/ccdw4L4H.s:1044   .text:0000000000000514 .L0 
     /tmp/ccdw4L4H.s:1062   .text:0000000000000540 .L0 
     /tmp/ccdw4L4H.s:1082   .text:0000000000000560 .L0 
     /tmp/ccdw4L4H.s:1093   .rodata.str1.8:0000000000000090 .LC11
     /tmp/ccdw4L4H.s:1120   .text:000000000000058c .L0 
     /tmp/ccdw4L4H.s:1150   .text:00000000000005d0 .L0 
     /tmp/ccdw4L4H.s:1228   .text:0000000000000658 .L0 
     /tmp/ccdw4L4H.s:1096   .rodata.str1.8:00000000000000a0 .LC12
     /tmp/ccdw4L4H.s:1237   .text:000000000000066c .L0 
     /tmp/ccdw4L4H.s:1289   .text:00000000000006d0 .L0 
     /tmp/ccdw4L4H.s:1298   .text:00000000000006e4 .L0 
     /tmp/ccdw4L4H.s:1317   .text:0000000000000700 .L0 
     /tmp/ccdw4L4H.s:1433   .text:000000000000079c .L0 
     /tmp/ccdw4L4H.s:1561   .rodata.str1.8:00000000000000a8 .LC13
     /tmp/ccdw4L4H.s:1596   .text:000000000000085c .L0 
     /tmp/ccdw4L4H.s:1564   .rodata.str1.8:00000000000000d0 .LC14
     /tmp/ccdw4L4H.s:1695   .text:0000000000000938 .L0 
     /tmp/ccdw4L4H.s:1703   .text:000000000000094c .L0 
     /tmp/ccdw4L4H.s:1763   .rodata.str1.8:0000000000000100 .LC15
     /tmp/ccdw4L4H.s:1802   .text:00000000000009cc .L0 
     /tmp/ccdw4L4H.s:1835   .text:0000000000000a14 .L0 
     /tmp/ccdw4L4H.s:1995   .text:0000000000000b24 .L0 
     /tmp/ccdw4L4H.s:2005   .text:0000000000000b38 .L0 
     /tmp/ccdw4L4H.s:2015   .text:0000000000000b4c .L0 
     /tmp/ccdw4L4H.s:2025   .text:0000000000000b60 .L0 
     /tmp/ccdw4L4H.s:1766   .rodata.str1.8:0000000000000148 .LC16
     /tmp/ccdw4L4H.s:2083   .text:0000000000000bdc .L0 
     /tmp/ccdw4L4H.s:2100   .text:0000000000000bf0 .L0 
     /tmp/ccdw4L4H.s:2118   .text:0000000000000c14 .L0 
     /tmp/ccdw4L4H.s:2139   .text:0000000000000c50 .L0 
     /tmp/ccdw4L4H.s:2169   .text:0000000000000c78 .L0 
     /tmp/ccdw4L4H.s:2187   .text:0000000000000c9c .L0 
     /tmp/ccdw4L4H.s:2194   .text:0000000000000cb4 .L0 
     /tmp/ccdw4L4H.s:2211   .text:0000000000000ce0 .L0 
GAS LISTING /tmp/ccdw4L4H.s 			page 82


     /tmp/ccdw4L4H.s:109    .text:0000000000000050 .L5
     /tmp/ccdw4L4H.s:87     .text:0000000000000018 .L7
     /tmp/ccdw4L4H.s:324    .text:0000000000000074 .L18
     /tmp/ccdw4L4H.s:405    .text:00000000000000fc .L23
     /tmp/ccdw4L4H.s:419    .text:000000000000011c .L20
     /tmp/ccdw4L4H.s:384    .text:00000000000000c4 .L22
     /tmp/ccdw4L4H.s:379    .text:00000000000000bc .L25
     /tmp/ccdw4L4H.s:501    .text:000000000000019c .L29
     /tmp/ccdw4L4H.s:515    .text:00000000000001bc .L26
     /tmp/ccdw4L4H.s:480    .text:0000000000000164 .L28
     /tmp/ccdw4L4H.s:475    .text:000000000000015c .L31
     /tmp/ccdw4L4H.s:595    .text:0000000000000248 .L36
     /tmp/ccdw4L4H.s:603    .text:000000000000025c .L34
     /tmp/ccdw4L4H.s:613    .text:0000000000000270 .L32
     /tmp/ccdw4L4H.s:563    .text:00000000000001fc .L38
     /tmp/ccdw4L4H.s:574    .text:0000000000000210 .L35
     /tmp/ccdw4L4H.s:569    .text:0000000000000208 .L39
     /tmp/ccdw4L4H.s:718    .text:00000000000002e4 .L48
     /tmp/ccdw4L4H.s:755    .text:0000000000000330 .L56
     /tmp/ccdw4L4H.s:714    .text:00000000000002e0 .L46
     /tmp/ccdw4L4H.s:794    .text:0000000000000374 .L57
     /tmp/ccdw4L4H.s:784    .text:0000000000000360 .L60
     /tmp/ccdw4L4H.s:761    .text:0000000000000334 .L45
     /tmp/ccdw4L4H.s:740    .text:000000000000031c .L44
     /tmp/ccdw4L4H.s:808    .text:0000000000000380 .L49
     /tmp/ccdw4L4H.s:831    .text:00000000000003bc .L58
     /tmp/ccdw4L4H.s:803    .text:000000000000037c .L52
     /tmp/ccdw4L4H.s:868    .text:0000000000000400 .L53
     /tmp/ccdw4L4H.s:858    .text:00000000000003ec .L61
     /tmp/ccdw4L4H.s:837    .text:00000000000003c0 .L51
     /tmp/ccdw4L4H.s:939    .text:0000000000000480 .L66
     /tmp/ccdw4L4H.s:927    .text:0000000000000470 .L62
     /tmp/ccdw4L4H.s:979    .text:00000000000004b4 .L70
     /tmp/ccdw4L4H.s:999    .text:00000000000004e0 .L68
     /tmp/ccdw4L4H.s:975    .text:00000000000004b0 .L69
     /tmp/ccdw4L4H.s:1078   .text:0000000000000560 .L73
     /tmp/ccdw4L4H.s:1066   .text:0000000000000550 .L72
     /tmp/ccdw4L4H.s:1132   .text:00000000000005a8 .L80
     /tmp/ccdw4L4H.s:1171   .text:00000000000005f8 .L90
     /tmp/ccdw4L4H.s:1128   .text:00000000000005a4 .L78
     /tmp/ccdw4L4H.s:1314   .text:0000000000000700 .L81
     /tmp/ccdw4L4H.s:1242   .text:0000000000000680 .L91
     /tmp/ccdw4L4H.s:1224   .text:0000000000000658 .L93
     /tmp/ccdw4L4H.s:1234   .text:000000000000066c .L94
     /tmp/ccdw4L4H.s:1184   .text:0000000000000604 .L85
     /tmp/ccdw4L4H.s:1154   .text:00000000000005e0 .L76
     /tmp/ccdw4L4H.s:1303   .text:00000000000006f8 .L86
     /tmp/ccdw4L4H.s:1285   .text:00000000000006d0 .L95
     /tmp/ccdw4L4H.s:1295   .text:00000000000006e4 .L96
     /tmp/ccdw4L4H.s:1249   .text:0000000000000684 .L82
     /tmp/ccdw4L4H.s:1176   .text:00000000000005fc .L77
     /tmp/ccdw4L4H.s:1494   .text:00000000000007fc .L106
     /tmp/ccdw4L4H.s:1700   .text:000000000000094c .L113
     /tmp/ccdw4L4H.s:1692   .text:0000000000000938 .L116
     /tmp/ccdw4L4H.s:1708   .text:000000000000095c .L112
     /tmp/ccdw4L4H.s:1868   .text:0000000000000a54 .L121
     /tmp/ccdw4L4H.s:1832   .text:0000000000000a14 .L141
GAS LISTING /tmp/ccdw4L4H.s 			page 83


     /tmp/ccdw4L4H.s:1808   .text:00000000000009e0 .L124
     /tmp/ccdw4L4H.s:1878   .text:0000000000000a64 .L125
     /tmp/ccdw4L4H.s:1991   .text:0000000000000b24 .L126
     /tmp/ccdw4L4H.s:2002   .text:0000000000000b38 .L128
     /tmp/ccdw4L4H.s:1948   .text:0000000000000ad8 .L130
     /tmp/ccdw4L4H.s:1957   .text:0000000000000ae8 .L131
     /tmp/ccdw4L4H.s:2012   .text:0000000000000b4c .L132
     /tmp/ccdw4L4H.s:2022   .text:0000000000000b60 .L134
     /tmp/ccdw4L4H.s:2037   .text:0000000000000b78 .L135
     /tmp/ccdw4L4H.s:1839   .text:0000000000000a24 .L120
     /tmp/ccdw4L4H.s:2054   .text:0000000000000ba0 .L136
     /tmp/ccdw4L4H.s:2032   .text:0000000000000b74 .L137
     /tmp/ccdw4L4H.s:2154   .text:0000000000000c74 .L150
     /tmp/ccdw4L4H.s:2115   .text:0000000000000c14 .L147
     /tmp/ccdw4L4H.s:2226   .text:0000000000000d04 .L159
     /tmp/ccdw4L4H.s:2184   .text:0000000000000c9c .L156
     /tmp/ccdw4L4H.s:2290   .text:0000000000000d50 .L162
     /tmp/ccdw4L4H.s:2277   .text:0000000000000d38 .L164
     /tmp/ccdw4L4H.s:145    .text._ZN14PeriodicThreadD2Ev:0000000000000010 .L0 
     /tmp/ccdw4L4H.s:187    .text._ZN14PeriodicThreadD0Ev:0000000000000018 .L0 
     /tmp/ccdw4L4H.s:232    .text._ZN12TestPeriodicD2Ev:0000000000000010 .L0 
     /tmp/ccdw4L4H.s:277    .text._ZN12TestPeriodicD0Ev:0000000000000018 .L0 
     /tmp/ccdw4L4H.s:1477   .text:00000000000007d8 .LEHB0
     /tmp/ccdw4L4H.s:1457   .text:00000000000007bc .LFB33
     /tmp/ccdw4L4H.s:1480   .text:00000000000007e0 .LEHE0
     /tmp/ccdw4L4H.s:1483   .text:00000000000007e8 .LEHB1
     /tmp/ccdw4L4H.s:1486   .text:00000000000007f0 .LEHE1
     /tmp/ccdw4L4H.s:1499   .text:0000000000000800 .L108
     /tmp/ccdw4L4H.s:1490   .text:00000000000007f4 .LEHB2
     /tmp/ccdw4L4H.s:1493   .text:00000000000007fc .LEHE2
     /tmp/ccdw4L4H.s:1506   .text:0000000000000814 .LEHB3
     /tmp/ccdw4L4H.s:1509   .text:000000000000081c .LEHE3
     /tmp/ccdw4L4H.s:5320   .debug_abbrev:0000000000000000 .Ldebug_abbrev0
     /tmp/ccdw4L4H.s:7556   .debug_str:00000000000005e8 .LASF129
     /tmp/ccdw4L4H.s:7468   .debug_str:0000000000000346 .LASF130
     /tmp/ccdw4L4H.s:7580   .debug_str:0000000000000722 .LASF131
     /tmp/ccdw4L4H.s:7302   .debug_ranges:0000000000000000 .Ldebug_ranges0
     /tmp/ccdw4L4H.s:7350   .debug_line:0000000000000000 .Ldebug_line0
     /tmp/ccdw4L4H.s:7456   .debug_str:00000000000002d0 .LASF0
     /tmp/ccdw4L4H.s:7480   .debug_str:00000000000003aa .LASF1
     /tmp/ccdw4L4H.s:7544   .debug_str:000000000000058c .LASF2
     /tmp/ccdw4L4H.s:7550   .debug_str:00000000000005bd .LASF4
     /tmp/ccdw4L4H.s:7466   .debug_str:0000000000000334 .LASF3
     /tmp/ccdw4L4H.s:7364   .debug_str:000000000000006e .LASF5
     /tmp/ccdw4L4H.s:7534   .debug_str:0000000000000530 .LASF6
     /tmp/ccdw4L4H.s:7526   .debug_str:00000000000004f0 .LASF7
     /tmp/ccdw4L4H.s:7476   .debug_str:000000000000038d .LASF8
     /tmp/ccdw4L4H.s:7440   .debug_str:0000000000000257 .LASF9
     /tmp/ccdw4L4H.s:7448   .debug_str:00000000000002aa .LASF10
     /tmp/ccdw4L4H.s:7380   .debug_str:00000000000000e8 .LASF11
     /tmp/ccdw4L4H.s:7428   .debug_str:000000000000020b .LASF12
     /tmp/ccdw4L4H.s:7402   .debug_str:0000000000000146 .LASF13
     /tmp/ccdw4L4H.s:7378   .debug_str:00000000000000d8 .LASF14
     /tmp/ccdw4L4H.s:7558   .debug_str:00000000000006ac .LASF15
     /tmp/ccdw4L4H.s:7414   .debug_str:00000000000001a5 .LASF16
     /tmp/ccdw4L4H.s:7554   .debug_str:00000000000005d2 .LASF17
     /tmp/ccdw4L4H.s:7616   .debug_str:000000000000082a .LASF18
GAS LISTING /tmp/ccdw4L4H.s 			page 84


     /tmp/ccdw4L4H.s:7572   .debug_str:00000000000006f8 .LASF19
     /tmp/ccdw4L4H.s:7590   .debug_str:000000000000076a .LASF132
     /tmp/ccdw4L4H.s:7384   .debug_str:00000000000000fc .LASF133
     /tmp/ccdw4L4H.s:7484   .debug_str:00000000000003cd .LASF20
     /tmp/ccdw4L4H.s:7574   .debug_str:00000000000006fd .LASF21
     /tmp/ccdw4L4H.s:7426   .debug_str:0000000000000206 .LASF22
     /tmp/ccdw4L4H.s:7512   .debug_str:000000000000049a .LASF23
     /tmp/ccdw4L4H.s:7588   .debug_str:000000000000075b .LASF24
     /tmp/ccdw4L4H.s:7494   .debug_str:0000000000000413 .LASF25
     /tmp/ccdw4L4H.s:7368   .debug_str:0000000000000081 .LASF26
     /tmp/ccdw4L4H.s:7626   .debug_str:0000000000000866 .LASF27
     /tmp/ccdw4L4H.s:7576   .debug_str:0000000000000704 .LASF28
     /tmp/ccdw4L4H.s:7486   .debug_str:00000000000003d2 .LASF29
     /tmp/ccdw4L4H.s:7632   .debug_str:0000000000000896 .LASF134
     /tmp/ccdw4L4H.s:7444   .debug_str:000000000000027f .LASF33
     /tmp/ccdw4L4H.s:7374   .debug_str:00000000000000a2 .LASF135
     /tmp/ccdw4L4H.s:7552   .debug_str:00000000000005c4 .LASF35
     /tmp/ccdw4L4H.s:7608   .debug_str:00000000000007f0 .LASF37
     /tmp/ccdw4L4H.s:7388   .debug_str:0000000000000119 .LASF30
     /tmp/ccdw4L4H.s:7594   .debug_str:000000000000077e .LASF31
     /tmp/ccdw4L4H.s:7598   .debug_str:00000000000007a8 .LASF32
     /tmp/ccdw4L4H.s:7474   .debug_str:0000000000000375 .LASF136
     /tmp/ccdw4L4H.s:7354   .debug_str:000000000000000a .LASF137
     /tmp/ccdw4L4H.s:7614   .debug_str:0000000000000823 .LASF34
     /tmp/ccdw4L4H.s:7464   .debug_str:0000000000000316 .LASF138
     /tmp/ccdw4L4H.s:7518   .debug_str:00000000000004c2 .LASF36
     /tmp/ccdw4L4H.s:7442   .debug_str:0000000000000267 .LASF38
     /tmp/ccdw4L4H.s:7454   .debug_str:00000000000002c9 .LASF139
     /tmp/ccdw4L4H.s:7522   .debug_str:00000000000004d9 .LASF140
     /tmp/ccdw4L4H.s:7360   .debug_str:0000000000000051 .LASF111
     /tmp/ccdw4L4H.s:7624   .debug_str:0000000000000860 .LASF113
     /tmp/ccdw4L4H.s:7434   .debug_str:000000000000022e .LASF39
     /tmp/ccdw4L4H.s:7362   .debug_str:0000000000000064 .LASF40
     /tmp/ccdw4L4H.s:7538   .debug_str:0000000000000546 .LASF41
     /tmp/ccdw4L4H.s:257    .text._ZN12TestPeriodicD0Ev:0000000000000000 .LFB64
     /tmp/ccdw4L4H.s:300    .text._ZN12TestPeriodicD0Ev:000000000000004c .LFE64
     /tmp/ccdw4L4H.s:6465   .debug_loc:0000000000000000 .LLST7
     /tmp/ccdw4L4H.s:273    .text._ZN12TestPeriodicD0Ev:0000000000000018 .LBB20
     /tmp/ccdw4L4H.s:283    .text._ZN12TestPeriodicD0Ev:000000000000002c .LBE20
     /tmp/ccdw4L4H.s:6483   .debug_loc:000000000000004c .LLST8
     /tmp/ccdw4L4H.s:274    .text._ZN12TestPeriodicD0Ev:0000000000000018 .LBB21
     /tmp/ccdw4L4H.s:282    .text._ZN12TestPeriodicD0Ev:000000000000002c .LBE21
     /tmp/ccdw4L4H.s:280    .text._ZN12TestPeriodicD0Ev:000000000000002c .LVL22
     /tmp/ccdw4L4H.s:287    .text._ZN12TestPeriodicD0Ev:0000000000000038 .LVL23
     /tmp/ccdw4L4H.s:7436   .debug_str:0000000000000233 .LASF42
     /tmp/ccdw4L4H.s:215    .text._ZN12TestPeriodicD2Ev:0000000000000000 .LFB62
     /tmp/ccdw4L4H.s:248    .text._ZN12TestPeriodicD2Ev:0000000000000034 .LFE62
     /tmp/ccdw4L4H.s:6494   .debug_loc:0000000000000082 .LLST5
     /tmp/ccdw4L4H.s:229    .text._ZN12TestPeriodicD2Ev:0000000000000010 .LBB18
     /tmp/ccdw4L4H.s:237    .text._ZN12TestPeriodicD2Ev:0000000000000024 .LBE18
     /tmp/ccdw4L4H.s:6508   .debug_loc:00000000000000bb .LLST6
     /tmp/ccdw4L4H.s:235    .text._ZN12TestPeriodicD2Ev:0000000000000024 .LVL19
     /tmp/ccdw4L4H.s:7412   .debug_str:0000000000000195 .LASF43
     /tmp/ccdw4L4H.s:7542   .debug_str:0000000000000577 .LASF45
     /tmp/ccdw4L4H.s:2372   .text:0000000000000da8 .LFB60
     /tmp/ccdw4L4H.s:2397   .text:0000000000000dd0 .LFE60
     /tmp/ccdw4L4H.s:2386   .text:0000000000000dc0 .LVL251
GAS LISTING /tmp/ccdw4L4H.s 			page 85


     /tmp/ccdw4L4H.s:7370   .debug_str:0000000000000088 .LASF49
     /tmp/ccdw4L4H.s:7620   .debug_str:000000000000083c .LASF51
     /tmp/ccdw4L4H.s:2342   .text:0000000000000d8c .LFB59
     /tmp/ccdw4L4H.s:2366   .text:0000000000000da8 .LFE59
     /tmp/ccdw4L4H.s:7472   .debug_str:0000000000000368 .LASF44
     /tmp/ccdw4L4H.s:7408   .debug_str:000000000000017b .LASF46
     /tmp/ccdw4L4H.s:2311   .text:0000000000000d64 .LFB58
     /tmp/ccdw4L4H.s:2336   .text:0000000000000d8c .LFE58
     /tmp/ccdw4L4H.s:2325   .text:0000000000000d7c .LVL250
     /tmp/ccdw4L4H.s:7424   .debug_str:00000000000001f9 .LASF47
     /tmp/ccdw4L4H.s:7508   .debug_str:0000000000000478 .LASF48
     /tmp/ccdw4L4H.s:2258   .text:0000000000000d20 .LFB57
     /tmp/ccdw4L4H.s:2305   .text:0000000000000d64 .LFE57
     /tmp/ccdw4L4H.s:2273   .text:0000000000000d34 .LBB48
     /tmp/ccdw4L4H.s:2291   .text:0000000000000d50 .LBE48
     /tmp/ccdw4L4H.s:6522   .debug_loc:00000000000000f4 .LLST60
     /tmp/ccdw4L4H.s:2284   .text:0000000000000d48 .LVL246
     /tmp/ccdw4L4H.s:7560   .debug_str:00000000000006b8 .LASF50
     /tmp/ccdw4L4H.s:7504   .debug_str:0000000000000459 .LASF52
     /tmp/ccdw4L4H.s:2235   .text:0000000000000d08 .LFB56
     /tmp/ccdw4L4H.s:2252   .text:0000000000000d20 .LFE56
     /tmp/ccdw4L4H.s:7352   .debug_str:0000000000000000 .LASF53
     /tmp/ccdw4L4H.s:7592   .debug_str:000000000000076f .LASF54
     /tmp/ccdw4L4H.s:2163   .text:0000000000000c78 .LFB55
     /tmp/ccdw4L4H.s:2229   .text:0000000000000d08 .LFE55
     /tmp/ccdw4L4H.s:6538   .debug_loc:000000000000013e .LLST59
     /tmp/ccdw4L4H.s:2190   .text:0000000000000cb0 .LVL241
     /tmp/ccdw4L4H.s:2208   .text:0000000000000ce0 .LVL242
     /tmp/ccdw4L4H.s:7478   .debug_str:00000000000003a0 .LASF55
     /tmp/ccdw4L4H.s:7430   .debug_str:000000000000021a .LASF56
     /tmp/ccdw4L4H.s:2094   .text:0000000000000bf0 .LFB54
     /tmp/ccdw4L4H.s:2157   .text:0000000000000c78 .LFE54
     /tmp/ccdw4L4H.s:6556   .debug_loc:000000000000018a .LLST58
     /tmp/ccdw4L4H.s:2121   .text:0000000000000c28 .LVL235
     /tmp/ccdw4L4H.s:2131   .text:0000000000000c44 .LVL236
     /tmp/ccdw4L4H.s:2136   .text:0000000000000c50 .LVL237
     /tmp/ccdw4L4H.s:7502   .debug_str:0000000000000447 .LASF57
     /tmp/ccdw4L4H.s:7418   .debug_str:00000000000001cc .LASF58
     /tmp/ccdw4L4H.s:1773   .text:000000000000099c .LFB53
     /tmp/ccdw4L4H.s:2088   .text:0000000000000bf0 .LFE53
     /tmp/ccdw4L4H.s:7392   .debug_str:000000000000012d .LASF59
     /tmp/ccdw4L4H.s:7394   .debug_str:0000000000000132 .LASF60
     /tmp/ccdw4L4H.s:6574   .debug_loc:00000000000001d6 .LLST44
     /tmp/ccdw4L4H.s:7396   .debug_str:0000000000000137 .LASF61
     /tmp/ccdw4L4H.s:6585   .debug_loc:000000000000020c .LLST45
     /tmp/ccdw4L4H.s:6604   .debug_loc:0000000000000268 .LLST46
     /tmp/ccdw4L4H.s:6625   .debug_loc:00000000000002c8 .LLST47
     /tmp/ccdw4L4H.s:6646   .debug_loc:0000000000000328 .LLST48
     /tmp/ccdw4L4H.s:6657   .debug_loc:000000000000035e .LLST49
     /tmp/ccdw4L4H.s:7564   .debug_str:00000000000006d1 .LASF62
     /tmp/ccdw4L4H.s:6688   .debug_loc:00000000000003e7 .LLST50
     /tmp/ccdw4L4H.s:7578   .debug_str:000000000000071c .LASF63
     /tmp/ccdw4L4H.s:6699   .debug_loc:000000000000041d .LLST51
     /tmp/ccdw4L4H.s:7450   .debug_str:00000000000002b8 .LASF64
     /tmp/ccdw4L4H.s:6710   .debug_loc:0000000000000453 .LLST52
     /tmp/ccdw4L4H.s:7398   .debug_str:000000000000013c .LASF65
     /tmp/ccdw4L4H.s:6721   .debug_loc:0000000000000489 .LLST53
GAS LISTING /tmp/ccdw4L4H.s 			page 86


     /tmp/ccdw4L4H.s:7400   .debug_str:0000000000000141 .LASF66
     /tmp/ccdw4L4H.s:6736   .debug_loc:00000000000004d2 .LLST54
     /tmp/ccdw4L4H.s:7582   .debug_str:0000000000000745 .LASF67
     /tmp/ccdw4L4H.s:6759   .debug_loc:0000000000000541 .LLST55
     /tmp/ccdw4L4H.s:7584   .debug_str:000000000000074b .LASF68
     /tmp/ccdw4L4H.s:6770   .debug_loc:0000000000000577 .LLST56
     /tmp/ccdw4L4H.s:1805   .text:00000000000009dc .LBB45
     /tmp/ccdw4L4H.s:1840   .text:0000000000000a24 .LBE45
     /tmp/ccdw4L4H.s:6785   .debug_loc:00000000000005c0 .LLST57
     /tmp/ccdw4L4H.s:1819   .text:00000000000009f8 .LVL184
     /tmp/ccdw4L4H.s:1837   .text:0000000000000a24 .LVL187
     /tmp/ccdw4L4H.s:2052   .text:0000000000000b9c .LVL226
     /tmp/ccdw4L4H.s:1804   .text:00000000000009dc .LVL182
     /tmp/ccdw4L4H.s:1877   .text:0000000000000a64 .LVL189
     /tmp/ccdw4L4H.s:1883   .text:0000000000000a70 .LVL190
     /tmp/ccdw4L4H.s:1890   .text:0000000000000a80 .LVL192
     /tmp/ccdw4L4H.s:1898   .text:0000000000000a90 .LVL195
     /tmp/ccdw4L4H.s:1947   .text:0000000000000ad8 .LVL203
     /tmp/ccdw4L4H.s:1956   .text:0000000000000ae8 .LVL204
     /tmp/ccdw4L4H.s:1962   .text:0000000000000af4 .LVL205
     /tmp/ccdw4L4H.s:1970   .text:0000000000000b04 .LVL208
     /tmp/ccdw4L4H.s:1998   .text:0000000000000b34 .LVL213
     /tmp/ccdw4L4H.s:2008   .text:0000000000000b48 .LVL216
     /tmp/ccdw4L4H.s:2018   .text:0000000000000b5c .LVL219
     /tmp/ccdw4L4H.s:2028   .text:0000000000000b70 .LVL222
     /tmp/ccdw4L4H.s:2060   .text:0000000000000bac .LVL227
     /tmp/ccdw4L4H.s:2065   .text:0000000000000bb8 .LVL228
     /tmp/ccdw4L4H.s:2070   .text:0000000000000bc4 .LVL229
     /tmp/ccdw4L4H.s:2075   .text:0000000000000bd0 .LVL230
     /tmp/ccdw4L4H.s:2080   .text:0000000000000bdc .LVL231
     /tmp/ccdw4L4H.s:2085   .text:0000000000000bec .LVL232
     /tmp/ccdw4L4H.s:7532   .debug_str:000000000000051f .LASF69
     /tmp/ccdw4L4H.s:7634   .debug_str:00000000000008ac .LASF70
     /tmp/ccdw4L4H.s:1742   .text:0000000000000984 .LFB52
     /tmp/ccdw4L4H.s:1759   .text:000000000000099c .LFE52
     /tmp/ccdw4L4H.s:7516   .debug_str:00000000000004b7 .LASF71
     /tmp/ccdw4L4H.s:7596   .debug_str:0000000000000798 .LASF72
     /tmp/ccdw4L4H.s:1571   .text:0000000000000834 .LFB51
     /tmp/ccdw4L4H.s:1736   .text:0000000000000984 .LFE51
     /tmp/ccdw4L4H.s:6800   .debug_loc:0000000000000609 .LLST38
     /tmp/ccdw4L4H.s:6807   .debug_loc:000000000000062c .LLST39
     /tmp/ccdw4L4H.s:6818   .debug_loc:0000000000000662 .LLST40
     /tmp/ccdw4L4H.s:6829   .debug_loc:0000000000000698 .LLST41
     /tmp/ccdw4L4H.s:6840   .debug_loc:00000000000006ce .LLST42
     /tmp/ccdw4L4H.s:6851   .debug_loc:0000000000000704 .LLST43
     /tmp/ccdw4L4H.s:1598   .text:000000000000086c .LVL150
     /tmp/ccdw4L4H.s:1603   .text:0000000000000878 .LVL151
     /tmp/ccdw4L4H.s:1614   .text:0000000000000890 .LVL153
     /tmp/ccdw4L4H.s:1622   .text:00000000000008a0 .LVL156
     /tmp/ccdw4L4H.s:1630   .text:00000000000008b0 .LVL159
     /tmp/ccdw4L4H.s:1639   .text:00000000000008c4 .LVL162
     /tmp/ccdw4L4H.s:1647   .text:00000000000008d4 .LVL165
     /tmp/ccdw4L4H.s:1664   .text:00000000000008f8 .LVL167
     /tmp/ccdw4L4H.s:1669   .text:0000000000000904 .LVL168
     /tmp/ccdw4L4H.s:1674   .text:0000000000000910 .LVL169
     /tmp/ccdw4L4H.s:1679   .text:000000000000091c .LVL170
     /tmp/ccdw4L4H.s:1684   .text:0000000000000928 .LVL171
GAS LISTING /tmp/ccdw4L4H.s 			page 87


     /tmp/ccdw4L4H.s:1691   .text:0000000000000938 .LVL172
     /tmp/ccdw4L4H.s:1697   .text:0000000000000948 .LVL173
     /tmp/ccdw4L4H.s:1706   .text:000000000000095c .LVL176
     /tmp/ccdw4L4H.s:66     .text:0000000000000000 .LFB50
     /tmp/ccdw4L4H.s:124    .text:0000000000000064 .LFE50
     /tmp/ccdw4L4H.s:6866   .debug_loc:000000000000074d .LLST0
     /tmp/ccdw4L4H.s:83     .text:0000000000000014 .LBB14
     /tmp/ccdw4L4H.s:110    .text:0000000000000050 .LBE14
     /tmp/ccdw4L4H.s:6880   .debug_loc:0000000000000786 .LLST1
     /tmp/ccdw4L4H.s:96     .text:0000000000000034 .LVL5
     /tmp/ccdw4L4H.s:103    .text:0000000000000048 .LVL6
     /tmp/ccdw4L4H.s:7382   .debug_str:00000000000000f7 .LASF141
     /tmp/ccdw4L4H.s:7462   .debug_str:0000000000000300 .LASF73
     /tmp/ccdw4L4H.s:1414   .text:000000000000077c .LFB48
     /tmp/ccdw4L4H.s:1449   .text:00000000000007bc .LFE48
     /tmp/ccdw4L4H.s:6896   .debug_loc:00000000000007d0 .LLST35
     /tmp/ccdw4L4H.s:6914   .debug_loc:000000000000081c .LLST36
     /tmp/ccdw4L4H.s:1432   .text:000000000000079c .LVL141
     /tmp/ccdw4L4H.s:7638   .debug_str:00000000000008cb .LASF74
     /tmp/ccdw4L4H.s:168    .text._ZN14PeriodicThreadD0Ev:0000000000000000 .LFB47
     /tmp/ccdw4L4H.s:208    .text._ZN14PeriodicThreadD0Ev:000000000000004c .LFE47
     /tmp/ccdw4L4H.s:6928   .debug_loc:0000000000000855 .LLST3
     /tmp/ccdw4L4H.s:184    .text._ZN14PeriodicThreadD0Ev:0000000000000018 .LBB16
     /tmp/ccdw4L4H.s:192    .text._ZN14PeriodicThreadD0Ev:000000000000002c .LBE16
     /tmp/ccdw4L4H.s:6946   .debug_loc:00000000000008a1 .LLST4
     /tmp/ccdw4L4H.s:190    .text._ZN14PeriodicThreadD0Ev:000000000000002c .LVL14
     /tmp/ccdw4L4H.s:195    .text._ZN14PeriodicThreadD0Ev:0000000000000038 .LVL15
     /tmp/ccdw4L4H.s:7514   .debug_str:000000000000049f .LASF75
     /tmp/ccdw4L4H.s:131    .text._ZN14PeriodicThreadD2Ev:0000000000000000 .LFB45
     /tmp/ccdw4L4H.s:159    .text._ZN14PeriodicThreadD2Ev:0000000000000034 .LFE45
     /tmp/ccdw4L4H.s:6957   .debug_loc:00000000000008d7 .LLST2
     /tmp/ccdw4L4H.s:148    .text._ZN14PeriodicThreadD2Ev:0000000000000024 .LVL11
     /tmp/ccdw4L4H.s:7546   .debug_str:000000000000059a .LASF76
     /tmp/ccdw4L4H.s:7356   .debug_str:0000000000000034 .LASF77
     /tmp/ccdw4L4H.s:1383   .text:0000000000000754 .LFB42
     /tmp/ccdw4L4H.s:1408   .text:000000000000077c .LFE42
     /tmp/ccdw4L4H.s:1397   .text:000000000000076c .LVL139
     /tmp/ccdw4L4H.s:7536   .debug_str:0000000000000537 .LASF78
     /tmp/ccdw4L4H.s:7470   .debug_str:0000000000000354 .LASF79
     /tmp/ccdw4L4H.s:1359   .text:000000000000073c .LFB41
     /tmp/ccdw4L4H.s:1377   .text:0000000000000754 .LFE41
     /tmp/ccdw4L4H.s:7628   .debug_str:0000000000000873 .LASF80
     /tmp/ccdw4L4H.s:7540   .debug_str:000000000000055c .LASF81
     /tmp/ccdw4L4H.s:1328   .text:0000000000000714 .LFB40
     /tmp/ccdw4L4H.s:1353   .text:000000000000073c .LFE40
     /tmp/ccdw4L4H.s:1342   .text:000000000000072c .LVL138
     /tmp/ccdw4L4H.s:7438   .debug_str:0000000000000249 .LASF82
     /tmp/ccdw4L4H.s:7460   .debug_str:00000000000002ed .LASF86
     /tmp/ccdw4L4H.s:1103   .text:0000000000000574 .LFB39
     /tmp/ccdw4L4H.s:1322   .text:0000000000000714 .LFE39
     /tmp/ccdw4L4H.s:7524   .debug_str:00000000000004ea .LASF83
     /tmp/ccdw4L4H.s:6971   .debug_loc:0000000000000910 .LLST29
     /tmp/ccdw4L4H.s:1123   .text:000000000000059c .LBB36
     /tmp/ccdw4L4H.s:1155   .text:00000000000005e0 .LBE36
     /tmp/ccdw4L4H.s:6982   .debug_loc:0000000000000946 .LLST30
     /tmp/ccdw4L4H.s:1140   .text:00000000000005bc .LVL113
     /tmp/ccdw4L4H.s:1152   .text:00000000000005e0 .LVL114
GAS LISTING /tmp/ccdw4L4H.s 			page 88


     /tmp/ccdw4L4H.s:1181   .text:0000000000000600 .LBB38
     /tmp/ccdw4L4H.s:1244   .text:0000000000000680 .LBE38
     /tmp/ccdw4L4H.s:6993   .debug_loc:000000000000097c .LLST31
     /tmp/ccdw4L4H.s:7422   .debug_str:00000000000001f2 .LASF84
     /tmp/ccdw4L4H.s:7004   .debug_loc:00000000000009b2 .LLST32
     /tmp/ccdw4L4H.s:1197   .text:0000000000000624 .LVL118
     /tmp/ccdw4L4H.s:1208   .text:000000000000063c .LVL120
     /tmp/ccdw4L4H.s:1231   .text:0000000000000668 .LVL124
     /tmp/ccdw4L4H.s:1239   .text:000000000000067c .LVL125
     /tmp/ccdw4L4H.s:1245   .text:0000000000000680 .LBB41
     /tmp/ccdw4L4H.s:1305   .text:00000000000006f8 .LBE41
     /tmp/ccdw4L4H.s:7015   .debug_loc:00000000000009e8 .LLST33
     /tmp/ccdw4L4H.s:7026   .debug_loc:0000000000000a1e .LLST34
     /tmp/ccdw4L4H.s:1261   .text:00000000000006a4 .LVL127
     /tmp/ccdw4L4H.s:1269   .text:00000000000006b4 .LVL129
     /tmp/ccdw4L4H.s:1292   .text:00000000000006e0 .LVL133
     /tmp/ccdw4L4H.s:1300   .text:00000000000006f4 .LVL134
     /tmp/ccdw4L4H.s:1122   .text:000000000000059c .LVL110
     /tmp/ccdw4L4H.s:1319   .text:0000000000000710 .LVL137
     /tmp/ccdw4L4H.s:7410   .debug_str:000000000000018d .LASF85
     /tmp/ccdw4L4H.s:7366   .debug_str:0000000000000075 .LASF87
     /tmp/ccdw4L4H.s:1031   .text:0000000000000504 .LFB38
     /tmp/ccdw4L4H.s:1089   .text:0000000000000574 .LFE38
     /tmp/ccdw4L4H.s:7037   .debug_loc:0000000000000a54 .LLST27
     /tmp/ccdw4L4H.s:7050   .debug_loc:0000000000000a8c .LLST28
     /tmp/ccdw4L4H.s:1046   .text:0000000000000524 .LVL101
     /tmp/ccdw4L4H.s:1051   .text:0000000000000530 .LVL102
     /tmp/ccdw4L4H.s:1057   .text:000000000000053c .LVL104
     /tmp/ccdw4L4H.s:1065   .text:0000000000000550 .LVL106
     /tmp/ccdw4L4H.s:1085   .text:0000000000000570 .LVL109
     /tmp/ccdw4L4H.s:7506   .debug_str:0000000000000466 .LASF88
     /tmp/ccdw4L4H.s:7488   .debug_str:00000000000003eb .LASF89
     /tmp/ccdw4L4H.s:955    .text:0000000000000494 .LFB37
     /tmp/ccdw4L4H.s:1020   .text:0000000000000504 .LFE37
     /tmp/ccdw4L4H.s:970    .text:00000000000004a8 .LBB34
     /tmp/ccdw4L4H.s:1001   .text:00000000000004e0 .LBE34
     /tmp/ccdw4L4H.s:7077   .debug_loc:0000000000000ad2 .LLST25
     /tmp/ccdw4L4H.s:984    .text:00000000000004c0 .LBB35
     /tmp/ccdw4L4H.s:1000   .text:00000000000004e0 .LBE35
     /tmp/ccdw4L4H.s:7089   .debug_loc:0000000000000b09 .LLST26
     /tmp/ccdw4L4H.s:989    .text:00000000000004cc .LVL96
     /tmp/ccdw4L4H.s:997    .text:00000000000004e0 .LVL98
     /tmp/ccdw4L4H.s:1006   .text:00000000000004f0 .LVL99
     /tmp/ccdw4L4H.s:7586   .debug_str:0000000000000751 .LASF90
     /tmp/ccdw4L4H.s:7376   .debug_str:00000000000000ca .LASF91
     /tmp/ccdw4L4H.s:889    .text:0000000000000414 .LFB36
     /tmp/ccdw4L4H.s:949    .text:0000000000000494 .LFE36
     /tmp/ccdw4L4H.s:7100   .debug_loc:0000000000000b3f .LLST23
     /tmp/ccdw4L4H.s:7113   .debug_loc:0000000000000b78 .LLST24
     /tmp/ccdw4L4H.s:904    .text:0000000000000434 .LVL84
     /tmp/ccdw4L4H.s:918    .text:000000000000045c .LVL87
     /tmp/ccdw4L4H.s:926    .text:0000000000000470 .LVL89
     /tmp/ccdw4L4H.s:946    .text:0000000000000490 .LVL92
     /tmp/ccdw4L4H.s:7500   .debug_str:000000000000043c .LASF92
     /tmp/ccdw4L4H.s:7406   .debug_str:000000000000016b .LASF93
     /tmp/ccdw4L4H.s:691    .text:00000000000002b4 .LFB35
     /tmp/ccdw4L4H.s:878    .text:0000000000000414 .LFE35
GAS LISTING /tmp/ccdw4L4H.s 			page 89


     /tmp/ccdw4L4H.s:709    .text:00000000000002d8 .LBB26
     /tmp/ccdw4L4H.s:741    .text:000000000000031c .LBE26
     /tmp/ccdw4L4H.s:7124   .debug_loc:0000000000000bae .LLST17
     /tmp/ccdw4L4H.s:726    .text:00000000000002f8 .LVL63
     /tmp/ccdw4L4H.s:738    .text:000000000000031c .LVL64
     /tmp/ccdw4L4H.s:757    .text:0000000000000330 .LBB27
     /tmp/ccdw4L4H.s:796    .text:0000000000000374 .LBE27
     /tmp/ccdw4L4H.s:7135   .debug_loc:0000000000000be4 .LLST18
     /tmp/ccdw4L4H.s:7146   .debug_loc:0000000000000c1a .LLST19
     /tmp/ccdw4L4H.s:773    .text:0000000000000354 .LVL67
     /tmp/ccdw4L4H.s:791    .text:0000000000000370 .LVL71
     /tmp/ccdw4L4H.s:797    .text:0000000000000374 .LBB30
     /tmp/ccdw4L4H.s:832    .text:00000000000003bc .LBE30
     /tmp/ccdw4L4H.s:7153   .debug_loc:0000000000000c3d .LLST20
     /tmp/ccdw4L4H.s:816    .text:0000000000000394 .LVL75
     /tmp/ccdw4L4H.s:828    .text:00000000000003b8 .LVL76
     /tmp/ccdw4L4H.s:833    .text:00000000000003bc .LBB31
     /tmp/ccdw4L4H.s:870    .text:0000000000000400 .LBE31
     /tmp/ccdw4L4H.s:7160   .debug_loc:0000000000000c60 .LLST21
     /tmp/ccdw4L4H.s:7171   .debug_loc:0000000000000c96 .LLST22
     /tmp/ccdw4L4H.s:849    .text:00000000000003e0 .LVL78
     /tmp/ccdw4L4H.s:865    .text:00000000000003fc .LVL82
     /tmp/ccdw4L4H.s:708    .text:00000000000002d8 .LVL60
     /tmp/ccdw4L4H.s:875    .text:0000000000000410 .LVL83
     /tmp/ccdw4L4H.s:7606   .debug_str:00000000000007e4 .LASF94
     /tmp/ccdw4L4H.s:7610   .debug_str:0000000000000806 .LASF95
     /tmp/ccdw4L4H.s:1541   .text:000000000000081c .LFB34
     /tmp/ccdw4L4H.s:1557   .text:0000000000000834 .LFE34
     /tmp/ccdw4L4H.s:1555   .text:0000000000000834 .LVL149
     /tmp/ccdw4L4H.s:7570   .debug_str:00000000000006ec .LASF96
     /tmp/ccdw4L4H.s:7498   .debug_str:000000000000042b .LASF97
     /tmp/ccdw4L4H.s:1511   .text:000000000000081c .LFE33
     /tmp/ccdw4L4H.s:7178   .debug_loc:0000000000000cb9 .LLST37
     /tmp/ccdw4L4H.s:1479   .text:00000000000007e0 .LVL143
     /tmp/ccdw4L4H.s:1485   .text:00000000000007f0 .LVL144
     /tmp/ccdw4L4H.s:1492   .text:00000000000007fc .LVL145
     /tmp/ccdw4L4H.s:1504   .text:0000000000000810 .LVL147
     /tmp/ccdw4L4H.s:1508   .text:000000000000081c .LVL148
     /tmp/ccdw4L4H.s:7612   .debug_str:0000000000000817 .LASF98
     /tmp/ccdw4L4H.s:7358   .debug_str:0000000000000040 .LASF100
     /tmp/ccdw4L4H.s:657    .text:000000000000029c .LFB32
     /tmp/ccdw4L4H.s:674    .text:00000000000002b4 .LFE32
     /tmp/ccdw4L4H.s:7568   .debug_str:00000000000006e0 .LASF99
     /tmp/ccdw4L4H.s:7416   .debug_str:00000000000001bb .LASF101
     /tmp/ccdw4L4H.s:634    .text:0000000000000284 .LFB31
     /tmp/ccdw4L4H.s:651    .text:000000000000029c .LFE31
     /tmp/ccdw4L4H.s:7404   .debug_str:0000000000000156 .LASF102
     /tmp/ccdw4L4H.s:7548   .debug_str:00000000000005a2 .LASF103
     /tmp/ccdw4L4H.s:536    .text:00000000000001d0 .LFB30
     /tmp/ccdw4L4H.s:628    .text:0000000000000284 .LFE30
     /tmp/ccdw4L4H.s:7185   .debug_loc:0000000000000cdc .LLST15
     /tmp/ccdw4L4H.s:558    .text:00000000000001f4 .LBB25
     /tmp/ccdw4L4H.s:614    .text:0000000000000270 .LBE25
     /tmp/ccdw4L4H.s:7199   .debug_loc:0000000000000d15 .LLST16
     /tmp/ccdw4L4H.s:567    .text:0000000000000204 .LVL53
     /tmp/ccdw4L4H.s:573    .text:0000000000000210 .LVL54
     /tmp/ccdw4L4H.s:579    .text:0000000000000220 .LVL55
GAS LISTING /tmp/ccdw4L4H.s 			page 90


     /tmp/ccdw4L4H.s:586    .text:0000000000000234 .LVL56
     /tmp/ccdw4L4H.s:591    .text:0000000000000244 .LVL57
     /tmp/ccdw4L4H.s:555    .text:00000000000001f4 .LVL51
     /tmp/ccdw4L4H.s:7482   .debug_str:00000000000003bd .LASF104
     /tmp/ccdw4L4H.s:7604   .debug_str:00000000000007ce .LASF105
     /tmp/ccdw4L4H.s:448    .text:0000000000000130 .LFB29
     /tmp/ccdw4L4H.s:530    .text:00000000000001d0 .LFE29
     /tmp/ccdw4L4H.s:7211   .debug_loc:0000000000000d4c .LLST13
     /tmp/ccdw4L4H.s:470    .text:0000000000000154 .LBB24
     /tmp/ccdw4L4H.s:516    .text:00000000000001bc .LBE24
     /tmp/ccdw4L4H.s:7225   .debug_loc:0000000000000d85 .LLST14
     /tmp/ccdw4L4H.s:479    .text:0000000000000164 .LVL43
     /tmp/ccdw4L4H.s:485    .text:0000000000000174 .LVL44
     /tmp/ccdw4L4H.s:492    .text:0000000000000188 .LVL45
     /tmp/ccdw4L4H.s:497    .text:0000000000000198 .LVL46
     /tmp/ccdw4L4H.s:467    .text:0000000000000154 .LVL41
     /tmp/ccdw4L4H.s:7510   .debug_str:000000000000048a .LASF106
     /tmp/ccdw4L4H.s:7386   .debug_str:0000000000000103 .LASF107
     /tmp/ccdw4L4H.s:352    .text:0000000000000090 .LFB28
     /tmp/ccdw4L4H.s:434    .text:0000000000000130 .LFE28
     /tmp/ccdw4L4H.s:7237   .debug_loc:0000000000000dbc .LLST11
     /tmp/ccdw4L4H.s:374    .text:00000000000000b4 .LBB23
     /tmp/ccdw4L4H.s:420    .text:000000000000011c .LBE23
     /tmp/ccdw4L4H.s:7251   .debug_loc:0000000000000df5 .LLST12
     /tmp/ccdw4L4H.s:383    .text:00000000000000c4 .LVL33
     /tmp/ccdw4L4H.s:389    .text:00000000000000d4 .LVL34
     /tmp/ccdw4L4H.s:396    .text:00000000000000e8 .LVL35
     /tmp/ccdw4L4H.s:401    .text:00000000000000f8 .LVL36
     /tmp/ccdw4L4H.s:371    .text:00000000000000b4 .LVL31
     /tmp/ccdw4L4H.s:7432   .debug_str:0000000000000229 .LASF108
     /tmp/ccdw4L4H.s:7372   .debug_str:0000000000000098 .LASF109
     /tmp/ccdw4L4H.s:311    .text:0000000000000064 .LFB27
     /tmp/ccdw4L4H.s:338    .text:0000000000000090 .LFE27
     /tmp/ccdw4L4H.s:7602   .debug_str:00000000000007c9 .LASF110
     /tmp/ccdw4L4H.s:7263   .debug_loc:0000000000000e2c .LLST10
     /tmp/ccdw4L4H.s:330    .text:0000000000000084 .LVL27
     /tmp/ccdw4L4H.s:334    .text:000000000000008c .LVL28
     /tmp/ccdw4L4H.s:37     .text._ZN14PeriodicThread18periodicActivationEv:0000000000000000 .LFB1
     /tmp/ccdw4L4H.s:55     .text._ZN14PeriodicThread18periodicActivationEv:0000000000000018 .LFE1
     /tmp/ccdw4L4H.s:11     .text._ZN6Thread3runEv:0000000000000000 .LFB0
     /tmp/ccdw4L4H.s:30     .text._ZN6Thread3runEv:0000000000000018 .LFE0
     /tmp/ccdw4L4H.s:7520   .debug_str:00000000000004d2 .LASF112
     /tmp/ccdw4L4H.s:7458   .debug_str:00000000000002dd .LASF114
     /tmp/ccdw4L4H.s:7390   .debug_str:0000000000000128 .LASF115
     /tmp/ccdw4L4H.s:7636   .debug_str:00000000000008c2 .LASF116
     /tmp/ccdw4L4H.s:7452   .debug_str:00000000000002be .LASF117
     /tmp/ccdw4L4H.s:7492   .debug_str:000000000000040e .LASF118
     /tmp/ccdw4L4H.s:7496   .debug_str:0000000000000421 .LASF119
     /tmp/ccdw4L4H.s:7530   .debug_str:000000000000050c .LASF120
     /tmp/ccdw4L4H.s:7618   .debug_str:0000000000000830 .LASF121
     /tmp/ccdw4L4H.s:7600   .debug_str:00000000000007c3 .LASF122
     /tmp/ccdw4L4H.s:7630   .debug_str:0000000000000889 .LASF123
     /tmp/ccdw4L4H.s:7420   .debug_str:00000000000001e3 .LASF124
     /tmp/ccdw4L4H.s:7528   .debug_str:0000000000000503 .LASF125
     /tmp/ccdw4L4H.s:7566   .debug_str:00000000000006d7 .LASF126
     /tmp/ccdw4L4H.s:7622   .debug_str:0000000000000851 .LASF142
     /tmp/ccdw4L4H.s:7446   .debug_str:0000000000000292 .LASF143
GAS LISTING /tmp/ccdw4L4H.s 			page 91


     /tmp/ccdw4L4H.s:7490   .debug_str:0000000000000402 .LASF127
     /tmp/ccdw4L4H.s:7562   .debug_str:00000000000006c1 .LASF128
     /tmp/ccdw4L4H.s:260    .text._ZN12TestPeriodicD0Ev:0000000000000000 .LVL20
     /tmp/ccdw4L4H.s:295    .text._ZN12TestPeriodicD0Ev:0000000000000044 .LVL24
     /tmp/ccdw4L4H.s:272    .text._ZN12TestPeriodicD0Ev:0000000000000018 .LVL21
     /tmp/ccdw4L4H.s:219    .text._ZN12TestPeriodicD2Ev:0000000000000000 .LVL17
     /tmp/ccdw4L4H.s:228    .text._ZN12TestPeriodicD2Ev:0000000000000010 .LVL18
     /tmp/ccdw4L4H.s:2272   .text:0000000000000d34 .LVL244
     /tmp/ccdw4L4H.s:2276   .text:0000000000000d38 .LVL245
     /tmp/ccdw4L4H.s:2287   .text:0000000000000d4c .LVL247
     /tmp/ccdw4L4H.s:2289   .text:0000000000000d50 .LVL248
     /tmp/ccdw4L4H.s:2300   .text:0000000000000d5c .LVL249
     /tmp/ccdw4L4H.s:2166   .text:0000000000000c78 .LVL239
     /tmp/ccdw4L4H.s:2183   .text:0000000000000c9c .LVL240
     /tmp/ccdw4L4H.s:2225   .text:0000000000000d04 .LVL243
     /tmp/ccdw4L4H.s:2097   .text:0000000000000bf0 .LVL233
     /tmp/ccdw4L4H.s:2114   .text:0000000000000c14 .LVL234
     /tmp/ccdw4L4H.s:2153   .text:0000000000000c74 .LVL238
     /tmp/ccdw4L4H.s:1892   .text:0000000000000a84 .LVL193
     /tmp/ccdw4L4H.s:1896   .text:0000000000000a88 .LVL194
     /tmp/ccdw4L4H.s:1900   .text:0000000000000a94 .LVL196
     /tmp/ccdw4L4H.s:1914   .text:0000000000000aa8 .LVL198
     /tmp/ccdw4L4H.s:1990   .text:0000000000000b24 .LVL211
     /tmp/ccdw4L4H.s:1996   .text:0000000000000b2c .LVL212
     /tmp/ccdw4L4H.s:1910   .text:0000000000000aa4 .LVL197
     /tmp/ccdw4L4H.s:2001   .text:0000000000000b38 .LVL214
     /tmp/ccdw4L4H.s:2006   .text:0000000000000b40 .LVL215
     /tmp/ccdw4L4H.s:1918   .text:0000000000000aac .LVL199
     /tmp/ccdw4L4H.s:1922   .text:0000000000000ab0 .LVL200
     /tmp/ccdw4L4H.s:2045   .text:0000000000000b88 .LVL225
     /tmp/ccdw4L4H.s:1927   .text:0000000000000ab4 .LVL201
     /tmp/ccdw4L4H.s:1931   .text:0000000000000ab8 .LVL202
     /tmp/ccdw4L4H.s:1964   .text:0000000000000af8 .LVL206
     /tmp/ccdw4L4H.s:1968   .text:0000000000000afc .LVL207
     /tmp/ccdw4L4H.s:2011   .text:0000000000000b4c .LVL217
     /tmp/ccdw4L4H.s:1972   .text:0000000000000b08 .LVL209
     /tmp/ccdw4L4H.s:2016   .text:0000000000000b54 .LVL218
     /tmp/ccdw4L4H.s:2021   .text:0000000000000b60 .LVL220
     /tmp/ccdw4L4H.s:2026   .text:0000000000000b68 .LVL221
     /tmp/ccdw4L4H.s:1978   .text:0000000000000b10 .LVL210
     /tmp/ccdw4L4H.s:1809   .text:00000000000009e0 .LVL183
     /tmp/ccdw4L4H.s:1829   .text:0000000000000a10 .LVL185
     /tmp/ccdw4L4H.s:1831   .text:0000000000000a14 .LVL186
     /tmp/ccdw4L4H.s:1867   .text:0000000000000a54 .LVL188
     /tmp/ccdw4L4H.s:1885   .text:0000000000000a74 .LVL191
     /tmp/ccdw4L4H.s:1605   .text:000000000000087c .LVL152
     /tmp/ccdw4L4H.s:1717   .text:0000000000000968 .LVL177
     /tmp/ccdw4L4H.s:1616   .text:0000000000000894 .LVL154
     /tmp/ccdw4L4H.s:1620   .text:0000000000000898 .LVL155
     /tmp/ccdw4L4H.s:1720   .text:000000000000096c .LVL178
     /tmp/ccdw4L4H.s:1624   .text:00000000000008a4 .LVL157
     /tmp/ccdw4L4H.s:1628   .text:00000000000008a8 .LVL158
     /tmp/ccdw4L4H.s:1723   .text:0000000000000970 .LVL179
     /tmp/ccdw4L4H.s:1632   .text:00000000000008b4 .LVL160
     /tmp/ccdw4L4H.s:1636   .text:00000000000008b8 .LVL161
     /tmp/ccdw4L4H.s:1726   .text:0000000000000974 .LVL180
     /tmp/ccdw4L4H.s:1641   .text:00000000000008c8 .LVL163
GAS LISTING /tmp/ccdw4L4H.s 			page 92


     /tmp/ccdw4L4H.s:1645   .text:00000000000008cc .LVL164
     /tmp/ccdw4L4H.s:1729   .text:0000000000000978 .LVL181
     /tmp/ccdw4L4H.s:1662   .text:00000000000008f0 .LVL166
     /tmp/ccdw4L4H.s:1699   .text:000000000000094c .LVL174
     /tmp/ccdw4L4H.s:1704   .text:0000000000000954 .LVL175
     /tmp/ccdw4L4H.s:70     .text:0000000000000000 .LVL2
     /tmp/ccdw4L4H.s:86     .text:0000000000000018 .LVL4
     /tmp/ccdw4L4H.s:82     .text:0000000000000014 .LVL3
     /tmp/ccdw4L4H.s:106    .text:000000000000004c .LVL7
     /tmp/ccdw4L4H.s:108    .text:0000000000000050 .LVL8
     /tmp/ccdw4L4H.s:119    .text:000000000000005c .LVL9
     /tmp/ccdw4L4H.s:1417   .text:000000000000077c .LVL140
     /tmp/ccdw4L4H.s:1444   .text:00000000000007b4 .LVL142
     /tmp/ccdw4L4H.s:171    .text._ZN14PeriodicThreadD0Ev:0000000000000000 .LVL12
     /tmp/ccdw4L4H.s:203    .text._ZN14PeriodicThreadD0Ev:0000000000000044 .LVL16
     /tmp/ccdw4L4H.s:183    .text._ZN14PeriodicThreadD0Ev:0000000000000018 .LVL13
     /tmp/ccdw4L4H.s:134    .text._ZN14PeriodicThreadD2Ev:0000000000000000 .LVL10
     /tmp/ccdw4L4H.s:1175   .text:00000000000005fc .LVL116
     /tmp/ccdw4L4H.s:1309   .text:00000000000006fc .LVL135
     /tmp/ccdw4L4H.s:1313   .text:0000000000000700 .LVL136
     /tmp/ccdw4L4H.s:1127   .text:00000000000005a4 .LVL111
     /tmp/ccdw4L4H.s:1170   .text:00000000000005f8 .LVL115
     /tmp/ccdw4L4H.s:1185   .text:0000000000000604 .LVL117
     /tmp/ccdw4L4H.s:1220   .text:0000000000000654 .LVL121
     /tmp/ccdw4L4H.s:1223   .text:0000000000000658 .LVL122
     /tmp/ccdw4L4H.s:1248   .text:0000000000000684 .LVL126
     /tmp/ccdw4L4H.s:1203   .text:000000000000062c .LVL119
     /tmp/ccdw4L4H.s:1229   .text:0000000000000660 .LVL123
     /tmp/ccdw4L4H.s:1281   .text:00000000000006cc .LVL130
     /tmp/ccdw4L4H.s:1284   .text:00000000000006d0 .LVL131
     /tmp/ccdw4L4H.s:1267   .text:00000000000006ac .LVL128
     /tmp/ccdw4L4H.s:1290   .text:00000000000006d8 .LVL132
     /tmp/ccdw4L4H.s:1055   .text:0000000000000534 .LVL103
     /tmp/ccdw4L4H.s:1063   .text:0000000000000548 .LVL105
     /tmp/ccdw4L4H.s:1077   .text:0000000000000560 .LVL107
     /tmp/ccdw4L4H.s:1083   .text:0000000000000568 .LVL108
     /tmp/ccdw4L4H.s:969    .text:00000000000004a8 .LVL93
     /tmp/ccdw4L4H.s:974    .text:00000000000004b0 .LVL94
     /tmp/ccdw4L4H.s:1015   .text:00000000000004fc .LVL100
     /tmp/ccdw4L4H.s:978    .text:00000000000004b4 .LVL95
     /tmp/ccdw4L4H.s:995    .text:00000000000004d8 .LVL97
     /tmp/ccdw4L4H.s:912    .text:0000000000000450 .LVL85
     /tmp/ccdw4L4H.s:916    .text:0000000000000454 .LVL86
     /tmp/ccdw4L4H.s:924    .text:0000000000000468 .LVL88
     /tmp/ccdw4L4H.s:938    .text:0000000000000480 .LVL90
     /tmp/ccdw4L4H.s:944    .text:0000000000000488 .LVL91
     /tmp/ccdw4L4H.s:713    .text:00000000000002e0 .LVL61
     /tmp/ccdw4L4H.s:754    .text:0000000000000330 .LVL65
     /tmp/ccdw4L4H.s:760    .text:0000000000000334 .LVL66
     /tmp/ccdw4L4H.s:780    .text:000000000000035c .LVL68
     /tmp/ccdw4L4H.s:783    .text:0000000000000360 .LVL69
     /tmp/ccdw4L4H.s:800    .text:0000000000000378 .LVL72
     /tmp/ccdw4L4H.s:789    .text:0000000000000368 .LVL70
     /tmp/ccdw4L4H.s:802    .text:000000000000037c .LVL73
     /tmp/ccdw4L4H.s:836    .text:00000000000003c0 .LVL77
     /tmp/ccdw4L4H.s:855    .text:00000000000003e8 .LVL79
     /tmp/ccdw4L4H.s:857    .text:00000000000003ec .LVL80
GAS LISTING /tmp/ccdw4L4H.s 			page 93


     /tmp/ccdw4L4H.s:863    .text:00000000000003f4 .LVL81
     /tmp/ccdw4L4H.s:1498   .text:0000000000000800 .LVL146
     /tmp/ccdw4L4H.s:539    .text:00000000000001d0 .LVL49
     /tmp/ccdw4L4H.s:553    .text:00000000000001ec .LVL50
     /tmp/ccdw4L4H.s:562    .text:00000000000001fc .LVL52
     /tmp/ccdw4L4H.s:623    .text:000000000000027c .LVL59
     /tmp/ccdw4L4H.s:451    .text:0000000000000130 .LVL39
     /tmp/ccdw4L4H.s:465    .text:000000000000014c .LVL40
     /tmp/ccdw4L4H.s:474    .text:000000000000015c .LVL42
     /tmp/ccdw4L4H.s:525    .text:00000000000001c8 .LVL48
     /tmp/ccdw4L4H.s:355    .text:0000000000000090 .LVL29
     /tmp/ccdw4L4H.s:369    .text:00000000000000ac .LVL30
     /tmp/ccdw4L4H.s:378    .text:00000000000000bc .LVL32
     /tmp/ccdw4L4H.s:429    .text:0000000000000128 .LVL38
     /tmp/ccdw4L4H.s:314    .text:0000000000000064 .LVL25
     /tmp/ccdw4L4H.s:323    .text:0000000000000074 .LVL26
     /tmp/ccdw4L4H.s:2467   .debug_info:0000000000000000 .Ldebug_info0
     /tmp/ccdw4L4H.s:5      .text:0000000000000000 .Ltext0
     /tmp/ccdw4L4H.s:2462   .text:0000000000000dd0 .Letext0
     /tmp/ccdw4L4H.s:765    .text:000000000000033c .LBB28
     /tmp/ccdw4L4H.s:776    .text:0000000000000358 .LBE28
     /tmp/ccdw4L4H.s:785    .text:0000000000000360 .LBB29
     /tmp/ccdw4L4H.s:795    .text:0000000000000374 .LBE29
     /tmp/ccdw4L4H.s:841    .text:00000000000003c8 .LBB32
     /tmp/ccdw4L4H.s:852    .text:00000000000003e4 .LBE32
     /tmp/ccdw4L4H.s:859    .text:00000000000003ec .LBB33
     /tmp/ccdw4L4H.s:869    .text:0000000000000400 .LBE33
     /tmp/ccdw4L4H.s:1189   .text:000000000000060c .LBB39
     /tmp/ccdw4L4H.s:1216   .text:0000000000000650 .LBE39
     /tmp/ccdw4L4H.s:1225   .text:0000000000000658 .LBB40
     /tmp/ccdw4L4H.s:1243   .text:0000000000000680 .LBE40
     /tmp/ccdw4L4H.s:1253   .text:000000000000068c .LBB42
     /tmp/ccdw4L4H.s:1277   .text:00000000000006c8 .LBE42
     /tmp/ccdw4L4H.s:1286   .text:00000000000006d0 .LBB43
     /tmp/ccdw4L4H.s:1304   .text:00000000000006f8 .LBE43
     /tmp/ccdw4L4H.s:1986   .text:0000000000000b1c .LBB46
     /tmp/ccdw4L4H.s:1992   .text:0000000000000b24 .LBE46
     /tmp/ccdw4L4H.s:2033   .text:0000000000000b74 .LBB47
     /tmp/ccdw4L4H.s:2055   .text:0000000000000ba0 .LBE47
     /tmp/ccdw4L4H.s:1514   .gcc_except_table:0000000000000000 .LLSDA33
                           .group:0000000000000000 _ZN14PeriodicThreadD5Ev
                           .group:0000000000000000 _ZN12TestPeriodicD5Ev

UNDEFINED SYMBOLS
_Z11printStringPKc
_Z8printIntiii
_ZN6ThreadD2Ev
_ZdlPv
thread_dispatch
thread_exit
mem_alloc
mem_free
HEAP_END_ADDR
HEAP_START_ADDR
_ZN14PeriodicThreadC2Em
_Znwm
_ZN6Thread5startEv
GAS LISTING /tmp/ccdw4L4H.s 			page 94


_Unwind_Resume
__gxx_personality_v0
sem_wait
putc
sem_signal
getc
