GAS LISTING /tmp/cc0QfAMO.s 			page 1


   1              		.file	"Tests.cpp"
   2              		.option pic
   3              		.option norelax
   4              		.text
   5              	.Ltext0:
   6              		.section	.rodata.str1.8,"aMS",@progbits,1
   7              		.align	3
   8              	.LC0:
   9 0000 49646C65 		.string	"Idle\n"
   9      0A00
  10              		.text
  11              		.align	2
  12              		.globl	_Z4idlePv
  14              	_Z4idlePv:
  15              	.LFB21:
  16              		.file 1 "src/Tests.cpp"
   1:src/Tests.cpp **** //
   2:src/Tests.cpp **** // Created by os on 5/5/22.
   3:src/Tests.cpp **** //
   4:src/Tests.cpp **** 
   5:src/Tests.cpp **** #include "../h/Tests.hpp"
   6:src/Tests.cpp **** 
   7:src/Tests.cpp **** void idle(void* args)
   8:src/Tests.cpp **** {
  17              		.loc 1 8 1
  18              		.cfi_startproc
  19              	.LVL0:
  20 0000 130101FF 		addi	sp,sp,-16
  21              		.cfi_def_cfa_offset 16
  22 0004 23341100 		sd	ra,8(sp)
  23 0008 23308100 		sd	s0,0(sp)
  24              		.cfi_offset 1, -8
  25              		.cfi_offset 8, -16
  26 000c 13040101 		addi	s0,sp,16
  27              		.cfi_def_cfa 8, 0
  28              	.LVL1:
  29              	.L2:
   9:src/Tests.cpp ****     while(true)
  30              		.loc 1 9 5 discriminator 1
  10:src/Tests.cpp ****     {
  11:src/Tests.cpp ****         Riscv::printString("Idle\n");
  31              		.loc 1 11 9 discriminator 1
  32              		.loc 1 11 27 is_stmt 0 discriminator 1
  33 0010 17050000 		lla	a0,.LC0
  33      13050500 
  34 0018 97000000 		call	_ZN5Riscv11printStringEPKc@plt
  34      E7800000 
  35              	.LVL2:
  12:src/Tests.cpp ****         thread_dispatch();
  36              		.loc 1 12 9 is_stmt 1 discriminator 1
  37              		.loc 1 12 24 is_stmt 0 discriminator 1
  38 0020 97000000 		call	thread_dispatch@plt
  38      E7800000 
  39              	.LVL3:
   9:src/Tests.cpp ****     while(true)
  40              		.loc 1 9 5 is_stmt 1 discriminator 1
  41 0028 6FF09FFE 		j	.L2
GAS LISTING /tmp/cc0QfAMO.s 			page 2


  42              		.cfi_endproc
  43              	.LFE21:
  45              		.section	.rodata.str1.8
  46 0006 0000     		.align	3
  47              	.LC1:
  48 0008 54687265 		.string	"Thread 1 started...\n"
  48      61642031 
  48      20737461 
  48      72746564 
  48      2E2E2E0A 
  49 001d 000000   		.align	3
  50              	.LC2:
  51 0020 69203A20 		.string	"i : "
  51      00
  52 0025 000000   		.align	3
  53              	.LC3:
  54 0028 0A00     		.string	"\n"
  55              		.text
  56              		.align	2
  57              		.globl	_Z15thread1FunctionPv
  59              	_Z15thread1FunctionPv:
  60              	.LFB22:
  13:src/Tests.cpp ****     }
  14:src/Tests.cpp **** }
  15:src/Tests.cpp **** 
  16:src/Tests.cpp **** void thread1Function(void* p)
  17:src/Tests.cpp **** {
  61              		.loc 1 17 1
  62              		.cfi_startproc
  63              	.LVL4:
  64 002c 130101FE 		addi	sp,sp,-32
  65              		.cfi_def_cfa_offset 32
  66 0030 233C1100 		sd	ra,24(sp)
  67 0034 23388100 		sd	s0,16(sp)
  68 0038 23349100 		sd	s1,8(sp)
  69              		.cfi_offset 1, -8
  70              		.cfi_offset 8, -16
  71              		.cfi_offset 9, -24
  72 003c 13040102 		addi	s0,sp,32
  73              		.cfi_def_cfa 8, 0
  18:src/Tests.cpp ****     Riscv::printString("Thread 1 started...\n");
  74              		.loc 1 18 5
  75              		.loc 1 18 23 is_stmt 0
  76 0040 17050000 		lla	a0,.LC1
  76      13050500 
  77              	.LVL5:
  78 0048 97000000 		call	_ZN5Riscv11printStringEPKc@plt
  78      E7800000 
  79              	.LVL6:
  19:src/Tests.cpp ****     uint64 num = 10000;
  80              		.loc 1 19 5 is_stmt 1
  20:src/Tests.cpp ****     for(uint64 i = 0; i < num;i++)
  81              		.loc 1 20 5
  82              	.LBB8:
  83              		.loc 1 20 16 is_stmt 0
  84 0050 93040000 		li	s1,0
  85              	.LVL7:
GAS LISTING /tmp/cc0QfAMO.s 			page 3


  86              	.L6:
  87              		.loc 1 20 25 is_stmt 1 discriminator 3
  88 0054 B7270000 		li	a5,8192
  89 0058 9387F770 		addi	a5,a5,1807
  90 005c 63EC9702 		bgtu	s1,a5,.L4
  21:src/Tests.cpp ****     {
  22:src/Tests.cpp ****         //if(i % 150 == 0 && i > 0)
  23:src/Tests.cpp ****         //    thread_dispatch();
  24:src/Tests.cpp ****         Riscv::printString("i : ");
  91              		.loc 1 24 9 discriminator 2
  92              		.loc 1 24 27 is_stmt 0 discriminator 2
  93 0060 17050000 		lla	a0,.LC2
  93      13050500 
  94 0068 97000000 		call	_ZN5Riscv11printStringEPKc@plt
  94      E7800000 
  95              	.LVL8:
  25:src/Tests.cpp ****         Riscv::printInteger(i);
  96              		.loc 1 25 9 is_stmt 1 discriminator 2
  97              		.loc 1 25 28 is_stmt 0 discriminator 2
  98 0070 13850400 		mv	a0,s1
  99 0074 97000000 		call	_ZN5Riscv12printIntegerEm@plt
  99      E7800000 
 100              	.LVL9:
  26:src/Tests.cpp ****         Riscv::printString("\n");
 101              		.loc 1 26 9 is_stmt 1 discriminator 2
 102              		.loc 1 26 27 is_stmt 0 discriminator 2
 103 007c 17050000 		lla	a0,.LC3
 103      13050500 
 104 0084 97000000 		call	_ZN5Riscv11printStringEPKc@plt
 104      E7800000 
 105              	.LVL10:
  20:src/Tests.cpp ****     {
 106              		.loc 1 20 5 is_stmt 1 discriminator 2
 107 008c 93841400 		addi	s1,s1,1
 108              	.LVL11:
 109 0090 6FF05FFC 		j	.L6
 110              	.L4:
 111              	.LBE8:
  27:src/Tests.cpp ****     }
  28:src/Tests.cpp **** }
 112              		.loc 1 28 1 is_stmt 0
 113 0094 83308101 		ld	ra,24(sp)
 114              		.cfi_restore 1
 115 0098 03340101 		ld	s0,16(sp)
 116              		.cfi_restore 8
 117              		.cfi_def_cfa 2, 32
 118 009c 83348100 		ld	s1,8(sp)
 119              		.cfi_restore 9
 120              	.LVL12:
 121 00a0 13010102 		addi	sp,sp,32
 122              		.cfi_def_cfa_offset 0
 123 00a4 67800000 		jr	ra
 124              		.cfi_endproc
 125              	.LFE22:
 127              		.section	.rodata.str1.8
 128 002a 00000000 		.align	3
 128      0000
GAS LISTING /tmp/cc0QfAMO.s 			page 4


 129              	.LC4:
 130 0030 54687265 		.string	"Thread 2 started...\n"
 130      61642032 
 130      20737461 
 130      72746564 
 130      2E2E2E0A 
 131 0045 000000   		.align	3
 132              	.LC5:
 133 0048 6A203A20 		.string	"j : "
 133      00
 134              		.text
 135              		.align	2
 136              		.globl	_Z15thread2FunctionPv
 138              	_Z15thread2FunctionPv:
 139              	.LFB23:
  29:src/Tests.cpp **** 
  30:src/Tests.cpp **** void thread2Function(void* p)
  31:src/Tests.cpp **** {
 140              		.loc 1 31 1 is_stmt 1
 141              		.cfi_startproc
 142              	.LVL13:
 143 00a8 130101FE 		addi	sp,sp,-32
 144              		.cfi_def_cfa_offset 32
 145 00ac 233C1100 		sd	ra,24(sp)
 146 00b0 23388100 		sd	s0,16(sp)
 147 00b4 23349100 		sd	s1,8(sp)
 148              		.cfi_offset 1, -8
 149              		.cfi_offset 8, -16
 150              		.cfi_offset 9, -24
 151 00b8 13040102 		addi	s0,sp,32
 152              		.cfi_def_cfa 8, 0
  32:src/Tests.cpp ****     Riscv::printString("Thread 2 started...\n");
 153              		.loc 1 32 5
 154              		.loc 1 32 23 is_stmt 0
 155 00bc 17050000 		lla	a0,.LC4
 155      13050500 
 156              	.LVL14:
 157 00c4 97000000 		call	_ZN5Riscv11printStringEPKc@plt
 157      E7800000 
 158              	.LVL15:
  33:src/Tests.cpp ****     uint64 num = 10000;
 159              		.loc 1 33 5 is_stmt 1
  34:src/Tests.cpp ****     for(uint64 j = 0; j < num;j++)
 160              		.loc 1 34 5
 161              	.LBB9:
 162              		.loc 1 34 16 is_stmt 0
 163 00cc 93040000 		li	s1,0
 164              	.LVL16:
 165              	.L10:
 166              		.loc 1 34 25 is_stmt 1 discriminator 3
 167 00d0 B7270000 		li	a5,8192
 168 00d4 9387F770 		addi	a5,a5,1807
 169 00d8 63EC9702 		bgtu	s1,a5,.L8
  35:src/Tests.cpp ****     {
  36:src/Tests.cpp ****         //if(j % 50 == 0 && j > 0)
  37:src/Tests.cpp ****         //    thread_dispatch();
  38:src/Tests.cpp ****         Riscv::printString("j : ");
GAS LISTING /tmp/cc0QfAMO.s 			page 5


 170              		.loc 1 38 9 discriminator 2
 171              		.loc 1 38 27 is_stmt 0 discriminator 2
 172 00dc 17050000 		lla	a0,.LC5
 172      13050500 
 173 00e4 97000000 		call	_ZN5Riscv11printStringEPKc@plt
 173      E7800000 
 174              	.LVL17:
  39:src/Tests.cpp ****         Riscv::printInteger(j);
 175              		.loc 1 39 9 is_stmt 1 discriminator 2
 176              		.loc 1 39 28 is_stmt 0 discriminator 2
 177 00ec 13850400 		mv	a0,s1
 178 00f0 97000000 		call	_ZN5Riscv12printIntegerEm@plt
 178      E7800000 
 179              	.LVL18:
  40:src/Tests.cpp ****         Riscv::printString("\n");
 180              		.loc 1 40 9 is_stmt 1 discriminator 2
 181              		.loc 1 40 27 is_stmt 0 discriminator 2
 182 00f8 17050000 		lla	a0,.LC3
 182      13050500 
 183 0100 97000000 		call	_ZN5Riscv11printStringEPKc@plt
 183      E7800000 
 184              	.LVL19:
  34:src/Tests.cpp ****     {
 185              		.loc 1 34 5 is_stmt 1 discriminator 2
 186 0108 93841400 		addi	s1,s1,1
 187              	.LVL20:
 188 010c 6FF05FFC 		j	.L10
 189              	.L8:
 190              	.LBE9:
  41:src/Tests.cpp ****     }
  42:src/Tests.cpp **** }
 191              		.loc 1 42 1 is_stmt 0
 192 0110 83308101 		ld	ra,24(sp)
 193              		.cfi_restore 1
 194 0114 03340101 		ld	s0,16(sp)
 195              		.cfi_restore 8
 196              		.cfi_def_cfa 2, 32
 197 0118 83348100 		ld	s1,8(sp)
 198              		.cfi_restore 9
 199              	.LVL21:
 200 011c 13010102 		addi	sp,sp,32
 201              		.cfi_def_cfa_offset 0
 202 0120 67800000 		jr	ra
 203              		.cfi_endproc
 204              	.LFE23:
 206              		.align	2
 207              		.globl	_Z20thread2FunctionTest2Pv
 209              	_Z20thread2FunctionTest2Pv:
 210              	.LFB24:
  43:src/Tests.cpp **** 
  44:src/Tests.cpp **** void thread2FunctionTest2(void* p)
  45:src/Tests.cpp **** {
 211              		.loc 1 45 1 is_stmt 1
 212              		.cfi_startproc
 213              	.LVL22:
 214 0124 130101FE 		addi	sp,sp,-32
 215              		.cfi_def_cfa_offset 32
GAS LISTING /tmp/cc0QfAMO.s 			page 6


 216 0128 233C1100 		sd	ra,24(sp)
 217 012c 23388100 		sd	s0,16(sp)
 218 0130 23349100 		sd	s1,8(sp)
 219              		.cfi_offset 1, -8
 220              		.cfi_offset 8, -16
 221              		.cfi_offset 9, -24
 222 0134 13040102 		addi	s0,sp,32
 223              		.cfi_def_cfa 8, 0
  46:src/Tests.cpp ****     Riscv::printString("Thread 2 started...\n");
 224              		.loc 1 46 5
 225              		.loc 1 46 23 is_stmt 0
 226 0138 17050000 		lla	a0,.LC4
 226      13050500 
 227              	.LVL23:
 228 0140 97000000 		call	_ZN5Riscv11printStringEPKc@plt
 228      E7800000 
 229              	.LVL24:
  47:src/Tests.cpp ****     uint64 num = 10000;
 230              		.loc 1 47 5 is_stmt 1
  48:src/Tests.cpp ****     for(uint64 j = 0; j < num;j++)
 231              		.loc 1 48 5
 232              	.LBB10:
 233              		.loc 1 48 16 is_stmt 0
 234 0148 93040000 		li	s1,0
 235              	.LVL25:
 236              	.L14:
 237              		.loc 1 48 25 is_stmt 1 discriminator 3
 238 014c B7270000 		li	a5,8192
 239 0150 9387F770 		addi	a5,a5,1807
 240 0154 63EC9702 		bgtu	s1,a5,.L12
  49:src/Tests.cpp ****     {
  50:src/Tests.cpp ****         //if(j == 100)
  51:src/Tests.cpp ****         //    time_sleep(200);
  52:src/Tests.cpp ****         //if(j == 200)
  53:src/Tests.cpp ****         //    thread_exit();
  54:src/Tests.cpp ****         //if(j!= 100 && j!= 200 && j % 50 == 0 && j > 0)
  55:src/Tests.cpp ****         //    thread_dispatch();
  56:src/Tests.cpp ****         Riscv::printString("j : ");
 241              		.loc 1 56 9 discriminator 2
 242              		.loc 1 56 27 is_stmt 0 discriminator 2
 243 0158 17050000 		lla	a0,.LC5
 243      13050500 
 244 0160 97000000 		call	_ZN5Riscv11printStringEPKc@plt
 244      E7800000 
 245              	.LVL26:
  57:src/Tests.cpp ****         Riscv::printInteger(j);
 246              		.loc 1 57 9 is_stmt 1 discriminator 2
 247              		.loc 1 57 28 is_stmt 0 discriminator 2
 248 0168 13850400 		mv	a0,s1
 249 016c 97000000 		call	_ZN5Riscv12printIntegerEm@plt
 249      E7800000 
 250              	.LVL27:
  58:src/Tests.cpp ****         Riscv::printString("\n");
 251              		.loc 1 58 9 is_stmt 1 discriminator 2
 252              		.loc 1 58 27 is_stmt 0 discriminator 2
 253 0174 17050000 		lla	a0,.LC3
 253      13050500 
GAS LISTING /tmp/cc0QfAMO.s 			page 7


 254 017c 97000000 		call	_ZN5Riscv11printStringEPKc@plt
 254      E7800000 
 255              	.LVL28:
  48:src/Tests.cpp ****     {
 256              		.loc 1 48 5 is_stmt 1 discriminator 2
 257 0184 93841400 		addi	s1,s1,1
 258              	.LVL29:
 259 0188 6FF05FFC 		j	.L14
 260              	.L12:
 261              	.LBE10:
  59:src/Tests.cpp ****     }
  60:src/Tests.cpp **** }
 262              		.loc 1 60 1 is_stmt 0
 263 018c 83308101 		ld	ra,24(sp)
 264              		.cfi_restore 1
 265 0190 03340101 		ld	s0,16(sp)
 266              		.cfi_restore 8
 267              		.cfi_def_cfa 2, 32
 268 0194 83348100 		ld	s1,8(sp)
 269              		.cfi_restore 9
 270              	.LVL30:
 271 0198 13010102 		addi	sp,sp,32
 272              		.cfi_def_cfa_offset 0
 273 019c 67800000 		jr	ra
 274              		.cfi_endproc
 275              	.LFE24:
 277              		.section	.rodata.str1.8
 278 004d 000000   		.align	3
 279              	.LC6:
 280 0050 4D61696E 		.string	"Main thread\n"
 280      20746872 
 280      6561640A 
 280      00
 281 005d 000000   		.align	3
 282              	.LC7:
 283 0060 456E642E 		.string	"End...\n"
 283      2E2E0A00 
 284              		.text
 285              		.align	2
 286              		.globl	_Z11threadTest1v
 288              	_Z11threadTest1v:
 289              	.LFB25:
  61:src/Tests.cpp **** 
  62:src/Tests.cpp **** 
  63:src/Tests.cpp **** void threadTest1()
  64:src/Tests.cpp **** {
 290              		.loc 1 64 1 is_stmt 1
 291              		.cfi_startproc
 292              		.cfi_personality 0x9b,DW.ref.__gxx_personality_v0
 293              		.cfi_lsda 0x1b,.LLSDA25
 294 01a0 130101FE 		addi	sp,sp,-32
 295              		.cfi_def_cfa_offset 32
 296 01a4 233C1100 		sd	ra,24(sp)
 297 01a8 23388100 		sd	s0,16(sp)
 298 01ac 23349100 		sd	s1,8(sp)
 299 01b0 23302101 		sd	s2,0(sp)
 300              		.cfi_offset 1, -8
GAS LISTING /tmp/cc0QfAMO.s 			page 8


 301              		.cfi_offset 8, -16
 302              		.cfi_offset 9, -24
 303              		.cfi_offset 18, -32
 304 01b4 13040102 		addi	s0,sp,32
 305              		.cfi_def_cfa 8, 0
  65:src/Tests.cpp ****     Thread* t1 = new Thread(&thread1Function, 0);
 306              		.loc 1 65 5
 307              		.loc 1 65 48 is_stmt 0
 308 01b8 13058001 		li	a0,24
 309              	.LEHB0:
 310 01bc 97000000 		call	_Znwm@plt
 310      E7800000 
 311              	.LVL31:
 312              	.LEHE0:
 313 01c4 93040500 		mv	s1,a0
 314 01c8 13060000 		li	a2,0
 315 01cc 97050000 		lla	a1,_Z15thread1FunctionPv
 315      93850500 
 316              	.LEHB1:
 317 01d4 97000000 		call	_ZN6ThreadC1EPFvPvES0_@plt
 317      E7800000 
 318              	.LVL32:
 319              	.LEHE1:
  66:src/Tests.cpp ****     t1->start();
 320              		.loc 1 66 5 is_stmt 1 discriminator 2
 321              		.loc 1 66 14 is_stmt 0 discriminator 2
 322 01dc 13850400 		mv	a0,s1
 323              	.LEHB2:
 324 01e0 97000000 		call	_ZN6Thread5startEv@plt
 324      E7800000 
 325              	.LVL33:
  67:src/Tests.cpp ****     Thread* t2 = new Thread(&thread2Function, 0);
 326              		.loc 1 67 5 is_stmt 1 discriminator 2
 327              		.loc 1 67 48 is_stmt 0 discriminator 2
 328 01e8 13058001 		li	a0,24
 329 01ec 97000000 		call	_Znwm@plt
 329      E7800000 
 330              	.LVL34:
 331              	.LEHE2:
 332 01f4 13090500 		mv	s2,a0
 333 01f8 13060000 		li	a2,0
 334 01fc 97050000 		lla	a1,_Z15thread2FunctionPv
 334      93850500 
 335              	.LEHB3:
 336 0204 97000000 		call	_ZN6ThreadC1EPFvPvES0_@plt
 336      E7800000 
 337              	.LVL35:
 338              	.LEHE3:
  68:src/Tests.cpp ****     t2->start();
 339              		.loc 1 68 5 is_stmt 1 discriminator 2
 340              		.loc 1 68 14 is_stmt 0 discriminator 2
 341 020c 13050900 		mv	a0,s2
 342              	.LEHB4:
 343 0210 97000000 		call	_ZN6Thread5startEv@plt
 343      E7800000 
 344              	.LVL36:
  69:src/Tests.cpp ****     Riscv::enableInterrupts();
GAS LISTING /tmp/cc0QfAMO.s 			page 9


 345              		.loc 1 69 5 is_stmt 1 discriminator 2
 346              		.loc 1 69 28 is_stmt 0 discriminator 2
 347 0218 97000000 		call	_ZN5Riscv16enableInterruptsEv@plt
 347      E7800000 
 348              	.LVL37:
 349 0220 6F00C001 		j	.L19
 350              	.L17:
  70:src/Tests.cpp ****     while(t1->myHandle->getState() != PCB::FINISHED || t2->myHandle->getState() != PCB::FINISHED)
  71:src/Tests.cpp ****     {
  72:src/Tests.cpp ****         Riscv::printString("Main thread\n");
 351              		.loc 1 72 9 is_stmt 1 discriminator 3
 352              		.loc 1 72 27 is_stmt 0 discriminator 3
 353 0224 17050000 		lla	a0,.LC6
 353      13050500 
 354 022c 97000000 		call	_ZN5Riscv11printStringEPKc@plt
 354      E7800000 
 355              	.LVL38:
  73:src/Tests.cpp ****         thread_dispatch();
 356              		.loc 1 73 9 is_stmt 1 discriminator 3
 357              		.loc 1 73 24 is_stmt 0 discriminator 3
 358 0234 97000000 		call	thread_dispatch@plt
 358      E7800000 
 359              	.LVL39:
 360              	.L19:
  70:src/Tests.cpp ****     while(t1->myHandle->getState() != PCB::FINISHED || t2->myHandle->getState() != PCB::FINISHED)
 361              		.loc 1 70 5 is_stmt 1
  70:src/Tests.cpp ****     while(t1->myHandle->getState() != PCB::FINISHED || t2->myHandle->getState() != PCB::FINISHED)
 362              		.loc 1 70 53
  70:src/Tests.cpp ****     while(t1->myHandle->getState() != PCB::FINISHED || t2->myHandle->getState() != PCB::FINISHED)
 363              		.loc 1 70 15 is_stmt 0
 364 023c 83B70400 		ld	a5,0(s1)
 365              	.LVL40:
 366              	.LBB11:
 367              	.LBB12:
 368              		.file 2 "src/../h/PCB.hpp"
   1:src/../h/PCB.hpp **** //
   2:src/../h/PCB.hpp **** // Created by os on 4/27/22.
   3:src/../h/PCB.hpp **** //
   4:src/../h/PCB.hpp **** 
   5:src/../h/PCB.hpp **** #ifndef PROJECT_BASE_V1_0_PCB_HPP
   6:src/../h/PCB.hpp **** #define PROJECT_BASE_V1_0_PCB_HPP
   7:src/../h/PCB.hpp **** 
   8:src/../h/PCB.hpp **** #include "../lib/hw.h"
   9:src/../h/PCB.hpp **** #include "Scheduler.hpp"
  10:src/../h/PCB.hpp **** #include "Riscv.hpp"
  11:src/../h/PCB.hpp **** 
  12:src/../h/PCB.hpp **** class PCB
  13:src/../h/PCB.hpp **** {
  14:src/../h/PCB.hpp **** public:
  15:src/../h/PCB.hpp ****     using Body = void (*)(void*);
  16:src/../h/PCB.hpp **** 
  17:src/../h/PCB.hpp ****     PCB(Body body,  void* args, void* stack_space, uint64 timeSlice);
  18:src/../h/PCB.hpp ****     ~PCB();
  19:src/../h/PCB.hpp **** 
  20:src/../h/PCB.hpp ****     void start();
  21:src/../h/PCB.hpp ****     static void dispatch();
  22:src/../h/PCB.hpp ****     static void sleep(time_t);
GAS LISTING /tmp/cc0QfAMO.s 			page 10


  23:src/../h/PCB.hpp **** 
  24:src/../h/PCB.hpp ****     static PCB* running;
  25:src/../h/PCB.hpp ****     static PCB* exitingPCB;
  26:src/../h/PCB.hpp **** 
  27:src/../h/PCB.hpp ****     static uint64 timeSliceCounter;
  28:src/../h/PCB.hpp ****     uint64 getTimeSlice() { return timeSlice;}
  29:src/../h/PCB.hpp **** 
  30:src/../h/PCB.hpp ****     void* operator new(size_t size);
  31:src/../h/PCB.hpp ****     void operator delete(void *p);
  32:src/../h/PCB.hpp **** 
  33:src/../h/PCB.hpp ****     enum State{READY, RUNNING, SUSPENDED, FINISHED, EXITING, SLEEPING};
  34:src/../h/PCB.hpp ****     State getState() {return state;}
 369              		.loc 2 34 23 is_stmt 1
 370              		.loc 2 34 30 is_stmt 0
 371 0240 03A70703 		lw	a4,48(a5)
 372              	.LVL41:
 373              	.LBE12:
 374              	.LBE11:
  70:src/Tests.cpp ****     {
 375              		.loc 1 70 53
 376 0244 93073000 		li	a5,3
 377 0248 E31EF7FC 		bne	a4,a5,.L17
  70:src/Tests.cpp ****     {
 378              		.loc 1 70 60 discriminator 2
 379 024c 83370900 		ld	a5,0(s2)
 380              	.LVL42:
 381              	.LBB13:
 382              	.LBB14:
 383              		.loc 2 34 23 is_stmt 1 discriminator 2
 384              		.loc 2 34 30 is_stmt 0 discriminator 2
 385 0250 03A70703 		lw	a4,48(a5)
 386              	.LVL43:
 387              	.LBE14:
 388              	.LBE13:
  70:src/Tests.cpp ****     {
 389              		.loc 1 70 53 discriminator 2
 390 0254 93073000 		li	a5,3
 391 0258 E316F7FC 		bne	a4,a5,.L17
  74:src/Tests.cpp ****     }
  75:src/Tests.cpp **** 
  76:src/Tests.cpp ****     Riscv::printString("End...\n");
 392              		.loc 1 76 5 is_stmt 1
 393              		.loc 1 76 23 is_stmt 0
 394 025c 17050000 		lla	a0,.LC7
 394      13050500 
 395 0264 97000000 		call	_ZN5Riscv11printStringEPKc@plt
 395      E7800000 
 396              	.LVL44:
  77:src/Tests.cpp ****     Riscv::disableInterrupts();
 397              		.loc 1 77 5 is_stmt 1
 398              		.loc 1 77 29 is_stmt 0
 399 026c 97000000 		call	_ZN5Riscv17disableInterruptsEv@plt
 399      E7800000 
 400              	.LVL45:
 401              	.LEHE4:
  78:src/Tests.cpp **** }
 402              		.loc 1 78 1
GAS LISTING /tmp/cc0QfAMO.s 			page 11


 403 0274 83308101 		ld	ra,24(sp)
 404              		.cfi_remember_state
 405              		.cfi_restore 1
 406 0278 03340101 		ld	s0,16(sp)
 407              		.cfi_restore 8
 408              		.cfi_def_cfa 2, 32
 409 027c 83348100 		ld	s1,8(sp)
 410              		.cfi_restore 9
 411              	.LVL46:
 412 0280 03390100 		ld	s2,0(sp)
 413              		.cfi_restore 18
 414              	.LVL47:
 415 0284 13010102 		addi	sp,sp,32
 416              		.cfi_def_cfa_offset 0
 417 0288 67800000 		jr	ra
 418              	.L22:
 419              		.cfi_restore_state
 420 028c 13090500 		mv	s2,a0
  65:src/Tests.cpp ****     t1->start();
 421              		.loc 1 65 48
 422 0290 13850400 		mv	a0,s1
 423 0294 97000000 		call	_ZdlPv@plt
 423      E7800000 
 424              	.LVL48:
 425 029c 13050900 		mv	a0,s2
 426              	.LEHB5:
 427 02a0 97000000 		call	_Unwind_Resume@plt
 427      E7800000 
 428              	.LVL49:
 429              	.LEHE5:
 430              	.L23:
 431 02a8 93040500 		mv	s1,a0
 432              	.LVL50:
  67:src/Tests.cpp ****     t2->start();
 433              		.loc 1 67 48
 434 02ac 13050900 		mv	a0,s2
 435 02b0 97000000 		call	_ZdlPv@plt
 435      E7800000 
 436              	.LVL51:
 437 02b8 13850400 		mv	a0,s1
 438              	.LEHB6:
 439 02bc 97000000 		call	_Unwind_Resume@plt
 439      E7800000 
 440              	.LVL52:
 441              	.LEHE6:
 442              		.cfi_endproc
 443              	.LFE25:
 444              		.globl	__gxx_personality_v0
 445              		.section	.gcc_except_table,"a",@progbits
 446              	.LLSDA25:
 447 0000 FF       		.byte	0xff
 448 0001 FF       		.byte	0xff
 449 0002 03       		.byte	0x3
 450 0003 5B       		.byte	0x5b
 451 0004 00000000 		.4byte	.LEHB0-.LFB25
 452 0008 00000000 		.4byte	.LEHE0-.LEHB0
 453 000c 00000000 		.4byte	0
GAS LISTING /tmp/cc0QfAMO.s 			page 12


 454 0010 00       		.byte	0
 455 0011 00000000 		.4byte	.LEHB1-.LFB25
 456 0015 00000000 		.4byte	.LEHE1-.LEHB1
 457 0019 00000000 		.4byte	.L22-.LFB25
 458 001d 00       		.byte	0
 459 001e 00000000 		.4byte	.LEHB2-.LFB25
 460 0022 00000000 		.4byte	.LEHE2-.LEHB2
 461 0026 00000000 		.4byte	0
 462 002a 00       		.byte	0
 463 002b 00000000 		.4byte	.LEHB3-.LFB25
 464 002f 00000000 		.4byte	.LEHE3-.LEHB3
 465 0033 00000000 		.4byte	.L23-.LFB25
 466 0037 00       		.byte	0
 467 0038 00000000 		.4byte	.LEHB4-.LFB25
 468 003c 00000000 		.4byte	.LEHE4-.LEHB4
 469 0040 00000000 		.4byte	0
 470 0044 00       		.byte	0
 471 0045 00000000 		.4byte	.LEHB5-.LFB25
 472 0049 00000000 		.4byte	.LEHE5-.LEHB5
 473 004d 00000000 		.4byte	0
 474 0051 00       		.byte	0
 475 0052 00000000 		.4byte	.LEHB6-.LFB25
 476 0056 00000000 		.4byte	.LEHE6-.LEHB6
 477 005a 00000000 		.4byte	0
 478 005e 00       		.byte	0
 479              		.text
 481              		.align	2
 482              		.globl	_Z11threadTest2v
 484              	_Z11threadTest2v:
 485              	.LFB26:
  79:src/Tests.cpp **** 
  80:src/Tests.cpp **** void threadTest2()
  81:src/Tests.cpp **** {
 486              		.loc 1 81 1 is_stmt 1
 487              		.cfi_startproc
 488              		.cfi_personality 0x9b,DW.ref.__gxx_personality_v0
 489              		.cfi_lsda 0x1b,.LLSDA26
 490 02c4 130101FE 		addi	sp,sp,-32
 491              		.cfi_def_cfa_offset 32
 492 02c8 233C1100 		sd	ra,24(sp)
 493 02cc 23388100 		sd	s0,16(sp)
 494 02d0 23349100 		sd	s1,8(sp)
 495 02d4 23302101 		sd	s2,0(sp)
 496              		.cfi_offset 1, -8
 497              		.cfi_offset 8, -16
 498              		.cfi_offset 9, -24
 499              		.cfi_offset 18, -32
 500 02d8 13040102 		addi	s0,sp,32
 501              		.cfi_def_cfa 8, 0
  82:src/Tests.cpp ****     Thread* idleThread = new Thread(&idle, 0);
 502              		.loc 1 82 5
 503              		.loc 1 82 45 is_stmt 0
 504 02dc 13058001 		li	a0,24
 505              	.LEHB7:
 506 02e0 97000000 		call	_Znwm@plt
 506      E7800000 
 507              	.LVL53:
GAS LISTING /tmp/cc0QfAMO.s 			page 13


 508              	.LEHE7:
 509 02e8 93040500 		mv	s1,a0
 510 02ec 13060000 		li	a2,0
 511 02f0 97050000 		lla	a1,_Z4idlePv
 511      93850500 
 512              	.LEHB8:
 513 02f8 97000000 		call	_ZN6ThreadC1EPFvPvES0_@plt
 513      E7800000 
 514              	.LVL54:
 515              	.LEHE8:
  83:src/Tests.cpp ****     idleThread->start();
 516              		.loc 1 83 5 is_stmt 1 discriminator 2
 517              		.loc 1 83 22 is_stmt 0 discriminator 2
 518 0300 13850400 		mv	a0,s1
 519              	.LEHB9:
 520 0304 97000000 		call	_ZN6Thread5startEv@plt
 520      E7800000 
 521              	.LVL55:
  84:src/Tests.cpp ****     Thread* t1 = new Thread(&thread1Function, 0);
 522              		.loc 1 84 5 is_stmt 1 discriminator 2
 523              		.loc 1 84 48 is_stmt 0 discriminator 2
 524 030c 13058001 		li	a0,24
 525 0310 97000000 		call	_Znwm@plt
 525      E7800000 
 526              	.LVL56:
 527              	.LEHE9:
 528 0318 13090500 		mv	s2,a0
 529 031c 13060000 		li	a2,0
 530 0320 97050000 		lla	a1,_Z15thread1FunctionPv
 530      93850500 
 531              	.LEHB10:
 532 0328 97000000 		call	_ZN6ThreadC1EPFvPvES0_@plt
 532      E7800000 
 533              	.LVL57:
 534              	.LEHE10:
  85:src/Tests.cpp ****     t1->start();
 535              		.loc 1 85 5 is_stmt 1 discriminator 2
 536              		.loc 1 85 14 is_stmt 0 discriminator 2
 537 0330 13050900 		mv	a0,s2
 538              	.LEHB11:
 539 0334 97000000 		call	_ZN6Thread5startEv@plt
 539      E7800000 
 540              	.LVL58:
  86:src/Tests.cpp ****     Thread* t2  = new Thread(&thread2FunctionTest2, 0);
 541              		.loc 1 86 5 is_stmt 1 discriminator 2
 542              		.loc 1 86 54 is_stmt 0 discriminator 2
 543 033c 13058001 		li	a0,24
 544 0340 97000000 		call	_Znwm@plt
 544      E7800000 
 545              	.LVL59:
 546              	.LEHE11:
 547 0348 13090500 		mv	s2,a0
 548              	.LVL60:
 549 034c 13060000 		li	a2,0
 550 0350 97050000 		lla	a1,_Z20thread2FunctionTest2Pv
 550      93850500 
 551              	.LEHB12:
GAS LISTING /tmp/cc0QfAMO.s 			page 14


 552 0358 97000000 		call	_ZN6ThreadC1EPFvPvES0_@plt
 552      E7800000 
 553              	.LVL61:
 554              	.LEHE12:
  87:src/Tests.cpp ****     t2->start();
 555              		.loc 1 87 5 is_stmt 1 discriminator 2
 556              		.loc 1 87 14 is_stmt 0 discriminator 2
 557 0360 13050900 		mv	a0,s2
 558              	.LEHB13:
 559 0364 97000000 		call	_ZN6Thread5startEv@plt
 559      E7800000 
 560              	.LVL62:
  88:src/Tests.cpp **** 
  89:src/Tests.cpp ****     Riscv::enableInterrupts();
 561              		.loc 1 89 5 is_stmt 1 discriminator 2
 562              		.loc 1 89 28 is_stmt 0 discriminator 2
 563 036c 97000000 		call	_ZN5Riscv16enableInterruptsEv@plt
 563      E7800000 
 564              	.LVL63:
 565              	.L27:
  90:src/Tests.cpp **** 
  91:src/Tests.cpp ****     while(idleThread->myHandle->getState() != PCB::FINISHED);
 566              		.loc 1 91 5 is_stmt 1
 567              		.loc 1 91 44
 568              		.loc 1 91 23 is_stmt 0
 569 0374 83B70400 		ld	a5,0(s1)
 570              	.LVL64:
 571              	.LBB15:
 572              	.LBB16:
 573              		.loc 2 34 23 is_stmt 1
 574              		.loc 2 34 30 is_stmt 0
 575 0378 03A70703 		lw	a4,48(a5)
 576              	.LVL65:
 577              	.LBE16:
 578              	.LBE15:
 579              		.loc 1 91 44
 580 037c 93073000 		li	a5,3
 581 0380 E31AF7FE 		bne	a4,a5,.L27
  92:src/Tests.cpp **** 
  93:src/Tests.cpp ****     Riscv::printString("End...\n");
 582              		.loc 1 93 5 is_stmt 1
 583              		.loc 1 93 23 is_stmt 0
 584 0384 17050000 		lla	a0,.LC7
 584      13050500 
 585 038c 97000000 		call	_ZN5Riscv11printStringEPKc@plt
 585      E7800000 
 586              	.LVL66:
  94:src/Tests.cpp **** 
  95:src/Tests.cpp ****     Riscv::disableInterrupts();
 587              		.loc 1 95 5 is_stmt 1
 588              		.loc 1 95 29 is_stmt 0
 589 0394 97000000 		call	_ZN5Riscv17disableInterruptsEv@plt
 589      E7800000 
 590              	.LVL67:
 591              	.LEHE13:
  96:src/Tests.cpp **** }
 592              		.loc 1 96 1
GAS LISTING /tmp/cc0QfAMO.s 			page 15


 593 039c 83308101 		ld	ra,24(sp)
 594              		.cfi_remember_state
 595              		.cfi_restore 1
 596 03a0 03340101 		ld	s0,16(sp)
 597              		.cfi_restore 8
 598              		.cfi_def_cfa 2, 32
 599 03a4 83348100 		ld	s1,8(sp)
 600              		.cfi_restore 9
 601              	.LVL68:
 602 03a8 03390100 		ld	s2,0(sp)
 603              		.cfi_restore 18
 604              	.LVL69:
 605 03ac 13010102 		addi	sp,sp,32
 606              		.cfi_def_cfa_offset 0
 607 03b0 67800000 		jr	ra
 608              	.L31:
 609              		.cfi_restore_state
 610 03b4 13090500 		mv	s2,a0
  82:src/Tests.cpp ****     idleThread->start();
 611              		.loc 1 82 45
 612 03b8 13850400 		mv	a0,s1
 613 03bc 97000000 		call	_ZdlPv@plt
 613      E7800000 
 614              	.LVL70:
 615 03c4 13050900 		mv	a0,s2
 616              	.LEHB14:
 617 03c8 97000000 		call	_Unwind_Resume@plt
 617      E7800000 
 618              	.LVL71:
 619              	.LEHE14:
 620              	.L32:
 621 03d0 93040500 		mv	s1,a0
 622              	.LVL72:
  84:src/Tests.cpp ****     t1->start();
 623              		.loc 1 84 48
 624 03d4 13050900 		mv	a0,s2
 625 03d8 97000000 		call	_ZdlPv@plt
 625      E7800000 
 626              	.LVL73:
 627 03e0 13850400 		mv	a0,s1
 628              	.LEHB15:
 629 03e4 97000000 		call	_Unwind_Resume@plt
 629      E7800000 
 630              	.LVL74:
 631              	.LEHE15:
 632              	.L33:
 633 03ec 93040500 		mv	s1,a0
 634              	.LVL75:
  86:src/Tests.cpp ****     t2->start();
 635              		.loc 1 86 54
 636 03f0 13050900 		mv	a0,s2
 637 03f4 97000000 		call	_ZdlPv@plt
 637      E7800000 
 638              	.LVL76:
 639 03fc 13850400 		mv	a0,s1
 640              	.LEHB16:
 641 0400 97000000 		call	_Unwind_Resume@plt
GAS LISTING /tmp/cc0QfAMO.s 			page 16


 641      E7800000 
 642              	.LVL77:
 643              	.LEHE16:
 644              		.cfi_endproc
 645              	.LFE26:
 646              		.section	.gcc_except_table
 647              	.LLSDA26:
 648 005f FF       		.byte	0xff
 649 0060 FF       		.byte	0xff
 650 0061 03       		.byte	0x3
 651 0062 8201     		.byte	0x82,0x1
 652 0064 00000000 		.4byte	.LEHB7-.LFB26
 653 0068 00000000 		.4byte	.LEHE7-.LEHB7
 654 006c 00000000 		.4byte	0
 655 0070 00       		.byte	0
 656 0071 00000000 		.4byte	.LEHB8-.LFB26
 657 0075 00000000 		.4byte	.LEHE8-.LEHB8
 658 0079 00000000 		.4byte	.L31-.LFB26
 659 007d 00       		.byte	0
 660 007e 00000000 		.4byte	.LEHB9-.LFB26
 661 0082 00000000 		.4byte	.LEHE9-.LEHB9
 662 0086 00000000 		.4byte	0
 663 008a 00       		.byte	0
 664 008b 00000000 		.4byte	.LEHB10-.LFB26
 665 008f 00000000 		.4byte	.LEHE10-.LEHB10
 666 0093 00000000 		.4byte	.L32-.LFB26
 667 0097 00       		.byte	0
 668 0098 00000000 		.4byte	.LEHB11-.LFB26
 669 009c 00000000 		.4byte	.LEHE11-.LEHB11
 670 00a0 00000000 		.4byte	0
 671 00a4 00       		.byte	0
 672 00a5 00000000 		.4byte	.LEHB12-.LFB26
 673 00a9 00000000 		.4byte	.LEHE12-.LEHB12
 674 00ad 00000000 		.4byte	.L33-.LFB26
 675 00b1 00       		.byte	0
 676 00b2 00000000 		.4byte	.LEHB13-.LFB26
 677 00b6 00000000 		.4byte	.LEHE13-.LEHB13
 678 00ba 00000000 		.4byte	0
 679 00be 00       		.byte	0
 680 00bf 00000000 		.4byte	.LEHB14-.LFB26
 681 00c3 00000000 		.4byte	.LEHE14-.LEHB14
 682 00c7 00000000 		.4byte	0
 683 00cb 00       		.byte	0
 684 00cc 00000000 		.4byte	.LEHB15-.LFB26
 685 00d0 00000000 		.4byte	.LEHE15-.LEHB15
 686 00d4 00000000 		.4byte	0
 687 00d8 00       		.byte	0
 688 00d9 00000000 		.4byte	.LEHB16-.LFB26
 689 00dd 00000000 		.4byte	.LEHE16-.LEHB16
 690 00e1 00000000 		.4byte	0
 691 00e5 00       		.byte	0
 692              		.text
 694              		.align	2
 695              		.globl	_Z11threadTestsv
 697              	_Z11threadTestsv:
 698              	.LFB27:
  97:src/Tests.cpp **** 
GAS LISTING /tmp/cc0QfAMO.s 			page 17


  98:src/Tests.cpp **** void threadTests()
  99:src/Tests.cpp **** {
 699              		.loc 1 99 1 is_stmt 1
 700              		.cfi_startproc
 701 0408 130101FF 		addi	sp,sp,-16
 702              		.cfi_def_cfa_offset 16
 703 040c 23341100 		sd	ra,8(sp)
 704 0410 23308100 		sd	s0,0(sp)
 705              		.cfi_offset 1, -8
 706              		.cfi_offset 8, -16
 707 0414 13040101 		addi	s0,sp,16
 708              		.cfi_def_cfa 8, 0
 100:src/Tests.cpp ****     threadTest1();
 709              		.loc 1 100 5
 710              		.loc 1 100 16 is_stmt 0
 711 0418 97000000 		call	_Z11threadTest1v
 711      E7800000 
 712              	.LVL78:
 101:src/Tests.cpp ****     //threadTest2();
 102:src/Tests.cpp **** }
 713              		.loc 1 102 1
 714 0420 83308100 		ld	ra,8(sp)
 715              		.cfi_restore 1
 716 0424 03340100 		ld	s0,0(sp)
 717              		.cfi_restore 8
 718              		.cfi_def_cfa 2, 16
 719 0428 13010101 		addi	sp,sp,16
 720              		.cfi_def_cfa_offset 0
 721 042c 67800000 		jr	ra
 722              		.cfi_endproc
 723              	.LFE27:
 725              		.section	.rodata.str1.8
 726              		.align	3
 727              	.LC8:
 728 0068 6D616C6C 		.string	"mallocFree\n"
 728      6F634672 
 728      65650A00 
 729 0074 00000000 		.align	3
 730              	.LC9:
 731 0078 6E6F7420 		.string	"not OK\n"
 731      4F4B0A00 
 732              		.align	3
 733              	.LC10:
 734 0080 4F4B0A00 		.string	"OK\n"
 735              		.text
 736              		.align	2
 737              		.globl	_Z10mallocFreev
 739              	_Z10mallocFreev:
 740              	.LFB28:
 103:src/Tests.cpp **** 
 104:src/Tests.cpp **** 
 105:src/Tests.cpp **** //memory (de)allocation tests
 106:src/Tests.cpp **** void mallocFree()
 107:src/Tests.cpp **** {
 741              		.loc 1 107 1 is_stmt 1
 742              		.cfi_startproc
 743 0430 130101CC 		addi	sp,sp,-832
GAS LISTING /tmp/cc0QfAMO.s 			page 18


 744              		.cfi_def_cfa_offset 832
 745 0434 233C1132 		sd	ra,824(sp)
 746 0438 23388132 		sd	s0,816(sp)
 747 043c 23349132 		sd	s1,808(sp)
 748              		.cfi_offset 1, -8
 749              		.cfi_offset 8, -16
 750              		.cfi_offset 9, -24
 751 0440 13040134 		addi	s0,sp,832
 752              		.cfi_def_cfa 8, 0
 108:src/Tests.cpp ****     Riscv::printString("mallocFree\n");
 753              		.loc 1 108 5
 754              		.loc 1 108 23 is_stmt 0
 755 0444 17050000 		lla	a0,.LC8
 755      13050500 
 756 044c 97000000 		call	_ZN5Riscv11printStringEPKc@plt
 756      E7800000 
 757              	.LVL79:
 758              	.LBB17:
 109:src/Tests.cpp ****     constexpr int num = 100;
 110:src/Tests.cpp ****     void* addrs[num];
 111:src/Tests.cpp ****     for(int i = 0; i < num;i++)
 759              		.loc 1 111 13
 760 0454 93040000 		li	s1,0
 761 0458 6F008000 		j	.L42
 762              	.LVL80:
 763              	.L40:
 764              		.loc 1 111 5 is_stmt 1 discriminator 2
 765 045c 9B841400 		addiw	s1,s1,1
 766              	.LVL81:
 767              	.L42:
 768              		.loc 1 111 22 discriminator 1
 769 0460 93073006 		li	a5,99
 770 0464 63C49704 		bgt	s1,a5,.L50
 112:src/Tests.cpp ****     {
 113:src/Tests.cpp ****         addrs[i] = mem_alloc(100);
 771              		.loc 1 113 9
 772              		.loc 1 113 29 is_stmt 0
 773 0468 13054006 		li	a0,100
 774 046c 97000000 		call	mem_alloc@plt
 774      E7800000 
 775              	.LVL82:
 776              		.loc 1 113 18
 777 0474 93973400 		slli	a5,s1,3
 778 0478 130704FE 		addi	a4,s0,-32
 779 047c B307F700 		add	a5,a4,a5
 780 0480 23B0A7CE 		sd	a0,-800(a5)
 114:src/Tests.cpp ****         if(addrs[i] == 0)
 781              		.loc 1 114 9 is_stmt 1
 782 0484 E31C05FC 		bnez	a0,.L40
 115:src/Tests.cpp ****         {
 116:src/Tests.cpp ****             Riscv::printString("not OK\n");
 783              		.loc 1 116 13
 784              		.loc 1 116 31 is_stmt 0
 785 0488 17050000 		lla	a0,.LC9
 785      13050500 
 786 0490 97000000 		call	_ZN5Riscv11printStringEPKc@plt
 786      E7800000 
GAS LISTING /tmp/cc0QfAMO.s 			page 19


 787              	.LVL83:
 117:src/Tests.cpp ****             return;
 788              		.loc 1 117 13 is_stmt 1
 789              	.L38:
 790              	.LBE17:
 118:src/Tests.cpp ****         }
 119:src/Tests.cpp **** 
 120:src/Tests.cpp ****     }
 121:src/Tests.cpp **** 
 122:src/Tests.cpp ****     for(int i = 0 ; i < num;i+=2)
 123:src/Tests.cpp ****     {
 124:src/Tests.cpp ****         int retval = mem_free(addrs[i]);
 125:src/Tests.cpp ****         if(retval != 0)
 126:src/Tests.cpp ****         {
 127:src/Tests.cpp ****             Riscv::printString("not OK\n");
 128:src/Tests.cpp ****             return;
 129:src/Tests.cpp ****         }
 130:src/Tests.cpp ****     }
 131:src/Tests.cpp **** 
 132:src/Tests.cpp ****     for(int i = 0 ; i < num;i+=2)
 133:src/Tests.cpp ****     {
 134:src/Tests.cpp ****         addrs[i] = mem_alloc(20);
 135:src/Tests.cpp ****         if(addrs[i] == 0)
 136:src/Tests.cpp ****         {
 137:src/Tests.cpp ****             Riscv::printString("not OK\n");
 138:src/Tests.cpp ****             return;
 139:src/Tests.cpp ****         }
 140:src/Tests.cpp ****     }
 141:src/Tests.cpp **** 
 142:src/Tests.cpp ****     for(int i = 0; i < num;i++)
 143:src/Tests.cpp ****     {
 144:src/Tests.cpp ****         int retval = mem_free(addrs[i]);
 145:src/Tests.cpp ****         if(retval != 0)
 146:src/Tests.cpp ****         {
 147:src/Tests.cpp ****             Riscv::printString("not OK\n");
 148:src/Tests.cpp ****             return;
 149:src/Tests.cpp ****         }
 150:src/Tests.cpp ****     }
 151:src/Tests.cpp **** 
 152:src/Tests.cpp ****     Riscv::printString("OK\n");
 153:src/Tests.cpp **** }
 791              		.loc 1 153 1 is_stmt 0
 792 0498 83308133 		ld	ra,824(sp)
 793              		.cfi_remember_state
 794              		.cfi_restore 1
 795 049c 03340133 		ld	s0,816(sp)
 796              		.cfi_restore 8
 797              		.cfi_def_cfa 2, 832
 798 04a0 83348132 		ld	s1,808(sp)
 799              		.cfi_restore 9
 800 04a4 13010134 		addi	sp,sp,832
 801              		.cfi_def_cfa_offset 0
 802 04a8 67800000 		jr	ra
 803              	.LVL84:
 804              	.L50:
 805              		.cfi_restore_state
 806              	.LBB18:
GAS LISTING /tmp/cc0QfAMO.s 			page 20


 122:src/Tests.cpp ****     {
 807              		.loc 1 122 13
 808 04ac 93040000 		li	s1,0
 809              	.LVL85:
 810              	.L39:
 122:src/Tests.cpp ****     {
 811              		.loc 1 122 23 is_stmt 1 discriminator 1
 812 04b0 93073006 		li	a5,99
 813 04b4 63CE9702 		bgt	s1,a5,.L51
 814              	.LBB19:
 124:src/Tests.cpp ****         if(retval != 0)
 815              		.loc 1 124 9
 124:src/Tests.cpp ****         if(retval != 0)
 816              		.loc 1 124 30 is_stmt 0
 817 04b8 93973400 		slli	a5,s1,3
 818 04bc 130704FE 		addi	a4,s0,-32
 819 04c0 B307F700 		add	a5,a4,a5
 820 04c4 03B507CE 		ld	a0,-800(a5)
 821 04c8 97000000 		call	mem_free@plt
 821      E7800000 
 822              	.LVL86:
 125:src/Tests.cpp ****         {
 823              		.loc 1 125 9 is_stmt 1
 824 04d0 63160500 		bnez	a0,.L54
 825              	.LBE19:
 122:src/Tests.cpp ****     {
 826              		.loc 1 122 5 discriminator 2
 122:src/Tests.cpp ****     {
 827              		.loc 1 122 30 is_stmt 0 discriminator 2
 828 04d4 9B842400 		addiw	s1,s1,2
 829              	.LVL87:
 122:src/Tests.cpp ****     {
 830              		.loc 1 122 5 discriminator 2
 831 04d8 6FF09FFD 		j	.L39
 832              	.LVL88:
 833              	.L54:
 834              	.LBB20:
 127:src/Tests.cpp ****             return;
 835              		.loc 1 127 13 is_stmt 1
 127:src/Tests.cpp ****             return;
 836              		.loc 1 127 31 is_stmt 0
 837 04dc 17050000 		lla	a0,.LC9
 837      13050500 
 838              	.LVL89:
 839 04e4 97000000 		call	_ZN5Riscv11printStringEPKc@plt
 839      E7800000 
 840              	.LVL90:
 128:src/Tests.cpp ****         }
 841              		.loc 1 128 13 is_stmt 1
 842 04ec 6FF0DFFA 		j	.L38
 843              	.L51:
 844              	.LBE20:
 845              	.LBE18:
 846              	.LBB21:
 132:src/Tests.cpp ****     {
 847              		.loc 1 132 13 is_stmt 0
 848 04f0 93040000 		li	s1,0
GAS LISTING /tmp/cc0QfAMO.s 			page 21


 849              	.LVL91:
 850 04f4 6F008000 		j	.L43
 851              	.LVL92:
 852              	.L46:
 132:src/Tests.cpp ****     {
 853              		.loc 1 132 5 is_stmt 1 discriminator 2
 132:src/Tests.cpp ****     {
 854              		.loc 1 132 30 is_stmt 0 discriminator 2
 855 04f8 9B842400 		addiw	s1,s1,2
 856              	.LVL93:
 857              	.L43:
 132:src/Tests.cpp ****     {
 858              		.loc 1 132 23 is_stmt 1 discriminator 1
 859 04fc 93073006 		li	a5,99
 860 0500 63CC9702 		bgt	s1,a5,.L52
 134:src/Tests.cpp ****         if(addrs[i] == 0)
 861              		.loc 1 134 9
 134:src/Tests.cpp ****         if(addrs[i] == 0)
 862              		.loc 1 134 29 is_stmt 0
 863 0504 13054001 		li	a0,20
 864 0508 97000000 		call	mem_alloc@plt
 864      E7800000 
 865              	.LVL94:
 134:src/Tests.cpp ****         if(addrs[i] == 0)
 866              		.loc 1 134 18
 867 0510 93973400 		slli	a5,s1,3
 868 0514 130704FE 		addi	a4,s0,-32
 869 0518 B307F700 		add	a5,a4,a5
 870 051c 23B0A7CE 		sd	a0,-800(a5)
 135:src/Tests.cpp ****         {
 871              		.loc 1 135 9 is_stmt 1
 872 0520 E31C05FC 		bnez	a0,.L46
 137:src/Tests.cpp ****             return;
 873              		.loc 1 137 13
 137:src/Tests.cpp ****             return;
 874              		.loc 1 137 31 is_stmt 0
 875 0524 17050000 		lla	a0,.LC9
 875      13050500 
 876 052c 97000000 		call	_ZN5Riscv11printStringEPKc@plt
 876      E7800000 
 877              	.LVL95:
 138:src/Tests.cpp ****         }
 878              		.loc 1 138 13 is_stmt 1
 879 0534 6FF05FF6 		j	.L38
 880              	.L52:
 881              	.LBE21:
 882              	.LBB22:
 142:src/Tests.cpp ****     {
 883              		.loc 1 142 13 is_stmt 0
 884 0538 93040000 		li	s1,0
 885              	.LVL96:
 886              	.L45:
 142:src/Tests.cpp ****     {
 887              		.loc 1 142 22 is_stmt 1 discriminator 1
 888 053c 93073006 		li	a5,99
 889 0540 63CE9702 		bgt	s1,a5,.L47
 890              	.LBB23:
GAS LISTING /tmp/cc0QfAMO.s 			page 22


 144:src/Tests.cpp ****         if(retval != 0)
 891              		.loc 1 144 9
 144:src/Tests.cpp ****         if(retval != 0)
 892              		.loc 1 144 30 is_stmt 0
 893 0544 93973400 		slli	a5,s1,3
 894 0548 130704FE 		addi	a4,s0,-32
 895 054c B307F700 		add	a5,a4,a5
 896 0550 03B507CE 		ld	a0,-800(a5)
 897 0554 97000000 		call	mem_free@plt
 897      E7800000 
 898              	.LVL97:
 145:src/Tests.cpp ****         {
 899              		.loc 1 145 9 is_stmt 1
 900 055c 63160500 		bnez	a0,.L55
 901              	.LBE23:
 142:src/Tests.cpp ****     {
 902              		.loc 1 142 5 discriminator 2
 903 0560 9B841400 		addiw	s1,s1,1
 904              	.LVL98:
 905 0564 6FF09FFD 		j	.L45
 906              	.LVL99:
 907              	.L55:
 908              	.LBB24:
 147:src/Tests.cpp ****             return;
 909              		.loc 1 147 13
 147:src/Tests.cpp ****             return;
 910              		.loc 1 147 31 is_stmt 0
 911 0568 17050000 		lla	a0,.LC9
 911      13050500 
 912              	.LVL100:
 913 0570 97000000 		call	_ZN5Riscv11printStringEPKc@plt
 913      E7800000 
 914              	.LVL101:
 148:src/Tests.cpp ****         }
 915              		.loc 1 148 13 is_stmt 1
 916 0578 6FF01FF2 		j	.L38
 917              	.L47:
 918              	.LBE24:
 919              	.LBE22:
 152:src/Tests.cpp **** }
 920              		.loc 1 152 5
 152:src/Tests.cpp **** }
 921              		.loc 1 152 23 is_stmt 0
 922 057c 17050000 		lla	a0,.LC10
 922      13050500 
 923 0584 97000000 		call	_ZN5Riscv11printStringEPKc@plt
 923      E7800000 
 924              	.LVL102:
 925 058c 6FF0DFF0 		j	.L38
 926              		.cfi_endproc
 927              	.LFE28:
 929              		.section	.rodata.str1.8
 930 0084 00000000 		.align	3
 931              	.LC11:
 932 0088 6269674D 		.string	"bigMalloc\n"
 932      616C6C6F 
 932      630A00
GAS LISTING /tmp/cc0QfAMO.s 			page 23


 933              		.text
 934              		.align	2
 935              		.globl	_Z9bigMallocv
 937              	_Z9bigMallocv:
 938              	.LFB29:
 154:src/Tests.cpp **** void bigMalloc()
 155:src/Tests.cpp **** {
 939              		.loc 1 155 1 is_stmt 1
 940              		.cfi_startproc
 941 0590 130101FF 		addi	sp,sp,-16
 942              		.cfi_def_cfa_offset 16
 943 0594 23341100 		sd	ra,8(sp)
 944 0598 23308100 		sd	s0,0(sp)
 945              		.cfi_offset 1, -8
 946              		.cfi_offset 8, -16
 947 059c 13040101 		addi	s0,sp,16
 948              		.cfi_def_cfa 8, 0
 156:src/Tests.cpp ****     Riscv::printString("bigMalloc\n");
 949              		.loc 1 156 5
 950              		.loc 1 156 23 is_stmt 0
 951 05a0 17050000 		lla	a0,.LC11
 951      13050500 
 952 05a8 97000000 		call	_ZN5Riscv11printStringEPKc@plt
 952      E7800000 
 953              	.LVL103:
 157:src/Tests.cpp ****     uint64 x = (uint64)HEAP_END_ADDR - (uint64)HEAP_START_ADDR + 100UL;
 954              		.loc 1 157 5 is_stmt 1
 955              		.loc 1 157 38 is_stmt 0
 956 05b0 97070000 		la	a5,HEAP_END_ADDR
 956      83B70700 
 957 05b8 03B50700 		ld	a0,0(a5)
 958 05bc 97070000 		la	a5,HEAP_START_ADDR
 958      83B70700 
 959 05c4 83B70700 		ld	a5,0(a5)
 960 05c8 3305F540 		sub	a0,a0,a5
 961              	.LVL104:
 158:src/Tests.cpp ****     void* p = mem_alloc(x);
 962              		.loc 1 158 5 is_stmt 1
 963              		.loc 1 158 24 is_stmt 0
 964 05cc 13054506 		addi	a0,a0,100
 965              	.LVL105:
 966 05d0 97000000 		call	mem_alloc@plt
 966      E7800000 
 967              	.LVL106:
 159:src/Tests.cpp ****     if(p == 0)
 968              		.loc 1 159 5 is_stmt 1
 969 05d8 63020502 		beqz	a0,.L60
 160:src/Tests.cpp ****         Riscv::printString("OK\n");
 161:src/Tests.cpp ****     else
 162:src/Tests.cpp ****         Riscv::printString("not OK\n");
 970              		.loc 1 162 9
 971              		.loc 1 162 27 is_stmt 0
 972 05dc 17050000 		lla	a0,.LC9
 972      13050500 
 973              	.LVL107:
 974 05e4 97000000 		call	_ZN5Riscv11printStringEPKc@plt
 974      E7800000 
GAS LISTING /tmp/cc0QfAMO.s 			page 24


 975              	.LVL108:
 976              	.L56:
 163:src/Tests.cpp **** }
 977              		.loc 1 163 1
 978 05ec 83308100 		ld	ra,8(sp)
 979              		.cfi_remember_state
 980              		.cfi_restore 1
 981 05f0 03340100 		ld	s0,0(sp)
 982              		.cfi_restore 8
 983              		.cfi_def_cfa 2, 16
 984 05f4 13010101 		addi	sp,sp,16
 985              		.cfi_def_cfa_offset 0
 986 05f8 67800000 		jr	ra
 987              	.LVL109:
 988              	.L60:
 989              		.cfi_restore_state
 160:src/Tests.cpp ****         Riscv::printString("OK\n");
 990              		.loc 1 160 9 is_stmt 1
 160:src/Tests.cpp ****         Riscv::printString("OK\n");
 991              		.loc 1 160 27 is_stmt 0
 992 05fc 17050000 		lla	a0,.LC10
 992      13050500 
 993              	.LVL110:
 994 0604 97000000 		call	_ZN5Riscv11printStringEPKc@plt
 994      E7800000 
 995              	.LVL111:
 996 060c 6FF01FFE 		j	.L56
 997              		.cfi_endproc
 998              	.LFE29:
 1000              		.section	.rodata.str1.8
 1001 0093 00000000 		.align	3
 1001      00
 1002              	.LC12:
 1003 0098 6C6F744F 		.string	"lotOfSmallMallocs\n"
 1003      66536D61 
 1003      6C6C4D61 
 1003      6C6C6F63 
 1003      730A00
 1004              		.text
 1005              		.align	2
 1006              		.globl	_Z17lotOfSmallMallocsv
 1008              	_Z17lotOfSmallMallocsv:
 1009              	.LFB30:
 164:src/Tests.cpp **** 
 165:src/Tests.cpp **** void lotOfSmallMallocs()
 166:src/Tests.cpp **** {
 1010              		.loc 1 166 1 is_stmt 1
 1011              		.cfi_startproc
 1012 0610 130101FD 		addi	sp,sp,-48
 1013              		.cfi_def_cfa_offset 48
 1014 0614 23341102 		sd	ra,40(sp)
 1015 0618 23308102 		sd	s0,32(sp)
 1016 061c 233C9100 		sd	s1,24(sp)
 1017 0620 23382101 		sd	s2,16(sp)
 1018 0624 23343101 		sd	s3,8(sp)
 1019              		.cfi_offset 1, -8
 1020              		.cfi_offset 8, -16
GAS LISTING /tmp/cc0QfAMO.s 			page 25


 1021              		.cfi_offset 9, -24
 1022              		.cfi_offset 18, -32
 1023              		.cfi_offset 19, -40
 1024 0628 13040103 		addi	s0,sp,48
 1025              		.cfi_def_cfa 8, 0
 167:src/Tests.cpp ****     Riscv::printString("lotOfSmallMallocs\n");
 1026              		.loc 1 167 5
 1027              		.loc 1 167 23 is_stmt 0
 1028 062c 17050000 		lla	a0,.LC12
 1028      13050500 
 1029 0634 97000000 		call	_ZN5Riscv11printStringEPKc@plt
 1029      E7800000 
 1030              	.LVL112:
 168:src/Tests.cpp ****     uint64 cnt = 0;
 1031              		.loc 1 168 5 is_stmt 1
 169:src/Tests.cpp ****     uint64 sum = 0;
 1032              		.loc 1 169 5
 170:src/Tests.cpp ****     uint64 N = 10000UL;
 1033              		.loc 1 170 5
 171:src/Tests.cpp ****     uint64 X = 10UL;
 1034              		.loc 1 171 5
 172:src/Tests.cpp ****     for(uint64 i = 0; i < N;i++)
 1035              		.loc 1 172 5
 1036              	.LBB25:
 1037              		.loc 1 172 16 is_stmt 0
 1038 063c 93040000 		li	s1,0
 1039              	.LBE25:
 169:src/Tests.cpp ****     uint64 N = 10000UL;
 1040              		.loc 1 169 12
 1041 0640 93090000 		li	s3,0
 168:src/Tests.cpp ****     uint64 sum = 0;
 1042              		.loc 1 168 12
 1043 0644 13090000 		li	s2,0
 1044 0648 6F008001 		j	.L63
 1045              	.LVL113:
 1046              	.L67:
 1047              	.LBB28:
 1048              	.LBB26:
 173:src/Tests.cpp ****     {
 174:src/Tests.cpp ****         Test* t = (Test*)mem_alloc(sizeof(Test));
 175:src/Tests.cpp ****         if(t == 0)
 176:src/Tests.cpp ****             break;
 177:src/Tests.cpp ****         t->a = X;
 1049              		.loc 1 177 9 is_stmt 1 discriminator 2
 1050              		.loc 1 177 14 is_stmt 0 discriminator 2
 1051 064c 9307A000 		li	a5,10
 1052 0650 2330F500 		sd	a5,0(a0)
 178:src/Tests.cpp ****         sum+=t->a;
 1053              		.loc 1 178 9 is_stmt 1 discriminator 2
 1054              		.loc 1 178 12 is_stmt 0 discriminator 2
 1055 0654 9389A900 		addi	s3,s3,10
 1056              	.LVL114:
 179:src/Tests.cpp ****         cnt++;
 1057              		.loc 1 179 9 is_stmt 1 discriminator 2
 1058              		.loc 1 179 12 is_stmt 0 discriminator 2
 1059 0658 13091900 		addi	s2,s2,1
 1060              	.LVL115:
GAS LISTING /tmp/cc0QfAMO.s 			page 26


 1061              	.LBE26:
 172:src/Tests.cpp ****     {
 1062              		.loc 1 172 5 is_stmt 1 discriminator 2
 1063 065c 93841400 		addi	s1,s1,1
 1064              	.LVL116:
 1065              	.L63:
 172:src/Tests.cpp ****     {
 1066              		.loc 1 172 25 discriminator 1
 1067 0660 B7270000 		li	a5,8192
 1068 0664 9387F770 		addi	a5,a5,1807
 1069 0668 63EA9700 		bgtu	s1,a5,.L62
 1070              	.LBB27:
 174:src/Tests.cpp ****         if(t == 0)
 1071              		.loc 1 174 9
 174:src/Tests.cpp ****         if(t == 0)
 1072              		.loc 1 174 35 is_stmt 0
 1073 066c 13058000 		li	a0,8
 1074 0670 97000000 		call	mem_alloc@plt
 1074      E7800000 
 1075              	.LVL117:
 175:src/Tests.cpp ****             break;
 1076              		.loc 1 175 9 is_stmt 1
 1077 0678 E31A05FC 		bnez	a0,.L67
 1078              	.LVL118:
 1079              	.L62:
 1080              	.LBE27:
 1081              	.LBE28:
 180:src/Tests.cpp ****     }
 181:src/Tests.cpp ****     Riscv::printInteger(cnt);
 1082              		.loc 1 181 5
 1083              		.loc 1 181 24 is_stmt 0
 1084 067c 13050900 		mv	a0,s2
 1085 0680 97000000 		call	_ZN5Riscv12printIntegerEm@plt
 1085      E7800000 
 1086              	.LVL119:
 182:src/Tests.cpp ****     Riscv::printString("\n");
 1087              		.loc 1 182 5 is_stmt 1
 1088              		.loc 1 182 23 is_stmt 0
 1089 0688 17050000 		lla	a0,.LC3
 1089      13050500 
 1090 0690 97000000 		call	_ZN5Riscv11printStringEPKc@plt
 1090      E7800000 
 1091              	.LVL120:
 183:src/Tests.cpp ****     if(sum == X*cnt)
 1092              		.loc 1 183 5 is_stmt 1
 1093              		.loc 1 183 16 is_stmt 0
 1094 0698 93172900 		slli	a5,s2,2
 1095 069c 33892701 		add	s2,a5,s2
 1096              	.LVL121:
 1097 06a0 13191900 		slli	s2,s2,1
 1098              		.loc 1 183 5
 1099 06a4 63083903 		beq	s2,s3,.L68
 184:src/Tests.cpp ****         Riscv::printString("OK\n");
 185:src/Tests.cpp ****     else
 186:src/Tests.cpp ****         Riscv::printString("not OK\n");
 1100              		.loc 1 186 9 is_stmt 1
 1101              		.loc 1 186 27 is_stmt 0
GAS LISTING /tmp/cc0QfAMO.s 			page 27


 1102 06a8 17050000 		lla	a0,.LC9
 1102      13050500 
 1103 06b0 97000000 		call	_ZN5Riscv11printStringEPKc@plt
 1103      E7800000 
 1104              	.LVL122:
 1105              	.L61:
 187:src/Tests.cpp **** }
 1106              		.loc 1 187 1
 1107 06b8 83308102 		ld	ra,40(sp)
 1108              		.cfi_remember_state
 1109              		.cfi_restore 1
 1110 06bc 03340102 		ld	s0,32(sp)
 1111              		.cfi_restore 8
 1112              		.cfi_def_cfa 2, 48
 1113 06c0 83348101 		ld	s1,24(sp)
 1114              		.cfi_restore 9
 1115              	.LVL123:
 1116 06c4 03390101 		ld	s2,16(sp)
 1117              		.cfi_restore 18
 1118 06c8 83398100 		ld	s3,8(sp)
 1119              		.cfi_restore 19
 1120              	.LVL124:
 1121 06cc 13010103 		addi	sp,sp,48
 1122              		.cfi_def_cfa_offset 0
 1123 06d0 67800000 		jr	ra
 1124              	.LVL125:
 1125              	.L68:
 1126              		.cfi_restore_state
 184:src/Tests.cpp ****         Riscv::printString("OK\n");
 1127              		.loc 1 184 9 is_stmt 1
 184:src/Tests.cpp ****         Riscv::printString("OK\n");
 1128              		.loc 1 184 27 is_stmt 0
 1129 06d4 17050000 		lla	a0,.LC10
 1129      13050500 
 1130 06dc 97000000 		call	_ZN5Riscv11printStringEPKc@plt
 1130      E7800000 
 1131              	.LVL126:
 1132 06e4 6FF05FFD 		j	.L61
 1133              		.cfi_endproc
 1134              	.LFE30:
 1136              		.section	.rodata.str1.8
 1137 00ab 00000000 		.align	3
 1137      00
 1138              	.LC13:
 1139 00b0 62616446 		.string	"badFree\n"
 1139      7265650A 
 1139      00
 1140              		.text
 1141              		.align	2
 1142              		.globl	_Z7badFreev
 1144              	_Z7badFreev:
 1145              	.LFB31:
 188:src/Tests.cpp **** void badFree()
 189:src/Tests.cpp **** {
 1146              		.loc 1 189 1 is_stmt 1
 1147              		.cfi_startproc
 1148 06e8 130101FF 		addi	sp,sp,-16
GAS LISTING /tmp/cc0QfAMO.s 			page 28


 1149              		.cfi_def_cfa_offset 16
 1150 06ec 23341100 		sd	ra,8(sp)
 1151 06f0 23308100 		sd	s0,0(sp)
 1152              		.cfi_offset 1, -8
 1153              		.cfi_offset 8, -16
 1154 06f4 13040101 		addi	s0,sp,16
 1155              		.cfi_def_cfa 8, 0
 190:src/Tests.cpp ****     Riscv::printString("badFree\n");
 1156              		.loc 1 190 5
 1157              		.loc 1 190 23 is_stmt 0
 1158 06f8 17050000 		lla	a0,.LC13
 1158      13050500 
 1159 0700 97000000 		call	_ZN5Riscv11printStringEPKc@plt
 1159      E7800000 
 1160              	.LVL127:
 191:src/Tests.cpp ****     Test* t = (Test*)mem_alloc(sizeof(Test));
 1161              		.loc 1 191 5 is_stmt 1
 1162              		.loc 1 191 31 is_stmt 0
 1163 0708 13058000 		li	a0,8
 1164 070c 97000000 		call	mem_alloc@plt
 1164      E7800000 
 1165              	.LVL128:
 192:src/Tests.cpp ****     uint64 retval = mem_free((char*)t + 2);
 1166              		.loc 1 192 5 is_stmt 1
 1167              		.loc 1 192 29 is_stmt 0
 1168 0714 13052500 		addi	a0,a0,2
 1169              	.LVL129:
 1170 0718 97000000 		call	mem_free@plt
 1170      E7800000 
 1171              	.LVL130:
 193:src/Tests.cpp ****     if(retval == 0)
 1172              		.loc 1 193 5 is_stmt 1
 1173 0720 63120502 		bnez	a0,.L70
 194:src/Tests.cpp ****         Riscv::printString("not OK\n");
 1174              		.loc 1 194 9
 1175              		.loc 1 194 27 is_stmt 0
 1176 0724 17050000 		lla	a0,.LC9
 1176      13050500 
 1177              	.LVL131:
 1178 072c 97000000 		call	_ZN5Riscv11printStringEPKc@plt
 1178      E7800000 
 1179              	.LVL132:
 1180              	.L69:
 195:src/Tests.cpp ****     else
 196:src/Tests.cpp ****         Riscv::printString("OK\n");
 197:src/Tests.cpp **** }
 1181              		.loc 1 197 1
 1182 0734 83308100 		ld	ra,8(sp)
 1183              		.cfi_remember_state
 1184              		.cfi_restore 1
 1185 0738 03340100 		ld	s0,0(sp)
 1186              		.cfi_restore 8
 1187              		.cfi_def_cfa 2, 16
 1188 073c 13010101 		addi	sp,sp,16
 1189              		.cfi_def_cfa_offset 0
 1190 0740 67800000 		jr	ra
 1191              	.LVL133:
GAS LISTING /tmp/cc0QfAMO.s 			page 29


 1192              	.L70:
 1193              		.cfi_restore_state
 196:src/Tests.cpp **** }
 1194              		.loc 1 196 9 is_stmt 1
 196:src/Tests.cpp **** }
 1195              		.loc 1 196 27 is_stmt 0
 1196 0744 17050000 		lla	a0,.LC10
 1196      13050500 
 1197              	.LVL134:
 1198 074c 97000000 		call	_ZN5Riscv11printStringEPKc@plt
 1198      E7800000 
 1199              	.LVL135:
 1200              		.loc 1 197 1
 1201 0754 6FF01FFE 		j	.L69
 1202              		.cfi_endproc
 1203              	.LFE31:
 1205              		.section	.rodata.str1.8
 1206 00b9 00000000 		.align	3
 1206      000000
 1207              	.LC14:
 1208 00c0 73747265 		.string	"stressTesting\n"
 1208      73735465 
 1208      7374696E 
 1208      670A00
 1209 00cf 00       		.align	3
 1210              	.LC15:
 1211 00d0 737A203A 		.string	"sz : "
 1211      2000
 1212 00d6 0000     		.align	3
 1213              	.LC16:
 1214 00d8 66726565 		.string	"free\n"
 1214      0A00
 1215 00de 0000     		.align	3
 1216              	.LC17:
 1217 00e0 616C6C6F 		.string	"alloc\n"
 1217      630A00
 1218 00e7 00       		.align	3
 1219              	.LC18:
 1220 00e8 6E6F7420 		.string	"not Ok\n"
 1220      4F6B0A00 
 1221              		.text
 1222              		.align	2
 1223              		.globl	_Z13stressTestingv
 1225              	_Z13stressTestingv:
 1226              	.LFB32:
 198:src/Tests.cpp **** 
 199:src/Tests.cpp **** void stressTesting()
 200:src/Tests.cpp **** {
 1227              		.loc 1 200 1 is_stmt 1
 1228              		.cfi_startproc
 1229 0758 130101CB 		addi	sp,sp,-848
 1230              		.cfi_def_cfa_offset 848
 1231 075c 23341134 		sd	ra,840(sp)
 1232 0760 23308134 		sd	s0,832(sp)
 1233 0764 233C9132 		sd	s1,824(sp)
 1234 0768 23382133 		sd	s2,816(sp)
 1235 076c 23343133 		sd	s3,808(sp)
GAS LISTING /tmp/cc0QfAMO.s 			page 30


 1236              		.cfi_offset 1, -8
 1237              		.cfi_offset 8, -16
 1238              		.cfi_offset 9, -24
 1239              		.cfi_offset 18, -32
 1240              		.cfi_offset 19, -40
 1241 0770 13040135 		addi	s0,sp,848
 1242              		.cfi_def_cfa 8, 0
 201:src/Tests.cpp ****     Riscv::printString("stressTesting\n");
 1243              		.loc 1 201 5
 1244              		.loc 1 201 23 is_stmt 0
 1245 0774 17050000 		lla	a0,.LC14
 1245      13050500 
 1246 077c 97000000 		call	_ZN5Riscv11printStringEPKc@plt
 1246      E7800000 
 1247              	.LVL136:
 1248              	.LBB29:
 202:src/Tests.cpp ****     constexpr int num = 100;
 203:src/Tests.cpp ****     void* addrs[num];
 204:src/Tests.cpp ****     for(int i = 0; i < num;i++)
 1249              		.loc 1 204 13
 1250 0784 93040000 		li	s1,0
 1251 0788 6F008000 		j	.L77
 1252              	.LVL137:
 1253              	.L75:
 1254              		.loc 1 204 5 is_stmt 1 discriminator 2
 1255 078c 9B841400 		addiw	s1,s1,1
 1256              	.LVL138:
 1257              	.L77:
 1258              		.loc 1 204 22 discriminator 1
 1259 0790 93073006 		li	a5,99
 1260 0794 63C89704 		bgt	s1,a5,.L87
 205:src/Tests.cpp ****     {
 206:src/Tests.cpp ****         addrs[i] = mem_alloc(1);
 1261              		.loc 1 206 9
 1262              		.loc 1 206 29 is_stmt 0
 1263 0798 13051000 		li	a0,1
 1264 079c 97000000 		call	mem_alloc@plt
 1264      E7800000 
 1265              	.LVL139:
 1266              		.loc 1 206 18
 1267 07a4 93973400 		slli	a5,s1,3
 1268 07a8 130704FD 		addi	a4,s0,-48
 1269 07ac B307F700 		add	a5,a4,a5
 1270 07b0 23B0A7CE 		sd	a0,-800(a5)
 207:src/Tests.cpp ****         if(addrs[i] == 0)
 1271              		.loc 1 207 9 is_stmt 1
 1272 07b4 E31C05FC 		bnez	a0,.L75
 208:src/Tests.cpp ****         {
 209:src/Tests.cpp ****             Riscv::printString("not OK\n");
 1273              		.loc 1 209 13
 1274              		.loc 1 209 31 is_stmt 0
 1275 07b8 17050000 		lla	a0,.LC9
 1275      13050500 
 1276 07c0 97000000 		call	_ZN5Riscv11printStringEPKc@plt
 1276      E7800000 
 1277              	.LVL140:
 210:src/Tests.cpp ****             return;
GAS LISTING /tmp/cc0QfAMO.s 			page 31


 1278              		.loc 1 210 13 is_stmt 1
 1279              	.L73:
 1280              	.LBE29:
 211:src/Tests.cpp ****         }
 212:src/Tests.cpp **** 
 213:src/Tests.cpp ****     }
 214:src/Tests.cpp ****     int sz = 5;
 215:src/Tests.cpp ****     while(sz > 0)
 216:src/Tests.cpp ****     {
 217:src/Tests.cpp ****         Riscv::printString("sz : ");
 218:src/Tests.cpp ****         Riscv::printInteger(sz);
 219:src/Tests.cpp ****         for(int i = 0 ; i < num;i+=2)
 220:src/Tests.cpp ****         {
 221:src/Tests.cpp ****             Riscv::printString("i : ");
 222:src/Tests.cpp ****             Riscv::printInteger(i);
 223:src/Tests.cpp ****             Riscv::printString("free\n");
 224:src/Tests.cpp ****             int retval = mem_free(addrs[i]);
 225:src/Tests.cpp ****             if(retval != 0)
 226:src/Tests.cpp ****             {
 227:src/Tests.cpp ****                 Riscv::printString("not OK\n");
 228:src/Tests.cpp ****                 return;
 229:src/Tests.cpp ****             }
 230:src/Tests.cpp ****             Riscv::printString("alloc\n");
 231:src/Tests.cpp ****             addrs[i] = mem_alloc(sz/2);
 232:src/Tests.cpp ****             if(addrs[i] == 0)
 233:src/Tests.cpp ****             {
 234:src/Tests.cpp ****                 Riscv::printString("not Ok\n");
 235:src/Tests.cpp ****                 return;
 236:src/Tests.cpp ****             }
 237:src/Tests.cpp **** 
 238:src/Tests.cpp ****         }
 239:src/Tests.cpp **** 
 240:src/Tests.cpp ****         for(int i = 1 ; i < num;i+=2)
 241:src/Tests.cpp ****         {
 242:src/Tests.cpp ****             Riscv::printString("i : ");
 243:src/Tests.cpp ****             Riscv::printInteger(i);
 244:src/Tests.cpp ****             Riscv::printString("free\n");
 245:src/Tests.cpp ****             int retval = mem_free(addrs[i]);
 246:src/Tests.cpp ****             if(retval != 0)
 247:src/Tests.cpp ****             {
 248:src/Tests.cpp ****                 Riscv::printString("not OK\n");
 249:src/Tests.cpp ****                 return;
 250:src/Tests.cpp ****             }
 251:src/Tests.cpp ****             Riscv::printString("alloc\n");
 252:src/Tests.cpp ****             addrs[i] = mem_alloc(sz);
 253:src/Tests.cpp ****             if(addrs[i] == 0)
 254:src/Tests.cpp ****             {
 255:src/Tests.cpp ****                 Riscv::printString("not Ok\n");
 256:src/Tests.cpp ****                 return;
 257:src/Tests.cpp ****             }
 258:src/Tests.cpp **** 
 259:src/Tests.cpp ****         }
 260:src/Tests.cpp ****         sz-=10;
 261:src/Tests.cpp ****     }
 262:src/Tests.cpp **** 
 263:src/Tests.cpp ****     Riscv::printString("OK\n");
 264:src/Tests.cpp **** }
GAS LISTING /tmp/cc0QfAMO.s 			page 32


 1281              		.loc 1 264 1 is_stmt 0
 1282 07c8 83308134 		ld	ra,840(sp)
 1283              		.cfi_remember_state
 1284              		.cfi_restore 1
 1285 07cc 03340134 		ld	s0,832(sp)
 1286              		.cfi_restore 8
 1287              		.cfi_def_cfa 2, 848
 1288 07d0 83348133 		ld	s1,824(sp)
 1289              		.cfi_restore 9
 1290 07d4 03390133 		ld	s2,816(sp)
 1291              		.cfi_restore 18
 1292 07d8 83398132 		ld	s3,808(sp)
 1293              		.cfi_restore 19
 1294 07dc 13010135 		addi	sp,sp,848
 1295              		.cfi_def_cfa_offset 0
 1296 07e0 67800000 		jr	ra
 1297              	.LVL141:
 1298              	.L87:
 1299              		.cfi_restore_state
 214:src/Tests.cpp ****     while(sz > 0)
 1300              		.loc 1 214 9
 1301 07e4 13095000 		li	s2,5
 1302              	.LVL142:
 1303              	.L74:
 215:src/Tests.cpp ****     {
 1304              		.loc 1 215 5 is_stmt 1
 215:src/Tests.cpp ****     {
 1305              		.loc 1 215 14
 1306 07e8 635E2019 		blez	s2,.L78
 1307              	.LBB30:
 217:src/Tests.cpp ****         Riscv::printInteger(sz);
 1308              		.loc 1 217 9
 217:src/Tests.cpp ****         Riscv::printInteger(sz);
 1309              		.loc 1 217 27 is_stmt 0
 1310 07ec 17050000 		lla	a0,.LC15
 1310      13050500 
 1311 07f4 97000000 		call	_ZN5Riscv11printStringEPKc@plt
 1311      E7800000 
 1312              	.LVL143:
 218:src/Tests.cpp ****         for(int i = 0 ; i < num;i+=2)
 1313              		.loc 1 218 9 is_stmt 1
 218:src/Tests.cpp ****         for(int i = 0 ; i < num;i+=2)
 1314              		.loc 1 218 28 is_stmt 0
 1315 07fc 93090900 		mv	s3,s2
 1316 0800 13050900 		mv	a0,s2
 1317 0804 97000000 		call	_ZN5Riscv12printIntegerEm@plt
 1317      E7800000 
 1318              	.LVL144:
 1319              	.LBB31:
 219:src/Tests.cpp ****         {
 1320              		.loc 1 219 17
 1321 080c 93040000 		li	s1,0
 1322              	.L82:
 1323              	.LVL145:
 219:src/Tests.cpp ****         {
 1324              		.loc 1 219 27 is_stmt 1 discriminator 1
 1325 0810 93073006 		li	a5,99
GAS LISTING /tmp/cc0QfAMO.s 			page 33


 1326 0814 63CA970A 		bgt	s1,a5,.L88
 1327              	.LBB32:
 221:src/Tests.cpp ****             Riscv::printInteger(i);
 1328              		.loc 1 221 13
 221:src/Tests.cpp ****             Riscv::printInteger(i);
 1329              		.loc 1 221 31 is_stmt 0
 1330 0818 17050000 		lla	a0,.LC2
 1330      13050500 
 1331 0820 97000000 		call	_ZN5Riscv11printStringEPKc@plt
 1331      E7800000 
 1332              	.LVL146:
 222:src/Tests.cpp ****             Riscv::printString("free\n");
 1333              		.loc 1 222 13 is_stmt 1
 222:src/Tests.cpp ****             Riscv::printString("free\n");
 1334              		.loc 1 222 32 is_stmt 0
 1335 0828 13850400 		mv	a0,s1
 1336 082c 97000000 		call	_ZN5Riscv12printIntegerEm@plt
 1336      E7800000 
 1337              	.LVL147:
 223:src/Tests.cpp ****             int retval = mem_free(addrs[i]);
 1338              		.loc 1 223 13 is_stmt 1
 223:src/Tests.cpp ****             int retval = mem_free(addrs[i]);
 1339              		.loc 1 223 31 is_stmt 0
 1340 0834 17050000 		lla	a0,.LC16
 1340      13050500 
 1341 083c 97000000 		call	_ZN5Riscv11printStringEPKc@plt
 1341      E7800000 
 1342              	.LVL148:
 224:src/Tests.cpp ****             if(retval != 0)
 1343              		.loc 1 224 13 is_stmt 1
 224:src/Tests.cpp ****             if(retval != 0)
 1344              		.loc 1 224 34 is_stmt 0
 1345 0844 93973400 		slli	a5,s1,3
 1346 0848 130704FD 		addi	a4,s0,-48
 1347 084c B307F700 		add	a5,a4,a5
 1348 0850 03B507CE 		ld	a0,-800(a5)
 1349 0854 97000000 		call	mem_free@plt
 1349      E7800000 
 1350              	.LVL149:
 225:src/Tests.cpp ****             {
 1351              		.loc 1 225 13 is_stmt 1
 1352 085c 63120504 		bnez	a0,.L90
 230:src/Tests.cpp ****             addrs[i] = mem_alloc(sz/2);
 1353              		.loc 1 230 13
 230:src/Tests.cpp ****             addrs[i] = mem_alloc(sz/2);
 1354              		.loc 1 230 31 is_stmt 0
 1355 0860 17050000 		lla	a0,.LC17
 1355      13050500 
 1356              	.LVL150:
 1357 0868 97000000 		call	_ZN5Riscv11printStringEPKc@plt
 1357      E7800000 
 1358              	.LVL151:
 231:src/Tests.cpp ****             if(addrs[i] == 0)
 1359              		.loc 1 231 13 is_stmt 1
 231:src/Tests.cpp ****             if(addrs[i] == 0)
 1360              		.loc 1 231 36 is_stmt 0
 1361 0870 1B55F901 		srliw	a0,s2,31
GAS LISTING /tmp/cc0QfAMO.s 			page 34


 1362 0874 3B052501 		addw	a0,a0,s2
 231:src/Tests.cpp ****             if(addrs[i] == 0)
 1363              		.loc 1 231 33
 1364 0878 1B551540 		sraiw	a0,a0,1
 1365 087c 97000000 		call	mem_alloc@plt
 1365      E7800000 
 1366              	.LVL152:
 231:src/Tests.cpp ****             if(addrs[i] == 0)
 1367              		.loc 1 231 22
 1368 0884 93973400 		slli	a5,s1,3
 1369 0888 130704FD 		addi	a4,s0,-48
 1370 088c B307F700 		add	a5,a4,a5
 1371 0890 23B0A7CE 		sd	a0,-800(a5)
 232:src/Tests.cpp ****             {
 1372              		.loc 1 232 13 is_stmt 1
 1373 0894 63000502 		beqz	a0,.L91
 1374              	.LBE32:
 219:src/Tests.cpp ****         {
 1375              		.loc 1 219 9 discriminator 2
 219:src/Tests.cpp ****         {
 1376              		.loc 1 219 34 is_stmt 0 discriminator 2
 1377 0898 9B842400 		addiw	s1,s1,2
 1378              	.LVL153:
 219:src/Tests.cpp ****         {
 1379              		.loc 1 219 9 discriminator 2
 1380 089c 6FF05FF7 		j	.L82
 1381              	.LVL154:
 1382              	.L90:
 1383              	.LBB33:
 227:src/Tests.cpp ****                 return;
 1384              		.loc 1 227 17 is_stmt 1
 227:src/Tests.cpp ****                 return;
 1385              		.loc 1 227 35 is_stmt 0
 1386 08a0 17050000 		lla	a0,.LC9
 1386      13050500 
 1387              	.LVL155:
 1388 08a8 97000000 		call	_ZN5Riscv11printStringEPKc@plt
 1388      E7800000 
 1389              	.LVL156:
 228:src/Tests.cpp ****             }
 1390              		.loc 1 228 17 is_stmt 1
 1391 08b0 6FF09FF1 		j	.L73
 1392              	.L91:
 234:src/Tests.cpp ****                 return;
 1393              		.loc 1 234 17
 234:src/Tests.cpp ****                 return;
 1394              		.loc 1 234 35 is_stmt 0
 1395 08b4 17050000 		lla	a0,.LC18
 1395      13050500 
 1396 08bc 97000000 		call	_ZN5Riscv11printStringEPKc@plt
 1396      E7800000 
 1397              	.LVL157:
 235:src/Tests.cpp ****             }
 1398              		.loc 1 235 17 is_stmt 1
 1399 08c4 6FF05FF0 		j	.L73
 1400              	.L88:
 1401              	.LBE33:
GAS LISTING /tmp/cc0QfAMO.s 			page 35


 1402              	.LBE31:
 1403              	.LBB34:
 240:src/Tests.cpp ****         {
 1404              		.loc 1 240 17 is_stmt 0
 1405 08c8 93041000 		li	s1,1
 1406              	.LVL158:
 1407              	.L79:
 240:src/Tests.cpp ****         {
 1408              		.loc 1 240 27 is_stmt 1 discriminator 1
 1409 08cc 93073006 		li	a5,99
 1410 08d0 63C6970A 		bgt	s1,a5,.L83
 1411              	.LBB35:
 242:src/Tests.cpp ****             Riscv::printInteger(i);
 1412              		.loc 1 242 13
 242:src/Tests.cpp ****             Riscv::printInteger(i);
 1413              		.loc 1 242 31 is_stmt 0
 1414 08d4 17050000 		lla	a0,.LC2
 1414      13050500 
 1415 08dc 97000000 		call	_ZN5Riscv11printStringEPKc@plt
 1415      E7800000 
 1416              	.LVL159:
 243:src/Tests.cpp ****             Riscv::printString("free\n");
 1417              		.loc 1 243 13 is_stmt 1
 243:src/Tests.cpp ****             Riscv::printString("free\n");
 1418              		.loc 1 243 32 is_stmt 0
 1419 08e4 13850400 		mv	a0,s1
 1420 08e8 97000000 		call	_ZN5Riscv12printIntegerEm@plt
 1420      E7800000 
 1421              	.LVL160:
 244:src/Tests.cpp ****             int retval = mem_free(addrs[i]);
 1422              		.loc 1 244 13 is_stmt 1
 244:src/Tests.cpp ****             int retval = mem_free(addrs[i]);
 1423              		.loc 1 244 31 is_stmt 0
 1424 08f0 17050000 		lla	a0,.LC16
 1424      13050500 
 1425 08f8 97000000 		call	_ZN5Riscv11printStringEPKc@plt
 1425      E7800000 
 1426              	.LVL161:
 245:src/Tests.cpp ****             if(retval != 0)
 1427              		.loc 1 245 13 is_stmt 1
 245:src/Tests.cpp ****             if(retval != 0)
 1428              		.loc 1 245 34 is_stmt 0
 1429 0900 93973400 		slli	a5,s1,3
 1430 0904 130704FD 		addi	a4,s0,-48
 1431 0908 B307F700 		add	a5,a4,a5
 1432 090c 03B507CE 		ld	a0,-800(a5)
 1433 0910 97000000 		call	mem_free@plt
 1433      E7800000 
 1434              	.LVL162:
 246:src/Tests.cpp ****             {
 1435              		.loc 1 246 13 is_stmt 1
 1436 0918 631E0502 		bnez	a0,.L92
 251:src/Tests.cpp ****             addrs[i] = mem_alloc(sz);
 1437              		.loc 1 251 13
 251:src/Tests.cpp ****             addrs[i] = mem_alloc(sz);
 1438              		.loc 1 251 31 is_stmt 0
 1439 091c 17050000 		lla	a0,.LC17
GAS LISTING /tmp/cc0QfAMO.s 			page 36


 1439      13050500 
 1440              	.LVL163:
 1441 0924 97000000 		call	_ZN5Riscv11printStringEPKc@plt
 1441      E7800000 
 1442              	.LVL164:
 252:src/Tests.cpp ****             if(addrs[i] == 0)
 1443              		.loc 1 252 13 is_stmt 1
 252:src/Tests.cpp ****             if(addrs[i] == 0)
 1444              		.loc 1 252 33 is_stmt 0
 1445 092c 13850900 		mv	a0,s3
 1446 0930 97000000 		call	mem_alloc@plt
 1446      E7800000 
 1447              	.LVL165:
 252:src/Tests.cpp ****             if(addrs[i] == 0)
 1448              		.loc 1 252 22
 1449 0938 93973400 		slli	a5,s1,3
 1450 093c 130704FD 		addi	a4,s0,-48
 1451 0940 B307F700 		add	a5,a4,a5
 1452 0944 23B0A7CE 		sd	a0,-800(a5)
 253:src/Tests.cpp ****             {
 1453              		.loc 1 253 13 is_stmt 1
 1454 0948 63000502 		beqz	a0,.L93
 1455              	.LBE35:
 240:src/Tests.cpp ****         {
 1456              		.loc 1 240 9 discriminator 2
 240:src/Tests.cpp ****         {
 1457              		.loc 1 240 34 is_stmt 0 discriminator 2
 1458 094c 9B842400 		addiw	s1,s1,2
 1459              	.LVL166:
 240:src/Tests.cpp ****         {
 1460              		.loc 1 240 9 discriminator 2
 1461 0950 6FF0DFF7 		j	.L79
 1462              	.LVL167:
 1463              	.L92:
 1464              	.LBB36:
 248:src/Tests.cpp ****                 return;
 1465              		.loc 1 248 17 is_stmt 1
 248:src/Tests.cpp ****                 return;
 1466              		.loc 1 248 35 is_stmt 0
 1467 0954 17050000 		lla	a0,.LC9
 1467      13050500 
 1468              	.LVL168:
 1469 095c 97000000 		call	_ZN5Riscv11printStringEPKc@plt
 1469      E7800000 
 1470              	.LVL169:
 249:src/Tests.cpp ****             }
 1471              		.loc 1 249 17 is_stmt 1
 1472 0964 6FF05FE6 		j	.L73
 1473              	.L93:
 255:src/Tests.cpp ****                 return;
 1474              		.loc 1 255 17
 255:src/Tests.cpp ****                 return;
 1475              		.loc 1 255 35 is_stmt 0
 1476 0968 17050000 		lla	a0,.LC18
 1476      13050500 
 1477 0970 97000000 		call	_ZN5Riscv11printStringEPKc@plt
 1477      E7800000 
GAS LISTING /tmp/cc0QfAMO.s 			page 37


 1478              	.LVL170:
 256:src/Tests.cpp ****             }
 1479              		.loc 1 256 17 is_stmt 1
 1480 0978 6FF01FE5 		j	.L73
 1481              	.L83:
 1482              	.LBE36:
 1483              	.LBE34:
 260:src/Tests.cpp ****     }
 1484              		.loc 1 260 9
 260:src/Tests.cpp ****     }
 1485              		.loc 1 260 11 is_stmt 0
 1486 097c 1B0969FF 		addiw	s2,s2,-10
 1487              	.LVL171:
 1488              	.LBE30:
 215:src/Tests.cpp ****     {
 1489              		.loc 1 215 5
 1490 0980 6FF09FE6 		j	.L74
 1491              	.LVL172:
 1492              	.L78:
 263:src/Tests.cpp **** }
 1493              		.loc 1 263 5 is_stmt 1
 263:src/Tests.cpp **** }
 1494              		.loc 1 263 23 is_stmt 0
 1495 0984 17050000 		lla	a0,.LC10
 1495      13050500 
 1496 098c 97000000 		call	_ZN5Riscv11printStringEPKc@plt
 1496      E7800000 
 1497              	.LVL173:
 1498 0994 6FF05FE3 		j	.L73
 1499              		.cfi_endproc
 1500              	.LFE32:
 1502              		.align	2
 1503              		.globl	_Z21memoryAllocationTestsv
 1505              	_Z21memoryAllocationTestsv:
 1506              	.LFB33:
 265:src/Tests.cpp **** 
 266:src/Tests.cpp **** void memoryAllocationTests()
 267:src/Tests.cpp **** {
 1507              		.loc 1 267 1 is_stmt 1
 1508              		.cfi_startproc
 1509 0998 130101FF 		addi	sp,sp,-16
 1510              		.cfi_def_cfa_offset 16
 1511 099c 23341100 		sd	ra,8(sp)
 1512 09a0 23308100 		sd	s0,0(sp)
 1513              		.cfi_offset 1, -8
 1514              		.cfi_offset 8, -16
 1515 09a4 13040101 		addi	s0,sp,16
 1516              		.cfi_def_cfa 8, 0
 268:src/Tests.cpp ****     //bigMalloc();
 269:src/Tests.cpp ****     //lotOfSmallMallocs();
 270:src/Tests.cpp ****     //mallocFree();
 271:src/Tests.cpp ****     //badFree();
 272:src/Tests.cpp ****     stressTesting();
 1517              		.loc 1 272 5
 1518              		.loc 1 272 18 is_stmt 0
 1519 09a8 97000000 		call	_Z13stressTestingv
 1519      E7800000 
GAS LISTING /tmp/cc0QfAMO.s 			page 38


 1520              	.LVL174:
 273:src/Tests.cpp **** }
 1521              		.loc 1 273 1
 1522 09b0 83308100 		ld	ra,8(sp)
 1523              		.cfi_restore 1
 1524 09b4 03340100 		ld	s0,0(sp)
 1525              		.cfi_restore 8
 1526              		.cfi_def_cfa 2, 16
 1527 09b8 13010101 		addi	sp,sp,16
 1528              		.cfi_def_cfa_offset 0
 1529 09bc 67800000 		jr	ra
 1530              		.cfi_endproc
 1531              	.LFE33:
 1533              	.Letext0:
 1534              		.file 3 "src/../h/../lib/hw.h"
 1535              		.file 4 "src/../h/Riscv.hpp"
 1536              		.file 5 "src/../h/syscall_cpp.hpp"
 1537              		.file 6 "src/../h/Tests.hpp"
 1538              		.file 7 "src/../h/syscall_c.h"
 5993              		.align	3
 5996              	DW.ref.__gxx_personality_v0:
 5997 0000 00000000 		.dword	__gxx_personality_v0
 5997      00000000 
 5998              		.ident	"GCC: (Ubuntu 9.3.0-17ubuntu1~20.04) 9.3.0"
 5999              		.section	.note.GNU-stack,"",@progbits
GAS LISTING /tmp/cc0QfAMO.s 			page 39


DEFINED SYMBOLS
                            *ABS*:0000000000000000 Tests.cpp
     /tmp/cc0QfAMO.s:14     .text:0000000000000000 _Z4idlePv
     /tmp/cc0QfAMO.s:18     .text:0000000000000000 .L0 
     /tmp/cc0QfAMO.s:20     .text:0000000000000000 .L0 
     /tmp/cc0QfAMO.s:21     .text:0000000000000004 .L0 
     /tmp/cc0QfAMO.s:24     .text:000000000000000c .L0 
     /tmp/cc0QfAMO.s:25     .text:000000000000000c .L0 
     /tmp/cc0QfAMO.s:27     .text:0000000000000010 .L0 
     /tmp/cc0QfAMO.s:31     .text:0000000000000010 .L0 
     /tmp/cc0QfAMO.s:32     .text:0000000000000010 .L0 
     /tmp/cc0QfAMO.s:33     .text:0000000000000010 .L0 
     /tmp/cc0QfAMO.s:37     .text:0000000000000020 .L0 
     /tmp/cc0QfAMO.s:38     .text:0000000000000020 .L0 
     /tmp/cc0QfAMO.s:41     .text:0000000000000028 .L0 
     /tmp/cc0QfAMO.s:42     .text:000000000000002c .L0 
     /tmp/cc0QfAMO.s:59     .text:000000000000002c _Z15thread1FunctionPv
     /tmp/cc0QfAMO.s:62     .text:000000000000002c .L0 
     /tmp/cc0QfAMO.s:64     .text:000000000000002c .L0 
     /tmp/cc0QfAMO.s:65     .text:0000000000000030 .L0 
     /tmp/cc0QfAMO.s:69     .text:000000000000003c .L0 
     /tmp/cc0QfAMO.s:70     .text:000000000000003c .L0 
     /tmp/cc0QfAMO.s:71     .text:000000000000003c .L0 
     /tmp/cc0QfAMO.s:73     .text:0000000000000040 .L0 
     /tmp/cc0QfAMO.s:75     .text:0000000000000040 .L0 
     /tmp/cc0QfAMO.s:76     .text:0000000000000040 .L0 
     /tmp/cc0QfAMO.s:81     .text:0000000000000050 .L0 
     /tmp/cc0QfAMO.s:83     .text:0000000000000050 .L0 
     /tmp/cc0QfAMO.s:84     .text:0000000000000050 .L0 
     /tmp/cc0QfAMO.s:88     .text:0000000000000054 .L0 
     /tmp/cc0QfAMO.s:92     .text:0000000000000060 .L0 
     /tmp/cc0QfAMO.s:93     .text:0000000000000060 .L0 
     /tmp/cc0QfAMO.s:97     .text:0000000000000070 .L0 
     /tmp/cc0QfAMO.s:98     .text:0000000000000070 .L0 
     /tmp/cc0QfAMO.s:102    .text:000000000000007c .L0 
     /tmp/cc0QfAMO.s:103    .text:000000000000007c .L0 
     /tmp/cc0QfAMO.s:107    .text:000000000000008c .L0 
     /tmp/cc0QfAMO.s:113    .text:0000000000000094 .L0 
     /tmp/cc0QfAMO.s:114    .text:0000000000000098 .L0 
     /tmp/cc0QfAMO.s:116    .text:000000000000009c .L0 
     /tmp/cc0QfAMO.s:117    .text:000000000000009c .L0 
     /tmp/cc0QfAMO.s:119    .text:00000000000000a0 .L0 
     /tmp/cc0QfAMO.s:122    .text:00000000000000a4 .L0 
     /tmp/cc0QfAMO.s:124    .text:00000000000000a8 .L0 
     /tmp/cc0QfAMO.s:138    .text:00000000000000a8 _Z15thread2FunctionPv
     /tmp/cc0QfAMO.s:141    .text:00000000000000a8 .L0 
     /tmp/cc0QfAMO.s:143    .text:00000000000000a8 .L0 
     /tmp/cc0QfAMO.s:144    .text:00000000000000ac .L0 
     /tmp/cc0QfAMO.s:148    .text:00000000000000b8 .L0 
     /tmp/cc0QfAMO.s:149    .text:00000000000000b8 .L0 
     /tmp/cc0QfAMO.s:150    .text:00000000000000b8 .L0 
     /tmp/cc0QfAMO.s:152    .text:00000000000000bc .L0 
     /tmp/cc0QfAMO.s:154    .text:00000000000000bc .L0 
     /tmp/cc0QfAMO.s:155    .text:00000000000000bc .L0 
     /tmp/cc0QfAMO.s:160    .text:00000000000000cc .L0 
     /tmp/cc0QfAMO.s:162    .text:00000000000000cc .L0 
     /tmp/cc0QfAMO.s:163    .text:00000000000000cc .L0 
GAS LISTING /tmp/cc0QfAMO.s 			page 40


     /tmp/cc0QfAMO.s:167    .text:00000000000000d0 .L0 
     /tmp/cc0QfAMO.s:171    .text:00000000000000dc .L0 
     /tmp/cc0QfAMO.s:172    .text:00000000000000dc .L0 
     /tmp/cc0QfAMO.s:176    .text:00000000000000ec .L0 
     /tmp/cc0QfAMO.s:177    .text:00000000000000ec .L0 
     /tmp/cc0QfAMO.s:181    .text:00000000000000f8 .L0 
     /tmp/cc0QfAMO.s:182    .text:00000000000000f8 .L0 
     /tmp/cc0QfAMO.s:186    .text:0000000000000108 .L0 
     /tmp/cc0QfAMO.s:192    .text:0000000000000110 .L0 
     /tmp/cc0QfAMO.s:193    .text:0000000000000114 .L0 
     /tmp/cc0QfAMO.s:195    .text:0000000000000118 .L0 
     /tmp/cc0QfAMO.s:196    .text:0000000000000118 .L0 
     /tmp/cc0QfAMO.s:198    .text:000000000000011c .L0 
     /tmp/cc0QfAMO.s:201    .text:0000000000000120 .L0 
     /tmp/cc0QfAMO.s:203    .text:0000000000000124 .L0 
     /tmp/cc0QfAMO.s:209    .text:0000000000000124 _Z20thread2FunctionTest2Pv
     /tmp/cc0QfAMO.s:212    .text:0000000000000124 .L0 
     /tmp/cc0QfAMO.s:214    .text:0000000000000124 .L0 
     /tmp/cc0QfAMO.s:215    .text:0000000000000128 .L0 
     /tmp/cc0QfAMO.s:219    .text:0000000000000134 .L0 
     /tmp/cc0QfAMO.s:220    .text:0000000000000134 .L0 
     /tmp/cc0QfAMO.s:221    .text:0000000000000134 .L0 
     /tmp/cc0QfAMO.s:223    .text:0000000000000138 .L0 
     /tmp/cc0QfAMO.s:225    .text:0000000000000138 .L0 
     /tmp/cc0QfAMO.s:226    .text:0000000000000138 .L0 
     /tmp/cc0QfAMO.s:231    .text:0000000000000148 .L0 
     /tmp/cc0QfAMO.s:233    .text:0000000000000148 .L0 
     /tmp/cc0QfAMO.s:234    .text:0000000000000148 .L0 
     /tmp/cc0QfAMO.s:238    .text:000000000000014c .L0 
     /tmp/cc0QfAMO.s:242    .text:0000000000000158 .L0 
     /tmp/cc0QfAMO.s:243    .text:0000000000000158 .L0 
     /tmp/cc0QfAMO.s:247    .text:0000000000000168 .L0 
     /tmp/cc0QfAMO.s:248    .text:0000000000000168 .L0 
     /tmp/cc0QfAMO.s:252    .text:0000000000000174 .L0 
     /tmp/cc0QfAMO.s:253    .text:0000000000000174 .L0 
     /tmp/cc0QfAMO.s:257    .text:0000000000000184 .L0 
     /tmp/cc0QfAMO.s:263    .text:000000000000018c .L0 
     /tmp/cc0QfAMO.s:264    .text:0000000000000190 .L0 
     /tmp/cc0QfAMO.s:266    .text:0000000000000194 .L0 
     /tmp/cc0QfAMO.s:267    .text:0000000000000194 .L0 
     /tmp/cc0QfAMO.s:269    .text:0000000000000198 .L0 
     /tmp/cc0QfAMO.s:272    .text:000000000000019c .L0 
     /tmp/cc0QfAMO.s:274    .text:00000000000001a0 .L0 
     /tmp/cc0QfAMO.s:288    .text:00000000000001a0 _Z11threadTest1v
     /tmp/cc0QfAMO.s:291    .text:00000000000001a0 .L0 
     /tmp/cc0QfAMO.s:5996   .data.rel.local.DW.ref.__gxx_personality_v0:0000000000000000 DW.ref.__gxx_personality_v0
     /tmp/cc0QfAMO.s:294    .text:00000000000001a0 .L0 
     /tmp/cc0QfAMO.s:295    .text:00000000000001a4 .L0 
     /tmp/cc0QfAMO.s:300    .text:00000000000001b4 .L0 
     /tmp/cc0QfAMO.s:301    .text:00000000000001b4 .L0 
     /tmp/cc0QfAMO.s:302    .text:00000000000001b4 .L0 
     /tmp/cc0QfAMO.s:303    .text:00000000000001b4 .L0 
     /tmp/cc0QfAMO.s:305    .text:00000000000001b8 .L0 
     /tmp/cc0QfAMO.s:307    .text:00000000000001b8 .L0 
     /tmp/cc0QfAMO.s:308    .text:00000000000001b8 .L0 
     /tmp/cc0QfAMO.s:321    .text:00000000000001dc .L0 
     /tmp/cc0QfAMO.s:322    .text:00000000000001dc .L0 
GAS LISTING /tmp/cc0QfAMO.s 			page 41


     /tmp/cc0QfAMO.s:327    .text:00000000000001e8 .L0 
     /tmp/cc0QfAMO.s:328    .text:00000000000001e8 .L0 
     /tmp/cc0QfAMO.s:340    .text:000000000000020c .L0 
     /tmp/cc0QfAMO.s:341    .text:000000000000020c .L0 
     /tmp/cc0QfAMO.s:346    .text:0000000000000218 .L0 
     /tmp/cc0QfAMO.s:347    .text:0000000000000218 .L0 
     /tmp/cc0QfAMO.s:352    .text:0000000000000224 .L0 
     /tmp/cc0QfAMO.s:353    .text:0000000000000224 .L0 
     /tmp/cc0QfAMO.s:357    .text:0000000000000234 .L0 
     /tmp/cc0QfAMO.s:358    .text:0000000000000234 .L0 
     /tmp/cc0QfAMO.s:362    .text:000000000000023c .L0 
     /tmp/cc0QfAMO.s:363    .text:000000000000023c .L0 
     /tmp/cc0QfAMO.s:364    .text:000000000000023c .L0 
     /tmp/cc0QfAMO.s:370    .text:0000000000000240 .L0 
     /tmp/cc0QfAMO.s:371    .text:0000000000000240 .L0 
     /tmp/cc0QfAMO.s:376    .text:0000000000000244 .L0 
     /tmp/cc0QfAMO.s:379    .text:000000000000024c .L0 
     /tmp/cc0QfAMO.s:384    .text:0000000000000250 .L0 
     /tmp/cc0QfAMO.s:385    .text:0000000000000250 .L0 
     /tmp/cc0QfAMO.s:390    .text:0000000000000254 .L0 
     /tmp/cc0QfAMO.s:393    .text:000000000000025c .L0 
     /tmp/cc0QfAMO.s:394    .text:000000000000025c .L0 
     /tmp/cc0QfAMO.s:398    .text:000000000000026c .L0 
     /tmp/cc0QfAMO.s:399    .text:000000000000026c .L0 
     /tmp/cc0QfAMO.s:403    .text:0000000000000274 .L0 
     /tmp/cc0QfAMO.s:404    .text:0000000000000278 .L0 
     /tmp/cc0QfAMO.s:405    .text:0000000000000278 .L0 
     /tmp/cc0QfAMO.s:407    .text:000000000000027c .L0 
     /tmp/cc0QfAMO.s:408    .text:000000000000027c .L0 
     /tmp/cc0QfAMO.s:410    .text:0000000000000280 .L0 
     /tmp/cc0QfAMO.s:413    .text:0000000000000284 .L0 
     /tmp/cc0QfAMO.s:416    .text:0000000000000288 .L0 
     /tmp/cc0QfAMO.s:419    .text:000000000000028c .L0 
     /tmp/cc0QfAMO.s:422    .text:0000000000000290 .L0 
     /tmp/cc0QfAMO.s:434    .text:00000000000002ac .L0 
     /tmp/cc0QfAMO.s:442    .text:00000000000002c4 .L0 
     /tmp/cc0QfAMO.s:484    .text:00000000000002c4 _Z11threadTest2v
     /tmp/cc0QfAMO.s:487    .text:00000000000002c4 .L0 
     /tmp/cc0QfAMO.s:490    .text:00000000000002c4 .L0 
     /tmp/cc0QfAMO.s:491    .text:00000000000002c8 .L0 
     /tmp/cc0QfAMO.s:496    .text:00000000000002d8 .L0 
     /tmp/cc0QfAMO.s:497    .text:00000000000002d8 .L0 
     /tmp/cc0QfAMO.s:498    .text:00000000000002d8 .L0 
     /tmp/cc0QfAMO.s:499    .text:00000000000002d8 .L0 
     /tmp/cc0QfAMO.s:501    .text:00000000000002dc .L0 
     /tmp/cc0QfAMO.s:503    .text:00000000000002dc .L0 
     /tmp/cc0QfAMO.s:504    .text:00000000000002dc .L0 
     /tmp/cc0QfAMO.s:517    .text:0000000000000300 .L0 
     /tmp/cc0QfAMO.s:518    .text:0000000000000300 .L0 
     /tmp/cc0QfAMO.s:523    .text:000000000000030c .L0 
     /tmp/cc0QfAMO.s:524    .text:000000000000030c .L0 
     /tmp/cc0QfAMO.s:536    .text:0000000000000330 .L0 
     /tmp/cc0QfAMO.s:537    .text:0000000000000330 .L0 
     /tmp/cc0QfAMO.s:542    .text:000000000000033c .L0 
     /tmp/cc0QfAMO.s:543    .text:000000000000033c .L0 
     /tmp/cc0QfAMO.s:556    .text:0000000000000360 .L0 
     /tmp/cc0QfAMO.s:557    .text:0000000000000360 .L0 
GAS LISTING /tmp/cc0QfAMO.s 			page 42


     /tmp/cc0QfAMO.s:562    .text:000000000000036c .L0 
     /tmp/cc0QfAMO.s:563    .text:000000000000036c .L0 
     /tmp/cc0QfAMO.s:567    .text:0000000000000374 .L0 
     /tmp/cc0QfAMO.s:568    .text:0000000000000374 .L0 
     /tmp/cc0QfAMO.s:569    .text:0000000000000374 .L0 
     /tmp/cc0QfAMO.s:574    .text:0000000000000378 .L0 
     /tmp/cc0QfAMO.s:575    .text:0000000000000378 .L0 
     /tmp/cc0QfAMO.s:580    .text:000000000000037c .L0 
     /tmp/cc0QfAMO.s:583    .text:0000000000000384 .L0 
     /tmp/cc0QfAMO.s:584    .text:0000000000000384 .L0 
     /tmp/cc0QfAMO.s:588    .text:0000000000000394 .L0 
     /tmp/cc0QfAMO.s:589    .text:0000000000000394 .L0 
     /tmp/cc0QfAMO.s:593    .text:000000000000039c .L0 
     /tmp/cc0QfAMO.s:594    .text:00000000000003a0 .L0 
     /tmp/cc0QfAMO.s:595    .text:00000000000003a0 .L0 
     /tmp/cc0QfAMO.s:597    .text:00000000000003a4 .L0 
     /tmp/cc0QfAMO.s:598    .text:00000000000003a4 .L0 
     /tmp/cc0QfAMO.s:600    .text:00000000000003a8 .L0 
     /tmp/cc0QfAMO.s:603    .text:00000000000003ac .L0 
     /tmp/cc0QfAMO.s:606    .text:00000000000003b0 .L0 
     /tmp/cc0QfAMO.s:609    .text:00000000000003b4 .L0 
     /tmp/cc0QfAMO.s:612    .text:00000000000003b8 .L0 
     /tmp/cc0QfAMO.s:624    .text:00000000000003d4 .L0 
     /tmp/cc0QfAMO.s:636    .text:00000000000003f0 .L0 
     /tmp/cc0QfAMO.s:644    .text:0000000000000408 .L0 
     /tmp/cc0QfAMO.s:697    .text:0000000000000408 _Z11threadTestsv
     /tmp/cc0QfAMO.s:700    .text:0000000000000408 .L0 
     /tmp/cc0QfAMO.s:701    .text:0000000000000408 .L0 
     /tmp/cc0QfAMO.s:702    .text:000000000000040c .L0 
     /tmp/cc0QfAMO.s:705    .text:0000000000000414 .L0 
     /tmp/cc0QfAMO.s:706    .text:0000000000000414 .L0 
     /tmp/cc0QfAMO.s:708    .text:0000000000000418 .L0 
     /tmp/cc0QfAMO.s:710    .text:0000000000000418 .L0 
     /tmp/cc0QfAMO.s:711    .text:0000000000000418 .L0 
     /tmp/cc0QfAMO.s:714    .text:0000000000000420 .L0 
     /tmp/cc0QfAMO.s:715    .text:0000000000000424 .L0 
     /tmp/cc0QfAMO.s:717    .text:0000000000000428 .L0 
     /tmp/cc0QfAMO.s:718    .text:0000000000000428 .L0 
     /tmp/cc0QfAMO.s:720    .text:000000000000042c .L0 
     /tmp/cc0QfAMO.s:722    .text:0000000000000430 .L0 
     /tmp/cc0QfAMO.s:739    .text:0000000000000430 _Z10mallocFreev
     /tmp/cc0QfAMO.s:742    .text:0000000000000430 .L0 
     /tmp/cc0QfAMO.s:743    .text:0000000000000430 .L0 
     /tmp/cc0QfAMO.s:744    .text:0000000000000434 .L0 
     /tmp/cc0QfAMO.s:748    .text:0000000000000440 .L0 
     /tmp/cc0QfAMO.s:749    .text:0000000000000440 .L0 
     /tmp/cc0QfAMO.s:750    .text:0000000000000440 .L0 
     /tmp/cc0QfAMO.s:752    .text:0000000000000444 .L0 
     /tmp/cc0QfAMO.s:754    .text:0000000000000444 .L0 
     /tmp/cc0QfAMO.s:755    .text:0000000000000444 .L0 
     /tmp/cc0QfAMO.s:760    .text:0000000000000454 .L0 
     /tmp/cc0QfAMO.s:765    .text:000000000000045c .L0 
     /tmp/cc0QfAMO.s:769    .text:0000000000000460 .L0 
     /tmp/cc0QfAMO.s:772    .text:0000000000000468 .L0 
     /tmp/cc0QfAMO.s:773    .text:0000000000000468 .L0 
     /tmp/cc0QfAMO.s:777    .text:0000000000000474 .L0 
     /tmp/cc0QfAMO.s:782    .text:0000000000000484 .L0 
GAS LISTING /tmp/cc0QfAMO.s 			page 43


     /tmp/cc0QfAMO.s:784    .text:0000000000000488 .L0 
     /tmp/cc0QfAMO.s:785    .text:0000000000000488 .L0 
     /tmp/cc0QfAMO.s:791    .text:0000000000000498 .L0 
     /tmp/cc0QfAMO.s:792    .text:0000000000000498 .L0 
     /tmp/cc0QfAMO.s:793    .text:000000000000049c .L0 
     /tmp/cc0QfAMO.s:794    .text:000000000000049c .L0 
     /tmp/cc0QfAMO.s:796    .text:00000000000004a0 .L0 
     /tmp/cc0QfAMO.s:797    .text:00000000000004a0 .L0 
     /tmp/cc0QfAMO.s:799    .text:00000000000004a4 .L0 
     /tmp/cc0QfAMO.s:801    .text:00000000000004a8 .L0 
     /tmp/cc0QfAMO.s:805    .text:00000000000004ac .L0 
     /tmp/cc0QfAMO.s:808    .text:00000000000004ac .L0 
     /tmp/cc0QfAMO.s:812    .text:00000000000004b0 .L0 
     /tmp/cc0QfAMO.s:816    .text:00000000000004b8 .L0 
     /tmp/cc0QfAMO.s:817    .text:00000000000004b8 .L0 
     /tmp/cc0QfAMO.s:824    .text:00000000000004d0 .L0 
     /tmp/cc0QfAMO.s:827    .text:00000000000004d4 .L0 
     /tmp/cc0QfAMO.s:828    .text:00000000000004d4 .L0 
     /tmp/cc0QfAMO.s:831    .text:00000000000004d8 .L0 
     /tmp/cc0QfAMO.s:836    .text:00000000000004dc .L0 
     /tmp/cc0QfAMO.s:837    .text:00000000000004dc .L0 
     /tmp/cc0QfAMO.s:842    .text:00000000000004ec .L0 
     /tmp/cc0QfAMO.s:848    .text:00000000000004f0 .L0 
     /tmp/cc0QfAMO.s:854    .text:00000000000004f8 .L0 
     /tmp/cc0QfAMO.s:855    .text:00000000000004f8 .L0 
     /tmp/cc0QfAMO.s:859    .text:00000000000004fc .L0 
     /tmp/cc0QfAMO.s:862    .text:0000000000000504 .L0 
     /tmp/cc0QfAMO.s:863    .text:0000000000000504 .L0 
     /tmp/cc0QfAMO.s:867    .text:0000000000000510 .L0 
     /tmp/cc0QfAMO.s:872    .text:0000000000000520 .L0 
     /tmp/cc0QfAMO.s:874    .text:0000000000000524 .L0 
     /tmp/cc0QfAMO.s:875    .text:0000000000000524 .L0 
     /tmp/cc0QfAMO.s:879    .text:0000000000000534 .L0 
     /tmp/cc0QfAMO.s:884    .text:0000000000000538 .L0 
     /tmp/cc0QfAMO.s:888    .text:000000000000053c .L0 
     /tmp/cc0QfAMO.s:892    .text:0000000000000544 .L0 
     /tmp/cc0QfAMO.s:893    .text:0000000000000544 .L0 
     /tmp/cc0QfAMO.s:900    .text:000000000000055c .L0 
     /tmp/cc0QfAMO.s:903    .text:0000000000000560 .L0 
     /tmp/cc0QfAMO.s:910    .text:0000000000000568 .L0 
     /tmp/cc0QfAMO.s:911    .text:0000000000000568 .L0 
     /tmp/cc0QfAMO.s:916    .text:0000000000000578 .L0 
     /tmp/cc0QfAMO.s:921    .text:000000000000057c .L0 
     /tmp/cc0QfAMO.s:922    .text:000000000000057c .L0 
     /tmp/cc0QfAMO.s:926    .text:0000000000000590 .L0 
     /tmp/cc0QfAMO.s:937    .text:0000000000000590 _Z9bigMallocv
     /tmp/cc0QfAMO.s:940    .text:0000000000000590 .L0 
     /tmp/cc0QfAMO.s:941    .text:0000000000000590 .L0 
     /tmp/cc0QfAMO.s:942    .text:0000000000000594 .L0 
     /tmp/cc0QfAMO.s:945    .text:000000000000059c .L0 
     /tmp/cc0QfAMO.s:946    .text:000000000000059c .L0 
     /tmp/cc0QfAMO.s:948    .text:00000000000005a0 .L0 
     /tmp/cc0QfAMO.s:950    .text:00000000000005a0 .L0 
     /tmp/cc0QfAMO.s:951    .text:00000000000005a0 .L0 
     /tmp/cc0QfAMO.s:955    .text:00000000000005b0 .L0 
     /tmp/cc0QfAMO.s:956    .text:00000000000005b0 .L0 
     /tmp/cc0QfAMO.s:963    .text:00000000000005cc .L0 
GAS LISTING /tmp/cc0QfAMO.s 			page 44


     /tmp/cc0QfAMO.s:964    .text:00000000000005cc .L0 
     /tmp/cc0QfAMO.s:969    .text:00000000000005d8 .L0 
     /tmp/cc0QfAMO.s:971    .text:00000000000005dc .L0 
     /tmp/cc0QfAMO.s:972    .text:00000000000005dc .L0 
     /tmp/cc0QfAMO.s:978    .text:00000000000005ec .L0 
     /tmp/cc0QfAMO.s:979    .text:00000000000005f0 .L0 
     /tmp/cc0QfAMO.s:980    .text:00000000000005f0 .L0 
     /tmp/cc0QfAMO.s:982    .text:00000000000005f4 .L0 
     /tmp/cc0QfAMO.s:983    .text:00000000000005f4 .L0 
     /tmp/cc0QfAMO.s:985    .text:00000000000005f8 .L0 
     /tmp/cc0QfAMO.s:989    .text:00000000000005fc .L0 
     /tmp/cc0QfAMO.s:991    .text:00000000000005fc .L0 
     /tmp/cc0QfAMO.s:992    .text:00000000000005fc .L0 
     /tmp/cc0QfAMO.s:997    .text:0000000000000610 .L0 
     /tmp/cc0QfAMO.s:1008   .text:0000000000000610 _Z17lotOfSmallMallocsv
     /tmp/cc0QfAMO.s:1011   .text:0000000000000610 .L0 
     /tmp/cc0QfAMO.s:1012   .text:0000000000000610 .L0 
     /tmp/cc0QfAMO.s:1013   .text:0000000000000614 .L0 
     /tmp/cc0QfAMO.s:1019   .text:0000000000000628 .L0 
     /tmp/cc0QfAMO.s:1020   .text:0000000000000628 .L0 
     /tmp/cc0QfAMO.s:1021   .text:0000000000000628 .L0 
     /tmp/cc0QfAMO.s:1022   .text:0000000000000628 .L0 
     /tmp/cc0QfAMO.s:1023   .text:0000000000000628 .L0 
     /tmp/cc0QfAMO.s:1025   .text:000000000000062c .L0 
     /tmp/cc0QfAMO.s:1027   .text:000000000000062c .L0 
     /tmp/cc0QfAMO.s:1028   .text:000000000000062c .L0 
     /tmp/cc0QfAMO.s:1032   .text:000000000000063c .L0 
     /tmp/cc0QfAMO.s:1033   .text:000000000000063c .L0 
     /tmp/cc0QfAMO.s:1034   .text:000000000000063c .L0 
     /tmp/cc0QfAMO.s:1035   .text:000000000000063c .L0 
     /tmp/cc0QfAMO.s:1037   .text:000000000000063c .L0 
     /tmp/cc0QfAMO.s:1038   .text:000000000000063c .L0 
     /tmp/cc0QfAMO.s:1041   .text:0000000000000640 .L0 
     /tmp/cc0QfAMO.s:1043   .text:0000000000000644 .L0 
     /tmp/cc0QfAMO.s:1050   .text:000000000000064c .L0 
     /tmp/cc0QfAMO.s:1051   .text:000000000000064c .L0 
     /tmp/cc0QfAMO.s:1054   .text:0000000000000654 .L0 
     /tmp/cc0QfAMO.s:1055   .text:0000000000000654 .L0 
     /tmp/cc0QfAMO.s:1058   .text:0000000000000658 .L0 
     /tmp/cc0QfAMO.s:1059   .text:0000000000000658 .L0 
     /tmp/cc0QfAMO.s:1063   .text:000000000000065c .L0 
     /tmp/cc0QfAMO.s:1067   .text:0000000000000660 .L0 
     /tmp/cc0QfAMO.s:1072   .text:000000000000066c .L0 
     /tmp/cc0QfAMO.s:1073   .text:000000000000066c .L0 
     /tmp/cc0QfAMO.s:1077   .text:0000000000000678 .L0 
     /tmp/cc0QfAMO.s:1083   .text:000000000000067c .L0 
     /tmp/cc0QfAMO.s:1084   .text:000000000000067c .L0 
     /tmp/cc0QfAMO.s:1088   .text:0000000000000688 .L0 
     /tmp/cc0QfAMO.s:1089   .text:0000000000000688 .L0 
     /tmp/cc0QfAMO.s:1093   .text:0000000000000698 .L0 
     /tmp/cc0QfAMO.s:1094   .text:0000000000000698 .L0 
     /tmp/cc0QfAMO.s:1099   .text:00000000000006a4 .L0 
     /tmp/cc0QfAMO.s:1101   .text:00000000000006a8 .L0 
     /tmp/cc0QfAMO.s:1102   .text:00000000000006a8 .L0 
     /tmp/cc0QfAMO.s:1107   .text:00000000000006b8 .L0 
     /tmp/cc0QfAMO.s:1108   .text:00000000000006bc .L0 
     /tmp/cc0QfAMO.s:1109   .text:00000000000006bc .L0 
GAS LISTING /tmp/cc0QfAMO.s 			page 45


     /tmp/cc0QfAMO.s:1111   .text:00000000000006c0 .L0 
     /tmp/cc0QfAMO.s:1112   .text:00000000000006c0 .L0 
     /tmp/cc0QfAMO.s:1114   .text:00000000000006c4 .L0 
     /tmp/cc0QfAMO.s:1117   .text:00000000000006c8 .L0 
     /tmp/cc0QfAMO.s:1119   .text:00000000000006cc .L0 
     /tmp/cc0QfAMO.s:1122   .text:00000000000006d0 .L0 
     /tmp/cc0QfAMO.s:1126   .text:00000000000006d4 .L0 
     /tmp/cc0QfAMO.s:1128   .text:00000000000006d4 .L0 
     /tmp/cc0QfAMO.s:1129   .text:00000000000006d4 .L0 
     /tmp/cc0QfAMO.s:1133   .text:00000000000006e8 .L0 
     /tmp/cc0QfAMO.s:1144   .text:00000000000006e8 _Z7badFreev
     /tmp/cc0QfAMO.s:1147   .text:00000000000006e8 .L0 
     /tmp/cc0QfAMO.s:1148   .text:00000000000006e8 .L0 
     /tmp/cc0QfAMO.s:1149   .text:00000000000006ec .L0 
     /tmp/cc0QfAMO.s:1152   .text:00000000000006f4 .L0 
     /tmp/cc0QfAMO.s:1153   .text:00000000000006f4 .L0 
     /tmp/cc0QfAMO.s:1155   .text:00000000000006f8 .L0 
     /tmp/cc0QfAMO.s:1157   .text:00000000000006f8 .L0 
     /tmp/cc0QfAMO.s:1158   .text:00000000000006f8 .L0 
     /tmp/cc0QfAMO.s:1162   .text:0000000000000708 .L0 
     /tmp/cc0QfAMO.s:1163   .text:0000000000000708 .L0 
     /tmp/cc0QfAMO.s:1167   .text:0000000000000714 .L0 
     /tmp/cc0QfAMO.s:1168   .text:0000000000000714 .L0 
     /tmp/cc0QfAMO.s:1173   .text:0000000000000720 .L0 
     /tmp/cc0QfAMO.s:1175   .text:0000000000000724 .L0 
     /tmp/cc0QfAMO.s:1176   .text:0000000000000724 .L0 
     /tmp/cc0QfAMO.s:1182   .text:0000000000000734 .L0 
     /tmp/cc0QfAMO.s:1183   .text:0000000000000738 .L0 
     /tmp/cc0QfAMO.s:1184   .text:0000000000000738 .L0 
     /tmp/cc0QfAMO.s:1186   .text:000000000000073c .L0 
     /tmp/cc0QfAMO.s:1187   .text:000000000000073c .L0 
     /tmp/cc0QfAMO.s:1189   .text:0000000000000740 .L0 
     /tmp/cc0QfAMO.s:1193   .text:0000000000000744 .L0 
     /tmp/cc0QfAMO.s:1195   .text:0000000000000744 .L0 
     /tmp/cc0QfAMO.s:1196   .text:0000000000000744 .L0 
     /tmp/cc0QfAMO.s:1201   .text:0000000000000754 .L0 
     /tmp/cc0QfAMO.s:1202   .text:0000000000000758 .L0 
     /tmp/cc0QfAMO.s:1225   .text:0000000000000758 _Z13stressTestingv
     /tmp/cc0QfAMO.s:1228   .text:0000000000000758 .L0 
     /tmp/cc0QfAMO.s:1229   .text:0000000000000758 .L0 
     /tmp/cc0QfAMO.s:1230   .text:000000000000075c .L0 
     /tmp/cc0QfAMO.s:1236   .text:0000000000000770 .L0 
     /tmp/cc0QfAMO.s:1237   .text:0000000000000770 .L0 
     /tmp/cc0QfAMO.s:1238   .text:0000000000000770 .L0 
     /tmp/cc0QfAMO.s:1239   .text:0000000000000770 .L0 
     /tmp/cc0QfAMO.s:1240   .text:0000000000000770 .L0 
     /tmp/cc0QfAMO.s:1242   .text:0000000000000774 .L0 
     /tmp/cc0QfAMO.s:1244   .text:0000000000000774 .L0 
     /tmp/cc0QfAMO.s:1245   .text:0000000000000774 .L0 
     /tmp/cc0QfAMO.s:1250   .text:0000000000000784 .L0 
     /tmp/cc0QfAMO.s:1255   .text:000000000000078c .L0 
     /tmp/cc0QfAMO.s:1259   .text:0000000000000790 .L0 
     /tmp/cc0QfAMO.s:1262   .text:0000000000000798 .L0 
     /tmp/cc0QfAMO.s:1263   .text:0000000000000798 .L0 
     /tmp/cc0QfAMO.s:1267   .text:00000000000007a4 .L0 
     /tmp/cc0QfAMO.s:1272   .text:00000000000007b4 .L0 
     /tmp/cc0QfAMO.s:1274   .text:00000000000007b8 .L0 
GAS LISTING /tmp/cc0QfAMO.s 			page 46


     /tmp/cc0QfAMO.s:1275   .text:00000000000007b8 .L0 
     /tmp/cc0QfAMO.s:1281   .text:00000000000007c8 .L0 
     /tmp/cc0QfAMO.s:1282   .text:00000000000007c8 .L0 
     /tmp/cc0QfAMO.s:1283   .text:00000000000007cc .L0 
     /tmp/cc0QfAMO.s:1284   .text:00000000000007cc .L0 
     /tmp/cc0QfAMO.s:1286   .text:00000000000007d0 .L0 
     /tmp/cc0QfAMO.s:1287   .text:00000000000007d0 .L0 
     /tmp/cc0QfAMO.s:1289   .text:00000000000007d4 .L0 
     /tmp/cc0QfAMO.s:1291   .text:00000000000007d8 .L0 
     /tmp/cc0QfAMO.s:1293   .text:00000000000007dc .L0 
     /tmp/cc0QfAMO.s:1295   .text:00000000000007e0 .L0 
     /tmp/cc0QfAMO.s:1299   .text:00000000000007e4 .L0 
     /tmp/cc0QfAMO.s:1301   .text:00000000000007e4 .L0 
     /tmp/cc0QfAMO.s:1305   .text:00000000000007e8 .L0 
     /tmp/cc0QfAMO.s:1306   .text:00000000000007e8 .L0 
     /tmp/cc0QfAMO.s:1309   .text:00000000000007ec .L0 
     /tmp/cc0QfAMO.s:1310   .text:00000000000007ec .L0 
     /tmp/cc0QfAMO.s:1314   .text:00000000000007fc .L0 
     /tmp/cc0QfAMO.s:1315   .text:00000000000007fc .L0 
     /tmp/cc0QfAMO.s:1321   .text:000000000000080c .L0 
     /tmp/cc0QfAMO.s:1325   .text:0000000000000810 .L0 
     /tmp/cc0QfAMO.s:1329   .text:0000000000000818 .L0 
     /tmp/cc0QfAMO.s:1330   .text:0000000000000818 .L0 
     /tmp/cc0QfAMO.s:1334   .text:0000000000000828 .L0 
     /tmp/cc0QfAMO.s:1335   .text:0000000000000828 .L0 
     /tmp/cc0QfAMO.s:1339   .text:0000000000000834 .L0 
     /tmp/cc0QfAMO.s:1340   .text:0000000000000834 .L0 
     /tmp/cc0QfAMO.s:1344   .text:0000000000000844 .L0 
     /tmp/cc0QfAMO.s:1345   .text:0000000000000844 .L0 
     /tmp/cc0QfAMO.s:1352   .text:000000000000085c .L0 
     /tmp/cc0QfAMO.s:1354   .text:0000000000000860 .L0 
     /tmp/cc0QfAMO.s:1355   .text:0000000000000860 .L0 
     /tmp/cc0QfAMO.s:1360   .text:0000000000000870 .L0 
     /tmp/cc0QfAMO.s:1361   .text:0000000000000870 .L0 
     /tmp/cc0QfAMO.s:1364   .text:0000000000000878 .L0 
     /tmp/cc0QfAMO.s:1368   .text:0000000000000884 .L0 
     /tmp/cc0QfAMO.s:1373   .text:0000000000000894 .L0 
     /tmp/cc0QfAMO.s:1376   .text:0000000000000898 .L0 
     /tmp/cc0QfAMO.s:1377   .text:0000000000000898 .L0 
     /tmp/cc0QfAMO.s:1380   .text:000000000000089c .L0 
     /tmp/cc0QfAMO.s:1385   .text:00000000000008a0 .L0 
     /tmp/cc0QfAMO.s:1386   .text:00000000000008a0 .L0 
     /tmp/cc0QfAMO.s:1391   .text:00000000000008b0 .L0 
     /tmp/cc0QfAMO.s:1394   .text:00000000000008b4 .L0 
     /tmp/cc0QfAMO.s:1395   .text:00000000000008b4 .L0 
     /tmp/cc0QfAMO.s:1399   .text:00000000000008c4 .L0 
     /tmp/cc0QfAMO.s:1405   .text:00000000000008c8 .L0 
     /tmp/cc0QfAMO.s:1409   .text:00000000000008cc .L0 
     /tmp/cc0QfAMO.s:1413   .text:00000000000008d4 .L0 
     /tmp/cc0QfAMO.s:1414   .text:00000000000008d4 .L0 
     /tmp/cc0QfAMO.s:1418   .text:00000000000008e4 .L0 
     /tmp/cc0QfAMO.s:1419   .text:00000000000008e4 .L0 
     /tmp/cc0QfAMO.s:1423   .text:00000000000008f0 .L0 
     /tmp/cc0QfAMO.s:1424   .text:00000000000008f0 .L0 
     /tmp/cc0QfAMO.s:1428   .text:0000000000000900 .L0 
     /tmp/cc0QfAMO.s:1429   .text:0000000000000900 .L0 
     /tmp/cc0QfAMO.s:1436   .text:0000000000000918 .L0 
GAS LISTING /tmp/cc0QfAMO.s 			page 47


     /tmp/cc0QfAMO.s:1438   .text:000000000000091c .L0 
     /tmp/cc0QfAMO.s:1439   .text:000000000000091c .L0 
     /tmp/cc0QfAMO.s:1444   .text:000000000000092c .L0 
     /tmp/cc0QfAMO.s:1445   .text:000000000000092c .L0 
     /tmp/cc0QfAMO.s:1449   .text:0000000000000938 .L0 
     /tmp/cc0QfAMO.s:1454   .text:0000000000000948 .L0 
     /tmp/cc0QfAMO.s:1457   .text:000000000000094c .L0 
     /tmp/cc0QfAMO.s:1458   .text:000000000000094c .L0 
     /tmp/cc0QfAMO.s:1461   .text:0000000000000950 .L0 
     /tmp/cc0QfAMO.s:1466   .text:0000000000000954 .L0 
     /tmp/cc0QfAMO.s:1467   .text:0000000000000954 .L0 
     /tmp/cc0QfAMO.s:1472   .text:0000000000000964 .L0 
     /tmp/cc0QfAMO.s:1475   .text:0000000000000968 .L0 
     /tmp/cc0QfAMO.s:1476   .text:0000000000000968 .L0 
     /tmp/cc0QfAMO.s:1480   .text:0000000000000978 .L0 
     /tmp/cc0QfAMO.s:1485   .text:000000000000097c .L0 
     /tmp/cc0QfAMO.s:1486   .text:000000000000097c .L0 
     /tmp/cc0QfAMO.s:1490   .text:0000000000000980 .L0 
     /tmp/cc0QfAMO.s:1494   .text:0000000000000984 .L0 
     /tmp/cc0QfAMO.s:1495   .text:0000000000000984 .L0 
     /tmp/cc0QfAMO.s:1499   .text:0000000000000998 .L0 
     /tmp/cc0QfAMO.s:1505   .text:0000000000000998 _Z21memoryAllocationTestsv
     /tmp/cc0QfAMO.s:1508   .text:0000000000000998 .L0 
     /tmp/cc0QfAMO.s:1509   .text:0000000000000998 .L0 
     /tmp/cc0QfAMO.s:1510   .text:000000000000099c .L0 
     /tmp/cc0QfAMO.s:1513   .text:00000000000009a4 .L0 
     /tmp/cc0QfAMO.s:1514   .text:00000000000009a4 .L0 
     /tmp/cc0QfAMO.s:1516   .text:00000000000009a8 .L0 
     /tmp/cc0QfAMO.s:1518   .text:00000000000009a8 .L0 
     /tmp/cc0QfAMO.s:1519   .text:00000000000009a8 .L0 
     /tmp/cc0QfAMO.s:1522   .text:00000000000009b0 .L0 
     /tmp/cc0QfAMO.s:1523   .text:00000000000009b4 .L0 
     /tmp/cc0QfAMO.s:1525   .text:00000000000009b8 .L0 
     /tmp/cc0QfAMO.s:1526   .text:00000000000009b8 .L0 
     /tmp/cc0QfAMO.s:1528   .text:00000000000009bc .L0 
     /tmp/cc0QfAMO.s:1530   .text:00000000000009c0 .L0 
     /tmp/cc0QfAMO.s:1539   .text:00000000000009c0 .L0 
     /tmp/cc0QfAMO.s:8      .rodata.str1.8:0000000000000000 .LC0
     /tmp/cc0QfAMO.s:33     .text:0000000000000010 .L0 
     /tmp/cc0QfAMO.s:47     .rodata.str1.8:0000000000000008 .LC1
     /tmp/cc0QfAMO.s:76     .text:0000000000000040 .L0 
     /tmp/cc0QfAMO.s:50     .rodata.str1.8:0000000000000020 .LC2
     /tmp/cc0QfAMO.s:93     .text:0000000000000060 .L0 
     /tmp/cc0QfAMO.s:53     .rodata.str1.8:0000000000000028 .LC3
     /tmp/cc0QfAMO.s:103    .text:000000000000007c .L0 
     /tmp/cc0QfAMO.s:129    .rodata.str1.8:0000000000000030 .LC4
     /tmp/cc0QfAMO.s:155    .text:00000000000000bc .L0 
     /tmp/cc0QfAMO.s:132    .rodata.str1.8:0000000000000048 .LC5
     /tmp/cc0QfAMO.s:172    .text:00000000000000dc .L0 
     /tmp/cc0QfAMO.s:182    .text:00000000000000f8 .L0 
     /tmp/cc0QfAMO.s:226    .text:0000000000000138 .L0 
     /tmp/cc0QfAMO.s:243    .text:0000000000000158 .L0 
     /tmp/cc0QfAMO.s:253    .text:0000000000000174 .L0 
     /tmp/cc0QfAMO.s:315    .text:00000000000001cc .L0 
     /tmp/cc0QfAMO.s:334    .text:00000000000001fc .L0 
     /tmp/cc0QfAMO.s:279    .rodata.str1.8:0000000000000050 .LC6
     /tmp/cc0QfAMO.s:353    .text:0000000000000224 .L0 
GAS LISTING /tmp/cc0QfAMO.s 			page 48


     /tmp/cc0QfAMO.s:282    .rodata.str1.8:0000000000000060 .LC7
     /tmp/cc0QfAMO.s:394    .text:000000000000025c .L0 
     /tmp/cc0QfAMO.s:511    .text:00000000000002f0 .L0 
     /tmp/cc0QfAMO.s:530    .text:0000000000000320 .L0 
     /tmp/cc0QfAMO.s:550    .text:0000000000000350 .L0 
     /tmp/cc0QfAMO.s:584    .text:0000000000000384 .L0 
     /tmp/cc0QfAMO.s:727    .rodata.str1.8:0000000000000068 .LC8
     /tmp/cc0QfAMO.s:755    .text:0000000000000444 .L0 
     /tmp/cc0QfAMO.s:730    .rodata.str1.8:0000000000000078 .LC9
     /tmp/cc0QfAMO.s:785    .text:0000000000000488 .L0 
     /tmp/cc0QfAMO.s:837    .text:00000000000004dc .L0 
     /tmp/cc0QfAMO.s:875    .text:0000000000000524 .L0 
     /tmp/cc0QfAMO.s:911    .text:0000000000000568 .L0 
     /tmp/cc0QfAMO.s:733    .rodata.str1.8:0000000000000080 .LC10
     /tmp/cc0QfAMO.s:922    .text:000000000000057c .L0 
     /tmp/cc0QfAMO.s:931    .rodata.str1.8:0000000000000088 .LC11
     /tmp/cc0QfAMO.s:951    .text:00000000000005a0 .L0 
     /tmp/cc0QfAMO.s:956    .text:00000000000005b0 .L0 
     /tmp/cc0QfAMO.s:958    .text:00000000000005bc .L0 
     /tmp/cc0QfAMO.s:972    .text:00000000000005dc .L0 
     /tmp/cc0QfAMO.s:992    .text:00000000000005fc .L0 
     /tmp/cc0QfAMO.s:1002   .rodata.str1.8:0000000000000098 .LC12
     /tmp/cc0QfAMO.s:1028   .text:000000000000062c .L0 
     /tmp/cc0QfAMO.s:1089   .text:0000000000000688 .L0 
     /tmp/cc0QfAMO.s:1102   .text:00000000000006a8 .L0 
     /tmp/cc0QfAMO.s:1129   .text:00000000000006d4 .L0 
     /tmp/cc0QfAMO.s:1138   .rodata.str1.8:00000000000000b0 .LC13
     /tmp/cc0QfAMO.s:1158   .text:00000000000006f8 .L0 
     /tmp/cc0QfAMO.s:1176   .text:0000000000000724 .L0 
     /tmp/cc0QfAMO.s:1196   .text:0000000000000744 .L0 
     /tmp/cc0QfAMO.s:1207   .rodata.str1.8:00000000000000c0 .LC14
     /tmp/cc0QfAMO.s:1245   .text:0000000000000774 .L0 
     /tmp/cc0QfAMO.s:1275   .text:00000000000007b8 .L0 
     /tmp/cc0QfAMO.s:1210   .rodata.str1.8:00000000000000d0 .LC15
     /tmp/cc0QfAMO.s:1310   .text:00000000000007ec .L0 
     /tmp/cc0QfAMO.s:1330   .text:0000000000000818 .L0 
     /tmp/cc0QfAMO.s:1213   .rodata.str1.8:00000000000000d8 .LC16
     /tmp/cc0QfAMO.s:1340   .text:0000000000000834 .L0 
     /tmp/cc0QfAMO.s:1216   .rodata.str1.8:00000000000000e0 .LC17
     /tmp/cc0QfAMO.s:1355   .text:0000000000000860 .L0 
     /tmp/cc0QfAMO.s:1386   .text:00000000000008a0 .L0 
     /tmp/cc0QfAMO.s:1219   .rodata.str1.8:00000000000000e8 .LC18
     /tmp/cc0QfAMO.s:1395   .text:00000000000008b4 .L0 
     /tmp/cc0QfAMO.s:1414   .text:00000000000008d4 .L0 
     /tmp/cc0QfAMO.s:1424   .text:00000000000008f0 .L0 
     /tmp/cc0QfAMO.s:1439   .text:000000000000091c .L0 
     /tmp/cc0QfAMO.s:1467   .text:0000000000000954 .L0 
     /tmp/cc0QfAMO.s:1476   .text:0000000000000968 .L0 
     /tmp/cc0QfAMO.s:1495   .text:0000000000000984 .L0 
     /tmp/cc0QfAMO.s:29     .text:0000000000000010 .L2
     /tmp/cc0QfAMO.s:110    .text:0000000000000094 .L4
     /tmp/cc0QfAMO.s:86     .text:0000000000000054 .L6
     /tmp/cc0QfAMO.s:189    .text:0000000000000110 .L8
     /tmp/cc0QfAMO.s:165    .text:00000000000000d0 .L10
     /tmp/cc0QfAMO.s:260    .text:000000000000018c .L12
     /tmp/cc0QfAMO.s:236    .text:000000000000014c .L14
     /tmp/cc0QfAMO.s:360    .text:000000000000023c .L19
GAS LISTING /tmp/cc0QfAMO.s 			page 49


     /tmp/cc0QfAMO.s:350    .text:0000000000000224 .L17
     /tmp/cc0QfAMO.s:565    .text:0000000000000374 .L27
     /tmp/cc0QfAMO.s:767    .text:0000000000000460 .L42
     /tmp/cc0QfAMO.s:804    .text:00000000000004ac .L50
     /tmp/cc0QfAMO.s:763    .text:000000000000045c .L40
     /tmp/cc0QfAMO.s:843    .text:00000000000004f0 .L51
     /tmp/cc0QfAMO.s:833    .text:00000000000004dc .L54
     /tmp/cc0QfAMO.s:810    .text:00000000000004b0 .L39
     /tmp/cc0QfAMO.s:789    .text:0000000000000498 .L38
     /tmp/cc0QfAMO.s:857    .text:00000000000004fc .L43
     /tmp/cc0QfAMO.s:880    .text:0000000000000538 .L52
     /tmp/cc0QfAMO.s:852    .text:00000000000004f8 .L46
     /tmp/cc0QfAMO.s:917    .text:000000000000057c .L47
     /tmp/cc0QfAMO.s:907    .text:0000000000000568 .L55
     /tmp/cc0QfAMO.s:886    .text:000000000000053c .L45
     /tmp/cc0QfAMO.s:988    .text:00000000000005fc .L60
     /tmp/cc0QfAMO.s:976    .text:00000000000005ec .L56
     /tmp/cc0QfAMO.s:1065   .text:0000000000000660 .L63
     /tmp/cc0QfAMO.s:1079   .text:000000000000067c .L62
     /tmp/cc0QfAMO.s:1046   .text:000000000000064c .L67
     /tmp/cc0QfAMO.s:1125   .text:00000000000006d4 .L68
     /tmp/cc0QfAMO.s:1105   .text:00000000000006b8 .L61
     /tmp/cc0QfAMO.s:1192   .text:0000000000000744 .L70
     /tmp/cc0QfAMO.s:1180   .text:0000000000000734 .L69
     /tmp/cc0QfAMO.s:1257   .text:0000000000000790 .L77
     /tmp/cc0QfAMO.s:1298   .text:00000000000007e4 .L87
     /tmp/cc0QfAMO.s:1253   .text:000000000000078c .L75
     /tmp/cc0QfAMO.s:1492   .text:0000000000000984 .L78
     /tmp/cc0QfAMO.s:1400   .text:00000000000008c8 .L88
     /tmp/cc0QfAMO.s:1382   .text:00000000000008a0 .L90
     /tmp/cc0QfAMO.s:1392   .text:00000000000008b4 .L91
     /tmp/cc0QfAMO.s:1322   .text:0000000000000810 .L82
     /tmp/cc0QfAMO.s:1279   .text:00000000000007c8 .L73
     /tmp/cc0QfAMO.s:1481   .text:000000000000097c .L83
     /tmp/cc0QfAMO.s:1463   .text:0000000000000954 .L92
     /tmp/cc0QfAMO.s:1473   .text:0000000000000968 .L93
     /tmp/cc0QfAMO.s:1407   .text:00000000000008cc .L79
     /tmp/cc0QfAMO.s:1303   .text:00000000000007e8 .L74
     /tmp/cc0QfAMO.s:309    .text:00000000000001bc .LEHB0
     /tmp/cc0QfAMO.s:289    .text:00000000000001a0 .LFB25
     /tmp/cc0QfAMO.s:312    .text:00000000000001c4 .LEHE0
     /tmp/cc0QfAMO.s:316    .text:00000000000001d4 .LEHB1
     /tmp/cc0QfAMO.s:319    .text:00000000000001dc .LEHE1
     /tmp/cc0QfAMO.s:418    .text:000000000000028c .L22
     /tmp/cc0QfAMO.s:323    .text:00000000000001e0 .LEHB2
     /tmp/cc0QfAMO.s:331    .text:00000000000001f4 .LEHE2
     /tmp/cc0QfAMO.s:335    .text:0000000000000204 .LEHB3
     /tmp/cc0QfAMO.s:338    .text:000000000000020c .LEHE3
     /tmp/cc0QfAMO.s:430    .text:00000000000002a8 .L23
     /tmp/cc0QfAMO.s:342    .text:0000000000000210 .LEHB4
     /tmp/cc0QfAMO.s:401    .text:0000000000000274 .LEHE4
     /tmp/cc0QfAMO.s:426    .text:00000000000002a0 .LEHB5
     /tmp/cc0QfAMO.s:429    .text:00000000000002a8 .LEHE5
     /tmp/cc0QfAMO.s:438    .text:00000000000002bc .LEHB6
     /tmp/cc0QfAMO.s:441    .text:00000000000002c4 .LEHE6
     /tmp/cc0QfAMO.s:505    .text:00000000000002e0 .LEHB7
     /tmp/cc0QfAMO.s:485    .text:00000000000002c4 .LFB26
GAS LISTING /tmp/cc0QfAMO.s 			page 50


     /tmp/cc0QfAMO.s:508    .text:00000000000002e8 .LEHE7
     /tmp/cc0QfAMO.s:512    .text:00000000000002f8 .LEHB8
     /tmp/cc0QfAMO.s:515    .text:0000000000000300 .LEHE8
     /tmp/cc0QfAMO.s:608    .text:00000000000003b4 .L31
     /tmp/cc0QfAMO.s:519    .text:0000000000000304 .LEHB9
     /tmp/cc0QfAMO.s:527    .text:0000000000000318 .LEHE9
     /tmp/cc0QfAMO.s:531    .text:0000000000000328 .LEHB10
     /tmp/cc0QfAMO.s:534    .text:0000000000000330 .LEHE10
     /tmp/cc0QfAMO.s:620    .text:00000000000003d0 .L32
     /tmp/cc0QfAMO.s:538    .text:0000000000000334 .LEHB11
     /tmp/cc0QfAMO.s:546    .text:0000000000000348 .LEHE11
     /tmp/cc0QfAMO.s:551    .text:0000000000000358 .LEHB12
     /tmp/cc0QfAMO.s:554    .text:0000000000000360 .LEHE12
     /tmp/cc0QfAMO.s:632    .text:00000000000003ec .L33
     /tmp/cc0QfAMO.s:558    .text:0000000000000364 .LEHB13
     /tmp/cc0QfAMO.s:591    .text:000000000000039c .LEHE13
     /tmp/cc0QfAMO.s:616    .text:00000000000003c8 .LEHB14
     /tmp/cc0QfAMO.s:619    .text:00000000000003d0 .LEHE14
     /tmp/cc0QfAMO.s:628    .text:00000000000003e4 .LEHB15
     /tmp/cc0QfAMO.s:631    .text:00000000000003ec .LEHE15
     /tmp/cc0QfAMO.s:640    .text:0000000000000400 .LEHB16
     /tmp/cc0QfAMO.s:643    .text:0000000000000408 .LEHE16
     /tmp/cc0QfAMO.s:4178   .debug_abbrev:0000000000000000 .Ldebug_abbrev0
     /tmp/cc0QfAMO.s:5790   .debug_str:00000000000005a5 .LASF179
     /tmp/cc0QfAMO.s:5754   .debug_str:000000000000046b .LASF180
     /tmp/cc0QfAMO.s:5910   .debug_str:000000000000097d .LASF181
     /tmp/cc0QfAMO.s:5      .text:0000000000000000 .Ltext0
     /tmp/cc0QfAMO.s:1533   .text:00000000000009c0 .Letext0
     /tmp/cc0QfAMO.s:5606   .debug_line:0000000000000000 .Ldebug_line0
     /tmp/cc0QfAMO.s:5736   .debug_str:00000000000003ed .LASF0
     /tmp/cc0QfAMO.s:5766   .debug_str:00000000000004cf .LASF1
     /tmp/cc0QfAMO.s:5850   .debug_str:00000000000007f0 .LASF2
     /tmp/cc0QfAMO.s:5858   .debug_str:000000000000082f .LASF4
     /tmp/cc0QfAMO.s:5752   .debug_str:0000000000000459 .LASF3
     /tmp/cc0QfAMO.s:5620   .debug_str:000000000000005e .LASF5
     /tmp/cc0QfAMO.s:5832   .debug_str:0000000000000772 .LASF6
     /tmp/cc0QfAMO.s:5824   .debug_str:0000000000000735 .LASF7
     /tmp/cc0QfAMO.s:5758   .debug_str:000000000000049b .LASF8
     /tmp/cc0QfAMO.s:5716   .debug_str:0000000000000355 .LASF9
     /tmp/cc0QfAMO.s:5720   .debug_str:0000000000000381 .LASF10
     /tmp/cc0QfAMO.s:5666   .debug_str:00000000000001d7 .LASF11
     /tmp/cc0QfAMO.s:5710   .debug_str:0000000000000335 .LASF12
     /tmp/cc0QfAMO.s:5672   .debug_str:0000000000000203 .LASF13
     /tmp/cc0QfAMO.s:5664   .debug_str:00000000000001c7 .LASF14
     /tmp/cc0QfAMO.s:5886   .debug_str:00000000000008e6 .LASF15
     /tmp/cc0QfAMO.s:5700   .debug_str:00000000000002d8 .LASF16
     /tmp/cc0QfAMO.s:5880   .debug_str:00000000000008ad .LASF17
     /tmp/cc0QfAMO.s:5942   .debug_str:0000000000000a7b .LASF82
     /tmp/cc0QfAMO.s:5796   .debug_str:0000000000000661 .LASF18
     /tmp/cc0QfAMO.s:5782   .debug_str:000000000000055d .LASF20
     /tmp/cc0QfAMO.s:5698   .debug_str:00000000000002ce .LASF19
     /tmp/cc0QfAMO.s:5614   .debug_str:000000000000002f .LASF21
     /tmp/cc0QfAMO.s:5932   .debug_str:0000000000000a2b .LASF22
     /tmp/cc0QfAMO.s:5774   .debug_str:0000000000000508 .LASF23
     /tmp/cc0QfAMO.s:5748   .debug_str:000000000000043a .LASF24
     /tmp/cc0QfAMO.s:5674   .debug_str:0000000000000213 .LASF25
     /tmp/cc0QfAMO.s:5964   .debug_str:0000000000000b11 .LASF26
GAS LISTING /tmp/cc0QfAMO.s 			page 51


     /tmp/cc0QfAMO.s:5630   .debug_str:0000000000000097 .LASF28
     /tmp/cc0QfAMO.s:5830   .debug_str:0000000000000765 .LASF27
     /tmp/cc0QfAMO.s:5632   .debug_str:00000000000000b2 .LASF29
     /tmp/cc0QfAMO.s:5866   .debug_str:0000000000000858 .LASF30
     /tmp/cc0QfAMO.s:5704   .debug_str:00000000000002ff .LASF31
     /tmp/cc0QfAMO.s:5740   .debug_str:000000000000040a .LASF32
     /tmp/cc0QfAMO.s:5954   .debug_str:0000000000000ac3 .LASF33
     /tmp/cc0QfAMO.s:5926   .debug_str:0000000000000a00 .LASF36
     /tmp/cc0QfAMO.s:5918   .debug_str:00000000000009cb .LASF38
     /tmp/cc0QfAMO.s:5846   .debug_str:00000000000007dc .LASF34
     /tmp/cc0QfAMO.s:5810   .debug_str:00000000000006c8 .LASF35
     /tmp/cc0QfAMO.s:5838   .debug_str:0000000000000793 .LASF37
     /tmp/cc0QfAMO.s:5840   .debug_str:000000000000079a .LASF39
     /tmp/cc0QfAMO.s:5806   .debug_str:00000000000006ad .LASF40
     /tmp/cc0QfAMO.s:5760   .debug_str:00000000000004ae .LASF41
     /tmp/cc0QfAMO.s:5956   .debug_str:0000000000000add .LASF42
     /tmp/cc0QfAMO.s:5906   .debug_str:000000000000095f .LASF43
     /tmp/cc0QfAMO.s:5804   .debug_str:00000000000006a5 .LASF44
     /tmp/cc0QfAMO.s:5808   .debug_str:00000000000006b4 .LASF45
     /tmp/cc0QfAMO.s:5792   .debug_str:0000000000000647 .LASF46
     /tmp/cc0QfAMO.s:5842   .debug_str:00000000000007ad .LASF47
     /tmp/cc0QfAMO.s:5984   .debug_str:0000000000000ba7 .LASF48
     /tmp/cc0QfAMO.s:5744   .debug_str:000000000000041d .LASF49
     /tmp/cc0QfAMO.s:5884   .debug_str:00000000000008df .LASF50
     /tmp/cc0QfAMO.s:5860   .debug_str:0000000000000836 .LASF51
     /tmp/cc0QfAMO.s:5862   .debug_str:0000000000000849 .LASF52
     /tmp/cc0QfAMO.s:5668   .debug_str:00000000000001e6 .LASF53
     /tmp/cc0QfAMO.s:5694   .debug_str:00000000000002b6 .LASF54
     /tmp/cc0QfAMO.s:5730   .debug_str:00000000000003ba .LASF55
     /tmp/cc0QfAMO.s:5742   .debug_str:0000000000000417 .LASF56
     /tmp/cc0QfAMO.s:5686   .debug_str:000000000000027f .LASF57
     /tmp/cc0QfAMO.s:5622   .debug_str:0000000000000065 .LASF58
     /tmp/cc0QfAMO.s:5854   .debug_str:000000000000080e .LASF59
     /tmp/cc0QfAMO.s:5848   .debug_str:00000000000007e5 .LASF60
     /tmp/cc0QfAMO.s:5978   .debug_str:0000000000000b7a .LASF61
     /tmp/cc0QfAMO.s:5946   .debug_str:0000000000000a92 .LASF62
     /tmp/cc0QfAMO.s:5962   .debug_str:0000000000000afb .LASF63
     /tmp/cc0QfAMO.s:5940   .debug_str:0000000000000a71 .LASF64
     /tmp/cc0QfAMO.s:5784   .debug_str:0000000000000575 .LASF65
     /tmp/cc0QfAMO.s:5726   .debug_str:00000000000003a9 .LASF66
     /tmp/cc0QfAMO.s:5734   .debug_str:00000000000003d5 .LASF67
     /tmp/cc0QfAMO.s:5924   .debug_str:00000000000009f1 .LASF68
     /tmp/cc0QfAMO.s:5718   .debug_str:0000000000000365 .LASF69
     /tmp/cc0QfAMO.s:5828   .debug_str:0000000000000750 .LASF70
     /tmp/cc0QfAMO.s:5756   .debug_str:0000000000000479 .LASF71
     /tmp/cc0QfAMO.s:5682   .debug_str:0000000000000265 .LASF72
     /tmp/cc0QfAMO.s:5618   .debug_str:0000000000000056 .LASF73
     /tmp/cc0QfAMO.s:5646   .debug_str:0000000000000132 .LASF74
     /tmp/cc0QfAMO.s:5922   .debug_str:00000000000009e5 .LASF75
     /tmp/cc0QfAMO.s:5648   .debug_str:0000000000000141 .LASF76
     /tmp/cc0QfAMO.s:5794   .debug_str:000000000000064f .LASF77
     /tmp/cc0QfAMO.s:5722   .debug_str:000000000000038f .LASF78
     /tmp/cc0QfAMO.s:5938   .debug_str:0000000000000a5e .LASF79
     /tmp/cc0QfAMO.s:5662   .debug_str:00000000000001b3 .LASF80
     /tmp/cc0QfAMO.s:5894   .debug_str:0000000000000916 .LASF81
     /tmp/cc0QfAMO.s:5898   .debug_str:000000000000092e .LASF182
     /tmp/cc0QfAMO.s:5660   .debug_str:00000000000001ad .LASF83
GAS LISTING /tmp/cc0QfAMO.s 			page 52


     /tmp/cc0QfAMO.s:5874   .debug_str:000000000000088b .LASF84
     /tmp/cc0QfAMO.s:5670   .debug_str:00000000000001f9 .LASF85
     /tmp/cc0QfAMO.s:5652   .debug_str:0000000000000159 .LASF86
     /tmp/cc0QfAMO.s:5826   .debug_str:0000000000000748 .LASF87
     /tmp/cc0QfAMO.s:5762   .debug_str:00000000000004c1 .LASF88
     /tmp/cc0QfAMO.s:5890   .debug_str:0000000000000902 .LASF134
     /tmp/cc0QfAMO.s:5728   .debug_str:00000000000003b4 .LASF89
     /tmp/cc0QfAMO.s:5802   .debug_str:000000000000068d .LASF183
     /tmp/cc0QfAMO.s:5814   .debug_str:00000000000006e4 .LASF184
     /tmp/cc0QfAMO.s:5764   .debug_str:00000000000004ca .LASF90
     /tmp/cc0QfAMO.s:5974   .debug_str:0000000000000b58 .LASF92
     /tmp/cc0QfAMO.s:5972   .debug_str:0000000000000b52 .LASF91
     /tmp/cc0QfAMO.s:5904   .debug_str:000000000000094f .LASF93
     /tmp/cc0QfAMO.s:5688   .debug_str:0000000000000291 .LASF94
     /tmp/cc0QfAMO.s:5628   .debug_str:0000000000000084 .LASF95
     /tmp/cc0QfAMO.s:5768   .debug_str:00000000000004e2 .LASF96
     /tmp/cc0QfAMO.s:5818   .debug_str:00000000000006ff .LASF97
     /tmp/cc0QfAMO.s:5900   .debug_str:0000000000000934 .LASF98
     /tmp/cc0QfAMO.s:5952   .debug_str:0000000000000ab8 .LASF99
     /tmp/cc0QfAMO.s:5868   .debug_str:0000000000000866 .LASF100
     /tmp/cc0QfAMO.s:5772   .debug_str:00000000000004fb .LASF105
     /tmp/cc0QfAMO.s:5776   .debug_str:0000000000000526 .LASF107
     /tmp/cc0QfAMO.s:5980   .debug_str:0000000000000b92 .LASF101
     /tmp/cc0QfAMO.s:5714   .debug_str:0000000000000349 .LASF102
     /tmp/cc0QfAMO.s:5738   .debug_str:00000000000003fa .LASF103
     /tmp/cc0QfAMO.s:5750   .debug_str:000000000000044c .LASF104
     /tmp/cc0QfAMO.s:5870   .debug_str:0000000000000877 .LASF106
     /tmp/cc0QfAMO.s:5684   .debug_str:000000000000026c .LASF108
     /tmp/cc0QfAMO.s:5856   .debug_str:0000000000000826 .LASF109
     /tmp/cc0QfAMO.s:5882   .debug_str:00000000000008c3 .LASF110
     /tmp/cc0QfAMO.s:5800   .debug_str:000000000000067e .LASF111
     /tmp/cc0QfAMO.s:5610   .debug_str:0000000000000010 .LASF112
     /tmp/cc0QfAMO.s:5960   .debug_str:0000000000000aec .LASF113
     /tmp/cc0QfAMO.s:5822   .debug_str:000000000000071b .LASF114
     /tmp/cc0QfAMO.s:5878   .debug_str:000000000000089f .LASF115
     /tmp/cc0QfAMO.s:5836   .debug_str:0000000000000787 .LASF116
     /tmp/cc0QfAMO.s:5608   .debug_str:0000000000000000 .LASF117
     /tmp/cc0QfAMO.s:5966   .debug_str:0000000000000b1d .LASF118
     /tmp/cc0QfAMO.s:5788   .debug_str:0000000000000595 .LASF119
     /tmp/cc0QfAMO.s:5696   .debug_str:00000000000002bc .LASF120
     /tmp/cc0QfAMO.s:5930   .debug_str:0000000000000a0e .LASF121
     /tmp/cc0QfAMO.s:5654   .debug_str:0000000000000162 .LASF122
     /tmp/cc0QfAMO.s:5912   .debug_str:00000000000009a0 .LASF123
     /tmp/cc0QfAMO.s:5864   .debug_str:0000000000000850 .LASF142
     /tmp/cc0QfAMO.s:5908   .debug_str:0000000000000973 .LASF124
     /tmp/cc0QfAMO.s:5820   .debug_str:000000000000070f .LASF125
     /tmp/cc0QfAMO.s:5676   .debug_str:0000000000000232 .LASF126
     /tmp/cc0QfAMO.s:5636   .debug_str:00000000000000e4 .LASF128
     /tmp/cc0QfAMO.s:5706   .debug_str:000000000000031a .LASF127
     /tmp/cc0QfAMO.s:5658   .debug_str:0000000000000181 .LASF129
     /tmp/cc0QfAMO.s:5958   .debug_str:0000000000000ae5 .LASF185
     /tmp/cc0QfAMO.s:5656   .debug_str:0000000000000170 .LASF186
     /tmp/cc0QfAMO.s:5612   .debug_str:000000000000002a .LASF130
     /tmp/cc0QfAMO.s:5928   .debug_str:0000000000000a09 .LASF131
     /tmp/cc0QfAMO.s:5778   .debug_str:000000000000053e .LASF132
     /tmp/cc0QfAMO.s:5692   .debug_str:00000000000002b0 .LASF133
     /tmp/cc0QfAMO.s:5916   .debug_str:00000000000009c3 .LASF135
GAS LISTING /tmp/cc0QfAMO.s 			page 53


     /tmp/cc0QfAMO.s:5642   .debug_str:000000000000011e .LASF136
     /tmp/cc0QfAMO.s:5724   .debug_str:00000000000003a2 .LASF137
     /tmp/cc0QfAMO.s:5988   .debug_str:0000000000000bbe .LASF138
     /tmp/cc0QfAMO.s:5770   .debug_str:00000000000004e8 .LASF139
     /tmp/cc0QfAMO.s:5816   .debug_str:00000000000006e9 .LASF140
     /tmp/cc0QfAMO.s:5902   .debug_str:000000000000093c .LASF141
     /tmp/cc0QfAMO.s:5746   .debug_str:0000000000000431 .LASF143
     /tmp/cc0QfAMO.s:5986   .debug_str:0000000000000baf .LASF144
     /tmp/cc0QfAMO.s:5920   .debug_str:00000000000009e0 .LASF145
     /tmp/cc0QfAMO.s:5976   .debug_str:0000000000000b64 .LASF146
     /tmp/cc0QfAMO.s:5844   .debug_str:00000000000007c1 .LASF187
     /tmp/cc0QfAMO.s:1506   .text:0000000000000998 .LFB33
     /tmp/cc0QfAMO.s:1531   .text:00000000000009c0 .LFE33
     /tmp/cc0QfAMO.s:1520   .text:00000000000009b0 .LVL174
     /tmp/cc0QfAMO.s:5626   .debug_str:0000000000000076 .LASF147
     /tmp/cc0QfAMO.s:5896   .debug_str:000000000000091b .LASF148
     /tmp/cc0QfAMO.s:1226   .text:0000000000000758 .LFB32
     /tmp/cc0QfAMO.s:1500   .text:0000000000000998 .LFE32
     /tmp/cc0QfAMO.s:5624   .debug_str:0000000000000070 .LASF149
     /tmp/cc0QfAMO.s:5156   .debug_loc:0000000000000000 .LLST29
     /tmp/cc0QfAMO.s:1248   .text:0000000000000784 .LBB29
     /tmp/cc0QfAMO.s:1280   .text:00000000000007c8 .LBE29
     /tmp/cc0QfAMO.s:5167   .debug_loc:0000000000000036 .LLST30
     /tmp/cc0QfAMO.s:1265   .text:00000000000007a4 .LVL139
     /tmp/cc0QfAMO.s:1277   .text:00000000000007c8 .LVL140
     /tmp/cc0QfAMO.s:1319   .text:000000000000080c .LBB31
     /tmp/cc0QfAMO.s:1402   .text:00000000000008c8 .LBE31
     /tmp/cc0QfAMO.s:5178   .debug_loc:000000000000006c .LLST31
     /tmp/cc0QfAMO.s:5568   .debug_ranges:0000000000000000 .Ldebug_ranges0
     /tmp/cc0QfAMO.s:5640   .debug_str:0000000000000117 .LASF150
     /tmp/cc0QfAMO.s:5189   .debug_loc:00000000000000a2 .LLST32
     /tmp/cc0QfAMO.s:1332   .text:0000000000000828 .LVL146
     /tmp/cc0QfAMO.s:1337   .text:0000000000000834 .LVL147
     /tmp/cc0QfAMO.s:1342   .text:0000000000000844 .LVL148
     /tmp/cc0QfAMO.s:1350   .text:000000000000085c .LVL149
     /tmp/cc0QfAMO.s:1358   .text:0000000000000870 .LVL151
     /tmp/cc0QfAMO.s:1366   .text:0000000000000884 .LVL152
     /tmp/cc0QfAMO.s:1389   .text:00000000000008b0 .LVL156
     /tmp/cc0QfAMO.s:1397   .text:00000000000008c4 .LVL157
     /tmp/cc0QfAMO.s:1403   .text:00000000000008c8 .LBB34
     /tmp/cc0QfAMO.s:1483   .text:000000000000097c .LBE34
     /tmp/cc0QfAMO.s:5200   .debug_loc:00000000000000d8 .LLST33
     /tmp/cc0QfAMO.s:5211   .debug_loc:000000000000010e .LLST34
     /tmp/cc0QfAMO.s:1416   .text:00000000000008e4 .LVL159
     /tmp/cc0QfAMO.s:1421   .text:00000000000008f0 .LVL160
     /tmp/cc0QfAMO.s:1426   .text:0000000000000900 .LVL161
     /tmp/cc0QfAMO.s:1434   .text:0000000000000918 .LVL162
     /tmp/cc0QfAMO.s:1442   .text:000000000000092c .LVL164
     /tmp/cc0QfAMO.s:1447   .text:0000000000000938 .LVL165
     /tmp/cc0QfAMO.s:1470   .text:0000000000000964 .LVL169
     /tmp/cc0QfAMO.s:1478   .text:0000000000000978 .LVL170
     /tmp/cc0QfAMO.s:1247   .text:0000000000000784 .LVL136
     /tmp/cc0QfAMO.s:1312   .text:00000000000007fc .LVL143
     /tmp/cc0QfAMO.s:1318   .text:000000000000080c .LVL144
     /tmp/cc0QfAMO.s:1497   .text:0000000000000994 .LVL173
     /tmp/cc0QfAMO.s:5982   .debug_str:0000000000000b9f .LASF151
     /tmp/cc0QfAMO.s:5876   .debug_str:0000000000000893 .LASF152
GAS LISTING /tmp/cc0QfAMO.s 			page 54


     /tmp/cc0QfAMO.s:1145   .text:00000000000006e8 .LFB31
     /tmp/cc0QfAMO.s:1203   .text:0000000000000758 .LFE31
     /tmp/cc0QfAMO.s:5222   .debug_loc:0000000000000144 .LLST27
     /tmp/cc0QfAMO.s:5235   .debug_loc:000000000000017c .LLST28
     /tmp/cc0QfAMO.s:1160   .text:0000000000000708 .LVL127
     /tmp/cc0QfAMO.s:1165   .text:0000000000000714 .LVL128
     /tmp/cc0QfAMO.s:1171   .text:0000000000000720 .LVL130
     /tmp/cc0QfAMO.s:1179   .text:0000000000000734 .LVL132
     /tmp/cc0QfAMO.s:1199   .text:0000000000000754 .LVL135
     /tmp/cc0QfAMO.s:5798   .debug_str:000000000000066c .LASF153
     /tmp/cc0QfAMO.s:5780   .debug_str:0000000000000546 .LASF154
     /tmp/cc0QfAMO.s:1009   .text:0000000000000610 .LFB30
     /tmp/cc0QfAMO.s:1134   .text:00000000000006e8 .LFE30
     /tmp/cc0QfAMO.s:5262   .debug_loc:00000000000001c2 .LLST23
     /tmp/cc0QfAMO.s:5274   .debug_loc:00000000000001f9 .LLST24
     /tmp/cc0QfAMO.s:5290   .debug_loc:0000000000000243 .LLST25
     /tmp/cc0QfAMO.s:5306   .debug_loc:000000000000028d .LLST26
     /tmp/cc0QfAMO.s:1075   .text:0000000000000678 .LVL117
     /tmp/cc0QfAMO.s:1030   .text:000000000000063c .LVL112
     /tmp/cc0QfAMO.s:1086   .text:0000000000000688 .LVL119
     /tmp/cc0QfAMO.s:1091   .text:0000000000000698 .LVL120
     /tmp/cc0QfAMO.s:1104   .text:00000000000006b8 .LVL122
     /tmp/cc0QfAMO.s:1131   .text:00000000000006e4 .LVL126
     /tmp/cc0QfAMO.s:5914   .debug_str:00000000000009b9 .LASF155
     /tmp/cc0QfAMO.s:5834   .debug_str:0000000000000779 .LASF156
     /tmp/cc0QfAMO.s:938    .text:0000000000000590 .LFB29
     /tmp/cc0QfAMO.s:998    .text:0000000000000610 .LFE29
     /tmp/cc0QfAMO.s:5317   .debug_loc:00000000000002c3 .LLST21
     /tmp/cc0QfAMO.s:5330   .debug_loc:00000000000002fc .LLST22
     /tmp/cc0QfAMO.s:953    .text:00000000000005b0 .LVL103
     /tmp/cc0QfAMO.s:967    .text:00000000000005d8 .LVL106
     /tmp/cc0QfAMO.s:975    .text:00000000000005ec .LVL108
     /tmp/cc0QfAMO.s:995    .text:000000000000060c .LVL111
     /tmp/cc0QfAMO.s:5872   .debug_str:0000000000000880 .LASF157
     /tmp/cc0QfAMO.s:5680   .debug_str:0000000000000255 .LASF158
     /tmp/cc0QfAMO.s:740    .text:0000000000000430 .LFB28
     /tmp/cc0QfAMO.s:927    .text:0000000000000590 .LFE28
     /tmp/cc0QfAMO.s:758    .text:0000000000000454 .LBB17
     /tmp/cc0QfAMO.s:790    .text:0000000000000498 .LBE17
     /tmp/cc0QfAMO.s:5341   .debug_loc:0000000000000332 .LLST15
     /tmp/cc0QfAMO.s:775    .text:0000000000000474 .LVL82
     /tmp/cc0QfAMO.s:787    .text:0000000000000498 .LVL83
     /tmp/cc0QfAMO.s:806    .text:00000000000004ac .LBB18
     /tmp/cc0QfAMO.s:845    .text:00000000000004f0 .LBE18
     /tmp/cc0QfAMO.s:5352   .debug_loc:0000000000000368 .LLST16
     /tmp/cc0QfAMO.s:5363   .debug_loc:000000000000039e .LLST17
     /tmp/cc0QfAMO.s:822    .text:00000000000004d0 .LVL86
     /tmp/cc0QfAMO.s:840    .text:00000000000004ec .LVL90
     /tmp/cc0QfAMO.s:846    .text:00000000000004f0 .LBB21
     /tmp/cc0QfAMO.s:881    .text:0000000000000538 .LBE21
     /tmp/cc0QfAMO.s:5370   .debug_loc:00000000000003c1 .LLST18
     /tmp/cc0QfAMO.s:865    .text:0000000000000510 .LVL94
     /tmp/cc0QfAMO.s:877    .text:0000000000000534 .LVL95
     /tmp/cc0QfAMO.s:882    .text:0000000000000538 .LBB22
     /tmp/cc0QfAMO.s:919    .text:000000000000057c .LBE22
     /tmp/cc0QfAMO.s:5377   .debug_loc:00000000000003e4 .LLST19
     /tmp/cc0QfAMO.s:5388   .debug_loc:000000000000041a .LLST20
GAS LISTING /tmp/cc0QfAMO.s 			page 55


     /tmp/cc0QfAMO.s:898    .text:000000000000055c .LVL97
     /tmp/cc0QfAMO.s:914    .text:0000000000000578 .LVL101
     /tmp/cc0QfAMO.s:757    .text:0000000000000454 .LVL79
     /tmp/cc0QfAMO.s:924    .text:000000000000058c .LVL102
     /tmp/cc0QfAMO.s:5936   .debug_str:0000000000000a52 .LASF159
     /tmp/cc0QfAMO.s:5944   .debug_str:0000000000000a81 .LASF160
     /tmp/cc0QfAMO.s:698    .text:0000000000000408 .LFB27
     /tmp/cc0QfAMO.s:723    .text:0000000000000430 .LFE27
     /tmp/cc0QfAMO.s:712    .text:0000000000000420 .LVL78
     /tmp/cc0QfAMO.s:5948   .debug_str:0000000000000a9c .LASF161
     /tmp/cc0QfAMO.s:5616   .debug_str:0000000000000045 .LASF162
     /tmp/cc0QfAMO.s:645    .text:0000000000000408 .LFE26
     /tmp/cc0QfAMO.s:5638   .debug_str:000000000000010c .LASF163
     /tmp/cc0QfAMO.s:5395   .debug_loc:000000000000043d .LLST11
     /tmp/cc0QfAMO.s:5410   .debug_loc:0000000000000486 .LLST12
     /tmp/cc0QfAMO.s:5417   .debug_loc:00000000000004a9 .LLST13
     /tmp/cc0QfAMO.s:571    .text:0000000000000378 .LBB15
     /tmp/cc0QfAMO.s:578    .text:000000000000037c .LBE15
     /tmp/cc0QfAMO.s:5424   .debug_loc:00000000000004cc .LLST14
     /tmp/cc0QfAMO.s:507    .text:00000000000002e8 .LVL53
     /tmp/cc0QfAMO.s:514    .text:0000000000000300 .LVL54
     /tmp/cc0QfAMO.s:521    .text:000000000000030c .LVL55
     /tmp/cc0QfAMO.s:526    .text:0000000000000318 .LVL56
     /tmp/cc0QfAMO.s:533    .text:0000000000000330 .LVL57
     /tmp/cc0QfAMO.s:540    .text:000000000000033c .LVL58
     /tmp/cc0QfAMO.s:545    .text:0000000000000348 .LVL59
     /tmp/cc0QfAMO.s:553    .text:0000000000000360 .LVL61
     /tmp/cc0QfAMO.s:560    .text:000000000000036c .LVL62
     /tmp/cc0QfAMO.s:564    .text:0000000000000374 .LVL63
     /tmp/cc0QfAMO.s:586    .text:0000000000000394 .LVL66
     /tmp/cc0QfAMO.s:590    .text:000000000000039c .LVL67
     /tmp/cc0QfAMO.s:614    .text:00000000000003c4 .LVL70
     /tmp/cc0QfAMO.s:618    .text:00000000000003d0 .LVL71
     /tmp/cc0QfAMO.s:626    .text:00000000000003e0 .LVL73
     /tmp/cc0QfAMO.s:630    .text:00000000000003ec .LVL74
     /tmp/cc0QfAMO.s:638    .text:00000000000003fc .LVL76
     /tmp/cc0QfAMO.s:642    .text:0000000000000408 .LVL77
     /tmp/cc0QfAMO.s:5892   .debug_str:000000000000090a .LASF164
     /tmp/cc0QfAMO.s:5702   .debug_str:00000000000002ee .LASF165
     /tmp/cc0QfAMO.s:443    .text:00000000000002c4 .LFE25
     /tmp/cc0QfAMO.s:5431   .debug_loc:00000000000004ef .LLST7
     /tmp/cc0QfAMO.s:5442   .debug_loc:0000000000000525 .LLST8
     /tmp/cc0QfAMO.s:366    .text:0000000000000240 .LBB11
     /tmp/cc0QfAMO.s:374    .text:0000000000000244 .LBE11
     /tmp/cc0QfAMO.s:5449   .debug_loc:0000000000000548 .LLST9
     /tmp/cc0QfAMO.s:381    .text:0000000000000250 .LBB13
     /tmp/cc0QfAMO.s:388    .text:0000000000000254 .LBE13
     /tmp/cc0QfAMO.s:5456   .debug_loc:000000000000056b .LLST10
     /tmp/cc0QfAMO.s:311    .text:00000000000001c4 .LVL31
     /tmp/cc0QfAMO.s:318    .text:00000000000001dc .LVL32
     /tmp/cc0QfAMO.s:325    .text:00000000000001e8 .LVL33
     /tmp/cc0QfAMO.s:330    .text:00000000000001f4 .LVL34
     /tmp/cc0QfAMO.s:337    .text:000000000000020c .LVL35
     /tmp/cc0QfAMO.s:344    .text:0000000000000218 .LVL36
     /tmp/cc0QfAMO.s:348    .text:0000000000000220 .LVL37
     /tmp/cc0QfAMO.s:355    .text:0000000000000234 .LVL38
     /tmp/cc0QfAMO.s:359    .text:000000000000023c .LVL39
GAS LISTING /tmp/cc0QfAMO.s 			page 56


     /tmp/cc0QfAMO.s:396    .text:000000000000026c .LVL44
     /tmp/cc0QfAMO.s:400    .text:0000000000000274 .LVL45
     /tmp/cc0QfAMO.s:424    .text:000000000000029c .LVL48
     /tmp/cc0QfAMO.s:428    .text:00000000000002a8 .LVL49
     /tmp/cc0QfAMO.s:436    .text:00000000000002b8 .LVL51
     /tmp/cc0QfAMO.s:440    .text:00000000000002c4 .LVL52
     /tmp/cc0QfAMO.s:5678   .debug_str:0000000000000240 .LASF166
     /tmp/cc0QfAMO.s:5968   .debug_str:0000000000000b28 .LASF167
     /tmp/cc0QfAMO.s:210    .text:0000000000000124 .LFB24
     /tmp/cc0QfAMO.s:275    .text:00000000000001a0 .LFE24
     /tmp/cc0QfAMO.s:5463   .debug_loc:000000000000058e .LLST5
     /tmp/cc0QfAMO.s:232    .text:0000000000000148 .LBB10
     /tmp/cc0QfAMO.s:261    .text:000000000000018c .LBE10
     /tmp/cc0QfAMO.s:5477   .debug_loc:00000000000005c7 .LLST6
     /tmp/cc0QfAMO.s:245    .text:0000000000000168 .LVL26
     /tmp/cc0QfAMO.s:250    .text:0000000000000174 .LVL27
     /tmp/cc0QfAMO.s:255    .text:0000000000000184 .LVL28
     /tmp/cc0QfAMO.s:229    .text:0000000000000148 .LVL24
     /tmp/cc0QfAMO.s:5852   .debug_str:00000000000007fe .LASF168
     /tmp/cc0QfAMO.s:5934   .debug_str:0000000000000a3c .LASF169
     /tmp/cc0QfAMO.s:139    .text:00000000000000a8 .LFB23
     /tmp/cc0QfAMO.s:204    .text:0000000000000124 .LFE23
     /tmp/cc0QfAMO.s:5489   .debug_loc:00000000000005fe .LLST3
     /tmp/cc0QfAMO.s:161    .text:00000000000000cc .LBB9
     /tmp/cc0QfAMO.s:190    .text:0000000000000110 .LBE9
     /tmp/cc0QfAMO.s:5503   .debug_loc:0000000000000637 .LLST4
     /tmp/cc0QfAMO.s:174    .text:00000000000000ec .LVL17
     /tmp/cc0QfAMO.s:179    .text:00000000000000f8 .LVL18
     /tmp/cc0QfAMO.s:184    .text:0000000000000108 .LVL19
     /tmp/cc0QfAMO.s:158    .text:00000000000000cc .LVL15
     /tmp/cc0QfAMO.s:5950   .debug_str:0000000000000aa8 .LASF170
     /tmp/cc0QfAMO.s:5690   .debug_str:000000000000029a .LASF171
     /tmp/cc0QfAMO.s:60     .text:000000000000002c .LFB22
     /tmp/cc0QfAMO.s:125    .text:00000000000000a8 .LFE22
     /tmp/cc0QfAMO.s:5515   .debug_loc:000000000000066e .LLST1
     /tmp/cc0QfAMO.s:82     .text:0000000000000050 .LBB8
     /tmp/cc0QfAMO.s:111    .text:0000000000000094 .LBE8
     /tmp/cc0QfAMO.s:5529   .debug_loc:00000000000006a7 .LLST2
     /tmp/cc0QfAMO.s:95     .text:0000000000000070 .LVL8
     /tmp/cc0QfAMO.s:100    .text:000000000000007c .LVL9
     /tmp/cc0QfAMO.s:105    .text:000000000000008c .LVL10
     /tmp/cc0QfAMO.s:79     .text:0000000000000050 .LVL6
     /tmp/cc0QfAMO.s:5712   .debug_str:0000000000000344 .LASF172
     /tmp/cc0QfAMO.s:5644   .debug_str:0000000000000128 .LASF173
     /tmp/cc0QfAMO.s:15     .text:0000000000000000 .LFB21
     /tmp/cc0QfAMO.s:43     .text:000000000000002c .LFE21
     /tmp/cc0QfAMO.s:5541   .debug_loc:00000000000006de .LLST0
     /tmp/cc0QfAMO.s:35     .text:0000000000000020 .LVL2
     /tmp/cc0QfAMO.s:39     .text:0000000000000028 .LVL3
     /tmp/cc0QfAMO.s:5650   .debug_str:0000000000000154 .LASF188
     /tmp/cc0QfAMO.s:5786   .debug_str:000000000000058b .LASF174
     /tmp/cc0QfAMO.s:5732   .debug_str:00000000000003cc .LASF175
     /tmp/cc0QfAMO.s:5708   .debug_str:000000000000032f .LASF176
     /tmp/cc0QfAMO.s:5812   .debug_str:00000000000006dd .LASF177
     /tmp/cc0QfAMO.s:5970   .debug_str:0000000000000b43 .LASF189
     /tmp/cc0QfAMO.s:5634   .debug_str:00000000000000cc .LASF190
     /tmp/cc0QfAMO.s:5888   .debug_str:00000000000008f2 .LASF178
GAS LISTING /tmp/cc0QfAMO.s 			page 57


     /tmp/cc0QfAMO.s:1302   .text:00000000000007e8 .LVL142
     /tmp/cc0QfAMO.s:1487   .text:0000000000000980 .LVL171
     /tmp/cc0QfAMO.s:1491   .text:0000000000000984 .LVL172
     /tmp/cc0QfAMO.s:1252   .text:000000000000078c .LVL137
     /tmp/cc0QfAMO.s:1297   .text:00000000000007e4 .LVL141
     /tmp/cc0QfAMO.s:1323   .text:0000000000000810 .LVL145
     /tmp/cc0QfAMO.s:1378   .text:000000000000089c .LVL153
     /tmp/cc0QfAMO.s:1381   .text:00000000000008a0 .LVL154
     /tmp/cc0QfAMO.s:1406   .text:00000000000008cc .LVL158
     /tmp/cc0QfAMO.s:1356   .text:0000000000000868 .LVL150
     /tmp/cc0QfAMO.s:1387   .text:00000000000008a8 .LVL155
     /tmp/cc0QfAMO.s:1459   .text:0000000000000950 .LVL166
     /tmp/cc0QfAMO.s:1462   .text:0000000000000954 .LVL167
     /tmp/cc0QfAMO.s:1440   .text:0000000000000924 .LVL163
     /tmp/cc0QfAMO.s:1468   .text:000000000000095c .LVL168
     /tmp/cc0QfAMO.s:1169   .text:0000000000000718 .LVL129
     /tmp/cc0QfAMO.s:1177   .text:000000000000072c .LVL131
     /tmp/cc0QfAMO.s:1191   .text:0000000000000744 .LVL133
     /tmp/cc0QfAMO.s:1197   .text:000000000000074c .LVL134
     /tmp/cc0QfAMO.s:1045   .text:000000000000064c .LVL113
     /tmp/cc0QfAMO.s:1096   .text:00000000000006a0 .LVL121
     /tmp/cc0QfAMO.s:1120   .text:00000000000006cc .LVL124
     /tmp/cc0QfAMO.s:1124   .text:00000000000006d4 .LVL125
     /tmp/cc0QfAMO.s:1115   .text:00000000000006c4 .LVL123
     /tmp/cc0QfAMO.s:1064   .text:0000000000000660 .LVL116
     /tmp/cc0QfAMO.s:1078   .text:000000000000067c .LVL118
     /tmp/cc0QfAMO.s:961    .text:00000000000005cc .LVL104
     /tmp/cc0QfAMO.s:965    .text:00000000000005d0 .LVL105
     /tmp/cc0QfAMO.s:973    .text:00000000000005e4 .LVL107
     /tmp/cc0QfAMO.s:987    .text:00000000000005fc .LVL109
     /tmp/cc0QfAMO.s:993    .text:0000000000000604 .LVL110
     /tmp/cc0QfAMO.s:762    .text:000000000000045c .LVL80
     /tmp/cc0QfAMO.s:803    .text:00000000000004ac .LVL84
     /tmp/cc0QfAMO.s:809    .text:00000000000004b0 .LVL85
     /tmp/cc0QfAMO.s:829    .text:00000000000004d8 .LVL87
     /tmp/cc0QfAMO.s:832    .text:00000000000004dc .LVL88
     /tmp/cc0QfAMO.s:849    .text:00000000000004f4 .LVL91
     /tmp/cc0QfAMO.s:838    .text:00000000000004e4 .LVL89
     /tmp/cc0QfAMO.s:851    .text:00000000000004f8 .LVL92
     /tmp/cc0QfAMO.s:885    .text:000000000000053c .LVL96
     /tmp/cc0QfAMO.s:904    .text:0000000000000564 .LVL98
     /tmp/cc0QfAMO.s:906    .text:0000000000000568 .LVL99
     /tmp/cc0QfAMO.s:912    .text:0000000000000570 .LVL100
     /tmp/cc0QfAMO.s:601    .text:00000000000003a8 .LVL68
     /tmp/cc0QfAMO.s:622    .text:00000000000003d4 .LVL72
     /tmp/cc0QfAMO.s:634    .text:00000000000003f0 .LVL75
     /tmp/cc0QfAMO.s:548    .text:000000000000034c .LVL60
     /tmp/cc0QfAMO.s:604    .text:00000000000003ac .LVL69
     /tmp/cc0QfAMO.s:570    .text:0000000000000378 .LVL64
     /tmp/cc0QfAMO.s:576    .text:000000000000037c .LVL65
     /tmp/cc0QfAMO.s:411    .text:0000000000000280 .LVL46
     /tmp/cc0QfAMO.s:432    .text:00000000000002ac .LVL50
     /tmp/cc0QfAMO.s:414    .text:0000000000000284 .LVL47
     /tmp/cc0QfAMO.s:365    .text:0000000000000240 .LVL40
     /tmp/cc0QfAMO.s:372    .text:0000000000000244 .LVL41
     /tmp/cc0QfAMO.s:380    .text:0000000000000250 .LVL42
     /tmp/cc0QfAMO.s:386    .text:0000000000000254 .LVL43
GAS LISTING /tmp/cc0QfAMO.s 			page 58


     /tmp/cc0QfAMO.s:213    .text:0000000000000124 .LVL22
     /tmp/cc0QfAMO.s:227    .text:0000000000000140 .LVL23
     /tmp/cc0QfAMO.s:235    .text:000000000000014c .LVL25
     /tmp/cc0QfAMO.s:270    .text:0000000000000198 .LVL30
     /tmp/cc0QfAMO.s:142    .text:00000000000000a8 .LVL13
     /tmp/cc0QfAMO.s:156    .text:00000000000000c4 .LVL14
     /tmp/cc0QfAMO.s:164    .text:00000000000000d0 .LVL16
     /tmp/cc0QfAMO.s:199    .text:000000000000011c .LVL21
     /tmp/cc0QfAMO.s:63     .text:000000000000002c .LVL4
     /tmp/cc0QfAMO.s:77     .text:0000000000000048 .LVL5
     /tmp/cc0QfAMO.s:85     .text:0000000000000054 .LVL7
     /tmp/cc0QfAMO.s:120    .text:00000000000000a0 .LVL12
     /tmp/cc0QfAMO.s:19     .text:0000000000000000 .LVL0
     /tmp/cc0QfAMO.s:28     .text:0000000000000010 .LVL1
     /tmp/cc0QfAMO.s:1540   .debug_info:0000000000000000 .Ldebug_info0
     /tmp/cc0QfAMO.s:814    .text:00000000000004b8 .LBB19
     /tmp/cc0QfAMO.s:825    .text:00000000000004d4 .LBE19
     /tmp/cc0QfAMO.s:834    .text:00000000000004dc .LBB20
     /tmp/cc0QfAMO.s:844    .text:00000000000004f0 .LBE20
     /tmp/cc0QfAMO.s:890    .text:0000000000000544 .LBB23
     /tmp/cc0QfAMO.s:901    .text:0000000000000560 .LBE23
     /tmp/cc0QfAMO.s:908    .text:0000000000000568 .LBB24
     /tmp/cc0QfAMO.s:918    .text:000000000000057c .LBE24
     /tmp/cc0QfAMO.s:1036   .text:000000000000063c .LBB25
     /tmp/cc0QfAMO.s:1039   .text:0000000000000640 .LBE25
     /tmp/cc0QfAMO.s:1047   .text:000000000000064c .LBB28
     /tmp/cc0QfAMO.s:1081   .text:000000000000067c .LBE28
     /tmp/cc0QfAMO.s:1048   .text:000000000000064c .LBB26
     /tmp/cc0QfAMO.s:1061   .text:000000000000065c .LBE26
     /tmp/cc0QfAMO.s:1070   .text:000000000000066c .LBB27
     /tmp/cc0QfAMO.s:1080   .text:000000000000067c .LBE27
     /tmp/cc0QfAMO.s:1327   .text:0000000000000818 .LBB32
     /tmp/cc0QfAMO.s:1374   .text:0000000000000898 .LBE32
     /tmp/cc0QfAMO.s:1383   .text:00000000000008a0 .LBB33
     /tmp/cc0QfAMO.s:1401   .text:00000000000008c8 .LBE33
     /tmp/cc0QfAMO.s:1411   .text:00000000000008d4 .LBB35
     /tmp/cc0QfAMO.s:1455   .text:000000000000094c .LBE35
     /tmp/cc0QfAMO.s:1464   .text:0000000000000954 .LBB36
     /tmp/cc0QfAMO.s:1482   .text:000000000000097c .LBE36
     /tmp/cc0QfAMO.s:446    .gcc_except_table:0000000000000000 .LLSDA25
     /tmp/cc0QfAMO.s:647    .gcc_except_table:000000000000005f .LLSDA26

UNDEFINED SYMBOLS
_ZN5Riscv11printStringEPKc
thread_dispatch
_ZN5Riscv12printIntegerEm
_Znwm
_ZN6ThreadC1EPFvPvES0_
_ZN6Thread5startEv
_ZN5Riscv16enableInterruptsEv
_ZN5Riscv17disableInterruptsEv
_ZdlPv
_Unwind_Resume
__gxx_personality_v0
mem_alloc
mem_free
HEAP_END_ADDR
GAS LISTING /tmp/cc0QfAMO.s 			page 59


HEAP_START_ADDR
