GAS LISTING /tmp/cc7WLpkD.s 			page 1


   1              		.file	"Tests.cpp"
   2              		.option pic
   3              		.option norelax
   4              		.text
   5              	.Ltext0:
   6              		.section	.text._ZN6Thread3runEv,"axG",@progbits,_ZN6Thread3runEv,comdat
   7              		.align	2
   8              		.weak	_ZN6Thread3runEv
  10              	_ZN6Thread3runEv:
  11              	.LFB21:
  12              		.file 1 "src/../h/syscall_cpp.hpp"
   1:src/../h/syscall_cpp.hpp **** //
   2:src/../h/syscall_cpp.hpp **** // Created by os on 4/8/22.
   3:src/../h/syscall_cpp.hpp **** //
   4:src/../h/syscall_cpp.hpp **** 
   5:src/../h/syscall_cpp.hpp **** #ifndef PROJECT_BASE_V1_0_SYSCALL_CPP_HPP
   6:src/../h/syscall_cpp.hpp **** #define PROJECT_BASE_V1_0_SYSCALL_CPP_HPP
   7:src/../h/syscall_cpp.hpp **** 
   8:src/../h/syscall_cpp.hpp **** #include "syscall_c.h"
   9:src/../h/syscall_cpp.hpp **** #include "PCB.hpp"
  10:src/../h/syscall_cpp.hpp **** #include "KSemaphore.hpp"
  11:src/../h/syscall_cpp.hpp **** 
  12:src/../h/syscall_cpp.hpp **** void * operator new(size_t size);
  13:src/../h/syscall_cpp.hpp **** 
  14:src/../h/syscall_cpp.hpp **** void operator delete(void * p);
  15:src/../h/syscall_cpp.hpp **** 
  16:src/../h/syscall_cpp.hpp **** class Thread
  17:src/../h/syscall_cpp.hpp **** {
  18:src/../h/syscall_cpp.hpp **** public:
  19:src/../h/syscall_cpp.hpp ****     Thread(void (*body)(void*), void* args);
  20:src/../h/syscall_cpp.hpp **** 
  21:src/../h/syscall_cpp.hpp ****     //todo
  22:src/../h/syscall_cpp.hpp ****     virtual ~Thread();
  23:src/../h/syscall_cpp.hpp **** 
  24:src/../h/syscall_cpp.hpp ****     int start();
  25:src/../h/syscall_cpp.hpp **** 
  26:src/../h/syscall_cpp.hpp ****     static void dispatch();
  27:src/../h/syscall_cpp.hpp **** 
  28:src/../h/syscall_cpp.hpp ****     static void sleep(time_t);
  29:src/../h/syscall_cpp.hpp **** 
  30:src/../h/syscall_cpp.hpp ****     //todo
  31:src/../h/syscall_cpp.hpp ****     //vrati u private
  32:src/../h/syscall_cpp.hpp ****     //ovde je samo za potrebe testiranja
  33:src/../h/syscall_cpp.hpp ****     thread_t myHandle;
  34:src/../h/syscall_cpp.hpp **** protected:
  35:src/../h/syscall_cpp.hpp ****     Thread();
  36:src/../h/syscall_cpp.hpp **** 
  37:src/../h/syscall_cpp.hpp ****     virtual void run() {}
  13              		.loc 1 37 18
  14              		.cfi_startproc
  15              	.LVL0:
  16 0000 130101FF 		addi	sp,sp,-16
  17              		.cfi_def_cfa_offset 16
  18 0004 23348100 		sd	s0,8(sp)
  19              		.cfi_offset 8, -8
  20 0008 13040101 		addi	s0,sp,16
  21              		.cfi_def_cfa 8, 0
GAS LISTING /tmp/cc7WLpkD.s 			page 2


  22              		.loc 1 37 25 is_stmt 0
  23 000c 03348100 		ld	s0,8(sp)
  24              		.cfi_restore 8
  25              		.cfi_def_cfa 2, 16
  26 0010 13010101 		addi	sp,sp,16
  27              		.cfi_def_cfa_offset 0
  28 0014 67800000 		jr	ra
  29              		.cfi_endproc
  30              	.LFE21:
  32              		.section	.text._ZN14PeriodicThread18periodicActivationEv,"axG",@progbits,_ZN14PeriodicThread18peri
  33              		.align	2
  34              		.weak	_ZN14PeriodicThread18periodicActivationEv
  36              	_ZN14PeriodicThread18periodicActivationEv:
  37              	.LFB22:
  38:src/../h/syscall_cpp.hpp **** private:
  39:src/../h/syscall_cpp.hpp ****     void (*f)(void*);
  40:src/../h/syscall_cpp.hpp ****     void* args;
  41:src/../h/syscall_cpp.hpp ****     static void runner(void* t);
  42:src/../h/syscall_cpp.hpp **** };
  43:src/../h/syscall_cpp.hpp **** 
  44:src/../h/syscall_cpp.hpp **** class Semaphore
  45:src/../h/syscall_cpp.hpp **** {
  46:src/../h/syscall_cpp.hpp **** public:
  47:src/../h/syscall_cpp.hpp ****     Semaphore(unsigned init = 1);
  48:src/../h/syscall_cpp.hpp **** 
  49:src/../h/syscall_cpp.hpp ****     virtual ~Semaphore();
  50:src/../h/syscall_cpp.hpp **** 
  51:src/../h/syscall_cpp.hpp ****     int wait();
  52:src/../h/syscall_cpp.hpp ****     int signal();
  53:src/../h/syscall_cpp.hpp **** 
  54:src/../h/syscall_cpp.hpp **** private:
  55:src/../h/syscall_cpp.hpp ****     sem_t myHandle;
  56:src/../h/syscall_cpp.hpp **** };
  57:src/../h/syscall_cpp.hpp **** 
  58:src/../h/syscall_cpp.hpp **** class Console
  59:src/../h/syscall_cpp.hpp **** {
  60:src/../h/syscall_cpp.hpp **** public:
  61:src/../h/syscall_cpp.hpp ****     static char getc();
  62:src/../h/syscall_cpp.hpp ****     static void putc(char);
  63:src/../h/syscall_cpp.hpp **** };
  64:src/../h/syscall_cpp.hpp **** 
  65:src/../h/syscall_cpp.hpp **** class PeriodicThread : public Thread
  66:src/../h/syscall_cpp.hpp **** {
  67:src/../h/syscall_cpp.hpp **** protected:
  68:src/../h/syscall_cpp.hpp ****     PeriodicThread(time_t period);
  69:src/../h/syscall_cpp.hpp ****     virtual void periodicActivation() {};
  38              		.loc 1 69 18 is_stmt 1
  39              		.cfi_startproc
  40              	.LVL1:
  41 0000 130101FF 		addi	sp,sp,-16
  42              		.cfi_def_cfa_offset 16
  43 0004 23348100 		sd	s0,8(sp)
  44              		.cfi_offset 8, -8
  45 0008 13040101 		addi	s0,sp,16
  46              		.cfi_def_cfa 8, 0
  47              		.loc 1 69 40 is_stmt 0
  48 000c 03348100 		ld	s0,8(sp)
GAS LISTING /tmp/cc7WLpkD.s 			page 3


  49              		.cfi_restore 8
  50              		.cfi_def_cfa 2, 16
  51 0010 13010101 		addi	sp,sp,16
  52              		.cfi_def_cfa_offset 0
  53 0014 67800000 		jr	ra
  54              		.cfi_endproc
  55              	.LFE22:
  57              		.section	.rodata.str1.8,"aMS",@progbits,1
  58              		.align	3
  59              	.LC0:
  60 0000 49646C65 		.string	"Idle\n"
  60      0A00
  61              		.text
  62              		.align	2
  63              		.globl	_Z4idlePv
  65              	_Z4idlePv:
  66              	.LFB23:
  67              		.file 2 "src/Tests.cpp"
   1:src/Tests.cpp **** //
   2:src/Tests.cpp **** // Created by os on 5/5/22.
   3:src/Tests.cpp **** //
   4:src/Tests.cpp **** 
   5:src/Tests.cpp **** #include "../h/Tests.hpp"
   6:src/Tests.cpp **** #include "../lib/console.h"
   7:src/Tests.cpp **** 
   8:src/Tests.cpp **** void idle(void* args)
   9:src/Tests.cpp **** {
  68              		.loc 2 9 1 is_stmt 1
  69              		.cfi_startproc
  70              	.LVL2:
  71 0000 130101FF 		addi	sp,sp,-16
  72              		.cfi_def_cfa_offset 16
  73 0004 23341100 		sd	ra,8(sp)
  74 0008 23308100 		sd	s0,0(sp)
  75              		.cfi_offset 1, -8
  76              		.cfi_offset 8, -16
  77 000c 13040101 		addi	s0,sp,16
  78              		.cfi_def_cfa 8, 0
  79              	.LVL3:
  80              	.L6:
  10:src/Tests.cpp ****     while(true)
  81              		.loc 2 10 5 discriminator 1
  11:src/Tests.cpp ****     {
  12:src/Tests.cpp ****         Riscv::printString("Idle\n");
  82              		.loc 2 12 9 discriminator 1
  83              		.loc 2 12 27 is_stmt 0 discriminator 1
  84 0010 17050000 		lla	a0,.LC0
  84      13050500 
  85 0018 97000000 		call	_ZN5Riscv11printStringEPKc@plt
  85      E7800000 
  86              	.LVL4:
  13:src/Tests.cpp ****         thread_dispatch();
  87              		.loc 2 13 9 is_stmt 1 discriminator 1
  88              		.loc 2 13 24 is_stmt 0 discriminator 1
  89 0020 97000000 		call	thread_dispatch@plt
  89      E7800000 
  90              	.LVL5:
GAS LISTING /tmp/cc7WLpkD.s 			page 4


  10:src/Tests.cpp ****     while(true)
  91              		.loc 2 10 5 is_stmt 1 discriminator 1
  92 0028 6FF09FFE 		j	.L6
  93              		.cfi_endproc
  94              	.LFE23:
  96              		.section	.rodata.str1.8
  97 0006 0000     		.align	3
  98              	.LC1:
  99 0008 54687265 		.string	"Thread 1 started...\n"
  99      61642031 
  99      20737461 
  99      72746564 
  99      2E2E2E0A 
 100 001d 000000   		.align	3
 101              	.LC2:
 102 0020 69203A20 		.string	"i : "
 102      00
 103 0025 000000   		.align	3
 104              	.LC3:
 105 0028 0A00     		.string	"\n"
 106              		.text
 107              		.align	2
 108              		.globl	_Z15thread1FunctionPv
 110              	_Z15thread1FunctionPv:
 111              	.LFB24:
  14:src/Tests.cpp ****     }
  15:src/Tests.cpp **** }
  16:src/Tests.cpp **** 
  17:src/Tests.cpp **** void thread1Function(void* p)
  18:src/Tests.cpp **** {
 112              		.loc 2 18 1
 113              		.cfi_startproc
 114              	.LVL6:
 115 002c 130101FE 		addi	sp,sp,-32
 116              		.cfi_def_cfa_offset 32
 117 0030 233C1100 		sd	ra,24(sp)
 118 0034 23388100 		sd	s0,16(sp)
 119 0038 23349100 		sd	s1,8(sp)
 120              		.cfi_offset 1, -8
 121              		.cfi_offset 8, -16
 122              		.cfi_offset 9, -24
 123 003c 13040102 		addi	s0,sp,32
 124              		.cfi_def_cfa 8, 0
  19:src/Tests.cpp ****     Riscv::printString("Thread 1 started...\n");
 125              		.loc 2 19 5
 126              		.loc 2 19 23 is_stmt 0
 127 0040 17050000 		lla	a0,.LC1
 127      13050500 
 128              	.LVL7:
 129 0048 97000000 		call	_ZN5Riscv11printStringEPKc@plt
 129      E7800000 
 130              	.LVL8:
  20:src/Tests.cpp ****     uint64 num = 10000;
 131              		.loc 2 20 5 is_stmt 1
  21:src/Tests.cpp ****     for(uint64 i = 0; i < num;i++)
 132              		.loc 2 21 5
 133              	.LBB20:
GAS LISTING /tmp/cc7WLpkD.s 			page 5


 134              		.loc 2 21 16 is_stmt 0
 135 0050 93040000 		li	s1,0
 136 0054 6F00C003 		j	.L11
 137              	.LVL9:
 138              	.L13:
  22:src/Tests.cpp ****     {
  23:src/Tests.cpp ****         if(i % 150 == 0 && i > 0)
  24:src/Tests.cpp ****             thread_dispatch();
 139              		.loc 2 24 13 is_stmt 1
 140              		.loc 2 24 28 is_stmt 0
 141 0058 97000000 		call	thread_dispatch@plt
 141      E7800000 
 142              	.LVL10:
 143              	.L10:
  25:src/Tests.cpp ****         Riscv::printString("i : ");
 144              		.loc 2 25 9 is_stmt 1 discriminator 2
 145              		.loc 2 25 27 is_stmt 0 discriminator 2
 146 0060 17050000 		lla	a0,.LC2
 146      13050500 
 147 0068 97000000 		call	_ZN5Riscv11printStringEPKc@plt
 147      E7800000 
 148              	.LVL11:
  26:src/Tests.cpp ****         Riscv::printInteger(i);
 149              		.loc 2 26 9 is_stmt 1 discriminator 2
 150              		.loc 2 26 28 is_stmt 0 discriminator 2
 151 0070 13850400 		mv	a0,s1
 152 0074 97000000 		call	_ZN5Riscv12printIntegerEm@plt
 152      E7800000 
 153              	.LVL12:
  27:src/Tests.cpp ****         Riscv::printString("\n");
 154              		.loc 2 27 9 is_stmt 1 discriminator 2
 155              		.loc 2 27 27 is_stmt 0 discriminator 2
 156 007c 17050000 		lla	a0,.LC3
 156      13050500 
 157 0084 97000000 		call	_ZN5Riscv11printStringEPKc@plt
 157      E7800000 
 158              	.LVL13:
  21:src/Tests.cpp ****     {
 159              		.loc 2 21 5 is_stmt 1 discriminator 2
 160 008c 93841400 		addi	s1,s1,1
 161              	.LVL14:
 162              	.L11:
  21:src/Tests.cpp ****     {
 163              		.loc 2 21 25 discriminator 1
 164 0090 B7270000 		li	a5,8192
 165 0094 9387F770 		addi	a5,a5,1807
 166 0098 63EC9700 		bgtu	s1,a5,.L8
  23:src/Tests.cpp ****             thread_dispatch();
 167              		.loc 2 23 9
  23:src/Tests.cpp ****             thread_dispatch();
 168              		.loc 2 23 14 is_stmt 0
 169 009c 93076009 		li	a5,150
 170 00a0 B3F7F402 		remu	a5,s1,a5
  23:src/Tests.cpp ****             thread_dispatch();
 171              		.loc 2 23 9
 172 00a4 E39E07FA 		bnez	a5,.L10
  23:src/Tests.cpp ****             thread_dispatch();
GAS LISTING /tmp/cc7WLpkD.s 			page 6


 173              		.loc 2 23 25 discriminator 1
 174 00a8 E38C04FA 		beqz	s1,.L10
 175 00ac 6FF0DFFA 		j	.L13
 176              	.L8:
 177              	.LBE20:
  28:src/Tests.cpp ****     }
  29:src/Tests.cpp **** }
 178              		.loc 2 29 1
 179 00b0 83308101 		ld	ra,24(sp)
 180              		.cfi_restore 1
 181 00b4 03340101 		ld	s0,16(sp)
 182              		.cfi_restore 8
 183              		.cfi_def_cfa 2, 32
 184 00b8 83348100 		ld	s1,8(sp)
 185              		.cfi_restore 9
 186              	.LVL15:
 187 00bc 13010102 		addi	sp,sp,32
 188              		.cfi_def_cfa_offset 0
 189 00c0 67800000 		jr	ra
 190              		.cfi_endproc
 191              	.LFE24:
 193              		.section	.rodata.str1.8
 194 002a 00000000 		.align	3
 194      0000
 195              	.LC4:
 196 0030 54687265 		.string	"Thread 2 started...\n"
 196      61642032 
 196      20737461 
 196      72746564 
 196      2E2E2E0A 
 197 0045 000000   		.align	3
 198              	.LC5:
 199 0048 6A203A20 		.string	"j : "
 199      00
 200              		.text
 201              		.align	2
 202              		.globl	_Z15thread2FunctionPv
 204              	_Z15thread2FunctionPv:
 205              	.LFB25:
  30:src/Tests.cpp **** 
  31:src/Tests.cpp **** void thread2Function(void* p)
  32:src/Tests.cpp **** {
 206              		.loc 2 32 1 is_stmt 1
 207              		.cfi_startproc
 208              	.LVL16:
 209 00c4 130101FE 		addi	sp,sp,-32
 210              		.cfi_def_cfa_offset 32
 211 00c8 233C1100 		sd	ra,24(sp)
 212 00cc 23388100 		sd	s0,16(sp)
 213 00d0 23349100 		sd	s1,8(sp)
 214              		.cfi_offset 1, -8
 215              		.cfi_offset 8, -16
 216              		.cfi_offset 9, -24
 217 00d4 13040102 		addi	s0,sp,32
 218              		.cfi_def_cfa 8, 0
  33:src/Tests.cpp ****     Riscv::printString("Thread 2 started...\n");
 219              		.loc 2 33 5
GAS LISTING /tmp/cc7WLpkD.s 			page 7


 220              		.loc 2 33 23 is_stmt 0
 221 00d8 17050000 		lla	a0,.LC4
 221      13050500 
 222              	.LVL17:
 223 00e0 97000000 		call	_ZN5Riscv11printStringEPKc@plt
 223      E7800000 
 224              	.LVL18:
  34:src/Tests.cpp ****     uint64 num = 10000;
 225              		.loc 2 34 5 is_stmt 1
  35:src/Tests.cpp ****     for(uint64 j = 0; j < num;j++)
 226              		.loc 2 35 5
 227              	.LBB21:
 228              		.loc 2 35 16 is_stmt 0
 229 00e8 93040000 		li	s1,0
 230 00ec 6F00C003 		j	.L17
 231              	.LVL19:
 232              	.L19:
  36:src/Tests.cpp ****     {
  37:src/Tests.cpp ****         if(j % 50 == 0 && j > 0)
  38:src/Tests.cpp ****             thread_dispatch();
 233              		.loc 2 38 13 is_stmt 1
 234              		.loc 2 38 28 is_stmt 0
 235 00f0 97000000 		call	thread_dispatch@plt
 235      E7800000 
 236              	.LVL20:
 237              	.L16:
  39:src/Tests.cpp ****         Riscv::printString("j : ");
 238              		.loc 2 39 9 is_stmt 1 discriminator 2
 239              		.loc 2 39 27 is_stmt 0 discriminator 2
 240 00f8 17050000 		lla	a0,.LC5
 240      13050500 
 241 0100 97000000 		call	_ZN5Riscv11printStringEPKc@plt
 241      E7800000 
 242              	.LVL21:
  40:src/Tests.cpp ****         Riscv::printInteger(j);
 243              		.loc 2 40 9 is_stmt 1 discriminator 2
 244              		.loc 2 40 28 is_stmt 0 discriminator 2
 245 0108 13850400 		mv	a0,s1
 246 010c 97000000 		call	_ZN5Riscv12printIntegerEm@plt
 246      E7800000 
 247              	.LVL22:
  41:src/Tests.cpp ****         Riscv::printString("\n");
 248              		.loc 2 41 9 is_stmt 1 discriminator 2
 249              		.loc 2 41 27 is_stmt 0 discriminator 2
 250 0114 17050000 		lla	a0,.LC3
 250      13050500 
 251 011c 97000000 		call	_ZN5Riscv11printStringEPKc@plt
 251      E7800000 
 252              	.LVL23:
  35:src/Tests.cpp ****     {
 253              		.loc 2 35 5 is_stmt 1 discriminator 2
 254 0124 93841400 		addi	s1,s1,1
 255              	.LVL24:
 256              	.L17:
  35:src/Tests.cpp ****     {
 257              		.loc 2 35 25 discriminator 1
 258 0128 B7270000 		li	a5,8192
GAS LISTING /tmp/cc7WLpkD.s 			page 8


 259 012c 9387F770 		addi	a5,a5,1807
 260 0130 63EC9700 		bgtu	s1,a5,.L14
  37:src/Tests.cpp ****             thread_dispatch();
 261              		.loc 2 37 9
  37:src/Tests.cpp ****             thread_dispatch();
 262              		.loc 2 37 14 is_stmt 0
 263 0134 93072003 		li	a5,50
 264 0138 B3F7F402 		remu	a5,s1,a5
  37:src/Tests.cpp ****             thread_dispatch();
 265              		.loc 2 37 9
 266 013c E39E07FA 		bnez	a5,.L16
  37:src/Tests.cpp ****             thread_dispatch();
 267              		.loc 2 37 24 discriminator 1
 268 0140 E38C04FA 		beqz	s1,.L16
 269 0144 6FF0DFFA 		j	.L19
 270              	.L14:
 271              	.LBE21:
  42:src/Tests.cpp ****     }
  43:src/Tests.cpp **** }
 272              		.loc 2 43 1
 273 0148 83308101 		ld	ra,24(sp)
 274              		.cfi_restore 1
 275 014c 03340101 		ld	s0,16(sp)
 276              		.cfi_restore 8
 277              		.cfi_def_cfa 2, 32
 278 0150 83348100 		ld	s1,8(sp)
 279              		.cfi_restore 9
 280              	.LVL25:
 281 0154 13010102 		addi	sp,sp,32
 282              		.cfi_def_cfa_offset 0
 283 0158 67800000 		jr	ra
 284              		.cfi_endproc
 285              	.LFE25:
 287              		.align	2
 288              		.globl	_ZN12TestPeriodic18periodicActivationEv
 290              	_ZN12TestPeriodic18periodicActivationEv:
 291              	.LFB55:
  44:src/Tests.cpp **** 
  45:src/Tests.cpp **** void thread2FunctionTest2(void* p)
  46:src/Tests.cpp **** {
  47:src/Tests.cpp ****     Riscv::printString("Thread 2 started...\n");
  48:src/Tests.cpp ****     uint64 num = 10000;
  49:src/Tests.cpp ****     for(uint64 j = 0; j < num;j++)
  50:src/Tests.cpp ****     {
  51:src/Tests.cpp ****         if(j == 200)
  52:src/Tests.cpp ****             thread_exit();
  53:src/Tests.cpp ****         if(j % 50 == 0 && j > 0)
  54:src/Tests.cpp ****             thread_dispatch();
  55:src/Tests.cpp ****         Riscv::printString("j : ");
  56:src/Tests.cpp ****         Riscv::printInteger(j);
  57:src/Tests.cpp ****         Riscv::printString("\n");
  58:src/Tests.cpp ****     }
  59:src/Tests.cpp **** }
  60:src/Tests.cpp **** 
  61:src/Tests.cpp **** void threadTest1()
  62:src/Tests.cpp **** {
  63:src/Tests.cpp ****     Thread* t1 = new Thread(&thread1Function, 0);
GAS LISTING /tmp/cc7WLpkD.s 			page 9


  64:src/Tests.cpp ****     t1->start();
  65:src/Tests.cpp ****     Thread* t2 = new Thread(&thread2Function, 0);
  66:src/Tests.cpp ****     t2->start();
  67:src/Tests.cpp ****     Riscv::enableInterrupts();
  68:src/Tests.cpp ****     while(((PCB*)(t1->myHandle))->getState() != PCB::FINISHED || ((PCB*)(t2->myHandle))->getState()
  69:src/Tests.cpp ****     {
  70:src/Tests.cpp ****         Riscv::printString("Main thread\n");
  71:src/Tests.cpp ****         thread_dispatch();
  72:src/Tests.cpp ****     }
  73:src/Tests.cpp **** 
  74:src/Tests.cpp ****     Riscv::printString("End...\n");
  75:src/Tests.cpp ****     Riscv::disableInterrupts();
  76:src/Tests.cpp **** }
  77:src/Tests.cpp **** 
  78:src/Tests.cpp **** void threadTest2()
  79:src/Tests.cpp **** {
  80:src/Tests.cpp ****     Thread* idleThread = new Thread(&idle, 0);
  81:src/Tests.cpp ****     idleThread->start();
  82:src/Tests.cpp ****     Thread* t1 = new Thread(&thread1Function, 0);
  83:src/Tests.cpp ****     t1->start();
  84:src/Tests.cpp ****     Thread* t2  = new Thread(&thread2FunctionTest2, 0);
  85:src/Tests.cpp ****     t2->start();
  86:src/Tests.cpp **** 
  87:src/Tests.cpp ****     Riscv::enableInterrupts();
  88:src/Tests.cpp **** 
  89:src/Tests.cpp ****     while(((PCB*)idleThread->myHandle)->getState() != PCB::FINISHED);
  90:src/Tests.cpp **** 
  91:src/Tests.cpp ****     Riscv::printString("End...\n");
  92:src/Tests.cpp **** 
  93:src/Tests.cpp ****     Riscv::disableInterrupts();
  94:src/Tests.cpp **** }
  95:src/Tests.cpp **** 
  96:src/Tests.cpp **** 
  97:src/Tests.cpp **** void threadTest3()
  98:src/Tests.cpp **** {
  99:src/Tests.cpp ****     Thread* t = new TestPeriodic(50);
 100:src/Tests.cpp ****     t->start();
 101:src/Tests.cpp ****     while(true)
 102:src/Tests.cpp ****     {
 103:src/Tests.cpp ****         //thread_dispatch();
 104:src/Tests.cpp ****     }
 105:src/Tests.cpp **** }
 106:src/Tests.cpp **** 
 107:src/Tests.cpp **** void threadTests()
 108:src/Tests.cpp **** {
 109:src/Tests.cpp ****     //threadTest1();
 110:src/Tests.cpp ****     //threadTest2();
 111:src/Tests.cpp ****     threadTest3();
 112:src/Tests.cpp **** }
 113:src/Tests.cpp **** 
 114:src/Tests.cpp **** 
 115:src/Tests.cpp **** //memory (de)allocation tests
 116:src/Tests.cpp **** void mallocFree()
 117:src/Tests.cpp **** {
 118:src/Tests.cpp ****     Riscv::printString("mallocFree\n");
 119:src/Tests.cpp ****     constexpr int num = 100;
 120:src/Tests.cpp ****     void* addrs[num];
GAS LISTING /tmp/cc7WLpkD.s 			page 10


 121:src/Tests.cpp ****     for(int i = 0; i < num;i++)
 122:src/Tests.cpp ****     {
 123:src/Tests.cpp ****         addrs[i] = mem_alloc(100);
 124:src/Tests.cpp ****         if(addrs[i] == 0)
 125:src/Tests.cpp ****         {
 126:src/Tests.cpp ****             Riscv::printString("not OK\n");
 127:src/Tests.cpp ****             return;
 128:src/Tests.cpp ****         }
 129:src/Tests.cpp **** 
 130:src/Tests.cpp ****     }
 131:src/Tests.cpp **** 
 132:src/Tests.cpp ****     for(int i = 0 ; i < num;i+=2)
 133:src/Tests.cpp ****     {
 134:src/Tests.cpp ****         int retval = mem_free(addrs[i]);
 135:src/Tests.cpp ****         if(retval != 0)
 136:src/Tests.cpp ****         {
 137:src/Tests.cpp ****             Riscv::printString("not OK\n");
 138:src/Tests.cpp ****             return;
 139:src/Tests.cpp ****         }
 140:src/Tests.cpp ****     }
 141:src/Tests.cpp **** 
 142:src/Tests.cpp ****     for(int i = 0 ; i < num;i+=2)
 143:src/Tests.cpp ****     {
 144:src/Tests.cpp ****         addrs[i] = mem_alloc(20);
 145:src/Tests.cpp ****         if(addrs[i] == 0)
 146:src/Tests.cpp ****         {
 147:src/Tests.cpp ****             Riscv::printString("not OK\n");
 148:src/Tests.cpp ****             return;
 149:src/Tests.cpp ****         }
 150:src/Tests.cpp ****     }
 151:src/Tests.cpp **** 
 152:src/Tests.cpp ****     for(int i = 0; i < num;i++)
 153:src/Tests.cpp ****     {
 154:src/Tests.cpp ****         int retval = mem_free(addrs[i]);
 155:src/Tests.cpp ****         if(retval != 0)
 156:src/Tests.cpp ****         {
 157:src/Tests.cpp ****             Riscv::printString("not OK\n");
 158:src/Tests.cpp ****             return;
 159:src/Tests.cpp ****         }
 160:src/Tests.cpp ****     }
 161:src/Tests.cpp **** 
 162:src/Tests.cpp ****     Riscv::printString("OK\n");
 163:src/Tests.cpp **** }
 164:src/Tests.cpp **** void bigMalloc()
 165:src/Tests.cpp **** {
 166:src/Tests.cpp ****     Riscv::printString("bigMalloc\n");
 167:src/Tests.cpp ****     uint64 x = (uint64)HEAP_END_ADDR - (uint64)HEAP_START_ADDR + 100UL;
 168:src/Tests.cpp ****     void* p = mem_alloc(x);
 169:src/Tests.cpp ****     if(p == 0)
 170:src/Tests.cpp ****         Riscv::printString("OK\n");
 171:src/Tests.cpp ****     else
 172:src/Tests.cpp ****         Riscv::printString("not OK\n");
 173:src/Tests.cpp **** }
 174:src/Tests.cpp **** 
 175:src/Tests.cpp **** void lotOfSmallMallocs()
 176:src/Tests.cpp **** {
 177:src/Tests.cpp ****     Riscv::printString("lotOfSmallMallocs\n");
GAS LISTING /tmp/cc7WLpkD.s 			page 11


 178:src/Tests.cpp ****     uint64 cnt = 0;
 179:src/Tests.cpp ****     uint64 sum = 0;
 180:src/Tests.cpp ****     uint64 N = 10000UL;
 181:src/Tests.cpp ****     uint64 X = 10UL;
 182:src/Tests.cpp ****     for(uint64 i = 0; i < N;i++)
 183:src/Tests.cpp ****     {
 184:src/Tests.cpp ****         Test* t = (Test*)mem_alloc(sizeof(Test));
 185:src/Tests.cpp ****         if(t == 0)
 186:src/Tests.cpp ****             break;
 187:src/Tests.cpp ****         t->a = X;
 188:src/Tests.cpp ****         sum+=t->a;
 189:src/Tests.cpp ****         cnt++;
 190:src/Tests.cpp ****     }
 191:src/Tests.cpp ****     Riscv::printInteger(cnt);
 192:src/Tests.cpp ****     Riscv::printString("\n");
 193:src/Tests.cpp ****     if(sum == X*cnt)
 194:src/Tests.cpp ****         Riscv::printString("OK\n");
 195:src/Tests.cpp ****     else
 196:src/Tests.cpp ****         Riscv::printString("not OK\n");
 197:src/Tests.cpp **** }
 198:src/Tests.cpp **** void badFree()
 199:src/Tests.cpp **** {
 200:src/Tests.cpp ****     Riscv::printString("badFree\n");
 201:src/Tests.cpp ****     Test* t = (Test*)mem_alloc(sizeof(Test));
 202:src/Tests.cpp ****     uint64 retval = mem_free((char*)t + 2);
 203:src/Tests.cpp ****     if(retval == 0)
 204:src/Tests.cpp ****         Riscv::printString("not OK\n");
 205:src/Tests.cpp ****     else
 206:src/Tests.cpp ****         Riscv::printString("OK\n");
 207:src/Tests.cpp **** }
 208:src/Tests.cpp **** 
 209:src/Tests.cpp **** void stressTesting()
 210:src/Tests.cpp **** {
 211:src/Tests.cpp ****     Riscv::printString("stressTesting\n");
 212:src/Tests.cpp ****     constexpr int num = 100;
 213:src/Tests.cpp ****     void* addrs[num];
 214:src/Tests.cpp ****     for(int i = 0; i < num;i++)
 215:src/Tests.cpp ****     {
 216:src/Tests.cpp ****         addrs[i] = mem_alloc(1);
 217:src/Tests.cpp ****         if(addrs[i] == 0)
 218:src/Tests.cpp ****         {
 219:src/Tests.cpp ****             //Riscv::printString("not OK\n");
 220:src/Tests.cpp ****             return;
 221:src/Tests.cpp ****         }
 222:src/Tests.cpp **** 
 223:src/Tests.cpp ****     }
 224:src/Tests.cpp ****     int sz = 300;
 225:src/Tests.cpp ****     while(sz > 0)
 226:src/Tests.cpp ****     {
 227:src/Tests.cpp ****         //Riscv::printString("sz : ");
 228:src/Tests.cpp ****         //Riscv::printInteger(sz);
 229:src/Tests.cpp ****         for(int i = 0 ; i < num;i+=2)
 230:src/Tests.cpp ****         {
 231:src/Tests.cpp ****             //Riscv::printString("i : ");
 232:src/Tests.cpp ****             //Riscv::printInteger(i);
 233:src/Tests.cpp ****             //Riscv::printString("free\n");
 234:src/Tests.cpp ****             int retval = mem_free(addrs[i]);
GAS LISTING /tmp/cc7WLpkD.s 			page 12


 235:src/Tests.cpp ****             if(retval != 0)
 236:src/Tests.cpp ****             {
 237:src/Tests.cpp ****                 //Riscv::printString("not OK\n");
 238:src/Tests.cpp ****                 return;
 239:src/Tests.cpp ****             }
 240:src/Tests.cpp ****             //Riscv::printString("alloc\n");
 241:src/Tests.cpp ****             addrs[i] = mem_alloc(sz/2);
 242:src/Tests.cpp ****             if(addrs[i] == 0)
 243:src/Tests.cpp ****             {
 244:src/Tests.cpp ****                 //Riscv::printString("not Ok\n");
 245:src/Tests.cpp ****                 return;
 246:src/Tests.cpp ****             }
 247:src/Tests.cpp **** 
 248:src/Tests.cpp ****         }
 249:src/Tests.cpp **** 
 250:src/Tests.cpp ****         for(int i = 1 ; i < num;i+=2)
 251:src/Tests.cpp ****         {
 252:src/Tests.cpp ****             //Riscv::printString("i : ");
 253:src/Tests.cpp ****             //Riscv::printInteger(i);
 254:src/Tests.cpp ****             //Riscv::printString("free\n");
 255:src/Tests.cpp ****             int retval = mem_free(addrs[i]);
 256:src/Tests.cpp ****             if(retval != 0)
 257:src/Tests.cpp ****             {
 258:src/Tests.cpp ****                 //Riscv::printString("not OK\n");
 259:src/Tests.cpp ****                 return;
 260:src/Tests.cpp ****             }
 261:src/Tests.cpp ****             //Riscv::printString("alloc\n");
 262:src/Tests.cpp ****             addrs[i] = mem_alloc(sz);
 263:src/Tests.cpp ****             if(addrs[i] == 0)
 264:src/Tests.cpp ****             {
 265:src/Tests.cpp ****                 //Riscv::printString("not Ok\n");
 266:src/Tests.cpp ****                 return;
 267:src/Tests.cpp ****             }
 268:src/Tests.cpp **** 
 269:src/Tests.cpp ****         }
 270:src/Tests.cpp ****         sz-=10;
 271:src/Tests.cpp ****     }
 272:src/Tests.cpp **** 
 273:src/Tests.cpp ****     Riscv::printString("OK\n");
 274:src/Tests.cpp **** }
 275:src/Tests.cpp **** 
 276:src/Tests.cpp **** void memoryAllocationTests()
 277:src/Tests.cpp **** {
 278:src/Tests.cpp ****     //bigMalloc();
 279:src/Tests.cpp ****     //lotOfSmallMallocs();
 280:src/Tests.cpp ****     //mallocFree();
 281:src/Tests.cpp ****     //badFree();
 282:src/Tests.cpp ****     stressTesting();
 283:src/Tests.cpp **** }
 284:src/Tests.cpp **** 
 285:src/Tests.cpp **** //semaphore tests
 286:src/Tests.cpp **** static Semaphore* mutex;
 287:src/Tests.cpp **** static Semaphore* s11, *s22;
 288:src/Tests.cpp **** 
 289:src/Tests.cpp **** void foo()
 290:src/Tests.cpp **** {
 291:src/Tests.cpp ****     s11->wait();
GAS LISTING /tmp/cc7WLpkD.s 			page 13


 292:src/Tests.cpp ****     Riscv::printString("foo exec\n");
 293:src/Tests.cpp ****     s22->signal();
 294:src/Tests.cpp **** }
 295:src/Tests.cpp **** 
 296:src/Tests.cpp **** void foo2()
 297:src/Tests.cpp **** {
 298:src/Tests.cpp ****     s22->wait();
 299:src/Tests.cpp ****     Riscv::printString("foo2 exec\n");
 300:src/Tests.cpp ****     //s11->signal();
 301:src/Tests.cpp **** }
 302:src/Tests.cpp **** 
 303:src/Tests.cpp **** 
 304:src/Tests.cpp **** void f1(void* p)
 305:src/Tests.cpp **** {
 306:src/Tests.cpp ****     Riscv::printString("f1 started\n");
 307:src/Tests.cpp ****     for(int br = 0;br < 2;br++)
 308:src/Tests.cpp ****     {
 309:src/Tests.cpp ****         //for (int i = 0; i < 2; i++)
 310:src/Tests.cpp ****         foo();
 311:src/Tests.cpp ****     }
 312:src/Tests.cpp **** }
 313:src/Tests.cpp **** 
 314:src/Tests.cpp **** void f2(void* p)
 315:src/Tests.cpp **** {
 316:src/Tests.cpp ****     Riscv::printString("f2 started\n");
 317:src/Tests.cpp ****     for(int br = 0;br < 1;br++)
 318:src/Tests.cpp ****     {
 319:src/Tests.cpp ****         foo2();
 320:src/Tests.cpp ****     }
 321:src/Tests.cpp **** }
 322:src/Tests.cpp **** 
 323:src/Tests.cpp **** void semTest1()
 324:src/Tests.cpp **** {
 325:src/Tests.cpp ****     mutex = new Semaphore(1);
 326:src/Tests.cpp ****     s11 = new Semaphore(1);
 327:src/Tests.cpp ****     s22 = new Semaphore(0);
 328:src/Tests.cpp ****     //Thread* t1 = new Thread(&f1, 0);
 329:src/Tests.cpp ****     Thread* t2 = new Thread(&f2, 0);
 330:src/Tests.cpp ****     t2->start();
 331:src/Tests.cpp ****     //t1->start();
 332:src/Tests.cpp **** 
 333:src/Tests.cpp ****     thread_dispatch();
 334:src/Tests.cpp **** 
 335:src/Tests.cpp ****     while(true)
 336:src/Tests.cpp ****     {
 337:src/Tests.cpp ****         //thread_dispatch();
 338:src/Tests.cpp ****     }
 339:src/Tests.cpp **** }
 340:src/Tests.cpp **** 
 341:src/Tests.cpp **** static Semaphore* s1;
 342:src/Tests.cpp **** static Semaphore* s2;
 343:src/Tests.cpp **** static Semaphore* s3;
 344:src/Tests.cpp **** 
 345:src/Tests.cpp **** void f1_2(void* p)
 346:src/Tests.cpp **** {
 347:src/Tests.cpp ****     Riscv::printString("f1_2 started\n");
 348:src/Tests.cpp ****     int x = 0;
GAS LISTING /tmp/cc7WLpkD.s 			page 14


 349:src/Tests.cpp ****     while(true)
 350:src/Tests.cpp ****     {
 351:src/Tests.cpp ****         x++;
 352:src/Tests.cpp ****         s1->wait();
 353:src/Tests.cpp ****         __putc('1');
 354:src/Tests.cpp ****         __putc('\n');
 355:src/Tests.cpp ****         s2->signal();
 356:src/Tests.cpp ****         if(x < 5000)
 357:src/Tests.cpp ****             thread_dispatch();
 358:src/Tests.cpp ****         else
 359:src/Tests.cpp ****             thread_exit();
 360:src/Tests.cpp ****     }
 361:src/Tests.cpp **** }
 362:src/Tests.cpp **** 
 363:src/Tests.cpp **** void f2_2(void* p)
 364:src/Tests.cpp **** {
 365:src/Tests.cpp ****     Riscv::printString("f2_2 started\n");
 366:src/Tests.cpp ****     int x = 0;
 367:src/Tests.cpp ****     while(true)
 368:src/Tests.cpp ****     {
 369:src/Tests.cpp ****         x++;
 370:src/Tests.cpp ****         s2->wait();
 371:src/Tests.cpp ****         __putc('2');
 372:src/Tests.cpp ****         __putc('\n');
 373:src/Tests.cpp ****         s3->signal();
 374:src/Tests.cpp ****         if(x < 5000)
 375:src/Tests.cpp ****             thread_dispatch();
 376:src/Tests.cpp ****         else
 377:src/Tests.cpp ****             thread_exit();
 378:src/Tests.cpp ****     }
 379:src/Tests.cpp **** }
 380:src/Tests.cpp **** 
 381:src/Tests.cpp **** void f3_2(void* p)
 382:src/Tests.cpp **** {
 383:src/Tests.cpp ****     Riscv::printString("f3_2 started\n");
 384:src/Tests.cpp ****     int x = 0;
 385:src/Tests.cpp ****     while(true)
 386:src/Tests.cpp ****     {
 387:src/Tests.cpp ****         x++;
 388:src/Tests.cpp ****         s3->wait();
 389:src/Tests.cpp ****         __putc('3');
 390:src/Tests.cpp ****         __putc('\n');
 391:src/Tests.cpp ****         s1->signal();
 392:src/Tests.cpp ****         if(x < 5000)
 393:src/Tests.cpp ****             thread_dispatch();
 394:src/Tests.cpp ****         else
 395:src/Tests.cpp ****             thread_exit();
 396:src/Tests.cpp ****     }
 397:src/Tests.cpp **** }
 398:src/Tests.cpp **** 
 399:src/Tests.cpp **** void semTest2()
 400:src/Tests.cpp **** {
 401:src/Tests.cpp ****     s1 = new Semaphore(1);
 402:src/Tests.cpp ****     s2 = new Semaphore(0);
 403:src/Tests.cpp ****     s3 = new Semaphore(0);
 404:src/Tests.cpp ****     Thread* t1 = new Thread(&f1_2, 0);
 405:src/Tests.cpp ****     Thread* t2 = new Thread(&f2_2, 0);
GAS LISTING /tmp/cc7WLpkD.s 			page 15


 406:src/Tests.cpp ****     Thread* t3 = new Thread(&f3_2, 0);
 407:src/Tests.cpp ****     t3->start();
 408:src/Tests.cpp ****     t2->start();
 409:src/Tests.cpp ****     t1->start();
 410:src/Tests.cpp **** 
 411:src/Tests.cpp ****     int y = 0;
 412:src/Tests.cpp ****     while(true)
 413:src/Tests.cpp ****     {
 414:src/Tests.cpp ****         y++;
 415:src/Tests.cpp ****         thread_dispatch();
 416:src/Tests.cpp ****         if(y == 200000)
 417:src/Tests.cpp ****             break;
 418:src/Tests.cpp ****     }
 419:src/Tests.cpp **** 
 420:src/Tests.cpp **** }
 421:src/Tests.cpp **** 
 422:src/Tests.cpp **** void semaphoreTests()
 423:src/Tests.cpp **** {
 424:src/Tests.cpp ****     semTest1();
 425:src/Tests.cpp ****     //semTest2();
 426:src/Tests.cpp **** }
 427:src/Tests.cpp **** 
 428:src/Tests.cpp **** void myTests()
 429:src/Tests.cpp **** {
 430:src/Tests.cpp ****     //memoryAllocationTests();
 431:src/Tests.cpp ****     //threadTests();
 432:src/Tests.cpp ****     //testQueue();
 433:src/Tests.cpp ****     semaphoreTests();
 434:src/Tests.cpp **** }
 435:src/Tests.cpp **** 
 436:src/Tests.cpp **** TestPeriodic::TestPeriodic(time_t time) : PeriodicThread(time) {
 437:src/Tests.cpp **** 
 438:src/Tests.cpp **** }
 439:src/Tests.cpp **** 
 440:src/Tests.cpp **** void TestPeriodic::periodicActivation()
 441:src/Tests.cpp **** {
 292              		.loc 2 441 1 is_stmt 1
 293              		.cfi_startproc
 294              	.LVL26:
 295 015c 130101FE 		addi	sp,sp,-32
 296              		.cfi_def_cfa_offset 32
 297 0160 233C1100 		sd	ra,24(sp)
 298 0164 23388100 		sd	s0,16(sp)
 299 0168 23349100 		sd	s1,8(sp)
 300              		.cfi_offset 1, -8
 301              		.cfi_offset 8, -16
 302              		.cfi_offset 9, -24
 303 016c 13040102 		addi	s0,sp,32
 304              		.cfi_def_cfa 8, 0
 442:src/Tests.cpp ****     for(int i = 0 ; i < 10000;i++)
 305              		.loc 2 442 5
 306              	.LVL27:
 307              	.LBB22:
 308              		.loc 2 442 13 is_stmt 0
 309 0170 93040000 		li	s1,0
 310              	.LVL28:
 311              	.L22:
GAS LISTING /tmp/cc7WLpkD.s 			page 16


 312              		.loc 2 442 23 is_stmt 1 discriminator 3
 313 0174 B7270000 		li	a5,8192
 314 0178 9387F770 		addi	a5,a5,1807
 315 017c 63C49702 		bgt	s1,a5,.L20
 443:src/Tests.cpp ****     {
 444:src/Tests.cpp ****         Riscv::printString("i : ");
 316              		.loc 2 444 9 discriminator 2
 317              		.loc 2 444 27 is_stmt 0 discriminator 2
 318 0180 17050000 		lla	a0,.LC2
 318      13050500 
 319 0188 97000000 		call	_ZN5Riscv11printStringEPKc@plt
 319      E7800000 
 320              	.LVL29:
 445:src/Tests.cpp ****         Riscv::printInteger(i);
 321              		.loc 2 445 9 is_stmt 1 discriminator 2
 322              		.loc 2 445 28 is_stmt 0 discriminator 2
 323 0190 13850400 		mv	a0,s1
 324 0194 97000000 		call	_ZN5Riscv12printIntegerEm@plt
 324      E7800000 
 325              	.LVL30:
 442:src/Tests.cpp ****     for(int i = 0 ; i < 10000;i++)
 326              		.loc 2 442 5 is_stmt 1 discriminator 2
 327 019c 9B841400 		addiw	s1,s1,1
 328              	.LVL31:
 329 01a0 6FF05FFD 		j	.L22
 330              	.LVL32:
 331              	.L20:
 332              	.LBE22:
 446:src/Tests.cpp ****     }
 447:src/Tests.cpp **** }...
 333              		.loc 2 447 1 is_stmt 0
 334 01a4 83308101 		ld	ra,24(sp)
 335              		.cfi_restore 1
 336 01a8 03340101 		ld	s0,16(sp)
 337              		.cfi_restore 8
 338              		.cfi_def_cfa 2, 32
 339 01ac 83348100 		ld	s1,8(sp)
 340              		.cfi_restore 9
 341              	.LVL33:
 342 01b0 13010102 		addi	sp,sp,32
 343              		.cfi_def_cfa_offset 0
 344 01b4 67800000 		jr	ra
 345              		.cfi_endproc
 346              	.LFE55:
 348              		.align	2
 349              		.globl	_Z20thread2FunctionTest2Pv
 351              	_Z20thread2FunctionTest2Pv:
 352              	.LFB26:
  46:src/Tests.cpp **** {
 353              		.loc 2 46 1 is_stmt 1
 354              		.cfi_startproc
 355              	.LVL34:
 356 01b8 130101FE 		addi	sp,sp,-32
 357              		.cfi_def_cfa_offset 32
 358 01bc 233C1100 		sd	ra,24(sp)
 359 01c0 23388100 		sd	s0,16(sp)
 360 01c4 23349100 		sd	s1,8(sp)
GAS LISTING /tmp/cc7WLpkD.s 			page 17


 361              		.cfi_offset 1, -8
 362              		.cfi_offset 8, -16
 363              		.cfi_offset 9, -24
 364 01c8 13040102 		addi	s0,sp,32
 365              		.cfi_def_cfa 8, 0
  47:src/Tests.cpp ****     Riscv::printString("Thread 2 started...\n");
 366              		.loc 2 47 5
  47:src/Tests.cpp ****     Riscv::printString("Thread 2 started...\n");
 367              		.loc 2 47 23 is_stmt 0
 368 01cc 17050000 		lla	a0,.LC4
 368      13050500 
 369              	.LVL35:
 370 01d4 97000000 		call	_ZN5Riscv11printStringEPKc@plt
 370      E7800000 
 371              	.LVL36:
  48:src/Tests.cpp ****     uint64 num = 10000;
 372              		.loc 2 48 5 is_stmt 1
  49:src/Tests.cpp ****     for(uint64 j = 0; j < num;j++)
 373              		.loc 2 49 5
 374              	.LBB23:
  49:src/Tests.cpp ****     for(uint64 j = 0; j < num;j++)
 375              		.loc 2 49 16 is_stmt 0
 376 01dc 93040000 		li	s1,0
 377 01e0 6F008004 		j	.L28
 378              	.LVL37:
 379              	.L30:
  52:src/Tests.cpp ****             thread_exit();
 380              		.loc 2 52 13 is_stmt 1
  52:src/Tests.cpp ****             thread_exit();
 381              		.loc 2 52 24 is_stmt 0
 382 01e4 97000000 		call	thread_exit@plt
 382      E7800000 
 383              	.LVL38:
 384 01ec 6F000005 		j	.L26
 385              	.L31:
  54:src/Tests.cpp ****             thread_dispatch();
 386              		.loc 2 54 13 is_stmt 1
  54:src/Tests.cpp ****             thread_dispatch();
 387              		.loc 2 54 28 is_stmt 0
 388 01f0 97000000 		call	thread_dispatch@plt
 388      E7800000 
 389              	.LVL39:
 390              	.L27:
  55:src/Tests.cpp ****         Riscv::printString("j : ");
 391              		.loc 2 55 9 is_stmt 1 discriminator 2
  55:src/Tests.cpp ****         Riscv::printString("j : ");
 392              		.loc 2 55 27 is_stmt 0 discriminator 2
 393 01f8 17050000 		lla	a0,.LC5
 393      13050500 
 394 0200 97000000 		call	_ZN5Riscv11printStringEPKc@plt
 394      E7800000 
 395              	.LVL40:
  56:src/Tests.cpp ****         Riscv::printInteger(j);
 396              		.loc 2 56 9 is_stmt 1 discriminator 2
  56:src/Tests.cpp ****         Riscv::printInteger(j);
 397              		.loc 2 56 28 is_stmt 0 discriminator 2
 398 0208 13850400 		mv	a0,s1
GAS LISTING /tmp/cc7WLpkD.s 			page 18


 399 020c 97000000 		call	_ZN5Riscv12printIntegerEm@plt
 399      E7800000 
 400              	.LVL41:
  57:src/Tests.cpp ****         Riscv::printString("\n");
 401              		.loc 2 57 9 is_stmt 1 discriminator 2
  57:src/Tests.cpp ****         Riscv::printString("\n");
 402              		.loc 2 57 27 is_stmt 0 discriminator 2
 403 0214 17050000 		lla	a0,.LC3
 403      13050500 
 404 021c 97000000 		call	_ZN5Riscv11printStringEPKc@plt
 404      E7800000 
 405              	.LVL42:
  49:src/Tests.cpp ****     for(uint64 j = 0; j < num;j++)
 406              		.loc 2 49 5 is_stmt 1 discriminator 2
 407 0224 93841400 		addi	s1,s1,1
 408              	.LVL43:
 409              	.L28:
  49:src/Tests.cpp ****     for(uint64 j = 0; j < num;j++)
 410              		.loc 2 49 25 discriminator 1
 411 0228 B7270000 		li	a5,8192
 412 022c 9387F770 		addi	a5,a5,1807
 413 0230 63E09702 		bgtu	s1,a5,.L24
  51:src/Tests.cpp ****         if(j == 200)
 414              		.loc 2 51 9
 415 0234 9307800C 		li	a5,200
 416 0238 E386F4FA 		beq	s1,a5,.L30
 417              	.L26:
  53:src/Tests.cpp ****         if(j % 50 == 0 && j > 0)
 418              		.loc 2 53 9
  53:src/Tests.cpp ****         if(j % 50 == 0 && j > 0)
 419              		.loc 2 53 14 is_stmt 0
 420 023c 93072003 		li	a5,50
 421 0240 B3F7F402 		remu	a5,s1,a5
  53:src/Tests.cpp ****         if(j % 50 == 0 && j > 0)
 422              		.loc 2 53 9
 423 0244 E39A07FA 		bnez	a5,.L27
  53:src/Tests.cpp ****         if(j % 50 == 0 && j > 0)
 424              		.loc 2 53 24 discriminator 1
 425 0248 E38804FA 		beqz	s1,.L27
 426 024c 6FF05FFA 		j	.L31
 427              	.L24:
 428              	.LBE23:
  59:src/Tests.cpp **** }
 429              		.loc 2 59 1
 430 0250 83308101 		ld	ra,24(sp)
 431              		.cfi_restore 1
 432 0254 03340101 		ld	s0,16(sp)
 433              		.cfi_restore 8
 434              		.cfi_def_cfa 2, 32
 435 0258 83348100 		ld	s1,8(sp)
 436              		.cfi_restore 9
 437              	.LVL44:
 438 025c 13010102 		addi	sp,sp,32
 439              		.cfi_def_cfa_offset 0
 440 0260 67800000 		jr	ra
 441              		.cfi_endproc
 442              	.LFE26:
GAS LISTING /tmp/cc7WLpkD.s 			page 19


 444              		.section	.rodata.str1.8
 445 004d 000000   		.align	3
 446              	.LC6:
 447 0050 66315F32 		.string	"f1_2 started\n"
 447      20737461 
 447      72746564 
 447      0A00
 448              		.text
 449              		.align	2
 450              		.globl	_Z4f1_2Pv
 452              	_Z4f1_2Pv:
 453              	.LFB42:
 346:src/Tests.cpp **** {
 454              		.loc 2 346 1 is_stmt 1
 455              		.cfi_startproc
 456              	.LVL45:
 457 0264 130101FE 		addi	sp,sp,-32
 458              		.cfi_def_cfa_offset 32
 459 0268 233C1100 		sd	ra,24(sp)
 460 026c 23388100 		sd	s0,16(sp)
 461 0270 23349100 		sd	s1,8(sp)
 462 0274 23302101 		sd	s2,0(sp)
 463              		.cfi_offset 1, -8
 464              		.cfi_offset 8, -16
 465              		.cfi_offset 9, -24
 466              		.cfi_offset 18, -32
 467 0278 13040102 		addi	s0,sp,32
 468              		.cfi_def_cfa 8, 0
 347:src/Tests.cpp ****     Riscv::printString("f1_2 started\n");
 469              		.loc 2 347 5
 347:src/Tests.cpp ****     Riscv::printString("f1_2 started\n");
 470              		.loc 2 347 23 is_stmt 0
 471 027c 17050000 		lla	a0,.LC6
 471      13050500 
 472              	.LVL46:
 473 0284 97000000 		call	_ZN5Riscv11printStringEPKc@plt
 473      E7800000 
 474              	.LVL47:
 348:src/Tests.cpp ****     int x = 0;
 475              		.loc 2 348 5 is_stmt 1
 348:src/Tests.cpp ****     int x = 0;
 476              		.loc 2 348 9 is_stmt 0
 477 028c 93040000 		li	s1,0
 478 0290 6F00C000 		j	.L33
 479              	.LVL48:
 480              	.L34:
 359:src/Tests.cpp ****             thread_exit();
 481              		.loc 2 359 13 is_stmt 1
 359:src/Tests.cpp ****             thread_exit();
 482              		.loc 2 359 24 is_stmt 0
 483 0294 97000000 		call	thread_exit@plt
 483      E7800000 
 484              	.LVL49:
 485              	.L33:
 349:src/Tests.cpp ****     while(true)
 486              		.loc 2 349 5 is_stmt 1
 351:src/Tests.cpp ****         x++;
GAS LISTING /tmp/cc7WLpkD.s 			page 20


 487              		.loc 2 351 9
 351:src/Tests.cpp ****         x++;
 488              		.loc 2 351 10 is_stmt 0
 489 029c 9B841400 		addiw	s1,s1,1
 490              	.LVL50:
 352:src/Tests.cpp ****         s1->wait();
 491              		.loc 2 352 9 is_stmt 1
 352:src/Tests.cpp ****         s1->wait();
 492              		.loc 2 352 17 is_stmt 0
 493 02a0 17090000 		lla	s2,.LANCHOR0
 493      13090900 
 494 02a8 03350900 		ld	a0,0(s2)
 495 02ac 97000000 		call	_ZN9Semaphore4waitEv@plt
 495      E7800000 
 496              	.LVL51:
 353:src/Tests.cpp ****         __putc('1');
 497              		.loc 2 353 9 is_stmt 1
 353:src/Tests.cpp ****         __putc('1');
 498              		.loc 2 353 15 is_stmt 0
 499 02b4 13051003 		li	a0,49
 500 02b8 97000000 		call	__putc@plt
 500      E7800000 
 501              	.LVL52:
 354:src/Tests.cpp ****         __putc('\n');
 502              		.loc 2 354 9 is_stmt 1
 354:src/Tests.cpp ****         __putc('\n');
 503              		.loc 2 354 15 is_stmt 0
 504 02c0 1305A000 		li	a0,10
 505 02c4 97000000 		call	__putc@plt
 505      E7800000 
 506              	.LVL53:
 355:src/Tests.cpp ****         s2->signal();
 507              		.loc 2 355 9 is_stmt 1
 355:src/Tests.cpp ****         s2->signal();
 508              		.loc 2 355 19 is_stmt 0
 509 02cc 03358900 		ld	a0,8(s2)
 510 02d0 97000000 		call	_ZN9Semaphore6signalEv@plt
 510      E7800000 
 511              	.LVL54:
 356:src/Tests.cpp ****         if(x < 5000)
 512              		.loc 2 356 9 is_stmt 1
 513 02d8 B7170000 		li	a5,4096
 514 02dc 93877738 		addi	a5,a5,903
 515 02e0 E3CA97FA 		bgt	s1,a5,.L34
 357:src/Tests.cpp ****             thread_dispatch();
 516              		.loc 2 357 13
 357:src/Tests.cpp ****             thread_dispatch();
 517              		.loc 2 357 28 is_stmt 0
 518 02e4 97000000 		call	thread_dispatch@plt
 518      E7800000 
 519              	.LVL55:
 520 02ec 6FF01FFB 		j	.L33
 521              		.cfi_endproc
 522              	.LFE42:
 524              		.section	.rodata.str1.8
 525 005e 0000     		.align	3
 526              	.LC7:
GAS LISTING /tmp/cc7WLpkD.s 			page 21


 527 0060 66325F32 		.string	"f2_2 started\n"
 527      20737461 
 527      72746564 
 527      0A00
 528              		.text
 529              		.align	2
 530              		.globl	_Z4f2_2Pv
 532              	_Z4f2_2Pv:
 533              	.LFB43:
 364:src/Tests.cpp **** {
 534              		.loc 2 364 1 is_stmt 1
 535              		.cfi_startproc
 536              	.LVL56:
 537 02f0 130101FE 		addi	sp,sp,-32
 538              		.cfi_def_cfa_offset 32
 539 02f4 233C1100 		sd	ra,24(sp)
 540 02f8 23388100 		sd	s0,16(sp)
 541 02fc 23349100 		sd	s1,8(sp)
 542 0300 23302101 		sd	s2,0(sp)
 543              		.cfi_offset 1, -8
 544              		.cfi_offset 8, -16
 545              		.cfi_offset 9, -24
 546              		.cfi_offset 18, -32
 547 0304 13040102 		addi	s0,sp,32
 548              		.cfi_def_cfa 8, 0
 365:src/Tests.cpp ****     Riscv::printString("f2_2 started\n");
 549              		.loc 2 365 5
 365:src/Tests.cpp ****     Riscv::printString("f2_2 started\n");
 550              		.loc 2 365 23 is_stmt 0
 551 0308 17050000 		lla	a0,.LC7
 551      13050500 
 552              	.LVL57:
 553 0310 97000000 		call	_ZN5Riscv11printStringEPKc@plt
 553      E7800000 
 554              	.LVL58:
 366:src/Tests.cpp ****     int x = 0;
 555              		.loc 2 366 5 is_stmt 1
 366:src/Tests.cpp ****     int x = 0;
 556              		.loc 2 366 9 is_stmt 0
 557 0318 93040000 		li	s1,0
 558 031c 6F00C000 		j	.L38
 559              	.LVL59:
 560              	.L39:
 377:src/Tests.cpp ****             thread_exit();
 561              		.loc 2 377 13 is_stmt 1
 377:src/Tests.cpp ****             thread_exit();
 562              		.loc 2 377 24 is_stmt 0
 563 0320 97000000 		call	thread_exit@plt
 563      E7800000 
 564              	.LVL60:
 565              	.L38:
 367:src/Tests.cpp ****     while(true)
 566              		.loc 2 367 5 is_stmt 1
 369:src/Tests.cpp ****         x++;
 567              		.loc 2 369 9
 369:src/Tests.cpp ****         x++;
 568              		.loc 2 369 10 is_stmt 0
GAS LISTING /tmp/cc7WLpkD.s 			page 22


 569 0328 9B841400 		addiw	s1,s1,1
 570              	.LVL61:
 370:src/Tests.cpp ****         s2->wait();
 571              		.loc 2 370 9 is_stmt 1
 370:src/Tests.cpp ****         s2->wait();
 572              		.loc 2 370 17 is_stmt 0
 573 032c 17090000 		lla	s2,.LANCHOR0
 573      13090900 
 574 0334 03358900 		ld	a0,8(s2)
 575 0338 97000000 		call	_ZN9Semaphore4waitEv@plt
 575      E7800000 
 576              	.LVL62:
 371:src/Tests.cpp ****         __putc('2');
 577              		.loc 2 371 9 is_stmt 1
 371:src/Tests.cpp ****         __putc('2');
 578              		.loc 2 371 15 is_stmt 0
 579 0340 13052003 		li	a0,50
 580 0344 97000000 		call	__putc@plt
 580      E7800000 
 581              	.LVL63:
 372:src/Tests.cpp ****         __putc('\n');
 582              		.loc 2 372 9 is_stmt 1
 372:src/Tests.cpp ****         __putc('\n');
 583              		.loc 2 372 15 is_stmt 0
 584 034c 1305A000 		li	a0,10
 585 0350 97000000 		call	__putc@plt
 585      E7800000 
 586              	.LVL64:
 373:src/Tests.cpp ****         s3->signal();
 587              		.loc 2 373 9 is_stmt 1
 373:src/Tests.cpp ****         s3->signal();
 588              		.loc 2 373 19 is_stmt 0
 589 0358 03350901 		ld	a0,16(s2)
 590 035c 97000000 		call	_ZN9Semaphore6signalEv@plt
 590      E7800000 
 591              	.LVL65:
 374:src/Tests.cpp ****         if(x < 5000)
 592              		.loc 2 374 9 is_stmt 1
 593 0364 B7170000 		li	a5,4096
 594 0368 93877738 		addi	a5,a5,903
 595 036c E3CA97FA 		bgt	s1,a5,.L39
 375:src/Tests.cpp ****             thread_dispatch();
 596              		.loc 2 375 13
 375:src/Tests.cpp ****             thread_dispatch();
 597              		.loc 2 375 28 is_stmt 0
 598 0370 97000000 		call	thread_dispatch@plt
 598      E7800000 
 599              	.LVL66:
 600 0378 6FF01FFB 		j	.L38
 601              		.cfi_endproc
 602              	.LFE43:
 604              		.section	.rodata.str1.8
 605 006e 0000     		.align	3
 606              	.LC8:
 607 0070 66335F32 		.string	"f3_2 started\n"
 607      20737461 
 607      72746564 
GAS LISTING /tmp/cc7WLpkD.s 			page 23


 607      0A00
 608              		.text
 609              		.align	2
 610              		.globl	_Z4f3_2Pv
 612              	_Z4f3_2Pv:
 613              	.LFB44:
 382:src/Tests.cpp **** {
 614              		.loc 2 382 1 is_stmt 1
 615              		.cfi_startproc
 616              	.LVL67:
 617 037c 130101FE 		addi	sp,sp,-32
 618              		.cfi_def_cfa_offset 32
 619 0380 233C1100 		sd	ra,24(sp)
 620 0384 23388100 		sd	s0,16(sp)
 621 0388 23349100 		sd	s1,8(sp)
 622 038c 23302101 		sd	s2,0(sp)
 623              		.cfi_offset 1, -8
 624              		.cfi_offset 8, -16
 625              		.cfi_offset 9, -24
 626              		.cfi_offset 18, -32
 627 0390 13040102 		addi	s0,sp,32
 628              		.cfi_def_cfa 8, 0
 383:src/Tests.cpp ****     Riscv::printString("f3_2 started\n");
 629              		.loc 2 383 5
 383:src/Tests.cpp ****     Riscv::printString("f3_2 started\n");
 630              		.loc 2 383 23 is_stmt 0
 631 0394 17050000 		lla	a0,.LC8
 631      13050500 
 632              	.LVL68:
 633 039c 97000000 		call	_ZN5Riscv11printStringEPKc@plt
 633      E7800000 
 634              	.LVL69:
 384:src/Tests.cpp ****     int x = 0;
 635              		.loc 2 384 5 is_stmt 1
 384:src/Tests.cpp ****     int x = 0;
 636              		.loc 2 384 9 is_stmt 0
 637 03a4 93040000 		li	s1,0
 638 03a8 6F00C000 		j	.L43
 639              	.LVL70:
 640              	.L44:
 395:src/Tests.cpp ****             thread_exit();
 641              		.loc 2 395 13 is_stmt 1
 395:src/Tests.cpp ****             thread_exit();
 642              		.loc 2 395 24 is_stmt 0
 643 03ac 97000000 		call	thread_exit@plt
 643      E7800000 
 644              	.LVL71:
 645              	.L43:
 385:src/Tests.cpp ****     while(true)
 646              		.loc 2 385 5 is_stmt 1
 387:src/Tests.cpp ****         x++;
 647              		.loc 2 387 9
 387:src/Tests.cpp ****         x++;
 648              		.loc 2 387 10 is_stmt 0
 649 03b4 9B841400 		addiw	s1,s1,1
 650              	.LVL72:
 388:src/Tests.cpp ****         s3->wait();
GAS LISTING /tmp/cc7WLpkD.s 			page 24


 651              		.loc 2 388 9 is_stmt 1
 388:src/Tests.cpp ****         s3->wait();
 652              		.loc 2 388 17 is_stmt 0
 653 03b8 17090000 		lla	s2,.LANCHOR0
 653      13090900 
 654 03c0 03350901 		ld	a0,16(s2)
 655 03c4 97000000 		call	_ZN9Semaphore4waitEv@plt
 655      E7800000 
 656              	.LVL73:
 389:src/Tests.cpp ****         __putc('3');
 657              		.loc 2 389 9 is_stmt 1
 389:src/Tests.cpp ****         __putc('3');
 658              		.loc 2 389 15 is_stmt 0
 659 03cc 13053003 		li	a0,51
 660 03d0 97000000 		call	__putc@plt
 660      E7800000 
 661              	.LVL74:
 390:src/Tests.cpp ****         __putc('\n');
 662              		.loc 2 390 9 is_stmt 1
 390:src/Tests.cpp ****         __putc('\n');
 663              		.loc 2 390 15 is_stmt 0
 664 03d8 1305A000 		li	a0,10
 665 03dc 97000000 		call	__putc@plt
 665      E7800000 
 666              	.LVL75:
 391:src/Tests.cpp ****         s1->signal();
 667              		.loc 2 391 9 is_stmt 1
 391:src/Tests.cpp ****         s1->signal();
 668              		.loc 2 391 19 is_stmt 0
 669 03e4 03350900 		ld	a0,0(s2)
 670 03e8 97000000 		call	_ZN9Semaphore6signalEv@plt
 670      E7800000 
 671              	.LVL76:
 392:src/Tests.cpp ****         if(x < 5000)
 672              		.loc 2 392 9 is_stmt 1
 673 03f0 B7170000 		li	a5,4096
 674 03f4 93877738 		addi	a5,a5,903
 675 03f8 E3CA97FA 		bgt	s1,a5,.L44
 393:src/Tests.cpp ****             thread_dispatch();
 676              		.loc 2 393 13
 393:src/Tests.cpp ****             thread_dispatch();
 677              		.loc 2 393 28 is_stmt 0
 678 03fc 97000000 		call	thread_dispatch@plt
 678      E7800000 
 679              	.LVL77:
 680 0404 6FF01FFB 		j	.L43
 681              		.cfi_endproc
 682              	.LFE44:
 684              		.section	.text._ZN14PeriodicThreadD2Ev,"axG",@progbits,_ZN14PeriodicThreadD5Ev,comdat
 685              		.align	2
 686              		.weak	_ZN14PeriodicThreadD2Ev
 688              	_ZN14PeriodicThreadD2Ev:
 689              	.LFB50:
  65:src/../h/syscall_cpp.hpp **** {
 690              		.loc 1 65 7 is_stmt 1
 691              		.cfi_startproc
 692              	.LVL78:
GAS LISTING /tmp/cc7WLpkD.s 			page 25


 693 0000 130101FF 		addi	sp,sp,-16
 694              		.cfi_def_cfa_offset 16
 695 0004 23341100 		sd	ra,8(sp)
 696 0008 23308100 		sd	s0,0(sp)
 697              		.cfi_offset 1, -8
 698              		.cfi_offset 8, -16
 699 000c 13040101 		addi	s0,sp,16
 700              		.cfi_def_cfa 8, 0
 701              	.LBB24:
  65:src/../h/syscall_cpp.hpp **** {
 702              		.loc 1 65 7 is_stmt 0
 703 0010 97070000 		lla	a5,_ZTV14PeriodicThread+16
 703      93870700 
 704 0018 2330F500 		sd	a5,0(a0)
 705 001c 97000000 		call	_ZN6ThreadD2Ev@plt
 705      E7800000 
 706              	.LVL79:
 707              	.LBE24:
 708 0024 83308100 		ld	ra,8(sp)
 709              		.cfi_restore 1
 710 0028 03340100 		ld	s0,0(sp)
 711              		.cfi_restore 8
 712              		.cfi_def_cfa 2, 16
 713 002c 13010101 		addi	sp,sp,16
 714              		.cfi_def_cfa_offset 0
 715 0030 67800000 		jr	ra
 716              		.cfi_endproc
 717              	.LFE50:
 719              		.weak	_ZN14PeriodicThreadD1Ev
 720              		.set	_ZN14PeriodicThreadD1Ev,_ZN14PeriodicThreadD2Ev
 721              		.section	.text._ZN14PeriodicThreadD0Ev,"axG",@progbits,_ZN14PeriodicThreadD5Ev,comdat
 722              		.align	2
 723              		.weak	_ZN14PeriodicThreadD0Ev
 725              	_ZN14PeriodicThreadD0Ev:
 726              	.LFB52:
  65:src/../h/syscall_cpp.hpp **** {
 727              		.loc 1 65 7 is_stmt 1
 728              		.cfi_startproc
 729              	.LVL80:
 730 0000 130101FE 		addi	sp,sp,-32
 731              		.cfi_def_cfa_offset 32
 732 0004 233C1100 		sd	ra,24(sp)
 733 0008 23388100 		sd	s0,16(sp)
 734 000c 23349100 		sd	s1,8(sp)
 735              		.cfi_offset 1, -8
 736              		.cfi_offset 8, -16
 737              		.cfi_offset 9, -24
 738 0010 13040102 		addi	s0,sp,32
 739              		.cfi_def_cfa 8, 0
 740 0014 93040500 		mv	s1,a0
 741              	.LVL81:
 742              	.LBB25:
 743              	.LBB26:
  65:src/../h/syscall_cpp.hpp **** {
 744              		.loc 1 65 7 is_stmt 0
 745 0018 97070000 		lla	a5,_ZTV14PeriodicThread+16
 745      93870700 
GAS LISTING /tmp/cc7WLpkD.s 			page 26


 746 0020 2330F500 		sd	a5,0(a0)
 747 0024 97000000 		call	_ZN6ThreadD2Ev@plt
 747      E7800000 
 748              	.LVL82:
 749              	.LBE26:
 750              	.LBE25:
 751 002c 13850400 		mv	a0,s1
 752 0030 97000000 		call	_ZdlPv@plt
 752      E7800000 
 753              	.LVL83:
 754 0038 83308101 		ld	ra,24(sp)
 755              		.cfi_restore 1
 756 003c 03340101 		ld	s0,16(sp)
 757              		.cfi_restore 8
 758              		.cfi_def_cfa 2, 32
 759 0040 83348100 		ld	s1,8(sp)
 760              		.cfi_restore 9
 761              	.LVL84:
 762 0044 13010102 		addi	sp,sp,32
 763              		.cfi_def_cfa_offset 0
 764 0048 67800000 		jr	ra
 765              		.cfi_endproc
 766              	.LFE52:
 768              		.section	.text._ZN12TestPeriodicD2Ev,"axG",@progbits,_ZN12TestPeriodicD5Ev,comdat
 769              		.align	2
 770              		.weak	_ZN12TestPeriodicD2Ev
 772              	_ZN12TestPeriodicD2Ev:
 773              	.LFB57:
 774              		.file 3 "src/../h/Tests.hpp"
   1:src/../h/Tests.hpp **** //
   2:src/../h/Tests.hpp **** // Created by os on 5/5/22.
   3:src/../h/Tests.hpp **** //
   4:src/../h/Tests.hpp **** 
   5:src/../h/Tests.hpp **** #ifndef PROJECT_BASE_V1_0_TESTS_HPP
   6:src/../h/Tests.hpp **** #define PROJECT_BASE_V1_0_TESTS_HPP
   7:src/../h/Tests.hpp **** 
   8:src/../h/Tests.hpp **** #include "Riscv.hpp"
   9:src/../h/Tests.hpp **** #include "PCB.hpp"
  10:src/../h/Tests.hpp **** #include "syscall_cpp.hpp"
  11:src/../h/Tests.hpp **** 
  12:src/../h/Tests.hpp **** class Test
  13:src/../h/Tests.hpp **** {
  14:src/../h/Tests.hpp **** public:
  15:src/../h/Tests.hpp ****     uint64 a;
  16:src/../h/Tests.hpp **** };
  17:src/../h/Tests.hpp **** 
  18:src/../h/Tests.hpp **** //memory (de)allocation tests
  19:src/../h/Tests.hpp **** void mallocFree();
  20:src/../h/Tests.hpp **** void bigMalloc();
  21:src/../h/Tests.hpp **** void lotOfSmallMallocs();
  22:src/../h/Tests.hpp **** void badFree();
  23:src/../h/Tests.hpp **** void stressTesting();
  24:src/../h/Tests.hpp **** void memoryAllocationTests();
  25:src/../h/Tests.hpp **** 
  26:src/../h/Tests.hpp **** //thread tests
  27:src/../h/Tests.hpp **** void thread1Function();
  28:src/../h/Tests.hpp **** void thread2Function();
GAS LISTING /tmp/cc7WLpkD.s 			page 27


  29:src/../h/Tests.hpp **** 
  30:src/../h/Tests.hpp **** void threadFunction3();
  31:src/../h/Tests.hpp **** 
  32:src/../h/Tests.hpp **** void threadTest1();
  33:src/../h/Tests.hpp **** void threadTest2();
  34:src/../h/Tests.hpp **** void threadTest3();
  35:src/../h/Tests.hpp **** 
  36:src/../h/Tests.hpp **** void threadTests();
  37:src/../h/Tests.hpp **** 
  38:src/../h/Tests.hpp **** class TestPeriodic : public PeriodicThread
 775              		.loc 3 38 7 is_stmt 1
 776              		.cfi_startproc
 777              	.LVL85:
 778 0000 130101FF 		addi	sp,sp,-16
 779              		.cfi_def_cfa_offset 16
 780 0004 23341100 		sd	ra,8(sp)
 781 0008 23308100 		sd	s0,0(sp)
 782              		.cfi_offset 1, -8
 783              		.cfi_offset 8, -16
 784 000c 13040101 		addi	s0,sp,16
 785              		.cfi_def_cfa 8, 0
 786              	.LVL86:
 787              	.LBB27:
 788              	.LBB28:
  65:src/../h/syscall_cpp.hpp **** {
 789              		.loc 1 65 7 is_stmt 0
 790 0010 97070000 		lla	a5,_ZTV14PeriodicThread+16
 790      93870700 
 791 0018 2330F500 		sd	a5,0(a0)
 792 001c 97000000 		call	_ZN6ThreadD2Ev@plt
 792      E7800000 
 793              	.LVL87:
 794              	.LBE28:
 795              	.LBE27:
 796              		.loc 3 38 7
 797 0024 83308100 		ld	ra,8(sp)
 798              		.cfi_restore 1
 799 0028 03340100 		ld	s0,0(sp)
 800              		.cfi_restore 8
 801              		.cfi_def_cfa 2, 16
 802 002c 13010101 		addi	sp,sp,16
 803              		.cfi_def_cfa_offset 0
 804 0030 67800000 		jr	ra
 805              		.cfi_endproc
 806              	.LFE57:
 808              		.weak	_ZN12TestPeriodicD1Ev
 809              		.set	_ZN12TestPeriodicD1Ev,_ZN12TestPeriodicD2Ev
 810              		.section	.text._ZN12TestPeriodicD0Ev,"axG",@progbits,_ZN12TestPeriodicD5Ev,comdat
 811              		.align	2
 812              		.weak	_ZN12TestPeriodicD0Ev
 814              	_ZN12TestPeriodicD0Ev:
 815              	.LFB59:
 816              		.loc 3 38 7 is_stmt 1
 817              		.cfi_startproc
 818              	.LVL88:
 819 0000 130101FE 		addi	sp,sp,-32
 820              		.cfi_def_cfa_offset 32
GAS LISTING /tmp/cc7WLpkD.s 			page 28


 821 0004 233C1100 		sd	ra,24(sp)
 822 0008 23388100 		sd	s0,16(sp)
 823 000c 23349100 		sd	s1,8(sp)
 824              		.cfi_offset 1, -8
 825              		.cfi_offset 8, -16
 826              		.cfi_offset 9, -24
 827 0010 13040102 		addi	s0,sp,32
 828              		.cfi_def_cfa 8, 0
 829 0014 93040500 		mv	s1,a0
 830              	.LVL89:
 831              	.LBB29:
 832              	.LBB30:
 833              	.LBB31:
  65:src/../h/syscall_cpp.hpp **** {
 834              		.loc 1 65 7 is_stmt 0
 835 0018 97070000 		lla	a5,_ZTV14PeriodicThread+16
 835      93870700 
 836 0020 2330F500 		sd	a5,0(a0)
 837 0024 97000000 		call	_ZN6ThreadD2Ev@plt
 837      E7800000 
 838              	.LVL90:
 839              	.LBE31:
 840              	.LBE30:
 841              	.LBE29:
 842              		.loc 3 38 7
 843 002c 13850400 		mv	a0,s1
 844 0030 97000000 		call	_ZdlPv@plt
 844      E7800000 
 845              	.LVL91:
 846 0038 83308101 		ld	ra,24(sp)
 847              		.cfi_restore 1
 848 003c 03340101 		ld	s0,16(sp)
 849              		.cfi_restore 8
 850              		.cfi_def_cfa 2, 32
 851 0040 83348100 		ld	s1,8(sp)
 852              		.cfi_restore 9
 853              	.LVL92:
 854 0044 13010102 		addi	sp,sp,32
 855              		.cfi_def_cfa_offset 0
 856 0048 67800000 		jr	ra
 857              		.cfi_endproc
 858              	.LFE59:
 860              		.section	.rodata.str1.8
 861 007e 0000     		.align	3
 862              	.LC9:
 863 0080 4D61696E 		.string	"Main thread\n"
 863      20746872 
 863      6561640A 
 863      00
 864 008d 000000   		.align	3
 865              	.LC10:
 866 0090 456E642E 		.string	"End...\n"
 866      2E2E0A00 
 867              		.text
 868              		.align	2
 869              		.globl	_Z11threadTest1v
 871              	_Z11threadTest1v:
GAS LISTING /tmp/cc7WLpkD.s 			page 29


 872              	.LFB27:
  62:src/Tests.cpp **** {
 873              		.loc 2 62 1 is_stmt 1
 874              		.cfi_startproc
 875              		.cfi_personality 0x9b,DW.ref.__gxx_personality_v0
 876              		.cfi_lsda 0x1b,.LLSDA27
 877 0408 130101FE 		addi	sp,sp,-32
 878              		.cfi_def_cfa_offset 32
 879 040c 233C1100 		sd	ra,24(sp)
 880 0410 23388100 		sd	s0,16(sp)
 881 0414 23349100 		sd	s1,8(sp)
 882 0418 23302101 		sd	s2,0(sp)
 883              		.cfi_offset 1, -8
 884              		.cfi_offset 8, -16
 885              		.cfi_offset 9, -24
 886              		.cfi_offset 18, -32
 887 041c 13040102 		addi	s0,sp,32
 888              		.cfi_def_cfa 8, 0
  63:src/Tests.cpp ****     Thread* t1 = new Thread(&thread1Function, 0);
 889              		.loc 2 63 5
  63:src/Tests.cpp ****     Thread* t1 = new Thread(&thread1Function, 0);
 890              		.loc 2 63 48 is_stmt 0
 891 0420 13050002 		li	a0,32
 892              	.LEHB0:
 893 0424 97000000 		call	_Znwm@plt
 893      E7800000 
 894              	.LVL93:
 895              	.LEHE0:
 896 042c 93040500 		mv	s1,a0
 897 0430 13060000 		li	a2,0
 898 0434 97050000 		lla	a1,_Z15thread1FunctionPv
 898      93850500 
 899              	.LEHB1:
 900 043c 97000000 		call	_ZN6ThreadC1EPFvPvES0_@plt
 900      E7800000 
 901              	.LVL94:
 902              	.LEHE1:
  64:src/Tests.cpp ****     t1->start();
 903              		.loc 2 64 5 is_stmt 1 discriminator 2
  64:src/Tests.cpp ****     t1->start();
 904              		.loc 2 64 14 is_stmt 0 discriminator 2
 905 0444 13850400 		mv	a0,s1
 906              	.LEHB2:
 907 0448 97000000 		call	_ZN6Thread5startEv@plt
 907      E7800000 
 908              	.LVL95:
  65:src/Tests.cpp ****     Thread* t2 = new Thread(&thread2Function, 0);
 909              		.loc 2 65 5 is_stmt 1 discriminator 2
  65:src/Tests.cpp ****     Thread* t2 = new Thread(&thread2Function, 0);
 910              		.loc 2 65 48 is_stmt 0 discriminator 2
 911 0450 13050002 		li	a0,32
 912 0454 97000000 		call	_Znwm@plt
 912      E7800000 
 913              	.LVL96:
 914              	.LEHE2:
 915 045c 13090500 		mv	s2,a0
 916 0460 13060000 		li	a2,0
GAS LISTING /tmp/cc7WLpkD.s 			page 30


 917 0464 97050000 		lla	a1,_Z15thread2FunctionPv
 917      93850500 
 918              	.LEHB3:
 919 046c 97000000 		call	_ZN6ThreadC1EPFvPvES0_@plt
 919      E7800000 
 920              	.LVL97:
 921              	.LEHE3:
  66:src/Tests.cpp ****     t2->start();
 922              		.loc 2 66 5 is_stmt 1 discriminator 2
  66:src/Tests.cpp ****     t2->start();
 923              		.loc 2 66 14 is_stmt 0 discriminator 2
 924 0474 13050900 		mv	a0,s2
 925              	.LEHB4:
 926 0478 97000000 		call	_ZN6Thread5startEv@plt
 926      E7800000 
 927              	.LVL98:
  67:src/Tests.cpp ****     Riscv::enableInterrupts();
 928              		.loc 2 67 5 is_stmt 1 discriminator 2
  67:src/Tests.cpp ****     Riscv::enableInterrupts();
 929              		.loc 2 67 28 is_stmt 0 discriminator 2
 930 0480 97000000 		call	_ZN5Riscv16enableInterruptsEv@plt
 930      E7800000 
 931              	.LVL99:
 932 0488 6F00C001 		j	.L58
 933              	.L56:
  70:src/Tests.cpp ****         Riscv::printString("Main thread\n");
 934              		.loc 2 70 9 is_stmt 1 discriminator 3
  70:src/Tests.cpp ****         Riscv::printString("Main thread\n");
 935              		.loc 2 70 27 is_stmt 0 discriminator 3
 936 048c 17050000 		lla	a0,.LC9
 936      13050500 
 937 0494 97000000 		call	_ZN5Riscv11printStringEPKc@plt
 937      E7800000 
 938              	.LVL100:
  71:src/Tests.cpp ****         thread_dispatch();
 939              		.loc 2 71 9 is_stmt 1 discriminator 3
  71:src/Tests.cpp ****         thread_dispatch();
 940              		.loc 2 71 24 is_stmt 0 discriminator 3
 941 049c 97000000 		call	thread_dispatch@plt
 941      E7800000 
 942              	.LVL101:
 943              	.L58:
  68:src/Tests.cpp ****     while(((PCB*)(t1->myHandle))->getState() != PCB::FINISHED || ((PCB*)(t2->myHandle))->getState()
 944              		.loc 2 68 5 is_stmt 1
  68:src/Tests.cpp ****     while(((PCB*)(t1->myHandle))->getState() != PCB::FINISHED || ((PCB*)(t2->myHandle))->getState()
 945              		.loc 2 68 63
  68:src/Tests.cpp ****     while(((PCB*)(t1->myHandle))->getState() != PCB::FINISHED || ((PCB*)(t2->myHandle))->getState()
 946              		.loc 2 68 23 is_stmt 0
 947 04a4 83B78400 		ld	a5,8(s1)
 948              	.LVL102:
 949              	.LBB32:
 950              	.LBB33:
 951              		.file 4 "src/../h/PCB.hpp"
   1:src/../h/PCB.hpp **** //
   2:src/../h/PCB.hpp **** // Created by os on 4/27/22.
   3:src/../h/PCB.hpp **** //
   4:src/../h/PCB.hpp **** 
GAS LISTING /tmp/cc7WLpkD.s 			page 31


   5:src/../h/PCB.hpp **** #ifndef PROJECT_BASE_V1_0_PCB_HPP
   6:src/../h/PCB.hpp **** #define PROJECT_BASE_V1_0_PCB_HPP
   7:src/../h/PCB.hpp **** 
   8:src/../h/PCB.hpp **** #include "../lib/hw.h"
   9:src/../h/PCB.hpp **** #include "Scheduler.hpp"
  10:src/../h/PCB.hpp **** #include "Riscv.hpp"
  11:src/../h/PCB.hpp **** 
  12:src/../h/PCB.hpp **** class PCB
  13:src/../h/PCB.hpp **** {
  14:src/../h/PCB.hpp **** public:
  15:src/../h/PCB.hpp ****     using Body = void (*)(void*);
  16:src/../h/PCB.hpp **** 
  17:src/../h/PCB.hpp ****     PCB(Body body,  void* args, void* stack_space, uint64 timeSlice);
  18:src/../h/PCB.hpp ****     ~PCB();
  19:src/../h/PCB.hpp **** 
  20:src/../h/PCB.hpp ****     void start();
  21:src/../h/PCB.hpp ****     static void dispatch();
  22:src/../h/PCB.hpp ****     static void sleep(time_t);
  23:src/../h/PCB.hpp **** 
  24:src/../h/PCB.hpp ****     static PCB* running;
  25:src/../h/PCB.hpp ****     static PCB* exitingPCB;
  26:src/../h/PCB.hpp **** 
  27:src/../h/PCB.hpp ****     static uint64 timeSliceCounter;
  28:src/../h/PCB.hpp ****     uint64 getTimeSlice() { return timeSlice;}
  29:src/../h/PCB.hpp **** 
  30:src/../h/PCB.hpp ****     void* operator new(size_t size);
  31:src/../h/PCB.hpp ****     void operator delete(void *p);
  32:src/../h/PCB.hpp **** 
  33:src/../h/PCB.hpp ****     enum State{READY, RUNNING, SUSPENDED, FINISHED, EXITING, SLEEPING};
  34:src/../h/PCB.hpp ****     State getState() {return state;}
 952              		.loc 4 34 23 is_stmt 1
 953              		.loc 4 34 30 is_stmt 0
 954 04a8 03A78703 		lw	a4,56(a5)
 955              	.LVL103:
 956              	.LBE33:
 957              	.LBE32:
  68:src/Tests.cpp ****     while(((PCB*)(t1->myHandle))->getState() != PCB::FINISHED || ((PCB*)(t2->myHandle))->getState()
 958              		.loc 2 68 63
 959 04ac 93073000 		li	a5,3
 960 04b0 E31EF7FC 		bne	a4,a5,.L56
  68:src/Tests.cpp ****     while(((PCB*)(t1->myHandle))->getState() != PCB::FINISHED || ((PCB*)(t2->myHandle))->getState()
 961              		.loc 2 68 78 discriminator 2
 962 04b4 83378900 		ld	a5,8(s2)
 963              	.LVL104:
 964              	.LBB34:
 965              	.LBB35:
 966              		.loc 4 34 23 is_stmt 1 discriminator 2
 967              		.loc 4 34 30 is_stmt 0 discriminator 2
 968 04b8 03A78703 		lw	a4,56(a5)
 969              	.LVL105:
 970              	.LBE35:
 971              	.LBE34:
  68:src/Tests.cpp ****     while(((PCB*)(t1->myHandle))->getState() != PCB::FINISHED || ((PCB*)(t2->myHandle))->getState()
 972              		.loc 2 68 63 discriminator 2
 973 04bc 93073000 		li	a5,3
 974 04c0 E316F7FC 		bne	a4,a5,.L56
  74:src/Tests.cpp ****     Riscv::printString("End...\n");
GAS LISTING /tmp/cc7WLpkD.s 			page 32


 975              		.loc 2 74 5 is_stmt 1
  74:src/Tests.cpp ****     Riscv::printString("End...\n");
 976              		.loc 2 74 23 is_stmt 0
 977 04c4 17050000 		lla	a0,.LC10
 977      13050500 
 978 04cc 97000000 		call	_ZN5Riscv11printStringEPKc@plt
 978      E7800000 
 979              	.LVL106:
  75:src/Tests.cpp ****     Riscv::disableInterrupts();
 980              		.loc 2 75 5 is_stmt 1
  75:src/Tests.cpp ****     Riscv::disableInterrupts();
 981              		.loc 2 75 29 is_stmt 0
 982 04d4 97000000 		call	_ZN5Riscv17disableInterruptsEv@plt
 982      E7800000 
 983              	.LVL107:
 984              	.LEHE4:
  76:src/Tests.cpp **** }
 985              		.loc 2 76 1
 986 04dc 83308101 		ld	ra,24(sp)
 987              		.cfi_remember_state
 988              		.cfi_restore 1
 989 04e0 03340101 		ld	s0,16(sp)
 990              		.cfi_restore 8
 991              		.cfi_def_cfa 2, 32
 992 04e4 83348100 		ld	s1,8(sp)
 993              		.cfi_restore 9
 994              	.LVL108:
 995 04e8 03390100 		ld	s2,0(sp)
 996              		.cfi_restore 18
 997              	.LVL109:
 998 04ec 13010102 		addi	sp,sp,32
 999              		.cfi_def_cfa_offset 0
 1000 04f0 67800000 		jr	ra
 1001              	.L61:
 1002              		.cfi_restore_state
 1003 04f4 13090500 		mv	s2,a0
  63:src/Tests.cpp ****     Thread* t1 = new Thread(&thread1Function, 0);
 1004              		.loc 2 63 48
 1005 04f8 13850400 		mv	a0,s1
 1006 04fc 97000000 		call	_ZdlPv@plt
 1006      E7800000 
 1007              	.LVL110:
 1008 0504 13050900 		mv	a0,s2
 1009              	.LEHB5:
 1010 0508 97000000 		call	_Unwind_Resume@plt
 1010      E7800000 
 1011              	.LVL111:
 1012              	.LEHE5:
 1013              	.L62:
 1014 0510 93040500 		mv	s1,a0
 1015              	.LVL112:
  65:src/Tests.cpp ****     Thread* t2 = new Thread(&thread2Function, 0);
 1016              		.loc 2 65 48
 1017 0514 13050900 		mv	a0,s2
 1018 0518 97000000 		call	_ZdlPv@plt
 1018      E7800000 
 1019              	.LVL113:
GAS LISTING /tmp/cc7WLpkD.s 			page 33


 1020 0520 13850400 		mv	a0,s1
 1021              	.LEHB6:
 1022 0524 97000000 		call	_Unwind_Resume@plt
 1022      E7800000 
 1023              	.LVL114:
 1024              	.LEHE6:
 1025              		.cfi_endproc
 1026              	.LFE27:
 1027              		.globl	__gxx_personality_v0
 1028              		.section	.gcc_except_table,"a",@progbits
 1029              	.LLSDA27:
 1030 0000 FF       		.byte	0xff
 1031 0001 FF       		.byte	0xff
 1032 0002 03       		.byte	0x3
 1033 0003 5B       		.byte	0x5b
 1034 0004 00000000 		.4byte	.LEHB0-.LFB27
 1035 0008 00000000 		.4byte	.LEHE0-.LEHB0
 1036 000c 00000000 		.4byte	0
 1037 0010 00       		.byte	0
 1038 0011 00000000 		.4byte	.LEHB1-.LFB27
 1039 0015 00000000 		.4byte	.LEHE1-.LEHB1
 1040 0019 00000000 		.4byte	.L61-.LFB27
 1041 001d 00       		.byte	0
 1042 001e 00000000 		.4byte	.LEHB2-.LFB27
 1043 0022 00000000 		.4byte	.LEHE2-.LEHB2
 1044 0026 00000000 		.4byte	0
 1045 002a 00       		.byte	0
 1046 002b 00000000 		.4byte	.LEHB3-.LFB27
 1047 002f 00000000 		.4byte	.LEHE3-.LEHB3
 1048 0033 00000000 		.4byte	.L62-.LFB27
 1049 0037 00       		.byte	0
 1050 0038 00000000 		.4byte	.LEHB4-.LFB27
 1051 003c 00000000 		.4byte	.LEHE4-.LEHB4
 1052 0040 00000000 		.4byte	0
 1053 0044 00       		.byte	0
 1054 0045 00000000 		.4byte	.LEHB5-.LFB27
 1055 0049 00000000 		.4byte	.LEHE5-.LEHB5
 1056 004d 00000000 		.4byte	0
 1057 0051 00       		.byte	0
 1058 0052 00000000 		.4byte	.LEHB6-.LFB27
 1059 0056 00000000 		.4byte	.LEHE6-.LEHB6
 1060 005a 00000000 		.4byte	0
 1061 005e 00       		.byte	0
 1062              		.text
 1064              		.align	2
 1065              		.globl	_Z11threadTest2v
 1067              	_Z11threadTest2v:
 1068              	.LFB28:
  79:src/Tests.cpp **** {
 1069              		.loc 2 79 1 is_stmt 1
 1070              		.cfi_startproc
 1071              		.cfi_personality 0x9b,DW.ref.__gxx_personality_v0
 1072              		.cfi_lsda 0x1b,.LLSDA28
 1073 052c 130101FE 		addi	sp,sp,-32
 1074              		.cfi_def_cfa_offset 32
 1075 0530 233C1100 		sd	ra,24(sp)
 1076 0534 23388100 		sd	s0,16(sp)
GAS LISTING /tmp/cc7WLpkD.s 			page 34


 1077 0538 23349100 		sd	s1,8(sp)
 1078 053c 23302101 		sd	s2,0(sp)
 1079              		.cfi_offset 1, -8
 1080              		.cfi_offset 8, -16
 1081              		.cfi_offset 9, -24
 1082              		.cfi_offset 18, -32
 1083 0540 13040102 		addi	s0,sp,32
 1084              		.cfi_def_cfa 8, 0
  80:src/Tests.cpp ****     Thread* idleThread = new Thread(&idle, 0);
 1085              		.loc 2 80 5
  80:src/Tests.cpp ****     Thread* idleThread = new Thread(&idle, 0);
 1086              		.loc 2 80 45 is_stmt 0
 1087 0544 13050002 		li	a0,32
 1088              	.LEHB7:
 1089 0548 97000000 		call	_Znwm@plt
 1089      E7800000 
 1090              	.LVL115:
 1091              	.LEHE7:
 1092 0550 93040500 		mv	s1,a0
 1093 0554 13060000 		li	a2,0
 1094 0558 97050000 		lla	a1,_Z4idlePv
 1094      93850500 
 1095              	.LEHB8:
 1096 0560 97000000 		call	_ZN6ThreadC1EPFvPvES0_@plt
 1096      E7800000 
 1097              	.LVL116:
 1098              	.LEHE8:
  81:src/Tests.cpp ****     idleThread->start();
 1099              		.loc 2 81 5 is_stmt 1 discriminator 2
  81:src/Tests.cpp ****     idleThread->start();
 1100              		.loc 2 81 22 is_stmt 0 discriminator 2
 1101 0568 13850400 		mv	a0,s1
 1102              	.LEHB9:
 1103 056c 97000000 		call	_ZN6Thread5startEv@plt
 1103      E7800000 
 1104              	.LVL117:
  82:src/Tests.cpp ****     Thread* t1 = new Thread(&thread1Function, 0);
 1105              		.loc 2 82 5 is_stmt 1 discriminator 2
  82:src/Tests.cpp ****     Thread* t1 = new Thread(&thread1Function, 0);
 1106              		.loc 2 82 48 is_stmt 0 discriminator 2
 1107 0574 13050002 		li	a0,32
 1108 0578 97000000 		call	_Znwm@plt
 1108      E7800000 
 1109              	.LVL118:
 1110              	.LEHE9:
 1111 0580 13090500 		mv	s2,a0
 1112 0584 13060000 		li	a2,0
 1113 0588 97050000 		lla	a1,_Z15thread1FunctionPv
 1113      93850500 
 1114              	.LEHB10:
 1115 0590 97000000 		call	_ZN6ThreadC1EPFvPvES0_@plt
 1115      E7800000 
 1116              	.LVL119:
 1117              	.LEHE10:
  83:src/Tests.cpp ****     t1->start();
 1118              		.loc 2 83 5 is_stmt 1 discriminator 2
  83:src/Tests.cpp ****     t1->start();
GAS LISTING /tmp/cc7WLpkD.s 			page 35


 1119              		.loc 2 83 14 is_stmt 0 discriminator 2
 1120 0598 13050900 		mv	a0,s2
 1121              	.LEHB11:
 1122 059c 97000000 		call	_ZN6Thread5startEv@plt
 1122      E7800000 
 1123              	.LVL120:
  84:src/Tests.cpp ****     Thread* t2  = new Thread(&thread2FunctionTest2, 0);
 1124              		.loc 2 84 5 is_stmt 1 discriminator 2
  84:src/Tests.cpp ****     Thread* t2  = new Thread(&thread2FunctionTest2, 0);
 1125              		.loc 2 84 54 is_stmt 0 discriminator 2
 1126 05a4 13050002 		li	a0,32
 1127 05a8 97000000 		call	_Znwm@plt
 1127      E7800000 
 1128              	.LVL121:
 1129              	.LEHE11:
 1130 05b0 13090500 		mv	s2,a0
 1131              	.LVL122:
 1132 05b4 13060000 		li	a2,0
 1133 05b8 97050000 		lla	a1,_Z20thread2FunctionTest2Pv
 1133      93850500 
 1134              	.LEHB12:
 1135 05c0 97000000 		call	_ZN6ThreadC1EPFvPvES0_@plt
 1135      E7800000 
 1136              	.LVL123:
 1137              	.LEHE12:
  85:src/Tests.cpp ****     t2->start();
 1138              		.loc 2 85 5 is_stmt 1 discriminator 2
  85:src/Tests.cpp ****     t2->start();
 1139              		.loc 2 85 14 is_stmt 0 discriminator 2
 1140 05c8 13050900 		mv	a0,s2
 1141              	.LEHB13:
 1142 05cc 97000000 		call	_ZN6Thread5startEv@plt
 1142      E7800000 
 1143              	.LVL124:
  87:src/Tests.cpp ****     Riscv::enableInterrupts();
 1144              		.loc 2 87 5 is_stmt 1 discriminator 2
  87:src/Tests.cpp ****     Riscv::enableInterrupts();
 1145              		.loc 2 87 28 is_stmt 0 discriminator 2
 1146 05d4 97000000 		call	_ZN5Riscv16enableInterruptsEv@plt
 1146      E7800000 
 1147              	.LVL125:
 1148              	.L66:
  89:src/Tests.cpp ****     while(((PCB*)idleThread->myHandle)->getState() != PCB::FINISHED);
 1149              		.loc 2 89 5 is_stmt 1
  89:src/Tests.cpp ****     while(((PCB*)idleThread->myHandle)->getState() != PCB::FINISHED);
 1150              		.loc 2 89 52
  89:src/Tests.cpp ****     while(((PCB*)idleThread->myHandle)->getState() != PCB::FINISHED);
 1151              		.loc 2 89 30 is_stmt 0
 1152 05dc 83B78400 		ld	a5,8(s1)
 1153              	.LVL126:
 1154              	.LBB36:
 1155              	.LBB37:
 1156              		.loc 4 34 23 is_stmt 1
 1157              		.loc 4 34 30 is_stmt 0
 1158 05e0 03A78703 		lw	a4,56(a5)
 1159              	.LVL127:
 1160              	.LBE37:
GAS LISTING /tmp/cc7WLpkD.s 			page 36


 1161              	.LBE36:
  89:src/Tests.cpp ****     while(((PCB*)idleThread->myHandle)->getState() != PCB::FINISHED);
 1162              		.loc 2 89 52
 1163 05e4 93073000 		li	a5,3
 1164 05e8 E31AF7FE 		bne	a4,a5,.L66
  91:src/Tests.cpp ****     Riscv::printString("End...\n");
 1165              		.loc 2 91 5 is_stmt 1
  91:src/Tests.cpp ****     Riscv::printString("End...\n");
 1166              		.loc 2 91 23 is_stmt 0
 1167 05ec 17050000 		lla	a0,.LC10
 1167      13050500 
 1168 05f4 97000000 		call	_ZN5Riscv11printStringEPKc@plt
 1168      E7800000 
 1169              	.LVL128:
  93:src/Tests.cpp ****     Riscv::disableInterrupts();
 1170              		.loc 2 93 5 is_stmt 1
  93:src/Tests.cpp ****     Riscv::disableInterrupts();
 1171              		.loc 2 93 29 is_stmt 0
 1172 05fc 97000000 		call	_ZN5Riscv17disableInterruptsEv@plt
 1172      E7800000 
 1173              	.LVL129:
 1174              	.LEHE13:
  94:src/Tests.cpp **** }
 1175              		.loc 2 94 1
 1176 0604 83308101 		ld	ra,24(sp)
 1177              		.cfi_remember_state
 1178              		.cfi_restore 1
 1179 0608 03340101 		ld	s0,16(sp)
 1180              		.cfi_restore 8
 1181              		.cfi_def_cfa 2, 32
 1182 060c 83348100 		ld	s1,8(sp)
 1183              		.cfi_restore 9
 1184              	.LVL130:
 1185 0610 03390100 		ld	s2,0(sp)
 1186              		.cfi_restore 18
 1187              	.LVL131:
 1188 0614 13010102 		addi	sp,sp,32
 1189              		.cfi_def_cfa_offset 0
 1190 0618 67800000 		jr	ra
 1191              	.L70:
 1192              		.cfi_restore_state
 1193 061c 13090500 		mv	s2,a0
  80:src/Tests.cpp ****     Thread* idleThread = new Thread(&idle, 0);
 1194              		.loc 2 80 45
 1195 0620 13850400 		mv	a0,s1
 1196 0624 97000000 		call	_ZdlPv@plt
 1196      E7800000 
 1197              	.LVL132:
 1198 062c 13050900 		mv	a0,s2
 1199              	.LEHB14:
 1200 0630 97000000 		call	_Unwind_Resume@plt
 1200      E7800000 
 1201              	.LVL133:
 1202              	.LEHE14:
 1203              	.L71:
 1204 0638 93040500 		mv	s1,a0
 1205              	.LVL134:
GAS LISTING /tmp/cc7WLpkD.s 			page 37


  82:src/Tests.cpp ****     Thread* t1 = new Thread(&thread1Function, 0);
 1206              		.loc 2 82 48
 1207 063c 13050900 		mv	a0,s2
 1208 0640 97000000 		call	_ZdlPv@plt
 1208      E7800000 
 1209              	.LVL135:
 1210 0648 13850400 		mv	a0,s1
 1211              	.LEHB15:
 1212 064c 97000000 		call	_Unwind_Resume@plt
 1212      E7800000 
 1213              	.LVL136:
 1214              	.LEHE15:
 1215              	.L72:
 1216 0654 93040500 		mv	s1,a0
 1217              	.LVL137:
  84:src/Tests.cpp ****     Thread* t2  = new Thread(&thread2FunctionTest2, 0);
 1218              		.loc 2 84 54
 1219 0658 13050900 		mv	a0,s2
 1220 065c 97000000 		call	_ZdlPv@plt
 1220      E7800000 
 1221              	.LVL138:
 1222 0664 13850400 		mv	a0,s1
 1223              	.LEHB16:
 1224 0668 97000000 		call	_Unwind_Resume@plt
 1224      E7800000 
 1225              	.LVL139:
 1226              	.LEHE16:
 1227              		.cfi_endproc
 1228              	.LFE28:
 1229              		.section	.gcc_except_table
 1230              	.LLSDA28:
 1231 005f FF       		.byte	0xff
 1232 0060 FF       		.byte	0xff
 1233 0061 03       		.byte	0x3
 1234 0062 8201     		.byte	0x82,0x1
 1235 0064 00000000 		.4byte	.LEHB7-.LFB28
 1236 0068 00000000 		.4byte	.LEHE7-.LEHB7
 1237 006c 00000000 		.4byte	0
 1238 0070 00       		.byte	0
 1239 0071 00000000 		.4byte	.LEHB8-.LFB28
 1240 0075 00000000 		.4byte	.LEHE8-.LEHB8
 1241 0079 00000000 		.4byte	.L70-.LFB28
 1242 007d 00       		.byte	0
 1243 007e 00000000 		.4byte	.LEHB9-.LFB28
 1244 0082 00000000 		.4byte	.LEHE9-.LEHB9
 1245 0086 00000000 		.4byte	0
 1246 008a 00       		.byte	0
 1247 008b 00000000 		.4byte	.LEHB10-.LFB28
 1248 008f 00000000 		.4byte	.LEHE10-.LEHB10
 1249 0093 00000000 		.4byte	.L71-.LFB28
 1250 0097 00       		.byte	0
 1251 0098 00000000 		.4byte	.LEHB11-.LFB28
 1252 009c 00000000 		.4byte	.LEHE11-.LEHB11
 1253 00a0 00000000 		.4byte	0
 1254 00a4 00       		.byte	0
 1255 00a5 00000000 		.4byte	.LEHB12-.LFB28
 1256 00a9 00000000 		.4byte	.LEHE12-.LEHB12
GAS LISTING /tmp/cc7WLpkD.s 			page 38


 1257 00ad 00000000 		.4byte	.L72-.LFB28
 1258 00b1 00       		.byte	0
 1259 00b2 00000000 		.4byte	.LEHB13-.LFB28
 1260 00b6 00000000 		.4byte	.LEHE13-.LEHB13
 1261 00ba 00000000 		.4byte	0
 1262 00be 00       		.byte	0
 1263 00bf 00000000 		.4byte	.LEHB14-.LFB28
 1264 00c3 00000000 		.4byte	.LEHE14-.LEHB14
 1265 00c7 00000000 		.4byte	0
 1266 00cb 00       		.byte	0
 1267 00cc 00000000 		.4byte	.LEHB15-.LFB28
 1268 00d0 00000000 		.4byte	.LEHE15-.LEHB15
 1269 00d4 00000000 		.4byte	0
 1270 00d8 00       		.byte	0
 1271 00d9 00000000 		.4byte	.LEHB16-.LFB28
 1272 00dd 00000000 		.4byte	.LEHE16-.LEHB16
 1273 00e1 00000000 		.4byte	0
 1274 00e5 00       		.byte	0
 1275              		.text
 1277              		.section	.rodata.str1.8
 1278              		.align	3
 1279              	.LC11:
 1280 0098 6D616C6C 		.string	"mallocFree\n"
 1280      6F634672 
 1280      65650A00 
 1281 00a4 00000000 		.align	3
 1282              	.LC12:
 1283 00a8 6E6F7420 		.string	"not OK\n"
 1283      4F4B0A00 
 1284              		.align	3
 1285              	.LC13:
 1286 00b0 4F4B0A00 		.string	"OK\n"
 1287              		.text
 1288              		.align	2
 1289              		.globl	_Z10mallocFreev
 1291              	_Z10mallocFreev:
 1292              	.LFB31:
 117:src/Tests.cpp **** {
 1293              		.loc 2 117 1 is_stmt 1
 1294              		.cfi_startproc
 1295 0670 130101CC 		addi	sp,sp,-832
 1296              		.cfi_def_cfa_offset 832
 1297 0674 233C1132 		sd	ra,824(sp)
 1298 0678 23388132 		sd	s0,816(sp)
 1299 067c 23349132 		sd	s1,808(sp)
 1300              		.cfi_offset 1, -8
 1301              		.cfi_offset 8, -16
 1302              		.cfi_offset 9, -24
 1303 0680 13040134 		addi	s0,sp,832
 1304              		.cfi_def_cfa 8, 0
 118:src/Tests.cpp ****     Riscv::printString("mallocFree\n");
 1305              		.loc 2 118 5
 118:src/Tests.cpp ****     Riscv::printString("mallocFree\n");
 1306              		.loc 2 118 23 is_stmt 0
 1307 0684 17050000 		lla	a0,.LC11
 1307      13050500 
 1308 068c 97000000 		call	_ZN5Riscv11printStringEPKc@plt
GAS LISTING /tmp/cc7WLpkD.s 			page 39


 1308      E7800000 
 1309              	.LVL140:
 1310              	.LBB38:
 121:src/Tests.cpp ****     for(int i = 0; i < num;i++)
 1311              		.loc 2 121 13
 1312 0694 93040000 		li	s1,0
 1313 0698 6F008000 		j	.L79
 1314              	.LVL141:
 1315              	.L77:
 121:src/Tests.cpp ****     for(int i = 0; i < num;i++)
 1316              		.loc 2 121 5 is_stmt 1 discriminator 2
 1317 069c 9B841400 		addiw	s1,s1,1
 1318              	.LVL142:
 1319              	.L79:
 121:src/Tests.cpp ****     for(int i = 0; i < num;i++)
 1320              		.loc 2 121 22 discriminator 1
 1321 06a0 93073006 		li	a5,99
 1322 06a4 63C49704 		bgt	s1,a5,.L87
 123:src/Tests.cpp ****         addrs[i] = mem_alloc(100);
 1323              		.loc 2 123 9
 123:src/Tests.cpp ****         addrs[i] = mem_alloc(100);
 1324              		.loc 2 123 29 is_stmt 0
 1325 06a8 13054006 		li	a0,100
 1326 06ac 97000000 		call	mem_alloc@plt
 1326      E7800000 
 1327              	.LVL143:
 123:src/Tests.cpp ****         addrs[i] = mem_alloc(100);
 1328              		.loc 2 123 18
 1329 06b4 93973400 		slli	a5,s1,3
 1330 06b8 130704FE 		addi	a4,s0,-32
 1331 06bc B307F700 		add	a5,a4,a5
 1332 06c0 23B0A7CE 		sd	a0,-800(a5)
 124:src/Tests.cpp ****         if(addrs[i] == 0)
 1333              		.loc 2 124 9 is_stmt 1
 1334 06c4 E31C05FC 		bnez	a0,.L77
 126:src/Tests.cpp ****             Riscv::printString("not OK\n");
 1335              		.loc 2 126 13
 126:src/Tests.cpp ****             Riscv::printString("not OK\n");
 1336              		.loc 2 126 31 is_stmt 0
 1337 06c8 17050000 		lla	a0,.LC12
 1337      13050500 
 1338 06d0 97000000 		call	_ZN5Riscv11printStringEPKc@plt
 1338      E7800000 
 1339              	.LVL144:
 127:src/Tests.cpp ****             return;
 1340              		.loc 2 127 13 is_stmt 1
 1341              	.L75:
 1342              	.LBE38:
 163:src/Tests.cpp **** }
 1343              		.loc 2 163 1 is_stmt 0
 1344 06d8 83308133 		ld	ra,824(sp)
 1345              		.cfi_remember_state
 1346              		.cfi_restore 1
 1347 06dc 03340133 		ld	s0,816(sp)
 1348              		.cfi_restore 8
 1349              		.cfi_def_cfa 2, 832
 1350 06e0 83348132 		ld	s1,808(sp)
GAS LISTING /tmp/cc7WLpkD.s 			page 40


 1351              		.cfi_restore 9
 1352 06e4 13010134 		addi	sp,sp,832
 1353              		.cfi_def_cfa_offset 0
 1354 06e8 67800000 		jr	ra
 1355              	.LVL145:
 1356              	.L87:
 1357              		.cfi_restore_state
 1358              	.LBB39:
 132:src/Tests.cpp ****     for(int i = 0 ; i < num;i+=2)
 1359              		.loc 2 132 13
 1360 06ec 93040000 		li	s1,0
 1361              	.LVL146:
 1362              	.L76:
 132:src/Tests.cpp ****     for(int i = 0 ; i < num;i+=2)
 1363              		.loc 2 132 23 is_stmt 1 discriminator 1
 1364 06f0 93073006 		li	a5,99
 1365 06f4 63CE9702 		bgt	s1,a5,.L88
 1366              	.LBB40:
 134:src/Tests.cpp ****         int retval = mem_free(addrs[i]);
 1367              		.loc 2 134 9
 134:src/Tests.cpp ****         int retval = mem_free(addrs[i]);
 1368              		.loc 2 134 30 is_stmt 0
 1369 06f8 93973400 		slli	a5,s1,3
 1370 06fc 130704FE 		addi	a4,s0,-32
 1371 0700 B307F700 		add	a5,a4,a5
 1372 0704 03B507CE 		ld	a0,-800(a5)
 1373 0708 97000000 		call	mem_free@plt
 1373      E7800000 
 1374              	.LVL147:
 135:src/Tests.cpp ****         if(retval != 0)
 1375              		.loc 2 135 9 is_stmt 1
 1376 0710 63160500 		bnez	a0,.L91
 1377              	.LBE40:
 132:src/Tests.cpp ****     for(int i = 0 ; i < num;i+=2)
 1378              		.loc 2 132 5 discriminator 2
 132:src/Tests.cpp ****     for(int i = 0 ; i < num;i+=2)
 1379              		.loc 2 132 30 is_stmt 0 discriminator 2
 1380 0714 9B842400 		addiw	s1,s1,2
 1381              	.LVL148:
 132:src/Tests.cpp ****     for(int i = 0 ; i < num;i+=2)
 1382              		.loc 2 132 5 discriminator 2
 1383 0718 6FF09FFD 		j	.L76
 1384              	.LVL149:
 1385              	.L91:
 1386              	.LBB41:
 137:src/Tests.cpp ****             Riscv::printString("not OK\n");
 1387              		.loc 2 137 13 is_stmt 1
 137:src/Tests.cpp ****             Riscv::printString("not OK\n");
 1388              		.loc 2 137 31 is_stmt 0
 1389 071c 17050000 		lla	a0,.LC12
 1389      13050500 
 1390              	.LVL150:
 1391 0724 97000000 		call	_ZN5Riscv11printStringEPKc@plt
 1391      E7800000 
 1392              	.LVL151:
 138:src/Tests.cpp ****             return;
 1393              		.loc 2 138 13 is_stmt 1
GAS LISTING /tmp/cc7WLpkD.s 			page 41


 1394 072c 6FF0DFFA 		j	.L75
 1395              	.L88:
 1396              	.LBE41:
 1397              	.LBE39:
 1398              	.LBB42:
 142:src/Tests.cpp ****     for(int i = 0 ; i < num;i+=2)
 1399              		.loc 2 142 13 is_stmt 0
 1400 0730 93040000 		li	s1,0
 1401              	.LVL152:
 1402 0734 6F008000 		j	.L80
 1403              	.LVL153:
 1404              	.L83:
 142:src/Tests.cpp ****     for(int i = 0 ; i < num;i+=2)
 1405              		.loc 2 142 5 is_stmt 1 discriminator 2
 142:src/Tests.cpp ****     for(int i = 0 ; i < num;i+=2)
 1406              		.loc 2 142 30 is_stmt 0 discriminator 2
 1407 0738 9B842400 		addiw	s1,s1,2
 1408              	.LVL154:
 1409              	.L80:
 142:src/Tests.cpp ****     for(int i = 0 ; i < num;i+=2)
 1410              		.loc 2 142 23 is_stmt 1 discriminator 1
 1411 073c 93073006 		li	a5,99
 1412 0740 63CC9702 		bgt	s1,a5,.L89
 144:src/Tests.cpp ****         addrs[i] = mem_alloc(20);
 1413              		.loc 2 144 9
 144:src/Tests.cpp ****         addrs[i] = mem_alloc(20);
 1414              		.loc 2 144 29 is_stmt 0
 1415 0744 13054001 		li	a0,20
 1416 0748 97000000 		call	mem_alloc@plt
 1416      E7800000 
 1417              	.LVL155:
 144:src/Tests.cpp ****         addrs[i] = mem_alloc(20);
 1418              		.loc 2 144 18
 1419 0750 93973400 		slli	a5,s1,3
 1420 0754 130704FE 		addi	a4,s0,-32
 1421 0758 B307F700 		add	a5,a4,a5
 1422 075c 23B0A7CE 		sd	a0,-800(a5)
 145:src/Tests.cpp ****         if(addrs[i] == 0)
 1423              		.loc 2 145 9 is_stmt 1
 1424 0760 E31C05FC 		bnez	a0,.L83
 147:src/Tests.cpp ****             Riscv::printString("not OK\n");
 1425              		.loc 2 147 13
 147:src/Tests.cpp ****             Riscv::printString("not OK\n");
 1426              		.loc 2 147 31 is_stmt 0
 1427 0764 17050000 		lla	a0,.LC12
 1427      13050500 
 1428 076c 97000000 		call	_ZN5Riscv11printStringEPKc@plt
 1428      E7800000 
 1429              	.LVL156:
 148:src/Tests.cpp ****             return;
 1430              		.loc 2 148 13 is_stmt 1
 1431 0774 6FF05FF6 		j	.L75
 1432              	.L89:
 1433              	.LBE42:
 1434              	.LBB43:
 152:src/Tests.cpp ****     for(int i = 0; i < num;i++)
 1435              		.loc 2 152 13 is_stmt 0
GAS LISTING /tmp/cc7WLpkD.s 			page 42


 1436 0778 93040000 		li	s1,0
 1437              	.LVL157:
 1438              	.L82:
 152:src/Tests.cpp ****     for(int i = 0; i < num;i++)
 1439              		.loc 2 152 22 is_stmt 1 discriminator 1
 1440 077c 93073006 		li	a5,99
 1441 0780 63CE9702 		bgt	s1,a5,.L84
 1442              	.LBB44:
 154:src/Tests.cpp ****         int retval = mem_free(addrs[i]);
 1443              		.loc 2 154 9
 154:src/Tests.cpp ****         int retval = mem_free(addrs[i]);
 1444              		.loc 2 154 30 is_stmt 0
 1445 0784 93973400 		slli	a5,s1,3
 1446 0788 130704FE 		addi	a4,s0,-32
 1447 078c B307F700 		add	a5,a4,a5
 1448 0790 03B507CE 		ld	a0,-800(a5)
 1449 0794 97000000 		call	mem_free@plt
 1449      E7800000 
 1450              	.LVL158:
 155:src/Tests.cpp ****         if(retval != 0)
 1451              		.loc 2 155 9 is_stmt 1
 1452 079c 63160500 		bnez	a0,.L92
 1453              	.LBE44:
 152:src/Tests.cpp ****     for(int i = 0; i < num;i++)
 1454              		.loc 2 152 5 discriminator 2
 1455 07a0 9B841400 		addiw	s1,s1,1
 1456              	.LVL159:
 1457 07a4 6FF09FFD 		j	.L82
 1458              	.LVL160:
 1459              	.L92:
 1460              	.LBB45:
 157:src/Tests.cpp ****             Riscv::printString("not OK\n");
 1461              		.loc 2 157 13
 157:src/Tests.cpp ****             Riscv::printString("not OK\n");
 1462              		.loc 2 157 31 is_stmt 0
 1463 07a8 17050000 		lla	a0,.LC12
 1463      13050500 
 1464              	.LVL161:
 1465 07b0 97000000 		call	_ZN5Riscv11printStringEPKc@plt
 1465      E7800000 
 1466              	.LVL162:
 158:src/Tests.cpp ****             return;
 1467              		.loc 2 158 13 is_stmt 1
 1468 07b8 6FF01FF2 		j	.L75
 1469              	.L84:
 1470              	.LBE45:
 1471              	.LBE43:
 162:src/Tests.cpp ****     Riscv::printString("OK\n");
 1472              		.loc 2 162 5
 162:src/Tests.cpp ****     Riscv::printString("OK\n");
 1473              		.loc 2 162 23 is_stmt 0
 1474 07bc 17050000 		lla	a0,.LC13
 1474      13050500 
 1475 07c4 97000000 		call	_ZN5Riscv11printStringEPKc@plt
 1475      E7800000 
 1476              	.LVL163:
 1477 07cc 6FF0DFF0 		j	.L75
GAS LISTING /tmp/cc7WLpkD.s 			page 43


 1478              		.cfi_endproc
 1479              	.LFE31:
 1481              		.section	.rodata.str1.8
 1482 00b4 00000000 		.align	3
 1483              	.LC14:
 1484 00b8 6269674D 		.string	"bigMalloc\n"
 1484      616C6C6F 
 1484      630A00
 1485              		.text
 1486              		.align	2
 1487              		.globl	_Z9bigMallocv
 1489              	_Z9bigMallocv:
 1490              	.LFB32:
 165:src/Tests.cpp **** {
 1491              		.loc 2 165 1 is_stmt 1
 1492              		.cfi_startproc
 1493 07d0 130101FF 		addi	sp,sp,-16
 1494              		.cfi_def_cfa_offset 16
 1495 07d4 23341100 		sd	ra,8(sp)
 1496 07d8 23308100 		sd	s0,0(sp)
 1497              		.cfi_offset 1, -8
 1498              		.cfi_offset 8, -16
 1499 07dc 13040101 		addi	s0,sp,16
 1500              		.cfi_def_cfa 8, 0
 166:src/Tests.cpp ****     Riscv::printString("bigMalloc\n");
 1501              		.loc 2 166 5
 166:src/Tests.cpp ****     Riscv::printString("bigMalloc\n");
 1502              		.loc 2 166 23 is_stmt 0
 1503 07e0 17050000 		lla	a0,.LC14
 1503      13050500 
 1504 07e8 97000000 		call	_ZN5Riscv11printStringEPKc@plt
 1504      E7800000 
 1505              	.LVL164:
 167:src/Tests.cpp ****     uint64 x = (uint64)HEAP_END_ADDR - (uint64)HEAP_START_ADDR + 100UL;
 1506              		.loc 2 167 5 is_stmt 1
 167:src/Tests.cpp ****     uint64 x = (uint64)HEAP_END_ADDR - (uint64)HEAP_START_ADDR + 100UL;
 1507              		.loc 2 167 38 is_stmt 0
 1508 07f0 97070000 		la	a5,HEAP_END_ADDR
 1508      83B70700 
 1509 07f8 03B50700 		ld	a0,0(a5)
 1510 07fc 97070000 		la	a5,HEAP_START_ADDR
 1510      83B70700 
 1511 0804 83B70700 		ld	a5,0(a5)
 1512 0808 3305F540 		sub	a0,a0,a5
 1513              	.LVL165:
 168:src/Tests.cpp ****     void* p = mem_alloc(x);
 1514              		.loc 2 168 5 is_stmt 1
 168:src/Tests.cpp ****     void* p = mem_alloc(x);
 1515              		.loc 2 168 24 is_stmt 0
 1516 080c 13054506 		addi	a0,a0,100
 1517              	.LVL166:
 1518 0810 97000000 		call	mem_alloc@plt
 1518      E7800000 
 1519              	.LVL167:
 169:src/Tests.cpp ****     if(p == 0)
 1520              		.loc 2 169 5 is_stmt 1
 1521 0818 63020502 		beqz	a0,.L97
GAS LISTING /tmp/cc7WLpkD.s 			page 44


 172:src/Tests.cpp ****         Riscv::printString("not OK\n");
 1522              		.loc 2 172 9
 172:src/Tests.cpp ****         Riscv::printString("not OK\n");
 1523              		.loc 2 172 27 is_stmt 0
 1524 081c 17050000 		lla	a0,.LC12
 1524      13050500 
 1525              	.LVL168:
 1526 0824 97000000 		call	_ZN5Riscv11printStringEPKc@plt
 1526      E7800000 
 1527              	.LVL169:
 1528              	.L93:
 173:src/Tests.cpp **** }
 1529              		.loc 2 173 1
 1530 082c 83308100 		ld	ra,8(sp)
 1531              		.cfi_remember_state
 1532              		.cfi_restore 1
 1533 0830 03340100 		ld	s0,0(sp)
 1534              		.cfi_restore 8
 1535              		.cfi_def_cfa 2, 16
 1536 0834 13010101 		addi	sp,sp,16
 1537              		.cfi_def_cfa_offset 0
 1538 0838 67800000 		jr	ra
 1539              	.LVL170:
 1540              	.L97:
 1541              		.cfi_restore_state
 170:src/Tests.cpp ****         Riscv::printString("OK\n");
 1542              		.loc 2 170 9 is_stmt 1
 170:src/Tests.cpp ****         Riscv::printString("OK\n");
 1543              		.loc 2 170 27 is_stmt 0
 1544 083c 17050000 		lla	a0,.LC13
 1544      13050500 
 1545              	.LVL171:
 1546 0844 97000000 		call	_ZN5Riscv11printStringEPKc@plt
 1546      E7800000 
 1547              	.LVL172:
 1548 084c 6FF01FFE 		j	.L93
 1549              		.cfi_endproc
 1550              	.LFE32:
 1552              		.section	.rodata.str1.8
 1553 00c3 00000000 		.align	3
 1553      00
 1554              	.LC15:
 1555 00c8 6C6F744F 		.string	"lotOfSmallMallocs\n"
 1555      66536D61 
 1555      6C6C4D61 
 1555      6C6C6F63 
 1555      730A00
 1556              		.text
 1557              		.align	2
 1558              		.globl	_Z17lotOfSmallMallocsv
 1560              	_Z17lotOfSmallMallocsv:
 1561              	.LFB33:
 176:src/Tests.cpp **** {
 1562              		.loc 2 176 1 is_stmt 1
 1563              		.cfi_startproc
 1564 0850 130101FD 		addi	sp,sp,-48
 1565              		.cfi_def_cfa_offset 48
GAS LISTING /tmp/cc7WLpkD.s 			page 45


 1566 0854 23341102 		sd	ra,40(sp)
 1567 0858 23308102 		sd	s0,32(sp)
 1568 085c 233C9100 		sd	s1,24(sp)
 1569 0860 23382101 		sd	s2,16(sp)
 1570 0864 23343101 		sd	s3,8(sp)
 1571              		.cfi_offset 1, -8
 1572              		.cfi_offset 8, -16
 1573              		.cfi_offset 9, -24
 1574              		.cfi_offset 18, -32
 1575              		.cfi_offset 19, -40
 1576 0868 13040103 		addi	s0,sp,48
 1577              		.cfi_def_cfa 8, 0
 177:src/Tests.cpp ****     Riscv::printString("lotOfSmallMallocs\n");
 1578              		.loc 2 177 5
 177:src/Tests.cpp ****     Riscv::printString("lotOfSmallMallocs\n");
 1579              		.loc 2 177 23 is_stmt 0
 1580 086c 17050000 		lla	a0,.LC15
 1580      13050500 
 1581 0874 97000000 		call	_ZN5Riscv11printStringEPKc@plt
 1581      E7800000 
 1582              	.LVL173:
 178:src/Tests.cpp ****     uint64 cnt = 0;
 1583              		.loc 2 178 5 is_stmt 1
 179:src/Tests.cpp ****     uint64 sum = 0;
 1584              		.loc 2 179 5
 180:src/Tests.cpp ****     uint64 N = 10000UL;
 1585              		.loc 2 180 5
 181:src/Tests.cpp ****     uint64 X = 10UL;
 1586              		.loc 2 181 5
 182:src/Tests.cpp ****     for(uint64 i = 0; i < N;i++)
 1587              		.loc 2 182 5
 1588              	.LBB46:
 182:src/Tests.cpp ****     for(uint64 i = 0; i < N;i++)
 1589              		.loc 2 182 16 is_stmt 0
 1590 087c 93040000 		li	s1,0
 1591              	.LBE46:
 179:src/Tests.cpp ****     uint64 sum = 0;
 1592              		.loc 2 179 12
 1593 0880 93090000 		li	s3,0
 178:src/Tests.cpp ****     uint64 cnt = 0;
 1594              		.loc 2 178 12
 1595 0884 13090000 		li	s2,0
 1596 0888 6F008001 		j	.L100
 1597              	.LVL174:
 1598              	.L104:
 1599              	.LBB49:
 1600              	.LBB47:
 187:src/Tests.cpp ****         t->a = X;
 1601              		.loc 2 187 9 is_stmt 1 discriminator 2
 187:src/Tests.cpp ****         t->a = X;
 1602              		.loc 2 187 14 is_stmt 0 discriminator 2
 1603 088c 9307A000 		li	a5,10
 1604 0890 2330F500 		sd	a5,0(a0)
 188:src/Tests.cpp ****         sum+=t->a;
 1605              		.loc 2 188 9 is_stmt 1 discriminator 2
 188:src/Tests.cpp ****         sum+=t->a;
 1606              		.loc 2 188 12 is_stmt 0 discriminator 2
GAS LISTING /tmp/cc7WLpkD.s 			page 46


 1607 0894 9389A900 		addi	s3,s3,10
 1608              	.LVL175:
 189:src/Tests.cpp ****         cnt++;
 1609              		.loc 2 189 9 is_stmt 1 discriminator 2
 189:src/Tests.cpp ****         cnt++;
 1610              		.loc 2 189 12 is_stmt 0 discriminator 2
 1611 0898 13091900 		addi	s2,s2,1
 1612              	.LVL176:
 1613              	.LBE47:
 182:src/Tests.cpp ****     for(uint64 i = 0; i < N;i++)
 1614              		.loc 2 182 5 is_stmt 1 discriminator 2
 1615 089c 93841400 		addi	s1,s1,1
 1616              	.LVL177:
 1617              	.L100:
 182:src/Tests.cpp ****     for(uint64 i = 0; i < N;i++)
 1618              		.loc 2 182 25 discriminator 1
 1619 08a0 B7270000 		li	a5,8192
 1620 08a4 9387F770 		addi	a5,a5,1807
 1621 08a8 63EA9700 		bgtu	s1,a5,.L99
 1622              	.LBB48:
 184:src/Tests.cpp ****         Test* t = (Test*)mem_alloc(sizeof(Test));
 1623              		.loc 2 184 9
 184:src/Tests.cpp ****         Test* t = (Test*)mem_alloc(sizeof(Test));
 1624              		.loc 2 184 35 is_stmt 0
 1625 08ac 13058000 		li	a0,8
 1626 08b0 97000000 		call	mem_alloc@plt
 1626      E7800000 
 1627              	.LVL178:
 185:src/Tests.cpp ****         if(t == 0)
 1628              		.loc 2 185 9 is_stmt 1
 1629 08b8 E31A05FC 		bnez	a0,.L104
 1630              	.LVL179:
 1631              	.L99:
 1632              	.LBE48:
 1633              	.LBE49:
 191:src/Tests.cpp ****     Riscv::printInteger(cnt);
 1634              		.loc 2 191 5
 191:src/Tests.cpp ****     Riscv::printInteger(cnt);
 1635              		.loc 2 191 24 is_stmt 0
 1636 08bc 13050900 		mv	a0,s2
 1637 08c0 97000000 		call	_ZN5Riscv12printIntegerEm@plt
 1637      E7800000 
 1638              	.LVL180:
 192:src/Tests.cpp ****     Riscv::printString("\n");
 1639              		.loc 2 192 5 is_stmt 1
 192:src/Tests.cpp ****     Riscv::printString("\n");
 1640              		.loc 2 192 23 is_stmt 0
 1641 08c8 17050000 		lla	a0,.LC3
 1641      13050500 
 1642 08d0 97000000 		call	_ZN5Riscv11printStringEPKc@plt
 1642      E7800000 
 1643              	.LVL181:
 193:src/Tests.cpp ****     if(sum == X*cnt)
 1644              		.loc 2 193 5 is_stmt 1
 193:src/Tests.cpp ****     if(sum == X*cnt)
 1645              		.loc 2 193 16 is_stmt 0
 1646 08d8 93172900 		slli	a5,s2,2
GAS LISTING /tmp/cc7WLpkD.s 			page 47


 1647 08dc 33892701 		add	s2,a5,s2
 1648              	.LVL182:
 1649 08e0 13191900 		slli	s2,s2,1
 193:src/Tests.cpp ****     if(sum == X*cnt)
 1650              		.loc 2 193 5
 1651 08e4 63083903 		beq	s2,s3,.L105
 196:src/Tests.cpp ****         Riscv::printString("not OK\n");
 1652              		.loc 2 196 9 is_stmt 1
 196:src/Tests.cpp ****         Riscv::printString("not OK\n");
 1653              		.loc 2 196 27 is_stmt 0
 1654 08e8 17050000 		lla	a0,.LC12
 1654      13050500 
 1655 08f0 97000000 		call	_ZN5Riscv11printStringEPKc@plt
 1655      E7800000 
 1656              	.LVL183:
 1657              	.L98:
 197:src/Tests.cpp **** }
 1658              		.loc 2 197 1
 1659 08f8 83308102 		ld	ra,40(sp)
 1660              		.cfi_remember_state
 1661              		.cfi_restore 1
 1662 08fc 03340102 		ld	s0,32(sp)
 1663              		.cfi_restore 8
 1664              		.cfi_def_cfa 2, 48
 1665 0900 83348101 		ld	s1,24(sp)
 1666              		.cfi_restore 9
 1667              	.LVL184:
 1668 0904 03390101 		ld	s2,16(sp)
 1669              		.cfi_restore 18
 1670 0908 83398100 		ld	s3,8(sp)
 1671              		.cfi_restore 19
 1672              	.LVL185:
 1673 090c 13010103 		addi	sp,sp,48
 1674              		.cfi_def_cfa_offset 0
 1675 0910 67800000 		jr	ra
 1676              	.LVL186:
 1677              	.L105:
 1678              		.cfi_restore_state
 194:src/Tests.cpp ****         Riscv::printString("OK\n");
 1679              		.loc 2 194 9 is_stmt 1
 194:src/Tests.cpp ****         Riscv::printString("OK\n");
 1680              		.loc 2 194 27 is_stmt 0
 1681 0914 17050000 		lla	a0,.LC13
 1681      13050500 
 1682 091c 97000000 		call	_ZN5Riscv11printStringEPKc@plt
 1682      E7800000 
 1683              	.LVL187:
 1684 0924 6FF05FFD 		j	.L98
 1685              		.cfi_endproc
 1686              	.LFE33:
 1688              		.section	.rodata.str1.8
 1689 00db 00000000 		.align	3
 1689      00
 1690              	.LC16:
 1691 00e0 62616446 		.string	"badFree\n"
 1691      7265650A 
 1691      00
GAS LISTING /tmp/cc7WLpkD.s 			page 48


 1692              		.text
 1693              		.align	2
 1694              		.globl	_Z7badFreev
 1696              	_Z7badFreev:
 1697              	.LFB34:
 199:src/Tests.cpp **** {
 1698              		.loc 2 199 1 is_stmt 1
 1699              		.cfi_startproc
 1700 0928 130101FF 		addi	sp,sp,-16
 1701              		.cfi_def_cfa_offset 16
 1702 092c 23341100 		sd	ra,8(sp)
 1703 0930 23308100 		sd	s0,0(sp)
 1704              		.cfi_offset 1, -8
 1705              		.cfi_offset 8, -16
 1706 0934 13040101 		addi	s0,sp,16
 1707              		.cfi_def_cfa 8, 0
 200:src/Tests.cpp ****     Riscv::printString("badFree\n");
 1708              		.loc 2 200 5
 200:src/Tests.cpp ****     Riscv::printString("badFree\n");
 1709              		.loc 2 200 23 is_stmt 0
 1710 0938 17050000 		lla	a0,.LC16
 1710      13050500 
 1711 0940 97000000 		call	_ZN5Riscv11printStringEPKc@plt
 1711      E7800000 
 1712              	.LVL188:
 201:src/Tests.cpp ****     Test* t = (Test*)mem_alloc(sizeof(Test));
 1713              		.loc 2 201 5 is_stmt 1
 201:src/Tests.cpp ****     Test* t = (Test*)mem_alloc(sizeof(Test));
 1714              		.loc 2 201 31 is_stmt 0
 1715 0948 13058000 		li	a0,8
 1716 094c 97000000 		call	mem_alloc@plt
 1716      E7800000 
 1717              	.LVL189:
 202:src/Tests.cpp ****     uint64 retval = mem_free((char*)t + 2);
 1718              		.loc 2 202 5 is_stmt 1
 202:src/Tests.cpp ****     uint64 retval = mem_free((char*)t + 2);
 1719              		.loc 2 202 29 is_stmt 0
 1720 0954 13052500 		addi	a0,a0,2
 1721              	.LVL190:
 1722 0958 97000000 		call	mem_free@plt
 1722      E7800000 
 1723              	.LVL191:
 203:src/Tests.cpp ****     if(retval == 0)
 1724              		.loc 2 203 5 is_stmt 1
 1725 0960 63120502 		bnez	a0,.L107
 204:src/Tests.cpp ****         Riscv::printString("not OK\n");
 1726              		.loc 2 204 9
 204:src/Tests.cpp ****         Riscv::printString("not OK\n");
 1727              		.loc 2 204 27 is_stmt 0
 1728 0964 17050000 		lla	a0,.LC12
 1728      13050500 
 1729              	.LVL192:
 1730 096c 97000000 		call	_ZN5Riscv11printStringEPKc@plt
 1730      E7800000 
 1731              	.LVL193:
 1732              	.L106:
 207:src/Tests.cpp **** }
GAS LISTING /tmp/cc7WLpkD.s 			page 49


 1733              		.loc 2 207 1
 1734 0974 83308100 		ld	ra,8(sp)
 1735              		.cfi_remember_state
 1736              		.cfi_restore 1
 1737 0978 03340100 		ld	s0,0(sp)
 1738              		.cfi_restore 8
 1739              		.cfi_def_cfa 2, 16
 1740 097c 13010101 		addi	sp,sp,16
 1741              		.cfi_def_cfa_offset 0
 1742 0980 67800000 		jr	ra
 1743              	.LVL194:
 1744              	.L107:
 1745              		.cfi_restore_state
 206:src/Tests.cpp ****         Riscv::printString("OK\n");
 1746              		.loc 2 206 9 is_stmt 1
 206:src/Tests.cpp ****         Riscv::printString("OK\n");
 1747              		.loc 2 206 27 is_stmt 0
 1748 0984 17050000 		lla	a0,.LC13
 1748      13050500 
 1749              	.LVL195:
 1750 098c 97000000 		call	_ZN5Riscv11printStringEPKc@plt
 1750      E7800000 
 1751              	.LVL196:
 207:src/Tests.cpp **** }
 1752              		.loc 2 207 1
 1753 0994 6FF01FFE 		j	.L106
 1754              		.cfi_endproc
 1755              	.LFE34:
 1757              		.section	.rodata.str1.8
 1758 00e9 00000000 		.align	3
 1758      000000
 1759              	.LC17:
 1760 00f0 73747265 		.string	"stressTesting\n"
 1760      73735465 
 1760      7374696E 
 1760      670A00
 1761              		.text
 1762              		.align	2
 1763              		.globl	_Z13stressTestingv
 1765              	_Z13stressTestingv:
 1766              	.LFB35:
 210:src/Tests.cpp **** {
 1767              		.loc 2 210 1 is_stmt 1
 1768              		.cfi_startproc
 1769 0998 130101CC 		addi	sp,sp,-832
 1770              		.cfi_def_cfa_offset 832
 1771 099c 233C1132 		sd	ra,824(sp)
 1772 09a0 23388132 		sd	s0,816(sp)
 1773 09a4 23349132 		sd	s1,808(sp)
 1774 09a8 23302133 		sd	s2,800(sp)
 1775              		.cfi_offset 1, -8
 1776              		.cfi_offset 8, -16
 1777              		.cfi_offset 9, -24
 1778              		.cfi_offset 18, -32
 1779 09ac 13040134 		addi	s0,sp,832
 1780              		.cfi_def_cfa 8, 0
 211:src/Tests.cpp ****     Riscv::printString("stressTesting\n");
GAS LISTING /tmp/cc7WLpkD.s 			page 50


 1781              		.loc 2 211 5
 211:src/Tests.cpp ****     Riscv::printString("stressTesting\n");
 1782              		.loc 2 211 23 is_stmt 0
 1783 09b0 17050000 		lla	a0,.LC17
 1783      13050500 
 1784 09b8 97000000 		call	_ZN5Riscv11printStringEPKc@plt
 1784      E7800000 
 1785              	.LVL197:
 1786              	.LBB50:
 214:src/Tests.cpp ****     for(int i = 0; i < num;i++)
 1787              		.loc 2 214 13
 1788 09c0 93040000 		li	s1,0
 1789 09c4 6F008000 		j	.L113
 1790              	.LVL198:
 1791              	.L122:
 214:src/Tests.cpp ****     for(int i = 0; i < num;i++)
 1792              		.loc 2 214 5 is_stmt 1 discriminator 2
 1793 09c8 9B841400 		addiw	s1,s1,1
 1794              	.LVL199:
 1795              	.L113:
 214:src/Tests.cpp ****     for(int i = 0; i < num;i++)
 1796              		.loc 2 214 22 discriminator 1
 1797 09cc 93073006 		li	a5,99
 1798 09d0 63CE9702 		bgt	s1,a5,.L119
 216:src/Tests.cpp ****         addrs[i] = mem_alloc(1);
 1799              		.loc 2 216 9
 216:src/Tests.cpp ****         addrs[i] = mem_alloc(1);
 1800              		.loc 2 216 29 is_stmt 0
 1801 09d4 13051000 		li	a0,1
 1802 09d8 97000000 		call	mem_alloc@plt
 1802      E7800000 
 1803              	.LVL200:
 216:src/Tests.cpp ****         addrs[i] = mem_alloc(1);
 1804              		.loc 2 216 18
 1805 09e0 93973400 		slli	a5,s1,3
 1806 09e4 130704FE 		addi	a4,s0,-32
 1807 09e8 B307F700 		add	a5,a4,a5
 1808 09ec 23B0A7CE 		sd	a0,-800(a5)
 217:src/Tests.cpp ****         if(addrs[i] == 0)
 1809              		.loc 2 217 9 is_stmt 1
 1810 09f0 E31C05FC 		bnez	a0,.L122
 1811              	.LVL201:
 1812              	.L110:
 1813              	.LBE50:
 274:src/Tests.cpp **** }
 1814              		.loc 2 274 1 is_stmt 0
 1815 09f4 83308133 		ld	ra,824(sp)
 1816              		.cfi_remember_state
 1817              		.cfi_restore 1
 1818 09f8 03340133 		ld	s0,816(sp)
 1819              		.cfi_restore 8
 1820              		.cfi_def_cfa 2, 832
 1821 09fc 83348132 		ld	s1,808(sp)
 1822              		.cfi_restore 9
 1823 0a00 03390132 		ld	s2,800(sp)
 1824              		.cfi_restore 18
 1825 0a04 13010134 		addi	sp,sp,832
GAS LISTING /tmp/cc7WLpkD.s 			page 51


 1826              		.cfi_def_cfa_offset 0
 1827 0a08 67800000 		jr	ra
 1828              	.LVL202:
 1829              	.L119:
 1830              		.cfi_restore_state
 224:src/Tests.cpp ****     int sz = 300;
 1831              		.loc 2 224 9
 1832 0a0c 1309C012 		li	s2,300
 1833              	.LVL203:
 1834              	.L111:
 225:src/Tests.cpp ****     while(sz > 0)
 1835              		.loc 2 225 5 is_stmt 1
 225:src/Tests.cpp ****     while(sz > 0)
 1836              		.loc 2 225 14
 1837 0a10 635A200B 		blez	s2,.L114
 1838              	.LBB51:
 1839              	.LBB52:
 229:src/Tests.cpp ****         for(int i = 0 ; i < num;i+=2)
 1840              		.loc 2 229 17 is_stmt 0
 1841 0a14 93040000 		li	s1,0
 1842              	.L116:
 1843              	.LVL204:
 229:src/Tests.cpp ****         for(int i = 0 ; i < num;i+=2)
 1844              		.loc 2 229 27 is_stmt 1 discriminator 1
 1845 0a18 93073006 		li	a5,99
 1846 0a1c 63C89704 		bgt	s1,a5,.L120
 1847              	.LBB53:
 234:src/Tests.cpp ****             int retval = mem_free(addrs[i]);
 1848              		.loc 2 234 13
 234:src/Tests.cpp ****             int retval = mem_free(addrs[i]);
 1849              		.loc 2 234 34 is_stmt 0
 1850 0a20 93973400 		slli	a5,s1,3
 1851 0a24 130704FE 		addi	a4,s0,-32
 1852 0a28 B307F700 		add	a5,a4,a5
 1853 0a2c 03B507CE 		ld	a0,-800(a5)
 1854 0a30 97000000 		call	mem_free@plt
 1854      E7800000 
 1855              	.LVL205:
 235:src/Tests.cpp ****             if(retval != 0)
 1856              		.loc 2 235 13 is_stmt 1
 1857 0a38 E31E05FA 		bnez	a0,.L110
 241:src/Tests.cpp ****             addrs[i] = mem_alloc(sz/2);
 1858              		.loc 2 241 13
 241:src/Tests.cpp ****             addrs[i] = mem_alloc(sz/2);
 1859              		.loc 2 241 36 is_stmt 0
 1860 0a3c 1B55F901 		srliw	a0,s2,31
 1861              	.LVL206:
 1862 0a40 3B052501 		addw	a0,a0,s2
 241:src/Tests.cpp ****             addrs[i] = mem_alloc(sz/2);
 1863              		.loc 2 241 33
 1864 0a44 1B551540 		sraiw	a0,a0,1
 1865 0a48 97000000 		call	mem_alloc@plt
 1865      E7800000 
 1866              	.LVL207:
 241:src/Tests.cpp ****             addrs[i] = mem_alloc(sz/2);
 1867              		.loc 2 241 22
 1868 0a50 93973400 		slli	a5,s1,3
GAS LISTING /tmp/cc7WLpkD.s 			page 52


 1869 0a54 130704FE 		addi	a4,s0,-32
 1870 0a58 B307F700 		add	a5,a4,a5
 1871 0a5c 23B0A7CE 		sd	a0,-800(a5)
 242:src/Tests.cpp ****             if(addrs[i] == 0)
 1872              		.loc 2 242 13 is_stmt 1
 1873 0a60 E30A05F8 		beqz	a0,.L110
 1874              	.LBE53:
 229:src/Tests.cpp ****         for(int i = 0 ; i < num;i+=2)
 1875              		.loc 2 229 9 discriminator 2
 229:src/Tests.cpp ****         for(int i = 0 ; i < num;i+=2)
 1876              		.loc 2 229 34 is_stmt 0 discriminator 2
 1877 0a64 9B842400 		addiw	s1,s1,2
 1878              	.LVL208:
 229:src/Tests.cpp ****         for(int i = 0 ; i < num;i+=2)
 1879              		.loc 2 229 9 discriminator 2
 1880 0a68 6FF01FFB 		j	.L116
 1881              	.LVL209:
 1882              	.L120:
 1883              	.LBE52:
 1884              	.LBB54:
 250:src/Tests.cpp ****         for(int i = 1 ; i < num;i+=2)
 1885              		.loc 2 250 17
 1886 0a6c 93041000 		li	s1,1
 1887              	.LVL210:
 1888              	.L115:
 250:src/Tests.cpp ****         for(int i = 1 ; i < num;i+=2)
 1889              		.loc 2 250 27 is_stmt 1 discriminator 1
 1890 0a70 93073006 		li	a5,99
 1891 0a74 63C49704 		bgt	s1,a5,.L117
 1892              	.LBB55:
 255:src/Tests.cpp ****             int retval = mem_free(addrs[i]);
 1893              		.loc 2 255 13
 255:src/Tests.cpp ****             int retval = mem_free(addrs[i]);
 1894              		.loc 2 255 34 is_stmt 0
 1895 0a78 93973400 		slli	a5,s1,3
 1896 0a7c 130704FE 		addi	a4,s0,-32
 1897 0a80 B307F700 		add	a5,a4,a5
 1898 0a84 03B507CE 		ld	a0,-800(a5)
 1899 0a88 97000000 		call	mem_free@plt
 1899      E7800000 
 1900              	.LVL211:
 256:src/Tests.cpp ****             if(retval != 0)
 1901              		.loc 2 256 13 is_stmt 1
 1902 0a90 E31205F6 		bnez	a0,.L110
 262:src/Tests.cpp ****             addrs[i] = mem_alloc(sz);
 1903              		.loc 2 262 13
 262:src/Tests.cpp ****             addrs[i] = mem_alloc(sz);
 1904              		.loc 2 262 33 is_stmt 0
 1905 0a94 13050900 		mv	a0,s2
 1906              	.LVL212:
 1907 0a98 97000000 		call	mem_alloc@plt
 1907      E7800000 
 1908              	.LVL213:
 262:src/Tests.cpp ****             addrs[i] = mem_alloc(sz);
 1909              		.loc 2 262 22
 1910 0aa0 93973400 		slli	a5,s1,3
 1911 0aa4 130704FE 		addi	a4,s0,-32
GAS LISTING /tmp/cc7WLpkD.s 			page 53


 1912 0aa8 B307F700 		add	a5,a4,a5
 1913 0aac 23B0A7CE 		sd	a0,-800(a5)
 263:src/Tests.cpp ****             if(addrs[i] == 0)
 1914              		.loc 2 263 13 is_stmt 1
 1915 0ab0 E30205F4 		beqz	a0,.L110
 1916              	.LBE55:
 250:src/Tests.cpp ****         for(int i = 1 ; i < num;i+=2)
 1917              		.loc 2 250 9 discriminator 2
 250:src/Tests.cpp ****         for(int i = 1 ; i < num;i+=2)
 1918              		.loc 2 250 34 is_stmt 0 discriminator 2
 1919 0ab4 9B842400 		addiw	s1,s1,2
 1920              	.LVL214:
 250:src/Tests.cpp ****         for(int i = 1 ; i < num;i+=2)
 1921              		.loc 2 250 9 discriminator 2
 1922 0ab8 6FF09FFB 		j	.L115
 1923              	.LVL215:
 1924              	.L117:
 1925              	.LBE54:
 270:src/Tests.cpp ****         sz-=10;
 1926              		.loc 2 270 9 is_stmt 1
 270:src/Tests.cpp ****         sz-=10;
 1927              		.loc 2 270 11 is_stmt 0
 1928 0abc 1B0969FF 		addiw	s2,s2,-10
 1929              	.LVL216:
 1930              	.LBE51:
 225:src/Tests.cpp ****     while(sz > 0)
 1931              		.loc 2 225 5
 1932 0ac0 6FF01FF5 		j	.L111
 1933              	.LVL217:
 1934              	.L114:
 273:src/Tests.cpp ****     Riscv::printString("OK\n");
 1935              		.loc 2 273 5 is_stmt 1
 273:src/Tests.cpp ****     Riscv::printString("OK\n");
 1936              		.loc 2 273 23 is_stmt 0
 1937 0ac4 17050000 		lla	a0,.LC13
 1937      13050500 
 1938 0acc 97000000 		call	_ZN5Riscv11printStringEPKc@plt
 1938      E7800000 
 1939              	.LVL218:
 1940 0ad4 6FF01FF2 		j	.L110
 1941              		.cfi_endproc
 1942              	.LFE35:
 1944              		.align	2
 1945              		.globl	_Z21memoryAllocationTestsv
 1947              	_Z21memoryAllocationTestsv:
 1948              	.LFB36:
 277:src/Tests.cpp **** {
 1949              		.loc 2 277 1 is_stmt 1
 1950              		.cfi_startproc
 1951 0ad8 130101FF 		addi	sp,sp,-16
 1952              		.cfi_def_cfa_offset 16
 1953 0adc 23341100 		sd	ra,8(sp)
 1954 0ae0 23308100 		sd	s0,0(sp)
 1955              		.cfi_offset 1, -8
 1956              		.cfi_offset 8, -16
 1957 0ae4 13040101 		addi	s0,sp,16
 1958              		.cfi_def_cfa 8, 0
GAS LISTING /tmp/cc7WLpkD.s 			page 54


 282:src/Tests.cpp ****     stressTesting();
 1959              		.loc 2 282 5
 282:src/Tests.cpp ****     stressTesting();
 1960              		.loc 2 282 18 is_stmt 0
 1961 0ae8 97000000 		call	_Z13stressTestingv
 1961      E7800000 
 1962              	.LVL219:
 283:src/Tests.cpp **** }
 1963              		.loc 2 283 1
 1964 0af0 83308100 		ld	ra,8(sp)
 1965              		.cfi_restore 1
 1966 0af4 03340100 		ld	s0,0(sp)
 1967              		.cfi_restore 8
 1968              		.cfi_def_cfa 2, 16
 1969 0af8 13010101 		addi	sp,sp,16
 1970              		.cfi_def_cfa_offset 0
 1971 0afc 67800000 		jr	ra
 1972              		.cfi_endproc
 1973              	.LFE36:
 1975              		.section	.rodata.str1.8
 1976 00ff 00       		.align	3
 1977              	.LC18:
 1978 0100 666F6F20 		.string	"foo exec\n"
 1978      65786563 
 1978      0A00
 1979              		.text
 1980              		.align	2
 1981              		.globl	_Z3foov
 1983              	_Z3foov:
 1984              	.LFB37:
 290:src/Tests.cpp **** {
 1985              		.loc 2 290 1 is_stmt 1
 1986              		.cfi_startproc
 1987 0b00 130101FE 		addi	sp,sp,-32
 1988              		.cfi_def_cfa_offset 32
 1989 0b04 233C1100 		sd	ra,24(sp)
 1990 0b08 23388100 		sd	s0,16(sp)
 1991 0b0c 23349100 		sd	s1,8(sp)
 1992              		.cfi_offset 1, -8
 1993              		.cfi_offset 8, -16
 1994              		.cfi_offset 9, -24
 1995 0b10 13040102 		addi	s0,sp,32
 1996              		.cfi_def_cfa 8, 0
 291:src/Tests.cpp ****     s11->wait();
 1997              		.loc 2 291 5
 291:src/Tests.cpp ****     s11->wait();
 1998              		.loc 2 291 14 is_stmt 0
 1999 0b14 97040000 		lla	s1,.LANCHOR0
 1999      93840400 
 2000 0b1c 03B58401 		ld	a0,24(s1)
 2001 0b20 97000000 		call	_ZN9Semaphore4waitEv@plt
 2001      E7800000 
 2002              	.LVL220:
 292:src/Tests.cpp ****     Riscv::printString("foo exec\n");
 2003              		.loc 2 292 5 is_stmt 1
 292:src/Tests.cpp ****     Riscv::printString("foo exec\n");
 2004              		.loc 2 292 23 is_stmt 0
GAS LISTING /tmp/cc7WLpkD.s 			page 55


 2005 0b28 17050000 		lla	a0,.LC18
 2005      13050500 
 2006 0b30 97000000 		call	_ZN5Riscv11printStringEPKc@plt
 2006      E7800000 
 2007              	.LVL221:
 293:src/Tests.cpp ****     s22->signal();
 2008              		.loc 2 293 5 is_stmt 1
 293:src/Tests.cpp ****     s22->signal();
 2009              		.loc 2 293 16 is_stmt 0
 2010 0b38 03B50402 		ld	a0,32(s1)
 2011 0b3c 97000000 		call	_ZN9Semaphore6signalEv@plt
 2011      E7800000 
 2012              	.LVL222:
 294:src/Tests.cpp **** }
 2013              		.loc 2 294 1
 2014 0b44 83308101 		ld	ra,24(sp)
 2015              		.cfi_restore 1
 2016 0b48 03340101 		ld	s0,16(sp)
 2017              		.cfi_restore 8
 2018              		.cfi_def_cfa 2, 32
 2019 0b4c 83348100 		ld	s1,8(sp)
 2020              		.cfi_restore 9
 2021 0b50 13010102 		addi	sp,sp,32
 2022              		.cfi_def_cfa_offset 0
 2023 0b54 67800000 		jr	ra
 2024              		.cfi_endproc
 2025              	.LFE37:
 2027              		.section	.rodata.str1.8
 2028 010a 00000000 		.align	3
 2028      0000
 2029              	.LC19:
 2030 0110 666F6F32 		.string	"foo2 exec\n"
 2030      20657865 
 2030      630A00
 2031              		.text
 2032              		.align	2
 2033              		.globl	_Z4foo2v
 2035              	_Z4foo2v:
 2036              	.LFB38:
 297:src/Tests.cpp **** {
 2037              		.loc 2 297 1 is_stmt 1
 2038              		.cfi_startproc
 2039 0b58 130101FF 		addi	sp,sp,-16
 2040              		.cfi_def_cfa_offset 16
 2041 0b5c 23341100 		sd	ra,8(sp)
 2042 0b60 23308100 		sd	s0,0(sp)
 2043              		.cfi_offset 1, -8
 2044              		.cfi_offset 8, -16
 2045 0b64 13040101 		addi	s0,sp,16
 2046              		.cfi_def_cfa 8, 0
 298:src/Tests.cpp ****     s22->wait();
 2047              		.loc 2 298 5
 298:src/Tests.cpp ****     s22->wait();
 2048              		.loc 2 298 14 is_stmt 0
 2049 0b68 17050000 		ld	a0,.LANCHOR0+32
 2049      03350500 
 2050 0b70 97000000 		call	_ZN9Semaphore4waitEv@plt
GAS LISTING /tmp/cc7WLpkD.s 			page 56


 2050      E7800000 
 2051              	.LVL223:
 299:src/Tests.cpp ****     Riscv::printString("foo2 exec\n");
 2052              		.loc 2 299 5 is_stmt 1
 299:src/Tests.cpp ****     Riscv::printString("foo2 exec\n");
 2053              		.loc 2 299 23 is_stmt 0
 2054 0b78 17050000 		lla	a0,.LC19
 2054      13050500 
 2055 0b80 97000000 		call	_ZN5Riscv11printStringEPKc@plt
 2055      E7800000 
 2056              	.LVL224:
 301:src/Tests.cpp **** }
 2057              		.loc 2 301 1
 2058 0b88 83308100 		ld	ra,8(sp)
 2059              		.cfi_restore 1
 2060 0b8c 03340100 		ld	s0,0(sp)
 2061              		.cfi_restore 8
 2062              		.cfi_def_cfa 2, 16
 2063 0b90 13010101 		addi	sp,sp,16
 2064              		.cfi_def_cfa_offset 0
 2065 0b94 67800000 		jr	ra
 2066              		.cfi_endproc
 2067              	.LFE38:
 2069              		.section	.rodata.str1.8
 2070 011b 00000000 		.align	3
 2070      00
 2071              	.LC20:
 2072 0120 66322073 		.string	"f2 started\n"
 2072      74617274 
 2072      65640A00 
 2073              		.text
 2074              		.align	2
 2075              		.globl	_Z2f2Pv
 2077              	_Z2f2Pv:
 2078              	.LFB40:
 315:src/Tests.cpp **** {
 2079              		.loc 2 315 1 is_stmt 1
 2080              		.cfi_startproc
 2081              	.LVL225:
 2082 0b98 130101FE 		addi	sp,sp,-32
 2083              		.cfi_def_cfa_offset 32
 2084 0b9c 233C1100 		sd	ra,24(sp)
 2085 0ba0 23388100 		sd	s0,16(sp)
 2086 0ba4 23349100 		sd	s1,8(sp)
 2087              		.cfi_offset 1, -8
 2088              		.cfi_offset 8, -16
 2089              		.cfi_offset 9, -24
 2090 0ba8 13040102 		addi	s0,sp,32
 2091              		.cfi_def_cfa 8, 0
 316:src/Tests.cpp ****     Riscv::printString("f2 started\n");
 2092              		.loc 2 316 5
 316:src/Tests.cpp ****     Riscv::printString("f2 started\n");
 2093              		.loc 2 316 23 is_stmt 0
 2094 0bac 17050000 		lla	a0,.LC20
 2094      13050500 
 2095              	.LVL226:
 2096 0bb4 97000000 		call	_ZN5Riscv11printStringEPKc@plt
GAS LISTING /tmp/cc7WLpkD.s 			page 57


 2096      E7800000 
 2097              	.LVL227:
 317:src/Tests.cpp ****     for(int br = 0;br < 1;br++)
 2098              		.loc 2 317 5 is_stmt 1
 2099              	.LBB56:
 317:src/Tests.cpp ****     for(int br = 0;br < 1;br++)
 2100              		.loc 2 317 13 is_stmt 0
 2101 0bbc 93040000 		li	s1,0
 2102              	.LVL228:
 2103              	.L131:
 317:src/Tests.cpp ****     for(int br = 0;br < 1;br++)
 2104              		.loc 2 317 23 is_stmt 1 discriminator 3
 2105 0bc0 634A9000 		bgtz	s1,.L129
 319:src/Tests.cpp ****         foo2();
 2106              		.loc 2 319 9 discriminator 2
 319:src/Tests.cpp ****         foo2();
 2107              		.loc 2 319 13 is_stmt 0 discriminator 2
 2108 0bc4 97000000 		call	_Z4foo2v
 2108      E7800000 
 2109              	.LVL229:
 317:src/Tests.cpp ****     for(int br = 0;br < 1;br++)
 2110              		.loc 2 317 5 is_stmt 1 discriminator 2
 2111 0bcc 9B841400 		addiw	s1,s1,1
 2112              	.LVL230:
 2113 0bd0 6FF01FFF 		j	.L131
 2114              	.LVL231:
 2115              	.L129:
 2116              	.LBE56:
 321:src/Tests.cpp **** }
 2117              		.loc 2 321 1 is_stmt 0
 2118 0bd4 83308101 		ld	ra,24(sp)
 2119              		.cfi_restore 1
 2120 0bd8 03340101 		ld	s0,16(sp)
 2121              		.cfi_restore 8
 2122              		.cfi_def_cfa 2, 32
 2123 0bdc 83348100 		ld	s1,8(sp)
 2124              		.cfi_restore 9
 2125              	.LVL232:
 2126 0be0 13010102 		addi	sp,sp,32
 2127              		.cfi_def_cfa_offset 0
 2128 0be4 67800000 		jr	ra
 2129              		.cfi_endproc
 2130              	.LFE40:
 2132              		.section	.rodata.str1.8
 2133 012c 00000000 		.align	3
 2134              	.LC21:
 2135 0130 66312073 		.string	"f1 started\n"
 2135      74617274 
 2135      65640A00 
 2136              		.text
 2137              		.align	2
 2138              		.globl	_Z2f1Pv
 2140              	_Z2f1Pv:
 2141              	.LFB39:
 305:src/Tests.cpp **** {
 2142              		.loc 2 305 1 is_stmt 1
 2143              		.cfi_startproc
GAS LISTING /tmp/cc7WLpkD.s 			page 58


 2144              	.LVL233:
 2145 0be8 130101FE 		addi	sp,sp,-32
 2146              		.cfi_def_cfa_offset 32
 2147 0bec 233C1100 		sd	ra,24(sp)
 2148 0bf0 23388100 		sd	s0,16(sp)
 2149 0bf4 23349100 		sd	s1,8(sp)
 2150              		.cfi_offset 1, -8
 2151              		.cfi_offset 8, -16
 2152              		.cfi_offset 9, -24
 2153 0bf8 13040102 		addi	s0,sp,32
 2154              		.cfi_def_cfa 8, 0
 306:src/Tests.cpp ****     Riscv::printString("f1 started\n");
 2155              		.loc 2 306 5
 306:src/Tests.cpp ****     Riscv::printString("f1 started\n");
 2156              		.loc 2 306 23 is_stmt 0
 2157 0bfc 17050000 		lla	a0,.LC21
 2157      13050500 
 2158              	.LVL234:
 2159 0c04 97000000 		call	_ZN5Riscv11printStringEPKc@plt
 2159      E7800000 
 2160              	.LVL235:
 307:src/Tests.cpp ****     for(int br = 0;br < 2;br++)
 2161              		.loc 2 307 5 is_stmt 1
 2162              	.LBB57:
 307:src/Tests.cpp ****     for(int br = 0;br < 2;br++)
 2163              		.loc 2 307 13 is_stmt 0
 2164 0c0c 93040000 		li	s1,0
 2165 0c10 6F000001 		j	.L135
 2166              	.LVL236:
 2167              	.L137:
 310:src/Tests.cpp ****         foo();
 2168              		.loc 2 310 9 is_stmt 1 discriminator 2
 310:src/Tests.cpp ****         foo();
 2169              		.loc 2 310 12 is_stmt 0 discriminator 2
 2170 0c14 97000000 		call	_Z3foov
 2170      E7800000 
 2171              	.LVL237:
 307:src/Tests.cpp ****     for(int br = 0;br < 2;br++)
 2172              		.loc 2 307 5 is_stmt 1 discriminator 2
 2173 0c1c 9B841400 		addiw	s1,s1,1
 2174              	.LVL238:
 2175              	.L135:
 307:src/Tests.cpp ****     for(int br = 0;br < 2;br++)
 2176              		.loc 2 307 23 discriminator 3
 2177 0c20 93071000 		li	a5,1
 2178 0c24 E3D897FE 		ble	s1,a5,.L137
 2179              	.LBE57:
 312:src/Tests.cpp **** }
 2180              		.loc 2 312 1 is_stmt 0
 2181 0c28 83308101 		ld	ra,24(sp)
 2182              		.cfi_restore 1
 2183 0c2c 03340101 		ld	s0,16(sp)
 2184              		.cfi_restore 8
 2185              		.cfi_def_cfa 2, 32
 2186 0c30 83348100 		ld	s1,8(sp)
 2187              		.cfi_restore 9
 2188              	.LVL239:
GAS LISTING /tmp/cc7WLpkD.s 			page 59


 2189 0c34 13010102 		addi	sp,sp,32
 2190              		.cfi_def_cfa_offset 0
 2191 0c38 67800000 		jr	ra
 2192              		.cfi_endproc
 2193              	.LFE39:
 2195              		.align	2
 2196              		.globl	_Z8semTest1v
 2198              	_Z8semTest1v:
 2199              	.LFB41:
 324:src/Tests.cpp **** {
 2200              		.loc 2 324 1 is_stmt 1
 2201              		.cfi_startproc
 2202              		.cfi_personality 0x9b,DW.ref.__gxx_personality_v0
 2203              		.cfi_lsda 0x1b,.LLSDA41
 2204 0c3c 130101FE 		addi	sp,sp,-32
 2205              		.cfi_def_cfa_offset 32
 2206 0c40 233C1100 		sd	ra,24(sp)
 2207 0c44 23388100 		sd	s0,16(sp)
 2208 0c48 23349100 		sd	s1,8(sp)
 2209 0c4c 23302101 		sd	s2,0(sp)
 2210              		.cfi_offset 1, -8
 2211              		.cfi_offset 8, -16
 2212              		.cfi_offset 9, -24
 2213              		.cfi_offset 18, -32
 2214 0c50 13040102 		addi	s0,sp,32
 2215              		.cfi_def_cfa 8, 0
 325:src/Tests.cpp ****     mutex = new Semaphore(1);
 2216              		.loc 2 325 5
 325:src/Tests.cpp ****     mutex = new Semaphore(1);
 2217              		.loc 2 325 28 is_stmt 0
 2218 0c54 13050001 		li	a0,16
 2219              	.LEHB17:
 2220 0c58 97000000 		call	_Znwm@plt
 2220      E7800000 
 2221              	.LVL240:
 2222              	.LEHE17:
 2223 0c60 13090500 		mv	s2,a0
 2224 0c64 93051000 		li	a1,1
 2225              	.LEHB18:
 2226 0c68 97000000 		call	_ZN9SemaphoreC1Ej@plt
 2226      E7800000 
 2227              	.LVL241:
 2228              	.LEHE18:
 326:src/Tests.cpp ****     s11 = new Semaphore(1);
 2229              		.loc 2 326 5 is_stmt 1 discriminator 2
 326:src/Tests.cpp ****     s11 = new Semaphore(1);
 2230              		.loc 2 326 26 is_stmt 0 discriminator 2
 2231 0c70 13050001 		li	a0,16
 2232              	.LEHB19:
 2233 0c74 97000000 		call	_Znwm@plt
 2233      E7800000 
 2234              	.LVL242:
 2235              	.LEHE19:
 2236 0c7c 93040500 		mv	s1,a0
 2237 0c80 93051000 		li	a1,1
 2238              	.LEHB20:
 2239 0c84 97000000 		call	_ZN9SemaphoreC1Ej@plt
GAS LISTING /tmp/cc7WLpkD.s 			page 60


 2239      E7800000 
 2240              	.LVL243:
 2241              	.LEHE20:
 326:src/Tests.cpp ****     s11 = new Semaphore(1);
 2242              		.loc 2 326 9 discriminator 2
 2243 0c8c 97070000 		sd	s1,.LANCHOR0+24,a5
 2243      23B09700 
 327:src/Tests.cpp ****     s22 = new Semaphore(0);
 2244              		.loc 2 327 5 is_stmt 1 discriminator 2
 327:src/Tests.cpp ****     s22 = new Semaphore(0);
 2245              		.loc 2 327 26 is_stmt 0 discriminator 2
 2246 0c94 13050001 		li	a0,16
 2247              	.LEHB21:
 2248 0c98 97000000 		call	_Znwm@plt
 2248      E7800000 
 2249              	.LVL244:
 2250              	.LEHE21:
 2251 0ca0 93040500 		mv	s1,a0
 2252 0ca4 93050000 		li	a1,0
 2253              	.LEHB22:
 2254 0ca8 97000000 		call	_ZN9SemaphoreC1Ej@plt
 2254      E7800000 
 2255              	.LVL245:
 2256              	.LEHE22:
 327:src/Tests.cpp ****     s22 = new Semaphore(0);
 2257              		.loc 2 327 9 discriminator 2
 2258 0cb0 97070000 		sd	s1,.LANCHOR0+32,a5
 2258      23B09700 
 329:src/Tests.cpp ****     Thread* t2 = new Thread(&f2, 0);
 2259              		.loc 2 329 5 is_stmt 1 discriminator 2
 329:src/Tests.cpp ****     Thread* t2 = new Thread(&f2, 0);
 2260              		.loc 2 329 35 is_stmt 0 discriminator 2
 2261 0cb8 13050002 		li	a0,32
 2262              	.LEHB23:
 2263 0cbc 97000000 		call	_Znwm@plt
 2263      E7800000 
 2264              	.LVL246:
 2265              	.LEHE23:
 2266 0cc4 13090500 		mv	s2,a0
 2267 0cc8 13060000 		li	a2,0
 2268 0ccc 97050000 		lla	a1,_Z2f2Pv
 2268      93850500 
 2269              	.LEHB24:
 2270 0cd4 97000000 		call	_ZN6ThreadC1EPFvPvES0_@plt
 2270      E7800000 
 2271              	.LVL247:
 2272              	.LEHE24:
 330:src/Tests.cpp ****     t2->start();
 2273              		.loc 2 330 5 is_stmt 1 discriminator 2
 330:src/Tests.cpp ****     t2->start();
 2274              		.loc 2 330 14 is_stmt 0 discriminator 2
 2275 0cdc 13050900 		mv	a0,s2
 2276              	.LEHB25:
 2277 0ce0 97000000 		call	_ZN6Thread5startEv@plt
 2277      E7800000 
 2278              	.LVL248:
 333:src/Tests.cpp ****     thread_dispatch();
GAS LISTING /tmp/cc7WLpkD.s 			page 61


 2279              		.loc 2 333 5 is_stmt 1 discriminator 2
 333:src/Tests.cpp ****     thread_dispatch();
 2280              		.loc 2 333 20 is_stmt 0 discriminator 2
 2281 0ce8 97000000 		call	thread_dispatch@plt
 2281      E7800000 
 2282              	.LVL249:
 2283              	.LEHE25:
 2284              	.L139:
 335:src/Tests.cpp ****     while(true)
 2285              		.loc 2 335 5 is_stmt 1 discriminator 1
 335:src/Tests.cpp ****     while(true)
 2286              		.loc 2 335 5 discriminator 1
 2287 0cf0 6F000000 		j	.L139
 2288              	.LVL250:
 2289              	.L144:
 2290 0cf4 93040500 		mv	s1,a0
 325:src/Tests.cpp ****     mutex = new Semaphore(1);
 2291              		.loc 2 325 28 is_stmt 0
 2292 0cf8 13050900 		mv	a0,s2
 2293 0cfc 97000000 		call	_ZdlPv@plt
 2293      E7800000 
 2294              	.LVL251:
 2295 0d04 13850400 		mv	a0,s1
 2296              	.LEHB26:
 2297 0d08 97000000 		call	_Unwind_Resume@plt
 2297      E7800000 
 2298              	.LVL252:
 2299              	.LEHE26:
 2300              	.L145:
 2301 0d10 13090500 		mv	s2,a0
 326:src/Tests.cpp ****     s11 = new Semaphore(1);
 2302              		.loc 2 326 26
 2303 0d14 13850400 		mv	a0,s1
 2304 0d18 97000000 		call	_ZdlPv@plt
 2304      E7800000 
 2305              	.LVL253:
 2306 0d20 13050900 		mv	a0,s2
 2307              	.LEHB27:
 2308 0d24 97000000 		call	_Unwind_Resume@plt
 2308      E7800000 
 2309              	.LVL254:
 2310              	.LEHE27:
 2311              	.L146:
 2312 0d2c 13090500 		mv	s2,a0
 327:src/Tests.cpp ****     s22 = new Semaphore(0);
 2313              		.loc 2 327 26
 2314 0d30 13850400 		mv	a0,s1
 2315 0d34 97000000 		call	_ZdlPv@plt
 2315      E7800000 
 2316              	.LVL255:
 2317 0d3c 13050900 		mv	a0,s2
 2318              	.LEHB28:
 2319 0d40 97000000 		call	_Unwind_Resume@plt
 2319      E7800000 
 2320              	.LVL256:
 2321              	.LEHE28:
 2322              	.L147:
GAS LISTING /tmp/cc7WLpkD.s 			page 62


 2323 0d48 93040500 		mv	s1,a0
 329:src/Tests.cpp ****     Thread* t2 = new Thread(&f2, 0);
 2324              		.loc 2 329 35
 2325 0d4c 13050900 		mv	a0,s2
 2326 0d50 97000000 		call	_ZdlPv@plt
 2326      E7800000 
 2327              	.LVL257:
 2328 0d58 13850400 		mv	a0,s1
 2329              	.LEHB29:
 2330 0d5c 97000000 		call	_Unwind_Resume@plt
 2330      E7800000 
 2331              	.LVL258:
 2332              	.LEHE29:
 2333              		.cfi_endproc
 2334              	.LFE41:
 2335              		.section	.gcc_except_table
 2336              	.LLSDA41:
 2337 00e6 FF       		.byte	0xff
 2338 00e7 FF       		.byte	0xff
 2339 00e8 03       		.byte	0x3
 2340 00e9 A901     		.byte	0xa9,0x1
 2341 00eb 00000000 		.4byte	.LEHB17-.LFB41
 2342 00ef 00000000 		.4byte	.LEHE17-.LEHB17
 2343 00f3 00000000 		.4byte	0
 2344 00f7 00       		.byte	0
 2345 00f8 00000000 		.4byte	.LEHB18-.LFB41
 2346 00fc 00000000 		.4byte	.LEHE18-.LEHB18
 2347 0100 00000000 		.4byte	.L144-.LFB41
 2348 0104 00       		.byte	0
 2349 0105 00000000 		.4byte	.LEHB19-.LFB41
 2350 0109 00000000 		.4byte	.LEHE19-.LEHB19
 2351 010d 00000000 		.4byte	0
 2352 0111 00       		.byte	0
 2353 0112 00000000 		.4byte	.LEHB20-.LFB41
 2354 0116 00000000 		.4byte	.LEHE20-.LEHB20
 2355 011a 00000000 		.4byte	.L145-.LFB41
 2356 011e 00       		.byte	0
 2357 011f 00000000 		.4byte	.LEHB21-.LFB41
 2358 0123 00000000 		.4byte	.LEHE21-.LEHB21
 2359 0127 00000000 		.4byte	0
 2360 012b 00       		.byte	0
 2361 012c 00000000 		.4byte	.LEHB22-.LFB41
 2362 0130 00000000 		.4byte	.LEHE22-.LEHB22
 2363 0134 00000000 		.4byte	.L146-.LFB41
 2364 0138 00       		.byte	0
 2365 0139 00000000 		.4byte	.LEHB23-.LFB41
 2366 013d 00000000 		.4byte	.LEHE23-.LEHB23
 2367 0141 00000000 		.4byte	0
 2368 0145 00       		.byte	0
 2369 0146 00000000 		.4byte	.LEHB24-.LFB41
 2370 014a 00000000 		.4byte	.LEHE24-.LEHB24
 2371 014e 00000000 		.4byte	.L147-.LFB41
 2372 0152 00       		.byte	0
 2373 0153 00000000 		.4byte	.LEHB25-.LFB41
 2374 0157 00000000 		.4byte	.LEHE25-.LEHB25
 2375 015b 00000000 		.4byte	0
 2376 015f 00       		.byte	0
GAS LISTING /tmp/cc7WLpkD.s 			page 63


 2377 0160 00000000 		.4byte	.LEHB26-.LFB41
 2378 0164 00000000 		.4byte	.LEHE26-.LEHB26
 2379 0168 00000000 		.4byte	0
 2380 016c 00       		.byte	0
 2381 016d 00000000 		.4byte	.LEHB27-.LFB41
 2382 0171 00000000 		.4byte	.LEHE27-.LEHB27
 2383 0175 00000000 		.4byte	0
 2384 0179 00       		.byte	0
 2385 017a 00000000 		.4byte	.LEHB28-.LFB41
 2386 017e 00000000 		.4byte	.LEHE28-.LEHB28
 2387 0182 00000000 		.4byte	0
 2388 0186 00       		.byte	0
 2389 0187 00000000 		.4byte	.LEHB29-.LFB41
 2390 018b 00000000 		.4byte	.LEHE29-.LEHB29
 2391 018f 00000000 		.4byte	0
 2392 0193 00       		.byte	0
 2393              		.text
 2395              		.align	2
 2396              		.globl	_Z8semTest2v
 2398              	_Z8semTest2v:
 2399              	.LFB45:
 400:src/Tests.cpp **** {
 2400              		.loc 2 400 1 is_stmt 1
 2401              		.cfi_startproc
 2402              		.cfi_personality 0x9b,DW.ref.__gxx_personality_v0
 2403              		.cfi_lsda 0x1b,.LLSDA45
 2404 0d64 130101FD 		addi	sp,sp,-48
 2405              		.cfi_def_cfa_offset 48
 2406 0d68 23341102 		sd	ra,40(sp)
 2407 0d6c 23308102 		sd	s0,32(sp)
 2408 0d70 233C9100 		sd	s1,24(sp)
 2409 0d74 23382101 		sd	s2,16(sp)
 2410 0d78 23343101 		sd	s3,8(sp)
 2411              		.cfi_offset 1, -8
 2412              		.cfi_offset 8, -16
 2413              		.cfi_offset 9, -24
 2414              		.cfi_offset 18, -32
 2415              		.cfi_offset 19, -40
 2416 0d7c 13040103 		addi	s0,sp,48
 2417              		.cfi_def_cfa 8, 0
 401:src/Tests.cpp ****     s1 = new Semaphore(1);
 2418              		.loc 2 401 5
 401:src/Tests.cpp ****     s1 = new Semaphore(1);
 2419              		.loc 2 401 25 is_stmt 0
 2420 0d80 13050001 		li	a0,16
 2421              	.LEHB30:
 2422 0d84 97000000 		call	_Znwm@plt
 2422      E7800000 
 2423              	.LVL259:
 2424              	.LEHE30:
 2425 0d8c 93040500 		mv	s1,a0
 2426 0d90 93051000 		li	a1,1
 2427              	.LEHB31:
 2428 0d94 97000000 		call	_ZN9SemaphoreC1Ej@plt
 2428      E7800000 
 2429              	.LVL260:
 2430              	.LEHE31:
GAS LISTING /tmp/cc7WLpkD.s 			page 64


 401:src/Tests.cpp ****     s1 = new Semaphore(1);
 2431              		.loc 2 401 8 discriminator 2
 2432 0d9c 97070000 		sd	s1,.LANCHOR0,a5
 2432      23B09700 
 402:src/Tests.cpp ****     s2 = new Semaphore(0);
 2433              		.loc 2 402 5 is_stmt 1 discriminator 2
 402:src/Tests.cpp ****     s2 = new Semaphore(0);
 2434              		.loc 2 402 25 is_stmt 0 discriminator 2
 2435 0da4 13050001 		li	a0,16
 2436              	.LEHB32:
 2437 0da8 97000000 		call	_Znwm@plt
 2437      E7800000 
 2438              	.LVL261:
 2439              	.LEHE32:
 2440 0db0 93040500 		mv	s1,a0
 2441 0db4 93050000 		li	a1,0
 2442              	.LEHB33:
 2443 0db8 97000000 		call	_ZN9SemaphoreC1Ej@plt
 2443      E7800000 
 2444              	.LVL262:
 2445              	.LEHE33:
 402:src/Tests.cpp ****     s2 = new Semaphore(0);
 2446              		.loc 2 402 8 discriminator 2
 2447 0dc0 97070000 		sd	s1,.LANCHOR0+8,a5
 2447      23B09700 
 403:src/Tests.cpp ****     s3 = new Semaphore(0);
 2448              		.loc 2 403 5 is_stmt 1 discriminator 2
 403:src/Tests.cpp ****     s3 = new Semaphore(0);
 2449              		.loc 2 403 25 is_stmt 0 discriminator 2
 2450 0dc8 13050001 		li	a0,16
 2451              	.LEHB34:
 2452 0dcc 97000000 		call	_Znwm@plt
 2452      E7800000 
 2453              	.LVL263:
 2454              	.LEHE34:
 2455 0dd4 93040500 		mv	s1,a0
 2456 0dd8 93050000 		li	a1,0
 2457              	.LEHB35:
 2458 0ddc 97000000 		call	_ZN9SemaphoreC1Ej@plt
 2458      E7800000 
 2459              	.LVL264:
 2460              	.LEHE35:
 403:src/Tests.cpp ****     s3 = new Semaphore(0);
 2461              		.loc 2 403 8 discriminator 2
 2462 0de4 97070000 		sd	s1,.LANCHOR0+16,a5
 2462      23B09700 
 404:src/Tests.cpp ****     Thread* t1 = new Thread(&f1_2, 0);
 2463              		.loc 2 404 5 is_stmt 1 discriminator 2
 404:src/Tests.cpp ****     Thread* t1 = new Thread(&f1_2, 0);
 2464              		.loc 2 404 37 is_stmt 0 discriminator 2
 2465 0dec 13050002 		li	a0,32
 2466              	.LEHB36:
 2467 0df0 97000000 		call	_Znwm@plt
 2467      E7800000 
 2468              	.LVL265:
 2469              	.LEHE36:
 2470 0df8 93090500 		mv	s3,a0
GAS LISTING /tmp/cc7WLpkD.s 			page 65


 2471 0dfc 13060000 		li	a2,0
 2472 0e00 97050000 		lla	a1,_Z4f1_2Pv
 2472      93850500 
 2473              	.LEHB37:
 2474 0e08 97000000 		call	_ZN6ThreadC1EPFvPvES0_@plt
 2474      E7800000 
 2475              	.LVL266:
 2476              	.LEHE37:
 405:src/Tests.cpp ****     Thread* t2 = new Thread(&f2_2, 0);
 2477              		.loc 2 405 5 is_stmt 1 discriminator 2
 405:src/Tests.cpp ****     Thread* t2 = new Thread(&f2_2, 0);
 2478              		.loc 2 405 37 is_stmt 0 discriminator 2
 2479 0e10 13050002 		li	a0,32
 2480              	.LEHB38:
 2481 0e14 97000000 		call	_Znwm@plt
 2481      E7800000 
 2482              	.LVL267:
 2483              	.LEHE38:
 2484 0e1c 13090500 		mv	s2,a0
 2485 0e20 13060000 		li	a2,0
 2486 0e24 97050000 		lla	a1,_Z4f2_2Pv
 2486      93850500 
 2487              	.LEHB39:
 2488 0e2c 97000000 		call	_ZN6ThreadC1EPFvPvES0_@plt
 2488      E7800000 
 2489              	.LVL268:
 2490              	.LEHE39:
 406:src/Tests.cpp ****     Thread* t3 = new Thread(&f3_2, 0);
 2491              		.loc 2 406 5 is_stmt 1 discriminator 2
 406:src/Tests.cpp ****     Thread* t3 = new Thread(&f3_2, 0);
 2492              		.loc 2 406 37 is_stmt 0 discriminator 2
 2493 0e34 13050002 		li	a0,32
 2494              	.LEHB40:
 2495 0e38 97000000 		call	_Znwm@plt
 2495      E7800000 
 2496              	.LVL269:
 2497              	.LEHE40:
 2498 0e40 93040500 		mv	s1,a0
 2499 0e44 13060000 		li	a2,0
 2500 0e48 97050000 		lla	a1,_Z4f3_2Pv
 2500      93850500 
 2501              	.LEHB41:
 2502 0e50 97000000 		call	_ZN6ThreadC1EPFvPvES0_@plt
 2502      E7800000 
 2503              	.LVL270:
 2504              	.LEHE41:
 407:src/Tests.cpp ****     t3->start();
 2505              		.loc 2 407 5 is_stmt 1 discriminator 2
 407:src/Tests.cpp ****     t3->start();
 2506              		.loc 2 407 14 is_stmt 0 discriminator 2
 2507 0e58 13850400 		mv	a0,s1
 2508              	.LEHB42:
 2509 0e5c 97000000 		call	_ZN6Thread5startEv@plt
 2509      E7800000 
 2510              	.LVL271:
 408:src/Tests.cpp ****     t2->start();
 2511              		.loc 2 408 5 is_stmt 1 discriminator 2
GAS LISTING /tmp/cc7WLpkD.s 			page 66


 408:src/Tests.cpp ****     t2->start();
 2512              		.loc 2 408 14 is_stmt 0 discriminator 2
 2513 0e64 13050900 		mv	a0,s2
 2514 0e68 97000000 		call	_ZN6Thread5startEv@plt
 2514      E7800000 
 2515              	.LVL272:
 409:src/Tests.cpp ****     t1->start();
 2516              		.loc 2 409 5 is_stmt 1 discriminator 2
 409:src/Tests.cpp ****     t1->start();
 2517              		.loc 2 409 14 is_stmt 0 discriminator 2
 2518 0e70 13850900 		mv	a0,s3
 2519 0e74 97000000 		call	_ZN6Thread5startEv@plt
 2519      E7800000 
 2520              	.LVL273:
 411:src/Tests.cpp ****     int y = 0;
 2521              		.loc 2 411 5 is_stmt 1 discriminator 2
 411:src/Tests.cpp ****     int y = 0;
 2522              		.loc 2 411 9 is_stmt 0 discriminator 2
 2523 0e7c 93040000 		li	s1,0
 2524              	.LVL274:
 2525              	.L150:
 412:src/Tests.cpp ****     while(true)
 2526              		.loc 2 412 5 is_stmt 1
 414:src/Tests.cpp ****         y++;
 2527              		.loc 2 414 9
 414:src/Tests.cpp ****         y++;
 2528              		.loc 2 414 10 is_stmt 0
 2529 0e80 9B841400 		addiw	s1,s1,1
 2530              	.LVL275:
 415:src/Tests.cpp ****         thread_dispatch();
 2531              		.loc 2 415 9 is_stmt 1
 415:src/Tests.cpp ****         thread_dispatch();
 2532              		.loc 2 415 24 is_stmt 0
 2533 0e84 97000000 		call	thread_dispatch@plt
 2533      E7800000 
 2534              	.LVL276:
 2535              	.LEHE42:
 416:src/Tests.cpp ****         if(y == 200000)
 2536              		.loc 2 416 9 is_stmt 1
 2537 0e8c B7170300 		li	a5,200704
 2538 0e90 938707D4 		addi	a5,a5,-704
 2539 0e94 E396F4FE 		bne	s1,a5,.L150
 420:src/Tests.cpp **** }
 2540              		.loc 2 420 1 is_stmt 0
 2541 0e98 83308102 		ld	ra,40(sp)
 2542              		.cfi_remember_state
 2543              		.cfi_restore 1
 2544 0e9c 03340102 		ld	s0,32(sp)
 2545              		.cfi_restore 8
 2546              		.cfi_def_cfa 2, 48
 2547 0ea0 83348101 		ld	s1,24(sp)
 2548              		.cfi_restore 9
 2549 0ea4 03390101 		ld	s2,16(sp)
 2550              		.cfi_restore 18
 2551              	.LVL277:
 2552 0ea8 83398100 		ld	s3,8(sp)
 2553              		.cfi_restore 19
GAS LISTING /tmp/cc7WLpkD.s 			page 67


 2554              	.LVL278:
 2555 0eac 13010103 		addi	sp,sp,48
 2556              		.cfi_def_cfa_offset 0
 2557 0eb0 67800000 		jr	ra
 2558              	.L157:
 2559              		.cfi_restore_state
 2560 0eb4 13090500 		mv	s2,a0
 401:src/Tests.cpp ****     s1 = new Semaphore(1);
 2561              		.loc 2 401 25
 2562 0eb8 13850400 		mv	a0,s1
 2563 0ebc 97000000 		call	_ZdlPv@plt
 2563      E7800000 
 2564              	.LVL279:
 2565 0ec4 13050900 		mv	a0,s2
 2566              	.LEHB43:
 2567 0ec8 97000000 		call	_Unwind_Resume@plt
 2567      E7800000 
 2568              	.LVL280:
 2569              	.LEHE43:
 2570              	.L158:
 2571 0ed0 13090500 		mv	s2,a0
 402:src/Tests.cpp ****     s2 = new Semaphore(0);
 2572              		.loc 2 402 25
 2573 0ed4 13850400 		mv	a0,s1
 2574 0ed8 97000000 		call	_ZdlPv@plt
 2574      E7800000 
 2575              	.LVL281:
 2576 0ee0 13050900 		mv	a0,s2
 2577              	.LEHB44:
 2578 0ee4 97000000 		call	_Unwind_Resume@plt
 2578      E7800000 
 2579              	.LVL282:
 2580              	.LEHE44:
 2581              	.L159:
 2582 0eec 13090500 		mv	s2,a0
 403:src/Tests.cpp ****     s3 = new Semaphore(0);
 2583              		.loc 2 403 25
 2584 0ef0 13850400 		mv	a0,s1
 2585 0ef4 97000000 		call	_ZdlPv@plt
 2585      E7800000 
 2586              	.LVL283:
 2587 0efc 13050900 		mv	a0,s2
 2588              	.LEHB45:
 2589 0f00 97000000 		call	_Unwind_Resume@plt
 2589      E7800000 
 2590              	.LVL284:
 2591              	.LEHE45:
 2592              	.L160:
 2593 0f08 93040500 		mv	s1,a0
 404:src/Tests.cpp ****     Thread* t1 = new Thread(&f1_2, 0);
 2594              		.loc 2 404 37
 2595 0f0c 13850900 		mv	a0,s3
 2596 0f10 97000000 		call	_ZdlPv@plt
 2596      E7800000 
 2597              	.LVL285:
 2598 0f18 13850400 		mv	a0,s1
 2599              	.LEHB46:
GAS LISTING /tmp/cc7WLpkD.s 			page 68


 2600 0f1c 97000000 		call	_Unwind_Resume@plt
 2600      E7800000 
 2601              	.LVL286:
 2602              	.LEHE46:
 2603              	.L161:
 2604 0f24 93040500 		mv	s1,a0
 405:src/Tests.cpp ****     Thread* t2 = new Thread(&f2_2, 0);
 2605              		.loc 2 405 37
 2606 0f28 13050900 		mv	a0,s2
 2607 0f2c 97000000 		call	_ZdlPv@plt
 2607      E7800000 
 2608              	.LVL287:
 2609 0f34 13850400 		mv	a0,s1
 2610              	.LEHB47:
 2611 0f38 97000000 		call	_Unwind_Resume@plt
 2611      E7800000 
 2612              	.LVL288:
 2613              	.LEHE47:
 2614              	.L162:
 2615 0f40 13090500 		mv	s2,a0
 2616              	.LVL289:
 406:src/Tests.cpp ****     Thread* t3 = new Thread(&f3_2, 0);
 2617              		.loc 2 406 37
 2618 0f44 13850400 		mv	a0,s1
 2619 0f48 97000000 		call	_ZdlPv@plt
 2619      E7800000 
 2620              	.LVL290:
 2621 0f50 13050900 		mv	a0,s2
 2622              	.LEHB48:
 2623 0f54 97000000 		call	_Unwind_Resume@plt
 2623      E7800000 
 2624              	.LVL291:
 2625              	.LEHE48:
 2626              		.cfi_endproc
 2627              	.LFE45:
 2628              		.section	.gcc_except_table
 2629              	.LLSDA45:
 2630 0194 FF       		.byte	0xff
 2631 0195 FF       		.byte	0xff
 2632 0196 03       		.byte	0x3
 2633 0197 F701     		.byte	0xf7,0x1
 2634 0199 00000000 		.4byte	.LEHB30-.LFB45
 2635 019d 00000000 		.4byte	.LEHE30-.LEHB30
 2636 01a1 00000000 		.4byte	0
 2637 01a5 00       		.byte	0
 2638 01a6 00000000 		.4byte	.LEHB31-.LFB45
 2639 01aa 00000000 		.4byte	.LEHE31-.LEHB31
 2640 01ae 00000000 		.4byte	.L157-.LFB45
 2641 01b2 00       		.byte	0
 2642 01b3 00000000 		.4byte	.LEHB32-.LFB45
 2643 01b7 00000000 		.4byte	.LEHE32-.LEHB32
 2644 01bb 00000000 		.4byte	0
 2645 01bf 00       		.byte	0
 2646 01c0 00000000 		.4byte	.LEHB33-.LFB45
 2647 01c4 00000000 		.4byte	.LEHE33-.LEHB33
 2648 01c8 00000000 		.4byte	.L158-.LFB45
 2649 01cc 00       		.byte	0
GAS LISTING /tmp/cc7WLpkD.s 			page 69


 2650 01cd 00000000 		.4byte	.LEHB34-.LFB45
 2651 01d1 00000000 		.4byte	.LEHE34-.LEHB34
 2652 01d5 00000000 		.4byte	0
 2653 01d9 00       		.byte	0
 2654 01da 00000000 		.4byte	.LEHB35-.LFB45
 2655 01de 00000000 		.4byte	.LEHE35-.LEHB35
 2656 01e2 00000000 		.4byte	.L159-.LFB45
 2657 01e6 00       		.byte	0
 2658 01e7 00000000 		.4byte	.LEHB36-.LFB45
 2659 01eb 00000000 		.4byte	.LEHE36-.LEHB36
 2660 01ef 00000000 		.4byte	0
 2661 01f3 00       		.byte	0
 2662 01f4 00000000 		.4byte	.LEHB37-.LFB45
 2663 01f8 00000000 		.4byte	.LEHE37-.LEHB37
 2664 01fc 00000000 		.4byte	.L160-.LFB45
 2665 0200 00       		.byte	0
 2666 0201 00000000 		.4byte	.LEHB38-.LFB45
 2667 0205 00000000 		.4byte	.LEHE38-.LEHB38
 2668 0209 00000000 		.4byte	0
 2669 020d 00       		.byte	0
 2670 020e 00000000 		.4byte	.LEHB39-.LFB45
 2671 0212 00000000 		.4byte	.LEHE39-.LEHB39
 2672 0216 00000000 		.4byte	.L161-.LFB45
 2673 021a 00       		.byte	0
 2674 021b 00000000 		.4byte	.LEHB40-.LFB45
 2675 021f 00000000 		.4byte	.LEHE40-.LEHB40
 2676 0223 00000000 		.4byte	0
 2677 0227 00       		.byte	0
 2678 0228 00000000 		.4byte	.LEHB41-.LFB45
 2679 022c 00000000 		.4byte	.LEHE41-.LEHB41
 2680 0230 00000000 		.4byte	.L162-.LFB45
 2681 0234 00       		.byte	0
 2682 0235 00000000 		.4byte	.LEHB42-.LFB45
 2683 0239 00000000 		.4byte	.LEHE42-.LEHB42
 2684 023d 00000000 		.4byte	0
 2685 0241 00       		.byte	0
 2686 0242 00000000 		.4byte	.LEHB43-.LFB45
 2687 0246 00000000 		.4byte	.LEHE43-.LEHB43
 2688 024a 00000000 		.4byte	0
 2689 024e 00       		.byte	0
 2690 024f 00000000 		.4byte	.LEHB44-.LFB45
 2691 0253 00000000 		.4byte	.LEHE44-.LEHB44
 2692 0257 00000000 		.4byte	0
 2693 025b 00       		.byte	0
 2694 025c 00000000 		.4byte	.LEHB45-.LFB45
 2695 0260 00000000 		.4byte	.LEHE45-.LEHB45
 2696 0264 00000000 		.4byte	0
 2697 0268 00       		.byte	0
 2698 0269 00000000 		.4byte	.LEHB46-.LFB45
 2699 026d 00000000 		.4byte	.LEHE46-.LEHB46
 2700 0271 00000000 		.4byte	0
 2701 0275 00       		.byte	0
 2702 0276 00000000 		.4byte	.LEHB47-.LFB45
 2703 027a 00000000 		.4byte	.LEHE47-.LEHB47
 2704 027e 00000000 		.4byte	0
 2705 0282 00       		.byte	0
 2706 0283 00000000 		.4byte	.LEHB48-.LFB45
GAS LISTING /tmp/cc7WLpkD.s 			page 70


 2707 0287 00000000 		.4byte	.LEHE48-.LEHB48
 2708 028b 00000000 		.4byte	0
 2709 028f 00       		.byte	0
 2710              		.text
 2712              		.align	2
 2713              		.globl	_Z14semaphoreTestsv
 2715              	_Z14semaphoreTestsv:
 2716              	.LFB46:
 423:src/Tests.cpp **** {
 2717              		.loc 2 423 1 is_stmt 1
 2718              		.cfi_startproc
 2719 0f5c 130101FF 		addi	sp,sp,-16
 2720              		.cfi_def_cfa_offset 16
 2721 0f60 23341100 		sd	ra,8(sp)
 2722 0f64 23308100 		sd	s0,0(sp)
 2723              		.cfi_offset 1, -8
 2724              		.cfi_offset 8, -16
 2725 0f68 13040101 		addi	s0,sp,16
 2726              		.cfi_def_cfa 8, 0
 424:src/Tests.cpp ****     semTest1();
 2727              		.loc 2 424 5
 424:src/Tests.cpp ****     semTest1();
 2728              		.loc 2 424 13 is_stmt 0
 2729 0f6c 97000000 		call	_Z8semTest1v
 2729      E7800000 
 2730              	.LVL292:
 2731              		.cfi_endproc
 2732              	.LFE46:
 2734              		.align	2
 2735              		.globl	_Z7myTestsv
 2737              	_Z7myTestsv:
 2738              	.LFB47:
 429:src/Tests.cpp **** {
 2739              		.loc 2 429 1 is_stmt 1
 2740              		.cfi_startproc
 2741 0f74 130101FF 		addi	sp,sp,-16
 2742              		.cfi_def_cfa_offset 16
 2743 0f78 23341100 		sd	ra,8(sp)
 2744 0f7c 23308100 		sd	s0,0(sp)
 2745              		.cfi_offset 1, -8
 2746              		.cfi_offset 8, -16
 2747 0f80 13040101 		addi	s0,sp,16
 2748              		.cfi_def_cfa 8, 0
 433:src/Tests.cpp ****     semaphoreTests();
 2749              		.loc 2 433 5
 433:src/Tests.cpp ****     semaphoreTests();
 2750              		.loc 2 433 19 is_stmt 0
 2751 0f84 97000000 		call	_Z14semaphoreTestsv
 2751      E7800000 
 2752              	.LVL293:
 2753              		.cfi_endproc
 2754              	.LFE47:
 2756              		.align	2
 2757              		.globl	_ZN12TestPeriodicC2Em
 2759              	_ZN12TestPeriodicC2Em:
 2760              	.LFB53:
 436:src/Tests.cpp **** TestPeriodic::TestPeriodic(time_t time) : PeriodicThread(time) {
GAS LISTING /tmp/cc7WLpkD.s 			page 71


 2761              		.loc 2 436 1 is_stmt 1
 2762              		.cfi_startproc
 2763              	.LVL294:
 2764 0f8c 130101FE 		addi	sp,sp,-32
 2765              		.cfi_def_cfa_offset 32
 2766 0f90 233C1100 		sd	ra,24(sp)
 2767 0f94 23388100 		sd	s0,16(sp)
 2768 0f98 23349100 		sd	s1,8(sp)
 2769              		.cfi_offset 1, -8
 2770              		.cfi_offset 8, -16
 2771              		.cfi_offset 9, -24
 2772 0f9c 13040102 		addi	s0,sp,32
 2773              		.cfi_def_cfa 8, 0
 2774 0fa0 93040500 		mv	s1,a0
 2775              	.LBB58:
 436:src/Tests.cpp **** TestPeriodic::TestPeriodic(time_t time) : PeriodicThread(time) {
 2776              		.loc 2 436 62 is_stmt 0
 2777 0fa4 97000000 		call	_ZN14PeriodicThreadC2Em@plt
 2777      E7800000 
 2778              	.LVL295:
 2779 0fac 97070000 		lla	a5,_ZTV12TestPeriodic+16
 2779      93870700 
 2780 0fb4 23B0F400 		sd	a5,0(s1)
 2781              	.LBE58:
 438:src/Tests.cpp **** }
 2782              		.loc 2 438 1
 2783 0fb8 83308101 		ld	ra,24(sp)
 2784              		.cfi_restore 1
 2785 0fbc 03340101 		ld	s0,16(sp)
 2786              		.cfi_restore 8
 2787              		.cfi_def_cfa 2, 32
 2788 0fc0 83348100 		ld	s1,8(sp)
 2789              		.cfi_restore 9
 2790              	.LVL296:
 2791 0fc4 13010102 		addi	sp,sp,32
 2792              		.cfi_def_cfa_offset 0
 2793 0fc8 67800000 		jr	ra
 2794              		.cfi_endproc
 2795              	.LFE53:
 2797              		.globl	_ZN12TestPeriodicC1Em
 2798              		.set	_ZN12TestPeriodicC1Em,_ZN12TestPeriodicC2Em
 2799              		.align	2
 2800              		.globl	_Z11threadTest3v
 2802              	_Z11threadTest3v:
 2803              	.LFB29:
  98:src/Tests.cpp **** {
 2804              		.loc 2 98 1 is_stmt 1
 2805              		.cfi_startproc
 2806              		.cfi_personality 0x9b,DW.ref.__gxx_personality_v0
 2807              		.cfi_lsda 0x1b,.LLSDA29
 2808 0fcc 130101FE 		addi	sp,sp,-32
 2809              		.cfi_def_cfa_offset 32
 2810 0fd0 233C1100 		sd	ra,24(sp)
 2811 0fd4 23388100 		sd	s0,16(sp)
 2812 0fd8 23349100 		sd	s1,8(sp)
 2813 0fdc 23302101 		sd	s2,0(sp)
 2814              		.cfi_offset 1, -8
GAS LISTING /tmp/cc7WLpkD.s 			page 72


 2815              		.cfi_offset 8, -16
 2816              		.cfi_offset 9, -24
 2817              		.cfi_offset 18, -32
 2818 0fe0 13040102 		addi	s0,sp,32
 2819              		.cfi_def_cfa 8, 0
  99:src/Tests.cpp ****     Thread* t = new TestPeriodic(50);
 2820              		.loc 2 99 5
  99:src/Tests.cpp ****     Thread* t = new TestPeriodic(50);
 2821              		.loc 2 99 36 is_stmt 0
 2822 0fe4 13058002 		li	a0,40
 2823              	.LEHB49:
 2824 0fe8 97000000 		call	_Znwm@plt
 2824      E7800000 
 2825              	.LVL297:
 2826              	.LEHE49:
 2827 0ff0 13090500 		mv	s2,a0
 2828 0ff4 93052003 		li	a1,50
 2829              	.LEHB50:
 2830 0ff8 97000000 		call	_ZN12TestPeriodicC1Em
 2830      E7800000 
 2831              	.LVL298:
 2832              	.LEHE50:
 100:src/Tests.cpp ****     t->start();
 2833              		.loc 2 100 5 is_stmt 1 discriminator 2
 100:src/Tests.cpp ****     t->start();
 2834              		.loc 2 100 13 is_stmt 0 discriminator 2
 2835 1000 13050900 		mv	a0,s2
 2836              	.LEHB51:
 2837 1004 97000000 		call	_ZN6Thread5startEv@plt
 2837      E7800000 
 2838              	.LVL299:
 2839              	.LEHE51:
 2840              	.L172:
 101:src/Tests.cpp ****     while(true)
 2841              		.loc 2 101 5 is_stmt 1 discriminator 1
 101:src/Tests.cpp ****     while(true)
 2842              		.loc 2 101 5 discriminator 1
 2843 100c 6F000000 		j	.L172
 2844              	.LVL300:
 2845              	.L174:
 2846 1010 93040500 		mv	s1,a0
  99:src/Tests.cpp ****     Thread* t = new TestPeriodic(50);
 2847              		.loc 2 99 36 is_stmt 0
 2848 1014 13050900 		mv	a0,s2
 2849 1018 97000000 		call	_ZdlPv@plt
 2849      E7800000 
 2850              	.LVL301:
 2851 1020 13850400 		mv	a0,s1
 2852              	.LEHB52:
 2853 1024 97000000 		call	_Unwind_Resume@plt
 2853      E7800000 
 2854              	.LVL302:
 2855              	.LEHE52:
 2856              		.cfi_endproc
 2857              	.LFE29:
 2858              		.section	.gcc_except_table
 2859              	.LLSDA29:
GAS LISTING /tmp/cc7WLpkD.s 			page 73


 2860 0290 FF       		.byte	0xff
 2861 0291 FF       		.byte	0xff
 2862 0292 03       		.byte	0x3
 2863 0293 34       		.byte	0x34
 2864 0294 00000000 		.4byte	.LEHB49-.LFB29
 2865 0298 00000000 		.4byte	.LEHE49-.LEHB49
 2866 029c 00000000 		.4byte	0
 2867 02a0 00       		.byte	0
 2868 02a1 00000000 		.4byte	.LEHB50-.LFB29
 2869 02a5 00000000 		.4byte	.LEHE50-.LEHB50
 2870 02a9 00000000 		.4byte	.L174-.LFB29
 2871 02ad 00       		.byte	0
 2872 02ae 00000000 		.4byte	.LEHB51-.LFB29
 2873 02b2 00000000 		.4byte	.LEHE51-.LEHB51
 2874 02b6 00000000 		.4byte	0
 2875 02ba 00       		.byte	0
 2876 02bb 00000000 		.4byte	.LEHB52-.LFB29
 2877 02bf 00000000 		.4byte	.LEHE52-.LEHB52
 2878 02c3 00000000 		.4byte	0
 2879 02c7 00       		.byte	0
 2880              		.text
 2882              		.align	2
 2883              		.globl	_Z11threadTestsv
 2885              	_Z11threadTestsv:
 2886              	.LFB30:
 108:src/Tests.cpp **** {
 2887              		.loc 2 108 1 is_stmt 1
 2888              		.cfi_startproc
 2889 102c 130101FF 		addi	sp,sp,-16
 2890              		.cfi_def_cfa_offset 16
 2891 1030 23341100 		sd	ra,8(sp)
 2892 1034 23308100 		sd	s0,0(sp)
 2893              		.cfi_offset 1, -8
 2894              		.cfi_offset 8, -16
 2895 1038 13040101 		addi	s0,sp,16
 2896              		.cfi_def_cfa 8, 0
 111:src/Tests.cpp ****     threadTest3();
 2897              		.loc 2 111 5
 111:src/Tests.cpp ****     threadTest3();
 2898              		.loc 2 111 16 is_stmt 0
 2899 103c 97000000 		call	_Z11threadTest3v
 2899      E7800000 
 2900              	.LVL303:
 2901              		.cfi_endproc
 2902              	.LFE30:
 2904              		.weak	_ZTV14PeriodicThread
 2905              		.section	.data.rel.ro.local._ZTV14PeriodicThread,"awG",@progbits,_ZTV14PeriodicThread,comdat
 2906              		.align	3
 2909              	_ZTV14PeriodicThread:
 2910 0000 00000000 		.dword	0
 2910      00000000 
 2911 0008 00000000 		.dword	0
 2911      00000000 
 2912 0010 00000000 		.dword	_ZN14PeriodicThreadD1Ev
 2912      00000000 
 2913 0018 00000000 		.dword	_ZN14PeriodicThreadD0Ev
 2913      00000000 
GAS LISTING /tmp/cc7WLpkD.s 			page 74


 2914 0020 00000000 		.dword	_ZN6Thread3runEv
 2914      00000000 
 2915 0028 00000000 		.dword	_ZN14PeriodicThread18periodicActivationEv
 2915      00000000 
 2916              		.weak	_ZTV12TestPeriodic
 2917              		.section	.data.rel.ro.local._ZTV12TestPeriodic,"awG",@progbits,_ZTV12TestPeriodic,comdat
 2918              		.align	3
 2921              	_ZTV12TestPeriodic:
 2922 0000 00000000 		.dword	0
 2922      00000000 
 2923 0008 00000000 		.dword	0
 2923      00000000 
 2924 0010 00000000 		.dword	_ZN12TestPeriodicD1Ev
 2924      00000000 
 2925 0018 00000000 		.dword	_ZN12TestPeriodicD0Ev
 2925      00000000 
 2926 0020 00000000 		.dword	_ZN6Thread3runEv
 2926      00000000 
 2927 0028 00000000 		.dword	_ZN12TestPeriodic18periodicActivationEv
 2927      00000000 
 2928              		.bss
 2929              		.align	3
 2930              		.set	.LANCHOR0,. + 0
 2933              	_ZL2s1:
 2934 0000 00000000 		.zero	8
 2934      00000000 
 2937              	_ZL2s2:
 2938 0008 00000000 		.zero	8
 2938      00000000 
 2941              	_ZL2s3:
 2942 0010 00000000 		.zero	8
 2942      00000000 
 2945              	_ZL3s11:
 2946 0018 00000000 		.zero	8
 2946      00000000 
 2949              	_ZL3s22:
 2950 0020 00000000 		.zero	8
 2950      00000000 
 2951              		.text
 2952              	.Letext0:
 2953              		.file 5 "src/../h/../lib/hw.h"
 2954              		.file 6 "src/../h/Riscv.hpp"
 2955              		.file 7 "src/../h/syscall_c.h"
 2956              		.file 8 "src/../lib/console.h"
 9786              		.align	3
 9789              	DW.ref.__gxx_personality_v0:
 9790 0000 00000000 		.dword	__gxx_personality_v0
 9790      00000000 
 9791              		.ident	"GCC: (Ubuntu 9.3.0-17ubuntu1~20.04) 9.3.0"
 9792              		.section	.note.GNU-stack,"",@progbits
GAS LISTING /tmp/cc7WLpkD.s 			page 75


DEFINED SYMBOLS
                            *ABS*:0000000000000000 Tests.cpp
     /tmp/cc7WLpkD.s:10     .text._ZN6Thread3runEv:0000000000000000 _ZN6Thread3runEv
     /tmp/cc7WLpkD.s:14     .text._ZN6Thread3runEv:0000000000000000 .L0 
     /tmp/cc7WLpkD.s:16     .text._ZN6Thread3runEv:0000000000000000 .L0 
     /tmp/cc7WLpkD.s:17     .text._ZN6Thread3runEv:0000000000000004 .L0 
     /tmp/cc7WLpkD.s:19     .text._ZN6Thread3runEv:0000000000000008 .L0 
     /tmp/cc7WLpkD.s:21     .text._ZN6Thread3runEv:000000000000000c .L0 
     /tmp/cc7WLpkD.s:23     .text._ZN6Thread3runEv:000000000000000c .L0 
     /tmp/cc7WLpkD.s:24     .text._ZN6Thread3runEv:0000000000000010 .L0 
     /tmp/cc7WLpkD.s:25     .text._ZN6Thread3runEv:0000000000000010 .L0 
     /tmp/cc7WLpkD.s:27     .text._ZN6Thread3runEv:0000000000000014 .L0 
     /tmp/cc7WLpkD.s:29     .text._ZN6Thread3runEv:0000000000000018 .L0 
     /tmp/cc7WLpkD.s:36     .text._ZN14PeriodicThread18periodicActivationEv:0000000000000000 _ZN14PeriodicThread18periodicActivationEv
     /tmp/cc7WLpkD.s:39     .text._ZN14PeriodicThread18periodicActivationEv:0000000000000000 .L0 
     /tmp/cc7WLpkD.s:41     .text._ZN14PeriodicThread18periodicActivationEv:0000000000000000 .L0 
     /tmp/cc7WLpkD.s:42     .text._ZN14PeriodicThread18periodicActivationEv:0000000000000004 .L0 
     /tmp/cc7WLpkD.s:44     .text._ZN14PeriodicThread18periodicActivationEv:0000000000000008 .L0 
     /tmp/cc7WLpkD.s:46     .text._ZN14PeriodicThread18periodicActivationEv:000000000000000c .L0 
     /tmp/cc7WLpkD.s:48     .text._ZN14PeriodicThread18periodicActivationEv:000000000000000c .L0 
     /tmp/cc7WLpkD.s:49     .text._ZN14PeriodicThread18periodicActivationEv:0000000000000010 .L0 
     /tmp/cc7WLpkD.s:50     .text._ZN14PeriodicThread18periodicActivationEv:0000000000000010 .L0 
     /tmp/cc7WLpkD.s:52     .text._ZN14PeriodicThread18periodicActivationEv:0000000000000014 .L0 
     /tmp/cc7WLpkD.s:54     .text._ZN14PeriodicThread18periodicActivationEv:0000000000000018 .L0 
     /tmp/cc7WLpkD.s:65     .text:0000000000000000 _Z4idlePv
     /tmp/cc7WLpkD.s:69     .text:0000000000000000 .L0 
     /tmp/cc7WLpkD.s:71     .text:0000000000000000 .L0 
     /tmp/cc7WLpkD.s:72     .text:0000000000000004 .L0 
     /tmp/cc7WLpkD.s:75     .text:000000000000000c .L0 
     /tmp/cc7WLpkD.s:76     .text:000000000000000c .L0 
     /tmp/cc7WLpkD.s:78     .text:0000000000000010 .L0 
     /tmp/cc7WLpkD.s:82     .text:0000000000000010 .L0 
     /tmp/cc7WLpkD.s:83     .text:0000000000000010 .L0 
     /tmp/cc7WLpkD.s:84     .text:0000000000000010 .L0 
     /tmp/cc7WLpkD.s:88     .text:0000000000000020 .L0 
     /tmp/cc7WLpkD.s:89     .text:0000000000000020 .L0 
     /tmp/cc7WLpkD.s:92     .text:0000000000000028 .L0 
     /tmp/cc7WLpkD.s:93     .text:000000000000002c .L0 
     /tmp/cc7WLpkD.s:110    .text:000000000000002c _Z15thread1FunctionPv
     /tmp/cc7WLpkD.s:113    .text:000000000000002c .L0 
     /tmp/cc7WLpkD.s:115    .text:000000000000002c .L0 
     /tmp/cc7WLpkD.s:116    .text:0000000000000030 .L0 
     /tmp/cc7WLpkD.s:120    .text:000000000000003c .L0 
     /tmp/cc7WLpkD.s:121    .text:000000000000003c .L0 
     /tmp/cc7WLpkD.s:122    .text:000000000000003c .L0 
     /tmp/cc7WLpkD.s:124    .text:0000000000000040 .L0 
     /tmp/cc7WLpkD.s:126    .text:0000000000000040 .L0 
     /tmp/cc7WLpkD.s:127    .text:0000000000000040 .L0 
     /tmp/cc7WLpkD.s:132    .text:0000000000000050 .L0 
     /tmp/cc7WLpkD.s:134    .text:0000000000000050 .L0 
     /tmp/cc7WLpkD.s:135    .text:0000000000000050 .L0 
     /tmp/cc7WLpkD.s:140    .text:0000000000000058 .L0 
     /tmp/cc7WLpkD.s:141    .text:0000000000000058 .L0 
     /tmp/cc7WLpkD.s:145    .text:0000000000000060 .L0 
     /tmp/cc7WLpkD.s:146    .text:0000000000000060 .L0 
     /tmp/cc7WLpkD.s:150    .text:0000000000000070 .L0 
     /tmp/cc7WLpkD.s:151    .text:0000000000000070 .L0 
GAS LISTING /tmp/cc7WLpkD.s 			page 76


     /tmp/cc7WLpkD.s:155    .text:000000000000007c .L0 
     /tmp/cc7WLpkD.s:156    .text:000000000000007c .L0 
     /tmp/cc7WLpkD.s:160    .text:000000000000008c .L0 
     /tmp/cc7WLpkD.s:164    .text:0000000000000090 .L0 
     /tmp/cc7WLpkD.s:168    .text:000000000000009c .L0 
     /tmp/cc7WLpkD.s:169    .text:000000000000009c .L0 
     /tmp/cc7WLpkD.s:172    .text:00000000000000a4 .L0 
     /tmp/cc7WLpkD.s:174    .text:00000000000000a8 .L0 
     /tmp/cc7WLpkD.s:179    .text:00000000000000b0 .L0 
     /tmp/cc7WLpkD.s:180    .text:00000000000000b4 .L0 
     /tmp/cc7WLpkD.s:182    .text:00000000000000b8 .L0 
     /tmp/cc7WLpkD.s:183    .text:00000000000000b8 .L0 
     /tmp/cc7WLpkD.s:185    .text:00000000000000bc .L0 
     /tmp/cc7WLpkD.s:188    .text:00000000000000c0 .L0 
     /tmp/cc7WLpkD.s:190    .text:00000000000000c4 .L0 
     /tmp/cc7WLpkD.s:204    .text:00000000000000c4 _Z15thread2FunctionPv
     /tmp/cc7WLpkD.s:207    .text:00000000000000c4 .L0 
     /tmp/cc7WLpkD.s:209    .text:00000000000000c4 .L0 
     /tmp/cc7WLpkD.s:210    .text:00000000000000c8 .L0 
     /tmp/cc7WLpkD.s:214    .text:00000000000000d4 .L0 
     /tmp/cc7WLpkD.s:215    .text:00000000000000d4 .L0 
     /tmp/cc7WLpkD.s:216    .text:00000000000000d4 .L0 
     /tmp/cc7WLpkD.s:218    .text:00000000000000d8 .L0 
     /tmp/cc7WLpkD.s:220    .text:00000000000000d8 .L0 
     /tmp/cc7WLpkD.s:221    .text:00000000000000d8 .L0 
     /tmp/cc7WLpkD.s:226    .text:00000000000000e8 .L0 
     /tmp/cc7WLpkD.s:228    .text:00000000000000e8 .L0 
     /tmp/cc7WLpkD.s:229    .text:00000000000000e8 .L0 
     /tmp/cc7WLpkD.s:234    .text:00000000000000f0 .L0 
     /tmp/cc7WLpkD.s:235    .text:00000000000000f0 .L0 
     /tmp/cc7WLpkD.s:239    .text:00000000000000f8 .L0 
     /tmp/cc7WLpkD.s:240    .text:00000000000000f8 .L0 
     /tmp/cc7WLpkD.s:244    .text:0000000000000108 .L0 
     /tmp/cc7WLpkD.s:245    .text:0000000000000108 .L0 
     /tmp/cc7WLpkD.s:249    .text:0000000000000114 .L0 
     /tmp/cc7WLpkD.s:250    .text:0000000000000114 .L0 
     /tmp/cc7WLpkD.s:254    .text:0000000000000124 .L0 
     /tmp/cc7WLpkD.s:258    .text:0000000000000128 .L0 
     /tmp/cc7WLpkD.s:262    .text:0000000000000134 .L0 
     /tmp/cc7WLpkD.s:263    .text:0000000000000134 .L0 
     /tmp/cc7WLpkD.s:266    .text:000000000000013c .L0 
     /tmp/cc7WLpkD.s:268    .text:0000000000000140 .L0 
     /tmp/cc7WLpkD.s:273    .text:0000000000000148 .L0 
     /tmp/cc7WLpkD.s:274    .text:000000000000014c .L0 
     /tmp/cc7WLpkD.s:276    .text:0000000000000150 .L0 
     /tmp/cc7WLpkD.s:277    .text:0000000000000150 .L0 
     /tmp/cc7WLpkD.s:279    .text:0000000000000154 .L0 
     /tmp/cc7WLpkD.s:282    .text:0000000000000158 .L0 
     /tmp/cc7WLpkD.s:284    .text:000000000000015c .L0 
     /tmp/cc7WLpkD.s:290    .text:000000000000015c _ZN12TestPeriodic18periodicActivationEv
     /tmp/cc7WLpkD.s:293    .text:000000000000015c .L0 
     /tmp/cc7WLpkD.s:295    .text:000000000000015c .L0 
     /tmp/cc7WLpkD.s:296    .text:0000000000000160 .L0 
     /tmp/cc7WLpkD.s:300    .text:000000000000016c .L0 
     /tmp/cc7WLpkD.s:301    .text:000000000000016c .L0 
     /tmp/cc7WLpkD.s:302    .text:000000000000016c .L0 
     /tmp/cc7WLpkD.s:304    .text:0000000000000170 .L0 
GAS LISTING /tmp/cc7WLpkD.s 			page 77


     /tmp/cc7WLpkD.s:308    .text:0000000000000170 .L0 
     /tmp/cc7WLpkD.s:309    .text:0000000000000170 .L0 
     /tmp/cc7WLpkD.s:313    .text:0000000000000174 .L0 
     /tmp/cc7WLpkD.s:317    .text:0000000000000180 .L0 
     /tmp/cc7WLpkD.s:318    .text:0000000000000180 .L0 
     /tmp/cc7WLpkD.s:322    .text:0000000000000190 .L0 
     /tmp/cc7WLpkD.s:323    .text:0000000000000190 .L0 
     /tmp/cc7WLpkD.s:327    .text:000000000000019c .L0 
     /tmp/cc7WLpkD.s:334    .text:00000000000001a4 .L0 
     /tmp/cc7WLpkD.s:335    .text:00000000000001a8 .L0 
     /tmp/cc7WLpkD.s:337    .text:00000000000001ac .L0 
     /tmp/cc7WLpkD.s:338    .text:00000000000001ac .L0 
     /tmp/cc7WLpkD.s:340    .text:00000000000001b0 .L0 
     /tmp/cc7WLpkD.s:343    .text:00000000000001b4 .L0 
     /tmp/cc7WLpkD.s:345    .text:00000000000001b8 .L0 
     /tmp/cc7WLpkD.s:351    .text:00000000000001b8 _Z20thread2FunctionTest2Pv
     /tmp/cc7WLpkD.s:354    .text:00000000000001b8 .L0 
     /tmp/cc7WLpkD.s:356    .text:00000000000001b8 .L0 
     /tmp/cc7WLpkD.s:357    .text:00000000000001bc .L0 
     /tmp/cc7WLpkD.s:361    .text:00000000000001c8 .L0 
     /tmp/cc7WLpkD.s:362    .text:00000000000001c8 .L0 
     /tmp/cc7WLpkD.s:363    .text:00000000000001c8 .L0 
     /tmp/cc7WLpkD.s:365    .text:00000000000001cc .L0 
     /tmp/cc7WLpkD.s:367    .text:00000000000001cc .L0 
     /tmp/cc7WLpkD.s:368    .text:00000000000001cc .L0 
     /tmp/cc7WLpkD.s:373    .text:00000000000001dc .L0 
     /tmp/cc7WLpkD.s:375    .text:00000000000001dc .L0 
     /tmp/cc7WLpkD.s:376    .text:00000000000001dc .L0 
     /tmp/cc7WLpkD.s:381    .text:00000000000001e4 .L0 
     /tmp/cc7WLpkD.s:382    .text:00000000000001e4 .L0 
     /tmp/cc7WLpkD.s:387    .text:00000000000001f0 .L0 
     /tmp/cc7WLpkD.s:388    .text:00000000000001f0 .L0 
     /tmp/cc7WLpkD.s:392    .text:00000000000001f8 .L0 
     /tmp/cc7WLpkD.s:393    .text:00000000000001f8 .L0 
     /tmp/cc7WLpkD.s:397    .text:0000000000000208 .L0 
     /tmp/cc7WLpkD.s:398    .text:0000000000000208 .L0 
     /tmp/cc7WLpkD.s:402    .text:0000000000000214 .L0 
     /tmp/cc7WLpkD.s:403    .text:0000000000000214 .L0 
     /tmp/cc7WLpkD.s:407    .text:0000000000000224 .L0 
     /tmp/cc7WLpkD.s:411    .text:0000000000000228 .L0 
     /tmp/cc7WLpkD.s:415    .text:0000000000000234 .L0 
     /tmp/cc7WLpkD.s:419    .text:000000000000023c .L0 
     /tmp/cc7WLpkD.s:420    .text:000000000000023c .L0 
     /tmp/cc7WLpkD.s:423    .text:0000000000000244 .L0 
     /tmp/cc7WLpkD.s:425    .text:0000000000000248 .L0 
     /tmp/cc7WLpkD.s:430    .text:0000000000000250 .L0 
     /tmp/cc7WLpkD.s:431    .text:0000000000000254 .L0 
     /tmp/cc7WLpkD.s:433    .text:0000000000000258 .L0 
     /tmp/cc7WLpkD.s:434    .text:0000000000000258 .L0 
     /tmp/cc7WLpkD.s:436    .text:000000000000025c .L0 
     /tmp/cc7WLpkD.s:439    .text:0000000000000260 .L0 
     /tmp/cc7WLpkD.s:441    .text:0000000000000264 .L0 
     /tmp/cc7WLpkD.s:452    .text:0000000000000264 _Z4f1_2Pv
     /tmp/cc7WLpkD.s:455    .text:0000000000000264 .L0 
     /tmp/cc7WLpkD.s:457    .text:0000000000000264 .L0 
     /tmp/cc7WLpkD.s:458    .text:0000000000000268 .L0 
     /tmp/cc7WLpkD.s:463    .text:0000000000000278 .L0 
GAS LISTING /tmp/cc7WLpkD.s 			page 78


     /tmp/cc7WLpkD.s:464    .text:0000000000000278 .L0 
     /tmp/cc7WLpkD.s:465    .text:0000000000000278 .L0 
     /tmp/cc7WLpkD.s:466    .text:0000000000000278 .L0 
     /tmp/cc7WLpkD.s:468    .text:000000000000027c .L0 
     /tmp/cc7WLpkD.s:470    .text:000000000000027c .L0 
     /tmp/cc7WLpkD.s:471    .text:000000000000027c .L0 
     /tmp/cc7WLpkD.s:476    .text:000000000000028c .L0 
     /tmp/cc7WLpkD.s:477    .text:000000000000028c .L0 
     /tmp/cc7WLpkD.s:482    .text:0000000000000294 .L0 
     /tmp/cc7WLpkD.s:483    .text:0000000000000294 .L0 
     /tmp/cc7WLpkD.s:487    .text:000000000000029c .L0 
     /tmp/cc7WLpkD.s:488    .text:000000000000029c .L0 
     /tmp/cc7WLpkD.s:489    .text:000000000000029c .L0 
     /tmp/cc7WLpkD.s:492    .text:00000000000002a0 .L0 
     /tmp/cc7WLpkD.s:493    .text:00000000000002a0 .L0 
     /tmp/cc7WLpkD.s:498    .text:00000000000002b4 .L0 
     /tmp/cc7WLpkD.s:499    .text:00000000000002b4 .L0 
     /tmp/cc7WLpkD.s:503    .text:00000000000002c0 .L0 
     /tmp/cc7WLpkD.s:504    .text:00000000000002c0 .L0 
     /tmp/cc7WLpkD.s:508    .text:00000000000002cc .L0 
     /tmp/cc7WLpkD.s:509    .text:00000000000002cc .L0 
     /tmp/cc7WLpkD.s:513    .text:00000000000002d8 .L0 
     /tmp/cc7WLpkD.s:517    .text:00000000000002e4 .L0 
     /tmp/cc7WLpkD.s:518    .text:00000000000002e4 .L0 
     /tmp/cc7WLpkD.s:521    .text:00000000000002f0 .L0 
     /tmp/cc7WLpkD.s:532    .text:00000000000002f0 _Z4f2_2Pv
     /tmp/cc7WLpkD.s:535    .text:00000000000002f0 .L0 
     /tmp/cc7WLpkD.s:537    .text:00000000000002f0 .L0 
     /tmp/cc7WLpkD.s:538    .text:00000000000002f4 .L0 
     /tmp/cc7WLpkD.s:543    .text:0000000000000304 .L0 
     /tmp/cc7WLpkD.s:544    .text:0000000000000304 .L0 
     /tmp/cc7WLpkD.s:545    .text:0000000000000304 .L0 
     /tmp/cc7WLpkD.s:546    .text:0000000000000304 .L0 
     /tmp/cc7WLpkD.s:548    .text:0000000000000308 .L0 
     /tmp/cc7WLpkD.s:550    .text:0000000000000308 .L0 
     /tmp/cc7WLpkD.s:551    .text:0000000000000308 .L0 
     /tmp/cc7WLpkD.s:556    .text:0000000000000318 .L0 
     /tmp/cc7WLpkD.s:557    .text:0000000000000318 .L0 
     /tmp/cc7WLpkD.s:562    .text:0000000000000320 .L0 
     /tmp/cc7WLpkD.s:563    .text:0000000000000320 .L0 
     /tmp/cc7WLpkD.s:567    .text:0000000000000328 .L0 
     /tmp/cc7WLpkD.s:568    .text:0000000000000328 .L0 
     /tmp/cc7WLpkD.s:569    .text:0000000000000328 .L0 
     /tmp/cc7WLpkD.s:572    .text:000000000000032c .L0 
     /tmp/cc7WLpkD.s:573    .text:000000000000032c .L0 
     /tmp/cc7WLpkD.s:578    .text:0000000000000340 .L0 
     /tmp/cc7WLpkD.s:579    .text:0000000000000340 .L0 
     /tmp/cc7WLpkD.s:583    .text:000000000000034c .L0 
     /tmp/cc7WLpkD.s:584    .text:000000000000034c .L0 
     /tmp/cc7WLpkD.s:588    .text:0000000000000358 .L0 
     /tmp/cc7WLpkD.s:589    .text:0000000000000358 .L0 
     /tmp/cc7WLpkD.s:593    .text:0000000000000364 .L0 
     /tmp/cc7WLpkD.s:597    .text:0000000000000370 .L0 
     /tmp/cc7WLpkD.s:598    .text:0000000000000370 .L0 
     /tmp/cc7WLpkD.s:601    .text:000000000000037c .L0 
     /tmp/cc7WLpkD.s:612    .text:000000000000037c _Z4f3_2Pv
     /tmp/cc7WLpkD.s:615    .text:000000000000037c .L0 
GAS LISTING /tmp/cc7WLpkD.s 			page 79


     /tmp/cc7WLpkD.s:617    .text:000000000000037c .L0 
     /tmp/cc7WLpkD.s:618    .text:0000000000000380 .L0 
     /tmp/cc7WLpkD.s:623    .text:0000000000000390 .L0 
     /tmp/cc7WLpkD.s:624    .text:0000000000000390 .L0 
     /tmp/cc7WLpkD.s:625    .text:0000000000000390 .L0 
     /tmp/cc7WLpkD.s:626    .text:0000000000000390 .L0 
     /tmp/cc7WLpkD.s:628    .text:0000000000000394 .L0 
     /tmp/cc7WLpkD.s:630    .text:0000000000000394 .L0 
     /tmp/cc7WLpkD.s:631    .text:0000000000000394 .L0 
     /tmp/cc7WLpkD.s:636    .text:00000000000003a4 .L0 
     /tmp/cc7WLpkD.s:637    .text:00000000000003a4 .L0 
     /tmp/cc7WLpkD.s:642    .text:00000000000003ac .L0 
     /tmp/cc7WLpkD.s:643    .text:00000000000003ac .L0 
     /tmp/cc7WLpkD.s:647    .text:00000000000003b4 .L0 
     /tmp/cc7WLpkD.s:648    .text:00000000000003b4 .L0 
     /tmp/cc7WLpkD.s:649    .text:00000000000003b4 .L0 
     /tmp/cc7WLpkD.s:652    .text:00000000000003b8 .L0 
     /tmp/cc7WLpkD.s:653    .text:00000000000003b8 .L0 
     /tmp/cc7WLpkD.s:658    .text:00000000000003cc .L0 
     /tmp/cc7WLpkD.s:659    .text:00000000000003cc .L0 
     /tmp/cc7WLpkD.s:663    .text:00000000000003d8 .L0 
     /tmp/cc7WLpkD.s:664    .text:00000000000003d8 .L0 
     /tmp/cc7WLpkD.s:668    .text:00000000000003e4 .L0 
     /tmp/cc7WLpkD.s:669    .text:00000000000003e4 .L0 
     /tmp/cc7WLpkD.s:673    .text:00000000000003f0 .L0 
     /tmp/cc7WLpkD.s:677    .text:00000000000003fc .L0 
     /tmp/cc7WLpkD.s:678    .text:00000000000003fc .L0 
     /tmp/cc7WLpkD.s:681    .text:0000000000000408 .L0 
     /tmp/cc7WLpkD.s:688    .text._ZN14PeriodicThreadD2Ev:0000000000000000 _ZN14PeriodicThreadD2Ev
     /tmp/cc7WLpkD.s:691    .text._ZN14PeriodicThreadD2Ev:0000000000000000 .L0 
     /tmp/cc7WLpkD.s:693    .text._ZN14PeriodicThreadD2Ev:0000000000000000 .L0 
     /tmp/cc7WLpkD.s:694    .text._ZN14PeriodicThreadD2Ev:0000000000000004 .L0 
     /tmp/cc7WLpkD.s:697    .text._ZN14PeriodicThreadD2Ev:000000000000000c .L0 
     /tmp/cc7WLpkD.s:698    .text._ZN14PeriodicThreadD2Ev:000000000000000c .L0 
     /tmp/cc7WLpkD.s:700    .text._ZN14PeriodicThreadD2Ev:0000000000000010 .L0 
     /tmp/cc7WLpkD.s:2909   .data.rel.ro.local._ZTV14PeriodicThread:0000000000000000 _ZTV14PeriodicThread
     /tmp/cc7WLpkD.s:703    .text._ZN14PeriodicThreadD2Ev:0000000000000010 .L0 
     /tmp/cc7WLpkD.s:709    .text._ZN14PeriodicThreadD2Ev:0000000000000028 .L0 
     /tmp/cc7WLpkD.s:711    .text._ZN14PeriodicThreadD2Ev:000000000000002c .L0 
     /tmp/cc7WLpkD.s:712    .text._ZN14PeriodicThreadD2Ev:000000000000002c .L0 
     /tmp/cc7WLpkD.s:714    .text._ZN14PeriodicThreadD2Ev:0000000000000030 .L0 
     /tmp/cc7WLpkD.s:716    .text._ZN14PeriodicThreadD2Ev:0000000000000034 .L0 
     /tmp/cc7WLpkD.s:688    .text._ZN14PeriodicThreadD2Ev:0000000000000000 _ZN14PeriodicThreadD1Ev
     /tmp/cc7WLpkD.s:725    .text._ZN14PeriodicThreadD0Ev:0000000000000000 _ZN14PeriodicThreadD0Ev
     /tmp/cc7WLpkD.s:728    .text._ZN14PeriodicThreadD0Ev:0000000000000000 .L0 
     /tmp/cc7WLpkD.s:730    .text._ZN14PeriodicThreadD0Ev:0000000000000000 .L0 
     /tmp/cc7WLpkD.s:731    .text._ZN14PeriodicThreadD0Ev:0000000000000004 .L0 
     /tmp/cc7WLpkD.s:735    .text._ZN14PeriodicThreadD0Ev:0000000000000010 .L0 
     /tmp/cc7WLpkD.s:736    .text._ZN14PeriodicThreadD0Ev:0000000000000010 .L0 
     /tmp/cc7WLpkD.s:737    .text._ZN14PeriodicThreadD0Ev:0000000000000010 .L0 
     /tmp/cc7WLpkD.s:739    .text._ZN14PeriodicThreadD0Ev:0000000000000014 .L0 
     /tmp/cc7WLpkD.s:745    .text._ZN14PeriodicThreadD0Ev:0000000000000018 .L0 
     /tmp/cc7WLpkD.s:755    .text._ZN14PeriodicThreadD0Ev:000000000000003c .L0 
     /tmp/cc7WLpkD.s:757    .text._ZN14PeriodicThreadD0Ev:0000000000000040 .L0 
     /tmp/cc7WLpkD.s:758    .text._ZN14PeriodicThreadD0Ev:0000000000000040 .L0 
     /tmp/cc7WLpkD.s:760    .text._ZN14PeriodicThreadD0Ev:0000000000000044 .L0 
     /tmp/cc7WLpkD.s:763    .text._ZN14PeriodicThreadD0Ev:0000000000000048 .L0 
GAS LISTING /tmp/cc7WLpkD.s 			page 80


     /tmp/cc7WLpkD.s:765    .text._ZN14PeriodicThreadD0Ev:000000000000004c .L0 
     /tmp/cc7WLpkD.s:772    .text._ZN12TestPeriodicD2Ev:0000000000000000 _ZN12TestPeriodicD2Ev
     /tmp/cc7WLpkD.s:776    .text._ZN12TestPeriodicD2Ev:0000000000000000 .L0 
     /tmp/cc7WLpkD.s:778    .text._ZN12TestPeriodicD2Ev:0000000000000000 .L0 
     /tmp/cc7WLpkD.s:779    .text._ZN12TestPeriodicD2Ev:0000000000000004 .L0 
     /tmp/cc7WLpkD.s:782    .text._ZN12TestPeriodicD2Ev:000000000000000c .L0 
     /tmp/cc7WLpkD.s:783    .text._ZN12TestPeriodicD2Ev:000000000000000c .L0 
     /tmp/cc7WLpkD.s:785    .text._ZN12TestPeriodicD2Ev:0000000000000010 .L0 
     /tmp/cc7WLpkD.s:790    .text._ZN12TestPeriodicD2Ev:0000000000000010 .L0 
     /tmp/cc7WLpkD.s:797    .text._ZN12TestPeriodicD2Ev:0000000000000024 .L0 
     /tmp/cc7WLpkD.s:798    .text._ZN12TestPeriodicD2Ev:0000000000000028 .L0 
     /tmp/cc7WLpkD.s:800    .text._ZN12TestPeriodicD2Ev:000000000000002c .L0 
     /tmp/cc7WLpkD.s:801    .text._ZN12TestPeriodicD2Ev:000000000000002c .L0 
     /tmp/cc7WLpkD.s:803    .text._ZN12TestPeriodicD2Ev:0000000000000030 .L0 
     /tmp/cc7WLpkD.s:805    .text._ZN12TestPeriodicD2Ev:0000000000000034 .L0 
     /tmp/cc7WLpkD.s:772    .text._ZN12TestPeriodicD2Ev:0000000000000000 _ZN12TestPeriodicD1Ev
     /tmp/cc7WLpkD.s:814    .text._ZN12TestPeriodicD0Ev:0000000000000000 _ZN12TestPeriodicD0Ev
     /tmp/cc7WLpkD.s:817    .text._ZN12TestPeriodicD0Ev:0000000000000000 .L0 
     /tmp/cc7WLpkD.s:819    .text._ZN12TestPeriodicD0Ev:0000000000000000 .L0 
     /tmp/cc7WLpkD.s:820    .text._ZN12TestPeriodicD0Ev:0000000000000004 .L0 
     /tmp/cc7WLpkD.s:824    .text._ZN12TestPeriodicD0Ev:0000000000000010 .L0 
     /tmp/cc7WLpkD.s:825    .text._ZN12TestPeriodicD0Ev:0000000000000010 .L0 
     /tmp/cc7WLpkD.s:826    .text._ZN12TestPeriodicD0Ev:0000000000000010 .L0 
     /tmp/cc7WLpkD.s:828    .text._ZN12TestPeriodicD0Ev:0000000000000014 .L0 
     /tmp/cc7WLpkD.s:835    .text._ZN12TestPeriodicD0Ev:0000000000000018 .L0 
     /tmp/cc7WLpkD.s:843    .text._ZN12TestPeriodicD0Ev:000000000000002c .L0 
     /tmp/cc7WLpkD.s:847    .text._ZN12TestPeriodicD0Ev:000000000000003c .L0 
     /tmp/cc7WLpkD.s:849    .text._ZN12TestPeriodicD0Ev:0000000000000040 .L0 
     /tmp/cc7WLpkD.s:850    .text._ZN12TestPeriodicD0Ev:0000000000000040 .L0 
     /tmp/cc7WLpkD.s:852    .text._ZN12TestPeriodicD0Ev:0000000000000044 .L0 
     /tmp/cc7WLpkD.s:855    .text._ZN12TestPeriodicD0Ev:0000000000000048 .L0 
     /tmp/cc7WLpkD.s:857    .text._ZN12TestPeriodicD0Ev:000000000000004c .L0 
     /tmp/cc7WLpkD.s:871    .text:0000000000000408 _Z11threadTest1v
     /tmp/cc7WLpkD.s:874    .text:0000000000000408 .L0 
     /tmp/cc7WLpkD.s:9789   .data.rel.local.DW.ref.__gxx_personality_v0:0000000000000000 DW.ref.__gxx_personality_v0
     /tmp/cc7WLpkD.s:877    .text:0000000000000408 .L0 
     /tmp/cc7WLpkD.s:878    .text:000000000000040c .L0 
     /tmp/cc7WLpkD.s:883    .text:000000000000041c .L0 
     /tmp/cc7WLpkD.s:884    .text:000000000000041c .L0 
     /tmp/cc7WLpkD.s:885    .text:000000000000041c .L0 
     /tmp/cc7WLpkD.s:886    .text:000000000000041c .L0 
     /tmp/cc7WLpkD.s:888    .text:0000000000000420 .L0 
     /tmp/cc7WLpkD.s:890    .text:0000000000000420 .L0 
     /tmp/cc7WLpkD.s:891    .text:0000000000000420 .L0 
     /tmp/cc7WLpkD.s:904    .text:0000000000000444 .L0 
     /tmp/cc7WLpkD.s:905    .text:0000000000000444 .L0 
     /tmp/cc7WLpkD.s:910    .text:0000000000000450 .L0 
     /tmp/cc7WLpkD.s:911    .text:0000000000000450 .L0 
     /tmp/cc7WLpkD.s:923    .text:0000000000000474 .L0 
     /tmp/cc7WLpkD.s:924    .text:0000000000000474 .L0 
     /tmp/cc7WLpkD.s:929    .text:0000000000000480 .L0 
     /tmp/cc7WLpkD.s:930    .text:0000000000000480 .L0 
     /tmp/cc7WLpkD.s:935    .text:000000000000048c .L0 
     /tmp/cc7WLpkD.s:936    .text:000000000000048c .L0 
     /tmp/cc7WLpkD.s:940    .text:000000000000049c .L0 
     /tmp/cc7WLpkD.s:941    .text:000000000000049c .L0 
     /tmp/cc7WLpkD.s:945    .text:00000000000004a4 .L0 
GAS LISTING /tmp/cc7WLpkD.s 			page 81


     /tmp/cc7WLpkD.s:946    .text:00000000000004a4 .L0 
     /tmp/cc7WLpkD.s:947    .text:00000000000004a4 .L0 
     /tmp/cc7WLpkD.s:953    .text:00000000000004a8 .L0 
     /tmp/cc7WLpkD.s:954    .text:00000000000004a8 .L0 
     /tmp/cc7WLpkD.s:959    .text:00000000000004ac .L0 
     /tmp/cc7WLpkD.s:962    .text:00000000000004b4 .L0 
     /tmp/cc7WLpkD.s:967    .text:00000000000004b8 .L0 
     /tmp/cc7WLpkD.s:968    .text:00000000000004b8 .L0 
     /tmp/cc7WLpkD.s:973    .text:00000000000004bc .L0 
     /tmp/cc7WLpkD.s:976    .text:00000000000004c4 .L0 
     /tmp/cc7WLpkD.s:977    .text:00000000000004c4 .L0 
     /tmp/cc7WLpkD.s:981    .text:00000000000004d4 .L0 
     /tmp/cc7WLpkD.s:982    .text:00000000000004d4 .L0 
     /tmp/cc7WLpkD.s:986    .text:00000000000004dc .L0 
     /tmp/cc7WLpkD.s:987    .text:00000000000004e0 .L0 
     /tmp/cc7WLpkD.s:988    .text:00000000000004e0 .L0 
     /tmp/cc7WLpkD.s:990    .text:00000000000004e4 .L0 
     /tmp/cc7WLpkD.s:991    .text:00000000000004e4 .L0 
     /tmp/cc7WLpkD.s:993    .text:00000000000004e8 .L0 
     /tmp/cc7WLpkD.s:996    .text:00000000000004ec .L0 
     /tmp/cc7WLpkD.s:999    .text:00000000000004f0 .L0 
     /tmp/cc7WLpkD.s:1002   .text:00000000000004f4 .L0 
     /tmp/cc7WLpkD.s:1005   .text:00000000000004f8 .L0 
     /tmp/cc7WLpkD.s:1017   .text:0000000000000514 .L0 
     /tmp/cc7WLpkD.s:1025   .text:000000000000052c .L0 
     /tmp/cc7WLpkD.s:1067   .text:000000000000052c _Z11threadTest2v
     /tmp/cc7WLpkD.s:1070   .text:000000000000052c .L0 
     /tmp/cc7WLpkD.s:1073   .text:000000000000052c .L0 
     /tmp/cc7WLpkD.s:1074   .text:0000000000000530 .L0 
     /tmp/cc7WLpkD.s:1079   .text:0000000000000540 .L0 
     /tmp/cc7WLpkD.s:1080   .text:0000000000000540 .L0 
     /tmp/cc7WLpkD.s:1081   .text:0000000000000540 .L0 
     /tmp/cc7WLpkD.s:1082   .text:0000000000000540 .L0 
     /tmp/cc7WLpkD.s:1084   .text:0000000000000544 .L0 
     /tmp/cc7WLpkD.s:1086   .text:0000000000000544 .L0 
     /tmp/cc7WLpkD.s:1087   .text:0000000000000544 .L0 
     /tmp/cc7WLpkD.s:1100   .text:0000000000000568 .L0 
     /tmp/cc7WLpkD.s:1101   .text:0000000000000568 .L0 
     /tmp/cc7WLpkD.s:1106   .text:0000000000000574 .L0 
     /tmp/cc7WLpkD.s:1107   .text:0000000000000574 .L0 
     /tmp/cc7WLpkD.s:1119   .text:0000000000000598 .L0 
     /tmp/cc7WLpkD.s:1120   .text:0000000000000598 .L0 
     /tmp/cc7WLpkD.s:1125   .text:00000000000005a4 .L0 
     /tmp/cc7WLpkD.s:1126   .text:00000000000005a4 .L0 
     /tmp/cc7WLpkD.s:1139   .text:00000000000005c8 .L0 
     /tmp/cc7WLpkD.s:1140   .text:00000000000005c8 .L0 
     /tmp/cc7WLpkD.s:1145   .text:00000000000005d4 .L0 
     /tmp/cc7WLpkD.s:1146   .text:00000000000005d4 .L0 
     /tmp/cc7WLpkD.s:1150   .text:00000000000005dc .L0 
     /tmp/cc7WLpkD.s:1151   .text:00000000000005dc .L0 
     /tmp/cc7WLpkD.s:1152   .text:00000000000005dc .L0 
     /tmp/cc7WLpkD.s:1157   .text:00000000000005e0 .L0 
     /tmp/cc7WLpkD.s:1158   .text:00000000000005e0 .L0 
     /tmp/cc7WLpkD.s:1163   .text:00000000000005e4 .L0 
     /tmp/cc7WLpkD.s:1166   .text:00000000000005ec .L0 
     /tmp/cc7WLpkD.s:1167   .text:00000000000005ec .L0 
     /tmp/cc7WLpkD.s:1171   .text:00000000000005fc .L0 
GAS LISTING /tmp/cc7WLpkD.s 			page 82


     /tmp/cc7WLpkD.s:1172   .text:00000000000005fc .L0 
     /tmp/cc7WLpkD.s:1176   .text:0000000000000604 .L0 
     /tmp/cc7WLpkD.s:1177   .text:0000000000000608 .L0 
     /tmp/cc7WLpkD.s:1178   .text:0000000000000608 .L0 
     /tmp/cc7WLpkD.s:1180   .text:000000000000060c .L0 
     /tmp/cc7WLpkD.s:1181   .text:000000000000060c .L0 
     /tmp/cc7WLpkD.s:1183   .text:0000000000000610 .L0 
     /tmp/cc7WLpkD.s:1186   .text:0000000000000614 .L0 
     /tmp/cc7WLpkD.s:1189   .text:0000000000000618 .L0 
     /tmp/cc7WLpkD.s:1192   .text:000000000000061c .L0 
     /tmp/cc7WLpkD.s:1195   .text:0000000000000620 .L0 
     /tmp/cc7WLpkD.s:1207   .text:000000000000063c .L0 
     /tmp/cc7WLpkD.s:1219   .text:0000000000000658 .L0 
     /tmp/cc7WLpkD.s:1227   .text:0000000000000670 .L0 
     /tmp/cc7WLpkD.s:1291   .text:0000000000000670 _Z10mallocFreev
     /tmp/cc7WLpkD.s:1294   .text:0000000000000670 .L0 
     /tmp/cc7WLpkD.s:1295   .text:0000000000000670 .L0 
     /tmp/cc7WLpkD.s:1296   .text:0000000000000674 .L0 
     /tmp/cc7WLpkD.s:1300   .text:0000000000000680 .L0 
     /tmp/cc7WLpkD.s:1301   .text:0000000000000680 .L0 
     /tmp/cc7WLpkD.s:1302   .text:0000000000000680 .L0 
     /tmp/cc7WLpkD.s:1304   .text:0000000000000684 .L0 
     /tmp/cc7WLpkD.s:1306   .text:0000000000000684 .L0 
     /tmp/cc7WLpkD.s:1307   .text:0000000000000684 .L0 
     /tmp/cc7WLpkD.s:1312   .text:0000000000000694 .L0 
     /tmp/cc7WLpkD.s:1317   .text:000000000000069c .L0 
     /tmp/cc7WLpkD.s:1321   .text:00000000000006a0 .L0 
     /tmp/cc7WLpkD.s:1324   .text:00000000000006a8 .L0 
     /tmp/cc7WLpkD.s:1325   .text:00000000000006a8 .L0 
     /tmp/cc7WLpkD.s:1329   .text:00000000000006b4 .L0 
     /tmp/cc7WLpkD.s:1334   .text:00000000000006c4 .L0 
     /tmp/cc7WLpkD.s:1336   .text:00000000000006c8 .L0 
     /tmp/cc7WLpkD.s:1337   .text:00000000000006c8 .L0 
     /tmp/cc7WLpkD.s:1343   .text:00000000000006d8 .L0 
     /tmp/cc7WLpkD.s:1344   .text:00000000000006d8 .L0 
     /tmp/cc7WLpkD.s:1345   .text:00000000000006dc .L0 
     /tmp/cc7WLpkD.s:1346   .text:00000000000006dc .L0 
     /tmp/cc7WLpkD.s:1348   .text:00000000000006e0 .L0 
     /tmp/cc7WLpkD.s:1349   .text:00000000000006e0 .L0 
     /tmp/cc7WLpkD.s:1351   .text:00000000000006e4 .L0 
     /tmp/cc7WLpkD.s:1353   .text:00000000000006e8 .L0 
     /tmp/cc7WLpkD.s:1357   .text:00000000000006ec .L0 
     /tmp/cc7WLpkD.s:1360   .text:00000000000006ec .L0 
     /tmp/cc7WLpkD.s:1364   .text:00000000000006f0 .L0 
     /tmp/cc7WLpkD.s:1368   .text:00000000000006f8 .L0 
     /tmp/cc7WLpkD.s:1369   .text:00000000000006f8 .L0 
     /tmp/cc7WLpkD.s:1376   .text:0000000000000710 .L0 
     /tmp/cc7WLpkD.s:1379   .text:0000000000000714 .L0 
     /tmp/cc7WLpkD.s:1380   .text:0000000000000714 .L0 
     /tmp/cc7WLpkD.s:1383   .text:0000000000000718 .L0 
     /tmp/cc7WLpkD.s:1388   .text:000000000000071c .L0 
     /tmp/cc7WLpkD.s:1389   .text:000000000000071c .L0 
     /tmp/cc7WLpkD.s:1394   .text:000000000000072c .L0 
     /tmp/cc7WLpkD.s:1400   .text:0000000000000730 .L0 
     /tmp/cc7WLpkD.s:1406   .text:0000000000000738 .L0 
     /tmp/cc7WLpkD.s:1407   .text:0000000000000738 .L0 
     /tmp/cc7WLpkD.s:1411   .text:000000000000073c .L0 
GAS LISTING /tmp/cc7WLpkD.s 			page 83


     /tmp/cc7WLpkD.s:1414   .text:0000000000000744 .L0 
     /tmp/cc7WLpkD.s:1415   .text:0000000000000744 .L0 
     /tmp/cc7WLpkD.s:1419   .text:0000000000000750 .L0 
     /tmp/cc7WLpkD.s:1424   .text:0000000000000760 .L0 
     /tmp/cc7WLpkD.s:1426   .text:0000000000000764 .L0 
     /tmp/cc7WLpkD.s:1427   .text:0000000000000764 .L0 
     /tmp/cc7WLpkD.s:1431   .text:0000000000000774 .L0 
     /tmp/cc7WLpkD.s:1436   .text:0000000000000778 .L0 
     /tmp/cc7WLpkD.s:1440   .text:000000000000077c .L0 
     /tmp/cc7WLpkD.s:1444   .text:0000000000000784 .L0 
     /tmp/cc7WLpkD.s:1445   .text:0000000000000784 .L0 
     /tmp/cc7WLpkD.s:1452   .text:000000000000079c .L0 
     /tmp/cc7WLpkD.s:1455   .text:00000000000007a0 .L0 
     /tmp/cc7WLpkD.s:1462   .text:00000000000007a8 .L0 
     /tmp/cc7WLpkD.s:1463   .text:00000000000007a8 .L0 
     /tmp/cc7WLpkD.s:1468   .text:00000000000007b8 .L0 
     /tmp/cc7WLpkD.s:1473   .text:00000000000007bc .L0 
     /tmp/cc7WLpkD.s:1474   .text:00000000000007bc .L0 
     /tmp/cc7WLpkD.s:1478   .text:00000000000007d0 .L0 
     /tmp/cc7WLpkD.s:1489   .text:00000000000007d0 _Z9bigMallocv
     /tmp/cc7WLpkD.s:1492   .text:00000000000007d0 .L0 
     /tmp/cc7WLpkD.s:1493   .text:00000000000007d0 .L0 
     /tmp/cc7WLpkD.s:1494   .text:00000000000007d4 .L0 
     /tmp/cc7WLpkD.s:1497   .text:00000000000007dc .L0 
     /tmp/cc7WLpkD.s:1498   .text:00000000000007dc .L0 
     /tmp/cc7WLpkD.s:1500   .text:00000000000007e0 .L0 
     /tmp/cc7WLpkD.s:1502   .text:00000000000007e0 .L0 
     /tmp/cc7WLpkD.s:1503   .text:00000000000007e0 .L0 
     /tmp/cc7WLpkD.s:1507   .text:00000000000007f0 .L0 
     /tmp/cc7WLpkD.s:1508   .text:00000000000007f0 .L0 
     /tmp/cc7WLpkD.s:1515   .text:000000000000080c .L0 
     /tmp/cc7WLpkD.s:1516   .text:000000000000080c .L0 
     /tmp/cc7WLpkD.s:1521   .text:0000000000000818 .L0 
     /tmp/cc7WLpkD.s:1523   .text:000000000000081c .L0 
     /tmp/cc7WLpkD.s:1524   .text:000000000000081c .L0 
     /tmp/cc7WLpkD.s:1530   .text:000000000000082c .L0 
     /tmp/cc7WLpkD.s:1531   .text:0000000000000830 .L0 
     /tmp/cc7WLpkD.s:1532   .text:0000000000000830 .L0 
     /tmp/cc7WLpkD.s:1534   .text:0000000000000834 .L0 
     /tmp/cc7WLpkD.s:1535   .text:0000000000000834 .L0 
     /tmp/cc7WLpkD.s:1537   .text:0000000000000838 .L0 
     /tmp/cc7WLpkD.s:1541   .text:000000000000083c .L0 
     /tmp/cc7WLpkD.s:1543   .text:000000000000083c .L0 
     /tmp/cc7WLpkD.s:1544   .text:000000000000083c .L0 
     /tmp/cc7WLpkD.s:1549   .text:0000000000000850 .L0 
     /tmp/cc7WLpkD.s:1560   .text:0000000000000850 _Z17lotOfSmallMallocsv
     /tmp/cc7WLpkD.s:1563   .text:0000000000000850 .L0 
     /tmp/cc7WLpkD.s:1564   .text:0000000000000850 .L0 
     /tmp/cc7WLpkD.s:1565   .text:0000000000000854 .L0 
     /tmp/cc7WLpkD.s:1571   .text:0000000000000868 .L0 
     /tmp/cc7WLpkD.s:1572   .text:0000000000000868 .L0 
     /tmp/cc7WLpkD.s:1573   .text:0000000000000868 .L0 
     /tmp/cc7WLpkD.s:1574   .text:0000000000000868 .L0 
     /tmp/cc7WLpkD.s:1575   .text:0000000000000868 .L0 
     /tmp/cc7WLpkD.s:1577   .text:000000000000086c .L0 
     /tmp/cc7WLpkD.s:1579   .text:000000000000086c .L0 
     /tmp/cc7WLpkD.s:1580   .text:000000000000086c .L0 
GAS LISTING /tmp/cc7WLpkD.s 			page 84


     /tmp/cc7WLpkD.s:1584   .text:000000000000087c .L0 
     /tmp/cc7WLpkD.s:1585   .text:000000000000087c .L0 
     /tmp/cc7WLpkD.s:1586   .text:000000000000087c .L0 
     /tmp/cc7WLpkD.s:1587   .text:000000000000087c .L0 
     /tmp/cc7WLpkD.s:1589   .text:000000000000087c .L0 
     /tmp/cc7WLpkD.s:1590   .text:000000000000087c .L0 
     /tmp/cc7WLpkD.s:1593   .text:0000000000000880 .L0 
     /tmp/cc7WLpkD.s:1595   .text:0000000000000884 .L0 
     /tmp/cc7WLpkD.s:1602   .text:000000000000088c .L0 
     /tmp/cc7WLpkD.s:1603   .text:000000000000088c .L0 
     /tmp/cc7WLpkD.s:1606   .text:0000000000000894 .L0 
     /tmp/cc7WLpkD.s:1607   .text:0000000000000894 .L0 
     /tmp/cc7WLpkD.s:1610   .text:0000000000000898 .L0 
     /tmp/cc7WLpkD.s:1611   .text:0000000000000898 .L0 
     /tmp/cc7WLpkD.s:1615   .text:000000000000089c .L0 
     /tmp/cc7WLpkD.s:1619   .text:00000000000008a0 .L0 
     /tmp/cc7WLpkD.s:1624   .text:00000000000008ac .L0 
     /tmp/cc7WLpkD.s:1625   .text:00000000000008ac .L0 
     /tmp/cc7WLpkD.s:1629   .text:00000000000008b8 .L0 
     /tmp/cc7WLpkD.s:1635   .text:00000000000008bc .L0 
     /tmp/cc7WLpkD.s:1636   .text:00000000000008bc .L0 
     /tmp/cc7WLpkD.s:1640   .text:00000000000008c8 .L0 
     /tmp/cc7WLpkD.s:1641   .text:00000000000008c8 .L0 
     /tmp/cc7WLpkD.s:1645   .text:00000000000008d8 .L0 
     /tmp/cc7WLpkD.s:1646   .text:00000000000008d8 .L0 
     /tmp/cc7WLpkD.s:1651   .text:00000000000008e4 .L0 
     /tmp/cc7WLpkD.s:1653   .text:00000000000008e8 .L0 
     /tmp/cc7WLpkD.s:1654   .text:00000000000008e8 .L0 
     /tmp/cc7WLpkD.s:1659   .text:00000000000008f8 .L0 
     /tmp/cc7WLpkD.s:1660   .text:00000000000008fc .L0 
     /tmp/cc7WLpkD.s:1661   .text:00000000000008fc .L0 
     /tmp/cc7WLpkD.s:1663   .text:0000000000000900 .L0 
     /tmp/cc7WLpkD.s:1664   .text:0000000000000900 .L0 
     /tmp/cc7WLpkD.s:1666   .text:0000000000000904 .L0 
     /tmp/cc7WLpkD.s:1669   .text:0000000000000908 .L0 
     /tmp/cc7WLpkD.s:1671   .text:000000000000090c .L0 
     /tmp/cc7WLpkD.s:1674   .text:0000000000000910 .L0 
     /tmp/cc7WLpkD.s:1678   .text:0000000000000914 .L0 
     /tmp/cc7WLpkD.s:1680   .text:0000000000000914 .L0 
     /tmp/cc7WLpkD.s:1681   .text:0000000000000914 .L0 
     /tmp/cc7WLpkD.s:1685   .text:0000000000000928 .L0 
     /tmp/cc7WLpkD.s:1696   .text:0000000000000928 _Z7badFreev
     /tmp/cc7WLpkD.s:1699   .text:0000000000000928 .L0 
     /tmp/cc7WLpkD.s:1700   .text:0000000000000928 .L0 
     /tmp/cc7WLpkD.s:1701   .text:000000000000092c .L0 
     /tmp/cc7WLpkD.s:1704   .text:0000000000000934 .L0 
     /tmp/cc7WLpkD.s:1705   .text:0000000000000934 .L0 
     /tmp/cc7WLpkD.s:1707   .text:0000000000000938 .L0 
     /tmp/cc7WLpkD.s:1709   .text:0000000000000938 .L0 
     /tmp/cc7WLpkD.s:1710   .text:0000000000000938 .L0 
     /tmp/cc7WLpkD.s:1714   .text:0000000000000948 .L0 
     /tmp/cc7WLpkD.s:1715   .text:0000000000000948 .L0 
     /tmp/cc7WLpkD.s:1719   .text:0000000000000954 .L0 
     /tmp/cc7WLpkD.s:1720   .text:0000000000000954 .L0 
     /tmp/cc7WLpkD.s:1725   .text:0000000000000960 .L0 
     /tmp/cc7WLpkD.s:1727   .text:0000000000000964 .L0 
     /tmp/cc7WLpkD.s:1728   .text:0000000000000964 .L0 
GAS LISTING /tmp/cc7WLpkD.s 			page 85


     /tmp/cc7WLpkD.s:1734   .text:0000000000000974 .L0 
     /tmp/cc7WLpkD.s:1735   .text:0000000000000978 .L0 
     /tmp/cc7WLpkD.s:1736   .text:0000000000000978 .L0 
     /tmp/cc7WLpkD.s:1738   .text:000000000000097c .L0 
     /tmp/cc7WLpkD.s:1739   .text:000000000000097c .L0 
     /tmp/cc7WLpkD.s:1741   .text:0000000000000980 .L0 
     /tmp/cc7WLpkD.s:1745   .text:0000000000000984 .L0 
     /tmp/cc7WLpkD.s:1747   .text:0000000000000984 .L0 
     /tmp/cc7WLpkD.s:1748   .text:0000000000000984 .L0 
     /tmp/cc7WLpkD.s:1753   .text:0000000000000994 .L0 
     /tmp/cc7WLpkD.s:1754   .text:0000000000000998 .L0 
     /tmp/cc7WLpkD.s:1765   .text:0000000000000998 _Z13stressTestingv
     /tmp/cc7WLpkD.s:1768   .text:0000000000000998 .L0 
     /tmp/cc7WLpkD.s:1769   .text:0000000000000998 .L0 
     /tmp/cc7WLpkD.s:1770   .text:000000000000099c .L0 
     /tmp/cc7WLpkD.s:1775   .text:00000000000009ac .L0 
     /tmp/cc7WLpkD.s:1776   .text:00000000000009ac .L0 
     /tmp/cc7WLpkD.s:1777   .text:00000000000009ac .L0 
     /tmp/cc7WLpkD.s:1778   .text:00000000000009ac .L0 
     /tmp/cc7WLpkD.s:1780   .text:00000000000009b0 .L0 
     /tmp/cc7WLpkD.s:1782   .text:00000000000009b0 .L0 
     /tmp/cc7WLpkD.s:1783   .text:00000000000009b0 .L0 
     /tmp/cc7WLpkD.s:1788   .text:00000000000009c0 .L0 
     /tmp/cc7WLpkD.s:1793   .text:00000000000009c8 .L0 
     /tmp/cc7WLpkD.s:1797   .text:00000000000009cc .L0 
     /tmp/cc7WLpkD.s:1800   .text:00000000000009d4 .L0 
     /tmp/cc7WLpkD.s:1801   .text:00000000000009d4 .L0 
     /tmp/cc7WLpkD.s:1805   .text:00000000000009e0 .L0 
     /tmp/cc7WLpkD.s:1810   .text:00000000000009f0 .L0 
     /tmp/cc7WLpkD.s:1815   .text:00000000000009f4 .L0 
     /tmp/cc7WLpkD.s:1816   .text:00000000000009f8 .L0 
     /tmp/cc7WLpkD.s:1817   .text:00000000000009f8 .L0 
     /tmp/cc7WLpkD.s:1819   .text:00000000000009fc .L0 
     /tmp/cc7WLpkD.s:1820   .text:00000000000009fc .L0 
     /tmp/cc7WLpkD.s:1822   .text:0000000000000a00 .L0 
     /tmp/cc7WLpkD.s:1824   .text:0000000000000a04 .L0 
     /tmp/cc7WLpkD.s:1826   .text:0000000000000a08 .L0 
     /tmp/cc7WLpkD.s:1830   .text:0000000000000a0c .L0 
     /tmp/cc7WLpkD.s:1832   .text:0000000000000a0c .L0 
     /tmp/cc7WLpkD.s:1836   .text:0000000000000a10 .L0 
     /tmp/cc7WLpkD.s:1837   .text:0000000000000a10 .L0 
     /tmp/cc7WLpkD.s:1841   .text:0000000000000a14 .L0 
     /tmp/cc7WLpkD.s:1845   .text:0000000000000a18 .L0 
     /tmp/cc7WLpkD.s:1849   .text:0000000000000a20 .L0 
     /tmp/cc7WLpkD.s:1850   .text:0000000000000a20 .L0 
     /tmp/cc7WLpkD.s:1857   .text:0000000000000a38 .L0 
     /tmp/cc7WLpkD.s:1859   .text:0000000000000a3c .L0 
     /tmp/cc7WLpkD.s:1860   .text:0000000000000a3c .L0 
     /tmp/cc7WLpkD.s:1864   .text:0000000000000a44 .L0 
     /tmp/cc7WLpkD.s:1868   .text:0000000000000a50 .L0 
     /tmp/cc7WLpkD.s:1873   .text:0000000000000a60 .L0 
     /tmp/cc7WLpkD.s:1876   .text:0000000000000a64 .L0 
     /tmp/cc7WLpkD.s:1877   .text:0000000000000a64 .L0 
     /tmp/cc7WLpkD.s:1880   .text:0000000000000a68 .L0 
     /tmp/cc7WLpkD.s:1886   .text:0000000000000a6c .L0 
     /tmp/cc7WLpkD.s:1890   .text:0000000000000a70 .L0 
     /tmp/cc7WLpkD.s:1894   .text:0000000000000a78 .L0 
GAS LISTING /tmp/cc7WLpkD.s 			page 86


     /tmp/cc7WLpkD.s:1895   .text:0000000000000a78 .L0 
     /tmp/cc7WLpkD.s:1902   .text:0000000000000a90 .L0 
     /tmp/cc7WLpkD.s:1904   .text:0000000000000a94 .L0 
     /tmp/cc7WLpkD.s:1905   .text:0000000000000a94 .L0 
     /tmp/cc7WLpkD.s:1910   .text:0000000000000aa0 .L0 
     /tmp/cc7WLpkD.s:1915   .text:0000000000000ab0 .L0 
     /tmp/cc7WLpkD.s:1918   .text:0000000000000ab4 .L0 
     /tmp/cc7WLpkD.s:1919   .text:0000000000000ab4 .L0 
     /tmp/cc7WLpkD.s:1922   .text:0000000000000ab8 .L0 
     /tmp/cc7WLpkD.s:1927   .text:0000000000000abc .L0 
     /tmp/cc7WLpkD.s:1928   .text:0000000000000abc .L0 
     /tmp/cc7WLpkD.s:1932   .text:0000000000000ac0 .L0 
     /tmp/cc7WLpkD.s:1936   .text:0000000000000ac4 .L0 
     /tmp/cc7WLpkD.s:1937   .text:0000000000000ac4 .L0 
     /tmp/cc7WLpkD.s:1941   .text:0000000000000ad8 .L0 
     /tmp/cc7WLpkD.s:1947   .text:0000000000000ad8 _Z21memoryAllocationTestsv
     /tmp/cc7WLpkD.s:1950   .text:0000000000000ad8 .L0 
     /tmp/cc7WLpkD.s:1951   .text:0000000000000ad8 .L0 
     /tmp/cc7WLpkD.s:1952   .text:0000000000000adc .L0 
     /tmp/cc7WLpkD.s:1955   .text:0000000000000ae4 .L0 
     /tmp/cc7WLpkD.s:1956   .text:0000000000000ae4 .L0 
     /tmp/cc7WLpkD.s:1958   .text:0000000000000ae8 .L0 
     /tmp/cc7WLpkD.s:1960   .text:0000000000000ae8 .L0 
     /tmp/cc7WLpkD.s:1961   .text:0000000000000ae8 .L0 
     /tmp/cc7WLpkD.s:1964   .text:0000000000000af0 .L0 
     /tmp/cc7WLpkD.s:1965   .text:0000000000000af4 .L0 
     /tmp/cc7WLpkD.s:1967   .text:0000000000000af8 .L0 
     /tmp/cc7WLpkD.s:1968   .text:0000000000000af8 .L0 
     /tmp/cc7WLpkD.s:1970   .text:0000000000000afc .L0 
     /tmp/cc7WLpkD.s:1972   .text:0000000000000b00 .L0 
     /tmp/cc7WLpkD.s:1983   .text:0000000000000b00 _Z3foov
     /tmp/cc7WLpkD.s:1986   .text:0000000000000b00 .L0 
     /tmp/cc7WLpkD.s:1987   .text:0000000000000b00 .L0 
     /tmp/cc7WLpkD.s:1988   .text:0000000000000b04 .L0 
     /tmp/cc7WLpkD.s:1992   .text:0000000000000b10 .L0 
     /tmp/cc7WLpkD.s:1993   .text:0000000000000b10 .L0 
     /tmp/cc7WLpkD.s:1994   .text:0000000000000b10 .L0 
     /tmp/cc7WLpkD.s:1996   .text:0000000000000b14 .L0 
     /tmp/cc7WLpkD.s:1998   .text:0000000000000b14 .L0 
     /tmp/cc7WLpkD.s:1999   .text:0000000000000b14 .L0 
     /tmp/cc7WLpkD.s:2004   .text:0000000000000b28 .L0 
     /tmp/cc7WLpkD.s:2005   .text:0000000000000b28 .L0 
     /tmp/cc7WLpkD.s:2009   .text:0000000000000b38 .L0 
     /tmp/cc7WLpkD.s:2010   .text:0000000000000b38 .L0 
     /tmp/cc7WLpkD.s:2014   .text:0000000000000b44 .L0 
     /tmp/cc7WLpkD.s:2015   .text:0000000000000b48 .L0 
     /tmp/cc7WLpkD.s:2017   .text:0000000000000b4c .L0 
     /tmp/cc7WLpkD.s:2018   .text:0000000000000b4c .L0 
     /tmp/cc7WLpkD.s:2020   .text:0000000000000b50 .L0 
     /tmp/cc7WLpkD.s:2022   .text:0000000000000b54 .L0 
     /tmp/cc7WLpkD.s:2024   .text:0000000000000b58 .L0 
     /tmp/cc7WLpkD.s:2035   .text:0000000000000b58 _Z4foo2v
     /tmp/cc7WLpkD.s:2038   .text:0000000000000b58 .L0 
     /tmp/cc7WLpkD.s:2039   .text:0000000000000b58 .L0 
     /tmp/cc7WLpkD.s:2040   .text:0000000000000b5c .L0 
     /tmp/cc7WLpkD.s:2043   .text:0000000000000b64 .L0 
     /tmp/cc7WLpkD.s:2044   .text:0000000000000b64 .L0 
GAS LISTING /tmp/cc7WLpkD.s 			page 87


     /tmp/cc7WLpkD.s:2046   .text:0000000000000b68 .L0 
     /tmp/cc7WLpkD.s:2048   .text:0000000000000b68 .L0 
     /tmp/cc7WLpkD.s:2049   .text:0000000000000b68 .L0 
     /tmp/cc7WLpkD.s:2053   .text:0000000000000b78 .L0 
     /tmp/cc7WLpkD.s:2054   .text:0000000000000b78 .L0 
     /tmp/cc7WLpkD.s:2058   .text:0000000000000b88 .L0 
     /tmp/cc7WLpkD.s:2059   .text:0000000000000b8c .L0 
     /tmp/cc7WLpkD.s:2061   .text:0000000000000b90 .L0 
     /tmp/cc7WLpkD.s:2062   .text:0000000000000b90 .L0 
     /tmp/cc7WLpkD.s:2064   .text:0000000000000b94 .L0 
     /tmp/cc7WLpkD.s:2066   .text:0000000000000b98 .L0 
     /tmp/cc7WLpkD.s:2077   .text:0000000000000b98 _Z2f2Pv
     /tmp/cc7WLpkD.s:2080   .text:0000000000000b98 .L0 
     /tmp/cc7WLpkD.s:2082   .text:0000000000000b98 .L0 
     /tmp/cc7WLpkD.s:2083   .text:0000000000000b9c .L0 
     /tmp/cc7WLpkD.s:2087   .text:0000000000000ba8 .L0 
     /tmp/cc7WLpkD.s:2088   .text:0000000000000ba8 .L0 
     /tmp/cc7WLpkD.s:2089   .text:0000000000000ba8 .L0 
     /tmp/cc7WLpkD.s:2091   .text:0000000000000bac .L0 
     /tmp/cc7WLpkD.s:2093   .text:0000000000000bac .L0 
     /tmp/cc7WLpkD.s:2094   .text:0000000000000bac .L0 
     /tmp/cc7WLpkD.s:2100   .text:0000000000000bbc .L0 
     /tmp/cc7WLpkD.s:2101   .text:0000000000000bbc .L0 
     /tmp/cc7WLpkD.s:2105   .text:0000000000000bc0 .L0 
     /tmp/cc7WLpkD.s:2107   .text:0000000000000bc4 .L0 
     /tmp/cc7WLpkD.s:2108   .text:0000000000000bc4 .L0 
     /tmp/cc7WLpkD.s:2111   .text:0000000000000bcc .L0 
     /tmp/cc7WLpkD.s:2118   .text:0000000000000bd4 .L0 
     /tmp/cc7WLpkD.s:2119   .text:0000000000000bd8 .L0 
     /tmp/cc7WLpkD.s:2121   .text:0000000000000bdc .L0 
     /tmp/cc7WLpkD.s:2122   .text:0000000000000bdc .L0 
     /tmp/cc7WLpkD.s:2124   .text:0000000000000be0 .L0 
     /tmp/cc7WLpkD.s:2127   .text:0000000000000be4 .L0 
     /tmp/cc7WLpkD.s:2129   .text:0000000000000be8 .L0 
     /tmp/cc7WLpkD.s:2140   .text:0000000000000be8 _Z2f1Pv
     /tmp/cc7WLpkD.s:2143   .text:0000000000000be8 .L0 
     /tmp/cc7WLpkD.s:2145   .text:0000000000000be8 .L0 
     /tmp/cc7WLpkD.s:2146   .text:0000000000000bec .L0 
     /tmp/cc7WLpkD.s:2150   .text:0000000000000bf8 .L0 
     /tmp/cc7WLpkD.s:2151   .text:0000000000000bf8 .L0 
     /tmp/cc7WLpkD.s:2152   .text:0000000000000bf8 .L0 
     /tmp/cc7WLpkD.s:2154   .text:0000000000000bfc .L0 
     /tmp/cc7WLpkD.s:2156   .text:0000000000000bfc .L0 
     /tmp/cc7WLpkD.s:2157   .text:0000000000000bfc .L0 
     /tmp/cc7WLpkD.s:2163   .text:0000000000000c0c .L0 
     /tmp/cc7WLpkD.s:2164   .text:0000000000000c0c .L0 
     /tmp/cc7WLpkD.s:2169   .text:0000000000000c14 .L0 
     /tmp/cc7WLpkD.s:2170   .text:0000000000000c14 .L0 
     /tmp/cc7WLpkD.s:2173   .text:0000000000000c1c .L0 
     /tmp/cc7WLpkD.s:2177   .text:0000000000000c20 .L0 
     /tmp/cc7WLpkD.s:2181   .text:0000000000000c28 .L0 
     /tmp/cc7WLpkD.s:2182   .text:0000000000000c2c .L0 
     /tmp/cc7WLpkD.s:2184   .text:0000000000000c30 .L0 
     /tmp/cc7WLpkD.s:2185   .text:0000000000000c30 .L0 
     /tmp/cc7WLpkD.s:2187   .text:0000000000000c34 .L0 
     /tmp/cc7WLpkD.s:2190   .text:0000000000000c38 .L0 
     /tmp/cc7WLpkD.s:2192   .text:0000000000000c3c .L0 
GAS LISTING /tmp/cc7WLpkD.s 			page 88


     /tmp/cc7WLpkD.s:2198   .text:0000000000000c3c _Z8semTest1v
     /tmp/cc7WLpkD.s:2201   .text:0000000000000c3c .L0 
     /tmp/cc7WLpkD.s:2204   .text:0000000000000c3c .L0 
     /tmp/cc7WLpkD.s:2205   .text:0000000000000c40 .L0 
     /tmp/cc7WLpkD.s:2210   .text:0000000000000c50 .L0 
     /tmp/cc7WLpkD.s:2211   .text:0000000000000c50 .L0 
     /tmp/cc7WLpkD.s:2212   .text:0000000000000c50 .L0 
     /tmp/cc7WLpkD.s:2213   .text:0000000000000c50 .L0 
     /tmp/cc7WLpkD.s:2215   .text:0000000000000c54 .L0 
     /tmp/cc7WLpkD.s:2217   .text:0000000000000c54 .L0 
     /tmp/cc7WLpkD.s:2218   .text:0000000000000c54 .L0 
     /tmp/cc7WLpkD.s:2230   .text:0000000000000c70 .L0 
     /tmp/cc7WLpkD.s:2231   .text:0000000000000c70 .L0 
     /tmp/cc7WLpkD.s:2243   .text:0000000000000c8c .L0 
     /tmp/cc7WLpkD.s:2245   .text:0000000000000c94 .L0 
     /tmp/cc7WLpkD.s:2246   .text:0000000000000c94 .L0 
     /tmp/cc7WLpkD.s:2258   .text:0000000000000cb0 .L0 
     /tmp/cc7WLpkD.s:2260   .text:0000000000000cb8 .L0 
     /tmp/cc7WLpkD.s:2261   .text:0000000000000cb8 .L0 
     /tmp/cc7WLpkD.s:2274   .text:0000000000000cdc .L0 
     /tmp/cc7WLpkD.s:2275   .text:0000000000000cdc .L0 
     /tmp/cc7WLpkD.s:2280   .text:0000000000000ce8 .L0 
     /tmp/cc7WLpkD.s:2281   .text:0000000000000ce8 .L0 
     /tmp/cc7WLpkD.s:2286   .text:0000000000000cf0 .L0 
     /tmp/cc7WLpkD.s:2287   .text:0000000000000cf0 .L0 
     /tmp/cc7WLpkD.s:2292   .text:0000000000000cf8 .L0 
     /tmp/cc7WLpkD.s:2303   .text:0000000000000d14 .L0 
     /tmp/cc7WLpkD.s:2314   .text:0000000000000d30 .L0 
     /tmp/cc7WLpkD.s:2325   .text:0000000000000d4c .L0 
     /tmp/cc7WLpkD.s:2333   .text:0000000000000d64 .L0 
     /tmp/cc7WLpkD.s:2398   .text:0000000000000d64 _Z8semTest2v
     /tmp/cc7WLpkD.s:2401   .text:0000000000000d64 .L0 
     /tmp/cc7WLpkD.s:2404   .text:0000000000000d64 .L0 
     /tmp/cc7WLpkD.s:2405   .text:0000000000000d68 .L0 
     /tmp/cc7WLpkD.s:2411   .text:0000000000000d7c .L0 
     /tmp/cc7WLpkD.s:2412   .text:0000000000000d7c .L0 
     /tmp/cc7WLpkD.s:2413   .text:0000000000000d7c .L0 
     /tmp/cc7WLpkD.s:2414   .text:0000000000000d7c .L0 
     /tmp/cc7WLpkD.s:2415   .text:0000000000000d7c .L0 
     /tmp/cc7WLpkD.s:2417   .text:0000000000000d80 .L0 
     /tmp/cc7WLpkD.s:2419   .text:0000000000000d80 .L0 
     /tmp/cc7WLpkD.s:2420   .text:0000000000000d80 .L0 
     /tmp/cc7WLpkD.s:2432   .text:0000000000000d9c .L0 
     /tmp/cc7WLpkD.s:2434   .text:0000000000000da4 .L0 
     /tmp/cc7WLpkD.s:2435   .text:0000000000000da4 .L0 
     /tmp/cc7WLpkD.s:2447   .text:0000000000000dc0 .L0 
     /tmp/cc7WLpkD.s:2449   .text:0000000000000dc8 .L0 
     /tmp/cc7WLpkD.s:2450   .text:0000000000000dc8 .L0 
     /tmp/cc7WLpkD.s:2462   .text:0000000000000de4 .L0 
     /tmp/cc7WLpkD.s:2464   .text:0000000000000dec .L0 
     /tmp/cc7WLpkD.s:2465   .text:0000000000000dec .L0 
     /tmp/cc7WLpkD.s:2478   .text:0000000000000e10 .L0 
     /tmp/cc7WLpkD.s:2479   .text:0000000000000e10 .L0 
     /tmp/cc7WLpkD.s:2492   .text:0000000000000e34 .L0 
     /tmp/cc7WLpkD.s:2493   .text:0000000000000e34 .L0 
     /tmp/cc7WLpkD.s:2506   .text:0000000000000e58 .L0 
     /tmp/cc7WLpkD.s:2507   .text:0000000000000e58 .L0 
GAS LISTING /tmp/cc7WLpkD.s 			page 89


     /tmp/cc7WLpkD.s:2512   .text:0000000000000e64 .L0 
     /tmp/cc7WLpkD.s:2513   .text:0000000000000e64 .L0 
     /tmp/cc7WLpkD.s:2517   .text:0000000000000e70 .L0 
     /tmp/cc7WLpkD.s:2518   .text:0000000000000e70 .L0 
     /tmp/cc7WLpkD.s:2522   .text:0000000000000e7c .L0 
     /tmp/cc7WLpkD.s:2523   .text:0000000000000e7c .L0 
     /tmp/cc7WLpkD.s:2527   .text:0000000000000e80 .L0 
     /tmp/cc7WLpkD.s:2528   .text:0000000000000e80 .L0 
     /tmp/cc7WLpkD.s:2529   .text:0000000000000e80 .L0 
     /tmp/cc7WLpkD.s:2532   .text:0000000000000e84 .L0 
     /tmp/cc7WLpkD.s:2533   .text:0000000000000e84 .L0 
     /tmp/cc7WLpkD.s:2537   .text:0000000000000e8c .L0 
     /tmp/cc7WLpkD.s:2541   .text:0000000000000e98 .L0 
     /tmp/cc7WLpkD.s:2542   .text:0000000000000e9c .L0 
     /tmp/cc7WLpkD.s:2543   .text:0000000000000e9c .L0 
     /tmp/cc7WLpkD.s:2545   .text:0000000000000ea0 .L0 
     /tmp/cc7WLpkD.s:2546   .text:0000000000000ea0 .L0 
     /tmp/cc7WLpkD.s:2548   .text:0000000000000ea4 .L0 
     /tmp/cc7WLpkD.s:2550   .text:0000000000000ea8 .L0 
     /tmp/cc7WLpkD.s:2553   .text:0000000000000eac .L0 
     /tmp/cc7WLpkD.s:2556   .text:0000000000000eb0 .L0 
     /tmp/cc7WLpkD.s:2559   .text:0000000000000eb4 .L0 
     /tmp/cc7WLpkD.s:2562   .text:0000000000000eb8 .L0 
     /tmp/cc7WLpkD.s:2573   .text:0000000000000ed4 .L0 
     /tmp/cc7WLpkD.s:2584   .text:0000000000000ef0 .L0 
     /tmp/cc7WLpkD.s:2595   .text:0000000000000f0c .L0 
     /tmp/cc7WLpkD.s:2606   .text:0000000000000f28 .L0 
     /tmp/cc7WLpkD.s:2618   .text:0000000000000f44 .L0 
     /tmp/cc7WLpkD.s:2626   .text:0000000000000f5c .L0 
     /tmp/cc7WLpkD.s:2715   .text:0000000000000f5c _Z14semaphoreTestsv
     /tmp/cc7WLpkD.s:2718   .text:0000000000000f5c .L0 
     /tmp/cc7WLpkD.s:2719   .text:0000000000000f5c .L0 
     /tmp/cc7WLpkD.s:2720   .text:0000000000000f60 .L0 
     /tmp/cc7WLpkD.s:2723   .text:0000000000000f68 .L0 
     /tmp/cc7WLpkD.s:2724   .text:0000000000000f68 .L0 
     /tmp/cc7WLpkD.s:2726   .text:0000000000000f6c .L0 
     /tmp/cc7WLpkD.s:2728   .text:0000000000000f6c .L0 
     /tmp/cc7WLpkD.s:2729   .text:0000000000000f6c .L0 
     /tmp/cc7WLpkD.s:2731   .text:0000000000000f74 .L0 
     /tmp/cc7WLpkD.s:2737   .text:0000000000000f74 _Z7myTestsv
     /tmp/cc7WLpkD.s:2740   .text:0000000000000f74 .L0 
     /tmp/cc7WLpkD.s:2741   .text:0000000000000f74 .L0 
     /tmp/cc7WLpkD.s:2742   .text:0000000000000f78 .L0 
     /tmp/cc7WLpkD.s:2745   .text:0000000000000f80 .L0 
     /tmp/cc7WLpkD.s:2746   .text:0000000000000f80 .L0 
     /tmp/cc7WLpkD.s:2748   .text:0000000000000f84 .L0 
     /tmp/cc7WLpkD.s:2750   .text:0000000000000f84 .L0 
     /tmp/cc7WLpkD.s:2751   .text:0000000000000f84 .L0 
     /tmp/cc7WLpkD.s:2753   .text:0000000000000f8c .L0 
     /tmp/cc7WLpkD.s:2759   .text:0000000000000f8c _ZN12TestPeriodicC2Em
     /tmp/cc7WLpkD.s:2762   .text:0000000000000f8c .L0 
     /tmp/cc7WLpkD.s:2764   .text:0000000000000f8c .L0 
     /tmp/cc7WLpkD.s:2765   .text:0000000000000f90 .L0 
     /tmp/cc7WLpkD.s:2769   .text:0000000000000f9c .L0 
     /tmp/cc7WLpkD.s:2770   .text:0000000000000f9c .L0 
     /tmp/cc7WLpkD.s:2771   .text:0000000000000f9c .L0 
     /tmp/cc7WLpkD.s:2773   .text:0000000000000fa0 .L0 
GAS LISTING /tmp/cc7WLpkD.s 			page 90


     /tmp/cc7WLpkD.s:2777   .text:0000000000000fa4 .L0 
     /tmp/cc7WLpkD.s:2921   .data.rel.ro.local._ZTV12TestPeriodic:0000000000000000 _ZTV12TestPeriodic
     /tmp/cc7WLpkD.s:2783   .text:0000000000000fb8 .L0 
     /tmp/cc7WLpkD.s:2784   .text:0000000000000fbc .L0 
     /tmp/cc7WLpkD.s:2786   .text:0000000000000fc0 .L0 
     /tmp/cc7WLpkD.s:2787   .text:0000000000000fc0 .L0 
     /tmp/cc7WLpkD.s:2789   .text:0000000000000fc4 .L0 
     /tmp/cc7WLpkD.s:2792   .text:0000000000000fc8 .L0 
     /tmp/cc7WLpkD.s:2794   .text:0000000000000fcc .L0 
     /tmp/cc7WLpkD.s:2759   .text:0000000000000f8c _ZN12TestPeriodicC1Em
     /tmp/cc7WLpkD.s:2802   .text:0000000000000fcc _Z11threadTest3v
     /tmp/cc7WLpkD.s:2805   .text:0000000000000fcc .L0 
     /tmp/cc7WLpkD.s:2808   .text:0000000000000fcc .L0 
     /tmp/cc7WLpkD.s:2809   .text:0000000000000fd0 .L0 
     /tmp/cc7WLpkD.s:2814   .text:0000000000000fe0 .L0 
     /tmp/cc7WLpkD.s:2815   .text:0000000000000fe0 .L0 
     /tmp/cc7WLpkD.s:2816   .text:0000000000000fe0 .L0 
     /tmp/cc7WLpkD.s:2817   .text:0000000000000fe0 .L0 
     /tmp/cc7WLpkD.s:2819   .text:0000000000000fe4 .L0 
     /tmp/cc7WLpkD.s:2821   .text:0000000000000fe4 .L0 
     /tmp/cc7WLpkD.s:2822   .text:0000000000000fe4 .L0 
     /tmp/cc7WLpkD.s:2834   .text:0000000000001000 .L0 
     /tmp/cc7WLpkD.s:2835   .text:0000000000001000 .L0 
     /tmp/cc7WLpkD.s:2842   .text:000000000000100c .L0 
     /tmp/cc7WLpkD.s:2843   .text:000000000000100c .L0 
     /tmp/cc7WLpkD.s:2848   .text:0000000000001014 .L0 
     /tmp/cc7WLpkD.s:2856   .text:000000000000102c .L0 
     /tmp/cc7WLpkD.s:2885   .text:000000000000102c _Z11threadTestsv
     /tmp/cc7WLpkD.s:2888   .text:000000000000102c .L0 
     /tmp/cc7WLpkD.s:2889   .text:000000000000102c .L0 
     /tmp/cc7WLpkD.s:2890   .text:0000000000001030 .L0 
     /tmp/cc7WLpkD.s:2893   .text:0000000000001038 .L0 
     /tmp/cc7WLpkD.s:2894   .text:0000000000001038 .L0 
     /tmp/cc7WLpkD.s:2896   .text:000000000000103c .L0 
     /tmp/cc7WLpkD.s:2898   .text:000000000000103c .L0 
     /tmp/cc7WLpkD.s:2899   .text:000000000000103c .L0 
     /tmp/cc7WLpkD.s:2901   .text:0000000000001044 .L0 
     /tmp/cc7WLpkD.s:2930   .bss:0000000000000000 .LANCHOR0
     /tmp/cc7WLpkD.s:2933   .bss:0000000000000000 _ZL2s1
     /tmp/cc7WLpkD.s:2937   .bss:0000000000000008 _ZL2s2
     /tmp/cc7WLpkD.s:2941   .bss:0000000000000010 _ZL2s3
     /tmp/cc7WLpkD.s:2945   .bss:0000000000000018 _ZL3s11
     /tmp/cc7WLpkD.s:2949   .bss:0000000000000020 _ZL3s22
     /tmp/cc7WLpkD.s:32     .text._ZN6Thread3runEv:0000000000000018 .L0 
     /tmp/cc7WLpkD.s:57     .text._ZN14PeriodicThread18periodicActivationEv:0000000000000018 .L0 
     /tmp/cc7WLpkD.s:2957   .text:0000000000001044 .L0 
     /tmp/cc7WLpkD.s:721    .text._ZN14PeriodicThreadD2Ev:0000000000000034 .L0 
     /tmp/cc7WLpkD.s:768    .text._ZN14PeriodicThreadD0Ev:000000000000004c .L0 
     /tmp/cc7WLpkD.s:810    .text._ZN12TestPeriodicD2Ev:0000000000000034 .L0 
     /tmp/cc7WLpkD.s:860    .text._ZN12TestPeriodicD0Ev:000000000000004c .L0 
     /tmp/cc7WLpkD.s:59     .rodata.str1.8:0000000000000000 .LC0
     /tmp/cc7WLpkD.s:84     .text:0000000000000010 .L0 
     /tmp/cc7WLpkD.s:98     .rodata.str1.8:0000000000000008 .LC1
     /tmp/cc7WLpkD.s:127    .text:0000000000000040 .L0 
     /tmp/cc7WLpkD.s:101    .rodata.str1.8:0000000000000020 .LC2
     /tmp/cc7WLpkD.s:146    .text:0000000000000060 .L0 
     /tmp/cc7WLpkD.s:104    .rodata.str1.8:0000000000000028 .LC3
GAS LISTING /tmp/cc7WLpkD.s 			page 91


     /tmp/cc7WLpkD.s:156    .text:000000000000007c .L0 
     /tmp/cc7WLpkD.s:195    .rodata.str1.8:0000000000000030 .LC4
     /tmp/cc7WLpkD.s:221    .text:00000000000000d8 .L0 
     /tmp/cc7WLpkD.s:198    .rodata.str1.8:0000000000000048 .LC5
     /tmp/cc7WLpkD.s:240    .text:00000000000000f8 .L0 
     /tmp/cc7WLpkD.s:250    .text:0000000000000114 .L0 
     /tmp/cc7WLpkD.s:318    .text:0000000000000180 .L0 
     /tmp/cc7WLpkD.s:368    .text:00000000000001cc .L0 
     /tmp/cc7WLpkD.s:393    .text:00000000000001f8 .L0 
     /tmp/cc7WLpkD.s:403    .text:0000000000000214 .L0 
     /tmp/cc7WLpkD.s:446    .rodata.str1.8:0000000000000050 .LC6
     /tmp/cc7WLpkD.s:471    .text:000000000000027c .L0 
     /tmp/cc7WLpkD.s:493    .text:00000000000002a0 .L0 
     /tmp/cc7WLpkD.s:526    .rodata.str1.8:0000000000000060 .LC7
     /tmp/cc7WLpkD.s:551    .text:0000000000000308 .L0 
     /tmp/cc7WLpkD.s:573    .text:000000000000032c .L0 
     /tmp/cc7WLpkD.s:606    .rodata.str1.8:0000000000000070 .LC8
     /tmp/cc7WLpkD.s:631    .text:0000000000000394 .L0 
     /tmp/cc7WLpkD.s:653    .text:00000000000003b8 .L0 
     /tmp/cc7WLpkD.s:898    .text:0000000000000434 .L0 
     /tmp/cc7WLpkD.s:917    .text:0000000000000464 .L0 
     /tmp/cc7WLpkD.s:862    .rodata.str1.8:0000000000000080 .LC9
     /tmp/cc7WLpkD.s:936    .text:000000000000048c .L0 
     /tmp/cc7WLpkD.s:865    .rodata.str1.8:0000000000000090 .LC10
     /tmp/cc7WLpkD.s:977    .text:00000000000004c4 .L0 
     /tmp/cc7WLpkD.s:1094   .text:0000000000000558 .L0 
     /tmp/cc7WLpkD.s:1113   .text:0000000000000588 .L0 
     /tmp/cc7WLpkD.s:1133   .text:00000000000005b8 .L0 
     /tmp/cc7WLpkD.s:1167   .text:00000000000005ec .L0 
     /tmp/cc7WLpkD.s:1279   .rodata.str1.8:0000000000000098 .LC11
     /tmp/cc7WLpkD.s:1307   .text:0000000000000684 .L0 
     /tmp/cc7WLpkD.s:1282   .rodata.str1.8:00000000000000a8 .LC12
     /tmp/cc7WLpkD.s:1337   .text:00000000000006c8 .L0 
     /tmp/cc7WLpkD.s:1389   .text:000000000000071c .L0 
     /tmp/cc7WLpkD.s:1427   .text:0000000000000764 .L0 
     /tmp/cc7WLpkD.s:1463   .text:00000000000007a8 .L0 
     /tmp/cc7WLpkD.s:1285   .rodata.str1.8:00000000000000b0 .LC13
     /tmp/cc7WLpkD.s:1474   .text:00000000000007bc .L0 
     /tmp/cc7WLpkD.s:1483   .rodata.str1.8:00000000000000b8 .LC14
     /tmp/cc7WLpkD.s:1503   .text:00000000000007e0 .L0 
     /tmp/cc7WLpkD.s:1508   .text:00000000000007f0 .L0 
     /tmp/cc7WLpkD.s:1510   .text:00000000000007fc .L0 
     /tmp/cc7WLpkD.s:1524   .text:000000000000081c .L0 
     /tmp/cc7WLpkD.s:1544   .text:000000000000083c .L0 
     /tmp/cc7WLpkD.s:1554   .rodata.str1.8:00000000000000c8 .LC15
     /tmp/cc7WLpkD.s:1580   .text:000000000000086c .L0 
     /tmp/cc7WLpkD.s:1641   .text:00000000000008c8 .L0 
     /tmp/cc7WLpkD.s:1654   .text:00000000000008e8 .L0 
     /tmp/cc7WLpkD.s:1681   .text:0000000000000914 .L0 
     /tmp/cc7WLpkD.s:1690   .rodata.str1.8:00000000000000e0 .LC16
     /tmp/cc7WLpkD.s:1710   .text:0000000000000938 .L0 
     /tmp/cc7WLpkD.s:1728   .text:0000000000000964 .L0 
     /tmp/cc7WLpkD.s:1748   .text:0000000000000984 .L0 
     /tmp/cc7WLpkD.s:1759   .rodata.str1.8:00000000000000f0 .LC17
     /tmp/cc7WLpkD.s:1783   .text:00000000000009b0 .L0 
     /tmp/cc7WLpkD.s:1937   .text:0000000000000ac4 .L0 
     /tmp/cc7WLpkD.s:1999   .text:0000000000000b14 .L0 
GAS LISTING /tmp/cc7WLpkD.s 			page 92


     /tmp/cc7WLpkD.s:1977   .rodata.str1.8:0000000000000100 .LC18
     /tmp/cc7WLpkD.s:2005   .text:0000000000000b28 .L0 
     /tmp/cc7WLpkD.s:2049   .text:0000000000000b68 .L0 
     /tmp/cc7WLpkD.s:2029   .rodata.str1.8:0000000000000110 .LC19
     /tmp/cc7WLpkD.s:2054   .text:0000000000000b78 .L0 
     /tmp/cc7WLpkD.s:2071   .rodata.str1.8:0000000000000120 .LC20
     /tmp/cc7WLpkD.s:2094   .text:0000000000000bac .L0 
     /tmp/cc7WLpkD.s:2134   .rodata.str1.8:0000000000000130 .LC21
     /tmp/cc7WLpkD.s:2157   .text:0000000000000bfc .L0 
     /tmp/cc7WLpkD.s:2243   .text:0000000000000c8c .L0 
     /tmp/cc7WLpkD.s:2258   .text:0000000000000cb0 .L0 
     /tmp/cc7WLpkD.s:2268   .text:0000000000000ccc .L0 
     /tmp/cc7WLpkD.s:2432   .text:0000000000000d9c .L0 
     /tmp/cc7WLpkD.s:2447   .text:0000000000000dc0 .L0 
     /tmp/cc7WLpkD.s:2462   .text:0000000000000de4 .L0 
     /tmp/cc7WLpkD.s:2472   .text:0000000000000e00 .L0 
     /tmp/cc7WLpkD.s:2486   .text:0000000000000e24 .L0 
     /tmp/cc7WLpkD.s:2500   .text:0000000000000e48 .L0 
     /tmp/cc7WLpkD.s:2779   .text:0000000000000fac .L0 
     /tmp/cc7WLpkD.s:80     .text:0000000000000010 .L6
     /tmp/cc7WLpkD.s:162    .text:0000000000000090 .L11
     /tmp/cc7WLpkD.s:176    .text:00000000000000b0 .L8
     /tmp/cc7WLpkD.s:143    .text:0000000000000060 .L10
     /tmp/cc7WLpkD.s:138    .text:0000000000000058 .L13
     /tmp/cc7WLpkD.s:256    .text:0000000000000128 .L17
     /tmp/cc7WLpkD.s:270    .text:0000000000000148 .L14
     /tmp/cc7WLpkD.s:237    .text:00000000000000f8 .L16
     /tmp/cc7WLpkD.s:232    .text:00000000000000f0 .L19
     /tmp/cc7WLpkD.s:331    .text:00000000000001a4 .L20
     /tmp/cc7WLpkD.s:311    .text:0000000000000174 .L22
     /tmp/cc7WLpkD.s:409    .text:0000000000000228 .L28
     /tmp/cc7WLpkD.s:417    .text:000000000000023c .L26
     /tmp/cc7WLpkD.s:427    .text:0000000000000250 .L24
     /tmp/cc7WLpkD.s:379    .text:00000000000001e4 .L30
     /tmp/cc7WLpkD.s:390    .text:00000000000001f8 .L27
     /tmp/cc7WLpkD.s:385    .text:00000000000001f0 .L31
     /tmp/cc7WLpkD.s:485    .text:000000000000029c .L33
     /tmp/cc7WLpkD.s:480    .text:0000000000000294 .L34
     /tmp/cc7WLpkD.s:565    .text:0000000000000328 .L38
     /tmp/cc7WLpkD.s:560    .text:0000000000000320 .L39
     /tmp/cc7WLpkD.s:645    .text:00000000000003b4 .L43
     /tmp/cc7WLpkD.s:640    .text:00000000000003ac .L44
     /tmp/cc7WLpkD.s:943    .text:00000000000004a4 .L58
     /tmp/cc7WLpkD.s:933    .text:000000000000048c .L56
     /tmp/cc7WLpkD.s:1148   .text:00000000000005dc .L66
     /tmp/cc7WLpkD.s:1319   .text:00000000000006a0 .L79
     /tmp/cc7WLpkD.s:1356   .text:00000000000006ec .L87
     /tmp/cc7WLpkD.s:1315   .text:000000000000069c .L77
     /tmp/cc7WLpkD.s:1395   .text:0000000000000730 .L88
     /tmp/cc7WLpkD.s:1385   .text:000000000000071c .L91
     /tmp/cc7WLpkD.s:1362   .text:00000000000006f0 .L76
     /tmp/cc7WLpkD.s:1341   .text:00000000000006d8 .L75
     /tmp/cc7WLpkD.s:1409   .text:000000000000073c .L80
     /tmp/cc7WLpkD.s:1432   .text:0000000000000778 .L89
     /tmp/cc7WLpkD.s:1404   .text:0000000000000738 .L83
     /tmp/cc7WLpkD.s:1469   .text:00000000000007bc .L84
     /tmp/cc7WLpkD.s:1459   .text:00000000000007a8 .L92
GAS LISTING /tmp/cc7WLpkD.s 			page 93


     /tmp/cc7WLpkD.s:1438   .text:000000000000077c .L82
     /tmp/cc7WLpkD.s:1540   .text:000000000000083c .L97
     /tmp/cc7WLpkD.s:1528   .text:000000000000082c .L93
     /tmp/cc7WLpkD.s:1617   .text:00000000000008a0 .L100
     /tmp/cc7WLpkD.s:1631   .text:00000000000008bc .L99
     /tmp/cc7WLpkD.s:1598   .text:000000000000088c .L104
     /tmp/cc7WLpkD.s:1677   .text:0000000000000914 .L105
     /tmp/cc7WLpkD.s:1657   .text:00000000000008f8 .L98
     /tmp/cc7WLpkD.s:1744   .text:0000000000000984 .L107
     /tmp/cc7WLpkD.s:1732   .text:0000000000000974 .L106
     /tmp/cc7WLpkD.s:1795   .text:00000000000009cc .L113
     /tmp/cc7WLpkD.s:1829   .text:0000000000000a0c .L119
     /tmp/cc7WLpkD.s:1791   .text:00000000000009c8 .L122
     /tmp/cc7WLpkD.s:1934   .text:0000000000000ac4 .L114
     /tmp/cc7WLpkD.s:1882   .text:0000000000000a6c .L120
     /tmp/cc7WLpkD.s:1812   .text:00000000000009f4 .L110
     /tmp/cc7WLpkD.s:1842   .text:0000000000000a18 .L116
     /tmp/cc7WLpkD.s:1924   .text:0000000000000abc .L117
     /tmp/cc7WLpkD.s:1888   .text:0000000000000a70 .L115
     /tmp/cc7WLpkD.s:1834   .text:0000000000000a10 .L111
     /tmp/cc7WLpkD.s:2115   .text:0000000000000bd4 .L129
     /tmp/cc7WLpkD.s:2103   .text:0000000000000bc0 .L131
     /tmp/cc7WLpkD.s:2175   .text:0000000000000c20 .L135
     /tmp/cc7WLpkD.s:2167   .text:0000000000000c14 .L137
     /tmp/cc7WLpkD.s:2284   .text:0000000000000cf0 .L139
     /tmp/cc7WLpkD.s:2525   .text:0000000000000e80 .L150
     /tmp/cc7WLpkD.s:2840   .text:000000000000100c .L172
     /tmp/cc7WLpkD.s:703    .text._ZN14PeriodicThreadD2Ev:0000000000000010 .L0 
     /tmp/cc7WLpkD.s:745    .text._ZN14PeriodicThreadD0Ev:0000000000000018 .L0 
     /tmp/cc7WLpkD.s:790    .text._ZN12TestPeriodicD2Ev:0000000000000010 .L0 
     /tmp/cc7WLpkD.s:835    .text._ZN12TestPeriodicD0Ev:0000000000000018 .L0 
     /tmp/cc7WLpkD.s:892    .text:0000000000000424 .LEHB0
     /tmp/cc7WLpkD.s:872    .text:0000000000000408 .LFB27
     /tmp/cc7WLpkD.s:895    .text:000000000000042c .LEHE0
     /tmp/cc7WLpkD.s:899    .text:000000000000043c .LEHB1
     /tmp/cc7WLpkD.s:902    .text:0000000000000444 .LEHE1
     /tmp/cc7WLpkD.s:1001   .text:00000000000004f4 .L61
     /tmp/cc7WLpkD.s:906    .text:0000000000000448 .LEHB2
     /tmp/cc7WLpkD.s:914    .text:000000000000045c .LEHE2
     /tmp/cc7WLpkD.s:918    .text:000000000000046c .LEHB3
     /tmp/cc7WLpkD.s:921    .text:0000000000000474 .LEHE3
     /tmp/cc7WLpkD.s:1013   .text:0000000000000510 .L62
     /tmp/cc7WLpkD.s:925    .text:0000000000000478 .LEHB4
     /tmp/cc7WLpkD.s:984    .text:00000000000004dc .LEHE4
     /tmp/cc7WLpkD.s:1009   .text:0000000000000508 .LEHB5
     /tmp/cc7WLpkD.s:1012   .text:0000000000000510 .LEHE5
     /tmp/cc7WLpkD.s:1021   .text:0000000000000524 .LEHB6
     /tmp/cc7WLpkD.s:1024   .text:000000000000052c .LEHE6
     /tmp/cc7WLpkD.s:1088   .text:0000000000000548 .LEHB7
     /tmp/cc7WLpkD.s:1068   .text:000000000000052c .LFB28
     /tmp/cc7WLpkD.s:1091   .text:0000000000000550 .LEHE7
     /tmp/cc7WLpkD.s:1095   .text:0000000000000560 .LEHB8
     /tmp/cc7WLpkD.s:1098   .text:0000000000000568 .LEHE8
     /tmp/cc7WLpkD.s:1191   .text:000000000000061c .L70
     /tmp/cc7WLpkD.s:1102   .text:000000000000056c .LEHB9
     /tmp/cc7WLpkD.s:1110   .text:0000000000000580 .LEHE9
     /tmp/cc7WLpkD.s:1114   .text:0000000000000590 .LEHB10
GAS LISTING /tmp/cc7WLpkD.s 			page 94


     /tmp/cc7WLpkD.s:1117   .text:0000000000000598 .LEHE10
     /tmp/cc7WLpkD.s:1203   .text:0000000000000638 .L71
     /tmp/cc7WLpkD.s:1121   .text:000000000000059c .LEHB11
     /tmp/cc7WLpkD.s:1129   .text:00000000000005b0 .LEHE11
     /tmp/cc7WLpkD.s:1134   .text:00000000000005c0 .LEHB12
     /tmp/cc7WLpkD.s:1137   .text:00000000000005c8 .LEHE12
     /tmp/cc7WLpkD.s:1215   .text:0000000000000654 .L72
     /tmp/cc7WLpkD.s:1141   .text:00000000000005cc .LEHB13
     /tmp/cc7WLpkD.s:1174   .text:0000000000000604 .LEHE13
     /tmp/cc7WLpkD.s:1199   .text:0000000000000630 .LEHB14
     /tmp/cc7WLpkD.s:1202   .text:0000000000000638 .LEHE14
     /tmp/cc7WLpkD.s:1211   .text:000000000000064c .LEHB15
     /tmp/cc7WLpkD.s:1214   .text:0000000000000654 .LEHE15
     /tmp/cc7WLpkD.s:1223   .text:0000000000000668 .LEHB16
     /tmp/cc7WLpkD.s:1226   .text:0000000000000670 .LEHE16
     /tmp/cc7WLpkD.s:2219   .text:0000000000000c58 .LEHB17
     /tmp/cc7WLpkD.s:2199   .text:0000000000000c3c .LFB41
     /tmp/cc7WLpkD.s:2222   .text:0000000000000c60 .LEHE17
     /tmp/cc7WLpkD.s:2225   .text:0000000000000c68 .LEHB18
     /tmp/cc7WLpkD.s:2228   .text:0000000000000c70 .LEHE18
     /tmp/cc7WLpkD.s:2289   .text:0000000000000cf4 .L144
     /tmp/cc7WLpkD.s:2232   .text:0000000000000c74 .LEHB19
     /tmp/cc7WLpkD.s:2235   .text:0000000000000c7c .LEHE19
     /tmp/cc7WLpkD.s:2238   .text:0000000000000c84 .LEHB20
     /tmp/cc7WLpkD.s:2241   .text:0000000000000c8c .LEHE20
     /tmp/cc7WLpkD.s:2300   .text:0000000000000d10 .L145
     /tmp/cc7WLpkD.s:2247   .text:0000000000000c98 .LEHB21
     /tmp/cc7WLpkD.s:2250   .text:0000000000000ca0 .LEHE21
     /tmp/cc7WLpkD.s:2253   .text:0000000000000ca8 .LEHB22
     /tmp/cc7WLpkD.s:2256   .text:0000000000000cb0 .LEHE22
     /tmp/cc7WLpkD.s:2311   .text:0000000000000d2c .L146
     /tmp/cc7WLpkD.s:2262   .text:0000000000000cbc .LEHB23
     /tmp/cc7WLpkD.s:2265   .text:0000000000000cc4 .LEHE23
     /tmp/cc7WLpkD.s:2269   .text:0000000000000cd4 .LEHB24
     /tmp/cc7WLpkD.s:2272   .text:0000000000000cdc .LEHE24
     /tmp/cc7WLpkD.s:2322   .text:0000000000000d48 .L147
     /tmp/cc7WLpkD.s:2276   .text:0000000000000ce0 .LEHB25
     /tmp/cc7WLpkD.s:2283   .text:0000000000000cf0 .LEHE25
     /tmp/cc7WLpkD.s:2296   .text:0000000000000d08 .LEHB26
     /tmp/cc7WLpkD.s:2299   .text:0000000000000d10 .LEHE26
     /tmp/cc7WLpkD.s:2307   .text:0000000000000d24 .LEHB27
     /tmp/cc7WLpkD.s:2310   .text:0000000000000d2c .LEHE27
     /tmp/cc7WLpkD.s:2318   .text:0000000000000d40 .LEHB28
     /tmp/cc7WLpkD.s:2321   .text:0000000000000d48 .LEHE28
     /tmp/cc7WLpkD.s:2329   .text:0000000000000d5c .LEHB29
     /tmp/cc7WLpkD.s:2332   .text:0000000000000d64 .LEHE29
     /tmp/cc7WLpkD.s:2421   .text:0000000000000d84 .LEHB30
     /tmp/cc7WLpkD.s:2399   .text:0000000000000d64 .LFB45
     /tmp/cc7WLpkD.s:2424   .text:0000000000000d8c .LEHE30
     /tmp/cc7WLpkD.s:2427   .text:0000000000000d94 .LEHB31
     /tmp/cc7WLpkD.s:2430   .text:0000000000000d9c .LEHE31
     /tmp/cc7WLpkD.s:2558   .text:0000000000000eb4 .L157
     /tmp/cc7WLpkD.s:2436   .text:0000000000000da8 .LEHB32
     /tmp/cc7WLpkD.s:2439   .text:0000000000000db0 .LEHE32
     /tmp/cc7WLpkD.s:2442   .text:0000000000000db8 .LEHB33
     /tmp/cc7WLpkD.s:2445   .text:0000000000000dc0 .LEHE33
     /tmp/cc7WLpkD.s:2570   .text:0000000000000ed0 .L158
GAS LISTING /tmp/cc7WLpkD.s 			page 95


     /tmp/cc7WLpkD.s:2451   .text:0000000000000dcc .LEHB34
     /tmp/cc7WLpkD.s:2454   .text:0000000000000dd4 .LEHE34
     /tmp/cc7WLpkD.s:2457   .text:0000000000000ddc .LEHB35
     /tmp/cc7WLpkD.s:2460   .text:0000000000000de4 .LEHE35
     /tmp/cc7WLpkD.s:2581   .text:0000000000000eec .L159
     /tmp/cc7WLpkD.s:2466   .text:0000000000000df0 .LEHB36
     /tmp/cc7WLpkD.s:2469   .text:0000000000000df8 .LEHE36
     /tmp/cc7WLpkD.s:2473   .text:0000000000000e08 .LEHB37
     /tmp/cc7WLpkD.s:2476   .text:0000000000000e10 .LEHE37
     /tmp/cc7WLpkD.s:2592   .text:0000000000000f08 .L160
     /tmp/cc7WLpkD.s:2480   .text:0000000000000e14 .LEHB38
     /tmp/cc7WLpkD.s:2483   .text:0000000000000e1c .LEHE38
     /tmp/cc7WLpkD.s:2487   .text:0000000000000e2c .LEHB39
     /tmp/cc7WLpkD.s:2490   .text:0000000000000e34 .LEHE39
     /tmp/cc7WLpkD.s:2603   .text:0000000000000f24 .L161
     /tmp/cc7WLpkD.s:2494   .text:0000000000000e38 .LEHB40
     /tmp/cc7WLpkD.s:2497   .text:0000000000000e40 .LEHE40
     /tmp/cc7WLpkD.s:2501   .text:0000000000000e50 .LEHB41
     /tmp/cc7WLpkD.s:2504   .text:0000000000000e58 .LEHE41
     /tmp/cc7WLpkD.s:2614   .text:0000000000000f40 .L162
     /tmp/cc7WLpkD.s:2508   .text:0000000000000e5c .LEHB42
     /tmp/cc7WLpkD.s:2535   .text:0000000000000e8c .LEHE42
     /tmp/cc7WLpkD.s:2566   .text:0000000000000ec8 .LEHB43
     /tmp/cc7WLpkD.s:2569   .text:0000000000000ed0 .LEHE43
     /tmp/cc7WLpkD.s:2577   .text:0000000000000ee4 .LEHB44
     /tmp/cc7WLpkD.s:2580   .text:0000000000000eec .LEHE44
     /tmp/cc7WLpkD.s:2588   .text:0000000000000f00 .LEHB45
     /tmp/cc7WLpkD.s:2591   .text:0000000000000f08 .LEHE45
     /tmp/cc7WLpkD.s:2599   .text:0000000000000f1c .LEHB46
     /tmp/cc7WLpkD.s:2602   .text:0000000000000f24 .LEHE46
     /tmp/cc7WLpkD.s:2610   .text:0000000000000f38 .LEHB47
     /tmp/cc7WLpkD.s:2613   .text:0000000000000f40 .LEHE47
     /tmp/cc7WLpkD.s:2622   .text:0000000000000f54 .LEHB48
     /tmp/cc7WLpkD.s:2625   .text:0000000000000f5c .LEHE48
     /tmp/cc7WLpkD.s:2823   .text:0000000000000fe8 .LEHB49
     /tmp/cc7WLpkD.s:2803   .text:0000000000000fcc .LFB29
     /tmp/cc7WLpkD.s:2826   .text:0000000000000ff0 .LEHE49
     /tmp/cc7WLpkD.s:2829   .text:0000000000000ff8 .LEHB50
     /tmp/cc7WLpkD.s:2832   .text:0000000000001000 .LEHE50
     /tmp/cc7WLpkD.s:2845   .text:0000000000001010 .L174
     /tmp/cc7WLpkD.s:2836   .text:0000000000001004 .LEHB51
     /tmp/cc7WLpkD.s:2839   .text:000000000000100c .LEHE51
     /tmp/cc7WLpkD.s:2852   .text:0000000000001024 .LEHB52
     /tmp/cc7WLpkD.s:2855   .text:000000000000102c .LEHE52
     /tmp/cc7WLpkD.s:7059   .debug_abbrev:0000000000000000 .Ldebug_abbrev0
     /tmp/cc7WLpkD.s:9349   .debug_str:00000000000001c6 .LASF230
     /tmp/cc7WLpkD.s:9467   .debug_str:00000000000005f2 .LASF231
     /tmp/cc7WLpkD.s:9687   .debug_str:0000000000000c34 .LASF232
     /tmp/cc7WLpkD.s:9251   .debug_ranges:0000000000000000 .Ldebug_ranges0
     /tmp/cc7WLpkD.s:9293   .debug_line:0000000000000000 .Ldebug_line0
     /tmp/cc7WLpkD.s:9449   .debug_str:000000000000055f .LASF0
     /tmp/cc7WLpkD.s:9485   .debug_str:000000000000068f .LASF1
     /tmp/cc7WLpkD.s:9609   .debug_str:0000000000000a10 .LASF2
     /tmp/cc7WLpkD.s:9617   .debug_str:0000000000000a47 .LASF4
     /tmp/cc7WLpkD.s:9465   .debug_str:00000000000005e0 .LASF3
     /tmp/cc7WLpkD.s:9315   .debug_str:00000000000000b7 .LASF5
     /tmp/cc7WLpkD.s:9571   .debug_str:0000000000000906 .LASF6
GAS LISTING /tmp/cc7WLpkD.s 			page 96


     /tmp/cc7WLpkD.s:9559   .debug_str:00000000000008bf .LASF7
     /tmp/cc7WLpkD.s:9477   .debug_str:000000000000065b .LASF8
     /tmp/cc7WLpkD.s:9425   .debug_str:00000000000004a3 .LASF9
     /tmp/cc7WLpkD.s:9433   .debug_str:00000000000004fa .LASF10
     /tmp/cc7WLpkD.s:9361   .debug_str:00000000000002d9 .LASF11
     /tmp/cc7WLpkD.s:9413   .debug_str:0000000000000453 .LASF12
     /tmp/cc7WLpkD.s:9369   .debug_str:000000000000030e .LASF13
     /tmp/cc7WLpkD.s:9359   .debug_str:00000000000002c9 .LASF14
     /tmp/cc7WLpkD.s:9651   .debug_str:0000000000000b2f .LASF15
     /tmp/cc7WLpkD.s:9401   .debug_str:00000000000003ea .LASF16
     /tmp/cc7WLpkD.s:9643   .debug_str:0000000000000ade .LASF17
     /tmp/cc7WLpkD.s:9727   .debug_str:0000000000000d67 .LASF88
     /tmp/cc7WLpkD.s:9443   .debug_str:0000000000000533 .LASF18
     /tmp/cc7WLpkD.s:9645   .debug_str:0000000000000af4 .LASF20
     /tmp/cc7WLpkD.s:9523   .debug_str:00000000000007c5 .LASF19
     /tmp/cc7WLpkD.s:9509   .debug_str:0000000000000752 .LASF21
     /tmp/cc7WLpkD.s:9399   .debug_str:00000000000003e0 .LASF22
     /tmp/cc7WLpkD.s:9305   .debug_str:000000000000006f .LASF23
     /tmp/cc7WLpkD.s:9511   .debug_str:000000000000076a .LASF28
     /tmp/cc7WLpkD.s:9721   .debug_str:0000000000000d29 .LASF30
     /tmp/cc7WLpkD.s:9713   .debug_str:0000000000000cf5 .LASF24
     /tmp/cc7WLpkD.s:9495   .debug_str:00000000000006d8 .LASF25
     /tmp/cc7WLpkD.s:9459   .debug_str:00000000000005a3 .LASF26
     /tmp/cc7WLpkD.s:9373   .debug_str:000000000000032a .LASF27
     /tmp/cc7WLpkD.s:9753   .debug_str:0000000000000e3c .LASF29
     /tmp/cc7WLpkD.s:9325   .debug_str:00000000000000f6 .LASF31
     /tmp/cc7WLpkD.s:9567   .debug_str:00000000000008f4 .LASF32
     /tmp/cc7WLpkD.s:9327   .debug_str:0000000000000111 .LASF33
     /tmp/cc7WLpkD.s:9625   .debug_str:0000000000000a70 .LASF34
     /tmp/cc7WLpkD.s:9407   .debug_str:000000000000041d .LASF35
     /tmp/cc7WLpkD.s:9453   .debug_str:000000000000057c .LASF36
     /tmp/cc7WLpkD.s:9741   .debug_str:0000000000000dd5 .LASF37
     /tmp/cc7WLpkD.s:9707   .debug_str:0000000000000cdd .LASF40
     /tmp/cc7WLpkD.s:9695   .debug_str:0000000000000c73 .LASF42
     /tmp/cc7WLpkD.s:9605   .debug_str:00000000000009fc .LASF38
     /tmp/cc7WLpkD.s:9543   .debug_str:000000000000084f .LASF39
     /tmp/cc7WLpkD.s:9579   .debug_str:000000000000093e .LASF41
     /tmp/cc7WLpkD.s:9585   .debug_str:000000000000095d .LASF43
     /tmp/cc7WLpkD.s:9535   .debug_str:000000000000081e .LASF44
     /tmp/cc7WLpkD.s:9479   .debug_str:000000000000066e .LASF45
     /tmp/cc7WLpkD.s:9743   .debug_str:0000000000000def .LASF46
     /tmp/cc7WLpkD.s:9677   .debug_str:0000000000000bd9 .LASF47
     /tmp/cc7WLpkD.s:9533   .debug_str:0000000000000816 .LASF48
     /tmp/cc7WLpkD.s:9541   .debug_str:000000000000083b .LASF49
     /tmp/cc7WLpkD.s:9519   .debug_str:00000000000007ab .LASF50
     /tmp/cc7WLpkD.s:9587   .debug_str:0000000000000970 .LASF51
     /tmp/cc7WLpkD.s:9779   .debug_str:0000000000000f03 .LASF52
     /tmp/cc7WLpkD.s:9457   .debug_str:000000000000058f .LASF53
     /tmp/cc7WLpkD.s:9649   .debug_str:0000000000000b28 .LASF54
     /tmp/cc7WLpkD.s:9619   .debug_str:0000000000000a4e .LASF55
     /tmp/cc7WLpkD.s:9621   .debug_str:0000000000000a61 .LASF56
     /tmp/cc7WLpkD.s:9365   .debug_str:00000000000002f1 .LASF57
     /tmp/cc7WLpkD.s:9395   .debug_str:00000000000003c7 .LASF58
     /tmp/cc7WLpkD.s:9319   .debug_str:00000000000000c9 .LASF59
     /tmp/cc7WLpkD.s:9455   .debug_str:0000000000000589 .LASF60
     /tmp/cc7WLpkD.s:9385   .debug_str:000000000000038b .LASF61
     /tmp/cc7WLpkD.s:9317   .debug_str:00000000000000be .LASF62
GAS LISTING /tmp/cc7WLpkD.s 			page 97


     /tmp/cc7WLpkD.s:9613   .debug_str:0000000000000a26 .LASF63
     /tmp/cc7WLpkD.s:9607   .debug_str:0000000000000a05 .LASF64
     /tmp/cc7WLpkD.s:9771   .debug_str:0000000000000ec0 .LASF65
     /tmp/cc7WLpkD.s:9731   .debug_str:0000000000000d7e .LASF66
     /tmp/cc7WLpkD.s:9751   .debug_str:0000000000000e26 .LASF67
     /tmp/cc7WLpkD.s:9723   .debug_str:0000000000000d47 .LASF68
     /tmp/cc7WLpkD.s:9513   .debug_str:000000000000077a .LASF69
     /tmp/cc7WLpkD.s:9439   .debug_str:0000000000000522 .LASF70
     /tmp/cc7WLpkD.s:9447   .debug_str:0000000000000547 .LASF71
     /tmp/cc7WLpkD.s:9703   .debug_str:0000000000000cb3 .LASF72
     /tmp/cc7WLpkD.s:9431   .debug_str:00000000000004de .LASF73
     /tmp/cc7WLpkD.s:9565   .debug_str:00000000000008df .LASF74
     /tmp/cc7WLpkD.s:9473   .debug_str:0000000000000621 .LASF75
     /tmp/cc7WLpkD.s:9745   .debug_str:0000000000000df7 .LASF76
     /tmp/cc7WLpkD.s:9739   .debug_str:0000000000000daf .LASF77
     /tmp/cc7WLpkD.s:9381   .debug_str:0000000000000371 .LASF78
     /tmp/cc7WLpkD.s:9309   .debug_str:0000000000000096 .LASF79
     /tmp/cc7WLpkD.s:9341   .debug_str:0000000000000191 .LASF80
     /tmp/cc7WLpkD.s:9699   .debug_str:0000000000000c8d .LASF81
     /tmp/cc7WLpkD.s:9343   .debug_str:00000000000001a0 .LASF82
     /tmp/cc7WLpkD.s:9521   .debug_str:00000000000007b3 .LASF83
     /tmp/cc7WLpkD.s:9435   .debug_str:0000000000000508 .LASF84
     /tmp/cc7WLpkD.s:9397   .debug_str:00000000000003cd .LASF85
     /tmp/cc7WLpkD.s:9357   .debug_str:00000000000002b5 .LASF86
     /tmp/cc7WLpkD.s:9667   .debug_str:0000000000000ba3 .LASF87
     /tmp/cc7WLpkD.s:9671   .debug_str:0000000000000bbb .LASF233
     /tmp/cc7WLpkD.s:9355   .debug_str:00000000000002af .LASF89
     /tmp/cc7WLpkD.s:9633   .debug_str:0000000000000aa3 .LASF90
     /tmp/cc7WLpkD.s:9367   .debug_str:0000000000000304 .LASF91
     /tmp/cc7WLpkD.s:9345   .debug_str:00000000000001b3 .LASF92
     /tmp/cc7WLpkD.s:9561   .debug_str:00000000000008d2 .LASF93
     /tmp/cc7WLpkD.s:9481   .debug_str:0000000000000681 .LASF94
     /tmp/cc7WLpkD.s:9661   .debug_str:0000000000000b83 .LASF139
     /tmp/cc7WLpkD.s:9441   .debug_str:000000000000052d .LASF95
     /tmp/cc7WLpkD.s:9531   .debug_str:00000000000007fe .LASF234
     /tmp/cc7WLpkD.s:9547   .debug_str:000000000000086b .LASF235
     /tmp/cc7WLpkD.s:9483   .debug_str:000000000000068a .LASF96
     /tmp/cc7WLpkD.s:9767   .debug_str:0000000000000e9e .LASF98
     /tmp/cc7WLpkD.s:9763   .debug_str:0000000000000e82 .LASF97
     /tmp/cc7WLpkD.s:9675   .debug_str:0000000000000bc9 .LASF99
     /tmp/cc7WLpkD.s:9387   .debug_str:000000000000039d .LASF100
     /tmp/cc7WLpkD.s:9323   .debug_str:00000000000000e3 .LASF101
     /tmp/cc7WLpkD.s:9487   .debug_str:00000000000006a2 .LASF102
     /tmp/cc7WLpkD.s:9551   .debug_str:0000000000000881 .LASF103
     /tmp/cc7WLpkD.s:9673   .debug_str:0000000000000bc1 .LASF104
     /tmp/cc7WLpkD.s:9737   .debug_str:0000000000000da4 .LASF105
     /tmp/cc7WLpkD.s:9627   .debug_str:0000000000000a7e .LASF106
     /tmp/cc7WLpkD.s:9491   .debug_str:00000000000006bb .LASF111
     /tmp/cc7WLpkD.s:9497   .debug_str:00000000000006f6 .LASF113
     /tmp/cc7WLpkD.s:9773   .debug_str:0000000000000ed8 .LASF107
     /tmp/cc7WLpkD.s:9419   .debug_str:0000000000000473 .LASF108
     /tmp/cc7WLpkD.s:9451   .debug_str:000000000000056c .LASF109
     /tmp/cc7WLpkD.s:9461   .debug_str:00000000000005b5 .LASF110
     /tmp/cc7WLpkD.s:9629   .debug_str:0000000000000a8f .LASF112
     /tmp/cc7WLpkD.s:9383   .debug_str:0000000000000378 .LASF114
     /tmp/cc7WLpkD.s:9615   .debug_str:0000000000000a3e .LASF115
     /tmp/cc7WLpkD.s:9647   .debug_str:0000000000000b0c .LASF116
GAS LISTING /tmp/cc7WLpkD.s 			page 98


     /tmp/cc7WLpkD.s:9529   .debug_str:00000000000007ef .LASF117
     /tmp/cc7WLpkD.s:9301   .debug_str:0000000000000050 .LASF118
     /tmp/cc7WLpkD.s:9749   .debug_str:0000000000000e17 .LASF119
     /tmp/cc7WLpkD.s:9557   .debug_str:00000000000008a5 .LASF120
     /tmp/cc7WLpkD.s:9641   .debug_str:0000000000000ad0 .LASF121
     /tmp/cc7WLpkD.s:9577   .debug_str:0000000000000932 .LASF122
     /tmp/cc7WLpkD.s:9297   .debug_str:000000000000002a .LASF123
     /tmp/cc7WLpkD.s:9755   .debug_str:0000000000000e48 .LASF124
     /tmp/cc7WLpkD.s:9469   .debug_str:0000000000000600 .LASF127
     /tmp/cc7WLpkD.s:9639   .debug_str:0000000000000ac5 .LASF125
     /tmp/cc7WLpkD.s:9765   .debug_str:0000000000000e88 .LASF126
     /tmp/cc7WLpkD.s:9623   .debug_str:0000000000000a68 .LASF128
     /tmp/cc7WLpkD.s:9681   .debug_str:0000000000000bfd .LASF129
     /tmp/cc7WLpkD.s:9553   .debug_str:0000000000000891 .LASF130
     /tmp/cc7WLpkD.s:9375   .debug_str:0000000000000349 .LASF131
     /tmp/cc7WLpkD.s:9331   .debug_str:0000000000000143 .LASF133
     /tmp/cc7WLpkD.s:9409   .debug_str:0000000000000438 .LASF132
     /tmp/cc7WLpkD.s:9353   .debug_str:0000000000000283 .LASF134
     /tmp/cc7WLpkD.s:9747   .debug_str:0000000000000e10 .LASF157
     /tmp/cc7WLpkD.s:9351   .debug_str:0000000000000272 .LASF236
     /tmp/cc7WLpkD.s:9303   .debug_str:000000000000006a .LASF135
     /tmp/cc7WLpkD.s:9709   .debug_str:0000000000000ce6 .LASF136
     /tmp/cc7WLpkD.s:9499   .debug_str:000000000000070e .LASF137
     /tmp/cc7WLpkD.s:9393   .debug_str:00000000000003c1 .LASF138
     /tmp/cc7WLpkD.s:9693   .debug_str:0000000000000c6b .LASF140
     /tmp/cc7WLpkD.s:9337   .debug_str:000000000000017d .LASF141
     /tmp/cc7WLpkD.s:9503   .debug_str:000000000000071d .LASF142
     /tmp/cc7WLpkD.s:9697   .debug_str:0000000000000c88 .LASF143
     /tmp/cc7WLpkD.s:9711   .debug_str:0000000000000ceb .LASF163
     /tmp/cc7WLpkD.s:9685   .debug_str:0000000000000c1f .LASF144
     /tmp/cc7WLpkD.s:9389   .debug_str:00000000000003a6 .LASF146
     /tmp/cc7WLpkD.s:9573   .debug_str:000000000000090d .LASF145
     /tmp/cc7WLpkD.s:9659   .debug_str:0000000000000b7c .LASF147
     /tmp/cc7WLpkD.s:9601   .debug_str:00000000000009de .LASF237
     /tmp/cc7WLpkD.s:9597   .debug_str:00000000000009c7 .LASF148
     /tmp/cc7WLpkD.s:9683   .debug_str:0000000000000c07 .LASF149
     /tmp/cc7WLpkD.s:9505   .debug_str:0000000000000722 .LASF150
     /tmp/cc7WLpkD.s:9775   .debug_str:0000000000000ee5 .LASF238
     /tmp/cc7WLpkD.s:9429   .debug_str:00000000000004cb .LASF156
     /tmp/cc7WLpkD.s:9655   .debug_str:0000000000000b44 .LASF239
     /tmp/cc7WLpkD.s:9635   .debug_str:0000000000000aab .LASF151
     /tmp/cc7WLpkD.s:9725   .debug_str:0000000000000d51 .LASF161
     /tmp/cc7WLpkD.s:9311   .debug_str:000000000000009e .LASF152
     /tmp/cc7WLpkD.s:9701   .debug_str:0000000000000c99 .LASF153
     /tmp/cc7WLpkD.s:9705   .debug_str:0000000000000cc2 .LASF154
     /tmp/cc7WLpkD.s:9475   .debug_str:0000000000000643 .LASF155
     /tmp/cc7WLpkD.s:9295   .debug_str:0000000000000000 .LASF240
     /tmp/cc7WLpkD.s:9463   .debug_str:00000000000005c2 .LASF158
     /tmp/cc7WLpkD.s:9563   .debug_str:00000000000008da .LASF159
     /tmp/cc7WLpkD.s:9539   .debug_str:000000000000082b .LASF160
     /tmp/cc7WLpkD.s:9427   .debug_str:00000000000004b3 .LASF162
     /tmp/cc7WLpkD.s:9437   .debug_str:000000000000051b .LASF164
     /tmp/cc7WLpkD.s:9549   .debug_str:0000000000000870 .LASF241
     /tmp/cc7WLpkD.s:9489   .debug_str:00000000000006a8 .LASF165
     /tmp/cc7WLpkD.s:9379   .debug_str:000000000000036c .LASF166
     /tmp/cc7WLpkD.s:9313   .debug_str:00000000000000ad .LASF167
     /tmp/cc7WLpkD.s:9589   .debug_str:0000000000000984 .LASF168
GAS LISTING /tmp/cc7WLpkD.s 			page 99


     /tmp/cc7WLpkD.s:815    .text._ZN12TestPeriodicD0Ev:0000000000000000 .LFB59
     /tmp/cc7WLpkD.s:858    .text._ZN12TestPeriodicD0Ev:000000000000004c .LFE59
     /tmp/cc7WLpkD.s:8484   .debug_loc:0000000000000000 .LLST20
     /tmp/cc7WLpkD.s:831    .text._ZN12TestPeriodicD0Ev:0000000000000018 .LBB29
     /tmp/cc7WLpkD.s:841    .text._ZN12TestPeriodicD0Ev:000000000000002c .LBE29
     /tmp/cc7WLpkD.s:8502   .debug_loc:000000000000004c .LLST21
     /tmp/cc7WLpkD.s:832    .text._ZN12TestPeriodicD0Ev:0000000000000018 .LBB30
     /tmp/cc7WLpkD.s:840    .text._ZN12TestPeriodicD0Ev:000000000000002c .LBE30
     /tmp/cc7WLpkD.s:838    .text._ZN12TestPeriodicD0Ev:000000000000002c .LVL90
     /tmp/cc7WLpkD.s:845    .text._ZN12TestPeriodicD0Ev:0000000000000038 .LVL91
     /tmp/cc7WLpkD.s:9421   .debug_str:000000000000047f .LASF169
     /tmp/cc7WLpkD.s:773    .text._ZN12TestPeriodicD2Ev:0000000000000000 .LFB57
     /tmp/cc7WLpkD.s:806    .text._ZN12TestPeriodicD2Ev:0000000000000034 .LFE57
     /tmp/cc7WLpkD.s:8513   .debug_loc:0000000000000082 .LLST18
     /tmp/cc7WLpkD.s:787    .text._ZN12TestPeriodicD2Ev:0000000000000010 .LBB27
     /tmp/cc7WLpkD.s:795    .text._ZN12TestPeriodicD2Ev:0000000000000024 .LBE27
     /tmp/cc7WLpkD.s:8527   .debug_loc:00000000000000bb .LLST19
     /tmp/cc7WLpkD.s:793    .text._ZN12TestPeriodicD2Ev:0000000000000024 .LVL87
     /tmp/cc7WLpkD.s:291    .text:000000000000015c .LFB55
     /tmp/cc7WLpkD.s:346    .text:00000000000001b8 .LFE55
     /tmp/cc7WLpkD.s:8541   .debug_loc:00000000000000f4 .LLST5
     /tmp/cc7WLpkD.s:307    .text:0000000000000170 .LBB22
     /tmp/cc7WLpkD.s:332    .text:00000000000001a4 .LBE22
     /tmp/cc7WLpkD.s:8555   .debug_loc:000000000000012d .LLST6
     /tmp/cc7WLpkD.s:320    .text:0000000000000190 .LVL29
     /tmp/cc7WLpkD.s:325    .text:000000000000019c .LVL30
     /tmp/cc7WLpkD.s:9299   .debug_str:000000000000003a .LASF170
     /tmp/cc7WLpkD.s:2760   .text:0000000000000f8c .LFB53
     /tmp/cc7WLpkD.s:2795   .text:0000000000000fcc .LFE53
     /tmp/cc7WLpkD.s:8571   .debug_loc:0000000000000177 .LLST60
     /tmp/cc7WLpkD.s:8589   .debug_loc:00000000000001c3 .LLST61
     /tmp/cc7WLpkD.s:2778   .text:0000000000000fac .LVL295
     /tmp/cc7WLpkD.s:9781   .debug_str:0000000000000f0b .LASF171
     /tmp/cc7WLpkD.s:726    .text._ZN14PeriodicThreadD0Ev:0000000000000000 .LFB52
     /tmp/cc7WLpkD.s:766    .text._ZN14PeriodicThreadD0Ev:000000000000004c .LFE52
     /tmp/cc7WLpkD.s:8603   .debug_loc:00000000000001fc .LLST16
     /tmp/cc7WLpkD.s:742    .text._ZN14PeriodicThreadD0Ev:0000000000000018 .LBB25
     /tmp/cc7WLpkD.s:750    .text._ZN14PeriodicThreadD0Ev:000000000000002c .LBE25
     /tmp/cc7WLpkD.s:8621   .debug_loc:0000000000000248 .LLST17
     /tmp/cc7WLpkD.s:748    .text._ZN14PeriodicThreadD0Ev:000000000000002c .LVL82
     /tmp/cc7WLpkD.s:753    .text._ZN14PeriodicThreadD0Ev:0000000000000038 .LVL83
     /tmp/cc7WLpkD.s:9603   .debug_str:00000000000009e4 .LASF172
     /tmp/cc7WLpkD.s:689    .text._ZN14PeriodicThreadD2Ev:0000000000000000 .LFB50
     /tmp/cc7WLpkD.s:717    .text._ZN14PeriodicThreadD2Ev:0000000000000034 .LFE50
     /tmp/cc7WLpkD.s:8632   .debug_loc:000000000000027e .LLST15
     /tmp/cc7WLpkD.s:706    .text._ZN14PeriodicThreadD2Ev:0000000000000024 .LVL79
     /tmp/cc7WLpkD.s:9611   .debug_str:0000000000000a1e .LASF173
     /tmp/cc7WLpkD.s:9405   .debug_str:0000000000000411 .LASF175
     /tmp/cc7WLpkD.s:2738   .text:0000000000000f74 .LFB47
     /tmp/cc7WLpkD.s:2754   .text:0000000000000f8c .LFE47
     /tmp/cc7WLpkD.s:2752   .text:0000000000000f8c .LVL293
     /tmp/cc7WLpkD.s:9581   .debug_str:0000000000000945 .LASF174
     /tmp/cc7WLpkD.s:9471   .debug_str:000000000000060d .LASF176
     /tmp/cc7WLpkD.s:2716   .text:0000000000000f5c .LFB46
     /tmp/cc7WLpkD.s:2732   .text:0000000000000f74 .LFE46
     /tmp/cc7WLpkD.s:2730   .text:0000000000000f74 .LVL292
     /tmp/cc7WLpkD.s:9363   .debug_str:00000000000002e8 .LASF177
GAS LISTING /tmp/cc7WLpkD.s 			page 100


     /tmp/cc7WLpkD.s:9593   .debug_str:00000000000009b5 .LASF178
     /tmp/cc7WLpkD.s:2627   .text:0000000000000f5c .LFE45
     /tmp/cc7WLpkD.s:8646   .debug_loc:00000000000002b7 .LLST56
     /tmp/cc7WLpkD.s:8657   .debug_loc:00000000000002ed .LLST57
     /tmp/cc7WLpkD.s:8668   .debug_loc:0000000000000323 .LLST58
     /tmp/cc7WLpkD.s:8675   .debug_loc:0000000000000346 .LLST59
     /tmp/cc7WLpkD.s:2423   .text:0000000000000d8c .LVL259
     /tmp/cc7WLpkD.s:2429   .text:0000000000000d9c .LVL260
     /tmp/cc7WLpkD.s:2438   .text:0000000000000db0 .LVL261
     /tmp/cc7WLpkD.s:2444   .text:0000000000000dc0 .LVL262
     /tmp/cc7WLpkD.s:2453   .text:0000000000000dd4 .LVL263
     /tmp/cc7WLpkD.s:2459   .text:0000000000000de4 .LVL264
     /tmp/cc7WLpkD.s:2468   .text:0000000000000df8 .LVL265
     /tmp/cc7WLpkD.s:2475   .text:0000000000000e10 .LVL266
     /tmp/cc7WLpkD.s:2482   .text:0000000000000e1c .LVL267
     /tmp/cc7WLpkD.s:2489   .text:0000000000000e34 .LVL268
     /tmp/cc7WLpkD.s:2496   .text:0000000000000e40 .LVL269
     /tmp/cc7WLpkD.s:2503   .text:0000000000000e58 .LVL270
     /tmp/cc7WLpkD.s:2510   .text:0000000000000e64 .LVL271
     /tmp/cc7WLpkD.s:2515   .text:0000000000000e70 .LVL272
     /tmp/cc7WLpkD.s:2520   .text:0000000000000e7c .LVL273
     /tmp/cc7WLpkD.s:2534   .text:0000000000000e8c .LVL276
     /tmp/cc7WLpkD.s:2564   .text:0000000000000ec4 .LVL279
     /tmp/cc7WLpkD.s:2568   .text:0000000000000ed0 .LVL280
     /tmp/cc7WLpkD.s:2575   .text:0000000000000ee0 .LVL281
     /tmp/cc7WLpkD.s:2579   .text:0000000000000eec .LVL282
     /tmp/cc7WLpkD.s:2586   .text:0000000000000efc .LVL283
     /tmp/cc7WLpkD.s:2590   .text:0000000000000f08 .LVL284
     /tmp/cc7WLpkD.s:2597   .text:0000000000000f18 .LVL285
     /tmp/cc7WLpkD.s:2601   .text:0000000000000f24 .LVL286
     /tmp/cc7WLpkD.s:2608   .text:0000000000000f34 .LVL287
     /tmp/cc7WLpkD.s:2612   .text:0000000000000f40 .LVL288
     /tmp/cc7WLpkD.s:2620   .text:0000000000000f50 .LVL290
     /tmp/cc7WLpkD.s:2624   .text:0000000000000f5c .LVL291
     /tmp/cc7WLpkD.s:9595   .debug_str:00000000000009c2 .LASF179
     /tmp/cc7WLpkD.s:9347   .debug_str:00000000000001bc .LASF180
     /tmp/cc7WLpkD.s:613    .text:000000000000037c .LFB44
     /tmp/cc7WLpkD.s:682    .text:0000000000000408 .LFE44
     /tmp/cc7WLpkD.s:8687   .debug_loc:000000000000037d .LLST13
     /tmp/cc7WLpkD.s:8701   .debug_loc:00000000000003b6 .LLST14
     /tmp/cc7WLpkD.s:634    .text:00000000000003a4 .LVL69
     /tmp/cc7WLpkD.s:644    .text:00000000000003b4 .LVL71
     /tmp/cc7WLpkD.s:656    .text:00000000000003cc .LVL73
     /tmp/cc7WLpkD.s:661    .text:00000000000003d8 .LVL74
     /tmp/cc7WLpkD.s:666    .text:00000000000003e4 .LVL75
     /tmp/cc7WLpkD.s:671    .text:00000000000003f0 .LVL76
     /tmp/cc7WLpkD.s:679    .text:0000000000000404 .LVL77
     /tmp/cc7WLpkD.s:9761   .debug_str:0000000000000e7d .LASF181
     /tmp/cc7WLpkD.s:9599   .debug_str:00000000000009d4 .LASF182
     /tmp/cc7WLpkD.s:533    .text:00000000000002f0 .LFB43
     /tmp/cc7WLpkD.s:602    .text:000000000000037c .LFE43
     /tmp/cc7WLpkD.s:8713   .debug_loc:00000000000003ed .LLST11
     /tmp/cc7WLpkD.s:8727   .debug_loc:0000000000000426 .LLST12
     /tmp/cc7WLpkD.s:554    .text:0000000000000318 .LVL58
     /tmp/cc7WLpkD.s:564    .text:0000000000000328 .LVL60
     /tmp/cc7WLpkD.s:576    .text:0000000000000340 .LVL62
     /tmp/cc7WLpkD.s:581    .text:000000000000034c .LVL63
GAS LISTING /tmp/cc7WLpkD.s 			page 101


     /tmp/cc7WLpkD.s:586    .text:0000000000000358 .LVL64
     /tmp/cc7WLpkD.s:591    .text:0000000000000364 .LVL65
     /tmp/cc7WLpkD.s:599    .text:0000000000000378 .LVL66
     /tmp/cc7WLpkD.s:9569   .debug_str:0000000000000901 .LASF183
     /tmp/cc7WLpkD.s:9689   .debug_str:0000000000000c57 .LASF184
     /tmp/cc7WLpkD.s:453    .text:0000000000000264 .LFB42
     /tmp/cc7WLpkD.s:522    .text:00000000000002f0 .LFE42
     /tmp/cc7WLpkD.s:8739   .debug_loc:000000000000045d .LLST9
     /tmp/cc7WLpkD.s:8753   .debug_loc:0000000000000496 .LLST10
     /tmp/cc7WLpkD.s:474    .text:000000000000028c .LVL47
     /tmp/cc7WLpkD.s:484    .text:000000000000029c .LVL49
     /tmp/cc7WLpkD.s:496    .text:00000000000002b4 .LVL51
     /tmp/cc7WLpkD.s:501    .text:00000000000002c0 .LVL52
     /tmp/cc7WLpkD.s:506    .text:00000000000002cc .LVL53
     /tmp/cc7WLpkD.s:511    .text:00000000000002d8 .LVL54
     /tmp/cc7WLpkD.s:519    .text:00000000000002ec .LVL55
     /tmp/cc7WLpkD.s:9653   .debug_str:0000000000000b3b .LASF185
     /tmp/cc7WLpkD.s:9525   .debug_str:00000000000007d0 .LASF186
     /tmp/cc7WLpkD.s:2334   .text:0000000000000d64 .LFE41
     /tmp/cc7WLpkD.s:8765   .debug_loc:00000000000004cd .LLST55
     /tmp/cc7WLpkD.s:2221   .text:0000000000000c60 .LVL240
     /tmp/cc7WLpkD.s:2227   .text:0000000000000c70 .LVL241
     /tmp/cc7WLpkD.s:2234   .text:0000000000000c7c .LVL242
     /tmp/cc7WLpkD.s:2240   .text:0000000000000c8c .LVL243
     /tmp/cc7WLpkD.s:2249   .text:0000000000000ca0 .LVL244
     /tmp/cc7WLpkD.s:2255   .text:0000000000000cb0 .LVL245
     /tmp/cc7WLpkD.s:2264   .text:0000000000000cc4 .LVL246
     /tmp/cc7WLpkD.s:2271   .text:0000000000000cdc .LVL247
     /tmp/cc7WLpkD.s:2278   .text:0000000000000ce8 .LVL248
     /tmp/cc7WLpkD.s:2282   .text:0000000000000cf0 .LVL249
     /tmp/cc7WLpkD.s:2294   .text:0000000000000d04 .LVL251
     /tmp/cc7WLpkD.s:2298   .text:0000000000000d10 .LVL252
     /tmp/cc7WLpkD.s:2305   .text:0000000000000d20 .LVL253
     /tmp/cc7WLpkD.s:2309   .text:0000000000000d2c .LVL254
     /tmp/cc7WLpkD.s:2316   .text:0000000000000d3c .LVL255
     /tmp/cc7WLpkD.s:2320   .text:0000000000000d48 .LVL256
     /tmp/cc7WLpkD.s:2327   .text:0000000000000d58 .LVL257
     /tmp/cc7WLpkD.s:2331   .text:0000000000000d64 .LVL258
     /tmp/cc7WLpkD.s:9715   .debug_str:0000000000000d06 .LASF187
     /tmp/cc7WLpkD.s:2078   .text:0000000000000b98 .LFB40
     /tmp/cc7WLpkD.s:2130   .text:0000000000000be8 .LFE40
     /tmp/cc7WLpkD.s:8772   .debug_loc:00000000000004f0 .LLST51
     /tmp/cc7WLpkD.s:2099   .text:0000000000000bbc .LBB56
     /tmp/cc7WLpkD.s:2116   .text:0000000000000bd4 .LBE56
     /tmp/cc7WLpkD.s:8786   .debug_loc:0000000000000529 .LLST52
     /tmp/cc7WLpkD.s:2109   .text:0000000000000bcc .LVL229
     /tmp/cc7WLpkD.s:2097   .text:0000000000000bbc .LVL227
     /tmp/cc7WLpkD.s:9321   .debug_str:00000000000000db .LASF188
     /tmp/cc7WLpkD.s:2141   .text:0000000000000be8 .LFB39
     /tmp/cc7WLpkD.s:2193   .text:0000000000000c3c .LFE39
     /tmp/cc7WLpkD.s:8802   .debug_loc:0000000000000573 .LLST53
     /tmp/cc7WLpkD.s:2162   .text:0000000000000c0c .LBB57
     /tmp/cc7WLpkD.s:2179   .text:0000000000000c28 .LBE57
     /tmp/cc7WLpkD.s:8816   .debug_loc:00000000000005ac .LLST54
     /tmp/cc7WLpkD.s:2171   .text:0000000000000c1c .LVL237
     /tmp/cc7WLpkD.s:2160   .text:0000000000000c0c .LVL235
     /tmp/cc7WLpkD.s:9719   .debug_str:0000000000000d24 .LASF189
GAS LISTING /tmp/cc7WLpkD.s 			page 102


     /tmp/cc7WLpkD.s:9583   .debug_str:0000000000000954 .LASF190
     /tmp/cc7WLpkD.s:2036   .text:0000000000000b58 .LFB38
     /tmp/cc7WLpkD.s:2067   .text:0000000000000b98 .LFE38
     /tmp/cc7WLpkD.s:2051   .text:0000000000000b78 .LVL223
     /tmp/cc7WLpkD.s:2056   .text:0000000000000b88 .LVL224
     /tmp/cc7WLpkD.s:9555   .debug_str:000000000000089d .LASF191
     /tmp/cc7WLpkD.s:1984   .text:0000000000000b00 .LFB37
     /tmp/cc7WLpkD.s:2025   .text:0000000000000b58 .LFE37
     /tmp/cc7WLpkD.s:2002   .text:0000000000000b28 .LVL220
     /tmp/cc7WLpkD.s:2007   .text:0000000000000b38 .LVL221
     /tmp/cc7WLpkD.s:2012   .text:0000000000000b44 .LVL222
     /tmp/cc7WLpkD.s:9769   .debug_str:0000000000000eaa .LASF192
     /tmp/cc7WLpkD.s:9591   .debug_str:000000000000099a .LASF193
     /tmp/cc7WLpkD.s:1948   .text:0000000000000ad8 .LFB36
     /tmp/cc7WLpkD.s:1973   .text:0000000000000b00 .LFE36
     /tmp/cc7WLpkD.s:1962   .text:0000000000000af0 .LVL219
     /tmp/cc7WLpkD.s:9423   .debug_str:0000000000000495 .LASF194
     /tmp/cc7WLpkD.s:9669   .debug_str:0000000000000ba8 .LASF195
     /tmp/cc7WLpkD.s:1766   .text:0000000000000998 .LFB35
     /tmp/cc7WLpkD.s:1942   .text:0000000000000ad8 .LFE35
     /tmp/cc7WLpkD.s:9537   .debug_str:0000000000000825 .LASF196
     /tmp/cc7WLpkD.s:8828   .debug_loc:00000000000005e3 .LLST45
     /tmp/cc7WLpkD.s:1786   .text:00000000000009c0 .LBB50
     /tmp/cc7WLpkD.s:1813   .text:00000000000009f4 .LBE50
     /tmp/cc7WLpkD.s:8839   .debug_loc:0000000000000619 .LLST46
     /tmp/cc7WLpkD.s:1803   .text:00000000000009e0 .LVL200
     /tmp/cc7WLpkD.s:1839   .text:0000000000000a14 .LBB52
     /tmp/cc7WLpkD.s:1883   .text:0000000000000a6c .LBE52
     /tmp/cc7WLpkD.s:8850   .debug_loc:000000000000064f .LLST47
     /tmp/cc7WLpkD.s:1847   .text:0000000000000a20 .LBB53
     /tmp/cc7WLpkD.s:1874   .text:0000000000000a64 .LBE53
     /tmp/cc7WLpkD.s:9335   .debug_str:0000000000000176 .LASF197
     /tmp/cc7WLpkD.s:8861   .debug_loc:0000000000000685 .LLST48
     /tmp/cc7WLpkD.s:1855   .text:0000000000000a38 .LVL205
     /tmp/cc7WLpkD.s:1866   .text:0000000000000a50 .LVL207
     /tmp/cc7WLpkD.s:1884   .text:0000000000000a6c .LBB54
     /tmp/cc7WLpkD.s:1925   .text:0000000000000abc .LBE54
     /tmp/cc7WLpkD.s:8868   .debug_loc:00000000000006a8 .LLST49
     /tmp/cc7WLpkD.s:1892   .text:0000000000000a78 .LBB55
     /tmp/cc7WLpkD.s:1916   .text:0000000000000ab4 .LBE55
     /tmp/cc7WLpkD.s:8879   .debug_loc:00000000000006de .LLST50
     /tmp/cc7WLpkD.s:1900   .text:0000000000000a90 .LVL211
     /tmp/cc7WLpkD.s:1908   .text:0000000000000aa0 .LVL213
     /tmp/cc7WLpkD.s:1785   .text:00000000000009c0 .LVL197
     /tmp/cc7WLpkD.s:1939   .text:0000000000000ad4 .LVL218
     /tmp/cc7WLpkD.s:9777   .debug_str:0000000000000efb .LASF198
     /tmp/cc7WLpkD.s:9637   .debug_str:0000000000000ab9 .LASF199
     /tmp/cc7WLpkD.s:1697   .text:0000000000000928 .LFB34
     /tmp/cc7WLpkD.s:1755   .text:0000000000000998 .LFE34
     /tmp/cc7WLpkD.s:8886   .debug_loc:0000000000000701 .LLST43
     /tmp/cc7WLpkD.s:8899   .debug_loc:0000000000000739 .LLST44
     /tmp/cc7WLpkD.s:1712   .text:0000000000000948 .LVL188
     /tmp/cc7WLpkD.s:1717   .text:0000000000000954 .LVL189
     /tmp/cc7WLpkD.s:1723   .text:0000000000000960 .LVL191
     /tmp/cc7WLpkD.s:1731   .text:0000000000000974 .LVL193
     /tmp/cc7WLpkD.s:1751   .text:0000000000000994 .LVL196
     /tmp/cc7WLpkD.s:9527   .debug_str:00000000000007dd .LASF200
GAS LISTING /tmp/cc7WLpkD.s 			page 103


     /tmp/cc7WLpkD.s:9507   .debug_str:000000000000073b .LASF201
     /tmp/cc7WLpkD.s:1561   .text:0000000000000850 .LFB33
     /tmp/cc7WLpkD.s:1686   .text:0000000000000928 .LFE33
     /tmp/cc7WLpkD.s:8926   .debug_loc:000000000000077f .LLST39
     /tmp/cc7WLpkD.s:8938   .debug_loc:00000000000007b6 .LLST40
     /tmp/cc7WLpkD.s:8954   .debug_loc:0000000000000800 .LLST41
     /tmp/cc7WLpkD.s:8970   .debug_loc:000000000000084a .LLST42
     /tmp/cc7WLpkD.s:1627   .text:00000000000008b8 .LVL178
     /tmp/cc7WLpkD.s:1582   .text:000000000000087c .LVL173
     /tmp/cc7WLpkD.s:1638   .text:00000000000008c8 .LVL180
     /tmp/cc7WLpkD.s:1643   .text:00000000000008d8 .LVL181
     /tmp/cc7WLpkD.s:1656   .text:00000000000008f8 .LVL183
     /tmp/cc7WLpkD.s:1683   .text:0000000000000924 .LVL187
     /tmp/cc7WLpkD.s:9691   .debug_str:0000000000000c61 .LASF202
     /tmp/cc7WLpkD.s:9575   .debug_str:0000000000000924 .LASF203
     /tmp/cc7WLpkD.s:1490   .text:00000000000007d0 .LFB32
     /tmp/cc7WLpkD.s:1550   .text:0000000000000850 .LFE32
     /tmp/cc7WLpkD.s:8981   .debug_loc:0000000000000880 .LLST37
     /tmp/cc7WLpkD.s:8994   .debug_loc:00000000000008b9 .LLST38
     /tmp/cc7WLpkD.s:1505   .text:00000000000007f0 .LVL164
     /tmp/cc7WLpkD.s:1519   .text:0000000000000818 .LVL167
     /tmp/cc7WLpkD.s:1527   .text:000000000000082c .LVL169
     /tmp/cc7WLpkD.s:1547   .text:000000000000084c .LVL172
     /tmp/cc7WLpkD.s:9631   .debug_str:0000000000000a98 .LASF204
     /tmp/cc7WLpkD.s:9679   .debug_str:0000000000000bed .LASF205
     /tmp/cc7WLpkD.s:1292   .text:0000000000000670 .LFB31
     /tmp/cc7WLpkD.s:1479   .text:00000000000007d0 .LFE31
     /tmp/cc7WLpkD.s:1310   .text:0000000000000694 .LBB38
     /tmp/cc7WLpkD.s:1342   .text:00000000000006d8 .LBE38
     /tmp/cc7WLpkD.s:9005   .debug_loc:00000000000008ef .LLST31
     /tmp/cc7WLpkD.s:1327   .text:00000000000006b4 .LVL143
     /tmp/cc7WLpkD.s:1339   .text:00000000000006d8 .LVL144
     /tmp/cc7WLpkD.s:1358   .text:00000000000006ec .LBB39
     /tmp/cc7WLpkD.s:1397   .text:0000000000000730 .LBE39
     /tmp/cc7WLpkD.s:9016   .debug_loc:0000000000000925 .LLST32
     /tmp/cc7WLpkD.s:9027   .debug_loc:000000000000095b .LLST33
     /tmp/cc7WLpkD.s:1374   .text:0000000000000710 .LVL147
     /tmp/cc7WLpkD.s:1392   .text:000000000000072c .LVL151
     /tmp/cc7WLpkD.s:1398   .text:0000000000000730 .LBB42
     /tmp/cc7WLpkD.s:1433   .text:0000000000000778 .LBE42
     /tmp/cc7WLpkD.s:9034   .debug_loc:000000000000097e .LLST34
     /tmp/cc7WLpkD.s:1417   .text:0000000000000750 .LVL155
     /tmp/cc7WLpkD.s:1429   .text:0000000000000774 .LVL156
     /tmp/cc7WLpkD.s:1434   .text:0000000000000778 .LBB43
     /tmp/cc7WLpkD.s:1471   .text:00000000000007bc .LBE43
     /tmp/cc7WLpkD.s:9041   .debug_loc:00000000000009a1 .LLST35
     /tmp/cc7WLpkD.s:9052   .debug_loc:00000000000009d7 .LLST36
     /tmp/cc7WLpkD.s:1450   .text:000000000000079c .LVL158
     /tmp/cc7WLpkD.s:1466   .text:00000000000007b8 .LVL162
     /tmp/cc7WLpkD.s:1309   .text:0000000000000694 .LVL140
     /tmp/cc7WLpkD.s:1476   .text:00000000000007cc .LVL163
     /tmp/cc7WLpkD.s:9371   .debug_str:000000000000031e .LASF206
     /tmp/cc7WLpkD.s:9729   .debug_str:0000000000000d6d .LASF207
     /tmp/cc7WLpkD.s:2886   .text:000000000000102c .LFB30
     /tmp/cc7WLpkD.s:2902   .text:0000000000001044 .LFE30
     /tmp/cc7WLpkD.s:2900   .text:0000000000001044 .LVL303
     /tmp/cc7WLpkD.s:9665   .debug_str:0000000000000b97 .LASF208
GAS LISTING /tmp/cc7WLpkD.s 			page 104


     /tmp/cc7WLpkD.s:9517   .debug_str:000000000000079a .LASF209
     /tmp/cc7WLpkD.s:2857   .text:000000000000102c .LFE29
     /tmp/cc7WLpkD.s:9059   .debug_loc:00000000000009fa .LLST62
     /tmp/cc7WLpkD.s:2825   .text:0000000000000ff0 .LVL297
     /tmp/cc7WLpkD.s:2831   .text:0000000000001000 .LVL298
     /tmp/cc7WLpkD.s:2838   .text:000000000000100c .LVL299
     /tmp/cc7WLpkD.s:2850   .text:0000000000001020 .LVL301
     /tmp/cc7WLpkD.s:2854   .text:000000000000102c .LVL302
     /tmp/cc7WLpkD.s:9733   .debug_str:0000000000000d88 .LASF210
     /tmp/cc7WLpkD.s:9307   .debug_str:0000000000000085 .LASF211
     /tmp/cc7WLpkD.s:1228   .text:0000000000000670 .LFE28
     /tmp/cc7WLpkD.s:9333   .debug_str:000000000000016b .LASF212
     /tmp/cc7WLpkD.s:9066   .debug_loc:0000000000000a1d .LLST27
     /tmp/cc7WLpkD.s:9081   .debug_loc:0000000000000a66 .LLST28
     /tmp/cc7WLpkD.s:9088   .debug_loc:0000000000000a89 .LLST29
     /tmp/cc7WLpkD.s:1154   .text:00000000000005e0 .LBB36
     /tmp/cc7WLpkD.s:1161   .text:00000000000005e4 .LBE36
     /tmp/cc7WLpkD.s:9095   .debug_loc:0000000000000aac .LLST30
     /tmp/cc7WLpkD.s:1090   .text:0000000000000550 .LVL115
     /tmp/cc7WLpkD.s:1097   .text:0000000000000568 .LVL116
     /tmp/cc7WLpkD.s:1104   .text:0000000000000574 .LVL117
     /tmp/cc7WLpkD.s:1109   .text:0000000000000580 .LVL118
     /tmp/cc7WLpkD.s:1116   .text:0000000000000598 .LVL119
     /tmp/cc7WLpkD.s:1123   .text:00000000000005a4 .LVL120
     /tmp/cc7WLpkD.s:1128   .text:00000000000005b0 .LVL121
     /tmp/cc7WLpkD.s:1136   .text:00000000000005c8 .LVL123
     /tmp/cc7WLpkD.s:1143   .text:00000000000005d4 .LVL124
     /tmp/cc7WLpkD.s:1147   .text:00000000000005dc .LVL125
     /tmp/cc7WLpkD.s:1169   .text:00000000000005fc .LVL128
     /tmp/cc7WLpkD.s:1173   .text:0000000000000604 .LVL129
     /tmp/cc7WLpkD.s:1197   .text:000000000000062c .LVL132
     /tmp/cc7WLpkD.s:1201   .text:0000000000000638 .LVL133
     /tmp/cc7WLpkD.s:1209   .text:0000000000000648 .LVL135
     /tmp/cc7WLpkD.s:1213   .text:0000000000000654 .LVL136
     /tmp/cc7WLpkD.s:1221   .text:0000000000000664 .LVL138
     /tmp/cc7WLpkD.s:1225   .text:0000000000000670 .LVL139
     /tmp/cc7WLpkD.s:9663   .debug_str:0000000000000b8b .LASF213
     /tmp/cc7WLpkD.s:9403   .debug_str:0000000000000400 .LASF214
     /tmp/cc7WLpkD.s:1026   .text:000000000000052c .LFE27
     /tmp/cc7WLpkD.s:9102   .debug_loc:0000000000000acf .LLST23
     /tmp/cc7WLpkD.s:9113   .debug_loc:0000000000000b05 .LLST24
     /tmp/cc7WLpkD.s:949    .text:00000000000004a8 .LBB32
     /tmp/cc7WLpkD.s:957    .text:00000000000004ac .LBE32
     /tmp/cc7WLpkD.s:9120   .debug_loc:0000000000000b28 .LLST25
     /tmp/cc7WLpkD.s:964    .text:00000000000004b8 .LBB34
     /tmp/cc7WLpkD.s:971    .text:00000000000004bc .LBE34
     /tmp/cc7WLpkD.s:9127   .debug_loc:0000000000000b4b .LLST26
     /tmp/cc7WLpkD.s:894    .text:000000000000042c .LVL93
     /tmp/cc7WLpkD.s:901    .text:0000000000000444 .LVL94
     /tmp/cc7WLpkD.s:908    .text:0000000000000450 .LVL95
     /tmp/cc7WLpkD.s:913    .text:000000000000045c .LVL96
     /tmp/cc7WLpkD.s:920    .text:0000000000000474 .LVL97
     /tmp/cc7WLpkD.s:927    .text:0000000000000480 .LVL98
     /tmp/cc7WLpkD.s:931    .text:0000000000000488 .LVL99
     /tmp/cc7WLpkD.s:938    .text:000000000000049c .LVL100
     /tmp/cc7WLpkD.s:942    .text:00000000000004a4 .LVL101
     /tmp/cc7WLpkD.s:979    .text:00000000000004d4 .LVL106
GAS LISTING /tmp/cc7WLpkD.s 			page 105


     /tmp/cc7WLpkD.s:983    .text:00000000000004dc .LVL107
     /tmp/cc7WLpkD.s:1007   .text:0000000000000504 .LVL110
     /tmp/cc7WLpkD.s:1011   .text:0000000000000510 .LVL111
     /tmp/cc7WLpkD.s:1019   .text:0000000000000520 .LVL113
     /tmp/cc7WLpkD.s:1023   .text:000000000000052c .LVL114
     /tmp/cc7WLpkD.s:9377   .debug_str:0000000000000357 .LASF215
     /tmp/cc7WLpkD.s:9757   .debug_str:0000000000000e53 .LASF216
     /tmp/cc7WLpkD.s:352    .text:00000000000001b8 .LFB26
     /tmp/cc7WLpkD.s:442    .text:0000000000000264 .LFE26
     /tmp/cc7WLpkD.s:9134   .debug_loc:0000000000000b6e .LLST7
     /tmp/cc7WLpkD.s:374    .text:00000000000001dc .LBB23
     /tmp/cc7WLpkD.s:428    .text:0000000000000250 .LBE23
     /tmp/cc7WLpkD.s:9148   .debug_loc:0000000000000ba7 .LLST8
     /tmp/cc7WLpkD.s:383    .text:00000000000001ec .LVL38
     /tmp/cc7WLpkD.s:389    .text:00000000000001f8 .LVL39
     /tmp/cc7WLpkD.s:395    .text:0000000000000208 .LVL40
     /tmp/cc7WLpkD.s:400    .text:0000000000000214 .LVL41
     /tmp/cc7WLpkD.s:405    .text:0000000000000224 .LVL42
     /tmp/cc7WLpkD.s:371    .text:00000000000001dc .LVL36
     /tmp/cc7WLpkD.s:9493   .debug_str:00000000000006c8 .LASF217
     /tmp/cc7WLpkD.s:9717   .debug_str:0000000000000d0e .LASF218
     /tmp/cc7WLpkD.s:205    .text:00000000000000c4 .LFB25
     /tmp/cc7WLpkD.s:285    .text:000000000000015c .LFE25
     /tmp/cc7WLpkD.s:9160   .debug_loc:0000000000000bde .LLST3
     /tmp/cc7WLpkD.s:227    .text:00000000000000e8 .LBB21
     /tmp/cc7WLpkD.s:271    .text:0000000000000148 .LBE21
     /tmp/cc7WLpkD.s:9174   .debug_loc:0000000000000c17 .LLST4
     /tmp/cc7WLpkD.s:236    .text:00000000000000f8 .LVL20
     /tmp/cc7WLpkD.s:242    .text:0000000000000108 .LVL21
     /tmp/cc7WLpkD.s:247    .text:0000000000000114 .LVL22
     /tmp/cc7WLpkD.s:252    .text:0000000000000124 .LVL23
     /tmp/cc7WLpkD.s:224    .text:00000000000000e8 .LVL18
     /tmp/cc7WLpkD.s:9735   .debug_str:0000000000000d94 .LASF219
     /tmp/cc7WLpkD.s:9391   .debug_str:00000000000003ab .LASF220
     /tmp/cc7WLpkD.s:111    .text:000000000000002c .LFB24
     /tmp/cc7WLpkD.s:191    .text:00000000000000c4 .LFE24
     /tmp/cc7WLpkD.s:9186   .debug_loc:0000000000000c4e .LLST1
     /tmp/cc7WLpkD.s:133    .text:0000000000000050 .LBB20
     /tmp/cc7WLpkD.s:177    .text:00000000000000b0 .LBE20
     /tmp/cc7WLpkD.s:9200   .debug_loc:0000000000000c87 .LLST2
     /tmp/cc7WLpkD.s:142    .text:0000000000000060 .LVL10
     /tmp/cc7WLpkD.s:148    .text:0000000000000070 .LVL11
     /tmp/cc7WLpkD.s:153    .text:000000000000007c .LVL12
     /tmp/cc7WLpkD.s:158    .text:000000000000008c .LVL13
     /tmp/cc7WLpkD.s:130    .text:0000000000000050 .LVL8
     /tmp/cc7WLpkD.s:9417   .debug_str:000000000000046e .LASF221
     /tmp/cc7WLpkD.s:9339   .debug_str:0000000000000187 .LASF222
     /tmp/cc7WLpkD.s:66     .text:0000000000000000 .LFB23
     /tmp/cc7WLpkD.s:94     .text:000000000000002c .LFE23
     /tmp/cc7WLpkD.s:9212   .debug_loc:0000000000000cbe .LLST0
     /tmp/cc7WLpkD.s:86     .text:0000000000000020 .LVL4
     /tmp/cc7WLpkD.s:90     .text:0000000000000028 .LVL5
     /tmp/cc7WLpkD.s:37     .text._ZN14PeriodicThread18periodicActivationEv:0000000000000000 .LFB22
     /tmp/cc7WLpkD.s:55     .text._ZN14PeriodicThread18periodicActivationEv:0000000000000018 .LFE22
     /tmp/cc7WLpkD.s:11     .text._ZN6Thread3runEv:0000000000000000 .LFB21
     /tmp/cc7WLpkD.s:30     .text._ZN6Thread3runEv:0000000000000018 .LFE21
     /tmp/cc7WLpkD.s:9545   .debug_str:0000000000000864 .LASF223
GAS LISTING /tmp/cc7WLpkD.s 			page 106


     /tmp/cc7WLpkD.s:9411   .debug_str:000000000000044d .LASF224
     /tmp/cc7WLpkD.s:9657   .debug_str:0000000000000b6c .LASF225
     /tmp/cc7WLpkD.s:9759   .debug_str:0000000000000e6e .LASF242
     /tmp/cc7WLpkD.s:9329   .debug_str:000000000000012b .LASF243
     /tmp/cc7WLpkD.s:9415   .debug_str:0000000000000462 .LASF226
     /tmp/cc7WLpkD.s:9501   .debug_str:0000000000000716 .LASF227
     /tmp/cc7WLpkD.s:9515   .debug_str:0000000000000790 .LASF228
     /tmp/cc7WLpkD.s:9445   .debug_str:000000000000053e .LASF229
     /tmp/cc7WLpkD.s:818    .text._ZN12TestPeriodicD0Ev:0000000000000000 .LVL88
     /tmp/cc7WLpkD.s:853    .text._ZN12TestPeriodicD0Ev:0000000000000044 .LVL92
     /tmp/cc7WLpkD.s:830    .text._ZN12TestPeriodicD0Ev:0000000000000018 .LVL89
     /tmp/cc7WLpkD.s:777    .text._ZN12TestPeriodicD2Ev:0000000000000000 .LVL85
     /tmp/cc7WLpkD.s:786    .text._ZN12TestPeriodicD2Ev:0000000000000010 .LVL86
     /tmp/cc7WLpkD.s:294    .text:000000000000015c .LVL26
     /tmp/cc7WLpkD.s:310    .text:0000000000000174 .LVL28
     /tmp/cc7WLpkD.s:306    .text:0000000000000170 .LVL27
     /tmp/cc7WLpkD.s:328    .text:00000000000001a0 .LVL31
     /tmp/cc7WLpkD.s:330    .text:00000000000001a4 .LVL32
     /tmp/cc7WLpkD.s:341    .text:00000000000001b0 .LVL33
     /tmp/cc7WLpkD.s:2763   .text:0000000000000f8c .LVL294
     /tmp/cc7WLpkD.s:2790   .text:0000000000000fc4 .LVL296
     /tmp/cc7WLpkD.s:729    .text._ZN14PeriodicThreadD0Ev:0000000000000000 .LVL80
     /tmp/cc7WLpkD.s:761    .text._ZN14PeriodicThreadD0Ev:0000000000000044 .LVL84
     /tmp/cc7WLpkD.s:741    .text._ZN14PeriodicThreadD0Ev:0000000000000018 .LVL81
     /tmp/cc7WLpkD.s:692    .text._ZN14PeriodicThreadD2Ev:0000000000000000 .LVL78
     /tmp/cc7WLpkD.s:2554   .text:0000000000000eac .LVL278
     /tmp/cc7WLpkD.s:2551   .text:0000000000000ea8 .LVL277
     /tmp/cc7WLpkD.s:2616   .text:0000000000000f44 .LVL289
     /tmp/cc7WLpkD.s:2524   .text:0000000000000e80 .LVL274
     /tmp/cc7WLpkD.s:2530   .text:0000000000000e84 .LVL275
     /tmp/cc7WLpkD.s:616    .text:000000000000037c .LVL67
     /tmp/cc7WLpkD.s:632    .text:000000000000039c .LVL68
     /tmp/cc7WLpkD.s:639    .text:00000000000003ac .LVL70
     /tmp/cc7WLpkD.s:650    .text:00000000000003b8 .LVL72
     /tmp/cc7WLpkD.s:536    .text:00000000000002f0 .LVL56
     /tmp/cc7WLpkD.s:552    .text:0000000000000310 .LVL57
     /tmp/cc7WLpkD.s:559    .text:0000000000000320 .LVL59
     /tmp/cc7WLpkD.s:570    .text:000000000000032c .LVL61
     /tmp/cc7WLpkD.s:456    .text:0000000000000264 .LVL45
     /tmp/cc7WLpkD.s:472    .text:0000000000000284 .LVL46
     /tmp/cc7WLpkD.s:479    .text:0000000000000294 .LVL48
     /tmp/cc7WLpkD.s:490    .text:00000000000002a0 .LVL50
     /tmp/cc7WLpkD.s:2288   .text:0000000000000cf4 .LVL250
     /tmp/cc7WLpkD.s:2081   .text:0000000000000b98 .LVL225
     /tmp/cc7WLpkD.s:2095   .text:0000000000000bb4 .LVL226
     /tmp/cc7WLpkD.s:2102   .text:0000000000000bc0 .LVL228
     /tmp/cc7WLpkD.s:2112   .text:0000000000000bd0 .LVL230
     /tmp/cc7WLpkD.s:2114   .text:0000000000000bd4 .LVL231
     /tmp/cc7WLpkD.s:2125   .text:0000000000000be0 .LVL232
     /tmp/cc7WLpkD.s:2144   .text:0000000000000be8 .LVL233
     /tmp/cc7WLpkD.s:2158   .text:0000000000000c04 .LVL234
     /tmp/cc7WLpkD.s:2166   .text:0000000000000c14 .LVL236
     /tmp/cc7WLpkD.s:2188   .text:0000000000000c34 .LVL239
     /tmp/cc7WLpkD.s:1833   .text:0000000000000a10 .LVL203
     /tmp/cc7WLpkD.s:1929   .text:0000000000000ac0 .LVL216
     /tmp/cc7WLpkD.s:1933   .text:0000000000000ac4 .LVL217
     /tmp/cc7WLpkD.s:1790   .text:00000000000009c8 .LVL198
GAS LISTING /tmp/cc7WLpkD.s 			page 107


     /tmp/cc7WLpkD.s:1811   .text:00000000000009f4 .LVL201
     /tmp/cc7WLpkD.s:1828   .text:0000000000000a0c .LVL202
     /tmp/cc7WLpkD.s:1843   .text:0000000000000a18 .LVL204
     /tmp/cc7WLpkD.s:1878   .text:0000000000000a68 .LVL208
     /tmp/cc7WLpkD.s:1881   .text:0000000000000a6c .LVL209
     /tmp/cc7WLpkD.s:1887   .text:0000000000000a70 .LVL210
     /tmp/cc7WLpkD.s:1861   .text:0000000000000a40 .LVL206
     /tmp/cc7WLpkD.s:1920   .text:0000000000000ab8 .LVL214
     /tmp/cc7WLpkD.s:1923   .text:0000000000000abc .LVL215
     /tmp/cc7WLpkD.s:1906   .text:0000000000000a98 .LVL212
     /tmp/cc7WLpkD.s:1721   .text:0000000000000958 .LVL190
     /tmp/cc7WLpkD.s:1729   .text:000000000000096c .LVL192
     /tmp/cc7WLpkD.s:1743   .text:0000000000000984 .LVL194
     /tmp/cc7WLpkD.s:1749   .text:000000000000098c .LVL195
     /tmp/cc7WLpkD.s:1597   .text:000000000000088c .LVL174
     /tmp/cc7WLpkD.s:1648   .text:00000000000008e0 .LVL182
     /tmp/cc7WLpkD.s:1672   .text:000000000000090c .LVL185
     /tmp/cc7WLpkD.s:1676   .text:0000000000000914 .LVL186
     /tmp/cc7WLpkD.s:1667   .text:0000000000000904 .LVL184
     /tmp/cc7WLpkD.s:1616   .text:00000000000008a0 .LVL177
     /tmp/cc7WLpkD.s:1630   .text:00000000000008bc .LVL179
     /tmp/cc7WLpkD.s:1513   .text:000000000000080c .LVL165
     /tmp/cc7WLpkD.s:1517   .text:0000000000000810 .LVL166
     /tmp/cc7WLpkD.s:1525   .text:0000000000000824 .LVL168
     /tmp/cc7WLpkD.s:1539   .text:000000000000083c .LVL170
     /tmp/cc7WLpkD.s:1545   .text:0000000000000844 .LVL171
     /tmp/cc7WLpkD.s:1314   .text:000000000000069c .LVL141
     /tmp/cc7WLpkD.s:1355   .text:00000000000006ec .LVL145
     /tmp/cc7WLpkD.s:1361   .text:00000000000006f0 .LVL146
     /tmp/cc7WLpkD.s:1381   .text:0000000000000718 .LVL148
     /tmp/cc7WLpkD.s:1384   .text:000000000000071c .LVL149
     /tmp/cc7WLpkD.s:1401   .text:0000000000000734 .LVL152
     /tmp/cc7WLpkD.s:1390   .text:0000000000000724 .LVL150
     /tmp/cc7WLpkD.s:1403   .text:0000000000000738 .LVL153
     /tmp/cc7WLpkD.s:1437   .text:000000000000077c .LVL157
     /tmp/cc7WLpkD.s:1456   .text:00000000000007a4 .LVL159
     /tmp/cc7WLpkD.s:1458   .text:00000000000007a8 .LVL160
     /tmp/cc7WLpkD.s:1464   .text:00000000000007b0 .LVL161
     /tmp/cc7WLpkD.s:2844   .text:0000000000001010 .LVL300
     /tmp/cc7WLpkD.s:1184   .text:0000000000000610 .LVL130
     /tmp/cc7WLpkD.s:1205   .text:000000000000063c .LVL134
     /tmp/cc7WLpkD.s:1217   .text:0000000000000658 .LVL137
     /tmp/cc7WLpkD.s:1131   .text:00000000000005b4 .LVL122
     /tmp/cc7WLpkD.s:1187   .text:0000000000000614 .LVL131
     /tmp/cc7WLpkD.s:1153   .text:00000000000005e0 .LVL126
     /tmp/cc7WLpkD.s:1159   .text:00000000000005e4 .LVL127
     /tmp/cc7WLpkD.s:994    .text:00000000000004e8 .LVL108
     /tmp/cc7WLpkD.s:1015   .text:0000000000000514 .LVL112
     /tmp/cc7WLpkD.s:997    .text:00000000000004ec .LVL109
     /tmp/cc7WLpkD.s:948    .text:00000000000004a8 .LVL102
     /tmp/cc7WLpkD.s:955    .text:00000000000004ac .LVL103
     /tmp/cc7WLpkD.s:963    .text:00000000000004b8 .LVL104
     /tmp/cc7WLpkD.s:969    .text:00000000000004bc .LVL105
     /tmp/cc7WLpkD.s:355    .text:00000000000001b8 .LVL34
     /tmp/cc7WLpkD.s:369    .text:00000000000001d4 .LVL35
     /tmp/cc7WLpkD.s:378    .text:00000000000001e4 .LVL37
     /tmp/cc7WLpkD.s:437    .text:000000000000025c .LVL44
GAS LISTING /tmp/cc7WLpkD.s 			page 108


     /tmp/cc7WLpkD.s:208    .text:00000000000000c4 .LVL16
     /tmp/cc7WLpkD.s:222    .text:00000000000000e0 .LVL17
     /tmp/cc7WLpkD.s:231    .text:00000000000000f0 .LVL19
     /tmp/cc7WLpkD.s:280    .text:0000000000000154 .LVL25
     /tmp/cc7WLpkD.s:114    .text:000000000000002c .LVL6
     /tmp/cc7WLpkD.s:128    .text:0000000000000048 .LVL7
     /tmp/cc7WLpkD.s:137    .text:0000000000000058 .LVL9
     /tmp/cc7WLpkD.s:186    .text:00000000000000bc .LVL15
     /tmp/cc7WLpkD.s:70     .text:0000000000000000 .LVL2
     /tmp/cc7WLpkD.s:79     .text:0000000000000010 .LVL3
     /tmp/cc7WLpkD.s:2958   .debug_info:0000000000000000 .Ldebug_info0
     /tmp/cc7WLpkD.s:5      .text:0000000000000000 .Ltext0
     /tmp/cc7WLpkD.s:2952   .text:0000000000001044 .Letext0
     /tmp/cc7WLpkD.s:1366   .text:00000000000006f8 .LBB40
     /tmp/cc7WLpkD.s:1377   .text:0000000000000714 .LBE40
     /tmp/cc7WLpkD.s:1386   .text:000000000000071c .LBB41
     /tmp/cc7WLpkD.s:1396   .text:0000000000000730 .LBE41
     /tmp/cc7WLpkD.s:1442   .text:0000000000000784 .LBB44
     /tmp/cc7WLpkD.s:1453   .text:00000000000007a0 .LBE44
     /tmp/cc7WLpkD.s:1460   .text:00000000000007a8 .LBB45
     /tmp/cc7WLpkD.s:1470   .text:00000000000007bc .LBE45
     /tmp/cc7WLpkD.s:1588   .text:000000000000087c .LBB46
     /tmp/cc7WLpkD.s:1591   .text:0000000000000880 .LBE46
     /tmp/cc7WLpkD.s:1599   .text:000000000000088c .LBB49
     /tmp/cc7WLpkD.s:1633   .text:00000000000008bc .LBE49
     /tmp/cc7WLpkD.s:1600   .text:000000000000088c .LBB47
     /tmp/cc7WLpkD.s:1613   .text:000000000000089c .LBE47
     /tmp/cc7WLpkD.s:1622   .text:00000000000008ac .LBB48
     /tmp/cc7WLpkD.s:1632   .text:00000000000008bc .LBE48
     /tmp/cc7WLpkD.s:1029   .gcc_except_table:0000000000000000 .LLSDA27
     /tmp/cc7WLpkD.s:1230   .gcc_except_table:000000000000005f .LLSDA28
     /tmp/cc7WLpkD.s:2336   .gcc_except_table:00000000000000e6 .LLSDA41
     /tmp/cc7WLpkD.s:2629   .gcc_except_table:0000000000000194 .LLSDA45
     /tmp/cc7WLpkD.s:2859   .gcc_except_table:0000000000000290 .LLSDA29
                           .group:0000000000000000 _ZN14PeriodicThreadD5Ev
                           .group:0000000000000000 _ZN12TestPeriodicD5Ev

UNDEFINED SYMBOLS
_ZN5Riscv11printStringEPKc
thread_dispatch
_ZN5Riscv12printIntegerEm
thread_exit
_ZN9Semaphore4waitEv
__putc
_ZN9Semaphore6signalEv
_ZN6ThreadD2Ev
_ZdlPv
_Znwm
_ZN6ThreadC1EPFvPvES0_
_ZN6Thread5startEv
_ZN5Riscv16enableInterruptsEv
_ZN5Riscv17disableInterruptsEv
_Unwind_Resume
__gxx_personality_v0
mem_alloc
mem_free
HEAP_END_ADDR
GAS LISTING /tmp/cc7WLpkD.s 			page 109


HEAP_START_ADDR
_ZN9SemaphoreC1Ej
_ZN14PeriodicThreadC2Em
